	.cpu cortex-m4
	.eabi_attribute 27, 1
	.eabi_attribute 28, 1
	.eabi_attribute 20, 1
	.eabi_attribute 21, 1
	.eabi_attribute 23, 3
	.eabi_attribute 24, 1
	.eabi_attribute 25, 1
	.eabi_attribute 26, 1
	.eabi_attribute 30, 2
	.eabi_attribute 34, 1
	.eabi_attribute 18, 4
	.file	"cmsis_os.c"
	.text
.Ltext0:
	.cfi_sections	.debug_frame
	.section	.text.osKernelStart,"ax",%progbits
	.align	1
	.p2align 2,,3
	.global	osKernelStart
	.arch armv7e-m
	.syntax unified
	.thumb
	.thumb_func
	.fpu fpv4-sp-d16
	.type	osKernelStart, %function
osKernelStart:
.LFB112:
	.file 1 "Middlewares/Third_Party/FreeRTOS/Source/CMSIS_RTOS/cmsis_os.c"
	.loc 1 151 1 view -0
	.cfi_startproc
	@ args = 0, pretend = 0, frame = 0
	@ frame_needed = 0, uses_anonymous_args = 0
	.loc 1 152 3 view .LVU1
	.loc 1 151 1 is_stmt 0 view .LVU2
	push	{r3, lr}
.LCFI0:
	.cfi_def_cfa_offset 8
	.cfi_offset 3, -8
	.cfi_offset 14, -4
	.loc 1 152 3 view .LVU3
	bl	vTaskStartScheduler
.LVL0:
	.loc 1 154 3 is_stmt 1 view .LVU4
	.loc 1 155 1 is_stmt 0 view .LVU5
	movs	r0, #0
	pop	{r3, pc}
	.cfi_endproc
.LFE112:
	.size	osKernelStart, .-osKernelStart
	.section	.text.osKernelRunning,"ax",%progbits
	.align	1
	.p2align 2,,3
	.global	osKernelRunning
	.syntax unified
	.thumb
	.thumb_func
	.fpu fpv4-sp-d16
	.type	osKernelRunning, %function
osKernelRunning:
.LFB113:
	.loc 1 166 1 is_stmt 1 view -0
	.cfi_startproc
	@ args = 0, pretend = 0, frame = 0
	@ frame_needed = 0, uses_anonymous_args = 0
	.loc 1 168 3 view .LVU7
	.loc 1 166 1 is_stmt 0 view .LVU8
	push	{r3, lr}
.LCFI1:
	.cfi_def_cfa_offset 8
	.cfi_offset 3, -8
	.cfi_offset 14, -4
	.loc 1 168 7 view .LVU9
	bl	xTaskGetSchedulerState
.LVL1:
	.loc 1 175 1 view .LVU10
	subs	r0, r0, #1
	it	ne
	movne	r0, #1
	pop	{r3, pc}
	.cfi_endproc
.LFE113:
	.size	osKernelRunning, .-osKernelRunning
	.section	.text.osKernelSysTick,"ax",%progbits
	.align	1
	.p2align 2,,3
	.global	osKernelSysTick
	.syntax unified
	.thumb
	.thumb_func
	.fpu fpv4-sp-d16
	.type	osKernelSysTick, %function
osKernelSysTick:
.LFB114:
	.loc 1 185 1 is_stmt 1 view -0
	.cfi_startproc
	@ args = 0, pretend = 0, frame = 0
	@ frame_needed = 0, uses_anonymous_args = 0
	@ link register save eliminated.
	.loc 1 186 3 view .LVU12
.LBB100:
.LBI100:
	.loc 1 130 12 view .LVU13
.LBE100:
	.loc 1 132 3 view .LVU14
.LBB103:
.LBB101:
.LBI101:
	.file 2 "Drivers/CMSIS/Include/cmsis_gcc.h"
	.loc 2 272 31 view .LVU15
.LBB102:
	.loc 2 274 3 view .LVU16
	.loc 2 276 3 view .LVU17
	.syntax unified
@ 276 "Drivers/CMSIS/Include/cmsis_gcc.h" 1
	MRS r3, ipsr
@ 0 "" 2
.LVL2:
	.loc 2 277 3 view .LVU18
	.loc 2 277 3 is_stmt 0 view .LVU19
	.thumb
	.syntax unified
.LBE102:
.LBE101:
.LBE103:
	.loc 1 186 6 view .LVU20
	cbz	r3, .L7
	.loc 1 187 5 is_stmt 1 view .LVU21
	.loc 1 187 12 is_stmt 0 view .LVU22
	b	xTaskGetTickCountFromISR
.LVL3:
.L7:
	.loc 1 190 5 is_stmt 1 view .LVU23
	.loc 1 190 12 is_stmt 0 view .LVU24
	b	xTaskGetTickCount
.LVL4:
	.cfi_endproc
.LFE114:
	.size	osKernelSysTick, .-osKernelSysTick
	.section	.text.osThreadCreate,"ax",%progbits
	.align	1
	.p2align 2,,3
	.global	osThreadCreate
	.syntax unified
	.thumb
	.thumb_func
	.fpu fpv4-sp-d16
	.type	osThreadCreate, %function
osThreadCreate:
.LVL5:
.LFB115:
	.loc 1 203 1 is_stmt 1 view -0
	.cfi_startproc
	@ args = 0, pretend = 0, frame = 8
	@ frame_needed = 0, uses_anonymous_args = 0
	.loc 1 204 3 view .LVU26
	.loc 1 225 3 view .LVU27
	.loc 1 203 1 is_stmt 0 view .LVU28
	push	{r4, lr}
.LCFI2:
	.cfi_def_cfa_offset 8
	.cfi_offset 4, -8
	.cfi_offset 14, -4
	mov	ip, r0
	mov	r3, r1
	.loc 1 225 7 view .LVU29
	ldrh	r2, [ip, #16]
	.loc 1 225 83 view .LVU30
	ldr	r1, [ip]
.LVL6:
	.loc 1 225 7 view .LVU31
	ldrsh	ip, [ip, #8]
.LVL7:
.LBB104:
.LBI104:
	.loc 1 103 31 is_stmt 1 view .LVU32
.LBB105:
	.loc 1 105 3 view .LVU33
	.loc 1 107 3 view .LVU34
.LBE105:
.LBE104:
	.loc 1 225 45 is_stmt 0 view .LVU35
	ldr	r0, [r0, #4]
.LVL8:
	.loc 1 203 1 view .LVU36
	sub	sp, sp, #16
.LCFI3:
	.cfi_def_cfa_offset 24
.LBB107:
.LBB106:
	.loc 1 107 6 view .LVU37
	cmp	ip, #132
	.loc 1 108 5 is_stmt 1 view .LVU38
	.loc 1 108 15 is_stmt 0 view .LVU39
	ite	ne
	addne	r4, ip, #3
.LVL9:
	.loc 1 105 26 view .LVU40
	moveq	r4, #0
.LVL10:
	.loc 1 111 3 is_stmt 1 view .LVU41
	.loc 1 111 3 is_stmt 0 view .LVU42
.LBE106:
.LBE107:
	.loc 1 225 7 view .LVU43
	str	r4, [sp]
	add	r4, sp, #12
	str	r4, [sp, #4]
	bl	xTaskCreate
.LVL11:
	.loc 1 225 6 view .LVU44
	cmp	r0, #1
	.loc 1 232 3 is_stmt 1 view .LVU45
	.loc 1 232 10 is_stmt 0 view .LVU46
	ite	eq
	ldreq	r0, [sp, #12]
	.loc 1 228 12 view .LVU47
	movne	r0, #0
	.loc 1 233 1 view .LVU48
	add	sp, sp, #16
.LCFI4:
	.cfi_def_cfa_offset 8
	@ sp needed
	pop	{r4, pc}
	.cfi_endproc
.LFE115:
	.size	osThreadCreate, .-osThreadCreate
	.section	.text.osThreadGetId,"ax",%progbits
	.align	1
	.p2align 2,,3
	.global	osThreadGetId
	.syntax unified
	.thumb
	.thumb_func
	.fpu fpv4-sp-d16
	.type	osThreadGetId, %function
osThreadGetId:
.LFB116:
	.loc 1 241 1 is_stmt 1 view -0
	.cfi_startproc
	@ args = 0, pretend = 0, frame = 0
	@ frame_needed = 0, uses_anonymous_args = 0
	@ link register save eliminated.
	.loc 1 243 3 view .LVU50
	.loc 1 243 10 is_stmt 0 view .LVU51
	b	xTaskGetCurrentTaskHandle
.LVL12:
	.cfi_endproc
.LFE116:
	.size	osThreadGetId, .-osThreadGetId
	.section	.text.osThreadTerminate,"ax",%progbits
	.align	1
	.p2align 2,,3
	.global	osThreadTerminate
	.syntax unified
	.thumb
	.thumb_func
	.fpu fpv4-sp-d16
	.type	osThreadTerminate, %function
osThreadTerminate:
.LVL13:
.LFB117:
	.loc 1 256 1 is_stmt 1 view -0
	.cfi_startproc
	@ args = 0, pretend = 0, frame = 0
	@ frame_needed = 0, uses_anonymous_args = 0
	.loc 1 258 3 view .LVU53
	.loc 1 256 1 is_stmt 0 view .LVU54
	push	{r3, lr}
.LCFI5:
	.cfi_def_cfa_offset 8
	.cfi_offset 3, -8
	.cfi_offset 14, -4
	.loc 1 258 3 view .LVU55
	bl	vTaskDelete
.LVL14:
	.loc 1 259 3 is_stmt 1 view .LVU56
	.loc 1 263 1 is_stmt 0 view .LVU57
	movs	r0, #0
	pop	{r3, pc}
	.cfi_endproc
.LFE117:
	.size	osThreadTerminate, .-osThreadTerminate
	.section	.text.osThreadYield,"ax",%progbits
	.align	1
	.p2align 2,,3
	.global	osThreadYield
	.syntax unified
	.thumb
	.thumb_func
	.fpu fpv4-sp-d16
	.type	osThreadYield, %function
osThreadYield:
.LFB118:
	.loc 1 271 1 is_stmt 1 view -0
	.cfi_startproc
	@ args = 0, pretend = 0, frame = 0
	@ frame_needed = 0, uses_anonymous_args = 0
	@ link register save eliminated.
	.loc 1 272 3 view .LVU59
	mov	r3, #-536813568
	mov	r2, #268435456
	str	r2, [r3, #3332]
	.loc 1 272 3 view .LVU60
	.syntax unified
@ 272 "Middlewares/Third_Party/FreeRTOS/Source/CMSIS_RTOS/cmsis_os.c" 1
	dsb
@ 0 "" 2
	.loc 1 272 3 view .LVU61
@ 272 "Middlewares/Third_Party/FreeRTOS/Source/CMSIS_RTOS/cmsis_os.c" 1
	isb
@ 0 "" 2
	.loc 1 272 14 view .LVU62
	.loc 1 274 3 view .LVU63
	.loc 1 275 1 is_stmt 0 view .LVU64
	.thumb
	.syntax unified
	movs	r0, #0
	bx	lr
	.cfi_endproc
.LFE118:
	.size	osThreadYield, .-osThreadYield
	.section	.text.osThreadSetPriority,"ax",%progbits
	.align	1
	.p2align 2,,3
	.global	osThreadSetPriority
	.syntax unified
	.thumb
	.thumb_func
	.fpu fpv4-sp-d16
	.type	osThreadSetPriority, %function
osThreadSetPriority:
.LVL15:
.LFB119:
	.loc 1 285 1 is_stmt 1 view -0
	.cfi_startproc
	@ args = 0, pretend = 0, frame = 0
	@ frame_needed = 0, uses_anonymous_args = 0
	.loc 1 287 3 view .LVU66
.LBB108:
.LBI108:
	.loc 1 103 31 view .LVU67
.LBB109:
	.loc 1 105 3 view .LVU68
	.loc 1 107 3 view .LVU69
.LBE109:
.LBE108:
	.loc 1 285 1 is_stmt 0 view .LVU70
	push	{r3, lr}
.LCFI6:
	.cfi_def_cfa_offset 8
	.cfi_offset 3, -8
	.cfi_offset 14, -4
.LBB111:
.LBB110:
	.loc 1 107 6 view .LVU71
	cmp	r1, #132
	.loc 1 108 5 is_stmt 1 view .LVU72
	.loc 1 108 15 is_stmt 0 view .LVU73
	ite	ne
	addne	r1, r1, #3
.LVL16:
	.loc 1 105 26 view .LVU74
	moveq	r1, #0
.LVL17:
	.loc 1 111 3 is_stmt 1 view .LVU75
	.loc 1 111 3 is_stmt 0 view .LVU76
.LBE110:
.LBE111:
	.loc 1 287 3 view .LVU77
	bl	vTaskPrioritySet
.LVL18:
	.loc 1 288 3 is_stmt 1 view .LVU78
	.loc 1 292 1 is_stmt 0 view .LVU79
	movs	r0, #0
	pop	{r3, pc}
	.cfi_endproc
.LFE119:
	.size	osThreadSetPriority, .-osThreadSetPriority
	.section	.text.osThreadGetPriority,"ax",%progbits
	.align	1
	.p2align 2,,3
	.global	osThreadGetPriority
	.syntax unified
	.thumb
	.thumb_func
	.fpu fpv4-sp-d16
	.type	osThreadGetPriority, %function
osThreadGetPriority:
.LVL19:
.LFB120:
	.loc 1 301 1 is_stmt 1 view -0
	.cfi_startproc
	@ args = 0, pretend = 0, frame = 0
	@ frame_needed = 0, uses_anonymous_args = 0
	.loc 1 303 3 view .LVU81
.LBB112:
.LBI112:
	.loc 1 130 12 view .LVU82
.LBE112:
	.loc 1 132 3 view .LVU83
.LBB117:
.LBB113:
.LBI113:
	.loc 2 272 31 view .LVU84
.LBB114:
	.loc 2 274 3 view .LVU85
	.loc 2 276 3 view .LVU86
.LBE114:
.LBE113:
.LBE117:
	.loc 1 301 1 is_stmt 0 view .LVU87
	push	{r3, lr}
.LCFI7:
	.cfi_def_cfa_offset 8
	.cfi_offset 3, -8
	.cfi_offset 14, -4
.LBB118:
.LBB116:
.LBB115:
	.loc 2 276 3 view .LVU88
	.syntax unified
@ 276 "Drivers/CMSIS/Include/cmsis_gcc.h" 1
	MRS r3, ipsr
@ 0 "" 2
.LVL20:
	.loc 2 277 3 is_stmt 1 view .LVU89
	.loc 2 277 3 is_stmt 0 view .LVU90
	.thumb
	.syntax unified
.LBE115:
.LBE116:
.LBE118:
	.loc 1 303 6 view .LVU91
	cbz	r3, .L23
	.loc 1 305 5 is_stmt 1 view .LVU92
	.loc 1 305 12 is_stmt 0 view .LVU93
	bl	uxTaskPriorityGetFromISR
.LVL21:
.LBB119:
.LBI119:
	.loc 1 116 19 is_stmt 1 view .LVU94
.LBB120:
	.loc 1 118 3 view .LVU95
	.loc 1 120 3 view .LVU96
	.loc 1 120 6 is_stmt 0 view .LVU97
	cmp	r0, #6
	bhi	.L26
.LVL22:
.L28:
	.loc 1 120 6 view .LVU98
.LBE120:
.LBE119:
.LBB122:
.LBB123:
	.loc 1 121 5 is_stmt 1 view .LVU99
	.loc 1 121 49 is_stmt 0 view .LVU100
	subs	r0, r0, #3
	.loc 1 121 14 view .LVU101
	sxth	r0, r0
.LVL23:
	.loc 1 121 14 view .LVU102
.LBE123:
.LBE122:
	.loc 1 314 1 view .LVU103
	pop	{r3, pc}
.LVL24:
.L23:
	.loc 1 309 5 is_stmt 1 view .LVU104
	.loc 1 309 12 is_stmt 0 view .LVU105
	bl	uxTaskPriorityGet
.LVL25:
.LBB125:
.LBI122:
	.loc 1 116 19 is_stmt 1 view .LVU106
.LBB124:
	.loc 1 118 3 view .LVU107
	.loc 1 120 3 view .LVU108
	.loc 1 120 6 is_stmt 0 view .LVU109
	cmp	r0, #6
	bls	.L28
.LVL26:
.L26:
	.loc 1 120 6 view .LVU110
.LBE124:
.LBE125:
.LBB126:
.LBB121:
	.loc 1 118 14 view .LVU111
	movs	r0, #132
.LBE121:
.LBE126:
	.loc 1 314 1 view .LVU112
	pop	{r3, pc}
	.cfi_endproc
.LFE120:
	.size	osThreadGetPriority, .-osThreadGetPriority
	.section	.text.osDelay,"ax",%progbits
	.align	1
	.p2align 2,,3
	.global	osDelay
	.syntax unified
	.thumb
	.thumb_func
	.fpu fpv4-sp-d16
	.type	osDelay, %function
osDelay:
.LVL27:
.LFB121:
	.loc 1 323 1 is_stmt 1 view -0
	.cfi_startproc
	@ args = 0, pretend = 0, frame = 0
	@ frame_needed = 0, uses_anonymous_args = 0
	.loc 1 325 3 view .LVU114
	.loc 1 327 3 view .LVU115
	.loc 1 323 1 is_stmt 0 view .LVU116
	push	{r3, lr}
.LCFI8:
	.cfi_def_cfa_offset 8
	.cfi_offset 3, -8
	.cfi_offset 14, -4
	.loc 1 327 3 view .LVU117
	cmp	r0, #1
	it	cc
	movcc	r0, #1
.LVL28:
	.loc 1 327 3 view .LVU118
	bl	vTaskDelay
.LVL29:
	.loc 1 329 3 is_stmt 1 view .LVU119
	.loc 1 335 1 is_stmt 0 view .LVU120
	movs	r0, #0
	pop	{r3, pc}
	.cfi_endproc
.LFE121:
	.size	osDelay, .-osDelay
	.section	.text.osTimerCreate,"ax",%progbits
	.align	1
	.p2align 2,,3
	.global	osTimerCreate
	.syntax unified
	.thumb
	.thumb_func
	.fpu fpv4-sp-d16
	.type	osTimerCreate, %function
osTimerCreate:
.LVL30:
.LFB122:
	.loc 1 358 1 is_stmt 1 view -0
	.cfi_startproc
	@ args = 0, pretend = 0, frame = 0
	@ frame_needed = 0, uses_anonymous_args = 0
	@ link register save eliminated.
	.loc 1 393 2 view .LVU122
	.loc 1 395 1 is_stmt 0 view .LVU123
	movs	r0, #0
.LVL31:
	.loc 1 395 1 view .LVU124
	bx	lr
	.cfi_endproc
.LFE122:
	.size	osTimerCreate, .-osTimerCreate
	.section	.text.osTimerStart,"ax",%progbits
	.align	1
	.p2align 2,,3
	.global	osTimerStart
	.syntax unified
	.thumb
	.thumb_func
	.fpu fpv4-sp-d16
	.type	osTimerStart, %function
osTimerStart:
.LVL32:
.LFB123:
	.loc 1 405 1 is_stmt 1 view -0
	.cfi_startproc
	@ args = 0, pretend = 0, frame = 0
	@ frame_needed = 0, uses_anonymous_args = 0
	@ link register save eliminated.
	.loc 1 406 3 view .LVU126
	.loc 1 432 3 view .LVU127
	.loc 1 434 3 view .LVU128
	.loc 1 435 1 is_stmt 0 view .LVU129
	movs	r0, #255
.LVL33:
	.loc 1 435 1 view .LVU130
	bx	lr
	.cfi_endproc
.LFE123:
	.size	osTimerStart, .-osTimerStart
	.section	.text.osTimerStop,"ax",%progbits
	.align	1
	.p2align 2,,3
	.global	osTimerStop
	.syntax unified
	.thumb
	.thumb_func
	.fpu fpv4-sp-d16
	.type	osTimerStop, %function
osTimerStop:
.LVL34:
.LFB124:
	.loc 1 444 1 is_stmt 1 view -0
	.cfi_startproc
	@ args = 0, pretend = 0, frame = 0
	@ frame_needed = 0, uses_anonymous_args = 0
	@ link register save eliminated.
	.loc 1 445 3 view .LVU132
	.loc 1 461 3 view .LVU133
	.loc 1 463 3 view .LVU134
	.loc 1 464 1 is_stmt 0 view .LVU135
	movs	r0, #255
.LVL35:
	.loc 1 464 1 view .LVU136
	bx	lr
	.cfi_endproc
.LFE124:
	.size	osTimerStop, .-osTimerStop
	.section	.text.osTimerDelete,"ax",%progbits
	.align	1
	.p2align 2,,3
	.global	osTimerDelete
	.syntax unified
	.thumb
	.thumb_func
	.fpu fpv4-sp-d16
	.type	osTimerDelete, %function
osTimerDelete:
.LFB166:
	.cfi_startproc
	@ args = 0, pretend = 0, frame = 0
	@ frame_needed = 0, uses_anonymous_args = 0
	@ link register save eliminated.
	movs	r0, #255
	bx	lr
	.cfi_endproc
.LFE166:
	.size	osTimerDelete, .-osTimerDelete
	.section	.text.osSignalSet,"ax",%progbits
	.align	1
	.p2align 2,,3
	.global	osSignalSet
	.syntax unified
	.thumb
	.thumb_func
	.fpu fpv4-sp-d16
	.type	osSignalSet, %function
osSignalSet:
.LVL36:
.LFB126:
	.loc 1 503 1 is_stmt 1 view -0
	.cfi_startproc
	@ args = 0, pretend = 0, frame = 8
	@ frame_needed = 0, uses_anonymous_args = 0
	.loc 1 505 3 view .LVU138
	.loc 1 503 1 is_stmt 0 view .LVU139
	push	{lr}
.LCFI9:
	.cfi_def_cfa_offset 4
	.cfi_offset 14, -4
	.loc 1 505 14 view .LVU140
	movs	r3, #0
	.loc 1 503 1 view .LVU141
	sub	sp, sp, #20
.LCFI10:
	.cfi_def_cfa_offset 24
	.loc 1 506 12 view .LVU142
	strd	r3, r3, [sp, #8]
	.loc 1 508 3 is_stmt 1 view .LVU143
.LBB127:
.LBI127:
	.loc 1 130 12 view .LVU144
.LBE127:
	.loc 1 132 3 view .LVU145
.LBB130:
.LBB128:
.LBI128:
	.loc 2 272 31 view .LVU146
.LBB129:
	.loc 2 274 3 view .LVU147
	.loc 2 276 3 view .LVU148
	.syntax unified
@ 276 "Drivers/CMSIS/Include/cmsis_gcc.h" 1
	MRS r3, ipsr
@ 0 "" 2
.LVL37:
	.loc 2 277 3 view .LVU149
	.loc 2 277 3 is_stmt 0 view .LVU150
	.thumb
	.syntax unified
.LBE129:
.LBE128:
.LBE130:
	.loc 1 508 6 view .LVU151
	cbz	r3, .L36
	.loc 1 510 5 is_stmt 1 view .LVU152
	.loc 1 510 8 is_stmt 0 view .LVU153
	add	r3, sp, #8
	str	r3, [sp]
	movs	r2, #1
	add	r3, sp, #12
	bl	xTaskGenericNotifyFromISR
.LVL38:
	.loc 1 510 7 view .LVU154
	cmp	r0, #1
	bne	.L41
	.loc 1 513 5 is_stmt 1 view .LVU155
	ldr	r3, [sp, #8]
	cbz	r3, .L40
	.loc 1 513 5 discriminator 1 view .LVU156
	mov	r3, #-536813568
	mov	r2, #268435456
	str	r2, [r3, #3332]
	.loc 1 513 5 discriminator 1 view .LVU157
	.syntax unified
@ 513 "Middlewares/Third_Party/FreeRTOS/Source/CMSIS_RTOS/cmsis_os.c" 1
	dsb
@ 0 "" 2
	.loc 1 513 5 discriminator 1 view .LVU158
@ 513 "Middlewares/Third_Party/FreeRTOS/Source/CMSIS_RTOS/cmsis_os.c" 1
	isb
@ 0 "" 2
	.thumb
	.syntax unified
.L40:
	.loc 1 518 3 view .LVU159
	.loc 1 518 10 is_stmt 0 view .LVU160
	ldr	r0, [sp, #12]
.L35:
	.loc 1 525 1 view .LVU161
	add	sp, sp, #20
.LCFI11:
	.cfi_remember_state
	.cfi_def_cfa_offset 4
	@ sp needed
	ldr	pc, [sp], #4
.LVL39:
.L36:
.LCFI12:
	.cfi_restore_state
	.loc 1 515 8 is_stmt 1 view .LVU162
	.loc 1 515 11 is_stmt 0 view .LVU163
	add	r3, sp, #12
	movs	r2, #1
	bl	xTaskGenericNotify
.LVL40:
	.loc 1 515 10 view .LVU164
	cmp	r0, #1
	beq	.L40
.L41:
	.loc 1 511 14 view .LVU165
	mov	r0, #-2147483648
	b	.L35
	.cfi_endproc
.LFE126:
	.size	osSignalSet, .-osSignalSet
	.section	.text.osSignalWait,"ax",%progbits
	.align	1
	.p2align 2,,3
	.global	osSignalWait
	.syntax unified
	.thumb
	.thumb_func
	.fpu fpv4-sp-d16
	.type	osSignalWait, %function
osSignalWait:
.LVL41:
.LFB127:
	.loc 1 544 1 is_stmt 1 view -0
	.cfi_startproc
	@ args = 0, pretend = 0, frame = 16
	@ frame_needed = 0, uses_anonymous_args = 0
	.loc 1 545 3 view .LVU167
	.loc 1 549 3 view .LVU168
	.loc 1 551 3 view .LVU169
	.loc 1 544 1 is_stmt 0 view .LVU170
	push	{r4, r5, lr}
.LCFI13:
	.cfi_def_cfa_offset 12
	.cfi_offset 4, -12
	.cfi_offset 5, -8
	.cfi_offset 14, -4
	sub	sp, sp, #20
.LCFI14:
	.cfi_def_cfa_offset 32
	.loc 1 551 21 view .LVU171
	movs	r3, #0
	.loc 1 544 1 view .LVU172
	mov	r4, r0
	.loc 1 551 21 view .LVU173
	str	r3, [sp, #8]
	.loc 1 552 3 is_stmt 1 view .LVU174
.LVL42:
	.loc 1 553 3 view .LVU175
	.loc 1 563 3 view .LVU176
.LBB131:
.LBI131:
	.loc 1 130 12 view .LVU177
.LBE131:
	.loc 1 132 3 view .LVU178
.LBB134:
.LBB132:
.LBI132:
	.loc 2 272 31 view .LVU179
.LBB133:
	.loc 2 274 3 view .LVU180
	.loc 2 276 3 view .LVU181
	.syntax unified
@ 276 "Drivers/CMSIS/Include/cmsis_gcc.h" 1
	MRS r0, ipsr
@ 0 "" 2
.LVL43:
	.loc 2 277 3 view .LVU182
	.loc 2 277 3 is_stmt 0 view .LVU183
	.thumb
	.syntax unified
.LBE133:
.LBE132:
.LBE134:
	.loc 1 563 6 view .LVU184
	cbz	r0, .L45
	.loc 1 565 5 is_stmt 1 view .LVU185
	.loc 1 565 16 is_stmt 0 view .LVU186
	movs	r3, #130
	str	r3, [sp, #4]
.LVL44:
.L46:
	.loc 1 587 3 is_stmt 1 view .LVU187
	.loc 1 587 10 is_stmt 0 view .LVU188
	add	r3, sp, #16
	ldmdb	r3, {r0, r1, r2}
	stm	r4, {r0, r1, r2}
	.loc 1 588 1 view .LVU189
	mov	r0, r4
	add	sp, sp, #20
.LCFI15:
	.cfi_remember_state
	.cfi_def_cfa_offset 12
	@ sp needed
	pop	{r4, r5, pc}
.LVL45:
.L45:
.LCFI16:
	.cfi_restore_state
	.loc 1 569 5 is_stmt 1 view .LVU190
	.loc 1 569 8 is_stmt 0 view .LVU191
	mov	r3, r2
	mov	r5, r2
	add	r2, sp, #8
.LVL46:
	.loc 1 569 8 view .LVU192
	bl	xTaskNotifyWait
.LVL47:
	.loc 1 569 7 view .LVU193
	cmp	r0, #1
	beq	.L47
	.loc 1 571 7 is_stmt 1 view .LVU194
	.loc 1 571 9 is_stmt 0 view .LVU195
	cbnz	r5, .L48
	.loc 1 571 23 is_stmt 1 discriminator 1 view .LVU196
	.loc 1 571 34 is_stmt 0 discriminator 1 view .LVU197
	str	r5, [sp, #4]
	b	.L46
.L48:
	.loc 1 572 13 is_stmt 1 view .LVU198
	.loc 1 572 24 is_stmt 0 view .LVU199
	movs	r3, #64
	str	r3, [sp, #4]
	b	.L46
.L47:
	.loc 1 574 10 is_stmt 1 view .LVU200
	.loc 1 574 12 is_stmt 0 view .LVU201
	ldr	r3, [sp, #8]
	cmp	r3, #0
	.loc 1 576 7 is_stmt 1 view .LVU202
	.loc 1 576 18 is_stmt 0 view .LVU203
	ite	lt
	movlt	r3, #134
	.loc 1 578 11 is_stmt 1 view .LVU204
	.loc 1 578 22 is_stmt 0 view .LVU205
	movge	r3, #8
	str	r3, [sp, #4]
	b	.L46
	.cfi_endproc
.LFE127:
	.size	osSignalWait, .-osSignalWait
	.section	.text.osMutexCreate,"ax",%progbits
	.align	1
	.p2align 2,,3
	.global	osMutexCreate
	.syntax unified
	.thumb
	.thumb_func
	.fpu fpv4-sp-d16
	.type	osMutexCreate, %function
osMutexCreate:
.LVL48:
.LFB128:
	.loc 1 598 1 is_stmt 1 view -0
	.cfi_startproc
	@ args = 0, pretend = 0, frame = 0
	@ frame_needed = 0, uses_anonymous_args = 0
	@ link register save eliminated.
	.loc 1 612 5 view .LVU207
	.loc 1 612 12 is_stmt 0 view .LVU208
	movs	r0, #1
.LVL49:
	.loc 1 612 12 view .LVU209
	b	xQueueCreateMutex
.LVL50:
	.cfi_endproc
.LFE128:
	.size	osMutexCreate, .-osMutexCreate
	.section	.text.osMutexWait,"ax",%progbits
	.align	1
	.p2align 2,,3
	.global	osMutexWait
	.syntax unified
	.thumb
	.thumb_func
	.fpu fpv4-sp-d16
	.type	osMutexWait, %function
osMutexWait:
.LVL51:
.LFB129:
	.loc 1 627 1 is_stmt 1 view -0
	.cfi_startproc
	@ args = 0, pretend = 0, frame = 8
	@ frame_needed = 0, uses_anonymous_args = 0
	.loc 1 628 3 view .LVU211
	.loc 1 629 3 view .LVU212
	.loc 1 627 1 is_stmt 0 view .LVU213
	push	{r4, lr}
.LCFI17:
	.cfi_def_cfa_offset 8
	.cfi_offset 4, -8
	.cfi_offset 14, -4
	sub	sp, sp, #8
.LCFI18:
	.cfi_def_cfa_offset 16
	.loc 1 629 17 view .LVU214
	movs	r4, #0
	str	r4, [sp, #4]
	.loc 1 632 3 is_stmt 1 view .LVU215
	.loc 1 632 6 is_stmt 0 view .LVU216
	cbz	r0, .L58
	.loc 1 636 3 is_stmt 1 view .LVU217
.LVL52:
	.loc 1 637 3 view .LVU218
	.loc 1 647 3 view .LVU219
.LBB135:
.LBI135:
	.loc 1 130 12 view .LVU220
.LBE135:
	.loc 1 132 3 view .LVU221
.LBB138:
.LBB136:
.LBI136:
	.loc 2 272 31 view .LVU222
.LBB137:
	.loc 2 274 3 view .LVU223
	.loc 2 276 3 view .LVU224
	.syntax unified
@ 276 "Drivers/CMSIS/Include/cmsis_gcc.h" 1
	MRS r3, ipsr
@ 0 "" 2
.LVL53:
	.loc 2 277 3 view .LVU225
	.loc 2 277 3 is_stmt 0 view .LVU226
	.thumb
	.syntax unified
.LBE137:
.LBE136:
.LBE138:
	.loc 1 647 6 view .LVU227
	cbnz	r3, .L63
	.loc 1 653 8 is_stmt 1 view .LVU228
	.loc 1 653 12 is_stmt 0 view .LVU229
	bl	xQueueSemaphoreTake
.LVL54:
	.loc 1 653 11 view .LVU230
	cmp	r0, #1
	bne	.L55
.L57:
	.loc 1 657 10 view .LVU231
	movs	r0, #0
	.loc 1 658 1 view .LVU232
	add	sp, sp, #8
.LCFI19:
	.cfi_remember_state
	.cfi_def_cfa_offset 8
	@ sp needed
	pop	{r4, pc}
.LVL55:
.L63:
.LCFI20:
	.cfi_restore_state
	.loc 1 648 5 is_stmt 1 view .LVU233
	.loc 1 648 9 is_stmt 0 view .LVU234
	add	r2, sp, #4
	mov	r1, r4
.LVL56:
	.loc 1 648 9 view .LVU235
	bl	xQueueReceiveFromISR
.LVL57:
	.loc 1 648 8 view .LVU236
	cmp	r0, #1
	bne	.L55
	.loc 1 651 2 is_stmt 1 view .LVU237
	ldr	r3, [sp, #4]
	cmp	r3, #0
	beq	.L57
	.loc 1 651 2 discriminator 1 view .LVU238
	mov	r3, #-536813568
	mov	r2, #268435456
	str	r2, [r3, #3332]
	.loc 1 651 2 discriminator 1 view .LVU239
	.syntax unified
@ 651 "Middlewares/Third_Party/FreeRTOS/Source/CMSIS_RTOS/cmsis_os.c" 1
	dsb
@ 0 "" 2
	.loc 1 651 2 discriminator 1 view .LVU240
@ 651 "Middlewares/Third_Party/FreeRTOS/Source/CMSIS_RTOS/cmsis_os.c" 1
	isb
@ 0 "" 2
	.loc 1 657 10 is_stmt 0 discriminator 1 view .LVU241
	.thumb
	.syntax unified
	mov	r0, r4
	.loc 1 658 1 discriminator 1 view .LVU242
	add	sp, sp, #8
.LCFI21:
	.cfi_remember_state
	.cfi_def_cfa_offset 8
	@ sp needed
	pop	{r4, pc}
.L55:
.LCFI22:
	.cfi_restore_state
	.loc 1 654 5 is_stmt 1 view .LVU243
	.loc 1 654 12 is_stmt 0 view .LVU244
	movs	r0, #255
	.loc 1 658 1 view .LVU245
	add	sp, sp, #8
.LCFI23:
	.cfi_remember_state
	.cfi_def_cfa_offset 8
	@ sp needed
	pop	{r4, pc}
.LVL58:
.L58:
.LCFI24:
	.cfi_restore_state
	.loc 1 633 12 view .LVU246
	movs	r0, #128
.LVL59:
	.loc 1 658 1 view .LVU247
	add	sp, sp, #8
.LCFI25:
	.cfi_def_cfa_offset 8
	@ sp needed
	pop	{r4, pc}
	.cfi_endproc
.LFE129:
	.size	osMutexWait, .-osMutexWait
	.section	.text.osMutexRelease,"ax",%progbits
	.align	1
	.p2align 2,,3
	.global	osMutexRelease
	.syntax unified
	.thumb
	.thumb_func
	.fpu fpv4-sp-d16
	.type	osMutexRelease, %function
osMutexRelease:
.LVL60:
.LFB130:
	.loc 1 667 1 is_stmt 1 view -0
	.cfi_startproc
	@ args = 0, pretend = 0, frame = 8
	@ frame_needed = 0, uses_anonymous_args = 0
	.loc 1 668 3 view .LVU249
	.loc 1 669 3 view .LVU250
	.loc 1 667 1 is_stmt 0 view .LVU251
	push	{r4, lr}
.LCFI26:
	.cfi_def_cfa_offset 8
	.cfi_offset 4, -8
	.cfi_offset 14, -4
	sub	sp, sp, #8
.LCFI27:
	.cfi_def_cfa_offset 16
	.loc 1 669 17 view .LVU252
	movs	r4, #0
	str	r4, [sp, #4]
	.loc 1 671 3 is_stmt 1 view .LVU253
.LBB142:
.LBI142:
	.loc 1 130 12 view .LVU254
.LBE142:
	.loc 1 132 3 view .LVU255
.LBB145:
.LBB143:
.LBI143:
	.loc 2 272 31 view .LVU256
.LBB144:
	.loc 2 274 3 view .LVU257
	.loc 2 276 3 view .LVU258
	.syntax unified
@ 276 "Drivers/CMSIS/Include/cmsis_gcc.h" 1
	MRS r3, ipsr
@ 0 "" 2
.LVL61:
	.loc 2 277 3 view .LVU259
	.loc 2 277 3 is_stmt 0 view .LVU260
	.thumb
	.syntax unified
.LBE144:
.LBE143:
.LBE145:
	.loc 1 671 6 view .LVU261
	cbz	r3, .L65
	.loc 1 672 5 is_stmt 1 view .LVU262
	.loc 1 672 9 is_stmt 0 view .LVU263
	add	r1, sp, #4
	bl	xQueueGiveFromISR
.LVL62:
	.loc 1 672 8 view .LVU264
	cmp	r0, #1
	bne	.L66
	.loc 1 675 5 is_stmt 1 view .LVU265
	ldr	r3, [sp, #4]
	cbz	r3, .L69
	.loc 1 675 5 discriminator 1 view .LVU266
	mov	r3, #-536813568
	mov	r2, #268435456
	str	r2, [r3, #3332]
	.loc 1 675 5 discriminator 1 view .LVU267
	.syntax unified
@ 675 "Middlewares/Third_Party/FreeRTOS/Source/CMSIS_RTOS/cmsis_os.c" 1
	dsb
@ 0 "" 2
	.loc 1 675 5 discriminator 1 view .LVU268
@ 675 "Middlewares/Third_Party/FreeRTOS/Source/CMSIS_RTOS/cmsis_os.c" 1
	isb
@ 0 "" 2
	.loc 1 668 12 is_stmt 0 discriminator 1 view .LVU269
	.thumb
	.syntax unified
	mov	r0, r4
	.loc 1 682 1 discriminator 1 view .LVU270
	add	sp, sp, #8
.LCFI28:
	.cfi_remember_state
	.cfi_def_cfa_offset 8
	@ sp needed
	pop	{r4, pc}
.LVL63:
.L65:
.LCFI29:
	.cfi_restore_state
	.loc 1 677 8 is_stmt 1 view .LVU271
	.loc 1 677 12 is_stmt 0 view .LVU272
	mov	r2, r3
	mov	r1, r3
	bl	xQueueGenericSend
.LVL64:
	.loc 1 677 11 view .LVU273
	cmp	r0, #1
	beq	.L69
.L66:
	.loc 1 679 5 is_stmt 1 view .LVU274
.LVL65:
	.loc 1 679 12 is_stmt 0 view .LVU275
	movs	r0, #255
.LVL66:
	.loc 1 682 1 view .LVU276
	add	sp, sp, #8
.LCFI30:
	.cfi_remember_state
	.cfi_def_cfa_offset 8
	@ sp needed
	pop	{r4, pc}
.LVL67:
.L69:
.LCFI31:
	.cfi_restore_state
	.loc 1 668 12 view .LVU277
	movs	r0, #0
	.loc 1 682 1 view .LVU278
	add	sp, sp, #8
.LCFI32:
	.cfi_def_cfa_offset 8
	@ sp needed
	pop	{r4, pc}
	.cfi_endproc
.LFE130:
	.size	osMutexRelease, .-osMutexRelease
	.section	.text.osMutexDelete,"ax",%progbits
	.align	1
	.p2align 2,,3
	.global	osMutexDelete
	.syntax unified
	.thumb
	.thumb_func
	.fpu fpv4-sp-d16
	.type	osMutexDelete, %function
osMutexDelete:
.LVL68:
.LFB131:
	.loc 1 691 1 is_stmt 1 view -0
	.cfi_startproc
	@ args = 0, pretend = 0, frame = 0
	@ frame_needed = 0, uses_anonymous_args = 0
	.loc 1 692 3 view .LVU280
.LBB149:
.LBI149:
	.loc 1 130 12 view .LVU281
.LBE149:
	.loc 1 132 3 view .LVU282
.LBB154:
.LBB150:
.LBI150:
	.loc 2 272 31 view .LVU283
.LBB151:
	.loc 2 274 3 view .LVU284
	.loc 2 276 3 view .LVU285
.LBE151:
.LBE150:
.LBE154:
	.loc 1 691 1 is_stmt 0 view .LVU286
	push	{r4, lr}
.LCFI33:
	.cfi_def_cfa_offset 8
	.cfi_offset 4, -8
	.cfi_offset 14, -4
.LBB155:
.LBB153:
.LBB152:
	.loc 2 276 3 view .LVU287
	.syntax unified
@ 276 "Drivers/CMSIS/Include/cmsis_gcc.h" 1
	MRS r4, ipsr
@ 0 "" 2
.LVL69:
	.loc 2 277 3 is_stmt 1 view .LVU288
	.loc 2 277 3 is_stmt 0 view .LVU289
	.thumb
	.syntax unified
.LBE152:
.LBE153:
.LBE155:
	.loc 1 692 6 view .LVU290
	cbnz	r4, .L76
	.loc 1 696 3 is_stmt 1 view .LVU291
	bl	vQueueDelete
.LVL70:
	.loc 1 698 3 view .LVU292
	.loc 1 699 1 is_stmt 0 view .LVU293
	mov	r0, r4
	pop	{r4, pc}
.LVL71:
.L76:
	.loc 1 693 12 view .LVU294
	movs	r4, #130
	.loc 1 699 1 view .LVU295
	mov	r0, r4
.LVL72:
	.loc 1 699 1 view .LVU296
	pop	{r4, pc}
	.cfi_endproc
.LFE131:
	.size	osMutexDelete, .-osMutexDelete
	.section	.text.osSemaphoreCreate,"ax",%progbits
	.align	1
	.p2align 2,,3
	.global	osSemaphoreCreate
	.syntax unified
	.thumb
	.thumb_func
	.fpu fpv4-sp-d16
	.type	osSemaphoreCreate, %function
osSemaphoreCreate:
.LVL73:
.LFB132:
	.loc 1 713 1 is_stmt 1 view -0
	.cfi_startproc
	@ args = 0, pretend = 0, frame = 0
	@ frame_needed = 0, uses_anonymous_args = 0
	.loc 1 756 3 view .LVU298
	.loc 1 758 3 view .LVU299
	.loc 1 758 6 is_stmt 0 view .LVU300
	cmp	r1, #1
	.loc 1 713 1 view .LVU301
	push	{r4, lr}
.LCFI34:
	.cfi_def_cfa_offset 8
	.cfi_offset 4, -8
	.cfi_offset 14, -4
	.loc 1 758 6 view .LVU302
	beq	.L85
	.loc 1 766 12 view .LVU303
	movs	r4, #0
.LVL74:
.L78:
	.loc 1 770 1 view .LVU304
	mov	r0, r4
	pop	{r4, pc}
.LVL75:
.L85:
	.loc 1 759 5 is_stmt 1 view .LVU305
	mov	r0, r1
.LVL76:
	.loc 1 759 5 is_stmt 0 view .LVU306
	movs	r2, #3
	movs	r1, #0
.LVL77:
	.loc 1 759 5 view .LVU307
	bl	xQueueGenericCreate
.LVL78:
	.loc 1 759 5 is_stmt 1 view .LVU308
	mov	r4, r0
	cmp	r0, #0
	beq	.L78
	.loc 1 759 5 discriminator 1 view .LVU309
	movs	r3, #0
	mov	r2, r3
	mov	r1, r3
	bl	xQueueGenericSend
.LVL79:
	.loc 1 770 1 is_stmt 0 discriminator 1 view .LVU310
	mov	r0, r4
	pop	{r4, pc}
	.loc 1 770 1 discriminator 1 view .LVU311
	.cfi_endproc
.LFE132:
	.size	osSemaphoreCreate, .-osSemaphoreCreate
	.section	.text.osSemaphoreWait,"ax",%progbits
	.align	1
	.p2align 2,,3
	.global	osSemaphoreWait
	.syntax unified
	.thumb
	.thumb_func
	.fpu fpv4-sp-d16
	.type	osSemaphoreWait, %function
osSemaphoreWait:
.LVL80:
.LFB133:
	.loc 1 780 1 is_stmt 1 view -0
	.cfi_startproc
	@ args = 0, pretend = 0, frame = 8
	@ frame_needed = 0, uses_anonymous_args = 0
	.loc 1 781 3 view .LVU313
	.loc 1 782 3 view .LVU314
	.loc 1 780 1 is_stmt 0 view .LVU315
	push	{r4, lr}
.LCFI35:
	.cfi_def_cfa_offset 8
	.cfi_offset 4, -8
	.cfi_offset 14, -4
	sub	sp, sp, #8
.LCFI36:
	.cfi_def_cfa_offset 16
	.loc 1 782 17 view .LVU316
	movs	r4, #0
	str	r4, [sp, #4]
	.loc 1 785 3 is_stmt 1 view .LVU317
	.loc 1 785 6 is_stmt 0 view .LVU318
	cbz	r0, .L92
	.loc 1 789 3 is_stmt 1 view .LVU319
.LVL81:
	.loc 1 790 3 view .LVU320
	.loc 1 800 3 view .LVU321
.LBB156:
.LBI156:
	.loc 1 130 12 view .LVU322
.LBE156:
	.loc 1 132 3 view .LVU323
.LBB159:
.LBB157:
.LBI157:
	.loc 2 272 31 view .LVU324
.LBB158:
	.loc 2 274 3 view .LVU325
	.loc 2 276 3 view .LVU326
	.syntax unified
@ 276 "Drivers/CMSIS/Include/cmsis_gcc.h" 1
	MRS r3, ipsr
@ 0 "" 2
.LVL82:
	.loc 2 277 3 view .LVU327
	.loc 2 277 3 is_stmt 0 view .LVU328
	.thumb
	.syntax unified
.LBE158:
.LBE157:
.LBE159:
	.loc 1 800 6 view .LVU329
	cbnz	r3, .L97
	.loc 1 806 8 is_stmt 1 view .LVU330
	.loc 1 806 12 is_stmt 0 view .LVU331
	bl	xQueueSemaphoreTake
.LVL83:
	.loc 1 806 11 view .LVU332
	cmp	r0, #1
	bne	.L89
.L91:
	.loc 1 810 10 view .LVU333
	movs	r0, #0
	.loc 1 811 1 view .LVU334
	add	sp, sp, #8
.LCFI37:
	.cfi_remember_state
	.cfi_def_cfa_offset 8
	@ sp needed
	pop	{r4, pc}
.LVL84:
.L97:
.LCFI38:
	.cfi_restore_state
	.loc 1 801 5 is_stmt 1 view .LVU335
	.loc 1 801 9 is_stmt 0 view .LVU336
	add	r2, sp, #4
	mov	r1, r4
.LVL85:
	.loc 1 801 9 view .LVU337
	bl	xQueueReceiveFromISR
.LVL86:
	.loc 1 801 8 view .LVU338
	cmp	r0, #1
	bne	.L89
	.loc 1 804 2 is_stmt 1 view .LVU339
	ldr	r3, [sp, #4]
	cmp	r3, #0
	beq	.L91
	.loc 1 804 2 discriminator 1 view .LVU340
	mov	r3, #-536813568
	mov	r2, #268435456
	str	r2, [r3, #3332]
	.loc 1 804 2 discriminator 1 view .LVU341
	.syntax unified
@ 804 "Middlewares/Third_Party/FreeRTOS/Source/CMSIS_RTOS/cmsis_os.c" 1
	dsb
@ 0 "" 2
	.loc 1 804 2 discriminator 1 view .LVU342
@ 804 "Middlewares/Third_Party/FreeRTOS/Source/CMSIS_RTOS/cmsis_os.c" 1
	isb
@ 0 "" 2
	.loc 1 810 10 is_stmt 0 discriminator 1 view .LVU343
	.thumb
	.syntax unified
	mov	r0, r4
	.loc 1 811 1 discriminator 1 view .LVU344
	add	sp, sp, #8
.LCFI39:
	.cfi_remember_state
	.cfi_def_cfa_offset 8
	@ sp needed
	pop	{r4, pc}
.L89:
.LCFI40:
	.cfi_restore_state
	.loc 1 807 5 is_stmt 1 view .LVU345
	.loc 1 807 12 is_stmt 0 view .LVU346
	movs	r0, #255
	.loc 1 811 1 view .LVU347
	add	sp, sp, #8
.LCFI41:
	.cfi_remember_state
	.cfi_def_cfa_offset 8
	@ sp needed
	pop	{r4, pc}
.LVL87:
.L92:
.LCFI42:
	.cfi_restore_state
	.loc 1 786 12 view .LVU348
	movs	r0, #128
.LVL88:
	.loc 1 811 1 view .LVU349
	add	sp, sp, #8
.LCFI43:
	.cfi_def_cfa_offset 8
	@ sp needed
	pop	{r4, pc}
	.cfi_endproc
.LFE133:
	.size	osSemaphoreWait, .-osSemaphoreWait
	.section	.text.osSemaphoreRelease,"ax",%progbits
	.align	1
	.p2align 2,,3
	.global	osSemaphoreRelease
	.syntax unified
	.thumb
	.thumb_func
	.fpu fpv4-sp-d16
	.type	osSemaphoreRelease, %function
osSemaphoreRelease:
.LFB168:
	.cfi_startproc
	@ args = 0, pretend = 0, frame = 8
	@ frame_needed = 0, uses_anonymous_args = 0
	push	{r4, lr}
.LCFI44:
	.cfi_def_cfa_offset 8
	.cfi_offset 4, -8
	.cfi_offset 14, -4
	sub	sp, sp, #8
.LCFI45:
	.cfi_def_cfa_offset 16
	movs	r4, #0
	str	r4, [sp, #4]
	.syntax unified
@ 276 "Drivers/CMSIS/Include/cmsis_gcc.h" 1
	MRS r3, ipsr
@ 0 "" 2
	.thumb
	.syntax unified
	cbz	r3, .L99
	add	r1, sp, #4
	bl	xQueueGiveFromISR
	cmp	r0, #1
	bne	.L100
	ldr	r3, [sp, #4]
	cbz	r3, .L103
	mov	r3, #-536813568
	mov	r2, #268435456
	str	r2, [r3, #3332]
	.syntax unified
@ 675 "Middlewares/Third_Party/FreeRTOS/Source/CMSIS_RTOS/cmsis_os.c" 1
	dsb
@ 0 "" 2
@ 675 "Middlewares/Third_Party/FreeRTOS/Source/CMSIS_RTOS/cmsis_os.c" 1
	isb
@ 0 "" 2
	.thumb
	.syntax unified
	mov	r0, r4
	add	sp, sp, #8
.LCFI46:
	.cfi_remember_state
	.cfi_def_cfa_offset 8
	@ sp needed
	pop	{r4, pc}
.L99:
.LCFI47:
	.cfi_restore_state
	mov	r2, r3
	mov	r1, r3
	bl	xQueueGenericSend
	cmp	r0, #1
	beq	.L103
.L100:
	movs	r0, #255
	add	sp, sp, #8
.LCFI48:
	.cfi_remember_state
	.cfi_def_cfa_offset 8
	@ sp needed
	pop	{r4, pc}
.L103:
.LCFI49:
	.cfi_restore_state
	movs	r0, #0
	add	sp, sp, #8
.LCFI50:
	.cfi_def_cfa_offset 8
	@ sp needed
	pop	{r4, pc}
	.cfi_endproc
.LFE168:
	.size	osSemaphoreRelease, .-osSemaphoreRelease
	.section	.text.osSemaphoreDelete,"ax",%progbits
	.align	1
	.p2align 2,,3
	.global	osSemaphoreDelete
	.syntax unified
	.thumb
	.thumb_func
	.fpu fpv4-sp-d16
	.type	osSemaphoreDelete, %function
osSemaphoreDelete:
.LFB170:
	.cfi_startproc
	@ args = 0, pretend = 0, frame = 0
	@ frame_needed = 0, uses_anonymous_args = 0
	push	{r4, lr}
.LCFI51:
	.cfi_def_cfa_offset 8
	.cfi_offset 4, -8
	.cfi_offset 14, -4
	.syntax unified
@ 276 "Drivers/CMSIS/Include/cmsis_gcc.h" 1
	MRS r4, ipsr
@ 0 "" 2
	.thumb
	.syntax unified
	cbnz	r4, .L110
	bl	vQueueDelete
	mov	r0, r4
	pop	{r4, pc}
.L110:
	movs	r4, #130
	mov	r0, r4
	pop	{r4, pc}
	.cfi_endproc
.LFE170:
	.size	osSemaphoreDelete, .-osSemaphoreDelete
	.section	.text.osPoolCreate,"ax",%progbits
	.align	1
	.p2align 2,,3
	.global	osPoolCreate
	.syntax unified
	.thumb
	.thumb_func
	.fpu fpv4-sp-d16
	.type	osPoolCreate, %function
osPoolCreate:
.LVL89:
.LFB136:
	.loc 1 884 1 is_stmt 1 view -0
	.cfi_startproc
	@ args = 0, pretend = 0, frame = 8
	@ frame_needed = 0, uses_anonymous_args = 0
	.loc 1 886 3 view .LVU351
	.loc 1 887 3 view .LVU352
	.loc 1 884 1 is_stmt 0 view .LVU353
	push	{r4, r5, r6, r7, lr}
.LCFI52:
	.cfi_def_cfa_offset 20
	.cfi_offset 4, -20
	.cfi_offset 5, -16
	.cfi_offset 6, -12
	.cfi_offset 7, -8
	.cfi_offset 14, -4
	mov	r6, r0
	sub	sp, sp, #12
.LCFI53:
	.cfi_def_cfa_offset 32
	.loc 1 891 12 view .LVU354
	movs	r0, #20
.LVL90:
	.loc 1 887 32 view .LVU355
	ldr	r4, [r6, #4]
.LVL91:
	.loc 1 888 3 is_stmt 1 view .LVU356
	.loc 1 891 2 view .LVU357
	.loc 1 891 12 is_stmt 0 view .LVU358
	bl	pvPortMalloc
.LVL92:
	.loc 1 894 3 is_stmt 1 view .LVU359
	.loc 1 894 6 is_stmt 0 view .LVU360
	mov	r5, r0
	cbz	r0, .L112
	.loc 1 895 5 is_stmt 1 view .LVU361
	.loc 1 895 32 is_stmt 0 view .LVU362
	ldr	r0, [r6]
.LVL93:
	.loc 1 887 42 view .LVU363
	adds	r4, r4, #3
.LVL94:
	.loc 1 887 7 view .LVU364
	bic	r7, r4, #3
	.loc 1 897 27 view .LVU365
	movs	r4, #0
.LVL95:
	.loc 1 896 22 view .LVU366
	strd	r0, r7, [r5, #8]
	.loc 1 897 5 is_stmt 1 view .LVU367
	.loc 1 897 27 is_stmt 0 view .LVU368
	str	r4, [r5, #16]
	.loc 1 900 5 is_stmt 1 view .LVU369
	.loc 1 900 24 is_stmt 0 view .LVU370
	bl	pvPortMalloc
.LVL96:
	.loc 1 900 22 view .LVU371
	str	r0, [r5, #4]
	.loc 1 902 5 is_stmt 1 view .LVU372
	.loc 1 902 8 is_stmt 0 view .LVU373
	cbz	r0, .L114
	.loc 1 904 6 is_stmt 1 view .LVU374
	.loc 1 904 53 is_stmt 0 view .LVU375
	ldr	r0, [r6]
	.loc 1 904 22 view .LVU376
	mul	r0, r7, r0
	bl	pvPortMalloc
.LVL97:
	mov	r7, r0
	.loc 1 904 20 view .LVU377
	str	r0, [r5]
	.loc 1 906 7 is_stmt 1 view .LVU378
	.loc 1 906 10 is_stmt 0 view .LVU379
	cbz	r0, .L115
.LVL98:
	.loc 1 907 21 is_stmt 1 view .LVU380
	.loc 1 907 9 is_stmt 0 view .LVU381
	ldr	r3, [r6]
	cbz	r3, .L112
	.loc 1 907 16 view .LVU382
	mov	r3, r4
	.loc 1 908 31 view .LVU383
	mov	r1, r4
.LVL99:
.L116:
	.loc 1 908 11 is_stmt 1 discriminator 3 view .LVU384
	.loc 1 908 31 is_stmt 0 discriminator 3 view .LVU385
	ldr	r2, [r5, #4]
	strb	r1, [r2, r3]
	.loc 1 907 44 is_stmt 1 discriminator 3 view .LVU386
	.loc 1 907 9 is_stmt 0 discriminator 3 view .LVU387
	ldr	r2, [r6]
	.loc 1 907 45 discriminator 3 view .LVU388
	adds	r3, r3, #1
.LVL100:
	.loc 1 907 21 is_stmt 1 discriminator 3 view .LVU389
	.loc 1 907 9 is_stmt 0 discriminator 3 view .LVU390
	cmp	r2, r3
	bhi	.L116
.LVL101:
.L112:
	.loc 1 928 1 view .LVU391
	mov	r0, r5
	add	sp, sp, #12
.LCFI54:
	.cfi_remember_state
	.cfi_def_cfa_offset 20
	@ sp needed
	pop	{r4, r5, r6, r7, pc}
.LVL102:
.L114:
.LCFI55:
	.cfi_restore_state
	.loc 1 928 1 view .LVU392
	str	r0, [sp, #4]
	.loc 1 918 7 is_stmt 1 view .LVU393
	mov	r0, r5
	bl	vPortFree
.LVL103:
	.loc 1 919 7 view .LVU394
	.loc 1 919 15 is_stmt 0 view .LVU395
	ldr	r3, [sp, #4]
	mov	r5, r3
.LVL104:
	.loc 1 923 3 is_stmt 1 view .LVU396
	.loc 1 923 10 is_stmt 0 view .LVU397
	b	.L112
.LVL105:
.L115:
	.loc 1 912 9 is_stmt 1 view .LVU398
	ldr	r0, [r5, #4]
	bl	vPortFree
.LVL106:
	.loc 1 913 9 view .LVU399
	mov	r0, r5
	bl	vPortFree
.LVL107:
	.loc 1 914 9 view .LVU400
	.loc 1 914 17 is_stmt 0 view .LVU401
	mov	r5, r7
	b	.L112
	.cfi_endproc
.LFE136:
	.size	osPoolCreate, .-osPoolCreate
	.section	.text.osPoolAlloc,"ax",%progbits
	.align	1
	.p2align 2,,3
	.global	osPoolAlloc
	.syntax unified
	.thumb
	.thumb_func
	.fpu fpv4-sp-d16
	.type	osPoolAlloc, %function
osPoolAlloc:
.LVL108:
.LFB137:
	.loc 1 937 1 is_stmt 1 view -0
	.cfi_startproc
	@ args = 0, pretend = 0, frame = 8
	@ frame_needed = 0, uses_anonymous_args = 0
	.loc 1 938 3 view .LVU403
	.loc 1 939 3 view .LVU404
	.loc 1 940 3 view .LVU405
	.loc 1 941 3 view .LVU406
	.loc 1 943 3 view .LVU407
.LBB170:
.LBI170:
	.loc 1 130 12 view .LVU408
.LBE170:
	.loc 1 132 3 view .LVU409
.LBB175:
.LBB171:
.LBI171:
	.loc 2 272 31 view .LVU410
.LBB172:
	.loc 2 274 3 view .LVU411
	.loc 2 276 3 view .LVU412
.LBE172:
.LBE171:
.LBE175:
	.loc 1 937 1 is_stmt 0 view .LVU413
	push	{r4, r5, r6, r7, lr}
.LCFI56:
	.cfi_def_cfa_offset 20
	.cfi_offset 4, -20
	.cfi_offset 5, -16
	.cfi_offset 6, -12
	.cfi_offset 7, -8
	.cfi_offset 14, -4
	mov	r6, r0
	sub	sp, sp, #12
.LCFI57:
	.cfi_def_cfa_offset 32
.LBB176:
.LBB174:
.LBB173:
	.loc 2 276 3 view .LVU414
	.syntax unified
@ 276 "Drivers/CMSIS/Include/cmsis_gcc.h" 1
	MRS r7, ipsr
@ 0 "" 2
.LVL109:
	.loc 2 277 3 is_stmt 1 view .LVU415
	.loc 2 277 3 is_stmt 0 view .LVU416
	.thumb
	.syntax unified
.LBE173:
.LBE174:
.LBE176:
	.loc 1 943 6 view .LVU417
	cmp	r7, #0
	beq	.L126
	.loc 1 944 5 is_stmt 1 view .LVU418
.LBB177:
.LBI177:
	.file 3 "Middlewares/Third_Party/FreeRTOS/Source/portable/GCC/ARM_CM4F/portmacro.h"
	.loc 3 207 34 view .LVU419
.LBB178:
	.loc 3 209 1 view .LVU420
	.loc 3 211 2 view .LVU421
	.syntax unified
@ 211 "Middlewares/Third_Party/FreeRTOS/Source/portable/GCC/ARM_CM4F/portmacro.h" 1
		mrs r7, basepri											
	mov r3, #80												
	msr basepri, r3											
	isb														
	dsb														

@ 0 "" 2
.LVL110:
	.loc 3 223 2 view .LVU422
	.thumb
	.syntax unified
.L127:
	.loc 3 223 2 is_stmt 0 view .LVU423
.LBE178:
.LBE177:
	.loc 1 950 3 is_stmt 1 view .LVU424
	.loc 1 950 15 view .LVU425
	.loc 1 950 26 is_stmt 0 view .LVU426
	ldr	r0, [r6, #8]
	.loc 1 950 3 view .LVU427
	cbz	r0, .L128
	.loc 1 951 21 view .LVU428
	ldr	r3, [r6, #16]
	.loc 1 953 16 view .LVU429
	ldr	r4, [r6, #4]
	add	lr, r3, r0
	b	.L130
.LVL111:
.L129:
	.loc 1 950 3 discriminator 2 view .LVU430
	cmp	lr, r3
	beq	.L136
.LVL112:
.L130:
	.loc 1 951 5 is_stmt 1 view .LVU431
	.loc 1 950 37 view .LVU432
	.loc 1 950 15 view .LVU433
	.loc 1 951 11 is_stmt 0 view .LVU434
	udiv	r2, r3, r0
	mls	r2, r0, r2, r3
.LVL113:
	.loc 1 953 5 is_stmt 1 view .LVU435
	.loc 1 953 25 is_stmt 0 view .LVU436
	add	ip, r4, r2
	.loc 1 953 8 view .LVU437
	ldrb	r5, [r4, r2]	@ zero_extendqisi2
	.loc 1 950 3 view .LVU438
	adds	r3, r3, #1
	.loc 1 953 8 view .LVU439
	cmp	r5, #0
	bne	.L129
	.loc 1 954 7 is_stmt 1 view .LVU440
	.loc 1 954 31 is_stmt 0 view .LVU441
	movs	r3, #1
	strb	r3, [ip]
	.loc 1 955 7 is_stmt 1 view .LVU442
	.loc 1 955 55 is_stmt 0 view .LVU443
	ldr	r0, [r6, #12]
	.loc 1 955 46 view .LVU444
	ldr	r1, [r6]
	.loc 1 956 29 view .LVU445
	str	r2, [r6, #16]
	.loc 1 955 46 view .LVU446
	mla	r0, r0, r2, r1
.LVL114:
	.loc 1 956 7 is_stmt 1 view .LVU447
	.loc 1 957 7 view .LVU448
.L128:
	.loc 1 961 3 view .LVU449
.LBB179:
.LBI179:
	.loc 1 130 12 view .LVU450
.LBE179:
	.loc 1 132 3 view .LVU451
.LBB184:
.LBB180:
.LBI180:
	.loc 2 272 31 view .LVU452
.LBB181:
	.loc 2 274 3 view .LVU453
	.loc 2 276 3 view .LVU454
	.syntax unified
@ 276 "Drivers/CMSIS/Include/cmsis_gcc.h" 1
	MRS r3, ipsr
@ 0 "" 2
.LVL115:
	.loc 2 277 3 view .LVU455
	.loc 2 277 3 is_stmt 0 view .LVU456
	.thumb
	.syntax unified
.LBE181:
.LBE180:
.LBE184:
	.loc 1 961 6 view .LVU457
	cbz	r3, .L131
.L137:
	.loc 1 962 5 is_stmt 1 view .LVU458
.LBB185:
.LBI185:
	.loc 3 227 30 view .LVU459
.LBB186:
	.loc 3 229 2 view .LVU460
	.syntax unified
@ 229 "Middlewares/Third_Party/FreeRTOS/Source/portable/GCC/ARM_CM4F/portmacro.h" 1
		msr basepri, r7	
@ 0 "" 2
	.thumb
	.syntax unified
.LBE186:
.LBE185:
	.loc 1 969 1 is_stmt 0 view .LVU461
	add	sp, sp, #12
.LCFI58:
	.cfi_remember_state
	.cfi_def_cfa_offset 20
	@ sp needed
	pop	{r4, r5, r6, r7, pc}
.LVL116:
.L136:
.LCFI59:
	.cfi_restore_state
	.loc 1 939 9 view .LVU462
	movs	r0, #0
.LVL117:
	.loc 1 961 3 is_stmt 1 view .LVU463
.LBB187:
	.loc 1 130 12 view .LVU464
.LBE187:
	.loc 1 132 3 view .LVU465
.LBB188:
.LBB183:
	.loc 2 272 31 view .LVU466
.LBB182:
	.loc 2 274 3 view .LVU467
	.loc 2 276 3 view .LVU468
	.syntax unified
@ 276 "Drivers/CMSIS/Include/cmsis_gcc.h" 1
	MRS r3, ipsr
@ 0 "" 2
.LVL118:
	.loc 2 277 3 view .LVU469
	.loc 2 277 3 is_stmt 0 view .LVU470
	.thumb
	.syntax unified
.LBE182:
.LBE183:
.LBE188:
	.loc 1 961 6 view .LVU471
	cmp	r3, #0
	bne	.L137
.LVL119:
.L131:
	.loc 1 961 6 view .LVU472
	str	r0, [sp, #4]
	.loc 1 965 5 is_stmt 1 view .LVU473
	bl	vPortExitCritical
.LVL120:
	.loc 1 965 5 is_stmt 0 view .LVU474
	ldr	r0, [sp, #4]
	.loc 1 968 3 is_stmt 1 view .LVU475
	.loc 1 969 1 is_stmt 0 view .LVU476
	add	sp, sp, #12
.LCFI60:
	.cfi_remember_state
	.cfi_def_cfa_offset 20
	@ sp needed
	pop	{r4, r5, r6, r7, pc}
.LVL121:
.L126:
.LCFI61:
	.cfi_restore_state
	.loc 1 947 5 is_stmt 1 view .LVU477
	bl	vPortEnterCritical
.LVL122:
	.loc 1 947 5 is_stmt 0 view .LVU478
	b	.L127
	.cfi_endproc
.LFE137:
	.size	osPoolAlloc, .-osPoolAlloc
	.section	.text.osPoolCAlloc,"ax",%progbits
	.align	1
	.p2align 2,,3
	.global	osPoolCAlloc
	.syntax unified
	.thumb
	.thumb_func
	.fpu fpv4-sp-d16
	.type	osPoolCAlloc, %function
osPoolCAlloc:
.LVL123:
.LFB138:
	.loc 1 978 1 is_stmt 1 view -0
	.cfi_startproc
	@ args = 0, pretend = 0, frame = 0
	@ frame_needed = 0, uses_anonymous_args = 0
	.loc 1 979 3 view .LVU480
	.loc 1 978 1 is_stmt 0 view .LVU481
	push	{r3, r4, r5, r6, r7, lr}
.LCFI62:
	.cfi_def_cfa_offset 24
	.cfi_offset 3, -24
	.cfi_offset 4, -20
	.cfi_offset 5, -16
	.cfi_offset 6, -12
	.cfi_offset 7, -8
	.cfi_offset 14, -4
	.loc 1 978 1 view .LVU482
	mov	r6, r0
.LVL124:
.LBB201:
.LBI201:
	.loc 1 936 7 is_stmt 1 view .LVU483
.LBB202:
	.loc 1 938 3 view .LVU484
	.loc 1 939 3 view .LVU485
	.loc 1 940 3 view .LVU486
	.loc 1 941 3 view .LVU487
	.loc 1 943 3 view .LVU488
.LBB203:
.LBI203:
	.loc 1 130 12 view .LVU489
.LBE203:
.LBE202:
.LBE201:
	.loc 1 132 3 view .LVU490
.LBB223:
.LBB219:
.LBB206:
.LBB204:
.LBI204:
	.loc 2 272 31 view .LVU491
.LBB205:
	.loc 2 274 3 view .LVU492
	.loc 2 276 3 view .LVU493
	.syntax unified
@ 276 "Drivers/CMSIS/Include/cmsis_gcc.h" 1
	MRS r7, ipsr
@ 0 "" 2
.LVL125:
	.loc 2 277 3 view .LVU494
	.loc 2 277 3 is_stmt 0 view .LVU495
	.thumb
	.syntax unified
.LBE205:
.LBE204:
.LBE206:
	.loc 1 943 6 view .LVU496
	cmp	r7, #0
	beq	.L139
	.loc 1 944 5 is_stmt 1 view .LVU497
.LBB207:
.LBI207:
	.loc 3 207 34 view .LVU498
.LBB208:
	.loc 3 209 1 view .LVU499
	.loc 3 211 2 view .LVU500
	.syntax unified
@ 211 "Middlewares/Third_Party/FreeRTOS/Source/portable/GCC/ARM_CM4F/portmacro.h" 1
		mrs r7, basepri											
	mov r3, #80												
	msr basepri, r3											
	isb														
	dsb														

@ 0 "" 2
.LVL126:
	.loc 3 223 2 view .LVU501
	.thumb
	.syntax unified
.L140:
	.loc 3 223 2 is_stmt 0 view .LVU502
.LBE208:
.LBE207:
	.loc 1 950 3 is_stmt 1 view .LVU503
	.loc 1 950 15 view .LVU504
	.loc 1 950 26 is_stmt 0 view .LVU505
	ldr	r1, [r6, #8]
	.loc 1 950 3 view .LVU506
	cbz	r1, .L147
	.loc 1 951 21 view .LVU507
	ldr	r3, [r6, #16]
	.loc 1 953 16 view .LVU508
	ldr	r4, [r6, #4]
	add	lr, r3, r1
	b	.L143
.LVL127:
.L142:
	.loc 1 950 3 view .LVU509
	cmp	lr, r3
	beq	.L153
.LVL128:
.L143:
	.loc 1 951 5 is_stmt 1 view .LVU510
	.loc 1 950 37 view .LVU511
	.loc 1 950 15 view .LVU512
	.loc 1 951 11 is_stmt 0 view .LVU513
	udiv	r2, r3, r1
	mls	r2, r1, r2, r3
.LVL129:
	.loc 1 953 5 is_stmt 1 view .LVU514
	.loc 1 953 25 is_stmt 0 view .LVU515
	add	ip, r4, r2
	.loc 1 953 8 view .LVU516
	ldrb	r5, [r4, r2]	@ zero_extendqisi2
	.loc 1 950 3 view .LVU517
	adds	r3, r3, #1
	.loc 1 953 8 view .LVU518
	cmp	r5, #0
	bne	.L142
	.loc 1 954 7 is_stmt 1 view .LVU519
	.loc 1 954 31 is_stmt 0 view .LVU520
	movs	r3, #1
	strb	r3, [ip]
	.loc 1 955 7 is_stmt 1 view .LVU521
	.loc 1 955 55 is_stmt 0 view .LVU522
	ldr	r4, [r6, #12]
	.loc 1 955 46 view .LVU523
	ldr	r1, [r6]
	.loc 1 956 29 view .LVU524
	str	r2, [r6, #16]
	.loc 1 955 46 view .LVU525
	mla	r4, r4, r2, r1
.LVL130:
	.loc 1 956 7 is_stmt 1 view .LVU526
	.loc 1 957 7 view .LVU527
.L141:
	.loc 1 961 3 view .LVU528
.LBB209:
.LBI209:
	.loc 1 130 12 view .LVU529
.LBE209:
.LBE219:
.LBE223:
	.loc 1 132 3 view .LVU530
.LBB224:
.LBB220:
.LBB214:
.LBB210:
.LBI210:
	.loc 2 272 31 view .LVU531
.LBB211:
	.loc 2 274 3 view .LVU532
	.loc 2 276 3 view .LVU533
	.syntax unified
@ 276 "Drivers/CMSIS/Include/cmsis_gcc.h" 1
	MRS r3, ipsr
@ 0 "" 2
.LVL131:
	.loc 2 277 3 view .LVU534
	.loc 2 277 3 is_stmt 0 view .LVU535
	.thumb
	.syntax unified
.LBE211:
.LBE210:
.LBE214:
	.loc 1 961 6 view .LVU536
	cbz	r3, .L144
.L154:
	.loc 1 962 5 is_stmt 1 view .LVU537
.LBB215:
.LBI215:
	.loc 3 227 30 view .LVU538
.LBB216:
	.loc 3 229 2 view .LVU539
	.syntax unified
@ 229 "Middlewares/Third_Party/FreeRTOS/Source/portable/GCC/ARM_CM4F/portmacro.h" 1
		msr basepri, r7	
@ 0 "" 2
	.thumb
	.syntax unified
.L145:
	.loc 3 229 2 is_stmt 0 view .LVU540
.LBE216:
.LBE215:
	.loc 1 968 3 is_stmt 1 view .LVU541
.LVL132:
	.loc 1 968 3 is_stmt 0 view .LVU542
.LBE220:
.LBE224:
	.loc 1 981 3 is_stmt 1 view .LVU543
	.loc 1 981 6 is_stmt 0 view .LVU544
	cbz	r4, .L138
	.loc 1 983 5 is_stmt 1 view .LVU545
	movs	r3, #0
	str	r3, [r4]	@ unaligned
	.loc 1 986 3 view .LVU546
.L138:
	.loc 1 987 1 is_stmt 0 view .LVU547
	mov	r0, r4
	pop	{r3, r4, r5, r6, r7, pc}
.LVL133:
.L153:
.LBB225:
.LBB221:
	.loc 1 939 9 view .LVU548
	movs	r4, #0
.LVL134:
	.loc 1 961 3 is_stmt 1 view .LVU549
.LBB217:
	.loc 1 130 12 view .LVU550
.LBE217:
.LBE221:
.LBE225:
	.loc 1 132 3 view .LVU551
.LBB226:
.LBB222:
.LBB218:
.LBB213:
	.loc 2 272 31 view .LVU552
.LBB212:
	.loc 2 274 3 view .LVU553
	.loc 2 276 3 view .LVU554
	.syntax unified
@ 276 "Drivers/CMSIS/Include/cmsis_gcc.h" 1
	MRS r3, ipsr
@ 0 "" 2
.LVL135:
	.loc 2 277 3 view .LVU555
	.loc 2 277 3 is_stmt 0 view .LVU556
	.thumb
	.syntax unified
.LBE212:
.LBE213:
.LBE218:
	.loc 1 961 6 view .LVU557
	cmp	r3, #0
	bne	.L154
.LVL136:
.L144:
	.loc 1 965 5 is_stmt 1 view .LVU558
	bl	vPortExitCritical
.LVL137:
	b	.L145
.LVL138:
.L139:
	.loc 1 947 5 view .LVU559
	bl	vPortEnterCritical
.LVL139:
	.loc 1 947 5 is_stmt 0 view .LVU560
	b	.L140
.LVL140:
.L147:
	.loc 1 939 9 view .LVU561
	mov	r4, r1
	b	.L141
.LBE222:
.LBE226:
	.cfi_endproc
.LFE138:
	.size	osPoolCAlloc, .-osPoolCAlloc
	.section	.text.osPoolFree,"ax",%progbits
	.align	1
	.p2align 2,,3
	.global	osPoolFree
	.syntax unified
	.thumb
	.thumb_func
	.fpu fpv4-sp-d16
	.type	osPoolFree, %function
osPoolFree:
.LVL141:
.LFB139:
	.loc 1 997 1 is_stmt 1 view -0
	.cfi_startproc
	@ args = 0, pretend = 0, frame = 0
	@ frame_needed = 0, uses_anonymous_args = 0
	@ link register save eliminated.
	.loc 1 998 3 view .LVU563
	.loc 1 1000 3 view .LVU564
	.loc 1 1000 6 is_stmt 0 view .LVU565
	cbz	r0, .L159
	.loc 1 1004 3 is_stmt 1 view .LVU566
	.loc 1 1004 6 is_stmt 0 view .LVU567
	cbz	r1, .L159
	mov	r3, r0
	.loc 1 1008 3 is_stmt 1 view .LVU568
	.loc 1 1008 22 is_stmt 0 view .LVU569
	ldr	r0, [r0]
.LVL142:
	.loc 1 1008 6 view .LVU570
	cmp	r0, r1
	bhi	.L159
	.loc 1 1012 3 is_stmt 1 view .LVU571
	.loc 1 997 1 is_stmt 0 view .LVU572
	push	{r4}
.LCFI63:
	.cfi_def_cfa_offset 4
	.cfi_offset 4, -4
	.loc 1 1013 22 view .LVU573
	ldr	r4, [r3, #12]
	.loc 1 1012 9 view .LVU574
	subs	r1, r1, r0
.LVL143:
	.loc 1 1013 3 is_stmt 1 view .LVU575
	.loc 1 1013 13 is_stmt 0 view .LVU576
	udiv	r2, r1, r4
	mls	r0, r4, r2, r1
	.loc 1 1013 6 view .LVU577
	cbnz	r0, .L161
	.loc 1 1016 3 is_stmt 1 view .LVU578
.LVL144:
	.loc 1 1017 3 view .LVU579
	.loc 1 1017 6 is_stmt 0 view .LVU580
	ldr	r1, [r3, #8]
	cmp	r1, r2
	bls	.L161
	.loc 1 1021 3 is_stmt 1 view .LVU581
	.loc 1 1021 27 is_stmt 0 view .LVU582
	ldr	r3, [r3, #4]
.LVL145:
	.loc 1 1021 27 view .LVU583
	strb	r0, [r3, r2]
	.loc 1 1023 3 is_stmt 1 view .LVU584
	.loc 1 1024 1 is_stmt 0 view .LVU585
	ldr	r4, [sp], #4
.LCFI64:
	.cfi_remember_state
	.cfi_restore 4
	.cfi_def_cfa_offset 0
	bx	lr
.LVL146:
.L161:
.LCFI65:
	.cfi_restore_state
	.loc 1 1001 12 view .LVU586
	movs	r0, #128
	.loc 1 1024 1 view .LVU587
	ldr	r4, [sp], #4
.LCFI66:
	.cfi_restore 4
	.cfi_def_cfa_offset 0
	bx	lr
.LVL147:
.L159:
	.loc 1 1001 12 view .LVU588
	movs	r0, #128
	.loc 1 1024 1 view .LVU589
	bx	lr
	.cfi_endproc
.LFE139:
	.size	osPoolFree, .-osPoolFree
	.section	.text.osMessageCreate,"ax",%progbits
	.align	1
	.p2align 2,,3
	.global	osMessageCreate
	.syntax unified
	.thumb
	.thumb_func
	.fpu fpv4-sp-d16
	.type	osMessageCreate, %function
osMessageCreate:
.LVL148:
.LFB140:
	.loc 1 1041 1 is_stmt 1 view -0
	.cfi_startproc
	@ args = 0, pretend = 0, frame = 0
	@ frame_needed = 0, uses_anonymous_args = 0
	@ link register save eliminated.
	.loc 1 1042 3 view .LVU591
	.loc 1 1055 3 view .LVU592
	.loc 1 1055 10 is_stmt 0 view .LVU593
	ldrd	r0, r1, [r0]
.LVL149:
	.loc 1 1055 10 view .LVU594
	movs	r2, #0
	b	xQueueGenericCreate
.LVL150:
	.cfi_endproc
.LFE140:
	.size	osMessageCreate, .-osMessageCreate
	.section	.text.osMessagePut,"ax",%progbits
	.align	1
	.p2align 2,,3
	.global	osMessagePut
	.syntax unified
	.thumb
	.thumb_func
	.fpu fpv4-sp-d16
	.type	osMessagePut, %function
osMessagePut:
.LVL151:
.LFB141:
	.loc 1 1068 1 is_stmt 1 view -0
	.cfi_startproc
	@ args = 0, pretend = 0, frame = 16
	@ frame_needed = 0, uses_anonymous_args = 0
	.loc 1 1069 3 view .LVU596
	.loc 1 1068 1 is_stmt 0 view .LVU597
	push	{r4, lr}
.LCFI67:
	.cfi_def_cfa_offset 8
	.cfi_offset 4, -8
	.cfi_offset 14, -4
	sub	sp, sp, #16
.LCFI68:
	.cfi_def_cfa_offset 24
	.loc 1 1069 17 view .LVU598
	movs	r4, #0
	.loc 1 1068 1 view .LVU599
	str	r1, [sp, #4]
	.loc 1 1069 17 view .LVU600
	str	r4, [sp, #12]
	.loc 1 1070 3 is_stmt 1 view .LVU601
	.loc 1 1072 3 view .LVU602
.LVL152:
	.loc 1 1073 3 view .LVU603
	.loc 1 1077 3 view .LVU604
.LBB227:
.LBI227:
	.loc 1 130 12 view .LVU605
.LBE227:
	.loc 1 132 3 view .LVU606
.LBB230:
.LBB228:
.LBI228:
	.loc 2 272 31 view .LVU607
.LBB229:
	.loc 2 274 3 view .LVU608
	.loc 2 276 3 view .LVU609
	.syntax unified
@ 276 "Drivers/CMSIS/Include/cmsis_gcc.h" 1
	MRS r3, ipsr
@ 0 "" 2
.LVL153:
	.loc 2 277 3 view .LVU610
	.loc 2 277 3 is_stmt 0 view .LVU611
	.thumb
	.syntax unified
.LBE229:
.LBE228:
.LBE230:
	.loc 1 1077 6 view .LVU612
	cbz	r3, .L168
	.loc 1 1078 5 is_stmt 1 view .LVU613
	.loc 1 1078 9 is_stmt 0 view .LVU614
	mov	r3, r4
	add	r2, sp, #12
.LVL154:
	.loc 1 1078 9 view .LVU615
	add	r1, sp, #4
.LVL155:
	.loc 1 1078 9 view .LVU616
	bl	xQueueGenericSendFromISR
.LVL156:
	.loc 1 1078 8 view .LVU617
	cmp	r0, #1
	bne	.L169
	.loc 1 1081 5 is_stmt 1 view .LVU618
	ldr	r3, [sp, #12]
	cbnz	r3, .L170
.L172:
	.loc 1 1089 10 is_stmt 0 view .LVU619
	movs	r0, #0
	.loc 1 1090 1 view .LVU620
	add	sp, sp, #16
.LCFI69:
	.cfi_remember_state
	.cfi_def_cfa_offset 8
	@ sp needed
	pop	{r4, pc}
.LVL157:
.L168:
.LCFI70:
	.cfi_restore_state
	.loc 1 1084 5 is_stmt 1 view .LVU621
	.loc 1 1084 9 is_stmt 0 view .LVU622
	cmp	r2, #1
	it	cc
	movcc	r2, #1
.LVL158:
	.loc 1 1084 9 view .LVU623
	add	r1, sp, #4
.LVL159:
	.loc 1 1084 9 view .LVU624
	bl	xQueueGenericSend
.LVL160:
	.loc 1 1084 8 view .LVU625
	cmp	r0, #1
	beq	.L172
.L169:
	.loc 1 1085 7 is_stmt 1 view .LVU626
	.loc 1 1085 14 is_stmt 0 view .LVU627
	movs	r0, #255
	.loc 1 1090 1 view .LVU628
	add	sp, sp, #16
.LCFI71:
	.cfi_remember_state
	.cfi_def_cfa_offset 8
	@ sp needed
	pop	{r4, pc}
.L170:
.LCFI72:
	.cfi_restore_state
	.loc 1 1081 5 is_stmt 1 discriminator 1 view .LVU629
	mov	r3, #-536813568
	mov	r2, #268435456
	str	r2, [r3, #3332]
	.loc 1 1081 5 discriminator 1 view .LVU630
	.syntax unified
@ 1081 "Middlewares/Third_Party/FreeRTOS/Source/CMSIS_RTOS/cmsis_os.c" 1
	dsb
@ 0 "" 2
	.loc 1 1081 5 discriminator 1 view .LVU631
@ 1081 "Middlewares/Third_Party/FreeRTOS/Source/CMSIS_RTOS/cmsis_os.c" 1
	isb
@ 0 "" 2
	.loc 1 1089 10 is_stmt 0 discriminator 1 view .LVU632
	.thumb
	.syntax unified
	mov	r0, r4
	.loc 1 1090 1 discriminator 1 view .LVU633
	add	sp, sp, #16
.LCFI73:
	.cfi_def_cfa_offset 8
	@ sp needed
	pop	{r4, pc}
	.cfi_endproc
.LFE141:
	.size	osMessagePut, .-osMessagePut
	.section	.text.osMessageGet,"ax",%progbits
	.align	1
	.p2align 2,,3
	.global	osMessageGet
	.syntax unified
	.thumb
	.thumb_func
	.fpu fpv4-sp-d16
	.type	osMessageGet, %function
osMessageGet:
.LVL161:
.LFB142:
	.loc 1 1100 1 is_stmt 1 view -0
	.cfi_startproc
	@ args = 0, pretend = 0, frame = 16
	@ frame_needed = 0, uses_anonymous_args = 0
	.loc 1 1101 3 view .LVU635
	.loc 1 1102 3 view .LVU636
	.loc 1 1103 3 view .LVU637
	.loc 1 1105 3 view .LVU638
	.loc 1 1100 1 is_stmt 0 view .LVU639
	push	{r4, r5, lr}
.LCFI74:
	.cfi_def_cfa_offset 12
	.cfi_offset 4, -12
	.cfi_offset 5, -8
	.cfi_offset 14, -4
	mov	r3, r1
	sub	sp, sp, #20
.LCFI75:
	.cfi_def_cfa_offset 32
	.loc 1 1106 17 view .LVU640
	movs	r1, #0
.LVL162:
	.loc 1 1106 17 view .LVU641
	strd	r1, r3, [sp, #8]
	.loc 1 1100 1 view .LVU642
	mov	r4, r0
	.loc 1 1108 3 is_stmt 1 view .LVU643
	.loc 1 1108 6 is_stmt 0 view .LVU644
	cbz	r3, .L192
	.loc 1 1113 3 is_stmt 1 view .LVU645
	.loc 1 1113 13 is_stmt 0 view .LVU646
	str	r1, [sp]
	.loc 1 1115 3 is_stmt 1 view .LVU647
.LVL163:
	.loc 1 1116 3 view .LVU648
	.loc 1 1126 3 view .LVU649
.LBB231:
.LBI231:
	.loc 1 130 12 view .LVU650
.LBE231:
	.loc 1 132 3 view .LVU651
.LBB234:
.LBB232:
.LBI232:
	.loc 2 272 31 view .LVU652
.LBB233:
	.loc 2 274 3 view .LVU653
	.loc 2 276 3 view .LVU654
	.syntax unified
@ 276 "Drivers/CMSIS/Include/cmsis_gcc.h" 1
	MRS r1, ipsr
@ 0 "" 2
.LVL164:
	.loc 2 277 3 view .LVU655
	.loc 2 277 3 is_stmt 0 view .LVU656
	.thumb
	.syntax unified
.LBE233:
.LBE232:
.LBE234:
	.loc 1 1126 6 view .LVU657
	cbnz	r1, .L193
	.loc 1 1137 5 is_stmt 1 view .LVU658
	.loc 1 1137 9 is_stmt 0 view .LVU659
	add	r1, sp, #8
	mov	r0, r3
.LVL165:
	.loc 1 1137 9 view .LVU660
	mov	r5, r2
	bl	xQueueReceive
.LVL166:
	.loc 1 1137 8 view .LVU661
	cmp	r0, #1
	beq	.L194
	.loc 1 1142 7 is_stmt 1 view .LVU662
	.loc 1 1142 42 is_stmt 0 view .LVU663
	cmp	r5, #0
	it	ne
	movne	r5, #64
.LVL167:
	.loc 1 1142 20 view .LVU664
	str	r5, [sp, #4]
.L182:
	.loc 1 1146 3 is_stmt 1 view .LVU665
	.loc 1 1146 10 is_stmt 0 view .LVU666
	add	r3, sp, #16
	ldmdb	r3, {r0, r1, r2}
	stm	r4, {r0, r1, r2}
	.loc 1 1147 1 view .LVU667
	mov	r0, r4
	add	sp, sp, #20
.LCFI76:
	.cfi_remember_state
	.cfi_def_cfa_offset 12
	@ sp needed
	pop	{r4, r5, pc}
.LVL168:
.L193:
.LCFI77:
	.cfi_restore_state
	.loc 1 1127 5 is_stmt 1 view .LVU668
	.loc 1 1127 9 is_stmt 0 view .LVU669
	mov	r2, sp
.LVL169:
	.loc 1 1127 9 view .LVU670
	mov	r0, r3
.LVL170:
	.loc 1 1127 9 view .LVU671
	add	r1, sp, #8
	bl	xQueueReceiveFromISR
.LVL171:
	.loc 1 1134 5 view .LVU672
	ldr	r3, [sp]
	.loc 1 1132 20 view .LVU673
	cmp	r0, #1
	ite	eq
	moveq	r2, #16
	movne	r2, #0
	str	r2, [sp, #4]
	.loc 1 1134 5 is_stmt 1 view .LVU674
	cmp	r3, #0
	beq	.L182
	.loc 1 1134 5 discriminator 1 view .LVU675
	mov	r3, #-536813568
	mov	r2, #268435456
	str	r2, [r3, #3332]
	.loc 1 1134 5 discriminator 1 view .LVU676
	.syntax unified
@ 1134 "Middlewares/Third_Party/FreeRTOS/Source/CMSIS_RTOS/cmsis_os.c" 1
	dsb
@ 0 "" 2
	.loc 1 1134 5 discriminator 1 view .LVU677
@ 1134 "Middlewares/Third_Party/FreeRTOS/Source/CMSIS_RTOS/cmsis_os.c" 1
	isb
@ 0 "" 2
	.thumb
	.syntax unified
	b	.L182
.LVL172:
.L192:
	.loc 1 1109 5 view .LVU678
	.loc 1 1109 18 is_stmt 0 view .LVU679
	movs	r3, #128
.LVL173:
	.loc 1 1109 18 view .LVU680
	str	r3, [sp, #4]
	.loc 1 1110 5 is_stmt 1 view .LVU681
	.loc 1 1110 12 is_stmt 0 view .LVU682
	add	r3, sp, #16
	ldmdb	r3, {r0, r1, r2}
.LVL174:
	.loc 1 1110 12 view .LVU683
	stm	r4, {r0, r1, r2}
	.loc 1 1147 1 view .LVU684
	mov	r0, r4
	add	sp, sp, #20
.LCFI78:
	.cfi_remember_state
	.cfi_def_cfa_offset 12
	@ sp needed
	pop	{r4, r5, pc}
.LVL175:
.L194:
.LCFI79:
	.cfi_restore_state
	.loc 1 1139 7 is_stmt 1 view .LVU685
	.loc 1 1139 20 is_stmt 0 view .LVU686
	movs	r3, #16
	str	r3, [sp, #4]
	b	.L182
	.cfi_endproc
.LFE142:
	.size	osMessageGet, .-osMessageGet
	.section	.text.osMailCreate,"ax",%progbits
	.align	1
	.p2align 2,,3
	.global	osMailCreate
	.syntax unified
	.thumb
	.thumb_func
	.fpu fpv4-sp-d16
	.type	osMailCreate, %function
osMailCreate:
.LVL176:
.LFB143:
	.loc 1 1169 1 is_stmt 1 view -0
	.cfi_startproc
	@ args = 0, pretend = 0, frame = 16
	@ frame_needed = 0, uses_anonymous_args = 0
	.loc 1 1171 3 view .LVU688
	.loc 1 1173 3 view .LVU689
	.loc 1 1169 1 is_stmt 0 view .LVU690
	push	{r4, r5, r6, lr}
.LCFI80:
	.cfi_def_cfa_offset 16
	.cfi_offset 4, -16
	.cfi_offset 5, -12
	.cfi_offset 6, -8
	.cfi_offset 14, -4
	.loc 1 1173 15 view .LVU691
	ldrd	r2, r3, [r0]
	.loc 1 1169 1 view .LVU692
	sub	sp, sp, #16
.LCFI81:
	.cfi_def_cfa_offset 32
	.loc 1 1177 14 view .LVU693
	ldr	r5, [r0, #8]
	.loc 1 1169 1 view .LVU694
	mov	r4, r0
	.loc 1 1173 15 view .LVU695
	movs	r6, #0
	.loc 1 1177 22 view .LVU696
	movs	r0, #12
.LVL177:
	.loc 1 1173 15 view .LVU697
	strd	r2, r3, [sp, #4]
	str	r6, [sp, #12]
	.loc 1 1177 3 is_stmt 1 view .LVU698
	.loc 1 1177 22 is_stmt 0 view .LVU699
	bl	pvPortMalloc
.LVL178:
	.loc 1 1179 7 view .LVU700
	ldr	r3, [r4, #8]
	.loc 1 1177 20 view .LVU701
	str	r0, [r5]
	.loc 1 1179 3 is_stmt 1 view .LVU702
	.loc 1 1179 7 is_stmt 0 view .LVU703
	ldr	r5, [r3]
	.loc 1 1179 6 view .LVU704
	cbz	r5, .L195
	.loc 1 1182 3 is_stmt 1 view .LVU705
	.loc 1 1182 33 is_stmt 0 view .LVU706
	str	r4, [r5]
	.loc 1 1185 3 is_stmt 1 view .LVU707
	.loc 1 1185 32 is_stmt 0 view .LVU708
	mov	r2, r6
	ldr	r0, [r4]
	movs	r1, #4
	bl	xQueueGenericCreate
.LVL179:
	.loc 1 1188 8 view .LVU709
	ldr	r3, [r4, #8]
	.loc 1 1185 30 view .LVU710
	str	r0, [r5, #4]
	.loc 1 1188 3 is_stmt 1 view .LVU711
	.loc 1 1188 8 is_stmt 0 view .LVU712
	ldr	r6, [r3]
	.loc 1 1188 25 view .LVU713
	ldr	r5, [r6, #4]
	.loc 1 1188 6 view .LVU714
	cbz	r5, .L202
	.loc 1 1194 3 is_stmt 1 view .LVU715
	.loc 1 1194 30 is_stmt 0 view .LVU716
	add	r0, sp, #4
	bl	osPoolCreate
.LVL180:
	.loc 1 1195 8 view .LVU717
	ldr	r3, [r4, #8]
	.loc 1 1194 28 view .LVU718
	str	r0, [r6, #8]
	.loc 1 1195 3 is_stmt 1 view .LVU719
	.loc 1 1195 8 is_stmt 0 view .LVU720
	ldr	r5, [r3]
	.loc 1 1195 25 view .LVU721
	ldr	r4, [r5, #8]
.LVL181:
	.loc 1 1195 6 view .LVU722
	cbz	r4, .L203
.L195:
	.loc 1 1205 1 view .LVU723
	mov	r0, r5
	add	sp, sp, #16
.LCFI82:
	.cfi_remember_state
	.cfi_def_cfa_offset 16
	@ sp needed
	pop	{r4, r5, r6, pc}
.LVL182:
.L202:
.LCFI83:
	.cfi_restore_state
	.loc 1 1189 5 is_stmt 1 view .LVU724
	mov	r0, r6
	bl	vPortFree
.LVL183:
	.loc 1 1190 5 view .LVU725
	.loc 1 1190 12 is_stmt 0 view .LVU726
	b	.L195
.LVL184:
.L203:
	.loc 1 1197 5 is_stmt 1 view .LVU727
	mov	r0, r5
	bl	vPortFree
.LVL185:
	.loc 1 1198 5 view .LVU728
	.loc 1 1198 12 is_stmt 0 view .LVU729
	mov	r5, r4
	b	.L195
	.cfi_endproc
.LFE143:
	.size	osMailCreate, .-osMailCreate
	.section	.text.osMailAlloc,"ax",%progbits
	.align	1
	.p2align 2,,3
	.global	osMailAlloc
	.syntax unified
	.thumb
	.thumb_func
	.fpu fpv4-sp-d16
	.type	osMailAlloc, %function
osMailAlloc:
.LVL186:
.LFB144:
	.loc 1 1215 1 is_stmt 1 view -0
	.cfi_startproc
	@ args = 0, pretend = 0, frame = 8
	@ frame_needed = 0, uses_anonymous_args = 0
	.loc 1 1216 3 view .LVU731
	.loc 1 1217 3 view .LVU732
	.loc 1 1220 3 view .LVU733
	.loc 1 1220 6 is_stmt 0 view .LVU734
	cmp	r0, #0
	beq	.L216
	.loc 1 1224 3 is_stmt 1 view .LVU735
	.loc 1 1215 1 is_stmt 0 view .LVU736
	push	{r4, r5, r6, lr}
.LCFI84:
	.cfi_def_cfa_offset 16
	.cfi_offset 4, -16
	.cfi_offset 5, -12
	.cfi_offset 6, -8
	.cfi_offset 14, -4
	.loc 1 1224 7 view .LVU737
	ldr	r5, [r0, #8]
.LVL187:
.LBB247:
.LBI247:
	.loc 1 936 7 is_stmt 1 view .LVU738
.LBB248:
	.loc 1 938 3 view .LVU739
	.loc 1 939 3 view .LVU740
	.loc 1 940 3 view .LVU741
	.loc 1 941 3 view .LVU742
	.loc 1 943 3 view .LVU743
.LBB249:
.LBI249:
	.loc 1 130 12 view .LVU744
.LBE249:
.LBE248:
.LBE247:
	.loc 1 132 3 view .LVU745
.LBB274:
.LBB268:
.LBB254:
.LBB250:
.LBI250:
	.loc 2 272 31 view .LVU746
.LBB251:
	.loc 2 274 3 view .LVU747
	.loc 2 276 3 view .LVU748
.LBE251:
.LBE250:
.LBE254:
.LBE268:
.LBE274:
	.loc 1 1215 1 is_stmt 0 view .LVU749
	sub	sp, sp, #8
.LCFI85:
	.cfi_def_cfa_offset 24
.LBB275:
.LBB269:
.LBB255:
.LBB253:
.LBB252:
	.loc 2 276 3 view .LVU750
	.syntax unified
@ 276 "Drivers/CMSIS/Include/cmsis_gcc.h" 1
	MRS r6, ipsr
@ 0 "" 2
.LVL188:
	.loc 2 277 3 is_stmt 1 view .LVU751
	.loc 2 277 3 is_stmt 0 view .LVU752
	.thumb
	.syntax unified
.LBE252:
.LBE253:
.LBE255:
	.loc 1 943 6 view .LVU753
	cmp	r6, #0
	beq	.L206
	.loc 1 944 5 is_stmt 1 view .LVU754
.LBB256:
.LBI256:
	.loc 3 207 34 view .LVU755
.LBB257:
	.loc 3 209 1 view .LVU756
	.loc 3 211 2 view .LVU757
	.syntax unified
@ 211 "Middlewares/Third_Party/FreeRTOS/Source/portable/GCC/ARM_CM4F/portmacro.h" 1
		mrs r6, basepri											
	mov r3, #80												
	msr basepri, r3											
	isb														
	dsb														

@ 0 "" 2
.LVL189:
	.loc 3 223 2 view .LVU758
	.thumb
	.syntax unified
.L207:
	.loc 3 223 2 is_stmt 0 view .LVU759
.LBE257:
.LBE256:
	.loc 1 950 3 is_stmt 1 view .LVU760
	.loc 1 950 15 view .LVU761
	.loc 1 950 26 is_stmt 0 view .LVU762
	ldr	r0, [r5, #8]
	.loc 1 950 3 view .LVU763
	cbz	r0, .L208
	.loc 1 951 21 view .LVU764
	ldr	r3, [r5, #16]
	.loc 1 953 16 view .LVU765
	ldr	r1, [r5, #4]
	add	lr, r3, r0
	b	.L210
.LVL190:
.L209:
	.loc 1 950 3 view .LVU766
	cmp	lr, r3
	beq	.L219
.LVL191:
.L210:
	.loc 1 951 5 is_stmt 1 view .LVU767
	.loc 1 950 37 view .LVU768
	.loc 1 950 15 view .LVU769
	.loc 1 951 11 is_stmt 0 view .LVU770
	udiv	r2, r3, r0
	mls	r2, r0, r2, r3
.LVL192:
	.loc 1 953 5 is_stmt 1 view .LVU771
	.loc 1 953 25 is_stmt 0 view .LVU772
	add	ip, r1, r2
	.loc 1 953 8 view .LVU773
	ldrb	r4, [r1, r2]	@ zero_extendqisi2
	.loc 1 950 3 view .LVU774
	adds	r3, r3, #1
	.loc 1 953 8 view .LVU775
	cmp	r4, #0
	bne	.L209
	.loc 1 954 7 is_stmt 1 view .LVU776
	.loc 1 954 31 is_stmt 0 view .LVU777
	movs	r3, #1
	strb	r3, [ip]
	.loc 1 955 7 is_stmt 1 view .LVU778
	.loc 1 955 55 is_stmt 0 view .LVU779
	ldr	r3, [r5, #12]
	.loc 1 955 46 view .LVU780
	ldr	r0, [r5]
	.loc 1 956 29 view .LVU781
	str	r2, [r5, #16]
	.loc 1 955 46 view .LVU782
	mla	r0, r3, r2, r0
.LVL193:
	.loc 1 956 7 is_stmt 1 view .LVU783
	.loc 1 957 7 view .LVU784
.L208:
	.loc 1 961 3 view .LVU785
.LBB258:
.LBI258:
	.loc 1 130 12 view .LVU786
.LBE258:
.LBE269:
.LBE275:
	.loc 1 132 3 view .LVU787
.LBB276:
.LBB270:
.LBB263:
.LBB259:
.LBI259:
	.loc 2 272 31 view .LVU788
.LBB260:
	.loc 2 274 3 view .LVU789
	.loc 2 276 3 view .LVU790
	.syntax unified
@ 276 "Drivers/CMSIS/Include/cmsis_gcc.h" 1
	MRS r3, ipsr
@ 0 "" 2
.LVL194:
	.loc 2 277 3 view .LVU791
	.loc 2 277 3 is_stmt 0 view .LVU792
	.thumb
	.syntax unified
.LBE260:
.LBE259:
.LBE263:
	.loc 1 961 6 view .LVU793
	cbz	r3, .L211
.L220:
	.loc 1 962 5 is_stmt 1 view .LVU794
.LBB264:
.LBI264:
	.loc 3 227 30 view .LVU795
.LBB265:
	.loc 3 229 2 view .LVU796
	.syntax unified
@ 229 "Middlewares/Third_Party/FreeRTOS/Source/portable/GCC/ARM_CM4F/portmacro.h" 1
		msr basepri, r6	
@ 0 "" 2
	.thumb
	.syntax unified
.LBE265:
.LBE264:
.LBE270:
.LBE276:
	.loc 1 1227 1 is_stmt 0 view .LVU797
	add	sp, sp, #8
.LCFI86:
	.cfi_remember_state
	.cfi_def_cfa_offset 16
	@ sp needed
	pop	{r4, r5, r6, pc}
.LVL195:
.L219:
.LCFI87:
	.cfi_restore_state
.LBB277:
.LBB271:
	.loc 1 939 9 view .LVU798
	movs	r0, #0
.LVL196:
	.loc 1 961 3 is_stmt 1 view .LVU799
.LBB266:
	.loc 1 130 12 view .LVU800
.LBE266:
.LBE271:
.LBE277:
	.loc 1 132 3 view .LVU801
.LBB278:
.LBB272:
.LBB267:
.LBB262:
	.loc 2 272 31 view .LVU802
.LBB261:
	.loc 2 274 3 view .LVU803
	.loc 2 276 3 view .LVU804
	.syntax unified
@ 276 "Drivers/CMSIS/Include/cmsis_gcc.h" 1
	MRS r3, ipsr
@ 0 "" 2
.LVL197:
	.loc 2 277 3 view .LVU805
	.loc 2 277 3 is_stmt 0 view .LVU806
	.thumb
	.syntax unified
.LBE261:
.LBE262:
.LBE267:
	.loc 1 961 6 view .LVU807
	cmp	r3, #0
	bne	.L220
.LVL198:
.L211:
	.loc 1 961 6 view .LVU808
	str	r0, [sp, #4]
	.loc 1 965 5 is_stmt 1 view .LVU809
	bl	vPortExitCritical
.LVL199:
	.loc 1 965 5 is_stmt 0 view .LVU810
	ldr	r0, [sp, #4]
.LBE272:
.LBE278:
	.loc 1 1227 1 view .LVU811
	add	sp, sp, #8
.LCFI88:
	.cfi_remember_state
	.cfi_def_cfa_offset 16
	@ sp needed
	pop	{r4, r5, r6, pc}
.LVL200:
.L206:
.LCFI89:
	.cfi_restore_state
.LBB279:
.LBB273:
	.loc 1 947 5 is_stmt 1 view .LVU812
	bl	vPortEnterCritical
.LVL201:
	.loc 1 947 5 is_stmt 0 view .LVU813
	b	.L207
.LVL202:
.L216:
.LCFI90:
	.cfi_def_cfa_offset 0
	.cfi_restore 4
	.cfi_restore 5
	.cfi_restore 6
	.cfi_restore 14
	.loc 1 947 5 view .LVU814
.LBE273:
.LBE279:
	.loc 1 1227 1 view .LVU815
	bx	lr
	.cfi_endproc
.LFE144:
	.size	osMailAlloc, .-osMailAlloc
	.section	.text.osMailCAlloc,"ax",%progbits
	.align	1
	.p2align 2,,3
	.global	osMailCAlloc
	.syntax unified
	.thumb
	.thumb_func
	.fpu fpv4-sp-d16
	.type	osMailCAlloc, %function
osMailCAlloc:
.LVL203:
.LFB145:
	.loc 1 1237 1 is_stmt 1 view -0
	.cfi_startproc
	@ args = 0, pretend = 0, frame = 0
	@ frame_needed = 0, uses_anonymous_args = 0
	.loc 1 1238 3 view .LVU817
	.loc 1 1239 3 view .LVU818
.LBB294:
.LBI294:
	.loc 1 1214 7 view .LVU819
.LBB295:
	.loc 1 1216 3 view .LVU820
	.loc 1 1217 3 view .LVU821
	.loc 1 1220 3 view .LVU822
.LBE295:
.LBE294:
	.loc 1 1237 1 is_stmt 0 view .LVU823
	push	{r4, r5, r6, r7, r8, lr}
.LCFI91:
	.cfi_def_cfa_offset 24
	.cfi_offset 4, -24
	.cfi_offset 5, -20
	.cfi_offset 6, -16
	.cfi_offset 7, -12
	.cfi_offset 8, -8
	.cfi_offset 14, -4
.LBB328:
.LBB322:
	.loc 1 1220 6 view .LVU824
	cmp	r0, #0
	beq	.L231
	.loc 1 1224 3 is_stmt 1 view .LVU825
	.loc 1 1224 7 is_stmt 0 view .LVU826
	ldr	r7, [r0, #8]
.LVL204:
.LBB296:
.LBI296:
	.loc 1 936 7 is_stmt 1 view .LVU827
.LBB297:
	.loc 1 938 3 view .LVU828
	.loc 1 939 3 view .LVU829
	.loc 1 940 3 view .LVU830
	.loc 1 941 3 view .LVU831
	.loc 1 943 3 view .LVU832
.LBB298:
.LBI298:
	.loc 1 130 12 view .LVU833
.LBE298:
.LBE297:
.LBE296:
.LBE322:
.LBE328:
	.loc 1 132 3 view .LVU834
.LBB329:
.LBB323:
.LBB318:
.LBB314:
.LBB301:
.LBB299:
.LBI299:
	.loc 2 272 31 view .LVU835
.LBB300:
	.loc 2 274 3 view .LVU836
	.loc 2 276 3 view .LVU837
	mov	r6, r0
	.syntax unified
@ 276 "Drivers/CMSIS/Include/cmsis_gcc.h" 1
	MRS r8, ipsr
@ 0 "" 2
.LVL205:
	.loc 2 277 3 view .LVU838
	.loc 2 277 3 is_stmt 0 view .LVU839
	.thumb
	.syntax unified
.LBE300:
.LBE299:
.LBE301:
	.loc 1 943 6 view .LVU840
	cmp	r8, #0
	beq	.L224
	.loc 1 944 5 is_stmt 1 view .LVU841
.LBB302:
.LBI302:
	.loc 3 207 34 view .LVU842
.LBB303:
	.loc 3 209 1 view .LVU843
	.loc 3 211 2 view .LVU844
	.syntax unified
@ 211 "Middlewares/Third_Party/FreeRTOS/Source/portable/GCC/ARM_CM4F/portmacro.h" 1
		mrs r8, basepri											
	mov r3, #80												
	msr basepri, r3											
	isb														
	dsb														

@ 0 "" 2
.LVL206:
	.loc 3 223 2 view .LVU845
	.thumb
	.syntax unified
.L225:
	.loc 3 223 2 is_stmt 0 view .LVU846
.LBE303:
.LBE302:
	.loc 1 950 3 is_stmt 1 view .LVU847
	.loc 1 950 15 view .LVU848
	.loc 1 950 26 is_stmt 0 view .LVU849
	ldr	r1, [r7, #8]
	.loc 1 950 3 view .LVU850
	cmp	r1, #0
	beq	.L233
	.loc 1 951 21 view .LVU851
	ldr	r3, [r7, #16]
	.loc 1 953 16 view .LVU852
	ldr	r4, [r7, #4]
	add	ip, r1, r3
	b	.L228
.LVL207:
.L227:
	.loc 1 950 3 view .LVU853
	cmp	ip, r3
	beq	.L243
.LVL208:
.L228:
	.loc 1 951 5 is_stmt 1 view .LVU854
	.loc 1 950 37 view .LVU855
	.loc 1 950 15 view .LVU856
	.loc 1 951 11 is_stmt 0 view .LVU857
	udiv	r2, r3, r1
	mls	r2, r1, r2, r3
.LVL209:
	.loc 1 953 5 is_stmt 1 view .LVU858
	.loc 1 953 25 is_stmt 0 view .LVU859
	adds	r0, r4, r2
	.loc 1 953 8 view .LVU860
	ldrb	r5, [r4, r2]	@ zero_extendqisi2
	.loc 1 950 3 view .LVU861
	adds	r3, r3, #1
	.loc 1 953 8 view .LVU862
	cmp	r5, #0
	bne	.L227
	.loc 1 954 7 is_stmt 1 view .LVU863
	.loc 1 954 31 is_stmt 0 view .LVU864
	movs	r3, #1
	strb	r3, [r0]
	.loc 1 955 7 is_stmt 1 view .LVU865
	.loc 1 955 55 is_stmt 0 view .LVU866
	ldr	r4, [r7, #12]
	.loc 1 955 46 view .LVU867
	ldr	r1, [r7]
	.loc 1 956 29 view .LVU868
	str	r2, [r7, #16]
	.loc 1 955 46 view .LVU869
	mla	r4, r4, r2, r1
.LVL210:
	.loc 1 956 7 is_stmt 1 view .LVU870
	.loc 1 957 7 view .LVU871
.L226:
	.loc 1 961 3 view .LVU872
.LBB304:
.LBI304:
	.loc 1 130 12 view .LVU873
.LBE304:
.LBE314:
.LBE318:
.LBE323:
.LBE329:
	.loc 1 132 3 view .LVU874
.LBB330:
.LBB324:
.LBB319:
.LBB315:
.LBB309:
.LBB305:
.LBI305:
	.loc 2 272 31 view .LVU875
.LBB306:
	.loc 2 274 3 view .LVU876
	.loc 2 276 3 view .LVU877
	.syntax unified
@ 276 "Drivers/CMSIS/Include/cmsis_gcc.h" 1
	MRS r3, ipsr
@ 0 "" 2
.LVL211:
	.loc 2 277 3 view .LVU878
	.loc 2 277 3 is_stmt 0 view .LVU879
	.thumb
	.syntax unified
.LBE306:
.LBE305:
.LBE309:
	.loc 1 961 6 view .LVU880
	cbz	r3, .L229
.L244:
	.loc 1 962 5 is_stmt 1 view .LVU881
.LBB310:
.LBI310:
	.loc 3 227 30 view .LVU882
.LBB311:
	.loc 3 229 2 view .LVU883
	.syntax unified
@ 229 "Middlewares/Third_Party/FreeRTOS/Source/portable/GCC/ARM_CM4F/portmacro.h" 1
		msr basepri, r8	
@ 0 "" 2
	.thumb
	.syntax unified
.L230:
	.loc 3 229 2 is_stmt 0 view .LVU884
.LBE311:
.LBE310:
	.loc 1 968 3 is_stmt 1 view .LVU885
.LVL212:
	.loc 1 968 3 is_stmt 0 view .LVU886
.LBE315:
.LBE319:
	.loc 1 1226 3 is_stmt 1 view .LVU887
	.loc 1 1226 3 is_stmt 0 view .LVU888
.LBE324:
.LBE330:
	.loc 1 1241 3 is_stmt 1 view .LVU889
	.loc 1 1241 6 is_stmt 0 view .LVU890
	cbz	r4, .L231
.LVL213:
	.loc 1 1242 17 is_stmt 1 view .LVU891
	.loc 1 1242 40 is_stmt 0 view .LVU892
	ldr	r3, [r6]
	.loc 1 1242 5 view .LVU893
	ldr	r3, [r3, #4]
	cbz	r3, .L221
	subs	r2, r4, #1
	.loc 1 1243 25 view .LVU894
	movs	r0, #0
.LVL214:
.L232:
	.loc 1 1243 7 is_stmt 1 discriminator 3 view .LVU895
	mov	r3, r2
	.loc 1 1243 25 is_stmt 0 discriminator 3 view .LVU896
	strb	r0, [r2, #1]!
.LVL215:
	.loc 1 1242 51 is_stmt 1 discriminator 3 view .LVU897
	.loc 1 1242 17 discriminator 3 view .LVU898
	.loc 1 1242 40 is_stmt 0 discriminator 3 view .LVU899
	ldr	r1, [r6]
	.loc 1 1242 5 discriminator 3 view .LVU900
	adds	r3, r3, #2
	ldr	r1, [r1, #4]
	subs	r3, r3, r4
	cmp	r1, r3
	bhi	.L232
.LVL216:
.L221:
	.loc 1 1248 1 view .LVU901
	mov	r0, r4
	pop	{r4, r5, r6, r7, r8, pc}
.LVL217:
.L231:
.LBB331:
.LBB325:
	.loc 1 1221 12 view .LVU902
	movs	r4, #0
.LBE325:
.LBE331:
	.loc 1 1248 1 view .LVU903
	mov	r0, r4
	pop	{r4, r5, r6, r7, r8, pc}
.LVL218:
.L243:
.LBB332:
.LBB326:
.LBB320:
.LBB316:
	.loc 1 939 9 view .LVU904
	movs	r4, #0
.LVL219:
	.loc 1 961 3 is_stmt 1 view .LVU905
.LBB312:
	.loc 1 130 12 view .LVU906
.LBE312:
.LBE316:
.LBE320:
.LBE326:
.LBE332:
	.loc 1 132 3 view .LVU907
.LBB333:
.LBB327:
.LBB321:
.LBB317:
.LBB313:
.LBB308:
	.loc 2 272 31 view .LVU908
.LBB307:
	.loc 2 274 3 view .LVU909
	.loc 2 276 3 view .LVU910
	.syntax unified
@ 276 "Drivers/CMSIS/Include/cmsis_gcc.h" 1
	MRS r3, ipsr
@ 0 "" 2
.LVL220:
	.loc 2 277 3 view .LVU911
	.loc 2 277 3 is_stmt 0 view .LVU912
	.thumb
	.syntax unified
.LBE307:
.LBE308:
.LBE313:
	.loc 1 961 6 view .LVU913
	cmp	r3, #0
	bne	.L244
.LVL221:
.L229:
	.loc 1 965 5 is_stmt 1 view .LVU914
	bl	vPortExitCritical
.LVL222:
	b	.L230
.LVL223:
.L224:
	.loc 1 947 5 view .LVU915
	bl	vPortEnterCritical
.LVL224:
	.loc 1 947 5 is_stmt 0 view .LVU916
	b	.L225
.LVL225:
.L233:
	.loc 1 939 9 view .LVU917
	mov	r4, r1
	b	.L226
.LBE317:
.LBE321:
.LBE327:
.LBE333:
	.cfi_endproc
.LFE145:
	.size	osMailCAlloc, .-osMailCAlloc
	.section	.text.osMailPut,"ax",%progbits
	.align	1
	.p2align 2,,3
	.global	osMailPut
	.syntax unified
	.thumb
	.thumb_func
	.fpu fpv4-sp-d16
	.type	osMailPut, %function
osMailPut:
.LVL226:
.LFB146:
	.loc 1 1258 1 is_stmt 1 view -0
	.cfi_startproc
	@ args = 0, pretend = 0, frame = 16
	@ frame_needed = 0, uses_anonymous_args = 0
	.loc 1 1259 3 view .LVU919
	.loc 1 1262 3 view .LVU920
	.loc 1 1258 1 is_stmt 0 view .LVU921
	push	{r4, lr}
.LCFI92:
	.cfi_def_cfa_offset 8
	.cfi_offset 4, -8
	.cfi_offset 14, -4
	sub	sp, sp, #16
.LCFI93:
	.cfi_def_cfa_offset 24
	.loc 1 1258 1 view .LVU922
	str	r1, [sp, #4]
	.loc 1 1262 6 view .LVU923
	cbz	r0, .L251
	.loc 1 1266 3 is_stmt 1 view .LVU924
	.loc 1 1266 13 is_stmt 0 view .LVU925
	movs	r4, #0
	str	r4, [sp, #12]
	.loc 1 1268 3 is_stmt 1 view .LVU926
.LBB334:
.LBI334:
	.loc 1 130 12 view .LVU927
.LBE334:
	.loc 1 132 3 view .LVU928
.LBB337:
.LBB335:
.LBI335:
	.loc 2 272 31 view .LVU929
.LBB336:
	.loc 2 274 3 view .LVU930
	.loc 2 276 3 view .LVU931
	.syntax unified
@ 276 "Drivers/CMSIS/Include/cmsis_gcc.h" 1
	MRS r3, ipsr
@ 0 "" 2
.LVL227:
	.loc 2 277 3 view .LVU932
	.loc 2 277 3 is_stmt 0 view .LVU933
	.thumb
	.syntax unified
.LBE336:
.LBE335:
.LBE337:
	.loc 1 1269 9 view .LVU934
	ldr	r0, [r0, #4]
.LVL228:
	.loc 1 1268 6 view .LVU935
	cbnz	r3, .L256
	.loc 1 1275 5 is_stmt 1 view .LVU936
	.loc 1 1275 9 is_stmt 0 view .LVU937
	mov	r2, r3
	add	r1, sp, #4
.LVL229:
	.loc 1 1275 9 view .LVU938
	bl	xQueueGenericSend
.LVL230:
	.loc 1 1275 8 view .LVU939
	cmp	r0, #1
	bne	.L248
.L250:
	.loc 1 1280 10 view .LVU940
	movs	r0, #0
	.loc 1 1281 1 view .LVU941
	add	sp, sp, #16
.LCFI94:
	.cfi_remember_state
	.cfi_def_cfa_offset 8
	@ sp needed
	pop	{r4, pc}
.LVL231:
.L256:
.LCFI95:
	.cfi_restore_state
	.loc 1 1269 5 is_stmt 1 view .LVU942
	.loc 1 1269 9 is_stmt 0 view .LVU943
	mov	r3, r4
	add	r2, sp, #12
	add	r1, sp, #4
.LVL232:
	.loc 1 1269 9 view .LVU944
	bl	xQueueGenericSendFromISR
.LVL233:
	.loc 1 1269 8 view .LVU945
	cmp	r0, #1
	bne	.L248
	.loc 1 1272 5 is_stmt 1 view .LVU946
	ldr	r3, [sp, #12]
	cmp	r3, #0
	beq	.L250
	.loc 1 1272 5 discriminator 1 view .LVU947
	mov	r3, #-536813568
	mov	r2, #268435456
	str	r2, [r3, #3332]
	.loc 1 1272 5 discriminator 1 view .LVU948
	.syntax unified
@ 1272 "Middlewares/Third_Party/FreeRTOS/Source/CMSIS_RTOS/cmsis_os.c" 1
	dsb
@ 0 "" 2
	.loc 1 1272 5 discriminator 1 view .LVU949
@ 1272 "Middlewares/Third_Party/FreeRTOS/Source/CMSIS_RTOS/cmsis_os.c" 1
	isb
@ 0 "" 2
	.loc 1 1280 10 is_stmt 0 discriminator 1 view .LVU950
	.thumb
	.syntax unified
	mov	r0, r4
	.loc 1 1281 1 discriminator 1 view .LVU951
	add	sp, sp, #16
.LCFI96:
	.cfi_remember_state
	.cfi_def_cfa_offset 8
	@ sp needed
	pop	{r4, pc}
.L248:
.LCFI97:
	.cfi_restore_state
	.loc 1 1276 7 is_stmt 1 view .LVU952
	.loc 1 1276 14 is_stmt 0 view .LVU953
	movs	r0, #255
	.loc 1 1281 1 view .LVU954
	add	sp, sp, #16
.LCFI98:
	.cfi_remember_state
	.cfi_def_cfa_offset 8
	@ sp needed
	pop	{r4, pc}
.LVL234:
.L251:
.LCFI99:
	.cfi_restore_state
	.loc 1 1263 12 view .LVU955
	movs	r0, #128
.LVL235:
	.loc 1 1281 1 view .LVU956
	add	sp, sp, #16
.LCFI100:
	.cfi_def_cfa_offset 8
	@ sp needed
	pop	{r4, pc}
	.cfi_endproc
.LFE146:
	.size	osMailPut, .-osMailPut
	.section	.text.osMailGet,"ax",%progbits
	.align	1
	.p2align 2,,3
	.global	osMailGet
	.syntax unified
	.thumb
	.thumb_func
	.fpu fpv4-sp-d16
	.type	osMailGet, %function
osMailGet:
.LVL236:
.LFB147:
	.loc 1 1291 1 is_stmt 1 view -0
	.cfi_startproc
	@ args = 0, pretend = 0, frame = 16
	@ frame_needed = 0, uses_anonymous_args = 0
	.loc 1 1292 3 view .LVU958
	.loc 1 1293 3 view .LVU959
	.loc 1 1294 3 view .LVU960
	.loc 1 1296 3 view .LVU961
	.loc 1 1291 1 is_stmt 0 view .LVU962
	push	{r4, r5, lr}
.LCFI101:
	.cfi_def_cfa_offset 12
	.cfi_offset 4, -12
	.cfi_offset 5, -8
	.cfi_offset 14, -4
	sub	sp, sp, #20
.LCFI102:
	.cfi_def_cfa_offset 32
	.loc 1 1291 1 view .LVU963
	mov	r4, r0
	.loc 1 1296 21 view .LVU964
	str	r1, [sp, #12]
	.loc 1 1298 3 is_stmt 1 view .LVU965
	.loc 1 1298 6 is_stmt 0 view .LVU966
	cbz	r1, .L272
	.loc 1 1303 3 is_stmt 1 view .LVU967
	.loc 1 1303 13 is_stmt 0 view .LVU968
	movs	r3, #0
	str	r3, [sp]
	.loc 1 1305 3 is_stmt 1 view .LVU969
.LVL237:
	.loc 1 1306 3 view .LVU970
	.loc 1 1316 3 view .LVU971
.LBB338:
.LBI338:
	.loc 1 130 12 view .LVU972
.LBE338:
	.loc 1 132 3 view .LVU973
.LBB341:
.LBB339:
.LBI339:
	.loc 2 272 31 view .LVU974
.LBB340:
	.loc 2 274 3 view .LVU975
	.loc 2 276 3 view .LVU976
	.syntax unified
@ 276 "Drivers/CMSIS/Include/cmsis_gcc.h" 1
	MRS r3, ipsr
@ 0 "" 2
.LVL238:
	.loc 2 277 3 view .LVU977
	.loc 2 277 3 is_stmt 0 view .LVU978
	.thumb
	.syntax unified
.LBE340:
.LBE339:
.LBE341:
	.loc 1 1316 6 view .LVU979
	cbnz	r3, .L273
	.loc 1 1327 5 is_stmt 1 view .LVU980
	.loc 1 1327 9 is_stmt 0 view .LVU981
	ldr	r0, [r1, #4]
.LVL239:
	.loc 1 1327 9 view .LVU982
	add	r1, sp, #8
.LVL240:
	.loc 1 1327 9 view .LVU983
	mov	r5, r2
	bl	xQueueReceive
.LVL241:
	.loc 1 1327 8 view .LVU984
	cmp	r0, #1
	beq	.L274
	.loc 1 1332 7 is_stmt 1 view .LVU985
	.loc 1 1332 42 is_stmt 0 view .LVU986
	cmp	r5, #0
	it	ne
	movne	r5, #64
.LVL242:
	.loc 1 1332 20 view .LVU987
	str	r5, [sp, #4]
.L262:
	.loc 1 1336 3 is_stmt 1 view .LVU988
	.loc 1 1336 10 is_stmt 0 view .LVU989
	add	r3, sp, #16
	ldmdb	r3, {r0, r1, r2}
	stm	r4, {r0, r1, r2}
	.loc 1 1337 1 view .LVU990
	mov	r0, r4
	add	sp, sp, #20
.LCFI103:
	.cfi_remember_state
	.cfi_def_cfa_offset 12
	@ sp needed
	pop	{r4, r5, pc}
.LVL243:
.L273:
.LCFI104:
	.cfi_restore_state
	.loc 1 1317 5 is_stmt 1 view .LVU991
	.loc 1 1317 9 is_stmt 0 view .LVU992
	mov	r2, sp
.LVL244:
	.loc 1 1317 9 view .LVU993
	ldr	r0, [r1, #4]
.LVL245:
	.loc 1 1317 9 view .LVU994
	add	r1, sp, #8
.LVL246:
	.loc 1 1317 9 view .LVU995
	bl	xQueueReceiveFromISR
.LVL247:
	.loc 1 1324 5 view .LVU996
	ldr	r3, [sp]
	.loc 1 1322 20 view .LVU997
	cmp	r0, #1
	ite	eq
	moveq	r2, #32
	movne	r2, #0
	str	r2, [sp, #4]
	.loc 1 1324 5 is_stmt 1 view .LVU998
	cmp	r3, #0
	beq	.L262
	.loc 1 1324 5 discriminator 1 view .LVU999
	mov	r3, #-536813568
	mov	r2, #268435456
	str	r2, [r3, #3332]
	.loc 1 1324 5 discriminator 1 view .LVU1000
	.syntax unified
@ 1324 "Middlewares/Third_Party/FreeRTOS/Source/CMSIS_RTOS/cmsis_os.c" 1
	dsb
@ 0 "" 2
	.loc 1 1324 5 discriminator 1 view .LVU1001
@ 1324 "Middlewares/Third_Party/FreeRTOS/Source/CMSIS_RTOS/cmsis_os.c" 1
	isb
@ 0 "" 2
	.thumb
	.syntax unified
	b	.L262
.LVL248:
.L272:
	.loc 1 1299 5 view .LVU1002
	.loc 1 1299 18 is_stmt 0 view .LVU1003
	movs	r3, #128
	str	r3, [sp, #4]
	.loc 1 1300 5 is_stmt 1 view .LVU1004
	.loc 1 1300 12 is_stmt 0 view .LVU1005
	add	r3, sp, #16
	ldmdb	r3, {r0, r1, r2}
.LVL249:
	.loc 1 1300 12 view .LVU1006
	stm	r4, {r0, r1, r2}
	.loc 1 1337 1 view .LVU1007
	mov	r0, r4
	add	sp, sp, #20
.LCFI105:
	.cfi_remember_state
	.cfi_def_cfa_offset 12
	@ sp needed
	pop	{r4, r5, pc}
.LVL250:
.L274:
.LCFI106:
	.cfi_restore_state
	.loc 1 1329 7 is_stmt 1 view .LVU1008
	.loc 1 1329 20 is_stmt 0 view .LVU1009
	movs	r3, #32
	str	r3, [sp, #4]
	b	.L262
	.cfi_endproc
.LFE147:
	.size	osMailGet, .-osMailGet
	.section	.text.osMailFree,"ax",%progbits
	.align	1
	.p2align 2,,3
	.global	osMailFree
	.syntax unified
	.thumb
	.thumb_func
	.fpu fpv4-sp-d16
	.type	osMailFree, %function
osMailFree:
.LVL251:
.LFB148:
	.loc 1 1347 1 is_stmt 1 view -0
	.cfi_startproc
	@ args = 0, pretend = 0, frame = 0
	@ frame_needed = 0, uses_anonymous_args = 0
	@ link register save eliminated.
	.loc 1 1348 3 view .LVU1011
	.loc 1 1348 6 is_stmt 0 view .LVU1012
	cbz	r0, .L280
	.loc 1 1352 3 is_stmt 1 view .LVU1013
	.loc 1 1352 10 is_stmt 0 view .LVU1014
	ldr	r3, [r0, #8]
.LVL252:
.LBB342:
.LBI342:
	.loc 1 996 10 is_stmt 1 view .LVU1015
.LBB343:
	.loc 1 998 3 view .LVU1016
	.loc 1 1000 3 view .LVU1017
	.loc 1 1000 6 is_stmt 0 view .LVU1018
	cbz	r3, .L280
	.loc 1 1004 3 is_stmt 1 view .LVU1019
	.loc 1 1004 6 is_stmt 0 view .LVU1020
	cbz	r1, .L280
	.loc 1 1008 3 is_stmt 1 view .LVU1021
	.loc 1 1008 22 is_stmt 0 view .LVU1022
	ldr	r0, [r3]
.LVL253:
	.loc 1 1008 6 view .LVU1023
	cmp	r1, r0
	bcc	.L280
	.loc 1 1012 3 is_stmt 1 view .LVU1024
.LBE343:
.LBE342:
	.loc 1 1347 1 is_stmt 0 view .LVU1025
	push	{r4}
.LCFI107:
	.cfi_def_cfa_offset 4
	.cfi_offset 4, -4
.LBB345:
.LBB344:
	.loc 1 1013 22 view .LVU1026
	ldr	r4, [r3, #12]
	.loc 1 1012 9 view .LVU1027
	subs	r1, r1, r0
.LVL254:
	.loc 1 1013 3 is_stmt 1 view .LVU1028
	.loc 1 1013 13 is_stmt 0 view .LVU1029
	udiv	r2, r1, r4
	mls	r0, r4, r2, r1
	.loc 1 1013 6 view .LVU1030
	cbnz	r0, .L282
	.loc 1 1016 3 is_stmt 1 view .LVU1031
.LVL255:
	.loc 1 1017 3 view .LVU1032
	.loc 1 1017 6 is_stmt 0 view .LVU1033
	ldr	r1, [r3, #8]
	cmp	r2, r1
	bcs	.L282
	.loc 1 1021 3 is_stmt 1 view .LVU1034
	.loc 1 1021 27 is_stmt 0 view .LVU1035
	ldr	r3, [r3, #4]
.LVL256:
	.loc 1 1021 27 view .LVU1036
	strb	r0, [r3, r2]
.LVL257:
	.loc 1 1023 3 is_stmt 1 view .LVU1037
.LBE344:
.LBE345:
	.loc 1 1353 1 is_stmt 0 view .LVU1038
	ldr	r4, [sp], #4
.LCFI108:
	.cfi_remember_state
	.cfi_restore 4
	.cfi_def_cfa_offset 0
	bx	lr
.LVL258:
.L282:
.LCFI109:
	.cfi_restore_state
	.loc 1 1349 12 view .LVU1039
	movs	r0, #128
.LVL259:
	.loc 1 1353 1 view .LVU1040
	ldr	r4, [sp], #4
.LCFI110:
	.cfi_restore 4
	.cfi_def_cfa_offset 0
	bx	lr
.LVL260:
.L280:
	.loc 1 1349 12 view .LVU1041
	movs	r0, #128
	.loc 1 1353 1 view .LVU1042
	bx	lr
	.cfi_endproc
.LFE148:
	.size	osMailFree, .-osMailFree
	.section	.text.osSystickHandler,"ax",%progbits
	.align	1
	.p2align 2,,3
	.global	osSystickHandler
	.syntax unified
	.thumb
	.thumb_func
	.fpu fpv4-sp-d16
	.type	osSystickHandler, %function
osSystickHandler:
.LFB149:
	.loc 1 1363 1 is_stmt 1 view -0
	.cfi_startproc
	@ args = 0, pretend = 0, frame = 0
	@ frame_needed = 0, uses_anonymous_args = 0
	.loc 1 1366 3 view .LVU1044
	.loc 1 1363 1 is_stmt 0 view .LVU1045
	push	{r3, lr}
.LCFI111:
	.cfi_def_cfa_offset 8
	.cfi_offset 3, -8
	.cfi_offset 14, -4
	.loc 1 1366 7 view .LVU1046
	bl	xTaskGetSchedulerState
.LVL261:
	.loc 1 1366 6 view .LVU1047
	cmp	r0, #1
	bne	.L290
	.loc 1 1373 1 view .LVU1048
	pop	{r3, pc}
.L290:
	.loc 1 1369 5 is_stmt 1 view .LVU1049
	.loc 1 1373 1 is_stmt 0 view .LVU1050
	pop	{r3, lr}
.LCFI112:
	.cfi_restore 14
	.cfi_restore 3
	.cfi_def_cfa_offset 0
	.loc 1 1369 5 view .LVU1051
	b	SysTick_Handler
.LVL262:
	.cfi_endproc
.LFE149:
	.size	osSystickHandler, .-osSystickHandler
	.section	.text.osThreadSuspend,"ax",%progbits
	.align	1
	.p2align 2,,3
	.global	osThreadSuspend
	.syntax unified
	.thumb
	.thumb_func
	.fpu fpv4-sp-d16
	.type	osThreadSuspend, %function
osThreadSuspend:
.LVL263:
.LFB150:
	.loc 1 1433 1 is_stmt 1 view -0
	.cfi_startproc
	@ args = 0, pretend = 0, frame = 0
	@ frame_needed = 0, uses_anonymous_args = 0
	.loc 1 1435 5 view .LVU1053
	.loc 1 1433 1 is_stmt 0 view .LVU1054
	push	{r3, lr}
.LCFI113:
	.cfi_def_cfa_offset 8
	.cfi_offset 3, -8
	.cfi_offset 14, -4
	.loc 1 1435 5 view .LVU1055
	bl	vTaskSuspend
.LVL264:
	.loc 1 1437 3 is_stmt 1 view .LVU1056
	.loc 1 1441 1 is_stmt 0 view .LVU1057
	movs	r0, #0
	pop	{r3, pc}
	.cfi_endproc
.LFE150:
	.size	osThreadSuspend, .-osThreadSuspend
	.section	.text.osThreadResume,"ax",%progbits
	.align	1
	.p2align 2,,3
	.global	osThreadResume
	.syntax unified
	.thumb
	.thumb_func
	.fpu fpv4-sp-d16
	.type	osThreadResume, %function
osThreadResume:
.LVL265:
.LFB151:
	.loc 1 1449 1 is_stmt 1 view -0
	.cfi_startproc
	@ args = 0, pretend = 0, frame = 0
	@ frame_needed = 0, uses_anonymous_args = 0
	.loc 1 1451 3 view .LVU1059
.LBB346:
.LBI346:
	.loc 1 130 12 view .LVU1060
.LBE346:
	.loc 1 132 3 view .LVU1061
.LBB351:
.LBB347:
.LBI347:
	.loc 2 272 31 view .LVU1062
.LBB348:
	.loc 2 274 3 view .LVU1063
	.loc 2 276 3 view .LVU1064
.LBE348:
.LBE347:
.LBE351:
	.loc 1 1449 1 is_stmt 0 view .LVU1065
	push	{r3, lr}
.LCFI114:
	.cfi_def_cfa_offset 8
	.cfi_offset 3, -8
	.cfi_offset 14, -4
.LBB352:
.LBB350:
.LBB349:
	.loc 2 276 3 view .LVU1066
	.syntax unified
@ 276 "Drivers/CMSIS/Include/cmsis_gcc.h" 1
	MRS r3, ipsr
@ 0 "" 2
.LVL266:
	.loc 2 277 3 is_stmt 1 view .LVU1067
	.loc 2 277 3 is_stmt 0 view .LVU1068
	.thumb
	.syntax unified
.LBE349:
.LBE350:
.LBE352:
	.loc 1 1451 5 view .LVU1069
	cbz	r3, .L294
	.loc 1 1453 5 is_stmt 1 view .LVU1070
	.loc 1 1453 9 is_stmt 0 view .LVU1071
	bl	xTaskResumeFromISR
.LVL267:
	.loc 1 1453 8 view .LVU1072
	cmp	r0, #1
	beq	.L297
	.loc 1 1462 3 is_stmt 1 view .LVU1073
	.loc 1 1466 1 is_stmt 0 view .LVU1074
	movs	r0, #0
	pop	{r3, pc}
.LVL268:
.L294:
	.loc 1 1460 5 is_stmt 1 view .LVU1075
	bl	vTaskResume
.LVL269:
	.loc 1 1462 3 view .LVU1076
	.loc 1 1466 1 is_stmt 0 view .LVU1077
	movs	r0, #0
	pop	{r3, pc}
.L297:
	.loc 1 1455 7 is_stmt 1 discriminator 1 view .LVU1078
	.loc 1 1455 7 discriminator 1 view .LVU1079
	mov	r3, #-536813568
	mov	r2, #268435456
	str	r2, [r3, #3332]
	.loc 1 1455 7 discriminator 1 view .LVU1080
	.syntax unified
@ 1455 "Middlewares/Third_Party/FreeRTOS/Source/CMSIS_RTOS/cmsis_os.c" 1
	dsb
@ 0 "" 2
	.loc 1 1455 7 discriminator 1 view .LVU1081
@ 1455 "Middlewares/Third_Party/FreeRTOS/Source/CMSIS_RTOS/cmsis_os.c" 1
	isb
@ 0 "" 2
	.loc 1 1462 3 discriminator 1 view .LVU1082
	.loc 1 1466 1 is_stmt 0 discriminator 1 view .LVU1083
	.thumb
	.syntax unified
	movs	r0, #0
	pop	{r3, pc}
	.cfi_endproc
.LFE151:
	.size	osThreadResume, .-osThreadResume
	.section	.text.osThreadSuspendAll,"ax",%progbits
	.align	1
	.p2align 2,,3
	.global	osThreadSuspendAll
	.syntax unified
	.thumb
	.thumb_func
	.fpu fpv4-sp-d16
	.type	osThreadSuspendAll, %function
osThreadSuspendAll:
.LFB152:
	.loc 1 1473 1 is_stmt 1 view -0
	.cfi_startproc
	@ args = 0, pretend = 0, frame = 0
	@ frame_needed = 0, uses_anonymous_args = 0
	.loc 1 1474 3 view .LVU1085
	.loc 1 1473 1 is_stmt 0 view .LVU1086
	push	{r3, lr}
.LCFI115:
	.cfi_def_cfa_offset 8
	.cfi_offset 3, -8
	.cfi_offset 14, -4
	.loc 1 1474 3 view .LVU1087
	bl	vTaskSuspendAll
.LVL270:
	.loc 1 1476 3 is_stmt 1 view .LVU1088
	.loc 1 1477 1 is_stmt 0 view .LVU1089
	movs	r0, #0
	pop	{r3, pc}
	.cfi_endproc
.LFE152:
	.size	osThreadSuspendAll, .-osThreadSuspendAll
	.section	.text.osThreadResumeAll,"ax",%progbits
	.align	1
	.p2align 2,,3
	.global	osThreadResumeAll
	.syntax unified
	.thumb
	.thumb_func
	.fpu fpv4-sp-d16
	.type	osThreadResumeAll, %function
osThreadResumeAll:
.LFB153:
	.loc 1 1484 1 is_stmt 1 view -0
	.cfi_startproc
	@ args = 0, pretend = 0, frame = 0
	@ frame_needed = 0, uses_anonymous_args = 0
	.loc 1 1485 3 view .LVU1091
	.loc 1 1484 1 is_stmt 0 view .LVU1092
	push	{r3, lr}
.LCFI116:
	.cfi_def_cfa_offset 8
	.cfi_offset 3, -8
	.cfi_offset 14, -4
	.loc 1 1485 7 view .LVU1093
	bl	xTaskResumeAll
.LVL271:
	.loc 1 1488 12 view .LVU1094
	cmp	r0, #1
	.loc 1 1490 1 view .LVU1095
	ite	ne
	movne	r0, #255
	moveq	r0, #0
	pop	{r3, pc}
	.cfi_endproc
.LFE153:
	.size	osThreadResumeAll, .-osThreadResumeAll
	.section	.text.osDelayUntil,"ax",%progbits
	.align	1
	.p2align 2,,3
	.global	osDelayUntil
	.syntax unified
	.thumb
	.thumb_func
	.fpu fpv4-sp-d16
	.type	osDelayUntil, %function
osDelayUntil:
.LVL272:
.LFB154:
	.loc 1 1501 1 is_stmt 1 view -0
	.cfi_startproc
	@ args = 0, pretend = 0, frame = 0
	@ frame_needed = 0, uses_anonymous_args = 0
	@ link register save eliminated.
	.loc 1 1508 3 view .LVU1097
	.loc 1 1509 3 view .LVU1098
	.loc 1 1511 3 view .LVU1099
	.loc 1 1513 1 is_stmt 0 view .LVU1100
	movs	r0, #129
.LVL273:
	.loc 1 1513 1 view .LVU1101
	bx	lr
	.cfi_endproc
.LFE154:
	.size	osDelayUntil, .-osDelayUntil
	.section	.text.osAbortDelay,"ax",%progbits
	.align	1
	.p2align 2,,3
	.global	osAbortDelay
	.syntax unified
	.thumb
	.thumb_func
	.fpu fpv4-sp-d16
	.type	osAbortDelay, %function
osAbortDelay:
.LVL274:
.LFB155:
	.loc 1 1521 1 is_stmt 1 view -0
	.cfi_startproc
	@ args = 0, pretend = 0, frame = 0
	@ frame_needed = 0, uses_anonymous_args = 0
	@ link register save eliminated.
	.loc 1 1528 3 view .LVU1103
	.loc 1 1530 3 view .LVU1104
	.loc 1 1532 1 is_stmt 0 view .LVU1105
	movs	r0, #129
.LVL275:
	.loc 1 1532 1 view .LVU1106
	bx	lr
	.cfi_endproc
.LFE155:
	.size	osAbortDelay, .-osAbortDelay
	.section	.text.osThreadList,"ax",%progbits
	.align	1
	.p2align 2,,3
	.global	osThreadList
	.syntax unified
	.thumb
	.thumb_func
	.fpu fpv4-sp-d16
	.type	osThreadList, %function
osThreadList:
.LVL276:
.LFB156:
	.loc 1 1542 1 is_stmt 1 view -0
	.cfi_startproc
	@ args = 0, pretend = 0, frame = 0
	@ frame_needed = 0, uses_anonymous_args = 0
	@ link register save eliminated.
	.loc 1 1546 3 view .LVU1108
	.loc 1 1547 1 is_stmt 0 view .LVU1109
	movs	r0, #0
.LVL277:
	.loc 1 1547 1 view .LVU1110
	bx	lr
	.cfi_endproc
.LFE156:
	.size	osThreadList, .-osThreadList
	.section	.text.osMessagePeek,"ax",%progbits
	.align	1
	.p2align 2,,3
	.global	osMessagePeek
	.syntax unified
	.thumb
	.thumb_func
	.fpu fpv4-sp-d16
	.type	osMessagePeek, %function
osMessagePeek:
.LVL278:
.LFB157:
	.loc 1 1556 1 is_stmt 1 view -0
	.cfi_startproc
	@ args = 0, pretend = 0, frame = 16
	@ frame_needed = 0, uses_anonymous_args = 0
	.loc 1 1557 3 view .LVU1112
	.loc 1 1558 3 view .LVU1113
	.loc 1 1560 3 view .LVU1114
	.loc 1 1556 1 is_stmt 0 view .LVU1115
	push	{r4, r5, lr}
.LCFI117:
	.cfi_def_cfa_offset 12
	.cfi_offset 4, -12
	.cfi_offset 5, -8
	.cfi_offset 14, -4
	sub	sp, sp, #20
.LCFI118:
	.cfi_def_cfa_offset 32
	.loc 1 1556 1 view .LVU1116
	mov	r4, r0
	.loc 1 1560 24 view .LVU1117
	str	r1, [sp, #12]
	.loc 1 1562 3 is_stmt 1 view .LVU1118
	.loc 1 1562 6 is_stmt 0 view .LVU1119
	cbz	r1, .L316
	.loc 1 1567 3 is_stmt 1 view .LVU1120
.LVL279:
	.loc 1 1568 3 view .LVU1121
	mov	r3, r1
	.loc 1 1578 7 is_stmt 0 view .LVU1122
	mov	r0, r3
.LVL280:
	.loc 1 1578 7 view .LVU1123
	add	r1, sp, #8
.LVL281:
	.loc 1 1578 7 view .LVU1124
	mov	r5, r2
.LVL282:
	.loc 1 1578 3 is_stmt 1 view .LVU1125
	.loc 1 1578 7 is_stmt 0 view .LVU1126
	bl	xQueuePeek
.LVL283:
	.loc 1 1578 6 view .LVU1127
	cmp	r0, #1
	beq	.L317
	.loc 1 1585 5 is_stmt 1 view .LVU1128
	.loc 1 1585 40 is_stmt 0 view .LVU1129
	cmp	r5, #0
	it	ne
	movne	r5, #64
.LVL284:
	.loc 1 1585 18 view .LVU1130
	str	r5, [sp, #4]
.L311:
	.loc 1 1588 3 is_stmt 1 view .LVU1131
	.loc 1 1588 10 is_stmt 0 view .LVU1132
	add	r3, sp, #16
	ldmdb	r3, {r0, r1, r2}
	stm	r4, {r0, r1, r2}
	.loc 1 1589 1 view .LVU1133
	mov	r0, r4
	add	sp, sp, #20
.LCFI119:
	.cfi_remember_state
	.cfi_def_cfa_offset 12
	@ sp needed
	pop	{r4, r5, pc}
.LVL285:
.L317:
.LCFI120:
	.cfi_restore_state
	.loc 1 1581 5 is_stmt 1 view .LVU1134
	.loc 1 1581 18 is_stmt 0 view .LVU1135
	movs	r3, #16
	str	r3, [sp, #4]
	b	.L311
.LVL286:
.L316:
	.loc 1 1563 5 is_stmt 1 view .LVU1136
	.loc 1 1563 18 is_stmt 0 view .LVU1137
	movs	r3, #128
	str	r3, [sp, #4]
	.loc 1 1564 5 is_stmt 1 view .LVU1138
	.loc 1 1564 12 is_stmt 0 view .LVU1139
	add	r3, sp, #16
	ldmdb	r3, {r0, r1, r2}
.LVL287:
	.loc 1 1564 12 view .LVU1140
	stm	r4, {r0, r1, r2}
	.loc 1 1589 1 view .LVU1141
	mov	r0, r4
	add	sp, sp, #20
.LCFI121:
	.cfi_def_cfa_offset 12
	@ sp needed
	pop	{r4, r5, pc}
	.loc 1 1589 1 view .LVU1142
	.cfi_endproc
.LFE157:
	.size	osMessagePeek, .-osMessagePeek
	.section	.text.osMessageWaiting,"ax",%progbits
	.align	1
	.p2align 2,,3
	.global	osMessageWaiting
	.syntax unified
	.thumb
	.thumb_func
	.fpu fpv4-sp-d16
	.type	osMessageWaiting, %function
osMessageWaiting:
.LVL288:
.LFB158:
	.loc 1 1597 1 is_stmt 1 view -0
	.cfi_startproc
	@ args = 0, pretend = 0, frame = 0
	@ frame_needed = 0, uses_anonymous_args = 0
	@ link register save eliminated.
	.loc 1 1598 3 view .LVU1144
.LBB353:
.LBI353:
	.loc 1 130 12 view .LVU1145
.LBE353:
	.loc 1 132 3 view .LVU1146
.LBB356:
.LBB354:
.LBI354:
	.loc 2 272 31 view .LVU1147
.LBB355:
	.loc 2 274 3 view .LVU1148
	.loc 2 276 3 view .LVU1149
	.syntax unified
@ 276 "Drivers/CMSIS/Include/cmsis_gcc.h" 1
	MRS r3, ipsr
@ 0 "" 2
.LVL289:
	.loc 2 277 3 view .LVU1150
	.loc 2 277 3 is_stmt 0 view .LVU1151
	.thumb
	.syntax unified
.LBE355:
.LBE354:
.LBE356:
	.loc 1 1598 6 view .LVU1152
	cbz	r3, .L319
	.loc 1 1599 5 is_stmt 1 view .LVU1153
	.loc 1 1599 12 is_stmt 0 view .LVU1154
	b	uxQueueMessagesWaitingFromISR
.LVL290:
.L319:
	.loc 1 1603 5 is_stmt 1 view .LVU1155
	.loc 1 1603 12 is_stmt 0 view .LVU1156
	b	uxQueueMessagesWaiting
.LVL291:
	.loc 1 1603 12 view .LVU1157
	.cfi_endproc
.LFE158:
	.size	osMessageWaiting, .-osMessageWaiting
	.section	.text.osMessageAvailableSpace,"ax",%progbits
	.align	1
	.p2align 2,,3
	.global	osMessageAvailableSpace
	.syntax unified
	.thumb
	.thumb_func
	.fpu fpv4-sp-d16
	.type	osMessageAvailableSpace, %function
osMessageAvailableSpace:
.LVL292:
.LFB159:
	.loc 1 1613 1 is_stmt 1 view -0
	.cfi_startproc
	@ args = 0, pretend = 0, frame = 0
	@ frame_needed = 0, uses_anonymous_args = 0
	@ link register save eliminated.
	.loc 1 1614 3 view .LVU1159
	.loc 1 1614 10 is_stmt 0 view .LVU1160
	b	uxQueueSpacesAvailable
.LVL293:
	.loc 1 1614 10 view .LVU1161
	.cfi_endproc
.LFE159:
	.size	osMessageAvailableSpace, .-osMessageAvailableSpace
	.section	.text.osMessageDelete,"ax",%progbits
	.align	1
	.p2align 2,,3
	.global	osMessageDelete
	.syntax unified
	.thumb
	.thumb_func
	.fpu fpv4-sp-d16
	.type	osMessageDelete, %function
osMessageDelete:
.LFB172:
	.cfi_startproc
	@ args = 0, pretend = 0, frame = 0
	@ frame_needed = 0, uses_anonymous_args = 0
	push	{r4, lr}
.LCFI122:
	.cfi_def_cfa_offset 8
	.cfi_offset 4, -8
	.cfi_offset 14, -4
	.syntax unified
@ 276 "Drivers/CMSIS/Include/cmsis_gcc.h" 1
	MRS r4, ipsr
@ 0 "" 2
	.thumb
	.syntax unified
	cbnz	r4, .L323
	bl	vQueueDelete
	mov	r0, r4
	pop	{r4, pc}
.L323:
	movs	r4, #130
	mov	r0, r4
	pop	{r4, pc}
	.cfi_endproc
.LFE172:
	.size	osMessageDelete, .-osMessageDelete
	.section	.text.osRecursiveMutexCreate,"ax",%progbits
	.align	1
	.p2align 2,,3
	.global	osRecursiveMutexCreate
	.syntax unified
	.thumb
	.thumb_func
	.fpu fpv4-sp-d16
	.type	osRecursiveMutexCreate, %function
osRecursiveMutexCreate:
.LVL294:
.LFB161:
	.loc 1 1639 1 is_stmt 1 view -0
	.cfi_startproc
	@ args = 0, pretend = 0, frame = 0
	@ frame_needed = 0, uses_anonymous_args = 0
	@ link register save eliminated.
	.loc 1 1655 3 view .LVU1163
	.loc 1 1657 1 is_stmt 0 view .LVU1164
	movs	r0, #0
.LVL295:
	.loc 1 1657 1 view .LVU1165
	bx	lr
	.cfi_endproc
.LFE161:
	.size	osRecursiveMutexCreate, .-osRecursiveMutexCreate
	.section	.text.osRecursiveMutexRelease,"ax",%progbits
	.align	1
	.p2align 2,,3
	.global	osRecursiveMutexRelease
	.syntax unified
	.thumb
	.thumb_func
	.fpu fpv4-sp-d16
	.type	osRecursiveMutexRelease, %function
osRecursiveMutexRelease:
.LFB176:
	.cfi_startproc
	@ args = 0, pretend = 0, frame = 0
	@ frame_needed = 0, uses_anonymous_args = 0
	@ link register save eliminated.
	movs	r0, #129
	bx	lr
	.cfi_endproc
.LFE176:
	.size	osRecursiveMutexRelease, .-osRecursiveMutexRelease
	.section	.text.osRecursiveMutexWait,"ax",%progbits
	.align	1
	.p2align 2,,3
	.global	osRecursiveMutexWait
	.syntax unified
	.thumb
	.thumb_func
	.fpu fpv4-sp-d16
	.type	osRecursiveMutexWait, %function
osRecursiveMutexWait:
.LFB174:
	.cfi_startproc
	@ args = 0, pretend = 0, frame = 0
	@ frame_needed = 0, uses_anonymous_args = 0
	@ link register save eliminated.
	movs	r0, #129
	bx	lr
	.cfi_endproc
.LFE174:
	.size	osRecursiveMutexWait, .-osRecursiveMutexWait
	.section	.text.osSemaphoreGetCount,"ax",%progbits
	.align	1
	.p2align 2,,3
	.global	osSemaphoreGetCount
	.syntax unified
	.thumb
	.thumb_func
	.fpu fpv4-sp-d16
	.type	osSemaphoreGetCount, %function
osSemaphoreGetCount:
.LVL296:
.LFB164:
	.loc 1 1725 1 is_stmt 1 view -0
	.cfi_startproc
	@ args = 0, pretend = 0, frame = 0
	@ frame_needed = 0, uses_anonymous_args = 0
	@ link register save eliminated.
	.loc 1 1726 3 view .LVU1167
	.loc 1 1726 10 is_stmt 0 view .LVU1168
	b	uxQueueMessagesWaiting
.LVL297:
	.loc 1 1726 10 view .LVU1169
	.cfi_endproc
.LFE164:
	.size	osSemaphoreGetCount, .-osSemaphoreGetCount
	.text
.Letext0:
	.file 4 "/usr/share/gcc-arm-none-eabi-10-2020-q4-major/arm-none-eabi/include/machine/_default_types.h"
	.file 5 "/usr/share/gcc-arm-none-eabi-10-2020-q4-major/arm-none-eabi/include/sys/_stdint.h"
	.file 6 "Middlewares/Third_Party/FreeRTOS/Source/include/projdefs.h"
	.file 7 "Middlewares/Third_Party/FreeRTOS/Source/include/task.h"
	.file 8 "Middlewares/Third_Party/FreeRTOS/Source/include/timers.h"
	.file 9 "Middlewares/Third_Party/FreeRTOS/Source/include/queue.h"
	.file 10 "Middlewares/Third_Party/FreeRTOS/Source/include/semphr.h"
	.file 11 "Middlewares/Third_Party/FreeRTOS/Source/CMSIS_RTOS/cmsis_os.h"
	.file 12 "Middlewares/Third_Party/FreeRTOS/Source/include/portable.h"