	.cpu cortex-m4
	.eabi_attribute 27, 1
	.eabi_attribute 28, 1
	.eabi_attribute 20, 1
	.eabi_attribute 21, 1
	.eabi_attribute 23, 3
	.eabi_attribute 24, 1
	.eabi_attribute 25, 1
	.eabi_attribute 26, 1
	.eabi_attribute 30, 2
	.eabi_attribute 34, 1
	.eabi_attribute 18, 4
	.file	"heap_4.c"
	.text
.Ltext0:
	.cfi_sections	.debug_frame
	.section	.text.pvPortMalloc,"ax",%progbits
	.align	1
	.p2align 2,,3
	.global	pvPortMalloc
	.arch armv7e-m
	.syntax unified
	.thumb
	.thumb_func
	.fpu fpv4-sp-d16
	.type	pvPortMalloc, %function
pvPortMalloc:
.LVL0:
.LFB5:
	.file 1 "Middlewares/Third_Party/FreeRTOS/Source/portable/MemMang/heap_4.c"
	.loc 1 116 1 view -0
	.cfi_startproc
	@ args = 0, pretend = 0, frame = 0
	@ frame_needed = 0, uses_anonymous_args = 0
	.loc 1 117 1 view .LVU1
	.loc 1 118 1 view .LVU2
	.loc 1 120 2 view .LVU3
	.loc 1 116 1 is_stmt 0 view .LVU4
	push	{r4, r5, r6, r7, r8, lr}
.LCFI0:
	.cfi_def_cfa_offset 24
	.cfi_offset 4, -24
	.cfi_offset 5, -20
	.cfi_offset 6, -16
	.cfi_offset 7, -12
	.cfi_offset 8, -8
	.cfi_offset 14, -4
	.loc 1 116 1 view .LVU5
	mov	r6, r0
	.loc 1 120 2 view .LVU6
	bl	vTaskSuspendAll
.LVL1:
	.loc 1 124 3 is_stmt 1 view .LVU7
	.loc 1 124 13 is_stmt 0 view .LVU8
	ldr	r3, .L42
	ldr	r5, [r3]
	.loc 1 124 5 view .LVU9
	cmp	r5, #0
	beq	.L2
	.loc 1 137 21 view .LVU10
	ldr	r3, .L42+4
	ldr	r7, [r3]
.L3:
	.loc 1 130 28 is_stmt 1 view .LVU11
	.loc 1 137 3 view .LVU12
	.loc 1 137 5 is_stmt 0 view .LVU13
	tst	r6, r7
	bne	.L6
	.loc 1 141 4 is_stmt 1 view .LVU14
	.loc 1 141 6 is_stmt 0 view .LVU15
	cbz	r6, .L6
	.loc 1 143 5 is_stmt 1 view .LVU16
	.loc 1 143 17 is_stmt 0 view .LVU17
	add	r4, r6, #8
.LVL2:
	.loc 1 147 5 is_stmt 1 view .LVU18
	.loc 1 147 7 is_stmt 0 view .LVU19
	lsls	r6, r6, #29
	.loc 1 150 6 is_stmt 1 view .LVU20
	.loc 1 150 18 is_stmt 0 view .LVU21
	itt	ne
	bicne	r4, r4, #7
.LVL3:
	.loc 1 150 18 view .LVU22
	addne	r4, r4, #8
.LVL4:
	.loc 1 151 6 is_stmt 1 view .LVU23
	.loc 1 160 29 view .LVU24
	.loc 1 163 4 view .LVU25
	.loc 1 163 6 is_stmt 0 view .LVU26
	cbz	r4, .L6
	.loc 1 163 45 discriminator 1 view .LVU27
	ldr	ip, .L42+24
	ldr	r6, [ip]
	.loc 1 163 28 discriminator 1 view .LVU28
	cmp	r6, r4
	bcc	.L6
	.loc 1 167 5 is_stmt 1 view .LVU29
.LVL5:
	.loc 1 168 5 view .LVU30
	.loc 1 168 13 is_stmt 0 view .LVU31
	ldr	r0, .L42+8
	ldr	r3, [r0]
.LVL6:
	.loc 1 169 5 is_stmt 1 view .LVU32
	.loc 1 169 10 is_stmt 0 view .LVU33
	b	.L9
.LVL7:
.L40:
	.loc 1 169 62 discriminator 1 view .LVU34
	ldr	r2, [r3]
	.loc 1 169 50 discriminator 1 view .LVU35
	cbz	r2, .L8
	.loc 1 169 50 discriminator 1 view .LVU36
	mov	r0, r3
	mov	r3, r2
.LVL8:
.L9:
	.loc 1 169 10 is_stmt 1 view .LVU37
	.loc 1 169 21 is_stmt 0 view .LVU38
	ldr	r1, [r3, #4]
	.loc 1 169 10 view .LVU39
	cmp	r1, r4
	bcc	.L40
.L8:
	.loc 1 177 5 is_stmt 1 view .LVU40
	.loc 1 177 7 is_stmt 0 view .LVU41
	cmp	r3, r5
	beq	.L6
	.loc 1 181 6 is_stmt 1 view .LVU42
	.loc 1 181 15 is_stmt 0 view .LVU43
	mov	r8, r3
.LVL9:
	.loc 1 185 6 is_stmt 1 view .LVU44
	.loc 1 189 32 is_stmt 0 view .LVU45
	subs	r2, r1, r4
	.loc 1 185 48 view .LVU46
	ldr	lr, [r8], #8
.LVL10:
	.loc 1 185 39 view .LVU47
	str	lr, [r0]
	.loc 1 189 6 is_stmt 1 view .LVU48
	.loc 1 189 8 is_stmt 0 view .LVU49
	cmp	r2, #16
	bls	.L10
	.loc 1 195 7 is_stmt 1 view .LVU50
	.loc 1 195 22 is_stmt 0 view .LVU51
	adds	r1, r3, r4
.LVL11:
	.loc 1 196 7 is_stmt 1 view .LVU52
	lsls	r0, r1, #29
	beq	.L11
	.loc 1 196 7 view .LVU53
.LBB28:
.LBI28:
	.file 2 "Middlewares/Third_Party/FreeRTOS/Source/portable/GCC/ARM_CM4F/portmacro.h"
	.loc 2 191 30 view .LVU54
.LBB29:
	.loc 2 193 1 view .LVU55
	.loc 2 195 2 view .LVU56
	.syntax unified
@ 195 "Middlewares/Third_Party/FreeRTOS/Source/portable/GCC/ARM_CM4F/portmacro.h" 1
		mov r3, #80												
	msr basepri, r3											
	isb														
	dsb														

@ 0 "" 2
.LVL12:
	.thumb
	.syntax unified
.L12:
	.loc 2 195 2 is_stmt 0 view .LVU57
.LBE29:
.LBE28:
	.loc 1 196 7 is_stmt 1 discriminator 3 view .LVU58
	.loc 1 196 7 discriminator 3 view .LVU59
	.loc 1 196 7 discriminator 3 view .LVU60
	.loc 1 196 7 discriminator 3 view .LVU61
	.loc 1 196 7 discriminator 3 view .LVU62
	.loc 1 196 7 discriminator 3 view .LVU63
	b	.L12
.LVL13:
.L6:
	.loc 1 240 28 view .LVU64
	.loc 1 243 39 view .LVU65
	.loc 1 245 2 view .LVU66
	.loc 1 245 11 is_stmt 0 view .LVU67
	bl	xTaskResumeAll
.LVL14:
	.loc 1 261 2 is_stmt 1 view .LVU68
	.loc 1 245 11 is_stmt 0 view .LVU69
	mov	r8, #0
.LVL15:
.L1:
	.loc 1 263 1 view .LVU70
	mov	r0, r8
	pop	{r4, r5, r6, r7, r8, pc}
.LVL16:
.L11:
	.loc 1 196 87 is_stmt 1 discriminator 2 view .LVU71
	.loc 1 200 7 discriminator 2 view .LVU72
	.loc 1 200 34 is_stmt 0 discriminator 2 view .LVU73
	str	r2, [r1, #4]
	.loc 1 201 7 is_stmt 1 discriminator 2 view .LVU74
.LBB30:
.LBB31:
	.loc 1 388 18 is_stmt 0 discriminator 2 view .LVU75
	ldr	r2, .L42+8
.LBE31:
.LBE30:
	.loc 1 201 27 discriminator 2 view .LVU76
	str	r4, [r3, #4]
	.loc 1 204 7 is_stmt 1 discriminator 2 view .LVU77
.LVL17:
.LBB34:
.LBI30:
	.loc 1 381 13 discriminator 2 view .LVU78
.LBB32:
	.loc 1 383 1 discriminator 2 view .LVU79
	.loc 1 384 1 discriminator 2 view .LVU80
	.loc 1 388 2 discriminator 2 view .LVU81
.L13:
	.loc 1 388 29 view .LVU82
	mov	r4, r2
	.loc 1 388 39 is_stmt 0 view .LVU83
	ldr	r2, [r2]
.LVL18:
	.loc 1 388 2 view .LVU84
	cmp	r1, r2
	bhi	.L13
	.loc 1 395 2 is_stmt 1 view .LVU85
.LVL19:
	.loc 1 396 2 view .LVU86
	.loc 1 396 24 is_stmt 0 view .LVU87
	ldr	r0, [r4, #4]
	.loc 1 396 12 view .LVU88
	add	lr, r4, r0
	.loc 1 396 4 view .LVU89
	cmp	r1, lr
	beq	.L14
	.loc 1 409 29 view .LVU90
	ldr	lr, [r1, #4]
.LVL20:
.L15:
	.loc 1 403 27 is_stmt 1 view .LVU91
	.loc 1 408 2 view .LVU92
	.loc 1 409 2 view .LVU93
	.loc 1 409 12 is_stmt 0 view .LVU94
	add	r0, r1, lr
	.loc 1 409 4 view .LVU95
	cmp	r2, r0
	beq	.L41
.L16:
	.loc 1 424 3 is_stmt 1 view .LVU96
	.loc 1 424 36 is_stmt 0 view .LVU97
	str	r2, [r1]
.L18:
	.loc 1 431 2 is_stmt 1 view .LVU98
	.loc 1 431 4 is_stmt 0 view .LVU99
	cmp	r4, r1
	.loc 1 433 3 is_stmt 1 view .LVU100
	.loc 1 433 31 is_stmt 0 view .LVU101
	it	ne
	strne	r1, [r4]
.LBE32:
.LBE34:
	.loc 1 211 36 view .LVU102
	ldr	r1, [r3, #4]
.LVL21:
.L10:
	.loc 1 208 31 is_stmt 1 view .LVU103
	.loc 1 211 6 view .LVU104
	.loc 1 213 30 is_stmt 0 view .LVU105
	ldr	r2, .L42+12
	.loc 1 213 8 view .LVU106
	ldr	r0, [r2]
	.loc 1 211 26 view .LVU107
	subs	r6, r6, r1
	.loc 1 213 8 view .LVU108
	cmp	r6, r0
	.loc 1 215 38 view .LVU109
	it	cc
	strcc	r6, [r2]
	.loc 1 226 36 view .LVU110
	ldr	r2, .L42+16
	.loc 1 211 26 view .LVU111
	str	r6, [ip]
	.loc 1 213 6 is_stmt 1 view .LVU112
	.loc 1 215 7 view .LVU113
	.loc 1 219 31 view .LVU114
	.loc 1 224 6 view .LVU115
	.loc 1 224 26 is_stmt 0 view .LVU116
	orrs	r1, r1, r7
	.loc 1 225 31 view .LVU117
	movs	r0, #0
	strd	r0, r1, [r3]
	.loc 1 226 6 is_stmt 1 view .LVU118
	.loc 1 226 36 is_stmt 0 view .LVU119
	ldr	r3, [r2]
.LVL22:
	.loc 1 226 36 view .LVU120
	adds	r3, r3, #1
	str	r3, [r2]
	.loc 1 240 28 is_stmt 1 view .LVU121
	.loc 1 243 39 view .LVU122
	.loc 1 245 2 view .LVU123
	.loc 1 245 11 is_stmt 0 view .LVU124
	bl	xTaskResumeAll
.LVL23:
	.loc 1 261 2 is_stmt 1 view .LVU125
	tst	r8, #7
	beq	.L1
	.loc 1 261 2 view .LVU126
.LBB35:
.LBI35:
	.loc 2 191 30 view .LVU127
.LBB36:
	.loc 2 193 1 view .LVU128
	.loc 2 195 2 view .LVU129
	.syntax unified
@ 195 "Middlewares/Third_Party/FreeRTOS/Source/portable/GCC/ARM_CM4F/portmacro.h" 1
		mov r3, #80												
	msr basepri, r3											
	isb														
	dsb														

@ 0 "" 2
.LVL24:
	.thumb
	.syntax unified
.L22:
	.loc 2 195 2 is_stmt 0 view .LVU130
.LBE36:
.LBE35:
	.loc 1 261 2 is_stmt 1 discriminator 5 view .LVU131
	.loc 1 261 2 discriminator 5 view .LVU132
	.loc 1 261 2 discriminator 5 view .LVU133
	.loc 1 261 2 discriminator 5 view .LVU134
	.loc 1 261 2 discriminator 5 view .LVU135
	.loc 1 261 2 discriminator 5 view .LVU136
	b	.L22
.LVL25:
.L2:
	.loc 1 126 4 view .LVU137
.LBB37:
.LBI37:
	.loc 1 333 13 view .LVU138
.LBB38:
	.loc 1 335 1 view .LVU139
	.loc 1 336 1 view .LVU140
	.loc 1 337 1 view .LVU141
	.loc 1 338 1 view .LVU142
	.loc 1 341 2 view .LVU143
	.loc 1 341 12 is_stmt 0 view .LVU144
	ldr	r1, .L42+20
.LVL26:
	.loc 1 343 2 is_stmt 1 view .LVU145
	.loc 1 377 21 is_stmt 0 view .LVU146
	ldr	r4, .L42+4
	.loc 1 343 4 view .LVU147
	lsls	r7, r1, #29
	.loc 1 345 13 view .LVU148
	ite	ne
	addne	r2, r1, #7
	.loc 1 359 12 view .LVU149
	moveq	r2, r1
	.loc 1 345 3 is_stmt 1 view .LVU150
.LVL27:
	.loc 1 346 3 view .LVU151
	add	r1, r1, #3072
	.loc 1 360 12 is_stmt 0 view .LVU152
	sub	r5, r1, #8
	.loc 1 361 12 view .LVU153
	bic	r5, r5, #7
	.loc 1 346 13 view .LVU154
	it	ne
	bicne	r2, r2, #7
.LVL28:
	.loc 1 347 3 is_stmt 1 view .LVU155
	.loc 1 373 33 is_stmt 0 view .LVU156
	ldr	r1, .L42+12
.LVL29:
	.loc 1 362 8 view .LVU157
	str	r5, [r3]
	.loc 1 350 17 view .LVU158
	mov	r0, r2
.LVL30:
	.loc 1 350 2 is_stmt 1 view .LVU159
	.loc 1 354 2 view .LVU160
	.loc 1 369 43 is_stmt 0 view .LVU161
	subs	r3, r5, r2
	.loc 1 374 22 view .LVU162
	ldr	r2, .L42+24
.LVL31:
	.loc 1 373 33 view .LVU163
	str	r3, [r1]
	.loc 1 354 25 view .LVU164
	ldr	r1, .L42+8
	.loc 1 374 22 view .LVU165
	str	r3, [r2]
	.loc 1 377 21 view .LVU166
	mov	r7, #-2147483648
	.loc 1 355 20 view .LVU167
	movs	r2, #0
	.loc 1 354 25 view .LVU168
	str	r0, [r1]
	.loc 1 355 2 is_stmt 1 view .LVU169
	.loc 1 355 20 is_stmt 0 view .LVU170
	str	r2, [r1, #4]
	.loc 1 359 2 is_stmt 1 view .LVU171
.LVL32:
	.loc 1 360 2 view .LVU172
	.loc 1 361 2 view .LVU173
	.loc 1 362 2 view .LVU174
	.loc 1 363 2 view .LVU175
	.loc 1 377 21 is_stmt 0 view .LVU176
	str	r7, [r4]
	.loc 1 364 25 view .LVU177
	strd	r2, r2, [r5]
	.loc 1 368 2 is_stmt 1 view .LVU178
.LVL33:
	.loc 1 369 2 view .LVU179
	.loc 1 370 36 is_stmt 0 view .LVU180
	strd	r5, r3, [r0]
	.loc 1 373 2 is_stmt 1 view .LVU181
	.loc 1 374 2 view .LVU182
	.loc 1 377 2 view .LVU183
	.loc 1 378 1 is_stmt 0 view .LVU184
	b	.L3
.LVL34:
.L14:
	.loc 1 378 1 view .LVU185
.LBE38:
.LBE37:
.LBB39:
.LBB33:
	.loc 1 398 3 is_stmt 1 view .LVU186
	.loc 1 398 26 is_stmt 0 view .LVU187
	ldr	r1, [r1, #4]
.LVL35:
	.loc 1 398 26 view .LVU188
	add	lr, r0, r1
	str	lr, [r4, #4]
.LVL36:
	.loc 1 399 3 is_stmt 1 view .LVU189
	.loc 1 399 3 is_stmt 0 view .LVU190
	mov	r1, r4
	b	.L15
.LVL37:
.L41:
	.loc 1 411 3 is_stmt 1 view .LVU191
	.loc 1 411 5 is_stmt 0 view .LVU192
	cmp	r2, r5
	beq	.L16
	.loc 1 414 4 is_stmt 1 view .LVU193
	.loc 1 414 32 is_stmt 0 view .LVU194
	ldr	r0, [r2, #4]
	.loc 1 415 66 view .LVU195
	ldr	r2, [r2]
	.loc 1 415 37 view .LVU196
	str	r2, [r1]
	.loc 1 414 32 view .LVU197
	add	r0, r0, lr
	str	r0, [r1, #4]
	.loc 1 415 4 is_stmt 1 view .LVU198
	b	.L18
.L43:
	.align	2
.L42:
	.word	.LANCHOR2
	.word	.LANCHOR3
	.word	.LANCHOR1
	.word	.LANCHOR4
	.word	.LANCHOR6
	.word	.LANCHOR0
	.word	.LANCHOR5
.LBE33:
.LBE39:
	.cfi_endproc
.LFE5:
	.size	pvPortMalloc, .-pvPortMalloc
	.section	.text.vPortFree,"ax",%progbits
	.align	1
	.p2align 2,,3
	.global	vPortFree
	.syntax unified
	.thumb
	.thumb_func
	.fpu fpv4-sp-d16
	.type	vPortFree, %function
vPortFree:
.LVL38:
.LFB6:
	.loc 1 267 1 view -0
	.cfi_startproc
	@ args = 0, pretend = 0, frame = 8
	@ frame_needed = 0, uses_anonymous_args = 0
	.loc 1 268 1 view .LVU200
	.loc 1 269 1 view .LVU201
	.loc 1 271 2 view .LVU202
	.loc 1 271 4 is_stmt 0 view .LVU203
	cbz	r0, .L44
	.loc 1 275 3 is_stmt 1 view .LVU204
.LVL39:
	.loc 1 278 3 view .LVU205
	.loc 1 281 3 view .LVU206
	ldr	r2, .L62
	ldr	r3, [r0, #-4]
	ldr	r2, [r2]
	tst	r3, r2
	beq	.L59
	.loc 1 281 67 discriminator 2 view .LVU207
	.loc 1 282 3 discriminator 2 view .LVU208
	ldr	r1, [r0, #-8]
	cbz	r1, .L48
	.loc 1 282 3 view .LVU209
.LBB46:
.LBI46:
	.loc 2 191 30 view .LVU210
.LBB47:
	.loc 2 193 1 view .LVU211
	.loc 2 195 2 view .LVU212
	.syntax unified
@ 195 "Middlewares/Third_Party/FreeRTOS/Source/portable/GCC/ARM_CM4F/portmacro.h" 1
		mov r3, #80												
	msr basepri, r3											
	isb														
	dsb														

@ 0 "" 2
.LVL40:
	.thumb
	.syntax unified
.L49:
	.loc 2 195 2 is_stmt 0 view .LVU213
.LBE47:
.LBE46:
	.loc 1 282 3 is_stmt 1 discriminator 2 view .LVU214
	.loc 1 282 3 discriminator 2 view .LVU215
	.loc 1 282 3 discriminator 2 view .LVU216
	.loc 1 282 3 discriminator 2 view .LVU217
	.loc 1 282 3 discriminator 2 view .LVU218
	.loc 1 282 3 discriminator 2 view .LVU219
	b	.L49
.L59:
	.loc 1 281 3 view .LVU220
.LBB48:
.LBI48:
	.loc 2 191 30 view .LVU221
.LBB49:
	.loc 2 193 1 view .LVU222
	.loc 2 195 2 view .LVU223
	.syntax unified
@ 195 "Middlewares/Third_Party/FreeRTOS/Source/portable/GCC/ARM_CM4F/portmacro.h" 1
		mov r3, #80												
	msr basepri, r3											
	isb														
	dsb														

@ 0 "" 2
.LVL41:
	.thumb
	.syntax unified
.L47:
	.loc 2 195 2 is_stmt 0 view .LVU224
.LBE49:
.LBE48:
	.loc 1 281 3 is_stmt 1 discriminator 1 view .LVU225
	.loc 1 281 3 discriminator 1 view .LVU226
	.loc 1 281 3 discriminator 1 view .LVU227
	.loc 1 281 3 discriminator 1 view .LVU228
	.loc 1 281 3 discriminator 1 view .LVU229
	.loc 1 281 3 discriminator 1 view .LVU230
	b	.L47
.LVL42:
.L44:
	.loc 1 281 3 is_stmt 0 discriminator 1 view .LVU231
	bx	lr
.LVL43:
.L48:
	.loc 1 267 1 view .LVU232
	push	{r4, lr}
.LCFI1:
	.cfi_def_cfa_offset 8
	.cfi_offset 4, -8
	.cfi_offset 14, -4
	.loc 1 290 24 view .LVU233
	bic	r3, r3, r2
	.loc 1 267 1 view .LVU234
	sub	sp, sp, #8
.LCFI2:
	.cfi_def_cfa_offset 16
	.loc 1 290 24 view .LVU235
	str	r3, [r0, #-4]
	.loc 1 295 26 view .LVU236
	ldr	r4, .L62+4
	.loc 1 290 24 view .LVU237
	str	r0, [sp, #4]
	.loc 1 292 5 view .LVU238
	bl	vTaskSuspendAll
.LVL44:
	.loc 1 295 35 view .LVU239
	ldr	r0, [sp, #4]
	.loc 1 295 26 view .LVU240
	ldr	r2, [r4]
	.loc 1 295 35 view .LVU241
	ldr	r1, [r0, #-4]
.LBB50:
.LBB51:
	.loc 1 388 18 view .LVU242
	ldr	r3, .L62+8
.LBE51:
.LBE50:
	.loc 1 295 26 view .LVU243
	add	r2, r2, r1
	.loc 1 275 7 view .LVU244
	subs	r0, r0, #8
	.loc 1 282 50 is_stmt 1 view .LVU245
	.loc 1 284 3 view .LVU246
	.loc 1 286 4 view .LVU247
	.loc 1 290 5 view .LVU248
	.loc 1 292 5 view .LVU249
	.loc 1 295 6 view .LVU250
	.loc 1 295 26 is_stmt 0 view .LVU251
	str	r2, [r4]
	.loc 1 296 41 is_stmt 1 view .LVU252
	.loc 1 297 6 view .LVU253
.LVL45:
.LBB54:
.LBI50:
	.loc 1 381 13 view .LVU254
.LBB52:
	.loc 1 383 1 view .LVU255
	.loc 1 384 1 view .LVU256
	.loc 1 388 2 view .LVU257
.L50:
	.loc 1 388 29 view .LVU258
	mov	r2, r3
	.loc 1 388 39 is_stmt 0 view .LVU259
	ldr	r3, [r3]
.LVL46:
	.loc 1 388 2 view .LVU260
	cmp	r0, r3
	bhi	.L50
	.loc 1 395 2 is_stmt 1 view .LVU261
.LVL47:
	.loc 1 396 2 view .LVU262
	.loc 1 396 24 is_stmt 0 view .LVU263
	ldr	r4, [r2, #4]
	.loc 1 396 12 view .LVU264
	add	lr, r2, r4
	.loc 1 396 4 view .LVU265
	cmp	r0, lr
	beq	.L60
.LVL48:
.L51:
	.loc 1 403 27 is_stmt 1 view .LVU266
	.loc 1 408 2 view .LVU267
	.loc 1 409 2 view .LVU268
	.loc 1 409 12 is_stmt 0 view .LVU269
	add	ip, r0, r1
	.loc 1 409 4 view .LVU270
	cmp	r3, ip
	beq	.L61
.L52:
	.loc 1 424 3 is_stmt 1 view .LVU271
	.loc 1 424 36 is_stmt 0 view .LVU272
	str	r3, [r0]
.L54:
	.loc 1 431 2 is_stmt 1 view .LVU273
	.loc 1 431 4 is_stmt 0 view .LVU274
	cmp	r2, r0
	.loc 1 433 3 is_stmt 1 view .LVU275
	.loc 1 433 31 is_stmt 0 view .LVU276
	it	ne
	strne	r0, [r2]
	.loc 1 437 27 is_stmt 1 view .LVU277
.LVL49:
	.loc 1 437 27 is_stmt 0 view .LVU278
.LBE52:
.LBE54:
	.loc 1 298 6 is_stmt 1 view .LVU279
	.loc 1 298 30 is_stmt 0 view .LVU280
	ldr	r2, .L62+12
	ldr	r3, [r2]
	adds	r3, r3, #1
	str	r3, [r2]
	.loc 1 300 5 is_stmt 1 view .LVU281
	.loc 1 312 1 is_stmt 0 view .LVU282
	add	sp, sp, #8
.LCFI3:
	.cfi_remember_state
	.cfi_def_cfa_offset 8
	@ sp needed
	pop	{r4, lr}
.LCFI4:
	.cfi_restore 14
	.cfi_restore 4
	.cfi_def_cfa_offset 0
.LVL50:
	.loc 1 300 14 view .LVU283
	b	xTaskResumeAll
.LVL51:
.L61:
.LCFI5:
	.cfi_restore_state
.LBB55:
.LBB53:
	.loc 1 411 3 is_stmt 1 view .LVU284
	.loc 1 411 35 is_stmt 0 view .LVU285
	ldr	r4, .L62+16
	ldr	r4, [r4]
	.loc 1 411 5 view .LVU286
	cmp	r3, r4
	beq	.L52
	.loc 1 414 4 is_stmt 1 view .LVU287
	.loc 1 415 66 is_stmt 0 view .LVU288
	ldrd	r3, r4, [r3]
	.loc 1 414 32 view .LVU289
	add	r1, r1, r4
	.loc 1 415 37 view .LVU290
	strd	r3, r1, [r0]
	b	.L54
.LVL52:
.L60:
	.loc 1 398 3 is_stmt 1 view .LVU291
	.loc 1 398 26 is_stmt 0 view .LVU292
	add	r1, r1, r4
	str	r1, [r2, #4]
	.loc 1 399 3 is_stmt 1 view .LVU293
.LVL53:
	.loc 1 399 3 is_stmt 0 view .LVU294
	mov	r0, r2
	b	.L51
.L63:
	.align	2
.L62:
	.word	.LANCHOR3
	.word	.LANCHOR5
	.word	.LANCHOR1
	.word	.LANCHOR7
	.word	.LANCHOR2
.LBE53:
.LBE55:
	.cfi_endproc
.LFE6:
	.size	vPortFree, .-vPortFree
	.section	.text.xPortGetFreeHeapSize,"ax",%progbits
	.align	1
	.p2align 2,,3
	.global	xPortGetFreeHeapSize
	.syntax unified
	.thumb
	.thumb_func
	.fpu fpv4-sp-d16
	.type	xPortGetFreeHeapSize, %function
xPortGetFreeHeapSize:
.LFB7:
	.loc 1 316 1 is_stmt 1 view -0
	.cfi_startproc
	@ args = 0, pretend = 0, frame = 0
	@ frame_needed = 0, uses_anonymous_args = 0
	@ link register save eliminated.
	.loc 1 317 2 view .LVU296
	.loc 1 317 9 is_stmt 0 view .LVU297
	ldr	r3, .L65
	.loc 1 318 1 view .LVU298
	ldr	r0, [r3]
	bx	lr
.L66:
	.align	2
.L65:
	.word	.LANCHOR5
	.cfi_endproc
.LFE7:
	.size	xPortGetFreeHeapSize, .-xPortGetFreeHeapSize
	.section	.text.xPortGetMinimumEverFreeHeapSize,"ax",%progbits
	.align	1
	.p2align 2,,3
	.global	xPortGetMinimumEverFreeHeapSize
	.syntax unified
	.thumb
	.thumb_func
	.fpu fpv4-sp-d16
	.type	xPortGetMinimumEverFreeHeapSize, %function
xPortGetMinimumEverFreeHeapSize:
.LFB8:
	.loc 1 322 1 is_stmt 1 view -0
	.cfi_startproc
	@ args = 0, pretend = 0, frame = 0
	@ frame_needed = 0, uses_anonymous_args = 0
	@ link register save eliminated.
	.loc 1 323 2 view .LVU300
	.loc 1 323 9 is_stmt 0 view .LVU301
	ldr	r3, .L68
	.loc 1 324 1 view .LVU302
	ldr	r0, [r3]
	bx	lr
.L69:
	.align	2
.L68:
	.word	.LANCHOR4
	.cfi_endproc
.LFE8:
	.size	xPortGetMinimumEverFreeHeapSize, .-xPortGetMinimumEverFreeHeapSize
	.section	.text.vPortInitialiseBlocks,"ax",%progbits
	.align	1
	.p2align 2,,3
	.global	vPortInitialiseBlocks
	.syntax unified
	.thumb
	.thumb_func
	.fpu fpv4-sp-d16
	.type	vPortInitialiseBlocks, %function
vPortInitialiseBlocks:
.LFB9:
	.loc 1 328 1 is_stmt 1 view -0
	.cfi_startproc
	@ args = 0, pretend = 0, frame = 0
	@ frame_needed = 0, uses_anonymous_args = 0
	@ link register save eliminated.
	.loc 1 330 1 view .LVU304
	bx	lr
	.cfi_endproc
.LFE9:
	.size	vPortInitialiseBlocks, .-vPortInitialiseBlocks
	.section	.text.vPortGetHeapStats,"ax",%progbits
	.align	1
	.p2align 2,,3
	.global	vPortGetHeapStats
	.syntax unified
	.thumb
	.thumb_func
	.fpu fpv4-sp-d16
	.type	vPortGetHeapStats, %function
vPortGetHeapStats:
.LVL54:
.LFB12:
	.loc 1 443 1 view -0
	.cfi_startproc
	@ args = 0, pretend = 0, frame = 0
	@ frame_needed = 0, uses_anonymous_args = 0
	.loc 1 444 1 view .LVU306
	.loc 1 445 1 view .LVU307
	.loc 1 447 2 view .LVU308
	.loc 1 443 1 is_stmt 0 view .LVU309
	push	{r3, r4, r5, r6, r7, lr}
.LCFI6:
	.cfi_def_cfa_offset 24
	.cfi_offset 3, -24
	.cfi_offset 4, -20
	.cfi_offset 5, -16
	.cfi_offset 6, -12
	.cfi_offset 7, -8
	.cfi_offset 14, -4
	.loc 1 443 1 view .LVU310
	mov	r7, r0
	.loc 1 447 2 view .LVU311
	bl	vTaskSuspendAll
.LVL55:
	.loc 1 449 3 is_stmt 1 view .LVU312
	.loc 1 449 11 is_stmt 0 view .LVU313
	ldr	r3, .L77
	ldr	r3, [r3]
.LVL56:
	.loc 1 453 3 is_stmt 1 view .LVU314
	.loc 1 453 5 is_stmt 0 view .LVU315
	cbz	r3, .L74
	.loc 1 474 21 view .LVU316
	ldr	r2, .L77+4
	.loc 1 445 21 view .LVU317
	movs	r4, #0
	.loc 1 474 21 view .LVU318
	ldr	r1, [r2]
	.loc 1 445 35 view .LVU319
	mov	r6, #-1
	.loc 1 445 8 view .LVU320
	mov	r5, r4
.LVL57:
.L73:
	.loc 1 455 4 is_stmt 1 view .LVU321
	.loc 1 459 5 view .LVU322
	.loc 1 473 13 is_stmt 0 view .LVU323
	ldrd	r3, r2, [r3]
.LVL58:
	.loc 1 473 13 view .LVU324
	cmp	r4, r2
	it	cc
	movcc	r4, r2
.LVL59:
	.loc 1 473 13 view .LVU325
	cmp	r6, r2
	it	cs
	movcs	r6, r2
.LVL60:
	.loc 1 474 4 view .LVU326
	cmp	r1, r3
	.loc 1 459 12 view .LVU327
	add	r5, r5, #1
.LVL61:
	.loc 1 461 5 is_stmt 1 view .LVU328
	.loc 1 466 5 view .LVU329
	.loc 1 473 5 view .LVU330
	.loc 1 474 11 view .LVU331
	.loc 1 474 4 is_stmt 0 view .LVU332
	bne	.L73
.LVL62:
.L72:
	.loc 1 477 2 is_stmt 1 view .LVU333
	bl	xTaskResumeAll
.LVL63:
	.loc 1 479 2 view .LVU334
	.loc 1 480 47 is_stmt 0 view .LVU335
	strd	r4, r6, [r7, #4]
	.loc 1 481 2 is_stmt 1 view .LVU336
	.loc 1 481 35 is_stmt 0 view .LVU337
	str	r5, [r7, #12]
	.loc 1 483 2 is_stmt 1 view .LVU338
	bl	vPortEnterCritical
.LVL64:
	.loc 1 485 3 view .LVU339
	.loc 1 486 47 is_stmt 0 view .LVU340
	ldr	r1, .L77+8
	.loc 1 487 41 view .LVU341
	ldr	r2, .L77+12
	.loc 1 485 43 view .LVU342
	ldr	r0, .L77+16
	.loc 1 488 47 view .LVU343
	ldr	r3, .L77+20
	.loc 1 486 47 view .LVU344
	ldr	r1, [r1]
	.loc 1 487 41 view .LVU345
	ldr	r2, [r2]
	.loc 1 488 47 view .LVU346
	ldr	r3, [r3]
	.loc 1 485 43 view .LVU347
	ldr	r0, [r0]
	str	r0, [r7]
	.loc 1 486 3 is_stmt 1 view .LVU348
	.loc 1 487 41 is_stmt 0 view .LVU349
	strd	r1, r2, [r7, #20]
	.loc 1 488 3 is_stmt 1 view .LVU350
	.loc 1 488 47 is_stmt 0 view .LVU351
	str	r3, [r7, #16]
	.loc 1 490 2 is_stmt 1 view .LVU352
	.loc 1 491 1 is_stmt 0 view .LVU353
	pop	{r3, r4, r5, r6, r7, lr}
.LCFI7:
	.cfi_remember_state
	.cfi_restore 14
	.cfi_restore 7
	.cfi_restore 6
	.cfi_restore 5
	.cfi_restore 4
	.cfi_restore 3
	.cfi_def_cfa_offset 0
.LVL65:
	.loc 1 490 2 view .LVU354
	b	vPortExitCritical
.LVL66:
.L74:
.LCFI8:
	.cfi_restore_state
	.loc 1 445 21 view .LVU355
	mov	r4, r3
	.loc 1 445 35 view .LVU356
	mov	r6, #-1
	.loc 1 445 8 view .LVU357
	mov	r5, r3
	b	.L72
.L78:
	.align	2
.L77:
	.word	.LANCHOR1
	.word	.LANCHOR2
	.word	.LANCHOR6
	.word	.LANCHOR7
	.word	.LANCHOR5
	.word	.LANCHOR4
	.cfi_endproc
.LFE12:
	.size	vPortGetHeapStats, .-vPortGetHeapStats
	.section	.bss.pxEnd,"aw",%nobits
	.align	2
	.set	.LANCHOR2,. + 0
	.type	pxEnd, %object
	.size	pxEnd, 4
pxEnd:
	.space	4
	.section	.bss.ucHeap,"aw",%nobits
	.align	2
	.set	.LANCHOR0,. + 0
	.type	ucHeap, %object
	.size	ucHeap, 3072
ucHeap:
	.space	3072
	.section	.bss.xBlockAllocatedBit,"aw",%nobits
	.align	2
	.set	.LANCHOR3,. + 0
	.type	xBlockAllocatedBit, %object
	.size	xBlockAllocatedBit, 4
xBlockAllocatedBit:
	.space	4
	.section	.bss.xFreeBytesRemaining,"aw",%nobits
	.align	2
	.set	.LANCHOR5,. + 0
	.type	xFreeBytesRemaining, %object
	.size	xFreeBytesRemaining, 4
xFreeBytesRemaining:
	.space	4
	.section	.bss.xMinimumEverFreeBytesRemaining,"aw",%nobits
	.align	2
	.set	.LANCHOR4,. + 0
	.type	xMinimumEverFreeBytesRemaining, %object
	.size	xMinimumEverFreeBytesRemaining, 4
xMinimumEverFreeBytesRemaining:
	.space	4
	.section	.bss.xNumberOfSuccessfulAllocations,"aw",%nobits
	.align	2
	.set	.LANCHOR6,. + 0
	.type	xNumberOfSuccessfulAllocations, %object
	.size	xNumberOfSuccessfulAllocations, 4
xNumberOfSuccessfulAllocations:
	.space	4
	.section	.bss.xNumberOfSuccessfulFrees,"aw",%nobits
	.align	2
	.set	.LANCHOR7,. + 0
	.type	xNumberOfSuccessfulFrees, %object
	.size	xNumberOfSuccessfulFrees, 4
xNumberOfSuccessfulFrees:
	.space	4
	.section	.bss.xStart,"aw",%nobits
	.align	2
	.set	.LANCHOR1,. + 0
	.type	xStart, %object
	.size	xStart, 8
xStart:
	.space	8
	.text
.Letext0:
	.file 3 "/usr/share/gcc-arm-none-eabi-10-2020-q4-major/lib/gcc/arm-none-eabi/10.2.1/include/stddef.h"
	.file 4 "/usr/share/gcc-arm-none-eabi-10-2020-q4-major/arm-none-eabi/include/machine/_default_types.h"
	.file 5 "/usr/share/gcc-arm-none-eabi-10-2020-q4-major/arm-none-eabi/include/sys/_stdint.h"
	.file 6 "Middlewares/Third_Party/FreeRTOS/Source/include/portable.h"
	.file 7 "Middlewares/Third_Party/FreeRTOS/Source/include/task.h"