	.cpu cortex-m4
	.eabi_attribute 27, 1
	.eabi_attribute 28, 1
	.eabi_attribute 20, 1
	.eabi_attribute 21, 1
	.eabi_attribute 23, 3
	.eabi_attribute 24, 1
	.eabi_attribute 25, 1
	.eabi_attribute 26, 1
	.eabi_attribute 30, 2
	.eabi_attribute 34, 1
	.eabi_attribute 18, 4
	.file	"list.c"
	.text
.Ltext0:
	.cfi_sections	.debug_frame
	.section	.text.vListInitialise,"ax",%progbits
	.align	1
	.p2align 2,,3
	.global	vListInitialise
	.arch armv7e-m
	.syntax unified
	.thumb
	.thumb_func
	.fpu fpv4-sp-d16
	.type	vListInitialise, %function
vListInitialise:
.LVL0:
.LFB5:
	.file 1 "Middlewares/Third_Party/FreeRTOS/Source/list.c"
	.loc 1 38 1 view -0
	.cfi_startproc
	@ args = 0, pretend = 0, frame = 0
	@ frame_needed = 0, uses_anonymous_args = 0
	@ link register save eliminated.
	.loc 1 42 2 view .LVU1
	.loc 1 42 37 is_stmt 0 view .LVU2
	add	r3, r0, #8
	.loc 1 46 30 view .LVU3
	mov	r1, #-1
	.loc 1 53 26 view .LVU4
	movs	r2, #0
	.loc 1 46 30 view .LVU5
	strd	r3, r1, [r0, #4]
	.loc 1 50 2 is_stmt 1 view .LVU6
	.loc 1 51 30 is_stmt 0 view .LVU7
	strd	r3, r3, [r0, #12]
	.loc 1 53 2 is_stmt 1 view .LVU8
	.loc 1 53 26 is_stmt 0 view .LVU9
	str	r2, [r0]
	.loc 1 57 48 is_stmt 1 view .LVU10
	.loc 1 58 48 view .LVU11
	.loc 1 59 1 is_stmt 0 view .LVU12
	bx	lr
	.cfi_endproc
.LFE5:
	.size	vListInitialise, .-vListInitialise
	.section	.text.vListInitialiseItem,"ax",%progbits
	.align	1
	.p2align 2,,3
	.global	vListInitialiseItem
	.syntax unified
	.thumb
	.thumb_func
	.fpu fpv4-sp-d16
	.type	vListInitialiseItem, %function
vListInitialiseItem:
.LVL1:
.LFB6:
	.loc 1 63 1 is_stmt 1 view -0
	.cfi_startproc
	@ args = 0, pretend = 0, frame = 0
	@ frame_needed = 0, uses_anonymous_args = 0
	@ link register save eliminated.
	.loc 1 65 2 view .LVU14
	.loc 1 65 22 is_stmt 0 view .LVU15
	movs	r3, #0
	str	r3, [r0, #16]
	.loc 1 69 57 is_stmt 1 view .LVU16
	.loc 1 70 58 view .LVU17
	.loc 1 71 1 is_stmt 0 view .LVU18
	bx	lr
	.cfi_endproc
.LFE6:
	.size	vListInitialiseItem, .-vListInitialiseItem
	.section	.text.vListInsertEnd,"ax",%progbits
	.align	1
	.p2align 2,,3
	.global	vListInsertEnd
	.syntax unified
	.thumb
	.thumb_func
	.fpu fpv4-sp-d16
	.type	vListInsertEnd, %function
vListInsertEnd:
.LVL2:
.LFB7:
	.loc 1 75 1 is_stmt 1 view -0
	.cfi_startproc
	@ args = 0, pretend = 0, frame = 0
	@ frame_needed = 0, uses_anonymous_args = 0
	@ link register save eliminated.
	.loc 1 76 1 view .LVU20
	.loc 1 76 20 is_stmt 0 view .LVU21
	ldr	r3, [r0, #4]
.LVL3:
	.loc 1 81 35 is_stmt 1 view .LVU22
	.loc 1 82 47 view .LVU23
	.loc 1 87 2 view .LVU24
	.loc 1 88 37 is_stmt 0 view .LVU25
	ldr	r2, [r3, #8]
	.loc 1 88 28 view .LVU26
	str	r2, [r1, #8]
	.loc 1 99 10 view .LVU27
	ldr	r2, [r0]
	.loc 1 75 1 view .LVU28
	push	{r4}
.LCFI0:
	.cfi_def_cfa_offset 4
	.cfi_offset 4, -4
	.loc 1 93 30 view .LVU29
	ldr	r4, [r3, #8]
	.loc 1 87 24 view .LVU30
	str	r3, [r1, #4]
	.loc 1 88 2 is_stmt 1 view .LVU31
	.loc 1 91 25 view .LVU32
	.loc 1 93 2 view .LVU33
	.loc 1 99 29 is_stmt 0 view .LVU34
	adds	r2, r2, #1
	.loc 1 93 30 view .LVU35
	str	r1, [r4, #4]
	.loc 1 94 2 is_stmt 1 view .LVU36
	.loc 1 94 22 is_stmt 0 view .LVU37
	str	r1, [r3, #8]
	.loc 1 97 2 is_stmt 1 view .LVU38
	.loc 1 100 1 is_stmt 0 view .LVU39
	ldr	r4, [sp], #4
.LCFI1:
	.cfi_restore 4
	.cfi_def_cfa_offset 0
	.loc 1 97 29 view .LVU40
	str	r0, [r1, #16]
	.loc 1 99 2 is_stmt 1 view .LVU41
	.loc 1 99 29 is_stmt 0 view .LVU42
	str	r2, [r0]
	.loc 1 100 1 view .LVU43
	bx	lr
	.cfi_endproc
.LFE7:
	.size	vListInsertEnd, .-vListInsertEnd
	.section	.text.vListInsert,"ax",%progbits
	.align	1
	.p2align 2,,3
	.global	vListInsert
	.syntax unified
	.thumb
	.thumb_func
	.fpu fpv4-sp-d16
	.type	vListInsert, %function
vListInsert:
.LVL4:
.LFB8:
	.loc 1 104 1 is_stmt 1 view -0
	.cfi_startproc
	@ args = 0, pretend = 0, frame = 0
	@ frame_needed = 0, uses_anonymous_args = 0
	@ link register save eliminated.
	.loc 1 105 1 view .LVU45
	.loc 1 106 1 view .LVU46
	.loc 1 104 1 is_stmt 0 view .LVU47
	push	{r4, r5}
.LCFI2:
	.cfi_def_cfa_offset 8
	.cfi_offset 4, -8
	.cfi_offset 5, -4
	.loc 1 106 18 view .LVU48
	ldr	r5, [r1]
.LVL5:
	.loc 1 111 35 is_stmt 1 view .LVU49
	.loc 1 112 47 view .LVU50
	.loc 1 122 2 view .LVU51
	.loc 1 122 4 is_stmt 0 view .LVU52
	adds	r3, r5, #1
	beq	.L12
	.loc 1 150 3 is_stmt 1 view .LVU53
	.loc 1 150 19 is_stmt 0 view .LVU54
	add	r3, r0, #8
.LVL6:
.L9:
	.loc 1 150 61 is_stmt 1 discriminator 1 view .LVU55
	mov	r4, r3
	.loc 1 150 71 is_stmt 0 discriminator 1 view .LVU56
	ldr	r3, [r3, #4]
.LVL7:
	.loc 1 150 3 discriminator 1 view .LVU57
	ldr	r2, [r3]
	cmp	r2, r5
	bls	.L9
.L8:
	.loc 1 157 2 is_stmt 1 view .LVU58
	.loc 1 166 10 is_stmt 0 view .LVU59
	ldr	r2, [r0]
	.loc 1 157 24 view .LVU60
	str	r3, [r1, #4]
	.loc 1 158 2 is_stmt 1 view .LVU61
	.loc 1 166 29 is_stmt 0 view .LVU62
	adds	r2, r2, #1
	.loc 1 158 36 view .LVU63
	str	r1, [r3, #8]
	.loc 1 159 2 is_stmt 1 view .LVU64
	.loc 1 159 28 is_stmt 0 view .LVU65
	str	r4, [r1, #8]
	.loc 1 160 2 is_stmt 1 view .LVU66
	.loc 1 160 21 is_stmt 0 view .LVU67
	str	r1, [r4, #4]
	.loc 1 164 2 is_stmt 1 view .LVU68
	.loc 1 164 29 is_stmt 0 view .LVU69
	str	r0, [r1, #16]
	.loc 1 166 2 is_stmt 1 view .LVU70
	.loc 1 167 1 is_stmt 0 view .LVU71
	pop	{r4, r5}
.LCFI3:
	.cfi_remember_state
	.cfi_restore 5
	.cfi_restore 4
	.cfi_def_cfa_offset 0
.LVL8:
	.loc 1 166 29 view .LVU72
	str	r2, [r0]
	.loc 1 167 1 view .LVU73
	bx	lr
.LVL9:
.L12:
.LCFI4:
	.cfi_restore_state
	.loc 1 124 3 is_stmt 1 view .LVU74
	.loc 1 124 14 is_stmt 0 view .LVU75
	ldr	r4, [r0, #16]
.LVL10:
	.loc 1 157 36 view .LVU76
	ldr	r3, [r4, #4]
	b	.L8
	.cfi_endproc
.LFE8:
	.size	vListInsert, .-vListInsert
	.section	.text.uxListRemove,"ax",%progbits
	.align	1
	.p2align 2,,3
	.global	uxListRemove
	.syntax unified
	.thumb
	.thumb_func
	.fpu fpv4-sp-d16
	.type	uxListRemove, %function
uxListRemove:
.LVL11:
.LFB9:
	.loc 1 171 1 is_stmt 1 view -0
	.cfi_startproc
	@ args = 0, pretend = 0, frame = 0
	@ frame_needed = 0, uses_anonymous_args = 0
	@ link register save eliminated.
	.loc 1 174 1 view .LVU78
	.loc 1 174 16 is_stmt 0 view .LVU79
	ldr	r3, [r0, #16]
.LVL12:
	.loc 1 176 2 is_stmt 1 view .LVU80
	.loc 1 171 1 is_stmt 0 view .LVU81
	push	{r4}
.LCFI5:
	.cfi_def_cfa_offset 4
	.cfi_offset 4, -4
	.loc 1 176 53 view .LVU82
	ldrd	r1, r2, [r0, #4]
	.loc 1 183 4 view .LVU83
	ldr	r4, [r3, #4]
	.loc 1 176 37 view .LVU84
	str	r2, [r1, #8]
	.loc 1 177 2 is_stmt 1 view .LVU85
	.loc 1 183 4 is_stmt 0 view .LVU86
	cmp	r4, r0
	.loc 1 177 37 view .LVU87
	str	r1, [r2, #4]
	.loc 1 180 25 is_stmt 1 view .LVU88
	.loc 1 183 2 view .LVU89
	.loc 1 185 3 view .LVU90
	.loc 1 185 19 is_stmt 0 view .LVU91
	it	eq
	streq	r2, [r3, #4]
	.loc 1 189 27 is_stmt 1 view .LVU92
	.loc 1 192 2 view .LVU93
	.loc 1 193 10 is_stmt 0 view .LVU94
	ldr	r2, [r3]
	.loc 1 196 1 view .LVU95
	ldr	r4, [sp], #4
.LCFI6:
	.cfi_restore 4
	.cfi_def_cfa_offset 0
	.loc 1 192 30 view .LVU96
	movs	r1, #0
	.loc 1 193 29 view .LVU97
	subs	r2, r2, #1
	.loc 1 192 30 view .LVU98
	str	r1, [r0, #16]
	.loc 1 193 2 is_stmt 1 view .LVU99
	.loc 1 193 29 is_stmt 0 view .LVU100
	str	r2, [r3]
	.loc 1 195 2 is_stmt 1 view .LVU101
	.loc 1 195 15 is_stmt 0 view .LVU102
	ldr	r0, [r3]
.LVL13:
	.loc 1 196 1 view .LVU103
	bx	lr
	.cfi_endproc
.LFE9:
	.size	uxListRemove, .-uxListRemove
	.text
.Letext0:
	.file 2 "/usr/share/gcc-arm-none-eabi-10-2020-q4-major/arm-none-eabi/include/machine/_default_types.h"
	.file 3 "/usr/share/gcc-arm-none-eabi-10-2020-q4-major/arm-none-eabi/include/sys/_stdint.h"
	.file 4 "Middlewares/Third_Party/FreeRTOS/Source/portable/GCC/ARM_CM4F/portmacro.h"
	.file 5 "Middlewares/Third_Party/FreeRTOS/Source/include/list.h"