	.cpu cortex-m4
	.eabi_attribute 27, 1
	.eabi_attribute 28, 1
	.eabi_attribute 20, 1
	.eabi_attribute 21, 1
	.eabi_attribute 23, 3
	.eabi_attribute 24, 1
	.eabi_attribute 25, 1
	.eabi_attribute 26, 1
	.eabi_attribute 30, 2
	.eabi_attribute 34, 1
	.eabi_attribute 18, 4
	.file	"mc_math.c"
	.text
.Ltext0:
	.cfi_sections	.debug_frame
	.section	.text.MCM_Clarke,"ax",%progbits
	.align	1
	.p2align 2,,3
	.weak	MCM_Clarke
	.arch armv7e-m
	.syntax unified
	.thumb
	.thumb_func
	.fpu fpv4-sp-d16
	.type	MCM_Clarke, %function
MCM_Clarke:
.LFB1437:
	.file 1 "Src/mc_math.c"
	.loc 1 59 1 view -0
	.cfi_startproc
	@ args = 0, pretend = 0, frame = 16
	@ frame_needed = 0, uses_anonymous_args = 0
	@ link register save eliminated.
	.loc 1 72 18 is_stmt 0 view .LVU1
	movw	r1, #18918
	sxth	r3, r0
.LVL0:
	.loc 1 60 3 is_stmt 1 view .LVU2
	.loc 1 62 3 view .LVU3
	.loc 1 63 3 view .LVU4
	.loc 1 64 3 view .LVU5
	.loc 1 65 3 view .LVU6
	.loc 1 68 3 view .LVU7
	.loc 1 70 3 view .LVU8
	.loc 1 72 3 view .LVU9
	.loc 1 70 18 is_stmt 0 view .LVU10
	smulbb	r2, r3, r1
	.loc 1 59 1 view .LVU11
	ubfx	r0, r0, #16, #16
	.loc 1 72 18 view .LVU12
	smulbb	r1, r0, r1
.LVL1:
	.loc 1 80 3 is_stmt 1 view .LVU13
	.loc 1 80 16 is_stmt 0 view .LVU14
	rsbs	r0, r2, #0
	.loc 1 80 53 view .LVU15
	sub	r0, r0, r1, lsl #1
.LVL2:
	.loc 1 86 3 is_stmt 1 view .LVU16
	.loc 1 86 6 is_stmt 0 view .LVU17
	cmp	r0, #1073741824
	.loc 1 59 1 view .LVU18
	sub	sp, sp, #16
.LCFI0:
	.cfi_def_cfa_offset 16
	.loc 1 86 6 view .LVU19
	bge	.L3
	asrs	r1, r0, #15
.LVL3:
	.loc 1 90 8 is_stmt 1 view .LVU20
	.loc 1 90 11 is_stmt 0 view .LVU21
	cmn	r1, #32768
	bge	.L7
	ldr	r2, .L8
	b	.L2
.LVL4:
.L3:
	.loc 1 90 11 view .LVU22
	movw	r2, #32767
.LVL5:
.L2:
	.loc 1 99 3 is_stmt 1 view .LVU23
	.loc 1 101 3 view .LVU24
	.loc 1 108 3 view .LVU25
	.loc 1 110 3 view .LVU26
	.loc 1 110 10 is_stmt 0 view .LVU27
	uxth	r3, r3
	.loc 1 110 10 view .LVU28
	movs	r0, #0
	bfi	r0, r3, #0, #16
	uxth	r3, r2
.LVL6:
	.loc 1 110 10 view .LVU29
	bfi	r0, r3, #16, #16
	.loc 1 111 1 view .LVU30
	add	sp, sp, #16
.LCFI1:
	.cfi_remember_state
	.cfi_def_cfa_offset 0
	@ sp needed
	bx	lr
.LVL7:
.L7:
.LCFI2:
	.cfi_restore_state
	.loc 1 96 5 is_stmt 1 view .LVU31
	.loc 1 96 5 is_stmt 0 view .LVU32
	ldr	r0, .L8
	sxth	r2, r1
	cmp	r2, r0
	it	lt
	movlt	r2, r0
	b	.L2
.L9:
	.align	2
.L8:
	.word	-32767
	.cfi_endproc
.LFE1437:
	.size	MCM_Clarke, .-MCM_Clarke
	.section	.text.MCM_Trig_Functions,"ax",%progbits
	.align	1
	.p2align 2,,3
	.weak	MCM_Trig_Functions
	.syntax unified
	.thumb
	.thumb_func
	.fpu fpv4-sp-d16
	.type	MCM_Trig_Functions, %function
MCM_Trig_Functions:
.LVL8:
.LFB1440:
	.loc 1 300 1 is_stmt 1 view -0
	.cfi_startproc
	@ args = 0, pretend = 0, frame = 8
	@ frame_needed = 0, uses_anonymous_args = 0
	@ link register save eliminated.
	.loc 1 312 3 view .LVU34
	.loc 1 320 3 view .LVU35
	ldr	r3, .L12
	.loc 1 323 3 is_stmt 0 view .LVU36
	add	r0, r0, #2139095040
.LVL9:
	.loc 1 320 3 view .LVU37
	mov	r2, #6291552
	.loc 1 323 3 view .LVU38
	add	r0, r0, #8323072
	.loc 1 320 3 view .LVU39
	str	r2, [r3]
	.loc 1 323 3 is_stmt 1 view .LVU40
.LVL10:
.LBB20:
.LBI20:
	.file 2 "Drivers/STM32G4xx_HAL_Driver/Inc/stm32g4xx_ll_cordic.h"
	.loc 2 732 22 view .LVU41
.LBB21:
	.loc 2 734 3 view .LVU42
	str	r0, [r3, #4]
.LVL11:
	.loc 2 734 3 is_stmt 0 view .LVU43
.LBE21:
.LBE20:
	.loc 1 327 3 is_stmt 1 view .LVU44
.LBB22:
.LBI22:
	.loc 2 743 26 view .LVU45
.LBB23:
	.loc 2 745 3 view .LVU46
	.loc 2 745 10 is_stmt 0 view .LVU47
	ldr	r3, [r3, #8]
.LVL12:
	.loc 2 745 10 view .LVU48
.LBE23:
.LBE22:
	.loc 1 328 3 is_stmt 1 view .LVU49
	.loc 1 328 17 is_stmt 0 view .LVU50
	movs	r0, #0
	uxth	r2, r3
	bfi	r0, r2, #0, #16
	lsrs	r3, r3, #16
	.loc 1 300 1 view .LVU51
	sub	sp, sp, #8
.LCFI3:
	.cfi_def_cfa_offset 8
	.loc 1 328 17 view .LVU52
	bfi	r0, r3, #16, #16
	.loc 1 329 1 view .LVU53
	add	sp, sp, #8
.LCFI4:
	.cfi_def_cfa_offset 0
	@ sp needed
	bx	lr
.L13:
	.align	2
.L12:
	.word	1073875968
	.cfi_endproc
.LFE1440:
	.size	MCM_Trig_Functions, .-MCM_Trig_Functions
	.section	.text.MCM_Park,"ax",%progbits
	.align	1
	.p2align 2,,3
	.weak	MCM_Park
	.syntax unified
	.thumb
	.thumb_func
	.fpu fpv4-sp-d16
	.type	MCM_Park, %function
MCM_Park:
.LVL13:
.LFB1438:
	.loc 1 131 1 is_stmt 1 view -0
	.cfi_startproc
	@ args = 0, pretend = 0, frame = 16
	@ frame_needed = 0, uses_anonymous_args = 0
	.loc 1 131 1 is_stmt 0 view .LVU55
	push	{r4, r5, lr}
.LCFI5:
	.cfi_def_cfa_offset 12
	.cfi_offset 4, -12
	.cfi_offset 5, -8
	.cfi_offset 14, -4
	sub	sp, sp, #20
.LCFI6:
	.cfi_def_cfa_offset 32
	.loc 1 131 1 view .LVU56
	mov	r3, r0
	mov	r5, r0	@ movhi
	.loc 1 141 29 view .LVU57
	mov	r0, r1
	asrs	r4, r3, #16
	.loc 1 131 1 view .LVU58
	str	r3, [sp, #4]
	.loc 1 141 29 view .LVU59
	bl	MCM_Trig_Functions
.LVL14:
	.loc 1 141 29 view .LVU60
	sxth	r5, r5
.LVL15:
	.loc 1 132 3 is_stmt 1 view .LVU61
	.loc 1 133 3 view .LVU62
	.loc 1 134 3 view .LVU63
	.loc 1 135 3 view .LVU64
	.loc 1 136 3 view .LVU65
	.loc 1 137 3 view .LVU66
	.loc 1 138 3 view .LVU67
	.loc 1 139 3 view .LVU68
	.loc 1 141 3 view .LVU69
	.loc 1 141 29 is_stmt 0 view .LVU70
	sxth	ip, r0
.LVL16:
	.loc 1 141 29 view .LVU71
	asrs	r3, r0, #16
.LVL17:
	.loc 1 144 3 is_stmt 1 view .LVU72
	.loc 1 147 3 view .LVU73
	.loc 1 154 3 view .LVU74
	.loc 1 144 11 is_stmt 0 view .LVU75
	mul	r1, r5, ip
	.loc 1 154 22 view .LVU76
	mls	r1, r4, r3, r1
.LVL18:
	.loc 1 160 3 is_stmt 1 view .LVU77
	.loc 1 160 6 is_stmt 0 view .LVU78
	cmp	r1, #1073741824
	bge	.L17
	asrs	r2, r1, #15
.LVL19:
	.loc 1 164 8 is_stmt 1 view .LVU79
	.loc 1 164 11 is_stmt 0 view .LVU80
	cmn	r2, #32768
	bge	.L22
	ldr	r1, .L24
	b	.L15
.LVL20:
.L17:
	.loc 1 164 11 view .LVU81
	movw	r1, #32767
.LVL21:
.L15:
	.loc 1 173 3 is_stmt 1 view .LVU82
	.loc 1 175 3 view .LVU83
	.loc 1 182 3 view .LVU84
	.loc 1 185 3 view .LVU85
	.loc 1 188 3 view .LVU86
	.loc 1 195 3 view .LVU87
	.loc 1 188 11 is_stmt 0 view .LVU88
	mul	r4, ip, r4
.LVL22:
	.loc 1 195 22 view .LVU89
	mla	r4, r5, r3, r4
	.loc 1 201 6 view .LVU90
	cmp	r4, #1073741824
	.loc 1 195 11 view .LVU91
	asr	r2, r4, #15
.LVL23:
	.loc 1 201 3 is_stmt 1 view .LVU92
	.loc 1 201 6 is_stmt 0 view .LVU93
	bge	.L19
	.loc 1 205 8 is_stmt 1 view .LVU94
	.loc 1 205 11 is_stmt 0 view .LVU95
	cmn	r2, #32768
	bge	.L23
	ldr	r3, .L24
.LVL24:
	.loc 1 205 11 view .LVU96
	b	.L16
.LVL25:
.L19:
	.loc 1 205 11 view .LVU97
	movw	r3, #32767
.LVL26:
.L16:
	.loc 1 214 3 is_stmt 1 view .LVU98
	.loc 1 216 3 view .LVU99
	.loc 1 223 3 view .LVU100
	.loc 1 225 3 view .LVU101
	.loc 1 225 10 is_stmt 0 view .LVU102
	uxth	r2, r1
.LVL27:
	.loc 1 225 10 view .LVU103
	movs	r0, #0
	bfi	r0, r2, #0, #16
	uxth	r3, r3
	bfi	r0, r3, #16, #16
	.loc 1 226 1 view .LVU104
	add	sp, sp, #20
.LCFI7:
	.cfi_remember_state
	.cfi_def_cfa_offset 12
	@ sp needed
	pop	{r4, r5, pc}
.LVL28:
.L23:
.LCFI8:
	.cfi_restore_state
	.loc 1 211 5 is_stmt 1 view .LVU105
	.loc 1 211 5 is_stmt 0 view .LVU106
	ldr	r0, .L24
	sxth	r3, r2
.LVL29:
	.loc 1 211 5 view .LVU107
	cmp	r3, r0
	it	lt
	movlt	r3, r0
	b	.L16
.LVL30:
.L22:
	.loc 1 170 5 is_stmt 1 view .LVU108
	.loc 1 170 5 is_stmt 0 view .LVU109
	ldr	r1, .L24
	sxth	r2, r2
.LVL31:
	.loc 1 170 5 view .LVU110
	cmp	r1, r2
	it	lt
	movlt	r1, r2
	b	.L15
.L25:
	.align	2
.L24:
	.word	-32767
	.cfi_endproc
.LFE1438:
	.size	MCM_Park, .-MCM_Park
	.section	.text.MCM_Rev_Park,"ax",%progbits
	.align	1
	.p2align 2,,3
	.weak	MCM_Rev_Park
	.syntax unified
	.thumb
	.thumb_func
	.fpu fpv4-sp-d16
	.type	MCM_Rev_Park, %function
MCM_Rev_Park:
.LVL32:
.LFB1439:
	.loc 1 246 1 is_stmt 1 view -0
	.cfi_startproc
	@ args = 0, pretend = 0, frame = 16
	@ frame_needed = 0, uses_anonymous_args = 0
	.loc 1 246 1 is_stmt 0 view .LVU112
	push	{r4, r5, lr}
.LCFI9:
	.cfi_def_cfa_offset 12
	.cfi_offset 4, -12
	.cfi_offset 5, -8
	.cfi_offset 14, -4
	sub	sp, sp, #20
.LCFI10:
	.cfi_def_cfa_offset 32
	.loc 1 246 1 view .LVU113
	mov	r4, r0
	mov	r5, r0	@ movhi
	.loc 1 254 29 view .LVU114
	mov	r0, r1
	.loc 1 246 1 view .LVU115
	str	r4, [sp, #4]
	.loc 1 254 29 view .LVU116
	bl	MCM_Trig_Functions
.LVL33:
	.loc 1 254 29 view .LVU117
	asrs	r4, r4, #16
	asrs	r2, r0, #16
	sxth	r5, r5
.LVL34:
	.loc 1 247 3 is_stmt 1 view .LVU118
	.loc 1 248 3 view .LVU119
	.loc 1 249 3 view .LVU120
	.loc 1 250 3 view .LVU121
	.loc 1 251 3 view .LVU122
	.loc 1 252 3 view .LVU123
	.loc 1 254 3 view .LVU124
	.loc 1 254 29 is_stmt 0 view .LVU125
	sxth	r0, r0
.LVL35:
	.loc 1 257 3 is_stmt 1 view .LVU126
	.loc 1 258 3 view .LVU127
	.loc 1 265 3 view .LVU128
	.loc 1 270 3 view .LVU129
	.loc 1 271 3 view .LVU130
	.loc 1 278 3 view .LVU131
	.loc 1 283 3 view .LVU132
	.loc 1 258 14 is_stmt 0 view .LVU133
	mul	r3, r4, r2
	.loc 1 265 42 view .LVU134
	mla	r3, r5, r0, r3
	.loc 1 271 13 view .LVU135
	mul	r4, r0, r4
.LVL36:
	.loc 1 278 38 view .LVU136
	mls	r4, r5, r2, r4
	.loc 1 283 10 view .LVU137
	ubfx	r3, r3, #15, #16
	movs	r0, #0
.LVL37:
	.loc 1 283 10 view .LVU138
	bfi	r0, r3, #0, #16
	ubfx	r4, r4, #15, #16
	bfi	r0, r4, #16, #16
	.loc 1 284 1 view .LVU139
	add	sp, sp, #20
.LCFI11:
	.cfi_def_cfa_offset 12
	@ sp needed
	pop	{r4, r5, pc}
	.loc 1 284 1 view .LVU140
	.cfi_endproc
.LFE1439:
	.size	MCM_Rev_Park, .-MCM_Rev_Park
	.section	.text.MCM_Sqrt,"ax",%progbits
	.align	1
	.p2align 2,,3
	.weak	MCM_Sqrt
	.syntax unified
	.thumb
	.thumb_func
	.fpu fpv4-sp-d16
	.type	MCM_Sqrt, %function
MCM_Sqrt:
.LVL38:
.LFB1441:
	.loc 1 344 1 is_stmt 1 view -0
	.cfi_startproc
	@ args = 0, pretend = 0, frame = 0
	@ frame_needed = 0, uses_anonymous_args = 0
	@ link register save eliminated.
	.loc 1 345 3 view .LVU142
	.loc 1 347 3 view .LVU143
	.loc 1 347 6 is_stmt 0 view .LVU144
	cmp	r0, #0
	.loc 1 347 6 view .LVU145
	ble	.L30
.LBB24:
	.loc 1 349 5 is_stmt 1 view .LVU146
	.loc 1 351 5 view .LVU147
.LBB25:
.LBI25:
	.file 3 "Drivers/CMSIS/Include/cmsis_gcc.h"
	.loc 3 207 27 view .LVU148
.LBB26:
	.loc 3 209 3 view .LVU149
	.syntax unified
@ 209 "Drivers/CMSIS/Include/cmsis_gcc.h" 1
	cpsid i
@ 0 "" 2
	.thumb
	.syntax unified
.LBE26:
.LBE25:
	.loc 1 353 5 view .LVU150
	ldr	r3, .L31
	movw	r2, #361
	str	r2, [r3]
	.loc 1 354 5 view .LVU151
.LVL39:
.LBB27:
.LBI27:
	.loc 2 732 22 view .LVU152
.LBB28:
	.loc 2 734 3 view .LVU153
	str	r0, [r3, #4]
.LVL40:
	.loc 2 734 3 is_stmt 0 view .LVU154
.LBE28:
.LBE27:
	.loc 1 357 5 is_stmt 1 view .LVU155
.LBB29:
.LBI29:
	.loc 2 743 26 view .LVU156
.LBB30:
	.loc 2 745 3 view .LVU157
	.loc 2 745 10 is_stmt 0 view .LVU158
	ldr	r0, [r3, #8]
.LVL41:
	.loc 2 745 10 view .LVU159
.LBE30:
.LBE29:
	.loc 1 361 5 is_stmt 1 view .LVU160
	.loc 1 357 12 is_stmt 0 view .LVU161
	lsrs	r0, r0, #15
.LVL42:
	.loc 1 362 5 is_stmt 1 view .LVU162
.LBB31:
.LBI31:
	.loc 3 196 27 view .LVU163
.LBB32:
	.loc 3 198 3 view .LVU164
	.syntax unified
@ 198 "Drivers/CMSIS/Include/cmsis_gcc.h" 1
	cpsie i
@ 0 "" 2
	.loc 3 199 1 is_stmt 0 view .LVU165
	.thumb
	.syntax unified
	bx	lr
.LVL43:
.L30:
	.loc 3 199 1 view .LVU166
.LBE32:
.LBE31:
.LBE24:
	.loc 1 367 18 view .LVU167
	movs	r0, #0
.LVL44:
	.loc 1 370 3 is_stmt 1 view .LVU168
	.loc 1 371 1 is_stmt 0 view .LVU169
	bx	lr
.L32:
	.align	2
.L31:
	.word	1073875968
	.cfi_endproc
.LFE1441:
	.size	MCM_Sqrt, .-MCM_Sqrt
	.section	.text.MCM_floatToIntBit,"ax",%progbits
	.align	1
	.p2align 2,,3
	.weak	MCM_floatToIntBit
	.syntax unified
	.thumb
	.thumb_func
	.fpu fpv4-sp-d16
	.type	MCM_floatToIntBit, %function
MCM_floatToIntBit:
.LVL45:
.LFB1442:
	.loc 1 379 1 is_stmt 1 view -0
	.cfi_startproc
	@ args = 0, pretend = 0, frame = 8
	@ frame_needed = 0, uses_anonymous_args = 0
	@ link register save eliminated.
	.loc 1 380 3 view .LVU171
	.loc 1 381 3 view .LVU172
	.loc 1 382 3 view .LVU173
	.loc 1 379 1 is_stmt 0 view .LVU174
	sub	sp, sp, #8
.LCFI12:
	.cfi_def_cfa_offset 8
	.loc 1 379 1 view .LVU175
	vstr.32	s0, [sp, #4]
	.loc 1 382 11 view .LVU176
	ldr	r0, [sp, #4]
	.loc 1 383 1 view .LVU177
	add	sp, sp, #8
.LCFI13:
	.cfi_def_cfa_offset 0
	@ sp needed
	bx	lr
	.cfi_endproc
.LFE1442:
	.size	MCM_floatToIntBit, .-MCM_floatToIntBit
	.text
.Letext0:
	.file 4 "/usr/share/gcc-arm-none-eabi-10-2020-q4-major/arm-none-eabi/include/machine/_default_types.h"
	.file 5 "/usr/share/gcc-arm-none-eabi-10-2020-q4-major/arm-none-eabi/include/sys/_stdint.h"
	.file 6 "Drivers/CMSIS/Device/ST/STM32G4xx/Include/stm32g431xx.h"
	.file 7 "Drivers/STM32G4xx_HAL_Driver/Inc/stm32g4xx_ll_tim.h"
	.file 8 "Drivers/STM32G4xx_HAL_Driver/Inc/stm32g4xx_ll_usart.h"
	.file 9 "Drivers/STM32G4xx_HAL_Driver/Inc/stm32g4xx_ll_dma.h"
	.file 10 "Inc/mc_type.h"
	.file 11 "Inc/mc_math.h"