	.cpu cortex-m4
	.eabi_attribute 27, 1
	.eabi_attribute 28, 1
	.eabi_attribute 20, 1
	.eabi_attribute 21, 1
	.eabi_attribute 23, 3
	.eabi_attribute 24, 1
	.eabi_attribute 25, 1
	.eabi_attribute 26, 1
	.eabi_attribute 30, 2
	.eabi_attribute 34, 1
	.eabi_attribute 18, 4
	.file	"motorcontrol.c"
	.text
.Ltext0:
	.cfi_sections	.debug_frame
	.section	.text.MX_MotorControl_Init,"ax",%progbits
	.align	1
	.p2align 2,,3
	.weak	MX_MotorControl_Init
	.arch armv7e-m
	.syntax unified
	.thumb
	.thumb_func
	.fpu fpv4-sp-d16
	.type	MX_MotorControl_Init, %function
MX_MotorControl_Init:
.LFB1867:
	.file 1 "Src/motorcontrol.c"
	.loc 1 50 1 view -0
	.cfi_startproc
	@ args = 0, pretend = 0, frame = 0
	@ frame_needed = 0, uses_anonymous_args = 0
	.loc 1 53 3 view .LVU1
	.loc 1 50 1 is_stmt 0 view .LVU2
	push	{r3, lr}
.LCFI0:
	.cfi_def_cfa_offset 8
	.cfi_offset 3, -8
	.cfi_offset 14, -4
	.loc 1 53 3 view .LVU3
	ldr	r0, .L4
	bl	MCboot
.LVL0:
	.loc 1 54 3 is_stmt 1 view .LVU4
	.loc 1 55 1 is_stmt 0 view .LVU5
	pop	{r3, lr}
.LCFI1:
	.cfi_restore 14
	.cfi_restore 3
	.cfi_def_cfa_offset 0
	.loc 1 54 3 view .LVU6
	b	mc_lock_pins
.LVL1:
.L5:
	.align	2
.L4:
	.word	.LANCHOR0
	.cfi_endproc
.LFE1867:
	.size	MX_MotorControl_Init, .-MX_MotorControl_Init
	.section	.text.vPortSetupTimerInterrupt,"ax",%progbits
	.align	1
	.p2align 2,,3
	.global	vPortSetupTimerInterrupt
	.syntax unified
	.thumb
	.thumb_func
	.fpu fpv4-sp-d16
	.type	vPortSetupTimerInterrupt, %function
vPortSetupTimerInterrupt:
.LFB1868:
	.loc 1 58 1 is_stmt 1 view -0
	.cfi_startproc
	@ args = 0, pretend = 0, frame = 0
	@ frame_needed = 0, uses_anonymous_args = 0
	.loc 1 60 3 view .LVU8
	.loc 1 58 1 is_stmt 0 view .LVU9
	push	{r3, lr}
.LCFI2:
	.cfi_def_cfa_offset 8
	.cfi_offset 3, -8
	.cfi_offset 14, -4
	.loc 1 60 28 view .LVU10
	bl	HAL_RCC_GetHCLKFreq
.LVL2:
	.loc 1 60 9 view .LVU11
	ldr	r3, .L8
	umull	r3, r0, r3, r0
	lsrs	r0, r0, #7
	.loc 1 61 1 view .LVU12
	pop	{r3, lr}
.LCFI3:
	.cfi_restore 14
	.cfi_restore 3
	.cfi_def_cfa_offset 0
	.loc 1 60 9 view .LVU13
	b	HAL_SYSTICK_Config
.LVL3:
.L9:
	.align	2
.L8:
	.word	274877907
	.cfi_endproc
.LFE1868:
	.size	vPortSetupTimerInterrupt, .-vPortSetupTimerInterrupt
	.global	pMCI
	.section	.bss.pMCI,"aw",%nobits
	.align	2
	.set	.LANCHOR0,. + 0
	.type	pMCI, %object
	.size	pMCI, 4
pMCI:
	.space	4
	.text
.Letext0:
	.file 2 "/usr/share/gcc-arm-none-eabi-10-2020-q4-major/arm-none-eabi/include/machine/_default_types.h"
	.file 3 "/usr/share/gcc-arm-none-eabi-10-2020-q4-major/arm-none-eabi/include/sys/_stdint.h"
	.file 4 "Drivers/CMSIS/Device/ST/STM32G4xx/Include/stm32g431xx.h"
	.file 5 "Drivers/STM32G4xx_HAL_Driver/Inc/stm32g4xx_ll_tim.h"
	.file 6 "Drivers/STM32G4xx_HAL_Driver/Inc/stm32g4xx_ll_usart.h"
	.file 7 "Drivers/STM32G4xx_HAL_Driver/Inc/stm32g4xx_ll_dma.h"
	.file 8 "Inc/mc_type.h"
	.file 9 "MCSDK_v6.3.2-Full/MotorControl/MCSDK/MCLib/Any/Inc/pid_regulator.h"
	.file 10 "MCSDK_v6.3.2-Full/MotorControl/MCSDK/MCLib/Any/Inc/speed_pos_fdbk.h"
	.file 11 "MCSDK_v6.3.2-Full/MotorControl/MCSDK/MCLib/Any/Inc/speed_torq_ctrl.h"
	.file 12 "Inc/pwm_curr_fdbk.h"
	.file 13 "Inc/mc_perf.h"
	.file 14 "Inc/mc_interface.h"
	.file 15 "Drivers/STM32G4xx_HAL_Driver/Inc/stm32g4xx_hal_rcc.h"
	.file 16 "Drivers/STM32G4xx_HAL_Driver/Inc/stm32g4xx_hal_cortex.h"
	.file 17 "Inc/mc_tasks.h"
	.file 18 "Inc/mc_config.h"