	.cpu cortex-m4
	.eabi_attribute 27, 1
	.eabi_attribute 28, 1
	.eabi_attribute 20, 1
	.eabi_attribute 21, 1
	.eabi_attribute 23, 3
	.eabi_attribute 24, 1
	.eabi_attribute 25, 1
	.eabi_attribute 26, 1
	.eabi_attribute 30, 2
	.eabi_attribute 34, 1
	.eabi_attribute 18, 4
	.file	"pwm_curr_fdbk.c"
	.text
.Ltext0:
	.cfi_sections	.debug_frame
	.section	.text.PWMC_Clear,"ax",%progbits
	.align	1
	.p2align 2,,3
	.global	PWMC_Clear
	.arch armv7e-m
	.syntax unified
	.thumb
	.thumb_func
	.fpu fpv4-sp-d16
	.type	PWMC_Clear, %function
PWMC_Clear:
.LVL0:
.LFB1440:
	.file 1 "Src/pwm_curr_fdbk.c"
	.loc 1 76 1 view -0
	.cfi_startproc
	@ args = 0, pretend = 0, frame = 0
	@ frame_needed = 0, uses_anonymous_args = 0
	@ link register save eliminated.
	.loc 1 85 5 view .LVU1
	.loc 1 86 5 view .LVU2
	.loc 1 85 20 is_stmt 0 view .LVU3
	movs	r3, #0
	.loc 1 89 23 view .LVU4
	strd	r3, r3, [r0, #52]
	.loc 1 85 20 view .LVU5
	str	r3, [r0, #104]
	.loc 1 87 5 is_stmt 1 view .LVU6
	.loc 1 87 20 is_stmt 0 view .LVU7
	strh	r3, [r0, #108]	@ movhi
	.loc 1 88 5 is_stmt 1 view .LVU8
	.loc 1 93 1 is_stmt 0 view .LVU9
	bx	lr
	.cfi_endproc
.LFE1440:
	.size	PWMC_Clear, .-PWMC_Clear
	.section	.text.PWMC_SetOffsetCalib,"ax",%progbits
	.align	1
	.p2align 2,,3
	.weak	PWMC_SetOffsetCalib
	.syntax unified
	.thumb
	.thumb_func
	.fpu fpv4-sp-d16
	.type	PWMC_SetOffsetCalib, %function
PWMC_SetOffsetCalib:
.LVL1:
.LFB1441:
	.loc 1 101 1 is_stmt 1 view -0
	.cfi_startproc
	@ args = 0, pretend = 0, frame = 0
	@ frame_needed = 0, uses_anonymous_args = 0
	@ link register save eliminated.
	.loc 1 102 3 view .LVU11
	.loc 1 102 6 is_stmt 0 view .LVU12
	cbz	r0, .L3
	.loc 1 108 5 is_stmt 1 view .LVU13
	ldr	r3, [r0, #44]
	bx	r3	@ indirect register sibling call
.LVL2:
.L3:
	.loc 1 110 1 is_stmt 0 view .LVU14
	bx	lr
	.cfi_endproc
.LFE1441:
	.size	PWMC_SetOffsetCalib, .-PWMC_SetOffsetCalib
	.section	.text.PWMC_GetOffsetCalib,"ax",%progbits
	.align	1
	.p2align 2,,3
	.weak	PWMC_GetOffsetCalib
	.syntax unified
	.thumb
	.thumb_func
	.fpu fpv4-sp-d16
	.type	PWMC_GetOffsetCalib, %function
PWMC_GetOffsetCalib:
.LVL3:
.LFB1442:
	.loc 1 118 1 is_stmt 1 view -0
	.cfi_startproc
	@ args = 0, pretend = 0, frame = 0
	@ frame_needed = 0, uses_anonymous_args = 0
	@ link register save eliminated.
	.loc 1 119 3 view .LVU16
	.loc 1 119 6 is_stmt 0 view .LVU17
	cbz	r0, .L5
	.loc 1 125 5 is_stmt 1 view .LVU18
	ldr	r3, [r0, #48]
	bx	r3	@ indirect register sibling call
.LVL4:
.L5:
	.loc 1 127 1 is_stmt 0 view .LVU19
	bx	lr
	.cfi_endproc
.LFE1442:
	.size	PWMC_GetOffsetCalib, .-PWMC_GetOffsetCalib
	.section	.text.PWMC_SetPhaseVoltage,"ax",%progbits
	.align	1
	.p2align 2,,3
	.weak	PWMC_SetPhaseVoltage
	.syntax unified
	.thumb
	.thumb_func
	.fpu fpv4-sp-d16
	.type	PWMC_SetPhaseVoltage, %function
PWMC_SetPhaseVoltage:
.LVL5:
.LFB1443:
	.loc 1 157 1 is_stmt 1 view -0
	.cfi_startproc
	@ args = 0, pretend = 0, frame = 8
	@ frame_needed = 0, uses_anonymous_args = 0
	.loc 1 158 3 view .LVU21
	.loc 1 167 5 view .LVU22
	.loc 1 168 5 view .LVU23
	.loc 1 169 5 view .LVU24
	.loc 1 170 5 view .LVU25
	.loc 1 171 5 view .LVU26
	.loc 1 172 5 view .LVU27
	.loc 1 173 5 view .LVU28
	.loc 1 174 5 view .LVU29
	.loc 1 176 5 view .LVU30
	.loc 1 157 1 is_stmt 0 view .LVU31
	push	{r4, lr}
.LCFI0:
	.cfi_def_cfa_offset 8
	.cfi_offset 4, -8
	.cfi_offset 14, -4
	.loc 1 177 51 view .LVU32
	ldrh	ip, [r0, #112]
	.loc 1 176 34 view .LVU33
	ldrh	r3, [r0, #78]
	.loc 1 157 1 view .LVU34
	sub	sp, sp, #8
.LCFI1:
	.cfi_def_cfa_offset 16
	.loc 1 177 26 view .LVU35
	asrs	r2, r1, #16
	.loc 1 157 1 view .LVU36
	str	r1, [sp, #4]
	.loc 1 177 32 view .LVU37
	mul	r2, ip, r2
	.loc 1 176 25 view .LVU38
	sxth	r1, r1
	.loc 1 177 12 view .LVU39
	rsb	r2, r2, r2, lsl #31
	.loc 1 176 13 view .LVU40
	mul	r1, r3, r1
.LVL6:
	.loc 1 177 5 is_stmt 1 view .LVU41
	.loc 1 180 18 is_stmt 0 view .LVU42
	add	r3, r1, r2, lsl #1
	.loc 1 181 18 view .LVU43
	rsb	r1, r1, r2, lsl #1
.LVL7:
	.loc 1 180 8 view .LVU44
	add	lr, r3, r3, lsr #31
	.loc 1 181 8 view .LVU45
	add	r4, r1, r1, lsr #31
	.loc 1 184 8 view .LVU46
	cmp	r3, #-1
	.loc 1 177 12 view .LVU47
	lsl	r2, r2, #1
.LVL8:
	.loc 1 179 5 is_stmt 1 view .LVU48
	.loc 1 180 5 view .LVU49
	.loc 1 180 8 is_stmt 0 view .LVU50
	asr	lr, lr, #1
.LVL9:
	.loc 1 181 5 is_stmt 1 view .LVU51
	.loc 1 181 8 is_stmt 0 view .LVU52
	asr	r4, r4, #1
.LVL10:
	.loc 1 184 5 is_stmt 1 view .LVU53
	.loc 1 184 8 is_stmt 0 view .LVU54
	blt	.L39
	.loc 1 250 7 is_stmt 1 view .LVU55
	.loc 1 250 10 is_stmt 0 view .LVU56
	cmp	r1, #-1
	blt	.L23
	.loc 1 252 9 is_stmt 1 view .LVU57
	.loc 1 253 69 is_stmt 0 view .LVU58
	subs	lr, lr, r4
.LVL11:
	.loc 1 253 69 view .LVU59
	itt	mi
	addmi	lr, lr, #261120
	addwmi	lr, lr, #1023
	.loc 1 254 35 view .LVU60
	cmp	r1, #0
	it	lt
	addlt	r1, r1, #261120
	.loc 1 252 25 view .LVU61
	mov	r2, #1
.LVL12:
	.loc 1 254 35 view .LVU62
	it	lt
	addwlt	r1, r1, #1023
	.loc 1 255 35 view .LVU63
	cmp	r3, #0
	.loc 1 255 35 view .LVU64
	it	lt
	addlt	r3, r3, #261120
.LVL13:
	.loc 1 252 25 view .LVU65
	strb	r2, [r0, #122]
.LVL14:
	.loc 1 253 9 is_stmt 1 view .LVU66
	.loc 1 253 51 is_stmt 0 view .LVU67
	lsr	ip, ip, #2
	.loc 1 257 11 view .LVU68
	ldrb	r2, [r0, #133]	@ zero_extendqisi2
	.loc 1 253 18 view .LVU69
	add	lr, ip, lr, asr #18
.LVL15:
	.loc 1 254 9 is_stmt 1 view .LVU70
	.loc 1 255 35 is_stmt 0 view .LVU71
	it	lt
	addwlt	r3, r3, #1023
	.loc 1 254 18 view .LVU72
	add	r1, lr, r1, asr #18
.LVL16:
	.loc 1 255 9 is_stmt 1 view .LVU73
	.loc 1 255 18 is_stmt 0 view .LVU74
	sub	r3, lr, r3, asr #18
.LVL17:
	.loc 1 257 9 is_stmt 1 view .LVU75
	.loc 1 257 11 is_stmt 0 view .LVU76
	cmp	r2, #0
	bne	.L40
	.loc 1 265 9 is_stmt 1 view .LVU77
	.loc 1 265 28 is_stmt 0 view .LVU78
	strh	r1, [r0, #88]	@ movhi
	.loc 1 266 9 is_stmt 1 view .LVU79
	.loc 1 266 28 is_stmt 0 view .LVU80
	strh	lr, [r0, #90]	@ movhi
	.loc 1 267 9 is_stmt 1 view .LVU81
	.loc 1 267 29 is_stmt 0 view .LVU82
	strh	r3, [r0, #92]	@ movhi
.LVL18:
.L14:
	.loc 1 313 5 is_stmt 1 view .LVU83
	.loc 1 317 19 is_stmt 0 view .LVU84
	ldr	r2, [r0, #20]
	.loc 1 313 21 view .LVU85
	bic	lr, lr, lr, asr #31
.LVL19:
	.loc 1 314 21 view .LVU86
	bic	r1, r1, r1, asr #31
.LVL20:
	.loc 1 315 21 view .LVU87
	bic	r3, r3, r3, asr #31
.LVL21:
	.loc 1 313 21 view .LVU88
	strh	lr, [r0, #80]	@ movhi
	.loc 1 314 5 is_stmt 1 view .LVU89
	.loc 1 314 21 is_stmt 0 view .LVU90
	strh	r1, [r0, #82]	@ movhi
	.loc 1 315 5 is_stmt 1 view .LVU91
	.loc 1 315 21 is_stmt 0 view .LVU92
	strh	r3, [r0, #84]	@ movhi
	.loc 1 317 5 is_stmt 1 view .LVU93
	.loc 1 322 1 is_stmt 0 view .LVU94
	add	sp, sp, #8
.LCFI2:
	.cfi_remember_state
	.cfi_def_cfa_offset 8
	@ sp needed
	pop	{r4, lr}
.LCFI3:
	.cfi_restore 14
	.cfi_restore 4
	.cfi_def_cfa_offset 0
	.loc 1 317 19 view .LVU95
	bx	r2
.LVL22:
.L23:
.LCFI4:
	.cfi_restore_state
	.loc 1 271 9 is_stmt 1 view .LVU96
	.loc 1 271 12 is_stmt 0 view .LVU97
	cmp	r2, #0
	ble	.L41
	.loc 1 293 11 is_stmt 1 view .LVU98
	.loc 1 294 70 is_stmt 0 view .LVU99
	subs	lr, r2, r4
.LVL23:
	.loc 1 294 70 view .LVU100
	itt	mi
	addmi	lr, lr, #261120
	addwmi	lr, lr, #1023
	.loc 1 295 37 view .LVU101
	cmp	r1, #0
	itt	lt
	addlt	r1, r1, #261120
	addwlt	r1, r1, #1023
	.loc 1 294 53 view .LVU102
	lsr	ip, ip, #2
	.loc 1 296 37 view .LVU103
	cmp	r2, #0
	.loc 1 296 37 view .LVU104
	it	lt
	addlt	r2, r2, #130560
.LVL24:
	.loc 1 294 20 view .LVU105
	add	lr, ip, lr, asr #18
	.loc 1 298 13 view .LVU106
	ldrb	r4, [r0, #125]	@ zero_extendqisi2
.LVL25:
	.loc 1 293 27 view .LVU107
	mov	r3, #0
.LVL26:
	.loc 1 295 20 view .LVU108
	add	r1, lr, r1, asr #18
	.loc 1 296 37 view .LVU109
	it	lt
	addwlt	r2, r2, #511
	.loc 1 293 27 view .LVU110
	strb	r3, [r0, #122]
	.loc 1 294 11 is_stmt 1 view .LVU111
.LVL27:
	.loc 1 295 11 view .LVU112
	.loc 1 296 11 view .LVU113
	.loc 1 296 20 is_stmt 0 view .LVU114
	sub	r3, r1, r2, asr #17
.LVL28:
	.loc 1 298 11 is_stmt 1 view .LVU115
	.loc 1 298 13 is_stmt 0 view .LVU116
	cbnz	r4, .L36
	.loc 1 298 43 discriminator 1 view .LVU117
	ldrb	r2, [r0, #133]	@ zero_extendqisi2
	cmp	r2, #0
	beq	.L37
.L36:
	.loc 1 300 13 is_stmt 1 view .LVU118
	.loc 1 301 13 view .LVU119
	.loc 1 300 30 is_stmt 0 view .LVU120
	ldr	r2, .L44
	str	r2, [r0, #88]
	.loc 1 302 13 is_stmt 1 view .LVU121
	.loc 1 302 31 is_stmt 0 view .LVU122
	movs	r2, #0
	strh	r2, [r0, #92]	@ movhi
	b	.L14
.LVL29:
.L39:
	.loc 1 186 7 is_stmt 1 view .LVU123
	.loc 1 186 10 is_stmt 0 view .LVU124
	cmp	r1, #-1
	blt	.L42
	.loc 1 207 9 is_stmt 1 view .LVU125
	.loc 1 207 12 is_stmt 0 view .LVU126
	cmp	r2, #0
	ble	.L43
	.loc 1 229 11 is_stmt 1 view .LVU127
	.loc 1 230 71 is_stmt 0 view .LVU128
	subs	lr, lr, r2
.LVL30:
	.loc 1 230 71 view .LVU129
	itt	mi
	addmi	lr, lr, #261120
	addwmi	lr, lr, #1023
	.loc 1 231 37 view .LVU130
	cmp	r3, #0
	.loc 1 231 37 view .LVU131
	it	lt
	addlt	r3, r3, #261120
.LVL31:
	.loc 1 230 54 view .LVU132
	lsr	ip, ip, #2
	.loc 1 230 20 view .LVU133
	add	lr, ip, lr, asr #18
	.loc 1 231 37 view .LVU134
	it	lt
	addwlt	r3, r3, #1023
	.loc 1 234 13 view .LVU135
	ldrb	r4, [r0, #133]	@ zero_extendqisi2
.LVL32:
	.loc 1 229 27 view .LVU136
	movs	r1, #2
.LVL33:
	.loc 1 231 20 view .LVU137
	sub	r3, lr, r3, asr #18
	.loc 1 229 27 view .LVU138
	strb	r1, [r0, #122]
	.loc 1 230 11 is_stmt 1 view .LVU139
.LVL34:
	.loc 1 231 11 view .LVU140
	.loc 1 232 11 view .LVU141
	.loc 1 232 20 is_stmt 0 view .LVU142
	add	r1, r3, r2, asr #17
.LVL35:
	.loc 1 234 11 is_stmt 1 view .LVU143
	.loc 1 234 13 is_stmt 0 view .LVU144
	cmp	r4, #0
	beq	.L22
	.loc 1 236 13 is_stmt 1 view .LVU145
	.loc 1 237 13 view .LVU146
	.loc 1 236 30 is_stmt 0 view .LVU147
	mov	r2, #131072
.LVL36:
	.loc 1 236 30 view .LVU148
	str	r2, [r0, #88]
	.loc 1 238 13 is_stmt 1 view .LVU149
	.loc 1 238 31 is_stmt 0 view .LVU150
	movs	r2, #1
	strh	r2, [r0, #92]	@ movhi
	b	.L14
.LVL37:
.L40:
	.loc 1 259 11 is_stmt 1 view .LVU151
	.loc 1 260 11 view .LVU152
	.loc 1 259 28 is_stmt 0 view .LVU153
	movs	r2, #2
	str	r2, [r0, #88]
	.loc 1 261 11 is_stmt 1 view .LVU154
	.loc 1 261 29 is_stmt 0 view .LVU155
	movs	r2, #1
	strh	r2, [r0, #92]	@ movhi
	b	.L14
.LVL38:
.L43:
	.loc 1 209 11 is_stmt 1 view .LVU156
	.loc 1 210 71 is_stmt 0 view .LVU157
	subs	lr, r2, r4
.LVL39:
	.loc 1 210 71 view .LVU158
	itt	mi
	addmi	lr, lr, #261120
	addwmi	lr, lr, #1023
	.loc 1 211 37 view .LVU159
	cmp	r1, #0
	it	lt
	addlt	r1, r1, #261120
	.loc 1 209 27 view .LVU160
	mov	r3, #3
.LVL40:
	.loc 1 211 37 view .LVU161
	it	lt
	addwlt	r1, r1, #1023
	.loc 1 209 27 view .LVU162
	strb	r3, [r0, #122]
	.loc 1 210 11 is_stmt 1 view .LVU163
	.loc 1 210 53 is_stmt 0 view .LVU164
	lsr	ip, ip, #2
	.loc 1 212 37 view .LVU165
	subs	r3, r2, #0
	it	lt
	addlt	r3, r3, #130560
	.loc 1 210 20 view .LVU166
	add	lr, ip, lr, asr #18
.LVL41:
	.loc 1 211 11 is_stmt 1 view .LVU167
	.loc 1 214 13 is_stmt 0 view .LVU168
	ldrb	r2, [r0, #133]	@ zero_extendqisi2
.LVL42:
	.loc 1 211 20 view .LVU169
	add	r1, lr, r1, asr #18
.LVL43:
	.loc 1 212 11 is_stmt 1 view .LVU170
	.loc 1 212 37 is_stmt 0 view .LVU171
	it	lt
	addwlt	r3, r3, #511
	.loc 1 212 20 view .LVU172
	sub	r3, r1, r3, asr #17
.LVL44:
	.loc 1 214 11 is_stmt 1 view .LVU173
	.loc 1 214 13 is_stmt 0 view .LVU174
	cmp	r2, #0
	beq	.L19
	.loc 1 216 13 is_stmt 1 view .LVU175
	.loc 1 217 13 view .LVU176
	.loc 1 216 30 is_stmt 0 view .LVU177
	mov	r2, #65536
	str	r2, [r0, #88]
	.loc 1 218 13 is_stmt 1 view .LVU178
	.loc 1 218 31 is_stmt 0 view .LVU179
	movs	r2, #2
	strh	r2, [r0, #92]	@ movhi
	b	.L14
.LVL45:
.L41:
	.loc 1 273 11 is_stmt 1 view .LVU180
	.loc 1 274 72 is_stmt 0 view .LVU181
	subs	lr, lr, r2
.LVL46:
	.loc 1 274 72 view .LVU182
	itt	mi
	addmi	lr, lr, #261120
	addwmi	lr, lr, #1023
	.loc 1 275 37 view .LVU183
	cmp	r3, #0
	.loc 1 275 37 view .LVU184
	itt	lt
	addlt	r3, r3, #261120
.LVL47:
	.loc 1 275 37 view .LVU185
	addwlt	r3, r3, #1023
	.loc 1 274 54 view .LVU186
	lsr	ip, ip, #2
	.loc 1 276 37 view .LVU187
	cmp	r2, #0
	.loc 1 276 37 view .LVU188
	it	lt
	addlt	r2, r2, #130560
.LVL48:
	.loc 1 274 20 view .LVU189
	add	lr, ip, lr, asr #18
	.loc 1 278 13 view .LVU190
	ldrb	r4, [r0, #133]	@ zero_extendqisi2
.LVL49:
	.loc 1 273 27 view .LVU191
	mov	r1, #5
.LVL50:
	.loc 1 275 20 view .LVU192
	sub	r3, lr, r3, asr #18
	.loc 1 276 37 view .LVU193
	it	lt
	addwlt	r2, r2, #511
	.loc 1 273 27 view .LVU194
	strb	r1, [r0, #122]
	.loc 1 274 11 is_stmt 1 view .LVU195
.LVL51:
	.loc 1 275 11 view .LVU196
	.loc 1 276 11 view .LVU197
	.loc 1 276 20 is_stmt 0 view .LVU198
	add	r1, r3, r2, asr #17
.LVL52:
	.loc 1 278 11 is_stmt 1 view .LVU199
	.loc 1 278 13 is_stmt 0 view .LVU200
	cmp	r4, #0
	beq	.L32
	.loc 1 280 13 is_stmt 1 view .LVU201
	.loc 1 281 13 view .LVU202
	.loc 1 280 30 is_stmt 0 view .LVU203
	ldr	r2, .L44+4
	str	r2, [r0, #88]
	.loc 1 282 13 is_stmt 1 view .LVU204
	.loc 1 282 31 is_stmt 0 view .LVU205
	movs	r2, #0
	strh	r2, [r0, #92]	@ movhi
	b	.L14
.LVL53:
.L42:
	.loc 1 188 9 is_stmt 1 view .LVU206
	.loc 1 189 69 is_stmt 0 view .LVU207
	subs	lr, lr, r4
.LVL54:
	.loc 1 189 69 view .LVU208
	itt	mi
	addmi	lr, lr, #261120
	addwmi	lr, lr, #1023
	.loc 1 190 35 view .LVU209
	cmp	r1, #0
	it	lt
	addlt	r1, r1, #261120
	.loc 1 188 25 view .LVU210
	mov	r2, #4
.LVL55:
	.loc 1 190 35 view .LVU211
	it	lt
	addwlt	r1, r1, #1023
	.loc 1 191 35 view .LVU212
	cmp	r3, #0
	.loc 1 191 35 view .LVU213
	it	lt
	addlt	r3, r3, #261120
.LVL56:
	.loc 1 188 25 view .LVU214
	strb	r2, [r0, #122]
.LVL57:
	.loc 1 189 9 is_stmt 1 view .LVU215
	.loc 1 189 51 is_stmt 0 view .LVU216
	lsr	ip, ip, #2
	.loc 1 193 11 view .LVU217
	ldrb	r2, [r0, #133]	@ zero_extendqisi2
	.loc 1 189 18 view .LVU218
	add	lr, ip, lr, asr #18
.LVL58:
	.loc 1 190 9 is_stmt 1 view .LVU219
	.loc 1 191 35 is_stmt 0 view .LVU220
	it	lt
	addwlt	r3, r3, #1023
	.loc 1 190 18 view .LVU221
	add	r1, lr, r1, asr #18
.LVL59:
	.loc 1 191 9 is_stmt 1 view .LVU222
	.loc 1 191 18 is_stmt 0 view .LVU223
	sub	r3, lr, r3, asr #18
.LVL60:
	.loc 1 193 9 is_stmt 1 view .LVU224
	.loc 1 193 11 is_stmt 0 view .LVU225
	cbz	r2, .L13
	.loc 1 195 11 is_stmt 1 view .LVU226
	.loc 1 196 11 view .LVU227
	.loc 1 195 28 is_stmt 0 view .LVU228
	movs	r2, #1
	str	r2, [r0, #88]
	.loc 1 197 11 is_stmt 1 view .LVU229
	.loc 1 197 29 is_stmt 0 view .LVU230
	movs	r2, #2
	strh	r2, [r0, #92]	@ movhi
	b	.L14
.L13:
	.loc 1 201 11 is_stmt 1 view .LVU231
	.loc 1 201 30 is_stmt 0 view .LVU232
	strh	r3, [r0, #88]	@ movhi
	.loc 1 202 11 is_stmt 1 view .LVU233
	.loc 1 202 30 is_stmt 0 view .LVU234
	strh	lr, [r0, #90]	@ movhi
	.loc 1 203 11 is_stmt 1 view .LVU235
	.loc 1 203 31 is_stmt 0 view .LVU236
	strh	r1, [r0, #92]	@ movhi
	b	.L14
.LVL61:
.L22:
	.loc 1 242 11 is_stmt 1 view .LVU237
	.loc 1 242 30 is_stmt 0 view .LVU238
	strh	r1, [r0, #88]	@ movhi
	.loc 1 243 11 is_stmt 1 view .LVU239
	.loc 1 243 30 is_stmt 0 view .LVU240
	strh	r3, [r0, #90]	@ movhi
	.loc 1 244 11 is_stmt 1 view .LVU241
	.loc 1 244 31 is_stmt 0 view .LVU242
	strh	lr, [r0, #92]	@ movhi
	b	.L14
.LVL62:
.L32:
	.loc 1 286 13 is_stmt 1 view .LVU243
	.loc 1 286 32 is_stmt 0 view .LVU244
	strh	lr, [r0, #88]	@ movhi
	.loc 1 287 13 is_stmt 1 view .LVU245
	.loc 1 287 32 is_stmt 0 view .LVU246
	strh	r3, [r0, #90]	@ movhi
	.loc 1 288 13 is_stmt 1 view .LVU247
	.loc 1 288 33 is_stmt 0 view .LVU248
	strh	r1, [r0, #92]	@ movhi
	b	.L14
.LVL63:
.L19:
	.loc 1 222 11 is_stmt 1 view .LVU249
	.loc 1 222 30 is_stmt 0 view .LVU250
	strh	r3, [r0, #88]	@ movhi
	.loc 1 223 11 is_stmt 1 view .LVU251
	.loc 1 223 30 is_stmt 0 view .LVU252
	strh	r1, [r0, #90]	@ movhi
	.loc 1 224 11 is_stmt 1 view .LVU253
	.loc 1 224 31 is_stmt 0 view .LVU254
	strh	lr, [r0, #92]	@ movhi
	b	.L14
.LVL64:
.L37:
	.loc 1 306 13 is_stmt 1 view .LVU255
	.loc 1 306 32 is_stmt 0 view .LVU256
	strh	lr, [r0, #88]	@ movhi
	.loc 1 307 13 is_stmt 1 view .LVU257
	.loc 1 307 32 is_stmt 0 view .LVU258
	strh	r1, [r0, #90]	@ movhi
	.loc 1 308 13 is_stmt 1 view .LVU259
	.loc 1 308 33 is_stmt 0 view .LVU260
	strh	r3, [r0, #92]	@ movhi
	b	.L14
.L45:
	.align	2
.L44:
	.word	65538
	.word	131073
	.cfi_endproc
.LFE1443:
	.size	PWMC_SetPhaseVoltage, .-PWMC_SetPhaseVoltage
	.section	.text.PWMC_SwitchOffPWM,"ax",%progbits
	.align	1
	.p2align 2,,3
	.weak	PWMC_SwitchOffPWM
	.syntax unified
	.thumb
	.thumb_func
	.fpu fpv4-sp-d16
	.type	PWMC_SwitchOffPWM, %function
PWMC_SwitchOffPWM:
.LVL65:
.LFB1444:
	.loc 1 331 1 is_stmt 1 view -0
	.cfi_startproc
	@ args = 0, pretend = 0, frame = 0
	@ frame_needed = 0, uses_anonymous_args = 0
	@ link register save eliminated.
	.loc 1 340 5 view .LVU262
	ldr	r3, [r0, #4]
	bx	r3	@ indirect register sibling call
.LVL66:
	.loc 1 340 5 is_stmt 0 view .LVU263
	.cfi_endproc
.LFE1444:
	.size	PWMC_SwitchOffPWM, .-PWMC_SwitchOffPWM
	.section	.text.PWMC_SwitchOnPWM,"ax",%progbits
	.align	1
	.p2align 2,,3
	.weak	PWMC_SwitchOnPWM
	.syntax unified
	.thumb
	.thumb_func
	.fpu fpv4-sp-d16
	.type	PWMC_SwitchOnPWM, %function
PWMC_SwitchOnPWM:
.LVL67:
.LFB1445:
	.loc 1 353 1 is_stmt 1 view -0
	.cfi_startproc
	@ args = 0, pretend = 0, frame = 0
	@ frame_needed = 0, uses_anonymous_args = 0
	@ link register save eliminated.
	.loc 1 362 5 view .LVU265
	ldr	r3, [r0, #8]
	bx	r3	@ indirect register sibling call
.LVL68:
	.loc 1 362 5 is_stmt 0 view .LVU266
	.cfi_endproc
.LFE1445:
	.size	PWMC_SwitchOnPWM, .-PWMC_SwitchOnPWM
	.section	.text.PWMC_CurrentReadingCalibr,"ax",%progbits
	.align	1
	.p2align 2,,3
	.weak	PWMC_CurrentReadingCalibr
	.syntax unified
	.thumb
	.thumb_func
	.fpu fpv4-sp-d16
	.type	PWMC_CurrentReadingCalibr, %function
PWMC_CurrentReadingCalibr:
.LVL69:
.LFB1446:
	.loc 1 381 1 is_stmt 1 view -0
	.cfi_startproc
	@ args = 0, pretend = 0, frame = 8
	@ frame_needed = 0, uses_anonymous_args = 0
	.loc 1 382 3 view .LVU268
	.loc 1 391 5 view .LVU269
	.loc 1 381 1 is_stmt 0 view .LVU270
	push	{r4, lr}
.LCFI5:
	.cfi_def_cfa_offset 8
	.cfi_offset 4, -8
	.cfi_offset 14, -4
	mov	r4, r0
	sub	sp, sp, #8
.LCFI6:
	.cfi_def_cfa_offset 16
	.loc 1 391 8 view .LVU271
	cbz	r1, .L55
	.loc 1 397 10 is_stmt 1 view .LVU272
	.loc 1 397 13 is_stmt 0 view .LVU273
	cmp	r1, #1
	beq	.L51
.L52:
	.loc 1 382 8 view .LVU274
	movs	r0, #0
.LVL70:
.L50:
	.loc 1 416 5 is_stmt 1 view .LVU275
	.loc 1 420 3 view .LVU276
	.loc 1 421 1 is_stmt 0 view .LVU277
	add	sp, sp, #8
.LCFI7:
	.cfi_remember_state
	.cfi_def_cfa_offset 8
	@ sp needed
	pop	{r4, pc}
.LVL71:
.L51:
.LCFI8:
	.cfi_restore_state
	.loc 1 399 7 is_stmt 1 view .LVU278
	.loc 1 399 18 is_stmt 0 view .LVU279
	ldrh	r3, [r0, #96]
	.loc 1 399 10 view .LVU280
	cbz	r3, .L53
	.loc 1 401 9 is_stmt 1 view .LVU281
	.loc 1 401 42 is_stmt 0 view .LVU282
	subs	r3, r3, #1
	uxth	r3, r3
	str	r1, [sp, #4]
	strh	r3, [r0, #96]	@ movhi
	.loc 1 402 9 is_stmt 1 view .LVU283
	.loc 1 402 12 is_stmt 0 view .LVU284
	cmp	r3, #0
	bne	.L52
	.loc 1 404 11 is_stmt 1 view .LVU285
	ldr	r3, [r0, #12]
	blx	r3
.LVL72:
	.loc 1 405 11 view .LVU286
	.loc 1 405 18 is_stmt 0 view .LVU287
	ldr	r1, [sp, #4]
	mov	r0, r1
	b	.L50
.LVL73:
.L55:
	.loc 1 393 7 is_stmt 1 view .LVU288
	bl	PWMC_SwitchOffPWM
.LVL74:
	.loc 1 394 7 view .LVU289
	mov	r0, r4
	ldr	r3, [r4, #12]
	blx	r3
.LVL75:
	.loc 1 395 7 view .LVU290
	.loc 1 395 14 is_stmt 0 view .LVU291
	movs	r0, #1
.LVL76:
	.loc 1 416 5 is_stmt 1 view .LVU292
	.loc 1 420 3 view .LVU293
	.loc 1 421 1 is_stmt 0 view .LVU294
	add	sp, sp, #8
.LCFI9:
	.cfi_remember_state
	.cfi_def_cfa_offset 8
	@ sp needed
	pop	{r4, pc}
.LVL77:
.L53:
.LCFI10:
	.cfi_restore_state
	.loc 1 410 16 view .LVU295
	mov	r0, r1
.LVL78:
	.loc 1 416 5 is_stmt 1 view .LVU296
	.loc 1 420 3 view .LVU297
	.loc 1 421 1 is_stmt 0 view .LVU298
	add	sp, sp, #8
.LCFI11:
	.cfi_def_cfa_offset 8
	@ sp needed
	pop	{r4, pc}
	.loc 1 421 1 view .LVU299
	.cfi_endproc
.LFE1446:
	.size	PWMC_CurrentReadingCalibr, .-PWMC_CurrentReadingCalibr
	.section	.text.PWMC_CalcPhaseCurrentsEst,"ax",%progbits
	.align	1
	.p2align 2,,3
	.global	PWMC_CalcPhaseCurrentsEst
	.syntax unified
	.thumb
	.thumb_func
	.fpu fpv4-sp-d16
	.type	PWMC_CalcPhaseCurrentsEst, %function
PWMC_CalcPhaseCurrentsEst:
.LVL79:
.LFB1448:
	.loc 1 483 1 is_stmt 1 view -0
	.cfi_startproc
	@ args = 0, pretend = 0, frame = 16
	@ frame_needed = 0, uses_anonymous_args = 0
	.loc 1 492 5 view .LVU301
	.loc 1 493 5 view .LVU302
	.loc 1 494 5 view .LVU303
	.loc 1 496 5 view .LVU304
	.loc 1 483 1 is_stmt 0 view .LVU305
	push	{r4, lr}
.LCFI12:
	.cfi_def_cfa_offset 8
	.cfi_offset 4, -8
	.cfi_offset 14, -4
	sub	sp, sp, #16
.LCFI13:
	.cfi_def_cfa_offset 24
	.loc 1 483 1 view .LVU306
	mov	r4, r0
	str	r1, [sp, #4]
	mov	lr, r1
	.loc 1 496 26 view .LVU307
	sxth	r0, r1
.LVL80:
	.loc 1 499 19 view .LVU308
	mov	r1, r2
.LBB18:
.LBB19:
	.loc 1 454 17 view .LVU309
	ldrd	r3, r2, [r4, #52]
.LVL81:
	.loc 1 454 17 view .LVU310
.LBE19:
.LBE18:
	.loc 1 496 26 view .LVU311
	ldrsh	ip, [r4, #110]
.LVL82:
.LBB21:
.LBI18:
	.loc 1 441 23 is_stmt 1 view .LVU312
.LBB20:
	.loc 1 443 3 view .LVU313
	.loc 1 454 5 view .LVU314
	.loc 1 454 34 is_stmt 0 view .LVU315
	sub	r0, r0, r3, asr #15
	.loc 1 454 27 view .LVU316
	mla	r3, ip, r0, r3
	.loc 1 454 14 view .LVU317
	str	r3, [r4, #52]
	.loc 1 455 5 is_stmt 1 view .LVU318
.LVL83:
	.loc 1 464 3 view .LVU319
	.loc 1 455 7 is_stmt 0 view .LVU320
	asrs	r3, r3, #15
.LBE20:
.LBE21:
	.loc 1 496 17 view .LVU321
	strh	r3, [sp, #8]	@ movhi
	.loc 1 497 5 is_stmt 1 view .LVU322
.LVL84:
.LBB22:
.LBI22:
	.loc 1 441 23 view .LVU323
.LBB23:
	.loc 1 443 3 view .LVU324
	.loc 1 454 5 view .LVU325
	.loc 1 454 48 is_stmt 0 view .LVU326
	asrs	r3, r2, #15
	.loc 1 454 34 view .LVU327
	rsb	r3, r3, lr, asr #16
	.loc 1 454 27 view .LVU328
	mla	r3, ip, r3, r2
	.loc 1 455 7 view .LVU329
	asrs	r2, r3, #15
.LBE23:
.LBE22:
	.loc 1 497 17 view .LVU330
	strh	r2, [sp, #10]	@ movhi
.LBB26:
.LBB24:
	.loc 1 454 14 view .LVU331
	str	r3, [r4, #56]
.LBE24:
.LBE26:
	.loc 1 499 19 view .LVU332
	ldr	r0, [sp, #8]
.LBB27:
.LBB25:
	.loc 1 455 5 is_stmt 1 view .LVU333
.LVL85:
	.loc 1 464 3 view .LVU334
	.loc 1 464 3 is_stmt 0 view .LVU335
.LBE25:
.LBE27:
	.loc 1 499 5 is_stmt 1 view .LVU336
	.loc 1 499 19 is_stmt 0 view .LVU337
	bl	MCM_Rev_Park
.LVL86:
	sxth	ip, r0
.LVL87:
	.loc 1 504 5 is_stmt 1 view .LVU338
	.loc 1 506 11 is_stmt 0 view .LVU339
	rsb	r2, ip, #0
	.loc 1 515 38 view .LVU340
	uxth	r2, r2
	.loc 1 518 38 view .LVU341
	add	r3, r2, r0, lsr #16
	.loc 1 515 38 view .LVU342
	sub	r1, r2, r0, lsr #16
	.loc 1 518 20 view .LVU343
	ubfx	r0, r3, #15, #1
	sxtah	r3, r0, r3
	asrs	r3, r3, #1
	strh	r3, [r4, #108]	@ movhi
	.loc 1 515 20 view .LVU344
	ubfx	r3, r1, #15, #1
	sxtah	r1, r3, r1
	asrs	r1, r1, #1
	.loc 1 504 20 view .LVU345
	strh	ip, [r4, #104]	@ movhi
	.loc 1 506 5 is_stmt 1 view .LVU346
.LVL88:
	.loc 1 509 5 view .LVU347
	.loc 1 515 5 view .LVU348
	.loc 1 515 20 is_stmt 0 view .LVU349
	strh	r1, [r4, #106]	@ movhi
	.loc 1 518 5 is_stmt 1 view .LVU350
.LVL89:
	.loc 1 522 1 is_stmt 0 view .LVU351
	add	sp, sp, #16
.LCFI14:
	.cfi_def_cfa_offset 8
	@ sp needed
	pop	{r4, pc}
	.loc 1 522 1 view .LVU352
	.cfi_endproc
.LFE1448:
	.size	PWMC_CalcPhaseCurrentsEst, .-PWMC_CalcPhaseCurrentsEst
	.section	.text.PWMC_TurnOnLowSides,"ax",%progbits
	.align	1
	.p2align 2,,3
	.weak	PWMC_TurnOnLowSides
	.syntax unified
	.thumb
	.thumb_func
	.fpu fpv4-sp-d16
	.type	PWMC_TurnOnLowSides, %function
PWMC_TurnOnLowSides:
.LVL90:
.LFB1449:
	.loc 1 538 1 is_stmt 1 view -0
	.cfi_startproc
	@ args = 0, pretend = 0, frame = 0
	@ frame_needed = 0, uses_anonymous_args = 0
	@ link register save eliminated.
	.loc 1 547 5 view .LVU354
	ldr	r3, [r0, #16]
	bx	r3	@ indirect register sibling call
.LVL91:
	.loc 1 547 5 is_stmt 0 view .LVU355
	.cfi_endproc
.LFE1449:
	.size	PWMC_TurnOnLowSides, .-PWMC_TurnOnLowSides
	.section	.text.PWMC_OCP_Handler,"ax",%progbits
	.align	1
	.p2align 2,,3
	.weak	PWMC_OCP_Handler
	.syntax unified
	.thumb
	.thumb_func
	.fpu fpv4-sp-d16
	.type	PWMC_OCP_Handler, %function
PWMC_OCP_Handler:
.LVL92:
.LFB1450:
	.loc 1 566 1 is_stmt 1 view -0
	.cfi_startproc
	@ args = 0, pretend = 0, frame = 0
	@ frame_needed = 0, uses_anonymous_args = 0
	@ link register save eliminated.
	.loc 1 567 3 view .LVU357
	.loc 1 576 5 view .LVU358
	.loc 1 576 8 is_stmt 0 view .LVU359
	ldrb	r3, [r0, #131]	@ zero_extendqisi2
	cbnz	r3, .L62
	.loc 1 578 7 is_stmt 1 view .LVU360
	.loc 1 578 10 is_stmt 0 view .LVU361
	ldrb	r3, [r0, #123]	@ zero_extendqisi2
	cmp	r3, #2
	beq	.L65
.L62:
	.loc 1 592 5 is_stmt 1 view .LVU362
	.loc 1 593 5 view .LVU363
	.loc 1 593 30 is_stmt 0 view .LVU364
	movs	r3, #1
	strb	r3, [r0, #128]
	.loc 1 594 5 is_stmt 1 view .LVU365
.LVL93:
	.loc 1 598 3 view .LVU366
	.loc 1 599 1 is_stmt 0 view .LVU367
	adds	r0, r0, #120
.LVL94:
	.loc 1 599 1 view .LVU368
	bx	lr
.LVL95:
.L65:
	.loc 1 580 9 is_stmt 1 view .LVU369
	.loc 1 581 9 is_stmt 0 view .LVU370
	ldrd	r2, r1, [r0, #60]
	.loc 1 566 1 view .LVU371
	push	{r4}
.LCFI15:
	.cfi_def_cfa_offset 4
	.cfi_offset 4, -4
	.loc 1 582 9 view .LVU372
	ldr	r3, [r0, #68]
	.loc 1 580 9 view .LVU373
	ldrh	r4, [r0, #72]
.LVL96:
.LBB28:
.LBI28:
	.file 2 "Drivers/STM32G4xx_HAL_Driver/Inc/stm32g4xx_ll_gpio.h"
	.loc 2 923 22 is_stmt 1 view .LVU374
.LBB29:
	.loc 2 925 3 view .LVU375
	str	r4, [r2, #40]
.LVL97:
	.loc 2 925 3 is_stmt 0 view .LVU376
.LBE29:
.LBE28:
	.loc 1 581 9 is_stmt 1 view .LVU377
	ldrh	r4, [r0, #74]
.LVL98:
.LBB30:
.LBI30:
	.loc 2 923 22 view .LVU378
.LBB31:
	.loc 2 925 3 view .LVU379
.LBE31:
.LBE30:
	.loc 1 582 9 is_stmt 0 view .LVU380
	ldrh	r2, [r0, #76]
.LBB33:
.LBB32:
	.loc 2 925 3 view .LVU381
	str	r4, [r1, #40]
.LVL99:
	.loc 2 925 3 view .LVU382
.LBE32:
.LBE33:
	.loc 1 582 9 is_stmt 1 view .LVU383
.LBB34:
.LBI34:
	.loc 2 923 22 view .LVU384
.LBB35:
	.loc 2 925 3 view .LVU385
	.loc 2 925 3 is_stmt 0 view .LVU386
.LBE35:
.LBE34:
	.loc 1 592 5 is_stmt 1 view .LVU387
	.loc 1 593 5 view .LVU388
.LBB37:
.LBB36:
	.loc 2 925 3 is_stmt 0 view .LVU389
	str	r2, [r3, #40]
.LBE36:
.LBE37:
	.loc 1 593 30 view .LVU390
	movs	r3, #1
	strb	r3, [r0, #128]
	.loc 1 594 5 is_stmt 1 view .LVU391
.LVL100:
	.loc 1 598 3 view .LVU392
	.loc 1 599 1 is_stmt 0 view .LVU393
	ldr	r4, [sp], #4
.LCFI16:
	.cfi_restore 4
	.cfi_def_cfa_offset 0
	adds	r0, r0, #120
.LVL101:
	.loc 1 599 1 view .LVU394
	bx	lr
	.cfi_endproc
.LFE1450:
	.size	PWMC_OCP_Handler, .-PWMC_OCP_Handler
	.section	.text.PWMC_DP_Handler,"ax",%progbits
	.align	1
	.p2align 2,,3
	.weak	PWMC_DP_Handler
	.syntax unified
	.thumb
	.thumb_func
	.fpu fpv4-sp-d16
	.type	PWMC_DP_Handler, %function
PWMC_DP_Handler:
.LVL102:
.LFB1451:
	.loc 1 614 1 is_stmt 1 view -0
	.cfi_startproc
	@ args = 0, pretend = 0, frame = 0
	@ frame_needed = 0, uses_anonymous_args = 0
	@ link register save eliminated.
	.loc 1 615 3 view .LVU396
	.loc 1 624 5 view .LVU397
	.loc 1 624 8 is_stmt 0 view .LVU398
	ldrb	r3, [r0, #131]	@ zero_extendqisi2
	cbnz	r3, .L69
	.loc 1 626 7 is_stmt 1 view .LVU399
	.loc 1 626 10 is_stmt 0 view .LVU400
	ldrb	r3, [r0, #123]	@ zero_extendqisi2
	cmp	r3, #2
	beq	.L72
.L69:
	.loc 1 640 5 is_stmt 1 view .LVU401
	.loc 1 641 5 view .LVU402
	.loc 1 641 35 is_stmt 0 view .LVU403
	movs	r3, #1
	strb	r3, [r0, #130]
	.loc 1 642 5 is_stmt 1 view .LVU404
.LVL103:
	.loc 1 646 3 view .LVU405
	.loc 1 647 1 is_stmt 0 view .LVU406
	adds	r0, r0, #120
.LVL104:
	.loc 1 647 1 view .LVU407
	bx	lr
.LVL105:
.L72:
	.loc 1 628 9 is_stmt 1 view .LVU408
	.loc 1 629 9 is_stmt 0 view .LVU409
	ldrd	r2, r1, [r0, #60]
	.loc 1 614 1 view .LVU410
	push	{r4}
.LCFI17:
	.cfi_def_cfa_offset 4
	.cfi_offset 4, -4
	.loc 1 630 9 view .LVU411
	ldr	r3, [r0, #68]
	.loc 1 628 9 view .LVU412
	ldrh	r4, [r0, #72]
.LVL106:
.LBB38:
.LBI38:
	.loc 2 923 22 is_stmt 1 view .LVU413
.LBB39:
	.loc 2 925 3 view .LVU414
	str	r4, [r2, #40]
.LVL107:
	.loc 2 925 3 is_stmt 0 view .LVU415
.LBE39:
.LBE38:
	.loc 1 629 9 is_stmt 1 view .LVU416
	ldrh	r4, [r0, #74]
.LVL108:
.LBB40:
.LBI40:
	.loc 2 923 22 view .LVU417
.LBB41:
	.loc 2 925 3 view .LVU418
.LBE41:
.LBE40:
	.loc 1 630 9 is_stmt 0 view .LVU419
	ldrh	r2, [r0, #76]
.LBB43:
.LBB42:
	.loc 2 925 3 view .LVU420
	str	r4, [r1, #40]
.LVL109:
	.loc 2 925 3 view .LVU421
.LBE42:
.LBE43:
	.loc 1 630 9 is_stmt 1 view .LVU422
.LBB44:
.LBI44:
	.loc 2 923 22 view .LVU423
.LBB45:
	.loc 2 925 3 view .LVU424
	.loc 2 925 3 is_stmt 0 view .LVU425
.LBE45:
.LBE44:
	.loc 1 640 5 is_stmt 1 view .LVU426
	.loc 1 641 5 view .LVU427
.LBB47:
.LBB46:
	.loc 2 925 3 is_stmt 0 view .LVU428
	str	r2, [r3, #40]
.LBE46:
.LBE47:
	.loc 1 641 35 view .LVU429
	movs	r3, #1
	strb	r3, [r0, #130]
	.loc 1 642 5 is_stmt 1 view .LVU430
.LVL110:
	.loc 1 646 3 view .LVU431
	.loc 1 647 1 is_stmt 0 view .LVU432
	ldr	r4, [sp], #4
.LCFI18:
	.cfi_restore 4
	.cfi_def_cfa_offset 0
	adds	r0, r0, #120
.LVL111:
	.loc 1 647 1 view .LVU433
	bx	lr
	.cfi_endproc
.LFE1451:
	.size	PWMC_DP_Handler, .-PWMC_DP_Handler
	.section	.text.PWMC_OVP_Handler,"ax",%progbits
	.align	1
	.p2align 2,,3
	.weak	PWMC_OVP_Handler
	.syntax unified
	.thumb
	.thumb_func
	.fpu fpv4-sp-d16
	.type	PWMC_OVP_Handler, %function
PWMC_OVP_Handler:
.LVL112:
.LFB1452:
	.loc 1 663 1 is_stmt 1 view -0
	.cfi_startproc
	@ args = 0, pretend = 0, frame = 0
	@ frame_needed = 0, uses_anonymous_args = 0
	@ link register save eliminated.
	.loc 1 664 3 view .LVU435
	.loc 1 673 5 view .LVU436
	.loc 1 673 16 is_stmt 0 view .LVU437
	ldr	r2, [r1, #68]
	.loc 1 663 1 view .LVU438
	mov	r3, r0
	.loc 1 674 30 view .LVU439
	mov	ip, #1
	.loc 1 673 16 view .LVU440
	orr	r2, r2, #1024
	str	r2, [r1, #68]
	.loc 1 674 5 is_stmt 1 view .LVU441
	.loc 1 681 1 is_stmt 0 view .LVU442
	adds	r0, r0, #120
.LVL113:
	.loc 1 674 30 view .LVU443
	strb	ip, [r3, #129]
	.loc 1 675 5 is_stmt 1 view .LVU444
	.loc 1 675 30 is_stmt 0 view .LVU445
	strb	ip, [r3, #131]
	.loc 1 676 5 is_stmt 1 view .LVU446
.LVL114:
	.loc 1 680 3 view .LVU447
	.loc 1 681 1 is_stmt 0 view .LVU448
	bx	lr
	.cfi_endproc
.LFE1452:
	.size	PWMC_OVP_Handler, .-PWMC_OVP_Handler
	.section	.text.PWMC_IsFaultOccurred,"ax",%progbits
	.align	1
	.p2align 2,,3
	.weak	PWMC_IsFaultOccurred
	.syntax unified
	.thumb
	.thumb_func
	.fpu fpv4-sp-d16
	.type	PWMC_IsFaultOccurred, %function
PWMC_IsFaultOccurred:
.LVL115:
.LFB1453:
	.loc 1 691 1 is_stmt 1 view -0
	.cfi_startproc
	@ args = 0, pretend = 0, frame = 0
	@ frame_needed = 0, uses_anonymous_args = 0
	@ link register save eliminated.
	.loc 1 692 3 view .LVU450
	.loc 1 694 3 view .LVU451
	.loc 1 694 6 is_stmt 0 view .LVU452
	ldrb	r3, [r0, #129]	@ zero_extendqisi2
	cbz	r3, .L78
	.loc 1 696 5 is_stmt 1 view .LVU453
.LVL116:
	.loc 1 697 5 view .LVU454
	.loc 1 697 30 is_stmt 0 view .LVU455
	movs	r3, #0
	strb	r3, [r0, #129]
	movs	r1, #66
	.loc 1 696 12 view .LVU456
	movs	r3, #2
.LVL117:
.L75:
	.loc 1 702 3 is_stmt 1 view .LVU457
	.loc 1 704 3 view .LVU458
	.loc 1 704 6 is_stmt 0 view .LVU459
	ldrb	r2, [r0, #128]	@ zero_extendqisi2
	cbz	r2, .L76
	.loc 1 706 5 is_stmt 1 view .LVU460
	.loc 1 707 5 view .LVU461
	.loc 1 707 30 is_stmt 0 view .LVU462
	movs	r3, #0
	strb	r3, [r0, #128]
.LVL118:
	.loc 1 706 12 view .LVU463
	mov	r3, r1
.LVL119:
.L76:
	.loc 1 712 3 is_stmt 1 view .LVU464
	.loc 1 714 3 view .LVU465
	.loc 1 714 6 is_stmt 0 view .LVU466
	ldrb	r2, [r0, #130]	@ zero_extendqisi2
	cbz	r2, .L77
	.loc 1 716 5 is_stmt 1 view .LVU467
	.loc 1 716 12 is_stmt 0 view .LVU468
	orr	r3, r3, #1024
.LVL120:
	.loc 1 717 35 view .LVU469
	movs	r2, #0
	.loc 1 716 12 view .LVU470
	uxth	r3, r3
	.loc 1 717 5 is_stmt 1 view .LVU471
	.loc 1 717 35 is_stmt 0 view .LVU472
	strb	r2, [r0, #130]
.LVL121:
.L77:
	.loc 1 722 3 is_stmt 1 view .LVU473
	.loc 1 724 3 view .LVU474
	.loc 1 725 1 is_stmt 0 view .LVU475
	mov	r0, r3
.LVL122:
	.loc 1 725 1 view .LVU476
	bx	lr
.LVL123:
.L78:
	.loc 1 725 1 view .LVU477
	movs	r1, #64
	b	.L75
	.cfi_endproc
.LFE1453:
	.size	PWMC_IsFaultOccurred, .-PWMC_IsFaultOccurred
	.section	.text.PWMC_OCPSetReferenceVoltage,"ax",%progbits
	.align	1
	.p2align 2,,3
	.weak	PWMC_OCPSetReferenceVoltage
	.syntax unified
	.thumb
	.thumb_func
	.fpu fpv4-sp-d16
	.type	PWMC_OCPSetReferenceVoltage, %function
PWMC_OCPSetReferenceVoltage:
.LVL124:
.LFB1454:
	.loc 1 737 1 is_stmt 1 view -0
	.cfi_startproc
	@ args = 0, pretend = 0, frame = 0
	@ frame_needed = 0, uses_anonymous_args = 0
	@ link register save eliminated.
	.loc 1 746 5 view .LVU479
	ldr	r3, [r0, #24]
	bx	r3	@ indirect register sibling call
.LVL125:
	.loc 1 746 5 is_stmt 0 view .LVU480
	.cfi_endproc
.LFE1454:
	.size	PWMC_OCPSetReferenceVoltage, .-PWMC_OCPSetReferenceVoltage
	.section	.text.PWMC_DPWM_ModeEnable,"ax",%progbits
	.align	1
	.p2align 2,,3
	.weak	PWMC_DPWM_ModeEnable
	.syntax unified
	.thumb
	.thumb_func
	.fpu fpv4-sp-d16
	.type	PWMC_DPWM_ModeEnable, %function
PWMC_DPWM_ModeEnable:
.LVL126:
.LFB1455:
	.loc 1 756 1 is_stmt 1 view -0
	.cfi_startproc
	@ args = 0, pretend = 0, frame = 0
	@ frame_needed = 0, uses_anonymous_args = 0
	@ link register save eliminated.
	.loc 1 765 5 view .LVU482
	.loc 1 765 24 is_stmt 0 view .LVU483
	movs	r3, #1
	strb	r3, [r0, #125]
	.loc 1 769 1 view .LVU484
	bx	lr
	.cfi_endproc
.LFE1455:
	.size	PWMC_DPWM_ModeEnable, .-PWMC_DPWM_ModeEnable
	.section	.text.PWMC_DPWM_ModeDisable,"ax",%progbits
	.align	1
	.p2align 2,,3
	.weak	PWMC_DPWM_ModeDisable
	.syntax unified
	.thumb
	.thumb_func
	.fpu fpv4-sp-d16
	.type	PWMC_DPWM_ModeDisable, %function
PWMC_DPWM_ModeDisable:
.LVL127:
.LFB1456:
	.loc 1 775 1 is_stmt 1 view -0
	.cfi_startproc
	@ args = 0, pretend = 0, frame = 0
	@ frame_needed = 0, uses_anonymous_args = 0
	@ link register save eliminated.
	.loc 1 784 5 view .LVU486
	.loc 1 784 24 is_stmt 0 view .LVU487
	movs	r3, #0
	strb	r3, [r0, #125]
	.loc 1 788 1 view .LVU488
	bx	lr
	.cfi_endproc
.LFE1456:
	.size	PWMC_DPWM_ModeDisable, .-PWMC_DPWM_ModeDisable
	.section	.text.PWMC_GetDPWM_Mode,"ax",%progbits
	.align	1
	.p2align 2,,3
	.weak	PWMC_GetDPWM_Mode
	.syntax unified
	.thumb
	.thumb_func
	.fpu fpv4-sp-d16
	.type	PWMC_GetDPWM_Mode, %function
PWMC_GetDPWM_Mode:
.LVL128:
.LFB1457:
	.loc 1 796 1 is_stmt 1 view -0
	.cfi_startproc
	@ args = 0, pretend = 0, frame = 0
	@ frame_needed = 0, uses_anonymous_args = 0
	@ link register save eliminated.
	.loc 1 800 3 view .LVU490
	.loc 1 802 1 is_stmt 0 view .LVU491
	ldrb	r0, [r0, #125]	@ zero_extendqisi2
.LVL129:
	.loc 1 802 1 view .LVU492
	bx	lr
	.cfi_endproc
.LFE1457:
	.size	PWMC_GetDPWM_Mode, .-PWMC_GetDPWM_Mode
	.section	.text.PWMC_RLDetectionModeEnable,"ax",%progbits
	.align	1
	.p2align 2,,3
	.weak	PWMC_RLDetectionModeEnable
	.syntax unified
	.thumb
	.thumb_func
	.fpu fpv4-sp-d16
	.type	PWMC_RLDetectionModeEnable, %function
PWMC_RLDetectionModeEnable:
.LVL130:
.LFB1458:
	.loc 1 809 1 is_stmt 1 view -0
	.cfi_startproc
	@ args = 0, pretend = 0, frame = 0
	@ frame_needed = 0, uses_anonymous_args = 0
	@ link register save eliminated.
	.loc 1 818 5 view .LVU494
	ldr	r3, [r0, #28]
	bx	r3	@ indirect register sibling call
.LVL131:
	.loc 1 818 5 is_stmt 0 view .LVU495
	.cfi_endproc
.LFE1458:
	.size	PWMC_RLDetectionModeEnable, .-PWMC_RLDetectionModeEnable
	.section	.text.PWMC_RLDetectionModeDisable,"ax",%progbits
	.align	1
	.p2align 2,,3
	.weak	PWMC_RLDetectionModeDisable
	.syntax unified
	.thumb
	.thumb_func
	.fpu fpv4-sp-d16
	.type	PWMC_RLDetectionModeDisable, %function
PWMC_RLDetectionModeDisable:
.LVL132:
.LFB1459:
	.loc 1 829 1 is_stmt 1 view -0
	.cfi_startproc
	@ args = 0, pretend = 0, frame = 0
	@ frame_needed = 0, uses_anonymous_args = 0
	@ link register save eliminated.
	.loc 1 838 5 view .LVU497
	ldr	r3, [r0, #32]
	bx	r3	@ indirect register sibling call
.LVL133:
	.loc 1 838 5 is_stmt 0 view .LVU498
	.cfi_endproc
.LFE1459:
	.size	PWMC_RLDetectionModeDisable, .-PWMC_RLDetectionModeDisable
	.section	.text.PWMC_RLDetectionModeSetDuty,"ax",%progbits
	.align	1
	.p2align 2,,3
	.weak	PWMC_RLDetectionModeSetDuty
	.syntax unified
	.thumb
	.thumb_func
	.fpu fpv4-sp-d16
	.type	PWMC_RLDetectionModeSetDuty, %function
PWMC_RLDetectionModeSetDuty:
.LVL134:
.LFB1460:
	.loc 1 853 1 is_stmt 1 view -0
	.cfi_startproc
	@ args = 0, pretend = 0, frame = 0
	@ frame_needed = 0, uses_anonymous_args = 0
	@ link register save eliminated.
	.loc 1 867 3 view .LVU500
	.loc 1 867 11 is_stmt 0 view .LVU501
	ldr	r3, [r0, #36]
	bx	r3
.LVL135:
	.loc 1 867 11 view .LVU502
	.cfi_endproc
.LFE1460:
	.size	PWMC_RLDetectionModeSetDuty, .-PWMC_RLDetectionModeSetDuty
	.section	.text.PWMC_RLTurnOnLowSidesAndStart,"ax",%progbits
	.align	1
	.p2align 2,,3
	.weak	PWMC_RLTurnOnLowSidesAndStart
	.syntax unified
	.thumb
	.thumb_func
	.fpu fpv4-sp-d16
	.type	PWMC_RLTurnOnLowSidesAndStart, %function
PWMC_RLTurnOnLowSidesAndStart:
.LVL136:
.LFB1461:
	.loc 1 876 1 is_stmt 1 view -0
	.cfi_startproc
	@ args = 0, pretend = 0, frame = 0
	@ frame_needed = 0, uses_anonymous_args = 0
	@ link register save eliminated.
	.loc 1 885 5 view .LVU504
	ldr	r3, [r0, #40]
	bx	r3	@ indirect register sibling call
.LVL137:
	.loc 1 885 5 is_stmt 0 view .LVU505
	.cfi_endproc
.LFE1461:
	.size	PWMC_RLTurnOnLowSidesAndStart, .-PWMC_RLTurnOnLowSidesAndStart
	.section	.text.PWMC_RegisterGetPhaseCurrentsCallBack,"ax",%progbits
	.align	1
	.p2align 2,,3
	.weak	PWMC_RegisterGetPhaseCurrentsCallBack
	.syntax unified
	.thumb
	.thumb_func
	.fpu fpv4-sp-d16
	.type	PWMC_RegisterGetPhaseCurrentsCallBack, %function
PWMC_RegisterGetPhaseCurrentsCallBack:
.LVL138:
.LFB1462:
	.loc 1 898 1 is_stmt 1 view -0
	.cfi_startproc
	@ args = 0, pretend = 0, frame = 0
	@ frame_needed = 0, uses_anonymous_args = 0
	@ link register save eliminated.
	.loc 1 907 5 view .LVU507
	.loc 1 907 35 is_stmt 0 view .LVU508
	str	r0, [r1]
	.loc 1 911 1 view .LVU509
	bx	lr
	.cfi_endproc
.LFE1462:
	.size	PWMC_RegisterGetPhaseCurrentsCallBack, .-PWMC_RegisterGetPhaseCurrentsCallBack
	.section	.text.PWMC_RegisterSwitchOffPwmCallBack,"ax",%progbits
	.align	1
	.p2align 2,,3
	.weak	PWMC_RegisterSwitchOffPwmCallBack
	.syntax unified
	.thumb
	.thumb_func
	.fpu fpv4-sp-d16
	.type	PWMC_RegisterSwitchOffPwmCallBack, %function
PWMC_RegisterSwitchOffPwmCallBack:
.LVL139:
.LFB1463:
	.loc 1 921 1 is_stmt 1 view -0
	.cfi_startproc
	@ args = 0, pretend = 0, frame = 0
	@ frame_needed = 0, uses_anonymous_args = 0
	@ link register save eliminated.
	.loc 1 930 5 view .LVU511
	.loc 1 930 31 is_stmt 0 view .LVU512
	str	r0, [r1, #4]
	.loc 1 934 1 view .LVU513
	bx	lr
	.cfi_endproc
.LFE1463:
	.size	PWMC_RegisterSwitchOffPwmCallBack, .-PWMC_RegisterSwitchOffPwmCallBack
	.section	.text.PWMC_RegisterSwitchonPwmCallBack,"ax",%progbits
	.align	1
	.p2align 2,,3
	.weak	PWMC_RegisterSwitchonPwmCallBack
	.syntax unified
	.thumb
	.thumb_func
	.fpu fpv4-sp-d16
	.type	PWMC_RegisterSwitchonPwmCallBack, %function
PWMC_RegisterSwitchonPwmCallBack:
.LVL140:
.LFB1464:
	.loc 1 944 1 is_stmt 1 view -0
	.cfi_startproc
	@ args = 0, pretend = 0, frame = 0
	@ frame_needed = 0, uses_anonymous_args = 0
	@ link register save eliminated.
	.loc 1 953 5 view .LVU515
	.loc 1 953 30 is_stmt 0 view .LVU516
	str	r0, [r1, #8]
	.loc 1 957 1 view .LVU517
	bx	lr
	.cfi_endproc
.LFE1464:
	.size	PWMC_RegisterSwitchonPwmCallBack, .-PWMC_RegisterSwitchonPwmCallBack
	.section	.text.PWMC_RegisterReadingCalibrationCallBack,"ax",%progbits
	.align	1
	.p2align 2,,3
	.weak	PWMC_RegisterReadingCalibrationCallBack
	.syntax unified
	.thumb
	.thumb_func
	.fpu fpv4-sp-d16
	.type	PWMC_RegisterReadingCalibrationCallBack, %function
PWMC_RegisterReadingCalibrationCallBack:
.LVL141:
.LFB1465:
	.loc 1 967 1 is_stmt 1 view -0
	.cfi_startproc
	@ args = 0, pretend = 0, frame = 0
	@ frame_needed = 0, uses_anonymous_args = 0
	@ link register save eliminated.
	.loc 1 976 5 view .LVU519
	.loc 1 976 35 is_stmt 0 view .LVU520
	str	r0, [r1, #12]
	.loc 1 980 1 view .LVU521
	bx	lr
	.cfi_endproc
.LFE1465:
	.size	PWMC_RegisterReadingCalibrationCallBack, .-PWMC_RegisterReadingCalibrationCallBack
	.section	.text.PWMC_RegisterTurnOnLowSidesCallBack,"ax",%progbits
	.align	1
	.p2align 2,,3
	.weak	PWMC_RegisterTurnOnLowSidesCallBack
	.syntax unified
	.thumb
	.thumb_func
	.fpu fpv4-sp-d16
	.type	PWMC_RegisterTurnOnLowSidesCallBack, %function
PWMC_RegisterTurnOnLowSidesCallBack:
.LVL142:
.LFB1466:
	.loc 1 989 1 is_stmt 1 view -0
	.cfi_startproc
	@ args = 0, pretend = 0, frame = 0
	@ frame_needed = 0, uses_anonymous_args = 0
	@ link register save eliminated.
	.loc 1 998 5 view .LVU523
	.loc 1 998 33 is_stmt 0 view .LVU524
	str	r0, [r1, #16]
	.loc 1 1002 1 view .LVU525
	bx	lr
	.cfi_endproc
.LFE1466:
	.size	PWMC_RegisterTurnOnLowSidesCallBack, .-PWMC_RegisterTurnOnLowSidesCallBack
	.section	.text.PWMC_RegisterSampPointSectXCallBack,"ax",%progbits
	.align	1
	.p2align 2,,3
	.weak	PWMC_RegisterSampPointSectXCallBack
	.syntax unified
	.thumb
	.thumb_func
	.fpu fpv4-sp-d16
	.type	PWMC_RegisterSampPointSectXCallBack, %function
PWMC_RegisterSampPointSectXCallBack:
.LVL143:
.LFB1467:
	.loc 1 1011 1 is_stmt 1 view -0
	.cfi_startproc
	@ args = 0, pretend = 0, frame = 0
	@ frame_needed = 0, uses_anonymous_args = 0
	@ link register save eliminated.
	.loc 1 1020 5 view .LVU527
	.loc 1 1020 39 is_stmt 0 view .LVU528
	str	r0, [r1, #20]
	.loc 1 1024 1 view .LVU529
	bx	lr
	.cfi_endproc
.LFE1467:
	.size	PWMC_RegisterSampPointSectXCallBack, .-PWMC_RegisterSampPointSectXCallBack
	.section	.text.PWMC_RegisterOCPSetRefVoltageCallBack,"ax",%progbits
	.align	1
	.p2align 2,,3
	.weak	PWMC_RegisterOCPSetRefVoltageCallBack
	.syntax unified
	.thumb
	.thumb_func
	.fpu fpv4-sp-d16
	.type	PWMC_RegisterOCPSetRefVoltageCallBack, %function
PWMC_RegisterOCPSetRefVoltageCallBack:
.LVL144:
.LFB1468:
	.loc 1 1034 1 is_stmt 1 view -0
	.cfi_startproc
	@ args = 0, pretend = 0, frame = 0
	@ frame_needed = 0, uses_anonymous_args = 0
	@ link register save eliminated.
	.loc 1 1043 5 view .LVU531
	.loc 1 1043 41 is_stmt 0 view .LVU532
	str	r0, [r1, #24]
	.loc 1 1047 1 view .LVU533
	bx	lr
	.cfi_endproc
.LFE1468:
	.size	PWMC_RegisterOCPSetRefVoltageCallBack, .-PWMC_RegisterOCPSetRefVoltageCallBack
	.section	.text.PWMC_RegisterRLDetectionModeEnableCallBack,"ax",%progbits
	.align	1
	.p2align 2,,3
	.weak	PWMC_RegisterRLDetectionModeEnableCallBack
	.syntax unified
	.thumb
	.thumb_func
	.fpu fpv4-sp-d16
	.type	PWMC_RegisterRLDetectionModeEnableCallBack, %function
PWMC_RegisterRLDetectionModeEnableCallBack:
.LVL145:
.LFB1469:
	.loc 1 1056 1 is_stmt 1 view -0
	.cfi_startproc
	@ args = 0, pretend = 0, frame = 0
	@ frame_needed = 0, uses_anonymous_args = 0
	@ link register save eliminated.
	.loc 1 1065 5 view .LVU535
	.loc 1 1065 40 is_stmt 0 view .LVU536
	str	r0, [r1, #28]
	.loc 1 1069 1 view .LVU537
	bx	lr
	.cfi_endproc
.LFE1469:
	.size	PWMC_RegisterRLDetectionModeEnableCallBack, .-PWMC_RegisterRLDetectionModeEnableCallBack
	.section	.text.PWMC_RegisterRLDetectionModeDisableCallBack,"ax",%progbits
	.align	1
	.p2align 2,,3
	.weak	PWMC_RegisterRLDetectionModeDisableCallBack
	.syntax unified
	.thumb
	.thumb_func
	.fpu fpv4-sp-d16
	.type	PWMC_RegisterRLDetectionModeDisableCallBack, %function
PWMC_RegisterRLDetectionModeDisableCallBack:
.LVL146:
.LFB1470:
	.loc 1 1078 1 is_stmt 1 view -0
	.cfi_startproc
	@ args = 0, pretend = 0, frame = 0
	@ frame_needed = 0, uses_anonymous_args = 0
	@ link register save eliminated.
	.loc 1 1087 5 view .LVU539
	.loc 1 1087 41 is_stmt 0 view .LVU540
	str	r0, [r1, #32]
	.loc 1 1091 1 view .LVU541
	bx	lr
	.cfi_endproc
.LFE1470:
	.size	PWMC_RegisterRLDetectionModeDisableCallBack, .-PWMC_RegisterRLDetectionModeDisableCallBack
	.section	.text.PWMC_RegisterRLDetectionModeSetDutyCallBack,"ax",%progbits
	.align	1
	.p2align 2,,3
	.weak	PWMC_RegisterRLDetectionModeSetDutyCallBack
	.syntax unified
	.thumb
	.thumb_func
	.fpu fpv4-sp-d16
	.type	PWMC_RegisterRLDetectionModeSetDutyCallBack, %function
PWMC_RegisterRLDetectionModeSetDutyCallBack:
.LVL147:
.LFB1471:
	.loc 1 1101 1 is_stmt 1 view -0
	.cfi_startproc
	@ args = 0, pretend = 0, frame = 0
	@ frame_needed = 0, uses_anonymous_args = 0
	@ link register save eliminated.
	.loc 1 1110 5 view .LVU543
	.loc 1 1110 41 is_stmt 0 view .LVU544
	str	r0, [r1, #36]
	.loc 1 1114 1 view .LVU545
	bx	lr
	.cfi_endproc
.LFE1471:
	.size	PWMC_RegisterRLDetectionModeSetDutyCallBack, .-PWMC_RegisterRLDetectionModeSetDutyCallBack
	.text
.Letext0:
	.file 3 "/usr/share/gcc-arm-none-eabi-10-2020-q4-major/arm-none-eabi/include/machine/_default_types.h"
	.file 4 "/usr/share/gcc-arm-none-eabi-10-2020-q4-major/arm-none-eabi/include/sys/_stdint.h"
	.file 5 "Drivers/CMSIS/Device/ST/STM32G4xx/Include/stm32g431xx.h"
	.file 6 "Drivers/STM32G4xx_HAL_Driver/Inc/stm32g4xx_ll_tim.h"
	.file 7 "Drivers/STM32G4xx_HAL_Driver/Inc/stm32g4xx_ll_usart.h"
	.file 8 "Drivers/STM32G4xx_HAL_Driver/Inc/stm32g4xx_ll_dma.h"
	.file 9 "Inc/mc_type.h"
	.file 10 "Inc/pwm_curr_fdbk.h"
	.file 11 "Inc/mc_math.h"