	.cpu cortex-m4
	.eabi_attribute 27, 1
	.eabi_attribute 28, 1
	.eabi_attribute 20, 1
	.eabi_attribute 21, 1
	.eabi_attribute 23, 3
	.eabi_attribute 24, 1
	.eabi_attribute 25, 1
	.eabi_attribute 26, 1
	.eabi_attribute 30, 2
	.eabi_attribute 34, 1
	.eabi_attribute 18, 4
	.file	"r3_2_g4xx_pwm_curr_fdbk.c"
	.text
.Ltext0:
	.cfi_sections	.debug_frame
	.section	.text.R3_2_ADCxInit,"ax",%progbits
	.align	1
	.p2align 2,,3
	.arch armv7e-m
	.syntax unified
	.thumb
	.thumb_func
	.fpu fpv4-sp-d16
	.type	R3_2_ADCxInit, %function
R3_2_ADCxInit:
.LVL0:
.LFB1439:
	.file 1 "MCSDK_v6.3.2-Full/MotorControl/MCSDK/MCLib/G4xx/Src/r3_2_g4xx_pwm_curr_fdbk.c"
	.loc 1 256 1 view -0
	.cfi_startproc
	@ args = 0, pretend = 0, frame = 8
	@ frame_needed = 0, uses_anonymous_args = 0
	@ link register save eliminated.
	.loc 1 258 3 view .LVU1
.LBB447:
.LBI447:
	.file 2 "Drivers/STM32G4xx_HAL_Driver/Inc/stm32g4xx_ll_adc.h"
	.loc 2 7621 22 view .LVU2
.LBB448:
	.loc 2 7626 3 view .LVU3
	ldr	r3, [r0, #8]
	bic	r3, r3, #-1610612736
	bic	r3, r3, #63
	str	r3, [r0, #8]
.LVL1:
	.loc 2 7626 3 is_stmt 0 view .LVU4
.LBE448:
.LBE447:
	.loc 1 260 3 is_stmt 1 view .LVU5
.LBB449:
.LBI449:
	.loc 2 7684 26 view .LVU6
.LBB450:
	.loc 2 7686 3 view .LVU7
	.loc 2 7686 12 is_stmt 0 view .LVU8
	ldr	r3, [r0, #8]
	.loc 2 7686 76 view .LVU9
	lsls	r1, r3, #3
.LBE450:
.LBE449:
	.loc 1 256 1 view .LVU10
	sub	sp, sp, #8
.LCFI0:
	.cfi_def_cfa_offset 8
.LBB452:
.LBB451:
	.loc 2 7686 76 view .LVU11
	bmi	.L2
.LVL2:
	.loc 2 7686 76 view .LVU12
.LBE451:
.LBE452:
.LBB453:
	.loc 1 263 5 is_stmt 1 view .LVU13
.LBB454:
.LBI454:
	.loc 2 7654 22 view .LVU14
.LBB455:
	.loc 2 7659 3 view .LVU15
.LBE455:
.LBE454:
	.loc 1 270 61 is_stmt 0 view .LVU16
	ldr	r3, .L16
.LBB460:
.LBB456:
	.loc 2 7659 3 view .LVU17
	ldr	r2, [r0, #8]
.LBE456:
.LBE460:
	.loc 1 270 61 view .LVU18
	ldr	r3, [r3]
	ldr	r1, .L16+4
	lsrs	r3, r3, #6
.LBB461:
.LBB457:
	.loc 2 7659 3 view .LVU19
	bic	r2, r2, #-1879048192
.LBE457:
.LBE461:
	.loc 1 270 61 view .LVU20
	umull	r1, r3, r1, r3
.LBB462:
.LBB458:
	.loc 2 7659 3 view .LVU21
	bic	r2, r2, #63
.LBE458:
.LBE462:
	.loc 1 270 61 view .LVU22
	lsrs	r3, r3, #6
	.loc 1 270 42 view .LVU23
	lsls	r3, r3, #1
.LBB463:
.LBB459:
	.loc 2 7659 3 view .LVU24
	orr	r2, r2, #268435456
	str	r2, [r0, #8]
.LVL3:
	.loc 2 7659 3 view .LVU25
.LBE459:
.LBE463:
	.loc 1 269 5 is_stmt 1 view .LVU26
	.loc 1 269 23 is_stmt 0 view .LVU27
	str	r3, [sp, #4]
	.loc 1 271 5 is_stmt 1 view .LVU28
	.loc 1 271 11 view .LVU29
	.loc 1 271 28 is_stmt 0 view .LVU30
	ldr	r3, [sp, #4]
	.loc 1 271 11 view .LVU31
	cbz	r3, .L2
.L3:
	.loc 1 273 7 is_stmt 1 view .LVU32
	.loc 1 273 22 is_stmt 0 view .LVU33
	ldr	r3, [sp, #4]
	subs	r3, r3, #1
	str	r3, [sp, #4]
	.loc 1 271 11 is_stmt 1 view .LVU34
	.loc 1 271 28 is_stmt 0 view .LVU35
	ldr	r3, [sp, #4]
	.loc 1 271 11 view .LVU36
	cmp	r3, #0
	bne	.L3
.L2:
.LBE453:
	.loc 1 279 3 is_stmt 1 view .LVU37
	.loc 1 281 3 view .LVU38
.LVL4:
.LBB464:
.LBI464:
	.loc 2 7783 22 view .LVU39
.LBB465:
	.loc 2 7788 3 view .LVU40
	ldr	r3, [r0, #8]
	bic	r3, r3, #-1073741824
	bic	r3, r3, #63
	orr	r3, r3, #-2147483648
	str	r3, [r0, #8]
.LVL5:
.L4:
	.loc 2 7788 3 is_stmt 0 view .LVU41
.LBE465:
.LBE464:
	.loc 1 285 3 is_stmt 1 discriminator 1 view .LVU42
	.loc 1 282 9 discriminator 1 view .LVU43
.LBB466:
.LBI466:
	.loc 2 7799 26 discriminator 1 view .LVU44
.LBB467:
	.loc 2 7801 3 discriminator 1 view .LVU45
	.loc 2 7801 12 is_stmt 0 discriminator 1 view .LVU46
	ldr	r3, [r0, #8]
	.loc 2 7801 70 discriminator 1 view .LVU47
	cmp	r3, #0
	blt	.L4
.LVL6:
	.loc 2 7801 70 discriminator 1 view .LVU48
.LBE467:
.LBE466:
	.loc 1 291 9 is_stmt 1 view .LVU49
.LBB468:
.LBI468:
	.loc 2 8264 26 view .LVU50
.LBB469:
	.loc 2 8266 3 view .LVU51
	.loc 2 8266 12 is_stmt 0 view .LVU52
	ldr	r3, [r0]
.LVL7:
	.loc 2 8266 12 view .LVU53
.LBE469:
.LBE468:
	.loc 1 291 9 view .LVU54
	lsls	r2, r3, #31
	bmi	.L5
.LBB471:
.LBB472:
	.loc 2 7710 3 view .LVU55
	ldr	r2, .L16+8
.L6:
.LBE472:
.LBE471:
	.loc 1 293 5 is_stmt 1 view .LVU56
.LVL8:
.LBB474:
.LBI471:
	.loc 2 7705 22 view .LVU57
.LBB473:
	.loc 2 7710 3 view .LVU58
	ldr	r3, [r0, #8]
	ands	r3, r3, r2
	orr	r3, r3, #1
	str	r3, [r0, #8]
.LVL9:
	.loc 2 7710 3 is_stmt 0 view .LVU59
.LBE473:
.LBE474:
	.loc 1 291 9 is_stmt 1 view .LVU60
.LBB475:
	.loc 2 8264 26 view .LVU61
.LBB470:
	.loc 2 8266 3 view .LVU62
	.loc 2 8266 12 is_stmt 0 view .LVU63
	ldr	r3, [r0]
.LVL10:
	.loc 2 8266 12 view .LVU64
.LBE470:
.LBE475:
	.loc 1 291 9 view .LVU65
	lsls	r3, r3, #31
	bpl	.L6
.L5:
	.loc 1 296 3 is_stmt 1 view .LVU66
.LVL11:
.LBB476:
.LBI476:
	.loc 2 8056 22 view .LVU67
.LBB477:
	.loc 2 8061 3 view .LVU68
	ldr	r2, [r0, #8]
	ldr	r1, .L16+8
	ands	r2, r2, r1
	orr	r2, r2, #8
	str	r2, [r0, #8]
.LVL12:
	.loc 2 8061 3 is_stmt 0 view .LVU69
.LBE477:
.LBE476:
	.loc 1 297 3 is_stmt 1 view .LVU70
.LBB478:
.LBI478:
	.loc 2 8076 22 view .LVU71
.LBB479:
	.loc 2 8081 3 view .LVU72
	ldr	r2, [r0, #8]
	ands	r2, r2, r1
	orr	r2, r2, #32
	str	r2, [r0, #8]
.LVL13:
	.loc 2 8081 3 is_stmt 0 view .LVU73
.LBE479:
.LBE478:
	.loc 1 299 3 is_stmt 1 view .LVU74
.LBB480:
.LBI480:
	.loc 2 5873 22 view .LVU75
.LBB481:
	.loc 2 5875 3 view .LVU76
	ldr	r3, [r0, #12]
	bic	r3, r3, #-2147483648
	bic	r3, r3, #2097152
	orr	r3, r3, #2097152
	str	r3, [r0, #12]
.LVL14:
	.loc 2 5875 3 is_stmt 0 view .LVU77
.LBE481:
.LBE480:
	.loc 1 303 3 is_stmt 1 view .LVU78
.LBB482:
.LBI482:
	.loc 2 4828 22 view .LVU79
.LBB483:
	.loc 2 4830 3 view .LVU80
	ldr	r3, [r0, #48]
	bic	r3, r3, #15
	str	r3, [r0, #48]
.LVL15:
	.loc 2 4830 3 is_stmt 0 view .LVU81
.LBE483:
.LBE482:
	.loc 1 304 3 is_stmt 1 view .LVU82
.LBB484:
.LBI484:
	.loc 2 7830 22 view .LVU83
.LBB485:
	.loc 2 7835 3 view .LVU84
	ldr	r3, [r0, #8]
	ands	r3, r3, r1
	orr	r3, r3, #4
	str	r3, [r0, #8]
.LVL16:
	.loc 2 7835 3 is_stmt 0 view .LVU85
.LBE485:
.LBE484:
	.loc 1 305 1 view .LVU86
	add	sp, sp, #8
.LCFI1:
	.cfi_def_cfa_offset 0
	@ sp needed
	bx	lr
.L17:
	.align	2
.L16:
	.word	SystemCoreClock
	.word	87960931
	.word	2147483584
	.cfi_endproc
.LFE1439:
	.size	R3_2_ADCxInit, .-R3_2_ADCxInit
	.section	.text.R3_2_GetPhaseCurrents,"ax",%progbits
	.align	1
	.p2align 2,,3
	.weak	R3_2_GetPhaseCurrents
	.syntax unified
	.thumb
	.thumb_func
	.fpu fpv4-sp-d16
	.type	R3_2_GetPhaseCurrents, %function
R3_2_GetPhaseCurrents:
.LVL17:
.LFB1444:
	.loc 1 570 1 is_stmt 1 view -0
	.cfi_startproc
	@ args = 0, pretend = 0, frame = 0
	@ frame_needed = 0, uses_anonymous_args = 0
	@ link register save eliminated.
	.loc 1 579 5 view .LVU88
	.loc 1 580 5 view .LVU89
	.loc 1 581 5 view .LVU90
	.loc 1 582 5 view .LVU91
	.loc 1 583 5 view .LVU92
	.loc 1 583 32 is_stmt 0 view .LVU93
	ldr	r3, [r0, #156]
	.loc 1 586 12 view .LVU94
	ldrb	r2, [r0, #122]	@ zero_extendqisi2
	.loc 1 570 1 view .LVU95
	push	{r4, r5, r6}
.LCFI2:
	.cfi_def_cfa_offset 12
	.cfi_offset 4, -12
	.cfi_offset 5, -8
	.cfi_offset 6, -4
	.loc 1 583 18 view .LVU96
	ldr	r4, [r3]
.LVL18:
	.loc 1 584 5 is_stmt 1 view .LVU97
	.loc 1 586 5 view .LVU98
	.loc 1 587 5 view .LVU99
	add	r3, r3, r2, lsl #2
	.loc 1 587 52 is_stmt 0 view .LVU100
	ldr	r5, [r3, #56]
	.loc 1 588 52 view .LVU101
	ldr	r3, [r3, #80]
	.loc 1 587 17 view .LVU102
	ldr	r5, [r5, #128]
.LVL19:
	.loc 1 588 5 is_stmt 1 view .LVU103
	.loc 1 588 17 is_stmt 0 view .LVU104
	ldr	r6, [r3, #128]
.LVL20:
	.loc 1 592 5 is_stmt 1 view .LVU105
.LBB486:
.LBI486:
	.file 3 "Drivers/STM32G4xx_HAL_Driver/Inc/stm32g4xx_ll_tim.h"
	.loc 3 4007 22 view .LVU106
.LBB487:
	.loc 3 4009 3 view .LVU107
	ldr	r3, [r4, #4]
	bic	r3, r3, #33554432
	bic	r3, r3, #112
	str	r3, [r4, #4]
.LVL21:
	.loc 3 4009 3 is_stmt 0 view .LVU108
.LBE487:
.LBE486:
	.loc 1 594 5 is_stmt 1 view .LVU109
	cmp	r2, #5
	bhi	.L19
	tbb	[pc, r2]
.L21:
	.byte	(.L20-.L21)/2
	.byte	(.L23-.L21)/2
	.byte	(.L23-.L21)/2
	.byte	(.L22-.L21)/2
	.byte	(.L22-.L21)/2
	.byte	(.L20-.L21)/2
	.p2align 1
.L22:
	.loc 1 601 9 view .LVU110
	.loc 1 601 13 is_stmt 0 view .LVU111
	ldr	r4, [r0, #136]
.LVL22:
	.loc 1 604 12 view .LVU112
	ldr	r3, .L44
	.loc 1 601 13 view .LVU113
	subs	r4, r4, r5
.LVL23:
	.loc 1 604 9 is_stmt 1 view .LVU114
	.loc 1 604 12 is_stmt 0 view .LVU115
	cmp	r4, r3
	bge	.L25
.L41:
	.loc 1 610 18 view .LVU116
	strh	r3, [r1]	@ movhi
.L26:
	.loc 1 618 9 is_stmt 1 view .LVU117
	.loc 1 618 13 is_stmt 0 view .LVU118
	ldr	r2, [r0, #140]
.LVL24:
	.loc 1 621 12 view .LVU119
	ldr	r5, .L44
.LVL25:
	.loc 1 618 13 view .LVU120
	subs	r2, r2, r6
.LVL26:
	.loc 1 621 9 is_stmt 1 view .LVU121
	.loc 1 621 12 is_stmt 0 view .LVU122
	cmp	r2, r5
	bge	.L28
	.loc 1 623 11 is_stmt 1 view .LVU123
	.loc 1 722 29 is_stmt 0 view .LVU124
	ldrsh	ip, [r1]
	.loc 1 623 18 view .LVU125
	strh	r5, [r1, #2]	@ movhi
	.loc 1 724 30 view .LVU126
	uxth	r3, ip
	movw	r2, #32769
.LVL27:
.L24:
	.loc 1 722 5 is_stmt 1 view .LVU127
	.loc 1 724 34 is_stmt 0 view .LVU128
	add	r3, r3, r2
	rsbs	r3, r3, #0
	.loc 1 723 24 view .LVU129
	strh	r5, [r0, #100]	@ movhi
	.loc 1 722 24 view .LVU130
	strh	ip, [r0, #98]	@ movhi
	.loc 1 723 5 is_stmt 1 view .LVU131
	.loc 1 724 5 view .LVU132
	.loc 1 728 1 is_stmt 0 view .LVU133
	pop	{r4, r5, r6}
.LCFI3:
	.cfi_remember_state
	.cfi_restore 6
	.cfi_restore 5
	.cfi_restore 4
	.cfi_def_cfa_offset 0
	.loc 1 724 24 view .LVU134
	strh	r3, [r0, #102]	@ movhi
	.loc 1 728 1 view .LVU135
	bx	lr
.LVL28:
.L23:
.LCFI4:
	.cfi_restore_state
	.loc 1 682 9 is_stmt 1 view .LVU136
	.loc 1 682 13 is_stmt 0 view .LVU137
	ldr	r4, [r0, #136]
.LVL29:
	.loc 1 685 12 view .LVU138
	ldr	r3, .L44
	.loc 1 682 13 view .LVU139
	subs	r4, r4, r5
.LVL30:
	.loc 1 685 9 is_stmt 1 view .LVU140
	.loc 1 685 12 is_stmt 0 view .LVU141
	cmp	r4, r3
	blt	.L42
	.loc 1 689 15 is_stmt 1 view .LVU142
	.loc 1 689 18 is_stmt 0 view .LVU143
	cmp	r4, #32768
	blt	.L37
	.loc 1 691 11 is_stmt 1 view .LVU144
	.loc 1 691 18 is_stmt 0 view .LVU145
	movw	r2, #32767
.LVL31:
	.loc 1 691 18 view .LVU146
	mov	r3, r2
	strh	r2, [r1]	@ movhi
	mov	r4, r2
.LVL32:
	.loc 1 691 18 view .LVU147
	mov	ip, r2
.L36:
	.loc 1 699 9 is_stmt 1 view .LVU148
	.loc 1 699 13 is_stmt 0 view .LVU149
	ldr	r2, [r0, #144]
	subs	r2, r6, r2
.LVL33:
	.loc 1 700 9 is_stmt 1 view .LVU150
	.loc 1 700 13 is_stmt 0 view .LVU151
	subs	r2, r2, r4
.LVL34:
	.loc 1 703 9 is_stmt 1 view .LVU152
	.loc 1 703 12 is_stmt 0 view .LVU153
	cmp	r2, #32768
	blt	.L38
	.loc 1 705 11 is_stmt 1 view .LVU154
	.loc 1 705 18 is_stmt 0 view .LVU155
	movw	r2, #32767
.LVL35:
	.loc 1 705 18 view .LVU156
	strh	r2, [r1, #2]	@ movhi
	mov	r5, r2
.LVL36:
	.loc 1 705 18 view .LVU157
	b	.L24
.LVL37:
.L20:
	.loc 1 641 9 is_stmt 1 view .LVU158
	.loc 1 641 13 is_stmt 0 view .LVU159
	ldr	r4, [r0, #140]
.LVL38:
	.loc 1 644 12 view .LVU160
	ldr	r3, .L44
	.loc 1 641 13 view .LVU161
	subs	r4, r4, r5
.LVL39:
	.loc 1 644 9 is_stmt 1 view .LVU162
	.loc 1 644 12 is_stmt 0 view .LVU163
	cmp	r4, r3
	blt	.L43
	.loc 1 648 15 is_stmt 1 view .LVU164
	.loc 1 648 18 is_stmt 0 view .LVU165
	cmp	r4, #32768
	blt	.L32
	.loc 1 650 11 is_stmt 1 view .LVU166
	.loc 1 650 18 is_stmt 0 view .LVU167
	movw	r3, #32767
	mov	r2, r3
.LVL40:
	.loc 1 650 18 view .LVU168
	strh	r3, [r1, #2]	@ movhi
	mov	r4, r3
.LVL41:
	.loc 1 650 18 view .LVU169
	mov	r5, r3
.LVL42:
.L31:
	.loc 1 658 9 is_stmt 1 view .LVU170
	.loc 1 658 13 is_stmt 0 view .LVU171
	ldr	r3, [r0, #144]
	subs	r3, r6, r3
.LVL43:
	.loc 1 659 9 is_stmt 1 view .LVU172
	.loc 1 659 13 is_stmt 0 view .LVU173
	subs	r4, r3, r4
.LVL44:
	.loc 1 662 9 is_stmt 1 view .LVU174
	.loc 1 662 12 is_stmt 0 view .LVU175
	cmp	r4, #32768
	blt	.L33
	.loc 1 664 11 is_stmt 1 view .LVU176
	.loc 1 664 18 is_stmt 0 view .LVU177
	movw	r3, #32767
	strh	r3, [r1]	@ movhi
	mov	ip, r3
	b	.L24
.LVL45:
.L43:
	.loc 1 646 11 is_stmt 1 view .LVU178
	.loc 1 646 18 is_stmt 0 view .LVU179
	strh	r3, [r1, #2]	@ movhi
	mov	r4, r3
.LVL46:
	.loc 1 646 18 view .LVU180
	movw	r2, #32769
.LVL47:
	.loc 1 646 18 view .LVU181
	mov	r5, r3
.LVL48:
	.loc 1 646 18 view .LVU182
	b	.L31
.LVL49:
.L42:
	.loc 1 687 11 is_stmt 1 view .LVU183
	mov	r4, r3
.LVL50:
	.loc 1 687 18 is_stmt 0 view .LVU184
	strh	r3, [r1]	@ movhi
	mov	ip, r4
	movw	r3, #32769
	b	.L36
.LVL51:
.L25:
	.loc 1 608 15 is_stmt 1 view .LVU185
	.loc 1 608 18 is_stmt 0 view .LVU186
	cmp	r4, #32768
	blt	.L27
	.loc 1 610 11 is_stmt 1 view .LVU187
	.loc 1 610 18 is_stmt 0 view .LVU188
	movw	r3, #32767
	b	.L41
.LVL52:
.L28:
	.loc 1 625 15 is_stmt 1 view .LVU189
	.loc 1 625 18 is_stmt 0 view .LVU190
	cmp	r2, #32768
	blt	.L29
	.loc 1 627 11 is_stmt 1 view .LVU191
	.loc 1 627 18 is_stmt 0 view .LVU192
	movw	r3, #32767
	.loc 1 722 29 view .LVU193
	ldrsh	ip, [r1]
	.loc 1 627 18 view .LVU194
	strh	r3, [r1, #2]	@ movhi
	mov	r2, r3
.LVL53:
	.loc 1 627 18 view .LVU195
	mov	r5, r2
	.loc 1 724 30 view .LVU196
	uxth	r3, ip
	b	.L24
.LVL54:
.L33:
	.loc 1 666 15 is_stmt 1 view .LVU197
	.loc 1 666 18 is_stmt 0 view .LVU198
	ldr	r6, .L44
.LVL55:
	.loc 1 666 18 view .LVU199
	cmp	r4, r6
	bge	.L34
	.loc 1 668 11 is_stmt 1 view .LVU200
	.loc 1 668 18 is_stmt 0 view .LVU201
	strh	r6, [r1]	@ movhi
	movw	r3, #32769
	mov	ip, r6
	b	.L24
.LVL56:
.L38:
	.loc 1 707 15 is_stmt 1 view .LVU202
	.loc 1 707 18 is_stmt 0 view .LVU203
	ldr	r5, .L44
.LVL57:
	.loc 1 707 18 view .LVU204
	cmp	r2, r5
	bge	.L39
	.loc 1 709 11 is_stmt 1 view .LVU205
	.loc 1 709 18 is_stmt 0 view .LVU206
	strh	r5, [r1, #2]	@ movhi
	movw	r2, #32769
.LVL58:
	.loc 1 709 18 view .LVU207
	b	.L24
.LVL59:
.L27:
	.loc 1 614 11 is_stmt 1 view .LVU208
	.loc 1 614 20 is_stmt 0 view .LVU209
	strh	r4, [r1]	@ movhi
	b	.L26
.LVL60:
.L39:
	.loc 1 713 11 is_stmt 1 view .LVU210
	.loc 1 713 20 is_stmt 0 view .LVU211
	sxth	r5, r2
	.loc 1 713 18 view .LVU212
	strh	r5, [r1, #2]	@ movhi
	.loc 1 724 39 view .LVU213
	uxth	r2, r2
.LVL61:
	.loc 1 724 39 view .LVU214
	b	.L24
.LVL62:
.L32:
	.loc 1 654 11 is_stmt 1 view .LVU215
	.loc 1 654 20 is_stmt 0 view .LVU216
	sxth	r5, r4
.LVL63:
	.loc 1 654 18 view .LVU217
	strh	r5, [r1, #2]	@ movhi
	.loc 1 724 39 view .LVU218
	uxth	r2, r4
.LVL64:
	.loc 1 724 39 view .LVU219
	b	.L31
.LVL65:
.L29:
	.loc 1 631 11 is_stmt 1 view .LVU220
	.loc 1 722 29 is_stmt 0 view .LVU221
	ldrsh	ip, [r1]
	.loc 1 631 20 view .LVU222
	sxth	r5, r2
	.loc 1 631 18 view .LVU223
	strh	r5, [r1, #2]	@ movhi
	.loc 1 724 30 view .LVU224
	uxth	r3, ip
	.loc 1 724 39 view .LVU225
	uxth	r2, r2
.LVL66:
	.loc 1 724 39 view .LVU226
	b	.L24
.LVL67:
.L37:
	.loc 1 695 11 is_stmt 1 view .LVU227
	.loc 1 695 20 is_stmt 0 view .LVU228
	sxth	ip, r4
	.loc 1 695 18 view .LVU229
	strh	ip, [r1]	@ movhi
	.loc 1 724 30 view .LVU230
	uxth	r3, r4
	b	.L36
.LVL68:
.L34:
	.loc 1 672 11 is_stmt 1 view .LVU231
	.loc 1 672 20 is_stmt 0 view .LVU232
	sxth	ip, r4
	.loc 1 672 18 view .LVU233
	strh	ip, [r1]	@ movhi
	.loc 1 724 30 view .LVU234
	uxth	r3, r4
	b	.L24
.LVL69:
.L19:
	.loc 1 722 29 view .LVU235
	ldrsh	ip, [r1]
	.loc 1 723 29 view .LVU236
	ldrsh	r5, [r1, #2]
.LVL70:
	.loc 1 724 30 view .LVU237
	ldrh	r3, [r1]
	.loc 1 724 39 view .LVU238
	ldrh	r2, [r1, #2]
.LVL71:
	.loc 1 724 39 view .LVU239
	b	.L24
.L45:
	.align	2
.L44:
	.word	-32767
	.cfi_endproc
.LFE1444:
	.size	R3_2_GetPhaseCurrents, .-R3_2_GetPhaseCurrents
	.section	.text.R3_2_SetADCSampPointPolarization,"ax",%progbits
	.align	1
	.p2align 2,,3
	.global	R3_2_SetADCSampPointPolarization
	.syntax unified
	.thumb
	.thumb_func
	.fpu fpv4-sp-d16
	.type	R3_2_SetADCSampPointPolarization, %function
R3_2_SetADCSampPointPolarization:
.LVL72:
.LFB1446:
	.loc 1 1079 1 is_stmt 1 view -0
	.cfi_startproc
	@ args = 0, pretend = 0, frame = 0
	@ frame_needed = 0, uses_anonymous_args = 0
	@ link register save eliminated.
	.loc 1 1080 3 view .LVU241
	.loc 1 1081 3 view .LVU242
	.loc 1 1079 1 is_stmt 0 view .LVU243
	push	{r4}
.LCFI5:
	.cfi_def_cfa_offset 4
	.cfi_offset 4, -4
.LBB488:
.LBB489:
	.loc 1 1264 16 view .LVU244
	ldr	r3, [r0, #156]
.LBE489:
.LBE488:
	.loc 1 1081 26 view .LVU245
	ldrb	r4, [r0, #153]	@ zero_extendqisi2
	strb	r4, [r0, #122]
	.loc 1 1083 3 is_stmt 1 view .LVU246
	.loc 1 1083 10 is_stmt 0 view .LVU247
	ldrh	r2, [r0, #148]
.LBB506:
.LBB502:
	.loc 1 1264 16 view .LVU248
	ldr	r3, [r3]
	.loc 1 1267 3 view .LVU249
	ldrh	r4, [r0, #80]
.LBB490:
.LBB491:
	.loc 3 3219 3 view .LVU250
	str	r4, [r3, #52]
.LBE491:
.LBE490:
.LBE502:
.LBE506:
	.loc 1 1083 10 view .LVU251
	subs	r2, r2, #1
.LBB507:
.LBB503:
	.loc 1 1268 3 view .LVU252
	ldrh	r4, [r0, #82]
	.loc 1 1269 3 view .LVU253
	ldrh	r0, [r0, #84]
.LVL73:
.LBB493:
.LBB494:
	.loc 3 3237 3 view .LVU254
	str	r4, [r3, #56]
.LBE494:
.LBE493:
.LBE503:
.LBE507:
	.loc 1 1083 10 view .LVU255
	uxth	r2, r2
.LVL74:
.LBB508:
.LBI488:
	.loc 1 1261 26 is_stmt 1 view .LVU256
.LBB504:
	.loc 1 1263 3 view .LVU257
	.loc 1 1264 3 view .LVU258
	.loc 1 1265 3 view .LVU259
	.loc 1 1267 3 view .LVU260
.LBB496:
.LBI490:
	.loc 3 3217 22 view .LVU261
.LBB492:
	.loc 3 3219 3 view .LVU262
	.loc 3 3219 3 is_stmt 0 view .LVU263
.LBE492:
.LBE496:
	.loc 1 1268 3 is_stmt 1 view .LVU264
.LBB497:
.LBI493:
	.loc 3 3235 22 view .LVU265
.LBB495:
	.loc 3 3237 3 view .LVU266
	.loc 3 3237 3 is_stmt 0 view .LVU267
.LBE495:
.LBE497:
	.loc 1 1269 3 is_stmt 1 view .LVU268
.LBB498:
.LBI498:
	.loc 3 3253 22 view .LVU269
.LBB499:
	.loc 3 3255 3 view .LVU270
	str	r0, [r3, #60]
.LVL75:
	.loc 3 3255 3 is_stmt 0 view .LVU271
.LBE499:
.LBE498:
	.loc 1 1270 3 is_stmt 1 view .LVU272
.LBB500:
.LBI500:
	.loc 3 3271 22 view .LVU273
.LBB501:
	.loc 3 3273 3 view .LVU274
	str	r2, [r3, #64]
.LVL76:
	.loc 3 3273 3 is_stmt 0 view .LVU275
.LBE501:
.LBE500:
	.loc 1 1274 3 is_stmt 1 view .LVU276
	.loc 1 1274 20 is_stmt 0 view .LVU277
	ldr	r1, .L48
	.loc 1 1274 13 view .LVU278
	ldr	r3, [r3, #4]
.LVL77:
	.loc 1 1282 3 is_stmt 1 view .LVU279
	.loc 1 1282 3 is_stmt 0 view .LVU280
.LBE504:
.LBE508:
	.loc 1 1084 1 view .LVU281
	ldr	r4, [sp], #4
.LCFI6:
	.cfi_restore 4
	.cfi_def_cfa_offset 0
.LBB509:
.LBB505:
	.loc 1 1274 6 view .LVU282
	tst	r3, r1
.LBE505:
.LBE509:
	.loc 1 1084 1 view .LVU283
	ite	ne
	movne	r0, #1
	moveq	r0, #0
	bx	lr
.L49:
	.align	2
.L48:
	.word	33554544
	.cfi_endproc
.LFE1446:
	.size	R3_2_SetADCSampPointPolarization, .-R3_2_SetADCSampPointPolarization
	.section	.text.R3_2_HFCurrentsPolarizationAB,"ax",%progbits
	.align	1
	.p2align 2,,3
	.syntax unified
	.thumb
	.thumb_func
	.fpu fpv4-sp-d16
	.type	R3_2_HFCurrentsPolarizationAB, %function
R3_2_HFCurrentsPolarizationAB:
.LVL78:
.LFB1450:
	.loc 1 1298 1 is_stmt 1 view -0
	.cfi_startproc
	@ args = 0, pretend = 0, frame = 0
	@ frame_needed = 0, uses_anonymous_args = 0
	@ link register save eliminated.
	.loc 1 1307 5 view .LVU285
	.loc 1 1308 5 view .LVU286
	.loc 1 1298 1 is_stmt 0 view .LVU287
	push	{r4, r5}
.LCFI7:
	.cfi_def_cfa_offset 8
	.cfi_offset 4, -8
	.cfi_offset 5, -4
	.loc 1 1308 32 view .LVU288
	ldr	r3, [r0, #156]
	ldrb	r4, [r0, #153]	@ zero_extendqisi2
	.loc 1 1308 18 view .LVU289
	ldr	r2, [r3]
.LVL79:
	.loc 1 1309 5 is_stmt 1 view .LVU290
	add	r3, r3, r4, lsl #2
	.loc 1 1309 61 is_stmt 0 view .LVU291
	ldr	r4, [r3, #56]
	.loc 1 1310 61 view .LVU292
	ldr	r5, [r3, #80]
	.loc 1 1309 14 view .LVU293
	ldr	r4, [r4, #128]
.LVL80:
	.loc 1 1310 5 is_stmt 1 view .LVU294
	.loc 1 1310 14 is_stmt 0 view .LVU295
	ldr	r5, [r5, #128]
.LVL81:
	.loc 1 1314 5 is_stmt 1 view .LVU296
.LBB510:
.LBI510:
	.loc 3 4007 22 view .LVU297
.LBB511:
	.loc 3 4009 3 view .LVU298
	ldr	r3, [r2, #4]
	bic	r3, r3, #33554432
	bic	r3, r3, #112
	str	r3, [r2, #4]
.LVL82:
	.loc 3 4009 3 is_stmt 0 view .LVU299
.LBE511:
.LBE510:
	.loc 1 1316 5 is_stmt 1 view .LVU300
	.loc 1 1316 16 is_stmt 0 view .LVU301
	ldrb	ip, [r0, #152]	@ zero_extendqisi2
	.loc 1 1316 8 view .LVU302
	cmp	ip, #15
	bhi	.L51
	.loc 1 1318 7 is_stmt 1 view .LVU303
	.loc 1 1318 30 is_stmt 0 view .LVU304
	ldr	r3, [r0, #136]
	.loc 1 1319 30 view .LVU305
	ldr	r2, [r0, #140]
.LVL83:
	.loc 1 1318 30 view .LVU306
	add	r4, r4, r3
.LVL84:
	.loc 1 1320 14 view .LVU307
	ldrb	r3, [r0, #152]	@ zero_extendqisi2
	.loc 1 1319 30 view .LVU308
	add	r2, r2, r5
	.loc 1 1320 35 view .LVU309
	adds	r3, r3, #1
	.loc 1 1319 30 view .LVU310
	strd	r4, r2, [r0, #136]
	.loc 1 1320 7 is_stmt 1 view .LVU311
	.loc 1 1320 35 is_stmt 0 view .LVU312
	uxtb	r3, r3
	strb	r3, [r0, #152]
.LVL85:
.L51:
	.loc 1 1325 5 is_stmt 1 view .LVU313
	.loc 1 1328 5 view .LVU314
	.loc 1 1329 5 view .LVU315
	.loc 1 1328 12 is_stmt 0 view .LVU316
	movs	r3, #0
	.loc 1 1333 1 view .LVU317
	pop	{r4, r5}
.LCFI8:
	.cfi_restore 5
	.cfi_restore 4
	.cfi_def_cfa_offset 0
.LVL86:
	.loc 1 1328 12 view .LVU318
	str	r3, [r1]	@ unaligned
	.loc 1 1333 1 view .LVU319
	bx	lr
	.cfi_endproc
.LFE1450:
	.size	R3_2_HFCurrentsPolarizationAB, .-R3_2_HFCurrentsPolarizationAB
	.section	.text.R3_2_HFCurrentsPolarizationC,"ax",%progbits
	.align	1
	.p2align 2,,3
	.syntax unified
	.thumb
	.thumb_func
	.fpu fpv4-sp-d16
	.type	R3_2_HFCurrentsPolarizationC, %function
R3_2_HFCurrentsPolarizationC:
.LVL87:
.LFB1451:
	.loc 1 1348 1 is_stmt 1 view -0
	.cfi_startproc
	@ args = 0, pretend = 0, frame = 0
	@ frame_needed = 0, uses_anonymous_args = 0
	@ link register save eliminated.
	.loc 1 1357 5 view .LVU321
	.loc 1 1358 5 view .LVU322
	.loc 1 1359 69 is_stmt 0 view .LVU323
	ldrb	r3, [r0, #153]	@ zero_extendqisi2
	.loc 1 1348 1 view .LVU324
	push	{r4}
.LCFI9:
	.cfi_def_cfa_offset 4
	.cfi_offset 4, -4
	.loc 1 1359 61 view .LVU325
	adds	r3, r3, #20
	.loc 1 1358 32 view .LVU326
	ldr	r4, [r0, #156]
	.loc 1 1358 18 view .LVU327
	ldr	r2, [r4]
.LVL88:
	.loc 1 1359 5 is_stmt 1 view .LVU328
	.loc 1 1359 61 is_stmt 0 view .LVU329
	ldr	r3, [r4, r3, lsl #2]
	.loc 1 1359 14 view .LVU330
	ldr	r4, [r3, #128]
.LVL89:
	.loc 1 1363 5 is_stmt 1 view .LVU331
.LBB512:
.LBI512:
	.loc 3 4007 22 view .LVU332
.LBB513:
	.loc 3 4009 3 view .LVU333
	ldr	r3, [r2, #4]
	bic	r3, r3, #33554432
	bic	r3, r3, #112
	str	r3, [r2, #4]
.LVL90:
	.loc 3 4009 3 is_stmt 0 view .LVU334
.LBE513:
.LBE512:
	.loc 1 1365 5 is_stmt 1 view .LVU335
	.loc 1 1365 16 is_stmt 0 view .LVU336
	ldrb	r3, [r0, #152]	@ zero_extendqisi2
	.loc 1 1365 8 view .LVU337
	cmp	r3, #15
	bhi	.L54
	.loc 1 1368 7 is_stmt 1 view .LVU338
	.loc 1 1369 14 is_stmt 0 view .LVU339
	ldrb	r3, [r0, #152]	@ zero_extendqisi2
	.loc 1 1368 30 view .LVU340
	ldr	r2, [r0, #144]
.LVL91:
	.loc 1 1369 35 view .LVU341
	adds	r3, r3, #1
	.loc 1 1368 30 view .LVU342
	add	r2, r2, r4
	.loc 1 1369 35 view .LVU343
	uxtb	r3, r3
	.loc 1 1368 30 view .LVU344
	str	r2, [r0, #144]
	.loc 1 1369 7 is_stmt 1 view .LVU345
	.loc 1 1369 35 is_stmt 0 view .LVU346
	strb	r3, [r0, #152]
.LVL92:
.L54:
	.loc 1 1374 5 is_stmt 1 view .LVU347
	.loc 1 1377 5 view .LVU348
	.loc 1 1378 5 view .LVU349
	.loc 1 1377 12 is_stmt 0 view .LVU350
	movs	r3, #0
	.loc 1 1382 1 view .LVU351
	ldr	r4, [sp], #4
.LCFI10:
	.cfi_restore 4
	.cfi_def_cfa_offset 0
.LVL93:
	.loc 1 1377 12 view .LVU352
	str	r3, [r1]	@ unaligned
	.loc 1 1382 1 view .LVU353
	bx	lr
	.cfi_endproc
.LFE1451:
	.size	R3_2_HFCurrentsPolarizationC, .-R3_2_HFCurrentsPolarizationC
	.section	.text.R3_2_SwitchOnPWM,"ax",%progbits
	.align	1
	.p2align 2,,3
	.weak	R3_2_SwitchOnPWM
	.syntax unified
	.thumb
	.thumb_func
	.fpu fpv4-sp-d16
	.type	R3_2_SwitchOnPWM, %function
R3_2_SwitchOnPWM:
.LVL94:
.LFB1453:
	.loc 1 1438 1 is_stmt 1 view -0
	.cfi_startproc
	@ args = 0, pretend = 0, frame = 0
	@ frame_needed = 0, uses_anonymous_args = 0
	.loc 1 1439 3 view .LVU355
	.loc 1 1440 3 view .LVU356
	.loc 1 1440 16 is_stmt 0 view .LVU357
	ldr	r3, [r0, #156]
	.loc 1 1447 51 view .LVU358
	ldrh	r2, [r0, #148]
	.loc 1 1440 16 view .LVU359
	ldr	r3, [r3]
.LVL95:
	.loc 1 1442 3 is_stmt 1 view .LVU360
	.loc 1 1442 29 is_stmt 0 view .LVU361
	mov	ip, #1
	.loc 1 1438 1 view .LVU362
	push	{r4, r5, lr}
.LCFI11:
	.cfi_def_cfa_offset 12
	.cfi_offset 4, -12
	.cfi_offset 5, -8
	.cfi_offset 14, -4
	.loc 1 1447 3 view .LVU363
	lsr	r1, r2, ip
	.loc 1 1444 40 view .LVU364
	mov	lr, #0
	strb	lr, [r0, #124]
	.loc 1 1442 29 view .LVU365
	strb	ip, [r0, #160]
	.loc 1 1444 3 is_stmt 1 view .LVU366
	.loc 1 1447 3 view .LVU367
.LVL96:
.LBB514:
.LBI514:
	.loc 3 3217 22 view .LVU368
.LBB515:
	.loc 3 3219 3 view .LVU369
.LBE515:
.LBE514:
	.loc 1 1450 3 is_stmt 0 view .LVU370
	subs	r2, r2, #5
.LBB517:
.LBB516:
	.loc 3 3219 3 view .LVU371
	str	r1, [r3, #52]
.LVL97:
	.loc 3 3219 3 view .LVU372
.LBE516:
.LBE517:
	.loc 1 1448 3 is_stmt 1 view .LVU373
.LBB518:
.LBI518:
	.loc 3 3235 22 view .LVU374
.LBB519:
	.loc 3 3237 3 view .LVU375
	str	r1, [r3, #56]
.LVL98:
	.loc 3 3237 3 is_stmt 0 view .LVU376
.LBE519:
.LBE518:
	.loc 1 1449 3 is_stmt 1 view .LVU377
.LBB520:
.LBI520:
	.loc 3 3253 22 view .LVU378
.LBB521:
	.loc 3 3255 3 view .LVU379
	str	r1, [r3, #60]
.LVL99:
	.loc 3 3255 3 is_stmt 0 view .LVU380
.LBE521:
.LBE520:
	.loc 1 1450 3 is_stmt 1 view .LVU381
.LBB522:
.LBI522:
	.loc 3 3271 22 view .LVU382
.LBB523:
	.loc 3 3273 3 view .LVU383
.LBE523:
.LBE522:
.LBB525:
.LBB526:
	.loc 3 5457 3 is_stmt 0 view .LVU384
	mvn	r1, #1
.LBE526:
.LBE525:
.LBB528:
.LBB524:
	.loc 3 3273 3 view .LVU385
	str	r2, [r3, #64]
.LVL100:
	.loc 3 3273 3 view .LVU386
.LBE524:
.LBE528:
	.loc 1 1453 3 is_stmt 1 view .LVU387
.LBB529:
.LBI525:
	.loc 3 5455 22 view .LVU388
.LBB527:
	.loc 3 5457 3 view .LVU389
	str	r1, [r3, #16]
.LVL101:
.L57:
	.loc 3 5457 3 is_stmt 0 view .LVU390
.LBE527:
.LBE529:
	.loc 1 1457 3 is_stmt 1 discriminator 1 view .LVU391
	.loc 1 1454 9 discriminator 1 view .LVU392
.LBB530:
.LBI530:
	.loc 3 5466 26 discriminator 1 view .LVU393
.LBB531:
	.loc 3 5468 3 discriminator 1 view .LVU394
	.loc 3 5468 12 is_stmt 0 discriminator 1 view .LVU395
	ldr	r2, [r3, #16]
.LVL102:
	.loc 3 5468 12 discriminator 1 view .LVU396
.LBE531:
.LBE530:
	.loc 1 1454 9 discriminator 1 view .LVU397
	lsls	r2, r2, #31
	bpl	.L57
	.loc 1 1458 3 is_stmt 1 view .LVU398
.LVL103:
.LBB532:
.LBI532:
	.loc 3 5455 22 view .LVU399
.LBB533:
	.loc 3 5457 3 view .LVU400
	mvn	r2, #1
	str	r2, [r3, #16]
.LVL104:
	.loc 3 5457 3 is_stmt 0 view .LVU401
.LBE533:
.LBE532:
	.loc 1 1461 3 is_stmt 1 view .LVU402
	.loc 1 1461 14 is_stmt 0 view .LVU403
	ldr	r2, [r3, #68]
	orr	r2, r2, #1024
	str	r2, [r3, #68]
	.loc 1 1462 3 is_stmt 1 view .LVU404
.LVL105:
.LBB534:
.LBI534:
	.loc 3 4623 22 view .LVU405
.LBB535:
	.loc 3 4625 3 view .LVU406
	ldr	r2, [r3, #68]
	orr	r2, r2, #32768
	str	r2, [r3, #68]
.LVL106:
	.loc 3 4625 3 is_stmt 0 view .LVU407
.LBE535:
.LBE534:
	.loc 1 1464 3 is_stmt 1 view .LVU408
	.loc 1 1464 6 is_stmt 0 view .LVU409
	ldrb	r2, [r0, #123]	@ zero_extendqisi2
	cmp	r2, #2
	beq	.L63
.L58:
	.loc 1 1483 3 is_stmt 1 view .LVU410
	.loc 1 1485 3 view .LVU411
.LVL107:
.LBB536:
.LBI536:
	.loc 3 5455 22 view .LVU412
.LBB537:
	.loc 3 5457 3 view .LVU413
	mvn	r2, #1
	str	r2, [r3, #16]
.LVL108:
	.loc 3 5457 3 is_stmt 0 view .LVU414
.LBE537:
.LBE536:
	.loc 1 1487 3 is_stmt 1 view .LVU415
.LBB538:
.LBI538:
	.loc 3 5921 22 view .LVU416
.LBB539:
	.loc 3 5923 3 view .LVU417
	ldr	r2, [r3, #12]
	orr	r2, r2, #1
	str	r2, [r3, #12]
.LVL109:
	.loc 3 5923 3 is_stmt 0 view .LVU418
.LBE539:
.LBE538:
	.loc 1 1488 1 view .LVU419
	pop	{r4, r5, pc}
.L63:
	.loc 1 1466 5 is_stmt 1 view .LVU420
	.loc 1 1466 14 is_stmt 0 view .LVU421
	ldr	r1, [r3, #32]
	.loc 1 1468 7 view .LVU422
	ldrh	r5, [r0, #72]
	.loc 1 1466 21 view .LVU423
	movw	r2, #1365
	.loc 1 1466 8 view .LVU424
	tst	r1, r2
	.loc 1 1469 7 view .LVU425
	ldrd	r1, r4, [r0, #60]
	.loc 1 1470 7 view .LVU426
	ldr	r2, [r0, #68]
	.loc 1 1466 8 view .LVU427
	beq	.L59
	.loc 1 1468 7 is_stmt 1 view .LVU428
.LVL110:
.LBB540:
.LBI540:
	.file 4 "Drivers/STM32G4xx_HAL_Driver/Inc/stm32g4xx_ll_gpio.h"
	.loc 4 894 22 view .LVU429
.LBB541:
	.loc 4 896 3 view .LVU430
	str	r5, [r1, #24]
.LVL111:
	.loc 4 896 3 is_stmt 0 view .LVU431
.LBE541:
.LBE540:
	.loc 1 1469 7 is_stmt 1 view .LVU432
	ldrh	r5, [r0, #74]
.LVL112:
.LBB542:
.LBI542:
	.loc 4 894 22 view .LVU433
.LBB543:
	.loc 4 896 3 view .LVU434
.LBE543:
.LBE542:
	.loc 1 1470 7 is_stmt 0 view .LVU435
	ldrh	r1, [r0, #76]
.LBB545:
.LBB544:
	.loc 4 896 3 view .LVU436
	str	r5, [r4, #24]
.LVL113:
	.loc 4 896 3 view .LVU437
.LBE544:
.LBE545:
	.loc 1 1470 7 is_stmt 1 view .LVU438
.LBB546:
.LBI546:
	.loc 4 894 22 view .LVU439
.LBB547:
	.loc 4 896 3 view .LVU440
	str	r1, [r2, #24]
	.loc 4 897 1 is_stmt 0 view .LVU441
	b	.L58
.LVL114:
.L59:
	.loc 4 897 1 view .LVU442
.LBE547:
.LBE546:
	.loc 1 1475 7 is_stmt 1 view .LVU443
.LBB548:
.LBI548:
	.loc 4 923 22 view .LVU444
.LBB549:
	.loc 4 925 3 view .LVU445
	str	r5, [r1, #40]
.LVL115:
	.loc 4 925 3 is_stmt 0 view .LVU446
.LBE549:
.LBE548:
	.loc 1 1476 7 is_stmt 1 view .LVU447
	ldrh	r5, [r0, #74]
.LVL116:
.LBB550:
.LBI550:
	.loc 4 923 22 view .LVU448
.LBB551:
	.loc 4 925 3 view .LVU449
.LBE551:
.LBE550:
	.loc 1 1477 7 is_stmt 0 view .LVU450
	ldrh	r1, [r0, #76]
.LBB553:
.LBB552:
	.loc 4 925 3 view .LVU451
	str	r5, [r4, #40]
.LVL117:
	.loc 4 925 3 view .LVU452
.LBE552:
.LBE553:
	.loc 1 1477 7 is_stmt 1 view .LVU453
.LBB554:
.LBI554:
	.loc 4 923 22 view .LVU454
.LBB555:
	.loc 4 925 3 view .LVU455
	str	r1, [r2, #40]
	.loc 4 926 1 is_stmt 0 view .LVU456
	b	.L58
.LBE555:
.LBE554:
	.cfi_endproc
.LFE1453:
	.size	R3_2_SwitchOnPWM, .-R3_2_SwitchOnPWM
	.section	.text.R3_2_SwitchOffPWM,"ax",%progbits
	.align	1
	.p2align 2,,3
	.weak	R3_2_SwitchOffPWM
	.syntax unified
	.thumb
	.thumb_func
	.fpu fpv4-sp-d16
	.type	R3_2_SwitchOffPWM, %function
R3_2_SwitchOffPWM:
.LVL118:
.LFB1454:
	.loc 1 1497 1 is_stmt 1 view -0
	.cfi_startproc
	@ args = 0, pretend = 0, frame = 0
	@ frame_needed = 0, uses_anonymous_args = 0
	@ link register save eliminated.
	.loc 1 1498 3 view .LVU458
	.loc 1 1499 3 view .LVU459
	.loc 1 1499 16 is_stmt 0 view .LVU460
	ldr	r3, [r0, #156]
	.loc 1 1508 6 view .LVU461
	ldrb	r1, [r0, #131]	@ zero_extendqisi2
	.loc 1 1499 16 view .LVU462
	ldr	r2, [r3]
.LVL119:
	.loc 1 1502 3 is_stmt 1 view .LVU463
.LBB556:
.LBI556:
	.loc 3 5932 22 view .LVU464
.LBB557:
	.loc 3 5934 3 view .LVU465
	ldr	r3, [r2, #12]
	bic	r3, r3, #1
	str	r3, [r2, #12]
.LVL120:
	.loc 3 5934 3 is_stmt 0 view .LVU466
.LBE557:
.LBE556:
	.loc 1 1504 3 is_stmt 1 view .LVU467
.LBB558:
.LBB559:
	.loc 3 4640 3 is_stmt 0 view .LVU468
	ldr	r3, [r2, #68]
.LBE559:
.LBE558:
	.loc 1 1504 40 view .LVU469
	mov	ip, #0
.LBB562:
.LBB560:
	.loc 3 4640 3 view .LVU470
	bic	r3, r3, #32768
.LBE560:
.LBE562:
	.loc 1 1504 40 view .LVU471
	strb	ip, [r0, #124]
	.loc 1 1507 3 is_stmt 1 view .LVU472
.LVL121:
.LBB563:
.LBI558:
	.loc 3 4638 22 view .LVU473
.LBB561:
	.loc 3 4640 3 view .LVU474
	str	r3, [r2, #68]
.LVL122:
	.loc 3 4640 3 is_stmt 0 view .LVU475
.LBE561:
.LBE563:
	.loc 1 1508 3 is_stmt 1 view .LVU476
	.loc 1 1508 6 is_stmt 0 view .LVU477
	cbnz	r1, .L70
	.loc 1 1514 5 is_stmt 1 view .LVU478
	.loc 1 1514 8 is_stmt 0 view .LVU479
	ldrb	r3, [r0, #123]	@ zero_extendqisi2
	cmp	r3, #2
	beq	.L75
.L70:
	.loc 1 1523 5 is_stmt 1 view .LVU480
	.loc 1 1527 3 view .LVU481
.LVL123:
.LBB564:
.LBI564:
	.loc 3 5455 22 view .LVU482
.LBB565:
	.loc 3 5457 3 view .LVU483
	mvn	r3, #1
	str	r3, [r2, #16]
.LVL124:
.L71:
	.loc 3 5457 3 is_stmt 0 view .LVU484
.LBE565:
.LBE564:
	.loc 1 1531 3 is_stmt 1 view .LVU485
	.loc 1 1528 9 view .LVU486
.LBB567:
.LBI567:
	.loc 3 5466 26 view .LVU487
.LBB568:
	.loc 3 5468 3 view .LVU488
	.loc 3 5468 12 is_stmt 0 view .LVU489
	ldr	r3, [r2, #16]
.LVL125:
	.loc 3 5468 12 view .LVU490
.LBE568:
.LBE567:
	.loc 1 1528 9 view .LVU491
	lsls	r3, r3, #31
	bpl	.L71
	.loc 1 1532 3 is_stmt 1 view .LVU492
.LVL126:
.LBB570:
.LBI570:
	.loc 3 5455 22 view .LVU493
.LBB571:
	.loc 3 5457 3 view .LVU494
	mvn	r1, #1
.LBE571:
.LBE570:
	.loc 1 1535 29 is_stmt 0 view .LVU495
	movs	r3, #0
.LBB575:
.LBB572:
	.loc 3 5457 3 view .LVU496
	str	r1, [r2, #16]
.LVL127:
	.loc 3 5457 3 view .LVU497
.LBE572:
.LBE575:
	.loc 1 1535 3 is_stmt 1 view .LVU498
	.loc 1 1535 29 is_stmt 0 view .LVU499
	strb	r3, [r0, #160]
	bx	lr
.L75:
	.loc 1 1516 7 is_stmt 1 view .LVU500
	.loc 1 1497 1 is_stmt 0 view .LVU501
	push	{r4, r5}
.LCFI12:
	.cfi_def_cfa_offset 8
	.cfi_offset 4, -8
	.cfi_offset 5, -4
	.loc 1 1517 7 view .LVU502
	ldrd	r4, r1, [r0, #60]
	.loc 1 1516 7 view .LVU503
	ldrh	r5, [r0, #72]
.LVL128:
.LBB576:
.LBI576:
	.loc 4 923 22 is_stmt 1 view .LVU504
.LBB577:
	.loc 4 925 3 view .LVU505
.LBE577:
.LBE576:
	.loc 1 1518 7 is_stmt 0 view .LVU506
	ldr	r3, [r0, #68]
.LBB579:
.LBB578:
	.loc 4 925 3 view .LVU507
	str	r5, [r4, #40]
.LVL129:
	.loc 4 925 3 view .LVU508
.LBE578:
.LBE579:
	.loc 1 1517 7 is_stmt 1 view .LVU509
	ldrh	r4, [r0, #74]
.LVL130:
.LBB580:
.LBI580:
	.loc 4 923 22 view .LVU510
.LBB581:
	.loc 4 925 3 view .LVU511
	str	r4, [r1, #40]
.LVL131:
	.loc 4 925 3 is_stmt 0 view .LVU512
.LBE581:
.LBE580:
	.loc 1 1518 7 is_stmt 1 view .LVU513
	ldrh	r1, [r0, #76]
.LVL132:
.LBB582:
.LBI582:
	.loc 4 923 22 view .LVU514
.LBB583:
	.loc 4 925 3 view .LVU515
	str	r1, [r3, #40]
.LVL133:
	.loc 4 925 3 is_stmt 0 view .LVU516
.LBE583:
.LBE582:
	.loc 1 1523 5 is_stmt 1 view .LVU517
	.loc 1 1527 3 view .LVU518
.LBB584:
	.loc 3 5455 22 view .LVU519
.LBB566:
	.loc 3 5457 3 view .LVU520
	mvn	r3, #1
	str	r3, [r2, #16]
.LVL134:
.L66:
	.loc 3 5457 3 is_stmt 0 view .LVU521
.LBE566:
.LBE584:
	.loc 1 1531 3 is_stmt 1 discriminator 1 view .LVU522
	.loc 1 1528 9 discriminator 1 view .LVU523
.LBB585:
	.loc 3 5466 26 discriminator 1 view .LVU524
.LBB569:
	.loc 3 5468 3 discriminator 1 view .LVU525
	.loc 3 5468 12 is_stmt 0 discriminator 1 view .LVU526
	ldr	r3, [r2, #16]
.LVL135:
	.loc 3 5468 12 discriminator 1 view .LVU527
.LBE569:
.LBE585:
	.loc 1 1528 9 discriminator 1 view .LVU528
	lsls	r1, r3, #31
	bpl	.L66
	.loc 1 1532 3 is_stmt 1 view .LVU529
.LVL136:
.LBB586:
	.loc 3 5455 22 view .LVU530
.LBB573:
	.loc 3 5457 3 view .LVU531
	mvn	r1, #1
.LBE573:
.LBE586:
	.loc 1 1535 29 is_stmt 0 view .LVU532
	movs	r3, #0
.LBB587:
.LBB574:
	.loc 3 5457 3 view .LVU533
	str	r1, [r2, #16]
.LVL137:
	.loc 3 5457 3 view .LVU534
.LBE574:
.LBE587:
	.loc 1 1535 3 is_stmt 1 view .LVU535
	.loc 1 1536 1 is_stmt 0 view .LVU536
	pop	{r4, r5}
.LCFI13:
	.cfi_restore 5
	.cfi_restore 4
	.cfi_def_cfa_offset 0
	.loc 1 1535 29 view .LVU537
	strb	r3, [r0, #160]
	.loc 1 1536 1 view .LVU538
	bx	lr
	.cfi_endproc
.LFE1454:
	.size	R3_2_SwitchOffPWM, .-R3_2_SwitchOffPWM
	.section	.text.R3_2_RLGetPhaseCurrents,"ax",%progbits
	.align	1
	.p2align 2,,3
	.syntax unified
	.thumb
	.thumb_func
	.fpu fpv4-sp-d16
	.type	R3_2_RLGetPhaseCurrents, %function
R3_2_RLGetPhaseCurrents:
.LVL138:
.LFB1460:
	.loc 1 1879 1 is_stmt 1 view -0
	.cfi_startproc
	@ args = 0, pretend = 0, frame = 0
	@ frame_needed = 0, uses_anonymous_args = 0
	@ link register save eliminated.
	.loc 1 1888 5 view .LVU540
	.loc 1 1889 5 view .LVU541
	.loc 1 1879 1 is_stmt 0 view .LVU542
	push	{r4}
.LCFI14:
	.cfi_def_cfa_offset 4
	.cfi_offset 4, -4
	.loc 1 1889 32 view .LVU543
	ldr	r4, [r0, #156]
	.loc 1 1889 18 view .LVU544
	ldr	r2, [r4]
.LVL139:
	.loc 1 1890 5 is_stmt 1 view .LVU545
	.loc 1 1893 5 view .LVU546
.LBB588:
.LBI588:
	.loc 3 4007 22 view .LVU547
.LBB589:
	.loc 3 4009 3 view .LVU548
	ldr	r3, [r2, #4]
	bic	r3, r3, #33554432
	bic	r3, r3, #112
	str	r3, [r2, #4]
.LVL140:
	.loc 3 4009 3 is_stmt 0 view .LVU549
.LBE589:
.LBE588:
	.loc 1 1895 5 is_stmt 1 view .LVU550
	.loc 1 1896 72 is_stmt 0 view .LVU551
	ldrb	r2, [r0, #122]	@ zero_extendqisi2
.LVL141:
	.loc 1 1895 10 view .LVU552
	ldr	r3, [r0, #140]
	.loc 1 1899 8 view .LVU553
	ldr	r0, .L81
.LVL142:
	.loc 1 1896 56 view .LVU554
	adds	r2, r2, #20
	ldr	r2, [r4, r2, lsl #2]
	.loc 1 1896 80 view .LVU555
	ldr	r2, [r2, #128]
	.loc 1 1895 10 view .LVU556
	subs	r3, r3, r2
.LVL143:
	.loc 1 1899 5 is_stmt 1 view .LVU557
	.loc 1 1899 8 is_stmt 0 view .LVU558
	cmp	r3, r0
	blt	.L78
	.loc 1 1901 7 is_stmt 1 view .LVU559
	.loc 1 1901 10 is_stmt 0 view .LVU560
	movw	r2, #32766
	cmp	r3, r2
	bgt	.L79
	.loc 1 1915 27 view .LVU561
	sxth	r3, r3
.LVL144:
	.loc 1 1915 27 view .LVU562
	b	.L77
.LVL145:
.L78:
	.loc 1 1915 27 view .LVU563
	ldr	r3, .L81+4
.LVL146:
.L77:
	.loc 1 1915 5 is_stmt 1 view .LVU564
	.loc 1 1916 5 view .LVU565
	.loc 1 1920 1 is_stmt 0 view .LVU566
	ldr	r4, [sp], #4
.LCFI15:
	.cfi_remember_state
	.cfi_restore 4
	.cfi_def_cfa_offset 0
.LVL147:
	.loc 1 1915 25 view .LVU567
	movs	r2, #0
	bfi	r2, r3, #0, #16
	bfi	r2, r3, #16, #16
	str	r2, [r1]	@ unaligned
	.loc 1 1920 1 view .LVU568
	bx	lr
.LVL148:
.L79:
.LCFI16:
	.cfi_restore_state
	.loc 1 1920 1 view .LVU569
	movw	r3, #32767
.LVL149:
	.loc 1 1920 1 view .LVU570
	b	.L77
.L82:
	.align	2
.L81:
	.word	-32766
	.word	-32767
	.cfi_endproc
.LFE1460:
	.size	R3_2_RLGetPhaseCurrents, .-R3_2_RLGetPhaseCurrents
	.section	.text.R3_2_RLSwitchOnPWM,"ax",%progbits
	.align	1
	.p2align 2,,3
	.syntax unified
	.thumb
	.thumb_func
	.fpu fpv4-sp-d16
	.type	R3_2_RLSwitchOnPWM, %function
R3_2_RLSwitchOnPWM:
.LVL150:
.LFB1462:
	.loc 1 1975 1 is_stmt 1 view -0
	.cfi_startproc
	@ args = 0, pretend = 0, frame = 0
	@ frame_needed = 0, uses_anonymous_args = 0
	@ link register save eliminated.
	.loc 1 1984 5 view .LVU572
	.loc 1 1985 5 view .LVU573
	.loc 1 1985 32 is_stmt 0 view .LVU574
	ldr	r2, [r0, #156]
	.loc 1 1975 1 view .LVU575
	push	{r4}
.LCFI17:
	.cfi_def_cfa_offset 4
	.cfi_offset 4, -4
	.loc 1 1985 18 view .LVU576
	ldr	r3, [r2]
.LVL151:
	.loc 1 1986 5 is_stmt 1 view .LVU577
	.loc 1 1986 18 is_stmt 0 view .LVU578
	ldr	r4, [r2, #56]
.LVL152:
	.loc 1 1987 5 is_stmt 1 view .LVU579
	.loc 1 1987 18 is_stmt 0 view .LVU580
	ldr	r1, [r2, #80]
.LVL153:
	.loc 1 1989 5 is_stmt 1 view .LVU581
	.loc 1 1989 30 is_stmt 0 view .LVU582
	movs	r2, #1
	strb	r2, [r0, #160]
	.loc 1 1991 5 is_stmt 1 view .LVU583
.LVL154:
.LBB590:
.LBI590:
	.loc 3 5455 22 view .LVU584
.LBB591:
	.loc 3 5457 3 view .LVU585
	mvn	r2, #1
	str	r2, [r3, #16]
.LVL155:
.L84:
	.loc 3 5457 3 is_stmt 0 view .LVU586
.LBE591:
.LBE590:
	.loc 1 1995 5 is_stmt 1 discriminator 1 view .LVU587
	.loc 1 1992 11 discriminator 1 view .LVU588
.LBB592:
.LBI592:
	.loc 3 5466 26 discriminator 1 view .LVU589
.LBB593:
	.loc 3 5468 3 discriminator 1 view .LVU590
	.loc 3 5468 12 is_stmt 0 discriminator 1 view .LVU591
	ldr	r2, [r3, #16]
.LVL156:
	.loc 3 5468 12 discriminator 1 view .LVU592
.LBE593:
.LBE592:
	.loc 1 1992 11 discriminator 1 view .LVU593
	lsls	r2, r2, #31
	bpl	.L84
	.loc 1 1997 5 is_stmt 1 view .LVU594
.LVL157:
.LBB594:
.LBI594:
	.loc 3 5455 22 view .LVU595
.LBB595:
	.loc 3 5457 3 view .LVU596
	mvn	r2, #1
	str	r2, [r3, #16]
.LVL158:
	.loc 3 5457 3 is_stmt 0 view .LVU597
.LBE595:
.LBE594:
	.loc 1 1999 5 is_stmt 1 view .LVU598
.LBB596:
.LBI596:
	.loc 3 3217 22 view .LVU599
.LBB597:
	.loc 3 3219 3 view .LVU600
	movs	r2, #1
	str	r2, [r3, #52]
.LVL159:
	.loc 3 3219 3 is_stmt 0 view .LVU601
.LBE597:
.LBE596:
	.loc 1 2000 5 is_stmt 1 view .LVU602
	.loc 1 2000 36 is_stmt 0 view .LVU603
	ldrh	r2, [r0, #148]
	.loc 1 2000 5 view .LVU604
	subs	r2, r2, #5
.LVL160:
.LBB598:
.LBI598:
	.loc 3 3271 22 is_stmt 1 view .LVU605
.LBB599:
	.loc 3 3273 3 view .LVU606
	str	r2, [r3, #64]
.LVL161:
.L85:
	.loc 3 3273 3 is_stmt 0 view .LVU607
.LBE599:
.LBE598:
	.loc 1 2005 5 is_stmt 1 discriminator 1 view .LVU608
	.loc 1 2002 11 discriminator 1 view .LVU609
.LBB600:
.LBI600:
	.loc 3 5466 26 discriminator 1 view .LVU610
.LBB601:
	.loc 3 5468 3 discriminator 1 view .LVU611
	.loc 3 5468 12 is_stmt 0 discriminator 1 view .LVU612
	ldr	r2, [r3, #16]
.LVL162:
	.loc 3 5468 12 discriminator 1 view .LVU613
.LBE601:
.LBE600:
	.loc 1 2002 11 discriminator 1 view .LVU614
	lsls	r2, r2, #31
	bpl	.L85
	.loc 1 2008 5 is_stmt 1 view .LVU615
.LVL163:
.LBB602:
.LBI602:
	.loc 3 5921 22 view .LVU616
.LBB603:
	.loc 3 5923 3 view .LVU617
	ldr	r2, [r3, #12]
	orr	r2, r2, #1
	str	r2, [r3, #12]
.LVL164:
	.loc 3 5923 3 is_stmt 0 view .LVU618
.LBE603:
.LBE602:
	.loc 1 2011 5 is_stmt 1 view .LVU619
	.loc 1 2011 16 is_stmt 0 view .LVU620
	ldr	r2, [r3, #68]
	orr	r2, r2, #1024
	str	r2, [r3, #68]
	.loc 1 2012 5 is_stmt 1 view .LVU621
.LVL165:
.LBB604:
.LBI604:
	.loc 3 4623 22 view .LVU622
.LBB605:
	.loc 3 4625 3 view .LVU623
	ldr	r2, [r3, #68]
	orr	r2, r2, #32768
	str	r2, [r3, #68]
.LVL166:
	.loc 3 4625 3 is_stmt 0 view .LVU624
.LBE605:
.LBE604:
	.loc 1 2014 5 is_stmt 1 view .LVU625
	.loc 1 2014 8 is_stmt 0 view .LVU626
	ldrb	r2, [r0, #123]	@ zero_extendqisi2
	cmp	r2, #2
	beq	.L93
.LVL167:
.L86:
	.loc 1 2033 5 is_stmt 1 view .LVU627
	.loc 1 2037 5 view .LVU628
	.loc 1 2037 18 is_stmt 0 view .LVU629
	movs	r3, #3
	strb	r3, [r0, #122]
.LVL168:
	.loc 1 2039 5 is_stmt 1 view .LVU630
.LBB606:
.LBI606:
	.loc 2 8056 22 view .LVU631
.LBB607:
	.loc 2 8061 3 view .LVU632
	ldr	r2, [r4, #8]
	ldr	r0, .L94
.LVL169:
	.loc 2 8061 3 is_stmt 0 view .LVU633
	ands	r2, r2, r0
	orr	r2, r2, #8
	str	r2, [r4, #8]
.LVL170:
	.loc 2 8061 3 view .LVU634
.LBE607:
.LBE606:
	.loc 1 2040 5 is_stmt 1 view .LVU635
.LBB608:
.LBI608:
	.loc 2 8056 22 view .LVU636
.LBB609:
	.loc 2 8061 3 view .LVU637
	ldr	r3, [r1, #8]
.LBE609:
.LBE608:
	.loc 1 2044 1 is_stmt 0 view .LVU638
	ldr	r4, [sp], #4
.LCFI18:
	.cfi_remember_state
	.cfi_restore 4
	.cfi_def_cfa_offset 0
.LVL171:
.LBB611:
.LBB610:
	.loc 2 8061 3 view .LVU639
	ands	r3, r3, r0
	orr	r3, r3, #8
	str	r3, [r1, #8]
.LVL172:
	.loc 2 8061 3 view .LVU640
.LBE610:
.LBE611:
	.loc 1 2044 1 view .LVU641
	bx	lr
.LVL173:
.L93:
.LCFI19:
	.cfi_restore_state
	.loc 1 2016 7 is_stmt 1 view .LVU642
	.loc 1 2016 16 is_stmt 0 view .LVU643
	ldr	r2, [r3, #32]
	.loc 1 2016 23 view .LVU644
	movw	r3, #1365
.LVL174:
	.loc 1 2016 10 view .LVU645
	tst	r2, r3
	.loc 1 2018 9 view .LVU646
	ldr	r3, [r0, #60]
	ldrh	r2, [r0, #72]
	.loc 1 2016 10 view .LVU647
	beq	.L87
	.loc 1 2018 9 is_stmt 1 view .LVU648
.LVL175:
.LBB612:
.LBI612:
	.loc 4 894 22 view .LVU649
.LBB613:
	.loc 4 896 3 view .LVU650
	str	r2, [r3, #24]
.LVL176:
	.loc 4 896 3 is_stmt 0 view .LVU651
.LBE613:
.LBE612:
	.loc 1 2019 9 is_stmt 1 view .LVU652
	ldr	r3, [r0, #64]
	ldrh	r2, [r0, #74]
.LVL177:
.LBB614:
.LBI614:
	.loc 4 894 22 view .LVU653
.LBB615:
	.loc 4 896 3 view .LVU654
	str	r2, [r3, #24]
.LVL178:
	.loc 4 896 3 is_stmt 0 view .LVU655
.LBE615:
.LBE614:
	.loc 1 2020 9 is_stmt 1 view .LVU656
	ldr	r3, [r0, #68]
	ldrh	r2, [r0, #76]
.LVL179:
.LBB616:
.LBI616:
	.loc 4 923 22 view .LVU657
.LBB617:
	.loc 4 925 3 view .LVU658
	str	r2, [r3, #40]
	.loc 4 926 1 is_stmt 0 view .LVU659
	b	.L86
.LVL180:
.L87:
	.loc 4 926 1 view .LVU660
.LBE617:
.LBE616:
	.loc 1 2025 9 is_stmt 1 view .LVU661
.LBB618:
.LBI618:
	.loc 4 923 22 view .LVU662
.LBB619:
	.loc 4 925 3 view .LVU663
	str	r2, [r3, #40]
.LVL181:
	.loc 4 925 3 is_stmt 0 view .LVU664
.LBE619:
.LBE618:
	.loc 1 2026 9 is_stmt 1 view .LVU665
	ldr	r3, [r0, #64]
	ldrh	r2, [r0, #74]
.LVL182:
.LBB620:
.LBI620:
	.loc 4 923 22 view .LVU666
.LBB621:
	.loc 4 925 3 view .LVU667
	str	r2, [r3, #40]
.LVL183:
	.loc 4 925 3 is_stmt 0 view .LVU668
.LBE621:
.LBE620:
	.loc 1 2027 9 is_stmt 1 view .LVU669
	ldr	r3, [r0, #68]
	ldrh	r2, [r0, #76]
.LVL184:
.LBB622:
.LBI622:
	.loc 4 923 22 view .LVU670
.LBB623:
	.loc 4 925 3 view .LVU671
	str	r2, [r3, #40]
	.loc 4 926 1 is_stmt 0 view .LVU672
	b	.L86
.L95:
	.align	2
.L94:
	.word	2147483584
.LBE623:
.LBE622:
	.cfi_endproc
.LFE1462:
	.size	R3_2_RLSwitchOnPWM, .-R3_2_RLSwitchOnPWM
	.section	.text.R3_2_TurnOnLowSides,"ax",%progbits
	.align	1
	.p2align 2,,3
	.weak	R3_2_TurnOnLowSides
	.syntax unified
	.thumb
	.thumb_func
	.fpu fpv4-sp-d16
	.type	R3_2_TurnOnLowSides, %function
R3_2_TurnOnLowSides:
.LVL185:
.LFB1452:
	.loc 1 1396 1 is_stmt 1 view -0
	.cfi_startproc
	@ args = 0, pretend = 0, frame = 0
	@ frame_needed = 0, uses_anonymous_args = 0
	@ link register save eliminated.
	.loc 1 1397 3 view .LVU674
	.loc 1 1398 3 view .LVU675
	.loc 1 1398 16 is_stmt 0 view .LVU676
	ldr	r3, [r0, #156]
	ldr	r2, [r3]
.LVL186:
	.loc 1 1400 3 is_stmt 1 view .LVU677
	.loc 1 1400 40 is_stmt 0 view .LVU678
	mov	ip, #1
.LBB656:
.LBB657:
	.loc 3 5457 3 view .LVU679
	mvn	r3, #1
.LBE657:
.LBE656:
	.loc 1 1400 40 view .LVU680
	strb	ip, [r0, #124]
	.loc 1 1403 3 is_stmt 1 view .LVU681
.LVL187:
.LBB659:
.LBI656:
	.loc 3 5455 22 view .LVU682
.LBB658:
	.loc 3 5457 3 view .LVU683
	str	r3, [r2, #16]
.LVL188:
	.loc 3 5457 3 is_stmt 0 view .LVU684
.LBE658:
.LBE659:
	.loc 1 1406 3 is_stmt 1 view .LVU685
.LBB660:
.LBI660:
	.loc 3 3217 22 view .LVU686
.LBB661:
	.loc 3 3219 3 view .LVU687
	str	r1, [r2, #52]
.LVL189:
	.loc 3 3219 3 is_stmt 0 view .LVU688
.LBE661:
.LBE660:
	.loc 1 1407 3 is_stmt 1 view .LVU689
.LBB662:
.LBI662:
	.loc 3 3235 22 view .LVU690
.LBB663:
	.loc 3 3237 3 view .LVU691
	str	r1, [r2, #56]
.LVL190:
	.loc 3 3237 3 is_stmt 0 view .LVU692
.LBE663:
.LBE662:
	.loc 1 1408 3 is_stmt 1 view .LVU693
.LBB664:
.LBI664:
	.loc 3 3253 22 view .LVU694
.LBB665:
	.loc 3 3255 3 view .LVU695
	str	r1, [r2, #60]
.LVL191:
.L97:
	.loc 3 3255 3 is_stmt 0 view .LVU696
.LBE665:
.LBE664:
	.loc 1 1414 3 is_stmt 1 discriminator 1 view .LVU697
	.loc 1 1411 9 discriminator 1 view .LVU698
.LBB666:
.LBI666:
	.loc 3 5466 26 discriminator 1 view .LVU699
.LBB667:
	.loc 3 5468 3 discriminator 1 view .LVU700
	.loc 3 5468 12 is_stmt 0 discriminator 1 view .LVU701
	ldr	r3, [r2, #16]
.LVL192:
	.loc 3 5468 12 discriminator 1 view .LVU702
.LBE667:
.LBE666:
	.loc 1 1411 9 discriminator 1 view .LVU703
	lsls	r3, r3, #31
	bpl	.L97
	.loc 1 1417 3 is_stmt 1 view .LVU704
.LVL193:
.LBB668:
.LBI668:
	.loc 3 4623 22 view .LVU705
.LBB669:
	.loc 3 4625 3 view .LVU706
	ldr	r3, [r2, #68]
	orr	r3, r3, #32768
	str	r3, [r2, #68]
.LVL194:
	.loc 3 4625 3 is_stmt 0 view .LVU707
.LBE669:
.LBE668:
	.loc 1 1419 3 is_stmt 1 view .LVU708
	.loc 1 1419 6 is_stmt 0 view .LVU709
	ldrb	r3, [r0, #123]	@ zero_extendqisi2
	cmp	r3, #2
	beq	.L105
	bx	lr
.L105:
.LVL195:
.LBB670:
.LBI670:
	.loc 1 1395 13 is_stmt 1 view .LVU710
.LBB671:
	.loc 1 1421 5 view .LVU711
	.loc 1 1422 5 is_stmt 0 view .LVU712
	ldrd	r2, r1, [r0, #60]
.LVL196:
	.loc 1 1422 5 view .LVU713
.LBE671:
.LBE670:
	.loc 1 1396 1 view .LVU714
	push	{r4}
.LCFI20:
	.cfi_def_cfa_offset 4
	.cfi_offset 4, -4
.LBB684:
.LBB682:
	.loc 1 1423 5 view .LVU715
	ldr	r3, [r0, #68]
	.loc 1 1421 5 view .LVU716
	ldrh	r4, [r0, #72]
.LVL197:
.LBB672:
.LBI672:
	.loc 4 894 22 is_stmt 1 view .LVU717
.LBB673:
	.loc 4 896 3 view .LVU718
	str	r4, [r2, #24]
.LVL198:
	.loc 4 896 3 is_stmt 0 view .LVU719
.LBE673:
.LBE672:
	.loc 1 1422 5 is_stmt 1 view .LVU720
	ldrh	r4, [r0, #74]
.LVL199:
.LBB674:
.LBI674:
	.loc 4 894 22 view .LVU721
.LBB675:
	.loc 4 896 3 view .LVU722
.LBE675:
.LBE674:
	.loc 1 1423 5 is_stmt 0 view .LVU723
	ldrh	r2, [r0, #76]
.LBB677:
.LBB676:
	.loc 4 896 3 view .LVU724
	str	r4, [r1, #24]
.LVL200:
	.loc 4 896 3 view .LVU725
.LBE676:
.LBE677:
	.loc 1 1423 5 is_stmt 1 view .LVU726
.LBB678:
.LBI678:
	.loc 4 894 22 view .LVU727
.LBB679:
	.loc 4 896 3 view .LVU728
.LBE679:
.LBE678:
.LBE682:
.LBE684:
	.loc 1 1429 1 is_stmt 0 view .LVU729
	ldr	r4, [sp], #4
.LCFI21:
	.cfi_restore 4
	.cfi_def_cfa_offset 0
.LBB685:
.LBB683:
.LBB681:
.LBB680:
	.loc 4 896 3 view .LVU730
	str	r2, [r3, #24]
.LVL201:
	.loc 4 896 3 view .LVU731
.LBE680:
.LBE681:
	.loc 1 1428 3 is_stmt 1 view .LVU732
	.loc 1 1428 3 is_stmt 0 view .LVU733
.LBE683:
.LBE685:
	.loc 1 1428 3 is_stmt 1 view .LVU734
	.loc 1 1429 1 is_stmt 0 view .LVU735
	bx	lr
	.cfi_endproc
.LFE1452:
	.size	R3_2_TurnOnLowSides, .-R3_2_TurnOnLowSides
	.section	.text.R3_2_SetAOReferenceVoltage,"ax",%progbits
	.align	1
	.p2align 2,,3
	.syntax unified
	.thumb
	.thumb_func
	.fpu fpv4-sp-d16
	.type	R3_2_SetAOReferenceVoltage, %function
R3_2_SetAOReferenceVoltage:
.LVL202:
.LFB1456:
	.loc 1 1628 1 is_stmt 1 view -0
	.cfi_startproc
	@ args = 0, pretend = 0, frame = 8
	@ frame_needed = 0, uses_anonymous_args = 0
	.loc 1 1629 3 view .LVU737
.LBB707:
.LBI707:
	.file 5 "Drivers/STM32G4xx_HAL_Driver/Inc/stm32g4xx_ll_dac.h"
	.loc 5 2291 22 view .LVU738
.LBB708:
	.loc 5 2293 3 view .LVU739
	.loc 5 2293 25 is_stmt 0 view .LVU740
	lsr	ip, r0, #18
.LBE708:
.LBE707:
	.loc 1 1628 1 view .LVU741
	push	{r4, lr}
.LCFI22:
	.cfi_def_cfa_offset 8
	.cfi_offset 4, -8
	.cfi_offset 14, -4
.LBB711:
.LBB709:
	.loc 5 2293 25 view .LVU742
	and	ip, ip, #60
	add	lr, r1, #8
.LVL203:
	.loc 5 2296 3 is_stmt 1 view .LVU743
.LBE709:
.LBE711:
	.loc 1 1628 1 is_stmt 0 view .LVU744
	sub	sp, sp, #8
.LCFI23:
	.cfi_def_cfa_offset 16
.LBB712:
.LBB710:
	.loc 5 2296 3 view .LVU745
	ldr	r3, [ip, lr]
	bic	r3, r3, #65280
	bic	r3, r3, #240
	orrs	r2, r2, r3
.LVL204:
	.loc 5 2296 3 view .LVU746
	str	r2, [ip, lr]
.LVL205:
	.loc 5 2296 3 view .LVU747
.LBE710:
.LBE712:
	.loc 1 1632 3 is_stmt 1 view .LVU748
.LBB713:
.LBI713:
	.loc 5 2213 22 view .LVU749
.LBB714:
	.loc 5 2215 3 view .LVU750
	ldr	r2, [r1, #4]
	and	r3, r0, #3
	orrs	r3, r3, r2
	str	r3, [r1, #4]
.LVL206:
	.loc 5 2215 3 is_stmt 0 view .LVU751
.LBE714:
.LBE713:
	.loc 1 1634 3 is_stmt 1 view .LVU752
.LBB715:
.LBI715:
	.loc 5 2091 26 view .LVU753
.LBB716:
	.loc 5 2093 3 view .LVU754
	.loc 5 2093 12 is_stmt 0 view .LVU755
	ldr	r2, [r1]
	movs	r3, #1
	and	r0, r0, #16
.LVL207:
	.loc 5 2093 12 view .LVU756
	lsl	r0, r3, r0
	.loc 5 2095 80 view .LVU757
	bics	r3, r0, r2
.LBE716:
.LBE715:
.LBB718:
.LBB719:
	.loc 1 1637 96 view .LVU758
	ldr	r3, .L121
.LBE719:
.LBE718:
.LBB721:
.LBB717:
	.loc 5 2095 80 view .LVU759
	beq	.L120
.LVL208:
	.loc 5 2095 80 view .LVU760
.LBE717:
.LBE721:
.LBB722:
	.loc 1 1646 5 is_stmt 1 view .LVU761
.LBB723:
.LBI723:
	.loc 5 2052 22 view .LVU762
.LBB724:
	.loc 5 2054 3 view .LVU763
.LBE724:
.LBE723:
	.loc 1 1648 61 is_stmt 0 view .LVU764
	ldr	r3, [r3]
	ldr	r4, .L121+4
.LBB727:
.LBB725:
	.loc 5 2054 3 view .LVU765
	ldr	r2, [r1]
.LBE725:
.LBE727:
	.loc 1 1648 61 view .LVU766
	umull	r4, r3, r4, r3
	lsrs	r3, r3, #19
	.loc 1 1648 42 view .LVU767
	lsls	r3, r3, #3
.LBB728:
.LBB726:
	.loc 5 2054 3 view .LVU768
	orrs	r0, r0, r2
	str	r0, [r1]
.LVL209:
	.loc 5 2054 3 view .LVU769
.LBE726:
.LBE728:
	.loc 1 1647 5 is_stmt 1 view .LVU770
	.loc 1 1647 23 is_stmt 0 view .LVU771
	str	r3, [sp]
	.loc 1 1649 5 is_stmt 1 view .LVU772
	.loc 1 1649 11 view .LVU773
	.loc 1 1649 28 is_stmt 0 view .LVU774
	ldr	r3, [sp]
	.loc 1 1649 11 view .LVU775
	cbz	r3, .L106
.L110:
	.loc 1 1651 7 is_stmt 1 view .LVU776
	.loc 1 1651 22 is_stmt 0 view .LVU777
	ldr	r3, [sp]
	subs	r3, r3, #1
	str	r3, [sp]
	.loc 1 1649 11 is_stmt 1 view .LVU778
	.loc 1 1649 28 is_stmt 0 view .LVU779
	ldr	r3, [sp]
	.loc 1 1649 11 view .LVU780
	cmp	r3, #0
	bne	.L110
.L106:
.LBE722:
	.loc 1 1654 1 view .LVU781
	add	sp, sp, #8
.LCFI24:
	.cfi_remember_state
	.cfi_def_cfa_offset 8
	@ sp needed
	pop	{r4, pc}
.LVL210:
.L120:
.LCFI25:
	.cfi_restore_state
.LBB729:
.LBI718:
	.loc 1 1627 13 is_stmt 1 view .LVU782
.LBB720:
	.loc 1 1637 5 view .LVU783
	.loc 1 1637 96 is_stmt 0 view .LVU784
	ldr	r2, .L121+4
	ldr	r3, [r3]
	umull	r2, r3, r2, r3
	lsrs	r3, r3, #19
	.loc 1 1637 77 view .LVU785
	add	r3, r3, r3, lsl #1
	.loc 1 1637 23 view .LVU786
	str	r3, [sp, #4]
	.loc 1 1638 5 is_stmt 1 view .LVU787
	.loc 1 1638 11 view .LVU788
	.loc 1 1638 28 is_stmt 0 view .LVU789
	ldr	r3, [sp, #4]
	.loc 1 1638 11 view .LVU790
	cmp	r3, #0
	beq	.L106
.L109:
	.loc 1 1640 7 is_stmt 1 view .LVU791
	.loc 1 1640 22 is_stmt 0 view .LVU792
	ldr	r3, [sp, #4]
	subs	r3, r3, #1
	str	r3, [sp, #4]
	.loc 1 1638 11 is_stmt 1 view .LVU793
	.loc 1 1638 28 is_stmt 0 view .LVU794
	ldr	r3, [sp, #4]
	.loc 1 1638 11 view .LVU795
	cmp	r3, #0
	bne	.L109
.LBE720:
.LBE729:
	.loc 1 1654 1 view .LVU796
	add	sp, sp, #8
.LCFI26:
	.cfi_def_cfa_offset 8
	@ sp needed
	pop	{r4, pc}
.L122:
	.align	2
.L121:
	.word	SystemCoreClock
	.word	1125899907
	.cfi_endproc
.LFE1456:
	.size	R3_2_SetAOReferenceVoltage, .-R3_2_SetAOReferenceVoltage
	.section	.text.R3_2_RLTurnOnLowSides,"ax",%progbits
	.align	1
	.p2align 2,,3
	.syntax unified
	.thumb
	.thumb_func
	.fpu fpv4-sp-d16
	.type	R3_2_RLTurnOnLowSides, %function
R3_2_RLTurnOnLowSides:
.LVL211:
.LFB1461:
	.loc 1 1934 1 is_stmt 1 view -0
	.cfi_startproc
	@ args = 0, pretend = 0, frame = 0
	@ frame_needed = 0, uses_anonymous_args = 0
	@ link register save eliminated.
	.loc 1 1935 3 view .LVU798
	.loc 1 1936 3 view .LVU799
	.loc 1 1936 16 is_stmt 0 view .LVU800
	ldr	r3, [r0, #156]
	ldr	r2, [r3]
.LVL212:
	.loc 1 1938 3 is_stmt 1 view .LVU801
	.loc 1 1938 29 is_stmt 0 view .LVU802
	mov	ip, #1
.LBB754:
.LBB755:
	.loc 3 3219 3 view .LVU803
	movs	r1, #0
.LVL213:
	.loc 3 3219 3 view .LVU804
.LBE755:
.LBE754:
.LBB757:
.LBB758:
	.loc 3 5457 3 view .LVU805
	mvn	r3, #1
.LBE758:
.LBE757:
	.loc 1 1938 29 view .LVU806
	strb	ip, [r0, #160]
	.loc 1 1940 3 is_stmt 1 view .LVU807
.LVL214:
.LBB760:
.LBI754:
	.loc 3 3217 22 view .LVU808
.LBB756:
	.loc 3 3219 3 view .LVU809
	str	r1, [r2, #52]
.LVL215:
	.loc 3 3219 3 is_stmt 0 view .LVU810
.LBE756:
.LBE760:
	.loc 1 1943 3 is_stmt 1 view .LVU811
.LBB761:
.LBI757:
	.loc 3 5455 22 view .LVU812
.LBB759:
	.loc 3 5457 3 view .LVU813
	str	r3, [r2, #16]
.LVL216:
.L124:
	.loc 3 5457 3 is_stmt 0 view .LVU814
.LBE759:
.LBE761:
	.loc 1 1949 3 is_stmt 1 discriminator 1 view .LVU815
	.loc 1 1946 9 discriminator 1 view .LVU816
.LBB762:
.LBI762:
	.loc 3 5466 26 discriminator 1 view .LVU817
.LBB763:
	.loc 3 5468 3 discriminator 1 view .LVU818
	.loc 3 5468 12 is_stmt 0 discriminator 1 view .LVU819
	ldr	r3, [r2, #16]
.LVL217:
	.loc 3 5468 12 discriminator 1 view .LVU820
.LBE763:
.LBE762:
	.loc 1 1946 9 discriminator 1 view .LVU821
	lsls	r3, r3, #31
	bpl	.L124
	.loc 1 1952 3 is_stmt 1 view .LVU822
.LVL218:
.LBB764:
.LBI764:
	.loc 3 4623 22 view .LVU823
.LBB765:
	.loc 3 4625 3 view .LVU824
	ldr	r3, [r2, #68]
	orr	r3, r3, #32768
	str	r3, [r2, #68]
.LVL219:
	.loc 3 4625 3 is_stmt 0 view .LVU825
.LBE765:
.LBE764:
	.loc 1 1954 3 is_stmt 1 view .LVU826
	.loc 1 1954 6 is_stmt 0 view .LVU827
	ldrb	r3, [r0, #123]	@ zero_extendqisi2
	cmp	r3, #2
	beq	.L132
	bx	lr
.L132:
.LVL220:
.LBB766:
.LBI766:
	.loc 1 1933 13 is_stmt 1 view .LVU828
.LBB767:
	.loc 1 1956 5 view .LVU829
	.loc 1 1957 5 is_stmt 0 view .LVU830
	ldrd	r2, r1, [r0, #60]
.LVL221:
	.loc 1 1957 5 view .LVU831
.LBE767:
.LBE766:
	.loc 1 1934 1 view .LVU832
	push	{r4}
.LCFI27:
	.cfi_def_cfa_offset 4
	.cfi_offset 4, -4
.LBB780:
.LBB778:
	.loc 1 1958 5 view .LVU833
	ldr	r3, [r0, #68]
	.loc 1 1956 5 view .LVU834
	ldrh	r4, [r0, #72]
.LVL222:
.LBB768:
.LBI768:
	.loc 4 894 22 is_stmt 1 view .LVU835
.LBB769:
	.loc 4 896 3 view .LVU836
	str	r4, [r2, #24]
.LVL223:
	.loc 4 896 3 is_stmt 0 view .LVU837
.LBE769:
.LBE768:
	.loc 1 1957 5 is_stmt 1 view .LVU838
	ldrh	r4, [r0, #74]
.LVL224:
.LBB770:
.LBI770:
	.loc 4 923 22 view .LVU839
.LBB771:
	.loc 4 925 3 view .LVU840
.LBE771:
.LBE770:
	.loc 1 1958 5 is_stmt 0 view .LVU841
	ldrh	r2, [r0, #76]
.LBB773:
.LBB772:
	.loc 4 925 3 view .LVU842
	str	r4, [r1, #40]
.LVL225:
	.loc 4 925 3 view .LVU843
.LBE772:
.LBE773:
	.loc 1 1958 5 is_stmt 1 view .LVU844
.LBB774:
.LBI774:
	.loc 4 923 22 view .LVU845
.LBB775:
	.loc 4 925 3 view .LVU846
.LBE775:
.LBE774:
.LBE778:
.LBE780:
	.loc 1 1964 1 is_stmt 0 view .LVU847
	ldr	r4, [sp], #4
.LCFI28:
	.cfi_restore 4
	.cfi_def_cfa_offset 0
.LBB781:
.LBB779:
.LBB777:
.LBB776:
	.loc 4 925 3 view .LVU848
	str	r2, [r3, #40]
.LVL226:
	.loc 4 925 3 view .LVU849
.LBE776:
.LBE777:
	.loc 1 1963 3 is_stmt 1 view .LVU850
	.loc 1 1963 3 is_stmt 0 view .LVU851
.LBE779:
.LBE781:
	.loc 1 1963 3 is_stmt 1 view .LVU852
	.loc 1 1964 1 is_stmt 0 view .LVU853
	bx	lr
	.cfi_endproc
.LFE1461:
	.size	R3_2_RLTurnOnLowSides, .-R3_2_RLTurnOnLowSides
	.section	.text.R3_2_Init,"ax",%progbits
	.align	1
	.p2align 2,,3
	.weak	R3_2_Init
	.syntax unified
	.thumb
	.thumb_func
	.fpu fpv4-sp-d16
	.type	R3_2_Init, %function
R3_2_Init:
.LVL227:
.LFB1438:
	.loc 1 75 1 is_stmt 1 view -0
	.cfi_startproc
	@ args = 0, pretend = 0, frame = 24
	@ frame_needed = 0, uses_anonymous_args = 0
	.loc 1 84 5 view .LVU855
	.loc 1 75 1 is_stmt 0 view .LVU856
	push	{r4, r5, r6, r7, r8, r9, r10, fp, lr}
.LCFI29:
	.cfi_def_cfa_offset 36
	.cfi_offset 4, -36
	.cfi_offset 5, -32
	.cfi_offset 6, -28
	.cfi_offset 7, -24
	.cfi_offset 8, -20
	.cfi_offset 9, -16
	.cfi_offset 10, -12
	.cfi_offset 11, -8
	.cfi_offset 14, -4
	.loc 1 84 46 view .LVU857
	ldr	r3, [r0, #156]
	.loc 1 94 18 view .LVU858
	ldr	r6, [r3, #56]
	.loc 1 95 18 view .LVU859
	ldr	r5, [r3, #80]
.LBB876:
.LBB877:
	.loc 2 8917 3 view .LVU860
	ldr	r2, [r6, #4]
.LBE877:
.LBE876:
	.loc 1 93 18 view .LVU861
	ldr	r4, [r3]
	.loc 1 86 19 view .LVU862
	ldr	r10, [r3, #12]
	.loc 1 75 1 view .LVU863
	mov	r7, r0
.LVL228:
	.loc 1 85 5 is_stmt 1 view .LVU864
	.loc 1 86 5 view .LVU865
	.loc 1 87 5 view .LVU866
	.loc 1 88 5 view .LVU867
	.loc 1 89 5 view .LVU868
	.loc 1 90 5 view .LVU869
	.loc 1 91 5 view .LVU870
	.loc 1 92 5 view .LVU871
	.loc 1 93 5 view .LVU872
	.loc 1 94 5 view .LVU873
	.loc 1 95 5 view .LVU874
	.loc 1 98 5 view .LVU875
	.loc 1 102 7 view .LVU876
.LBB881:
.LBI876:
	.loc 2 8915 22 view .LVU877
.LBB878:
	.loc 2 8917 3 view .LVU878
.LBE878:
.LBE881:
	.loc 1 90 18 is_stmt 0 view .LVU879
	ldrd	lr, r0, [r3, #24]
.LVL229:
	.loc 1 75 1 view .LVU880
	sub	sp, sp, #28
.LCFI30:
	.cfi_def_cfa_offset 64
.LBB882:
.LBB883:
	.loc 2 8401 3 view .LVU881
	movs	r1, #4
.LBE883:
.LBE882:
.LBB885:
.LBB879:
	.loc 2 8917 3 view .LVU882
	bic	r2, r2, #4
.LBE879:
.LBE885:
	.loc 1 90 18 view .LVU883
	str	r0, [sp, #4]
	.loc 1 91 18 view .LVU884
	ldr	r0, [r3, #32]
	str	r0, [sp, #8]
	.loc 1 85 19 view .LVU885
	ldrd	ip, fp, [r3, #4]
	.loc 1 92 18 view .LVU886
	ldr	r0, [r3, #36]
	str	r0, [sp, #12]
	.loc 1 88 19 view .LVU887
	ldrd	r9, r8, [r3, #16]
.LBB886:
.LBB880:
	.loc 2 8917 3 view .LVU888
	str	r2, [r6, #4]
.LVL230:
	.loc 2 8917 3 view .LVU889
.LBE880:
.LBE886:
	.loc 1 103 7 is_stmt 1 view .LVU890
.LBB887:
.LBI882:
	.loc 2 8399 22 view .LVU891
.LBB884:
	.loc 2 8401 3 view .LVU892
	str	r1, [r6]
.LVL231:
	.loc 2 8401 3 is_stmt 0 view .LVU893
.LBE884:
.LBE887:
	.loc 1 104 7 is_stmt 1 view .LVU894
.LBB888:
.LBI888:
	.loc 2 8959 22 view .LVU895
.LBB889:
	.loc 2 8961 3 view .LVU896
	ldr	r2, [r6, #4]
.LBE889:
.LBE888:
.LBB891:
.LBB892:
	.loc 2 8445 3 is_stmt 0 view .LVU897
	movs	r0, #32
.LBE892:
.LBE891:
.LBB894:
.LBB890:
	.loc 2 8961 3 view .LVU898
	bic	r2, r2, #32
	str	r2, [r6, #4]
.LVL232:
	.loc 2 8961 3 view .LVU899
.LBE890:
.LBE894:
	.loc 1 105 7 is_stmt 1 view .LVU900
.LBB895:
.LBI891:
	.loc 2 8443 22 view .LVU901
.LBB893:
	.loc 2 8445 3 view .LVU902
	str	r0, [r6]
.LVL233:
	.loc 2 8445 3 is_stmt 0 view .LVU903
.LBE893:
.LBE895:
	.loc 1 106 7 is_stmt 1 view .LVU904
.LBB896:
.LBI896:
	.loc 2 8915 22 view .LVU905
.LBB897:
	.loc 2 8917 3 view .LVU906
	ldr	r2, [r5, #4]
	bic	r2, r2, #4
	str	r2, [r5, #4]
.LVL234:
	.loc 2 8917 3 is_stmt 0 view .LVU907
.LBE897:
.LBE896:
	.loc 1 107 7 is_stmt 1 view .LVU908
.LBB898:
.LBI898:
	.loc 2 8399 22 view .LVU909
.LBB899:
	.loc 2 8401 3 view .LVU910
	str	r1, [r5]
.LVL235:
	.loc 2 8401 3 is_stmt 0 view .LVU911
.LBE899:
.LBE898:
	.loc 1 108 7 is_stmt 1 view .LVU912
.LBB900:
.LBI900:
	.loc 2 8959 22 view .LVU913
.LBB901:
	.loc 2 8961 3 view .LVU914
	ldr	r2, [r5, #4]
.LBE901:
.LBE900:
.LBB903:
.LBB904:
	.file 6 "Drivers/STM32G4xx_HAL_Driver/Inc/stm32g4xx_ll_system.h"
	.loc 6 1126 3 is_stmt 0 view .LVU915
	ldr	r1, .L209
.LBE904:
.LBE903:
.LBB907:
.LBB902:
	.loc 2 8961 3 view .LVU916
	bic	r2, r2, #32
	str	r2, [r5, #4]
.LVL236:
	.loc 2 8961 3 view .LVU917
.LBE902:
.LBE907:
	.loc 1 109 7 is_stmt 1 view .LVU918
.LBB908:
.LBI908:
	.loc 2 8443 22 view .LVU919
.LBB909:
	.loc 2 8445 3 view .LVU920
.LBE909:
.LBE908:
	.loc 1 111 10 is_stmt 0 view .LVU921
	ldr	r2, .L209+4
.LBB911:
.LBB910:
	.loc 2 8445 3 view .LVU922
	str	r0, [r5]
.LVL237:
	.loc 2 8445 3 view .LVU923
.LBE910:
.LBE911:
	.loc 1 111 7 is_stmt 1 view .LVU924
	.loc 1 111 10 is_stmt 0 view .LVU925
	cmp	r4, r2
.LBB912:
.LBB905:
	.loc 6 1126 3 view .LVU926
	ldr	r2, [r1, #16]
.LBE905:
.LBE912:
	.loc 1 114 9 is_stmt 1 view .LVU927
.LVL238:
.LBB913:
.LBI903:
	.loc 6 1124 22 view .LVU928
.LBB906:
	.loc 6 1126 3 view .LVU929
	ite	eq
	orreq	r2, r2, #2048
.LBE906:
.LBE913:
	.loc 1 120 9 view .LVU930
.LVL239:
.LBB914:
.LBI914:
	.loc 6 1124 22 view .LVU931
.LBB915:
	.loc 6 1126 3 view .LVU932
	.loc 6 1126 3 is_stmt 0 view .LVU933
.LBE915:
.LBE914:
	.loc 1 124 7 is_stmt 1 view .LVU934
.LBB917:
.LBB916:
	.loc 6 1126 3 is_stmt 0 view .LVU935
	orrne	r2, r2, #8192
	str	r2, [r1, #16]
.LBE916:
.LBE917:
	.loc 1 124 10 view .LVU936
	cmp	ip, #0
	beq	.L137
	.loc 1 127 9 is_stmt 1 view .LVU937
	.loc 1 128 9 is_stmt 0 view .LVU938
	ldrd	r0, r1, [ip]
.LBB918:
.LBB919:
	.file 7 "Drivers/STM32G4xx_HAL_Driver/Inc/stm32g4xx_ll_opamp.h"
	.loc 7 910 3 view .LVU939
	ldr	r2, [r0]
.LBE919:
.LBE918:
	.loc 1 129 9 view .LVU940
	ldr	ip, [ip, #24]
.LBB921:
.LBB920:
	.loc 7 910 3 view .LVU941
	orr	r2, r2, #1
	str	r2, [r0]
.LBE920:
.LBE921:
	.loc 1 128 9 is_stmt 1 view .LVU942
.LVL240:
.LBB922:
.LBI922:
	.loc 7 908 22 view .LVU943
.LBB923:
	.loc 7 910 3 view .LVU944
	ldr	r2, [r1]
	orr	r2, r2, #1
	str	r2, [r1]
.LVL241:
	.loc 7 910 3 is_stmt 0 view .LVU945
.LBE923:
.LBE922:
	.loc 1 129 9 is_stmt 1 view .LVU946
.LBB924:
.LBI924:
	.loc 7 908 22 view .LVU947
.LBB925:
	.loc 7 910 3 view .LVU948
	ldr	r2, [ip]
	orr	r2, r2, #1
	str	r2, [ip]
.LVL242:
.L137:
	.loc 7 910 3 is_stmt 0 view .LVU949
.LBE925:
.LBE924:
	.loc 1 134 7 is_stmt 1 view .LVU950
	.loc 1 137 7 view .LVU951
	.loc 1 137 10 is_stmt 0 view .LVU952
	cmp	fp, #0
	beq	.L138
	.loc 1 140 9 is_stmt 1 view .LVU953
	.loc 1 140 12 is_stmt 0 view .LVU954
	ldrb	r2, [r3, #167]	@ zero_extendqisi2
	cmp	r2, #1
	beq	.L139
	.loc 1 140 71 discriminator 1 view .LVU955
	cmp	lr, #0
	beq	.L139
	.loc 1 142 11 is_stmt 1 view .LVU956
	ldrh	r2, [r3, #162]
	ldr	r0, [r3, #40]
	mov	r1, lr
	bl	R3_2_SetAOReferenceVoltage
.LVL243:
.L139:
	.loc 1 148 9 view .LVU957
	.loc 1 150 9 view .LVU958
.LBB926:
.LBI926:
	.file 8 "Drivers/STM32G4xx_HAL_Driver/Inc/stm32g4xx_ll_comp.h"
	.loc 8 642 22 view .LVU959
.LBB927:
	.loc 8 644 3 view .LVU960
	ldr	r3, [fp]
	orr	r3, r3, #1
	str	r3, [fp]
	.loc 8 644 3 is_stmt 0 view .LVU961
.LBE927:
.LBE926:
	.loc 1 151 9 is_stmt 1 view .LVU962
.LVL244:
.LBB928:
.LBI928:
	.loc 8 678 22 view .LVU963
.LBB929:
	.loc 8 680 3 view .LVU964
	ldr	r3, [fp]
	orr	r3, r3, #-2147483648
	str	r3, [fp]
.L138:
	.loc 8 680 3 is_stmt 0 view .LVU965
.LBE929:
.LBE928:
	.loc 1 156 7 is_stmt 1 view .LVU966
	.loc 1 159 7 view .LVU967
	.loc 1 159 10 is_stmt 0 view .LVU968
	cmp	r10, #0
	beq	.L140
	.loc 1 161 9 is_stmt 1 view .LVU969
	.loc 1 161 21 is_stmt 0 view .LVU970
	ldr	r3, [r7, #156]
	.loc 1 161 12 view .LVU971
	ldrb	r2, [r3, #168]	@ zero_extendqisi2
	cmp	r2, #1
	beq	.L141
	.loc 1 161 71 discriminator 1 view .LVU972
	ldr	r2, [sp, #4]
	cbz	r2, .L141
	.loc 1 163 11 is_stmt 1 view .LVU973
	mov	r1, r2
	ldr	r0, [r3, #44]
	ldrh	r2, [r3, #162]
	bl	R3_2_SetAOReferenceVoltage
.LVL245:
.L141:
	.loc 1 169 9 view .LVU974
	.loc 1 170 9 view .LVU975
.LBB930:
.LBI930:
	.loc 8 642 22 view .LVU976
.LBB931:
	.loc 8 644 3 view .LVU977
	ldr	r3, [r10]
	orr	r3, r3, #1
	str	r3, [r10]
	.loc 8 644 3 is_stmt 0 view .LVU978
.LBE931:
.LBE930:
	.loc 1 171 9 is_stmt 1 view .LVU979
.LVL246:
.LBB932:
.LBI932:
	.loc 8 678 22 view .LVU980
.LBB933:
	.loc 8 680 3 view .LVU981
	ldr	r3, [r10]
	orr	r3, r3, #-2147483648
	str	r3, [r10]
.L140:
	.loc 8 680 3 is_stmt 0 view .LVU982
.LBE933:
.LBE932:
	.loc 1 176 7 is_stmt 1 view .LVU983
	.loc 1 179 7 view .LVU984
	.loc 1 179 10 is_stmt 0 view .LVU985
	cmp	r9, #0
	beq	.L142
	.loc 1 181 9 is_stmt 1 view .LVU986
	.loc 1 181 21 is_stmt 0 view .LVU987
	ldr	r3, [r7, #156]
	.loc 1 181 12 view .LVU988
	ldrb	r2, [r3, #169]	@ zero_extendqisi2
	cmp	r2, #1
	beq	.L143
	.loc 1 181 72 discriminator 1 view .LVU989
	ldr	r2, [sp, #8]
	cbz	r2, .L143
	.loc 1 183 11 is_stmt 1 view .LVU990
	mov	r1, r2
	ldr	r0, [r3, #48]
	ldrh	r2, [r3, #162]
	bl	R3_2_SetAOReferenceVoltage
.LVL247:
.L143:
	.loc 1 189 9 view .LVU991
	.loc 1 190 9 view .LVU992
.LBB934:
.LBI934:
	.loc 8 642 22 view .LVU993
.LBB935:
	.loc 8 644 3 view .LVU994
	ldr	r3, [r9]
	orr	r3, r3, #1
	str	r3, [r9]
	.loc 8 644 3 is_stmt 0 view .LVU995
.LBE935:
.LBE934:
	.loc 1 191 9 is_stmt 1 view .LVU996
.LVL248:
.LBB936:
.LBI936:
	.loc 8 678 22 view .LVU997
.LBB937:
	.loc 8 680 3 view .LVU998
	ldr	r3, [r9]
	orr	r3, r3, #-2147483648
	str	r3, [r9]
.L142:
	.loc 8 680 3 is_stmt 0 view .LVU999
.LBE937:
.LBE936:
	.loc 1 196 7 is_stmt 1 view .LVU1000
	.loc 1 199 7 view .LVU1001
	.loc 1 199 10 is_stmt 0 view .LVU1002
	cmp	r8, #0
	beq	.L144
	.loc 1 202 9 is_stmt 1 view .LVU1003
	.loc 1 202 21 is_stmt 0 view .LVU1004
	ldr	r3, [r7, #156]
	.loc 1 202 12 view .LVU1005
	ldrb	r2, [r3, #170]	@ zero_extendqisi2
	cmp	r2, #1
	beq	.L145
	.loc 1 202 70 discriminator 1 view .LVU1006
	ldr	r2, [sp, #12]
	cbz	r2, .L145
	.loc 1 204 11 is_stmt 1 view .LVU1007
	mov	r1, r2
	ldr	r0, [r3, #52]
	ldrh	r2, [r3, #164]
	bl	R3_2_SetAOReferenceVoltage
.LVL249:
.L145:
	.loc 1 210 9 view .LVU1008
	.loc 1 212 9 view .LVU1009
.LBB938:
.LBI938:
	.loc 8 642 22 view .LVU1010
.LBB939:
	.loc 8 644 3 view .LVU1011
	ldr	r3, [r8]
	orr	r3, r3, #1
	str	r3, [r8]
	.loc 8 644 3 is_stmt 0 view .LVU1012
.LBE939:
.LBE938:
	.loc 1 213 9 is_stmt 1 view .LVU1013
.LVL250:
.LBB940:
.LBI940:
	.loc 8 678 22 view .LVU1014
.LBB941:
	.loc 8 680 3 view .LVU1015
	ldr	r3, [r8]
	orr	r3, r3, #-2147483648
	str	r3, [r8]
.L144:
	.loc 8 680 3 is_stmt 0 view .LVU1016
.LBE941:
.LBE940:
	.loc 1 218 7 is_stmt 1 view .LVU1017
	.loc 1 220 7 view .LVU1018
.LVL251:
.LBB942:
.LBI942:
	.loc 2 7744 26 view .LVU1019
.LBB943:
	.loc 2 7746 3 view .LVU1020
	.loc 2 7746 12 is_stmt 0 view .LVU1021
	ldr	r3, [r6, #8]
	.loc 2 7746 12 view .LVU1022
.LBE943:
.LBE942:
	.loc 1 220 10 view .LVU1023
	lsls	r1, r3, #31
	bpl	.L203
.L146:
	.loc 1 232 7 is_stmt 1 view .LVU1024
	.loc 1 233 7 view .LVU1025
.LVL252:
.LBB944:
.LBI944:
	.loc 2 7744 26 view .LVU1026
.LBB945:
	.loc 2 7746 3 view .LVU1027
	.loc 2 7746 12 is_stmt 0 view .LVU1028
	ldr	r3, [r5, #8]
	.loc 2 7746 12 view .LVU1029
.LBE945:
.LBE944:
	.loc 1 233 10 view .LVU1030
	lsls	r2, r3, #31
	bpl	.L204
.L147:
	.loc 1 240 7 is_stmt 1 view .LVU1031
	.loc 1 241 7 view .LVU1032
.LVL253:
.LBB946:
.LBI946:
	.loc 1 311 13 view .LVU1033
.LBB947:
	.loc 1 313 3 view .LVU1034
	.loc 1 314 3 view .LVU1035
	.loc 1 314 21 is_stmt 0 view .LVU1036
	mov	r3, #1000
	str	r3, [sp, #20]
	.loc 1 318 3 is_stmt 1 view .LVU1037
.LVL254:
.LBB948:
.LBI948:
	.loc 3 2034 22 view .LVU1038
.LBB949:
	.loc 3 2036 3 view .LVU1039
	ldr	r3, [r4]
.LBE949:
.LBE948:
	.loc 1 332 20 is_stmt 0 view .LVU1040
	ldr	r2, [r7, #156]
.LBB951:
.LBB950:
	.loc 3 2036 3 view .LVU1041
	bic	r3, r3, #1
	str	r3, [r4]
	.loc 3 2036 3 view .LVU1042
.LBE950:
.LBE951:
	.loc 1 320 3 is_stmt 1 view .LVU1043
.LVL255:
.LBB952:
.LBI952:
	.loc 3 4007 22 view .LVU1044
.LBB953:
	.loc 3 4009 3 view .LVU1045
	ldr	r3, [r4, #4]
	bic	r3, r3, #33554432
	bic	r3, r3, #112
	str	r3, [r4, #4]
.LVL256:
	.loc 3 4009 3 is_stmt 0 view .LVU1046
.LBE953:
.LBE952:
	.loc 1 323 3 is_stmt 1 view .LVU1047
.LBB954:
.LBI954:
	.loc 3 3045 22 view .LVU1048
.LBB955:
	.loc 3 3047 3 view .LVU1049
	.loc 3 3048 3 view .LVU1050
	.loc 3 3049 3 view .LVU1051
	ldr	r3, [r4, #24]
	orr	r3, r3, #8
	str	r3, [r4, #24]
.LVL257:
	.loc 3 3049 3 is_stmt 0 view .LVU1052
.LBE955:
.LBE954:
	.loc 1 325 3 is_stmt 1 view .LVU1053
.LBB956:
.LBI956:
	.loc 3 3045 22 view .LVU1054
.LBB957:
	.loc 3 3047 3 view .LVU1055
	.loc 3 3048 3 view .LVU1056
	.loc 3 3049 3 view .LVU1057
	ldr	r3, [r4, #24]
	orr	r3, r3, #2048
	str	r3, [r4, #24]
.LVL258:
	.loc 3 3049 3 is_stmt 0 view .LVU1058
.LBE957:
.LBE956:
	.loc 1 327 3 is_stmt 1 view .LVU1059
.LBB958:
.LBI958:
	.loc 3 3045 22 view .LVU1060
.LBB959:
	.loc 3 3047 3 view .LVU1061
	.loc 3 3048 3 view .LVU1062
	.loc 3 3049 3 view .LVU1063
	ldr	r3, [r4, #28]
	orr	r3, r3, #8
	str	r3, [r4, #28]
.LVL259:
	.loc 3 3049 3 is_stmt 0 view .LVU1064
.LBE959:
.LBE958:
	.loc 1 329 3 is_stmt 1 view .LVU1065
.LBB960:
.LBI960:
	.loc 3 3045 22 view .LVU1066
.LBB961:
	.loc 3 3047 3 view .LVU1067
	.loc 3 3048 3 view .LVU1068
	.loc 3 3049 3 view .LVU1069
	ldr	r3, [r4, #28]
	orr	r3, r3, #2048
	str	r3, [r4, #28]
.LVL260:
	.loc 3 3049 3 is_stmt 0 view .LVU1070
.LBE961:
.LBE960:
	.loc 1 331 3 is_stmt 1 view .LVU1071
.LBB962:
.LBI962:
	.loc 3 6586 22 view .LVU1072
.LBB963:
	.loc 3 6588 3 view .LVU1073
	ldr	r3, [r4, #20]
	orr	r3, r3, #1
	str	r3, [r4, #20]
	.loc 3 6588 3 is_stmt 0 view .LVU1074
.LBE963:
.LBE962:
	.loc 1 332 3 is_stmt 1 view .LVU1075
	.loc 1 332 6 is_stmt 0 view .LVU1076
	ldrb	r3, [r2, #171]	@ zero_extendqisi2
	cmp	r3, #2
	beq	.L205
	.loc 1 357 5 is_stmt 1 view .LVU1077
	.loc 1 357 8 is_stmt 0 view .LVU1078
	ldrb	r3, [r7, #120]	@ zero_extendqisi2
	cbnz	r3, .L150
	.loc 1 359 7 is_stmt 1 view .LVU1079
	.loc 1 359 37 is_stmt 0 view .LVU1080
	ldrb	r3, [r2, #166]	@ zero_extendqisi2
	.loc 1 359 10 view .LVU1081
	cmp	r3, #1
	beq	.L202
	.loc 1 363 12 is_stmt 1 view .LVU1082
	.loc 1 363 15 is_stmt 0 view .LVU1083
	cmp	r3, #3
	beq	.L206
.L150:
	.loc 1 379 5 is_stmt 1 view .LVU1084
	.loc 1 381 3 view .LVU1085
.LVL261:
.LBB964:
.LBI964:
	.loc 3 5653 22 view .LVU1086
.LBB965:
	.loc 3 5655 3 view .LVU1087
	mvn	r3, #128
	str	r3, [r4, #16]
	.loc 3 5655 3 is_stmt 0 view .LVU1088
.LBE965:
.LBE964:
	.loc 1 382 3 is_stmt 1 view .LVU1089
	.loc 1 383 3 view .LVU1090
.LVL262:
.LBB966:
.LBI966:
	.loc 3 5686 26 view .LVU1091
.LBB967:
	.loc 3 5688 3 view .LVU1092
	.loc 3 5688 12 is_stmt 0 view .LVU1093
	ldr	r3, [r4, #16]
	.loc 3 5688 68 view .LVU1094
	lsls	r3, r3, #23
	bpl	.L207
.LVL263:
	.loc 3 5688 68 view .LVU1095
.LBE967:
.LBE966:
	.loc 1 384 9 is_stmt 1 view .LVU1096
	.loc 1 384 23 is_stmt 0 view .LVU1097
	ldr	r3, [sp, #20]
	.loc 1 384 9 view .LVU1098
	cbz	r3, .L156
.LBB968:
.LBB969:
	.loc 3 5677 3 view .LVU1099
	mvn	r2, #256
.L155:
.LBE969:
.LBE968:
	.loc 1 386 5 is_stmt 1 view .LVU1100
.LVL264:
.LBB972:
.LBI968:
	.loc 3 5675 22 view .LVU1101
.LBB970:
	.loc 3 5677 3 view .LVU1102
	.loc 3 5677 3 is_stmt 0 view .LVU1103
.LBE970:
.LBE972:
	.loc 1 384 9 is_stmt 1 view .LVU1104
.LBB973:
.LBB971:
	.loc 3 5677 3 is_stmt 0 view .LVU1105
	str	r2, [r4, #16]
	.loc 3 5677 3 view .LVU1106
.LBE971:
.LBE973:
	.loc 1 387 5 is_stmt 1 view .LVU1107
	.loc 1 387 16 is_stmt 0 view .LVU1108
	ldr	r3, [sp, #20]
	subs	r3, r3, #1
	str	r3, [sp, #20]
	.loc 1 388 5 is_stmt 1 view .LVU1109
.LVL265:
.LBB974:
.LBI974:
	.loc 3 5686 26 view .LVU1110
.LBB975:
	.loc 3 5688 3 view .LVU1111
	.loc 3 5688 12 is_stmt 0 view .LVU1112
	ldr	r3, [r4, #16]
	.loc 3 5688 68 view .LVU1113
	tst	r3, #256
.LBE975:
.LBE974:
	.loc 1 384 23 view .LVU1114
	ldr	r3, [sp, #20]
.LBB977:
.LBB976:
	.loc 3 5688 68 view .LVU1115
	beq	.L156
.LBE976:
.LBE977:
	.loc 1 384 9 view .LVU1116
	cmp	r3, #0
	bne	.L155
	b	.L156
.LVL266:
.L207:
	.loc 1 384 9 is_stmt 1 view .LVU1117
	.loc 1 384 23 is_stmt 0 view .LVU1118
	ldr	r3, [sp, #20]
.LVL267:
.L156:
	.loc 1 390 3 is_stmt 1 view .LVU1119
.LBB978:
.LBI978:
	.loc 3 6152 22 view .LVU1120
.LBB979:
	.loc 3 6154 3 view .LVU1121
	ldr	r3, [r4, #12]
	orr	r3, r3, #128
	str	r3, [r4, #12]
	.loc 3 6154 3 is_stmt 0 view .LVU1122
.LBE979:
.LBE978:
	.loc 1 393 3 is_stmt 1 view .LVU1123
.LVL268:
.LBB980:
.LBI980:
	.loc 3 2604 22 view .LVU1124
.LBB981:
	.loc 3 2606 3 view .LVU1125
	ldr	r3, [r4, #32]
	orr	r3, r3, #1360
	orr	r3, r3, #5
	str	r3, [r4, #32]
.LVL269:
	.loc 3 2606 3 is_stmt 0 view .LVU1126
.LBE981:
.LBE980:
.LBE947:
.LBE946:
	.loc 1 246 5 is_stmt 1 view .LVU1127
	.loc 1 250 1 is_stmt 0 view .LVU1128
	add	sp, sp, #28
.LCFI31:
	.cfi_remember_state
	.cfi_def_cfa_offset 36
	@ sp needed
	pop	{r4, r5, r6, r7, r8, r9, r10, fp, pc}
.LVL270:
.L205:
.LCFI32:
	.cfi_restore_state
.LBB1000:
.LBB998:
	.loc 1 334 5 is_stmt 1 view .LVU1129
	.loc 1 334 8 is_stmt 0 view .LVU1130
	ldrb	r3, [r2, #172]	@ zero_extendqisi2
	cmp	r3, #1
	beq	.L208
.L202:
	.loc 1 361 9 is_stmt 1 view .LVU1131
	.loc 1 361 33 is_stmt 0 view .LVU1132
	ldrh	r3, [r7, #148]
	.loc 1 361 9 view .LVU1133
	subs	r3, r3, #1
.LVL271:
.LBB982:
.LBI982:
	.loc 3 2277 22 is_stmt 1 view .LVU1134
.LBB983:
	.loc 3 2279 3 view .LVU1135
	str	r3, [r4, #36]
	.loc 3 2280 1 is_stmt 0 view .LVU1136
	b	.L150
.LVL272:
.L204:
	.loc 3 2280 1 view .LVU1137
.LBE983:
.LBE982:
.LBE998:
.LBE1000:
	.loc 1 235 9 is_stmt 1 view .LVU1138
	mov	r0, r5
	bl	R3_2_ADCxInit
.LVL273:
	b	.L147
.L203:
	.loc 1 222 9 view .LVU1139
	mov	r0, r6
	bl	R3_2_ADCxInit
.LVL274:
	.loc 1 226 9 view .LVU1140
.LBB1001:
.LBI1001:
	.loc 2 8454 22 view .LVU1141
.LBB1002:
	.loc 2 8456 3 view .LVU1142
	movs	r3, #64
	str	r3, [r6]
	.loc 2 8456 3 is_stmt 0 view .LVU1143
.LBE1002:
.LBE1001:
	.loc 1 227 9 is_stmt 1 view .LVU1144
.LVL275:
.LBB1003:
.LBI1003:
	.loc 2 8849 22 view .LVU1145
.LBB1004:
	.loc 2 8851 3 view .LVU1146
	ldr	r3, [r6, #4]
	orr	r3, r3, #64
	str	r3, [r6, #4]
	.loc 2 8852 1 is_stmt 0 view .LVU1147
	b	.L146
.LVL276:
.L208:
	.loc 2 8852 1 view .LVU1148
.LBE1004:
.LBE1003:
.LBB1005:
.LBB999:
	.loc 1 336 7 is_stmt 1 view .LVU1149
	.loc 1 336 10 is_stmt 0 view .LVU1150
	ldrb	r2, [r2, #166]	@ zero_extendqisi2
	cmp	r2, #3
	bne	.L202
	.loc 1 339 9 is_stmt 1 view .LVU1151
.LVL277:
.LBB984:
.LBI984:
	.loc 3 2378 22 view .LVU1152
.LBB985:
	.loc 3 2380 3 view .LVU1153
	str	r3, [r4, #48]
.LVL278:
	.loc 3 2380 3 is_stmt 0 view .LVU1154
.LBE985:
.LBE984:
	.loc 1 340 9 is_stmt 1 view .LVU1155
.LBB986:
.LBI986:
	.loc 3 6586 22 view .LVU1156
.LBB987:
	.loc 3 6588 3 view .LVU1157
	ldr	r3, [r4, #20]
	orr	r3, r3, #1
	str	r3, [r4, #20]
	.loc 3 6588 3 is_stmt 0 view .LVU1158
.LBE987:
.LBE986:
	.loc 1 342 9 is_stmt 1 view .LVU1159
.LVL279:
.LBB988:
.LBI988:
	.loc 3 2378 22 view .LVU1160
.LBB989:
	.loc 3 2380 3 view .LVU1161
	str	r2, [r4, #48]
.LVL280:
	.loc 3 2380 3 is_stmt 0 view .LVU1162
.LBE989:
.LBE988:
	.loc 1 352 5 is_stmt 1 view .LVU1163
	.loc 1 353 5 view .LVU1164
.LBB991:
.LBB990:
	.loc 3 2381 1 is_stmt 0 view .LVU1165
	b	.L202
.L206:
.LBE990:
.LBE991:
	.loc 1 366 9 is_stmt 1 view .LVU1166
.LVL281:
.LBB992:
.LBI992:
	.loc 3 2378 22 view .LVU1167
.LBB993:
	.loc 3 2380 3 view .LVU1168
	movs	r2, #1
	str	r2, [r4, #48]
.LVL282:
	.loc 3 2380 3 is_stmt 0 view .LVU1169
.LBE993:
.LBE992:
	.loc 1 367 9 is_stmt 1 view .LVU1170
.LBB994:
.LBI994:
	.loc 3 6586 22 view .LVU1171
.LBB995:
	.loc 3 6588 3 view .LVU1172
	ldr	r2, [r4, #20]
	orr	r2, r2, #1
	str	r2, [r4, #20]
	.loc 3 6588 3 is_stmt 0 view .LVU1173
.LBE995:
.LBE994:
	.loc 1 369 9 is_stmt 1 view .LVU1174
.LVL283:
.LBB996:
.LBI996:
	.loc 3 2378 22 view .LVU1175
.LBB997:
	.loc 3 2380 3 view .LVU1176
	str	r3, [r4, #48]
	.loc 3 2381 1 is_stmt 0 view .LVU1177
	b	.L150
.L210:
	.align	2
.L209:
	.word	-536600576
	.word	1073818624
.LBE997:
.LBE996:
.LBE999:
.LBE1005:
	.cfi_endproc
.LFE1438:
	.size	R3_2_Init, .-R3_2_Init
	.section	.text.R3_2_SetOffsetCalib,"ax",%progbits
	.align	1
	.p2align 2,,3
	.weak	R3_2_SetOffsetCalib
	.syntax unified
	.thumb
	.thumb_func
	.fpu fpv4-sp-d16
	.type	R3_2_SetOffsetCalib, %function
R3_2_SetOffsetCalib:
.LVL284:
.LFB1441:
	.loc 1 402 1 is_stmt 1 view -0
	.cfi_startproc
	@ args = 0, pretend = 0, frame = 0
	@ frame_needed = 0, uses_anonymous_args = 0
	@ link register save eliminated.
	.loc 1 411 5 view .LVU1179
	.loc 1 413 5 view .LVU1180
	.loc 1 414 5 view .LVU1181
	.loc 1 415 5 view .LVU1182
	.loc 1 402 1 is_stmt 0 view .LVU1183
	push	{r4}
.LCFI33:
	.cfi_def_cfa_offset 4
	.cfi_offset 4, -4
	.loc 1 413 29 view .LVU1184
	ldrd	r4, r2, [r1, #4]
	.loc 1 413 27 view .LVU1185
	ldr	r3, [r1]
	str	r3, [r0, #136]
	.loc 1 416 29 view .LVU1186
	movs	r3, #1
	.loc 1 413 27 view .LVU1187
	strd	r4, r2, [r0, #140]
	.loc 1 416 5 is_stmt 1 view .LVU1188
	.loc 1 416 29 is_stmt 0 view .LVU1189
	strb	r3, [r0, #127]
	.loc 1 420 1 view .LVU1190
	ldr	r4, [sp], #4
.LCFI34:
	.cfi_restore 4
	.cfi_def_cfa_offset 0
	bx	lr
	.cfi_endproc
.LFE1441:
	.size	R3_2_SetOffsetCalib, .-R3_2_SetOffsetCalib
	.section	.text.R3_2_GetOffsetCalib,"ax",%progbits
	.align	1
	.p2align 2,,3
	.weak	R3_2_GetOffsetCalib
	.syntax unified
	.thumb
	.thumb_func
	.fpu fpv4-sp-d16
	.type	R3_2_GetOffsetCalib, %function
R3_2_GetOffsetCalib:
.LVL285:
.LFB1442:
	.loc 1 427 1 is_stmt 1 view -0
	.cfi_startproc
	@ args = 0, pretend = 0, frame = 0
	@ frame_needed = 0, uses_anonymous_args = 0
	@ link register save eliminated.
	.loc 1 436 3 view .LVU1192
	.loc 1 438 3 view .LVU1193
	.loc 1 439 3 view .LVU1194
	.loc 1 440 3 view .LVU1195
	.loc 1 438 27 is_stmt 0 view .LVU1196
	ldrd	r2, r3, [r0, #140]
	.loc 1 438 25 view .LVU1197
	ldr	r0, [r0, #136]
.LVL286:
	.loc 1 438 25 view .LVU1198
	str	r3, [r1, #8]
	strd	r0, r2, [r1]
	.loc 1 444 1 view .LVU1199
	bx	lr
	.cfi_endproc
.LFE1442:
	.size	R3_2_GetOffsetCalib, .-R3_2_GetOffsetCalib
	.section	.text.R3_2_CurrentReadingPolarization,"ax",%progbits
	.align	1
	.p2align 2,,3
	.weak	R3_2_CurrentReadingPolarization
	.syntax unified
	.thumb
	.thumb_func
	.fpu fpv4-sp-d16
	.type	R3_2_CurrentReadingPolarization, %function
R3_2_CurrentReadingPolarization:
.LVL287:
.LFB1443:
	.loc 1 453 1 is_stmt 1 view -0
	.cfi_startproc
	@ args = 0, pretend = 0, frame = 16
	@ frame_needed = 0, uses_anonymous_args = 0
	.loc 1 454 3 view .LVU1201
	.loc 1 453 1 is_stmt 0 view .LVU1202
	push	{r4, r5, r6, r7, lr}
.LCFI35:
	.cfi_def_cfa_offset 20
	.cfi_offset 4, -20
	.cfi_offset 5, -16
	.cfi_offset 6, -12
	.cfi_offset 7, -8
	.cfi_offset 14, -4
	.loc 1 455 30 view .LVU1203
	ldr	r3, [r0, #156]
	.loc 1 461 6 view .LVU1204
	ldrb	r2, [r0, #127]	@ zero_extendqisi2
	.loc 1 456 16 view .LVU1205
	ldr	r7, [r3, #56]
	.loc 1 457 16 view .LVU1206
	ldr	r6, [r3, #80]
	.loc 1 453 1 view .LVU1207
	sub	sp, sp, #20
.LCFI36:
	.cfi_def_cfa_offset 40
	.loc 1 453 1 view .LVU1208
	mov	r4, r0
.LVL288:
	.loc 1 455 3 is_stmt 1 view .LVU1209
	.loc 1 456 3 view .LVU1210
	.loc 1 457 3 view .LVU1211
	.loc 1 458 3 view .LVU1212
	.loc 1 459 3 view .LVU1213
	.loc 1 461 3 view .LVU1214
	.loc 1 461 6 is_stmt 0 view .LVU1215
	cbz	r2, .L215
	.loc 1 463 5 is_stmt 1 view .LVU1216
.LVL289:
.LBB1006:
.LBI1006:
	.loc 2 8056 22 view .LVU1217
.LBB1007:
	.loc 2 8061 3 view .LVU1218
	ldr	r2, [r7, #8]
	ldr	r1, .L220
	ands	r2, r2, r1
	orr	r2, r2, #8
	str	r2, [r7, #8]
.LVL290:
	.loc 2 8061 3 is_stmt 0 view .LVU1219
.LBE1007:
.LBE1006:
	.loc 1 464 5 is_stmt 1 view .LVU1220
.LBB1008:
.LBI1008:
	.loc 2 8056 22 view .LVU1221
.LBB1009:
	.loc 2 8061 3 view .LVU1222
	ldr	r3, [r6, #8]
.LVL291:
	.loc 2 8061 3 is_stmt 0 view .LVU1223
	ands	r3, r3, r1
.LBE1009:
.LBE1008:
	.loc 1 465 43 view .LVU1224
	movs	r2, #128
.LBB1011:
.LBB1010:
	.loc 2 8061 3 view .LVU1225
	orr	r3, r3, #8
	str	r3, [r6, #8]
.LVL292:
	.loc 2 8061 3 view .LVU1226
.LBE1010:
.LBE1011:
	.loc 1 465 5 is_stmt 1 view .LVU1227
	.loc 1 465 43 is_stmt 0 view .LVU1228
	strh	r2, [r0, #150]	@ movhi
.LVL293:
.L216:
	.loc 1 552 3 is_stmt 1 view .LVU1229
	.loc 1 552 26 is_stmt 0 view .LVU1230
	movs	r2, #4
	.loc 1 554 35 view .LVU1231
	movs	r3, #0
	.loc 1 552 26 view .LVU1232
	strb	r2, [r4, #122]
	.loc 1 554 3 is_stmt 1 view .LVU1233
	.loc 1 554 35 is_stmt 0 view .LVU1234
	strb	r3, [r4, #131]
	.loc 1 556 1 view .LVU1235
	add	sp, sp, #20
.LCFI37:
	.cfi_remember_state
	.cfi_def_cfa_offset 20
	@ sp needed
	pop	{r4, r5, r6, r7, pc}
.LVL294:
.L215:
.LCFI38:
	.cfi_restore_state
	.loc 1 455 16 view .LVU1236
	ldr	r5, [r3]
	.loc 1 470 5 is_stmt 1 view .LVU1237
	.loc 1 470 41 is_stmt 0 view .LVU1238
	ldr	r3, [r0]
.LVL295:
	.loc 1 470 24 view .LVU1239
	str	r3, [sp, #8]
	.loc 1 471 5 is_stmt 1 view .LVU1240
	.loc 1 471 46 is_stmt 0 view .LVU1241
	ldr	r3, [r0, #20]
	.loc 1 471 29 view .LVU1242
	str	r3, [sp, #12]
	.loc 1 473 5 is_stmt 1 view .LVU1243
	.loc 1 474 5 view .LVU1244
	.loc 1 475 5 view .LVU1245
	.loc 1 476 5 view .LVU1246
	.loc 1 476 34 is_stmt 0 view .LVU1247
	strb	r2, [r0, #152]
.LVL296:
	.loc 1 479 5 is_stmt 1 view .LVU1248
.LBB1012:
.LBI1012:
	.loc 3 2635 22 view .LVU1249
.LBB1013:
	.loc 3 2637 3 view .LVU1250
	ldr	r3, [r5, #32]
.LBE1013:
.LBE1012:
	.loc 1 475 27 is_stmt 0 view .LVU1251
	str	r2, [r0, #144]
.LBB1016:
.LBB1014:
	.loc 3 2637 3 view .LVU1252
	bic	r3, r3, #1360
	bic	r3, r3, #5
.LBE1014:
.LBE1016:
	.loc 1 474 27 view .LVU1253
	strd	r2, r2, [r0, #136]
.LBB1017:
.LBB1015:
	.loc 3 2637 3 view .LVU1254
	str	r3, [r5, #32]
.LVL297:
	.loc 3 2637 3 view .LVU1255
.LBE1015:
.LBE1017:
	.loc 1 483 5 is_stmt 1 view .LVU1256
	.loc 1 488 32 is_stmt 0 view .LVU1257
	movs	r3, #4
	strb	r3, [r0, #153]
	.loc 1 490 28 view .LVU1258
	strb	r3, [r0, #122]
	.loc 1 483 42 view .LVU1259
	ldr	r3, .L220+4
	str	r3, [r0]
	.loc 1 484 5 is_stmt 1 view .LVU1260
	.loc 1 484 46 is_stmt 0 view .LVU1261
	ldr	r3, .L220+8
	str	r3, [r0, #20]
	.loc 1 485 5 is_stmt 1 view .LVU1262
	.loc 1 485 43 is_stmt 0 view .LVU1263
	movs	r3, #128
	strh	r3, [r0, #150]	@ movhi
	.loc 1 488 5 is_stmt 1 view .LVU1264
	.loc 1 490 5 view .LVU1265
	.loc 1 491 5 view .LVU1266
	bl	R3_2_SwitchOnPWM
.LVL298:
	.loc 1 495 5 view .LVU1267
	.loc 1 495 25 is_stmt 0 view .LVU1268
	ldr	r2, .L220+12
.L217:
	.loc 1 498 5 is_stmt 1 discriminator 1 view .LVU1269
	.loc 1 495 11 discriminator 1 view .LVU1270
	.loc 1 495 18 is_stmt 0 discriminator 1 view .LVU1271
	ldr	r3, [r5, #4]
	.loc 1 495 25 discriminator 1 view .LVU1272
	ands	r3, r3, r2
	.loc 1 495 11 discriminator 1 view .LVU1273
	cmp	r3, #112
	bne	.L217
	.loc 1 501 5 is_stmt 1 view .LVU1274
.LVL299:
.LBB1018:
.LBI1018:
	.loc 2 8056 22 view .LVU1275
.LBB1019:
	.loc 2 8061 3 view .LVU1276
	ldr	r2, [r7, #8]
	ldr	r1, .L220
	ands	r2, r2, r1
	orr	r2, r2, #8
	str	r2, [r7, #8]
.LVL300:
	.loc 2 8061 3 is_stmt 0 view .LVU1277
.LBE1019:
.LBE1018:
	.loc 1 502 5 is_stmt 1 view .LVU1278
.LBB1020:
.LBI1020:
	.loc 2 8056 22 view .LVU1279
.LBB1021:
	.loc 2 8061 3 view .LVU1280
	ldr	r3, [r6, #8]
.LBE1021:
.LBE1020:
	.loc 1 505 5 is_stmt 0 view .LVU1281
	ldr	r2, [r4, #156]
.LBB1023:
.LBB1022:
	.loc 2 8061 3 view .LVU1282
	ands	r3, r3, r1
	orr	r3, r3, #8
	str	r3, [r6, #8]
.LVL301:
	.loc 2 8061 3 view .LVU1283
.LBE1022:
.LBE1023:
	.loc 1 505 5 is_stmt 1 view .LVU1284
	add	r1, r4, #86
	add	r3, r4, #152
	ldrb	r2, [r2, #166]	@ zero_extendqisi2
	mov	r0, r5
	strd	r1, r3, [sp]
	bl	waitForPolarizationEnd
.LVL302:
	.loc 1 510 5 view .LVU1285
	mov	r0, r4
	bl	R3_2_SwitchOffPWM
.LVL303:
	.loc 1 513 5 view .LVU1286
	.loc 1 513 34 is_stmt 0 view .LVU1287
	movs	r2, #0
	strb	r2, [r4, #152]
	.loc 1 516 5 is_stmt 1 view .LVU1288
	.loc 1 518 32 is_stmt 0 view .LVU1289
	strb	r2, [r4, #153]
	.loc 1 520 28 view .LVU1290
	strb	r2, [r4, #122]
	.loc 1 516 42 view .LVU1291
	ldr	r2, .L220+16
	str	r2, [r4]
	.loc 1 518 5 is_stmt 1 view .LVU1292
	.loc 1 520 5 view .LVU1293
	.loc 1 521 5 view .LVU1294
	mov	r0, r4
	bl	R3_2_SwitchOnPWM
.LVL304:
	.loc 1 524 5 view .LVU1295
	ldr	r2, [r4, #156]
	ldr	r3, [sp, #4]
	ldrb	r2, [r2, #166]	@ zero_extendqisi2
	ldr	r1, [sp]
	mov	r0, r5
	bl	waitForPolarizationEnd
.LVL305:
	.loc 1 529 5 view .LVU1296
	mov	r0, r4
	bl	R3_2_SwitchOffPWM
.LVL306:
	.loc 1 530 5 view .LVU1297
	.loc 1 531 27 is_stmt 0 view .LVU1298
	ldrd	r1, r2, [r4, #136]
	.loc 1 532 27 view .LVU1299
	ldr	r3, [r4, #144]
	.loc 1 530 27 view .LVU1300
	lsrs	r0, r1, #4
	.loc 1 531 27 view .LVU1301
	lsrs	r1, r2, #4
	.loc 1 532 27 view .LVU1302
	lsrs	r2, r3, #4
	.loc 1 542 5 view .LVU1303
	ldrh	r3, [r4, #148]
	.loc 1 532 27 view .LVU1304
	str	r2, [r4, #144]
	.loc 1 531 27 view .LVU1305
	strd	r0, r1, [r4, #136]
	.loc 1 532 5 is_stmt 1 view .LVU1306
	.loc 1 533 5 view .LVU1307
	.loc 1 536 5 view .LVU1308
	.loc 1 542 5 is_stmt 0 view .LVU1309
	lsrs	r3, r3, #1
	.loc 1 536 42 view .LVU1310
	ldr	r1, [sp, #8]
	.loc 1 537 46 view .LVU1311
	ldr	r2, [sp, #12]
	.loc 1 536 42 view .LVU1312
	str	r1, [r4]
	.loc 1 537 5 is_stmt 1 view .LVU1313
	.loc 1 533 39 is_stmt 0 view .LVU1314
	movs	r0, #1
	strb	r0, [r4, #127]
	.loc 1 537 46 view .LVU1315
	str	r2, [r4, #20]
	.loc 1 542 5 is_stmt 1 view .LVU1316
.LVL307:
.LBB1024:
.LBI1024:
	.loc 3 3217 22 view .LVU1317
.LBB1025:
	.loc 3 3219 3 view .LVU1318
	str	r3, [r5, #52]
.LVL308:
	.loc 3 3219 3 is_stmt 0 view .LVU1319
.LBE1025:
.LBE1024:
	.loc 1 543 5 is_stmt 1 view .LVU1320
.LBB1026:
.LBI1026:
	.loc 3 3235 22 view .LVU1321
.LBB1027:
	.loc 3 3237 3 view .LVU1322
	str	r3, [r5, #56]
.LVL309:
	.loc 3 3237 3 is_stmt 0 view .LVU1323
.LBE1027:
.LBE1026:
	.loc 1 544 5 is_stmt 1 view .LVU1324
.LBB1028:
.LBI1028:
	.loc 3 3253 22 view .LVU1325
.LBB1029:
	.loc 3 3255 3 view .LVU1326
	str	r3, [r5, #60]
.LVL310:
	.loc 3 3255 3 is_stmt 0 view .LVU1327
.LBE1029:
.LBE1028:
	.loc 1 546 5 is_stmt 1 view .LVU1328
.LBB1030:
.LBI1030:
	.loc 3 6641 22 view .LVU1329
.LBB1031:
	.loc 3 6643 3 view .LVU1330
	ldr	r3, [r5, #20]
	orr	r3, r3, #32
	str	r3, [r5, #20]
	.loc 3 6643 3 is_stmt 0 view .LVU1331
.LBE1031:
.LBE1030:
	.loc 1 549 5 is_stmt 1 view .LVU1332
.LVL311:
.LBB1032:
.LBI1032:
	.loc 3 2604 22 view .LVU1333
.LBB1033:
	.loc 3 2606 3 view .LVU1334
	ldr	r3, [r5, #32]
	orr	r3, r3, #1360
	orr	r3, r3, #5
	str	r3, [r5, #32]
	.loc 3 2607 1 is_stmt 0 view .LVU1335
	b	.L216
.L221:
	.align	2
.L220:
	.word	2147483584
	.word	R3_2_HFCurrentsPolarizationAB
	.word	R3_2_SetADCSampPointPolarization
	.word	33554544
	.word	R3_2_HFCurrentsPolarizationC
.LBE1033:
.LBE1032:
	.cfi_endproc
.LFE1443:
	.size	R3_2_CurrentReadingPolarization, .-R3_2_CurrentReadingPolarization
	.section	.text.R3_2_GetPhaseCurrents_OVM,"ax",%progbits
	.align	1
	.p2align 2,,3
	.weak	R3_2_GetPhaseCurrents_OVM
	.syntax unified
	.thumb
	.thumb_func
	.fpu fpv4-sp-d16
	.type	R3_2_GetPhaseCurrents_OVM, %function
R3_2_GetPhaseCurrents_OVM:
.LVL312:
.LFB1445:
	.loc 1 742 1 is_stmt 1 view -0
	.cfi_startproc
	@ args = 0, pretend = 0, frame = 0
	@ frame_needed = 0, uses_anonymous_args = 0
	@ link register save eliminated.
	.loc 1 751 5 view .LVU1337
	.loc 1 752 5 view .LVU1338
	.loc 1 752 32 is_stmt 0 view .LVU1339
	ldr	r3, [r0, #156]
	.loc 1 742 1 view .LVU1340
	push	{r4, r5, r6}
.LCFI39:
	.cfi_def_cfa_offset 12
	.cfi_offset 4, -12
	.cfi_offset 5, -8
	.cfi_offset 6, -4
	.loc 1 752 18 view .LVU1341
	ldr	r4, [r3]
.LVL313:
	.loc 1 754 5 is_stmt 1 view .LVU1342
	.loc 1 755 5 view .LVU1343
	.loc 1 756 5 view .LVU1344
	.loc 1 757 5 view .LVU1345
	.loc 1 760 5 view .LVU1346
.LBB1034:
.LBI1034:
	.loc 3 4007 22 view .LVU1347
.LBB1035:
	.loc 3 4009 3 view .LVU1348
	ldr	r2, [r4, #4]
	bic	r2, r2, #33554432
	bic	r2, r2, #112
	str	r2, [r4, #4]
.LVL314:
	.loc 3 4009 3 is_stmt 0 view .LVU1349
.LBE1035:
.LBE1034:
	.loc 1 762 5 is_stmt 1 view .LVU1350
	.loc 1 762 12 is_stmt 0 view .LVU1351
	ldrb	r2, [r0, #122]	@ zero_extendqisi2
.LVL315:
	.loc 1 763 5 is_stmt 1 view .LVU1352
	add	r3, r3, r2, lsl #2
	.loc 1 764 52 is_stmt 0 view .LVU1353
	ldr	r4, [r3, #80]
.LVL316:
	.loc 1 763 52 view .LVU1354
	ldr	r5, [r3, #56]
	.loc 1 763 17 view .LVU1355
	ldr	r3, [r5, #128]
.LVL317:
	.loc 1 764 5 is_stmt 1 view .LVU1356
	.loc 1 764 17 is_stmt 0 view .LVU1357
	ldr	r4, [r4, #128]
.LVL318:
	.loc 1 766 5 is_stmt 1 view .LVU1358
	cmp	r2, #5
	bhi	.L223
	tbb	[pc, r2]
.L225:
	.byte	(.L230-.L225)/2
	.byte	(.L229-.L225)/2
	.byte	(.L228-.L225)/2
	.byte	(.L227-.L225)/2
	.byte	(.L226-.L225)/2
	.byte	(.L224-.L225)/2
	.p2align 1
.L224:
	.loc 1 866 9 view .LVU1359
	.loc 1 866 13 is_stmt 0 view .LVU1360
	ldr	r5, [r0, #140]
	.loc 1 869 12 view .LVU1361
	ldr	r2, .L300
.LVL319:
	.loc 1 866 13 view .LVU1362
	subs	r3, r5, r3
.LVL320:
	.loc 1 869 9 is_stmt 1 view .LVU1363
	.loc 1 869 12 is_stmt 0 view .LVU1364
	cmp	r3, r2
	bge	.L248
	.loc 1 871 11 is_stmt 1 view .LVU1365
	mov	r3, r2
.LVL321:
	.loc 1 871 18 is_stmt 0 view .LVU1366
	strh	r2, [r1, #2]	@ movhi
.LVL322:
	.loc 1 871 18 view .LVU1367
	mov	r5, r3
	.loc 1 871 18 view .LVU1368
	movw	r2, #32769
.L249:
	.loc 1 882 9 is_stmt 1 view .LVU1369
	.loc 1 882 28 is_stmt 0 view .LVU1370
	ldrb	r6, [r0, #132]	@ zero_extendqisi2
	.loc 1 882 12 view .LVU1371
	cmp	r6, #0
	beq	.L251
	.loc 1 884 11 is_stmt 1 view .LVU1372
	.loc 1 884 15 is_stmt 0 view .LVU1373
	ldrsh	r4, [r0, #108]
.LVL323:
	.loc 1 885 11 is_stmt 1 view .LVU1374
	.loc 1 885 15 is_stmt 0 view .LVU1375
	subs	r3, r4, r3
.LVL324:
.L298:
	.loc 1 940 9 is_stmt 1 view .LVU1376
	.loc 1 940 12 is_stmt 0 view .LVU1377
	cmp	r3, #32768
	blt	.L261
.L299:
	.loc 1 942 11 is_stmt 1 view .LVU1378
	.loc 1 942 18 is_stmt 0 view .LVU1379
	movw	r3, #32767
.LVL325:
	.loc 1 942 18 view .LVU1380
	strh	r3, [r1]	@ movhi
	mov	ip, r3
.L231:
	.loc 1 1054 5 is_stmt 1 view .LVU1381
	.loc 1 1056 34 is_stmt 0 view .LVU1382
	add	r3, r3, r2
	rsbs	r3, r3, #0
	.loc 1 1055 24 view .LVU1383
	strh	r5, [r0, #100]	@ movhi
	.loc 1 1054 24 view .LVU1384
	strh	ip, [r0, #98]	@ movhi
	.loc 1 1055 5 is_stmt 1 view .LVU1385
	.loc 1 1056 5 view .LVU1386
	.loc 1 1060 1 is_stmt 0 view .LVU1387
	pop	{r4, r5, r6}
.LCFI40:
	.cfi_remember_state
	.cfi_restore 6
	.cfi_restore 5
	.cfi_restore 4
	.cfi_def_cfa_offset 0
	.loc 1 1056 24 view .LVU1388
	strh	r3, [r0, #102]	@ movhi
	.loc 1 1060 1 view .LVU1389
	bx	lr
.LVL326:
.L230:
.LCFI41:
	.cfi_restore_state
	.loc 1 913 9 is_stmt 1 view .LVU1390
	.loc 1 913 36 is_stmt 0 view .LVU1391
	ldrb	r2, [r0, #132]	@ zero_extendqisi2
.LVL327:
	.loc 1 913 12 view .LVU1392
	cmp	r2, #0
	beq	.L255
	.loc 1 915 11 is_stmt 1 view .LVU1393
	.loc 1 915 42 is_stmt 0 view .LVU1394
	ldrsh	r5, [r0, #106]
	.loc 1 922 12 view .LVU1395
	cmn	r5, #32768
	.loc 1 915 15 view .LVU1396
	mov	r6, r5
.LVL328:
	.loc 1 922 9 is_stmt 1 view .LVU1397
	.loc 1 922 12 is_stmt 0 view .LVU1398
	bne	.L257
.LVL329:
.L256:
	.loc 1 924 11 is_stmt 1 view .LVU1399
	ldr	r6, .L300
.LVL330:
	.loc 1 924 18 is_stmt 0 view .LVU1400
	movw	r2, #32769
	strh	r2, [r1, #2]	@ movhi
.LVL331:
	.loc 1 924 18 view .LVU1401
	mov	r5, r6
.LVL332:
.L259:
	.loc 1 936 9 is_stmt 1 view .LVU1402
	.loc 1 936 13 is_stmt 0 view .LVU1403
	ldr	r3, [r0, #144]
	subs	r3, r4, r3
.LVL333:
	.loc 1 937 9 is_stmt 1 view .LVU1404
	.loc 1 937 13 is_stmt 0 view .LVU1405
	subs	r3, r3, r6
.LVL334:
	.loc 1 940 9 is_stmt 1 view .LVU1406
	.loc 1 940 12 is_stmt 0 view .LVU1407
	cmp	r3, #32768
	bge	.L299
.LVL335:
.L261:
	.loc 1 944 15 is_stmt 1 view .LVU1408
	.loc 1 944 18 is_stmt 0 view .LVU1409
	ldr	r4, .L300
	cmp	r3, r4
	bge	.L262
	.loc 1 946 11 is_stmt 1 view .LVU1410
	.loc 1 946 18 is_stmt 0 view .LVU1411
	strh	r4, [r1]	@ movhi
	movw	r3, #32769
.LVL336:
	.loc 1 946 18 view .LVU1412
	mov	ip, r4
	b	.L231
.LVL337:
.L229:
	.loc 1 959 9 is_stmt 1 view .LVU1413
	.loc 1 959 36 is_stmt 0 view .LVU1414
	ldrb	r2, [r0, #132]	@ zero_extendqisi2
.LVL338:
	.loc 1 959 12 view .LVU1415
	cmp	r2, #0
	beq	.L263
	.loc 1 961 11 is_stmt 1 view .LVU1416
	.loc 1 961 41 is_stmt 0 view .LVU1417
	ldrsh	ip, [r0, #104]
	.loc 1 968 12 view .LVU1418
	cmn	ip, #32768
	.loc 1 961 15 view .LVU1419
	mov	r6, ip
.LVL339:
	.loc 1 968 9 is_stmt 1 view .LVU1420
	.loc 1 968 12 is_stmt 0 view .LVU1421
	bne	.L265
.L264:
	.loc 1 970 11 is_stmt 1 view .LVU1422
	ldr	r6, .L300
.LVL340:
	.loc 1 970 18 is_stmt 0 view .LVU1423
	movw	r3, #32769
.LVL341:
	.loc 1 970 18 view .LVU1424
	strh	r3, [r1]	@ movhi
.LVL342:
	.loc 1 970 18 view .LVU1425
	mov	ip, r6
.L267:
	.loc 1 982 9 is_stmt 1 view .LVU1426
	.loc 1 982 13 is_stmt 0 view .LVU1427
	ldr	r5, [r0, #144]
	subs	r2, r4, r5
.LVL343:
	.loc 1 983 9 is_stmt 1 view .LVU1428
	.loc 1 983 13 is_stmt 0 view .LVU1429
	subs	r2, r2, r6
.LVL344:
	.loc 1 986 9 is_stmt 1 view .LVU1430
	.loc 1 986 12 is_stmt 0 view .LVU1431
	cmp	r2, #32768
	blt	.L276
.LVL345:
.L292:
	.loc 1 1037 11 is_stmt 1 view .LVU1432
	.loc 1 1037 18 is_stmt 0 view .LVU1433
	movw	r2, #32767
	strh	r2, [r1, #2]	@ movhi
	mov	r5, r2
	b	.L231
.LVL346:
.L228:
	.loc 1 1005 9 is_stmt 1 view .LVU1434
	.loc 1 1005 13 is_stmt 0 view .LVU1435
	ldr	r2, [r0, #136]
.LVL347:
	.loc 1 1005 13 view .LVU1436
	subs	r2, r2, r3
.LVL348:
	.loc 1 1008 9 is_stmt 1 view .LVU1437
	.loc 1 1008 12 is_stmt 0 view .LVU1438
	ldr	r3, .L300
.LVL349:
	.loc 1 1008 12 view .LVU1439
	cmp	r2, r3
	bge	.L271
	.loc 1 1010 11 is_stmt 1 view .LVU1440
	mov	r2, r3
.LVL350:
	.loc 1 1010 18 is_stmt 0 view .LVU1441
	strh	r3, [r1]	@ movhi
.LVL351:
	.loc 1 1010 18 view .LVU1442
	mov	ip, r2
	movw	r3, #32769
.L272:
	.loc 1 1021 9 is_stmt 1 view .LVU1443
	.loc 1 1021 28 is_stmt 0 view .LVU1444
	ldrb	r5, [r0, #132]	@ zero_extendqisi2
	.loc 1 1021 12 view .LVU1445
	cmp	r5, #0
	beq	.L274
	.loc 1 1024 11 is_stmt 1 view .LVU1446
	.loc 1 1024 15 is_stmt 0 view .LVU1447
	ldrsh	r4, [r0, #108]
.LVL352:
	.loc 1 1025 11 is_stmt 1 view .LVU1448
	.loc 1 1025 15 is_stmt 0 view .LVU1449
	subs	r2, r4, r2
.LVL353:
.L275:
	.loc 1 1035 9 is_stmt 1 view .LVU1450
	.loc 1 1035 12 is_stmt 0 view .LVU1451
	cmp	r2, #32768
	bge	.L292
.L276:
	.loc 1 1039 15 is_stmt 1 view .LVU1452
	.loc 1 1039 18 is_stmt 0 view .LVU1453
	ldr	r5, .L300
	cmp	r2, r5
	bge	.L277
	.loc 1 1041 11 is_stmt 1 view .LVU1454
	.loc 1 1041 18 is_stmt 0 view .LVU1455
	strh	r5, [r1, #2]	@ movhi
	movw	r2, #32769
.LVL354:
	.loc 1 1041 18 view .LVU1456
	b	.L231
.LVL355:
.L227:
	.loc 1 772 9 is_stmt 1 view .LVU1457
	.loc 1 772 13 is_stmt 0 view .LVU1458
	ldr	r2, [r0, #136]
.LVL356:
	.loc 1 772 13 view .LVU1459
	subs	r3, r2, r3
.LVL357:
	.loc 1 775 9 is_stmt 1 view .LVU1460
	.loc 1 775 12 is_stmt 0 view .LVU1461
	ldr	r2, .L300
	cmp	r3, r2
	bge	.L232
	.loc 1 777 11 is_stmt 1 view .LVU1462
	.loc 1 777 18 is_stmt 0 view .LVU1463
	strh	r2, [r1]	@ movhi
.LVL358:
	.loc 1 777 18 view .LVU1464
	movw	r3, #32769
.LVL359:
	.loc 1 777 18 view .LVU1465
	mov	ip, r2
.L233:
	.loc 1 788 9 is_stmt 1 view .LVU1466
	.loc 1 788 36 is_stmt 0 view .LVU1467
	ldrb	r2, [r0, #132]	@ zero_extendqisi2
	.loc 1 788 12 view .LVU1468
	cbz	r2, .L235
	.loc 1 791 11 is_stmt 1 view .LVU1469
	.loc 1 791 42 is_stmt 0 view .LVU1470
	ldrsh	r5, [r0, #106]
.LVL360:
	.loc 1 800 9 is_stmt 1 view .LVU1471
	.loc 1 800 12 is_stmt 0 view .LVU1472
	cmn	r5, #32768
	bne	.L237
.LVL361:
.L236:
	.loc 1 802 11 is_stmt 1 view .LVU1473
	.loc 1 802 18 is_stmt 0 view .LVU1474
	movw	r2, #32769
	ldr	r5, .L300
	strh	r2, [r1, #2]	@ movhi
	b	.L231
.LVL362:
.L226:
	.loc 1 819 9 is_stmt 1 view .LVU1475
	.loc 1 819 36 is_stmt 0 view .LVU1476
	ldrb	r2, [r0, #132]	@ zero_extendqisi2
.LVL363:
	.loc 1 819 12 view .LVU1477
	cbz	r2, .L240
	.loc 1 822 11 is_stmt 1 view .LVU1478
	.loc 1 822 42 is_stmt 0 view .LVU1479
	ldrsh	r3, [r0, #104]
.LVL364:
	.loc 1 830 9 is_stmt 1 view .LVU1480
	.loc 1 830 12 is_stmt 0 view .LVU1481
	cmn	r3, #32768
	bne	.L242
.LVL365:
.L241:
	.loc 1 832 11 is_stmt 1 view .LVU1482
	.loc 1 832 18 is_stmt 0 view .LVU1483
	movw	r3, #32769
	strh	r3, [r1]	@ movhi
.LVL366:
.L244:
	.loc 1 844 9 is_stmt 1 view .LVU1484
	.loc 1 844 13 is_stmt 0 view .LVU1485
	ldr	r2, [r0, #140]
	.loc 1 847 12 view .LVU1486
	ldr	r5, .L300
	.loc 1 844 13 view .LVU1487
	subs	r4, r2, r4
.LVL367:
	.loc 1 847 9 is_stmt 1 view .LVU1488
	.loc 1 847 12 is_stmt 0 view .LVU1489
	cmp	r4, r5
	bge	.L246
	.loc 1 849 11 is_stmt 1 view .LVU1490
	.loc 1 1054 29 is_stmt 0 view .LVU1491
	ldrsh	ip, [r1]
	.loc 1 849 18 view .LVU1492
	strh	r5, [r1, #2]	@ movhi
	.loc 1 1056 30 view .LVU1493
	uxth	r3, ip
	movw	r2, #32769
	b	.L231
.LVL368:
.L235:
	.loc 1 796 11 is_stmt 1 view .LVU1494
	.loc 1 796 15 is_stmt 0 view .LVU1495
	ldr	r5, [r0, #140]
	subs	r4, r5, r4
.LVL369:
	.loc 1 800 9 is_stmt 1 view .LVU1496
	.loc 1 800 12 is_stmt 0 view .LVU1497
	cmn	r4, #32768
	ble	.L236
	.loc 1 804 15 is_stmt 1 view .LVU1498
	.loc 1 804 18 is_stmt 0 view .LVU1499
	cmp	r4, #32768
	bge	.L292
	.loc 1 810 20 view .LVU1500
	sxth	r5, r4
.LVL370:
.L237:
	.loc 1 810 11 is_stmt 1 view .LVU1501
	.loc 1 810 18 is_stmt 0 view .LVU1502
	strh	r5, [r1, #2]	@ movhi
	.loc 1 1056 39 view .LVU1503
	uxth	r2, r5
	b	.L231
.LVL371:
.L240:
	.loc 1 826 11 is_stmt 1 view .LVU1504
	.loc 1 826 15 is_stmt 0 view .LVU1505
	ldr	r2, [r0, #136]
	subs	r3, r2, r3
.LVL372:
	.loc 1 830 9 is_stmt 1 view .LVU1506
	.loc 1 830 12 is_stmt 0 view .LVU1507
	cmn	r3, #32768
	ble	.L241
	.loc 1 834 15 is_stmt 1 view .LVU1508
	.loc 1 834 18 is_stmt 0 view .LVU1509
	cmp	r3, #32768
	.loc 1 840 20 view .LVU1510
	it	lt
	sxthlt	r3, r3
.LVL373:
	.loc 1 834 18 view .LVU1511
	blt	.L242
	.loc 1 836 11 is_stmt 1 view .LVU1512
	.loc 1 836 18 is_stmt 0 view .LVU1513
	movw	r3, #32767
	strh	r3, [r1]	@ movhi
.LVL374:
	.loc 1 836 18 view .LVU1514
	b	.L244
.LVL375:
.L246:
	.loc 1 851 15 is_stmt 1 view .LVU1515
	.loc 1 851 18 is_stmt 0 view .LVU1516
	cmp	r4, #32768
	blt	.L247
	.loc 1 853 11 is_stmt 1 view .LVU1517
	.loc 1 1054 29 is_stmt 0 view .LVU1518
	ldrsh	ip, [r1]
	.loc 1 853 18 view .LVU1519
	movw	r2, #32767
	strh	r2, [r1, #2]	@ movhi
	.loc 1 1056 30 view .LVU1520
	uxth	r3, ip
	mov	r5, r2
	b	.L231
.LVL376:
.L232:
	.loc 1 779 15 is_stmt 1 view .LVU1521
	.loc 1 779 18 is_stmt 0 view .LVU1522
	cmp	r3, #32768
	blt	.L234
	.loc 1 781 11 is_stmt 1 view .LVU1523
	.loc 1 781 18 is_stmt 0 view .LVU1524
	movw	r2, #32767
	mov	r3, r2
.LVL377:
	.loc 1 781 18 view .LVU1525
	strh	r2, [r1]	@ movhi
.LVL378:
	.loc 1 781 18 view .LVU1526
	mov	ip, r2
	b	.L233
.LVL379:
.L262:
	.loc 1 950 11 is_stmt 1 view .LVU1527
	.loc 1 950 20 is_stmt 0 view .LVU1528
	sxth	ip, r3
	.loc 1 950 18 view .LVU1529
	strh	ip, [r1]	@ movhi
	.loc 1 1056 30 view .LVU1530
	uxth	r3, r3
.LVL380:
	.loc 1 1056 30 view .LVU1531
	b	.L231
.LVL381:
.L255:
	.loc 1 919 11 is_stmt 1 view .LVU1532
	.loc 1 919 15 is_stmt 0 view .LVU1533
	ldr	r6, [r0, #140]
	subs	r6, r6, r3
.LVL382:
	.loc 1 922 9 is_stmt 1 view .LVU1534
	.loc 1 922 12 is_stmt 0 view .LVU1535
	cmn	r6, #32768
	ble	.L256
	.loc 1 926 15 is_stmt 1 view .LVU1536
	.loc 1 926 18 is_stmt 0 view .LVU1537
	cmp	r6, #32768
	.loc 1 932 20 view .LVU1538
	it	lt
	sxthlt	r5, r6
	.loc 1 926 18 view .LVU1539
	blt	.L257
	.loc 1 928 11 is_stmt 1 view .LVU1540
	.loc 1 928 18 is_stmt 0 view .LVU1541
	movw	r3, #32767
.LVL383:
	.loc 1 928 18 view .LVU1542
	mov	r2, r3
	strh	r3, [r1, #2]	@ movhi
.LVL384:
	.loc 1 928 18 view .LVU1543
	mov	r6, r3
.LVL385:
	.loc 1 928 18 view .LVU1544
	mov	r5, r3
	b	.L259
.L251:
	.loc 1 890 11 is_stmt 1 view .LVU1545
	.loc 1 890 15 is_stmt 0 view .LVU1546
	ldr	r6, [r0, #144]
	subs	r4, r4, r6
.LVL386:
	.loc 1 891 11 is_stmt 1 view .LVU1547
	.loc 1 891 15 is_stmt 0 view .LVU1548
	subs	r3, r4, r3
.LVL387:
	.loc 1 894 9 is_stmt 1 view .LVU1549
	b	.L298
.LVL388:
.L248:
	.loc 1 873 15 view .LVU1550
	.loc 1 873 18 is_stmt 0 view .LVU1551
	cmp	r3, #32768
	blt	.L250
	.loc 1 875 11 is_stmt 1 view .LVU1552
	.loc 1 875 18 is_stmt 0 view .LVU1553
	movw	r3, #32767
.LVL389:
	.loc 1 875 18 view .LVU1554
	mov	r2, r3
	strh	r3, [r1, #2]	@ movhi
.LVL390:
	.loc 1 875 18 view .LVU1555
	mov	r5, r3
	.loc 1 875 18 view .LVU1556
	b	.L249
.LVL391:
.L263:
	.loc 1 965 11 is_stmt 1 view .LVU1557
	.loc 1 965 15 is_stmt 0 view .LVU1558
	ldr	r2, [r0, #136]
	subs	r6, r2, r3
.LVL392:
	.loc 1 968 9 is_stmt 1 view .LVU1559
	.loc 1 968 12 is_stmt 0 view .LVU1560
	cmn	r6, #32768
	ble	.L264
	.loc 1 972 15 is_stmt 1 view .LVU1561
	.loc 1 972 18 is_stmt 0 view .LVU1562
	cmp	r6, #32768
	.loc 1 978 20 view .LVU1563
	it	lt
	sxthlt	ip, r6
	.loc 1 972 18 view .LVU1564
	blt	.L265
	.loc 1 974 11 is_stmt 1 view .LVU1565
	.loc 1 974 18 is_stmt 0 view .LVU1566
	movw	r2, #32767
	mov	r3, r2
.LVL393:
	.loc 1 974 18 view .LVU1567
	strh	r2, [r1]	@ movhi
.LVL394:
	.loc 1 974 18 view .LVU1568
	mov	r6, r2
.LVL395:
	.loc 1 974 18 view .LVU1569
	mov	ip, r2
	b	.L267
.LVL396:
.L277:
	.loc 1 1045 11 is_stmt 1 view .LVU1570
	.loc 1 1045 20 is_stmt 0 view .LVU1571
	sxth	r5, r2
	.loc 1 1045 18 view .LVU1572
	strh	r5, [r1, #2]	@ movhi
	.loc 1 1056 39 view .LVU1573
	uxth	r2, r2
.LVL397:
	.loc 1 1056 39 view .LVU1574
	b	.L231
.LVL398:
.L274:
	.loc 1 1030 11 is_stmt 1 view .LVU1575
	.loc 1 1030 15 is_stmt 0 view .LVU1576
	ldr	r5, [r0, #144]
	subs	r4, r4, r5
.LVL399:
	.loc 1 1031 11 is_stmt 1 view .LVU1577
	.loc 1 1031 15 is_stmt 0 view .LVU1578
	subs	r2, r4, r2
.LVL400:
	.loc 1 1031 15 view .LVU1579
	b	.L275
.LVL401:
.L271:
	.loc 1 1012 15 is_stmt 1 view .LVU1580
	.loc 1 1012 18 is_stmt 0 view .LVU1581
	cmp	r2, #32768
	blt	.L273
	.loc 1 1014 11 is_stmt 1 view .LVU1582
	.loc 1 1014 18 is_stmt 0 view .LVU1583
	movw	r2, #32767
.LVL402:
	.loc 1 1014 18 view .LVU1584
	mov	r3, r2
	strh	r2, [r1]	@ movhi
.LVL403:
	.loc 1 1014 18 view .LVU1585
	mov	ip, r2
	b	.L272
.LVL404:
.L273:
	.loc 1 1018 11 is_stmt 1 view .LVU1586
	.loc 1 1018 20 is_stmt 0 view .LVU1587
	sxth	ip, r2
	.loc 1 1018 18 view .LVU1588
	strh	ip, [r1]	@ movhi
.LVL405:
	.loc 1 1056 30 view .LVU1589
	uxth	r3, r2
	b	.L272
.LVL406:
.L250:
	.loc 1 879 11 is_stmt 1 view .LVU1590
	.loc 1 879 20 is_stmt 0 view .LVU1591
	sxth	r5, r3
	.loc 1 879 18 view .LVU1592
	strh	r5, [r1, #2]	@ movhi
.LVL407:
	.loc 1 1056 39 view .LVU1593
	uxth	r2, r3
	b	.L249
.LVL408:
.L234:
	.loc 1 785 11 is_stmt 1 view .LVU1594
	.loc 1 785 20 is_stmt 0 view .LVU1595
	sxth	ip, r3
	.loc 1 785 18 view .LVU1596
	strh	ip, [r1]	@ movhi
.LVL409:
	.loc 1 1056 30 view .LVU1597
	uxth	r3, r3
.LVL410:
	.loc 1 1056 30 view .LVU1598
	b	.L233
.LVL411:
.L247:
	.loc 1 857 11 is_stmt 1 view .LVU1599
	.loc 1 1054 29 is_stmt 0 view .LVU1600
	ldrsh	ip, [r1]
	.loc 1 857 20 view .LVU1601
	sxth	r5, r4
	.loc 1 857 18 view .LVU1602
	strh	r5, [r1, #2]	@ movhi
	.loc 1 1056 30 view .LVU1603
	uxth	r3, ip
	.loc 1 1056 39 view .LVU1604
	uxth	r2, r4
	b	.L231
.LVL412:
.L242:
	.loc 1 840 11 is_stmt 1 view .LVU1605
	.loc 1 840 18 is_stmt 0 view .LVU1606
	strh	r3, [r1]	@ movhi
.LVL413:
	.loc 1 840 18 view .LVU1607
	b	.L244
.LVL414:
.L265:
	.loc 1 978 11 is_stmt 1 view .LVU1608
	.loc 1 978 18 is_stmt 0 view .LVU1609
	strh	ip, [r1]	@ movhi
.LVL415:
	.loc 1 1056 30 view .LVU1610
	uxth	r3, ip
.LVL416:
	.loc 1 1056 30 view .LVU1611
	b	.L267
.LVL417:
.L257:
	.loc 1 932 11 is_stmt 1 view .LVU1612
	.loc 1 932 18 is_stmt 0 view .LVU1613
	strh	r5, [r1, #2]	@ movhi
.LVL418:
	.loc 1 1056 39 view .LVU1614
	uxth	r2, r5
	b	.L259
.LVL419:
.L223:
	.loc 1 1054 29 view .LVU1615
	ldrsh	ip, [r1]
	.loc 1 1055 29 view .LVU1616
	ldrsh	r5, [r1, #2]
	.loc 1 1056 30 view .LVU1617
	ldrh	r3, [r1]
.LVL420:
	.loc 1 1056 39 view .LVU1618
	ldrh	r2, [r1, #2]
.LVL421:
	.loc 1 1056 39 view .LVU1619
	b	.L231
.L301:
	.align	2
.L300:
	.word	-32767
	.cfi_endproc
.LFE1445:
	.size	R3_2_GetPhaseCurrents_OVM, .-R3_2_GetPhaseCurrents_OVM
	.section	.text.R3_2_SetADCSampPointSectX,"ax",%progbits
	.align	1
	.p2align 2,,3
	.global	R3_2_SetADCSampPointSectX
	.syntax unified
	.thumb
	.thumb_func
	.fpu fpv4-sp-d16
	.type	R3_2_SetADCSampPointSectX, %function
R3_2_SetADCSampPointSectX:
.LVL422:
.LFB1447:
	.loc 1 1103 1 is_stmt 1 view -0
	.cfi_startproc
	@ args = 0, pretend = 0, frame = 0
	@ frame_needed = 0, uses_anonymous_args = 0
	.loc 1 1104 3 view .LVU1621
	.loc 1 1113 5 view .LVU1622
	.loc 1 1114 5 view .LVU1623
	.loc 1 1115 5 view .LVU1624
	.loc 1 1118 5 view .LVU1625
	.loc 1 1103 1 is_stmt 0 view .LVU1626
	push	{r4, r5, lr}
.LCFI42:
	.cfi_def_cfa_offset 12
	.cfi_offset 4, -12
	.cfi_offset 5, -8
	.cfi_offset 14, -4
	.loc 1 1118 50 view .LVU1627
	ldrh	r3, [r0, #88]
	.loc 1 1118 27 view .LVU1628
	ldrh	lr, [r0, #148]
	.loc 1 1118 70 view .LVU1629
	ldr	r1, [r0, #156]
	.loc 1 1118 9 view .LVU1630
	sub	r2, lr, r3
	.loc 1 1118 83 view .LVU1631
	ldrh	r4, [r1, #152]
	.loc 1 1118 9 view .LVU1632
	uxth	r2, r2
	.loc 1 1118 8 view .LVU1633
	cmp	r2, r4
	bls	.L303
	.loc 1 1125 7 is_stmt 1 view .LVU1634
	.loc 1 1125 30 is_stmt 0 view .LVU1635
	movs	r2, #4
	.loc 1 1128 21 view .LVU1636
	add	r3, lr, #-1
	.loc 1 1125 30 view .LVU1637
	strb	r2, [r0, #122]
	.loc 1 1128 7 is_stmt 1 view .LVU1638
	.loc 1 1128 21 is_stmt 0 view .LVU1639
	uxth	r3, r3
.LVL423:
.L304:
	.loc 1 1159 9 is_stmt 1 view .LVU1640
	.loc 1 1162 5 view .LVU1641
.LBB1036:
.LBI1036:
	.loc 1 1261 26 view .LVU1642
.LBB1037:
	.loc 1 1263 3 view .LVU1643
	.loc 1 1264 3 view .LVU1644
	.loc 1 1264 16 is_stmt 0 view .LVU1645
	ldr	r2, [r1]
.LVL424:
	.loc 1 1265 3 is_stmt 1 view .LVU1646
	.loc 1 1267 3 view .LVU1647
	ldrh	r5, [r0, #80]
.LVL425:
.LBB1038:
.LBI1038:
	.loc 3 3217 22 view .LVU1648
.LBB1039:
	.loc 3 3219 3 view .LVU1649
.LBE1039:
.LBE1038:
	.loc 1 1268 3 is_stmt 0 view .LVU1650
	ldrh	r4, [r0, #82]
	.loc 1 1269 3 view .LVU1651
	ldrh	r1, [r0, #84]
.LBB1041:
.LBB1040:
	.loc 3 3219 3 view .LVU1652
	str	r5, [r2, #52]
.LVL426:
	.loc 3 3219 3 view .LVU1653
.LBE1040:
.LBE1041:
	.loc 1 1268 3 is_stmt 1 view .LVU1654
.LBB1042:
.LBI1042:
	.loc 3 3235 22 view .LVU1655
.LBB1043:
	.loc 3 3237 3 view .LVU1656
	str	r4, [r2, #56]
.LVL427:
	.loc 3 3237 3 is_stmt 0 view .LVU1657
.LBE1043:
.LBE1042:
	.loc 1 1269 3 is_stmt 1 view .LVU1658
.LBB1044:
.LBI1044:
	.loc 3 3253 22 view .LVU1659
.LBB1045:
	.loc 3 3255 3 view .LVU1660
	str	r1, [r2, #60]
.LVL428:
	.loc 3 3255 3 is_stmt 0 view .LVU1661
.LBE1045:
.LBE1044:
	.loc 1 1270 3 is_stmt 1 view .LVU1662
.LBB1046:
.LBI1046:
	.loc 3 3271 22 view .LVU1663
.LBB1047:
	.loc 3 3273 3 view .LVU1664
	str	r3, [r2, #64]
.LVL429:
	.loc 3 3273 3 is_stmt 0 view .LVU1665
.LBE1047:
.LBE1046:
	.loc 1 1274 3 is_stmt 1 view .LVU1666
	.loc 1 1274 13 is_stmt 0 view .LVU1667
	ldr	r2, [r2, #4]
.LVL430:
	.loc 1 1282 3 is_stmt 1 view .LVU1668
	.loc 1 1282 3 is_stmt 0 view .LVU1669
.LBE1037:
.LBE1036:
	.loc 1 1166 3 is_stmt 1 view .LVU1670
.LBB1049:
.LBB1048:
	.loc 1 1274 20 is_stmt 0 view .LVU1671
	ldr	r3, .L307
.LVL431:
	.loc 1 1274 6 view .LVU1672
	tst	r2, r3
.LBE1048:
.LBE1049:
	.loc 1 1167 1 view .LVU1673
	ite	ne
	movne	r0, #1
.LVL432:
	.loc 1 1167 1 view .LVU1674
	moveq	r0, #0
	pop	{r4, r5, pc}
.LVL433:
.L303:
	.loc 1 1139 7 is_stmt 1 view .LVU1675
	.loc 1 1142 7 view .LVU1676
	.loc 1 1139 17 is_stmt 0 view .LVU1677
	ldrh	ip, [r0, #90]
	sub	ip, r3, ip
	.loc 1 1142 21 view .LVU1678
	uxth	ip, ip
	.loc 1 1142 10 view .LVU1679
	cmp	ip, r2, lsl #1
	bls	.L305
	.loc 1 1144 9 is_stmt 1 view .LVU1680
	.loc 1 1144 23 is_stmt 0 view .LVU1681
	ldrh	r2, [r1, #156]
	subs	r3, r3, r2
.LVL434:
	.loc 1 1144 23 view .LVU1682
	uxth	r3, r3
.LVL435:
	.loc 1 1144 23 view .LVU1683
	b	.L304
.LVL436:
.L305:
	.loc 1 1148 9 is_stmt 1 view .LVU1684
	.loc 1 1148 23 is_stmt 0 view .LVU1685
	add	r3, r3, r4
.LVL437:
	.loc 1 1148 23 view .LVU1686
	uxth	r3, r3
.LVL438:
	.loc 1 1150 9 is_stmt 1 view .LVU1687
	.loc 1 1150 12 is_stmt 0 view .LVU1688
	cmp	lr, r3
	bhi	.L304
	.loc 1 1153 11 is_stmt 1 view .LVU1689
	.loc 1 1154 25 is_stmt 0 view .LVU1690
	mvns	r3, r3
.LVL439:
	.loc 1 1153 49 view .LVU1691
	mov	r2, #256
	.loc 1 1154 25 view .LVU1692
	add	r3, r3, lr, lsl #1
.LVL440:
	.loc 1 1153 49 view .LVU1693
	strh	r2, [r0, #150]	@ movhi
	.loc 1 1154 11 is_stmt 1 view .LVU1694
	.loc 1 1154 25 is_stmt 0 view .LVU1695
	uxth	r3, r3
.LVL441:
	.loc 1 1154 25 view .LVU1696
	b	.L304
.L308:
	.align	2
.L307:
	.word	33554544
	.cfi_endproc
.LFE1447:
	.size	R3_2_SetADCSampPointSectX, .-R3_2_SetADCSampPointSectX
	.section	.text.R3_2_SetADCSampPointSectX_OVM,"ax",%progbits
	.align	1
	.p2align 2,,3
	.global	R3_2_SetADCSampPointSectX_OVM
	.syntax unified
	.thumb
	.thumb_func
	.fpu fpv4-sp-d16
	.type	R3_2_SetADCSampPointSectX_OVM, %function
R3_2_SetADCSampPointSectX_OVM:
.LVL442:
.LFB1448:
	.loc 1 1186 1 is_stmt 1 view -0
	.cfi_startproc
	@ args = 0, pretend = 0, frame = 0
	@ frame_needed = 0, uses_anonymous_args = 0
	.loc 1 1187 3 view .LVU1698
	.loc 1 1196 5 view .LVU1699
	.loc 1 1198 5 view .LVU1700
	.loc 1 1199 5 view .LVU1701
	.loc 1 1201 5 view .LVU1702
	.loc 1 1202 32 is_stmt 0 view .LVU1703
	ldrh	r1, [r0, #88]
	.loc 1 1205 27 view .LVU1704
	ldrh	r3, [r0, #148]
	.loc 1 1205 70 view .LVU1705
	ldr	r2, [r0, #156]
	.loc 1 1186 1 view .LVU1706
	push	{r4, r5, lr}
.LCFI43:
	.cfi_def_cfa_offset 12
	.cfi_offset 4, -12
	.cfi_offset 5, -8
	.cfi_offset 14, -4
	.loc 1 1201 35 view .LVU1707
	movs	r4, #0
	.loc 1 1205 8 view .LVU1708
	ldrh	r5, [r2, #152]
	.loc 1 1201 35 view .LVU1709
	strb	r4, [r0, #132]
	.loc 1 1202 5 is_stmt 1 view .LVU1710
.LVL443:
	.loc 1 1205 5 view .LVU1711
	.loc 1 1205 9 is_stmt 0 view .LVU1712
	sub	lr, r3, r1
	.loc 1 1205 8 view .LVU1713
	uxth	r4, lr
	cmp	r5, r4
	bcs	.L310
	.loc 1 1212 7 is_stmt 1 view .LVU1714
	.loc 1 1212 30 is_stmt 0 view .LVU1715
	movs	r1, #4
.LVL444:
	.loc 1 1215 21 view .LVU1716
	subs	r3, r3, #1
	.loc 1 1212 30 view .LVU1717
	strb	r1, [r0, #122]
	.loc 1 1215 7 is_stmt 1 view .LVU1718
	.loc 1 1215 21 is_stmt 0 view .LVU1719
	uxth	r3, r3
.LVL445:
.L311:
	.loc 1 1239 5 is_stmt 1 view .LVU1720
.LBB1050:
.LBI1050:
	.loc 1 1261 26 view .LVU1721
.LBB1051:
	.loc 1 1263 3 view .LVU1722
	.loc 1 1264 3 view .LVU1723
	.loc 1 1264 16 is_stmt 0 view .LVU1724
	ldr	r2, [r2]
.LVL446:
	.loc 1 1265 3 is_stmt 1 view .LVU1725
	.loc 1 1267 3 view .LVU1726
	ldrh	r5, [r0, #80]
.LVL447:
.LBB1052:
.LBI1052:
	.loc 3 3217 22 view .LVU1727
.LBB1053:
	.loc 3 3219 3 view .LVU1728
.LBE1053:
.LBE1052:
	.loc 1 1268 3 is_stmt 0 view .LVU1729
	ldrh	r4, [r0, #82]
	.loc 1 1269 3 view .LVU1730
	ldrh	r1, [r0, #84]
.LBB1055:
.LBB1054:
	.loc 3 3219 3 view .LVU1731
	str	r5, [r2, #52]
.LVL448:
	.loc 3 3219 3 view .LVU1732
.LBE1054:
.LBE1055:
	.loc 1 1268 3 is_stmt 1 view .LVU1733
.LBB1056:
.LBI1056:
	.loc 3 3235 22 view .LVU1734
.LBB1057:
	.loc 3 3237 3 view .LVU1735
	str	r4, [r2, #56]
.LVL449:
	.loc 3 3237 3 is_stmt 0 view .LVU1736
.LBE1057:
.LBE1056:
	.loc 1 1269 3 is_stmt 1 view .LVU1737
.LBB1058:
.LBI1058:
	.loc 3 3253 22 view .LVU1738
.LBB1059:
	.loc 3 3255 3 view .LVU1739
	str	r1, [r2, #60]
.LVL450:
	.loc 3 3255 3 is_stmt 0 view .LVU1740
.LBE1059:
.LBE1058:
	.loc 1 1270 3 is_stmt 1 view .LVU1741
.LBB1060:
.LBI1060:
	.loc 3 3271 22 view .LVU1742
.LBB1061:
	.loc 3 3273 3 view .LVU1743
	str	r3, [r2, #64]
.LVL451:
	.loc 3 3273 3 is_stmt 0 view .LVU1744
.LBE1061:
.LBE1060:
	.loc 1 1274 3 is_stmt 1 view .LVU1745
	.loc 1 1274 13 is_stmt 0 view .LVU1746
	ldr	r2, [r2, #4]
.LVL452:
	.loc 1 1282 3 is_stmt 1 view .LVU1747
	.loc 1 1282 3 is_stmt 0 view .LVU1748
.LBE1051:
.LBE1050:
	.loc 1 1243 3 is_stmt 1 view .LVU1749
.LBB1063:
.LBB1062:
	.loc 1 1274 20 is_stmt 0 view .LVU1750
	ldr	r3, .L315
.LVL453:
	.loc 1 1274 6 view .LVU1751
	tst	r2, r3
.LBE1062:
.LBE1063:
	.loc 1 1244 1 view .LVU1752
	ite	ne
	movne	r0, #1
.LVL454:
	.loc 1 1244 1 view .LVU1753
	moveq	r0, #0
	pop	{r4, r5, pc}
.LVL455:
.L310:
	.loc 1 1219 7 is_stmt 1 view .LVU1754
	.loc 1 1202 15 is_stmt 0 view .LVU1755
	ldrh	ip, [r0, #90]
	.loc 1 1219 10 view .LVU1756
	ldrh	r4, [r2, #158]
	.loc 1 1202 15 view .LVU1757
	sub	ip, r1, ip
	.loc 1 1219 10 view .LVU1758
	uxth	ip, ip
	cmp	r4, ip
	bhi	.L312
	.loc 1 1221 9 is_stmt 1 view .LVU1759
	.loc 1 1221 23 is_stmt 0 view .LVU1760
	ldrh	r3, [r2, #156]
	subs	r3, r1, r3
	uxth	r3, r3
.LVL456:
	.loc 1 1221 23 view .LVU1761
	b	.L311
.LVL457:
.L312:
	.loc 1 1226 9 is_stmt 1 view .LVU1762
	.loc 1 1226 77 is_stmt 0 view .LVU1763
	ldrh	r4, [r2, #160]
	.loc 1 1226 12 view .LVU1764
	cmp	lr, r4
	ble	.L313
	.loc 1 1229 11 is_stmt 1 view .LVU1765
	.loc 1 1230 25 is_stmt 0 view .LVU1766
	ldrh	r3, [r2, #154]
	.loc 1 1229 49 view .LVU1767
	mov	r4, #256
	.loc 1 1230 25 view .LVU1768
	add	r3, r3, r1
	.loc 1 1229 49 view .LVU1769
	strh	r4, [r0, #150]	@ movhi
	.loc 1 1230 11 is_stmt 1 view .LVU1770
	.loc 1 1230 25 is_stmt 0 view .LVU1771
	uxth	r3, r3
.LVL458:
	.loc 1 1230 25 view .LVU1772
	b	.L311
.LVL459:
.L313:
	.loc 1 1234 11 is_stmt 1 view .LVU1773
	.loc 1 1234 25 is_stmt 0 view .LVU1774
	subs	r3, r3, #1
	.loc 1 1235 41 view .LVU1775
	movs	r1, #1
.LVL460:
	.loc 1 1234 25 view .LVU1776
	uxth	r3, r3
.LVL461:
	.loc 1 1235 11 is_stmt 1 view .LVU1777
	.loc 1 1235 41 is_stmt 0 view .LVU1778
	strb	r1, [r0, #132]
	b	.L311
.L316:
	.align	2
.L315:
	.word	33554544
	.cfi_endproc
.LFE1448:
	.size	R3_2_SetADCSampPointSectX_OVM, .-R3_2_SetADCSampPointSectX_OVM
	.section	.text.R3_2_TIMx_UP_IRQHandler,"ax",%progbits
	.align	1
	.p2align 2,,3
	.weak	R3_2_TIMx_UP_IRQHandler
	.syntax unified
	.thumb
	.thumb_func
	.fpu fpv4-sp-d16
	.type	R3_2_TIMx_UP_IRQHandler, %function
R3_2_TIMx_UP_IRQHandler:
.LVL462:
.LFB1455:
	.loc 1 1551 1 is_stmt 1 view -0
	.cfi_startproc
	@ args = 0, pretend = 0, frame = 0
	@ frame_needed = 0, uses_anonymous_args = 0
	.loc 1 1552 3 view .LVU1780
	.loc 1 1561 5 view .LVU1781
	.loc 1 1561 32 is_stmt 0 view .LVU1782
	ldr	r2, [r0, #156]
	.loc 1 1551 1 view .LVU1783
	push	{r4, r5, r6, r7, lr}
.LCFI44:
	.cfi_def_cfa_offset 20
	.cfi_offset 4, -20
	.cfi_offset 5, -16
	.cfi_offset 6, -12
	.cfi_offset 7, -8
	.cfi_offset 14, -4
	.loc 1 1561 18 view .LVU1784
	ldrd	r4, r5, [r2]
.LVL463:
	.loc 1 1562 5 is_stmt 1 view .LVU1785
	.loc 1 1563 5 view .LVU1786
	.loc 1 1564 5 view .LVU1787
	.loc 1 1566 5 view .LVU1788
	.loc 1 1551 1 is_stmt 0 view .LVU1789
	mov	ip, r0
	.loc 1 1566 8 view .LVU1790
	cmp	r5, #0
	beq	.L330
	.loc 1 1569 71 view .LVU1791
	ldrb	r0, [r0, #122]	@ zero_extendqisi2
.LVL464:
	.loc 1 1569 55 view .LVU1792
	add	r3, r0, #14
	.loc 1 1569 71 view .LVU1793
	mov	lr, r0
	.loc 1 1569 55 view .LVU1794
	ldr	r1, [r2, r3, lsl #2]
.L320:
	.loc 1 1572 7 is_stmt 1 discriminator 1 view .LVU1795
	.loc 1 1569 13 discriminator 1 view .LVU1796
	.loc 1 1569 79 is_stmt 0 discriminator 1 view .LVU1797
	ldr	r3, [r1, #76]
	.loc 1 1569 13 discriminator 1 view .LVU1798
	cmp	r3, #0
	bne	.L320
	.loc 1 1574 7 is_stmt 1 view .LVU1799
	add	r6, r5, r0, lsl #2
	sxth	r0, r0
	.loc 1 1574 19 is_stmt 0 view .LVU1800
	ldr	r7, [r6, #48]
.LVL465:
	.loc 1 1575 7 is_stmt 1 view .LVU1801
	.loc 1 1575 10 is_stmt 0 view .LVU1802
	adds	r3, r7, #1
	beq	.L321
	.loc 1 1577 9 is_stmt 1 view .LVU1803
	.loc 1 1577 22 is_stmt 0 view .LVU1804
	ldr	r0, [r5, r0, lsl #2]
.LVL466:
	.loc 1 1578 9 is_stmt 1 view .LVU1805
	ldr	r3, [r0]
	bic	r3, r3, #268
	orrs	r3, r3, r7
	str	r3, [r0]
.LVL467:
.L321:
	.loc 1 1583 7 view .LVU1806
	.loc 1 1584 7 view .LVU1807
	.loc 1 1584 19 is_stmt 0 view .LVU1808
	ldr	r0, [r6, #72]
.LVL468:
	.loc 1 1585 7 is_stmt 1 view .LVU1809
	.loc 1 1585 10 is_stmt 0 view .LVU1810
	adds	r3, r0, #1
	beq	.L319
	.loc 1 1587 9 is_stmt 1 view .LVU1811
	.loc 1 1587 22 is_stmt 0 view .LVU1812
	ldr	r5, [r6, #24]
.LVL469:
	.loc 1 1588 9 is_stmt 1 view .LVU1813
	ldr	r3, [r5]
	bic	r3, r3, #268
	orrs	r3, r3, r0
	str	r3, [r5]
.LVL470:
.L319:
	.loc 1 1598 5 view .LVU1814
	.loc 1 1600 5 view .LVU1815
	add	r2, r2, lr, lsl #2
.LVL471:
	.loc 1 1600 130 is_stmt 0 view .LVU1816
	ldrh	r3, [ip, #150]
	.loc 1 1600 128 view .LVU1817
	ldr	r0, [r2, #104]
	orrs	r0, r0, r3
	.loc 1 1600 69 view .LVU1818
	str	r0, [r1, #76]
	.loc 1 1601 5 is_stmt 1 view .LVU1819
	.loc 1 1601 38 is_stmt 0 view .LVU1820
	ldr	r1, [r2, #80]
	.loc 1 1601 128 view .LVU1821
	ldr	r2, [r2, #128]
	orrs	r3, r3, r2
	.loc 1 1601 69 view .LVU1822
	str	r3, [r1, #76]
	.loc 1 1606 5 is_stmt 1 view .LVU1823
.LVL472:
.LBB1064:
.LBI1064:
	.loc 3 4007 22 view .LVU1824
.LBB1065:
	.loc 3 4009 3 view .LVU1825
	ldr	r3, [r4, #4]
	bic	r3, r3, #33554432
	bic	r3, r3, #112
.LBE1065:
.LBE1064:
	.loc 1 1608 43 is_stmt 0 view .LVU1826
	movs	r2, #128
.LBB1067:
.LBB1066:
	.loc 3 4009 3 view .LVU1827
	orr	r3, r3, #112
	str	r3, [r4, #4]
.LVL473:
	.loc 3 4009 3 view .LVU1828
.LBE1066:
.LBE1067:
	.loc 1 1608 5 is_stmt 1 view .LVU1829
	.loc 1 1614 1 is_stmt 0 view .LVU1830
	add	r0, ip, #120
	.loc 1 1608 43 view .LVU1831
	strh	r2, [ip, #150]	@ movhi
	.loc 1 1609 5 is_stmt 1 view .LVU1832
.LVL474:
	.loc 1 1613 3 view .LVU1833
	.loc 1 1614 1 is_stmt 0 view .LVU1834
	pop	{r4, r5, r6, r7, pc}
.LVL475:
.L330:
	.loc 1 1600 119 view .LVU1835
	ldrb	lr, [r0, #122]	@ zero_extendqisi2
	.loc 1 1600 38 view .LVU1836
	add	r3, lr, #14
	ldr	r1, [r2, r3, lsl #2]
	b	.L319
	.cfi_endproc
.LFE1455:
	.size	R3_2_TIMx_UP_IRQHandler, .-R3_2_TIMx_UP_IRQHandler
	.section	.text.R3_2_RLDetectionModeEnable,"ax",%progbits
	.align	1
	.p2align 2,,3
	.global	R3_2_RLDetectionModeEnable
	.syntax unified
	.thumb
	.thumb_func
	.fpu fpv4-sp-d16
	.type	R3_2_RLDetectionModeEnable, %function
R3_2_RLDetectionModeEnable:
.LVL476:
.LFB1457:
	.loc 1 1662 1 is_stmt 1 view -0
	.cfi_startproc
	@ args = 0, pretend = 0, frame = 0
	@ frame_needed = 0, uses_anonymous_args = 0
	@ link register save eliminated.
	.loc 1 1663 3 view .LVU1838
	.loc 1 1664 3 view .LVU1839
	.loc 1 1666 3 view .LVU1840
	.loc 1 1666 6 is_stmt 0 view .LVU1841
	ldrb	r1, [r0, #126]	@ zero_extendqisi2
	.loc 1 1662 1 view .LVU1842
	push	{r4}
.LCFI45:
	.cfi_def_cfa_offset 4
	.cfi_offset 4, -4
	.loc 1 1666 6 view .LVU1843
	cmp	r1, #0
	bne	.L332
	.loc 1 1664 16 view .LVU1844
	ldr	r3, [r0, #156]
	ldr	r3, [r3]
	.loc 1 1669 5 is_stmt 1 view .LVU1845
.LVL477:
.LBB1068:
.LBI1068:
	.loc 3 2758 22 view .LVU1846
.LBB1069:
	.loc 3 2760 3 view .LVU1847
	.loc 3 2761 3 view .LVU1848
	.loc 3 2762 3 is_stmt 0 view .LVU1849
	ldr	r2, [r3, #24]
	bic	r2, r2, #65536
	bic	r2, r2, #115
	orr	r2, r2, #96
	str	r2, [r3, #24]
.LBE1069:
.LBE1068:
.LBB1071:
.LBB1072:
	.loc 3 2606 3 view .LVU1850
	ldr	r2, [r3, #32]
	orr	r2, r2, #1
	str	r2, [r3, #32]
.LBE1072:
.LBE1071:
.LBB1074:
.LBB1075:
	.loc 3 2637 3 view .LVU1851
	ldr	r2, [r3, #32]
	bic	r2, r2, #4
	str	r2, [r3, #32]
.LBE1075:
.LBE1074:
.LBB1077:
.LBB1078:
	.loc 3 3219 3 view .LVU1852
	str	r1, [r3, #52]
.LBE1078:
.LBE1077:
	.loc 1 1675 40 view .LVU1853
	ldrb	r2, [r0, #123]	@ zero_extendqisi2
	.loc 1 1675 8 view .LVU1854
	cmp	r2, #1
.LBB1080:
.LBB1070:
	.loc 3 2761 65 view .LVU1855
	add	r4, r3, #24
.LVL478:
	.loc 3 2762 3 is_stmt 1 view .LVU1856
	.loc 3 2762 3 is_stmt 0 view .LVU1857
.LBE1070:
.LBE1080:
	.loc 1 1670 5 is_stmt 1 view .LVU1858
.LBB1081:
.LBI1071:
	.loc 3 2604 22 view .LVU1859
.LBB1073:
	.loc 3 2606 3 view .LVU1860
	.loc 3 2606 3 is_stmt 0 view .LVU1861
.LBE1073:
.LBE1081:
	.loc 1 1671 5 is_stmt 1 view .LVU1862
.LBB1082:
.LBI1074:
	.loc 3 2635 22 view .LVU1863
.LBB1076:
	.loc 3 2637 3 view .LVU1864
	.loc 3 2637 3 is_stmt 0 view .LVU1865
.LBE1076:
.LBE1082:
	.loc 1 1672 5 is_stmt 1 view .LVU1866
.LBB1083:
.LBI1077:
	.loc 3 3217 22 view .LVU1867
.LBB1079:
	.loc 3 3219 3 view .LVU1868
	.loc 3 3219 3 is_stmt 0 view .LVU1869
.LBE1079:
.LBE1083:
	.loc 1 1675 5 is_stmt 1 view .LVU1870
	.loc 1 1675 8 is_stmt 0 view .LVU1871
	beq	.L336
	.loc 1 1681 10 is_stmt 1 view .LVU1872
	.loc 1 1681 13 is_stmt 0 view .LVU1873
	cmp	r2, #2
	bne	.L334
	.loc 1 1683 7 is_stmt 1 view .LVU1874
.LVL479:
.LBB1084:
.LBI1084:
	.loc 3 2758 22 view .LVU1875
.LBB1085:
	.loc 3 2760 3 view .LVU1876
	.loc 3 2761 3 view .LVU1877
	.loc 3 2762 3 view .LVU1878
	ldr	r2, [r3, #24]
	bic	r2, r2, #16777216
	bic	r2, r2, #29440
	orr	r2, r2, #8192
	str	r2, [r3, #24]
.LVL480:
	.loc 3 2762 3 is_stmt 0 view .LVU1879
.LBE1085:
.LBE1084:
	.loc 1 1684 7 is_stmt 1 view .LVU1880
.LBB1086:
.LBI1086:
	.loc 3 2604 22 view .LVU1881
.LBB1087:
	.loc 3 2606 3 view .LVU1882
	ldr	r2, [r3, #32]
	orr	r2, r2, #16
	str	r2, [r3, #32]
.LVL481:
	.loc 3 2606 3 is_stmt 0 view .LVU1883
.LBE1087:
.LBE1086:
	.loc 1 1685 7 is_stmt 1 view .LVU1884
.LBB1088:
.LBI1088:
	.loc 3 2635 22 view .LVU1885
.LBB1089:
	.loc 3 2637 3 view .LVU1886
	ldr	r2, [r3, #32]
	bic	r2, r2, #64
	str	r2, [r3, #32]
.LVL482:
.L334:
	.loc 3 2637 3 is_stmt 0 view .LVU1887
.LBE1089:
.LBE1088:
	.loc 1 1690 5 is_stmt 1 view .LVU1888
	.loc 1 1693 5 view .LVU1889
.LBB1090:
.LBI1090:
	.loc 3 2758 22 view .LVU1890
.LBB1091:
	.loc 3 2760 3 view .LVU1891
	.loc 3 2761 3 view .LVU1892
	.loc 3 2762 3 view .LVU1893
	ldr	r2, [r4, #4]
	bic	r2, r2, #65536
	bic	r2, r2, #115
	orr	r2, r2, #112
	str	r2, [r4, #4]
.LVL483:
	.loc 3 2762 3 is_stmt 0 view .LVU1894
.LBE1091:
.LBE1090:
	.loc 1 1694 5 is_stmt 1 view .LVU1895
.LBB1092:
.LBI1092:
	.loc 3 2635 22 view .LVU1896
.LBB1093:
	.loc 3 2637 3 view .LVU1897
	ldr	r2, [r3, #32]
.LBE1093:
.LBE1092:
	.loc 1 1697 27 is_stmt 0 view .LVU1898
	ldr	r1, [r0, #140]
.LBB1095:
.LBB1094:
	.loc 3 2637 3 view .LVU1899
	bic	r2, r2, #256
	str	r2, [r3, #32]
.LVL484:
	.loc 3 2637 3 view .LVU1900
.LBE1094:
.LBE1095:
	.loc 1 1695 5 is_stmt 1 view .LVU1901
.LBB1096:
.LBI1096:
	.loc 3 2635 22 view .LVU1902
.LBB1097:
	.loc 3 2637 3 view .LVU1903
	ldr	r2, [r3, #32]
	bic	r2, r2, #1024
	str	r2, [r3, #32]
.LVL485:
	.loc 3 2637 3 is_stmt 0 view .LVU1904
.LBE1097:
.LBE1096:
	.loc 1 1697 5 is_stmt 1 view .LVU1905
	.loc 1 1697 27 is_stmt 0 view .LVU1906
	str	r1, [r0, #136]
.LVL486:
.L332:
	.loc 1 1702 3 is_stmt 1 view .LVU1907
	.loc 1 1704 3 view .LVU1908
	.loc 1 1705 38 is_stmt 0 view .LVU1909
	ldr	r3, .L337
	.loc 1 1706 35 view .LVU1910
	ldr	r1, .L337+4
	.loc 1 1707 36 view .LVU1911
	ldr	r2, .L337+8
	.loc 1 1704 40 view .LVU1912
	ldr	r4, .L337+12
	.loc 1 1705 38 view .LVU1913
	str	r3, [r0, #16]
	.loc 1 1709 35 view .LVU1914
	movs	r3, #1
	.loc 1 1704 40 view .LVU1915
	str	r4, [r0]
	.loc 1 1705 3 is_stmt 1 view .LVU1916
	.loc 1 1706 3 view .LVU1917
	.loc 1 1707 36 is_stmt 0 view .LVU1918
	strd	r2, r1, [r0, #4]
	.loc 1 1709 3 is_stmt 1 view .LVU1919
	.loc 1 1710 1 is_stmt 0 view .LVU1920
	ldr	r4, [sp], #4
.LCFI46:
	.cfi_remember_state
	.cfi_restore 4
	.cfi_def_cfa_offset 0
	.loc 1 1709 35 view .LVU1921
	strb	r3, [r0, #126]
	.loc 1 1710 1 view .LVU1922
	bx	lr
.LVL487:
.L336:
.LCFI47:
	.cfi_restore_state
	.loc 1 1677 7 is_stmt 1 view .LVU1923
.LBB1098:
.LBI1098:
	.loc 3 2758 22 view .LVU1924
.LBB1099:
	.loc 3 2760 3 view .LVU1925
	.loc 3 2761 3 view .LVU1926
	.loc 3 2762 3 view .LVU1927
	ldr	r2, [r3, #24]
	bic	r2, r2, #16777216
	bic	r2, r2, #29440
	orr	r2, r2, #4096
	str	r2, [r3, #24]
.LVL488:
	.loc 3 2762 3 is_stmt 0 view .LVU1928
.LBE1099:
.LBE1098:
	.loc 1 1678 7 is_stmt 1 view .LVU1929
.LBB1100:
.LBI1100:
	.loc 3 2635 22 view .LVU1930
.LBB1101:
	.loc 3 2637 3 view .LVU1931
	ldr	r2, [r3, #32]
	bic	r2, r2, #16
	str	r2, [r3, #32]
.LVL489:
	.loc 3 2637 3 is_stmt 0 view .LVU1932
.LBE1101:
.LBE1100:
	.loc 1 1679 7 is_stmt 1 view .LVU1933
.LBB1102:
.LBI1102:
	.loc 3 2604 22 view .LVU1934
.LBB1103:
	.loc 3 2606 3 view .LVU1935
	ldr	r2, [r3, #32]
	orr	r2, r2, #64
	str	r2, [r3, #32]
	.loc 3 2607 1 is_stmt 0 view .LVU1936
	b	.L334
.L338:
	.align	2
.L337:
	.word	R3_2_RLTurnOnLowSides
	.word	R3_2_RLSwitchOnPWM
	.word	R3_2_SwitchOffPWM
	.word	R3_2_RLGetPhaseCurrents
.LBE1103:
.LBE1102:
	.cfi_endproc
.LFE1457:
	.size	R3_2_RLDetectionModeEnable, .-R3_2_RLDetectionModeEnable
	.section	.text.R3_2_RLDetectionModeDisable,"ax",%progbits
	.align	1
	.p2align 2,,3
	.global	R3_2_RLDetectionModeDisable
	.syntax unified
	.thumb
	.thumb_func
	.fpu fpv4-sp-d16
	.type	R3_2_RLDetectionModeDisable, %function
R3_2_RLDetectionModeDisable:
.LVL490:
.LFB1458:
	.loc 1 1718 1 is_stmt 1 view -0
	.cfi_startproc
	@ args = 0, pretend = 0, frame = 0
	@ frame_needed = 0, uses_anonymous_args = 0
	@ link register save eliminated.
	.loc 1 1719 3 view .LVU1938
	.loc 1 1720 3 view .LVU1939
	.loc 1 1722 3 view .LVU1940
	.loc 1 1722 6 is_stmt 0 view .LVU1941
	ldrb	r3, [r0, #126]	@ zero_extendqisi2
	cmp	r3, #0
	beq	.L348
	.loc 1 1720 16 view .LVU1942
	ldr	r3, [r0, #156]
	ldr	r3, [r3]
	.loc 1 1725 5 is_stmt 1 view .LVU1943
.LVL491:
.LBB1104:
.LBI1104:
	.loc 3 2758 22 view .LVU1944
.LBB1105:
	.loc 3 2760 3 view .LVU1945
	.loc 3 2761 3 view .LVU1946
	.loc 3 2762 3 view .LVU1947
.LBE1105:
.LBE1104:
	.loc 1 1718 1 is_stmt 0 view .LVU1948
	push	{r4}
.LCFI48:
	.cfi_def_cfa_offset 4
	.cfi_offset 4, -4
.LBB1107:
.LBB1106:
	.loc 3 2762 3 view .LVU1949
	ldr	r2, [r3, #24]
	ldr	r4, .L353
	ands	r2, r2, r4
	orr	r2, r2, #96
	str	r2, [r3, #24]
.LVL492:
	.loc 3 2762 3 view .LVU1950
.LBE1106:
.LBE1107:
	.loc 1 1726 5 is_stmt 1 view .LVU1951
.LBB1108:
.LBI1108:
	.loc 3 2604 22 view .LVU1952
.LBB1109:
	.loc 3 2606 3 view .LVU1953
	ldr	r2, [r3, #32]
	orr	r2, r2, #1
	str	r2, [r3, #32]
.LVL493:
	.loc 3 2606 3 is_stmt 0 view .LVU1954
.LBE1109:
.LBE1108:
	.loc 1 1728 5 is_stmt 1 view .LVU1955
	.loc 1 1728 40 is_stmt 0 view .LVU1956
	ldrb	r2, [r0, #123]	@ zero_extendqisi2
	.loc 1 1728 8 view .LVU1957
	cmp	r2, #1
	beq	.L351
	.loc 1 1732 10 is_stmt 1 view .LVU1958
	.loc 1 1732 13 is_stmt 0 view .LVU1959
	cmp	r2, #2
	beq	.L352
	.loc 1 1739 5 is_stmt 1 view .LVU1960
	.loc 1 1741 5 view .LVU1961
	ldrh	r2, [r0, #148]
	lsrs	r2, r2, #1
.LVL494:
.LBB1110:
.LBI1110:
	.loc 3 3217 22 view .LVU1962
.LBB1111:
	.loc 3 3219 3 view .LVU1963
	str	r2, [r3, #52]
.LVL495:
	.loc 3 3219 3 is_stmt 0 view .LVU1964
.LBE1111:
.LBE1110:
	.loc 1 1744 5 is_stmt 1 view .LVU1965
.LBB1114:
.LBI1114:
	.loc 3 2758 22 view .LVU1966
.LBB1115:
	.loc 3 2760 3 view .LVU1967
	.loc 3 2761 3 view .LVU1968
	.loc 3 2762 3 view .LVU1969
	ldr	r1, [r3, #24]
	bic	r1, r1, #16777216
	bic	r1, r1, #29440
	orr	r1, r1, #24576
	str	r1, [r3, #24]
.LVL496:
	.loc 3 2762 3 is_stmt 0 view .LVU1970
.LBE1115:
.LBE1114:
	.loc 1 1745 5 is_stmt 1 view .LVU1971
.LBB1118:
.LBI1118:
	.loc 3 2604 22 view .LVU1972
.LBB1119:
	.loc 3 2606 3 view .LVU1973
	ldr	r1, [r3, #32]
	orr	r1, r1, #16
	str	r1, [r3, #32]
.LVL497:
	.loc 3 2606 3 is_stmt 0 view .LVU1974
.LBE1119:
.LBE1118:
	.loc 1 1747 5 is_stmt 1 view .LVU1975
	.loc 1 1751 10 view .LVU1976
	.loc 1 1758 5 view .LVU1977
	.loc 1 1760 5 view .LVU1978
.LBB1122:
.LBI1122:
	.loc 3 3235 22 view .LVU1979
.LBB1123:
	.loc 3 3237 3 view .LVU1980
	str	r2, [r3, #56]
.LVL498:
	.loc 3 3237 3 is_stmt 0 view .LVU1981
.LBE1123:
.LBE1122:
	.loc 1 1763 5 is_stmt 1 view .LVU1982
.LBB1126:
.LBI1126:
	.loc 3 2758 22 view .LVU1983
.LBB1127:
	.loc 3 2760 3 view .LVU1984
	.loc 3 2761 3 view .LVU1985
	.loc 3 2762 3 view .LVU1986
	ldr	r1, [r3, #28]
	ands	r4, r4, r1
	orr	r4, r4, #96
	str	r4, [r3, #28]
.LVL499:
	.loc 3 2762 3 is_stmt 0 view .LVU1987
.LBE1127:
.LBE1126:
	.loc 1 1764 5 is_stmt 1 view .LVU1988
.LBB1130:
.LBI1130:
	.loc 3 2604 22 view .LVU1989
.LBB1131:
	.loc 3 2606 3 view .LVU1990
	ldr	r1, [r3, #32]
	orr	r1, r1, #256
	str	r1, [r3, #32]
.LVL500:
	.loc 3 2606 3 is_stmt 0 view .LVU1991
.LBE1131:
.LBE1130:
	.loc 1 1766 5 is_stmt 1 view .LVU1992
	.loc 1 1770 10 view .LVU1993
.L342:
	.loc 1 1777 5 view .LVU1994
	.loc 1 1779 5 view .LVU1995
.LBB1134:
.LBI1134:
	.loc 3 3253 22 view .LVU1996
.LBB1135:
	.loc 3 3255 3 view .LVU1997
.LBE1135:
.LBE1134:
	.loc 1 1781 42 is_stmt 0 view .LVU1998
	ldr	r1, .L353+4
.LBB1137:
.LBB1136:
	.loc 3 3255 3 view .LVU1999
	str	r2, [r3, #60]
.LVL501:
	.loc 3 3255 3 view .LVU2000
.LBE1136:
.LBE1137:
	.loc 1 1781 5 is_stmt 1 view .LVU2001
	.loc 1 1784 38 is_stmt 0 view .LVU2002
	ldr	r2, .L353+8
	.loc 1 1781 42 view .LVU2003
	str	r1, [r0]
	.loc 1 1782 5 is_stmt 1 view .LVU2004
	.loc 1 1783 37 is_stmt 0 view .LVU2005
	ldr	r1, .L353+12
	.loc 1 1782 40 view .LVU2006
	ldr	r4, .L353+16
	str	r4, [r0, #16]
	.loc 1 1783 5 is_stmt 1 view .LVU2007
	.loc 1 1786 37 is_stmt 0 view .LVU2008
	movs	r3, #0
	.loc 1 1784 38 view .LVU2009
	strd	r2, r1, [r0, #4]
	.loc 1 1786 5 is_stmt 1 view .LVU2010
	.loc 1 1792 1 is_stmt 0 view .LVU2011
	ldr	r4, [sp], #4
.LCFI49:
	.cfi_restore 4
	.cfi_def_cfa_offset 0
	.loc 1 1786 37 view .LVU2012
	strb	r3, [r0, #126]
	.loc 1 1791 3 is_stmt 1 view .LVU2013
	.loc 1 1792 1 is_stmt 0 view .LVU2014
	bx	lr
.LVL502:
.L348:
	.loc 1 1792 1 view .LVU2015
	bx	lr
.LVL503:
.L351:
.LCFI50:
	.cfi_def_cfa_offset 4
	.cfi_offset 4, -4
	.loc 1 1730 7 is_stmt 1 view .LVU2016
.LBB1138:
.LBI1138:
	.loc 3 2604 22 view .LVU2017
.LBB1139:
	.loc 3 2606 3 view .LVU2018
	ldr	r1, [r3, #32]
.LBE1139:
.LBE1138:
	.loc 1 1741 5 is_stmt 0 view .LVU2019
	ldrh	r2, [r0, #148]
.LBB1142:
.LBB1140:
	.loc 3 2606 3 view .LVU2020
	orr	r1, r1, #4
.LBE1140:
.LBE1142:
	.loc 1 1741 5 view .LVU2021
	lsrs	r2, r2, #1
.LBB1143:
.LBB1141:
	.loc 3 2606 3 view .LVU2022
	str	r1, [r3, #32]
.LVL504:
	.loc 3 2606 3 view .LVU2023
.LBE1141:
.LBE1143:
	.loc 1 1739 5 is_stmt 1 view .LVU2024
	.loc 1 1741 5 view .LVU2025
.LBB1144:
	.loc 3 3217 22 view .LVU2026
.LBB1112:
	.loc 3 3219 3 view .LVU2027
	str	r2, [r3, #52]
.LVL505:
	.loc 3 3219 3 is_stmt 0 view .LVU2028
.LBE1112:
.LBE1144:
	.loc 1 1744 5 is_stmt 1 view .LVU2029
.LBB1145:
	.loc 3 2758 22 view .LVU2030
.LBB1116:
	.loc 3 2760 3 view .LVU2031
	.loc 3 2761 3 view .LVU2032
	.loc 3 2762 3 view .LVU2033
	ldr	r1, [r3, #24]
	bic	r1, r1, #16777216
	bic	r1, r1, #29440
	orr	r1, r1, #24576
	str	r1, [r3, #24]
.LVL506:
	.loc 3 2762 3 is_stmt 0 view .LVU2034
.LBE1116:
.LBE1145:
	.loc 1 1745 5 is_stmt 1 view .LVU2035
.LBB1146:
	.loc 3 2604 22 view .LVU2036
.LBB1120:
	.loc 3 2606 3 view .LVU2037
	ldr	r1, [r3, #32]
	orr	r1, r1, #16
	str	r1, [r3, #32]
.LVL507:
	.loc 3 2606 3 is_stmt 0 view .LVU2038
.LBE1120:
.LBE1146:
	.loc 1 1747 5 is_stmt 1 view .LVU2039
	.loc 1 1749 7 view .LVU2040
.LBB1147:
.LBI1147:
	.loc 3 2604 22 view .LVU2041
.LBB1148:
	.loc 3 2606 3 view .LVU2042
	ldr	r1, [r3, #32]
	orr	r1, r1, #64
	str	r1, [r3, #32]
.LVL508:
	.loc 3 2606 3 is_stmt 0 view .LVU2043
.LBE1148:
.LBE1147:
	.loc 1 1758 5 is_stmt 1 view .LVU2044
	.loc 1 1760 5 view .LVU2045
.LBB1149:
	.loc 3 3235 22 view .LVU2046
.LBB1124:
	.loc 3 3237 3 view .LVU2047
	str	r2, [r3, #56]
.LVL509:
	.loc 3 3237 3 is_stmt 0 view .LVU2048
.LBE1124:
.LBE1149:
	.loc 1 1763 5 is_stmt 1 view .LVU2049
.LBB1150:
	.loc 3 2758 22 view .LVU2050
.LBB1128:
	.loc 3 2760 3 view .LVU2051
	.loc 3 2761 3 view .LVU2052
	.loc 3 2762 3 view .LVU2053
	ldr	r1, [r3, #28]
	ands	r4, r4, r1
	orr	r4, r4, #96
	str	r4, [r3, #28]
.LVL510:
	.loc 3 2762 3 is_stmt 0 view .LVU2054
.LBE1128:
.LBE1150:
	.loc 1 1764 5 is_stmt 1 view .LVU2055
.LBB1151:
	.loc 3 2604 22 view .LVU2056
.LBB1132:
	.loc 3 2606 3 view .LVU2057
	ldr	r1, [r3, #32]
	orr	r1, r1, #256
	str	r1, [r3, #32]
.LVL511:
	.loc 3 2606 3 is_stmt 0 view .LVU2058
.LBE1132:
.LBE1151:
	.loc 1 1766 5 is_stmt 1 view .LVU2059
	.loc 1 1768 7 view .LVU2060
.LBB1152:
.LBI1152:
	.loc 3 2604 22 view .LVU2061
.LBB1153:
	.loc 3 2606 3 view .LVU2062
	ldr	r1, [r3, #32]
	orr	r1, r1, #1024
	str	r1, [r3, #32]
	.loc 3 2607 1 is_stmt 0 view .LVU2063
	b	.L342
.LVL512:
.L352:
	.loc 3 2607 1 view .LVU2064
.LBE1153:
.LBE1152:
	.loc 1 1734 7 is_stmt 1 view .LVU2065
.LBB1154:
.LBI1154:
	.loc 3 2635 22 view .LVU2066
.LBB1155:
	.loc 3 2637 3 view .LVU2067
	ldr	r1, [r3, #32]
.LBE1155:
.LBE1154:
	.loc 1 1741 5 is_stmt 0 view .LVU2068
	ldrh	r2, [r0, #148]
.LBB1158:
.LBB1156:
	.loc 3 2637 3 view .LVU2069
	bic	r1, r1, #4
.LBE1156:
.LBE1158:
	.loc 1 1741 5 view .LVU2070
	lsrs	r2, r2, #1
.LBB1159:
.LBB1157:
	.loc 3 2637 3 view .LVU2071
	str	r1, [r3, #32]
.LVL513:
	.loc 3 2637 3 view .LVU2072
.LBE1157:
.LBE1159:
	.loc 1 1739 5 is_stmt 1 view .LVU2073
	.loc 1 1741 5 view .LVU2074
.LBB1160:
	.loc 3 3217 22 view .LVU2075
.LBB1113:
	.loc 3 3219 3 view .LVU2076
	str	r2, [r3, #52]
.LVL514:
	.loc 3 3219 3 is_stmt 0 view .LVU2077
.LBE1113:
.LBE1160:
	.loc 1 1744 5 is_stmt 1 view .LVU2078
.LBB1161:
	.loc 3 2758 22 view .LVU2079
.LBB1117:
	.loc 3 2760 3 view .LVU2080
	.loc 3 2761 3 view .LVU2081
	.loc 3 2762 3 view .LVU2082
	ldr	r1, [r3, #24]
	bic	r1, r1, #16777216
	bic	r1, r1, #29440
	orr	r1, r1, #24576
	str	r1, [r3, #24]
.LVL515:
	.loc 3 2762 3 is_stmt 0 view .LVU2083
.LBE1117:
.LBE1161:
	.loc 1 1745 5 is_stmt 1 view .LVU2084
.LBB1162:
	.loc 3 2604 22 view .LVU2085
.LBB1121:
	.loc 3 2606 3 view .LVU2086
	ldr	r1, [r3, #32]
	orr	r1, r1, #16
	str	r1, [r3, #32]
.LVL516:
	.loc 3 2606 3 is_stmt 0 view .LVU2087
.LBE1121:
.LBE1162:
	.loc 1 1747 5 is_stmt 1 view .LVU2088
	.loc 1 1751 10 view .LVU2089
	.loc 1 1753 7 view .LVU2090
.LBB1163:
.LBI1163:
	.loc 3 2635 22 view .LVU2091
.LBB1164:
	.loc 3 2637 3 view .LVU2092
	ldr	r1, [r3, #32]
	bic	r1, r1, #64
	str	r1, [r3, #32]
.LVL517:
	.loc 3 2637 3 is_stmt 0 view .LVU2093
.LBE1164:
.LBE1163:
	.loc 1 1758 5 is_stmt 1 view .LVU2094
	.loc 1 1760 5 view .LVU2095
.LBB1165:
	.loc 3 3235 22 view .LVU2096
.LBB1125:
	.loc 3 3237 3 view .LVU2097
	str	r2, [r3, #56]
.LVL518:
	.loc 3 3237 3 is_stmt 0 view .LVU2098
.LBE1125:
.LBE1165:
	.loc 1 1763 5 is_stmt 1 view .LVU2099
.LBB1166:
	.loc 3 2758 22 view .LVU2100
.LBB1129:
	.loc 3 2760 3 view .LVU2101
	.loc 3 2761 3 view .LVU2102
	.loc 3 2762 3 view .LVU2103
	ldr	r1, [r3, #28]
	ands	r4, r4, r1
	orr	r4, r4, #96
	str	r4, [r3, #28]
.LVL519:
	.loc 3 2762 3 is_stmt 0 view .LVU2104
.LBE1129:
.LBE1166:
	.loc 1 1764 5 is_stmt 1 view .LVU2105
.LBB1167:
	.loc 3 2604 22 view .LVU2106
.LBB1133:
	.loc 3 2606 3 view .LVU2107
	ldr	r1, [r3, #32]
	orr	r1, r1, #256
	str	r1, [r3, #32]
.LVL520:
	.loc 3 2606 3 is_stmt 0 view .LVU2108
.LBE1133:
.LBE1167:
	.loc 1 1766 5 is_stmt 1 view .LVU2109
	.loc 1 1770 10 view .LVU2110
	.loc 1 1772 7 view .LVU2111
.LBB1168:
.LBI1168:
	.loc 3 2635 22 view .LVU2112
.LBB1169:
	.loc 3 2637 3 view .LVU2113
	ldr	r1, [r3, #32]
	bic	r1, r1, #1024
	str	r1, [r3, #32]
	.loc 3 2638 1 is_stmt 0 view .LVU2114
	b	.L342
.L354:
	.align	2
.L353:
	.word	-65652
	.word	R3_2_GetPhaseCurrents
	.word	R3_2_SwitchOffPWM
	.word	R3_2_SwitchOnPWM
	.word	R3_2_TurnOnLowSides
.LBE1169:
.LBE1168:
	.cfi_endproc
.LFE1458:
	.size	R3_2_RLDetectionModeDisable, .-R3_2_RLDetectionModeDisable
	.section	.text.R3_2_RLDetectionModeSetDuty,"ax",%progbits
	.align	1
	.p2align 2,,3
	.global	R3_2_RLDetectionModeSetDuty
	.syntax unified
	.thumb
	.thumb_func
	.fpu fpv4-sp-d16
	.type	R3_2_RLDetectionModeSetDuty, %function
R3_2_RLDetectionModeSetDuty:
.LVL521:
.LFB1459:
	.loc 1 1803 1 is_stmt 1 view -0
	.cfi_startproc
	@ args = 0, pretend = 0, frame = 0
	@ frame_needed = 0, uses_anonymous_args = 0
	@ link register save eliminated.
	.loc 1 1804 3 view .LVU2116
	.loc 1 1813 5 view .LVU2117
	.loc 1 1814 5 view .LVU2118
	.loc 1 1814 18 is_stmt 0 view .LVU2119
	ldr	r3, [r0, #156]
	.loc 1 1820 13 view .LVU2120
	ldrh	ip, [r0, #148]
	.loc 1 1814 18 view .LVU2121
	ldr	r3, [r3]
.LVL522:
	.loc 1 1815 5 is_stmt 1 view .LVU2122
	.loc 1 1816 5 view .LVU2123
	.loc 1 1818 5 view .LVU2124
.LBB1170:
.LBB1171:
	.loc 3 2762 3 is_stmt 0 view .LVU2125
	ldr	r2, [r3, #28]
	bic	r2, r2, #16777216
.LBE1171:
.LBE1170:
	.loc 1 1820 48 view .LVU2126
	mul	r1, ip, r1
.LVL523:
.LBB1175:
.LBB1172:
	.loc 3 2762 3 view .LVU2127
	bic	r2, r2, #29440
.LBE1172:
.LBE1175:
	.loc 1 1803 1 view .LVU2128
	push	{r4}
.LCFI51:
	.cfi_def_cfa_offset 4
	.cfi_offset 4, -4
	.loc 1 1820 9 view .LVU2129
	lsrs	r1, r1, #16
	.loc 1 1818 31 view .LVU2130
	movs	r4, #1
.LBB1176:
.LBB1173:
	.loc 3 2762 3 view .LVU2131
	orr	r2, r2, #28672
.LBE1173:
.LBE1176:
	.loc 1 1818 31 view .LVU2132
	strb	r4, [r0, #160]
	.loc 1 1820 5 is_stmt 1 view .LVU2133
.LVL524:
	.loc 1 1821 5 view .LVU2134
	.loc 1 1821 30 is_stmt 0 view .LVU2135
	strh	r1, [r0, #80]	@ movhi
	.loc 1 1824 5 is_stmt 1 view .LVU2136
.LVL525:
.LBB1177:
.LBI1170:
	.loc 3 2758 22 view .LVU2137
.LBB1174:
	.loc 3 2760 3 view .LVU2138
	.loc 3 2761 3 view .LVU2139
	.loc 3 2762 3 view .LVU2140
	str	r2, [r3, #28]
.LVL526:
	.loc 3 2762 3 is_stmt 0 view .LVU2141
.LBE1174:
.LBE1177:
	.loc 1 1826 5 is_stmt 1 view .LVU2142
	.loc 1 1826 75 is_stmt 0 view .LVU2143
	ldrh	r2, [r0, #116]
	.loc 1 1827 5 view .LVU2144
	ldrh	r4, [r0, #118]
	.loc 1 1826 5 view .LVU2145
	sub	r2, ip, r2
.LVL527:
.LBB1178:
.LBI1178:
	.loc 3 3271 22 is_stmt 1 view .LVU2146
.LBB1179:
	.loc 3 3273 3 view .LVU2147
	str	r2, [r3, #64]
.LVL528:
	.loc 3 3273 3 is_stmt 0 view .LVU2148
.LBE1179:
.LBE1178:
	.loc 1 1827 5 is_stmt 1 view .LVU2149
.LBB1180:
.LBI1180:
	.loc 3 3253 22 view .LVU2150
.LBB1181:
	.loc 3 3255 3 view .LVU2151
	str	r4, [r3, #60]
.LVL529:
	.loc 3 3255 3 is_stmt 0 view .LVU2152
.LBE1181:
.LBE1180:
	.loc 1 1828 5 is_stmt 1 view .LVU2153
.LBB1182:
.LBI1182:
	.loc 3 3217 22 view .LVU2154
.LBB1183:
	.loc 3 3219 3 view .LVU2155
	str	r1, [r3, #52]
.LVL530:
	.loc 3 3219 3 is_stmt 0 view .LVU2156
.LBE1183:
.LBE1182:
	.loc 1 1832 5 is_stmt 1 view .LVU2157
.LBB1184:
.LBI1184:
	.loc 3 4007 22 view .LVU2158
.LBB1185:
	.loc 3 4009 3 view .LVU2159
	ldr	r2, [r3, #4]
.LBE1185:
.LBE1184:
	.loc 1 1847 31 is_stmt 0 view .LVU2160
	ldrh	r1, [r0, #86]
.LVL531:
.LBB1188:
.LBB1186:
	.loc 3 4009 3 view .LVU2161
	bic	r2, r2, #33554432
	bic	r2, r2, #112
.LBE1186:
.LBE1188:
	.loc 1 1834 18 view .LVU2162
	mov	ip, #3
.LBB1189:
.LBB1187:
	.loc 3 4009 3 view .LVU2163
	orr	r2, r2, #112
	str	r2, [r3, #4]
.LVL532:
	.loc 3 4009 3 view .LVU2164
.LBE1187:
.LBE1189:
	.loc 1 1834 5 is_stmt 1 view .LVU2165
	.loc 1 1847 8 is_stmt 0 view .LVU2166
	cmp	r1, #1
	.loc 1 1834 18 view .LVU2167
	strb	ip, [r0, #122]
	.loc 1 1839 5 is_stmt 1 view .LVU2168
	.loc 1 1839 15 is_stmt 0 view .LVU2169
	ldr	r3, [r3, #4]
.LVL533:
	.loc 1 1847 5 is_stmt 1 view .LVU2170
	.loc 1 1847 8 is_stmt 0 view .LVU2171
	beq	.L356
	.loc 1 1839 22 view .LVU2172
	ldr	r2, .L359
	.loc 1 1861 1 view .LVU2173
	ldr	r4, [sp], #4
.LCFI52:
	.cfi_remember_state
	.cfi_restore 4
	.cfi_def_cfa_offset 0
	.loc 1 1839 8 view .LVU2174
	tst	r3, r2
	.loc 1 1841 12 view .LVU2175
	ite	ne
	movne	r1, #1
	moveq	r1, #0
.LVL534:
	.loc 1 1855 5 is_stmt 1 view .LVU2176
	.loc 1 1856 5 view .LVU2177
	.loc 1 1860 3 view .LVU2178
	.loc 1 1861 1 is_stmt 0 view .LVU2179
	mov	r0, r1
.LVL535:
	.loc 1 1861 1 view .LVU2180
	bx	lr
.LVL536:
.L356:
.LCFI53:
	.cfi_restore_state
	.loc 1 1849 7 is_stmt 1 view .LVU2181
	.loc 1 1850 7 view .LVU2182
	.loc 1 1850 31 is_stmt 0 view .LVU2183
	movs	r3, #0
	strh	r3, [r0, #86]	@ movhi
.LVL537:
	.loc 1 1855 5 is_stmt 1 view .LVU2184
	.loc 1 1856 5 view .LVU2185
	.loc 1 1860 3 view .LVU2186
	.loc 1 1861 1 is_stmt 0 view .LVU2187
	ldr	r4, [sp], #4
.LCFI54:
	.cfi_restore 4
	.cfi_def_cfa_offset 0
	mov	r0, r1
.LVL538:
	.loc 1 1861 1 view .LVU2188
	bx	lr
.L360:
	.align	2
.L359:
	.word	33554544
	.cfi_endproc
.LFE1459:
	.size	R3_2_RLDetectionModeSetDuty, .-R3_2_RLDetectionModeSetDuty
	.section	.text.R3_2_RLTurnOnLowSidesAndStart,"ax",%progbits
	.align	1
	.p2align 2,,3
	.global	R3_2_RLTurnOnLowSidesAndStart
	.syntax unified
	.thumb
	.thumb_func
	.fpu fpv4-sp-d16
	.type	R3_2_RLTurnOnLowSidesAndStart, %function
R3_2_RLTurnOnLowSidesAndStart:
.LVL539:
.LFB1463:
	.loc 1 2054 1 is_stmt 1 view -0
	.cfi_startproc
	@ args = 0, pretend = 0, frame = 0
	@ frame_needed = 0, uses_anonymous_args = 0
	@ link register save eliminated.
	.loc 1 2063 5 view .LVU2190
	.loc 1 2064 5 view .LVU2191
	.loc 1 2064 18 is_stmt 0 view .LVU2192
	ldr	r3, [r0, #156]
	ldr	r3, [r3]
.LVL540:
	.loc 1 2066 5 is_stmt 1 view .LVU2193
	.loc 1 2066 30 is_stmt 0 view .LVU2194
	movs	r1, #1
.LBB1190:
.LBB1191:
	.loc 3 5457 3 view .LVU2195
	mvn	r2, #1
.LBE1191:
.LBE1190:
	.loc 1 2054 1 view .LVU2196
	push	{r4, r5}
.LCFI55:
	.cfi_def_cfa_offset 8
	.cfi_offset 4, -8
	.cfi_offset 5, -4
	.loc 1 2066 30 view .LVU2197
	strb	r1, [r0, #160]
	.loc 1 2068 5 is_stmt 1 view .LVU2198
.LVL541:
.LBB1193:
.LBI1190:
	.loc 3 5455 22 view .LVU2199
.LBB1192:
	.loc 3 5457 3 view .LVU2200
	str	r2, [r3, #16]
.LVL542:
.L362:
	.loc 3 5457 3 is_stmt 0 view .LVU2201
.LBE1192:
.LBE1193:
	.loc 1 2072 5 is_stmt 1 discriminator 1 view .LVU2202
	.loc 1 2069 11 discriminator 1 view .LVU2203
.LBB1194:
.LBI1194:
	.loc 3 5466 26 discriminator 1 view .LVU2204
.LBB1195:
	.loc 3 5468 3 discriminator 1 view .LVU2205
	.loc 3 5468 12 is_stmt 0 discriminator 1 view .LVU2206
	ldr	r2, [r3, #16]
.LVL543:
	.loc 3 5468 12 discriminator 1 view .LVU2207
.LBE1195:
.LBE1194:
	.loc 1 2069 11 discriminator 1 view .LVU2208
	lsls	r1, r2, #31
	bpl	.L362
	.loc 1 2074 5 is_stmt 1 view .LVU2209
.LVL544:
.LBB1196:
.LBI1196:
	.loc 3 5455 22 view .LVU2210
.LBB1197:
	.loc 3 5457 3 view .LVU2211
.LBE1197:
.LBE1196:
	.loc 1 2079 36 is_stmt 0 view .LVU2212
	ldrh	r2, [r0, #148]
.LBB1200:
.LBB1201:
	.loc 3 3219 3 view .LVU2213
	movs	r1, #0
.LBE1201:
.LBE1200:
.LBB1203:
.LBB1198:
	.loc 3 5457 3 view .LVU2214
	mvn	r4, #1
.LBE1198:
.LBE1203:
	.loc 1 2079 5 view .LVU2215
	subs	r2, r2, #5
.LBB1204:
.LBB1199:
	.loc 3 5457 3 view .LVU2216
	str	r4, [r3, #16]
.LVL545:
	.loc 3 5457 3 view .LVU2217
.LBE1199:
.LBE1204:
	.loc 1 2076 5 is_stmt 1 view .LVU2218
.LBB1205:
.LBI1200:
	.loc 3 3217 22 view .LVU2219
.LBB1202:
	.loc 3 3219 3 view .LVU2220
	str	r1, [r3, #52]
.LVL546:
	.loc 3 3219 3 is_stmt 0 view .LVU2221
.LBE1202:
.LBE1205:
	.loc 1 2077 5 is_stmt 1 view .LVU2222
.LBB1206:
.LBI1206:
	.loc 3 3235 22 view .LVU2223
.LBB1207:
	.loc 3 3237 3 view .LVU2224
	str	r1, [r3, #56]
.LVL547:
	.loc 3 3237 3 is_stmt 0 view .LVU2225
.LBE1207:
.LBE1206:
	.loc 1 2078 5 is_stmt 1 view .LVU2226
.LBB1208:
.LBI1208:
	.loc 3 3253 22 view .LVU2227
.LBB1209:
	.loc 3 3255 3 view .LVU2228
	str	r1, [r3, #60]
.LVL548:
	.loc 3 3255 3 is_stmt 0 view .LVU2229
.LBE1209:
.LBE1208:
	.loc 1 2079 5 is_stmt 1 view .LVU2230
.LBB1210:
.LBI1210:
	.loc 3 3271 22 view .LVU2231
.LBB1211:
	.loc 3 3273 3 view .LVU2232
	str	r2, [r3, #64]
.LVL549:
.L363:
	.loc 3 3273 3 is_stmt 0 view .LVU2233
.LBE1211:
.LBE1210:
	.loc 1 2084 5 is_stmt 1 discriminator 1 view .LVU2234
	.loc 1 2081 11 discriminator 1 view .LVU2235
.LBB1212:
.LBI1212:
	.loc 3 5466 26 discriminator 1 view .LVU2236
.LBB1213:
	.loc 3 5468 3 discriminator 1 view .LVU2237
	.loc 3 5468 12 is_stmt 0 discriminator 1 view .LVU2238
	ldr	r2, [r3, #16]
.LVL550:
	.loc 3 5468 12 discriminator 1 view .LVU2239
.LBE1213:
.LBE1212:
	.loc 1 2081 11 discriminator 1 view .LVU2240
	lsls	r2, r2, #31
	bpl	.L363
	.loc 1 2087 5 is_stmt 1 view .LVU2241
	.loc 1 2087 16 is_stmt 0 view .LVU2242
	ldr	r2, [r3, #68]
	orr	r2, r2, #1024
	str	r2, [r3, #68]
	.loc 1 2088 5 is_stmt 1 view .LVU2243
.LVL551:
.LBB1214:
.LBI1214:
	.loc 3 4623 22 view .LVU2244
.LBB1215:
	.loc 3 4625 3 view .LVU2245
	ldr	r2, [r3, #68]
	orr	r2, r2, #32768
	str	r2, [r3, #68]
.LVL552:
	.loc 3 4625 3 is_stmt 0 view .LVU2246
.LBE1215:
.LBE1214:
	.loc 1 2090 5 is_stmt 1 view .LVU2247
	.loc 1 2090 8 is_stmt 0 view .LVU2248
	ldrb	r2, [r0, #123]	@ zero_extendqisi2
	cmp	r2, #2
	bne	.L364
	.loc 1 2093 7 is_stmt 1 view .LVU2249
	.loc 1 2094 7 is_stmt 0 view .LVU2250
	ldrd	r4, r1, [r0, #60]
	.loc 1 2093 7 view .LVU2251
	ldrh	r5, [r0, #72]
.LVL553:
.LBB1216:
.LBI1216:
	.loc 4 894 22 is_stmt 1 view .LVU2252
.LBB1217:
	.loc 4 896 3 view .LVU2253
.LBE1217:
.LBE1216:
	.loc 1 2095 7 is_stmt 0 view .LVU2254
	ldr	r2, [r0, #68]
.LBB1219:
.LBB1218:
	.loc 4 896 3 view .LVU2255
	str	r5, [r4, #24]
.LVL554:
	.loc 4 896 3 view .LVU2256
.LBE1218:
.LBE1219:
	.loc 1 2094 7 is_stmt 1 view .LVU2257
	ldrh	r4, [r0, #74]
.LVL555:
.LBB1220:
.LBI1220:
	.loc 4 894 22 view .LVU2258
.LBB1221:
	.loc 4 896 3 view .LVU2259
	str	r4, [r1, #24]
.LVL556:
	.loc 4 896 3 is_stmt 0 view .LVU2260
.LBE1221:
.LBE1220:
	.loc 1 2095 7 is_stmt 1 view .LVU2261
	ldrh	r1, [r0, #76]
.LVL557:
.LBB1222:
.LBI1222:
	.loc 4 894 22 view .LVU2262
.LBB1223:
	.loc 4 896 3 view .LVU2263
	str	r1, [r2, #24]
.LVL558:
.L364:
	.loc 4 896 3 is_stmt 0 view .LVU2264
.LBE1223:
.LBE1222:
	.loc 1 2100 5 is_stmt 1 view .LVU2265
	.loc 1 2102 5 view .LVU2266
	.loc 1 2102 18 is_stmt 0 view .LVU2267
	movs	r2, #3
	strb	r2, [r0, #122]
	.loc 1 2104 5 is_stmt 1 view .LVU2268
.LVL559:
.LBB1224:
.LBI1224:
	.loc 3 2604 22 view .LVU2269
.LBB1225:
	.loc 3 2606 3 view .LVU2270
	ldr	r2, [r3, #32]
	orr	r2, r2, #4096
	str	r2, [r3, #32]
.LVL560:
	.loc 3 2606 3 is_stmt 0 view .LVU2271
.LBE1225:
.LBE1224:
	.loc 1 2106 5 is_stmt 1 view .LVU2272
.LBB1226:
.LBI1226:
	.loc 3 5921 22 view .LVU2273
.LBB1227:
	.loc 3 5923 3 view .LVU2274
	ldr	r2, [r3, #12]
	orr	r2, r2, #1
.LBE1227:
.LBE1226:
	.loc 1 2110 1 is_stmt 0 view .LVU2275
	pop	{r4, r5}
.LCFI56:
	.cfi_restore 5
	.cfi_restore 4
	.cfi_def_cfa_offset 0
.LBB1229:
.LBB1228:
	.loc 3 5923 3 view .LVU2276
	str	r2, [r3, #12]
.LVL561:
	.loc 3 5923 3 view .LVU2277
.LBE1228:
.LBE1229:
	.loc 1 2110 1 view .LVU2278
	bx	lr
	.cfi_endproc
.LFE1463:
	.size	R3_2_RLTurnOnLowSidesAndStart, .-R3_2_RLTurnOnLowSidesAndStart
	.text
.Letext0:
	.file 9 "/usr/share/gcc-arm-none-eabi-10-2020-q4-major/arm-none-eabi/include/machine/_default_types.h"
	.file 10 "/usr/share/gcc-arm-none-eabi-10-2020-q4-major/arm-none-eabi/include/sys/_stdint.h"
	.file 11 "Drivers/CMSIS/Device/ST/STM32G4xx/Include/stm32g431xx.h"
	.file 12 "Drivers/STM32G4xx_HAL_Driver/Inc/stm32g4xx_ll_usart.h"
	.file 13 "Drivers/STM32G4xx_HAL_Driver/Inc/stm32g4xx_ll_dma.h"
	.file 14 "Inc/mc_type.h"
	.file 15 "Inc/pwm_curr_fdbk.h"
	.file 16 "MCSDK_v6.3.2-Full/MotorControl/MCSDK/MCLib/G4xx/Inc/r3_2_g4xx_pwm_curr_fdbk.h"
	.file 17 "Drivers/CMSIS/Device/ST/STM32G4xx/Include/system_stm32g4xx.h"
	.file 18 "Inc/pwm_common.h"