	.cpu cortex-m4
	.eabi_attribute 27, 1
	.eabi_attribute 28, 1
	.eabi_attribute 20, 1
	.eabi_attribute 21, 1
	.eabi_attribute 23, 3
	.eabi_attribute 24, 1
	.eabi_attribute 25, 1
	.eabi_attribute 26, 1
	.eabi_attribute 30, 2
	.eabi_attribute 34, 1
	.eabi_attribute 18, 4
	.file	"revup_ctrl.c"
	.text
.Ltext0:
	.cfi_sections	.debug_frame
	.section	.text.RUC_Init,"ax",%progbits
	.align	1
	.p2align 2,,3
	.weak	RUC_Init
	.arch armv7e-m
	.syntax unified
	.thumb
	.thumb_func
	.fpu fpv4-sp-d16
	.type	RUC_Init, %function
RUC_Init:
.LVL0:
.LFB1457:
	.file 1 "MCSDK_v6.3.2-Full/MotorControl/MCSDK/MCLib/Any/Src/revup_ctrl.c"
	.loc 1 114 1 view -0
	.cfi_startproc
	@ args = 4, pretend = 0, frame = 0
	@ frame_needed = 0, uses_anonymous_args = 0
	@ link register save eliminated.
	.loc 1 123 5 view .LVU1
	.loc 1 124 5 view .LVU2
	.loc 1 126 5 view .LVU3
	.loc 1 114 1 is_stmt 0 view .LVU4
	push	{r4}
.LCFI0:
	.cfi_def_cfa_offset 4
	.cfi_offset 4, -4
	.loc 1 126 19 view .LVU5
	str	r1, [r0, #104]
	.loc 1 127 5 is_stmt 1 view .LVU6
	.loc 1 136 23 is_stmt 0 view .LVU7
	ldr	r1, [r0, #20]
.LVL1:
	.loc 1 114 1 view .LVU8
	ldr	r4, [sp, #4]
	.loc 1 129 19 view .LVU9
	str	r4, [r0, #116]
	.loc 1 130 27 view .LVU10
	mov	ip, #0
	.loc 1 128 20 view .LVU11
	strd	r2, r3, [r0, #108]
	.loc 1 129 5 is_stmt 1 view .LVU12
	.loc 1 130 5 view .LVU13
	.loc 1 131 5 view .LVU14
	.loc 1 133 5 view .LVU15
	.loc 1 133 11 view .LVU16
	.loc 1 136 7 view .LVU17
.LVL2:
	.loc 1 137 7 view .LVU18
	.loc 1 133 11 view .LVU19
	.loc 1 130 27 is_stmt 0 view .LVU20
	strh	ip, [r0, #84]	@ movhi
	.loc 1 133 11 view .LVU21
	cbz	r1, .L4
	.loc 1 136 7 is_stmt 1 view .LVU22
	.loc 1 136 23 is_stmt 0 view .LVU23
	ldr	r3, [r1, #8]
.LVL3:
	.loc 1 137 7 is_stmt 1 view .LVU24
	.loc 1 133 11 view .LVU25
	cbz	r3, .L5
	.loc 1 136 7 view .LVU26
	.loc 1 136 23 is_stmt 0 view .LVU27
	ldr	r3, [r3, #8]
.LVL4:
	.loc 1 137 7 is_stmt 1 view .LVU28
	.loc 1 133 11 view .LVU29
	cbz	r3, .L6
	.loc 1 136 7 view .LVU30
	.loc 1 136 23 is_stmt 0 view .LVU31
	ldr	r3, [r3, #8]
.LVL5:
	.loc 1 137 7 is_stmt 1 view .LVU32
	.loc 1 133 11 view .LVU33
	cbz	r3, .L7
	.loc 1 136 7 view .LVU34
.LVL6:
	.loc 1 137 7 view .LVU35
	.loc 1 133 11 view .LVU36
	ldr	r3, [r3, #8]
.LVL7:
	.loc 1 137 13 is_stmt 0 view .LVU37
	movs	r1, #5
	.loc 1 133 11 view .LVU38
	cbz	r3, .L2
	movs	r2, #4
.LVL8:
	.loc 1 133 11 view .LVU39
	movs	r1, #5
.LVL9:
.L3:
	.loc 1 146 7 is_stmt 1 view .LVU40
	.loc 1 150 76 is_stmt 0 view .LVU41
	ldrh	r3, [r0]
	.loc 1 150 95 view .LVU42
	ldr	r4, .L11
	.loc 1 150 67 view .LVU43
	mov	ip, #100
	mul	r3, ip, r3
	.loc 1 146 46 view .LVU44
	add	r2, r2, r2, lsl #1
	.loc 1 150 95 view .LVU45
	umull	r4, r3, r4, r3
	.loc 1 146 46 view .LVU46
	add	r2, r0, r2, lsl #2
	movs	r4, #0
	.loc 1 150 95 view .LVU47
	lsrs	r3, r3, #6
	.loc 1 146 46 view .LVU48
	str	r4, [r2, #20]
	.loc 1 148 7 is_stmt 1 view .LVU49
	.loc 1 155 1 is_stmt 0 view .LVU50
	ldr	r4, [sp], #4
.LCFI1:
	.cfi_remember_state
	.cfi_restore 4
	.cfi_def_cfa_offset 0
.LVL10:
	.loc 1 148 26 view .LVU51
	strb	r1, [r0, #72]
	.loc 1 150 7 is_stmt 1 view .LVU52
	.loc 1 150 30 is_stmt 0 view .LVU53
	strb	r3, [r0, #86]
	.loc 1 155 1 view .LVU54
	bx	lr
.LVL11:
.L4:
.LCFI2:
	.cfi_restore_state
	.loc 1 137 13 view .LVU55
	movs	r1, #1
.LVL12:
.L2:
	.loc 1 146 34 view .LVU56
	subs	r2, r1, #1
.LVL13:
	.loc 1 146 34 view .LVU57
	b	.L3
.LVL14:
.L5:
	.loc 1 137 13 view .LVU58
	movs	r1, #2
	b	.L2
.LVL15:
.L6:
	.loc 1 137 13 view .LVU59
	movs	r1, #3
	b	.L2
.LVL16:
.L7:
	.loc 1 137 13 view .LVU60
	movs	r1, #4
	b	.L2
.L12:
	.align	2
.L11:
	.word	274877907
	.cfi_endproc
.LFE1457:
	.size	RUC_Init, .-RUC_Init
	.section	.text.RUC_Clear,"ax",%progbits
	.align	1
	.p2align 2,,3
	.weak	RUC_Clear
	.syntax unified
	.thumb
	.thumb_func
	.fpu fpv4-sp-d16
	.type	RUC_Clear, %function
RUC_Clear:
.LVL17:
.LFB1458:
	.loc 1 164 1 is_stmt 1 view -0
	.cfi_startproc
	@ args = 0, pretend = 0, frame = 0
	@ frame_needed = 0, uses_anonymous_args = 0
	.loc 1 173 5 view .LVU62
	.loc 1 164 1 is_stmt 0 view .LVU63
	push	{r4, r5, r6, r7, r8, lr}
.LCFI3:
	.cfi_def_cfa_offset 24
	.cfi_offset 4, -24
	.cfi_offset 5, -20
	.cfi_offset 6, -16
	.cfi_offset 7, -12
	.cfi_offset 8, -8
	.cfi_offset 14, -4
	.loc 1 173 34 view .LVU64
	ldr	r7, [r0, #108]
.LVL18:
	.loc 1 174 5 is_stmt 1 view .LVU65
	.loc 1 174 30 is_stmt 0 view .LVU66
	ldr	r8, [r0, #104]
.LVL19:
	.loc 1 175 5 is_stmt 1 view .LVU67
	.loc 1 177 5 view .LVU68
	.loc 1 177 25 is_stmt 0 view .LVU69
	strh	r1, [r0, #6]	@ movhi
	.loc 1 178 5 is_stmt 1 view .LVU70
	.loc 1 181 5 view .LVU71
	.loc 1 181 24 is_stmt 0 view .LVU72
	movs	r5, #0
	.loc 1 164 1 view .LVU73
	mov	r4, r0
	.loc 1 181 24 view .LVU74
	strb	r5, [r0, #88]
	.loc 1 182 5 is_stmt 1 view .LVU75
	.loc 1 182 29 is_stmt 0 view .LVU76
	strb	r5, [r0, #83]
	.loc 1 183 5 is_stmt 1 view .LVU77
	.loc 1 183 27 is_stmt 0 view .LVU78
	strh	r5, [r0, #84]	@ movhi
	.loc 1 186 5 is_stmt 1 view .LVU79
	mov	r0, r7
.LVL20:
	.loc 1 192 54 is_stmt 0 view .LVU80
	uxth	r6, r1
	.loc 1 186 5 view .LVU81
	bl	VSS_Clear
.LVL21:
	.loc 1 189 5 is_stmt 1 view .LVU82
	movs	r1, #4
	mov	r0, r8
	bl	STC_SetControlMode
.LVL22:
	.loc 1 192 5 view .LVU83
	.loc 1 192 54 is_stmt 0 view .LVU84
	ldrh	r3, [r4, #2]
.LBB11:
.LBB12:
	.file 2 "MCSDK_v6.3.2-Full/MotorControl/MCSDK/MCLib/Any/Inc/virtual_speed_sensor.h"
	.loc 2 133 58 view .LVU85
	ldrb	r2, [r7, #1]	@ zero_extendqisi2
.LBE12:
.LBE11:
	.loc 1 192 54 view .LVU86
	smulbb	r3, r3, r6
	.loc 1 192 5 view .LVU87
	sxth	r3, r3
.LVL23:
.LBB16:
.LBI11:
	.loc 2 122 20 is_stmt 1 view .LVU88
.LBB13:
	.loc 2 132 5 view .LVU89
	.loc 2 132 27 is_stmt 0 view .LVU90
	strh	r3, [r7, #48]	@ movhi
	.loc 2 133 5 is_stmt 1 view .LVU91
	.loc 2 134 30 is_stmt 0 view .LVU92
	strh	r3, [r7, #4]	@ movhi
.LBE13:
.LBE16:
	.loc 1 195 11 view .LVU93
	mov	r1, r5
.LBB17:
.LBB14:
	.loc 2 133 55 view .LVU94
	sdiv	r3, r3, r2
.LVL24:
	.loc 2 133 55 view .LVU95
.LBE14:
.LBE17:
	.loc 1 195 11 view .LVU96
	mov	r0, r8
.LBB18:
.LBB15:
	.loc 2 133 31 view .LVU97
	strh	r3, [r7, #6]	@ movhi
	.loc 2 134 5 is_stmt 1 view .LVU98
.LVL25:
	.loc 2 134 5 is_stmt 0 view .LVU99
.LBE15:
.LBE18:
	.loc 1 195 5 is_stmt 1 view .LVU100
	.loc 1 195 11 is_stmt 0 view .LVU101
	mov	r2, r5
	bl	STC_ExecRamp
.LVL26:
	.loc 1 198 5 is_stmt 1 view .LVU102
	.loc 1 198 57 is_stmt 0 view .LVU103
	ldrh	r1, [r4, #16]
	.loc 1 198 11 view .LVU104
	ldrh	r2, [r4, #12]
	.loc 1 198 57 view .LVU105
	smulbb	r1, r1, r6
	.loc 1 198 11 view .LVU106
	sxth	r1, r1
	mov	r0, r8
	bl	STC_ExecRamp
.LVL27:
	.loc 1 200 5 is_stmt 1 view .LVU107
	.loc 1 200 67 is_stmt 0 view .LVU108
	ldrh	r1, [r4, #14]
	.loc 1 200 5 view .LVU109
	ldrh	r2, [r4, #12]
	.loc 1 200 67 view .LVU110
	smulbb	r1, r1, r6
	.loc 1 200 5 view .LVU111
	sxth	r1, r1
	mov	r0, r7
	bl	VSS_SetMecAcceleration
.LVL28:
	.loc 1 203 5 is_stmt 1 view .LVU112
	.loc 1 207 5 view .LVU113
	.loc 1 203 50 is_stmt 0 view .LVU114
	ldrh	r3, [r4, #12]
	.loc 1 204 50 view .LVU115
	ldrh	r1, [r4]
	.loc 1 205 47 view .LVU116
	ldr	r2, .L15
	.loc 1 213 27 view .LVU117
	strb	r5, [r4, #87]
	.loc 1 204 47 view .LVU118
	mul	r3, r1, r3
	.loc 1 205 47 view .LVU119
	umull	r2, r3, r2, r3
	lsrs	r3, r3, #6
	.loc 1 210 34 view .LVU120
	ldr	r2, [r4, #20]
	str	r2, [r4, #8]
	.loc 1 207 34 view .LVU121
	adds	r3, r3, #1
	strh	r3, [r4, #4]	@ movhi
	.loc 1 210 5 is_stmt 1 view .LVU122
	.loc 1 213 5 view .LVU123
	.loc 1 217 1 is_stmt 0 view .LVU124
	pop	{r4, r5, r6, r7, r8, pc}
.LVL29:
.L16:
	.loc 1 217 1 view .LVU125
	.align	2
.L15:
	.word	274877907
	.cfi_endproc
.LFE1458:
	.size	RUC_Clear, .-RUC_Clear
	.section	.text.RUC_OTF_Exec,"ax",%progbits
	.align	1
	.p2align 2,,3
	.weak	RUC_OTF_Exec
	.syntax unified
	.thumb
	.thumb_func
	.fpu fpv4-sp-d16
	.type	RUC_OTF_Exec, %function
RUC_OTF_Exec:
.LVL30:
.LFB1459:
	.loc 1 226 1 is_stmt 1 view -0
	.cfi_startproc
	@ args = 0, pretend = 0, frame = 0
	@ frame_needed = 0, uses_anonymous_args = 0
	.loc 1 227 3 view .LVU127
	.loc 1 236 5 view .LVU128
	.loc 1 237 5 view .LVU129
	.loc 1 239 5 view .LVU130
	.loc 1 239 16 is_stmt 0 view .LVU131
	ldrh	r3, [r0, #4]
	.loc 1 226 1 view .LVU132
	push	{r4, r5, r6, lr}
.LCFI4:
	.cfi_def_cfa_offset 16
	.cfi_offset 4, -16
	.cfi_offset 5, -12
	.cfi_offset 6, -8
	.cfi_offset 14, -4
	.loc 1 226 1 view .LVU133
	mov	r4, r0
	.loc 1 239 8 view .LVU134
	cbz	r3, .L41
	.loc 1 242 7 is_stmt 1 view .LVU135
	.loc 1 242 36 is_stmt 0 view .LVU136
	subs	r3, r3, #1
	.loc 1 245 24 view .LVU137
	ldrb	r5, [r0, #88]	@ zero_extendqisi2
	.loc 1 242 36 view .LVU138
	uxth	r3, r3
	strh	r3, [r0, #4]	@ movhi
	.loc 1 245 7 is_stmt 1 view .LVU139
	.loc 1 245 10 is_stmt 0 view .LVU140
	cmp	r5, #0
	beq	.L64
.LVL31:
.L19:
	.loc 1 434 5 is_stmt 1 view .LVU141
	.loc 1 434 8 is_stmt 0 view .LVU142
	cbz	r3, .L41
.L63:
	.loc 1 227 8 view .LVU143
	movs	r0, #1
	.loc 1 498 1 view .LVU144
	pop	{r4, r5, r6, pc}
.LVL32:
.L41:
	.loc 1 436 18 view .LVU145
	ldr	r3, [r4, #8]
	.loc 1 438 26 view .LVU146
	ldrb	r5, [r4, #88]	@ zero_extendqisi2
.L45:
	.loc 1 436 7 is_stmt 1 view .LVU147
	.loc 1 436 10 is_stmt 0 view .LVU148
	cmp	r3, #0
	beq	.L35
	.loc 1 438 9 is_stmt 1 view .LVU149
	.loc 1 438 12 is_stmt 0 view .LVU150
	cmp	r5, #0
	beq	.L65
	.loc 1 446 14 is_stmt 1 view .LVU151
	.loc 1 446 17 is_stmt 0 view .LVU152
	cmp	r5, #1
	beq	.L66
.L43:
	.loc 1 454 9 is_stmt 1 view .LVU153
	.loc 1 459 9 view .LVU154
	.loc 1 459 86 is_stmt 0 view .LVU155
	ldrh	r0, [r4, #6]
	ldrh	r1, [r3, #4]
	.loc 1 459 15 view .LVU156
	ldrh	r2, [r3]
	.loc 1 459 86 view .LVU157
	smulbb	r1, r1, r0
	.loc 1 459 15 view .LVU158
	sxth	r1, r1
	ldr	r0, [r4, #104]
	bl	STC_ExecRamp
.LVL33:
	.loc 1 462 9 is_stmt 1 view .LVU159
	.loc 1 463 39 is_stmt 0 view .LVU160
	ldr	r3, [r4, #8]
	.loc 1 463 81 view .LVU161
	ldrh	r0, [r4, #6]
	ldrh	r1, [r3, #2]
	.loc 1 462 9 view .LVU162
	ldrh	r2, [r3]
	.loc 1 463 81 view .LVU163
	smulbb	r1, r1, r0
	.loc 1 462 9 view .LVU164
	sxth	r1, r1
	ldr	r0, [r4, #108]
	bl	VSS_SetMecAcceleration
.LVL34:
	.loc 1 467 9 is_stmt 1 view .LVU165
	.loc 1 467 71 is_stmt 0 view .LVU166
	ldr	r1, [r4, #8]
	.loc 1 469 9 is_stmt 1 view .LVU167
	.loc 1 468 52 is_stmt 0 view .LVU168
	ldrh	r0, [r4]
	.loc 1 467 54 view .LVU169
	ldrh	r3, [r1]
	.loc 1 468 88 view .LVU170
	ldr	r2, .L70
	.loc 1 472 38 view .LVU171
	ldr	r1, [r1, #8]
	str	r1, [r4, #8]
	.loc 1 468 50 view .LVU172
	mul	r3, r0, r3
	.loc 1 468 88 view .LVU173
	umull	r2, r3, r2, r3
	.loc 1 475 27 view .LVU174
	ldrb	r2, [r4, #88]	@ zero_extendqisi2
	.loc 1 468 88 view .LVU175
	lsrs	r3, r3, #6
	.loc 1 475 27 view .LVU176
	adds	r2, r2, #1
	.loc 1 469 38 view .LVU177
	adds	r3, r3, #1
	.loc 1 475 27 view .LVU178
	strb	r2, [r4, #88]
	.loc 1 469 38 view .LVU179
	strh	r3, [r4, #4]	@ movhi
	.loc 1 472 9 is_stmt 1 view .LVU180
	.loc 1 475 9 view .LVU181
	.loc 1 227 8 is_stmt 0 view .LVU182
	movs	r0, #1
	.loc 1 498 1 view .LVU183
	pop	{r4, r5, r6, pc}
.LVL35:
.L64:
	.loc 1 247 9 is_stmt 1 view .LVU184
	.loc 1 247 12 is_stmt 0 view .LVU185
	ldrb	r3, [r0, #85]	@ zero_extendqisi2
	.loc 1 249 22 view .LVU186
	ldr	r0, [r0, #112]
.LVL36:
	.loc 1 247 12 view .LVU187
	cmp	r3, #0
	bne	.L20
	.loc 1 249 11 is_stmt 1 view .LVU188
	.loc 1 249 29 is_stmt 0 view .LVU189
	ldr	r2, [r0, #12]
	.loc 1 249 14 view .LVU190
	cbz	r2, .L21
	.loc 1 251 13 is_stmt 1 view .LVU191
	.loc 1 251 34 is_stmt 0 view .LVU192
	ldrb	r3, [r4, #87]	@ zero_extendqisi2
	.loc 1 252 16 view .LVU193
	ldrb	r1, [r4, #86]	@ zero_extendqisi2
	.loc 1 251 34 view .LVU194
	adds	r3, r3, #1
	uxtb	r3, r3
	.loc 1 252 16 view .LVU195
	cmp	r1, r3
	.loc 1 251 34 view .LVU196
	strb	r3, [r4, #87]
	.loc 1 252 13 is_stmt 1 view .LVU197
	.loc 1 252 16 is_stmt 0 view .LVU198
	bcc	.L67
.L21:
	.loc 1 266 11 is_stmt 1 view .LVU199
	.loc 1 268 11 view .LVU200
	.loc 1 268 29 is_stmt 0 view .LVU201
	ldr	r3, [r0, #16]
	blx	r3
.LVL37:
	.loc 1 270 11 is_stmt 1 view .LVU202
	.loc 1 270 14 is_stmt 0 view .LVU203
	cmp	r0, #0
	beq	.L22
	.loc 1 272 13 is_stmt 1 view .LVU204
	.loc 1 272 24 is_stmt 0 view .LVU205
	ldrb	r5, [r4, #83]	@ zero_extendqisi2
	.loc 1 272 16 view .LVU206
	cmp	r5, #126
	bhi	.L23
	.loc 1 274 15 is_stmt 1 view .LVU207
	.loc 1 274 38 is_stmt 0 view .LVU208
	adds	r5, r5, #1
	uxtb	r5, r5
	strb	r5, [r4, #83]
.L23:
	.loc 1 286 11 is_stmt 1 view .LVU209
	.loc 1 286 22 is_stmt 0 view .LVU210
	ldr	r3, [r4, #112]
	.loc 1 286 14 view .LVU211
	ldr	r2, [r3, #12]
	cmp	r2, #0
	beq	.L25
.L24:
	.loc 1 288 13 is_stmt 1 view .LVU212
	.loc 1 288 41 is_stmt 0 view .LVU213
	ldrb	r2, [r4, #86]	@ zero_extendqisi2
	.loc 1 288 16 view .LVU214
	cmp	r5, r2, lsr #1
	bne	.L62
.L26:
.LVL38:
.LBB19:
	.loc 1 311 13 is_stmt 1 view .LVU215
	.loc 1 312 13 view .LVU216
	.loc 1 312 37 is_stmt 0 view .LVU217
	ldr	r0, [r3]
.LVL39:
	.loc 1 312 37 view .LVU218
	bl	SPD_GetAvrgMecSpeedUnit
.LVL40:
	.loc 1 316 16 view .LVU219
	ldrsh	r3, [r4, #6]
	cmp	r3, #0
	.loc 1 312 37 view .LVU220
	mov	r6, r0
.LVL41:
	.loc 1 313 13 is_stmt 1 view .LVU221
	.loc 1 316 13 view .LVU222
	.loc 1 316 16 is_stmt 0 view .LVU223
	ble	.L27
	.loc 1 318 15 is_stmt 1 view .LVU224
	.loc 1 318 18 is_stmt 0 view .LVU225
	cmp	r0, #0
	ble	.L29
.L28:
	.loc 1 314 61 view .LVU226
	eor	r5, r6, r6, asr #31
	.loc 1 346 18 view .LVU227
	ldrh	r3, [r4, #74]
	.loc 1 314 61 view .LVU228
	sub	r5, r5, r6, asr #31
	uxth	r5, r5
.LVL42:
	.loc 1 346 15 is_stmt 1 view .LVU229
	.loc 1 346 18 is_stmt 0 view .LVU230
	cmp	r3, r5
	bcs	.L30
	.loc 1 349 17 is_stmt 1 view .LVU231
	.loc 1 349 24 is_stmt 0 view .LVU232
	ldr	r0, [r4, #112]
.LVL43:
	.loc 1 349 17 view .LVU233
	ldr	r3, [r0, #4]
	blx	r3
.LVL44:
	.loc 1 350 17 is_stmt 1 view .LVU234
	.loc 1 350 39 is_stmt 0 view .LVU235
	movs	r2, #1
.LBE19:
	.loc 1 434 22 view .LVU236
	ldrh	r3, [r4, #4]
.LBB32:
	.loc 1 350 39 view .LVU237
	strb	r2, [r4, #85]
	b	.L19
.LVL45:
.L20:
	.loc 1 350 39 view .LVU238
.LBE32:
	.loc 1 429 11 is_stmt 1 view .LVU239
	ldr	r3, [r0, #4]
	blx	r3
.LVL46:
.L62:
	.loc 1 434 22 is_stmt 0 view .LVU240
	ldrh	r3, [r4, #4]
	b	.L19
.LVL47:
.L32:
.LBB33:
.LBB20:
	.loc 1 366 19 is_stmt 1 view .LVU241
	.loc 1 367 19 view .LVU242
.LBE20:
.LBE33:
	.loc 1 438 26 is_stmt 0 view .LVU243
	ldrb	r5, [r4, #88]	@ zero_extendqisi2
.LBB34:
.LBB27:
	.loc 1 367 49 view .LVU244
	strh	r2, [r4, #4]	@ movhi
	.loc 1 391 17 is_stmt 1 view .LVU245
.LBE27:
.LBE34:
	.loc 1 434 5 view .LVU246
	.loc 1 436 7 view .LVU247
.LVL48:
.L35:
	.loc 1 479 9 view .LVU248
	.loc 1 479 43 is_stmt 0 view .LVU249
	ldrb	r3, [r4, #72]	@ zero_extendqisi2
	.loc 1 479 55 view .LVU250
	subs	r3, r3, #1
	.loc 1 479 12 view .LVU251
	cmp	r5, r3
	beq	.L47
	.loc 1 483 14 is_stmt 1 view .LVU252
	.loc 1 483 17 is_stmt 0 view .LVU253
	cmp	r5, #7
	bne	.L63
	.loc 1 485 11 is_stmt 1 view .LVU254
	.loc 1 485 30 is_stmt 0 view .LVU255
	movs	r3, #0
	strb	r3, [r4, #88]
	.loc 1 486 11 is_stmt 1 view .LVU256
	.loc 1 486 41 is_stmt 0 view .LVU257
	strh	r3, [r4, #4]	@ movhi
	b	.L63
.L65:
	.loc 1 441 11 is_stmt 1 view .LVU258
	ldr	r0, [r4, #116]
	bl	PWMC_SwitchOffPWM
.LVL49:
	.loc 1 442 11 view .LVU259
	.loc 1 442 33 is_stmt 0 view .LVU260
	movs	r3, #1
	strb	r3, [r4, #84]
	.loc 1 443 11 is_stmt 1 view .LVU261
	ldr	r0, [r4, #116]
	mov	r1, r5
	bl	PWMC_TurnOnLowSides
.LVL50:
	.loc 1 444 11 view .LVU262
	.loc 1 459 50 is_stmt 0 view .LVU263
	ldr	r3, [r4, #8]
	.loc 1 444 35 view .LVU264
	strb	r5, [r4, #83]
	b	.L43
.LVL51:
.L22:
	.loc 1 283 13 is_stmt 1 view .LVU265
	.loc 1 286 22 is_stmt 0 view .LVU266
	ldr	r3, [r4, #112]
	.loc 1 283 37 view .LVU267
	strb	r0, [r4, #83]
	.loc 1 286 11 is_stmt 1 view .LVU268
	.loc 1 286 14 is_stmt 0 view .LVU269
	ldr	r2, [r3, #12]
	cmp	r2, #0
	bne	.L24
	.loc 1 286 14 view .LVU270
	b	.L62
.LVL52:
.L47:
	.loc 1 481 18 view .LVU271
	movs	r0, #0
.LVL53:
	.loc 1 491 9 is_stmt 1 view .LVU272
	.loc 1 497 3 view .LVU273
	.loc 1 498 1 is_stmt 0 view .LVU274
	pop	{r4, r5, r6, pc}
.LVL54:
.L66:
	.loc 1 448 11 is_stmt 1 view .LVU275
	ldr	r0, [r4, #116]
	bl	PWMC_SwitchOnPWM
.LVL55:
	.loc 1 449 11 view .LVU276
	.loc 1 449 33 is_stmt 0 view .LVU277
	movs	r2, #0
	.loc 1 459 50 view .LVU278
	ldr	r3, [r4, #8]
	.loc 1 449 33 view .LVU279
	strb	r2, [r4, #84]
	b	.L43
.LVL56:
.L67:
	.loc 1 254 15 is_stmt 1 view .LVU280
	blx	r2
.LVL57:
	.loc 1 255 15 view .LVU281
	.loc 1 268 36 is_stmt 0 view .LVU282
	ldr	r0, [r4, #112]
	.loc 1 255 39 view .LVU283
	strb	r5, [r4, #83]
	.loc 1 256 15 is_stmt 1 view .LVU284
	.loc 1 256 37 is_stmt 0 view .LVU285
	strb	r5, [r4, #87]
	b	.L21
.LVL58:
.L25:
	.loc 1 299 13 is_stmt 1 view .LVU286
	.loc 1 299 16 is_stmt 0 view .LVU287
	cmp	r5, #127
	beq	.L26
	b	.L62
.LVL59:
.L27:
.LBB35:
	.loc 1 329 15 is_stmt 1 view .LVU288
	.loc 1 329 18 is_stmt 0 view .LVU289
	cmp	r0, #0
	blt	.L28
.L29:
.LVL60:
	.loc 1 342 15 is_stmt 1 view .LVU290
	.loc 1 342 39 is_stmt 0 view .LVU291
	movs	r2, #0
.LBE35:
	.loc 1 434 22 view .LVU292
	ldrh	r3, [r4, #4]
.LBB36:
	.loc 1 342 39 view .LVU293
	strb	r2, [r4, #83]
	b	.L19
.L30:
	.loc 1 352 20 is_stmt 1 view .LVU294
	.loc 1 352 23 is_stmt 0 view .LVU295
	ldrh	r3, [r4, #76]
	cmp	r3, r5
	bcs	.L62
.LBB28:
	.loc 1 356 17 is_stmt 1 view .LVU296
.LVL61:
	.loc 1 357 17 view .LVU297
	.loc 1 358 17 view .LVU298
	.loc 1 359 17 view .LVU299
	.loc 1 360 17 view .LVU300
	.loc 1 361 17 view .LVU301
.LBB21:
.LBI21:
	.loc 2 147 20 view .LVU302
.LBB22:
	.loc 2 157 5 view .LVU303
	.loc 2 157 28 is_stmt 0 view .LVU304
	ldr	r3, [r4, #108]
.LBE22:
.LBE21:
	.loc 1 362 24 view .LVU305
	ldr	r0, [r4, #112]
.LVL62:
.LBB24:
.LBB23:
	.loc 2 157 28 view .LVU306
	movs	r2, #1
	strb	r2, [r3, #51]
.LVL63:
	.loc 2 157 28 view .LVU307
.LBE23:
.LBE24:
	.loc 1 362 17 is_stmt 1 view .LVU308
	ldr	r3, [r0, #8]
	blx	r3
.LVL64:
	.loc 1 364 17 view .LVU309
	.loc 1 364 39 is_stmt 0 view .LVU310
	ldr	r2, [r4, #8]
	.loc 1 364 20 view .LVU311
	cmp	r2, #0
	beq	.L32
	.loc 1 371 54 view .LVU312
	ldrsh	ip, [r2, #2]
.LBE28:
	.loc 1 313 21 view .LVU313
	sxth	r3, r5
.LBB29:
	.loc 1 371 25 is_stmt 1 view .LVU314
	cmp	r3, ip
	ble	.L68
	.loc 1 387 30 is_stmt 0 view .LVU315
	ldrb	r5, [r4, #88]	@ zero_extendqisi2
	b	.L38
.LVL65:
.L36:
	.loc 1 387 41 view .LVU316
	uxtb	r5, r0
	.loc 1 384 39 view .LVU317
	ldrsh	r0, [r1, #4]
.LVL66:
	.loc 1 386 23 is_stmt 1 view .LVU318
	.loc 1 387 41 is_stmt 0 view .LVU319
	strb	r5, [r4, #88]
	.loc 1 371 54 view .LVU320
	ldrsh	r1, [r2, #2]
	.loc 1 386 52 view .LVU321
	str	r2, [r4, #8]
	.loc 1 387 23 is_stmt 1 view .LVU322
	.loc 1 371 25 view .LVU323
	cmp	r1, r3
	bge	.L34
	mov	ip, r1
.LVL67:
.L38:
	.loc 1 373 21 view .LVU324
	.loc 1 383 23 view .LVU325
	.loc 1 384 23 view .LVU326
	mov	r1, r2
	.loc 1 373 53 is_stmt 0 view .LVU327
	ldr	r2, [r2, #8]
	.loc 1 387 41 view .LVU328
	adds	r0, r5, #1
	.loc 1 373 24 view .LVU329
	cmp	r2, #0
	bne	.L36
	.loc 1 376 23 is_stmt 1 view .LVU330
.LVL68:
	.loc 1 377 23 view .LVU331
.LBE29:
.LBE36:
	.loc 1 436 18 is_stmt 0 view .LVU332
	ldr	r3, [r4, #8]
.LBB37:
.LBB30:
	.loc 1 377 53 view .LVU333
	strh	r2, [r4, #4]	@ movhi
	.loc 1 378 23 is_stmt 1 view .LVU334
.LVL69:
	.loc 1 391 17 view .LVU335
	b	.L45
.LVL70:
.L68:
	.loc 1 357 25 is_stmt 0 view .LVU336
	movs	r0, #0
	.loc 1 356 25 view .LVU337
	mov	ip, r0
.LVL71:
.L34:
	.loc 1 391 17 is_stmt 1 view .LVU338
.LBB25:
	.loc 1 394 19 view .LVU339
	.loc 1 396 19 view .LVU340
	.loc 1 396 39 is_stmt 0 view .LVU341
	ldrsh	r3, [r2, #2]
.LVL72:
	.loc 1 398 19 is_stmt 1 view .LVU342
	.loc 1 401 19 view .LVU343
	.loc 1 401 22 is_stmt 0 view .LVU344
	subs	ip, r3, ip
.LVL73:
	.loc 1 401 22 view .LVU345
	bne	.L69
.LVL74:
.L39:
	.loc 1 413 19 is_stmt 1 view .LVU346
	.loc 1 417 38 is_stmt 0 view .LVU347
	movs	r3, #6
	.loc 1 413 49 view .LVU348
	movs	r0, #1
	.loc 1 415 50 view .LVU349
	add	r2, r4, #92
	.loc 1 417 38 view .LVU350
	strb	r3, [r4, #88]
	.loc 1 413 49 view .LVU351
	strh	r0, [r4, #4]	@ movhi
	.loc 1 415 19 is_stmt 1 view .LVU352
	.loc 1 415 48 is_stmt 0 view .LVU353
	str	r2, [r4, #8]
	.loc 1 417 19 is_stmt 1 view .LVU354
.LBE25:
.LBE30:
.LBE37:
	.loc 1 434 5 view .LVU355
	.loc 1 498 1 is_stmt 0 view .LVU356
	pop	{r4, r5, r6, pc}
.LVL75:
.L69:
.LBB38:
.LBB31:
.LBB26:
	.loc 1 407 21 is_stmt 1 view .LVU357
	.loc 1 410 21 view .LVU358
	.loc 1 398 40 is_stmt 0 view .LVU359
	ldrsh	r3, [r2, #4]
	.loc 1 410 75 view .LVU360
	ldrh	r1, [r4, #6]
	.loc 1 398 37 view .LVU361
	subs	r3, r3, r0
	.loc 1 407 76 view .LVU362
	mul	r3, r6, r3
	.loc 1 407 97 view .LVU363
	sdiv	r3, r3, ip
	.loc 1 408 38 view .LVU364
	add	r0, r0, r3
.LVL76:
	.loc 1 410 75 view .LVU365
	smulbb	r1, r1, r0
	.loc 1 410 27 view .LVU366
	movs	r2, #0
	.loc 1 410 27 view .LVU367
	ldr	r0, [r4, #104]
	sxth	r1, r1
	bl	STC_ExecRamp
.LVL77:
	.loc 1 410 27 view .LVU368
	b	.L39
.L71:
	.align	2
.L70:
	.word	274877907
.LBE26:
.LBE31:
.LBE38:
	.cfi_endproc
.LFE1459:
	.size	RUC_OTF_Exec, .-RUC_OTF_Exec
	.section	.text.RUC_Exec,"ax",%progbits
	.align	1
	.p2align 2,,3
	.weak	RUC_Exec
	.syntax unified
	.thumb
	.thumb_func
	.fpu fpv4-sp-d16
	.type	RUC_Exec, %function
RUC_Exec:
.LVL78:
.LFB1460:
	.loc 1 506 1 is_stmt 1 view -0
	.cfi_startproc
	@ args = 0, pretend = 0, frame = 0
	@ frame_needed = 0, uses_anonymous_args = 0
	.loc 1 507 3 view .LVU370
	.loc 1 516 5 view .LVU371
	.loc 1 516 16 is_stmt 0 view .LVU372
	ldrh	r3, [r0, #4]
	.loc 1 506 1 view .LVU373
	push	{r4, lr}
.LCFI5:
	.cfi_def_cfa_offset 8
	.cfi_offset 4, -8
	.cfi_offset 14, -4
	.loc 1 506 1 view .LVU374
	mov	r4, r0
	.loc 1 516 8 view .LVU375
	cbnz	r3, .L73
.L76:
	.loc 1 529 7 is_stmt 1 view .LVU376
	.loc 1 529 18 is_stmt 0 view .LVU377
	ldr	r0, [r4, #8]
.LVL79:
	.loc 1 529 10 view .LVU378
	cbz	r0, .L75
	.loc 1 533 9 is_stmt 1 view .LVU379
	.loc 1 533 86 is_stmt 0 view .LVU380
	ldrh	r1, [r0, #4]
	ldrh	r3, [r4, #6]
	.loc 1 533 15 view .LVU381
	ldrh	r2, [r0]
	ldr	r0, [r4, #104]
	.loc 1 533 86 view .LVU382
	smulbb	r1, r1, r3
	.loc 1 533 15 view .LVU383
	sxth	r1, r1
	bl	STC_ExecRamp
.LVL80:
	.loc 1 536 9 is_stmt 1 view .LVU384
	.loc 1 537 39 is_stmt 0 view .LVU385
	ldr	r3, [r4, #8]
	.loc 1 537 81 view .LVU386
	ldrh	r0, [r4, #6]
	ldrh	r1, [r3, #2]
	.loc 1 536 9 view .LVU387
	ldrh	r2, [r3]
	.loc 1 537 81 view .LVU388
	smulbb	r1, r1, r0
	.loc 1 536 9 view .LVU389
	sxth	r1, r1
	ldr	r0, [r4, #108]
	bl	VSS_SetMecAcceleration
.LVL81:
	.loc 1 541 9 is_stmt 1 view .LVU390
	.loc 1 541 71 is_stmt 0 view .LVU391
	ldr	r1, [r4, #8]
	.loc 1 543 9 is_stmt 1 view .LVU392
	.loc 1 542 54 is_stmt 0 view .LVU393
	ldrh	r0, [r4]
	.loc 1 541 54 view .LVU394
	ldrh	r3, [r1]
	.loc 1 542 91 view .LVU395
	ldr	r2, .L82
	.loc 1 546 38 view .LVU396
	ldr	r1, [r1, #8]
	str	r1, [r4, #8]
	.loc 1 542 51 view .LVU397
	mul	r3, r0, r3
	.loc 1 542 91 view .LVU398
	umull	r2, r3, r2, r3
	.loc 1 549 27 view .LVU399
	ldrb	r2, [r4, #88]	@ zero_extendqisi2
	.loc 1 542 91 view .LVU400
	lsrs	r3, r3, #6
	.loc 1 543 38 view .LVU401
	adds	r3, r3, #1
	.loc 1 549 27 view .LVU402
	adds	r2, r2, #1
	.loc 1 543 38 view .LVU403
	strh	r3, [r4, #4]	@ movhi
	.loc 1 546 9 is_stmt 1 view .LVU404
	.loc 1 549 9 view .LVU405
	.loc 1 549 27 is_stmt 0 view .LVU406
	strb	r2, [r4, #88]
	.loc 1 507 8 view .LVU407
	movs	r0, #1
.L75:
.LVL82:
	.loc 1 559 5 is_stmt 1 view .LVU408
	.loc 1 563 3 view .LVU409
	.loc 1 564 1 is_stmt 0 view .LVU410
	pop	{r4, pc}
.LVL83:
.L73:
	.loc 1 519 7 is_stmt 1 view .LVU411
	.loc 1 519 36 is_stmt 0 view .LVU412
	subs	r3, r3, #1
	uxth	r3, r3
	strh	r3, [r0, #4]	@ movhi
	.loc 1 525 5 is_stmt 1 view .LVU413
	.loc 1 527 5 view .LVU414
	.loc 1 527 8 is_stmt 0 view .LVU415
	cmp	r3, #0
	beq	.L76
	.loc 1 507 8 view .LVU416
	movs	r0, #1
.LVL84:
	.loc 1 559 5 is_stmt 1 view .LVU417
	.loc 1 563 3 view .LVU418
	.loc 1 564 1 is_stmt 0 view .LVU419
	pop	{r4, pc}
.LVL85:
.L83:
	.loc 1 564 1 view .LVU420
	.align	2
.L82:
	.word	274877907
	.cfi_endproc
.LFE1460:
	.size	RUC_Exec, .-RUC_Exec
	.section	.text.RUC_IsAlignStageNow,"ax",%progbits
	.align	1
	.p2align 2,,3
	.global	RUC_IsAlignStageNow
	.syntax unified
	.thumb
	.thumb_func
	.fpu fpv4-sp-d16
	.type	RUC_IsAlignStageNow, %function
RUC_IsAlignStageNow:
.LVL86:
.LFB1461:
	.loc 1 573 1 is_stmt 1 view -0
	.cfi_startproc
	@ args = 0, pretend = 0, frame = 0
	@ frame_needed = 0, uses_anonymous_args = 0
	@ link register save eliminated.
	.loc 1 574 3 view .LVU422
	.loc 1 583 5 view .LVU423
	.loc 1 584 5 view .LVU424
.LBB39:
.LBI39:
	.loc 1 95 23 view .LVU425
.LBB40:
	.loc 1 97 3 view .LVU426
	.loc 1 97 3 is_stmt 0 view .LVU427
.LBE40:
.LBE39:
	.loc 1 585 5 is_stmt 1 view .LVU428
	.loc 1 592 5 view .LVU429
	.loc 1 596 3 view .LVU430
.LBB42:
.LBB41:
	.loc 1 97 38 is_stmt 0 view .LVU431
	ldrb	r3, [r0, #88]	@ zero_extendqisi2
.LVL87:
	.loc 1 97 38 view .LVU432
	add	r3, r3, r3, lsl #1
.LVL88:
	.loc 1 97 38 view .LVU433
	add	r0, r0, r3, lsl #2
.LVL89:
	.loc 1 97 38 view .LVU434
.LBE41:
.LBE42:
	.loc 1 585 8 view .LVU435
	ldrsh	r0, [r0, #14]
	.loc 1 597 1 view .LVU436
	clz	r0, r0
	lsrs	r0, r0, #5
	bx	lr
	.cfi_endproc
.LFE1461:
	.size	RUC_IsAlignStageNow, .-RUC_IsAlignStageNow
	.section	.text.RUC_FirstAccelerationStageReached,"ax",%progbits
	.align	1
	.p2align 2,,3
	.weak	RUC_FirstAccelerationStageReached
	.syntax unified
	.thumb
	.thumb_func
	.fpu fpv4-sp-d16
	.type	RUC_FirstAccelerationStageReached, %function
RUC_FirstAccelerationStageReached:
.LVL90:
.LFB1462:
	.loc 1 613 1 is_stmt 1 view -0
	.cfi_startproc
	@ args = 0, pretend = 0, frame = 0
	@ frame_needed = 0, uses_anonymous_args = 0
	@ link register save eliminated.
	.loc 1 614 3 view .LVU438
	.loc 1 623 5 view .LVU439
	.loc 1 630 5 view .LVU440
	.loc 1 634 3 view .LVU441
	.loc 1 623 8 is_stmt 0 view .LVU442
	ldrb	r2, [r0, #88]	@ zero_extendqisi2
	ldrb	r0, [r0, #73]	@ zero_extendqisi2
.LVL91:
	.loc 1 635 1 view .LVU443
	cmp	r2, r0
	ite	cc
	movcc	r0, #0
.LVL92:
	.loc 1 635 1 view .LVU444
	movcs	r0, #1
	bx	lr
	.cfi_endproc
.LFE1462:
	.size	RUC_FirstAccelerationStageReached, .-RUC_FirstAccelerationStageReached
	.section	.text.RUC_SetPhaseDurationms,"ax",%progbits
	.align	1
	.p2align 2,,3
	.weak	RUC_SetPhaseDurationms
	.syntax unified
	.thumb
	.thumb_func
	.fpu fpv4-sp-d16
	.type	RUC_SetPhaseDurationms, %function
RUC_SetPhaseDurationms:
.LVL93:
.LFB1463:
	.loc 1 646 1 is_stmt 1 view -0
	.cfi_startproc
	@ args = 0, pretend = 0, frame = 0
	@ frame_needed = 0, uses_anonymous_args = 0
	@ link register save eliminated.
	.loc 1 655 5 view .LVU446
	.loc 1 655 45 is_stmt 0 view .LVU447
	add	r1, r1, r1, lsl #1
.LVL94:
	.loc 1 655 45 view .LVU448
	add	r1, r0, r1, lsl #2
	strh	r2, [r1, #12]	@ movhi
	.loc 1 659 1 view .LVU449
	bx	lr
	.cfi_endproc
.LFE1463:
	.size	RUC_SetPhaseDurationms, .-RUC_SetPhaseDurationms
	.section	.text.RUC_SetPhaseFinalMecSpeedUnit,"ax",%progbits
	.align	1
	.p2align 2,,3
	.weak	RUC_SetPhaseFinalMecSpeedUnit
	.syntax unified
	.thumb
	.thumb_func
	.fpu fpv4-sp-d16
	.type	RUC_SetPhaseFinalMecSpeedUnit, %function
RUC_SetPhaseFinalMecSpeedUnit:
.LVL95:
.LFB1464:
	.loc 1 670 1 is_stmt 1 view -0
	.cfi_startproc
	@ args = 0, pretend = 0, frame = 0
	@ frame_needed = 0, uses_anonymous_args = 0
	@ link register save eliminated.
	.loc 1 679 5 view .LVU451
	.loc 1 679 52 is_stmt 0 view .LVU452
	add	r1, r1, r1, lsl #1
.LVL96:
	.loc 1 679 52 view .LVU453
	add	r1, r0, r1, lsl #2
	strh	r2, [r1, #14]	@ movhi
	.loc 1 683 1 view .LVU454
	bx	lr
	.cfi_endproc
.LFE1464:
	.size	RUC_SetPhaseFinalMecSpeedUnit, .-RUC_SetPhaseFinalMecSpeedUnit
	.section	.text.RUC_SetPhaseFinalTorque,"ax",%progbits
	.align	1
	.p2align 2,,3
	.weak	RUC_SetPhaseFinalTorque
	.syntax unified
	.thumb
	.thumb_func
	.fpu fpv4-sp-d16
	.type	RUC_SetPhaseFinalTorque, %function
RUC_SetPhaseFinalTorque:
.LVL97:
.LFB1465:
	.loc 1 693 1 is_stmt 1 view -0
	.cfi_startproc
	@ args = 0, pretend = 0, frame = 0
	@ frame_needed = 0, uses_anonymous_args = 0
	@ link register save eliminated.
	.loc 1 702 5 view .LVU456
	.loc 1 702 46 is_stmt 0 view .LVU457
	add	r1, r1, r1, lsl #1
.LVL98:
	.loc 1 702 46 view .LVU458
	add	r1, r0, r1, lsl #2
	strh	r2, [r1, #16]	@ movhi
	.loc 1 706 1 view .LVU459
	bx	lr
	.cfi_endproc
.LFE1465:
	.size	RUC_SetPhaseFinalTorque, .-RUC_SetPhaseFinalTorque
	.section	.text.RUC_GetPhaseDurationms,"ax",%progbits
	.align	1
	.p2align 2,,3
	.weak	RUC_GetPhaseDurationms
	.syntax unified
	.thumb
	.thumb_func
	.fpu fpv4-sp-d16
	.type	RUC_GetPhaseDurationms, %function
RUC_GetPhaseDurationms:
.LVL99:
.LFB1466:
	.loc 1 716 1 is_stmt 1 view -0
	.cfi_startproc
	@ args = 0, pretend = 0, frame = 0
	@ frame_needed = 0, uses_anonymous_args = 0
	@ link register save eliminated.
	.loc 1 720 3 view .LVU461
	.loc 1 720 11 is_stmt 0 view .LVU462
	add	r1, r1, r1, lsl #1
.LVL100:
	.loc 1 720 11 view .LVU463
	add	r1, r0, r1, lsl #2
	.loc 1 722 1 view .LVU464
	ldrh	r0, [r1, #12]
.LVL101:
	.loc 1 722 1 view .LVU465
	bx	lr
	.cfi_endproc
.LFE1466:
	.size	RUC_GetPhaseDurationms, .-RUC_GetPhaseDurationms
	.section	.text.RUC_GetPhaseFinalMecSpeedUnit,"ax",%progbits
	.align	1
	.p2align 2,,3
	.weak	RUC_GetPhaseFinalMecSpeedUnit
	.syntax unified
	.thumb
	.thumb_func
	.fpu fpv4-sp-d16
	.type	RUC_GetPhaseFinalMecSpeedUnit, %function
RUC_GetPhaseFinalMecSpeedUnit:
.LVL102:
.LFB1467:
	.loc 1 732 1 is_stmt 1 view -0
	.cfi_startproc
	@ args = 0, pretend = 0, frame = 0
	@ frame_needed = 0, uses_anonymous_args = 0
	@ link register save eliminated.
	.loc 1 736 3 view .LVU467
	.loc 1 736 11 is_stmt 0 view .LVU468
	add	r1, r1, r1, lsl #1
.LVL103:
	.loc 1 736 11 view .LVU469
	add	r1, r0, r1, lsl #2
	.loc 1 738 1 view .LVU470
	ldrsh	r0, [r1, #14]
.LVL104:
	.loc 1 738 1 view .LVU471
	bx	lr
	.cfi_endproc
.LFE1467:
	.size	RUC_GetPhaseFinalMecSpeedUnit, .-RUC_GetPhaseFinalMecSpeedUnit
	.section	.text.RUC_GetPhaseFinalTorque,"ax",%progbits
	.align	1
	.p2align 2,,3
	.weak	RUC_GetPhaseFinalTorque
	.syntax unified
	.thumb
	.thumb_func
	.fpu fpv4-sp-d16
	.type	RUC_GetPhaseFinalTorque, %function
RUC_GetPhaseFinalTorque:
.LVL105:
.LFB1468:
	.loc 1 748 1 is_stmt 1 view -0
	.cfi_startproc
	@ args = 0, pretend = 0, frame = 0
	@ frame_needed = 0, uses_anonymous_args = 0
	@ link register save eliminated.
	.loc 1 753 3 view .LVU473
	.loc 1 753 11 is_stmt 0 view .LVU474
	add	r1, r1, r1, lsl #1
.LVL106:
	.loc 1 753 11 view .LVU475
	add	r1, r0, r1, lsl #2
	.loc 1 755 1 view .LVU476
	ldrsh	r0, [r1, #16]
.LVL107:
	.loc 1 755 1 view .LVU477
	bx	lr
	.cfi_endproc
.LFE1468:
	.size	RUC_GetPhaseFinalTorque, .-RUC_GetPhaseFinalTorque
	.text
.Letext0:
	.file 3 "/usr/share/gcc-arm-none-eabi-10-2020-q4-major/arm-none-eabi/include/machine/_default_types.h"
	.file 4 "/usr/share/gcc-arm-none-eabi-10-2020-q4-major/arm-none-eabi/include/sys/_stdint.h"
	.file 5 "Drivers/CMSIS/Device/ST/STM32G4xx/Include/stm32g431xx.h"
	.file 6 "Drivers/STM32G4xx_HAL_Driver/Inc/stm32g4xx_ll_tim.h"
	.file 7 "Drivers/STM32G4xx_HAL_Driver/Inc/stm32g4xx_ll_usart.h"
	.file 8 "Drivers/STM32G4xx_HAL_Driver/Inc/stm32g4xx_ll_dma.h"
	.file 9 "Inc/mc_type.h"
	.file 10 "MCSDK_v6.3.2-Full/MotorControl/MCSDK/MCLib/Any/Inc/pid_regulator.h"
	.file 11 "MCSDK_v6.3.2-Full/MotorControl/MCSDK/MCLib/Any/Inc/speed_pos_fdbk.h"
	.file 12 "MCSDK_v6.3.2-Full/MotorControl/MCSDK/MCLib/Any/Inc/speed_torq_ctrl.h"
	.file 13 "MCSDK_v6.3.2-Full/MotorControl/MCSDK/MCLib/Any/Inc/sto_speed_pos_fdbk.h"
	.file 14 "Inc/pwm_curr_fdbk.h"
	.file 15 "MCSDK_v6.3.2-Full/MotorControl/MCSDK/MCLib/Any/Inc/revup_ctrl.h"