	.cpu cortex-m4
	.eabi_attribute 27, 1
	.eabi_attribute 28, 1
	.eabi_attribute 20, 1
	.eabi_attribute 21, 1
	.eabi_attribute 23, 3
	.eabi_attribute 24, 1
	.eabi_attribute 25, 1
	.eabi_attribute 26, 1
	.eabi_attribute 30, 2
	.eabi_attribute 34, 1
	.eabi_attribute 18, 4
	.file	"speed_torq_ctrl.c"
	.text
.Ltext0:
	.cfi_sections	.debug_frame
	.section	.text.STC_Init,"ax",%progbits
	.align	1
	.p2align 2,,3
	.weak	STC_Init
	.arch armv7e-m
	.syntax unified
	.thumb
	.thumb_func
	.fpu fpv4-sp-d16
	.type	STC_Init, %function
STC_Init:
.LVL0:
.LFB1445:
	.file 1 "MCSDK_v6.3.2-Full/MotorControl/MCSDK/MCLib/Any/Src/speed_torq_ctrl.c"
	.loc 1 66 1 view -0
	.cfi_startproc
	@ args = 0, pretend = 0, frame = 0
	@ frame_needed = 0, uses_anonymous_args = 0
	@ link register save eliminated.
	.loc 1 75 5 view .LVU1
	.loc 1 78 33 is_stmt 0 view .LVU2
	ldrsh	ip, [r0, #44]
	.loc 1 75 22 view .LVU3
	str	r1, [r0, #16]
	.loc 1 76 5 is_stmt 1 view .LVU4
	.loc 1 79 27 is_stmt 0 view .LVU5
	ldrsh	r1, [r0, #46]
.LVL1:
	.loc 1 76 18 view .LVU6
	str	r2, [r0, #20]
	.loc 1 77 5 is_stmt 1 view .LVU7
	.loc 1 78 5 view .LVU8
	.loc 1 66 1 is_stmt 0 view .LVU9
	push	{r4}
.LCFI0:
	.cfi_def_cfa_offset 4
	.cfi_offset 4, -4
	.loc 1 77 19 view .LVU10
	ldrb	r4, [r0, #42]	@ zero_extendqisi2
	strb	r4, [r0]
	.loc 1 80 26 view .LVU11
	movs	r3, #0
	.loc 1 78 75 view .LVU12
	lsl	r4, ip, #16
	.loc 1 79 63 view .LVU13
	lsls	r1, r1, #16
	.loc 1 79 24 view .LVU14
	strd	r4, r1, [r0, #4]
	.loc 1 80 5 is_stmt 1 view .LVU15
	.loc 1 80 26 is_stmt 0 view .LVU16
	strh	r3, [r0, #2]	@ movhi
	.loc 1 81 5 is_stmt 1 view .LVU17
	.loc 1 86 1 is_stmt 0 view .LVU18
	ldr	r4, [sp], #4
.LCFI1:
	.cfi_restore 4
	.cfi_def_cfa_offset 0
	.loc 1 81 32 view .LVU19
	str	r3, [r0, #12]
	.loc 1 82 5 is_stmt 1 view .LVU20
	.loc 1 82 27 is_stmt 0 view .LVU21
	str	r3, [r0, #24]
	.loc 1 86 1 view .LVU22
	bx	lr
	.cfi_endproc
.LFE1445:
	.size	STC_Init, .-STC_Init
	.section	.text.STC_SetSpeedSensor,"ax",%progbits
	.align	1
	.p2align 2,,3
	.weak	STC_SetSpeedSensor
	.syntax unified
	.thumb
	.thumb_func
	.fpu fpv4-sp-d16
	.type	STC_SetSpeedSensor, %function
STC_SetSpeedSensor:
.LVL2:
.LFB1446:
	.loc 1 97 1 is_stmt 1 view -0
	.cfi_startproc
	@ args = 0, pretend = 0, frame = 0
	@ frame_needed = 0, uses_anonymous_args = 0
	@ link register save eliminated.
	.loc 1 106 5 view .LVU24
	.loc 1 106 18 is_stmt 0 view .LVU25
	str	r1, [r0, #20]
	.loc 1 110 1 view .LVU26
	bx	lr
	.cfi_endproc
.LFE1446:
	.size	STC_SetSpeedSensor, .-STC_SetSpeedSensor
	.section	.text.STC_Clear,"ax",%progbits
	.align	1
	.p2align 2,,3
	.weak	STC_Clear
	.syntax unified
	.thumb
	.thumb_func
	.fpu fpv4-sp-d16
	.type	STC_Clear, %function
STC_Clear:
.LVL3:
.LFB1447:
	.loc 1 120 1 is_stmt 1 view -0
	.cfi_startproc
	@ args = 0, pretend = 0, frame = 0
	@ frame_needed = 0, uses_anonymous_args = 0
	@ link register save eliminated.
	.loc 1 129 5 view .LVU28
	.loc 1 129 8 is_stmt 0 view .LVU29
	ldrb	r3, [r0]	@ zero_extendqisi2
	cmp	r3, #3
	beq	.L7
	.loc 1 140 1 view .LVU30
	bx	lr
.L7:
	.loc 1 131 7 is_stmt 1 view .LVU31
	ldr	r0, [r0, #16]
.LVL4:
	.loc 1 131 7 is_stmt 0 view .LVU32
	movs	r1, #0
	b	PID_SetIntegralTerm
.LVL5:
	.cfi_endproc
.LFE1447:
	.size	STC_Clear, .-STC_Clear
	.section	.text.STC_GetMecSpeedRefUnit,"ax",%progbits
	.align	1
	.p2align 2,,3
	.weak	STC_GetMecSpeedRefUnit
	.syntax unified
	.thumb
	.thumb_func
	.fpu fpv4-sp-d16
	.type	STC_GetMecSpeedRefUnit, %function
STC_GetMecSpeedRefUnit:
.LVL6:
.LFB1448:
	.loc 1 153 1 is_stmt 1 view -0
	.cfi_startproc
	@ args = 0, pretend = 0, frame = 0
	@ frame_needed = 0, uses_anonymous_args = 0
	@ link register save eliminated.
	.loc 1 159 3 view .LVU34
	.loc 1 168 1 is_stmt 0 view .LVU35
	ldrsh	r0, [r0, #6]
.LVL7:
	.loc 1 168 1 view .LVU36
	bx	lr
	.cfi_endproc
.LFE1448:
	.size	STC_GetMecSpeedRefUnit, .-STC_GetMecSpeedRefUnit
	.section	.text.STC_SetControlMode,"ax",%progbits
	.align	1
	.p2align 2,,3
	.weak	STC_SetControlMode
	.syntax unified
	.thumb
	.thumb_func
	.fpu fpv4-sp-d16
	.type	STC_SetControlMode, %function
STC_SetControlMode:
.LVL8:
.LFB1450:
	.loc 1 223 1 is_stmt 1 view -0
	.cfi_startproc
	@ args = 0, pretend = 0, frame = 0
	@ frame_needed = 0, uses_anonymous_args = 0
	@ link register save eliminated.
	.loc 1 232 5 view .LVU38
	.loc 1 233 32 is_stmt 0 view .LVU39
	movs	r3, #0
	.loc 1 232 19 view .LVU40
	strb	r1, [r0]
	.loc 1 233 5 is_stmt 1 view .LVU41
	.loc 1 233 32 is_stmt 0 view .LVU42
	str	r3, [r0, #12]
	.loc 1 237 1 view .LVU43
	bx	lr
	.cfi_endproc
.LFE1450:
	.size	STC_SetControlMode, .-STC_SetControlMode
	.section	.text.STC_ExecRamp,"ax",%progbits
	.align	1
	.p2align 2,,3
	.weak	STC_ExecRamp
	.syntax unified
	.thumb
	.thumb_func
	.fpu fpv4-sp-d16
	.type	STC_ExecRamp, %function
STC_ExecRamp:
.LVL9:
.LFB1451:
	.loc 1 270 1 is_stmt 1 view -0
	.cfi_startproc
	@ args = 0, pretend = 0, frame = 0
	@ frame_needed = 0, uses_anonymous_args = 0
	@ link register save eliminated.
	.loc 1 271 3 view .LVU45
	.loc 1 280 5 view .LVU46
	.loc 1 281 5 view .LVU47
	.loc 1 282 5 view .LVU48
	.loc 1 285 5 view .LVU49
	.loc 1 270 1 is_stmt 0 view .LVU50
	push	{r4}
.LCFI2:
	.cfi_def_cfa_offset 4
	.cfi_offset 4, -4
	.loc 1 285 35 view .LVU51
	ldrb	r3, [r0]	@ zero_extendqisi2
	.loc 1 285 8 view .LVU52
	cmp	r3, #4
	beq	.L30
	.loc 1 311 7 is_stmt 1 view .LVU53
.LVL10:
	.loc 1 317 7 view .LVU54
	.loc 1 317 35 is_stmt 0 view .LVU55
	ldrh	ip, [r0, #30]
	.loc 1 317 10 view .LVU56
	cmp	r1, ip
	ble	.L31
.LVL11:
.L23:
	.loc 1 299 22 view .LVU57
	movs	r0, #0
.LVL12:
	.loc 1 376 3 is_stmt 1 view .LVU58
	.loc 1 377 1 is_stmt 0 view .LVU59
	ldr	r4, [sp], #4
.LCFI3:
	.cfi_remember_state
	.cfi_restore 4
	.cfi_def_cfa_offset 0
	bx	lr
.LVL13:
.L31:
.LCFI4:
	.cfi_restore_state
	.loc 1 321 12 is_stmt 1 view .LVU60
	.loc 1 321 15 is_stmt 0 view .LVU61
	ldrsh	r4, [r0, #36]
	cmp	r4, r1
	bgt	.L23
	.loc 1 325 12 is_stmt 1 view .LVU62
	.loc 1 325 40 is_stmt 0 view .LVU63
	ldrh	r4, [r0, #32]
	.loc 1 325 15 view .LVU64
	cmp	r1, r4
	bge	.L14
	.loc 1 327 9 is_stmt 1 view .LVU65
	.loc 1 327 12 is_stmt 0 view .LVU66
	ldrsh	r4, [r0, #34]
	cmp	r4, r1
	blt	.L23
.L14:
	.loc 1 311 44 view .LVU67
	ldr	r4, [r0, #4]
.LVL14:
	.loc 1 342 7 is_stmt 1 view .LVU68
	.loc 1 342 10 is_stmt 0 view .LVU69
	cbnz	r2, .L15
	.loc 1 344 9 is_stmt 1 view .LVU70
	.loc 1 344 12 is_stmt 0 view .LVU71
	cmp	r3, #3
	bne	.L16
	.loc 1 346 11 is_stmt 1 view .LVU72
	.loc 1 346 62 is_stmt 0 view .LVU73
	lsls	r1, r1, #16
.LVL15:
	.loc 1 346 36 view .LVU74
	str	r1, [r0, #4]
	b	.L17
.LVL16:
.L30:
	.loc 1 287 7 is_stmt 1 view .LVU75
.LBB4:
.LBI4:
	.loc 1 183 23 view .LVU76
.LBB5:
	.loc 1 190 3 view .LVU77
	.loc 1 190 3 is_stmt 0 view .LVU78
.LBE5:
.LBE4:
	.loc 1 289 7 is_stmt 1 view .LVU79
	.loc 1 289 35 is_stmt 0 view .LVU80
	ldrh	r3, [r0, #38]
	.loc 1 289 10 view .LVU81
	cmp	r1, r3
	bgt	.L23
	.loc 1 297 10 view .LVU82
	ldrsh	r4, [r0, #40]
.LBB8:
.LBB6:
	.loc 1 190 28 view .LVU83
	ldr	r3, [r0, #8]
	.loc 1 190 28 view .LVU84
.LBE6:
.LBE8:
	.loc 1 296 7 is_stmt 1 view .LVU85
	.loc 1 297 7 view .LVU86
	.loc 1 297 10 is_stmt 0 view .LVU87
	cmp	r4, r1
	bgt	.L23
.LVL17:
	.loc 1 342 7 is_stmt 1 view .LVU88
	.loc 1 342 10 is_stmt 0 view .LVU89
	cbnz	r2, .L32
.L16:
	.loc 1 350 11 is_stmt 1 view .LVU90
	.loc 1 350 56 is_stmt 0 view .LVU91
	lsls	r1, r1, #16
.LVL18:
	.loc 1 350 30 view .LVU92
	str	r1, [r0, #8]
.L17:
	.loc 1 352 9 is_stmt 1 view .LVU93
	.loc 1 352 36 is_stmt 0 view .LVU94
	movs	r3, #0
	str	r3, [r0, #12]
	.loc 1 353 9 is_stmt 1 view .LVU95
	.loc 1 353 31 is_stmt 0 view .LVU96
	str	r3, [r0, #24]
	.loc 1 377 1 view .LVU97
	ldr	r4, [sp], #4
.LCFI5:
	.cfi_remember_state
	.cfi_restore 4
	.cfi_def_cfa_offset 0
	movs	r0, #1
.LVL19:
	.loc 1 377 1 view .LVU98
	bx	lr
.LVL20:
.L15:
.LCFI6:
	.cfi_restore_state
	.loc 1 311 25 view .LVU99
	asrs	r3, r4, #16
.L18:
	.loc 1 358 9 is_stmt 1 view .LVU100
	.loc 1 361 43 is_stmt 0 view .LVU101
	ldrh	r4, [r0, #28]
	.loc 1 358 30 view .LVU102
	strh	r1, [r0, #2]	@ movhi
	.loc 1 361 14 view .LVU103
	mul	r2, r4, r2
.LVL21:
	.loc 1 362 14 view .LVU104
	ldr	r4, .L33
	umull	r4, r2, r4, r2
	lsrs	r2, r2, #6
	.loc 1 364 35 view .LVU105
	adds	r2, r2, #1
	.loc 1 368 42 view .LVU106
	subs	r3, r1, r3
	.loc 1 368 15 view .LVU107
	lsls	r3, r3, #16
	.loc 1 361 9 is_stmt 1 view .LVU108
.LVL22:
	.loc 1 362 9 view .LVU109
	.loc 1 363 9 view .LVU110
	.loc 1 364 9 view .LVU111
	.loc 1 364 35 is_stmt 0 view .LVU112
	str	r2, [r0, #12]
	.loc 1 369 15 view .LVU113
	sdiv	r3, r3, r2
	.loc 1 368 9 is_stmt 1 view .LVU114
.LVL23:
	.loc 1 369 9 view .LVU115
	.loc 1 370 9 view .LVU116
	.loc 1 377 1 is_stmt 0 view .LVU117
	ldr	r4, [sp], #4
.LCFI7:
	.cfi_remember_state
	.cfi_restore 4
	.cfi_def_cfa_offset 0
	.loc 1 370 31 view .LVU118
	str	r3, [r0, #24]
	movs	r0, #1
.LVL24:
	.loc 1 377 1 view .LVU119
	bx	lr
.LVL25:
.L32:
.LCFI8:
	.cfi_restore_state
.LBB9:
.LBB7:
	.loc 1 190 11 view .LVU120
	asrs	r3, r3, #16
	b	.L18
.L34:
	.align	2
.L33:
	.word	274877907
.LBE7:
.LBE9:
	.cfi_endproc
.LFE1451:
	.size	STC_ExecRamp, .-STC_ExecRamp
	.section	.text.STC_CalcTorqueReference,"ax",%progbits
	.align	1
	.p2align 2,,3
	.weak	STC_CalcTorqueReference
	.syntax unified
	.thumb
	.thumb_func
	.fpu fpv4-sp-d16
	.type	STC_CalcTorqueReference, %function
STC_CalcTorqueReference:
.LVL26:
.LFB1452:
	.loc 1 393 1 is_stmt 1 view -0
	.cfi_startproc
	@ args = 0, pretend = 0, frame = 0
	@ frame_needed = 0, uses_anonymous_args = 0
	.loc 1 394 3 view .LVU122
	.loc 1 403 5 view .LVU123
	.loc 1 404 5 view .LVU124
	.loc 1 405 5 view .LVU125
	.loc 1 406 5 view .LVU126
	.loc 1 408 5 view .LVU127
	.loc 1 393 1 is_stmt 0 view .LVU128
	push	{r3, r4, r5, lr}
.LCFI9:
	.cfi_def_cfa_offset 16
	.cfi_offset 3, -16
	.cfi_offset 4, -12
	.cfi_offset 5, -8
	.cfi_offset 14, -4
	.loc 1 410 25 view .LVU129
	ldrd	r5, r1, [r0, #4]
	.loc 1 408 35 view .LVU130
	ldrb	r2, [r0]	@ zero_extendqisi2
	.loc 1 419 16 view .LVU131
	ldr	r3, [r0, #12]
	.loc 1 410 25 view .LVU132
	cmp	r2, #4
	it	eq
	moveq	r5, r1
.LVL27:
	.loc 1 419 5 is_stmt 1 view .LVU133
	.loc 1 419 8 is_stmt 0 view .LVU134
	cmp	r3, #1
	.loc 1 393 1 view .LVU135
	mov	r4, r0
	.loc 1 419 8 view .LVU136
	bls	.L37
	.loc 1 422 7 is_stmt 1 view .LVU137
	.loc 1 422 25 is_stmt 0 view .LVU138
	ldr	r1, [r0, #24]
	.loc 1 425 33 view .LVU139
	subs	r3, r3, #1
	.loc 1 422 25 view .LVU140
	add	r5, r5, r1
.LVL28:
	.loc 1 425 7 is_stmt 1 view .LVU141
	.loc 1 425 33 is_stmt 0 view .LVU142
	str	r3, [r0, #12]
.L38:
	.loc 1 436 5 is_stmt 1 view .LVU143
	.loc 1 438 5 view .LVU144
	.loc 1 438 8 is_stmt 0 view .LVU145
	cmp	r2, #3
	beq	.L42
.L39:
	.loc 1 458 7 is_stmt 1 view .LVU146
	.loc 1 458 26 is_stmt 0 view .LVU147
	str	r5, [r4, #8]
	.loc 1 461 7 is_stmt 1 view .LVU148
	.loc 1 461 24 is_stmt 0 view .LVU149
	asrs	r0, r5, #16
.LVL29:
	.loc 1 469 3 is_stmt 1 view .LVU150
	.loc 1 470 1 is_stmt 0 view .LVU151
	pop	{r3, r4, r5, pc}
.LVL30:
.L37:
	.loc 1 427 10 is_stmt 1 view .LVU152
	.loc 1 427 13 is_stmt 0 view .LVU153
	bne	.L38
	.loc 1 430 7 is_stmt 1 view .LVU154
	.loc 1 430 28 is_stmt 0 view .LVU155
	ldrsh	r5, [r0, #2]
.LVL31:
	.loc 1 431 34 view .LVU156
	movs	r3, #0
	.loc 1 438 8 view .LVU157
	cmp	r2, #3
	.loc 1 430 25 view .LVU158
	lsl	r5, r5, #16
.LVL32:
	.loc 1 431 7 is_stmt 1 view .LVU159
	.loc 1 431 34 is_stmt 0 view .LVU160
	str	r3, [r0, #12]
	.loc 1 436 5 is_stmt 1 view .LVU161
	.loc 1 438 5 view .LVU162
	.loc 1 438 8 is_stmt 0 view .LVU163
	bne	.L39
.L42:
	.loc 1 445 7 is_stmt 1 view .LVU164
.LVL33:
	.loc 1 449 7 view .LVU165
	.loc 1 449 24 is_stmt 0 view .LVU166
	ldr	r0, [r4, #20]
.LVL34:
	.loc 1 449 24 view .LVU167
	bl	SPD_GetAvrgMecSpeedUnit
.LVL35:
	.loc 1 450 7 is_stmt 1 view .LVU168
	.loc 1 451 7 view .LVU169
	.loc 1 450 29 is_stmt 0 view .LVU170
	rsb	r1, r0, r5, asr #16
	.loc 1 451 26 view .LVU171
	sxth	r1, r1
	ldr	r0, [r4, #16]
.LVL36:
	.loc 1 451 26 view .LVU172
	bl	PI_Controller
.LVL37:
	.loc 1 453 7 is_stmt 1 view .LVU173
	.loc 1 454 56 is_stmt 0 view .LVU174
	lsls	r3, r0, #16
	.loc 1 454 26 view .LVU175
	strd	r5, r3, [r4, #4]
	.loc 1 469 3 is_stmt 1 view .LVU176
	.loc 1 470 1 is_stmt 0 view .LVU177
	pop	{r3, r4, r5, pc}
	.loc 1 470 1 view .LVU178
	.cfi_endproc
.LFE1452:
	.size	STC_CalcTorqueReference, .-STC_CalcTorqueReference
	.section	.text.STC_GetMecSpeedRefUnitDefault,"ax",%progbits
	.align	1
	.p2align 2,,3
	.weak	STC_GetMecSpeedRefUnitDefault
	.syntax unified
	.thumb
	.thumb_func
	.fpu fpv4-sp-d16
	.type	STC_GetMecSpeedRefUnitDefault, %function
STC_GetMecSpeedRefUnitDefault:
.LVL38:
.LFB1453:
	.loc 1 483 1 is_stmt 1 view -0
	.cfi_startproc
	@ args = 0, pretend = 0, frame = 0
	@ frame_needed = 0, uses_anonymous_args = 0
	@ link register save eliminated.
	.loc 1 487 3 view .LVU180
	.loc 1 489 1 is_stmt 0 view .LVU181
	ldrsh	r0, [r0, #44]
.LVL39:
	.loc 1 489 1 view .LVU182
	bx	lr
	.cfi_endproc
.LFE1453:
	.size	STC_GetMecSpeedRefUnitDefault, .-STC_GetMecSpeedRefUnitDefault
	.section	.text.STC_GetMaxAppPositiveMecSpeedUnit,"ax",%progbits
	.align	1
	.p2align 2,,3
	.weak	STC_GetMaxAppPositiveMecSpeedUnit
	.syntax unified
	.thumb
	.thumb_func
	.fpu fpv4-sp-d16
	.type	STC_GetMaxAppPositiveMecSpeedUnit, %function
STC_GetMaxAppPositiveMecSpeedUnit:
.LVL40:
.LFB1454:
	.loc 1 500 1 is_stmt 1 view -0
	.cfi_startproc
	@ args = 0, pretend = 0, frame = 0
	@ frame_needed = 0, uses_anonymous_args = 0
	@ link register save eliminated.
	.loc 1 504 3 view .LVU184
	.loc 1 506 1 is_stmt 0 view .LVU185
	ldrh	r0, [r0, #30]
.LVL41:
	.loc 1 506 1 view .LVU186
	bx	lr
	.cfi_endproc
.LFE1454:
	.size	STC_GetMaxAppPositiveMecSpeedUnit, .-STC_GetMaxAppPositiveMecSpeedUnit
	.section	.text.STC_GetMinAppNegativeMecSpeedUnit,"ax",%progbits
	.align	1
	.p2align 2,,3
	.weak	STC_GetMinAppNegativeMecSpeedUnit
	.syntax unified
	.thumb
	.thumb_func
	.fpu fpv4-sp-d16
	.type	STC_GetMinAppNegativeMecSpeedUnit, %function
STC_GetMinAppNegativeMecSpeedUnit:
.LVL42:
.LFB1455:
	.loc 1 517 1 is_stmt 1 view -0
	.cfi_startproc
	@ args = 0, pretend = 0, frame = 0
	@ frame_needed = 0, uses_anonymous_args = 0
	@ link register save eliminated.
	.loc 1 521 3 view .LVU188
	.loc 1 523 1 is_stmt 0 view .LVU189
	ldrsh	r0, [r0, #36]
.LVL43:
	.loc 1 523 1 view .LVU190
	bx	lr
	.cfi_endproc
.LFE1455:
	.size	STC_GetMinAppNegativeMecSpeedUnit, .-STC_GetMinAppNegativeMecSpeedUnit
	.section	.text.STC_StopSpeedRamp,"ax",%progbits
	.align	1
	.p2align 2,,3
	.weak	STC_StopSpeedRamp
	.syntax unified
	.thumb
	.thumb_func
	.fpu fpv4-sp-d16
	.type	STC_StopSpeedRamp, %function
STC_StopSpeedRamp:
.LVL44:
.LFB1456:
	.loc 1 533 1 is_stmt 1 view -0
	.cfi_startproc
	@ args = 0, pretend = 0, frame = 0
	@ frame_needed = 0, uses_anonymous_args = 0
	@ link register save eliminated.
	.loc 1 534 3 view .LVU192
	.loc 1 543 5 view .LVU193
	.loc 1 543 8 is_stmt 0 view .LVU194
	ldrb	r3, [r0]	@ zero_extendqisi2
	cmp	r3, #3
	.loc 1 545 7 is_stmt 1 view .LVU195
	.loc 1 545 34 is_stmt 0 view .LVU196
	ittte	eq
	moveq	r3, #0
	streq	r3, [r0, #12]
	.loc 1 546 7 is_stmt 1 view .LVU197
.LVL45:
	.loc 1 546 14 is_stmt 0 view .LVU198
	moveq	r0, #1
.LVL46:
	.loc 1 534 8 view .LVU199
	movne	r0, #0
.LVL47:
	.loc 1 551 3 is_stmt 1 view .LVU200
	.loc 1 552 1 is_stmt 0 view .LVU201
	bx	lr
	.cfi_endproc
.LFE1456:
	.size	STC_StopSpeedRamp, .-STC_StopSpeedRamp
	.section	.text.STC_GetDefaultIqdref,"ax",%progbits
	.align	1
	.p2align 2,,3
	.weak	STC_GetDefaultIqdref
	.syntax unified
	.thumb
	.thumb_func
	.fpu fpv4-sp-d16
	.type	STC_GetDefaultIqdref, %function
STC_GetDefaultIqdref:
.LVL48:
.LFB1457:
	.loc 1 562 1 is_stmt 1 view -0
	.cfi_startproc
	@ args = 0, pretend = 0, frame = 8
	@ frame_needed = 0, uses_anonymous_args = 0
	@ link register save eliminated.
	.loc 1 563 3 view .LVU203
	.loc 1 573 5 view .LVU204
	.loc 1 574 5 view .LVU205
	.loc 1 578 3 view .LVU206
	.loc 1 573 30 is_stmt 0 view .LVU207
	ldr	r3, [r0, #46]	@ unaligned
	.loc 1 578 10 view .LVU208
	movs	r2, #0
	uxth	r1, r3
	bfi	r2, r1, #0, #16
	lsrs	r3, r3, #16
	bfi	r2, r3, #16, #16
	.loc 1 562 1 view .LVU209
	sub	sp, sp, #8
.LCFI10:
	.cfi_def_cfa_offset 8
	.loc 1 579 1 view .LVU210
	mov	r0, r2
.LVL49:
	.loc 1 579 1 view .LVU211
	add	sp, sp, #8
.LCFI11:
	.cfi_def_cfa_offset 0
	@ sp needed
	bx	lr
	.cfi_endproc
.LFE1457:
	.size	STC_GetDefaultIqdref, .-STC_GetDefaultIqdref
	.section	.text.STC_ForceSpeedReferenceToCurrentSpeed,"ax",%progbits
	.align	1
	.p2align 2,,3
	.weak	STC_ForceSpeedReferenceToCurrentSpeed
	.syntax unified
	.thumb
	.thumb_func
	.fpu fpv4-sp-d16
	.type	STC_ForceSpeedReferenceToCurrentSpeed, %function
STC_ForceSpeedReferenceToCurrentSpeed:
.LVL50:
.LFB1458:
	.loc 1 591 1 is_stmt 1 view -0
	.cfi_startproc
	@ args = 0, pretend = 0, frame = 0
	@ frame_needed = 0, uses_anonymous_args = 0
	.loc 1 600 5 view .LVU213
	.loc 1 591 1 is_stmt 0 view .LVU214
	push	{r4, lr}
.LCFI12:
	.cfi_def_cfa_offset 8
	.cfi_offset 4, -8
	.cfi_offset 14, -4
	.loc 1 591 1 view .LVU215
	mov	r4, r0
	.loc 1 600 42 view .LVU216
	ldr	r0, [r0, #20]
.LVL51:
	.loc 1 600 42 view .LVU217
	bl	SPD_GetAvrgMecSpeedUnit
.LVL52:
	.loc 1 600 81 view .LVU218
	lsls	r0, r0, #16
	.loc 1 600 30 view .LVU219
	str	r0, [r4, #4]
	.loc 1 604 1 view .LVU220
	pop	{r4, pc}
	.loc 1 604 1 view .LVU221
	.cfi_endproc
.LFE1458:
	.size	STC_ForceSpeedReferenceToCurrentSpeed, .-STC_ForceSpeedReferenceToCurrentSpeed
	.text
.Letext0:
	.file 2 "/usr/share/gcc-arm-none-eabi-10-2020-q4-major/arm-none-eabi/include/machine/_default_types.h"
	.file 3 "/usr/share/gcc-arm-none-eabi-10-2020-q4-major/arm-none-eabi/include/sys/_stdint.h"
	.file 4 "Drivers/STM32G4xx_HAL_Driver/Inc/stm32g4xx_ll_tim.h"
	.file 5 "Drivers/STM32G4xx_HAL_Driver/Inc/stm32g4xx_ll_usart.h"
	.file 6 "Drivers/STM32G4xx_HAL_Driver/Inc/stm32g4xx_ll_dma.h"
	.file 7 "Inc/mc_type.h"
	.file 8 "MCSDK_v6.3.2-Full/MotorControl/MCSDK/MCLib/Any/Inc/pid_regulator.h"
	.file 9 "MCSDK_v6.3.2-Full/MotorControl/MCSDK/MCLib/Any/Inc/speed_pos_fdbk.h"
	.file 10 "MCSDK_v6.3.2-Full/MotorControl/MCSDK/MCLib/Any/Inc/speed_torq_ctrl.h"