	.cpu cortex-m4
	.eabi_attribute 27, 1
	.eabi_attribute 28, 1
	.eabi_attribute 20, 1
	.eabi_attribute 21, 1
	.eabi_attribute 23, 3
	.eabi_attribute 24, 1
	.eabi_attribute 25, 1
	.eabi_attribute 26, 1
	.eabi_attribute 30, 2
	.eabi_attribute 34, 1
	.eabi_attribute 18, 4
	.file	"stm32g4xx_hal_rcc_ex.c"
	.text
.Ltext0:
	.cfi_sections	.debug_frame
	.section	.text.HAL_RCCEx_PeriphCLKConfig,"ax",%progbits
	.align	1
	.p2align 2,,3
	.global	HAL_RCCEx_PeriphCLKConfig
	.arch armv7e-m
	.syntax unified
	.thumb
	.thumb_func
	.fpu fpv4-sp-d16
	.type	HAL_RCCEx_PeriphCLKConfig, %function
HAL_RCCEx_PeriphCLKConfig:
.LVL0:
.LFB132:
	.file 1 "Drivers/STM32G4xx_HAL_Driver/Src/stm32g4xx_hal_rcc_ex.c"
	.loc 1 124 1 view -0
	.cfi_startproc
	@ args = 0, pretend = 0, frame = 8
	@ frame_needed = 0, uses_anonymous_args = 0
	.loc 1 125 3 view .LVU1
	.loc 1 126 3 view .LVU2
	.loc 1 127 3 view .LVU3
	.loc 1 128 3 view .LVU4
	.loc 1 131 3 view .LVU5
	.loc 1 134 3 view .LVU6
	.loc 1 124 1 is_stmt 0 view .LVU7
	push	{r4, r5, r6, r7, r8, lr}
.LCFI0:
	.cfi_def_cfa_offset 24
	.cfi_offset 4, -24
	.cfi_offset 5, -20
	.cfi_offset 6, -16
	.cfi_offset 7, -12
	.cfi_offset 8, -8
	.cfi_offset 14, -4
	.loc 1 134 20 view .LVU8
	ldr	r3, [r0]
	.loc 1 124 1 view .LVU9
	mov	r4, r0
	.loc 1 134 5 view .LVU10
	ands	r0, r3, #524288
.LVL1:
	.loc 1 124 1 view .LVU11
	sub	sp, sp, #8
.LCFI1:
	.cfi_def_cfa_offset 32
	.loc 1 134 5 view .LVU12
	beq	.L2
.LBB2:
	.loc 1 136 5 is_stmt 1 view .LVU13
.LVL2:
	.loc 1 139 5 view .LVU14
	.loc 1 142 5 view .LVU15
	.loc 1 142 8 is_stmt 0 view .LVU16
	ldr	r3, .L85
	ldr	r2, [r3, #88]
	.loc 1 142 7 view .LVU17
	lsls	r5, r2, #3
	bpl	.L78
	.loc 1 136 22 view .LVU18
	movs	r7, #0
.LVL3:
.L3:
	.loc 1 149 5 is_stmt 1 view .LVU19
	ldr	r5, .L85+4
	ldr	r3, [r5]
	orr	r3, r3, #256
	str	r3, [r5]
	.loc 1 152 5 view .LVU20
	.loc 1 152 17 is_stmt 0 view .LVU21
	bl	HAL_GetTick
.LVL4:
	mov	r6, r0
.LVL5:
	.loc 1 154 5 is_stmt 1 view .LVU22
	.loc 1 154 10 is_stmt 0 view .LVU23
	b	.L4
.LVL6:
.L6:
	.loc 1 156 11 view .LVU24
	bl	HAL_GetTick
.LVL7:
	.loc 1 156 25 view .LVU25
	subs	r3, r0, r6
	.loc 1 156 9 view .LVU26
	cmp	r3, #2
	bhi	.L10
.L4:
	.loc 1 156 7 is_stmt 1 view .LVU27
	.loc 1 154 10 view .LVU28
	.loc 1 154 15 is_stmt 0 view .LVU29
	ldr	r3, [r5]
	.loc 1 154 10 view .LVU30
	lsls	r0, r3, #23
	bpl	.L6
	.loc 1 163 5 is_stmt 1 view .LVU31
	.loc 1 166 7 view .LVU32
	.loc 1 166 21 is_stmt 0 view .LVU33
	ldr	r5, .L85
	ldr	r3, [r5, #144]
.LVL8:
	.loc 1 168 7 is_stmt 1 view .LVU34
	.loc 1 168 9 is_stmt 0 view .LVU35
	ands	r3, r3, #768
.LVL9:
	.loc 1 168 9 view .LVU36
	beq	.L75
	.loc 1 168 81 discriminator 1 view .LVU37
	ldr	r2, [r4, #64]
	.loc 1 168 49 discriminator 1 view .LVU38
	cmp	r2, r3
	beq	.L8
	.loc 1 171 9 is_stmt 1 view .LVU39
	.loc 1 171 23 is_stmt 0 view .LVU40
	ldr	r1, [r5, #144]
	.loc 1 173 9 view .LVU41
	ldr	r3, [r5, #144]
.LVL10:
	.loc 1 173 9 view .LVU42
	orr	r3, r3, #65536
	str	r3, [r5, #144]
	.loc 1 174 9 view .LVU43
	ldr	r3, [r5, #144]
	bic	r3, r3, #65536
	str	r3, [r5, #144]
	.loc 1 171 21 view .LVU44
	bic	r3, r1, #768
.LVL11:
	.loc 1 173 9 is_stmt 1 view .LVU45
	.loc 1 174 9 view .LVU46
	.loc 1 176 9 view .LVU47
	.loc 1 180 10 is_stmt 0 view .LVU48
	lsls	r1, r1, #31
	.loc 1 176 19 view .LVU49
	str	r3, [r5, #144]
	.loc 1 180 7 is_stmt 1 view .LVU50
	.loc 1 180 10 is_stmt 0 view .LVU51
	bpl	.L43
	.loc 1 183 9 is_stmt 1 view .LVU52
	.loc 1 183 21 is_stmt 0 view .LVU53
	bl	HAL_GetTick
.LVL12:
	.loc 1 188 13 view .LVU54
	movw	r8, #5000
	.loc 1 183 21 view .LVU55
	mov	r6, r0
.LVL13:
	.loc 1 186 9 is_stmt 1 view .LVU56
	.loc 1 186 14 is_stmt 0 view .LVU57
	b	.L9
.LVL14:
.L11:
	.loc 1 188 15 view .LVU58
	bl	HAL_GetTick
.LVL15:
	.loc 1 188 29 view .LVU59
	subs	r0, r0, r6
	.loc 1 188 13 view .LVU60
	cmp	r0, r8
	bhi	.L10
.L9:
	.loc 1 188 11 is_stmt 1 view .LVU61
	.loc 1 186 14 view .LVU62
	.loc 1 186 15 is_stmt 0 view .LVU63
	ldr	r3, [r5, #144]
	.loc 1 186 14 view .LVU64
	lsls	r3, r3, #30
	bpl	.L11
.L75:
	.loc 1 199 9 view .LVU65
	ldr	r3, [r4, #64]
.L8:
.LVL16:
	.loc 1 199 9 is_stmt 1 view .LVU66
	ldr	r1, .L85
	ldr	r2, [r1, #144]
	bic	r2, r2, #768
	orrs	r3, r3, r2
	str	r3, [r1, #144]
.LBE2:
	.loc 1 128 21 is_stmt 0 view .LVU67
	movs	r0, #0
.L5:
.LVL17:
.LBB4:
	.loc 1 214 5 is_stmt 1 view .LVU68
	.loc 1 214 7 is_stmt 0 view .LVU69
	cbz	r7, .L76
	.loc 1 216 7 is_stmt 1 view .LVU70
	ldr	r2, .L85
	ldr	r3, [r2, #88]
	bic	r3, r3, #268435456
	str	r3, [r2, #88]
.L76:
.LBE4:
	.loc 1 221 21 is_stmt 0 view .LVU71
	ldr	r3, [r4]
.LVL18:
.L2:
	.loc 1 221 3 is_stmt 1 view .LVU72
	.loc 1 221 5 is_stmt 0 view .LVU73
	lsls	r6, r3, #31
	bpl	.L13
	.loc 1 224 5 is_stmt 1 view .LVU74
	.loc 1 227 5 view .LVU75
	ldr	r1, .L85
	ldr	r5, [r4, #4]
	ldr	r2, [r1, #136]
	bic	r2, r2, #3
	orrs	r2, r2, r5
	str	r2, [r1, #136]
.L13:
	.loc 1 231 3 view .LVU76
	.loc 1 231 5 is_stmt 0 view .LVU77
	lsls	r5, r3, #30
	bpl	.L14
	.loc 1 234 5 is_stmt 1 view .LVU78
	.loc 1 237 5 view .LVU79
	ldr	r1, .L85
	ldr	r5, [r4, #8]
	ldr	r2, [r1, #136]
	bic	r2, r2, #12
	orrs	r2, r2, r5
	str	r2, [r1, #136]
.L14:
	.loc 1 241 3 view .LVU80
	.loc 1 241 5 is_stmt 0 view .LVU81
	lsls	r1, r3, #29
	bpl	.L15
	.loc 1 244 5 is_stmt 1 view .LVU82
	.loc 1 247 5 view .LVU83
	ldr	r1, .L85
	ldr	r5, [r4, #12]
	ldr	r2, [r1, #136]
	bic	r2, r2, #48
	orrs	r2, r2, r5
	str	r2, [r1, #136]
.L15:
	.loc 1 252 3 view .LVU84
	.loc 1 252 5 is_stmt 0 view .LVU85
	lsls	r2, r3, #28
	bpl	.L16
	.loc 1 255 5 is_stmt 1 view .LVU86
	.loc 1 258 5 view .LVU87
	ldr	r1, .L85
	ldr	r5, [r4, #16]
	ldr	r2, [r1, #136]
	bic	r2, r2, #192
	orrs	r2, r2, r5
	str	r2, [r1, #136]
.L16:
	.loc 1 277 3 view .LVU88
	.loc 1 277 5 is_stmt 0 view .LVU89
	lsls	r7, r3, #26
	bpl	.L17
	.loc 1 280 5 is_stmt 1 view .LVU90
	.loc 1 283 5 view .LVU91
	ldr	r1, .L85
	ldr	r5, [r4, #20]
	ldr	r2, [r1, #136]
	bic	r2, r2, #3072
	orrs	r2, r2, r5
	str	r2, [r1, #136]
.L17:
	.loc 1 287 3 view .LVU92
	.loc 1 287 5 is_stmt 0 view .LVU93
	lsls	r6, r3, #25
	bpl	.L18
	.loc 1 290 5 is_stmt 1 view .LVU94
	.loc 1 293 5 view .LVU95
	ldr	r1, .L85
	ldr	r5, [r4, #24]
	ldr	r2, [r1, #136]
	bic	r2, r2, #12288
	orrs	r2, r2, r5
	str	r2, [r1, #136]
.L18:
	.loc 1 297 3 view .LVU96
	.loc 1 297 5 is_stmt 0 view .LVU97
	lsls	r5, r3, #24
	bpl	.L19
	.loc 1 300 5 is_stmt 1 view .LVU98
	.loc 1 303 5 view .LVU99
	ldr	r1, .L85
	ldr	r5, [r4, #28]
	ldr	r2, [r1, #136]
	bic	r2, r2, #49152
	orrs	r2, r2, r5
	str	r2, [r1, #136]
.L19:
	.loc 1 307 3 view .LVU100
	.loc 1 307 5 is_stmt 0 view .LVU101
	lsls	r1, r3, #23
	bpl	.L20
	.loc 1 310 5 is_stmt 1 view .LVU102
	.loc 1 313 5 view .LVU103
	ldr	r1, .L85
	ldr	r5, [r4, #32]
	ldr	r2, [r1, #136]
	bic	r2, r2, #196608
	orrs	r2, r2, r5
	str	r2, [r1, #136]
.L20:
	.loc 1 331 3 view .LVU104
	.loc 1 331 5 is_stmt 0 view .LVU105
	lsls	r2, r3, #22
	bpl	.L21
	.loc 1 334 5 is_stmt 1 view .LVU106
	.loc 1 337 5 view .LVU107
	ldr	r1, .L85
	ldr	r5, [r4, #36]
	ldr	r2, [r1, #136]
	bic	r2, r2, #786432
	orrs	r2, r2, r5
	str	r2, [r1, #136]
.L21:
	.loc 1 341 3 view .LVU108
	.loc 1 341 5 is_stmt 0 view .LVU109
	lsls	r7, r3, #21
	bpl	.L23
	.loc 1 344 5 is_stmt 1 view .LVU110
	.loc 1 347 5 view .LVU111
	ldr	r1, .L85
	ldr	r5, [r4, #40]
	ldr	r2, [r1, #136]
	bic	r2, r2, #3145728
	orrs	r2, r2, r5
	.loc 1 349 7 is_stmt 0 view .LVU112
	cmp	r5, #1048576
	.loc 1 347 5 view .LVU113
	str	r2, [r1, #136]
	.loc 1 349 5 is_stmt 1 view .LVU114
	.loc 1 349 7 is_stmt 0 view .LVU115
	beq	.L79
.L23:
	.loc 1 357 3 is_stmt 1 view .LVU116
	.loc 1 357 5 is_stmt 0 view .LVU117
	lsls	r6, r3, #20
	bpl	.L26
	.loc 1 360 5 is_stmt 1 view .LVU118
	.loc 1 363 5 view .LVU119
	ldr	r1, .L85
	ldr	r5, [r4, #44]
	ldr	r2, [r1, #136]
	bic	r2, r2, #12582912
	orrs	r2, r2, r5
	.loc 1 365 7 is_stmt 0 view .LVU120
	cmp	r5, #4194304
	.loc 1 363 5 view .LVU121
	str	r2, [r1, #136]
	.loc 1 365 5 is_stmt 1 view .LVU122
	.loc 1 365 7 is_stmt 0 view .LVU123
	beq	.L80
.L26:
	.loc 1 374 3 is_stmt 1 view .LVU124
	.loc 1 374 5 is_stmt 0 view .LVU125
	lsls	r5, r3, #19
	bpl	.L29
	.loc 1 377 5 is_stmt 1 view .LVU126
	.loc 1 380 5 view .LVU127
	ldr	r1, .L85
	ldr	r5, [r4, #48]
	ldr	r2, [r1, #136]
	bic	r2, r2, #50331648
	orrs	r2, r2, r5
	.loc 1 382 7 is_stmt 0 view .LVU128
	cmp	r5, #16777216
	.loc 1 380 5 view .LVU129
	str	r2, [r1, #136]
	.loc 1 382 5 is_stmt 1 view .LVU130
	.loc 1 382 7 is_stmt 0 view .LVU131
	beq	.L81
.L29:
	.loc 1 393 3 is_stmt 1 view .LVU132
	.loc 1 393 5 is_stmt 0 view .LVU133
	lsls	r1, r3, #18
	bpl	.L32
	.loc 1 395 5 is_stmt 1 view .LVU134
	.loc 1 396 5 view .LVU135
	ldr	r1, .L85
	ldr	r5, [r4, #52]
	ldr	r2, [r1, #136]
	bic	r2, r2, #201326592
	orrs	r2, r2, r5
	.loc 1 398 7 is_stmt 0 view .LVU136
	cmp	r5, #134217728
	.loc 1 396 5 view .LVU137
	str	r2, [r1, #136]
	.loc 1 398 5 is_stmt 1 view .LVU138
	.loc 1 398 7 is_stmt 0 view .LVU139
	beq	.L82
.L32:
	.loc 1 408 3 is_stmt 1 view .LVU140
	.loc 1 408 5 is_stmt 0 view .LVU141
	lsls	r2, r3, #17
	bpl	.L35
	.loc 1 410 5 is_stmt 1 view .LVU142
	.loc 1 411 5 view .LVU143
	ldr	r1, .L85
	ldr	r5, [r4, #56]
	ldr	r2, [r1, #136]
	bic	r2, r2, #201326592
	orrs	r2, r2, r5
	.loc 1 413 7 is_stmt 0 view .LVU144
	cmp	r5, #134217728
	.loc 1 411 5 view .LVU145
	str	r2, [r1, #136]
	.loc 1 413 5 is_stmt 1 view .LVU146
	.loc 1 413 7 is_stmt 0 view .LVU147
	beq	.L83
.L35:
	.loc 1 421 3 is_stmt 1 view .LVU148
	.loc 1 421 5 is_stmt 0 view .LVU149
	lsls	r3, r3, #16
	bpl	.L44
	.loc 1 424 5 is_stmt 1 view .LVU150
	.loc 1 427 5 view .LVU151
	ldr	r2, .L85
	ldr	r1, [r4, #60]
	ldr	r3, [r2, #136]
	bic	r3, r3, #805306368
	orrs	r3, r3, r1
	.loc 1 429 7 is_stmt 0 view .LVU152
	cmp	r1, #268435456
	.loc 1 427 5 view .LVU153
	str	r3, [r2, #136]
	.loc 1 429 5 is_stmt 1 view .LVU154
	.loc 1 429 7 is_stmt 0 view .LVU155
	beq	.L84
.L44:
	.loc 1 475 1 view .LVU156
	add	sp, sp, #8
.LCFI2:
	.cfi_remember_state
	.cfi_def_cfa_offset 24
	@ sp needed
	pop	{r4, r5, r6, r7, r8, pc}
.LVL19:
.L78:
.LCFI3:
	.cfi_restore_state
.LBB5:
	.loc 1 144 7 is_stmt 1 view .LVU157
.LBB3:
	.loc 1 144 7 view .LVU158
	.loc 1 144 7 view .LVU159
	ldr	r2, [r3, #88]
	orr	r2, r2, #268435456
	str	r2, [r3, #88]
	.loc 1 144 7 view .LVU160
	ldr	r3, [r3, #88]
	and	r3, r3, #268435456
	str	r3, [sp, #4]
	.loc 1 144 7 view .LVU161
	ldr	r3, [sp, #4]
.LBE3:
	.loc 1 144 7 view .LVU162
	.loc 1 145 7 view .LVU163
.LVL20:
	.loc 1 145 21 is_stmt 0 view .LVU164
	movs	r7, #1
	b	.L3
.LVL21:
.L10:
	.loc 1 158 13 view .LVU165
	movs	r0, #3
	b	.L5
.LVL22:
.L79:
	.loc 1 158 13 view .LVU166
.LBE5:
	.loc 1 352 7 is_stmt 1 view .LVU167
	ldr	r2, [r1, #12]
	orr	r2, r2, #1048576
	str	r2, [r1, #12]
	b	.L23
.L80:
	.loc 1 368 7 view .LVU168
	ldr	r2, [r1, #12]
	orr	r2, r2, #1048576
	str	r2, [r1, #12]
	b	.L26
.L81:
	.loc 1 385 7 view .LVU169
	ldr	r2, [r1, #12]
	orr	r2, r2, #1048576
	str	r2, [r1, #12]
	b	.L29
.L82:
	.loc 1 401 7 view .LVU170
	ldr	r2, [r1, #12]
	orr	r2, r2, #1048576
	str	r2, [r1, #12]
	b	.L32
.L83:
	.loc 1 416 7 view .LVU171
	ldr	r2, [r1, #12]
	orr	r2, r2, #1048576
	str	r2, [r1, #12]
	b	.L35
.L84:
	.loc 1 432 7 view .LVU172
	ldr	r3, [r2, #12]
	orr	r3, r3, #65536
	str	r3, [r2, #12]
	.loc 1 474 3 view .LVU173
	.loc 1 475 1 is_stmt 0 view .LVU174
	add	sp, sp, #8
.LCFI4:
	.cfi_remember_state
	.cfi_def_cfa_offset 24
	@ sp needed
	pop	{r4, r5, r6, r7, r8, pc}
.LVL23:
.L43:
.LCFI5:
	.cfi_restore_state
.LBB6:
	.loc 1 475 1 view .LVU175
	mov	r3, r2
.LVL24:
	.loc 1 475 1 view .LVU176
	b	.L8
.L86:
	.align	2
.L85:
	.word	1073876992
	.word	1073770496
.LBE6:
	.cfi_endproc
.LFE132:
	.size	HAL_RCCEx_PeriphCLKConfig, .-HAL_RCCEx_PeriphCLKConfig
	.section	.text.HAL_RCCEx_GetPeriphCLKConfig,"ax",%progbits
	.align	1
	.p2align 2,,3
	.global	HAL_RCCEx_GetPeriphCLKConfig
	.syntax unified
	.thumb
	.thumb_func
	.fpu fpv4-sp-d16
	.type	HAL_RCCEx_GetPeriphCLKConfig, %function
HAL_RCCEx_GetPeriphCLKConfig:
.LVL25:
.LFB133:
	.loc 1 486 1 is_stmt 1 view -0
	.cfi_startproc
	@ args = 0, pretend = 0, frame = 0
	@ frame_needed = 0, uses_anonymous_args = 0
	@ link register save eliminated.
	.loc 1 531 3 view .LVU178
	.loc 1 548 42 is_stmt 0 view .LVU179
	ldr	r3, .L88
	.loc 1 531 39 view .LVU180
	ldr	r2, .L88+4
	str	r2, [r0]
	.loc 1 548 3 is_stmt 1 view .LVU181
	.loc 1 548 42 is_stmt 0 view .LVU182
	ldr	r2, [r3, #136]
	and	r2, r2, #3
	.loc 1 548 40 view .LVU183
	str	r2, [r0, #4]
	.loc 1 550 3 is_stmt 1 view .LVU184
	.loc 1 550 42 is_stmt 0 view .LVU185
	ldr	r2, [r3, #136]
	and	r2, r2, #12
	.loc 1 550 40 view .LVU186
	str	r2, [r0, #8]
	.loc 1 552 3 is_stmt 1 view .LVU187
	.loc 1 552 42 is_stmt 0 view .LVU188
	ldr	r2, [r3, #136]
	and	r2, r2, #48
	.loc 1 552 40 view .LVU189
	str	r2, [r0, #12]
	.loc 1 556 3 is_stmt 1 view .LVU190
	.loc 1 556 42 is_stmt 0 view .LVU191
	ldr	r2, [r3, #136]
	and	r2, r2, #192
	.loc 1 556 40 view .LVU192
	str	r2, [r0, #16]
	.loc 1 565 3 is_stmt 1 view .LVU193
	.loc 1 565 42 is_stmt 0 view .LVU194
	ldr	r2, [r3, #136]
	and	r2, r2, #3072
	.loc 1 565 40 view .LVU195
	str	r2, [r0, #20]
	.loc 1 568 3 is_stmt 1 view .LVU196
	.loc 1 568 42 is_stmt 0 view .LVU197
	ldr	r2, [r3, #136]
	and	r2, r2, #12288
	.loc 1 568 40 view .LVU198
	str	r2, [r0, #24]
	.loc 1 571 3 is_stmt 1 view .LVU199
	.loc 1 571 42 is_stmt 0 view .LVU200
	ldr	r2, [r3, #136]
	and	r2, r2, #49152
	.loc 1 571 40 view .LVU201
	str	r2, [r0, #28]
	.loc 1 574 3 is_stmt 1 view .LVU202
	.loc 1 574 42 is_stmt 0 view .LVU203
	ldr	r2, [r3, #136]
	and	r2, r2, #196608
	.loc 1 574 40 view .LVU204
	str	r2, [r0, #32]
	.loc 1 582 3 is_stmt 1 view .LVU205
	.loc 1 582 42 is_stmt 0 view .LVU206
	ldr	r2, [r3, #136]
	and	r2, r2, #786432
	.loc 1 582 40 view .LVU207
	str	r2, [r0, #36]
	.loc 1 585 3 is_stmt 1 view .LVU208
	.loc 1 585 42 is_stmt 0 view .LVU209
	ldr	r2, [r3, #136]
	and	r2, r2, #3145728
	.loc 1 585 40 view .LVU210
	str	r2, [r0, #40]
	.loc 1 588 3 is_stmt 1 view .LVU211
	.loc 1 588 41 is_stmt 0 view .LVU212
	ldr	r2, [r3, #136]
	and	r2, r2, #12582912
	.loc 1 588 39 view .LVU213
	str	r2, [r0, #44]
	.loc 1 592 3 is_stmt 1 view .LVU214
	.loc 1 592 43 is_stmt 0 view .LVU215
	ldr	r2, [r3, #136]
	and	r2, r2, #50331648
	.loc 1 592 41 view .LVU216
	str	r2, [r0, #48]
	.loc 1 597 3 is_stmt 1 view .LVU217
	.loc 1 597 40 is_stmt 0 view .LVU218
	ldr	r2, [r3, #136]
	and	r2, r2, #201326592
	.loc 1 597 38 view .LVU219
	str	r2, [r0, #52]
	.loc 1 601 3 is_stmt 1 view .LVU220
	.loc 1 601 40 is_stmt 0 view .LVU221
	ldr	r2, [r3, #136]
	and	r2, r2, #201326592
	.loc 1 601 38 view .LVU222
	str	r2, [r0, #56]
	.loc 1 604 3 is_stmt 1 view .LVU223
	.loc 1 604 44 is_stmt 0 view .LVU224
	ldr	r2, [r3, #136]
	and	r2, r2, #805306368
	.loc 1 604 42 view .LVU225
	str	r2, [r0, #60]
	.loc 1 617 3 is_stmt 1 view .LVU226
	.loc 1 617 42 is_stmt 0 view .LVU227
	ldr	r3, [r3, #144]
	and	r3, r3, #768
	.loc 1 617 40 view .LVU228
	str	r3, [r0, #64]
	.loc 1 619 1 view .LVU229
	bx	lr
.L89:
	.align	2
.L88:
	.word	1073876992
	.word	589807
	.cfi_endproc
.LFE133:
	.size	HAL_RCCEx_GetPeriphCLKConfig, .-HAL_RCCEx_GetPeriphCLKConfig
	.section	.text.HAL_RCCEx_GetPeriphCLKFreq,"ax",%progbits
	.align	1
	.p2align 2,,3
	.global	HAL_RCCEx_GetPeriphCLKFreq
	.syntax unified
	.thumb
	.thumb_func
	.fpu fpv4-sp-d16
	.type	HAL_RCCEx_GetPeriphCLKFreq, %function
HAL_RCCEx_GetPeriphCLKFreq:
.LVL26:
.LFB134:
	.loc 1 649 1 is_stmt 1 view -0
	.cfi_startproc
	@ args = 0, pretend = 0, frame = 0
	@ frame_needed = 0, uses_anonymous_args = 0
	@ link register save eliminated.
	.loc 1 650 3 view .LVU231
	.loc 1 651 3 view .LVU232
	.loc 1 652 3 view .LVU233
	.loc 1 655 3 view .LVU234
	.loc 1 657 3 view .LVU235
	.loc 1 657 5 is_stmt 0 view .LVU236
	cmp	r0, #524288
	.loc 1 660 14 view .LVU237
	ldr	r2, .L323
	.loc 1 657 5 view .LVU238
	beq	.L315
	.loc 1 688 5 is_stmt 1 view .LVU239
	.loc 1 688 8 is_stmt 0 view .LVU240
	ldr	r3, [r2, #12]
	and	r3, r3, #3
	.loc 1 688 7 view .LVU241
	cmp	r3, #2
	beq	.L316
	.loc 1 699 10 is_stmt 1 view .LVU242
	.loc 1 699 13 is_stmt 0 view .LVU243
	ldr	r3, [r2, #12]
	and	r3, r3, #3
	.loc 1 699 12 view .LVU244
	cmp	r3, #3
	beq	.L317
	.loc 1 696 16 view .LVU245
	movs	r2, #0
.L96:
.LVL27:
	.loc 1 716 5 is_stmt 1 view .LVU246
	.loc 1 716 26 is_stmt 0 view .LVU247
	ldr	r1, .L323
	ldr	r3, [r1, #12]
	.loc 1 718 5 view .LVU248
	cmp	r0, #256
	.loc 1 716 67 view .LVU249
	ubfx	r3, r3, #4, #4
	.loc 1 716 92 view .LVU250
	add	r3, r3, #1
	.loc 1 716 12 view .LVU251
	udiv	r3, r2, r3
.LVL28:
	.loc 1 718 5 is_stmt 1 view .LVU252
	beq	.L97
	bhi	.L98
	cmp	r0, #32
	bhi	.L99
	cmp	r0, #0
	beq	.L90
	subs	r0, r0, #1
.LVL29:
	.loc 1 718 5 is_stmt 0 view .LVU253
	cmp	r0, #31
	bhi	.L161
	tbh	[pc, r0, lsl #1]
.LVL30:
.L101:
	.2byte	(.L105-.L101)/2
	.2byte	(.L104-.L101)/2
	.2byte	(.L161-.L101)/2
	.2byte	(.L103-.L101)/2
	.2byte	(.L161-.L101)/2
	.2byte	(.L161-.L101)/2
	.2byte	(.L161-.L101)/2
	.2byte	(.L102-.L101)/2
	.2byte	(.L161-.L101)/2
	.2byte	(.L161-.L101)/2
	.2byte	(.L161-.L101)/2
	.2byte	(.L161-.L101)/2
	.2byte	(.L161-.L101)/2
	.2byte	(.L161-.L101)/2
	.2byte	(.L161-.L101)/2
	.2byte	(.L161-.L101)/2
	.2byte	(.L161-.L101)/2
	.2byte	(.L161-.L101)/2
	.2byte	(.L161-.L101)/2
	.2byte	(.L161-.L101)/2
	.2byte	(.L161-.L101)/2
	.2byte	(.L161-.L101)/2
	.2byte	(.L161-.L101)/2
	.2byte	(.L161-.L101)/2
	.2byte	(.L161-.L101)/2
	.2byte	(.L161-.L101)/2
	.2byte	(.L161-.L101)/2
	.2byte	(.L161-.L101)/2
	.2byte	(.L161-.L101)/2
	.2byte	(.L161-.L101)/2
	.2byte	(.L161-.L101)/2
	.2byte	(.L100-.L101)/2
	.p2align 1
.L98:
	.loc 1 718 5 view .LVU254
	cmp	r0, #4096
	beq	.L108
	bls	.L318
	cmp	r0, #16384
	beq	.L113
	cmp	r0, #32768
	bne	.L319
	.loc 1 1152 7 is_stmt 1 view .LVU255
	.loc 1 1152 16 is_stmt 0 view .LVU256
	ldr	r2, [r1, #136]
	.loc 1 1152 14 view .LVU257
	and	r2, r2, #805306368
.LVL31:
	.loc 1 1154 7 is_stmt 1 view .LVU258
	.loc 1 1154 9 is_stmt 0 view .LVU259
	cmp	r2, #268435456
	beq	.L320
	.loc 1 1175 12 is_stmt 1 view .LVU260
	.loc 1 1175 14 is_stmt 0 view .LVU261
	cmp	r2, #536870912
	beq	.L120
.LVL32:
.L161:
	.loc 1 650 12 view .LVU262
	movs	r0, #0
.L90:
	.loc 1 1258 1 view .LVU263
	bx	lr
.LVL33:
.L316:
	.loc 1 690 7 is_stmt 1 view .LVU264
	.loc 1 690 10 is_stmt 0 view .LVU265
	ldr	r2, [r2]
	.loc 1 692 16 view .LVU266
	ldr	r3, .L323+4
	ands	r2, r2, #1024
	it	ne
	movne	r2, r3
	b	.L96
.LVL34:
.L99:
	.loc 1 718 5 view .LVU267
	cmp	r0, #64
	beq	.L106
	cmp	r0, #128
	bne	.L161
	.loc 1 912 7 is_stmt 1 view .LVU268
	.loc 1 912 16 is_stmt 0 view .LVU269
	ldr	r3, [r1, #136]
.LVL35:
	.loc 1 914 7 is_stmt 1 view .LVU270
	.loc 1 914 9 is_stmt 0 view .LVU271
	ands	r3, r3, #49152
.LVL36:
	.loc 1 914 9 view .LVU272
	beq	.L122
	.loc 1 918 12 is_stmt 1 view .LVU273
	.loc 1 918 14 is_stmt 0 view .LVU274
	cmp	r3, #16384
	beq	.L120
	.loc 1 922 12 is_stmt 1 view .LVU275
	.loc 1 922 16 is_stmt 0 view .LVU276
	ldr	r0, [r1]
.LVL37:
	.loc 1 922 14 view .LVU277
	ands	r0, r0, #1024
	beq	.L90
	.loc 1 901 19 discriminator 1 view .LVU278
	cmp	r3, #32768
	ldr	r0, .L323+4
	it	ne
	movne	r0, #0
	bx	lr
.LVL38:
.L318:
	.loc 1 718 5 view .LVU279
	cmp	r0, #1024
	beq	.L110
	cmp	r0, #2048
	bne	.L321
	.loc 1 1045 7 is_stmt 1 view .LVU280
	.loc 1 1045 16 is_stmt 0 view .LVU281
	ldr	r2, [r1, #136]
.LVL39:
	.loc 1 1047 7 is_stmt 1 view .LVU282
	.loc 1 1047 9 is_stmt 0 view .LVU283
	ands	r2, r2, #12582912
.LVL40:
	.loc 1 1047 9 view .LVU284
	beq	.L120
	.loc 1 1051 12 is_stmt 1 view .LVU285
	.loc 1 1051 14 is_stmt 0 view .LVU286
	cmp	r2, #4194304
	beq	.L312
	.loc 1 1060 12 is_stmt 1 view .LVU287
	.loc 1 1060 14 is_stmt 0 view .LVU288
	cmp	r2, #8388608
	beq	.L158
	.loc 1 1065 12 is_stmt 1 view .LVU289
	.loc 1 1065 16 is_stmt 0 view .LVU290
	ldr	r0, [r1]
.LVL41:
	.loc 1 1065 14 view .LVU291
	ands	r0, r0, #1024
	beq	.L90
	.loc 1 901 19 discriminator 1 view .LVU292
	cmp	r2, #12582912
	ldr	r0, .L323+4
	it	ne
	movne	r0, #0
	bx	lr
.LVL42:
.L319:
	.loc 1 718 5 view .LVU293
	cmp	r0, #8192
	bne	.L161
.L113:
	.loc 1 1132 7 is_stmt 1 view .LVU294
	.loc 1 1132 16 is_stmt 0 view .LVU295
	ldr	r2, [r1, #136]
	.loc 1 1132 14 view .LVU296
	and	r2, r2, #201326592
.LVL43:
	.loc 1 1134 7 is_stmt 1 view .LVU297
	.loc 1 1134 9 is_stmt 0 view .LVU298
	cmp	r2, #134217728
	beq	.L307
	.loc 1 1140 12 is_stmt 1 view .LVU299
	.loc 1 1140 17 is_stmt 0 view .LVU300
	ldr	r0, [r1, #152]
.LVL44:
	.loc 1 1140 14 view .LVU301
	ands	r0, r0, #2
	beq	.L90
	.loc 1 1120 19 discriminator 1 view .LVU302
	cmp	r2, #0
	ldr	r0, .L323+8
	it	ne
	movne	r0, #0
	bx	lr
.LVL45:
.L321:
	.loc 1 718 5 view .LVU303
	cmp	r0, #512
	bne	.L161
	.loc 1 985 7 is_stmt 1 view .LVU304
	.loc 1 985 16 is_stmt 0 view .LVU305
	ldr	r3, [r1, #136]
.LVL46:
	.loc 1 987 7 is_stmt 1 view .LVU306
	.loc 1 987 9 is_stmt 0 view .LVU307
	ands	r3, r3, #786432
.LVL47:
	.loc 1 987 9 view .LVU308
	beq	.L122
	.loc 1 991 12 is_stmt 1 view .LVU309
	.loc 1 991 16 is_stmt 0 view .LVU310
	ldr	r2, [r1, #148]
	.loc 1 991 14 view .LVU311
	lsls	r1, r2, #30
	bpl	.L126
	.loc 1 991 58 discriminator 1 view .LVU312
	cmp	r3, #262144
	beq	.L153
.L126:
	.loc 1 995 12 is_stmt 1 view .LVU313
	.loc 1 995 16 is_stmt 0 view .LVU314
	ldr	r2, .L323
	ldr	r2, [r2]
	.loc 1 995 14 view .LVU315
	lsls	r2, r2, #21
	bpl	.L127
	.loc 1 995 56 discriminator 1 view .LVU316
	cmp	r3, #524288
	beq	.L154
.L127:
	.loc 1 999 12 is_stmt 1 view .LVU317
	.loc 1 999 17 is_stmt 0 view .LVU318
	ldr	r2, .L323
	ldr	r0, [r2, #144]
.LVL48:
	.loc 1 999 15 view .LVU319
	ands	r0, r0, #2
	beq	.L90
	.loc 1 739 19 discriminator 1 view .LVU320
	cmp	r3, #786432
	ite	ne
	movne	r0, #0
	moveq	r0, #32768
	bx	lr
.LVL49:
.L315:
	.loc 1 660 5 is_stmt 1 view .LVU321
	.loc 1 660 14 is_stmt 0 view .LVU322
	ldr	r3, [r2, #144]
	.loc 1 663 10 view .LVU323
	ldr	r2, [r2, #144]
	.loc 1 663 8 view .LVU324
	lsls	r0, r2, #30
.LVL50:
	.loc 1 660 12 view .LVU325
	and	r3, r3, #768
.LVL51:
	.loc 1 663 5 is_stmt 1 view .LVU326
	.loc 1 663 8 is_stmt 0 view .LVU327
	bpl	.L92
	.loc 1 663 54 discriminator 1 view .LVU328
	cmp	r3, #256
	beq	.L134
.L92:
	.loc 1 668 10 is_stmt 1 view .LVU329
	.loc 1 668 15 is_stmt 0 view .LVU330
	ldr	r2, .L323
	ldr	r2, [r2, #148]
	.loc 1 668 13 view .LVU331
	lsls	r1, r2, #30
	bpl	.L94
	.loc 1 668 57 discriminator 1 view .LVU332
	cmp	r3, #512
	beq	.L153
.L94:
	.loc 1 673 10 is_stmt 1 view .LVU333
	.loc 1 673 15 is_stmt 0 view .LVU334
	ldr	r2, .L323
	ldr	r0, [r2]
	.loc 1 673 13 view .LVU335
	ands	r0, r0, #131072
	beq	.L90
	.loc 1 675 17 discriminator 1 view .LVU336
	cmp	r3, #768
	ldr	r0, .L323+12
	it	ne
	movne	r0, #0
	bx	lr
.LVL52:
.L122:
	.loc 1 754 9 is_stmt 1 view .LVU337
	.loc 1 754 21 is_stmt 0 view .LVU338
	b	HAL_RCC_GetPCLK1Freq
.LVL53:
.L120:
	.loc 1 731 9 is_stmt 1 view .LVU339
	.loc 1 731 21 is_stmt 0 view .LVU340
	b	HAL_RCC_GetSysClockFreq
.LVL54:
.L317:
	.loc 1 701 7 is_stmt 1 view .LVU341
	.loc 1 701 10 is_stmt 0 view .LVU342
	ldr	r2, [r2]
	.loc 1 703 16 view .LVU343
	ldr	r3, .L323+16
	ands	r2, r2, #131072
	it	ne
	movne	r2, r3
	b	.L96
.LVL55:
.L134:
	.loc 1 739 19 view .LVU344
	mov	r0, #32768
	bx	lr
.LVL56:
.L103:
	.loc 1 777 7 is_stmt 1 view .LVU345
	.loc 1 777 16 is_stmt 0 view .LVU346
	ldr	r2, .L323
	.loc 1 777 16 view .LVU347
	ldr	r3, [r2, #136]
.LVL57:
	.loc 1 779 7 is_stmt 1 view .LVU348
	.loc 1 779 9 is_stmt 0 view .LVU349
	ands	r3, r3, #48
.LVL58:
	.loc 1 779 9 view .LVU350
	beq	.L122
	.loc 1 783 12 is_stmt 1 view .LVU351
	.loc 1 783 14 is_stmt 0 view .LVU352
	cmp	r3, #16
	beq	.L120
	.loc 1 787 12 is_stmt 1 view .LVU353
	.loc 1 787 16 is_stmt 0 view .LVU354
	ldr	r2, [r2]
	.loc 1 787 14 view .LVU355
	lsls	r1, r2, #21
	bpl	.L123
	.loc 1 787 56 discriminator 1 view .LVU356
	cmp	r3, #32
	beq	.L154
.L123:
	.loc 1 791 12 is_stmt 1 view .LVU357
	.loc 1 791 16 is_stmt 0 view .LVU358
	ldr	r2, .L323
	ldr	r0, [r2, #144]
.LVL59:
	.loc 1 791 14 view .LVU359
	ands	r0, r0, #2
	beq	.L90
	.loc 1 739 19 discriminator 1 view .LVU360
	cmp	r3, #48
	ite	ne
	movne	r0, #0
	moveq	r0, #32768
	bx	lr
.LVL60:
.L102:
	.loc 1 805 7 is_stmt 1 view .LVU361
	.loc 1 805 16 is_stmt 0 view .LVU362
	ldr	r2, .L323
	.loc 1 805 16 view .LVU363
	ldr	r3, [r2, #136]
.LVL61:
	.loc 1 807 7 is_stmt 1 view .LVU364
	.loc 1 807 9 is_stmt 0 view .LVU365
	ands	r3, r3, #192
.LVL62:
	.loc 1 807 9 view .LVU366
	beq	.L122
	.loc 1 811 12 is_stmt 1 view .LVU367
	.loc 1 811 14 is_stmt 0 view .LVU368
	cmp	r3, #64
	beq	.L120
	.loc 1 815 12 is_stmt 1 view .LVU369
	.loc 1 815 16 is_stmt 0 view .LVU370
	ldr	r2, [r2]
	.loc 1 815 14 view .LVU371
	lsls	r2, r2, #21
	bpl	.L124
	.loc 1 815 56 discriminator 1 view .LVU372
	cmp	r3, #128
	beq	.L154
.L124:
	.loc 1 819 12 is_stmt 1 view .LVU373
	.loc 1 819 16 is_stmt 0 view .LVU374
	ldr	r2, .L323
	ldr	r0, [r2, #144]
	.loc 1 819 14 view .LVU375
	ands	r0, r0, #2
	beq	.L90
	.loc 1 739 19 discriminator 1 view .LVU376
	cmp	r3, #192
	ite	ne
	movne	r0, #0
	moveq	r0, #32768
	bx	lr
.L324:
	.align	2
.L323:
	.word	1073876992
	.word	16000000
	.word	48000000
	.word	250000
	.word	8000000
.LVL63:
.L100:
	.loc 1 862 7 is_stmt 1 view .LVU377
	.loc 1 862 16 is_stmt 0 view .LVU378
	ldr	r2, .L325
	.loc 1 862 16 view .LVU379
	ldr	r3, [r2, #136]
.LVL64:
	.loc 1 864 7 is_stmt 1 view .LVU380
	.loc 1 864 9 is_stmt 0 view .LVU381
	ands	r3, r3, #3072
.LVL65:
	.loc 1 864 9 view .LVU382
	beq	.L122
	.loc 1 868 12 is_stmt 1 view .LVU383
	.loc 1 868 14 is_stmt 0 view .LVU384
	cmp	r3, #1024
	beq	.L120
	.loc 1 872 12 is_stmt 1 view .LVU385
	.loc 1 872 16 is_stmt 0 view .LVU386
	ldr	r2, [r2]
	.loc 1 872 14 view .LVU387
	lsls	r0, r2, #21
	bpl	.L125
	.loc 1 872 56 discriminator 1 view .LVU388
	cmp	r3, #2048
	beq	.L154
.L125:
	.loc 1 876 12 is_stmt 1 view .LVU389
	.loc 1 876 16 is_stmt 0 view .LVU390
	ldr	r2, .L325
	ldr	r0, [r2, #144]
	.loc 1 876 14 view .LVU391
	ands	r0, r0, #2
	beq	.L90
	.loc 1 739 19 discriminator 1 view .LVU392
	cmp	r3, #3072
	ite	ne
	movne	r0, #0
	moveq	r0, #32768
	bx	lr
.LVL66:
.L105:
	.loc 1 723 7 is_stmt 1 view .LVU393
	.loc 1 723 16 is_stmt 0 view .LVU394
	ldr	r2, .L325
	.loc 1 723 16 view .LVU395
	ldr	r3, [r2, #136]
.LVL67:
	.loc 1 725 7 is_stmt 1 view .LVU396
	.loc 1 725 9 is_stmt 0 view .LVU397
	ands	r3, r3, #3
.LVL68:
	.loc 1 725 9 view .LVU398
	beq	.L322
	.loc 1 729 12 is_stmt 1 view .LVU399
	.loc 1 729 14 is_stmt 0 view .LVU400
	cmp	r3, #1
	beq	.L120
	.loc 1 733 12 is_stmt 1 view .LVU401
	.loc 1 733 16 is_stmt 0 view .LVU402
	ldr	r2, [r2]
	.loc 1 733 14 view .LVU403
	lsls	r2, r2, #21
	bpl	.L118
	.loc 1 733 56 discriminator 1 view .LVU404
	cmp	r3, #2
	beq	.L154
.L118:
	.loc 1 737 12 is_stmt 1 view .LVU405
	.loc 1 737 16 is_stmt 0 view .LVU406
	ldr	r2, .L325
	ldr	r0, [r2, #144]
	.loc 1 737 14 view .LVU407
	ands	r0, r0, #2
	beq	.L90
	.loc 1 739 19 discriminator 1 view .LVU408
	cmp	r3, #3
	ite	ne
	movne	r0, #0
	moveq	r0, #32768
	bx	lr
.LVL69:
.L104:
	.loc 1 750 7 is_stmt 1 view .LVU409
	.loc 1 750 16 is_stmt 0 view .LVU410
	ldr	r2, .L325
	.loc 1 750 16 view .LVU411
	ldr	r3, [r2, #136]
.LVL70:
	.loc 1 752 7 is_stmt 1 view .LVU412
	.loc 1 752 9 is_stmt 0 view .LVU413
	ands	r3, r3, #12
.LVL71:
	.loc 1 752 9 view .LVU414
	beq	.L122
	.loc 1 756 12 is_stmt 1 view .LVU415
	.loc 1 756 14 is_stmt 0 view .LVU416
	cmp	r3, #4
	beq	.L120
	.loc 1 760 12 is_stmt 1 view .LVU417
	.loc 1 760 16 is_stmt 0 view .LVU418
	ldr	r2, [r2]
	.loc 1 760 14 view .LVU419
	lsls	r0, r2, #21
	bpl	.L121
	.loc 1 760 56 discriminator 1 view .LVU420
	cmp	r3, #8
	beq	.L154
.L121:
	.loc 1 764 12 is_stmt 1 view .LVU421
	.loc 1 764 16 is_stmt 0 view .LVU422
	ldr	r2, .L325
	ldr	r0, [r2, #144]
	.loc 1 764 14 view .LVU423
	ands	r0, r0, #2
	beq	.L90
	.loc 1 739 19 discriminator 1 view .LVU424
	cmp	r3, #12
	ite	ne
	movne	r0, #0
	moveq	r0, #32768
	bx	lr
.L153:
	.loc 1 993 19 view .LVU425
	mov	r0, #32000
	bx	lr
.LVL72:
.L108:
	.loc 1 1079 7 is_stmt 1 view .LVU426
	.loc 1 1079 16 is_stmt 0 view .LVU427
	ldr	r2, [r1, #136]
	.loc 1 1079 14 view .LVU428
	and	r2, r2, #50331648
.LVL73:
	.loc 1 1081 7 is_stmt 1 view .LVU429
	.loc 1 1081 9 is_stmt 0 view .LVU430
	cmp	r2, #33554432
	beq	.L122
	.loc 1 1085 12 is_stmt 1 view .LVU431
	.loc 1 1085 14 is_stmt 0 view .LVU432
	cmp	r2, #0
	beq	.L160
	.loc 1 1089 12 is_stmt 1 view .LVU433
	.loc 1 1089 14 is_stmt 0 view .LVU434
	cmp	r2, #16777216
	bne	.L161
.L312:
	.loc 1 1091 9 is_stmt 1 view .LVU435
	.loc 1 1091 12 is_stmt 0 view .LVU436
	ldr	r0, [r1, #12]
.LVL74:
	.loc 1 1091 11 view .LVU437
	ands	r0, r0, #1048576
	beq	.L90
.L307:
	.loc 1 1137 9 is_stmt 1 view .LVU438
	.loc 1 1137 16 is_stmt 0 view .LVU439
	ldr	r0, [r1, #12]
.LVL75:
	.loc 1 1138 9 is_stmt 1 view .LVU440
	.loc 1 1138 42 is_stmt 0 view .LVU441
	ldr	r2, [r1, #12]
.LVL76:
	.loc 1 1138 83 view .LVU442
	ubfx	r2, r2, #21, #2
	.loc 1 1138 108 view .LVU443
	adds	r2, r2, #1
	.loc 1 1137 14 view .LVU444
	ubfx	r0, r0, #8, #7
.LVL77:
	.loc 1 1138 29 view .LVU445
	mul	r0, r3, r0
	.loc 1 1138 114 view .LVU446
	lsls	r3, r2, #1
.LVL78:
	.loc 1 1138 19 view .LVU447
	udiv	r0, r0, r3
.LVL79:
	.loc 1 1138 19 view .LVU448
	bx	lr
.LVL80:
.L320:
	.loc 1 1156 9 is_stmt 1 view .LVU449
	.loc 1 1156 12 is_stmt 0 view .LVU450
	ldr	r0, [r1, #12]
.LVL81:
	.loc 1 1156 11 view .LVU451
	ands	r0, r0, #65536
	beq	.L90
	.loc 1 1159 11 is_stmt 1 view .LVU452
	.loc 1 1159 18 is_stmt 0 view .LVU453
	ldr	r0, [r1, #12]
	.loc 1 1160 18 view .LVU454
	ldr	r2, [r1, #12]
.LVL82:
	.loc 1 1159 16 view .LVU455
	ubfx	ip, r0, #8, #7
.LVL83:
	.loc 1 1160 11 is_stmt 1 view .LVU456
	.loc 1 1161 11 view .LVU457
	.loc 1 1161 13 is_stmt 0 view .LVU458
	lsrs	r0, r2, #27
.LVL84:
	.loc 1 1161 13 view .LVU459
	bne	.L133
	.loc 1 1163 13 is_stmt 1 view .LVU460
	.loc 1 1163 16 is_stmt 0 view .LVU461
	ldr	r2, [r1, #12]
	.loc 1 1169 20 view .LVU462
	tst	r2, #131072
	ite	ne
	movne	r0, #17
.LVL85:
	.loc 1 1169 20 view .LVU463
	moveq	r0, #7
.L133:
.LVL86:
	.loc 1 1172 11 is_stmt 1 view .LVU464
	.loc 1 1172 31 is_stmt 0 view .LVU465
	mul	r3, ip, r3
.LVL87:
	.loc 1 1172 21 view .LVU466
	udiv	r0, r3, r0
.LVL88:
	.loc 1 1172 21 view .LVU467
	bx	lr
.LVL89:
.L110:
	.loc 1 1012 7 is_stmt 1 view .LVU468
	.loc 1 1012 16 is_stmt 0 view .LVU469
	ldr	r2, [r1, #136]
.LVL90:
	.loc 1 1014 7 is_stmt 1 view .LVU470
	.loc 1 1014 9 is_stmt 0 view .LVU471
	ands	r2, r2, #3145728
.LVL91:
	.loc 1 1014 9 view .LVU472
	beq	.L120
	.loc 1 1018 12 is_stmt 1 view .LVU473
	.loc 1 1018 14 is_stmt 0 view .LVU474
	cmp	r2, #1048576
	beq	.L312
	.loc 1 1027 12 is_stmt 1 view .LVU475
	.loc 1 1027 14 is_stmt 0 view .LVU476
	cmp	r2, #2097152
	beq	.L158
	.loc 1 1032 12 is_stmt 1 view .LVU477
	.loc 1 1032 16 is_stmt 0 view .LVU478
	ldr	r0, [r1]
.LVL92:
	.loc 1 1032 14 view .LVU479
	ands	r0, r0, #1024
	beq	.L90
	.loc 1 901 19 discriminator 1 view .LVU480
	cmp	r2, #3145728
	ldr	r0, .L325+4
	it	ne
	movne	r0, #0
	bx	lr
.LVL93:
.L106:
	.loc 1 889 7 is_stmt 1 view .LVU481
	.loc 1 889 16 is_stmt 0 view .LVU482
	ldr	r3, [r1, #136]
.LVL94:
	.loc 1 891 7 is_stmt 1 view .LVU483
	.loc 1 891 9 is_stmt 0 view .LVU484
	ands	r3, r3, #12288
.LVL95:
	.loc 1 891 9 view .LVU485
	beq	.L122
	.loc 1 895 12 is_stmt 1 view .LVU486
	.loc 1 895 14 is_stmt 0 view .LVU487
	cmp	r3, #4096
	beq	.L120
	.loc 1 899 12 is_stmt 1 view .LVU488
	.loc 1 899 16 is_stmt 0 view .LVU489
	ldr	r0, [r1]
.LVL96:
	.loc 1 899 14 view .LVU490
	ands	r0, r0, #1024
	beq	.L90
	.loc 1 901 19 discriminator 1 view .LVU491
	cmp	r3, #8192
	ldr	r0, .L325+4
	it	ne
	movne	r0, #0
	bx	lr
.LVL97:
.L97:
	.loc 1 935 7 is_stmt 1 view .LVU492
	.loc 1 935 16 is_stmt 0 view .LVU493
	ldr	r3, [r1, #136]
.LVL98:
	.loc 1 937 7 is_stmt 1 view .LVU494
	.loc 1 937 9 is_stmt 0 view .LVU495
	ands	r3, r3, #196608
.LVL99:
	.loc 1 937 9 view .LVU496
	beq	.L122
	.loc 1 941 12 is_stmt 1 view .LVU497
	.loc 1 941 14 is_stmt 0 view .LVU498
	cmp	r3, #65536
	beq	.L120
	.loc 1 945 12 is_stmt 1 view .LVU499
	.loc 1 945 16 is_stmt 0 view .LVU500
	ldr	r0, [r1]
.LVL100:
	.loc 1 945 14 view .LVU501
	ands	r0, r0, #1024
	beq	.L90
	.loc 1 901 19 discriminator 1 view .LVU502
	cmp	r3, #131072
	ldr	r0, .L325+4
	it	ne
	movne	r0, #0
	bx	lr
.L154:
	.loc 1 901 19 view .LVU503
	ldr	r0, .L325+4
	bx	lr
.L322:
	.loc 1 727 9 is_stmt 1 view .LVU504
	.loc 1 727 21 is_stmt 0 view .LVU505
	b	HAL_RCC_GetPCLK2Freq
.LVL101:
.L160:
	.loc 1 1087 19 view .LVU506
	ldr	r0, .L325+8
.LVL102:
	.loc 1 1087 19 view .LVU507
	bx	lr
.LVL103:
.L158:
	.loc 1 1030 19 view .LVU508
	ldr	r0, .L325+12
.LVL104:
	.loc 1 1030 19 view .LVU509
	bx	lr
.L326:
	.align	2
.L325:
	.word	1073876992
	.word	16000000
	.word	8000000
	.word	12288000
	.cfi_endproc
.LFE134:
	.size	HAL_RCCEx_GetPeriphCLKFreq, .-HAL_RCCEx_GetPeriphCLKFreq
	.section	.text.HAL_RCCEx_EnableLSECSS,"ax",%progbits
	.align	1
	.p2align 2,,3
	.global	HAL_RCCEx_EnableLSECSS
	.syntax unified
	.thumb
	.thumb_func
	.fpu fpv4-sp-d16
	.type	HAL_RCCEx_EnableLSECSS, %function
HAL_RCCEx_EnableLSECSS:
.LFB135:
	.loc 1 1287 1 is_stmt 1 view -0
	.cfi_startproc
	@ args = 0, pretend = 0, frame = 0
	@ frame_needed = 0, uses_anonymous_args = 0
	@ link register save eliminated.
	.loc 1 1288 3 view .LVU511
	ldr	r2, .L328
	ldr	r3, [r2, #144]
	orr	r3, r3, #32
	str	r3, [r2, #144]
	.loc 1 1289 1 is_stmt 0 view .LVU512
	bx	lr
.L329:
	.align	2
.L328:
	.word	1073876992
	.cfi_endproc
.LFE135:
	.size	HAL_RCCEx_EnableLSECSS, .-HAL_RCCEx_EnableLSECSS
	.section	.text.HAL_RCCEx_DisableLSECSS,"ax",%progbits
	.align	1
	.p2align 2,,3
	.global	HAL_RCCEx_DisableLSECSS
	.syntax unified
	.thumb
	.thumb_func
	.fpu fpv4-sp-d16
	.type	HAL_RCCEx_DisableLSECSS, %function
HAL_RCCEx_DisableLSECSS:
.LFB136:
	.loc 1 1297 1 is_stmt 1 view -0
	.cfi_startproc
	@ args = 0, pretend = 0, frame = 0
	@ frame_needed = 0, uses_anonymous_args = 0
	@ link register save eliminated.
	.loc 1 1298 3 view .LVU514
	ldr	r3, .L331
	ldr	r2, [r3, #144]
	bic	r2, r2, #32
	str	r2, [r3, #144]
	.loc 1 1301 3 view .LVU515
	ldr	r2, [r3, #24]
	bic	r2, r2, #512
	str	r2, [r3, #24]
	.loc 1 1302 1 is_stmt 0 view .LVU516
	bx	lr
.L332:
	.align	2
.L331:
	.word	1073876992
	.cfi_endproc
.LFE136:
	.size	HAL_RCCEx_DisableLSECSS, .-HAL_RCCEx_DisableLSECSS
	.section	.text.HAL_RCCEx_EnableLSECSS_IT,"ax",%progbits
	.align	1
	.p2align 2,,3
	.global	HAL_RCCEx_EnableLSECSS_IT
	.syntax unified
	.thumb
	.thumb_func
	.fpu fpv4-sp-d16
	.type	HAL_RCCEx_EnableLSECSS_IT, %function
HAL_RCCEx_EnableLSECSS_IT:
.LFB137:
	.loc 1 1310 1 is_stmt 1 view -0
	.cfi_startproc
	@ args = 0, pretend = 0, frame = 0
	@ frame_needed = 0, uses_anonymous_args = 0
	@ link register save eliminated.
	.loc 1 1312 3 view .LVU518
	ldr	r2, .L334
	.loc 1 1318 3 is_stmt 0 view .LVU519
	ldr	r3, .L334+4
	.loc 1 1312 3 view .LVU520
	ldr	r1, [r2, #144]
	orr	r1, r1, #32
	str	r1, [r2, #144]
	.loc 1 1315 3 is_stmt 1 view .LVU521
	ldr	r1, [r2, #24]
	orr	r1, r1, #512
	str	r1, [r2, #24]
	.loc 1 1318 3 view .LVU522
	ldr	r2, [r3]
	orr	r2, r2, #524288
	str	r2, [r3]
	.loc 1 1319 3 view .LVU523
	ldr	r2, [r3, #8]
	orr	r2, r2, #524288
	str	r2, [r3, #8]
	.loc 1 1320 1 is_stmt 0 view .LVU524
	bx	lr
.L335:
	.align	2
.L334:
	.word	1073876992
	.word	1073808384
	.cfi_endproc
.LFE137:
	.size	HAL_RCCEx_EnableLSECSS_IT, .-HAL_RCCEx_EnableLSECSS_IT
	.section	.text.HAL_RCCEx_LSECSS_Callback,"ax",%progbits
	.align	1
	.p2align 2,,3
	.weak	HAL_RCCEx_LSECSS_Callback
	.syntax unified
	.thumb
	.thumb_func
	.fpu fpv4-sp-d16
	.type	HAL_RCCEx_LSECSS_Callback, %function
HAL_RCCEx_LSECSS_Callback:
.LFB139:
	.loc 1 1344 1 is_stmt 1 view -0
	.cfi_startproc
	@ args = 0, pretend = 0, frame = 0
	@ frame_needed = 0, uses_anonymous_args = 0
	@ link register save eliminated.
	.loc 1 1348 1 view .LVU526
	bx	lr
	.cfi_endproc
.LFE139:
	.size	HAL_RCCEx_LSECSS_Callback, .-HAL_RCCEx_LSECSS_Callback
	.section	.text.HAL_RCCEx_LSECSS_IRQHandler,"ax",%progbits
	.align	1
	.p2align 2,,3
	.global	HAL_RCCEx_LSECSS_IRQHandler
	.syntax unified
	.thumb
	.thumb_func
	.fpu fpv4-sp-d16
	.type	HAL_RCCEx_LSECSS_IRQHandler, %function
HAL_RCCEx_LSECSS_IRQHandler:
.LFB138:
	.loc 1 1327 1 view -0
	.cfi_startproc
	@ args = 0, pretend = 0, frame = 0
	@ frame_needed = 0, uses_anonymous_args = 0
	.loc 1 1329 3 view .LVU528
	.loc 1 1327 1 is_stmt 0 view .LVU529
	push	{r4, lr}
.LCFI6:
	.cfi_def_cfa_offset 8
	.cfi_offset 4, -8
	.cfi_offset 14, -4
	.loc 1 1329 6 view .LVU530
	ldr	r4, .L344
	ldr	r3, [r4, #28]
	.loc 1 1329 5 view .LVU531
	lsls	r3, r3, #22
	bmi	.L343
	.loc 1 1337 1 view .LVU532
	pop	{r4, pc}
.L343:
	.loc 1 1332 5 is_stmt 1 view .LVU533
	bl	HAL_RCCEx_LSECSS_Callback
.LVL105:
	.loc 1 1335 5 view .LVU534
	mov	r3, #512
	str	r3, [r4, #32]
	.loc 1 1337 1 is_stmt 0 view .LVU535
	pop	{r4, pc}
.L345:
	.align	2
.L344:
	.word	1073876992
	.cfi_endproc
.LFE138:
	.size	HAL_RCCEx_LSECSS_IRQHandler, .-HAL_RCCEx_LSECSS_IRQHandler
	.section	.text.HAL_RCCEx_EnableLSCO,"ax",%progbits
	.align	1
	.p2align 2,,3
	.global	HAL_RCCEx_EnableLSCO
	.syntax unified
	.thumb
	.thumb_func
	.fpu fpv4-sp-d16
	.type	HAL_RCCEx_EnableLSCO, %function
HAL_RCCEx_EnableLSCO:
.LVL106:
.LFB140:
	.loc 1 1359 1 is_stmt 1 view -0
	.cfi_startproc
	@ args = 0, pretend = 0, frame = 32
	@ frame_needed = 0, uses_anonymous_args = 0
	.loc 1 1360 3 view .LVU537
	.loc 1 1361 3 view .LVU538
	.loc 1 1362 3 view .LVU539
	.loc 1 1365 3 view .LVU540
	.loc 1 1368 3 view .LVU541
.LBB7:
	.loc 1 1368 3 view .LVU542
	.loc 1 1368 3 view .LVU543
.LBE7:
	.loc 1 1359 1 is_stmt 0 view .LVU544
	push	{r4, r5, r6, lr}
.LCFI7:
	.cfi_def_cfa_offset 16
	.cfi_offset 4, -16
	.cfi_offset 5, -12
	.cfi_offset 6, -8
	.cfi_offset 14, -4
.LBB8:
	.loc 1 1368 3 view .LVU545
	ldr	r4, .L354+8
	ldr	r3, [r4, #76]
	orr	r3, r3, #1
	str	r3, [r4, #76]
	.loc 1 1368 3 is_stmt 1 view .LVU546
	ldr	r3, [r4, #76]
.LBE8:
	.loc 1 1359 1 is_stmt 0 view .LVU547
	sub	sp, sp, #32
.LCFI8:
	.cfi_def_cfa_offset 48
	.loc 1 1371 23 view .LVU548
	vldr.64	d7, .L354	@ int
.LBB9:
	.loc 1 1368 3 view .LVU549
	and	r3, r3, #1
	str	r3, [sp]
	.loc 1 1368 3 is_stmt 1 view .LVU550
.LBE9:
	.loc 1 1371 23 is_stmt 0 view .LVU551
	movs	r2, #0
	movs	r3, #2
	.loc 1 1359 1 view .LVU552
	mov	r5, r0
	.loc 1 1375 3 view .LVU553
	add	r1, sp, #8
	mov	r0, #1207959552
.LVL107:
	.loc 1 1371 23 view .LVU554
	strd	r2, [sp, #16]
	vstr.64	d7, [sp, #8]	@ int
.LBB10:
	.loc 1 1368 3 view .LVU555
	ldr	r3, [sp]
.LBE10:
	.loc 1 1368 3 is_stmt 1 view .LVU556
	.loc 1 1371 3 view .LVU557
	.loc 1 1372 3 view .LVU558
	.loc 1 1373 3 view .LVU559
	.loc 1 1374 3 view .LVU560
	.loc 1 1375 3 view .LVU561
	bl	HAL_GPIO_Init
.LVL108:
	.loc 1 1378 3 view .LVU562
	.loc 1 1378 6 is_stmt 0 view .LVU563
	ldr	r3, [r4, #88]
	.loc 1 1378 5 view .LVU564
	lsls	r2, r3, #3
	bmi	.L351
	.loc 1 1380 5 is_stmt 1 view .LVU565
.LBB11:
	.loc 1 1380 5 view .LVU566
	.loc 1 1380 5 view .LVU567
	ldr	r3, [r4, #88]
	orr	r3, r3, #268435456
	str	r3, [r4, #88]
	.loc 1 1380 5 view .LVU568
	ldr	r3, [r4, #88]
	and	r3, r3, #268435456
	str	r3, [sp, #4]
	.loc 1 1380 5 view .LVU569
	ldr	r3, [sp, #4]
.LBE11:
	.loc 1 1380 5 view .LVU570
	.loc 1 1381 5 view .LVU571
.LVL109:
	.loc 1 1383 6 is_stmt 0 view .LVU572
	ldr	r3, .L354+12
	ldr	r3, [r3]
	.loc 1 1383 5 view .LVU573
	lsls	r3, r3, #23
	.loc 1 1381 19 view .LVU574
	mov	r6, #1
.LVL110:
	.loc 1 1383 3 is_stmt 1 view .LVU575
	.loc 1 1383 5 is_stmt 0 view .LVU576
	bpl	.L348
.L353:
	.loc 1 1389 3 is_stmt 1 view .LVU577
	ldr	r2, .L354+8
	ldr	r3, [r2, #144]
	bic	r3, r3, #50331648
	orr	r0, r3, r5
	orr	r0, r0, #16777216
	str	r0, [r2, #144]
	.loc 1 1391 3 view .LVU578
.LVL111:
.L349:
	.loc 1 1395 3 view .LVU579
	.loc 1 1395 5 is_stmt 0 view .LVU580
	cbz	r6, .L346
	.loc 1 1397 5 is_stmt 1 view .LVU581
	ldr	r2, .L354+8
	ldr	r3, [r2, #88]
	bic	r3, r3, #268435456
	str	r3, [r2, #88]
.L346:
	.loc 1 1399 1 is_stmt 0 view .LVU582
	add	sp, sp, #32
.LCFI9:
	.cfi_remember_state
	.cfi_def_cfa_offset 16
	@ sp needed
	pop	{r4, r5, r6, pc}
.LVL112:
.L351:
.LCFI10:
	.cfi_restore_state
	.loc 1 1383 6 view .LVU583
	ldr	r3, .L354+12
	ldr	r3, [r3]
	.loc 1 1383 5 view .LVU584
	lsls	r3, r3, #23
	.loc 1 1361 20 view .LVU585
	mov	r6, #0
.LVL113:
	.loc 1 1383 3 is_stmt 1 view .LVU586
	.loc 1 1383 5 is_stmt 0 view .LVU587
	bmi	.L353
.L348:
	.loc 1 1385 5 is_stmt 1 view .LVU588
	bl	HAL_PWR_EnableBkUpAccess
.LVL114:
	.loc 1 1386 5 view .LVU589
	.loc 1 1389 3 view .LVU590
	ldr	r3, .L354+8
	ldr	r0, [r3, #144]
	bic	r0, r0, #50331648
	orrs	r0, r0, r5
	orr	r0, r0, #16777216
	str	r0, [r3, #144]
	.loc 1 1391 3 view .LVU591
	.loc 1 1393 5 view .LVU592
	bl	HAL_PWR_DisableBkUpAccess
.LVL115:
	b	.L349
.L355:
	.align	3
.L354:
	.word	4
	.word	3
	.word	1073876992
	.word	1073770496
	.cfi_endproc
.LFE140:
	.size	HAL_RCCEx_EnableLSCO, .-HAL_RCCEx_EnableLSCO
	.section	.text.HAL_RCCEx_DisableLSCO,"ax",%progbits
	.align	1
	.p2align 2,,3
	.global	HAL_RCCEx_DisableLSCO
	.syntax unified
	.thumb
	.thumb_func
	.fpu fpv4-sp-d16
	.type	HAL_RCCEx_DisableLSCO, %function
HAL_RCCEx_DisableLSCO:
.LFB141:
	.loc 1 1406 1 view -0
	.cfi_startproc
	@ args = 0, pretend = 0, frame = 8
	@ frame_needed = 0, uses_anonymous_args = 0
	.loc 1 1407 3 view .LVU594
.LVL116:
	.loc 1 1408 3 view .LVU595
	.loc 1 1411 3 view .LVU596
	.loc 1 1406 1 is_stmt 0 view .LVU597
	push	{r4, lr}
.LCFI11:
	.cfi_def_cfa_offset 8
	.cfi_offset 4, -8
	.cfi_offset 14, -4
	.loc 1 1411 6 view .LVU598
	ldr	r3, .L364
	ldr	r2, [r3, #88]
	.loc 1 1411 5 view .LVU599
	lsls	r2, r2, #3
	.loc 1 1406 1 view .LVU600
	sub	sp, sp, #8
.LCFI12:
	.cfi_def_cfa_offset 16
	.loc 1 1411 5 view .LVU601
	bmi	.L361
	.loc 1 1413 5 is_stmt 1 view .LVU602
.LBB12:
	.loc 1 1413 5 view .LVU603
	.loc 1 1413 5 view .LVU604
	ldr	r2, [r3, #88]
	orr	r2, r2, #268435456
	str	r2, [r3, #88]
	.loc 1 1413 5 view .LVU605
	ldr	r3, [r3, #88]
	and	r3, r3, #268435456
	str	r3, [sp, #4]
	.loc 1 1413 5 view .LVU606
	ldr	r3, [sp, #4]
.LBE12:
	.loc 1 1413 5 view .LVU607
	.loc 1 1414 5 view .LVU608
.LVL117:
	.loc 1 1416 6 is_stmt 0 view .LVU609
	ldr	r3, .L364+4
	ldr	r3, [r3]
	.loc 1 1416 5 view .LVU610
	lsls	r3, r3, #23
	.loc 1 1414 19 view .LVU611
	mov	r4, #1
.LVL118:
	.loc 1 1416 3 is_stmt 1 view .LVU612
	.loc 1 1416 5 is_stmt 0 view .LVU613
	bpl	.L358
.L363:
	.loc 1 1423 3 is_stmt 1 view .LVU614
	ldr	r2, .L364
	ldr	r3, [r2, #144]
	bic	r3, r3, #16777216
	str	r3, [r2, #144]
	.loc 1 1426 3 view .LVU615
.LVL119:
.L359:
	.loc 1 1431 3 view .LVU616
	.loc 1 1431 5 is_stmt 0 view .LVU617
	cbz	r4, .L356
	.loc 1 1433 5 is_stmt 1 view .LVU618
	ldr	r2, .L364
	ldr	r3, [r2, #88]
	bic	r3, r3, #268435456
	str	r3, [r2, #88]
.L356:
	.loc 1 1435 1 is_stmt 0 view .LVU619
	add	sp, sp, #8
.LCFI13:
	.cfi_remember_state
	.cfi_def_cfa_offset 8
	@ sp needed
	pop	{r4, pc}
.LVL120:
.L361:
.LCFI14:
	.cfi_restore_state
	.loc 1 1416 6 view .LVU620
	ldr	r3, .L364+4
	ldr	r3, [r3]
	.loc 1 1416 5 view .LVU621
	lsls	r3, r3, #23
	.loc 1 1407 20 view .LVU622
	mov	r4, #0
.LVL121:
	.loc 1 1416 3 is_stmt 1 view .LVU623
	.loc 1 1416 5 is_stmt 0 view .LVU624
	bmi	.L363
.L358:
	.loc 1 1419 5 is_stmt 1 view .LVU625
	bl	HAL_PWR_EnableBkUpAccess
.LVL122:
	.loc 1 1420 5 view .LVU626
	.loc 1 1423 3 view .LVU627
	ldr	r2, .L364
	ldr	r3, [r2, #144]
	bic	r3, r3, #16777216
	str	r3, [r2, #144]
	.loc 1 1426 3 view .LVU628
	.loc 1 1429 5 view .LVU629
	bl	HAL_PWR_DisableBkUpAccess
.LVL123:
	b	.L359
.L365:
	.align	2
.L364:
	.word	1073876992
	.word	1073770496
	.cfi_endproc
.LFE141:
	.size	HAL_RCCEx_DisableLSCO, .-HAL_RCCEx_DisableLSCO
	.section	.text.HAL_RCCEx_CRSConfig,"ax",%progbits
	.align	1
	.p2align 2,,3
	.global	HAL_RCCEx_CRSConfig
	.syntax unified
	.thumb
	.thumb_func
	.fpu fpv4-sp-d16
	.type	HAL_RCCEx_CRSConfig, %function
HAL_RCCEx_CRSConfig:
.LVL124:
.LFB142:
	.loc 1 1514 1 view -0
	.cfi_startproc
	@ args = 0, pretend = 0, frame = 0
	@ frame_needed = 0, uses_anonymous_args = 0
	@ link register save eliminated.
	.loc 1 1515 3 view .LVU631
	.loc 1 1518 3 view .LVU632
	.loc 1 1519 3 view .LVU633
	.loc 1 1520 3 view .LVU634
	.loc 1 1521 3 view .LVU635
	.loc 1 1522 3 view .LVU636
	.loc 1 1523 3 view .LVU637
	.loc 1 1528 3 view .LVU638
	ldr	r3, .L368
	ldr	r2, [r3, #56]
	orr	r2, r2, #256
	.loc 1 1514 1 is_stmt 0 view .LVU639
	push	{r4}
.LCFI15:
	.cfi_def_cfa_offset 4
	.cfi_offset 4, -4
	.loc 1 1528 3 view .LVU640
	str	r2, [r3, #56]
	.loc 1 1529 3 is_stmt 1 view .LVU641
	ldr	r1, [r3, #56]
	.loc 1 1539 3 is_stmt 0 view .LVU642
	ldr	r2, .L368+4
	.loc 1 1529 3 view .LVU643
	bic	r1, r1, #256
	str	r1, [r3, #56]
	.loc 1 1534 3 is_stmt 1 view .LVU644
	.loc 1 1534 29 is_stmt 0 view .LVU645
	ldrd	r4, r1, [r0, #4]
	ldr	r3, [r0]
	orrs	r3, r3, r4
	.loc 1 1534 9 view .LVU646
	orrs	r3, r3, r1
.LVL125:
	.loc 1 1536 3 is_stmt 1 view .LVU647
	.loc 1 1536 9 is_stmt 0 view .LVU648
	ldrd	r4, r1, [r0, #12]
	orrs	r3, r3, r4
.LVL126:
	.loc 1 1538 3 is_stmt 1 view .LVU649
	.loc 1 1538 9 is_stmt 0 view .LVU650
	orr	r3, r3, r1, lsl #16
.LVL127:
	.loc 1 1539 3 is_stmt 1 view .LVU651
	str	r3, [r2, #4]
	.loc 1 1543 3 view .LVU652
	ldr	r3, [r2]
.LVL128:
	.loc 1 1543 3 is_stmt 0 view .LVU653
	ldr	r1, [r0, #20]
	.loc 1 1549 1 view .LVU654
	ldr	r4, [sp], #4
.LCFI16:
	.cfi_restore 4
	.cfi_def_cfa_offset 0
	.loc 1 1543 3 view .LVU655
	bic	r3, r3, #32512
	orr	r3, r3, r1, lsl #8
	str	r3, [r2]
.LVL129:
	.loc 1 1548 3 is_stmt 1 view .LVU656
	ldr	r3, [r2]
	orr	r3, r3, #96
	str	r3, [r2]
	.loc 1 1549 1 is_stmt 0 view .LVU657
	bx	lr
.L369:
	.align	2
.L368:
	.word	1073876992
	.word	1073750016
	.cfi_endproc
.LFE142:
	.size	HAL_RCCEx_CRSConfig, .-HAL_RCCEx_CRSConfig
	.section	.text.HAL_RCCEx_CRSSoftwareSynchronizationGenerate,"ax",%progbits
	.align	1
	.p2align 2,,3
	.global	HAL_RCCEx_CRSSoftwareSynchronizationGenerate
	.syntax unified
	.thumb
	.thumb_func
	.fpu fpv4-sp-d16
	.type	HAL_RCCEx_CRSSoftwareSynchronizationGenerate, %function
HAL_RCCEx_CRSSoftwareSynchronizationGenerate:
.LFB143:
	.loc 1 1556 1 is_stmt 1 view -0
	.cfi_startproc
	@ args = 0, pretend = 0, frame = 0
	@ frame_needed = 0, uses_anonymous_args = 0
	@ link register save eliminated.
	.loc 1 1557 3 view .LVU659
	ldr	r2, .L371
	ldr	r3, [r2]
	orr	r3, r3, #128
	str	r3, [r2]
	.loc 1 1558 1 is_stmt 0 view .LVU660
	bx	lr
.L372:
	.align	2
.L371:
	.word	1073750016
	.cfi_endproc
.LFE143:
	.size	HAL_RCCEx_CRSSoftwareSynchronizationGenerate, .-HAL_RCCEx_CRSSoftwareSynchronizationGenerate
	.section	.text.HAL_RCCEx_CRSGetSynchronizationInfo,"ax",%progbits
	.align	1
	.p2align 2,,3
	.global	HAL_RCCEx_CRSGetSynchronizationInfo
	.syntax unified
	.thumb
	.thumb_func
	.fpu fpv4-sp-d16
	.type	HAL_RCCEx_CRSGetSynchronizationInfo, %function
HAL_RCCEx_CRSGetSynchronizationInfo:
.LVL130:
.LFB144:
	.loc 1 1566 1 is_stmt 1 view -0
	.cfi_startproc
	@ args = 0, pretend = 0, frame = 0
	@ frame_needed = 0, uses_anonymous_args = 0
	@ link register save eliminated.
	.loc 1 1568 3 view .LVU662
	.loc 1 1571 3 view .LVU663
	.loc 1 1571 32 is_stmt 0 view .LVU664
	ldr	r3, .L374
	ldr	r2, [r3, #4]
	uxth	r2, r2
	.loc 1 1571 29 view .LVU665
	str	r2, [r0]
	.loc 1 1574 3 is_stmt 1 view .LVU666
	.loc 1 1574 42 is_stmt 0 view .LVU667
	ldr	r2, [r3]
	.loc 1 1574 73 view .LVU668
	ubfx	r2, r2, #8, #7
	.loc 1 1574 39 view .LVU669
	str	r2, [r0, #4]
	.loc 1 1577 3 is_stmt 1 view .LVU670
	.loc 1 1577 37 is_stmt 0 view .LVU671
	ldr	r2, [r3, #8]
	.loc 1 1577 71 view .LVU672
	lsrs	r2, r2, #16
	.loc 1 1577 34 view .LVU673
	str	r2, [r0, #8]
	.loc 1 1580 3 is_stmt 1 view .LVU674
	.loc 1 1580 39 is_stmt 0 view .LVU675
	ldr	r3, [r3, #8]
	and	r3, r3, #32768
	.loc 1 1580 36 view .LVU676
	str	r3, [r0, #12]
	.loc 1 1581 1 view .LVU677
	bx	lr
.L375:
	.align	2
.L374:
	.word	1073750016
	.cfi_endproc
.LFE144:
	.size	HAL_RCCEx_CRSGetSynchronizationInfo, .-HAL_RCCEx_CRSGetSynchronizationInfo
	.section	.text.HAL_RCCEx_CRSWaitSynchronization,"ax",%progbits
	.align	1
	.p2align 2,,3
	.global	HAL_RCCEx_CRSWaitSynchronization
	.syntax unified
	.thumb
	.thumb_func
	.fpu fpv4-sp-d16
	.type	HAL_RCCEx_CRSWaitSynchronization, %function
HAL_RCCEx_CRSWaitSynchronization:
.LVL131:
.LFB145:
	.loc 1 1599 1 is_stmt 1 view -0
	.cfi_startproc
	@ args = 0, pretend = 0, frame = 0
	@ frame_needed = 0, uses_anonymous_args = 0
	.loc 1 1600 3 view .LVU679
	.loc 1 1601 3 view .LVU680
	.loc 1 1604 3 view .LVU681
	.loc 1 1599 1 is_stmt 0 view .LVU682
	push	{r4, r5, r6, r7, r8, lr}
.LCFI17:
	.cfi_def_cfa_offset 24
	.cfi_offset 4, -24
	.cfi_offset 5, -20
	.cfi_offset 6, -16
	.cfi_offset 7, -12
	.cfi_offset 8, -8
	.cfi_offset 14, -4
	.loc 1 1599 1 view .LVU683
	mov	r5, r0
	.loc 1 1604 15 view .LVU684
	bl	HAL_GetTick
.LVL132:
	.loc 1 1604 15 view .LVU685
	adds	r3, r5, #1
	bne	.L377
	.loc 1 1617 8 view .LVU686
	ldr	r2, .L457
	.loc 1 1623 7 view .LVU687
	movs	r6, #1
	.loc 1 1633 7 view .LVU688
	movs	r5, #2
.LVL133:
	.loc 1 1643 7 view .LVU689
	movs	r0, #4
.LVL134:
	.loc 1 1670 7 view .LVU690
	movs	r4, #8
.LVL135:
.L387:
	.loc 1 1607 3 is_stmt 1 view .LVU691
	.loc 1 1609 5 view .LVU692
	.loc 1 1617 5 view .LVU693
	.loc 1 1617 8 is_stmt 0 view .LVU694
	ldr	r3, [r2, #8]
	.loc 1 1617 7 view .LVU695
	ands	r3, r3, #1
	.loc 1 1620 7 is_stmt 1 view .LVU696
.LVL136:
	.loc 1 1623 7 view .LVU697
	.loc 1 1623 7 view .LVU698
	.loc 1 1623 7 view .LVU699
	it	ne
	strne	r6, [r2, #12]
	.loc 1 1623 7 view .LVU700
	.loc 1 1627 5 view .LVU701
	.loc 1 1627 8 is_stmt 0 view .LVU702
	ldr	r1, [r2, #8]
	.loc 1 1623 7 view .LVU703
	it	ne
	movne	r3, #2
	.loc 1 1627 7 view .LVU704
	lsls	r7, r1, #30
	.loc 1 1630 7 is_stmt 1 view .LVU705
.LVL137:
	.loc 1 1633 7 is_stmt 0 view .LVU706
	it	mi
	strmi	r5, [r2, #12]
	.loc 1 1637 8 view .LVU707
	ldr	r1, [r2, #8]
	.loc 1 1630 17 view .LVU708
	it	mi
	orrmi	r3, r3, #4
.LVL138:
	.loc 1 1633 7 is_stmt 1 view .LVU709
	.loc 1 1633 7 view .LVU710
	.loc 1 1633 7 view .LVU711
	.loc 1 1633 7 view .LVU712
	.loc 1 1637 5 view .LVU713
	.loc 1 1637 7 is_stmt 0 view .LVU714
	lsls	r1, r1, #21
	.loc 1 1640 7 is_stmt 1 view .LVU715
.LVL139:
	.loc 1 1643 7 is_stmt 0 view .LVU716
	it	mi
	strmi	r0, [r2, #12]
	.loc 1 1647 8 view .LVU717
	ldr	r1, [r2, #8]
	.loc 1 1640 17 view .LVU718
	it	mi
	orrmi	r3, r3, #32
.LVL140:
	.loc 1 1643 7 is_stmt 1 view .LVU719
	.loc 1 1643 7 view .LVU720
	.loc 1 1643 7 view .LVU721
	.loc 1 1643 7 view .LVU722
	.loc 1 1647 5 view .LVU723
	.loc 1 1647 7 is_stmt 0 view .LVU724
	lsls	r7, r1, #23
	.loc 1 1650 7 is_stmt 1 view .LVU725
.LVL141:
	.loc 1 1653 7 is_stmt 0 view .LVU726
	it	mi
	strmi	r0, [r2, #12]
	.loc 1 1657 8 view .LVU727
	ldr	r1, [r2, #8]
	.loc 1 1650 17 view .LVU728
	it	mi
	orrmi	r3, r3, #8
.LVL142:
	.loc 1 1653 7 is_stmt 1 view .LVU729
	.loc 1 1653 7 view .LVU730
	.loc 1 1653 7 view .LVU731
	.loc 1 1653 7 view .LVU732
	.loc 1 1657 5 view .LVU733
	.loc 1 1657 7 is_stmt 0 view .LVU734
	lsls	r1, r1, #22
	bpl	.L455
	.loc 1 1660 7 is_stmt 1 view .LVU735
.LVL143:
	.loc 1 1663 7 is_stmt 0 view .LVU736
	str	r0, [r2, #12]
	.loc 1 1667 8 view .LVU737
	ldr	r1, [r2, #8]
	.loc 1 1667 7 view .LVU738
	lsls	r1, r1, #28
	.loc 1 1660 17 view .LVU739
	orr	r3, r3, #16
.LVL144:
	.loc 1 1663 7 is_stmt 1 view .LVU740
	.loc 1 1663 7 view .LVU741
	.loc 1 1663 7 view .LVU742
	.loc 1 1663 7 view .LVU743
	.loc 1 1667 5 view .LVU744
	.loc 1 1667 7 is_stmt 0 view .LVU745
	bpl	.L376
.LVL145:
.L385:
	.loc 1 1670 7 is_stmt 1 view .LVU746
	.loc 1 1670 7 view .LVU747
	.loc 1 1670 7 view .LVU748
	.loc 1 1670 7 view .LVU749
	.loc 1 1672 10 view .LVU750
	.loc 1 1670 7 is_stmt 0 view .LVU751
	str	r4, [r2, #12]
	.loc 1 1672 3 view .LVU752
	cmp	r3, #0
	beq	.L387
.L376:
	.loc 1 1675 1 view .LVU753
	mov	r0, r3
	pop	{r4, r5, r6, r7, r8, pc}
.L455:
	.loc 1 1663 7 is_stmt 1 view .LVU754
	.loc 1 1667 5 view .LVU755
	.loc 1 1667 8 is_stmt 0 view .LVU756
	ldr	r1, [r2, #8]
	.loc 1 1667 7 view .LVU757
	lsls	r7, r1, #28
	bmi	.L385
	.loc 1 1670 7 is_stmt 1 view .LVU758
	.loc 1 1672 10 view .LVU759
	.loc 1 1672 3 is_stmt 0 view .LVU760
	cmp	r3, #0
	beq	.L387
	b	.L376
.LVL146:
.L377:
	.loc 1 1672 3 view .LVU761
	cmp	r5, #0
	beq	.L389
	.loc 1 1617 8 view .LVU762
	ldr	r4, .L457
	mov	r6, r0
	.loc 1 1623 7 view .LVU763
	mov	r8, #1
	.loc 1 1633 7 view .LVU764
	movs	r7, #2
.LVL147:
.L399:
	.loc 1 1607 3 is_stmt 1 view .LVU765
	.loc 1 1609 5 view .LVU766
	.loc 1 1611 7 view .LVU767
	.loc 1 1611 12 is_stmt 0 view .LVU768
	bl	HAL_GetTick
.LVL148:
	.loc 1 1617 8 view .LVU769
	ldr	r2, [r4, #8]
	.loc 1 1611 26 view .LVU770
	subs	r3, r0, r6
	.loc 1 1611 9 view .LVU771
	cmp	r5, r3
	itete	cs
	movcs	r1, #2
	movcc	r1, #3
	movcs	r3, #0
	movcc	r3, #1
.LVL149:
	.loc 1 1617 5 is_stmt 1 view .LVU772
	.loc 1 1617 7 is_stmt 0 view .LVU773
	lsls	r2, r2, #31
	.loc 1 1620 7 is_stmt 1 view .LVU774
	.loc 1 1623 7 view .LVU775
	.loc 1 1623 7 view .LVU776
	.loc 1 1623 7 view .LVU777
	it	mi
	strmi	r8, [r4, #12]
.LVL150:
	.loc 1 1623 7 view .LVU778
	.loc 1 1627 5 view .LVU779
	.loc 1 1627 8 is_stmt 0 view .LVU780
	ldr	r2, [r4, #8]
	.loc 1 1623 7 view .LVU781
	it	mi
	movmi	r3, r1
	.loc 1 1627 7 view .LVU782
	lsls	r0, r2, #30
	.loc 1 1630 7 is_stmt 1 view .LVU783
.LVL151:
	.loc 1 1633 7 is_stmt 0 view .LVU784
	it	mi
	strmi	r7, [r4, #12]
	.loc 1 1637 8 view .LVU785
	ldr	r2, [r4, #8]
	.loc 1 1630 17 view .LVU786
	it	mi
	orrmi	r3, r3, #4
.LVL152:
	.loc 1 1633 7 is_stmt 1 view .LVU787
	.loc 1 1633 7 view .LVU788
	.loc 1 1633 7 view .LVU789
	.loc 1 1633 7 view .LVU790
	.loc 1 1637 5 view .LVU791
	.loc 1 1637 7 is_stmt 0 view .LVU792
	lsls	r1, r2, #21
	bpl	.L393
	.loc 1 1640 7 is_stmt 1 view .LVU793
.LVL153:
	.loc 1 1643 7 is_stmt 0 view .LVU794
	movs	r2, #4
	.loc 1 1640 17 view .LVU795
	orr	r3, r3, #32
.LVL154:
	.loc 1 1643 7 is_stmt 1 view .LVU796
	.loc 1 1643 7 view .LVU797
	.loc 1 1643 7 view .LVU798
	str	r2, [r4, #12]
.LVL155:
.L393:
	.loc 1 1643 7 view .LVU799
	.loc 1 1647 5 view .LVU800
	.loc 1 1647 8 is_stmt 0 view .LVU801
	ldr	r2, [r4, #8]
	.loc 1 1647 7 view .LVU802
	lsls	r2, r2, #23
	bpl	.L394
	.loc 1 1650 7 is_stmt 1 view .LVU803
.LVL156:
	.loc 1 1653 7 is_stmt 0 view .LVU804
	movs	r2, #4
	.loc 1 1650 17 view .LVU805
	orr	r3, r3, #8
.LVL157:
	.loc 1 1653 7 is_stmt 1 view .LVU806
	.loc 1 1653 7 view .LVU807
	.loc 1 1653 7 view .LVU808
	str	r2, [r4, #12]
.LVL158:
.L394:
	.loc 1 1653 7 view .LVU809
	.loc 1 1657 5 view .LVU810
	.loc 1 1657 8 is_stmt 0 view .LVU811
	ldr	r2, [r4, #8]
	.loc 1 1657 7 view .LVU812
	lsls	r0, r2, #22
	bpl	.L456
	.loc 1 1660 7 is_stmt 1 view .LVU813
.LVL159:
	.loc 1 1663 7 is_stmt 0 view .LVU814
	movs	r2, #4
	str	r2, [r4, #12]
	.loc 1 1667 8 view .LVU815
	ldr	r2, [r4, #8]
	.loc 1 1667 7 view .LVU816
	lsls	r2, r2, #28
	.loc 1 1660 17 view .LVU817
	orr	r3, r3, #16
.LVL160:
	.loc 1 1663 7 is_stmt 1 view .LVU818
	.loc 1 1663 7 view .LVU819
	.loc 1 1663 7 view .LVU820
	.loc 1 1663 7 view .LVU821
	.loc 1 1667 5 view .LVU822
	.loc 1 1667 7 is_stmt 0 view .LVU823
	bpl	.L376
.LVL161:
.L398:
	.loc 1 1670 7 is_stmt 1 view .LVU824
	.loc 1 1670 7 view .LVU825
	.loc 1 1670 7 view .LVU826
	.loc 1 1670 7 view .LVU827
	.loc 1 1672 10 view .LVU828
	.loc 1 1670 7 is_stmt 0 view .LVU829
	movs	r2, #8
	str	r2, [r4, #12]
	.loc 1 1672 3 view .LVU830
	cmp	r3, #0
	beq	.L399
	b	.L376
.LVL162:
.L389:
	.loc 1 1607 3 is_stmt 1 view .LVU831
	.loc 1 1609 5 view .LVU832
	.loc 1 1611 7 view .LVU833
	.loc 1 1611 12 is_stmt 0 view .LVU834
	bl	HAL_GetTick
.LVL163:
	.loc 1 1617 5 is_stmt 1 view .LVU835
	.loc 1 1617 8 is_stmt 0 view .LVU836
	ldr	r3, .L457
	ldr	r2, [r3, #8]
	.loc 1 1617 7 view .LVU837
	lsls	r7, r2, #31
	.loc 1 1620 7 is_stmt 1 view .LVU838
.LVL164:
	.loc 1 1623 7 view .LVU839
	.loc 1 1623 7 view .LVU840
	.loc 1 1623 7 view .LVU841
	itt	mi
	movmi	r2, #1
	strmi	r2, [r3, #12]
	.loc 1 1627 8 is_stmt 0 view .LVU842
	ldr	r2, .L457
	ldr	r1, [r2, #8]
	.loc 1 1623 7 view .LVU843
	ite	mi
	movmi	r3, #3
.LVL165:
	.loc 1 1623 7 is_stmt 1 view .LVU844
	.loc 1 1627 5 view .LVU845
	movpl	r3, #1
	.loc 1 1627 7 is_stmt 0 view .LVU846
	lsls	r6, r1, #30
	bpl	.L401
	.loc 1 1630 7 is_stmt 1 view .LVU847
.LVL166:
	.loc 1 1633 7 is_stmt 0 view .LVU848
	movs	r1, #2
	.loc 1 1630 17 view .LVU849
	orr	r3, r3, #4
.LVL167:
	.loc 1 1633 7 is_stmt 1 view .LVU850
	.loc 1 1633 7 view .LVU851
	.loc 1 1633 7 view .LVU852
	str	r1, [r2, #12]
.LVL168:
.L401:
	.loc 1 1633 7 discriminator 4 view .LVU853
	.loc 1 1637 5 discriminator 4 view .LVU854
	.loc 1 1637 8 is_stmt 0 discriminator 4 view .LVU855
	ldr	r2, .L457
	ldr	r1, [r2, #8]
	.loc 1 1637 7 discriminator 4 view .LVU856
	lsls	r5, r1, #21
.LVL169:
	.loc 1 1637 7 discriminator 4 view .LVU857
	bpl	.L402
	.loc 1 1640 7 is_stmt 1 view .LVU858
.LVL170:
	.loc 1 1643 7 is_stmt 0 view .LVU859
	movs	r1, #4
	.loc 1 1640 17 view .LVU860
	orr	r3, r3, #32
.LVL171:
	.loc 1 1643 7 is_stmt 1 view .LVU861
	.loc 1 1643 7 view .LVU862
	.loc 1 1643 7 view .LVU863
	str	r1, [r2, #12]
.LVL172:
.L402:
	.loc 1 1643 7 discriminator 4 view .LVU864
	.loc 1 1647 5 discriminator 4 view .LVU865
	.loc 1 1647 8 is_stmt 0 discriminator 4 view .LVU866
	ldr	r2, .L457
	ldr	r1, [r2, #8]
	.loc 1 1647 7 discriminator 4 view .LVU867
	lsls	r4, r1, #23
	bpl	.L403
	.loc 1 1650 7 is_stmt 1 view .LVU868
.LVL173:
	.loc 1 1653 7 is_stmt 0 view .LVU869
	movs	r1, #4
	.loc 1 1650 17 view .LVU870
	orr	r3, r3, #8
.LVL174:
	.loc 1 1653 7 is_stmt 1 view .LVU871
	.loc 1 1653 7 view .LVU872
	.loc 1 1653 7 view .LVU873
	str	r1, [r2, #12]
.LVL175:
.L403:
	.loc 1 1653 7 discriminator 4 view .LVU874
	.loc 1 1657 5 discriminator 4 view .LVU875
	.loc 1 1657 8 is_stmt 0 discriminator 4 view .LVU876
	ldr	r2, .L457
	ldr	r1, [r2, #8]
	.loc 1 1657 7 discriminator 4 view .LVU877
	lsls	r0, r1, #22
	bpl	.L404
	.loc 1 1660 7 is_stmt 1 view .LVU878
.LVL176:
	.loc 1 1663 7 is_stmt 0 view .LVU879
	movs	r1, #4
	str	r1, [r2, #12]
	.loc 1 1667 8 view .LVU880
	ldr	r2, [r2, #8]
	.loc 1 1667 7 view .LVU881
	lsls	r1, r2, #28
	.loc 1 1660 17 view .LVU882
	orr	r3, r3, #16
.LVL177:
	.loc 1 1663 7 is_stmt 1 view .LVU883
	.loc 1 1663 7 view .LVU884
	.loc 1 1663 7 view .LVU885
	.loc 1 1663 7 view .LVU886
	.loc 1 1667 5 view .LVU887
	.loc 1 1667 7 is_stmt 0 view .LVU888
	bpl	.L376
.LVL178:
.L405:
	.loc 1 1670 7 is_stmt 1 discriminator 2 view .LVU889
	.loc 1 1670 7 discriminator 2 view .LVU890
	.loc 1 1670 7 discriminator 2 view .LVU891
	ldr	r2, .L457
	movs	r1, #8
	str	r1, [r2, #12]
	.loc 1 1670 7 discriminator 2 view .LVU892
	.loc 1 1672 10 discriminator 2 view .LVU893
	.loc 1 1675 1 is_stmt 0 discriminator 2 view .LVU894
	mov	r0, r3
	pop	{r4, r5, r6, r7, r8, pc}
.LVL179:
.L456:
	.loc 1 1663 7 is_stmt 1 view .LVU895
	.loc 1 1667 5 view .LVU896
	.loc 1 1667 8 is_stmt 0 view .LVU897
	ldr	r2, [r4, #8]
	.loc 1 1667 7 view .LVU898
	lsls	r1, r2, #28
	bmi	.L398
	.loc 1 1670 7 is_stmt 1 view .LVU899
	.loc 1 1672 10 view .LVU900
	.loc 1 1672 3 is_stmt 0 view .LVU901
	cmp	r3, #0
	beq	.L399
	b	.L376
.LVL180:
.L404:
	.loc 1 1663 7 is_stmt 1 discriminator 4 view .LVU902
	.loc 1 1667 5 discriminator 4 view .LVU903
	.loc 1 1667 8 is_stmt 0 discriminator 4 view .LVU904
	ldr	r2, [r2, #8]
	.loc 1 1667 7 discriminator 4 view .LVU905
	lsls	r2, r2, #28
	bpl	.L376
	b	.L405
.L458:
	.align	2
.L457:
	.word	1073750016
	.cfi_endproc
.LFE145:
	.size	HAL_RCCEx_CRSWaitSynchronization, .-HAL_RCCEx_CRSWaitSynchronization
	.section	.text.HAL_RCCEx_CRS_SyncOkCallback,"ax",%progbits
	.align	1
	.p2align 2,,3
	.weak	HAL_RCCEx_CRS_SyncOkCallback
	.syntax unified
	.thumb
	.thumb_func
	.fpu fpv4-sp-d16
	.type	HAL_RCCEx_CRS_SyncOkCallback, %function
HAL_RCCEx_CRS_SyncOkCallback:
.LFB152:
	.cfi_startproc
	@ args = 0, pretend = 0, frame = 0
	@ frame_needed = 0, uses_anonymous_args = 0
	@ link register save eliminated.
	bx	lr
	.cfi_endproc
.LFE152:
	.size	HAL_RCCEx_CRS_SyncOkCallback, .-HAL_RCCEx_CRS_SyncOkCallback
	.section	.text.HAL_RCCEx_CRS_SyncWarnCallback,"ax",%progbits
	.align	1
	.p2align 2,,3
	.weak	HAL_RCCEx_CRS_SyncWarnCallback
	.syntax unified
	.thumb
	.thumb_func
	.fpu fpv4-sp-d16
	.type	HAL_RCCEx_CRS_SyncWarnCallback, %function
HAL_RCCEx_CRS_SyncWarnCallback:
.LFB154:
	.cfi_startproc
	@ args = 0, pretend = 0, frame = 0
	@ frame_needed = 0, uses_anonymous_args = 0
	@ link register save eliminated.
	bx	lr
	.cfi_endproc
.LFE154:
	.size	HAL_RCCEx_CRS_SyncWarnCallback, .-HAL_RCCEx_CRS_SyncWarnCallback
	.section	.text.HAL_RCCEx_CRS_ExpectedSyncCallback,"ax",%progbits
	.align	1
	.p2align 2,,3
	.weak	HAL_RCCEx_CRS_ExpectedSyncCallback
	.syntax unified
	.thumb
	.thumb_func
	.fpu fpv4-sp-d16
	.type	HAL_RCCEx_CRS_ExpectedSyncCallback, %function
HAL_RCCEx_CRS_ExpectedSyncCallback:
.LFB156:
	.cfi_startproc
	@ args = 0, pretend = 0, frame = 0
	@ frame_needed = 0, uses_anonymous_args = 0
	@ link register save eliminated.
	bx	lr
	.cfi_endproc
.LFE156:
	.size	HAL_RCCEx_CRS_ExpectedSyncCallback, .-HAL_RCCEx_CRS_ExpectedSyncCallback
	.section	.text.HAL_RCCEx_CRS_ErrorCallback,"ax",%progbits
	.align	1
	.p2align 2,,3
	.weak	HAL_RCCEx_CRS_ErrorCallback
	.syntax unified
	.thumb
	.thumb_func
	.fpu fpv4-sp-d16
	.type	HAL_RCCEx_CRS_ErrorCallback, %function
HAL_RCCEx_CRS_ErrorCallback:
.LVL181:
.LFB150:
	.loc 1 1785 1 is_stmt 1 view -0
	.cfi_startproc
	@ args = 0, pretend = 0, frame = 0
	@ frame_needed = 0, uses_anonymous_args = 0
	@ link register save eliminated.
	.loc 1 1787 3 view .LVU907
	.loc 1 1792 1 is_stmt 0 view .LVU908
	bx	lr
	.cfi_endproc
.LFE150:
	.size	HAL_RCCEx_CRS_ErrorCallback, .-HAL_RCCEx_CRS_ErrorCallback
	.section	.text.HAL_RCCEx_CRS_IRQHandler,"ax",%progbits
	.align	1
	.p2align 2,,3
	.global	HAL_RCCEx_CRS_IRQHandler
	.syntax unified
	.thumb
	.thumb_func
	.fpu fpv4-sp-d16
	.type	HAL_RCCEx_CRS_IRQHandler, %function
HAL_RCCEx_CRS_IRQHandler:
.LFB146:
	.loc 1 1682 1 is_stmt 1 view -0
	.cfi_startproc
	@ args = 0, pretend = 0, frame = 0
	@ frame_needed = 0, uses_anonymous_args = 0
	.loc 1 1683 3 view .LVU910
.LVL182:
	.loc 1 1685 3 view .LVU911
	.loc 1 1685 12 is_stmt 0 view .LVU912
	ldr	r2, .L502
	ldr	r3, [r2, #8]
.LVL183:
	.loc 1 1686 3 is_stmt 1 view .LVU913
	.loc 1 1686 12 is_stmt 0 view .LVU914
	ldr	r1, [r2]
.LVL184:
	.loc 1 1689 3 is_stmt 1 view .LVU915
	.loc 1 1682 1 is_stmt 0 view .LVU916
	push	{r4, lr}
.LCFI18:
	.cfi_def_cfa_offset 8
	.cfi_offset 4, -8
	.cfi_offset 14, -4
	.loc 1 1689 5 view .LVU917
	lsls	r4, r3, #31
	bpl	.L464
	.loc 1 1689 46 discriminator 1 view .LVU918
	lsls	r0, r1, #31
	bmi	.L499
.L464:
	.loc 1 1698 8 is_stmt 1 view .LVU919
	.loc 1 1698 10 is_stmt 0 view .LVU920
	lsls	r4, r3, #30
	bpl	.L466
	.loc 1 1698 53 discriminator 1 view .LVU921
	lsls	r0, r1, #30
	bmi	.L500
.L466:
	.loc 1 1707 8 is_stmt 1 view .LVU922
	.loc 1 1707 10 is_stmt 0 view .LVU923
	lsls	r2, r3, #28
	bpl	.L467
	.loc 1 1707 50 discriminator 1 view .LVU924
	lsls	r4, r1, #28
	bmi	.L501
.L467:
	.loc 1 1718 5 is_stmt 1 view .LVU925
	.loc 1 1718 7 is_stmt 0 view .LVU926
	lsls	r0, r3, #29
	bpl	.L463
	.loc 1 1718 45 discriminator 1 view .LVU927
	lsls	r2, r1, #29
	bpl	.L463
	.loc 1 1720 7 is_stmt 1 view .LVU928
	.loc 1 1720 9 is_stmt 0 view .LVU929
	ands	r1, r3, #256
.LVL185:
	.loc 1 1720 9 view .LVU930
	beq	.L471
	movs	r2, #56
	mov	ip, #40
	movs	r0, #24
	.loc 1 1722 18 view .LVU931
	movs	r1, #8
.L468:
.LVL186:
	.loc 1 1724 7 is_stmt 1 view .LVU932
	.loc 1 1724 19 is_stmt 0 view .LVU933
	and	r4, r3, #512
	.loc 1 1724 9 view .LVU934
	cmp	r4, #0
	.loc 1 1734 7 view .LVU935
	ldr	r4, .L502
	.loc 1 1724 9 view .LVU936
	itt	eq
	moveq	r2, ip
	moveq	r0, r1
.LVL187:
	.loc 1 1728 7 is_stmt 1 view .LVU937
	.loc 1 1730 18 is_stmt 0 view .LVU938
	tst	r3, #1024
.LVL188:
	.loc 1 1734 7 is_stmt 1 view .LVU939
	mov	r3, #4
.LVL189:
	.loc 1 1734 7 is_stmt 0 view .LVU940
	str	r3, [r4, #12]
	.loc 1 1737 7 is_stmt 1 view .LVU941
	it	ne
	movne	r0, r2
.LVL190:
	.loc 1 1737 7 is_stmt 0 view .LVU942
	bl	HAL_RCCEx_CRS_ErrorCallback
.LVL191:
.L463:
	.loc 1 1740 1 view .LVU943
	pop	{r4, pc}
.LVL192:
.L499:
	.loc 1 1692 5 is_stmt 1 view .LVU944
	movs	r3, #1
.LVL193:
	.loc 1 1692 5 is_stmt 0 view .LVU945
	str	r3, [r2, #12]
	.loc 1 1695 5 is_stmt 1 view .LVU946
	bl	HAL_RCCEx_CRS_SyncOkCallback
.LVL194:
	.loc 1 1740 1 is_stmt 0 view .LVU947
	pop	{r4, pc}
.LVL195:
.L500:
	.loc 1 1701 5 is_stmt 1 view .LVU948
	ldr	r3, .L502
.LVL196:
	.loc 1 1701 5 is_stmt 0 view .LVU949
	movs	r2, #2
	str	r2, [r3, #12]
	.loc 1 1704 5 is_stmt 1 view .LVU950
	bl	HAL_RCCEx_CRS_SyncWarnCallback
.LVL197:
	.loc 1 1740 1 is_stmt 0 view .LVU951
	pop	{r4, pc}
.LVL198:
.L501:
	.loc 1 1710 5 is_stmt 1 view .LVU952
	ldr	r3, .L502
.LVL199:
	.loc 1 1710 5 is_stmt 0 view .LVU953
	movs	r2, #8
	str	r2, [r3, #12]
	.loc 1 1713 5 is_stmt 1 view .LVU954
	bl	HAL_RCCEx_CRS_ExpectedSyncCallback
.LVL200:
	.loc 1 1740 1 is_stmt 0 view .LVU955
	pop	{r4, pc}
.LVL201:
.L471:
	.loc 1 1740 1 view .LVU956
	movs	r2, #48
	mov	ip, #32
	movs	r0, #16
	b	.L468
.L503:
	.align	2
.L502:
	.word	1073750016
	.cfi_endproc
.LFE146:
	.size	HAL_RCCEx_CRS_IRQHandler, .-HAL_RCCEx_CRS_IRQHandler
	.text
.Letext0:
	.file 2 "/usr/share/gcc-arm-none-eabi-10-2020-q4-major/arm-none-eabi/include/machine/_default_types.h"
	.file 3 "/usr/share/gcc-arm-none-eabi-10-2020-q4-major/arm-none-eabi/include/sys/_stdint.h"
	.file 4 "Drivers/CMSIS/Device/ST/STM32G4xx/Include/stm32g431xx.h"
	.file 5 "Drivers/CMSIS/Device/ST/STM32G4xx/Include/stm32g4xx.h"
	.file 6 "Drivers/STM32G4xx_HAL_Driver/Inc/stm32g4xx_hal_def.h"
	.file 7 "Drivers/STM32G4xx_HAL_Driver/Inc/stm32g4xx_hal_rcc_ex.h"
	.file 8 "Drivers/STM32G4xx_HAL_Driver/Inc/stm32g4xx_hal_gpio.h"
	.file 9 "Drivers/STM32G4xx_HAL_Driver/Inc/stm32g4xx_hal.h"
	.file 10 "Drivers/STM32G4xx_HAL_Driver/Inc/stm32g4xx_hal_pwr.h"
	.file 11 "Drivers/STM32G4xx_HAL_Driver/Inc/stm32g4xx_hal_rcc.h"