	.cpu cortex-m4
	.eabi_attribute 27, 1
	.eabi_attribute 28, 1
	.eabi_attribute 20, 1
	.eabi_attribute 21, 1
	.eabi_attribute 23, 3
	.eabi_attribute 24, 1
	.eabi_attribute 25, 1
	.eabi_attribute 26, 1
	.eabi_attribute 30, 2
	.eabi_attribute 34, 1
	.eabi_attribute 18, 4
	.file	"stm32g4xx_hal_rcc.c"
	.text
.Ltext0:
	.cfi_sections	.debug_frame
	.section	.text.HAL_RCC_DeInit,"ax",%progbits
	.align	1
	.p2align 2,,3
	.global	HAL_RCC_DeInit
	.arch armv7e-m
	.syntax unified
	.thumb
	.thumb_func
	.fpu fpv4-sp-d16
	.type	HAL_RCC_DeInit, %function
HAL_RCC_DeInit:
.LFB132:
	.file 1 "Drivers/STM32G4xx_HAL_Driver/Src/stm32g4xx_hal_rcc.c"
	.loc 1 220 1 view -0
	.cfi_startproc
	@ args = 0, pretend = 0, frame = 0
	@ frame_needed = 0, uses_anonymous_args = 0
	.loc 1 221 3 view .LVU1
	.loc 1 224 3 view .LVU2
	.loc 1 220 1 is_stmt 0 view .LVU3
	push	{r4, r5, r6, lr}
.LCFI0:
	.cfi_def_cfa_offset 16
	.cfi_offset 4, -16
	.cfi_offset 5, -12
	.cfi_offset 6, -8
	.cfi_offset 14, -4
	.loc 1 227 3 view .LVU4
	ldr	r4, .L15
	.loc 1 224 15 view .LVU5
	bl	HAL_GetTick
.LVL0:
	.loc 1 227 3 view .LVU6
	ldr	r3, [r4]
	orr	r3, r3, #256
	.loc 1 224 15 view .LVU7
	mov	r5, r0
.LVL1:
	.loc 1 227 3 is_stmt 1 view .LVU8
	str	r3, [r4]
	.loc 1 230 3 view .LVU9
	.loc 1 230 9 is_stmt 0 view .LVU10
	b	.L2
.LVL2:
.L4:
	.loc 1 232 10 view .LVU11
	bl	HAL_GetTick
.LVL3:
	.loc 1 232 24 view .LVU12
	subs	r0, r0, r5
	.loc 1 232 8 view .LVU13
	cmp	r0, #2
	bhi	.L6
.L2:
	.loc 1 232 5 is_stmt 1 view .LVU14
	.loc 1 230 9 view .LVU15
	.loc 1 230 10 is_stmt 0 view .LVU16
	ldr	r3, [r4]
	.loc 1 230 9 view .LVU17
	lsls	r3, r3, #21
	bpl	.L4
	.loc 1 239 3 is_stmt 1 view .LVU18
	ldr	r3, [r4, #4]
	.loc 1 248 10 is_stmt 0 view .LVU19
	ldr	r6, .L15
	.loc 1 239 3 view .LVU20
	orr	r3, r3, #1073741824
	str	r3, [r4, #4]
	.loc 1 242 3 is_stmt 1 view .LVU21
	.loc 1 242 15 is_stmt 0 view .LVU22
	bl	HAL_GetTick
.LVL4:
	.loc 1 245 13 view .LVU23
	movs	r3, #1
	str	r3, [r4, #8]
	.loc 1 242 15 view .LVU24
	mov	r5, r0
.LVL5:
	.loc 1 245 3 is_stmt 1 view .LVU25
	.loc 1 248 3 view .LVU26
	.loc 1 250 8 is_stmt 0 view .LVU27
	movw	r4, #5000
	.loc 1 248 9 view .LVU28
	b	.L5
.LVL6:
.L7:
	.loc 1 250 10 view .LVU29
	bl	HAL_GetTick
.LVL7:
	.loc 1 250 24 view .LVU30
	subs	r0, r0, r5
	.loc 1 250 8 view .LVU31
	cmp	r0, r4
	bhi	.L6
.L5:
	.loc 1 250 5 is_stmt 1 view .LVU32
	.loc 1 248 9 view .LVU33
	.loc 1 248 10 is_stmt 0 view .LVU34
	ldr	r3, [r6, #8]
	and	r3, r3, #12
	.loc 1 248 9 view .LVU35
	cmp	r3, #4
	bne	.L7
	.loc 1 257 3 is_stmt 1 view .LVU36
	.loc 1 260 7 is_stmt 0 view .LVU37
	ldr	r1, .L15+4
	.loc 1 257 19 view .LVU38
	ldr	r3, .L15+8
	ldr	r2, .L15+12
	.loc 1 260 7 view .LVU39
	ldr	r0, [r1]
	.loc 1 257 19 view .LVU40
	str	r2, [r3]
	.loc 1 260 3 is_stmt 1 view .LVU41
	.loc 1 260 7 is_stmt 0 view .LVU42
	bl	HAL_InitTick
.LVL8:
	.loc 1 260 6 view .LVU43
	mov	r4, r0
	cbz	r0, .L14
	.loc 1 262 12 view .LVU44
	movs	r4, #1
	.loc 1 296 1 view .LVU45
	mov	r0, r4
	pop	{r4, r5, r6, pc}
.LVL9:
.L6:
	.loc 1 234 14 view .LVU46
	movs	r4, #3
.L3:
	.loc 1 296 1 view .LVU47
	mov	r0, r4
	pop	{r4, r5, r6, pc}
.LVL10:
.L14:
	.loc 1 266 3 is_stmt 1 view .LVU48
	.loc 1 266 11 is_stmt 0 view .LVU49
	mov	r3, #256
	str	r3, [r6]
	.loc 1 269 3 is_stmt 1 view .LVU50
	.loc 1 269 11 is_stmt 0 view .LVU51
	str	r3, [r6]
	.loc 1 272 3 is_stmt 1 view .LVU52
	.loc 1 272 15 is_stmt 0 view .LVU53
	bl	HAL_GetTick
.LVL11:
	.loc 1 275 10 view .LVU54
	ldr	r6, .L15
	.loc 1 272 15 view .LVU55
	mov	r5, r0
.LVL12:
	.loc 1 275 3 is_stmt 1 view .LVU56
	.loc 1 275 9 is_stmt 0 view .LVU57
	b	.L8
.LVL13:
.L9:
	.loc 1 277 10 view .LVU58
	bl	HAL_GetTick
.LVL14:
	.loc 1 277 24 view .LVU59
	subs	r3, r0, r5
	.loc 1 277 8 view .LVU60
	cmp	r3, #2
	bhi	.L6
.L8:
	.loc 1 277 5 is_stmt 1 view .LVU61
	.loc 1 275 9 view .LVU62
	.loc 1 275 10 is_stmt 0 view .LVU63
	ldr	r3, [r6]
	.loc 1 275 9 view .LVU64
	ands	r3, r3, #33554432
	bne	.L9
	.loc 1 284 3 is_stmt 1 view .LVU65
	.loc 1 284 16 is_stmt 0 view .LVU66
	mov	r1, #4096
	.loc 1 290 3 view .LVU67
	mov	r2, #-1
	.loc 1 284 16 view .LVU68
	str	r1, [r6, #12]
	.loc 1 287 3 is_stmt 1 view .LVU69
	str	r3, [r6, #24]
	.loc 1 290 3 view .LVU70
	str	r2, [r6, #32]
	.loc 1 293 3 view .LVU71
	ldr	r3, [r6, #148]
	orr	r3, r3, #8388608
	str	r3, [r6, #148]
	.loc 1 295 3 view .LVU72
	.loc 1 295 10 is_stmt 0 view .LVU73
	b	.L3
.L16:
	.align	2
.L15:
	.word	1073876992
	.word	uwTickPrio
	.word	SystemCoreClock
	.word	16000000
	.cfi_endproc
.LFE132:
	.size	HAL_RCC_DeInit, .-HAL_RCC_DeInit
	.section	.text.HAL_RCC_OscConfig,"ax",%progbits
	.align	1
	.p2align 2,,3
	.global	HAL_RCC_OscConfig
	.syntax unified
	.thumb
	.thumb_func
	.fpu fpv4-sp-d16
	.type	HAL_RCC_OscConfig, %function
HAL_RCC_OscConfig:
.LVL15:
.LFB133:
	.loc 1 313 1 is_stmt 1 view -0
	.cfi_startproc
	@ args = 0, pretend = 0, frame = 8
	@ frame_needed = 0, uses_anonymous_args = 0
	.loc 1 314 3 view .LVU75
	.loc 1 315 3 view .LVU76
	.loc 1 316 3 view .LVU77
	.loc 1 319 3 view .LVU78
	.loc 1 319 6 is_stmt 0 view .LVU79
	cmp	r0, #0
	beq	.L132
	.loc 1 325 3 is_stmt 1 view .LVU80
	.loc 1 328 3 view .LVU81
	.loc 1 313 1 is_stmt 0 view .LVU82
	push	{r4, r5, r6, r7, r8, lr}
.LCFI1:
	.cfi_def_cfa_offset 24
	.cfi_offset 4, -24
	.cfi_offset 5, -20
	.cfi_offset 6, -16
	.cfi_offset 7, -12
	.cfi_offset 8, -8
	.cfi_offset 14, -4
	.loc 1 328 26 view .LVU83
	ldr	r3, [r0]
	.loc 1 328 6 view .LVU84
	lsls	r1, r3, #31
	.loc 1 313 1 view .LVU85
	sub	sp, sp, #8
.LCFI2:
	.cfi_def_cfa_offset 32
	mov	r4, r0
	.loc 1 328 6 view .LVU86
	bpl	.L20
	.loc 1 331 5 is_stmt 1 view .LVU87
	.loc 1 333 5 view .LVU88
	.loc 1 333 22 is_stmt 0 view .LVU89
	ldr	r1, .L141
	ldr	r2, [r1, #8]
	.loc 1 334 21 view .LVU90
	ldr	r1, [r1, #12]
	.loc 1 333 20 view .LVU91
	and	r2, r2, #12
.LVL16:
	.loc 1 334 5 is_stmt 1 view .LVU92
	.loc 1 337 5 view .LVU93
	.loc 1 337 8 is_stmt 0 view .LVU94
	cmp	r2, #12
	beq	.L133
	.loc 1 337 88 discriminator 3 view .LVU95
	cmp	r2, #8
	beq	.L22
.LVL17:
.L23:
	.loc 1 347 7 is_stmt 1 view .LVU96
	.loc 1 347 7 view .LVU97
	ldr	r3, [r4, #4]
	cmp	r3, #65536
	beq	.L134
	.loc 1 347 7 discriminator 2 view .LVU98
	cmp	r3, #327680
	beq	.L135
	.loc 1 347 7 discriminator 5 view .LVU99
	ldr	r5, .L141
	ldr	r2, [r5]
.LVL18:
	.loc 1 347 7 is_stmt 0 discriminator 5 view .LVU100
	bic	r2, r2, #65536
	str	r2, [r5]
	.loc 1 347 7 is_stmt 1 discriminator 5 view .LVU101
	ldr	r2, [r5]
	bic	r2, r2, #262144
	str	r2, [r5]
	.loc 1 347 7 discriminator 5 view .LVU102
	.loc 1 350 7 discriminator 5 view .LVU103
	.loc 1 350 10 is_stmt 0 discriminator 5 view .LVU104
	cmp	r3, #0
	bne	.L26
	.loc 1 367 9 is_stmt 1 view .LVU105
	.loc 1 367 21 is_stmt 0 view .LVU106
	bl	HAL_GetTick
.LVL19:
	.loc 1 367 21 view .LVU107
	mov	r6, r0
.LVL20:
	.loc 1 370 9 is_stmt 1 view .LVU108
	.loc 1 370 15 is_stmt 0 view .LVU109
	b	.L31
.LVL21:
.L33:
	.loc 1 372 16 view .LVU110
	bl	HAL_GetTick
.LVL22:
	.loc 1 372 30 view .LVU111
	subs	r0, r0, r6
	.loc 1 372 14 view .LVU112
	cmp	r0, #100
	bhi	.L32
.L31:
	.loc 1 372 11 is_stmt 1 view .LVU113
	.loc 1 370 15 view .LVU114
	.loc 1 370 16 is_stmt 0 view .LVU115
	ldr	r3, [r5]
	.loc 1 370 15 view .LVU116
	lsls	r7, r3, #14
	bmi	.L33
.LVL23:
.L128:
	.loc 1 381 26 view .LVU117
	ldr	r3, [r4]
.L20:
	.loc 1 381 3 is_stmt 1 view .LVU118
	.loc 1 381 6 is_stmt 0 view .LVU119
	lsls	r6, r3, #30
	bpl	.L34
	.loc 1 384 5 is_stmt 1 view .LVU120
	.loc 1 385 5 view .LVU121
	.loc 1 388 5 view .LVU122
	.loc 1 388 22 is_stmt 0 view .LVU123
	ldr	r2, .L141
	ldr	r3, [r2, #8]
	.loc 1 389 21 view .LVU124
	ldr	r2, [r2, #12]
	.loc 1 388 20 view .LVU125
	and	r3, r3, #12
.LVL24:
	.loc 1 389 5 is_stmt 1 view .LVU126
	.loc 1 390 5 view .LVU127
	.loc 1 390 8 is_stmt 0 view .LVU128
	cmp	r3, #12
	beq	.L136
	.loc 1 390 88 discriminator 3 view .LVU129
	cmp	r3, #4
	beq	.L36
.LVL25:
.L37:
	.loc 1 413 7 is_stmt 1 view .LVU130
	.loc 1 413 10 is_stmt 0 view .LVU131
	ldr	r3, [r4, #12]
.LVL26:
	.loc 1 416 9 view .LVU132
	ldr	r5, .L141
	.loc 1 413 10 view .LVU133
	cmp	r3, #0
	beq	.L39
	.loc 1 416 9 is_stmt 1 view .LVU134
	ldr	r3, [r5]
	orr	r3, r3, #256
	str	r3, [r5]
	.loc 1 419 9 view .LVU135
	.loc 1 419 21 is_stmt 0 view .LVU136
	bl	HAL_GetTick
.LVL27:
	mov	r6, r0
.LVL28:
	.loc 1 422 9 is_stmt 1 view .LVU137
	.loc 1 422 15 is_stmt 0 view .LVU138
	b	.L40
.LVL29:
.L41:
	.loc 1 424 16 view .LVU139
	bl	HAL_GetTick
.LVL30:
	.loc 1 424 30 view .LVU140
	subs	r0, r0, r6
	.loc 1 424 14 view .LVU141
	cmp	r0, #2
	bhi	.L32
.L40:
	.loc 1 424 11 is_stmt 1 view .LVU142
	.loc 1 422 15 view .LVU143
	.loc 1 422 16 is_stmt 0 view .LVU144
	ldr	r3, [r5]
	.loc 1 422 15 view .LVU145
	lsls	r0, r3, #21
	bpl	.L41
	.loc 1 431 9 is_stmt 1 view .LVU146
	ldr	r3, [r5, #4]
	ldr	r2, [r4, #16]
	bic	r3, r3, #2130706432
	orr	r3, r3, r2, lsl #24
	str	r3, [r5, #4]
	.loc 1 453 26 is_stmt 0 view .LVU147
	ldr	r3, [r4]
.LVL31:
.L34:
	.loc 1 453 3 is_stmt 1 view .LVU148
	.loc 1 453 6 is_stmt 0 view .LVU149
	lsls	r2, r3, #28
	bpl	.L44
.L140:
	.loc 1 456 5 is_stmt 1 view .LVU150
	.loc 1 459 5 view .LVU151
	.loc 1 459 7 is_stmt 0 view .LVU152
	ldr	r3, [r4, #20]
	.loc 1 462 7 view .LVU153
	ldr	r5, .L141
	.loc 1 459 7 view .LVU154
	cmp	r3, #0
	beq	.L45
	.loc 1 462 7 is_stmt 1 view .LVU155
	ldr	r3, [r5, #148]
	orr	r3, r3, #1
	str	r3, [r5, #148]
	.loc 1 465 7 view .LVU156
	.loc 1 465 19 is_stmt 0 view .LVU157
	bl	HAL_GetTick
.LVL32:
	mov	r6, r0
.LVL33:
	.loc 1 468 7 is_stmt 1 view .LVU158
	.loc 1 468 13 is_stmt 0 view .LVU159
	b	.L46
.LVL34:
.L47:
	.loc 1 470 14 view .LVU160
	bl	HAL_GetTick
.LVL35:
	.loc 1 470 28 view .LVU161
	subs	r0, r0, r6
	.loc 1 470 12 view .LVU162
	cmp	r0, #2
	bhi	.L32
.L46:
	.loc 1 470 9 is_stmt 1 view .LVU163
	.loc 1 468 13 view .LVU164
	.loc 1 468 14 is_stmt 0 view .LVU165
	ldr	r3, [r5, #148]
	.loc 1 468 13 view .LVU166
	lsls	r3, r3, #30
	bpl	.L47
.L130:
	.loc 1 495 26 view .LVU167
	ldr	r3, [r4]
.LVL36:
.L44:
	.loc 1 495 3 is_stmt 1 view .LVU168
	.loc 1 495 6 is_stmt 0 view .LVU169
	lsls	r6, r3, #29
	bpl	.L50
.LBB6:
	.loc 1 497 5 is_stmt 1 view .LVU170
.LVL37:
	.loc 1 500 5 view .LVU171
	.loc 1 504 5 view .LVU172
	.loc 1 504 9 is_stmt 0 view .LVU173
	ldr	r3, .L141
	ldr	r2, [r3, #88]
	.loc 1 504 41 view .LVU174
	lsls	r5, r2, #3
	bmi	.L85
	.loc 1 506 7 is_stmt 1 view .LVU175
.LBB7:
	.loc 1 506 7 view .LVU176
	.loc 1 506 7 view .LVU177
	ldr	r2, [r3, #88]
	orr	r2, r2, #268435456
	str	r2, [r3, #88]
	.loc 1 506 7 view .LVU178
	ldr	r3, [r3, #88]
	and	r3, r3, #268435456
	str	r3, [sp, #4]
	.loc 1 506 7 view .LVU179
	ldr	r3, [sp, #4]
.LBE7:
	.loc 1 506 7 view .LVU180
	.loc 1 507 7 view .LVU181
.LVL38:
	.loc 1 507 21 is_stmt 0 view .LVU182
	movs	r5, #1
.LVL39:
.L51:
	.loc 1 510 5 is_stmt 1 view .LVU183
	.loc 1 510 9 is_stmt 0 view .LVU184
	ldr	r6, .L141+4
	ldr	r3, [r6]
	.loc 1 510 8 view .LVU185
	lsls	r0, r3, #23
	bpl	.L52
.L57:
	.loc 1 528 5 is_stmt 1 view .LVU186
	.loc 1 528 5 view .LVU187
	ldr	r3, [r4, #8]
	cmp	r3, #1
	beq	.L137
	.loc 1 528 5 discriminator 2 view .LVU188
	cmp	r3, #5
	beq	.L138
	.loc 1 528 5 discriminator 5 view .LVU189
	ldr	r6, .L141
	ldr	r2, [r6, #144]
	bic	r2, r2, #1
	str	r2, [r6, #144]
	.loc 1 528 5 discriminator 5 view .LVU190
	ldr	r2, [r6, #144]
	bic	r2, r2, #4
	str	r2, [r6, #144]
	.loc 1 528 5 discriminator 5 view .LVU191
	.loc 1 531 5 discriminator 5 view .LVU192
	.loc 1 531 8 is_stmt 0 discriminator 5 view .LVU193
	cmp	r3, #0
	bne	.L58
	.loc 1 548 7 is_stmt 1 view .LVU194
	.loc 1 548 19 is_stmt 0 view .LVU195
	bl	HAL_GetTick
.LVL40:
	.loc 1 553 11 view .LVU196
	movw	r8, #5000
	.loc 1 548 19 view .LVU197
	mov	r7, r0
.LVL41:
	.loc 1 551 7 is_stmt 1 view .LVU198
	.loc 1 551 13 is_stmt 0 view .LVU199
	b	.L65
.LVL42:
.L66:
	.loc 1 553 13 view .LVU200
	bl	HAL_GetTick
.LVL43:
	.loc 1 553 27 view .LVU201
	subs	r0, r0, r7
	.loc 1 553 11 view .LVU202
	cmp	r0, r8
	bhi	.L32
.L65:
	.loc 1 553 9 is_stmt 1 view .LVU203
	.loc 1 551 13 view .LVU204
	.loc 1 551 14 is_stmt 0 view .LVU205
	ldr	r3, [r6, #144]
	.loc 1 551 13 view .LVU206
	lsls	r3, r3, #30
	bmi	.L66
.LVL44:
.L67:
	.loc 1 561 5 is_stmt 1 view .LVU207
	.loc 1 561 8 is_stmt 0 view .LVU208
	cbz	r5, .L131
	.loc 1 563 7 is_stmt 1 view .LVU209
	ldr	r2, .L141
	ldr	r3, [r2, #88]
	bic	r3, r3, #268435456
	str	r3, [r2, #88]
.L131:
.LBE6:
	.loc 1 568 25 is_stmt 0 view .LVU210
	ldr	r3, [r4]
.LVL45:
.L50:
	.loc 1 568 3 is_stmt 1 view .LVU211
	.loc 1 568 5 is_stmt 0 view .LVU212
	lsls	r5, r3, #26
	bpl	.L74
	.loc 1 571 5 is_stmt 1 view .LVU213
	.loc 1 574 5 view .LVU214
	.loc 1 574 7 is_stmt 0 view .LVU215
	ldr	r3, [r4, #24]
	.loc 1 577 7 view .LVU216
	ldr	r5, .L141
	.loc 1 574 7 view .LVU217
	cmp	r3, #0
	beq	.L71
	.loc 1 577 7 is_stmt 1 view .LVU218
	ldr	r3, [r5, #152]
	orr	r3, r3, #1
	str	r3, [r5, #152]
	.loc 1 580 7 view .LVU219
	.loc 1 580 19 is_stmt 0 view .LVU220
	bl	HAL_GetTick
.LVL46:
	mov	r6, r0
.LVL47:
	.loc 1 583 7 is_stmt 1 view .LVU221
	.loc 1 583 12 is_stmt 0 view .LVU222
	b	.L72
.LVL48:
.L73:
	.loc 1 585 13 view .LVU223
	bl	HAL_GetTick
.LVL49:
	.loc 1 585 27 view .LVU224
	subs	r0, r0, r6
	.loc 1 585 11 view .LVU225
	cmp	r0, #2
	bhi	.L32
.L72:
	.loc 1 585 9 is_stmt 1 view .LVU226
	.loc 1 583 12 view .LVU227
	.loc 1 583 13 is_stmt 0 view .LVU228
	ldr	r3, [r5, #152]
	.loc 1 583 12 view .LVU229
	lsls	r0, r3, #30
	bpl	.L73
.LVL50:
.L74:
	.loc 1 612 3 is_stmt 1 view .LVU230
	.loc 1 614 3 view .LVU231
	.loc 1 614 29 is_stmt 0 view .LVU232
	ldr	r0, [r4, #28]
	.loc 1 614 6 view .LVU233
	cmp	r0, #0
	beq	.L70
	.loc 1 617 5 is_stmt 1 view .LVU234
	.loc 1 617 9 is_stmt 0 view .LVU235
	ldr	r5, .L141
	ldr	r3, [r5, #8]
	and	r3, r3, #12
	.loc 1 617 8 view .LVU236
	cmp	r3, #12
	beq	.L77
	.loc 1 619 7 is_stmt 1 view .LVU237
	.loc 1 630 9 is_stmt 0 view .LVU238
	ldr	r3, [r5]
	.loc 1 619 10 view .LVU239
	cmp	r0, #2
	.loc 1 630 9 view .LVU240
	bic	r3, r3, #16777216
	str	r3, [r5]
	.loc 1 619 10 view .LVU241
	beq	.L139
	.loc 1 673 9 is_stmt 1 view .LVU242
	.loc 1 676 9 view .LVU243
	.loc 1 676 21 is_stmt 0 view .LVU244
	bl	HAL_GetTick
.LVL51:
	mov	r4, r0
.LVL52:
	.loc 1 679 9 is_stmt 1 view .LVU245
	.loc 1 679 15 is_stmt 0 view .LVU246
	b	.L83
.LVL53:
.L84:
	.loc 1 681 16 view .LVU247
	bl	HAL_GetTick
.LVL54:
	.loc 1 681 30 view .LVU248
	subs	r0, r0, r4
	.loc 1 681 14 view .LVU249
	cmp	r0, #2
	bhi	.L32
.L83:
	.loc 1 681 11 is_stmt 1 view .LVU250
	.loc 1 679 15 view .LVU251
	.loc 1 679 16 is_stmt 0 view .LVU252
	ldr	r3, [r5]
	.loc 1 679 15 view .LVU253
	ands	r3, r3, #33554432
	bne	.L84
	.loc 1 688 9 is_stmt 1 view .LVU254
	.loc 1 688 22 is_stmt 0 view .LVU255
	ldr	r1, [r5, #12]
	ldr	r2, .L141+8
	ands	r2, r2, r1
	.loc 1 715 10 view .LVU256
	mov	r0, r3
	.loc 1 688 22 view .LVU257
	str	r2, [r5, #12]
	b	.L19
.LVL55:
.L45:
	.loc 1 479 7 is_stmt 1 view .LVU258
	ldr	r3, [r5, #148]
	bic	r3, r3, #1
	str	r3, [r5, #148]
	.loc 1 482 7 view .LVU259
	.loc 1 482 19 is_stmt 0 view .LVU260
	bl	HAL_GetTick
.LVL56:
	mov	r6, r0
.LVL57:
	.loc 1 485 7 is_stmt 1 view .LVU261
	.loc 1 485 12 is_stmt 0 view .LVU262
	b	.L48
.LVL58:
.L49:
	.loc 1 487 13 view .LVU263
	bl	HAL_GetTick
.LVL59:
	.loc 1 487 27 view .LVU264
	subs	r0, r0, r6
	.loc 1 487 11 view .LVU265
	cmp	r0, #2
	bhi	.L32
.L48:
	.loc 1 487 9 is_stmt 1 view .LVU266
	.loc 1 485 12 view .LVU267
	.loc 1 485 13 is_stmt 0 view .LVU268
	ldr	r3, [r5, #148]
	.loc 1 485 12 view .LVU269
	lsls	r7, r3, #30
	bmi	.L49
	b	.L130
.LVL60:
.L133:
	.loc 1 334 19 discriminator 1 view .LVU270
	and	r1, r1, #3
.LVL61:
	.loc 1 337 47 discriminator 1 view .LVU271
	cmp	r1, #3
	bne	.L23
.L22:
	.loc 1 339 7 is_stmt 1 view .LVU272
	.loc 1 339 12 is_stmt 0 view .LVU273
	ldr	r2, .L141
.LVL62:
	.loc 1 339 12 view .LVU274
	ldr	r2, [r2]
	.loc 1 339 10 view .LVU275
	lsls	r2, r2, #14
	bpl	.L20
	.loc 1 339 52 discriminator 1 view .LVU276
	ldr	r2, [r4, #4]
	cmp	r2, #0
	bne	.L20
.LVL63:
.L91:
	.loc 1 696 16 view .LVU277
	movs	r0, #1
	.loc 1 716 1 view .LVU278
	add	sp, sp, #8
.LCFI3:
	.cfi_remember_state
	.cfi_def_cfa_offset 24
	@ sp needed
	pop	{r4, r5, r6, r7, r8, pc}
.LVL64:
.L139:
.LCFI4:
	.cfi_restore_state
	.loc 1 622 9 is_stmt 1 view .LVU279
	.loc 1 623 9 view .LVU280
	.loc 1 624 9 view .LVU281
	.loc 1 625 9 view .LVU282
	.loc 1 626 9 view .LVU283
	.loc 1 627 9 view .LVU284
	.loc 1 630 9 view .LVU285
	.loc 1 633 9 view .LVU286
	.loc 1 633 21 is_stmt 0 view .LVU287
	bl	HAL_GetTick
.LVL65:
	mov	r6, r0
.LVL66:
	.loc 1 636 9 is_stmt 1 view .LVU288
	.loc 1 636 15 is_stmt 0 view .LVU289
	b	.L79
.LVL67:
.L80:
	.loc 1 638 16 view .LVU290
	bl	HAL_GetTick
.LVL68:
	.loc 1 638 30 view .LVU291
	subs	r0, r0, r6
	.loc 1 638 14 view .LVU292
	cmp	r0, #2
	bhi	.L32
.L79:
	.loc 1 638 11 is_stmt 1 view .LVU293
	.loc 1 636 15 view .LVU294
	.loc 1 636 16 is_stmt 0 view .LVU295
	ldr	r3, [r5]
	.loc 1 636 15 view .LVU296
	lsls	r2, r3, #6
	bmi	.L80
	.loc 1 645 9 is_stmt 1 view .LVU297
	ldr	r1, [r5, #12]
	ldr	r3, .L141+12
	ldr	r2, [r4, #32]
	ldr	r0, [r4, #36]
	.loc 1 662 16 is_stmt 0 view .LVU298
	ldr	r6, .L141
.LVL69:
	.loc 1 645 9 view .LVU299
	ands	r3, r3, r1
	orrs	r3, r3, r2
	ldrd	r1, r2, [r4, #40]
	orr	r3, r3, r1, lsl #8
	orr	r3, r3, r2, lsl #27
	ldrd	r1, r2, [r4, #48]
	subs	r0, r0, #1
	lsrs	r1, r1, #1
	orr	r3, r3, r0, lsl #4
	subs	r1, r1, #1
	lsrs	r2, r2, #1
	orr	r3, r3, r1, lsl #21
	subs	r2, r2, #1
	orr	r3, r3, r2, lsl #25
	str	r3, [r5, #12]
	.loc 1 653 9 is_stmt 1 view .LVU300
	ldr	r3, [r5]
	orr	r3, r3, #16777216
	str	r3, [r5]
	.loc 1 656 10 view .LVU301
	ldr	r3, [r5, #12]
	orr	r3, r3, #16777216
	str	r3, [r5, #12]
	.loc 1 659 9 view .LVU302
	.loc 1 659 21 is_stmt 0 view .LVU303
	bl	HAL_GetTick
.LVL70:
	mov	r4, r0
.LVL71:
	.loc 1 662 9 is_stmt 1 view .LVU304
	.loc 1 662 15 is_stmt 0 view .LVU305
	b	.L81
.LVL72:
.L82:
	.loc 1 664 16 view .LVU306
	bl	HAL_GetTick
.LVL73:
	.loc 1 664 30 view .LVU307
	subs	r0, r0, r4
	.loc 1 664 14 view .LVU308
	cmp	r0, #2
	bhi	.L32
.L81:
	.loc 1 664 11 is_stmt 1 view .LVU309
	.loc 1 662 15 view .LVU310
	.loc 1 662 16 is_stmt 0 view .LVU311
	ldr	r3, [r6]
	.loc 1 662 15 view .LVU312
	lsls	r3, r3, #6
	bpl	.L82
.LVL74:
.L70:
	.loc 1 715 10 view .LVU313
	movs	r0, #0
.L19:
	.loc 1 716 1 view .LVU314
	add	sp, sp, #8
.LCFI5:
	.cfi_remember_state
	.cfi_def_cfa_offset 24
	@ sp needed
	pop	{r4, r5, r6, r7, r8, pc}
.L142:
	.align	2
.L141:
	.word	1073876992
	.word	1073770496
	.word	-17891332
	.word	27230220
.LVL75:
.L136:
.LCFI6:
	.cfi_restore_state
	.loc 1 389 19 discriminator 1 view .LVU315
	and	r2, r2, #3
.LVL76:
	.loc 1 390 47 discriminator 1 view .LVU316
	cmp	r2, #2
	bne	.L37
.L36:
	.loc 1 393 7 is_stmt 1 view .LVU317
	.loc 1 393 12 is_stmt 0 view .LVU318
	ldr	r3, .L143
.LVL77:
	.loc 1 393 12 view .LVU319
	ldr	r3, [r3]
	.loc 1 393 10 view .LVU320
	lsls	r5, r3, #21
	bpl	.L38
	.loc 1 393 52 discriminator 1 view .LVU321
	ldr	r3, [r4, #12]
	cmp	r3, #0
	beq	.L91
.L38:
	.loc 1 401 9 is_stmt 1 view .LVU322
	ldr	r2, .L143
	ldr	r0, [r4, #16]
	ldr	r3, [r2, #4]
	.loc 1 404 13 is_stmt 0 view .LVU323
	ldr	r1, .L143+4
	.loc 1 401 9 view .LVU324
	bic	r3, r3, #2130706432
	orr	r3, r3, r0, lsl #24
	str	r3, [r2, #4]
	.loc 1 404 9 is_stmt 1 view .LVU325
	.loc 1 404 13 is_stmt 0 view .LVU326
	ldr	r0, [r1]
	bl	HAL_InitTick
.LVL78:
	.loc 1 404 12 view .LVU327
	cmp	r0, #0
	bne	.L91
.L129:
	.loc 1 453 26 view .LVU328
	ldr	r3, [r4]
	.loc 1 453 3 is_stmt 1 view .LVU329
	.loc 1 453 6 is_stmt 0 view .LVU330
	lsls	r2, r3, #28
	bpl	.L44
	b	.L140
.LVL79:
.L134:
	.loc 1 347 7 is_stmt 1 discriminator 1 view .LVU331
	ldr	r2, .L143
.LVL80:
	.loc 1 347 7 is_stmt 0 discriminator 1 view .LVU332
	ldr	r3, [r2]
	orr	r3, r3, #65536
	str	r3, [r2]
	.loc 1 347 7 is_stmt 1 discriminator 1 view .LVU333
	.loc 1 350 7 discriminator 1 view .LVU334
.L26:
	.loc 1 353 9 view .LVU335
	.loc 1 353 21 is_stmt 0 view .LVU336
	bl	HAL_GetTick
.LVL81:
	.loc 1 356 16 view .LVU337
	ldr	r6, .L143
	.loc 1 353 21 view .LVU338
	mov	r5, r0
.LVL82:
	.loc 1 356 9 is_stmt 1 view .LVU339
	.loc 1 356 15 is_stmt 0 view .LVU340
	b	.L29
.LVL83:
.L30:
	.loc 1 358 16 view .LVU341
	bl	HAL_GetTick
.LVL84:
	.loc 1 358 30 view .LVU342
	subs	r0, r0, r5
	.loc 1 358 14 view .LVU343
	cmp	r0, #100
	bhi	.L32
.L29:
	.loc 1 358 11 is_stmt 1 view .LVU344
	.loc 1 356 15 view .LVU345
	.loc 1 356 16 is_stmt 0 view .LVU346
	ldr	r3, [r6]
	.loc 1 356 15 view .LVU347
	lsls	r3, r3, #14
	bpl	.L30
	b	.L128
.LVL85:
.L39:
	.loc 1 436 9 is_stmt 1 view .LVU348
	ldr	r3, [r5]
	bic	r3, r3, #256
	str	r3, [r5]
	.loc 1 439 9 view .LVU349
	.loc 1 439 21 is_stmt 0 view .LVU350
	bl	HAL_GetTick
.LVL86:
	mov	r6, r0
.LVL87:
	.loc 1 442 9 is_stmt 1 view .LVU351
.L42:
	.loc 1 444 11 view .LVU352
	.loc 1 442 15 view .LVU353
	.loc 1 442 16 is_stmt 0 view .LVU354
	ldr	r3, [r5]
	.loc 1 442 15 view .LVU355
	lsls	r1, r3, #21
	bpl	.L129
	.loc 1 444 16 view .LVU356
	bl	HAL_GetTick
.LVL88:
	.loc 1 444 30 view .LVU357
	subs	r0, r0, r6
	.loc 1 444 14 view .LVU358
	cmp	r0, #2
	bls	.L42
.LVL89:
.L32:
	.loc 1 360 20 view .LVU359
	movs	r0, #3
	.loc 1 716 1 view .LVU360
	add	sp, sp, #8
.LCFI7:
	.cfi_remember_state
	.cfi_def_cfa_offset 24
	@ sp needed
	pop	{r4, r5, r6, r7, r8, pc}
.LVL90:
.L85:
.LCFI8:
	.cfi_restore_state
.LBB8:
	.loc 1 497 22 view .LVU361
	movs	r5, #0
	b	.L51
.LVL91:
.L137:
	.loc 1 528 5 is_stmt 1 discriminator 1 view .LVU362
	ldr	r2, .L143
	ldr	r3, [r2, #144]
	orr	r3, r3, #1
	str	r3, [r2, #144]
	.loc 1 528 5 discriminator 1 view .LVU363
	.loc 1 531 5 discriminator 1 view .LVU364
.L58:
	.loc 1 534 7 view .LVU365
	.loc 1 534 19 is_stmt 0 view .LVU366
	bl	HAL_GetTick
.LVL92:
	.loc 1 537 14 view .LVU367
	ldr	r7, .L143
	.loc 1 534 19 view .LVU368
	mov	r6, r0
.LVL93:
	.loc 1 537 7 is_stmt 1 view .LVU369
	.loc 1 539 11 is_stmt 0 view .LVU370
	movw	r8, #5000
	.loc 1 537 13 view .LVU371
	b	.L61
.LVL94:
.L62:
	.loc 1 539 13 view .LVU372
	bl	HAL_GetTick
.LVL95:
	.loc 1 539 27 view .LVU373
	subs	r0, r0, r6
	.loc 1 539 11 view .LVU374
	cmp	r0, r8
	bhi	.L32
.L61:
	.loc 1 539 9 is_stmt 1 view .LVU375
	.loc 1 537 13 view .LVU376
	.loc 1 537 14 is_stmt 0 view .LVU377
	ldr	r3, [r7, #144]
	.loc 1 537 13 view .LVU378
	lsls	r2, r3, #30
	bpl	.L62
	b	.L67
.LVL96:
.L71:
	.loc 1 537 13 view .LVU379
.LBE8:
	.loc 1 594 7 is_stmt 1 view .LVU380
	ldr	r3, [r5, #152]
	bic	r3, r3, #1
	str	r3, [r5, #152]
	.loc 1 597 7 view .LVU381
	.loc 1 597 19 is_stmt 0 view .LVU382
	bl	HAL_GetTick
.LVL97:
	mov	r6, r0
.LVL98:
	.loc 1 600 7 is_stmt 1 view .LVU383
	.loc 1 600 12 is_stmt 0 view .LVU384
	b	.L75
.LVL99:
.L76:
	.loc 1 602 13 view .LVU385
	bl	HAL_GetTick
.LVL100:
	.loc 1 602 27 view .LVU386
	subs	r0, r0, r6
	.loc 1 602 11 view .LVU387
	cmp	r0, #2
	bhi	.L32
.L75:
	.loc 1 602 9 is_stmt 1 view .LVU388
	.loc 1 600 12 view .LVU389
	.loc 1 600 13 is_stmt 0 view .LVU390
	ldr	r3, [r5, #152]
	.loc 1 600 12 view .LVU391
	lsls	r1, r3, #30
	bmi	.L76
	b	.L74
.LVL101:
.L52:
.LBB9:
	.loc 1 513 7 is_stmt 1 view .LVU392
	ldr	r3, [r6]
	orr	r3, r3, #256
	str	r3, [r6]
	.loc 1 516 7 view .LVU393
	.loc 1 516 19 is_stmt 0 view .LVU394
	bl	HAL_GetTick
.LVL102:
	mov	r7, r0
.LVL103:
	.loc 1 518 7 is_stmt 1 view .LVU395
.L55:
	.loc 1 520 9 view .LVU396
	.loc 1 518 13 view .LVU397
	.loc 1 518 14 is_stmt 0 view .LVU398
	ldr	r3, [r6]
	.loc 1 518 13 view .LVU399
	lsls	r1, r3, #23
	bmi	.L57
	.loc 1 520 14 view .LVU400
	bl	HAL_GetTick
.LVL104:
	.loc 1 520 28 view .LVU401
	subs	r0, r0, r7
	.loc 1 520 12 view .LVU402
	cmp	r0, #2
	bls	.L55
	b	.L32
.LVL105:
.L135:
	.loc 1 520 12 view .LVU403
.LBE9:
	.loc 1 347 7 is_stmt 1 discriminator 4 view .LVU404
	add	r3, r3, #1073741824
	sub	r3, r3, #192512
	ldr	r2, [r3]
.LVL106:
	.loc 1 347 7 is_stmt 0 discriminator 4 view .LVU405
	orr	r2, r2, #262144
	str	r2, [r3]
	.loc 1 347 7 is_stmt 1 discriminator 4 view .LVU406
	ldr	r2, [r3]
	orr	r2, r2, #65536
	str	r2, [r3]
	.loc 1 347 7 discriminator 4 view .LVU407
	.loc 1 350 7 discriminator 4 view .LVU408
	b	.L26
.L132:
.LCFI9:
	.cfi_def_cfa_offset 0
	.cfi_restore 4
	.cfi_restore 5
	.cfi_restore 6
	.cfi_restore 7
	.cfi_restore 8
	.cfi_restore 14
	.loc 1 321 12 is_stmt 0 view .LVU409
	movs	r0, #1
.LVL107:
	.loc 1 716 1 view .LVU410
	bx	lr
.LVL108:
.L138:
.LCFI10:
	.cfi_def_cfa_offset 32
	.cfi_offset 4, -24
	.cfi_offset 5, -20
	.cfi_offset 6, -16
	.cfi_offset 7, -12
	.cfi_offset 8, -8
	.cfi_offset 14, -4
.LBB10:
	.loc 1 528 5 is_stmt 1 discriminator 4 view .LVU411
	ldr	r3, .L143
	ldr	r2, [r3, #144]
	orr	r2, r2, #4
	str	r2, [r3, #144]
	.loc 1 528 5 discriminator 4 view .LVU412
	ldr	r2, [r3, #144]
	orr	r2, r2, #1
	str	r2, [r3, #144]
	.loc 1 528 5 discriminator 4 view .LVU413
	.loc 1 531 5 discriminator 4 view .LVU414
	b	.L58
.LVL109:
.L77:
	.loc 1 531 5 is_stmt 0 discriminator 4 view .LVU415
.LBE10:
	.loc 1 694 7 is_stmt 1 view .LVU416
	.loc 1 694 9 is_stmt 0 view .LVU417
	cmp	r0, #1
	beq	.L19
	.loc 1 701 7 is_stmt 1 view .LVU418
	.loc 1 701 21 is_stmt 0 view .LVU419
	ldr	r3, [r5, #12]
.LVL110:
	.loc 1 702 7 is_stmt 1 view .LVU420
	.loc 1 702 9 is_stmt 0 view .LVU421
	ldr	r2, [r4, #32]
	.loc 1 702 11 view .LVU422
	and	r1, r3, #3
	.loc 1 702 9 view .LVU423
	cmp	r1, r2
	bne	.L91
	.loc 1 703 88 discriminator 1 view .LVU424
	ldr	r1, [r4, #36]
	.loc 1 703 11 discriminator 1 view .LVU425
	and	r2, r3, #240
	.loc 1 703 88 discriminator 1 view .LVU426
	subs	r1, r1, #1
	.loc 1 702 92 discriminator 1 view .LVU427
	cmp	r2, r1, lsl #4
	bne	.L91
	.loc 1 704 87 view .LVU428
	ldr	r1, [r4, #40]
	.loc 1 704 11 view .LVU429
	and	r2, r3, #32512
	.loc 1 703 120 view .LVU430
	cmp	r2, r1, lsl #8
	bne	.L91
	.loc 1 705 90 view .LVU431
	ldr	r1, [r4, #44]
	.loc 1 705 11 view .LVU432
	and	r2, r3, #-134217728
	.loc 1 704 113 view .LVU433
	cmp	r2, r1, lsl #27
	bne	.L91
	.loc 1 706 89 view .LVU434
	ldr	r2, [r4, #48]
	lsrs	r2, r2, #1
	.loc 1 706 11 view .LVU435
	and	r1, r3, #6291456
	.loc 1 706 96 view .LVU436
	subs	r2, r2, #1
	.loc 1 705 119 view .LVU437
	cmp	r1, r2, lsl #21
	bne	.L91
	.loc 1 707 89 view .LVU438
	ldr	r2, [r4, #52]
	lsrs	r2, r2, #1
	.loc 1 707 11 view .LVU439
	and	r3, r3, #100663296
.LVL111:
	.loc 1 707 96 view .LVU440
	subs	r2, r2, #1
	.loc 1 706 128 view .LVU441
	cmp	r3, r2, lsl #25
	.loc 1 696 16 view .LVU442
	ite	ne
	movne	r0, #1
	moveq	r0, #0
	b	.L19
.L144:
	.align	2
.L143:
	.word	1073876992
	.word	uwTickPrio
	.cfi_endproc
.LFE133:
	.size	HAL_RCC_OscConfig, .-HAL_RCC_OscConfig
	.section	.text.HAL_RCC_MCOConfig,"ax",%progbits
	.align	1
	.p2align 2,,3
	.global	HAL_RCC_MCOConfig
	.syntax unified
	.thumb
	.thumb_func
	.fpu fpv4-sp-d16
	.type	HAL_RCC_MCOConfig, %function
HAL_RCC_MCOConfig:
.LVL112:
.LFB135:
	.loc 1 995 1 is_stmt 1 view -0
	.cfi_startproc
	@ args = 0, pretend = 0, frame = 24
	@ frame_needed = 0, uses_anonymous_args = 0
	.loc 1 996 3 view .LVU444
	.loc 1 997 3 view .LVU445
	.loc 1 998 3 view .LVU446
	.loc 1 999 3 view .LVU447
	.loc 1 1002 3 view .LVU448
	.loc 1 1005 3 view .LVU449
	.loc 1 995 1 is_stmt 0 view .LVU450
	push	{r4, r5, r6, r7, lr}
.LCFI11:
	.cfi_def_cfa_offset 20
	.cfi_offset 4, -20
	.cfi_offset 5, -16
	.cfi_offset 6, -12
	.cfi_offset 7, -8
	.cfi_offset 14, -4
	sub	sp, sp, #28
.LCFI12:
	.cfi_def_cfa_offset 48
	.loc 1 1005 29 view .LVU451
	movs	r3, #2
	str	r3, [sp, #8]
	.loc 1 1006 3 is_stmt 1 view .LVU452
	.loc 1 1007 29 is_stmt 0 view .LVU453
	movs	r5, #3
	movs	r3, #0
	strd	r3, r5, [sp, #12]
	.loc 1 1010 3 is_stmt 1 view .LVU454
.LVL113:
	.loc 1 1013 3 view .LVU455
	.loc 1 1017 3 is_stmt 0 view .LVU456
	ldr	r7, .L148
	.loc 1 995 1 view .LVU457
	mov	r4, r0
	mov	r6, r2
	.loc 1 1013 36 view .LVU458
	ubfx	r0, r0, #16, #4
.LVL114:
	.loc 1 1016 3 is_stmt 1 view .LVU459
	.loc 1 1017 3 view .LVU460
	ldr	r2, [r7, #76]
.LVL115:
	.loc 1 1017 3 is_stmt 0 view .LVU461
	movs	r3, #1
	lsls	r3, r3, r0
	orrs	r3, r3, r2
	str	r3, [r7, #76]
	.loc 1 1020 3 is_stmt 1 view .LVU462
	.loc 1 1013 36 is_stmt 0 view .LVU463
	add	r0, r0, #1179648
.LVL116:
	.loc 1 1020 25 view .LVU464
	uxth	r3, r4
	.loc 1 1020 23 view .LVU465
	str	r3, [sp, #4]
	.loc 1 1021 3 is_stmt 1 view .LVU466
	.loc 1 995 1 is_stmt 0 view .LVU467
	mov	r5, r1
	.loc 1 1021 31 view .LVU468
	ubfx	r3, r4, #20, #8
	.loc 1 1022 3 view .LVU469
	lsls	r0, r0, #10
.LVL117:
	.loc 1 1022 3 view .LVU470
	add	r1, sp, #4
.LVL118:
	.loc 1 1021 29 view .LVU471
	str	r3, [sp, #20]
	.loc 1 1022 3 is_stmt 1 view .LVU472
	bl	HAL_GPIO_Init
.LVL119:
	.loc 1 1024 4 view .LVU473
	.loc 1 1024 7 is_stmt 0 view .LVU474
	lsls	r3, r4, #3
	bmi	.L145
	.loc 1 1026 5 is_stmt 1 view .LVU475
	.loc 1 1027 5 view .LVU476
	.loc 1 1029 5 view .LVU477
	ldr	r2, [r7, #8]
	bic	r2, r2, #2130706432
	orrs	r6, r6, r2
.LVL120:
	.loc 1 1029 5 is_stmt 0 view .LVU478
	orrs	r5, r5, r6
.LVL121:
	.loc 1 1029 5 view .LVU479
	str	r5, [r7, #8]
.L145:
	.loc 1 1031 1 view .LVU480
	add	sp, sp, #28
.LCFI13:
	.cfi_def_cfa_offset 20
	@ sp needed
	pop	{r4, r5, r6, r7, pc}
.LVL122:
.L149:
	.loc 1 1031 1 view .LVU481
	.align	2
.L148:
	.word	1073876992
	.cfi_endproc
.LFE135:
	.size	HAL_RCC_MCOConfig, .-HAL_RCC_MCOConfig
	.section	.text.HAL_RCC_GetSysClockFreq,"ax",%progbits
	.align	1
	.p2align 2,,3
	.global	HAL_RCC_GetSysClockFreq
	.syntax unified
	.thumb
	.thumb_func
	.fpu fpv4-sp-d16
	.type	HAL_RCC_GetSysClockFreq, %function
HAL_RCC_GetSysClockFreq:
.LFB136:
	.loc 1 1064 1 is_stmt 1 view -0
	.cfi_startproc
	@ args = 0, pretend = 0, frame = 0
	@ frame_needed = 0, uses_anonymous_args = 0
	@ link register save eliminated.
	.loc 1 1065 3 view .LVU483
	.loc 1 1066 3 view .LVU484
	.loc 1 1068 3 view .LVU485
	.loc 1 1068 7 is_stmt 0 view .LVU486
	ldr	r3, .L158
	ldr	r2, [r3, #8]
	and	r2, r2, #12
	.loc 1 1068 6 view .LVU487
	cmp	r2, #4
	beq	.L154
	.loc 1 1073 8 is_stmt 1 view .LVU488
	.loc 1 1073 12 is_stmt 0 view .LVU489
	ldr	r2, [r3, #8]
	and	r2, r2, #12
	.loc 1 1073 11 view .LVU490
	cmp	r2, #8
	beq	.L155
	.loc 1 1078 8 is_stmt 1 view .LVU491
	.loc 1 1078 12 is_stmt 0 view .LVU492
	ldr	r2, [r3, #8]
	and	r2, r2, #12
	.loc 1 1078 11 view .LVU493
	cmp	r2, #12
	beq	.L157
	.loc 1 1104 18 view .LVU494
	movs	r0, #0
.LVL123:
	.loc 1 1107 3 is_stmt 1 view .LVU495
	.loc 1 1108 1 is_stmt 0 view .LVU496
	bx	lr
.LVL124:
.L157:
.LBB13:
.LBI13:
	.loc 1 1063 10 is_stmt 1 view .LVU497
.LBB14:
	.loc 1 1085 5 view .LVU498
	.loc 1 1085 17 is_stmt 0 view .LVU499
	ldr	r1, [r3, #12]
.LVL125:
	.loc 1 1086 5 is_stmt 1 view .LVU500
	.loc 1 1086 13 is_stmt 0 view .LVU501
	ldr	r0, [r3, #12]
	.loc 1 1085 15 view .LVU502
	and	r1, r1, #3
.LVL126:
	.loc 1 1088 5 view .LVU503
	cmp	r1, #3
	.loc 1 1086 54 view .LVU504
	ubfx	r0, r0, #4, #4
	.loc 1 1086 10 view .LVU505
	add	r2, r0, #1
.LVL127:
	.loc 1 1088 5 is_stmt 1 view .LVU506
	.loc 1 1091 7 view .LVU507
	.loc 1 1096 7 view .LVU508
	.loc 1 1096 38 is_stmt 0 view .LVU509
	ldr	r0, [r3, #12]
	.loc 1 1091 27 view .LVU510
	ite	eq
	ldreq	r3, .L158+4
	.loc 1 1096 27 view .LVU511
	ldrne	r3, .L158+8
	udiv	r2, r3, r2
.LVL128:
	.loc 1 1099 14 view .LVU512
	ldr	r3, .L158
	ldr	r3, [r3, #12]
	.loc 1 1099 55 view .LVU513
	ubfx	r3, r3, #25, #2
	.loc 1 1096 79 view .LVU514
	ubfx	r0, r0, #8, #7
	.loc 1 1099 80 view .LVU515
	adds	r3, r3, #1
	.loc 1 1096 14 view .LVU516
	mul	r0, r2, r0
.LVL129:
	.loc 1 1097 7 is_stmt 1 view .LVU517
	.loc 1 1099 5 view .LVU518
	.loc 1 1100 5 view .LVU519
	.loc 1 1099 10 is_stmt 0 view .LVU520
	lsls	r3, r3, #1
	.loc 1 1100 18 view .LVU521
	udiv	r0, r0, r3
.LVL130:
	.loc 1 1107 3 is_stmt 1 view .LVU522
	.loc 1 1107 3 is_stmt 0 view .LVU523
	bx	lr
.L154:
.LBE14:
.LBE13:
	.loc 1 1071 18 view .LVU524
	ldr	r0, .L158+8
	bx	lr
.L155:
	.loc 1 1076 18 view .LVU525
	ldr	r0, .L158+4
	bx	lr
.L159:
	.align	2
.L158:
	.word	1073876992
	.word	8000000
	.word	16000000
	.cfi_endproc
.LFE136:
	.size	HAL_RCC_GetSysClockFreq, .-HAL_RCC_GetSysClockFreq
	.section	.text.HAL_RCC_ClockConfig,"ax",%progbits
	.align	1
	.p2align 2,,3
	.global	HAL_RCC_ClockConfig
	.syntax unified
	.thumb
	.thumb_func
	.fpu fpv4-sp-d16
	.type	HAL_RCC_ClockConfig, %function
HAL_RCC_ClockConfig:
.LVL131:
.LFB134:
	.loc 1 767 1 is_stmt 1 view -0
	.cfi_startproc
	@ args = 0, pretend = 0, frame = 0
	@ frame_needed = 0, uses_anonymous_args = 0
	.loc 1 768 3 view .LVU527
	.loc 1 769 3 view .LVU528
	.loc 1 770 3 view .LVU529
	.loc 1 773 3 view .LVU530
	.loc 1 773 6 is_stmt 0 view .LVU531
	cmp	r0, #0
	beq	.L223
	.loc 1 787 18 view .LVU532
	ldr	r2, .L227
	.loc 1 767 1 view .LVU533
	push	{r3, r4, r5, r6, r7, r8, r9, lr}
.LCFI14:
	.cfi_def_cfa_offset 32
	.cfi_offset 3, -32
	.cfi_offset 4, -28
	.cfi_offset 5, -24
	.cfi_offset 6, -20
	.cfi_offset 7, -16
	.cfi_offset 8, -12
	.cfi_offset 9, -8
	.cfi_offset 14, -4
	.loc 1 787 18 view .LVU534
	ldr	r3, [r2]
	and	r3, r3, #15
	.loc 1 787 6 view .LVU535
	cmp	r3, r1
	mov	r5, r1
	mov	r4, r0
	.loc 1 779 3 is_stmt 1 view .LVU536
	.loc 1 780 3 view .LVU537
	.loc 1 787 3 view .LVU538
	.loc 1 787 6 is_stmt 0 view .LVU539
	bcs	.L167
	.loc 1 790 5 is_stmt 1 view .LVU540
	ldr	r3, [r2]
	bic	r3, r3, #15
	orrs	r3, r3, r1
	str	r3, [r2]
	.loc 1 794 5 view .LVU541
	.loc 1 794 9 is_stmt 0 view .LVU542
	ldr	r3, [r2]
	and	r3, r3, #15
	.loc 1 794 8 view .LVU543
	cmp	r3, r1
	beq	.L167
.LVL132:
.L166:
	.loc 1 775 12 view .LVU544
	movs	r0, #1
	.loc 1 940 1 view .LVU545
	pop	{r3, r4, r5, r6, r7, r8, r9, pc}
.LVL133:
.L167:
	.loc 1 801 3 is_stmt 1 view .LVU546
	.loc 1 801 25 is_stmt 0 view .LVU547
	ldr	r3, [r4]
	.loc 1 801 5 view .LVU548
	lsls	r7, r3, #31
	bpl	.L224
	.loc 1 803 5 is_stmt 1 view .LVU549
	.loc 1 806 5 view .LVU550
	.loc 1 806 26 is_stmt 0 view .LVU551
	ldr	r2, [r4, #4]
	.loc 1 806 8 view .LVU552
	cmp	r2, #3
	beq	.L225
	.loc 1 832 7 is_stmt 1 view .LVU553
	.loc 1 835 12 is_stmt 0 view .LVU554
	ldr	r3, .L227+4
	.loc 1 832 10 view .LVU555
	cmp	r2, #2
	.loc 1 835 12 view .LVU556
	ldr	r3, [r3]
	.loc 1 832 10 view .LVU557
	beq	.L226
	.loc 1 844 9 is_stmt 1 view .LVU558
	.loc 1 844 11 is_stmt 0 view .LVU559
	lsls	r3, r3, #21
	bpl	.L166
.L176:
	.loc 1 850 7 is_stmt 1 view .LVU560
	.loc 1 850 17 is_stmt 0 view .LVU561
	bl	HAL_RCC_GetSysClockFreq
.LVL134:
	.loc 1 853 7 is_stmt 1 view .LVU562
	.loc 1 853 9 is_stmt 0 view .LVU563
	ldr	r3, .L227+8
	cmp	r0, r3
	bhi	.L177
	.loc 1 861 5 view .LVU564
	ldr	r2, [r4, #4]
	.loc 1 770 12 view .LVU565
	mov	r9, #0
.LVL135:
.L173:
	.loc 1 861 5 is_stmt 1 view .LVU566
	ldr	r6, .L227+4
	ldr	r3, [r6, #8]
	bic	r3, r3, #3
	orrs	r2, r2, r3
	str	r2, [r6, #8]
	.loc 1 864 5 view .LVU567
	.loc 1 864 17 is_stmt 0 view .LVU568
	bl	HAL_GetTick
.LVL136:
	.loc 1 868 10 view .LVU569
	movw	r8, #5000
	.loc 1 864 17 view .LVU570
	mov	r7, r0
.LVL137:
	.loc 1 866 5 is_stmt 1 view .LVU571
	.loc 1 866 11 is_stmt 0 view .LVU572
	b	.L178
.LVL138:
.L179:
	.loc 1 868 12 view .LVU573
	bl	HAL_GetTick
.LVL139:
	.loc 1 868 26 view .LVU574
	subs	r0, r0, r7
	.loc 1 868 10 view .LVU575
	cmp	r0, r8
	bhi	.L188
.L178:
	.loc 1 868 7 is_stmt 1 view .LVU576
	.loc 1 866 11 view .LVU577
	.loc 1 866 12 is_stmt 0 view .LVU578
	ldr	r3, [r6, #8]
	.loc 1 866 78 view .LVU579
	ldr	r2, [r4, #4]
	.loc 1 866 12 view .LVU580
	and	r3, r3, #12
	.loc 1 866 11 view .LVU581
	cmp	r3, r2, lsl #2
	bne	.L179
	.loc 1 876 3 is_stmt 1 view .LVU582
	.loc 1 876 26 is_stmt 0 view .LVU583
	ldr	r3, [r4]
	.loc 1 876 6 view .LVU584
	lsls	r7, r3, #30
.LVL140:
	.loc 1 876 6 view .LVU585
	bmi	.L168
	.loc 1 896 5 is_stmt 1 view .LVU586
	.loc 1 896 7 is_stmt 0 view .LVU587
	cmp	r9, #128
	bne	.L169
	.loc 1 898 7 is_stmt 1 view .LVU588
	ldr	r3, [r6, #8]
	bic	r3, r3, #240
	str	r3, [r6, #8]
.LVL141:
.L169:
	.loc 1 903 3 view .LVU589
	.loc 1 903 18 is_stmt 0 view .LVU590
	ldr	r6, .L227
	ldr	r3, [r6]
	and	r3, r3, #15
	.loc 1 903 6 view .LVU591
	cmp	r3, r5
	bhi	.L184
.L190:
	.loc 1 922 3 is_stmt 1 view .LVU592
	.loc 1 922 26 is_stmt 0 view .LVU593
	ldr	r3, [r4]
	.loc 1 922 6 view .LVU594
	lsls	r2, r3, #29
	bpl	.L186
	.loc 1 924 5 is_stmt 1 view .LVU595
	.loc 1 925 5 view .LVU596
	ldr	r1, .L227+4
	ldr	r0, [r4, #12]
	ldr	r2, [r1, #8]
	bic	r2, r2, #1792
	orrs	r2, r2, r0
	str	r2, [r1, #8]
.L186:
	.loc 1 929 3 view .LVU597
	.loc 1 929 5 is_stmt 0 view .LVU598
	lsls	r3, r3, #28
	bpl	.L191
	.loc 1 931 5 is_stmt 1 view .LVU599
	.loc 1 932 5 view .LVU600
	ldr	r2, .L227+4
	ldr	r1, [r4, #16]
	ldr	r3, [r2, #8]
	bic	r3, r3, #14336
	orr	r3, r3, r1, lsl #3
	str	r3, [r2, #8]
.L191:
	.loc 1 936 3 view .LVU601
	.loc 1 936 21 is_stmt 0 view .LVU602
	bl	HAL_RCC_GetSysClockFreq
.LVL142:
	.loc 1 936 65 view .LVU603
	ldr	r2, .L227+4
	.loc 1 936 64 view .LVU604
	ldr	r4, .L227+12
.LVL143:
	.loc 1 936 65 view .LVU605
	ldr	r2, [r2, #8]
	.loc 1 936 19 view .LVU606
	ldr	r1, .L227+16
	.loc 1 936 100 view .LVU607
	ubfx	r2, r2, #4, #4
	.loc 1 936 21 view .LVU608
	mov	r3, r0
	.loc 1 936 122 view .LVU609
	ldrb	r2, [r4, r2]	@ zero_extendqisi2
	.loc 1 939 10 view .LVU610
	ldr	r0, .L227+20
	.loc 1 936 122 view .LVU611
	and	r2, r2, #31
	.loc 1 936 47 view .LVU612
	lsrs	r3, r3, r2
	.loc 1 936 19 view .LVU613
	str	r3, [r1]
	.loc 1 939 3 is_stmt 1 view .LVU614
	.loc 1 939 10 is_stmt 0 view .LVU615
	ldr	r0, [r0]
	.loc 1 940 1 view .LVU616
	pop	{r3, r4, r5, r6, r7, r8, r9, lr}
.LCFI15:
	.cfi_remember_state
	.cfi_restore 14
	.cfi_restore 9
	.cfi_restore 8
	.cfi_restore 7
	.cfi_restore 6
	.cfi_restore 5
	.cfi_restore 4
	.cfi_restore 3
	.cfi_def_cfa_offset 0
.LVL144:
	.loc 1 939 10 view .LVU617
	b	HAL_InitTick
.LVL145:
.L224:
.LCFI16:
	.cfi_restore_state
	.loc 1 876 3 is_stmt 1 view .LVU618
	.loc 1 876 6 is_stmt 0 view .LVU619
	lsls	r6, r3, #30
	bpl	.L169
.LVL146:
.L168:
	.loc 1 880 5 is_stmt 1 view .LVU620
	.loc 1 880 8 is_stmt 0 view .LVU621
	lsls	r0, r3, #29
	bpl	.L181
	.loc 1 882 7 is_stmt 1 view .LVU622
	ldr	r1, .L227+4
	ldr	r2, [r1, #8]
	orr	r2, r2, #1792
	str	r2, [r1, #8]
.L181:
	.loc 1 884 5 view .LVU623
	.loc 1 884 8 is_stmt 0 view .LVU624
	lsls	r1, r3, #28
	bpl	.L182
	.loc 1 886 7 is_stmt 1 view .LVU625
	ldr	r2, .L227+4
	ldr	r3, [r2, #8]
	bic	r3, r3, #16128
	orr	r3, r3, #1792
	str	r3, [r2, #8]
.L182:
	.loc 1 890 5 view .LVU626
	.loc 1 891 5 view .LVU627
	ldr	r2, .L227+4
	ldr	r1, [r4, #8]
	ldr	r3, [r2, #8]
	.loc 1 903 18 is_stmt 0 view .LVU628
	ldr	r6, .L227
	.loc 1 891 5 view .LVU629
	bic	r3, r3, #240
	orrs	r3, r3, r1
	str	r3, [r2, #8]
	.loc 1 903 3 is_stmt 1 view .LVU630
	.loc 1 903 18 is_stmt 0 view .LVU631
	ldr	r3, [r6]
	and	r3, r3, #15
	.loc 1 903 6 view .LVU632
	cmp	r3, r5
	bls	.L190
.L184:
	.loc 1 906 5 is_stmt 1 view .LVU633
	ldr	r3, [r6]
	bic	r3, r3, #15
	orrs	r3, r3, r5
	str	r3, [r6]
	.loc 1 910 5 view .LVU634
	.loc 1 910 17 is_stmt 0 view .LVU635
	bl	HAL_GetTick
.LVL147:
	.loc 1 914 10 view .LVU636
	movw	r8, #5000
	.loc 1 910 17 view .LVU637
	mov	r7, r0
.LVL148:
	.loc 1 912 5 is_stmt 1 view .LVU638
.L187:
	.loc 1 914 7 view .LVU639
	.loc 1 912 11 view .LVU640
	.loc 1 912 12 is_stmt 0 view .LVU641
	ldr	r3, [r6]
	and	r3, r3, #15
	.loc 1 912 11 view .LVU642
	cmp	r3, r5
	beq	.L190
	.loc 1 914 12 view .LVU643
	bl	HAL_GetTick
.LVL149:
	.loc 1 914 26 view .LVU644
	subs	r0, r0, r7
	.loc 1 914 10 view .LVU645
	cmp	r0, r8
	bls	.L187
.L188:
	.loc 1 870 16 view .LVU646
	movs	r0, #3
	.loc 1 940 1 view .LVU647
	pop	{r3, r4, r5, r6, r7, r8, r9, pc}
.LVL150:
.L226:
	.loc 1 835 9 is_stmt 1 view .LVU648
	.loc 1 835 11 is_stmt 0 view .LVU649
	lsls	r2, r3, #14
	bmi	.L176
	b	.L166
.L225:
	.loc 1 809 7 is_stmt 1 view .LVU650
	.loc 1 809 11 is_stmt 0 view .LVU651
	ldr	r1, .L227+4
.LVL151:
	.loc 1 809 11 view .LVU652
	ldr	r0, [r1]
.LVL152:
	.loc 1 809 10 view .LVU653
	lsls	r0, r0, #6
	bpl	.L166
	.loc 1 815 7 is_stmt 1 view .LVU654
.LBB17:
.LBI17:
	.loc 1 1359 17 view .LVU655
.LBB18:
	.loc 1 1361 3 view .LVU656
	.loc 1 1362 3 view .LVU657
	.loc 1 1367 3 view .LVU658
	.loc 1 1367 15 is_stmt 0 view .LVU659
	ldr	r6, [r1, #12]
.LVL153:
	.loc 1 1368 3 is_stmt 1 view .LVU660
	.loc 1 1368 11 is_stmt 0 view .LVU661
	ldr	r0, [r1, #12]
	.loc 1 1378 36 view .LVU662
	ldr	r1, [r1, #12]
.LBE18:
.LBE17:
	.loc 1 818 9 view .LVU663
	ldr	r7, .L227+8
.LBB21:
.LBB19:
	.loc 1 1367 13 view .LVU664
	and	r6, r6, #3
.LVL154:
	.loc 1 1370 3 view .LVU665
	cmp	r6, #3
	.loc 1 1368 52 view .LVU666
	ubfx	r0, r0, #4, #4
	.loc 1 1373 25 view .LVU667
	ite	eq
	ldreq	r6, .L227+24
.LVL155:
	.loc 1 1378 25 view .LVU668
	ldrne	r6, .L227+28
	.loc 1 1368 8 view .LVU669
	adds	r0, r0, #1
.LVL156:
	.loc 1 1370 3 is_stmt 1 view .LVU670
	.loc 1 1373 5 view .LVU671
	.loc 1 1378 5 view .LVU672
	.loc 1 1378 25 is_stmt 0 view .LVU673
	udiv	r0, r6, r0
.LVL157:
	.loc 1 1382 12 view .LVU674
	ldr	r6, .L227+4
	.loc 1 1378 77 view .LVU675
	ubfx	r1, r1, #8, #7
	.loc 1 1378 12 view .LVU676
	mul	r1, r0, r1
.LVL158:
	.loc 1 1379 5 is_stmt 1 view .LVU677
	.loc 1 1382 3 view .LVU678
	.loc 1 1382 12 is_stmt 0 view .LVU679
	ldr	r0, [r6, #12]
.LVL159:
	.loc 1 1383 3 is_stmt 1 view .LVU680
	.loc 1 1385 3 view .LVU681
	.loc 1 1385 3 is_stmt 0 view .LVU682
.LBE19:
.LBE21:
	.loc 1 818 7 is_stmt 1 view .LVU683
.LBB22:
.LBB20:
	.loc 1 1382 53 is_stmt 0 view .LVU684
	ubfx	r0, r0, #25, #2
.LVL160:
	.loc 1 1382 78 view .LVU685
	adds	r0, r0, #1
	.loc 1 1382 8 view .LVU686
	lsls	r0, r0, #1
	.loc 1 1383 16 view .LVU687
	udiv	r1, r1, r0
	.loc 1 1383 16 view .LVU688
.LBE20:
.LBE22:
	.loc 1 818 9 view .LVU689
	cmp	r1, r7
	.loc 1 818 9 view .LVU690
	bls	.L193
	.loc 1 820 9 is_stmt 1 view .LVU691
	.loc 1 820 15 is_stmt 0 view .LVU692
	ldr	r1, [r6, #8]
	.loc 1 820 12 view .LVU693
	tst	r1, #240
	beq	.L174
	.loc 1 820 71 discriminator 1 view .LVU694
	ands	r9, r3, #2
	beq	.L173
	.loc 1 821 93 view .LVU695
	ldr	r3, [r4, #8]
	cbnz	r3, .L193
.L174:
	.loc 1 824 11 is_stmt 1 view .LVU696
	ldr	r1, .L227+4
	ldr	r3, [r1, #8]
	bic	r3, r3, #240
	orr	r3, r3, #128
	str	r3, [r1, #8]
	.loc 1 825 11 view .LVU697
.LVL161:
	.loc 1 825 16 is_stmt 0 view .LVU698
	mov	r9, #128
	b	.L173
.LVL162:
.L223:
.LCFI17:
	.cfi_def_cfa_offset 0
	.cfi_restore 3
	.cfi_restore 4
	.cfi_restore 5
	.cfi_restore 6
	.cfi_restore 7
	.cfi_restore 8
	.cfi_restore 9
	.cfi_restore 14
	.loc 1 775 12 view .LVU699
	movs	r0, #1
.LVL163:
	.loc 1 940 1 view .LVU700
	bx	lr
.LVL164:
.L177:
.LCFI18:
	.cfi_def_cfa_offset 32
	.cfi_offset 3, -32
	.cfi_offset 4, -28
	.cfi_offset 5, -24
	.cfi_offset 6, -20
	.cfi_offset 7, -16
	.cfi_offset 8, -12
	.cfi_offset 9, -8
	.cfi_offset 14, -4
	.loc 1 855 9 is_stmt 1 view .LVU701
	ldr	r2, .L227+4
	ldr	r3, [r2, #8]
	.loc 1 856 14 is_stmt 0 view .LVU702
	mov	r9, #128
	.loc 1 855 9 view .LVU703
	bic	r3, r3, #240
	orr	r3, r3, r9
	str	r3, [r2, #8]
	.loc 1 856 9 is_stmt 1 view .LVU704
.LVL165:
	.loc 1 861 5 is_stmt 0 view .LVU705
	ldr	r2, [r4, #4]
	b	.L173
.LVL166:
.L193:
	.loc 1 770 12 view .LVU706
	mov	r9, #0
	b	.L173
.L228:
	.align	2
.L227:
	.word	1073881088
	.word	1073876992
	.word	80000000
	.word	AHBPrescTable
	.word	SystemCoreClock
	.word	uwTickPrio
	.word	8000000
	.word	16000000
	.cfi_endproc
.LFE134:
	.size	HAL_RCC_ClockConfig, .-HAL_RCC_ClockConfig
	.section	.text.HAL_RCC_GetHCLKFreq,"ax",%progbits
	.align	1
	.p2align 2,,3
	.global	HAL_RCC_GetHCLKFreq
	.syntax unified
	.thumb
	.thumb_func
	.fpu fpv4-sp-d16
	.type	HAL_RCC_GetHCLKFreq, %function
HAL_RCC_GetHCLKFreq:
.LFB137:
	.loc 1 1119 1 is_stmt 1 view -0
	.cfi_startproc
	@ args = 0, pretend = 0, frame = 0
	@ frame_needed = 0, uses_anonymous_args = 0
	@ link register save eliminated.
	.loc 1 1120 3 view .LVU708
	.loc 1 1120 10 is_stmt 0 view .LVU709
	ldr	r3, .L230
	.loc 1 1121 1 view .LVU710
	ldr	r0, [r3]
	bx	lr
.L231:
	.align	2
.L230:
	.word	SystemCoreClock
	.cfi_endproc
.LFE137:
	.size	HAL_RCC_GetHCLKFreq, .-HAL_RCC_GetHCLKFreq
	.section	.text.HAL_RCC_GetPCLK1Freq,"ax",%progbits
	.align	1
	.p2align 2,,3
	.global	HAL_RCC_GetPCLK1Freq
	.syntax unified
	.thumb
	.thumb_func
	.fpu fpv4-sp-d16
	.type	HAL_RCC_GetPCLK1Freq, %function
HAL_RCC_GetPCLK1Freq:
.LFB138:
	.loc 1 1130 1 is_stmt 1 view -0
	.cfi_startproc
	@ args = 0, pretend = 0, frame = 0
	@ frame_needed = 0, uses_anonymous_args = 0
	@ link register save eliminated.
	.loc 1 1132 3 view .LVU712
.LBB23:
.LBI23:
	.loc 1 1118 10 view .LVU713
.LBB24:
	.loc 1 1120 3 view .LVU714
.LBE24:
.LBE23:
	.loc 1 1132 51 is_stmt 0 view .LVU715
	ldr	r3, .L233
	.loc 1 1132 50 view .LVU716
	ldr	r2, .L233+4
	.loc 1 1132 51 view .LVU717
	ldr	r3, [r3, #8]
.LBB26:
.LBB25:
	.loc 1 1120 10 view .LVU718
	ldr	r1, .L233+8
.LBE25:
.LBE26:
	.loc 1 1132 87 view .LVU719
	ubfx	r3, r3, #8, #3
	.loc 1 1132 33 view .LVU720
	ldr	r0, [r1]
	.loc 1 1132 110 view .LVU721
	ldrb	r3, [r2, r3]	@ zero_extendqisi2
	and	r3, r3, #31
	.loc 1 1133 1 view .LVU722
	lsrs	r0, r0, r3
	bx	lr
.L234:
	.align	2
.L233:
	.word	1073876992
	.word	APBPrescTable
	.word	SystemCoreClock
	.cfi_endproc
.LFE138:
	.size	HAL_RCC_GetPCLK1Freq, .-HAL_RCC_GetPCLK1Freq
	.section	.text.HAL_RCC_GetPCLK2Freq,"ax",%progbits
	.align	1
	.p2align 2,,3
	.global	HAL_RCC_GetPCLK2Freq
	.syntax unified
	.thumb
	.thumb_func
	.fpu fpv4-sp-d16
	.type	HAL_RCC_GetPCLK2Freq, %function
HAL_RCC_GetPCLK2Freq:
.LFB139:
	.loc 1 1142 1 is_stmt 1 view -0
	.cfi_startproc
	@ args = 0, pretend = 0, frame = 0
	@ frame_needed = 0, uses_anonymous_args = 0
	@ link register save eliminated.
	.loc 1 1144 3 view .LVU724
.LBB27:
.LBI27:
	.loc 1 1118 10 view .LVU725
.LBB28:
	.loc 1 1120 3 view .LVU726
.LBE28:
.LBE27:
	.loc 1 1144 50 is_stmt 0 view .LVU727
	ldr	r3, .L236
	.loc 1 1144 49 view .LVU728
	ldr	r2, .L236+4
	.loc 1 1144 50 view .LVU729
	ldr	r3, [r3, #8]
.LBB30:
.LBB29:
	.loc 1 1120 10 view .LVU730
	ldr	r1, .L236+8
.LBE29:
.LBE30:
	.loc 1 1144 86 view .LVU731
	ubfx	r3, r3, #11, #3
	.loc 1 1144 32 view .LVU732
	ldr	r0, [r1]
	.loc 1 1144 109 view .LVU733
	ldrb	r3, [r2, r3]	@ zero_extendqisi2
	and	r3, r3, #31
	.loc 1 1145 1 view .LVU734
	lsrs	r0, r0, r3
	bx	lr
.L237:
	.align	2
.L236:
	.word	1073876992
	.word	APBPrescTable
	.word	SystemCoreClock
	.cfi_endproc
.LFE139:
	.size	HAL_RCC_GetPCLK2Freq, .-HAL_RCC_GetPCLK2Freq
	.section	.text.HAL_RCC_GetOscConfig,"ax",%progbits
	.align	1
	.p2align 2,,3
	.global	HAL_RCC_GetOscConfig
	.syntax unified
	.thumb
	.thumb_func
	.fpu fpv4-sp-d16
	.type	HAL_RCC_GetOscConfig, %function
HAL_RCC_GetOscConfig:
.LVL167:
.LFB140:
	.loc 1 1155 1 is_stmt 1 view -0
	.cfi_startproc
	@ args = 0, pretend = 0, frame = 0
	@ frame_needed = 0, uses_anonymous_args = 0
	@ link register save eliminated.
	.loc 1 1157 3 view .LVU736
	.loc 1 1160 3 view .LVU737
	.loc 1 1160 37 is_stmt 0 view .LVU738
	movs	r2, #47
	.loc 1 1164 6 view .LVU739
	ldr	r3, .L249
	.loc 1 1160 37 view .LVU740
	str	r2, [r0]
	.loc 1 1164 3 is_stmt 1 view .LVU741
	.loc 1 1164 6 is_stmt 0 view .LVU742
	ldr	r2, [r3]
	.loc 1 1164 5 view .LVU743
	lsls	r1, r2, #13
	bpl	.L239
	.loc 1 1166 5 is_stmt 1 view .LVU744
	.loc 1 1166 33 is_stmt 0 view .LVU745
	mov	r3, #327680
	str	r3, [r0, #4]
.L240:
	.loc 1 1178 3 is_stmt 1 view .LVU746
	.loc 1 1178 6 is_stmt 0 view .LVU747
	ldr	r3, .L249
	ldr	r2, [r3]
	.loc 1 1180 33 view .LVU748
	and	r2, r2, #256
	str	r2, [r0, #12]
	.loc 1 1187 3 is_stmt 1 view .LVU749
	.loc 1 1187 44 is_stmt 0 view .LVU750
	ldr	r2, [r3, #4]
	.loc 1 1187 84 view .LVU751
	ubfx	r2, r2, #24, #7
	.loc 1 1187 42 view .LVU752
	str	r2, [r0, #16]
	.loc 1 1190 3 is_stmt 1 view .LVU753
	.loc 1 1190 6 is_stmt 0 view .LVU754
	ldr	r2, [r3, #144]
	.loc 1 1190 5 view .LVU755
	lsls	r2, r2, #29
	bpl	.L243
	.loc 1 1192 5 is_stmt 1 view .LVU756
	.loc 1 1192 33 is_stmt 0 view .LVU757
	movs	r3, #5
	str	r3, [r0, #8]
.L244:
	.loc 1 1204 3 is_stmt 1 view .LVU758
	.loc 1 1204 6 is_stmt 0 view .LVU759
	ldr	r3, .L249
	ldr	r2, [r3, #148]
	and	r2, r2, #1
	str	r2, [r0, #20]
	.loc 1 1214 3 is_stmt 1 view .LVU760
	.loc 1 1214 6 is_stmt 0 view .LVU761
	ldr	r2, [r3, #152]
	and	r2, r2, #1
	str	r2, [r0, #24]
	.loc 1 1224 3 is_stmt 1 view .LVU762
	.loc 1 1224 6 is_stmt 0 view .LVU763
	ldr	r2, [r3]
	.loc 1 1230 37 view .LVU764
	tst	r2, #16777216
	ite	ne
	movne	r2, #2
	moveq	r2, #1
	str	r2, [r0, #28]
	.loc 1 1232 3 is_stmt 1 view .LVU765
	.loc 1 1232 38 is_stmt 0 view .LVU766
	ldr	r2, [r3, #12]
	and	r2, r2, #3
	.loc 1 1232 36 view .LVU767
	str	r2, [r0, #32]
	.loc 1 1233 3 is_stmt 1 view .LVU768
	.loc 1 1233 34 is_stmt 0 view .LVU769
	ldr	r2, [r3, #12]
	.loc 1 1233 75 view .LVU770
	ubfx	r2, r2, #4, #4
	.loc 1 1233 100 view .LVU771
	adds	r2, r2, #1
	.loc 1 1233 31 view .LVU772
	str	r2, [r0, #36]
	.loc 1 1234 3 is_stmt 1 view .LVU773
	.loc 1 1234 33 is_stmt 0 view .LVU774
	ldr	r2, [r3, #12]
	.loc 1 1234 74 view .LVU775
	ubfx	r2, r2, #8, #7
	.loc 1 1234 31 view .LVU776
	str	r2, [r0, #40]
	.loc 1 1235 3 is_stmt 1 view .LVU777
	.loc 1 1235 36 is_stmt 0 view .LVU778
	ldr	r2, [r3, #12]
	.loc 1 1235 77 view .LVU779
	ubfx	r2, r2, #21, #2
	.loc 1 1235 102 view .LVU780
	adds	r2, r2, #1
	.loc 1 1235 108 view .LVU781
	lsls	r2, r2, #1
	.loc 1 1235 31 view .LVU782
	str	r2, [r0, #48]
	.loc 1 1236 3 is_stmt 1 view .LVU783
	.loc 1 1236 36 is_stmt 0 view .LVU784
	ldr	r2, [r3, #12]
	.loc 1 1236 77 view .LVU785
	ubfx	r2, r2, #25, #2
	.loc 1 1236 102 view .LVU786
	adds	r2, r2, #1
	.loc 1 1236 108 view .LVU787
	lsls	r2, r2, #1
	.loc 1 1236 31 view .LVU788
	str	r2, [r0, #52]
	.loc 1 1237 3 is_stmt 1 view .LVU789
	.loc 1 1237 33 is_stmt 0 view .LVU790
	ldr	r3, [r3, #12]
	.loc 1 1237 77 view .LVU791
	lsrs	r3, r3, #27
	.loc 1 1237 31 view .LVU792
	str	r3, [r0, #44]
	.loc 1 1238 1 view .LVU793
	bx	lr
.L239:
	.loc 1 1168 8 is_stmt 1 view .LVU794
	.loc 1 1168 11 is_stmt 0 view .LVU795
	ldr	r3, [r3]
	.loc 1 1168 10 view .LVU796
	ands	r3, r3, #65536
	.loc 1 1170 5 is_stmt 1 view .LVU797
	.loc 1 1170 33 is_stmt 0 view .LVU798
	it	ne
	movne	r3, #65536
	.loc 1 1174 5 is_stmt 1 view .LVU799
	.loc 1 1174 33 is_stmt 0 view .LVU800
	str	r3, [r0, #4]
	b	.L240
.L243:
	.loc 1 1194 8 is_stmt 1 view .LVU801
	.loc 1 1194 11 is_stmt 0 view .LVU802
	ldr	r3, [r3, #144]
	.loc 1 1194 10 view .LVU803
	ands	r3, r3, #1
	.loc 1 1196 5 is_stmt 1 view .LVU804
	.loc 1 1196 33 is_stmt 0 view .LVU805
	it	ne
	movne	r3, #1
	.loc 1 1200 5 is_stmt 1 view .LVU806
	.loc 1 1200 33 is_stmt 0 view .LVU807
	str	r3, [r0, #8]
	b	.L244
.L250:
	.align	2
.L249:
	.word	1073876992
	.cfi_endproc
.LFE140:
	.size	HAL_RCC_GetOscConfig, .-HAL_RCC_GetOscConfig
	.section	.text.HAL_RCC_GetClockConfig,"ax",%progbits
	.align	1
	.p2align 2,,3
	.global	HAL_RCC_GetClockConfig
	.syntax unified
	.thumb
	.thumb_func
	.fpu fpv4-sp-d16
	.type	HAL_RCC_GetClockConfig, %function
HAL_RCC_GetClockConfig:
.LVL168:
.LFB141:
	.loc 1 1249 1 is_stmt 1 view -0
	.cfi_startproc
	@ args = 0, pretend = 0, frame = 0
	@ frame_needed = 0, uses_anonymous_args = 0
	@ link register save eliminated.
	.loc 1 1251 3 view .LVU809
	.loc 1 1252 3 view .LVU810
	.loc 1 1255 3 view .LVU811
	.loc 1 1258 37 is_stmt 0 view .LVU812
	ldr	r3, .L253
	.loc 1 1255 32 view .LVU813
	movs	r2, #15
	str	r2, [r0]
	.loc 1 1258 3 is_stmt 1 view .LVU814
	.loc 1 1258 37 is_stmt 0 view .LVU815
	ldr	r2, [r3, #8]
	and	r2, r2, #3
	.loc 1 1258 35 view .LVU816
	str	r2, [r0, #4]
	.loc 1 1261 3 is_stmt 1 view .LVU817
	.loc 1 1261 38 is_stmt 0 view .LVU818
	ldr	r2, [r3, #8]
	and	r2, r2, #240
	.loc 1 1261 36 view .LVU819
	str	r2, [r0, #8]
	.loc 1 1264 3 is_stmt 1 view .LVU820
	.loc 1 1264 39 is_stmt 0 view .LVU821
	ldr	r2, [r3, #8]
	and	r2, r2, #1792
	.loc 1 1264 37 view .LVU822
	str	r2, [r0, #12]
	.loc 1 1267 3 is_stmt 1 view .LVU823
	.loc 1 1267 40 is_stmt 0 view .LVU824
	ldr	r3, [r3, #8]
	.loc 1 1267 76 view .LVU825
	lsrs	r3, r3, #3
	.loc 1 1249 1 view .LVU826
	push	{r4}
.LCFI19:
	.cfi_def_cfa_offset 4
	.cfi_offset 4, -4
	.loc 1 1267 76 view .LVU827
	and	r3, r3, #1792
	.loc 1 1270 16 view .LVU828
	ldr	r4, .L253+4
	.loc 1 1267 37 view .LVU829
	str	r3, [r0, #16]
	.loc 1 1270 3 is_stmt 1 view .LVU830
	.loc 1 1270 16 is_stmt 0 view .LVU831
	ldr	r3, [r4]
	.loc 1 1271 1 view .LVU832
	ldr	r4, [sp], #4
.LCFI20:
	.cfi_restore 4
	.cfi_def_cfa_offset 0
	.loc 1 1270 16 view .LVU833
	and	r3, r3, #15
	.loc 1 1270 14 view .LVU834
	str	r3, [r1]
	.loc 1 1271 1 view .LVU835
	bx	lr
.L254:
	.align	2
.L253:
	.word	1073876992
	.word	1073881088
	.cfi_endproc
.LFE141:
	.size	HAL_RCC_GetClockConfig, .-HAL_RCC_GetClockConfig
	.section	.text.HAL_RCC_EnableCSS,"ax",%progbits
	.align	1
	.p2align 2,,3
	.global	HAL_RCC_EnableCSS
	.syntax unified
	.thumb
	.thumb_func
	.fpu fpv4-sp-d16
	.type	HAL_RCC_EnableCSS, %function
HAL_RCC_EnableCSS:
.LFB142:
	.loc 1 1284 1 is_stmt 1 view -0
	.cfi_startproc
	@ args = 0, pretend = 0, frame = 0
	@ frame_needed = 0, uses_anonymous_args = 0
	@ link register save eliminated.
	.loc 1 1285 3 view .LVU837
	ldr	r2, .L256
	ldr	r3, [r2]
	orr	r3, r3, #524288
	str	r3, [r2]
	.loc 1 1286 1 is_stmt 0 view .LVU838
	bx	lr
.L257:
	.align	2
.L256:
	.word	1073876992
	.cfi_endproc
.LFE142:
	.size	HAL_RCC_EnableCSS, .-HAL_RCC_EnableCSS
	.section	.text.HAL_RCC_EnableLSECSS,"ax",%progbits
	.align	1
	.p2align 2,,3
	.global	HAL_RCC_EnableLSECSS
	.syntax unified
	.thumb
	.thumb_func
	.fpu fpv4-sp-d16
	.type	HAL_RCC_EnableLSECSS, %function
HAL_RCC_EnableLSECSS:
.LFB143:
	.loc 1 1298 1 is_stmt 1 view -0
	.cfi_startproc
	@ args = 0, pretend = 0, frame = 0
	@ frame_needed = 0, uses_anonymous_args = 0
	@ link register save eliminated.
	.loc 1 1299 3 view .LVU840
	ldr	r2, .L259
	ldr	r3, [r2, #144]
	orr	r3, r3, #32
	str	r3, [r2, #144]
	.loc 1 1300 1 is_stmt 0 view .LVU841
	bx	lr
.L260:
	.align	2
.L259:
	.word	1073876992
	.cfi_endproc
.LFE143:
	.size	HAL_RCC_EnableLSECSS, .-HAL_RCC_EnableLSECSS
	.section	.text.HAL_RCC_DisableLSECSS,"ax",%progbits
	.align	1
	.p2align 2,,3
	.global	HAL_RCC_DisableLSECSS
	.syntax unified
	.thumb
	.thumb_func
	.fpu fpv4-sp-d16
	.type	HAL_RCC_DisableLSECSS, %function
HAL_RCC_DisableLSECSS:
.LFB144:
	.loc 1 1309 1 is_stmt 1 view -0
	.cfi_startproc
	@ args = 0, pretend = 0, frame = 0
	@ frame_needed = 0, uses_anonymous_args = 0
	@ link register save eliminated.
	.loc 1 1310 3 view .LVU843
	ldr	r2, .L262
	ldr	r3, [r2, #144]
	bic	r3, r3, #32
	str	r3, [r2, #144]
	.loc 1 1311 1 is_stmt 0 view .LVU844
	bx	lr
.L263:
	.align	2
.L262:
	.word	1073876992
	.cfi_endproc
.LFE144:
	.size	HAL_RCC_DisableLSECSS, .-HAL_RCC_DisableLSECSS
	.section	.text.HAL_RCC_CSSCallback,"ax",%progbits
	.align	1
	.p2align 2,,3
	.weak	HAL_RCC_CSSCallback
	.syntax unified
	.thumb
	.thumb_func
	.fpu fpv4-sp-d16
	.type	HAL_RCC_CSSCallback, %function
HAL_RCC_CSSCallback:
.LFB146:
	.loc 1 1336 1 is_stmt 1 view -0
	.cfi_startproc
	@ args = 0, pretend = 0, frame = 0
	@ frame_needed = 0, uses_anonymous_args = 0
	@ link register save eliminated.
	.loc 1 1340 1 view .LVU846
	bx	lr
	.cfi_endproc
.LFE146:
	.size	HAL_RCC_CSSCallback, .-HAL_RCC_CSSCallback
	.section	.text.HAL_RCC_NMI_IRQHandler,"ax",%progbits
	.align	1
	.p2align 2,,3
	.global	HAL_RCC_NMI_IRQHandler
	.syntax unified
	.thumb
	.thumb_func
	.fpu fpv4-sp-d16
	.type	HAL_RCC_NMI_IRQHandler, %function
HAL_RCC_NMI_IRQHandler:
.LFB145:
	.loc 1 1319 1 view -0
	.cfi_startproc
	@ args = 0, pretend = 0, frame = 0
	@ frame_needed = 0, uses_anonymous_args = 0
	.loc 1 1321 3 view .LVU848
	.loc 1 1319 1 is_stmt 0 view .LVU849
	push	{r4, lr}
.LCFI21:
	.cfi_def_cfa_offset 8
	.cfi_offset 4, -8
	.cfi_offset 14, -4
	.loc 1 1321 6 view .LVU850
	ldr	r4, .L272
	ldr	r3, [r4, #28]
	.loc 1 1321 5 view .LVU851
	lsls	r3, r3, #23
	bmi	.L271
	.loc 1 1329 1 view .LVU852
	pop	{r4, pc}
.L271:
	.loc 1 1324 5 is_stmt 1 view .LVU853
	bl	HAL_RCC_CSSCallback
.LVL169:
	.loc 1 1327 5 view .LVU854
	mov	r3, #256
	str	r3, [r4, #32]
	.loc 1 1329 1 is_stmt 0 view .LVU855
	pop	{r4, pc}
.L273:
	.align	2
.L272:
	.word	1073876992
	.cfi_endproc
.LFE145:
	.size	HAL_RCC_NMI_IRQHandler, .-HAL_RCC_NMI_IRQHandler
	.text
.Letext0:
	.file 2 "/usr/share/gcc-arm-none-eabi-10-2020-q4-major/arm-none-eabi/include/machine/_default_types.h"
	.file 3 "/usr/share/gcc-arm-none-eabi-10-2020-q4-major/arm-none-eabi/include/sys/_stdint.h"
	.file 4 "Drivers/CMSIS/Device/ST/STM32G4xx/Include/system_stm32g4xx.h"
	.file 5 "Drivers/CMSIS/Device/ST/STM32G4xx/Include/stm32g431xx.h"
	.file 6 "Drivers/CMSIS/Device/ST/STM32G4xx/Include/stm32g4xx.h"
	.file 7 "Drivers/STM32G4xx_HAL_Driver/Inc/stm32g4xx_hal_def.h"
	.file 8 "Drivers/STM32G4xx_HAL_Driver/Inc/stm32g4xx_hal_rcc.h"
	.file 9 "Drivers/STM32G4xx_HAL_Driver/Inc/stm32g4xx_hal_gpio.h"
	.file 10 "Drivers/STM32G4xx_HAL_Driver/Inc/stm32g4xx_hal.h"