	.cpu cortex-m4
	.eabi_attribute 27, 1
	.eabi_attribute 28, 1
	.eabi_attribute 20, 1
	.eabi_attribute 21, 1
	.eabi_attribute 23, 3
	.eabi_attribute 24, 1
	.eabi_attribute 25, 1
	.eabi_attribute 26, 1
	.eabi_attribute 30, 2
	.eabi_attribute 34, 1
	.eabi_attribute 18, 4
	.file	"stm32g4xx_ll_utils.c"
	.text
.Ltext0:
	.cfi_sections	.debug_frame
	.section	.text.LL_Init1msTick,"ax",%progbits
	.align	1
	.p2align 2,,3
	.global	LL_Init1msTick
	.arch armv7e-m
	.syntax unified
	.thumb
	.thumb_func
	.fpu fpv4-sp-d16
	.type	LL_Init1msTick, %function
LL_Init1msTick:
.LVL0:
.LFB434:
	.file 1 "Drivers/STM32G4xx_HAL_Driver/Src/stm32g4xx_ll_utils.c"
	.loc 1 171 1 view -0
	.cfi_startproc
	@ args = 0, pretend = 0, frame = 0
	@ frame_needed = 0, uses_anonymous_args = 0
	@ link register save eliminated.
	.loc 1 173 3 view .LVU1
.LBB72:
.LBB73:
	.file 2 "Drivers/STM32G4xx_HAL_Driver/Inc/stm32g4xx_ll_utils.h"
	.loc 2 285 46 is_stmt 0 view .LVU2
	ldr	r3, .L3
.LVL1:
	.loc 2 285 46 view .LVU3
.LBE73:
.LBI72:
	.loc 2 282 22 is_stmt 1 view .LVU4
.LBB74:
	.loc 2 285 3 view .LVU5
	.loc 2 285 46 is_stmt 0 view .LVU6
	umull	r3, r0, r3, r0
.LVL2:
	.loc 2 285 18 view .LVU7
	mov	r2, #-536813568
	.loc 2 285 46 view .LVU8
	lsrs	r3, r0, #6
	.loc 2 285 20 view .LVU9
	subs	r3, r3, #1
	.loc 2 286 18 view .LVU10
	movs	r0, #0
	.loc 2 287 18 view .LVU11
	movs	r1, #5
	.loc 2 285 18 view .LVU12
	str	r3, [r2, #20]
	.loc 2 286 3 is_stmt 1 view .LVU13
	.loc 2 286 18 is_stmt 0 view .LVU14
	str	r0, [r2, #24]
	.loc 2 287 3 is_stmt 1 view .LVU15
	.loc 2 287 18 is_stmt 0 view .LVU16
	str	r1, [r2, #16]
.LVL3:
	.loc 2 287 18 view .LVU17
.LBE74:
.LBE72:
	.loc 1 174 1 view .LVU18
	bx	lr
.L4:
	.align	2
.L3:
	.word	274877907
	.cfi_endproc
.LFE434:
	.size	LL_Init1msTick, .-LL_Init1msTick
	.section	.text.LL_mDelay,"ax",%progbits
	.align	1
	.p2align 2,,3
	.global	LL_mDelay
	.syntax unified
	.thumb
	.thumb_func
	.fpu fpv4-sp-d16
	.type	LL_mDelay, %function
LL_mDelay:
.LVL4:
.LFB435:
	.loc 1 187 1 is_stmt 1 view -0
	.cfi_startproc
	@ args = 0, pretend = 0, frame = 8
	@ frame_needed = 0, uses_anonymous_args = 0
	@ link register save eliminated.
	.loc 1 188 3 view .LVU20
	.loc 1 188 31 is_stmt 0 view .LVU21
	mov	r3, #-536813568
	.loc 1 187 1 view .LVU22
	sub	sp, sp, #8
.LCFI0:
	.cfi_def_cfa_offset 8
	.loc 1 188 31 view .LVU23
	ldr	r3, [r3, #16]
	.loc 1 188 18 view .LVU24
	str	r3, [sp, #4]
	.loc 1 189 3 is_stmt 1 view .LVU25
	.loc 1 191 3 view .LVU26
	.loc 1 194 5 is_stmt 0 view .LVU27
	adds	r2, r0, #1
	.loc 1 191 4 view .LVU28
	ldr	r3, [sp, #4]
	.loc 1 192 3 is_stmt 1 view .LVU29
.LVL5:
	.loc 1 194 3 view .LVU30
	.loc 1 196 5 view .LVU31
	.loc 1 196 13 is_stmt 0 view .LVU32
	it	ne
	addne	r0, r0, #1
.LVL6:
	.loc 1 201 16 view .LVU33
	mov	r2, #-536813568
.LVL7:
.L10:
	.loc 1 199 9 is_stmt 1 view .LVU34
	.loc 1 201 5 view .LVU35
	.loc 1 201 16 is_stmt 0 view .LVU36
	ldr	r3, [r2, #16]
	.loc 1 201 7 view .LVU37
	lsls	r3, r3, #15
	bpl	.L10
	.loc 1 203 7 is_stmt 1 view .LVU38
.LVL8:
	.loc 1 203 7 is_stmt 0 view .LVU39
	subs	r0, r0, #1
.LVL9:
	.loc 1 203 7 view .LVU40
	bne	.L10
	.loc 1 206 1 view .LVU41
	add	sp, sp, #8
.LCFI1:
	.cfi_def_cfa_offset 0
	@ sp needed
	bx	lr
	.cfi_endproc
.LFE435:
	.size	LL_mDelay, .-LL_mDelay
	.section	.text.LL_SetSystemCoreClock,"ax",%progbits
	.align	1
	.p2align 2,,3
	.global	LL_SetSystemCoreClock
	.syntax unified
	.thumb
	.thumb_func
	.fpu fpv4-sp-d16
	.type	LL_SetSystemCoreClock, %function
LL_SetSystemCoreClock:
.LVL10:
.LFB436:
	.loc 1 258 1 is_stmt 1 view -0
	.cfi_startproc
	@ args = 0, pretend = 0, frame = 0
	@ frame_needed = 0, uses_anonymous_args = 0
	@ link register save eliminated.
	.loc 1 260 3 view .LVU43
	.loc 1 260 19 is_stmt 0 view .LVU44
	ldr	r3, .L16
	str	r0, [r3]
	.loc 1 261 1 view .LVU45
	bx	lr
.L17:
	.align	2
.L16:
	.word	SystemCoreClock
	.cfi_endproc
.LFE436:
	.size	LL_SetSystemCoreClock, .-LL_SetSystemCoreClock
	.section	.text.LL_SetFlashLatency,"ax",%progbits
	.align	1
	.p2align 2,,3
	.global	LL_SetFlashLatency
	.syntax unified
	.thumb
	.thumb_func
	.fpu fpv4-sp-d16
	.type	LL_SetFlashLatency, %function
LL_SetFlashLatency:
.LVL11:
.LFB437:
	.loc 1 272 1 is_stmt 1 view -0
	.cfi_startproc
	@ args = 0, pretend = 0, frame = 0
	@ frame_needed = 0, uses_anonymous_args = 0
	@ link register save eliminated.
	.loc 1 273 3 view .LVU47
	.loc 1 274 3 view .LVU48
	.loc 1 275 3 view .LVU49
	.loc 1 276 3 view .LVU50
.LBB75:
.LBI75:
	.file 3 "Drivers/STM32G4xx_HAL_Driver/Inc/stm32g4xx_ll_pwr.h"
	.loc 3 330 26 view .LVU51
.LBB76:
	.loc 3 332 3 view .LVU52
	.loc 3 332 21 is_stmt 0 view .LVU53
	ldr	r2, .L41
	ldr	r3, [r2]
.LBE76:
.LBE75:
.LBB78:
.LBB79:
	.loc 3 364 10 view .LVU54
	ldr	r2, [r2, #128]
	.loc 3 366 28 view .LVU55
	tst	r2, #256
.LBE79:
.LBE78:
.LBB82:
.LBB77:
	.loc 3 332 10 view .LVU56
	and	r3, r3, #1536
.LVL12:
	.loc 3 332 10 view .LVU57
.LBE77:
.LBE82:
	.loc 1 277 3 is_stmt 1 view .LVU58
.LBB83:
.LBI78:
	.loc 3 361 26 view .LVU59
.LBB80:
	.loc 3 363 3 view .LVU60
	.loc 3 364 3 view .LVU61
	.loc 3 366 3 view .LVU62
.LBE80:
.LBE83:
	.loc 1 282 5 is_stmt 0 view .LVU63
	ldr	r2, .L41+4
.LVL13:
	.loc 1 282 28 view .LVU64
	add	r1, r0, #-1
.LBB84:
.LBB81:
	.loc 3 366 28 view .LVU65
	bne	.L19
.LVL14:
	.loc 3 366 28 view .LVU66
.LBE81:
.LBE84:
	.loc 1 279 3 is_stmt 1 view .LVU67
	.loc 1 282 3 view .LVU68
	.loc 1 282 5 is_stmt 0 view .LVU69
	cmp	r1, r2
	bls	.L37
.LVL15:
.L26:
	.loc 1 284 12 view .LVU70
	movs	r0, #1
.LVL16:
	.loc 1 284 12 view .LVU71
	bx	lr
.LVL17:
.L37:
	.loc 1 288 5 is_stmt 1 view .LVU72
	.loc 1 288 7 is_stmt 0 view .LVU73
	cmp	r3, #512
	beq	.L38
.LVL18:
.L22:
	.loc 1 344 10 is_stmt 1 view .LVU74
	.loc 1 344 12 is_stmt 0 view .LVU75
	cmp	r3, #1024
	beq	.L39
	.loc 1 279 12 view .LVU76
	movs	r0, #0
.LVL19:
.L24:
	.loc 1 364 5 is_stmt 1 view .LVU77
	.loc 1 366 5 view .LVU78
	.loc 1 368 7 view .LVU79
.LBB85:
.LBI85:
	.file 4 "Drivers/STM32G4xx_HAL_Driver/Inc/stm32g4xx_ll_system.h"
	.loc 4 1289 22 view .LVU80
.LBB86:
	.loc 4 1291 3 view .LVU81
	ldr	r2, .L41+8
	ldr	r3, [r2]
	bic	r3, r3, #15
	orrs	r3, r3, r0
	str	r3, [r2]
.LVL20:
	.loc 4 1291 3 is_stmt 0 view .LVU82
.LBE86:
.LBE85:
	.loc 1 372 7 is_stmt 1 view .LVU83
	.loc 1 373 7 view .LVU84
	.loc 1 376 9 view .LVU85
.LBB87:
.LBI87:
	.loc 4 1317 26 view .LVU86
.LBB88:
	.loc 4 1319 3 view .LVU87
	.loc 4 1319 21 is_stmt 0 view .LVU88
	ldr	r3, [r2]
.LVL21:
	.loc 4 1319 21 view .LVU89
.LBE88:
.LBE87:
	.loc 1 377 9 is_stmt 1 view .LVU90
	.loc 1 378 15 view .LVU91
.LBB92:
.LBB89:
	.loc 4 1319 10 is_stmt 0 view .LVU92
	and	r3, r3, #15
.LVL22:
	.loc 4 1319 10 view .LVU93
.LBE89:
.LBE92:
	.loc 1 378 7 view .LVU94
	cmp	r0, r3
	beq	.L35
	.loc 1 373 7 is_stmt 1 view .LVU95
	.loc 1 376 9 view .LVU96
.LBB93:
	.loc 4 1317 26 view .LVU97
.LBB90:
	.loc 4 1319 3 view .LVU98
	.loc 4 1319 21 is_stmt 0 view .LVU99
	ldr	r3, [r2]
.LVL23:
	.loc 4 1319 21 view .LVU100
.LBE90:
.LBE93:
	.loc 1 377 9 is_stmt 1 view .LVU101
	.loc 1 378 15 view .LVU102
	.loc 1 380 7 view .LVU103
.LBB94:
.LBB91:
	.loc 4 1319 10 is_stmt 0 view .LVU104
	and	r3, r3, #15
.LVL24:
	.loc 4 1319 10 view .LVU105
.LBE91:
.LBE94:
	.loc 1 284 12 view .LVU106
	subs	r0, r3, r0
.LVL25:
	.loc 1 284 12 view .LVU107
	it	ne
	movne	r0, #1
	bx	lr
.LVL26:
.L19:
	.loc 1 279 3 is_stmt 1 view .LVU108
	.loc 1 282 3 view .LVU109
	.loc 1 282 5 is_stmt 0 view .LVU110
	cmp	r1, r2
	bhi	.L26
	.loc 1 316 10 is_stmt 1 view .LVU111
	.loc 1 316 12 is_stmt 0 view .LVU112
	cmp	r3, #512
	bne	.L22
	.loc 1 318 7 is_stmt 1 view .LVU113
	.loc 1 318 9 is_stmt 0 view .LVU114
	ldr	r3, .L41+12
.LVL27:
	.loc 1 318 9 view .LVU115
	cmp	r0, r3
	bhi	.L30
	.loc 1 323 12 is_stmt 1 view .LVU116
	.loc 1 323 14 is_stmt 0 view .LVU117
	ldr	r3, .L41+16
	cmp	r0, r3
	bhi	.L31
	.loc 1 328 12 is_stmt 1 view .LVU118
	.loc 1 328 14 is_stmt 0 view .LVU119
	ldr	r3, .L41+20
	cmp	r0, r3
	bhi	.L34
	.loc 1 335 9 is_stmt 1 view .LVU120
	.loc 1 335 11 is_stmt 0 view .LVU121
	ldr	r3, .L41+24
	cmp	r0, r3
	ite	ls
	movls	r0, #0
.LVL28:
	.loc 1 335 11 view .LVU122
	movhi	r0, #1
	b	.L24
.LVL29:
.L39:
	.loc 1 346 7 is_stmt 1 view .LVU123
	.loc 1 346 9 is_stmt 0 view .LVU124
	ldr	r3, .L41+28
.LVL30:
	.loc 1 346 9 view .LVU125
	cmp	r0, r3
	bls	.L40
.L34:
	.loc 1 303 17 view .LVU126
	movs	r0, #2
.LVL31:
	.loc 1 303 17 view .LVU127
	b	.L24
.LVL32:
.L38:
	.loc 1 290 7 is_stmt 1 view .LVU128
	.loc 1 290 9 is_stmt 0 view .LVU129
	ldr	r3, .L41+32
.LVL33:
	.loc 1 290 9 view .LVU130
	cmp	r0, r3
	bhi	.L30
	.loc 1 295 12 is_stmt 1 view .LVU131
	.loc 1 295 14 is_stmt 0 view .LVU132
	ldr	r3, .L41+36
	cmp	r0, r3
	bhi	.L31
	.loc 1 300 12 is_stmt 1 view .LVU133
	.loc 1 300 14 is_stmt 0 view .LVU134
	ldr	r3, .L41+40
	cmp	r0, r3
	bhi	.L34
	.loc 1 307 9 is_stmt 1 view .LVU135
	.loc 1 307 11 is_stmt 0 view .LVU136
	ldr	r3, .L41+44
	cmp	r0, r3
	ite	ls
	movls	r0, #0
.LVL34:
	.loc 1 307 11 view .LVU137
	movhi	r0, #1
	b	.L24
.LVL35:
.L31:
	.loc 1 298 17 view .LVU138
	movs	r0, #3
.LVL36:
	.loc 1 298 17 view .LVU139
	b	.L24
.LVL37:
.L30:
	.loc 1 293 17 view .LVU140
	movs	r0, #4
.LVL38:
	.loc 1 293 17 view .LVU141
	b	.L24
.LVL39:
.L40:
	.loc 1 353 9 is_stmt 1 view .LVU142
	.loc 1 353 11 is_stmt 0 view .LVU143
	ldr	r3, .L41+48
	cmp	r0, r3
	ite	ls
	movls	r0, #0
.LVL40:
	.loc 1 353 11 view .LVU144
	movhi	r0, #1
	b	.L24
.LVL41:
.L35:
	.loc 1 275 15 view .LVU145
	movs	r0, #0
.LVL42:
	.loc 1 387 3 is_stmt 1 view .LVU146
	.loc 1 388 1 is_stmt 0 view .LVU147
	bx	lr
.L42:
	.align	2
.L41:
	.word	1073770496
	.word	169999999
	.word	1073881088
	.word	120000000
	.word	90000000
	.word	60000000
	.word	30000000
	.word	24000000
	.word	136000000
	.word	102000000
	.word	68000000
	.word	34000000
	.word	12000000
	.cfi_endproc
.LFE437:
	.size	LL_SetFlashLatency, .-LL_SetFlashLatency
	.section	.text.UTILS_EnablePLLAndSwitchSystem,"ax",%progbits
	.align	1
	.p2align 2,,3
	.syntax unified
	.thumb
	.thumb_func
	.fpu fpv4-sp-d16
	.type	UTILS_EnablePLLAndSwitchSystem, %function
UTILS_EnablePLLAndSwitchSystem:
.LVL43:
.LFB442:
	.loc 1 639 1 is_stmt 1 view -0
	.cfi_startproc
	@ args = 0, pretend = 0, frame = 0
	@ frame_needed = 0, uses_anonymous_args = 0
	.loc 1 640 3 view .LVU149
	.loc 1 641 3 view .LVU150
	.loc 1 643 3 view .LVU151
	.loc 1 644 3 view .LVU152
	.loc 1 645 3 view .LVU153
	.loc 1 648 3 view .LVU154
	.loc 1 639 1 is_stmt 0 view .LVU155
	push	{r3, r4, r5, r6, r7, lr}
.LCFI2:
	.cfi_def_cfa_offset 24
	.cfi_offset 3, -24
	.cfi_offset 4, -20
	.cfi_offset 5, -16
	.cfi_offset 6, -12
	.cfi_offset 7, -8
	.cfi_offset 14, -4
	.loc 1 648 20 view .LVU156
	ldr	r7, [r1]
	ldr	r2, .L60
	.loc 1 651 22 view .LVU157
	ldr	r6, .L60+4
	.loc 1 648 20 view .LVU158
	ubfx	r3, r7, #4, #4
	.loc 1 639 1 view .LVU159
	mov	r5, r1
	.loc 1 648 20 view .LVU160
	ldrb	r3, [r2, r3]	@ zero_extendqisi2
	.loc 1 651 22 view .LVU161
	ldr	r1, [r6]
.LVL44:
	.loc 1 648 20 view .LVU162
	and	r3, r3, #31
	.loc 1 648 18 view .LVU163
	lsr	r4, r0, r3
.LVL45:
	.loc 1 651 3 is_stmt 1 view .LVU164
	.loc 1 651 5 is_stmt 0 view .LVU165
	cmp	r1, r4
	bcc	.L59
.LVL46:
.L44:
	.loc 1 661 5 is_stmt 1 view .LVU166
.LBB95:
.LBI95:
	.file 5 "Drivers/STM32G4xx_HAL_Driver/Inc/stm32g4xx_ll_rcc.h"
	.loc 5 2053 22 view .LVU167
.LBB96:
	.loc 5 2055 3 view .LVU168
	ldr	r3, .L60+8
	ldr	r0, [r3]
	orr	r0, r0, #16777216
	str	r0, [r3]
.LBE96:
.LBE95:
	.loc 1 662 5 view .LVU169
.LBB97:
.LBI97:
	.loc 5 2446 22 view .LVU170
.LBB98:
	.loc 5 2448 3 view .LVU171
	ldr	r0, [r3, #12]
	orr	r0, r0, #16777216
	str	r0, [r3, #12]
.L46:
.LBE98:
.LBE97:
	.loc 1 666 5 discriminator 1 view .LVU172
	.loc 1 663 11 discriminator 1 view .LVU173
.LBB99:
.LBI99:
	.loc 5 2074 26 discriminator 1 view .LVU174
.LBB100:
	.loc 5 2076 3 discriminator 1 view .LVU175
	.loc 5 2076 12 is_stmt 0 discriminator 1 view .LVU176
	ldr	r2, [r3]
	.loc 5 2076 71 discriminator 1 view .LVU177
	lsls	r2, r2, #6
	bpl	.L46
.LBE100:
.LBE99:
	.loc 1 669 5 is_stmt 1 view .LVU178
.LVL47:
.LBB101:
.LBI101:
	.loc 5 1373 22 view .LVU179
.LBB102:
	.loc 5 1375 3 view .LVU180
	ldr	r2, [r3, #8]
	bic	r2, r2, #240
	orrs	r2, r2, r7
	str	r2, [r3, #8]
.LVL48:
	.loc 5 1375 3 is_stmt 0 view .LVU181
.LBE102:
.LBE101:
	.loc 1 670 5 is_stmt 1 view .LVU182
.LBB103:
.LBI103:
	.loc 5 1340 22 view .LVU183
.LBB104:
	.loc 5 1342 3 view .LVU184
	ldr	r2, [r3, #8]
	orr	r2, r2, #3
	str	r2, [r3, #8]
.LBE104:
.LBE103:
.LBB105:
.LBB106:
	.loc 5 1355 21 is_stmt 0 view .LVU185
	ldr	r2, .L60+8
.LVL49:
.L47:
	.loc 5 1355 21 view .LVU186
.LBE106:
.LBE105:
	.loc 1 674 5 is_stmt 1 discriminator 1 view .LVU187
	.loc 1 671 11 discriminator 1 view .LVU188
.LBB108:
.LBI105:
	.loc 5 1353 26 discriminator 1 view .LVU189
.LBB107:
	.loc 5 1355 3 discriminator 1 view .LVU190
	.loc 5 1355 21 is_stmt 0 discriminator 1 view .LVU191
	ldr	r3, [r2, #8]
	.loc 5 1355 10 discriminator 1 view .LVU192
	and	r3, r3, #12
.LBE107:
.LBE108:
	.loc 1 671 11 discriminator 1 view .LVU193
	cmp	r3, #12
	bne	.L47
	.loc 1 677 5 is_stmt 1 view .LVU194
.LVL50:
.LBB109:
.LBI109:
	.loc 5 1389 22 view .LVU195
.LBB110:
	.loc 5 1391 3 view .LVU196
	ldr	r3, [r2, #8]
	ldr	r0, [r5, #4]
	bic	r3, r3, #1792
	orrs	r3, r3, r0
	str	r3, [r2, #8]
.LVL51:
	.loc 5 1391 3 is_stmt 0 view .LVU197
.LBE110:
.LBE109:
	.loc 1 678 5 is_stmt 1 view .LVU198
.LBB111:
.LBI111:
	.loc 5 1405 22 view .LVU199
.LBB112:
	.loc 5 1407 3 view .LVU200
	ldr	r3, [r2, #8]
	ldr	r0, [r5, #8]
	bic	r3, r3, #14336
	orrs	r3, r3, r0
.LBE112:
.LBE111:
	.loc 1 682 5 is_stmt 0 view .LVU201
	cmp	r1, r4
.LBB114:
.LBB113:
	.loc 5 1407 3 view .LVU202
	str	r3, [r2, #8]
.LVL52:
	.loc 5 1407 3 view .LVU203
.LBE113:
.LBE114:
	.loc 1 682 3 is_stmt 1 view .LVU204
	.loc 1 682 5 is_stmt 0 view .LVU205
	bhi	.L48
.L50:
	.loc 1 691 5 is_stmt 1 view .LVU206
.LVL53:
.LBB115:
.LBI115:
	.loc 1 257 6 view .LVU207
.LBB116:
	.loc 1 260 3 view .LVU208
	.loc 1 260 19 is_stmt 0 view .LVU209
	str	r4, [r6]
	.loc 1 261 1 view .LVU210
	movs	r0, #0
.LVL54:
.L49:
	.loc 1 261 1 view .LVU211
.LBE116:
.LBE115:
	.loc 1 694 3 is_stmt 1 view .LVU212
	.loc 1 695 1 is_stmt 0 view .LVU213
	pop	{r3, r4, r5, r6, r7, pc}
.LVL55:
.L59:
	.loc 1 654 5 is_stmt 1 view .LVU214
	.loc 1 654 14 is_stmt 0 view .LVU215
	mov	r0, r4
.LVL56:
	.loc 1 654 14 view .LVU216
	bl	LL_SetFlashLatency
.LVL57:
	.loc 1 658 3 is_stmt 1 view .LVU217
	.loc 1 658 5 is_stmt 0 view .LVU218
	cbnz	r0, .L45
	.loc 1 669 5 view .LVU219
	ldr	r7, [r5]
	.loc 1 682 22 view .LVU220
	ldr	r1, [r6]
	b	.L44
.L45:
	.loc 1 682 3 is_stmt 1 view .LVU221
	.loc 1 682 5 is_stmt 0 view .LVU222
	ldr	r3, [r6]
	cmp	r3, r4
	bls	.L49
.LVL58:
.L48:
	.loc 1 685 5 is_stmt 1 view .LVU223
	.loc 1 685 14 is_stmt 0 view .LVU224
	mov	r0, r4
	bl	LL_SetFlashLatency
.LVL59:
	.loc 1 689 3 is_stmt 1 view .LVU225
	.loc 1 689 5 is_stmt 0 view .LVU226
	cmp	r0, #0
	beq	.L50
.LVL60:
	.loc 1 694 3 is_stmt 1 view .LVU227
	.loc 1 695 1 is_stmt 0 view .LVU228
	pop	{r3, r4, r5, r6, r7, pc}
.LVL61:
.L61:
	.loc 1 695 1 view .LVU229
	.align	2
.L60:
	.word	AHBPrescTable
	.word	SystemCoreClock
	.word	1073876992
	.cfi_endproc
.LFE442:
	.size	UTILS_EnablePLLAndSwitchSystem, .-UTILS_EnablePLLAndSwitchSystem
	.section	.text.LL_PLL_ConfigSystemClock_HSI,"ax",%progbits
	.align	1
	.p2align 2,,3
	.global	LL_PLL_ConfigSystemClock_HSI
	.syntax unified
	.thumb
	.thumb_func
	.fpu fpv4-sp-d16
	.type	LL_PLL_ConfigSystemClock_HSI, %function
LL_PLL_ConfigSystemClock_HSI:
.LVL62:
.LFB438:
	.loc 1 408 1 is_stmt 1 view -0
	.cfi_startproc
	@ args = 0, pretend = 0, frame = 0
	@ frame_needed = 0, uses_anonymous_args = 0
	.loc 1 409 3 view .LVU231
	.loc 1 410 3 view .LVU232
	.loc 1 411 3 view .LVU233
	.loc 1 414 3 view .LVU234
.LBB117:
.LBI117:
	.loc 1 615 20 view .LVU235
.LBB118:
	.loc 1 617 3 view .LVU236
	.loc 1 620 3 view .LVU237
.LBB119:
.LBI119:
	.loc 5 2074 26 view .LVU238
.LBB120:
	.loc 5 2076 3 view .LVU239
.LBE120:
.LBE119:
.LBE118:
.LBE117:
	.loc 1 408 1 is_stmt 0 view .LVU240
	push	{r4, r5, r6, r7, r8, lr}
.LCFI3:
	.cfi_def_cfa_offset 24
	.cfi_offset 4, -24
	.cfi_offset 5, -20
	.cfi_offset 6, -16
	.cfi_offset 7, -12
	.cfi_offset 8, -8
	.cfi_offset 14, -4
.LBB124:
.LBB123:
.LBB122:
.LBB121:
	.loc 5 2076 12 view .LVU241
	ldr	r5, .L73
	ldr	r3, [r5]
	.loc 5 2076 71 view .LVU242
	lsls	r4, r3, #6
	bmi	.L69
	.loc 5 2076 71 view .LVU243
.LBE121:
.LBE122:
	.loc 1 626 3 is_stmt 1 view .LVU244
.LVL63:
	.loc 1 626 3 is_stmt 0 view .LVU245
.LBE123:
.LBE124:
	.loc 1 417 5 is_stmt 1 view .LVU246
.LBB125:
.LBI125:
	.loc 1 584 17 view .LVU247
.LBB126:
	.loc 1 586 3 view .LVU248
	.loc 1 589 3 view .LVU249
	.loc 1 590 3 view .LVU250
	.loc 1 591 3 view .LVU251
	.loc 1 595 3 view .LVU252
	mov	r8, r1
	.loc 1 599 43 is_stmt 0 view .LVU253
	ldrd	r1, r6, [r0, #4]
.LVL64:
	.loc 1 595 56 view .LVU254
	ldr	r7, [r0]
.LBE126:
.LBE125:
.LBB128:
.LBB129:
	.loc 5 1025 12 view .LVU255
	ldr	r3, [r5]
.LBE129:
.LBE128:
.LBB131:
.LBB127:
	.loc 1 595 11 view .LVU256
	ldr	r0, .L73+4
.LVL65:
	.loc 1 603 52 view .LVU257
	lsrs	r4, r6, #25
	.loc 1 603 77 view .LVU258
	adds	r4, r4, #1
	.loc 1 603 83 view .LVU259
	lsls	r2, r4, #1
	.loc 1 595 63 view .LVU260
	lsr	lr, r7, #4
	.loc 1 599 50 view .LVU261
	and	r4, r1, #127
	.loc 1 595 88 view .LVU262
	add	lr, lr, #1
	.loc 1 595 11 view .LVU263
	udiv	r0, r0, lr
.LVL66:
	.loc 1 596 3 is_stmt 1 view .LVU264
	.loc 1 599 3 view .LVU265
	.loc 1 599 11 is_stmt 0 view .LVU266
	mul	r4, r0, r4
.LVL67:
	.loc 1 600 3 is_stmt 1 view .LVU267
	.loc 1 603 3 view .LVU268
	.loc 1 603 11 is_stmt 0 view .LVU269
	udiv	r4, r4, r2
.LVL68:
	.loc 1 604 3 is_stmt 1 view .LVU270
	.loc 1 606 3 view .LVU271
	.loc 1 606 3 is_stmt 0 view .LVU272
.LBE127:
.LBE131:
	.loc 1 420 5 is_stmt 1 view .LVU273
.LBB132:
.LBI128:
	.loc 5 1023 26 view .LVU274
.LBB130:
	.loc 5 1025 3 view .LVU275
	.loc 5 1025 71 is_stmt 0 view .LVU276
	lsls	r2, r3, #21
	bmi	.L64
.LBE130:
.LBE132:
	.loc 1 422 7 is_stmt 1 view .LVU277
.LBB133:
.LBI133:
	.loc 5 1003 22 view .LVU278
.LBB134:
	.loc 5 1005 3 view .LVU279
	ldr	r3, [r5]
	orr	r3, r3, #256
	str	r3, [r5]
.L65:
.LBE134:
.LBE133:
	.loc 1 426 7 discriminator 1 view .LVU280
	.loc 1 423 13 discriminator 1 view .LVU281
.LBB135:
.LBI135:
	.loc 5 1023 26 discriminator 1 view .LVU282
.LBB136:
	.loc 5 1025 3 discriminator 1 view .LVU283
	.loc 5 1025 12 is_stmt 0 discriminator 1 view .LVU284
	ldr	r3, [r5]
	.loc 5 1025 71 discriminator 1 view .LVU285
	lsls	r3, r3, #21
	bpl	.L65
.L64:
.LBE136:
.LBE135:
	.loc 1 430 5 is_stmt 1 view .LVU286
.LVL69:
.LBB137:
.LBI137:
	.loc 5 2117 22 view .LVU287
.LBB138:
	.loc 5 2119 3 view .LVU288
	ldr	r5, .L73
	ldr	r3, .L73+8
	ldr	r2, [r5, #12]
	ands	r3, r3, r2
	orr	r3, r3, r1, lsl #8
.LBE138:
.LBE137:
	.loc 1 434 7 is_stmt 0 view .LVU289
	ldr	r2, .L73+12
.LBB141:
.LBB139:
	.loc 5 2119 3 view .LVU290
	orrs	r3, r3, r7
	orrs	r3, r3, r6
	orr	r3, r3, #2
.LBE139:
.LBE141:
	.loc 1 434 7 view .LVU291
	cmp	r4, r2
.LBB142:
.LBB140:
	.loc 5 2119 3 view .LVU292
	str	r3, [r5, #12]
.LVL70:
	.loc 5 2119 3 view .LVU293
.LBE140:
.LBE142:
	.loc 1 434 5 is_stmt 1 view .LVU294
	.loc 1 434 7 is_stmt 0 view .LVU295
	bls	.L67
	.loc 1 436 7 is_stmt 1 view .LVU296
	.loc 1 436 10 is_stmt 0 view .LVU297
	ldr	r3, [r8]
	cbnz	r3, .L67
	.loc 1 438 9 is_stmt 1 view .LVU298
	.loc 1 438 44 is_stmt 0 view .LVU299
	movs	r3, #128
	str	r3, [r8]
	.loc 1 439 9 is_stmt 1 view .LVU300
.LVL71:
	.loc 1 444 5 view .LVU301
	.loc 1 444 14 is_stmt 0 view .LVU302
	mov	r1, r8
	mov	r0, r4
	bl	UTILS_EnablePLLAndSwitchSystem
.LVL72:
	.loc 1 447 5 is_stmt 1 view .LVU303
	.loc 1 447 8 is_stmt 0 view .LVU304
	cbnz	r0, .L63
	.loc 1 450 7 is_stmt 1 view .LVU305
	.loc 1 450 16 is_stmt 0 view .LVU306
	mov	r0, r4
.LVL73:
	.loc 1 450 16 view .LVU307
	bl	LL_SetFlashLatency
.LVL74:
	.loc 1 451 7 is_stmt 1 view .LVU308
	.loc 1 451 10 is_stmt 0 view .LVU309
	cbnz	r0, .L63
	.loc 1 453 9 is_stmt 1 view .LVU310
	.loc 1 453 44 is_stmt 0 view .LVU311
	str	r0, [r8]
	.loc 1 454 9 is_stmt 1 view .LVU312
.LVL75:
.LBB143:
.LBI143:
	.loc 5 1373 22 view .LVU313
.LBB144:
	.loc 5 1375 3 view .LVU314
	ldr	r3, [r5, #8]
.LBE144:
.LBE143:
.LBB146:
.LBB147:
	.loc 1 260 19 is_stmt 0 view .LVU315
	ldr	r2, .L73+16
.LBE147:
.LBE146:
.LBB149:
.LBB145:
	.loc 5 1375 3 view .LVU316
	bic	r3, r3, #240
	str	r3, [r5, #8]
.LVL76:
	.loc 5 1375 3 view .LVU317
.LBE145:
.LBE149:
	.loc 1 455 9 is_stmt 1 view .LVU318
.LBB150:
.LBI146:
	.loc 1 257 6 view .LVU319
.LBB148:
	.loc 1 260 3 view .LVU320
	.loc 1 260 19 is_stmt 0 view .LVU321
	str	r4, [r2]
	.loc 1 261 1 view .LVU322
	b	.L63
.LVL77:
.L69:
	.loc 1 261 1 view .LVU323
.LBE148:
.LBE150:
	.loc 1 462 12 view .LVU324
	movs	r0, #1
.LVL78:
.L63:
	.loc 1 465 3 is_stmt 1 view .LVU325
	.loc 1 466 1 is_stmt 0 view .LVU326
	pop	{r4, r5, r6, r7, r8, pc}
.LVL79:
.L67:
	.loc 1 444 5 is_stmt 1 view .LVU327
	.loc 1 444 14 is_stmt 0 view .LVU328
	mov	r1, r8
	mov	r0, r4
	.loc 1 466 1 view .LVU329
	pop	{r4, r5, r6, r7, r8, lr}
.LCFI4:
	.cfi_restore 14
	.cfi_restore 8
	.cfi_restore 7
	.cfi_restore 6
	.cfi_restore 5
	.cfi_restore 4
	.cfi_def_cfa_offset 0
.LVL80:
	.loc 1 444 14 view .LVU330
	b	UTILS_EnablePLLAndSwitchSystem
.LVL81:
.L74:
	.loc 1 444 14 view .LVU331
	.align	2
.L73:
	.word	1073876992
	.word	16000000
	.word	-100696052
	.word	80000000
	.word	SystemCoreClock
	.cfi_endproc
.LFE438:
	.size	LL_PLL_ConfigSystemClock_HSI, .-LL_PLL_ConfigSystemClock_HSI
	.section	.text.LL_PLL_ConfigSystemClock_HSE,"ax",%progbits
	.align	1
	.p2align 2,,3
	.global	LL_PLL_ConfigSystemClock_HSE
	.syntax unified
	.thumb
	.thumb_func
	.fpu fpv4-sp-d16
	.type	LL_PLL_ConfigSystemClock_HSE, %function
LL_PLL_ConfigSystemClock_HSE:
.LVL82:
.LFB439:
	.loc 1 490 1 is_stmt 1 view -0
	.cfi_startproc
	@ args = 0, pretend = 0, frame = 0
	@ frame_needed = 0, uses_anonymous_args = 0
	.loc 1 491 3 view .LVU333
	.loc 1 492 3 view .LVU334
	.loc 1 493 3 view .LVU335
	.loc 1 496 3 view .LVU336
	.loc 1 497 3 view .LVU337
	.loc 1 500 3 view .LVU338
.LBB151:
.LBI151:
	.loc 1 615 20 view .LVU339
.LBB152:
	.loc 1 617 3 view .LVU340
	.loc 1 620 3 view .LVU341
.LBB153:
.LBI153:
	.loc 5 2074 26 view .LVU342
.LBB154:
	.loc 5 2076 3 view .LVU343
.LBE154:
.LBE153:
.LBE152:
.LBE151:
	.loc 1 490 1 is_stmt 0 view .LVU344
	push	{r4, r5, r6, r7, r8, lr}
.LCFI5:
	.cfi_def_cfa_offset 24
	.cfi_offset 4, -24
	.cfi_offset 5, -20
	.cfi_offset 6, -16
	.cfi_offset 7, -12
	.cfi_offset 8, -8
	.cfi_offset 14, -4
.LBB158:
.LBB157:
.LBB156:
.LBB155:
	.loc 5 2076 12 view .LVU345
	ldr	r5, .L88
	ldr	r4, [r5]
	.loc 5 2076 71 view .LVU346
	lsls	r4, r4, #6
	bmi	.L84
	.loc 5 2076 71 view .LVU347
.LBE155:
.LBE156:
	.loc 1 626 3 is_stmt 1 view .LVU348
.LVL83:
	.loc 1 626 3 is_stmt 0 view .LVU349
.LBE157:
.LBE158:
	.loc 1 503 5 is_stmt 1 view .LVU350
.LBB159:
.LBI159:
	.loc 1 584 17 view .LVU351
.LBB160:
	.loc 1 586 3 view .LVU352
	.loc 1 589 3 view .LVU353
	.loc 1 590 3 view .LVU354
	.loc 1 591 3 view .LVU355
	.loc 1 595 3 view .LVU356
	mov	r8, r3
	.loc 1 599 43 is_stmt 0 view .LVU357
	ldrd	r7, r3, [r2]
.LVL84:
	.loc 1 603 45 view .LVU358
	ldr	r6, [r2, #8]
.LBE160:
.LBE159:
.LBB162:
.LBB163:
	.loc 5 966 12 view .LVU359
	ldr	r2, [r5]
.LVL85:
	.loc 5 966 12 view .LVU360
.LBE163:
.LBE162:
.LBB165:
.LBB161:
	.loc 1 603 52 view .LVU361
	lsr	ip, r6, #25
	.loc 1 595 63 view .LVU362
	lsrs	r4, r7, #4
	.loc 1 595 88 view .LVU363
	adds	r4, r4, #1
	.loc 1 603 77 view .LVU364
	add	ip, ip, #1
	.loc 1 595 11 view .LVU365
	udiv	r0, r0, r4
.LVL86:
	.loc 1 596 3 is_stmt 1 view .LVU366
	.loc 1 599 3 view .LVU367
	.loc 1 599 50 is_stmt 0 view .LVU368
	and	r4, r3, #127
	.loc 1 599 11 view .LVU369
	mul	r0, r4, r0
.LVL87:
	.loc 1 600 3 is_stmt 1 view .LVU370
	.loc 1 603 3 view .LVU371
	.loc 1 603 83 is_stmt 0 view .LVU372
	lsl	ip, ip, #1
	.loc 1 603 11 view .LVU373
	udiv	r4, r0, ip
.LVL88:
	.loc 1 604 3 is_stmt 1 view .LVU374
	.loc 1 606 3 view .LVU375
	.loc 1 606 3 is_stmt 0 view .LVU376
.LBE161:
.LBE165:
	.loc 1 506 5 is_stmt 1 view .LVU377
.LBB166:
.LBI162:
	.loc 5 964 26 view .LVU378
.LBB164:
	.loc 5 966 3 view .LVU379
	.loc 5 966 71 is_stmt 0 view .LVU380
	lsls	r0, r2, #14
	bmi	.L77
.LBE164:
.LBE166:
	.loc 1 509 7 is_stmt 1 view .LVU381
.LBB167:
.LBB168:
	.loc 5 926 3 is_stmt 0 view .LVU382
	ldr	r2, [r5]
.LBE168:
.LBE167:
	.loc 1 509 9 view .LVU383
	cmp	r1, #1
	.loc 1 511 9 is_stmt 1 view .LVU384
.LBB170:
.LBI167:
	.loc 5 924 22 view .LVU385
.LBB169:
	.loc 5 926 3 view .LVU386
	ite	eq
	orreq	r2, r2, #262144
.LBE169:
.LBE170:
	.loc 1 515 9 view .LVU387
.LBB171:
.LBI171:
	.loc 5 934 22 view .LVU388
.LBB172:
	.loc 5 936 3 view .LVU389
	bicne	r2, r2, #262144
	str	r2, [r5]
.LBE172:
.LBE171:
	.loc 1 519 7 view .LVU390
.LBB173:
.LBI173:
	.loc 5 944 22 view .LVU391
.LBB174:
	.loc 5 946 3 view .LVU392
	ldr	r2, .L88
	ldr	r1, [r2]
.LVL89:
	.loc 5 946 3 is_stmt 0 view .LVU393
	orr	r1, r1, #65536
	str	r1, [r2]
.L80:
.LBE174:
.LBE173:
	.loc 1 523 7 is_stmt 1 discriminator 1 view .LVU394
	.loc 1 520 13 discriminator 1 view .LVU395
.LBB175:
.LBI175:
	.loc 5 964 26 discriminator 1 view .LVU396
.LBB176:
	.loc 5 966 3 discriminator 1 view .LVU397
	.loc 5 966 12 is_stmt 0 discriminator 1 view .LVU398
	ldr	r1, [r2]
	.loc 5 966 71 discriminator 1 view .LVU399
	lsls	r1, r1, #14
	bpl	.L80
.L77:
.LBE176:
.LBE175:
	.loc 1 527 5 is_stmt 1 view .LVU400
.LVL90:
.LBB177:
.LBI177:
	.loc 5 2117 22 view .LVU401
.LBB178:
	.loc 5 2119 3 view .LVU402
	ldr	r5, .L88
	ldr	r2, .L88+4
	ldr	r1, [r5, #12]
	ands	r2, r2, r1
	orr	r2, r2, r3, lsl #8
.LBE178:
.LBE177:
	.loc 1 531 7 is_stmt 0 view .LVU403
	ldr	r1, .L88+8
.LBB181:
.LBB179:
	.loc 5 2119 3 view .LVU404
	orrs	r2, r2, r7
	orrs	r2, r2, r6
	orr	r2, r2, #3
.LBE179:
.LBE181:
	.loc 1 531 7 view .LVU405
	cmp	r4, r1
.LBB182:
.LBB180:
	.loc 5 2119 3 view .LVU406
	str	r2, [r5, #12]
.LVL91:
	.loc 5 2119 3 view .LVU407
.LBE180:
.LBE182:
	.loc 1 531 5 is_stmt 1 view .LVU408
	.loc 1 531 7 is_stmt 0 view .LVU409
	bls	.L82
	.loc 1 533 7 is_stmt 1 view .LVU410
	.loc 1 533 10 is_stmt 0 view .LVU411
	ldr	r2, [r8]
	cbnz	r2, .L82
	.loc 1 535 9 is_stmt 1 view .LVU412
	.loc 1 535 44 is_stmt 0 view .LVU413
	movs	r2, #128
	str	r2, [r8]
	.loc 1 536 9 is_stmt 1 view .LVU414
.LVL92:
	.loc 1 541 5 view .LVU415
	.loc 1 541 14 is_stmt 0 view .LVU416
	mov	r1, r8
	mov	r0, r4
	bl	UTILS_EnablePLLAndSwitchSystem
.LVL93:
	.loc 1 544 5 is_stmt 1 view .LVU417
	.loc 1 544 8 is_stmt 0 view .LVU418
	cbnz	r0, .L76
	.loc 1 547 7 is_stmt 1 view .LVU419
	.loc 1 547 16 is_stmt 0 view .LVU420
	mov	r0, r4
.LVL94:
	.loc 1 547 16 view .LVU421
	bl	LL_SetFlashLatency
.LVL95:
	.loc 1 548 7 is_stmt 1 view .LVU422
	.loc 1 548 10 is_stmt 0 view .LVU423
	cbnz	r0, .L76
	.loc 1 550 9 is_stmt 1 view .LVU424
	.loc 1 550 44 is_stmt 0 view .LVU425
	str	r0, [r8]
	.loc 1 551 9 is_stmt 1 view .LVU426
.LVL96:
.LBB183:
.LBI183:
	.loc 5 1373 22 view .LVU427
.LBB184:
	.loc 5 1375 3 view .LVU428
	ldr	r3, [r5, #8]
.LBE184:
.LBE183:
.LBB186:
.LBB187:
	.loc 1 260 19 is_stmt 0 view .LVU429
	ldr	r2, .L88+12
.LBE187:
.LBE186:
.LBB189:
.LBB185:
	.loc 5 1375 3 view .LVU430
	bic	r3, r3, #240
	str	r3, [r5, #8]
.LVL97:
	.loc 5 1375 3 view .LVU431
.LBE185:
.LBE189:
	.loc 1 552 9 is_stmt 1 view .LVU432
.LBB190:
.LBI186:
	.loc 1 257 6 view .LVU433
.LBB188:
	.loc 1 260 3 view .LVU434
	.loc 1 260 19 is_stmt 0 view .LVU435
	str	r4, [r2]
	.loc 1 261 1 view .LVU436
	b	.L76
.LVL98:
.L84:
	.loc 1 261 1 view .LVU437
.LBE188:
.LBE190:
	.loc 1 559 12 view .LVU438
	movs	r0, #1
.LVL99:
.L76:
	.loc 1 562 3 is_stmt 1 view .LVU439
	.loc 1 563 1 is_stmt 0 view .LVU440
	pop	{r4, r5, r6, r7, r8, pc}
.LVL100:
.L82:
	.loc 1 541 5 is_stmt 1 view .LVU441
	.loc 1 541 14 is_stmt 0 view .LVU442
	mov	r1, r8
	mov	r0, r4
	.loc 1 563 1 view .LVU443
	pop	{r4, r5, r6, r7, r8, lr}
.LCFI6:
	.cfi_restore 14
	.cfi_restore 8
	.cfi_restore 7
	.cfi_restore 6
	.cfi_restore 5
	.cfi_restore 4
	.cfi_def_cfa_offset 0
.LVL101:
	.loc 1 541 14 view .LVU444
	b	UTILS_EnablePLLAndSwitchSystem
.LVL102:
.L89:
	.loc 1 541 14 view .LVU445
	.align	2
.L88:
	.word	1073876992
	.word	-100696052
	.word	80000000
	.word	SystemCoreClock
	.cfi_endproc
.LFE439:
	.size	LL_PLL_ConfigSystemClock_HSE, .-LL_PLL_ConfigSystemClock_HSE
	.text
.Letext0:
	.file 6 "/usr/share/gcc-arm-none-eabi-10-2020-q4-major/arm-none-eabi/include/machine/_default_types.h"
	.file 7 "/usr/share/gcc-arm-none-eabi-10-2020-q4-major/arm-none-eabi/include/sys/_stdint.h"
	.file 8 "Drivers/CMSIS/Include/core_cm4.h"
	.file 9 "Drivers/CMSIS/Device/ST/STM32G4xx/Include/system_stm32g4xx.h"
	.file 10 "Drivers/CMSIS/Device/ST/STM32G4xx/Include/stm32g431xx.h"
	.file 11 "Drivers/CMSIS/Device/ST/STM32G4xx/Include/stm32g4xx.h"