	.cpu cortex-m4
	.eabi_attribute 27, 1
	.eabi_attribute 28, 1
	.eabi_attribute 20, 1
	.eabi_attribute 21, 1
	.eabi_attribute 23, 3
	.eabi_attribute 24, 1
	.eabi_attribute 25, 1
	.eabi_attribute 26, 1
	.eabi_attribute 30, 2
	.eabi_attribute 34, 1
	.eabi_attribute 18, 4
	.file	"stm32g4xx_hal.c"
	.text
.Ltext0:
	.cfi_sections	.debug_frame
	.section	.text.HAL_MspInit,"ax",%progbits
	.align	1
	.p2align 2,,3
	.weak	HAL_MspInit
	.arch armv7e-m
	.syntax unified
	.thumb
	.thumb_func
	.fpu fpv4-sp-d16
	.type	HAL_MspInit, %function
HAL_MspInit:
.LFB134:
	.file 1 "Drivers/STM32G4xx_HAL_Driver/Src/stm32g4xx_hal.c"
	.loc 1 222 1 view -0
	.cfi_startproc
	@ args = 0, pretend = 0, frame = 0
	@ frame_needed = 0, uses_anonymous_args = 0
	@ link register save eliminated.
	.loc 1 226 1 view .LVU1
	bx	lr
	.cfi_endproc
.LFE134:
	.size	HAL_MspInit, .-HAL_MspInit
	.section	.text.HAL_MspDeInit,"ax",%progbits
	.align	1
	.p2align 2,,3
	.weak	HAL_MspDeInit
	.syntax unified
	.thumb
	.thumb_func
	.fpu fpv4-sp-d16
	.type	HAL_MspDeInit, %function
HAL_MspDeInit:
.LFB172:
	.cfi_startproc
	@ args = 0, pretend = 0, frame = 0
	@ frame_needed = 0, uses_anonymous_args = 0
	@ link register save eliminated.
	bx	lr
	.cfi_endproc
.LFE172:
	.size	HAL_MspDeInit, .-HAL_MspDeInit
	.section	.text.HAL_DeInit,"ax",%progbits
	.align	1
	.p2align 2,,3
	.global	HAL_DeInit
	.syntax unified
	.thumb
	.thumb_func
	.fpu fpv4-sp-d16
	.type	HAL_DeInit, %function
HAL_DeInit:
.LFB133:
	.loc 1 193 1 view -0
	.cfi_startproc
	@ args = 0, pretend = 0, frame = 0
	@ frame_needed = 0, uses_anonymous_args = 0
	.loc 1 195 3 view .LVU3
	.loc 1 193 1 is_stmt 0 view .LVU4
	push	{r4, lr}
.LCFI0:
	.cfi_def_cfa_offset 8
	.cfi_offset 4, -8
	.cfi_offset 14, -4
	.loc 1 195 3 view .LVU5
	ldr	r3, .L6
	.loc 1 196 3 view .LVU6
	movs	r4, #0
	.loc 1 195 3 view .LVU7
	mov	r2, #-1
	str	r2, [r3, #56]
	.loc 1 196 3 is_stmt 1 view .LVU8
	str	r4, [r3, #56]
	.loc 1 198 3 view .LVU9
	str	r2, [r3, #64]
	.loc 1 199 3 view .LVU10
	str	r4, [r3, #64]
	.loc 1 201 3 view .LVU11
	str	r2, [r3, #40]
	.loc 1 202 3 view .LVU12
	str	r4, [r3, #40]
	.loc 1 204 3 view .LVU13
	str	r2, [r3, #44]
	.loc 1 205 3 view .LVU14
	str	r4, [r3, #44]
	.loc 1 207 3 view .LVU15
	str	r2, [r3, #48]
	.loc 1 208 3 view .LVU16
	str	r4, [r3, #48]
	.loc 1 211 3 view .LVU17
	bl	HAL_MspDeInit
.LVL0:
	.loc 1 214 3 view .LVU18
	.loc 1 215 1 is_stmt 0 view .LVU19
	mov	r0, r4
	pop	{r4, pc}
.L7:
	.align	2
.L6:
	.word	1073876992
	.cfi_endproc
.LFE133:
	.size	HAL_DeInit, .-HAL_DeInit
	.section	.text.HAL_InitTick,"ax",%progbits
	.align	1
	.p2align 2,,3
	.weak	HAL_InitTick
	.syntax unified
	.thumb
	.thumb_func
	.fpu fpv4-sp-d16
	.type	HAL_InitTick, %function
HAL_InitTick:
.LVL1:
.LFB136:
	.loc 1 256 1 is_stmt 1 view -0
	.cfi_startproc
	@ args = 0, pretend = 0, frame = 0
	@ frame_needed = 0, uses_anonymous_args = 0
	.loc 1 257 3 view .LVU21
	.loc 1 259 3 view .LVU22
	.loc 1 256 1 is_stmt 0 view .LVU23
	push	{r3, r4, r5, lr}
.LCFI1:
	.cfi_def_cfa_offset 16
	.cfi_offset 3, -16
	.cfi_offset 4, -12
	.cfi_offset 5, -8
	.cfi_offset 14, -4
	.loc 1 259 18 view .LVU24
	ldr	r3, .L13
	ldr	r3, [r3]
	.loc 1 259 6 view .LVU25
	cbnz	r3, .L9
.LVL2:
.L11:
	.loc 1 282 12 view .LVU26
	movs	r0, #1
.LVL3:
	.loc 1 286 3 is_stmt 1 view .LVU27
	.loc 1 287 1 is_stmt 0 view .LVU28
	pop	{r3, r4, r5, pc}
.LVL4:
.L9:
	.loc 1 262 5 is_stmt 1 view .LVU29
	.loc 1 262 9 is_stmt 0 view .LVU30
	ldr	r1, .L13+4
	.loc 1 262 53 view .LVU31
	mov	r2, #1000
	mov	r5, r0
	udiv	r3, r2, r3
	.loc 1 262 9 view .LVU32
	ldr	r0, [r1]
.LVL5:
	.loc 1 262 9 view .LVU33
	udiv	r0, r0, r3
	bl	HAL_SYSTICK_Config
.LVL6:
	.loc 1 262 8 view .LVU34
	mov	r4, r0
	cmp	r0, #0
	bne	.L11
	.loc 1 265 7 is_stmt 1 view .LVU35
	.loc 1 265 10 is_stmt 0 view .LVU36
	cmp	r5, #15
	bhi	.L11
.LVL7:
.LBB4:
.LBI4:
	.loc 1 255 26 is_stmt 1 view .LVU37
.LBB5:
	.loc 1 267 9 view .LVU38
	mov	r2, r0
	mov	r1, r5
	mov	r0, #-1
	bl	HAL_NVIC_SetPriority
.LVL8:
	.loc 1 268 9 view .LVU39
	.loc 1 268 20 is_stmt 0 view .LVU40
	ldr	r3, .L13+8
	mov	r0, r4
	str	r5, [r3]
.LVL9:
	.loc 1 286 3 is_stmt 1 view .LVU41
	.loc 1 286 3 is_stmt 0 view .LVU42
.LBE5:
.LBE4:
	.loc 1 286 3 is_stmt 1 view .LVU43
	.loc 1 287 1 is_stmt 0 view .LVU44
	pop	{r3, r4, r5, pc}
.LVL10:
.L14:
	.loc 1 287 1 view .LVU45
	.align	2
.L13:
	.word	.LANCHOR0
	.word	SystemCoreClock
	.word	.LANCHOR1
	.cfi_endproc
.LFE136:
	.size	HAL_InitTick, .-HAL_InitTick
	.section	.text.HAL_Init,"ax",%progbits
	.align	1
	.p2align 2,,3
	.global	HAL_Init
	.syntax unified
	.thumb
	.thumb_func
	.fpu fpv4-sp-d16
	.type	HAL_Init, %function
HAL_Init:
.LFB132:
	.loc 1 149 1 is_stmt 1 view -0
	.cfi_startproc
	@ args = 0, pretend = 0, frame = 0
	@ frame_needed = 0, uses_anonymous_args = 0
	.loc 1 150 3 view .LVU47
.LVL11:
	.loc 1 165 3 view .LVU48
	ldr	r2, .L20
	ldr	r3, [r2]
	orr	r3, r3, #256
	.loc 1 149 1 is_stmt 0 view .LVU49
	push	{r4, lr}
.LCFI2:
	.cfi_def_cfa_offset 8
	.cfi_offset 4, -8
	.cfi_offset 14, -4
	.loc 1 169 3 view .LVU50
	movs	r0, #3
	.loc 1 165 3 view .LVU51
	str	r3, [r2]
	.loc 1 169 3 is_stmt 1 view .LVU52
	bl	HAL_NVIC_SetPriorityGrouping
.LVL12:
	.loc 1 172 3 view .LVU53
	.loc 1 172 7 is_stmt 0 view .LVU54
	movs	r0, #0
	bl	HAL_InitTick
.LVL13:
	.loc 1 172 6 view .LVU55
	cbz	r0, .L19
	.loc 1 174 12 view .LVU56
	movs	r4, #1
.LVL14:
	.loc 1 183 3 is_stmt 1 view .LVU57
	.loc 1 185 1 is_stmt 0 view .LVU58
	mov	r0, r4
	pop	{r4, pc}
.LVL15:
.L19:
	.loc 1 185 1 view .LVU59
	mov	r4, r0
	.loc 1 179 5 is_stmt 1 view .LVU60
	bl	HAL_MspInit
.LVL16:
	.loc 1 183 3 view .LVU61
	.loc 1 185 1 is_stmt 0 view .LVU62
	mov	r0, r4
	pop	{r4, pc}
.LVL17:
.L21:
	.loc 1 185 1 view .LVU63
	.align	2
.L20:
	.word	1073881088
	.cfi_endproc
.LFE132:
	.size	HAL_Init, .-HAL_Init
	.section	.text.HAL_IncTick,"ax",%progbits
	.align	1
	.p2align 2,,3
	.weak	HAL_IncTick
	.syntax unified
	.thumb
	.thumb_func
	.fpu fpv4-sp-d16
	.type	HAL_IncTick, %function
HAL_IncTick:
.LFB137:
	.loc 1 323 1 is_stmt 1 view -0
	.cfi_startproc
	@ args = 0, pretend = 0, frame = 0
	@ frame_needed = 0, uses_anonymous_args = 0
	@ link register save eliminated.
	.loc 1 324 3 view .LVU65
	.loc 1 324 10 is_stmt 0 view .LVU66
	ldr	r2, .L23
	ldr	r1, .L23+4
	ldr	r3, [r2]
	ldr	r1, [r1]
	add	r3, r3, r1
	str	r3, [r2]
	.loc 1 325 1 view .LVU67
	bx	lr
.L24:
	.align	2
.L23:
	.word	.LANCHOR2
	.word	.LANCHOR0
	.cfi_endproc
.LFE137:
	.size	HAL_IncTick, .-HAL_IncTick
	.section	.text.HAL_GetTick,"ax",%progbits
	.align	1
	.p2align 2,,3
	.weak	HAL_GetTick
	.syntax unified
	.thumb
	.thumb_func
	.fpu fpv4-sp-d16
	.type	HAL_GetTick, %function
HAL_GetTick:
.LFB138:
	.loc 1 334 1 is_stmt 1 view -0
	.cfi_startproc
	@ args = 0, pretend = 0, frame = 0
	@ frame_needed = 0, uses_anonymous_args = 0
	@ link register save eliminated.
	.loc 1 335 3 view .LVU69
	.loc 1 335 10 is_stmt 0 view .LVU70
	ldr	r3, .L26
	ldr	r0, [r3]
	.loc 1 336 1 view .LVU71
	bx	lr
.L27:
	.align	2
.L26:
	.word	.LANCHOR2
	.cfi_endproc
.LFE138:
	.size	HAL_GetTick, .-HAL_GetTick
	.section	.text.HAL_GetTickPrio,"ax",%progbits
	.align	1
	.p2align 2,,3
	.global	HAL_GetTickPrio
	.syntax unified
	.thumb
	.thumb_func
	.fpu fpv4-sp-d16
	.type	HAL_GetTickPrio, %function
HAL_GetTickPrio:
.LFB139:
	.loc 1 343 1 is_stmt 1 view -0
	.cfi_startproc
	@ args = 0, pretend = 0, frame = 0
	@ frame_needed = 0, uses_anonymous_args = 0
	@ link register save eliminated.
	.loc 1 344 3 view .LVU73
	.loc 1 344 10 is_stmt 0 view .LVU74
	ldr	r3, .L29
	.loc 1 345 1 view .LVU75
	ldr	r0, [r3]
	bx	lr
.L30:
	.align	2
.L29:
	.word	.LANCHOR1
	.cfi_endproc
.LFE139:
	.size	HAL_GetTickPrio, .-HAL_GetTickPrio
	.section	.text.HAL_SetTickFreq,"ax",%progbits
	.align	1
	.p2align 2,,3
	.global	HAL_SetTickFreq
	.syntax unified
	.thumb
	.thumb_func
	.fpu fpv4-sp-d16
	.type	HAL_SetTickFreq, %function
HAL_SetTickFreq:
.LVL18:
.LFB140:
	.loc 1 352 1 is_stmt 1 view -0
	.cfi_startproc
	@ args = 0, pretend = 0, frame = 0
	@ frame_needed = 0, uses_anonymous_args = 0
	.loc 1 353 3 view .LVU77
	.loc 1 354 3 view .LVU78
	.loc 1 356 3 view .LVU79
	.loc 1 358 3 view .LVU80
	.loc 1 352 1 is_stmt 0 view .LVU81
	push	{r3, r4, r5, lr}
.LCFI3:
	.cfi_def_cfa_offset 16
	.cfi_offset 3, -16
	.cfi_offset 4, -12
	.cfi_offset 5, -8
	.cfi_offset 14, -4
	.loc 1 358 18 view .LVU82
	ldr	r4, .L39
	ldr	r5, [r4]
	.loc 1 358 6 view .LVU83
	cmp	r5, r0
	bne	.L38
	.loc 1 353 21 view .LVU84
	movs	r0, #0
.LVL19:
.L32:
	.loc 1 376 3 is_stmt 1 view .LVU85
	.loc 1 377 1 is_stmt 0 view .LVU86
	pop	{r3, r4, r5, pc}
.LVL20:
.L38:
	.loc 1 361 5 is_stmt 1 view .LVU87
	.loc 1 364 5 view .LVU88
	.loc 1 367 14 is_stmt 0 view .LVU89
	ldr	r3, .L39+4
	.loc 1 364 16 view .LVU90
	str	r0, [r4]
	.loc 1 367 5 is_stmt 1 view .LVU91
	.loc 1 367 14 is_stmt 0 view .LVU92
	ldr	r0, [r3]
.LVL21:
	.loc 1 367 14 view .LVU93
	bl	HAL_InitTick
.LVL22:
	.loc 1 369 5 is_stmt 1 view .LVU94
	.loc 1 369 8 is_stmt 0 view .LVU95
	cmp	r0, #0
	beq	.L32
	.loc 1 372 7 is_stmt 1 view .LVU96
	.loc 1 372 18 is_stmt 0 view .LVU97
	str	r5, [r4]
	.loc 1 376 3 is_stmt 1 view .LVU98
	.loc 1 377 1 is_stmt 0 view .LVU99
	pop	{r3, r4, r5, pc}
.LVL23:
.L40:
	.loc 1 377 1 view .LVU100
	.align	2
.L39:
	.word	.LANCHOR0
	.word	.LANCHOR1
	.cfi_endproc
.LFE140:
	.size	HAL_SetTickFreq, .-HAL_SetTickFreq
	.section	.text.HAL_GetTickFreq,"ax",%progbits
	.align	1
	.p2align 2,,3
	.global	HAL_GetTickFreq
	.syntax unified
	.thumb
	.thumb_func
	.fpu fpv4-sp-d16
	.type	HAL_GetTickFreq, %function
HAL_GetTickFreq:
.LFB141:
	.loc 1 385 1 is_stmt 1 view -0
	.cfi_startproc
	@ args = 0, pretend = 0, frame = 0
	@ frame_needed = 0, uses_anonymous_args = 0
	@ link register save eliminated.
	.loc 1 386 3 view .LVU102
	.loc 1 386 10 is_stmt 0 view .LVU103
	ldr	r3, .L42
	.loc 1 387 1 view .LVU104
	ldr	r0, [r3]
	bx	lr
.L43:
	.align	2
.L42:
	.word	.LANCHOR0
	.cfi_endproc
.LFE141:
	.size	HAL_GetTickFreq, .-HAL_GetTickFreq
	.section	.text.HAL_Delay,"ax",%progbits
	.align	1
	.p2align 2,,3
	.weak	HAL_Delay
	.syntax unified
	.thumb
	.thumb_func
	.fpu fpv4-sp-d16
	.type	HAL_Delay, %function
HAL_Delay:
.LVL24:
.LFB142:
	.loc 1 401 1 is_stmt 1 view -0
	.cfi_startproc
	@ args = 0, pretend = 0, frame = 0
	@ frame_needed = 0, uses_anonymous_args = 0
	.loc 1 402 3 view .LVU106
	.loc 1 401 1 is_stmt 0 view .LVU107
	push	{r3, r4, r5, lr}
.LCFI4:
	.cfi_def_cfa_offset 16
	.cfi_offset 3, -16
	.cfi_offset 4, -12
	.cfi_offset 5, -8
	.cfi_offset 14, -4
	.loc 1 401 1 view .LVU108
	mov	r4, r0
	.loc 1 402 24 view .LVU109
	bl	HAL_GetTick
.LVL25:
	.loc 1 406 6 view .LVU110
	adds	r3, r4, #1
	.loc 1 402 24 view .LVU111
	mov	r5, r0
.LVL26:
	.loc 1 403 3 is_stmt 1 view .LVU112
	.loc 1 406 3 view .LVU113
	.loc 1 406 6 is_stmt 0 view .LVU114
	beq	.L46
	.loc 1 408 5 is_stmt 1 view .LVU115
	.loc 1 408 13 is_stmt 0 view .LVU116
	ldr	r3, .L52
	.loc 1 408 10 view .LVU117
	ldr	r3, [r3]
	add	r4, r4, r3
.LVL27:
.L46:
	.loc 1 413 3 is_stmt 1 discriminator 1 view .LVU118
	.loc 1 411 9 discriminator 1 view .LVU119
	.loc 1 411 11 is_stmt 0 discriminator 1 view .LVU120
	bl	HAL_GetTick
.LVL28:
	.loc 1 411 25 discriminator 1 view .LVU121
	subs	r3, r0, r5
	.loc 1 411 9 discriminator 1 view .LVU122
	cmp	r3, r4
	bcc	.L46
	.loc 1 414 1 view .LVU123
	pop	{r3, r4, r5, pc}
.LVL29:
.L53:
	.loc 1 414 1 view .LVU124
	.align	2
.L52:
	.word	.LANCHOR0
	.cfi_endproc
.LFE142:
	.size	HAL_Delay, .-HAL_Delay
	.section	.text.HAL_SuspendTick,"ax",%progbits
	.align	1
	.p2align 2,,3
	.weak	HAL_SuspendTick
	.syntax unified
	.thumb
	.thumb_func
	.fpu fpv4-sp-d16
	.type	HAL_SuspendTick, %function
HAL_SuspendTick:
.LFB143:
	.loc 1 427 1 is_stmt 1 view -0
	.cfi_startproc
	@ args = 0, pretend = 0, frame = 0
	@ frame_needed = 0, uses_anonymous_args = 0
	@ link register save eliminated.
	.loc 1 429 3 view .LVU126
	mov	r2, #-536813568
	ldr	r3, [r2, #16]
	bic	r3, r3, #2
	str	r3, [r2, #16]
	.loc 1 430 1 is_stmt 0 view .LVU127
	bx	lr
	.cfi_endproc
.LFE143:
	.size	HAL_SuspendTick, .-HAL_SuspendTick
	.section	.text.HAL_ResumeTick,"ax",%progbits
	.align	1
	.p2align 2,,3
	.weak	HAL_ResumeTick
	.syntax unified
	.thumb
	.thumb_func
	.fpu fpv4-sp-d16
	.type	HAL_ResumeTick, %function
HAL_ResumeTick:
.LFB144:
	.loc 1 443 1 is_stmt 1 view -0
	.cfi_startproc
	@ args = 0, pretend = 0, frame = 0
	@ frame_needed = 0, uses_anonymous_args = 0
	@ link register save eliminated.
	.loc 1 445 3 view .LVU129
	mov	r2, #-536813568
	ldr	r3, [r2, #16]
	orr	r3, r3, #2
	str	r3, [r2, #16]
	.loc 1 446 1 is_stmt 0 view .LVU130
	bx	lr
	.cfi_endproc
.LFE144:
	.size	HAL_ResumeTick, .-HAL_ResumeTick
	.section	.text.HAL_GetHalVersion,"ax",%progbits
	.align	1
	.p2align 2,,3
	.global	HAL_GetHalVersion
	.syntax unified
	.thumb
	.thumb_func
	.fpu fpv4-sp-d16
	.type	HAL_GetHalVersion, %function
HAL_GetHalVersion:
.LFB145:
	.loc 1 453 1 is_stmt 1 view -0
	.cfi_startproc
	@ args = 0, pretend = 0, frame = 0
	@ frame_needed = 0, uses_anonymous_args = 0
	@ link register save eliminated.
	.loc 1 454 3 view .LVU132
	.loc 1 455 1 is_stmt 0 view .LVU133
	ldr	r0, .L57
	bx	lr
.L58:
	.align	2
.L57:
	.word	16909056
	.cfi_endproc
.LFE145:
	.size	HAL_GetHalVersion, .-HAL_GetHalVersion
	.section	.text.HAL_GetREVID,"ax",%progbits
	.align	1
	.p2align 2,,3
	.global	HAL_GetREVID
	.syntax unified
	.thumb
	.thumb_func
	.fpu fpv4-sp-d16
	.type	HAL_GetREVID, %function
HAL_GetREVID:
.LFB146:
	.loc 1 462 1 is_stmt 1 view -0
	.cfi_startproc
	@ args = 0, pretend = 0, frame = 0
	@ frame_needed = 0, uses_anonymous_args = 0
	@ link register save eliminated.
	.loc 1 463 3 view .LVU135
	.loc 1 463 18 is_stmt 0 view .LVU136
	ldr	r3, .L60
	ldr	r0, [r3]
	.loc 1 464 1 view .LVU137
	lsrs	r0, r0, #16
	bx	lr
.L61:
	.align	2
.L60:
	.word	-536600576
	.cfi_endproc
.LFE146:
	.size	HAL_GetREVID, .-HAL_GetREVID
	.section	.text.HAL_GetDEVID,"ax",%progbits
	.align	1
	.p2align 2,,3
	.global	HAL_GetDEVID
	.syntax unified
	.thumb
	.thumb_func
	.fpu fpv4-sp-d16
	.type	HAL_GetDEVID, %function
HAL_GetDEVID:
.LFB147:
	.loc 1 471 1 is_stmt 1 view -0
	.cfi_startproc
	@ args = 0, pretend = 0, frame = 0
	@ frame_needed = 0, uses_anonymous_args = 0
	@ link register save eliminated.
	.loc 1 472 3 view .LVU139
	.loc 1 472 17 is_stmt 0 view .LVU140
	ldr	r3, .L63
	ldr	r0, [r3]
	.loc 1 473 1 view .LVU141
	ubfx	r0, r0, #0, #12
	bx	lr
.L64:
	.align	2
.L63:
	.word	-536600576
	.cfi_endproc
.LFE147:
	.size	HAL_GetDEVID, .-HAL_GetDEVID
	.section	.text.HAL_GetUIDw0,"ax",%progbits
	.align	1
	.p2align 2,,3
	.global	HAL_GetUIDw0
	.syntax unified
	.thumb
	.thumb_func
	.fpu fpv4-sp-d16
	.type	HAL_GetUIDw0, %function
HAL_GetUIDw0:
.LFB148:
	.loc 1 480 1 is_stmt 1 view -0
	.cfi_startproc
	@ args = 0, pretend = 0, frame = 0
	@ frame_needed = 0, uses_anonymous_args = 0
	@ link register save eliminated.
	.loc 1 481 3 view .LVU143
	.loc 1 481 11 is_stmt 0 view .LVU144
	ldr	r3, .L66
	.loc 1 482 1 view .LVU145
	ldr	r0, [r3, #1424]
	bx	lr
.L67:
	.align	2
.L66:
	.word	536834048
	.cfi_endproc
.LFE148:
	.size	HAL_GetUIDw0, .-HAL_GetUIDw0
	.section	.text.HAL_GetUIDw1,"ax",%progbits
	.align	1
	.p2align 2,,3
	.global	HAL_GetUIDw1
	.syntax unified
	.thumb
	.thumb_func
	.fpu fpv4-sp-d16
	.type	HAL_GetUIDw1, %function
HAL_GetUIDw1:
.LFB149:
	.loc 1 489 1 is_stmt 1 view -0
	.cfi_startproc
	@ args = 0, pretend = 0, frame = 0
	@ frame_needed = 0, uses_anonymous_args = 0
	@ link register save eliminated.
	.loc 1 490 3 view .LVU147
	.loc 1 490 11 is_stmt 0 view .LVU148
	ldr	r3, .L69
	.loc 1 491 1 view .LVU149
	ldr	r0, [r3, #1428]
	bx	lr
.L70:
	.align	2
.L69:
	.word	536834048
	.cfi_endproc
.LFE149:
	.size	HAL_GetUIDw1, .-HAL_GetUIDw1
	.section	.text.HAL_GetUIDw2,"ax",%progbits
	.align	1
	.p2align 2,,3
	.global	HAL_GetUIDw2
	.syntax unified
	.thumb
	.thumb_func
	.fpu fpv4-sp-d16
	.type	HAL_GetUIDw2, %function
HAL_GetUIDw2:
.LFB150:
	.loc 1 498 1 is_stmt 1 view -0
	.cfi_startproc
	@ args = 0, pretend = 0, frame = 0
	@ frame_needed = 0, uses_anonymous_args = 0
	@ link register save eliminated.
	.loc 1 499 3 view .LVU151
	.loc 1 499 11 is_stmt 0 view .LVU152
	ldr	r3, .L72
	.loc 1 500 1 view .LVU153
	ldr	r0, [r3, #1432]
	bx	lr
.L73:
	.align	2
.L72:
	.word	536834048
	.cfi_endproc
.LFE150:
	.size	HAL_GetUIDw2, .-HAL_GetUIDw2
	.section	.text.HAL_DBGMCU_EnableDBGSleepMode,"ax",%progbits
	.align	1
	.p2align 2,,3
	.global	HAL_DBGMCU_EnableDBGSleepMode
	.syntax unified
	.thumb
	.thumb_func
	.fpu fpv4-sp-d16
	.type	HAL_DBGMCU_EnableDBGSleepMode, %function
HAL_DBGMCU_EnableDBGSleepMode:
.LFB151:
	.loc 1 527 1 is_stmt 1 view -0
	.cfi_startproc
	@ args = 0, pretend = 0, frame = 0
	@ frame_needed = 0, uses_anonymous_args = 0
	@ link register save eliminated.
	.loc 1 528 3 view .LVU155
	ldr	r2, .L75
	ldr	r3, [r2, #4]
	orr	r3, r3, #1
	str	r3, [r2, #4]
	.loc 1 529 1 is_stmt 0 view .LVU156
	bx	lr
.L76:
	.align	2
.L75:
	.word	-536600576
	.cfi_endproc
.LFE151:
	.size	HAL_DBGMCU_EnableDBGSleepMode, .-HAL_DBGMCU_EnableDBGSleepMode
	.section	.text.HAL_DBGMCU_DisableDBGSleepMode,"ax",%progbits
	.align	1
	.p2align 2,,3
	.global	HAL_DBGMCU_DisableDBGSleepMode
	.syntax unified
	.thumb
	.thumb_func
	.fpu fpv4-sp-d16
	.type	HAL_DBGMCU_DisableDBGSleepMode, %function
HAL_DBGMCU_DisableDBGSleepMode:
.LFB152:
	.loc 1 536 1 is_stmt 1 view -0
	.cfi_startproc
	@ args = 0, pretend = 0, frame = 0
	@ frame_needed = 0, uses_anonymous_args = 0
	@ link register save eliminated.
	.loc 1 537 3 view .LVU158
	ldr	r2, .L78
	ldr	r3, [r2, #4]
	bic	r3, r3, #1
	str	r3, [r2, #4]
	.loc 1 538 1 is_stmt 0 view .LVU159
	bx	lr
.L79:
	.align	2
.L78:
	.word	-536600576
	.cfi_endproc
.LFE152:
	.size	HAL_DBGMCU_DisableDBGSleepMode, .-HAL_DBGMCU_DisableDBGSleepMode
	.section	.text.HAL_DBGMCU_EnableDBGStopMode,"ax",%progbits
	.align	1
	.p2align 2,,3
	.global	HAL_DBGMCU_EnableDBGStopMode
	.syntax unified
	.thumb
	.thumb_func
	.fpu fpv4-sp-d16
	.type	HAL_DBGMCU_EnableDBGStopMode, %function
HAL_DBGMCU_EnableDBGStopMode:
.LFB153:
	.loc 1 545 1 is_stmt 1 view -0
	.cfi_startproc
	@ args = 0, pretend = 0, frame = 0
	@ frame_needed = 0, uses_anonymous_args = 0
	@ link register save eliminated.
	.loc 1 546 3 view .LVU161
	ldr	r2, .L81
	ldr	r3, [r2, #4]
	orr	r3, r3, #2
	str	r3, [r2, #4]
	.loc 1 547 1 is_stmt 0 view .LVU162
	bx	lr
.L82:
	.align	2
.L81:
	.word	-536600576
	.cfi_endproc
.LFE153:
	.size	HAL_DBGMCU_EnableDBGStopMode, .-HAL_DBGMCU_EnableDBGStopMode
	.section	.text.HAL_DBGMCU_DisableDBGStopMode,"ax",%progbits
	.align	1
	.p2align 2,,3
	.global	HAL_DBGMCU_DisableDBGStopMode
	.syntax unified
	.thumb
	.thumb_func
	.fpu fpv4-sp-d16
	.type	HAL_DBGMCU_DisableDBGStopMode, %function
HAL_DBGMCU_DisableDBGStopMode:
.LFB154:
	.loc 1 554 1 is_stmt 1 view -0
	.cfi_startproc
	@ args = 0, pretend = 0, frame = 0
	@ frame_needed = 0, uses_anonymous_args = 0
	@ link register save eliminated.
	.loc 1 555 3 view .LVU164
	ldr	r2, .L84
	ldr	r3, [r2, #4]
	bic	r3, r3, #2
	str	r3, [r2, #4]
	.loc 1 556 1 is_stmt 0 view .LVU165
	bx	lr
.L85:
	.align	2
.L84:
	.word	-536600576
	.cfi_endproc
.LFE154:
	.size	HAL_DBGMCU_DisableDBGStopMode, .-HAL_DBGMCU_DisableDBGStopMode
	.section	.text.HAL_DBGMCU_EnableDBGStandbyMode,"ax",%progbits
	.align	1
	.p2align 2,,3
	.global	HAL_DBGMCU_EnableDBGStandbyMode
	.syntax unified
	.thumb
	.thumb_func
	.fpu fpv4-sp-d16
	.type	HAL_DBGMCU_EnableDBGStandbyMode, %function
HAL_DBGMCU_EnableDBGStandbyMode:
.LFB155:
	.loc 1 563 1 is_stmt 1 view -0
	.cfi_startproc
	@ args = 0, pretend = 0, frame = 0
	@ frame_needed = 0, uses_anonymous_args = 0
	@ link register save eliminated.
	.loc 1 564 3 view .LVU167
	ldr	r2, .L87
	ldr	r3, [r2, #4]
	orr	r3, r3, #4
	str	r3, [r2, #4]
	.loc 1 565 1 is_stmt 0 view .LVU168
	bx	lr
.L88:
	.align	2
.L87:
	.word	-536600576
	.cfi_endproc
.LFE155:
	.size	HAL_DBGMCU_EnableDBGStandbyMode, .-HAL_DBGMCU_EnableDBGStandbyMode
	.section	.text.HAL_DBGMCU_DisableDBGStandbyMode,"ax",%progbits
	.align	1
	.p2align 2,,3
	.global	HAL_DBGMCU_DisableDBGStandbyMode
	.syntax unified
	.thumb
	.thumb_func
	.fpu fpv4-sp-d16
	.type	HAL_DBGMCU_DisableDBGStandbyMode, %function
HAL_DBGMCU_DisableDBGStandbyMode:
.LFB156:
	.loc 1 572 1 is_stmt 1 view -0
	.cfi_startproc
	@ args = 0, pretend = 0, frame = 0
	@ frame_needed = 0, uses_anonymous_args = 0
	@ link register save eliminated.
	.loc 1 573 3 view .LVU170
	ldr	r2, .L90
	ldr	r3, [r2, #4]
	bic	r3, r3, #4
	str	r3, [r2, #4]
	.loc 1 574 1 is_stmt 0 view .LVU171
	bx	lr
.L91:
	.align	2
.L90:
	.word	-536600576
	.cfi_endproc
.LFE156:
	.size	HAL_DBGMCU_DisableDBGStandbyMode, .-HAL_DBGMCU_DisableDBGStandbyMode
	.section	.text.HAL_SYSCFG_CCMSRAMErase,"ax",%progbits
	.align	1
	.p2align 2,,3
	.global	HAL_SYSCFG_CCMSRAMErase
	.syntax unified
	.thumb
	.thumb_func
	.fpu fpv4-sp-d16
	.type	HAL_SYSCFG_CCMSRAMErase, %function
HAL_SYSCFG_CCMSRAMErase:
.LFB157:
	.loc 1 605 1 is_stmt 1 view -0
	.cfi_startproc
	@ args = 0, pretend = 0, frame = 0
	@ frame_needed = 0, uses_anonymous_args = 0
	@ link register save eliminated.
	.loc 1 607 3 view .LVU173
	.loc 1 607 15 is_stmt 0 view .LVU174
	ldr	r3, .L93
	.loc 1 608 15 view .LVU175
	movs	r2, #83
	.loc 1 607 15 view .LVU176
	movs	r1, #202
	str	r1, [r3, #36]
	.loc 1 608 3 is_stmt 1 view .LVU177
	.loc 1 608 15 is_stmt 0 view .LVU178
	str	r2, [r3, #36]
	.loc 1 610 3 is_stmt 1 view .LVU179
	ldr	r2, [r3, #24]
	orr	r2, r2, #1
	str	r2, [r3, #24]
	.loc 1 611 1 is_stmt 0 view .LVU180
	bx	lr
.L94:
	.align	2
.L93:
	.word	1073807360
	.cfi_endproc
.LFE157:
	.size	HAL_SYSCFG_CCMSRAMErase, .-HAL_SYSCFG_CCMSRAMErase
	.section	.text.HAL_SYSCFG_EnableMemorySwappingBank,"ax",%progbits
	.align	1
	.p2align 2,,3
	.global	HAL_SYSCFG_EnableMemorySwappingBank
	.syntax unified
	.thumb
	.thumb_func
	.fpu fpv4-sp-d16
	.type	HAL_SYSCFG_EnableMemorySwappingBank, %function
HAL_SYSCFG_EnableMemorySwappingBank:
.LFB158:
	.loc 1 624 1 is_stmt 1 view -0
	.cfi_startproc
	@ args = 0, pretend = 0, frame = 0
	@ frame_needed = 0, uses_anonymous_args = 0
	@ link register save eliminated.
	.loc 1 625 3 view .LVU182
	ldr	r2, .L96
	ldr	r3, [r2]
	orr	r3, r3, #256
	str	r3, [r2]
	.loc 1 626 1 is_stmt 0 view .LVU183
	bx	lr
.L97:
	.align	2
.L96:
	.word	1073807360
	.cfi_endproc
.LFE158:
	.size	HAL_SYSCFG_EnableMemorySwappingBank, .-HAL_SYSCFG_EnableMemorySwappingBank
	.section	.text.HAL_SYSCFG_DisableMemorySwappingBank,"ax",%progbits
	.align	1
	.p2align 2,,3
	.global	HAL_SYSCFG_DisableMemorySwappingBank
	.syntax unified
	.thumb
	.thumb_func
	.fpu fpv4-sp-d16
	.type	HAL_SYSCFG_DisableMemorySwappingBank, %function
HAL_SYSCFG_DisableMemorySwappingBank:
.LFB159:
	.loc 1 639 1 is_stmt 1 view -0
	.cfi_startproc
	@ args = 0, pretend = 0, frame = 0
	@ frame_needed = 0, uses_anonymous_args = 0
	@ link register save eliminated.
	.loc 1 640 3 view .LVU185
	ldr	r2, .L99
	ldr	r3, [r2]
	bic	r3, r3, #256
	str	r3, [r2]
	.loc 1 641 1 is_stmt 0 view .LVU186
	bx	lr
.L100:
	.align	2
.L99:
	.word	1073807360
	.cfi_endproc
.LFE159:
	.size	HAL_SYSCFG_DisableMemorySwappingBank, .-HAL_SYSCFG_DisableMemorySwappingBank
	.section	.text.HAL_SYSCFG_VREFBUF_VoltageScalingConfig,"ax",%progbits
	.align	1
	.p2align 2,,3
	.global	HAL_SYSCFG_VREFBUF_VoltageScalingConfig
	.syntax unified
	.thumb
	.thumb_func
	.fpu fpv4-sp-d16
	.type	HAL_SYSCFG_VREFBUF_VoltageScalingConfig, %function
HAL_SYSCFG_VREFBUF_VoltageScalingConfig:
.LVL30:
.LFB160:
	.loc 1 657 1 is_stmt 1 view -0
	.cfi_startproc
	@ args = 0, pretend = 0, frame = 0
	@ frame_needed = 0, uses_anonymous_args = 0
	@ link register save eliminated.
	.loc 1 659 3 view .LVU188
	.loc 1 661 3 view .LVU189
	ldr	r2, .L102
	ldr	r3, [r2, #48]
	bic	r3, r3, #48
	orrs	r0, r0, r3
.LVL31:
	.loc 1 661 3 is_stmt 0 view .LVU190
	str	r0, [r2, #48]
	.loc 1 662 1 view .LVU191
	bx	lr
.L103:
	.align	2
.L102:
	.word	1073807360
	.cfi_endproc
.LFE160:
	.size	HAL_SYSCFG_VREFBUF_VoltageScalingConfig, .-HAL_SYSCFG_VREFBUF_VoltageScalingConfig
	.section	.text.HAL_SYSCFG_VREFBUF_HighImpedanceConfig,"ax",%progbits
	.align	1
	.p2align 2,,3
	.global	HAL_SYSCFG_VREFBUF_HighImpedanceConfig
	.syntax unified
	.thumb
	.thumb_func
	.fpu fpv4-sp-d16
	.type	HAL_SYSCFG_VREFBUF_HighImpedanceConfig, %function
HAL_SYSCFG_VREFBUF_HighImpedanceConfig:
.LVL32:
.LFB161:
	.loc 1 673 1 is_stmt 1 view -0
	.cfi_startproc
	@ args = 0, pretend = 0, frame = 0
	@ frame_needed = 0, uses_anonymous_args = 0
	@ link register save eliminated.
	.loc 1 675 3 view .LVU193
	.loc 1 677 3 view .LVU194
	ldr	r2, .L105
	ldr	r3, [r2, #48]
	bic	r3, r3, #2
	orrs	r0, r0, r3
.LVL33:
	.loc 1 677 3 is_stmt 0 view .LVU195
	str	r0, [r2, #48]
	.loc 1 678 1 view .LVU196
	bx	lr
.L106:
	.align	2
.L105:
	.word	1073807360
	.cfi_endproc
.LFE161:
	.size	HAL_SYSCFG_VREFBUF_HighImpedanceConfig, .-HAL_SYSCFG_VREFBUF_HighImpedanceConfig
	.section	.text.HAL_SYSCFG_VREFBUF_TrimmingConfig,"ax",%progbits
	.align	1
	.p2align 2,,3
	.global	HAL_SYSCFG_VREFBUF_TrimmingConfig
	.syntax unified
	.thumb
	.thumb_func
	.fpu fpv4-sp-d16
	.type	HAL_SYSCFG_VREFBUF_TrimmingConfig, %function
HAL_SYSCFG_VREFBUF_TrimmingConfig:
.LVL34:
.LFB162:
	.loc 1 687 1 is_stmt 1 view -0
	.cfi_startproc
	@ args = 0, pretend = 0, frame = 0
	@ frame_needed = 0, uses_anonymous_args = 0
	@ link register save eliminated.
	.loc 1 689 3 view .LVU198
	.loc 1 691 3 view .LVU199
	ldr	r2, .L108
	ldr	r3, [r2, #52]
	bic	r3, r3, #63
	orrs	r0, r0, r3
.LVL35:
	.loc 1 691 3 is_stmt 0 view .LVU200
	str	r0, [r2, #52]
	.loc 1 692 1 view .LVU201
	bx	lr
.L109:
	.align	2
.L108:
	.word	1073807360
	.cfi_endproc
.LFE162:
	.size	HAL_SYSCFG_VREFBUF_TrimmingConfig, .-HAL_SYSCFG_VREFBUF_TrimmingConfig
	.section	.text.HAL_SYSCFG_EnableVREFBUF,"ax",%progbits
	.align	1
	.p2align 2,,3
	.global	HAL_SYSCFG_EnableVREFBUF
	.syntax unified
	.thumb
	.thumb_func
	.fpu fpv4-sp-d16
	.type	HAL_SYSCFG_EnableVREFBUF, %function
HAL_SYSCFG_EnableVREFBUF:
.LFB163:
	.loc 1 699 1 is_stmt 1 view -0
	.cfi_startproc
	@ args = 0, pretend = 0, frame = 0
	@ frame_needed = 0, uses_anonymous_args = 0
	.loc 1 700 3 view .LVU203
	.loc 1 702 3 view .LVU204
	.loc 1 699 1 is_stmt 0 view .LVU205
	push	{r3, r4, r5, lr}
.LCFI5:
	.cfi_def_cfa_offset 16
	.cfi_offset 3, -16
	.cfi_offset 4, -12
	.cfi_offset 5, -8
	.cfi_offset 14, -4
	.loc 1 702 3 view .LVU206
	ldr	r4, .L116
	ldr	r3, [r4, #48]
	orr	r3, r3, #1
	str	r3, [r4, #48]
	.loc 1 705 3 is_stmt 1 view .LVU207
	.loc 1 705 15 is_stmt 0 view .LVU208
	bl	HAL_GetTick
.LVL36:
	mov	r5, r0
.LVL37:
	.loc 1 708 3 is_stmt 1 view .LVU209
	.loc 1 708 9 is_stmt 0 view .LVU210
	b	.L111
.LVL38:
.L113:
	.loc 1 710 10 view .LVU211
	bl	HAL_GetTick
.LVL39:
	.loc 1 710 24 view .LVU212
	subs	r0, r0, r5
	.loc 1 710 8 view .LVU213
	cmp	r0, #10
	bhi	.L114
.L111:
	.loc 1 710 5 is_stmt 1 view .LVU214
	.loc 1 708 9 view .LVU215
	.loc 1 708 10 is_stmt 0 view .LVU216
	ldr	r3, [r4, #48]
	.loc 1 708 9 view .LVU217
	lsls	r3, r3, #28
	bpl	.L113
	.loc 1 716 10 view .LVU218
	movs	r0, #0
	.loc 1 717 1 view .LVU219
	pop	{r3, r4, r5, pc}
.LVL40:
.L114:
	.loc 1 712 14 view .LVU220
	movs	r0, #3
	.loc 1 717 1 view .LVU221
	pop	{r3, r4, r5, pc}
.LVL41:
.L117:
	.loc 1 717 1 view .LVU222
	.align	2
.L116:
	.word	1073807360
	.cfi_endproc
.LFE163:
	.size	HAL_SYSCFG_EnableVREFBUF, .-HAL_SYSCFG_EnableVREFBUF
	.section	.text.HAL_SYSCFG_DisableVREFBUF,"ax",%progbits
	.align	1
	.p2align 2,,3
	.global	HAL_SYSCFG_DisableVREFBUF
	.syntax unified
	.thumb
	.thumb_func
	.fpu fpv4-sp-d16
	.type	HAL_SYSCFG_DisableVREFBUF, %function
HAL_SYSCFG_DisableVREFBUF:
.LFB164:
	.loc 1 725 1 is_stmt 1 view -0
	.cfi_startproc
	@ args = 0, pretend = 0, frame = 0
	@ frame_needed = 0, uses_anonymous_args = 0
	@ link register save eliminated.
	.loc 1 726 3 view .LVU224
	ldr	r2, .L119
	ldr	r3, [r2, #48]
	bic	r3, r3, #1
	str	r3, [r2, #48]
	.loc 1 727 1 is_stmt 0 view .LVU225
	bx	lr
.L120:
	.align	2
.L119:
	.word	1073807360
	.cfi_endproc
.LFE164:
	.size	HAL_SYSCFG_DisableVREFBUF, .-HAL_SYSCFG_DisableVREFBUF
	.section	.text.HAL_SYSCFG_EnableIOSwitchBooster,"ax",%progbits
	.align	1
	.p2align 2,,3
	.global	HAL_SYSCFG_EnableIOSwitchBooster
	.syntax unified
	.thumb
	.thumb_func
	.fpu fpv4-sp-d16
	.type	HAL_SYSCFG_EnableIOSwitchBooster, %function
HAL_SYSCFG_EnableIOSwitchBooster:
.LFB165:
	.loc 1 736 1 is_stmt 1 view -0
	.cfi_startproc
	@ args = 0, pretend = 0, frame = 0
	@ frame_needed = 0, uses_anonymous_args = 0
	@ link register save eliminated.
	.loc 1 737 3 view .LVU227
	ldr	r2, .L122
	ldr	r3, [r2, #4]
	orr	r3, r3, #256
	str	r3, [r2, #4]
	.loc 1 738 1 is_stmt 0 view .LVU228
	bx	lr
.L123:
	.align	2
.L122:
	.word	1073807360
	.cfi_endproc
.LFE165:
	.size	HAL_SYSCFG_EnableIOSwitchBooster, .-HAL_SYSCFG_EnableIOSwitchBooster
	.section	.text.HAL_SYSCFG_DisableIOSwitchBooster,"ax",%progbits
	.align	1
	.p2align 2,,3
	.global	HAL_SYSCFG_DisableIOSwitchBooster
	.syntax unified
	.thumb
	.thumb_func
	.fpu fpv4-sp-d16
	.type	HAL_SYSCFG_DisableIOSwitchBooster, %function
HAL_SYSCFG_DisableIOSwitchBooster:
.LFB166:
	.loc 1 746 1 is_stmt 1 view -0
	.cfi_startproc
	@ args = 0, pretend = 0, frame = 0
	@ frame_needed = 0, uses_anonymous_args = 0
	@ link register save eliminated.
	.loc 1 747 3 view .LVU230
	ldr	r2, .L125
	ldr	r3, [r2, #4]
	bic	r3, r3, #256
	str	r3, [r2, #4]
	.loc 1 748 1 is_stmt 0 view .LVU231
	bx	lr
.L126:
	.align	2
.L125:
	.word	1073807360
	.cfi_endproc
.LFE166:
	.size	HAL_SYSCFG_DisableIOSwitchBooster, .-HAL_SYSCFG_DisableIOSwitchBooster
	.section	.text.HAL_SYSCFG_EnableIOSwitchVDD,"ax",%progbits
	.align	1
	.p2align 2,,3
	.global	HAL_SYSCFG_EnableIOSwitchVDD
	.syntax unified
	.thumb
	.thumb_func
	.fpu fpv4-sp-d16
	.type	HAL_SYSCFG_EnableIOSwitchVDD, %function
HAL_SYSCFG_EnableIOSwitchVDD:
.LFB167:
	.loc 1 756 1 is_stmt 1 view -0
	.cfi_startproc
	@ args = 0, pretend = 0, frame = 0
	@ frame_needed = 0, uses_anonymous_args = 0
	@ link register save eliminated.
	.loc 1 757 3 view .LVU233
	ldr	r2, .L128
	ldr	r3, [r2, #4]
	orr	r3, r3, #512
	str	r3, [r2, #4]
	.loc 1 758 1 is_stmt 0 view .LVU234
	bx	lr
.L129:
	.align	2
.L128:
	.word	1073807360
	.cfi_endproc
.LFE167:
	.size	HAL_SYSCFG_EnableIOSwitchVDD, .-HAL_SYSCFG_EnableIOSwitchVDD
	.section	.text.HAL_SYSCFG_DisableIOSwitchVDD,"ax",%progbits
	.align	1
	.p2align 2,,3
	.global	HAL_SYSCFG_DisableIOSwitchVDD
	.syntax unified
	.thumb
	.thumb_func
	.fpu fpv4-sp-d16
	.type	HAL_SYSCFG_DisableIOSwitchVDD, %function
HAL_SYSCFG_DisableIOSwitchVDD:
.LFB168:
	.loc 1 766 1 is_stmt 1 view -0
	.cfi_startproc
	@ args = 0, pretend = 0, frame = 0
	@ frame_needed = 0, uses_anonymous_args = 0
	@ link register save eliminated.
	.loc 1 767 3 view .LVU236
	ldr	r2, .L131
	ldr	r3, [r2, #4]
	bic	r3, r3, #512
	str	r3, [r2, #4]
	.loc 1 768 1 is_stmt 0 view .LVU237
	bx	lr
.L132:
	.align	2
.L131:
	.word	1073807360
	.cfi_endproc
.LFE168:
	.size	HAL_SYSCFG_DisableIOSwitchVDD, .-HAL_SYSCFG_DisableIOSwitchVDD
	.section	.text.HAL_SYSCFG_CCMSRAM_WriteProtectionEnable,"ax",%progbits
	.align	1
	.p2align 2,,3
	.global	HAL_SYSCFG_CCMSRAM_WriteProtectionEnable
	.syntax unified
	.thumb
	.thumb_func
	.fpu fpv4-sp-d16
	.type	HAL_SYSCFG_CCMSRAM_WriteProtectionEnable, %function
HAL_SYSCFG_CCMSRAM_WriteProtectionEnable:
.LVL42:
.LFB169:
	.loc 1 777 1 is_stmt 1 view -0
	.cfi_startproc
	@ args = 0, pretend = 0, frame = 0
	@ frame_needed = 0, uses_anonymous_args = 0
	@ link register save eliminated.
	.loc 1 778 3 view .LVU239
	.loc 1 780 3 view .LVU240
	ldr	r2, .L134
	ldr	r3, [r2, #32]
	orrs	r0, r0, r3
.LVL43:
	.loc 1 780 3 is_stmt 0 view .LVU241
	str	r0, [r2, #32]
	.loc 1 781 1 view .LVU242
	bx	lr
.L135:
	.align	2
.L134:
	.word	1073807360
	.cfi_endproc
.LFE169:
	.size	HAL_SYSCFG_CCMSRAM_WriteProtectionEnable, .-HAL_SYSCFG_CCMSRAM_WriteProtectionEnable
	.global	uwTickFreq
	.global	uwTickPrio
	.global	uwTick
	.section	.bss.uwTick,"aw",%nobits
	.align	2
	.set	.LANCHOR2,. + 0
	.type	uwTick, %object
	.size	uwTick, 4
uwTick:
	.space	4
	.section	.data.uwTickFreq,"aw"
	.align	2
	.set	.LANCHOR0,. + 0
	.type	uwTickFreq, %object
	.size	uwTickFreq, 4
uwTickFreq:
	.word	1
	.section	.data.uwTickPrio,"aw"
	.align	2
	.set	.LANCHOR1,. + 0
	.type	uwTickPrio, %object
	.size	uwTickPrio, 4
uwTickPrio:
	.word	16
	.text
.Letext0:
	.file 2 "/usr/share/gcc-arm-none-eabi-10-2020-q4-major/arm-none-eabi/include/machine/_default_types.h"
	.file 3 "/usr/share/gcc-arm-none-eabi-10-2020-q4-major/arm-none-eabi/include/sys/_stdint.h"
	.file 4 "Drivers/CMSIS/Include/core_cm4.h"
	.file 5 "Drivers/CMSIS/Device/ST/STM32G4xx/Include/stm32g431xx.h"
	.file 6 "Drivers/STM32G4xx_HAL_Driver/Inc/stm32g4xx_hal_def.h"
	.file 7 "Drivers/CMSIS/Device/ST/STM32G4xx/Include/system_stm32g4xx.h"
	.file 8 "Drivers/STM32G4xx_HAL_Driver/Inc/stm32g4xx_hal.h"
	.file 9 "Drivers/STM32G4xx_HAL_Driver/Inc/stm32g4xx_hal_cortex.h"