	.cpu cortex-m4
	.eabi_attribute 27, 1
	.eabi_attribute 28, 1
	.eabi_attribute 20, 1
	.eabi_attribute 21, 1
	.eabi_attribute 23, 3
	.eabi_attribute 24, 1
	.eabi_attribute 25, 1
	.eabi_attribute 26, 1
	.eabi_attribute 30, 2
	.eabi_attribute 34, 1
	.eabi_attribute 18, 4
	.file	"stm32g4xx_hal_dma_ex.c"
	.text
.Ltext0:
	.cfi_sections	.debug_frame
	.section	.text.HAL_DMAEx_ConfigMuxSync,"ax",%progbits
	.align	1
	.p2align 2,,3
	.global	HAL_DMAEx_ConfigMuxSync
	.arch armv7e-m
	.syntax unified
	.thumb
	.thumb_func
	.fpu fpv4-sp-d16
	.type	HAL_DMAEx_ConfigMuxSync, %function
HAL_DMAEx_ConfigMuxSync:
.LVL0:
.LFB132:
	.file 1 "Drivers/STM32G4xx_HAL_Driver/Src/stm32g4xx_hal_dma_ex.c"
	.loc 1 96 1 view -0
	.cfi_startproc
	@ args = 0, pretend = 0, frame = 0
	@ frame_needed = 0, uses_anonymous_args = 0
	@ link register save eliminated.
	.loc 1 98 3 view .LVU1
	.loc 1 100 3 view .LVU2
	.loc 1 102 3 view .LVU3
	.loc 1 103 3 view .LVU4
	.loc 1 104 3 view .LVU5
	.loc 1 105 3 view .LVU6
	.loc 1 108 3 view .LVU7
	.loc 1 108 11 is_stmt 0 view .LVU8
	ldrb	r2, [r0, #37]	@ zero_extendqisi2
	.loc 1 108 6 view .LVU9
	cmp	r2, #1
	bne	.L3
	.loc 1 111 5 view .LVU10
	ldrb	r2, [r0, #36]	@ zero_extendqisi2
	cmp	r2, #1
	mov	r3, r0
	.loc 1 111 5 is_stmt 1 view .LVU11
	.loc 1 111 5 view .LVU12
	beq	.L4
	.loc 1 111 5 discriminator 2 view .LVU13
	.loc 1 111 5 discriminator 2 view .LVU14
	.loc 1 114 5 discriminator 2 view .LVU15
	.loc 1 96 1 is_stmt 0 discriminator 2 view .LVU16
	push	{r4, r5}
.LCFI0:
	.cfi_def_cfa_offset 8
	.cfi_offset 4, -8
	.cfi_offset 5, -4
	.loc 1 114 5 discriminator 2 view .LVU17
	ldr	r2, [r1, #4]
	ldr	r5, [r1]
	ldr	r0, [r1, #12]
.LVL1:
	.loc 1 114 5 discriminator 2 view .LVU18
	ldr	r4, [r3, #72]
	orr	r2, r2, r5, lsl #24
	subs	r0, r0, #1
	orr	r2, r2, r0, lsl #19
	ldrb	r0, [r1, #8]	@ zero_extendqisi2
	ldrb	r1, [r1, #9]	@ zero_extendqisi2
.LVL2:
	.loc 1 114 5 discriminator 2 view .LVU19
	orr	r2, r2, r0, lsl #16
	orr	r2, r2, r1, lsl #9
	ldr	r1, [r4]
	uxtb	r1, r1
	.loc 1 121 5 discriminator 2 view .LVU20
	mov	ip, #0
	.loc 1 114 5 discriminator 2 view .LVU21
	orrs	r2, r2, r1
	str	r2, [r4]
	.loc 1 121 5 is_stmt 1 discriminator 2 view .LVU22
	.loc 1 121 5 discriminator 2 view .LVU23
	strb	ip, [r3, #36]
	.loc 1 121 5 discriminator 2 view .LVU24
	.loc 1 123 5 discriminator 2 view .LVU25
	.loc 1 123 12 is_stmt 0 discriminator 2 view .LVU26
	mov	r0, ip
	.loc 1 130 1 discriminator 2 view .LVU27
	pop	{r4, r5}
.LCFI1:
	.cfi_restore 5
	.cfi_restore 4
	.cfi_def_cfa_offset 0
	bx	lr
.LVL3:
.L3:
	.loc 1 128 12 view .LVU28
	movs	r0, #1
.LVL4:
	.loc 1 128 12 view .LVU29
	bx	lr
.LVL5:
.L4:
	.loc 1 111 5 view .LVU30
	movs	r0, #2
.LVL6:
	.loc 1 130 1 view .LVU31
	bx	lr
	.cfi_endproc
.LFE132:
	.size	HAL_DMAEx_ConfigMuxSync, .-HAL_DMAEx_ConfigMuxSync
	.section	.text.HAL_DMAEx_ConfigMuxRequestGenerator,"ax",%progbits
	.align	1
	.p2align 2,,3
	.global	HAL_DMAEx_ConfigMuxRequestGenerator
	.syntax unified
	.thumb
	.thumb_func
	.fpu fpv4-sp-d16
	.type	HAL_DMAEx_ConfigMuxRequestGenerator, %function
HAL_DMAEx_ConfigMuxRequestGenerator:
.LVL7:
.LFB133:
	.loc 1 143 1 is_stmt 1 view -0
	.cfi_startproc
	@ args = 0, pretend = 0, frame = 0
	@ frame_needed = 0, uses_anonymous_args = 0
	@ link register save eliminated.
	.loc 1 145 3 view .LVU33
	.loc 1 147 3 view .LVU34
	.loc 1 149 3 view .LVU35
	.loc 1 150 3 view .LVU36
	.loc 1 155 3 view .LVU37
	.loc 1 155 12 is_stmt 0 view .LVU38
	ldrb	r3, [r0, #37]	@ zero_extendqisi2
	.loc 1 155 6 view .LVU39
	cmp	r3, #1
	bne	.L13
	.loc 1 143 1 discriminator 1 view .LVU40
	push	{r4}
.LCFI2:
	.cfi_def_cfa_offset 4
	.cfi_offset 4, -4
	.loc 1 155 52 discriminator 1 view .LVU41
	ldr	r4, [r0, #84]
	uxtb	r2, r3
	.loc 1 155 44 discriminator 1 view .LVU42
	cbz	r4, .L11
	.loc 1 158 5 is_stmt 1 view .LVU43
	.loc 1 158 5 view .LVU44
	ldrb	r3, [r0, #36]	@ zero_extendqisi2
	cmp	r3, #1
	beq	.L14
	.loc 1 158 5 discriminator 2 view .LVU45
	.loc 1 158 5 discriminator 2 view .LVU46
	.loc 1 161 5 discriminator 2 view .LVU47
	.loc 1 162 77 is_stmt 0 discriminator 2 view .LVU48
	ldr	r3, [r1, #8]
	.loc 1 161 59 discriminator 2 view .LVU49
	ldr	r2, [r1]
	.loc 1 162 77 discriminator 2 view .LVU50
	add	ip, r3, #-1
.LVL8:
.LBB6:
.LBI6:
	.file 2 "Drivers/CMSIS/Include/cmsis_gcc.h"
	.loc 2 1048 31 is_stmt 1 discriminator 2 view .LVU51
.LBB7:
	.loc 2 1050 3 discriminator 2 view .LVU52
	.loc 2 1055 4 discriminator 2 view .LVU53
	mov	r3, #16252928
	.syntax unified
@ 1055 "Drivers/CMSIS/Include/cmsis_gcc.h" 1
	rbit r3, r3
@ 0 "" 2
.LVL9:
	.loc 2 1068 3 discriminator 2 view .LVU54
	.loc 2 1068 3 is_stmt 0 discriminator 2 view .LVU55
	.thumb
	.syntax unified
.LBE7:
.LBE6:
.LBB8:
.LBI8:
	.loc 2 1078 30 is_stmt 1 discriminator 2 view .LVU56
.LBB9:
	.loc 2 1089 3 discriminator 2 view .LVU57
	.loc 2 1089 6 is_stmt 0 discriminator 2 view .LVU58
	cbz	r3, .L12
	.loc 2 1093 3 is_stmt 1 view .LVU59
	.loc 2 1093 10 is_stmt 0 view .LVU60
	clz	r3, r3
.LVL10:
	.loc 2 1093 10 view .LVU61
.LBE9:
.LBE8:
	.loc 1 162 83 view .LVU62
	lsl	ip, ip, r3
.L12:
	.loc 1 162 131 view .LVU63
	ldr	r3, [r1, #4]
	orrs	r3, r3, r2
	.loc 1 165 5 view .LVU64
	movs	r1, #0
.LVL11:
	.loc 1 162 131 view .LVU65
	orr	r3, r3, ip
	.loc 1 161 34 view .LVU66
	str	r3, [r4]
	.loc 1 165 5 is_stmt 1 view .LVU67
	.loc 1 165 5 view .LVU68
	.loc 1 167 12 is_stmt 0 view .LVU69
	mov	r2, r1
	.loc 1 165 5 view .LVU70
	strb	r1, [r0, #36]
	.loc 1 165 5 is_stmt 1 view .LVU71
	.loc 1 167 5 view .LVU72
.L11:
	.loc 1 173 1 is_stmt 0 view .LVU73
	mov	r0, r2
.LVL12:
	.loc 1 173 1 view .LVU74
	ldr	r4, [sp], #4
.LCFI3:
	.cfi_restore 4
	.cfi_def_cfa_offset 0
	bx	lr
.LVL13:
.L13:
	.loc 1 171 12 view .LVU75
	movs	r2, #1
	.loc 1 173 1 view .LVU76
	mov	r0, r2
.LVL14:
	.loc 1 173 1 view .LVU77
	bx	lr
.LVL15:
.L14:
.LCFI4:
	.cfi_def_cfa_offset 4
	.cfi_offset 4, -4
	.loc 1 158 5 view .LVU78
	movs	r2, #2
	b	.L11
	.cfi_endproc
.LFE133:
	.size	HAL_DMAEx_ConfigMuxRequestGenerator, .-HAL_DMAEx_ConfigMuxRequestGenerator
	.section	.text.HAL_DMAEx_EnableMuxRequestGenerator,"ax",%progbits
	.align	1
	.p2align 2,,3
	.global	HAL_DMAEx_EnableMuxRequestGenerator
	.syntax unified
	.thumb
	.thumb_func
	.fpu fpv4-sp-d16
	.type	HAL_DMAEx_EnableMuxRequestGenerator, %function
HAL_DMAEx_EnableMuxRequestGenerator:
.LVL16:
.LFB134:
	.loc 1 182 1 is_stmt 1 view -0
	.cfi_startproc
	@ args = 0, pretend = 0, frame = 0
	@ frame_needed = 0, uses_anonymous_args = 0
	@ link register save eliminated.
	.loc 1 184 3 view .LVU80
	.loc 1 189 3 view .LVU81
	.loc 1 189 12 is_stmt 0 view .LVU82
	ldrb	r3, [r0, #37]	@ zero_extendqisi2
	.loc 1 189 6 view .LVU83
	cbz	r3, .L28
	.loc 1 189 52 discriminator 1 view .LVU84
	ldr	r3, [r0, #84]
	.loc 1 189 44 discriminator 1 view .LVU85
	cbz	r3, .L28
	.loc 1 193 5 is_stmt 1 view .LVU86
	.loc 1 193 34 is_stmt 0 view .LVU87
	ldr	r2, [r3]
	orr	r2, r2, #65536
	.loc 1 195 12 view .LVU88
	movs	r0, #0
.LVL17:
	.loc 1 193 34 view .LVU89
	str	r2, [r3]
	.loc 1 195 5 is_stmt 1 view .LVU90
	.loc 1 195 12 is_stmt 0 view .LVU91
	bx	lr
.LVL18:
.L28:
	.loc 1 199 12 view .LVU92
	movs	r0, #1
.LVL19:
	.loc 1 201 1 view .LVU93
	bx	lr
	.cfi_endproc
.LFE134:
	.size	HAL_DMAEx_EnableMuxRequestGenerator, .-HAL_DMAEx_EnableMuxRequestGenerator
	.section	.text.HAL_DMAEx_DisableMuxRequestGenerator,"ax",%progbits
	.align	1
	.p2align 2,,3
	.global	HAL_DMAEx_DisableMuxRequestGenerator
	.syntax unified
	.thumb
	.thumb_func
	.fpu fpv4-sp-d16
	.type	HAL_DMAEx_DisableMuxRequestGenerator, %function
HAL_DMAEx_DisableMuxRequestGenerator:
.LVL20:
.LFB135:
	.loc 1 210 1 is_stmt 1 view -0
	.cfi_startproc
	@ args = 0, pretend = 0, frame = 0
	@ frame_needed = 0, uses_anonymous_args = 0
	@ link register save eliminated.
	.loc 1 212 3 view .LVU95
	.loc 1 217 3 view .LVU96
	.loc 1 217 12 is_stmt 0 view .LVU97
	ldrb	r3, [r0, #37]	@ zero_extendqisi2
	.loc 1 217 6 view .LVU98
	cbz	r3, .L32
	.loc 1 217 52 discriminator 1 view .LVU99
	ldr	r3, [r0, #84]
	.loc 1 217 44 discriminator 1 view .LVU100
	cbz	r3, .L32
	.loc 1 221 5 is_stmt 1 view .LVU101
	.loc 1 221 34 is_stmt 0 view .LVU102
	ldr	r2, [r3]
	bic	r2, r2, #65536
	.loc 1 223 12 view .LVU103
	movs	r0, #0
.LVL21:
	.loc 1 221 34 view .LVU104
	str	r2, [r3]
	.loc 1 223 5 is_stmt 1 view .LVU105
	.loc 1 223 12 is_stmt 0 view .LVU106
	bx	lr
.LVL22:
.L32:
	.loc 1 227 12 view .LVU107
	movs	r0, #1
.LVL23:
	.loc 1 229 1 view .LVU108
	bx	lr
	.cfi_endproc
.LFE135:
	.size	HAL_DMAEx_DisableMuxRequestGenerator, .-HAL_DMAEx_DisableMuxRequestGenerator
	.section	.text.HAL_DMAEx_MUX_IRQHandler,"ax",%progbits
	.align	1
	.p2align 2,,3
	.global	HAL_DMAEx_MUX_IRQHandler
	.syntax unified
	.thumb
	.thumb_func
	.fpu fpv4-sp-d16
	.type	HAL_DMAEx_MUX_IRQHandler, %function
HAL_DMAEx_MUX_IRQHandler:
.LVL24:
.LFB136:
	.loc 1 238 1 is_stmt 1 view -0
	.cfi_startproc
	@ args = 0, pretend = 0, frame = 0
	@ frame_needed = 0, uses_anonymous_args = 0
	.loc 1 240 3 view .LVU110
	.loc 1 240 45 is_stmt 0 view .LVU111
	ldrd	r3, r2, [r0, #76]
	.loc 1 240 33 view .LVU112
	ldr	r1, [r3]
	.loc 1 240 6 view .LVU113
	tst	r1, r2
	.loc 1 238 1 view .LVU114
	push	{r4, r5, r6, lr}
.LCFI5:
	.cfi_def_cfa_offset 16
	.cfi_offset 4, -16
	.cfi_offset 5, -12
	.cfi_offset 6, -8
	.cfi_offset 14, -4
	.loc 1 238 1 view .LVU115
	mov	r4, r0
	.loc 1 240 6 view .LVU116
	beq	.L35
	.loc 1 243 5 is_stmt 1 view .LVU117
	.loc 1 243 9 is_stmt 0 view .LVU118
	ldr	r5, [r0, #72]
	.loc 1 251 13 view .LVU119
	ldr	r6, [r0, #52]
	.loc 1 243 30 view .LVU120
	ldr	r1, [r5]
	bic	r1, r1, #256
	str	r1, [r5]
	.loc 1 246 5 is_stmt 1 view .LVU121
	.loc 1 246 36 is_stmt 0 view .LVU122
	str	r2, [r3, #4]
	.loc 1 249 5 is_stmt 1 view .LVU123
	.loc 1 249 21 is_stmt 0 view .LVU124
	ldr	r3, [r0, #60]
	orr	r3, r3, #512
	str	r3, [r0, #60]
	.loc 1 251 5 is_stmt 1 view .LVU125
	.loc 1 251 8 is_stmt 0 view .LVU126
	cbz	r6, .L35
	.loc 1 254 7 is_stmt 1 view .LVU127
	blx	r6
.LVL25:
.L35:
	.loc 1 258 3 view .LVU128
	.loc 1 258 11 is_stmt 0 view .LVU129
	ldr	r3, [r4, #84]
	.loc 1 258 6 view .LVU130
	cbz	r3, .L33
	.loc 1 261 5 is_stmt 1 view .LVU131
	.loc 1 261 51 is_stmt 0 view .LVU132
	ldrd	r2, r1, [r4, #88]
	.loc 1 261 38 view .LVU133
	ldr	r0, [r2]
	.loc 1 261 8 view .LVU134
	tst	r0, r1
	beq	.L33
	.loc 1 264 7 is_stmt 1 view .LVU135
	.loc 1 264 36 is_stmt 0 view .LVU136
	ldr	r0, [r3]
	bic	r0, r0, #256
	str	r0, [r3]
	.loc 1 267 7 is_stmt 1 view .LVU137
	.loc 1 267 43 is_stmt 0 view .LVU138
	str	r1, [r2, #4]
	.loc 1 270 7 is_stmt 1 view .LVU139
	.loc 1 270 23 is_stmt 0 view .LVU140
	ldr	r3, [r4, #60]
	.loc 1 272 15 view .LVU141
	ldr	r2, [r4, #52]
	.loc 1 270 23 view .LVU142
	orr	r3, r3, #1024
	str	r3, [r4, #60]
	.loc 1 272 7 is_stmt 1 view .LVU143
	.loc 1 272 10 is_stmt 0 view .LVU144
	cbz	r2, .L33
	.loc 1 275 9 is_stmt 1 view .LVU145
	mov	r0, r4
	.loc 1 279 1 is_stmt 0 view .LVU146
	pop	{r4, r5, r6, lr}
.LCFI6:
	.cfi_remember_state
	.cfi_restore 14
	.cfi_restore 6
	.cfi_restore 5
	.cfi_restore 4
	.cfi_def_cfa_offset 0
.LVL26:
	.loc 1 275 9 view .LVU147
	bx	r2	@ indirect register sibling call
.LVL27:
.L33:
.LCFI7:
	.cfi_restore_state
	.loc 1 279 1 view .LVU148
	pop	{r4, r5, r6, pc}
	.loc 1 279 1 view .LVU149
	.cfi_endproc
.LFE136:
	.size	HAL_DMAEx_MUX_IRQHandler, .-HAL_DMAEx_MUX_IRQHandler
	.text
.Letext0:
	.file 3 "/usr/share/gcc-arm-none-eabi-10-2020-q4-major/arm-none-eabi/include/machine/_default_types.h"
	.file 4 "/usr/share/gcc-arm-none-eabi-10-2020-q4-major/arm-none-eabi/include/sys/_stdint.h"
	.file 5 "Drivers/CMSIS/Device/ST/STM32G4xx/Include/stm32g431xx.h"
	.file 6 "Drivers/CMSIS/Device/ST/STM32G4xx/Include/stm32g4xx.h"
	.file 7 "Drivers/STM32G4xx_HAL_Driver/Inc/stm32g4xx_hal_def.h"
	.file 8 "Drivers/STM32G4xx_HAL_Driver/Inc/stm32g4xx_hal_dma.h"
	.file 9 "Drivers/STM32G4xx_HAL_Driver/Inc/stm32g4xx_hal_dma_ex.h"