	.cpu cortex-m4
	.eabi_attribute 27, 1
	.eabi_attribute 28, 1
	.eabi_attribute 20, 1
	.eabi_attribute 21, 1
	.eabi_attribute 23, 3
	.eabi_attribute 24, 1
	.eabi_attribute 25, 1
	.eabi_attribute 26, 1
	.eabi_attribute 30, 2
	.eabi_attribute 34, 1
	.eabi_attribute 18, 4
	.file	"stm32g4xx_mc_it.c"
	.text
.Ltext0:
	.cfi_sections	.debug_frame
	.section	.text.ADC1_2_IRQHandler,"ax",%progbits
	.align	1
	.p2align 2,,3
	.global	ADC1_2_IRQHandler
	.arch armv7e-m
	.syntax unified
	.thumb
	.thumb_func
	.fpu fpv4-sp-d16
	.type	ADC1_2_IRQHandler, %function
ADC1_2_IRQHandler:
.LFB1713:
	.file 1 "Src/stm32g4xx_mc_it.c"
	.loc 1 72 1 view -0
	.cfi_startproc
	@ args = 0, pretend = 0, frame = 0
	@ frame_needed = 0, uses_anonymous_args = 0
	@ link register save eliminated.
	.loc 1 78 5 view .LVU1
.LVL0:
.LBB14:
.LBI14:
	.file 2 "Drivers/STM32G4xx_HAL_Driver/Inc/stm32g4xx_ll_adc.h"
	.loc 2 8454 22 view .LVU2
.LBB15:
	.loc 2 8456 3 view .LVU3
	mov	r3, #1342177280
	movs	r2, #64
	str	r2, [r3]
.LVL1:
	.loc 2 8456 3 is_stmt 0 view .LVU4
.LBE15:
.LBE14:
	.loc 1 81 3 is_stmt 1 view .LVU5
	.loc 1 81 9 is_stmt 0 view .LVU6
	b	TSK_HighFrequencyTask
.LVL2:
	.cfi_endproc
.LFE1713:
	.size	ADC1_2_IRQHandler, .-ADC1_2_IRQHandler
	.section	.text.TIM1_UP_TIM16_IRQHandler,"ax",%progbits
	.align	1
	.p2align 2,,3
	.global	TIM1_UP_TIM16_IRQHandler
	.syntax unified
	.thumb
	.thumb_func
	.fpu fpv4-sp-d16
	.type	TIM1_UP_TIM16_IRQHandler, %function
TIM1_UP_TIM16_IRQHandler:
.LFB1714:
	.loc 1 104 1 is_stmt 1 view -0
	.cfi_startproc
	@ args = 0, pretend = 0, frame = 0
	@ frame_needed = 0, uses_anonymous_args = 0
	@ link register save eliminated.
	.loc 1 109 3 view .LVU8
.LVL3:
.LBB16:
.LBI16:
	.file 3 "Drivers/STM32G4xx_HAL_Driver/Inc/stm32g4xx_ll_tim.h"
	.loc 3 5455 22 view .LVU9
.LBB17:
	.loc 3 5457 3 view .LVU10
	ldr	r3, .L4
.LBE17:
.LBE16:
	.loc 1 110 9 is_stmt 0 view .LVU11
	ldr	r0, .L4+4
.LBB19:
.LBB18:
	.loc 3 5457 3 view .LVU12
	mvn	r2, #1
	str	r2, [r3, #16]
.LVL4:
	.loc 3 5457 3 view .LVU13
.LBE18:
.LBE19:
	.loc 1 110 3 is_stmt 1 view .LVU14
	.loc 1 110 9 is_stmt 0 view .LVU15
	b	R3_2_TIMx_UP_IRQHandler
.LVL5:
.L5:
	.align	2
.L4:
	.word	1073818624
	.word	PWM_Handle_M1
	.cfi_endproc
.LFE1714:
	.size	TIM1_UP_TIM16_IRQHandler, .-TIM1_UP_TIM16_IRQHandler
	.section	.text.TIM1_BRK_TIM15_IRQHandler,"ax",%progbits
	.align	1
	.p2align 2,,3
	.global	TIM1_BRK_TIM15_IRQHandler
	.syntax unified
	.thumb
	.thumb_func
	.fpu fpv4-sp-d16
	.type	TIM1_BRK_TIM15_IRQHandler, %function
TIM1_BRK_TIM15_IRQHandler:
.LFB1715:
	.loc 1 118 1 is_stmt 1 view -0
	.cfi_startproc
	@ args = 0, pretend = 0, frame = 0
	@ frame_needed = 0, uses_anonymous_args = 0
	.loc 1 123 3 view .LVU17
.LVL6:
.LBB20:
.LBI20:
	.loc 3 5664 26 view .LVU18
.LBB21:
	.loc 3 5666 3 view .LVU19
.LBE21:
.LBE20:
	.loc 1 118 1 is_stmt 0 view .LVU20
	push	{r3, lr}
.LCFI0:
	.cfi_def_cfa_offset 8
	.cfi_offset 3, -8
	.cfi_offset 14, -4
.LBB23:
.LBB22:
	.loc 3 5666 12 view .LVU21
	ldr	r3, .L16
	ldr	r2, [r3, #16]
	.loc 3 5666 66 view .LVU22
	lsls	r2, r2, #24
	bpl	.L7
.LVL7:
	.loc 3 5666 66 view .LVU23
.LBE22:
.LBE23:
	.loc 1 129 5 is_stmt 1 view .LVU24
.LBB24:
.LBI24:
	.loc 3 5653 22 view .LVU25
.LBB25:
	.loc 3 5655 3 view .LVU26
	mvn	r2, #128
.LBE25:
.LBE24:
	.loc 1 130 5 is_stmt 0 view .LVU27
	ldr	r0, .L16+4
.LBB27:
.LBB26:
	.loc 3 5655 3 view .LVU28
	str	r2, [r3, #16]
.LVL8:
	.loc 3 5655 3 view .LVU29
.LBE26:
.LBE27:
	.loc 1 130 5 is_stmt 1 view .LVU30
	bl	PWMC_OCP_Handler
.LVL9:
.L7:
	.loc 1 133 3 view .LVU31
.LBB28:
.LBI28:
	.loc 3 5686 26 view .LVU32
.LBB29:
	.loc 3 5688 3 view .LVU33
	.loc 3 5688 12 is_stmt 0 view .LVU34
	ldr	r1, .L16
	ldr	r3, [r1, #16]
	.loc 3 5688 68 view .LVU35
	lsls	r3, r3, #23
	bpl	.L8
.LVL10:
	.loc 3 5688 68 view .LVU36
.LBE29:
.LBE28:
	.loc 1 139 5 is_stmt 1 view .LVU37
.LBB30:
.LBI30:
	.loc 3 5675 22 view .LVU38
.LBB31:
	.loc 3 5677 3 view .LVU39
	mvn	r3, #256
.LBE31:
.LBE30:
	.loc 1 140 5 is_stmt 0 view .LVU40
	ldr	r0, .L16+4
.LBB33:
.LBB32:
	.loc 3 5677 3 view .LVU41
	str	r3, [r1, #16]
.LVL11:
	.loc 3 5677 3 view .LVU42
.LBE32:
.LBE33:
	.loc 1 140 5 is_stmt 1 view .LVU43
	bl	PWMC_OVP_Handler
.LVL12:
.L8:
	.loc 1 144 3 view .LVU44
	.loc 1 149 1 is_stmt 0 view .LVU45
	pop	{r3, lr}
.LCFI1:
	.cfi_restore 14
	.cfi_restore 3
	.cfi_def_cfa_offset 0
	.loc 1 144 3 view .LVU46
	b	MC_RunMotorControlTasks
.LVL13:
.L17:
	.align	2
.L16:
	.word	1073818624
	.word	PWM_Handle_M1
	.cfi_endproc
.LFE1715:
	.size	TIM1_BRK_TIM15_IRQHandler, .-TIM1_BRK_TIM15_IRQHandler
	.text
.Letext0:
	.file 4 "/usr/share/gcc-arm-none-eabi-10-2020-q4-major/arm-none-eabi/include/machine/_default_types.h"
	.file 5 "/usr/share/gcc-arm-none-eabi-10-2020-q4-major/arm-none-eabi/include/sys/_stdint.h"
	.file 6 "Drivers/CMSIS/Device/ST/STM32G4xx/Include/stm32g431xx.h"
	.file 7 "Drivers/STM32G4xx_HAL_Driver/Inc/stm32g4xx_ll_usart.h"
	.file 8 "Drivers/STM32G4xx_HAL_Driver/Inc/stm32g4xx_ll_dma.h"
	.file 9 "Inc/mc_type.h"
	.file 10 "Inc/pwm_curr_fdbk.h"
	.file 11 "MCSDK_v6.3.2-Full/MotorControl/MCSDK/MCLib/G4xx/Inc/r3_2_g4xx_pwm_curr_fdbk.h"
	.file 12 "Inc/mc_tasks.h"
	.file 13 "Inc/mc_config.h"