	.cpu cortex-m4
	.eabi_attribute 27, 1
	.eabi_attribute 28, 1
	.eabi_attribute 20, 1
	.eabi_attribute 21, 1
	.eabi_attribute 23, 3
	.eabi_attribute 24, 1
	.eabi_attribute 25, 1
	.eabi_attribute 26, 1
	.eabi_attribute 30, 2
	.eabi_attribute 34, 1
	.eabi_attribute 18, 4
	.file	"stm32g4xx_ll_rcc.c"
	.text
.Ltext0:
	.cfi_sections	.debug_frame
	.section	.text.LL_RCC_DeInit,"ax",%progbits
	.align	1
	.p2align 2,,3
	.global	LL_RCC_DeInit
	.arch armv7e-m
	.syntax unified
	.thumb
	.thumb_func
	.fpu fpv4-sp-d16
	.type	LL_RCC_DeInit, %function
LL_RCC_DeInit:
.LFB272:
	.file 1 "Drivers/STM32G4xx_HAL_Driver/Src/stm32g4xx_ll_rcc.c"
	.loc 1 134 1 view -0
	.cfi_startproc
	@ args = 0, pretend = 0, frame = 0
	@ frame_needed = 0, uses_anonymous_args = 0
	@ link register save eliminated.
	.loc 1 135 3 view .LVU1
	.loc 1 138 3 view .LVU2
.LBB234:
.LBI234:
	.file 2 "Drivers/STM32G4xx_HAL_Driver/Inc/stm32g4xx_ll_rcc.h"
	.loc 2 1003 22 view .LVU3
.LBB235:
	.loc 2 1005 3 view .LVU4
	ldr	r3, .L10
	ldr	r2, [r3]
	orr	r2, r2, #256
	str	r2, [r3]
.L2:
.LBE235:
.LBE234:
	.loc 1 140 4 discriminator 1 view .LVU5
	.loc 1 139 9 discriminator 1 view .LVU6
.LBB236:
.LBI236:
	.loc 2 1023 26 discriminator 1 view .LVU7
.LBB237:
	.loc 2 1025 3 discriminator 1 view .LVU8
	.loc 2 1025 12 is_stmt 0 discriminator 1 view .LVU9
	ldr	r2, [r3]
	.loc 2 1025 71 discriminator 1 view .LVU10
	lsls	r2, r2, #21
	bpl	.L2
.LBE237:
.LBE236:
	.loc 1 143 3 is_stmt 1 view .LVU11
.LVL0:
.LBB238:
.LBI238:
	.loc 2 1049 22 view .LVU12
.LBB239:
	.loc 2 1051 3 view .LVU13
	ldr	r1, [r3, #4]
.LBE239:
.LBE238:
.LBB242:
.LBB243:
	.loc 2 1355 21 is_stmt 0 view .LVU14
	ldr	r2, .L10
.LBE243:
.LBE242:
.LBB245:
.LBB240:
	.loc 2 1051 3 view .LVU15
	bic	r1, r1, #2130706432
.LBE240:
.LBE245:
	.loc 1 146 3 view .LVU16
	movs	r0, #1
.LBB246:
.LBB241:
	.loc 2 1051 3 view .LVU17
	orr	r1, r1, #1073741824
	str	r1, [r3, #4]
.LVL1:
	.loc 2 1051 3 view .LVU18
.LBE241:
.LBE246:
	.loc 1 146 3 is_stmt 1 view .LVU19
	str	r0, [r3, #8]
	.loc 1 147 3 view .LVU20
.L3:
	.loc 1 147 71 discriminator 1 view .LVU21
	.loc 1 147 8 discriminator 1 view .LVU22
.LBB247:
.LBI242:
	.loc 2 1353 26 discriminator 1 view .LVU23
.LBB244:
	.loc 2 1355 3 discriminator 1 view .LVU24
	.loc 2 1355 21 is_stmt 0 discriminator 1 view .LVU25
	ldr	r3, [r2, #8]
	.loc 2 1355 10 discriminator 1 view .LVU26
	and	r3, r3, #12
.LBE244:
.LBE247:
	.loc 1 147 8 discriminator 1 view .LVU27
	cmp	r3, #4
	bne	.L3
	.loc 1 147 72 is_stmt 1 discriminator 2 view .LVU28
	.loc 1 150 3 discriminator 2 view .LVU29
	mov	r1, #256
.LBB248:
.LBB249:
	.loc 2 2076 12 is_stmt 0 discriminator 2 view .LVU30
	ldr	r3, .L10
.LBE249:
.LBE248:
	.loc 1 150 3 discriminator 2 view .LVU31
	str	r1, [r2]
	.loc 1 151 3 is_stmt 1 discriminator 2 view .LVU32
	str	r1, [r2]
	.loc 1 154 3 discriminator 2 view .LVU33
.L4:
	.loc 1 155 4 discriminator 1 view .LVU34
	.loc 1 154 9 discriminator 1 view .LVU35
.LBB251:
.LBI248:
	.loc 2 2074 26 discriminator 1 view .LVU36
.LBB250:
	.loc 2 2076 3 discriminator 1 view .LVU37
	.loc 2 2076 12 is_stmt 0 discriminator 1 view .LVU38
	ldr	r0, [r3]
	.loc 2 2076 71 discriminator 1 view .LVU39
	ands	r0, r0, #33554432
	bne	.L4
.LBE250:
.LBE251:
	.loc 1 158 3 is_stmt 1 view .LVU40
	mov	r1, #4096
	.loc 1 167 3 is_stmt 0 view .LVU41
	movw	r2, #1851
	.loc 1 158 3 view .LVU42
	str	r1, [r3, #12]
	.loc 1 161 3 is_stmt 1 view .LVU43
	str	r0, [r3, #24]
	.loc 1 164 3 view .LVU44
.LVL2:
	.loc 1 167 3 view .LVU45
	str	r2, [r3, #32]
	.loc 1 170 3 view .LVU46
.LBB252:
.LBI252:
	.loc 2 2718 22 view .LVU47
.LBB253:
	.loc 2 2720 3 view .LVU48
	ldr	r2, [r3, #148]
	orr	r2, r2, #8388608
	str	r2, [r3, #148]
.LBE253:
.LBE252:
	.loc 1 172 3 view .LVU49
	.loc 1 173 1 is_stmt 0 view .LVU50
	bx	lr
.L11:
	.align	2
.L10:
	.word	1073876992
	.cfi_endproc
.LFE272:
	.size	LL_RCC_DeInit, .-LL_RCC_DeInit
	.section	.text.LL_RCC_GetSystemClocksFreq,"ax",%progbits
	.align	1
	.p2align 2,,3
	.global	LL_RCC_GetSystemClocksFreq
	.syntax unified
	.thumb
	.thumb_func
	.fpu fpv4-sp-d16
	.type	LL_RCC_GetSystemClocksFreq, %function
LL_RCC_GetSystemClocksFreq:
.LVL3:
.LFB273:
	.loc 1 209 1 is_stmt 1 view -0
	.cfi_startproc
	@ args = 0, pretend = 0, frame = 0
	@ frame_needed = 0, uses_anonymous_args = 0
	@ link register save eliminated.
	.loc 1 211 3 view .LVU52
.LBB280:
.LBI280:
	.loc 1 1006 17 view .LVU53
.LBB281:
	.loc 1 1008 3 view .LVU54
	.loc 1 1011 3 view .LVU55
.LBB282:
.LBI282:
	.loc 2 1353 26 view .LVU56
.LBB283:
	.loc 2 1355 3 view .LVU57
	.loc 2 1355 21 is_stmt 0 view .LVU58
	ldr	r2, .L19
	ldr	r3, [r2, #8]
	.loc 2 1355 10 view .LVU59
	and	r3, r3, #12
.LBE283:
.LBE282:
	.loc 1 1011 3 view .LVU60
	cmp	r3, #8
.LBE281:
.LBE280:
	.loc 1 209 1 view .LVU61
	push	{r4}
.LCFI0:
	.cfi_def_cfa_offset 4
	.cfi_offset 4, -4
.LBB300:
.LBB298:
	.loc 1 1011 3 view .LVU62
	beq	.L15
	cmp	r3, #12
	bne	.L16
	.loc 1 1022 7 is_stmt 1 view .LVU63
.LBB284:
.LBI284:
	.loc 1 1070 17 view .LVU64
.LBB285:
	.loc 1 1072 3 view .LVU65
	.loc 1 1077 3 view .LVU66
.LBB286:
.LBI286:
	.loc 2 2260 26 view .LVU67
.LBB287:
	.loc 2 2262 3 view .LVU68
	.loc 2 2262 21 is_stmt 0 view .LVU69
	ldr	r1, [r2, #12]
.LVL4:
	.loc 2 2262 21 view .LVU70
.LBE287:
.LBE286:
	.loc 1 1079 3 is_stmt 1 view .LVU71
	.loc 1 1086 20 is_stmt 0 view .LVU72
	ldr	r3, .L19+4
	ldr	r4, .L19+8
.LBB289:
.LBB288:
	.loc 2 2262 10 view .LVU73
	and	r1, r1, #3
.LVL5:
	.loc 2 2262 10 view .LVU74
.LBE288:
.LBE289:
	.loc 1 1086 20 view .LVU75
	cmp	r1, #3
	it	ne
	movne	r4, r3
.LVL6:
	.loc 1 1093 3 is_stmt 1 view .LVU76
.LBB290:
.LBI290:
	.loc 2 2270 26 view .LVU77
.LBB291:
	.loc 2 2272 3 view .LVU78
	.loc 2 2272 21 is_stmt 0 view .LVU79
	ldr	r3, [r2, #12]
.LBE291:
.LBE290:
.LBB293:
.LBI293:
	.loc 2 2368 26 is_stmt 1 view .LVU80
.LBB294:
	.loc 2 2370 3 view .LVU81
	.loc 2 2370 21 is_stmt 0 view .LVU82
	ldr	r1, [r2, #12]
.LVL7:
	.loc 2 2370 21 view .LVU83
.LBE294:
.LBE293:
.LBB295:
.LBI295:
	.loc 2 2342 26 is_stmt 1 view .LVU84
.LBB296:
	.loc 2 2344 3 view .LVU85
	.loc 2 2344 21 is_stmt 0 view .LVU86
	ldr	r2, [r2, #12]
.LBE296:
.LBE295:
	.loc 1 1093 10 view .LVU87
	ubfx	r2, r2, #25, #2
.LBB297:
.LBB292:
	.loc 2 2272 10 view .LVU88
	ubfx	r3, r3, #8, #7
.LBE292:
.LBE297:
	.loc 1 1093 10 view .LVU89
	ubfx	r1, r1, #4, #4
	adds	r2, r2, #1
	mul	r3, r4, r3
	adds	r1, r1, #1
	lsls	r2, r2, #1
	udiv	r3, r3, r1
	udiv	r3, r3, r2
.LVL8:
	.loc 1 1093 10 view .LVU90
.LBE285:
.LBE284:
	.loc 1 1023 7 is_stmt 1 view .LVU91
.L13:
	.loc 1 1030 3 view .LVU92
	.loc 1 1030 3 is_stmt 0 view .LVU93
.LBE298:
.LBE300:
.LBB301:
.LBB302:
.LBB303:
.LBB304:
	.loc 2 1426 21 view .LVU94
	ldr	r1, .L19
.LBE304:
.LBE303:
.LBE302:
.LBE301:
	.loc 1 211 32 view .LVU95
	str	r3, [r0]
	.loc 1 214 3 is_stmt 1 view .LVU96
.LVL9:
.LBB309:
.LBI301:
	.loc 1 1038 17 view .LVU97
.LBB307:
	.loc 1 1041 3 view .LVU98
.LBB306:
.LBI303:
	.loc 2 1424 26 view .LVU99
.LBB305:
	.loc 2 1426 3 view .LVU100
	.loc 2 1426 21 is_stmt 0 view .LVU101
	ldr	r2, [r1, #8]
.LBE305:
.LBE306:
	.loc 1 1041 10 view .LVU102
	ldr	r4, .L19+12
	ubfx	r2, r2, #4, #4
	ldrb	r2, [r4, r2]	@ zero_extendqisi2
.LBE307:
.LBE309:
.LBB310:
.LBB311:
	.loc 1 1052 10 view .LVU103
	ldr	r4, .L19+16
.LBE311:
.LBE310:
.LBB315:
.LBB308:
	.loc 1 1041 10 view .LVU104
	and	r2, r2, #31
	lsrs	r3, r3, r2
.LVL10:
	.loc 1 1041 10 view .LVU105
.LBE308:
.LBE315:
	.loc 1 214 32 view .LVU106
	str	r3, [r0, #4]
	.loc 1 217 3 is_stmt 1 view .LVU107
.LVL11:
.LBB316:
.LBI310:
	.loc 1 1049 17 view .LVU108
.LBB314:
	.loc 1 1052 3 view .LVU109
.LBB312:
.LBI312:
	.loc 2 1439 26 view .LVU110
.LBB313:
	.loc 2 1441 3 view .LVU111
	.loc 2 1441 21 is_stmt 0 view .LVU112
	ldr	r2, [r1, #8]
.LVL12:
	.loc 2 1441 21 view .LVU113
.LBE313:
.LBE312:
	.loc 1 1052 10 view .LVU114
	ubfx	r2, r2, #8, #3
	ldrb	r2, [r4, r2]	@ zero_extendqisi2
	and	r2, r2, #31
	lsr	r2, r3, r2
.LBE314:
.LBE316:
	.loc 1 217 32 view .LVU115
	str	r2, [r0, #8]
	.loc 1 220 3 is_stmt 1 view .LVU116
.LVL13:
.LBB317:
.LBI317:
	.loc 1 1060 17 view .LVU117
.LBB318:
	.loc 1 1063 3 view .LVU118
.LBB319:
.LBI319:
	.loc 2 1454 26 view .LVU119
.LBB320:
	.loc 2 1456 3 view .LVU120
	.loc 2 1456 21 is_stmt 0 view .LVU121
	ldr	r2, [r1, #8]
.LVL14:
	.loc 2 1456 21 view .LVU122
.LBE320:
.LBE319:
	.loc 1 1063 10 view .LVU123
	ubfx	r2, r2, #11, #3
	ldrb	r2, [r4, r2]	@ zero_extendqisi2
.LBE318:
.LBE317:
	.loc 1 221 1 view .LVU124
	ldr	r4, [sp], #4
.LCFI1:
	.cfi_remember_state
	.cfi_restore 4
	.cfi_def_cfa_offset 0
.LBB322:
.LBB321:
	.loc 1 1063 10 view .LVU125
	and	r2, r2, #31
	lsrs	r3, r3, r2
.LBE321:
.LBE322:
	.loc 1 220 32 view .LVU126
	str	r3, [r0, #12]
	.loc 1 221 1 view .LVU127
	bx	lr
.L16:
.LCFI2:
	.cfi_restore_state
.LBB323:
.LBB299:
	.loc 1 1014 17 view .LVU128
	ldr	r3, .L19+4
	b	.L13
.L15:
	.loc 1 1011 3 view .LVU129
	ldr	r3, .L19+8
	b	.L13
.L20:
	.align	2
.L19:
	.word	1073876992
	.word	16000000
	.word	8000000
	.word	AHBPrescTable
	.word	APBPrescTable
.LBE299:
.LBE323:
	.cfi_endproc
.LFE273:
	.size	LL_RCC_GetSystemClocksFreq, .-LL_RCC_GetSystemClocksFreq
	.section	.text.LL_RCC_GetUSARTClockFreq,"ax",%progbits
	.align	1
	.p2align 2,,3
	.global	LL_RCC_GetUSARTClockFreq
	.syntax unified
	.thumb
	.thumb_func
	.fpu fpv4-sp-d16
	.type	LL_RCC_GetUSARTClockFreq, %function
LL_RCC_GetUSARTClockFreq:
.LVL15:
.LFB274:
	.loc 1 234 1 is_stmt 1 view -0
	.cfi_startproc
	@ args = 0, pretend = 0, frame = 0
	@ frame_needed = 0, uses_anonymous_args = 0
	@ link register save eliminated.
	.loc 1 235 3 view .LVU131
	.loc 1 238 3 view .LVU132
	.loc 1 240 3 view .LVU133
	.loc 1 240 6 is_stmt 0 view .LVU134
	cmp	r0, #3
	.loc 1 234 1 view .LVU135
	push	{r4, r5}
.LCFI3:
	.cfi_def_cfa_offset 8
	.cfi_offset 4, -8
	.cfi_offset 5, -4
	.loc 1 240 6 view .LVU136
	beq	.L83
	.loc 1 269 8 is_stmt 1 view .LVU137
	.loc 1 269 11 is_stmt 0 view .LVU138
	cmp	r0, #12
	beq	.L84
	.loc 1 300 5 is_stmt 1 view .LVU139
	.loc 1 300 8 is_stmt 0 view .LVU140
	cmp	r0, #48
	beq	.L85
	.loc 1 235 12 view .LVU141
	movs	r0, #0
.LVL16:
.L21:
	.loc 1 331 1 view .LVU142
	pop	{r4, r5}
.LCFI4:
	.cfi_remember_state
	.cfi_restore 5
	.cfi_restore 4
	.cfi_def_cfa_offset 0
	bx	lr
.LVL17:
.L84:
.LCFI5:
	.cfi_restore_state
	.loc 1 272 5 is_stmt 1 view .LVU143
.LBB450:
.LBI450:
	.loc 2 1736 26 view .LVU144
.LBB451:
	.loc 2 1738 3 view .LVU145
	.loc 2 1738 21 is_stmt 0 view .LVU146
	ldr	r2, .L88
.LBE451:
.LBE450:
	.loc 1 272 5 view .LVU147
	ldr	r1, .L88+4
.LBB453:
.LBB452:
	.loc 2 1738 21 view .LVU148
	ldr	r3, [r2, #136]
	and	r3, r3, #12
	.loc 2 1738 10 view .LVU149
	orr	r3, r3, #786432
.LVL18:
	.loc 2 1738 10 view .LVU150
.LBE452:
.LBE453:
	.loc 1 272 5 view .LVU151
	cmp	r3, r1
	beq	.L37
	cmp	r3, #786444
	beq	.L38
	subs	r1, r1, #4
	cmp	r3, r1
.LBB454:
.LBB455:
.LBB456:
.LBB457:
	.loc 2 1355 21 view .LVU152
	ldr	r3, [r2, #8]
	.loc 2 1355 10 view .LVU153
	and	r3, r3, #12
.LBE457:
.LBE456:
.LBE455:
.LBE454:
	.loc 1 272 5 view .LVU154
	beq	.L81
	.loc 1 294 9 is_stmt 1 view .LVU155
.LBB482:
.LBI454:
	.loc 1 1006 17 view .LVU156
.LBB480:
	.loc 1 1008 3 view .LVU157
	.loc 1 1011 3 view .LVU158
.LBB459:
.LBI456:
	.loc 2 1353 26 view .LVU159
.LBB458:
	.loc 2 1355 3 view .LVU160
.LBE458:
.LBE459:
	.loc 1 1011 3 is_stmt 0 view .LVU161
	cmp	r3, #8
	beq	.L59
	cmp	r3, #12
	beq	.L86
.L60:
.LBE480:
.LBE482:
.LBB483:
.LBB484:
	.loc 1 1014 17 view .LVU162
	ldr	r3, .L88+8
.LVL19:
.L41:
	.loc 1 1030 3 is_stmt 1 view .LVU163
	.loc 1 1030 3 is_stmt 0 view .LVU164
.LBE484:
.LBE483:
.LBB512:
.LBI512:
	.loc 1 1038 17 is_stmt 1 view .LVU165
.LBB513:
	.loc 1 1041 3 view .LVU166
.LBB514:
.LBI514:
	.loc 2 1424 26 view .LVU167
.LBB515:
	.loc 2 1426 3 view .LVU168
	.loc 2 1426 21 is_stmt 0 view .LVU169
	ldr	r1, .L88
.LBE515:
.LBE514:
	.loc 1 1041 10 view .LVU170
	ldr	r0, .L88+12
.LBB517:
.LBB516:
	.loc 2 1426 21 view .LVU171
	ldr	r2, [r1, #8]
.LVL20:
	.loc 2 1426 21 view .LVU172
.LBE516:
.LBE517:
.LBE513:
.LBE512:
.LBB521:
.LBI521:
	.loc 1 1049 17 is_stmt 1 view .LVU173
.LBB522:
	.loc 1 1052 3 view .LVU174
.LBB523:
.LBI523:
	.loc 2 1439 26 view .LVU175
.LBB524:
	.loc 2 1441 3 view .LVU176
	.loc 2 1441 21 is_stmt 0 view .LVU177
	ldr	r1, [r1, #8]
.LBE524:
.LBE523:
.LBE522:
.LBE521:
.LBB528:
.LBB518:
	.loc 1 1041 10 view .LVU178
	ubfx	r2, r2, #4, #4
.LVL21:
	.loc 1 1041 10 view .LVU179
.LBE518:
.LBE528:
.LBB529:
.LBB525:
	.loc 1 1052 10 view .LVU180
	ubfx	r1, r1, #8, #3
.LBE525:
.LBE529:
.LBB530:
.LBB519:
	.loc 1 1041 10 view .LVU181
	ldrb	r2, [r0, r2]	@ zero_extendqisi2
.LBE519:
.LBE530:
.LBB531:
.LBB526:
	.loc 1 1052 10 view .LVU182
	ldr	r0, .L88+16
	ldrb	r0, [r0, r1]	@ zero_extendqisi2
.LBE526:
.LBE531:
.LBB532:
.LBB520:
	.loc 1 1041 10 view .LVU183
	and	r2, r2, #31
	lsrs	r3, r3, r2
	.loc 1 1041 10 view .LVU184
.LBE520:
.LBE532:
.LBB533:
.LBB527:
	.loc 1 1052 10 view .LVU185
	and	r0, r0, #31
	lsr	r0, r3, r0
.LVL22:
	.loc 1 1052 10 view .LVU186
.LBE527:
.LBE533:
	.loc 1 326 11 is_stmt 1 view .LVU187
	b	.L21
.LVL23:
.L83:
	.loc 1 243 5 view .LVU188
.LBB534:
.LBI534:
	.loc 2 1736 26 view .LVU189
.LBB535:
	.loc 2 1738 3 view .LVU190
	.loc 2 1738 21 is_stmt 0 view .LVU191
	ldr	r2, .L88
.LBE535:
.LBE534:
	.loc 1 243 5 view .LVU192
	ldr	r1, .L88+20
.LBB537:
.LBB536:
	.loc 2 1738 21 view .LVU193
	ldr	r3, [r2, #136]
	and	r3, r3, #3
	.loc 2 1738 10 view .LVU194
	orr	r3, r3, #196608
.LVL24:
	.loc 2 1738 10 view .LVU195
.LBE536:
.LBE537:
	.loc 1 243 5 view .LVU196
	cmp	r3, r1
	beq	.L37
	cmp	r3, #196611
	beq	.L38
	subs	r1, r1, #1
	cmp	r3, r1
.LBB538:
.LBB539:
.LBB540:
.LBB541:
	.loc 2 1355 21 view .LVU197
	ldr	r3, [r2, #8]
	.loc 2 1355 10 view .LVU198
	and	r3, r3, #12
.LBE541:
.LBE540:
.LBE539:
.LBE538:
	.loc 1 243 5 view .LVU199
	beq	.L81
	.loc 1 265 9 is_stmt 1 view .LVU200
.LBB566:
.LBI538:
	.loc 1 1006 17 view .LVU201
.LBB564:
	.loc 1 1008 3 view .LVU202
	.loc 1 1011 3 view .LVU203
.LBB543:
.LBI540:
	.loc 2 1353 26 view .LVU204
.LBB542:
	.loc 2 1355 3 view .LVU205
.LBE542:
.LBE543:
	.loc 1 1011 3 is_stmt 0 view .LVU206
	cmp	r3, #8
	beq	.L46
	cmp	r3, #12
	beq	.L87
	.loc 1 1014 17 view .LVU207
	ldr	r3, .L88+8
.LVL25:
.L28:
	.loc 1 1030 3 is_stmt 1 view .LVU208
	.loc 1 1030 3 is_stmt 0 view .LVU209
.LBE564:
.LBE566:
.LBB567:
.LBI567:
	.loc 1 1038 17 is_stmt 1 view .LVU210
.LBB568:
	.loc 1 1041 3 view .LVU211
.LBB569:
.LBI569:
	.loc 2 1424 26 view .LVU212
.LBB570:
	.loc 2 1426 3 view .LVU213
	.loc 2 1426 21 is_stmt 0 view .LVU214
	ldr	r2, .L88
.LBE570:
.LBE569:
	.loc 1 1041 10 view .LVU215
	ldr	r0, .L88+12
.LBB572:
.LBB571:
	.loc 2 1426 21 view .LVU216
	ldr	r1, [r2, #8]
.LVL26:
	.loc 2 1426 21 view .LVU217
.LBE571:
.LBE572:
.LBE568:
.LBE567:
.LBB576:
.LBI576:
	.loc 1 1060 17 is_stmt 1 view .LVU218
.LBB577:
	.loc 1 1063 3 view .LVU219
.LBB578:
.LBI578:
	.loc 2 1454 26 view .LVU220
.LBB579:
	.loc 2 1456 3 view .LVU221
	.loc 2 1456 21 is_stmt 0 view .LVU222
	ldr	r2, [r2, #8]
.LBE579:
.LBE578:
.LBE577:
.LBE576:
.LBB583:
.LBB573:
	.loc 1 1041 10 view .LVU223
	ubfx	r1, r1, #4, #4
.LVL27:
	.loc 1 1041 10 view .LVU224
.LBE573:
.LBE583:
.LBB584:
.LBB580:
	.loc 1 1063 10 view .LVU225
	ubfx	r2, r2, #11, #3
.LBE580:
.LBE584:
.LBB585:
.LBB574:
	.loc 1 1041 10 view .LVU226
	ldrb	r0, [r0, r1]	@ zero_extendqisi2
.LBE574:
.LBE585:
.LBB586:
.LBB581:
	.loc 1 1063 10 view .LVU227
	ldr	r1, .L88+16
	ldrb	r2, [r1, r2]	@ zero_extendqisi2
.LBE581:
.LBE586:
.LBB587:
.LBB575:
	.loc 1 1041 10 view .LVU228
	and	r0, r0, #31
	lsr	r0, r3, r0
.LBE575:
.LBE587:
.LBB588:
.LBB582:
	.loc 1 1063 10 view .LVU229
	and	r3, r2, #31
	.loc 1 1063 10 view .LVU230
	lsrs	r0, r0, r3
.LVL28:
	.loc 1 1063 10 view .LVU231
.LBE582:
.LBE588:
	.loc 1 266 9 is_stmt 1 view .LVU232
	b	.L21
.LVL29:
.L38:
	.loc 1 317 11 view .LVU233
.LBB589:
.LBI589:
	.loc 2 1217 26 view .LVU234
.LBB590:
	.loc 2 1219 3 view .LVU235
	.loc 2 1219 12 is_stmt 0 view .LVU236
	ldr	r0, [r2, #144]
.LVL30:
	.loc 2 1219 12 view .LVU237
.LBE590:
.LBE589:
	.loc 1 259 27 view .LVU238
	ands	r0, r0, #2
	it	ne
	movne	r0, #32768
	.loc 1 331 1 view .LVU239
	pop	{r4, r5}
.LCFI6:
	.cfi_remember_state
	.cfi_restore 5
	.cfi_restore 4
	.cfi_def_cfa_offset 0
	bx	lr
.LVL31:
.L81:
.LCFI7:
	.cfi_restore_state
	.loc 1 306 11 is_stmt 1 view .LVU240
.LBB591:
.LBI591:
	.loc 1 1006 17 view .LVU241
.LBB592:
	.loc 1 1008 3 view .LVU242
	.loc 1 1011 3 view .LVU243
.LBB593:
.LBI593:
	.loc 2 1353 26 view .LVU244
.LBB594:
	.loc 2 1355 3 view .LVU245
.LBE594:
.LBE593:
	.loc 1 1011 3 is_stmt 0 view .LVU246
	cmp	r3, #8
	beq	.L56
	cmp	r3, #12
	bne	.L57
	.loc 1 1022 7 is_stmt 1 view .LVU247
.LBB595:
.LBI595:
	.loc 1 1070 17 view .LVU248
.LBB596:
	.loc 1 1072 3 view .LVU249
	.loc 1 1077 3 view .LVU250
.LBB597:
.LBI597:
	.loc 2 2260 26 view .LVU251
.LBB598:
	.loc 2 2262 3 view .LVU252
	.loc 2 2262 21 is_stmt 0 view .LVU253
	ldr	r5, [r2, #12]
.LVL32:
	.loc 2 2262 21 view .LVU254
.LBE598:
.LBE597:
	.loc 1 1079 3 is_stmt 1 view .LVU255
.LBB600:
.LBB601:
	.loc 2 2272 21 is_stmt 0 view .LVU256
	ldr	r0, [r2, #12]
.LVL33:
	.loc 2 2272 21 view .LVU257
.LBE601:
.LBE600:
.LBB604:
.LBB605:
	.loc 2 2370 21 view .LVU258
	ldr	r1, [r2, #12]
.LBE605:
.LBE604:
.LBB607:
.LBB608:
	.loc 2 2344 21 view .LVU259
	ldr	r3, [r2, #12]
.LBE608:
.LBE607:
	.loc 1 1086 20 view .LVU260
	ldr	r4, .L88+8
	.loc 1 1093 10 view .LVU261
	ubfx	r2, r1, #4, #4
	.loc 1 1086 20 view .LVU262
	ldr	r1, .L88+24
.LBB610:
.LBB599:
	.loc 2 2262 10 view .LVU263
	and	r5, r5, #3
.LVL34:
	.loc 2 2262 10 view .LVU264
.LBE599:
.LBE610:
	.loc 1 1093 10 view .LVU265
	ubfx	r3, r3, #25, #2
.LBB611:
.LBB602:
	.loc 2 2272 10 view .LVU266
	ubfx	r0, r0, #8, #7
.LBE602:
.LBE611:
	.loc 1 1093 10 view .LVU267
	adds	r3, r3, #1
	.loc 1 1086 20 view .LVU268
	cmp	r5, #3
	it	ne
	movne	r1, r4
.LVL35:
	.loc 1 1093 3 is_stmt 1 view .LVU269
.LBB612:
.LBI600:
	.loc 2 2270 26 view .LVU270
.LBB603:
	.loc 2 2272 3 view .LVU271
.LBE603:
.LBE612:
.LBB613:
.LBI604:
	.loc 2 2368 26 view .LVU272
.LBB606:
	.loc 2 2370 3 view .LVU273
.LBE606:
.LBE613:
.LBB614:
.LBI607:
	.loc 2 2342 26 view .LVU274
.LBB609:
	.loc 2 2344 3 view .LVU275
.LBE609:
.LBE614:
	.loc 1 1093 10 is_stmt 0 view .LVU276
	adds	r2, r2, #1
	lsls	r3, r3, #1
	mul	r0, r1, r0
	udiv	r0, r0, r2
	udiv	r0, r0, r3
.LVL36:
	.loc 1 1093 10 view .LVU277
.LBE596:
.LBE595:
	.loc 1 1023 7 is_stmt 1 view .LVU278
	b	.L21
.LVL37:
.L37:
	.loc 1 1023 7 is_stmt 0 view .LVU279
.LBE592:
.LBE591:
	.loc 1 310 11 is_stmt 1 view .LVU280
.LBB616:
.LBI616:
	.loc 2 1023 26 view .LVU281
.LBB617:
	.loc 2 1025 3 view .LVU282
	.loc 2 1025 12 is_stmt 0 view .LVU283
	ldr	r0, [r2]
.LVL38:
	.loc 2 1025 12 view .LVU284
.LBE617:
.LBE616:
	.loc 1 281 27 view .LVU285
	ldr	r3, .L88+8
	ands	r0, r0, #1024
	it	ne
	movne	r0, r3
	.loc 1 331 1 view .LVU286
	pop	{r4, r5}
.LCFI8:
	.cfi_remember_state
	.cfi_restore 5
	.cfi_restore 4
	.cfi_def_cfa_offset 0
	bx	lr
.LVL39:
.L85:
.LCFI9:
	.cfi_restore_state
	.loc 1 303 7 is_stmt 1 view .LVU287
.LBB618:
.LBI618:
	.loc 2 1736 26 view .LVU288
.LBB619:
	.loc 2 1738 3 view .LVU289
	.loc 2 1738 21 is_stmt 0 view .LVU290
	ldr	r2, .L88
.LBE619:
.LBE618:
	.loc 1 303 7 view .LVU291
	ldr	r1, .L88+28
.LBB621:
.LBB620:
	.loc 2 1738 21 view .LVU292
	ldr	r3, [r2, #136]
	and	r3, r3, #48
	.loc 2 1738 10 view .LVU293
	orr	r3, r3, #3145728
.LVL40:
	.loc 2 1738 10 view .LVU294
.LBE620:
.LBE621:
	.loc 1 303 7 view .LVU295
	cmp	r3, r1
	beq	.L37
	cmp	r3, #3145776
	beq	.L38
	subs	r1, r1, #16
	cmp	r3, r1
.LBB622:
.LBB509:
.LBB485:
.LBB486:
	.loc 2 1355 21 view .LVU296
	ldr	r3, [r2, #8]
	.loc 2 1355 10 view .LVU297
	and	r3, r3, #12
.LBE486:
.LBE485:
.LBE509:
.LBE622:
	.loc 1 303 7 view .LVU298
	beq	.L81
	.loc 1 325 11 is_stmt 1 view .LVU299
.LBB623:
.LBI483:
	.loc 1 1006 17 view .LVU300
.LBB510:
	.loc 1 1008 3 view .LVU301
	.loc 1 1011 3 view .LVU302
.LBB488:
.LBI485:
	.loc 2 1353 26 view .LVU303
.LBB487:
	.loc 2 1355 3 view .LVU304
.LBE487:
.LBE488:
	.loc 1 1011 3 is_stmt 0 view .LVU305
	cmp	r3, #8
	beq	.L59
	cmp	r3, #12
	bne	.L60
	.loc 1 1022 7 is_stmt 1 view .LVU306
.LBB489:
.LBI489:
	.loc 1 1070 17 view .LVU307
.LBB490:
	.loc 1 1072 3 view .LVU308
	.loc 1 1077 3 view .LVU309
.LBB491:
.LBI491:
	.loc 2 2260 26 view .LVU310
.LBB492:
	.loc 2 2262 3 view .LVU311
	.loc 2 2262 21 is_stmt 0 view .LVU312
	ldr	r4, [r2, #12]
.LVL41:
	.loc 2 2262 21 view .LVU313
.LBE492:
.LBE491:
	.loc 1 1079 3 is_stmt 1 view .LVU314
.LBB494:
.LBB495:
	.loc 2 2272 21 is_stmt 0 view .LVU315
	ldr	r3, [r2, #12]
.LBE495:
.LBE494:
.LBB498:
.LBB499:
	.loc 2 2370 21 view .LVU316
	ldr	r1, [r2, #12]
.LBE499:
.LBE498:
.LBB501:
.LBB502:
	.loc 2 2344 21 view .LVU317
	ldr	r2, [r2, #12]
.LBE502:
.LBE501:
	.loc 1 1086 20 view .LVU318
	ldr	r0, .L88+8
.LVL42:
	.loc 1 1086 20 view .LVU319
	ldr	r5, .L88+24
.LBB504:
.LBB493:
	.loc 2 2262 10 view .LVU320
	and	r4, r4, #3
.LVL43:
	.loc 2 2262 10 view .LVU321
.LBE493:
.LBE504:
	.loc 1 1093 10 view .LVU322
	ubfx	r2, r2, #25, #2
.LBB505:
.LBB496:
	.loc 2 2272 10 view .LVU323
	ubfx	r3, r3, #8, #7
.LBE496:
.LBE505:
	.loc 1 1093 10 view .LVU324
	ubfx	r1, r1, #4, #4
	adds	r2, r2, #1
	.loc 1 1086 20 view .LVU325
	cmp	r4, #3
	it	eq
	moveq	r0, r5
.LVL44:
	.loc 1 1093 3 is_stmt 1 view .LVU326
.LBB506:
.LBI494:
	.loc 2 2270 26 view .LVU327
.LBB497:
	.loc 2 2272 3 view .LVU328
.LBE497:
.LBE506:
.LBB507:
.LBI498:
	.loc 2 2368 26 view .LVU329
.LBB500:
	.loc 2 2370 3 view .LVU330
.LBE500:
.LBE507:
.LBB508:
.LBI501:
	.loc 2 2342 26 view .LVU331
.LBB503:
	.loc 2 2344 3 view .LVU332
.LBE503:
.LBE508:
	.loc 1 1093 10 is_stmt 0 view .LVU333
	adds	r1, r1, #1
	lsls	r2, r2, #1
	mul	r3, r0, r3
	udiv	r3, r3, r1
	udiv	r3, r3, r2
.LVL45:
	.loc 1 1093 10 view .LVU334
.LBE490:
.LBE489:
	.loc 1 1023 7 is_stmt 1 view .LVU335
	b	.L41
.LVL46:
.L57:
	.loc 1 1023 7 is_stmt 0 view .LVU336
.LBE510:
.LBE623:
.LBB624:
.LBB615:
	.loc 1 1011 3 view .LVU337
	ldr	r0, .L88+8
.LVL47:
	.loc 1 1011 3 view .LVU338
.LBE615:
.LBE624:
	.loc 1 330 3 is_stmt 1 view .LVU339
	.loc 1 330 10 is_stmt 0 view .LVU340
	b	.L21
.LVL48:
.L56:
.LBB625:
.LBB626:
	.loc 1 1018 17 view .LVU341
	ldr	r0, .L88+24
.LVL49:
	.loc 1 1018 17 view .LVU342
	b	.L21
.LVL50:
.L87:
	.loc 1 1018 17 view .LVU343
.LBE626:
.LBE625:
.LBB627:
.LBB565:
	.loc 1 1022 7 is_stmt 1 view .LVU344
.LBB544:
.LBI544:
	.loc 1 1070 17 view .LVU345
.LBB545:
	.loc 1 1072 3 view .LVU346
	.loc 1 1077 3 view .LVU347
.LBB546:
.LBI546:
	.loc 2 2260 26 view .LVU348
.LBB547:
	.loc 2 2262 3 view .LVU349
	.loc 2 2262 21 is_stmt 0 view .LVU350
	ldr	r5, [r2, #12]
.LVL51:
	.loc 2 2262 21 view .LVU351
.LBE547:
.LBE546:
	.loc 1 1079 3 is_stmt 1 view .LVU352
.LBB549:
.LBB550:
	.loc 2 2272 21 is_stmt 0 view .LVU353
	ldr	r3, [r2, #12]
.LBE550:
.LBE549:
.LBB553:
.LBB554:
	.loc 2 2370 21 view .LVU354
	ldr	r1, [r2, #12]
.LBE554:
.LBE553:
.LBB556:
.LBB557:
	.loc 2 2344 21 view .LVU355
	ldr	r0, [r2, #12]
.LVL52:
	.loc 2 2344 21 view .LVU356
.LBE557:
.LBE556:
	.loc 1 1086 20 view .LVU357
	ldr	r4, .L88+8
	.loc 1 1093 10 view .LVU358
	ubfx	r2, r1, #4, #4
	.loc 1 1086 20 view .LVU359
	ldr	r1, .L88+24
.LBB559:
.LBB548:
	.loc 2 2262 10 view .LVU360
	and	ip, r5, #3
.LVL53:
	.loc 2 2262 10 view .LVU361
.LBE548:
.LBE559:
	.loc 1 1093 10 view .LVU362
	ubfx	r0, r0, #25, #2
.LBB560:
.LBB551:
	.loc 2 2272 10 view .LVU363
	ubfx	r3, r3, #8, #7
.LBE551:
.LBE560:
	.loc 1 1093 10 view .LVU364
	adds	r0, r0, #1
	.loc 1 1086 20 view .LVU365
	cmp	ip, #3
	it	ne
	movne	r1, r4
.LVL54:
	.loc 1 1093 3 is_stmt 1 view .LVU366
.LBB561:
.LBI549:
	.loc 2 2270 26 view .LVU367
.LBB552:
	.loc 2 2272 3 view .LVU368
.LBE552:
.LBE561:
.LBB562:
.LBI553:
	.loc 2 2368 26 view .LVU369
.LBB555:
	.loc 2 2370 3 view .LVU370
.LBE555:
.LBE562:
.LBB563:
.LBI556:
	.loc 2 2342 26 view .LVU371
.LBB558:
	.loc 2 2344 3 view .LVU372
.LBE558:
.LBE563:
	.loc 1 1093 10 is_stmt 0 view .LVU373
	adds	r2, r2, #1
	lsls	r0, r0, #1
	mul	r3, r1, r3
	udiv	r3, r3, r2
	udiv	r3, r3, r0
.LVL55:
	.loc 1 1093 10 view .LVU374
.LBE545:
.LBE544:
	.loc 1 1023 7 is_stmt 1 view .LVU375
	b	.L28
.LVL56:
.L46:
	.loc 1 1011 3 is_stmt 0 view .LVU376
	ldr	r3, .L88+24
	b	.L28
.L86:
.LBE565:
.LBE627:
.LBB628:
.LBB481:
	.loc 1 1022 7 is_stmt 1 view .LVU377
.LBB460:
.LBI460:
	.loc 1 1070 17 view .LVU378
.LBB461:
	.loc 1 1072 3 view .LVU379
	.loc 1 1077 3 view .LVU380
.LBB462:
.LBI462:
	.loc 2 2260 26 view .LVU381
.LBB463:
	.loc 2 2262 3 view .LVU382
	.loc 2 2262 21 is_stmt 0 view .LVU383
	ldr	r5, [r2, #12]
.LVL57:
	.loc 2 2262 21 view .LVU384
.LBE463:
.LBE462:
	.loc 1 1079 3 is_stmt 1 view .LVU385
.LBB465:
.LBB466:
	.loc 2 2272 21 is_stmt 0 view .LVU386
	ldr	r3, [r2, #12]
.LBE466:
.LBE465:
.LBB469:
.LBB470:
	.loc 2 2370 21 view .LVU387
	ldr	r1, [r2, #12]
.LBE470:
.LBE469:
.LBB472:
.LBB473:
	.loc 2 2344 21 view .LVU388
	ldr	r0, [r2, #12]
.LVL58:
	.loc 2 2344 21 view .LVU389
.LBE473:
.LBE472:
	.loc 1 1086 20 view .LVU390
	ldr	r4, .L88+8
	.loc 1 1093 10 view .LVU391
	ubfx	r2, r1, #4, #4
	.loc 1 1086 20 view .LVU392
	ldr	r1, .L88+24
.LBB475:
.LBB464:
	.loc 2 2262 10 view .LVU393
	and	r5, r5, #3
.LVL59:
	.loc 2 2262 10 view .LVU394
.LBE464:
.LBE475:
	.loc 1 1093 10 view .LVU395
	ubfx	r0, r0, #25, #2
.LBB476:
.LBB467:
	.loc 2 2272 10 view .LVU396
	ubfx	r3, r3, #8, #7
.LBE467:
.LBE476:
	.loc 1 1093 10 view .LVU397
	adds	r0, r0, #1
	.loc 1 1086 20 view .LVU398
	cmp	r5, #3
	it	ne
	movne	r1, r4
.LVL60:
	.loc 1 1093 3 is_stmt 1 view .LVU399
.LBB477:
.LBI465:
	.loc 2 2270 26 view .LVU400
.LBB468:
	.loc 2 2272 3 view .LVU401
.LBE468:
.LBE477:
.LBB478:
.LBI469:
	.loc 2 2368 26 view .LVU402
.LBB471:
	.loc 2 2370 3 view .LVU403
.LBE471:
.LBE478:
.LBB479:
.LBI472:
	.loc 2 2342 26 view .LVU404
.LBB474:
	.loc 2 2344 3 view .LVU405
.LBE474:
.LBE479:
	.loc 1 1093 10 is_stmt 0 view .LVU406
	adds	r2, r2, #1
	lsls	r0, r0, #1
	mul	r3, r1, r3
	udiv	r3, r3, r2
	udiv	r3, r3, r0
.LVL61:
	.loc 1 1093 10 view .LVU407
.LBE461:
.LBE460:
	.loc 1 1023 7 is_stmt 1 view .LVU408
	b	.L41
.LVL62:
.L59:
	.loc 1 1023 7 is_stmt 0 view .LVU409
.LBE481:
.LBE628:
.LBB629:
.LBB511:
	.loc 1 1011 3 view .LVU410
	ldr	r3, .L88+24
	b	.L41
.L89:
	.align	2
.L88:
	.word	1073876992
	.word	786440
	.word	16000000
	.word	AHBPrescTable
	.word	APBPrescTable
	.word	196610
	.word	8000000
	.word	3145760
.LBE511:
.LBE629:
	.cfi_endproc
.LFE274:
	.size	LL_RCC_GetUSARTClockFreq, .-LL_RCC_GetUSARTClockFreq
	.section	.text.LL_RCC_GetUARTClockFreq,"ax",%progbits
	.align	1
	.p2align 2,,3
	.global	LL_RCC_GetUARTClockFreq
	.syntax unified
	.thumb
	.thumb_func
	.fpu fpv4-sp-d16
	.type	LL_RCC_GetUARTClockFreq, %function
LL_RCC_GetUARTClockFreq:
.LVL63:
.LFB275:
	.loc 1 345 1 is_stmt 1 view -0
	.cfi_startproc
	@ args = 0, pretend = 0, frame = 0
	@ frame_needed = 0, uses_anonymous_args = 0
	@ link register save eliminated.
	.loc 1 346 3 view .LVU412
	.loc 1 349 3 view .LVU413
	.loc 1 351 3 view .LVU414
	.loc 1 351 6 is_stmt 0 view .LVU415
	cmp	r0, #192
	beq	.L113
	.loc 1 346 12 view .LVU416
	movs	r0, #0
.LVL64:
	.loc 1 414 1 view .LVU417
	bx	lr
.LVL65:
.L113:
	.loc 1 354 5 is_stmt 1 view .LVU418
.LBB672:
.LBI672:
	.loc 2 1760 26 view .LVU419
.LBB673:
	.loc 2 1762 3 view .LVU420
	.loc 2 1762 21 is_stmt 0 view .LVU421
	ldr	r2, .L117
.LBE673:
.LBE672:
	.loc 1 354 5 view .LVU422
	ldr	r1, .L117+4
.LBB675:
.LBB674:
	.loc 2 1762 21 view .LVU423
	ldr	r3, [r2, #136]
	and	r3, r3, #192
	.loc 2 1762 10 view .LVU424
	orr	r3, r3, #12582912
.LVL66:
	.loc 2 1762 10 view .LVU425
.LBE674:
.LBE675:
	.loc 1 354 5 view .LVU426
	cmp	r3, r1
	beq	.L92
	cmp	r3, #12583104
	beq	.L93
	subs	r1, r1, #64
	cmp	r3, r1
.LBB676:
.LBB677:
.LBB678:
.LBB679:
	.loc 2 1355 21 view .LVU427
	ldr	r3, [r2, #8]
.LBE679:
.LBE678:
.LBE677:
.LBE676:
	.loc 1 345 1 view .LVU428
	push	{r4, r5}
.LCFI10:
	.cfi_def_cfa_offset 8
	.cfi_offset 4, -8
	.cfi_offset 5, -4
.LBB707:
.LBB704:
.LBB682:
.LBB680:
	.loc 2 1355 10 view .LVU429
	and	r3, r3, #12
.LBE680:
.LBE682:
.LBE704:
.LBE707:
	.loc 1 354 5 view .LVU430
	beq	.L114
	.loc 1 376 9 is_stmt 1 view .LVU431
.LBB708:
.LBI676:
	.loc 1 1006 17 view .LVU432
.LBB705:
	.loc 1 1008 3 view .LVU433
	.loc 1 1011 3 view .LVU434
.LBB683:
.LBI678:
	.loc 2 1353 26 view .LVU435
.LBB681:
	.loc 2 1355 3 view .LVU436
.LBE681:
.LBE683:
	.loc 1 1011 3 is_stmt 0 view .LVU437
	cmp	r3, #8
	beq	.L102
	cmp	r3, #12
	beq	.L115
	.loc 1 1014 17 view .LVU438
	ldr	r3, .L117+8
.LVL67:
.L96:
	.loc 1 1030 3 is_stmt 1 view .LVU439
	.loc 1 1030 3 is_stmt 0 view .LVU440
.LBE705:
.LBE708:
.LBB709:
.LBI709:
	.loc 1 1038 17 is_stmt 1 view .LVU441
.LBB710:
	.loc 1 1041 3 view .LVU442
.LBB711:
.LBI711:
	.loc 2 1424 26 view .LVU443
.LBB712:
	.loc 2 1426 3 view .LVU444
	.loc 2 1426 21 is_stmt 0 view .LVU445
	ldr	r2, .L117
.LBE712:
.LBE711:
	.loc 1 1041 10 view .LVU446
	ldr	r0, .L117+12
.LBB714:
.LBB713:
	.loc 2 1426 21 view .LVU447
	ldr	r1, [r2, #8]
.LVL68:
	.loc 2 1426 21 view .LVU448
.LBE713:
.LBE714:
.LBE710:
.LBE709:
.LBB718:
.LBI718:
	.loc 1 1049 17 is_stmt 1 view .LVU449
.LBB719:
	.loc 1 1052 3 view .LVU450
.LBB720:
.LBI720:
	.loc 2 1439 26 view .LVU451
.LBB721:
	.loc 2 1441 3 view .LVU452
	.loc 2 1441 21 is_stmt 0 view .LVU453
	ldr	r2, [r2, #8]
.LBE721:
.LBE720:
.LBE719:
.LBE718:
.LBB725:
.LBB715:
	.loc 1 1041 10 view .LVU454
	ubfx	r1, r1, #4, #4
.LVL69:
	.loc 1 1041 10 view .LVU455
.LBE715:
.LBE725:
.LBB726:
.LBB722:
	.loc 1 1052 10 view .LVU456
	ubfx	r2, r2, #8, #3
.LBE722:
.LBE726:
.LBB727:
.LBB716:
	.loc 1 1041 10 view .LVU457
	ldrb	r0, [r0, r1]	@ zero_extendqisi2
.LBE716:
.LBE727:
.LBB728:
.LBB723:
	.loc 1 1052 10 view .LVU458
	ldr	r1, .L117+16
	ldrb	r2, [r1, r2]	@ zero_extendqisi2
.LBE723:
.LBE728:
.LBB729:
.LBB717:
	.loc 1 1041 10 view .LVU459
	and	r0, r0, #31
	lsr	r0, r3, r0
.LBE717:
.LBE729:
.LBB730:
.LBB724:
	.loc 1 1052 10 view .LVU460
	and	r3, r2, #31
	.loc 1 1052 10 view .LVU461
	lsrs	r0, r0, r3
.LVL70:
	.loc 1 1052 10 view .LVU462
.LBE724:
.LBE730:
	.loc 1 377 9 is_stmt 1 view .LVU463
	b	.L90
.LVL71:
.L92:
.LCFI11:
	.cfi_def_cfa_offset 0
	.cfi_restore 4
	.cfi_restore 5
	.loc 1 361 9 view .LVU464
.LBB731:
.LBI731:
	.loc 2 1023 26 view .LVU465
.LBB732:
	.loc 2 1025 3 view .LVU466
	.loc 2 1025 12 is_stmt 0 view .LVU467
	ldr	r0, [r2]
.LVL72:
	.loc 2 1025 12 view .LVU468
.LBE732:
.LBE731:
	.loc 1 363 26 view .LVU469
	ldr	r3, .L117+8
	ands	r0, r0, #1024
	it	ne
	movne	r0, r3
.LBB734:
.LBB733:
	bx	lr
.LVL73:
.L114:
.LCFI12:
	.cfi_def_cfa_offset 8
	.cfi_offset 4, -8
	.cfi_offset 5, -4
	.loc 1 363 26 view .LVU470
.LBE733:
.LBE734:
	.loc 1 357 9 is_stmt 1 view .LVU471
.LBB735:
.LBI735:
	.loc 1 1006 17 view .LVU472
.LBB736:
	.loc 1 1008 3 view .LVU473
	.loc 1 1011 3 view .LVU474
.LBB737:
.LBI737:
	.loc 2 1353 26 view .LVU475
.LBB738:
	.loc 2 1355 3 view .LVU476
.LBE738:
.LBE737:
	.loc 1 1011 3 is_stmt 0 view .LVU477
	cmp	r3, #8
	beq	.L99
	cmp	r3, #12
	beq	.L116
	.loc 1 1014 17 view .LVU478
	ldr	r0, .L117+8
.LVL74:
	.loc 1 1014 17 view .LVU479
.LBE736:
.LBE735:
	.loc 1 413 3 is_stmt 1 view .LVU480
.L90:
	.loc 1 414 1 is_stmt 0 view .LVU481
	pop	{r4, r5}
.LCFI13:
	.cfi_restore 5
	.cfi_restore 4
	.cfi_def_cfa_offset 0
	bx	lr
.LVL75:
.L93:
	.loc 1 368 9 is_stmt 1 view .LVU482
.LBB761:
.LBI761:
	.loc 2 1217 26 view .LVU483
.LBB762:
	.loc 2 1219 3 view .LVU484
	.loc 2 1219 12 is_stmt 0 view .LVU485
	ldr	r0, [r2, #144]
.LVL76:
	.loc 2 1219 12 view .LVU486
.LBE762:
.LBE761:
	.loc 1 370 26 view .LVU487
	ands	r0, r0, #2
	it	ne
	movne	r0, #32768
.LBB764:
.LBB763:
	bx	lr
.LVL77:
.L116:
.LCFI14:
	.cfi_def_cfa_offset 8
	.cfi_offset 4, -8
	.cfi_offset 5, -4
	.loc 1 370 26 view .LVU488
.LBE763:
.LBE764:
.LBB765:
.LBB759:
	.loc 1 1022 7 is_stmt 1 view .LVU489
.LBB739:
.LBI739:
	.loc 1 1070 17 view .LVU490
.LBB740:
	.loc 1 1072 3 view .LVU491
	.loc 1 1077 3 view .LVU492
.LBB741:
.LBI741:
	.loc 2 2260 26 view .LVU493
.LBB742:
	.loc 2 2262 3 view .LVU494
	.loc 2 2262 21 is_stmt 0 view .LVU495
	ldr	r5, [r2, #12]
.LVL78:
	.loc 2 2262 21 view .LVU496
.LBE742:
.LBE741:
	.loc 1 1079 3 is_stmt 1 view .LVU497
.LBB744:
.LBB745:
	.loc 2 2272 21 is_stmt 0 view .LVU498
	ldr	r0, [r2, #12]
.LVL79:
	.loc 2 2272 21 view .LVU499
.LBE745:
.LBE744:
.LBB748:
.LBB749:
	.loc 2 2370 21 view .LVU500
	ldr	r1, [r2, #12]
.LBE749:
.LBE748:
.LBB751:
.LBB752:
	.loc 2 2344 21 view .LVU501
	ldr	r3, [r2, #12]
.LBE752:
.LBE751:
	.loc 1 1086 20 view .LVU502
	ldr	r4, .L117+8
	.loc 1 1093 10 view .LVU503
	ubfx	r2, r1, #4, #4
	.loc 1 1086 20 view .LVU504
	ldr	r1, .L117+20
.LBB754:
.LBB743:
	.loc 2 2262 10 view .LVU505
	and	r5, r5, #3
.LVL80:
	.loc 2 2262 10 view .LVU506
.LBE743:
.LBE754:
	.loc 1 1093 10 view .LVU507
	ubfx	r3, r3, #25, #2
.LBB755:
.LBB746:
	.loc 2 2272 10 view .LVU508
	ubfx	r0, r0, #8, #7
.LBE746:
.LBE755:
	.loc 1 1093 10 view .LVU509
	adds	r3, r3, #1
	.loc 1 1086 20 view .LVU510
	cmp	r5, #3
	it	ne
	movne	r1, r4
.LVL81:
	.loc 1 1093 3 is_stmt 1 view .LVU511
.LBB756:
.LBI744:
	.loc 2 2270 26 view .LVU512
.LBB747:
	.loc 2 2272 3 view .LVU513
.LBE747:
.LBE756:
.LBB757:
.LBI748:
	.loc 2 2368 26 view .LVU514
.LBB750:
	.loc 2 2370 3 view .LVU515
.LBE750:
.LBE757:
.LBB758:
.LBI751:
	.loc 2 2342 26 view .LVU516
.LBB753:
	.loc 2 2344 3 view .LVU517
.LBE753:
.LBE758:
	.loc 1 1093 10 is_stmt 0 view .LVU518
	adds	r2, r2, #1
	lsls	r3, r3, #1
	mul	r0, r1, r0
	udiv	r0, r0, r2
	udiv	r0, r0, r3
.LVL82:
	.loc 1 1093 10 view .LVU519
.LBE740:
.LBE739:
	.loc 1 1023 7 is_stmt 1 view .LVU520
	b	.L90
.LVL83:
.L115:
	.loc 1 1023 7 is_stmt 0 view .LVU521
.LBE759:
.LBE765:
.LBB766:
.LBB706:
	.loc 1 1022 7 is_stmt 1 view .LVU522
.LBB684:
.LBI684:
	.loc 1 1070 17 view .LVU523
.LBB685:
	.loc 1 1072 3 view .LVU524
	.loc 1 1077 3 view .LVU525
.LBB686:
.LBI686:
	.loc 2 2260 26 view .LVU526
.LBB687:
	.loc 2 2262 3 view .LVU527
	.loc 2 2262 21 is_stmt 0 view .LVU528
	ldr	r5, [r2, #12]
.LVL84:
	.loc 2 2262 21 view .LVU529
.LBE687:
.LBE686:
	.loc 1 1079 3 is_stmt 1 view .LVU530
.LBB689:
.LBB690:
	.loc 2 2272 21 is_stmt 0 view .LVU531
	ldr	r3, [r2, #12]
.LBE690:
.LBE689:
.LBB693:
.LBB694:
	.loc 2 2370 21 view .LVU532
	ldr	r1, [r2, #12]
.LBE694:
.LBE693:
.LBB696:
.LBB697:
	.loc 2 2344 21 view .LVU533
	ldr	r0, [r2, #12]
.LVL85:
	.loc 2 2344 21 view .LVU534
.LBE697:
.LBE696:
	.loc 1 1086 20 view .LVU535
	ldr	r4, .L117+8
	.loc 1 1093 10 view .LVU536
	ubfx	r2, r1, #4, #4
	.loc 1 1086 20 view .LVU537
	ldr	r1, .L117+20
.LBB699:
.LBB688:
	.loc 2 2262 10 view .LVU538
	and	ip, r5, #3
.LVL86:
	.loc 2 2262 10 view .LVU539
.LBE688:
.LBE699:
	.loc 1 1093 10 view .LVU540
	ubfx	r0, r0, #25, #2
.LBB700:
.LBB691:
	.loc 2 2272 10 view .LVU541
	ubfx	r3, r3, #8, #7
.LBE691:
.LBE700:
	.loc 1 1093 10 view .LVU542
	adds	r0, r0, #1
	.loc 1 1086 20 view .LVU543
	cmp	ip, #3
	it	ne
	movne	r1, r4
.LVL87:
	.loc 1 1093 3 is_stmt 1 view .LVU544
.LBB701:
.LBI689:
	.loc 2 2270 26 view .LVU545
.LBB692:
	.loc 2 2272 3 view .LVU546
.LBE692:
.LBE701:
.LBB702:
.LBI693:
	.loc 2 2368 26 view .LVU547
.LBB695:
	.loc 2 2370 3 view .LVU548
.LBE695:
.LBE702:
.LBB703:
.LBI696:
	.loc 2 2342 26 view .LVU549
.LBB698:
	.loc 2 2344 3 view .LVU550
.LBE698:
.LBE703:
	.loc 1 1093 10 is_stmt 0 view .LVU551
	adds	r2, r2, #1
	lsls	r0, r0, #1
	mul	r3, r1, r3
	udiv	r3, r3, r2
	udiv	r3, r3, r0
.LVL88:
	.loc 1 1093 10 view .LVU552
.LBE685:
.LBE684:
	.loc 1 1023 7 is_stmt 1 view .LVU553
	b	.L96
.LVL89:
.L102:
	.loc 1 1011 3 is_stmt 0 view .LVU554
	ldr	r3, .L117+20
	b	.L96
.L99:
.LBE706:
.LBE766:
.LBB767:
.LBB760:
	ldr	r0, .L117+20
.LVL90:
	.loc 1 1011 3 view .LVU555
	b	.L90
.L118:
	.align	2
.L117:
	.word	1073876992
	.word	12583040
	.word	16000000
	.word	AHBPrescTable
	.word	APBPrescTable
	.word	8000000
.LBE760:
.LBE767:
	.cfi_endproc
.LFE275:
	.size	LL_RCC_GetUARTClockFreq, .-LL_RCC_GetUARTClockFreq
	.section	.text.LL_RCC_GetI2CClockFreq,"ax",%progbits
	.align	1
	.p2align 2,,3
	.global	LL_RCC_GetI2CClockFreq
	.syntax unified
	.thumb
	.thumb_func
	.fpu fpv4-sp-d16
	.type	LL_RCC_GetI2CClockFreq, %function
LL_RCC_GetI2CClockFreq:
.LVL91:
.LFB276:
	.loc 1 430 1 is_stmt 1 view -0
	.cfi_startproc
	@ args = 0, pretend = 0, frame = 0
	@ frame_needed = 0, uses_anonymous_args = 0
	@ link register save eliminated.
	.loc 1 431 3 view .LVU557
	.loc 1 434 3 view .LVU558
	.loc 1 436 3 view .LVU559
	.loc 1 436 6 is_stmt 0 view .LVU560
	ldr	r3, .L182
	cmp	r0, r3
	.loc 1 430 1 view .LVU561
	push	{r4, r5}
.LCFI15:
	.cfi_def_cfa_offset 8
	.cfi_offset 4, -8
	.cfi_offset 5, -4
	.loc 1 436 6 view .LVU562
	beq	.L176
	.loc 1 458 8 is_stmt 1 view .LVU563
	.loc 1 458 11 is_stmt 0 view .LVU564
	ldr	r3, .L182+4
	cmp	r0, r3
	beq	.L177
	.loc 1 482 5 is_stmt 1 view .LVU565
	.loc 1 482 8 is_stmt 0 view .LVU566
	ldr	r3, .L182+8
	cmp	r0, r3
	beq	.L178
	.loc 1 431 12 view .LVU567
	movs	r0, #0
.LVL92:
.L119:
	.loc 1 534 1 view .LVU568
	pop	{r4, r5}
.LCFI16:
	.cfi_remember_state
	.cfi_restore 5
	.cfi_restore 4
	.cfi_def_cfa_offset 0
	bx	lr
.LVL93:
.L177:
.LCFI17:
	.cfi_restore_state
	.loc 1 461 5 is_stmt 1 view .LVU569
.LBB888:
.LBI888:
	.loc 2 1808 26 view .LVU570
.LBB889:
	.loc 2 1810 3 view .LVU571
	.loc 2 1811 3 view .LVU572
	.loc 2 1811 22 is_stmt 0 view .LVU573
	ldr	r2, .L182+12
.LBE889:
.LBE888:
	.loc 1 461 5 view .LVU574
	ldr	r1, .L182+16
.LBB891:
.LBB890:
	.loc 2 1811 22 view .LVU575
	ldr	r3, [r2, #136]
	.loc 2 1811 75 view .LVU576
	ubfx	r3, r3, #14, #2
	.loc 2 1811 10 view .LVU577
	orr	r3, r3, #917504
.LVL94:
	.loc 2 1811 10 view .LVU578
.LBE890:
.LBE891:
	.loc 1 461 5 view .LVU579
	cmp	r3, r1
	beq	.L135
	adds	r1, r1, #1
	cmp	r3, r1
	beq	.L136
	.loc 1 476 9 is_stmt 1 view .LVU580
.LBB892:
.LBI892:
	.loc 1 1006 17 view .LVU581
.LBB893:
	.loc 1 1008 3 view .LVU582
	.loc 1 1011 3 view .LVU583
.LBB894:
.LBI894:
	.loc 2 1353 26 view .LVU584
.LBB895:
	.loc 2 1355 3 view .LVU585
	.loc 2 1355 21 is_stmt 0 view .LVU586
	ldr	r3, [r2, #8]
	.loc 2 1355 10 view .LVU587
	and	r3, r3, #12
.LBE895:
.LBE894:
	.loc 1 1011 3 view .LVU588
	cmp	r3, #8
	beq	.L150
	cmp	r3, #12
	beq	.L179
.L151:
	.loc 1 1014 17 view .LVU589
	ldr	r3, .L182+20
.LVL95:
.L133:
	.loc 1 1030 3 is_stmt 1 view .LVU590
	.loc 1 1030 3 is_stmt 0 view .LVU591
.LBE893:
.LBE892:
.LBB918:
.LBI918:
	.loc 1 1038 17 is_stmt 1 view .LVU592
.LBB919:
	.loc 1 1041 3 view .LVU593
.LBB920:
.LBI920:
	.loc 2 1424 26 view .LVU594
.LBB921:
	.loc 2 1426 3 view .LVU595
	.loc 2 1426 21 is_stmt 0 view .LVU596
	ldr	r2, .L182+12
.LBE921:
.LBE920:
	.loc 1 1041 10 view .LVU597
	ldr	r0, .L182+24
.LBB923:
.LBB922:
	.loc 2 1426 21 view .LVU598
	ldr	r1, [r2, #8]
.LVL96:
	.loc 2 1426 21 view .LVU599
.LBE922:
.LBE923:
.LBE919:
.LBE918:
.LBB927:
.LBI927:
	.loc 1 1049 17 is_stmt 1 view .LVU600
.LBB928:
	.loc 1 1052 3 view .LVU601
.LBB929:
.LBI929:
	.loc 2 1439 26 view .LVU602
.LBB930:
	.loc 2 1441 3 view .LVU603
	.loc 2 1441 21 is_stmt 0 view .LVU604
	ldr	r2, [r2, #8]
.LBE930:
.LBE929:
.LBE928:
.LBE927:
.LBB934:
.LBB924:
	.loc 1 1041 10 view .LVU605
	ubfx	r1, r1, #4, #4
.LVL97:
	.loc 1 1041 10 view .LVU606
.LBE924:
.LBE934:
.LBB935:
.LBB931:
	.loc 1 1052 10 view .LVU607
	ubfx	r2, r2, #8, #3
.LBE931:
.LBE935:
.LBB936:
.LBB925:
	.loc 1 1041 10 view .LVU608
	ldrb	r0, [r0, r1]	@ zero_extendqisi2
.LBE925:
.LBE936:
.LBB937:
.LBB932:
	.loc 1 1052 10 view .LVU609
	ldr	r1, .L182+28
	ldrb	r2, [r1, r2]	@ zero_extendqisi2
.LBE932:
.LBE937:
.LBB938:
.LBB926:
	.loc 1 1041 10 view .LVU610
	and	r0, r0, #31
	lsr	r0, r3, r0
.LBE926:
.LBE938:
.LBB939:
.LBB933:
	.loc 1 1052 10 view .LVU611
	and	r3, r2, #31
	.loc 1 1052 10 view .LVU612
	lsrs	r0, r0, r3
.LVL98:
	.loc 1 1052 10 view .LVU613
.LBE933:
.LBE939:
	.loc 1 477 9 is_stmt 1 view .LVU614
	.loc 1 534 1 is_stmt 0 view .LVU615
	pop	{r4, r5}
.LCFI18:
	.cfi_remember_state
	.cfi_restore 5
	.cfi_restore 4
	.cfi_def_cfa_offset 0
	bx	lr
.LVL99:
.L176:
.LCFI19:
	.cfi_restore_state
	.loc 1 439 5 is_stmt 1 view .LVU616
.LBB940:
.LBI940:
	.loc 2 1808 26 view .LVU617
.LBB941:
	.loc 2 1810 3 view .LVU618
	.loc 2 1811 3 view .LVU619
	.loc 2 1811 22 is_stmt 0 view .LVU620
	ldr	r2, .L182+12
.LBE941:
.LBE940:
	.loc 1 439 5 view .LVU621
	ldr	r1, .L182+32
.LBB943:
.LBB942:
	.loc 2 1811 22 view .LVU622
	ldr	r3, [r2, #136]
	.loc 2 1811 75 view .LVU623
	ubfx	r3, r3, #12, #2
	.loc 2 1811 10 view .LVU624
	orr	r3, r3, #786432
.LVL100:
	.loc 2 1811 10 view .LVU625
.LBE942:
.LBE943:
	.loc 1 439 5 view .LVU626
	cmp	r3, r1
	beq	.L135
	adds	r1, r1, #1
	cmp	r3, r1
	bne	.L180
.L136:
	.loc 1 492 11 is_stmt 1 view .LVU627
.LBB944:
.LBI944:
	.loc 2 1023 26 view .LVU628
.LBB945:
	.loc 2 1025 3 view .LVU629
	.loc 2 1025 12 is_stmt 0 view .LVU630
	ldr	r0, [r2]
.LVL101:
	.loc 2 1025 12 view .LVU631
.LBE945:
.LBE944:
	.loc 1 470 25 view .LVU632
	ldr	r3, .L182+20
	ands	r0, r0, #1024
	it	ne
	movne	r0, r3
	.loc 1 534 1 view .LVU633
	pop	{r4, r5}
.LCFI20:
	.cfi_remember_state
	.cfi_restore 5
	.cfi_restore 4
	.cfi_def_cfa_offset 0
	bx	lr
.LVL102:
.L135:
.LCFI21:
	.cfi_restore_state
	.loc 1 488 11 is_stmt 1 view .LVU634
.LBB946:
.LBI946:
	.loc 1 1006 17 view .LVU635
.LBB947:
	.loc 1 1008 3 view .LVU636
	.loc 1 1011 3 view .LVU637
.LBB948:
.LBI948:
	.loc 2 1353 26 view .LVU638
.LBB949:
	.loc 2 1355 3 view .LVU639
	.loc 2 1355 21 is_stmt 0 view .LVU640
	ldr	r3, [r2, #8]
	.loc 2 1355 10 view .LVU641
	and	r3, r3, #12
.LBE949:
.LBE948:
	.loc 1 1011 3 view .LVU642
	cmp	r3, #8
	beq	.L154
	cmp	r3, #12
	beq	.L181
	ldr	r0, .L182+20
.LVL103:
	.loc 1 1011 3 view .LVU643
.LBE947:
.LBE946:
	.loc 1 533 3 is_stmt 1 view .LVU644
	.loc 1 534 1 is_stmt 0 view .LVU645
	pop	{r4, r5}
.LCFI22:
	.cfi_remember_state
	.cfi_restore 5
	.cfi_restore 4
	.cfi_def_cfa_offset 0
	bx	lr
.LVL104:
.L180:
.LCFI23:
	.cfi_restore_state
	.loc 1 454 9 is_stmt 1 view .LVU646
.LBB971:
.LBI971:
	.loc 1 1006 17 view .LVU647
.LBB972:
	.loc 1 1008 3 view .LVU648
	.loc 1 1011 3 view .LVU649
.LBB973:
.LBI973:
	.loc 2 1353 26 view .LVU650
.LBB974:
	.loc 2 1355 3 view .LVU651
	.loc 2 1355 21 is_stmt 0 view .LVU652
	ldr	r3, [r2, #8]
	.loc 2 1355 10 view .LVU653
	and	r3, r3, #12
.LBE974:
.LBE973:
	.loc 1 1011 3 view .LVU654
	cmp	r3, #8
	beq	.L150
	cmp	r3, #12
	bne	.L151
	.loc 1 1022 7 is_stmt 1 view .LVU655
.LBB975:
.LBI975:
	.loc 1 1070 17 view .LVU656
.LBB976:
	.loc 1 1072 3 view .LVU657
	.loc 1 1077 3 view .LVU658
.LBB977:
.LBI977:
	.loc 2 2260 26 view .LVU659
.LBB978:
	.loc 2 2262 3 view .LVU660
	.loc 2 2262 21 is_stmt 0 view .LVU661
	ldr	r5, [r2, #12]
.LVL105:
	.loc 2 2262 21 view .LVU662
.LBE978:
.LBE977:
	.loc 1 1079 3 is_stmt 1 view .LVU663
.LBB980:
.LBB981:
	.loc 2 2272 21 is_stmt 0 view .LVU664
	ldr	r3, [r2, #12]
.LBE981:
.LBE980:
.LBB984:
.LBB985:
	.loc 2 2370 21 view .LVU665
	ldr	r1, [r2, #12]
.LBE985:
.LBE984:
.LBB987:
.LBB988:
	.loc 2 2344 21 view .LVU666
	ldr	r0, [r2, #12]
.LVL106:
	.loc 2 2344 21 view .LVU667
.LBE988:
.LBE987:
	.loc 1 1086 20 view .LVU668
	ldr	r4, .L182+20
	.loc 1 1093 10 view .LVU669
	ubfx	r2, r1, #4, #4
	.loc 1 1086 20 view .LVU670
	ldr	r1, .L182+36
.LBB990:
.LBB979:
	.loc 2 2262 10 view .LVU671
	and	ip, r5, #3
.LVL107:
	.loc 2 2262 10 view .LVU672
.LBE979:
.LBE990:
	.loc 1 1093 10 view .LVU673
	ubfx	r0, r0, #25, #2
.LBB991:
.LBB982:
	.loc 2 2272 10 view .LVU674
	ubfx	r3, r3, #8, #7
.LBE982:
.LBE991:
	.loc 1 1093 10 view .LVU675
	adds	r0, r0, #1
	.loc 1 1086 20 view .LVU676
	cmp	ip, #3
	it	ne
	movne	r1, r4
.LVL108:
	.loc 1 1093 3 is_stmt 1 view .LVU677
.LBB992:
.LBI980:
	.loc 2 2270 26 view .LVU678
.LBB983:
	.loc 2 2272 3 view .LVU679
.LBE983:
.LBE992:
.LBB993:
.LBI984:
	.loc 2 2368 26 view .LVU680
.LBB986:
	.loc 2 2370 3 view .LVU681
.LBE986:
.LBE993:
.LBB994:
.LBI987:
	.loc 2 2342 26 view .LVU682
.LBB989:
	.loc 2 2344 3 view .LVU683
.LBE989:
.LBE994:
	.loc 1 1093 10 is_stmt 0 view .LVU684
	adds	r2, r2, #1
	lsls	r0, r0, #1
	mul	r3, r1, r3
	udiv	r3, r3, r2
	udiv	r3, r3, r0
.LVL109:
	.loc 1 1093 10 view .LVU685
.LBE976:
.LBE975:
	.loc 1 1023 7 is_stmt 1 view .LVU686
	b	.L133
.LVL110:
.L181:
	.loc 1 1023 7 is_stmt 0 view .LVU687
.LBE972:
.LBE971:
.LBB995:
.LBB970:
	.loc 1 1022 7 is_stmt 1 view .LVU688
.LBB950:
.LBI950:
	.loc 1 1070 17 view .LVU689
.LBB951:
	.loc 1 1072 3 view .LVU690
	.loc 1 1077 3 view .LVU691
.LBB952:
.LBI952:
	.loc 2 2260 26 view .LVU692
.LBB953:
	.loc 2 2262 3 view .LVU693
	.loc 2 2262 21 is_stmt 0 view .LVU694
	ldr	r5, [r2, #12]
.LVL111:
	.loc 2 2262 21 view .LVU695
.LBE953:
.LBE952:
	.loc 1 1079 3 is_stmt 1 view .LVU696
.LBB955:
.LBB956:
	.loc 2 2272 21 is_stmt 0 view .LVU697
	ldr	r0, [r2, #12]
.LVL112:
	.loc 2 2272 21 view .LVU698
.LBE956:
.LBE955:
.LBB959:
.LBB960:
	.loc 2 2370 21 view .LVU699
	ldr	r1, [r2, #12]
.LBE960:
.LBE959:
.LBB962:
.LBB963:
	.loc 2 2344 21 view .LVU700
	ldr	r3, [r2, #12]
.LBE963:
.LBE962:
	.loc 1 1086 20 view .LVU701
	ldr	r4, .L182+20
	.loc 1 1093 10 view .LVU702
	ubfx	r2, r1, #4, #4
	.loc 1 1086 20 view .LVU703
	ldr	r1, .L182+36
.LBB965:
.LBB954:
	.loc 2 2262 10 view .LVU704
	and	r5, r5, #3
.LVL113:
	.loc 2 2262 10 view .LVU705
.LBE954:
.LBE965:
	.loc 1 1093 10 view .LVU706
	ubfx	r3, r3, #25, #2
.LBB966:
.LBB957:
	.loc 2 2272 10 view .LVU707
	ubfx	r0, r0, #8, #7
.LBE957:
.LBE966:
	.loc 1 1093 10 view .LVU708
	adds	r3, r3, #1
	.loc 1 1086 20 view .LVU709
	cmp	r5, #3
	it	ne
	movne	r1, r4
.LVL114:
	.loc 1 1093 3 is_stmt 1 view .LVU710
.LBB967:
.LBI955:
	.loc 2 2270 26 view .LVU711
.LBB958:
	.loc 2 2272 3 view .LVU712
.LBE958:
.LBE967:
.LBB968:
.LBI959:
	.loc 2 2368 26 view .LVU713
.LBB961:
	.loc 2 2370 3 view .LVU714
.LBE961:
.LBE968:
.LBB969:
.LBI962:
	.loc 2 2342 26 view .LVU715
.LBB964:
	.loc 2 2344 3 view .LVU716
.LBE964:
.LBE969:
	.loc 1 1093 10 is_stmt 0 view .LVU717
	adds	r2, r2, #1
	lsls	r3, r3, #1
	mul	r0, r1, r0
	udiv	r0, r0, r2
	udiv	r0, r0, r3
.LVL115:
	.loc 1 1093 10 view .LVU718
.LBE951:
.LBE950:
	.loc 1 1023 7 is_stmt 1 view .LVU719
	b	.L119
.LVL116:
.L154:
	.loc 1 1023 7 is_stmt 0 view .LVU720
.LBE970:
.LBE995:
.LBB996:
.LBB997:
	.loc 1 1018 17 view .LVU721
	ldr	r0, .L182+36
.LVL117:
	.loc 1 1018 17 view .LVU722
	b	.L119
.LVL118:
.L150:
	.loc 1 1018 17 view .LVU723
.LBE997:
.LBE996:
.LBB998:
.LBB916:
	.loc 1 1011 3 view .LVU724
	ldr	r3, .L182+36
	b	.L133
.L178:
.LBE916:
.LBE998:
	.loc 1 485 7 is_stmt 1 view .LVU725
.LVL119:
.LBB999:
.LBI999:
	.loc 2 1808 26 view .LVU726
.LBB1000:
	.loc 2 1810 3 view .LVU727
	.loc 2 1811 3 view .LVU728
	.loc 2 1811 22 is_stmt 0 view .LVU729
	ldr	r2, .L182+12
.LBE1000:
.LBE999:
	.loc 1 485 7 view .LVU730
	ldr	r1, .L182+40
.LBB1002:
.LBB1001:
	.loc 2 1811 22 view .LVU731
	ldr	r3, [r2, #136]
	.loc 2 1811 75 view .LVU732
	ubfx	r3, r3, #16, #2
	.loc 2 1811 10 view .LVU733
	orr	r3, r3, #1048576
.LVL120:
	.loc 2 1811 10 view .LVU734
.LBE1001:
.LBE1002:
	.loc 1 485 7 view .LVU735
	cmp	r3, r1
	beq	.L135
	adds	r1, r1, #1
	cmp	r3, r1
	beq	.L136
	.loc 1 500 11 is_stmt 1 view .LVU736
.LBB1003:
.LBI1003:
	.loc 1 1006 17 view .LVU737
.LBB1004:
	.loc 1 1008 3 view .LVU738
	.loc 1 1011 3 view .LVU739
.LBB1005:
.LBI1005:
	.loc 2 1353 26 view .LVU740
.LBB1006:
	.loc 2 1355 3 view .LVU741
	.loc 2 1355 21 is_stmt 0 view .LVU742
	ldr	r3, [r2, #8]
	.loc 2 1355 10 view .LVU743
	and	r3, r3, #12
.LBE1006:
.LBE1005:
	.loc 1 1011 3 view .LVU744
	cmp	r3, #8
	beq	.L157
	cmp	r3, #12
	bne	.L158
	.loc 1 1022 7 is_stmt 1 view .LVU745
.LBB1007:
.LBI1007:
	.loc 1 1070 17 view .LVU746
.LBB1008:
	.loc 1 1072 3 view .LVU747
	.loc 1 1077 3 view .LVU748
.LBB1009:
.LBI1009:
	.loc 2 2260 26 view .LVU749
.LBB1010:
	.loc 2 2262 3 view .LVU750
	.loc 2 2262 21 is_stmt 0 view .LVU751
	ldr	r5, [r2, #12]
.LVL121:
	.loc 2 2262 21 view .LVU752
.LBE1010:
.LBE1009:
	.loc 1 1079 3 is_stmt 1 view .LVU753
.LBB1012:
.LBB1013:
	.loc 2 2272 21 is_stmt 0 view .LVU754
	ldr	r3, [r2, #12]
.LBE1013:
.LBE1012:
.LBB1016:
.LBB1017:
	.loc 2 2370 21 view .LVU755
	ldr	r1, [r2, #12]
.LBE1017:
.LBE1016:
.LBB1019:
.LBB1020:
	.loc 2 2344 21 view .LVU756
	ldr	r0, [r2, #12]
.LVL122:
	.loc 2 2344 21 view .LVU757
.LBE1020:
.LBE1019:
	.loc 1 1086 20 view .LVU758
	ldr	r4, .L182+20
	.loc 1 1093 10 view .LVU759
	ubfx	r2, r1, #4, #4
	.loc 1 1086 20 view .LVU760
	ldr	r1, .L182+36
.LBB1022:
.LBB1011:
	.loc 2 2262 10 view .LVU761
	and	r5, r5, #3
.LVL123:
	.loc 2 2262 10 view .LVU762
.LBE1011:
.LBE1022:
	.loc 1 1093 10 view .LVU763
	ubfx	r0, r0, #25, #2
.LBB1023:
.LBB1014:
	.loc 2 2272 10 view .LVU764
	ubfx	r3, r3, #8, #7
.LBE1014:
.LBE1023:
	.loc 1 1093 10 view .LVU765
	adds	r0, r0, #1
	.loc 1 1086 20 view .LVU766
	cmp	r5, #3
	it	ne
	movne	r1, r4
.LVL124:
	.loc 1 1093 3 is_stmt 1 view .LVU767
.LBB1024:
.LBI1012:
	.loc 2 2270 26 view .LVU768
.LBB1015:
	.loc 2 2272 3 view .LVU769
.LBE1015:
.LBE1024:
.LBB1025:
.LBI1016:
	.loc 2 2368 26 view .LVU770
.LBB1018:
	.loc 2 2370 3 view .LVU771
.LBE1018:
.LBE1025:
.LBB1026:
.LBI1019:
	.loc 2 2342 26 view .LVU772
.LBB1021:
	.loc 2 2344 3 view .LVU773
.LBE1021:
.LBE1026:
	.loc 1 1093 10 is_stmt 0 view .LVU774
	adds	r2, r2, #1
	lsls	r0, r0, #1
	mul	r3, r1, r3
	udiv	r3, r3, r2
	udiv	r3, r3, r0
.LVL125:
	.loc 1 1093 10 view .LVU775
.LBE1008:
.LBE1007:
	.loc 1 1023 7 is_stmt 1 view .LVU776
.L139:
	.loc 1 1030 3 view .LVU777
	.loc 1 1030 3 is_stmt 0 view .LVU778
.LBE1004:
.LBE1003:
.LBB1028:
.LBI1028:
	.loc 1 1038 17 is_stmt 1 view .LVU779
.LBB1029:
	.loc 1 1041 3 view .LVU780
.LBB1030:
.LBI1030:
	.loc 2 1424 26 view .LVU781
.LBB1031:
	.loc 2 1426 3 view .LVU782
	.loc 2 1426 21 is_stmt 0 view .LVU783
	ldr	r1, .L182+12
.LBE1031:
.LBE1030:
	.loc 1 1041 10 view .LVU784
	ldr	r0, .L182+24
.LBB1033:
.LBB1032:
	.loc 2 1426 21 view .LVU785
	ldr	r2, [r1, #8]
.LVL126:
	.loc 2 1426 21 view .LVU786
.LBE1032:
.LBE1033:
.LBE1029:
.LBE1028:
.LBB1037:
.LBI1037:
	.loc 1 1049 17 is_stmt 1 view .LVU787
.LBB1038:
	.loc 1 1052 3 view .LVU788
.LBB1039:
.LBI1039:
	.loc 2 1439 26 view .LVU789
.LBB1040:
	.loc 2 1441 3 view .LVU790
	.loc 2 1441 21 is_stmt 0 view .LVU791
	ldr	r1, [r1, #8]
.LBE1040:
.LBE1039:
.LBE1038:
.LBE1037:
.LBB1044:
.LBB1034:
	.loc 1 1041 10 view .LVU792
	ubfx	r2, r2, #4, #4
.LVL127:
	.loc 1 1041 10 view .LVU793
.LBE1034:
.LBE1044:
.LBB1045:
.LBB1041:
	.loc 1 1052 10 view .LVU794
	ubfx	r1, r1, #8, #3
.LBE1041:
.LBE1045:
.LBB1046:
.LBB1035:
	.loc 1 1041 10 view .LVU795
	ldrb	r2, [r0, r2]	@ zero_extendqisi2
.LBE1035:
.LBE1046:
.LBB1047:
.LBB1042:
	.loc 1 1052 10 view .LVU796
	ldr	r0, .L182+28
	ldrb	r0, [r0, r1]	@ zero_extendqisi2
.LBE1042:
.LBE1047:
.LBB1048:
.LBB1036:
	.loc 1 1041 10 view .LVU797
	and	r2, r2, #31
	lsrs	r3, r3, r2
	.loc 1 1041 10 view .LVU798
.LBE1036:
.LBE1048:
.LBB1049:
.LBB1043:
	.loc 1 1052 10 view .LVU799
	and	r0, r0, #31
	lsr	r0, r3, r0
.LVL128:
	.loc 1 1052 10 view .LVU800
.LBE1043:
.LBE1049:
	.loc 1 501 11 is_stmt 1 view .LVU801
	b	.L119
.LVL129:
.L179:
.LBB1050:
.LBB917:
	.loc 1 1022 7 view .LVU802
.LBB896:
.LBI896:
	.loc 1 1070 17 view .LVU803
.LBB897:
	.loc 1 1072 3 view .LVU804
	.loc 1 1077 3 view .LVU805
.LBB898:
.LBI898:
	.loc 2 2260 26 view .LVU806
.LBB899:
	.loc 2 2262 3 view .LVU807
	.loc 2 2262 21 is_stmt 0 view .LVU808
	ldr	r5, [r2, #12]
.LVL130:
	.loc 2 2262 21 view .LVU809
.LBE899:
.LBE898:
	.loc 1 1079 3 is_stmt 1 view .LVU810
.LBB901:
.LBB902:
	.loc 2 2272 21 is_stmt 0 view .LVU811
	ldr	r3, [r2, #12]
.LBE902:
.LBE901:
.LBB905:
.LBB906:
	.loc 2 2370 21 view .LVU812
	ldr	r1, [r2, #12]
.LBE906:
.LBE905:
.LBB908:
.LBB909:
	.loc 2 2344 21 view .LVU813
	ldr	r0, [r2, #12]
.LVL131:
	.loc 2 2344 21 view .LVU814
.LBE909:
.LBE908:
	.loc 1 1086 20 view .LVU815
	ldr	r4, .L182+20
	.loc 1 1093 10 view .LVU816
	ubfx	r2, r1, #4, #4
	.loc 1 1086 20 view .LVU817
	ldr	r1, .L182+36
.LBB911:
.LBB900:
	.loc 2 2262 10 view .LVU818
	and	r5, r5, #3
.LVL132:
	.loc 2 2262 10 view .LVU819
.LBE900:
.LBE911:
	.loc 1 1093 10 view .LVU820
	ubfx	r0, r0, #25, #2
.LBB912:
.LBB903:
	.loc 2 2272 10 view .LVU821
	ubfx	r3, r3, #8, #7
.LBE903:
.LBE912:
	.loc 1 1093 10 view .LVU822
	adds	r0, r0, #1
	.loc 1 1086 20 view .LVU823
	cmp	r5, #3
	it	ne
	movne	r1, r4
.LVL133:
	.loc 1 1093 3 is_stmt 1 view .LVU824
.LBB913:
.LBI901:
	.loc 2 2270 26 view .LVU825
.LBB904:
	.loc 2 2272 3 view .LVU826
.LBE904:
.LBE913:
.LBB914:
.LBI905:
	.loc 2 2368 26 view .LVU827
.LBB907:
	.loc 2 2370 3 view .LVU828
.LBE907:
.LBE914:
.LBB915:
.LBI908:
	.loc 2 2342 26 view .LVU829
.LBB910:
	.loc 2 2344 3 view .LVU830
.LBE910:
.LBE915:
	.loc 1 1093 10 is_stmt 0 view .LVU831
	adds	r2, r2, #1
	lsls	r0, r0, #1
	mul	r3, r1, r3
	udiv	r3, r3, r2
	udiv	r3, r3, r0
.LVL134:
	.loc 1 1093 10 view .LVU832
.LBE897:
.LBE896:
	.loc 1 1023 7 is_stmt 1 view .LVU833
	b	.L133
.LVL135:
.L157:
	.loc 1 1023 7 is_stmt 0 view .LVU834
.LBE917:
.LBE1050:
.LBB1051:
.LBB1027:
	.loc 1 1011 3 view .LVU835
	ldr	r3, .L182+36
	b	.L139
.L158:
	.loc 1 1014 17 view .LVU836
	ldr	r3, .L182+20
	b	.L139
.L183:
	.align	2
.L182:
	.word	786435
	.word	917507
	.word	1048579
	.word	1073876992
	.word	917505
	.word	16000000
	.word	AHBPrescTable
	.word	APBPrescTable
	.word	786433
	.word	8000000
	.word	1048577
.LBE1027:
.LBE1051:
	.cfi_endproc
.LFE276:
	.size	LL_RCC_GetI2CClockFreq, .-LL_RCC_GetI2CClockFreq
	.section	.text.LL_RCC_GetLPUARTClockFreq,"ax",%progbits
	.align	1
	.p2align 2,,3
	.global	LL_RCC_GetLPUARTClockFreq
	.syntax unified
	.thumb
	.thumb_func
	.fpu fpv4-sp-d16
	.type	LL_RCC_GetLPUARTClockFreq, %function
LL_RCC_GetLPUARTClockFreq:
.LVL136:
.LFB277:
	.loc 1 545 1 is_stmt 1 view -0
	.cfi_startproc
	@ args = 0, pretend = 0, frame = 0
	@ frame_needed = 0, uses_anonymous_args = 0
	@ link register save eliminated.
	.loc 1 546 3 view .LVU838
	.loc 1 549 3 view .LVU839
	.loc 1 552 3 view .LVU840
.LBB1094:
.LBB1095:
	.loc 2 1779 21 is_stmt 0 view .LVU841
	ldr	r2, .L209
.LVL137:
	.loc 2 1779 21 view .LVU842
.LBE1095:
.LBI1094:
	.loc 2 1777 26 is_stmt 1 view .LVU843
.LBB1096:
	.loc 2 1779 3 view .LVU844
	.loc 2 1779 21 is_stmt 0 view .LVU845
	ldr	r3, [r2, #136]
	.loc 2 1779 10 view .LVU846
	ands	r0, r0, r3
.LVL138:
	.loc 2 1779 10 view .LVU847
.LBE1096:
.LBE1094:
	.loc 1 552 3 view .LVU848
	cmp	r0, #2048
	beq	.L185
	cmp	r0, #3072
	beq	.L186
.LBB1097:
.LBB1098:
.LBB1099:
.LBB1100:
	.loc 2 1355 21 view .LVU849
	ldr	r3, [r2, #8]
.LBE1100:
.LBE1099:
.LBE1098:
.LBE1097:
	.loc 1 552 3 view .LVU850
	cmp	r0, #1024
	.loc 1 545 1 view .LVU851
	push	{r4, r5}
.LCFI24:
	.cfi_def_cfa_offset 8
	.cfi_offset 4, -8
	.cfi_offset 5, -4
.LBB1129:
.LBB1125:
.LBB1103:
.LBB1101:
	.loc 2 1355 10 view .LVU852
	and	r3, r3, #12
.LBE1101:
.LBE1103:
.LBE1125:
.LBE1129:
	.loc 1 552 3 view .LVU853
	beq	.L206
	.loc 1 574 7 is_stmt 1 view .LVU854
.LBB1130:
.LBI1097:
	.loc 1 1006 17 view .LVU855
.LBB1126:
	.loc 1 1008 3 view .LVU856
	.loc 1 1011 3 view .LVU857
.LBB1104:
.LBI1099:
	.loc 2 1353 26 view .LVU858
.LBB1102:
	.loc 2 1355 3 view .LVU859
.LBE1102:
.LBE1104:
	.loc 1 1011 3 is_stmt 0 view .LVU860
	cmp	r3, #8
	beq	.L195
	cmp	r3, #12
	beq	.L207
	.loc 1 1014 17 view .LVU861
	ldr	r3, .L209+4
.L190:
.LVL139:
	.loc 1 1030 3 is_stmt 1 view .LVU862
	.loc 1 1030 3 is_stmt 0 view .LVU863
.LBE1126:
.LBE1130:
.LBB1131:
.LBI1131:
	.loc 1 1038 17 is_stmt 1 view .LVU864
.LBB1132:
	.loc 1 1041 3 view .LVU865
.LBB1133:
.LBI1133:
	.loc 2 1424 26 view .LVU866
.LBB1134:
	.loc 2 1426 3 view .LVU867
	.loc 2 1426 21 is_stmt 0 view .LVU868
	ldr	r2, .L209
.LBE1134:
.LBE1133:
	.loc 1 1041 10 view .LVU869
	ldr	r0, .L209+8
.LBB1136:
.LBB1135:
	.loc 2 1426 21 view .LVU870
	ldr	r1, [r2, #8]
.LVL140:
	.loc 2 1426 21 view .LVU871
.LBE1135:
.LBE1136:
.LBE1132:
.LBE1131:
.LBB1140:
.LBI1140:
	.loc 1 1049 17 is_stmt 1 view .LVU872
.LBB1141:
	.loc 1 1052 3 view .LVU873
.LBB1142:
.LBI1142:
	.loc 2 1439 26 view .LVU874
.LBB1143:
	.loc 2 1441 3 view .LVU875
	.loc 2 1441 21 is_stmt 0 view .LVU876
	ldr	r2, [r2, #8]
.LBE1143:
.LBE1142:
.LBE1141:
.LBE1140:
.LBB1147:
.LBB1137:
	.loc 1 1041 10 view .LVU877
	ubfx	r1, r1, #4, #4
.LVL141:
	.loc 1 1041 10 view .LVU878
.LBE1137:
.LBE1147:
.LBB1148:
.LBB1144:
	.loc 1 1052 10 view .LVU879
	ubfx	r2, r2, #8, #3
.LBE1144:
.LBE1148:
.LBB1149:
.LBB1138:
	.loc 1 1041 10 view .LVU880
	ldrb	r0, [r0, r1]	@ zero_extendqisi2
.LBE1138:
.LBE1149:
.LBB1150:
.LBB1145:
	.loc 1 1052 10 view .LVU881
	ldr	r1, .L209+12
	ldrb	r2, [r1, r2]	@ zero_extendqisi2
.LBE1145:
.LBE1150:
.LBB1151:
.LBB1139:
	.loc 1 1041 10 view .LVU882
	and	r0, r0, #31
	lsr	r0, r3, r0
.LBE1139:
.LBE1151:
.LBB1152:
.LBB1146:
	.loc 1 1052 10 view .LVU883
	and	r3, r2, #31
	.loc 1 1052 10 view .LVU884
	lsrs	r0, r0, r3
.LVL142:
	.loc 1 1052 10 view .LVU885
.LBE1146:
.LBE1152:
	.loc 1 575 7 is_stmt 1 view .LVU886
	.loc 1 579 1 is_stmt 0 view .LVU887
	pop	{r4, r5}
.LCFI25:
	.cfi_restore 5
	.cfi_restore 4
	.cfi_def_cfa_offset 0
	bx	lr
.LVL143:
.L185:
	.loc 1 559 7 is_stmt 1 view .LVU888
.LBB1153:
.LBI1153:
	.loc 2 1023 26 view .LVU889
.LBB1154:
	.loc 2 1025 3 view .LVU890
	.loc 2 1025 12 is_stmt 0 view .LVU891
	ldr	r0, [r2]
.LBE1154:
.LBE1153:
	.loc 1 561 26 view .LVU892
	ldr	r3, .L209+4
	ands	r0, r0, #1024
	it	ne
	movne	r0, r3
.LBB1156:
.LBB1155:
	bx	lr
.L206:
.LCFI26:
	.cfi_def_cfa_offset 8
	.cfi_offset 4, -8
	.cfi_offset 5, -4
.LBE1155:
.LBE1156:
	.loc 1 555 7 is_stmt 1 view .LVU893
.LBB1157:
.LBI1157:
	.loc 1 1006 17 view .LVU894
.LBB1158:
	.loc 1 1008 3 view .LVU895
	.loc 1 1011 3 view .LVU896
.LBB1159:
.LBI1159:
	.loc 2 1353 26 view .LVU897
.LBB1160:
	.loc 2 1355 3 view .LVU898
.LBE1160:
.LBE1159:
	.loc 1 1011 3 is_stmt 0 view .LVU899
	cmp	r3, #8
	beq	.L192
	cmp	r3, #12
	beq	.L208
	.loc 1 1014 17 view .LVU900
	ldr	r0, .L209+4
.LVL144:
	.loc 1 1014 17 view .LVU901
.LBE1158:
.LBE1157:
	.loc 1 578 3 is_stmt 1 view .LVU902
.L184:
	.loc 1 579 1 is_stmt 0 view .LVU903
	pop	{r4, r5}
.LCFI27:
	.cfi_restore 5
	.cfi_restore 4
	.cfi_def_cfa_offset 0
	bx	lr
.LVL145:
.L186:
	.loc 1 566 7 is_stmt 1 view .LVU904
.LBB1183:
.LBI1183:
	.loc 2 1217 26 view .LVU905
.LBB1184:
	.loc 2 1219 3 view .LVU906
	.loc 2 1219 12 is_stmt 0 view .LVU907
	ldr	r0, [r2, #144]
.LBE1184:
.LBE1183:
	.loc 1 568 26 view .LVU908
	ands	r0, r0, #2
	it	ne
	movne	r0, #32768
	.loc 1 579 1 view .LVU909
	bx	lr
.L208:
.LCFI28:
	.cfi_def_cfa_offset 8
	.cfi_offset 4, -8
	.cfi_offset 5, -4
.LBB1185:
.LBB1181:
	.loc 1 1022 7 is_stmt 1 view .LVU910
.LBB1161:
.LBI1161:
	.loc 1 1070 17 view .LVU911
.LBB1162:
	.loc 1 1072 3 view .LVU912
	.loc 1 1077 3 view .LVU913
.LBB1163:
.LBI1163:
	.loc 2 2260 26 view .LVU914
.LBB1164:
	.loc 2 2262 3 view .LVU915
	.loc 2 2262 21 is_stmt 0 view .LVU916
	ldr	r5, [r2, #12]
.LVL146:
	.loc 2 2262 21 view .LVU917
.LBE1164:
.LBE1163:
	.loc 1 1079 3 is_stmt 1 view .LVU918
.LBB1166:
.LBB1167:
	.loc 2 2272 21 is_stmt 0 view .LVU919
	ldr	r3, [r2, #12]
.LBE1167:
.LBE1166:
.LBB1170:
.LBB1171:
	.loc 2 2370 21 view .LVU920
	ldr	r1, [r2, #12]
.LBE1171:
.LBE1170:
.LBB1173:
.LBB1174:
	.loc 2 2344 21 view .LVU921
	ldr	r2, [r2, #12]
.LBE1174:
.LBE1173:
	.loc 1 1086 20 view .LVU922
	ldr	r4, .L209+4
	.loc 1 1093 10 view .LVU923
	ubfx	r0, r1, #4, #4
	adds	r1, r0, #1
	.loc 1 1086 20 view .LVU924
	ldr	r0, .L209+16
.LBB1176:
.LBB1165:
	.loc 2 2262 10 view .LVU925
	and	r5, r5, #3
.LVL147:
	.loc 2 2262 10 view .LVU926
.LBE1165:
.LBE1176:
	.loc 1 1093 10 view .LVU927
	ubfx	r2, r2, #25, #2
.LBB1177:
.LBB1168:
	.loc 2 2272 10 view .LVU928
	ubfx	r3, r3, #8, #7
.LBE1168:
.LBE1177:
	.loc 1 1093 10 view .LVU929
	adds	r2, r2, #1
	.loc 1 1086 20 view .LVU930
	cmp	r5, #3
	it	ne
	movne	r0, r4
.LVL148:
	.loc 1 1093 3 is_stmt 1 view .LVU931
.LBB1178:
.LBI1166:
	.loc 2 2270 26 view .LVU932
.LBB1169:
	.loc 2 2272 3 view .LVU933
.LBE1169:
.LBE1178:
.LBB1179:
.LBI1170:
	.loc 2 2368 26 view .LVU934
.LBB1172:
	.loc 2 2370 3 view .LVU935
.LBE1172:
.LBE1179:
.LBB1180:
.LBI1173:
	.loc 2 2342 26 view .LVU936
.LBB1175:
	.loc 2 2344 3 view .LVU937
.LBE1175:
.LBE1180:
	.loc 1 1093 10 is_stmt 0 view .LVU938
	lsls	r2, r2, #1
	mul	r0, r3, r0
.LVL149:
	.loc 1 1093 10 view .LVU939
	udiv	r0, r0, r1
	udiv	r0, r0, r2
.LVL150:
	.loc 1 1093 10 view .LVU940
.LBE1162:
.LBE1161:
	.loc 1 1023 7 is_stmt 1 view .LVU941
	b	.L184
.LVL151:
.L207:
	.loc 1 1023 7 is_stmt 0 view .LVU942
.LBE1181:
.LBE1185:
.LBB1186:
.LBB1127:
	.loc 1 1022 7 is_stmt 1 view .LVU943
.LBB1105:
.LBI1105:
	.loc 1 1070 17 view .LVU944
.LBB1106:
	.loc 1 1072 3 view .LVU945
	.loc 1 1077 3 view .LVU946
.LBB1107:
.LBI1107:
	.loc 2 2260 26 view .LVU947
.LBB1108:
	.loc 2 2262 3 view .LVU948
	.loc 2 2262 21 is_stmt 0 view .LVU949
	ldr	r5, [r2, #12]
.LVL152:
	.loc 2 2262 21 view .LVU950
.LBE1108:
.LBE1107:
	.loc 1 1079 3 is_stmt 1 view .LVU951
.LBB1110:
.LBB1111:
	.loc 2 2272 21 is_stmt 0 view .LVU952
	ldr	r3, [r2, #12]
.LBE1111:
.LBE1110:
.LBB1114:
.LBB1115:
	.loc 2 2370 21 view .LVU953
	ldr	r1, [r2, #12]
.LBE1115:
.LBE1114:
.LBB1117:
.LBB1118:
	.loc 2 2344 21 view .LVU954
	ldr	r0, [r2, #12]
.LBE1118:
.LBE1117:
	.loc 1 1086 20 view .LVU955
	ldr	r4, .L209+4
.LBB1120:
.LBB1112:
	.loc 2 2272 10 view .LVU956
	ubfx	r2, r3, #8, #7
.LBE1112:
.LBE1120:
	.loc 1 1093 10 view .LVU957
	ubfx	r3, r1, #4, #4
	adds	r1, r3, #1
	.loc 1 1086 20 view .LVU958
	ldr	r3, .L209+16
.LBB1121:
.LBB1109:
	.loc 2 2262 10 view .LVU959
	and	ip, r5, #3
.LVL153:
	.loc 2 2262 10 view .LVU960
.LBE1109:
.LBE1121:
	.loc 1 1093 10 view .LVU961
	ubfx	r0, r0, #25, #2
	adds	r0, r0, #1
	.loc 1 1086 20 view .LVU962
	cmp	ip, #3
	it	ne
	movne	r3, r4
.LVL154:
	.loc 1 1093 3 is_stmt 1 view .LVU963
.LBB1122:
.LBI1110:
	.loc 2 2270 26 view .LVU964
.LBB1113:
	.loc 2 2272 3 view .LVU965
.LBE1113:
.LBE1122:
.LBB1123:
.LBI1114:
	.loc 2 2368 26 view .LVU966
.LBB1116:
	.loc 2 2370 3 view .LVU967
.LBE1116:
.LBE1123:
.LBB1124:
.LBI1117:
	.loc 2 2342 26 view .LVU968
.LBB1119:
	.loc 2 2344 3 view .LVU969
.LBE1119:
.LBE1124:
	.loc 1 1093 10 is_stmt 0 view .LVU970
	lsls	r0, r0, #1
	mul	r3, r2, r3
.LVL155:
	.loc 1 1093 10 view .LVU971
	udiv	r3, r3, r1
	udiv	r3, r3, r0
.LVL156:
	.loc 1 1093 10 view .LVU972
.LBE1106:
.LBE1105:
	.loc 1 1023 7 is_stmt 1 view .LVU973
	b	.L190
.LVL157:
.L192:
	.loc 1 1023 7 is_stmt 0 view .LVU974
.LBE1127:
.LBE1186:
.LBB1187:
.LBB1182:
	.loc 1 1011 3 view .LVU975
	ldr	r0, .L209+16
	b	.L184
.L195:
.LBE1182:
.LBE1187:
.LBB1188:
.LBB1128:
	ldr	r3, .L209+16
	b	.L190
.L210:
	.align	2
.L209:
	.word	1073876992
	.word	16000000
	.word	AHBPrescTable
	.word	APBPrescTable
	.word	8000000
.LBE1128:
.LBE1188:
	.cfi_endproc
.LFE277:
	.size	LL_RCC_GetLPUARTClockFreq, .-LL_RCC_GetLPUARTClockFreq
	.section	.text.LL_RCC_GetLPTIMClockFreq,"ax",%progbits
	.align	1
	.p2align 2,,3
	.global	LL_RCC_GetLPTIMClockFreq
	.syntax unified
	.thumb
	.thumb_func
	.fpu fpv4-sp-d16
	.type	LL_RCC_GetLPTIMClockFreq, %function
LL_RCC_GetLPTIMClockFreq:
.LVL158:
.LFB278:
	.loc 1 589 1 is_stmt 1 view -0
	.cfi_startproc
	@ args = 0, pretend = 0, frame = 0
	@ frame_needed = 0, uses_anonymous_args = 0
	@ link register save eliminated.
	.loc 1 590 3 view .LVU977
	.loc 1 593 3 view .LVU978
	.loc 1 595 3 view .LVU979
	.loc 1 595 6 is_stmt 0 view .LVU980
	cmp	r0, #786432
	beq	.L231
	.loc 1 590 12 view .LVU981
	movs	r0, #0
.LVL159:
	.loc 1 628 3 is_stmt 1 view .LVU982
	.loc 1 629 1 is_stmt 0 view .LVU983
	bx	lr
.LVL160:
.L231:
	.loc 1 598 5 is_stmt 1 view .LVU984
.LBB1219:
.LBI1219:
	.loc 2 1825 26 view .LVU985
.LBB1220:
	.loc 2 1827 3 view .LVU986
	.loc 2 1827 21 is_stmt 0 view .LVU987
	ldr	r2, .L234
	ldr	r3, [r2, #136]
	.loc 2 1827 10 view .LVU988
	and	r3, r3, #786432
.LVL161:
	.loc 2 1827 10 view .LVU989
.LBE1220:
.LBE1219:
	.loc 1 598 5 view .LVU990
	cmp	r3, #524288
	beq	.L213
	cmp	r3, #786432
	beq	.L214
	cmp	r3, #262144
	beq	.L232
	.loc 1 623 9 is_stmt 1 view .LVU991
.LBB1221:
.LBI1221:
	.loc 1 1006 17 view .LVU992
.LBB1222:
	.loc 1 1008 3 view .LVU993
	.loc 1 1011 3 view .LVU994
.LBB1223:
.LBI1223:
	.loc 2 1353 26 view .LVU995
.LBB1224:
	.loc 2 1355 3 view .LVU996
	.loc 2 1355 21 is_stmt 0 view .LVU997
	ldr	r3, [r2, #8]
	.loc 2 1355 10 view .LVU998
	and	r3, r3, #12
.LBE1224:
.LBE1223:
	.loc 1 1011 3 view .LVU999
	cmp	r3, #8
.LBE1222:
.LBE1221:
	.loc 1 589 1 view .LVU1000
	push	{r4, r5}
.LCFI29:
	.cfi_def_cfa_offset 8
	.cfi_offset 4, -8
	.cfi_offset 5, -4
.LBB1247:
.LBB1245:
	.loc 1 1011 3 view .LVU1001
	beq	.L219
	cmp	r3, #12
	beq	.L233
	.loc 1 1014 17 view .LVU1002
	ldr	r3, .L234+4
.LVL162:
.L216:
	.loc 1 1030 3 is_stmt 1 view .LVU1003
	.loc 1 1030 3 is_stmt 0 view .LVU1004
.LBE1245:
.LBE1247:
.LBB1248:
.LBI1248:
	.loc 1 1038 17 is_stmt 1 view .LVU1005
.LBB1249:
	.loc 1 1041 3 view .LVU1006
.LBB1250:
.LBI1250:
	.loc 2 1424 26 view .LVU1007
.LBB1251:
	.loc 2 1426 3 view .LVU1008
	.loc 2 1426 21 is_stmt 0 view .LVU1009
	ldr	r2, .L234
.LBE1251:
.LBE1250:
	.loc 1 1041 10 view .LVU1010
	ldr	r0, .L234+8
.LBB1253:
.LBB1252:
	.loc 2 1426 21 view .LVU1011
	ldr	r1, [r2, #8]
.LVL163:
	.loc 2 1426 21 view .LVU1012
.LBE1252:
.LBE1253:
.LBE1249:
.LBE1248:
.LBB1257:
.LBI1257:
	.loc 1 1049 17 is_stmt 1 view .LVU1013
.LBB1258:
	.loc 1 1052 3 view .LVU1014
.LBB1259:
.LBI1259:
	.loc 2 1439 26 view .LVU1015
.LBB1260:
	.loc 2 1441 3 view .LVU1016
	.loc 2 1441 21 is_stmt 0 view .LVU1017
	ldr	r2, [r2, #8]
.LBE1260:
.LBE1259:
.LBE1258:
.LBE1257:
.LBB1264:
.LBB1254:
	.loc 1 1041 10 view .LVU1018
	ubfx	r1, r1, #4, #4
.LVL164:
	.loc 1 1041 10 view .LVU1019
.LBE1254:
.LBE1264:
.LBB1265:
.LBB1261:
	.loc 1 1052 10 view .LVU1020
	ubfx	r2, r2, #8, #3
.LBE1261:
.LBE1265:
.LBB1266:
.LBB1255:
	.loc 1 1041 10 view .LVU1021
	ldrb	r0, [r0, r1]	@ zero_extendqisi2
.LBE1255:
.LBE1266:
.LBB1267:
.LBB1262:
	.loc 1 1052 10 view .LVU1022
	ldr	r1, .L234+12
	ldrb	r2, [r1, r2]	@ zero_extendqisi2
.LBE1262:
.LBE1267:
.LBB1268:
.LBB1256:
	.loc 1 1041 10 view .LVU1023
	and	r0, r0, #31
	lsr	r0, r3, r0
.LBE1256:
.LBE1268:
.LBB1269:
.LBB1263:
	.loc 1 1052 10 view .LVU1024
	and	r3, r2, #31
	.loc 1 1052 10 view .LVU1025
	lsrs	r0, r0, r3
.LVL165:
	.loc 1 1052 10 view .LVU1026
.LBE1263:
.LBE1269:
	.loc 1 624 9 is_stmt 1 view .LVU1027
	.loc 1 629 1 is_stmt 0 view .LVU1028
	pop	{r4, r5}
.LCFI30:
	.cfi_restore 5
	.cfi_restore 4
	.cfi_def_cfa_offset 0
	bx	lr
.LVL166:
.L213:
	.loc 1 608 9 is_stmt 1 view .LVU1029
.LBB1270:
.LBI1270:
	.loc 2 1023 26 view .LVU1030
.LBB1271:
	.loc 2 1025 3 view .LVU1031
	.loc 2 1025 12 is_stmt 0 view .LVU1032
	ldr	r0, [r2]
.LVL167:
	.loc 2 1025 12 view .LVU1033
.LBE1271:
.LBE1270:
	.loc 1 610 27 view .LVU1034
	ldr	r3, .L234+4
	ands	r0, r0, #1024
	it	ne
	movne	r0, r3
.LBB1273:
.LBB1272:
	bx	lr
.LVL168:
.L232:
	.loc 1 610 27 view .LVU1035
.LBE1272:
.LBE1273:
	.loc 1 601 9 is_stmt 1 view .LVU1036
.LBB1274:
.LBI1274:
	.loc 2 1265 26 view .LVU1037
.LBB1275:
	.loc 2 1267 3 view .LVU1038
	.loc 2 1267 12 is_stmt 0 view .LVU1039
	ldr	r0, [r2, #148]
.LVL169:
	.loc 2 1267 12 view .LVU1040
.LBE1275:
.LBE1274:
	.loc 1 603 27 view .LVU1041
	ands	r0, r0, #2
	it	ne
	movne	r0, #32000
.LBB1277:
.LBB1276:
	bx	lr
.LVL170:
.L214:
	.loc 1 603 27 view .LVU1042
.LBE1276:
.LBE1277:
	.loc 1 615 9 is_stmt 1 view .LVU1043
.LBB1278:
.LBI1278:
	.loc 2 1217 26 view .LVU1044
.LBB1279:
	.loc 2 1219 3 view .LVU1045
	.loc 2 1219 12 is_stmt 0 view .LVU1046
	ldr	r0, [r2, #144]
.LVL171:
	.loc 2 1219 12 view .LVU1047
.LBE1279:
.LBE1278:
	.loc 1 617 27 view .LVU1048
	ands	r0, r0, #2
	it	ne
	movne	r0, #32768
.LBB1281:
.LBB1280:
	bx	lr
.LVL172:
.L233:
.LCFI31:
	.cfi_def_cfa_offset 8
	.cfi_offset 4, -8
	.cfi_offset 5, -4
	.loc 1 617 27 view .LVU1049
.LBE1280:
.LBE1281:
.LBB1282:
.LBB1246:
	.loc 1 1022 7 is_stmt 1 view .LVU1050
.LBB1225:
.LBI1225:
	.loc 1 1070 17 view .LVU1051
.LBB1226:
	.loc 1 1072 3 view .LVU1052
	.loc 1 1077 3 view .LVU1053
.LBB1227:
.LBI1227:
	.loc 2 2260 26 view .LVU1054
.LBB1228:
	.loc 2 2262 3 view .LVU1055
	.loc 2 2262 21 is_stmt 0 view .LVU1056
	ldr	r5, [r2, #12]
.LVL173:
	.loc 2 2262 21 view .LVU1057
.LBE1228:
.LBE1227:
	.loc 1 1079 3 is_stmt 1 view .LVU1058
.LBB1230:
.LBB1231:
	.loc 2 2272 21 is_stmt 0 view .LVU1059
	ldr	r3, [r2, #12]
.LBE1231:
.LBE1230:
.LBB1234:
.LBB1235:
	.loc 2 2370 21 view .LVU1060
	ldr	r1, [r2, #12]
.LBE1235:
.LBE1234:
.LBB1237:
.LBB1238:
	.loc 2 2344 21 view .LVU1061
	ldr	r0, [r2, #12]
.LVL174:
	.loc 2 2344 21 view .LVU1062
.LBE1238:
.LBE1237:
	.loc 1 1086 20 view .LVU1063
	ldr	r4, .L234+4
	.loc 1 1093 10 view .LVU1064
	ubfx	r2, r1, #4, #4
	.loc 1 1086 20 view .LVU1065
	ldr	r1, .L234+16
.LBB1240:
.LBB1229:
	.loc 2 2262 10 view .LVU1066
	and	ip, r5, #3
.LVL175:
	.loc 2 2262 10 view .LVU1067
.LBE1229:
.LBE1240:
	.loc 1 1093 10 view .LVU1068
	ubfx	r0, r0, #25, #2
.LBB1241:
.LBB1232:
	.loc 2 2272 10 view .LVU1069
	ubfx	r3, r3, #8, #7
.LBE1232:
.LBE1241:
	.loc 1 1093 10 view .LVU1070
	adds	r0, r0, #1
	.loc 1 1086 20 view .LVU1071
	cmp	ip, #3
	it	ne
	movne	r1, r4
.LVL176:
	.loc 1 1093 3 is_stmt 1 view .LVU1072
.LBB1242:
.LBI1230:
	.loc 2 2270 26 view .LVU1073
.LBB1233:
	.loc 2 2272 3 view .LVU1074
.LBE1233:
.LBE1242:
.LBB1243:
.LBI1234:
	.loc 2 2368 26 view .LVU1075
.LBB1236:
	.loc 2 2370 3 view .LVU1076
.LBE1236:
.LBE1243:
.LBB1244:
.LBI1237:
	.loc 2 2342 26 view .LVU1077
.LBB1239:
	.loc 2 2344 3 view .LVU1078
.LBE1239:
.LBE1244:
	.loc 1 1093 10 is_stmt 0 view .LVU1079
	adds	r2, r2, #1
	lsls	r0, r0, #1
	mul	r3, r1, r3
	udiv	r3, r3, r2
	udiv	r3, r3, r0
.LVL177:
	.loc 1 1093 10 view .LVU1080
.LBE1226:
.LBE1225:
	.loc 1 1023 7 is_stmt 1 view .LVU1081
	b	.L216
.LVL178:
.L219:
	.loc 1 1011 3 is_stmt 0 view .LVU1082
	ldr	r3, .L234+16
	b	.L216
.L235:
	.align	2
.L234:
	.word	1073876992
	.word	16000000
	.word	AHBPrescTable
	.word	APBPrescTable
	.word	8000000
.LBE1246:
.LBE1282:
	.cfi_endproc
.LFE278:
	.size	LL_RCC_GetLPTIMClockFreq, .-LL_RCC_GetLPTIMClockFreq
	.section	.text.LL_RCC_GetSAIClockFreq,"ax",%progbits
	.align	1
	.p2align 2,,3
	.global	LL_RCC_GetSAIClockFreq
	.syntax unified
	.thumb
	.thumb_func
	.fpu fpv4-sp-d16
	.type	LL_RCC_GetSAIClockFreq, %function
LL_RCC_GetSAIClockFreq:
.LVL179:
.LFB279:
	.loc 1 640 1 is_stmt 1 view -0
	.cfi_startproc
	@ args = 0, pretend = 0, frame = 0
	@ frame_needed = 0, uses_anonymous_args = 0
	@ link register save eliminated.
	.loc 1 641 3 view .LVU1084
	.loc 1 644 3 view .LVU1085
	.loc 1 646 3 view .LVU1086
	.loc 1 646 6 is_stmt 0 view .LVU1087
	cmp	r0, #3145728
	beq	.L260
	.loc 1 641 12 view .LVU1088
	movs	r0, #0
.LVL180:
	.loc 1 681 1 view .LVU1089
	bx	lr
.LVL181:
.L260:
	.loc 1 649 5 is_stmt 1 view .LVU1090
.LBB1315:
.LBI1315:
	.loc 2 1845 26 view .LVU1091
.LBB1316:
	.loc 2 1847 3 view .LVU1092
	.loc 2 1847 21 is_stmt 0 view .LVU1093
	ldr	r2, .L263
	ldr	r3, [r2, #136]
	.loc 2 1847 10 view .LVU1094
	and	r3, r3, #3145728
.LVL182:
	.loc 2 1847 10 view .LVU1095
.LBE1316:
.LBE1315:
	.loc 1 649 5 view .LVU1096
	cmp	r3, #1048576
	.loc 1 640 1 view .LVU1097
	push	{r4, r5}
.LCFI32:
	.cfi_def_cfa_offset 8
	.cfi_offset 4, -8
	.cfi_offset 5, -4
	.loc 1 649 5 view .LVU1098
	beq	.L238
	cmp	r3, #2097152
	beq	.L243
	cbz	r3, .L261
	.loc 1 671 9 is_stmt 1 view .LVU1099
.LBB1317:
.LBI1317:
	.loc 2 1023 26 view .LVU1100
.LBB1318:
	.loc 2 1025 3 view .LVU1101
	.loc 2 1025 12 is_stmt 0 view .LVU1102
	ldr	r0, [r2]
.LVL183:
	.loc 2 1025 12 view .LVU1103
.LBE1318:
.LBE1317:
	.loc 1 673 25 view .LVU1104
	ldr	r3, .L263+4
	ands	r0, r0, #1024
	it	ne
	movne	r0, r3
.LVL184:
.L236:
	.loc 1 681 1 view .LVU1105
	pop	{r4, r5}
.LCFI33:
	.cfi_remember_state
	.cfi_restore 5
	.cfi_restore 4
	.cfi_def_cfa_offset 0
	bx	lr
.LVL185:
.L243:
.LCFI34:
	.cfi_restore_state
	.loc 1 649 5 view .LVU1106
	ldr	r0, .L263+8
.LVL186:
	.loc 1 681 1 view .LVU1107
	pop	{r4, r5}
.LCFI35:
	.cfi_remember_state
	.cfi_restore 5
	.cfi_restore 4
	.cfi_def_cfa_offset 0
	bx	lr
.LVL187:
.L238:
.LCFI36:
	.cfi_restore_state
	.loc 1 656 9 is_stmt 1 view .LVU1108
.LBB1319:
.LBI1319:
	.loc 2 2074 26 view .LVU1109
.LBB1320:
	.loc 2 2076 3 view .LVU1110
	.loc 2 2076 12 is_stmt 0 view .LVU1111
	ldr	r0, [r2]
.LVL188:
	.loc 2 2076 71 view .LVU1112
	ands	r0, r0, #33554432
	beq	.L236
.LBE1320:
.LBE1319:
	.loc 1 658 11 is_stmt 1 view .LVU1113
.LBB1321:
.LBI1321:
	.loc 2 2436 26 view .LVU1114
.LBB1322:
	.loc 2 2438 3 view .LVU1115
	.loc 2 2438 12 is_stmt 0 view .LVU1116
	ldr	r0, [r2, #12]
	.loc 2 2438 86 view .LVU1117
	ands	r0, r0, #1048576
	beq	.L236
.LBE1322:
.LBE1321:
	.loc 1 660 13 is_stmt 1 view .LVU1118
.LBB1323:
.LBI1323:
	.loc 1 1132 17 view .LVU1119
.LBB1324:
	.loc 1 1134 3 view .LVU1120
	.loc 1 1139 3 view .LVU1121
.LBB1325:
.LBI1325:
	.loc 2 2260 26 view .LVU1122
.LBB1326:
	.loc 2 2262 3 view .LVU1123
	.loc 2 2262 21 is_stmt 0 view .LVU1124
	ldr	r5, [r2, #12]
.LVL189:
	.loc 2 2262 21 view .LVU1125
.LBE1326:
.LBE1325:
	.loc 1 1141 3 is_stmt 1 view .LVU1126
.LBB1328:
.LBB1329:
	.loc 2 2272 21 is_stmt 0 view .LVU1127
	ldr	r0, [r2, #12]
.LBE1329:
.LBE1328:
.LBB1332:
.LBB1333:
	.loc 2 2370 21 view .LVU1128
	ldr	r1, [r2, #12]
.LBE1333:
.LBE1332:
.LBB1335:
.LBB1336:
	.loc 2 2329 21 view .LVU1129
	ldr	r3, [r2, #12]
.LBE1336:
.LBE1335:
	.loc 1 1148 20 view .LVU1130
	ldr	r4, .L263+4
	.loc 1 1155 10 view .LVU1131
	ubfx	r2, r1, #4, #4
	.loc 1 1148 20 view .LVU1132
	ldr	r1, .L263+12
.LBB1338:
.LBB1327:
	.loc 2 2262 10 view .LVU1133
	and	r5, r5, #3
.LVL190:
	.loc 2 2262 10 view .LVU1134
.LBE1327:
.LBE1338:
	.loc 1 1155 10 view .LVU1135
	ubfx	r3, r3, #21, #2
.LBB1339:
.LBB1330:
	.loc 2 2272 10 view .LVU1136
	ubfx	r0, r0, #8, #7
.LBE1330:
.LBE1339:
	.loc 1 1155 10 view .LVU1137
	adds	r3, r3, #1
	.loc 1 1148 20 view .LVU1138
	cmp	r5, #3
	it	ne
	movne	r1, r4
.LVL191:
	.loc 1 1155 3 is_stmt 1 view .LVU1139
.LBB1340:
.LBI1328:
	.loc 2 2270 26 view .LVU1140
.LBB1331:
	.loc 2 2272 3 view .LVU1141
.LBE1331:
.LBE1340:
.LBB1341:
.LBI1332:
	.loc 2 2368 26 view .LVU1142
.LBB1334:
	.loc 2 2370 3 view .LVU1143
.LBE1334:
.LBE1341:
.LBB1342:
.LBI1335:
	.loc 2 2327 26 view .LVU1144
.LBB1337:
	.loc 2 2329 3 view .LVU1145
.LBE1337:
.LBE1342:
	.loc 1 1155 10 is_stmt 0 view .LVU1146
	adds	r2, r2, #1
	lsls	r3, r3, #1
	mul	r0, r1, r0
	udiv	r0, r0, r2
	udiv	r0, r0, r3
.LVL192:
	.loc 1 1155 10 view .LVU1147
	b	.L236
.LVL193:
.L261:
	.loc 1 1155 10 view .LVU1148
.LBE1324:
.LBE1323:
	.loc 1 652 9 is_stmt 1 view .LVU1149
.LBB1343:
.LBI1343:
	.loc 1 1006 17 view .LVU1150
.LBB1344:
	.loc 1 1008 3 view .LVU1151
	.loc 1 1011 3 view .LVU1152
.LBB1345:
.LBI1345:
	.loc 2 1353 26 view .LVU1153
.LBB1346:
	.loc 2 1355 3 view .LVU1154
	.loc 2 1355 21 is_stmt 0 view .LVU1155
	ldr	r3, [r2, #8]
	.loc 2 1355 10 view .LVU1156
	and	r3, r3, #12
.LBE1346:
.LBE1345:
	.loc 1 1011 3 view .LVU1157
	cmp	r3, #8
	beq	.L244
	cmp	r3, #12
	beq	.L262
	.loc 1 1014 17 view .LVU1158
	ldr	r0, .L263+4
.LVL194:
	.loc 1 1014 17 view .LVU1159
.LBE1344:
.LBE1343:
	.loc 1 680 3 is_stmt 1 view .LVU1160
	.loc 1 680 10 is_stmt 0 view .LVU1161
	b	.L236
.LVL195:
.L262:
.LBB1368:
.LBB1367:
	.loc 1 1022 7 is_stmt 1 view .LVU1162
.LBB1347:
.LBI1347:
	.loc 1 1070 17 view .LVU1163
.LBB1348:
	.loc 1 1072 3 view .LVU1164
	.loc 1 1077 3 view .LVU1165
.LBB1349:
.LBI1349:
	.loc 2 2260 26 view .LVU1166
.LBB1350:
	.loc 2 2262 3 view .LVU1167
	.loc 2 2262 21 is_stmt 0 view .LVU1168
	ldr	r5, [r2, #12]
.LVL196:
	.loc 2 2262 21 view .LVU1169
.LBE1350:
.LBE1349:
	.loc 1 1079 3 is_stmt 1 view .LVU1170
.LBB1352:
.LBB1353:
	.loc 2 2272 21 is_stmt 0 view .LVU1171
	ldr	r0, [r2, #12]
.LVL197:
	.loc 2 2272 21 view .LVU1172
.LBE1353:
.LBE1352:
.LBB1356:
.LBB1357:
	.loc 2 2370 21 view .LVU1173
	ldr	r1, [r2, #12]
.LBE1357:
.LBE1356:
.LBB1359:
.LBB1360:
	.loc 2 2344 21 view .LVU1174
	ldr	r3, [r2, #12]
.LBE1360:
.LBE1359:
	.loc 1 1086 20 view .LVU1175
	ldr	r4, .L263+4
	.loc 1 1093 10 view .LVU1176
	ubfx	r2, r1, #4, #4
	.loc 1 1086 20 view .LVU1177
	ldr	r1, .L263+12
.LBB1362:
.LBB1351:
	.loc 2 2262 10 view .LVU1178
	and	ip, r5, #3
.LVL198:
	.loc 2 2262 10 view .LVU1179
.LBE1351:
.LBE1362:
	.loc 1 1093 10 view .LVU1180
	ubfx	r3, r3, #25, #2
.LBB1363:
.LBB1354:
	.loc 2 2272 10 view .LVU1181
	ubfx	r0, r0, #8, #7
.LBE1354:
.LBE1363:
	.loc 1 1093 10 view .LVU1182
	adds	r3, r3, #1
	.loc 1 1086 20 view .LVU1183
	cmp	ip, #3
	it	ne
	movne	r1, r4
.LVL199:
	.loc 1 1093 3 is_stmt 1 view .LVU1184
.LBB1364:
.LBI1352:
	.loc 2 2270 26 view .LVU1185
.LBB1355:
	.loc 2 2272 3 view .LVU1186
.LBE1355:
.LBE1364:
.LBB1365:
.LBI1356:
	.loc 2 2368 26 view .LVU1187
.LBB1358:
	.loc 2 2370 3 view .LVU1188
.LBE1358:
.LBE1365:
.LBB1366:
.LBI1359:
	.loc 2 2342 26 view .LVU1189
.LBB1361:
	.loc 2 2344 3 view .LVU1190
.LBE1361:
.LBE1366:
	.loc 1 1093 10 is_stmt 0 view .LVU1191
	adds	r2, r2, #1
	lsls	r3, r3, #1
	mul	r0, r1, r0
	udiv	r0, r0, r2
	udiv	r0, r0, r3
.LVL200:
	.loc 1 1093 10 view .LVU1192
.LBE1348:
.LBE1347:
	.loc 1 1023 7 is_stmt 1 view .LVU1193
	b	.L236
.LVL201:
.L244:
	.loc 1 1011 3 is_stmt 0 view .LVU1194
	ldr	r0, .L263+12
.LVL202:
	.loc 1 1011 3 view .LVU1195
	b	.L236
.L264:
	.align	2
.L263:
	.word	1073876992
	.word	16000000
	.word	12288000
	.word	8000000
.LBE1367:
.LBE1368:
	.cfi_endproc
.LFE279:
	.size	LL_RCC_GetSAIClockFreq, .-LL_RCC_GetSAIClockFreq
	.section	.text.LL_RCC_GetI2SClockFreq,"ax",%progbits
	.align	1
	.p2align 2,,3
	.global	LL_RCC_GetI2SClockFreq
	.syntax unified
	.thumb
	.thumb_func
	.fpu fpv4-sp-d16
	.type	LL_RCC_GetI2SClockFreq, %function
LL_RCC_GetI2SClockFreq:
.LVL203:
.LFB280:
	.loc 1 691 1 is_stmt 1 view -0
	.cfi_startproc
	@ args = 0, pretend = 0, frame = 0
	@ frame_needed = 0, uses_anonymous_args = 0
	@ link register save eliminated.
	.loc 1 692 3 view .LVU1197
	.loc 1 695 3 view .LVU1198
	.loc 1 697 3 view .LVU1199
	.loc 1 697 6 is_stmt 0 view .LVU1200
	cmp	r0, #12582912
	beq	.L289
	.loc 1 692 12 view .LVU1201
	movs	r0, #0
.LVL204:
	.loc 1 731 1 view .LVU1202
	bx	lr
.LVL205:
.L289:
	.loc 1 700 5 is_stmt 1 view .LVU1203
.LBB1401:
.LBI1401:
	.loc 2 1861 26 view .LVU1204
.LBB1402:
	.loc 2 1863 3 view .LVU1205
	.loc 2 1863 21 is_stmt 0 view .LVU1206
	ldr	r2, .L292
	ldr	r3, [r2, #136]
	.loc 2 1863 10 view .LVU1207
	and	r3, r3, #12582912
.LVL206:
	.loc 2 1863 10 view .LVU1208
.LBE1402:
.LBE1401:
	.loc 1 700 5 view .LVU1209
	cmp	r3, #4194304
	.loc 1 691 1 view .LVU1210
	push	{r4, r5}
.LCFI37:
	.cfi_def_cfa_offset 8
	.cfi_offset 4, -8
	.cfi_offset 5, -4
	.loc 1 700 5 view .LVU1211
	beq	.L267
	cmp	r3, #8388608
	beq	.L272
	cbz	r3, .L290
	.loc 1 722 9 is_stmt 1 view .LVU1212
.LBB1403:
.LBI1403:
	.loc 2 1023 26 view .LVU1213
.LBB1404:
	.loc 2 1025 3 view .LVU1214
	.loc 2 1025 12 is_stmt 0 view .LVU1215
	ldr	r0, [r2]
.LVL207:
	.loc 2 1025 12 view .LVU1216
.LBE1404:
.LBE1403:
	.loc 1 724 25 view .LVU1217
	ldr	r3, .L292+4
	ands	r0, r0, #1024
	it	ne
	movne	r0, r3
.LVL208:
.L265:
	.loc 1 731 1 view .LVU1218
	pop	{r4, r5}
.LCFI38:
	.cfi_remember_state
	.cfi_restore 5
	.cfi_restore 4
	.cfi_def_cfa_offset 0
	bx	lr
.LVL209:
.L272:
.LCFI39:
	.cfi_restore_state
	.loc 1 700 5 view .LVU1219
	ldr	r0, .L292+8
.LVL210:
	.loc 1 731 1 view .LVU1220
	pop	{r4, r5}
.LCFI40:
	.cfi_remember_state
	.cfi_restore 5
	.cfi_restore 4
	.cfi_def_cfa_offset 0
	bx	lr
.LVL211:
.L267:
.LCFI41:
	.cfi_restore_state
	.loc 1 707 7 is_stmt 1 view .LVU1221
.LBB1405:
.LBI1405:
	.loc 2 2074 26 view .LVU1222
.LBB1406:
	.loc 2 2076 3 view .LVU1223
	.loc 2 2076 12 is_stmt 0 view .LVU1224
	ldr	r0, [r2]
.LVL212:
	.loc 2 2076 71 view .LVU1225
	ands	r0, r0, #33554432
	beq	.L265
.LBE1406:
.LBE1405:
	.loc 1 709 9 is_stmt 1 view .LVU1226
.LBB1407:
.LBI1407:
	.loc 2 2436 26 view .LVU1227
.LBB1408:
	.loc 2 2438 3 view .LVU1228
	.loc 2 2438 12 is_stmt 0 view .LVU1229
	ldr	r0, [r2, #12]
	.loc 2 2438 86 view .LVU1230
	ands	r0, r0, #1048576
	beq	.L265
.LBE1408:
.LBE1407:
	.loc 1 711 11 is_stmt 1 view .LVU1231
.LBB1409:
.LBI1409:
	.loc 1 1132 17 view .LVU1232
.LBB1410:
	.loc 1 1134 3 view .LVU1233
	.loc 1 1139 3 view .LVU1234
.LBB1411:
.LBI1411:
	.loc 2 2260 26 view .LVU1235
.LBB1412:
	.loc 2 2262 3 view .LVU1236
	.loc 2 2262 21 is_stmt 0 view .LVU1237
	ldr	r5, [r2, #12]
.LVL213:
	.loc 2 2262 21 view .LVU1238
.LBE1412:
.LBE1411:
	.loc 1 1141 3 is_stmt 1 view .LVU1239
.LBB1414:
.LBB1415:
	.loc 2 2272 21 is_stmt 0 view .LVU1240
	ldr	r0, [r2, #12]
.LBE1415:
.LBE1414:
.LBB1418:
.LBB1419:
	.loc 2 2370 21 view .LVU1241
	ldr	r1, [r2, #12]
.LBE1419:
.LBE1418:
.LBB1421:
.LBB1422:
	.loc 2 2329 21 view .LVU1242
	ldr	r3, [r2, #12]
.LBE1422:
.LBE1421:
	.loc 1 1148 20 view .LVU1243
	ldr	r4, .L292+4
	.loc 1 1155 10 view .LVU1244
	ubfx	r2, r1, #4, #4
	.loc 1 1148 20 view .LVU1245
	ldr	r1, .L292+12
.LBB1424:
.LBB1413:
	.loc 2 2262 10 view .LVU1246
	and	r5, r5, #3
.LVL214:
	.loc 2 2262 10 view .LVU1247
.LBE1413:
.LBE1424:
	.loc 1 1155 10 view .LVU1248
	ubfx	r3, r3, #21, #2
.LBB1425:
.LBB1416:
	.loc 2 2272 10 view .LVU1249
	ubfx	r0, r0, #8, #7
.LBE1416:
.LBE1425:
	.loc 1 1155 10 view .LVU1250
	adds	r3, r3, #1
	.loc 1 1148 20 view .LVU1251
	cmp	r5, #3
	it	ne
	movne	r1, r4
.LVL215:
	.loc 1 1155 3 is_stmt 1 view .LVU1252
.LBB1426:
.LBI1414:
	.loc 2 2270 26 view .LVU1253
.LBB1417:
	.loc 2 2272 3 view .LVU1254
.LBE1417:
.LBE1426:
.LBB1427:
.LBI1418:
	.loc 2 2368 26 view .LVU1255
.LBB1420:
	.loc 2 2370 3 view .LVU1256
.LBE1420:
.LBE1427:
.LBB1428:
.LBI1421:
	.loc 2 2327 26 view .LVU1257
.LBB1423:
	.loc 2 2329 3 view .LVU1258
.LBE1423:
.LBE1428:
	.loc 1 1155 10 is_stmt 0 view .LVU1259
	adds	r2, r2, #1
	lsls	r3, r3, #1
	mul	r0, r1, r0
	udiv	r0, r0, r2
	udiv	r0, r0, r3
.LVL216:
	.loc 1 1155 10 view .LVU1260
	b	.L265
.LVL217:
.L290:
	.loc 1 1155 10 view .LVU1261
.LBE1410:
.LBE1409:
	.loc 1 703 9 is_stmt 1 view .LVU1262
.LBB1429:
.LBI1429:
	.loc 1 1006 17 view .LVU1263
.LBB1430:
	.loc 1 1008 3 view .LVU1264
	.loc 1 1011 3 view .LVU1265
.LBB1431:
.LBI1431:
	.loc 2 1353 26 view .LVU1266
.LBB1432:
	.loc 2 1355 3 view .LVU1267
	.loc 2 1355 21 is_stmt 0 view .LVU1268
	ldr	r3, [r2, #8]
	.loc 2 1355 10 view .LVU1269
	and	r3, r3, #12
.LBE1432:
.LBE1431:
	.loc 1 1011 3 view .LVU1270
	cmp	r3, #8
	beq	.L273
	cmp	r3, #12
	beq	.L291
	.loc 1 1014 17 view .LVU1271
	ldr	r0, .L292+4
.LVL218:
	.loc 1 1014 17 view .LVU1272
.LBE1430:
.LBE1429:
	.loc 1 730 3 is_stmt 1 view .LVU1273
	.loc 1 730 10 is_stmt 0 view .LVU1274
	b	.L265
.LVL219:
.L291:
.LBB1454:
.LBB1453:
	.loc 1 1022 7 is_stmt 1 view .LVU1275
.LBB1433:
.LBI1433:
	.loc 1 1070 17 view .LVU1276
.LBB1434:
	.loc 1 1072 3 view .LVU1277
	.loc 1 1077 3 view .LVU1278
.LBB1435:
.LBI1435:
	.loc 2 2260 26 view .LVU1279
.LBB1436:
	.loc 2 2262 3 view .LVU1280
	.loc 2 2262 21 is_stmt 0 view .LVU1281
	ldr	r5, [r2, #12]
.LVL220:
	.loc 2 2262 21 view .LVU1282
.LBE1436:
.LBE1435:
	.loc 1 1079 3 is_stmt 1 view .LVU1283
.LBB1438:
.LBB1439:
	.loc 2 2272 21 is_stmt 0 view .LVU1284
	ldr	r0, [r2, #12]
.LVL221:
	.loc 2 2272 21 view .LVU1285
.LBE1439:
.LBE1438:
.LBB1442:
.LBB1443:
	.loc 2 2370 21 view .LVU1286
	ldr	r1, [r2, #12]
.LBE1443:
.LBE1442:
.LBB1445:
.LBB1446:
	.loc 2 2344 21 view .LVU1287
	ldr	r3, [r2, #12]
.LBE1446:
.LBE1445:
	.loc 1 1086 20 view .LVU1288
	ldr	r4, .L292+4
	.loc 1 1093 10 view .LVU1289
	ubfx	r2, r1, #4, #4
	.loc 1 1086 20 view .LVU1290
	ldr	r1, .L292+12
.LBB1448:
.LBB1437:
	.loc 2 2262 10 view .LVU1291
	and	ip, r5, #3
.LVL222:
	.loc 2 2262 10 view .LVU1292
.LBE1437:
.LBE1448:
	.loc 1 1093 10 view .LVU1293
	ubfx	r3, r3, #25, #2
.LBB1449:
.LBB1440:
	.loc 2 2272 10 view .LVU1294
	ubfx	r0, r0, #8, #7
.LBE1440:
.LBE1449:
	.loc 1 1093 10 view .LVU1295
	adds	r3, r3, #1
	.loc 1 1086 20 view .LVU1296
	cmp	ip, #3
	it	ne
	movne	r1, r4
.LVL223:
	.loc 1 1093 3 is_stmt 1 view .LVU1297
.LBB1450:
.LBI1438:
	.loc 2 2270 26 view .LVU1298
.LBB1441:
	.loc 2 2272 3 view .LVU1299
.LBE1441:
.LBE1450:
.LBB1451:
.LBI1442:
	.loc 2 2368 26 view .LVU1300
.LBB1444:
	.loc 2 2370 3 view .LVU1301
.LBE1444:
.LBE1451:
.LBB1452:
.LBI1445:
	.loc 2 2342 26 view .LVU1302
.LBB1447:
	.loc 2 2344 3 view .LVU1303
.LBE1447:
.LBE1452:
	.loc 1 1093 10 is_stmt 0 view .LVU1304
	adds	r2, r2, #1
	lsls	r3, r3, #1
	mul	r0, r1, r0
	udiv	r0, r0, r2
	udiv	r0, r0, r3
.LVL224:
	.loc 1 1093 10 view .LVU1305
.LBE1434:
.LBE1433:
	.loc 1 1023 7 is_stmt 1 view .LVU1306
	b	.L265
.LVL225:
.L273:
	.loc 1 1011 3 is_stmt 0 view .LVU1307
	ldr	r0, .L292+12
.LVL226:
	.loc 1 1011 3 view .LVU1308
	b	.L265
.L293:
	.align	2
.L292:
	.word	1073876992
	.word	16000000
	.word	12288000
	.word	8000000
.LBE1453:
.LBE1454:
	.cfi_endproc
.LFE280:
	.size	LL_RCC_GetI2SClockFreq, .-LL_RCC_GetI2SClockFreq
	.section	.text.LL_RCC_GetFDCANClockFreq,"ax",%progbits
	.align	1
	.p2align 2,,3
	.global	LL_RCC_GetFDCANClockFreq
	.syntax unified
	.thumb
	.thumb_func
	.fpu fpv4-sp-d16
	.type	LL_RCC_GetFDCANClockFreq, %function
LL_RCC_GetFDCANClockFreq:
.LVL227:
.LFB281:
	.loc 1 743 1 is_stmt 1 view -0
	.cfi_startproc
	@ args = 0, pretend = 0, frame = 0
	@ frame_needed = 0, uses_anonymous_args = 0
	@ link register save eliminated.
	.loc 1 744 3 view .LVU1310
	.loc 1 747 3 view .LVU1311
	.loc 1 750 3 view .LVU1312
.LBB1495:
.LBB1496:
	.loc 2 1880 21 is_stmt 0 view .LVU1313
	ldr	r2, .L317
.LVL228:
	.loc 2 1880 21 view .LVU1314
.LBE1496:
.LBI1495:
	.loc 2 1878 26 is_stmt 1 view .LVU1315
.LBB1497:
	.loc 2 1880 3 view .LVU1316
	.loc 2 1880 21 is_stmt 0 view .LVU1317
	ldr	r3, [r2, #136]
	.loc 2 1880 10 view .LVU1318
	ands	r0, r0, r3
.LVL229:
	.loc 2 1880 10 view .LVU1319
.LBE1497:
.LBE1495:
	.loc 1 750 3 view .LVU1320
	cmp	r0, #16777216
	.loc 1 743 1 view .LVU1321
	push	{r4, r5}
.LCFI42:
	.cfi_def_cfa_offset 8
	.cfi_offset 4, -8
	.cfi_offset 5, -4
	.loc 1 750 3 view .LVU1322
	beq	.L295
	cmp	r0, #33554432
	beq	.L296
	cbz	r0, .L315
	mov	r0, #-1
.LVL230:
	.loc 1 777 3 is_stmt 1 view .LVU1323
.L294:
	.loc 1 778 1 is_stmt 0 view .LVU1324
	pop	{r4, r5}
.LCFI43:
	.cfi_remember_state
	.cfi_restore 5
	.cfi_restore 4
	.cfi_def_cfa_offset 0
	bx	lr
.LVL231:
.L295:
.LCFI44:
	.cfi_restore_state
	.loc 1 760 7 is_stmt 1 view .LVU1325
.LBB1498:
.LBI1498:
	.loc 2 2074 26 view .LVU1326
.LBB1499:
	.loc 2 2076 3 view .LVU1327
	.loc 2 2076 12 is_stmt 0 view .LVU1328
	ldr	r0, [r2]
	.loc 2 2076 71 view .LVU1329
	ands	r0, r0, #33554432
	beq	.L294
.LBE1499:
.LBE1498:
	.loc 1 762 9 is_stmt 1 view .LVU1330
.LBB1500:
.LBI1500:
	.loc 2 2436 26 view .LVU1331
.LBB1501:
	.loc 2 2438 3 view .LVU1332
	.loc 2 2438 12 is_stmt 0 view .LVU1333
	ldr	r0, [r2, #12]
	.loc 2 2438 86 view .LVU1334
	ands	r0, r0, #1048576
	beq	.L294
.LBE1501:
.LBE1500:
	.loc 1 764 11 is_stmt 1 view .LVU1335
.LBB1502:
.LBI1502:
	.loc 1 1132 17 view .LVU1336
.LBB1503:
	.loc 1 1134 3 view .LVU1337
	.loc 1 1139 3 view .LVU1338
.LBB1504:
.LBI1504:
	.loc 2 2260 26 view .LVU1339
.LBB1505:
	.loc 2 2262 3 view .LVU1340
	.loc 2 2262 21 is_stmt 0 view .LVU1341
	ldr	r5, [r2, #12]
.LVL232:
	.loc 2 2262 21 view .LVU1342
.LBE1505:
.LBE1504:
	.loc 1 1141 3 is_stmt 1 view .LVU1343
.LBB1507:
.LBB1508:
	.loc 2 2272 21 is_stmt 0 view .LVU1344
	ldr	r0, [r2, #12]
.LBE1508:
.LBE1507:
.LBB1511:
.LBB1512:
	.loc 2 2370 21 view .LVU1345
	ldr	r1, [r2, #12]
.LBE1512:
.LBE1511:
.LBB1514:
.LBB1515:
	.loc 2 2329 21 view .LVU1346
	ldr	r3, [r2, #12]
.LBE1515:
.LBE1514:
	.loc 1 1148 20 view .LVU1347
	ldr	r4, .L317+4
	.loc 1 1155 10 view .LVU1348
	ubfx	r2, r1, #4, #4
	.loc 1 1148 20 view .LVU1349
	ldr	r1, .L317+8
.LBB1517:
.LBB1506:
	.loc 2 2262 10 view .LVU1350
	and	r5, r5, #3
.LVL233:
	.loc 2 2262 10 view .LVU1351
.LBE1506:
.LBE1517:
	.loc 1 1155 10 view .LVU1352
	ubfx	r3, r3, #21, #2
.LBB1518:
.LBB1509:
	.loc 2 2272 10 view .LVU1353
	ubfx	r0, r0, #8, #7
.LBE1509:
.LBE1518:
	.loc 1 1155 10 view .LVU1354
	adds	r3, r3, #1
	.loc 1 1148 20 view .LVU1355
	cmp	r5, #3
	it	ne
	movne	r1, r4
.LVL234:
	.loc 1 1155 3 is_stmt 1 view .LVU1356
.LBB1519:
.LBI1507:
	.loc 2 2270 26 view .LVU1357
.LBB1510:
	.loc 2 2272 3 view .LVU1358
.LBE1510:
.LBE1519:
.LBB1520:
.LBI1511:
	.loc 2 2368 26 view .LVU1359
.LBB1513:
	.loc 2 2370 3 view .LVU1360
.LBE1513:
.LBE1520:
.LBB1521:
.LBI1514:
	.loc 2 2327 26 view .LVU1361
.LBB1516:
	.loc 2 2329 3 view .LVU1362
.LBE1516:
.LBE1521:
	.loc 1 1155 10 is_stmt 0 view .LVU1363
	adds	r2, r2, #1
	lsls	r3, r3, #1
	mul	r0, r1, r0
	udiv	r0, r0, r2
	udiv	r0, r0, r3
.LVL235:
	.loc 1 1155 10 view .LVU1364
	b	.L294
.LVL236:
.L315:
	.loc 1 1155 10 view .LVU1365
.LBE1503:
.LBE1502:
	.loc 1 753 7 is_stmt 1 view .LVU1366
.LBB1522:
.LBI1522:
	.loc 2 964 26 view .LVU1367
.LBB1523:
	.loc 2 966 3 view .LVU1368
	.loc 2 966 12 is_stmt 0 view .LVU1369
	ldr	r0, [r2]
.LBE1523:
.LBE1522:
	.loc 1 755 25 view .LVU1370
	ldr	r3, .L317+8
	ands	r0, r0, #131072
	it	ne
	movne	r0, r3
	.loc 1 778 1 view .LVU1371
	pop	{r4, r5}
.LCFI45:
	.cfi_remember_state
	.cfi_restore 5
	.cfi_restore 4
	.cfi_def_cfa_offset 0
	bx	lr
.L296:
.LCFI46:
	.cfi_restore_state
	.loc 1 770 7 is_stmt 1 view .LVU1372
.LBB1524:
.LBI1524:
	.loc 1 1006 17 view .LVU1373
.LBB1525:
	.loc 1 1008 3 view .LVU1374
	.loc 1 1011 3 view .LVU1375
.LBB1526:
.LBI1526:
	.loc 2 1353 26 view .LVU1376
.LBB1527:
	.loc 2 1355 3 view .LVU1377
	.loc 2 1355 21 is_stmt 0 view .LVU1378
	ldr	r3, [r2, #8]
	.loc 2 1355 10 view .LVU1379
	and	r3, r3, #12
.LBE1527:
.LBE1526:
	.loc 1 1011 3 view .LVU1380
	cmp	r3, #8
	beq	.L303
	cmp	r3, #12
	beq	.L316
	.loc 1 1014 17 view .LVU1381
	ldr	r3, .L317+4
.L299:
.LVL237:
	.loc 1 1030 3 is_stmt 1 view .LVU1382
	.loc 1 1030 3 is_stmt 0 view .LVU1383
.LBE1525:
.LBE1524:
.LBB1549:
.LBI1549:
	.loc 1 1038 17 is_stmt 1 view .LVU1384
.LBB1550:
	.loc 1 1041 3 view .LVU1385
.LBB1551:
.LBI1551:
	.loc 2 1424 26 view .LVU1386
.LBB1552:
	.loc 2 1426 3 view .LVU1387
	.loc 2 1426 21 is_stmt 0 view .LVU1388
	ldr	r2, .L317
.LBE1552:
.LBE1551:
	.loc 1 1041 10 view .LVU1389
	ldr	r0, .L317+12
.LBB1554:
.LBB1553:
	.loc 2 1426 21 view .LVU1390
	ldr	r1, [r2, #8]
.LVL238:
	.loc 2 1426 21 view .LVU1391
.LBE1553:
.LBE1554:
.LBE1550:
.LBE1549:
.LBB1558:
.LBI1558:
	.loc 1 1049 17 is_stmt 1 view .LVU1392
.LBB1559:
	.loc 1 1052 3 view .LVU1393
.LBB1560:
.LBI1560:
	.loc 2 1439 26 view .LVU1394
.LBB1561:
	.loc 2 1441 3 view .LVU1395
	.loc 2 1441 21 is_stmt 0 view .LVU1396
	ldr	r2, [r2, #8]
.LBE1561:
.LBE1560:
.LBE1559:
.LBE1558:
.LBB1565:
.LBB1555:
	.loc 1 1041 10 view .LVU1397
	ubfx	r1, r1, #4, #4
.LVL239:
	.loc 1 1041 10 view .LVU1398
.LBE1555:
.LBE1565:
.LBB1566:
.LBB1562:
	.loc 1 1052 10 view .LVU1399
	ubfx	r2, r2, #8, #3
.LBE1562:
.LBE1566:
.LBB1567:
.LBB1556:
	.loc 1 1041 10 view .LVU1400
	ldrb	r0, [r0, r1]	@ zero_extendqisi2
.LBE1556:
.LBE1567:
.LBB1568:
.LBB1563:
	.loc 1 1052 10 view .LVU1401
	ldr	r1, .L317+16
	ldrb	r2, [r1, r2]	@ zero_extendqisi2
.LBE1563:
.LBE1568:
.LBB1569:
.LBB1557:
	.loc 1 1041 10 view .LVU1402
	and	r0, r0, #31
	lsr	r0, r3, r0
.LBE1557:
.LBE1569:
.LBB1570:
.LBB1564:
	.loc 1 1052 10 view .LVU1403
	and	r3, r2, #31
	.loc 1 1052 10 view .LVU1404
	lsrs	r0, r0, r3
.LVL240:
	.loc 1 1052 10 view .LVU1405
.LBE1564:
.LBE1570:
	.loc 1 771 7 is_stmt 1 view .LVU1406
	.loc 1 778 1 is_stmt 0 view .LVU1407
	pop	{r4, r5}
.LCFI47:
	.cfi_remember_state
	.cfi_restore 5
	.cfi_restore 4
	.cfi_def_cfa_offset 0
	bx	lr
.LVL241:
.L316:
.LCFI48:
	.cfi_restore_state
.LBB1571:
.LBB1548:
	.loc 1 1022 7 is_stmt 1 view .LVU1408
.LBB1528:
.LBI1528:
	.loc 1 1070 17 view .LVU1409
.LBB1529:
	.loc 1 1072 3 view .LVU1410
	.loc 1 1077 3 view .LVU1411
.LBB1530:
.LBI1530:
	.loc 2 2260 26 view .LVU1412
.LBB1531:
	.loc 2 2262 3 view .LVU1413
	.loc 2 2262 21 is_stmt 0 view .LVU1414
	ldr	r5, [r2, #12]
.LVL242:
	.loc 2 2262 21 view .LVU1415
.LBE1531:
.LBE1530:
	.loc 1 1079 3 is_stmt 1 view .LVU1416
.LBB1533:
.LBB1534:
	.loc 2 2272 21 is_stmt 0 view .LVU1417
	ldr	r3, [r2, #12]
.LBE1534:
.LBE1533:
.LBB1537:
.LBB1538:
	.loc 2 2370 21 view .LVU1418
	ldr	r1, [r2, #12]
.LBE1538:
.LBE1537:
.LBB1540:
.LBB1541:
	.loc 2 2344 21 view .LVU1419
	ldr	r0, [r2, #12]
.LBE1541:
.LBE1540:
	.loc 1 1086 20 view .LVU1420
	ldr	r4, .L317+4
.LBB1543:
.LBB1535:
	.loc 2 2272 10 view .LVU1421
	ubfx	r2, r3, #8, #7
.LBE1535:
.LBE1543:
	.loc 1 1093 10 view .LVU1422
	ubfx	r3, r1, #4, #4
	adds	r1, r3, #1
	.loc 1 1086 20 view .LVU1423
	ldr	r3, .L317+8
.LBB1544:
.LBB1532:
	.loc 2 2262 10 view .LVU1424
	and	ip, r5, #3
.LVL243:
	.loc 2 2262 10 view .LVU1425
.LBE1532:
.LBE1544:
	.loc 1 1093 10 view .LVU1426
	ubfx	r0, r0, #25, #2
	adds	r0, r0, #1
	.loc 1 1086 20 view .LVU1427
	cmp	ip, #3
	it	ne
	movne	r3, r4
.LVL244:
	.loc 1 1093 3 is_stmt 1 view .LVU1428
.LBB1545:
.LBI1533:
	.loc 2 2270 26 view .LVU1429
.LBB1536:
	.loc 2 2272 3 view .LVU1430
.LBE1536:
.LBE1545:
.LBB1546:
.LBI1537:
	.loc 2 2368 26 view .LVU1431
.LBB1539:
	.loc 2 2370 3 view .LVU1432
.LBE1539:
.LBE1546:
.LBB1547:
.LBI1540:
	.loc 2 2342 26 view .LVU1433
.LBB1542:
	.loc 2 2344 3 view .LVU1434
.LBE1542:
.LBE1547:
	.loc 1 1093 10 is_stmt 0 view .LVU1435
	lsls	r0, r0, #1
	mul	r3, r2, r3
.LVL245:
	.loc 1 1093 10 view .LVU1436
	udiv	r3, r3, r1
	udiv	r3, r3, r0
.LVL246:
	.loc 1 1093 10 view .LVU1437
.LBE1529:
.LBE1528:
	.loc 1 1023 7 is_stmt 1 view .LVU1438
	b	.L299
.LVL247:
.L303:
	.loc 1 1011 3 is_stmt 0 view .LVU1439
	ldr	r3, .L317+8
	b	.L299
.L318:
	.align	2
.L317:
	.word	1073876992
	.word	16000000
	.word	8000000
	.word	AHBPrescTable
	.word	APBPrescTable
.LBE1548:
.LBE1571:
	.cfi_endproc
.LFE281:
	.size	LL_RCC_GetFDCANClockFreq, .-LL_RCC_GetFDCANClockFreq
	.section	.text.LL_RCC_GetRNGClockFreq,"ax",%progbits
	.align	1
	.p2align 2,,3
	.global	LL_RCC_GetRNGClockFreq
	.syntax unified
	.thumb
	.thumb_func
	.fpu fpv4-sp-d16
	.type	LL_RCC_GetRNGClockFreq, %function
LL_RCC_GetRNGClockFreq:
.LVL248:
.LFB282:
	.loc 1 790 1 is_stmt 1 view -0
	.cfi_startproc
	@ args = 0, pretend = 0, frame = 0
	@ frame_needed = 0, uses_anonymous_args = 0
	@ link register save eliminated.
	.loc 1 791 3 view .LVU1441
	.loc 1 794 3 view .LVU1442
	.loc 1 797 3 view .LVU1443
.LBB1598:
.LBB1599:
	.loc 2 1895 21 is_stmt 0 view .LVU1444
	ldr	r3, .L337
.LVL249:
	.loc 2 1895 21 view .LVU1445
.LBE1599:
.LBI1598:
	.loc 2 1893 26 is_stmt 1 view .LVU1446
.LBB1600:
	.loc 2 1895 3 view .LVU1447
	.loc 2 1895 21 is_stmt 0 view .LVU1448
	ldr	r2, [r3, #136]
.LBE1600:
.LBE1598:
	.loc 1 797 3 view .LVU1449
	ands	r0, r0, r2
.LVL250:
	.loc 1 797 3 view .LVU1450
	beq	.L320
	cmp	r0, #134217728
	bne	.L323
	.loc 1 800 7 is_stmt 1 view .LVU1451
.LBB1601:
.LBI1601:
	.loc 2 2074 26 view .LVU1452
.LBB1602:
	.loc 2 2076 3 view .LVU1453
	.loc 2 2076 12 is_stmt 0 view .LVU1454
	ldr	r0, [r3]
	.loc 2 2076 71 view .LVU1455
	ands	r0, r0, #33554432
	beq	.L334
.LBE1602:
.LBE1601:
	.loc 1 802 9 is_stmt 1 view .LVU1456
.LBB1603:
.LBI1603:
	.loc 2 2436 26 view .LVU1457
.LBB1604:
	.loc 2 2438 3 view .LVU1458
	.loc 2 2438 12 is_stmt 0 view .LVU1459
	ldr	r0, [r3, #12]
	.loc 2 2438 86 view .LVU1460
	ands	r0, r0, #1048576
	beq	.L334
.LBE1604:
.LBE1603:
	.loc 1 804 11 is_stmt 1 view .LVU1461
.LBB1605:
.LBI1605:
	.loc 1 1132 17 view .LVU1462
.LBB1606:
	.loc 1 1134 3 view .LVU1463
	.loc 1 1139 3 view .LVU1464
.LBB1607:
.LBI1607:
	.loc 2 2260 26 view .LVU1465
.LBB1608:
	.loc 2 2262 3 view .LVU1466
.LBE1608:
.LBE1607:
.LBE1606:
.LBE1605:
	.loc 1 790 1 is_stmt 0 view .LVU1467
	push	{r4, r5}
.LCFI49:
	.cfi_def_cfa_offset 8
	.cfi_offset 4, -8
	.cfi_offset 5, -4
.LBB1629:
.LBB1627:
.LBB1611:
.LBB1609:
	.loc 2 2262 21 view .LVU1468
	ldr	r5, [r3, #12]
.LVL251:
	.loc 2 2262 21 view .LVU1469
.LBE1609:
.LBE1611:
	.loc 1 1141 3 is_stmt 1 view .LVU1470
.LBB1612:
.LBB1613:
	.loc 2 2272 21 is_stmt 0 view .LVU1471
	ldr	r0, [r3, #12]
.LBE1613:
.LBE1612:
.LBB1616:
.LBB1617:
	.loc 2 2370 21 view .LVU1472
	ldr	r1, [r3, #12]
.LBE1617:
.LBE1616:
.LBB1619:
.LBB1620:
	.loc 2 2329 21 view .LVU1473
	ldr	r2, [r3, #12]
.LBE1620:
.LBE1619:
	.loc 1 1148 20 view .LVU1474
	ldr	r4, .L337+4
.LBB1622:
.LBB1614:
	.loc 2 2272 10 view .LVU1475
	ubfx	r3, r0, #8, #7
.LBE1614:
.LBE1622:
	.loc 1 1155 10 view .LVU1476
	ubfx	r0, r1, #4, #4
	adds	r1, r0, #1
	.loc 1 1148 20 view .LVU1477
	ldr	r0, .L337+8
.LBB1623:
.LBB1610:
	.loc 2 2262 10 view .LVU1478
	and	ip, r5, #3
.LVL252:
	.loc 2 2262 10 view .LVU1479
.LBE1610:
.LBE1623:
	.loc 1 1155 10 view .LVU1480
	ubfx	r2, r2, #21, #2
	.loc 1 1148 20 view .LVU1481
	cmp	ip, #3
	it	ne
	movne	r0, r4
.LVL253:
	.loc 1 1155 3 is_stmt 1 view .LVU1482
.LBB1624:
.LBI1612:
	.loc 2 2270 26 view .LVU1483
.LBB1615:
	.loc 2 2272 3 view .LVU1484
.LBE1615:
.LBE1624:
.LBB1625:
.LBI1616:
	.loc 2 2368 26 view .LVU1485
.LBB1618:
	.loc 2 2370 3 view .LVU1486
.LBE1618:
.LBE1625:
.LBB1626:
.LBI1619:
	.loc 2 2327 26 view .LVU1487
.LBB1621:
	.loc 2 2329 3 view .LVU1488
.LBE1621:
.LBE1626:
	.loc 1 1155 10 is_stmt 0 view .LVU1489
	adds	r2, r2, #1
	lsls	r2, r2, #1
	mul	r0, r3, r0
.LVL254:
	.loc 1 1155 10 view .LVU1490
.LBE1627:
.LBE1629:
	.loc 1 823 1 view .LVU1491
	pop	{r4, r5}
.LCFI50:
	.cfi_restore 5
	.cfi_restore 4
	.cfi_def_cfa_offset 0
.LVL255:
.LBB1630:
.LBB1628:
	.loc 1 1155 10 view .LVU1492
	udiv	r0, r0, r1
	udiv	r0, r0, r2
.LVL256:
	.loc 1 1155 10 view .LVU1493
.LBE1628:
.LBE1630:
	.loc 1 823 1 view .LVU1494
	bx	lr
.LVL257:
.L334:
	.loc 1 823 1 view .LVU1495
	bx	lr
.L323:
	.loc 1 797 3 view .LVU1496
	mov	r0, #-1
.LVL258:
	.loc 1 822 3 is_stmt 1 view .LVU1497
	.loc 1 822 10 is_stmt 0 view .LVU1498
	bx	lr
.LVL259:
.L320:
	.loc 1 810 7 is_stmt 1 view .LVU1499
.LBB1631:
.LBI1631:
	.loc 2 1097 26 view .LVU1500
.LBB1632:
	.loc 2 1099 3 view .LVU1501
	.loc 2 1099 12 is_stmt 0 view .LVU1502
	ldr	r0, [r3, #152]
.LBE1632:
.LBE1631:
	.loc 1 812 23 view .LVU1503
	ldr	r3, .L337+12
	ands	r0, r0, #2
	it	ne
	movne	r0, r3
.LBB1634:
.LBB1633:
	bx	lr
.L338:
	.align	2
.L337:
	.word	1073876992
	.word	16000000
	.word	8000000
	.word	48000000
.LBE1633:
.LBE1634:
	.cfi_endproc
.LFE282:
	.size	LL_RCC_GetRNGClockFreq, .-LL_RCC_GetRNGClockFreq
	.section	.text.LL_RCC_GetUSBClockFreq,"ax",%progbits
	.align	1
	.p2align 2,,3
	.global	LL_RCC_GetUSBClockFreq
	.syntax unified
	.thumb
	.thumb_func
	.fpu fpv4-sp-d16
	.type	LL_RCC_GetUSBClockFreq, %function
LL_RCC_GetUSBClockFreq:
.LFB293:
	.cfi_startproc
	@ args = 0, pretend = 0, frame = 0
	@ frame_needed = 0, uses_anonymous_args = 0
	@ link register save eliminated.
	ldr	r3, .L357
	ldr	r2, [r3, #136]
	ands	r0, r0, r2
	beq	.L340
	cmp	r0, #134217728
	bne	.L343
	ldr	r0, [r3]
	ands	r0, r0, #33554432
	beq	.L354
	ldr	r0, [r3, #12]
	ands	r0, r0, #1048576
	beq	.L354
	push	{r4, r5}
.LCFI51:
	.cfi_def_cfa_offset 8
	.cfi_offset 4, -8
	.cfi_offset 5, -4
	ldr	r5, [r3, #12]
	ldr	r0, [r3, #12]
	ldr	r1, [r3, #12]
	ldr	r2, [r3, #12]
	ldr	r4, .L357+4
	ubfx	r3, r0, #8, #7
	ubfx	r0, r1, #4, #4
	adds	r1, r0, #1
	ldr	r0, .L357+8
	and	ip, r5, #3
	ubfx	r2, r2, #21, #2
	cmp	ip, #3
	it	ne
	movne	r0, r4
	adds	r2, r2, #1
	lsls	r2, r2, #1
	mul	r0, r3, r0
	pop	{r4, r5}
.LCFI52:
	.cfi_restore 5
	.cfi_restore 4
	.cfi_def_cfa_offset 0
	udiv	r0, r0, r1
	udiv	r0, r0, r2
	bx	lr
.L354:
	bx	lr
.L343:
	mov	r0, #-1
	bx	lr
.L340:
	ldr	r0, [r3, #152]
	ldr	r3, .L357+12
	ands	r0, r0, #2
	it	ne
	movne	r0, r3
	bx	lr
.L358:
	.align	2
.L357:
	.word	1073876992
	.word	16000000
	.word	8000000
	.word	48000000
	.cfi_endproc
.LFE293:
	.size	LL_RCC_GetUSBClockFreq, .-LL_RCC_GetUSBClockFreq
	.section	.text.LL_RCC_GetADCClockFreq,"ax",%progbits
	.align	1
	.p2align 2,,3
	.global	LL_RCC_GetADCClockFreq
	.syntax unified
	.thumb
	.thumb_func
	.fpu fpv4-sp-d16
	.type	LL_RCC_GetADCClockFreq, %function
LL_RCC_GetADCClockFreq:
.LVL260:
.LFB284:
	.loc 1 880 1 is_stmt 1 view -0
	.cfi_startproc
	@ args = 0, pretend = 0, frame = 0
	@ frame_needed = 0, uses_anonymous_args = 0
	@ link register save eliminated.
	.loc 1 881 3 view .LVU1505
	.loc 1 884 3 view .LVU1506
	.loc 1 886 3 view .LVU1507
	.loc 1 886 6 is_stmt 0 view .LVU1508
	ldr	r3, .L386
	cmp	r0, r3
	beq	.L384
	.loc 1 881 12 view .LVU1509
	movs	r0, #0
.LVL261:
	.loc 1 940 1 view .LVU1510
	bx	lr
.LVL262:
.L384:
	.loc 1 889 5 is_stmt 1 view .LVU1511
.LBB1665:
.LBI1665:
	.loc 2 1928 26 view .LVU1512
.LBB1666:
	.loc 2 1930 3 view .LVU1513
	.loc 2 1930 22 is_stmt 0 view .LVU1514
	ldr	r2, .L386+4
.LBE1666:
.LBE1665:
	.loc 1 889 5 view .LVU1515
	ldr	r1, .L386+8
.LBB1668:
.LBB1667:
	.loc 2 1930 22 view .LVU1516
	ldr	r3, [r2, #136]
	.loc 2 1930 81 view .LVU1517
	ubfx	r3, r3, #28, #2
	.loc 2 1930 10 view .LVU1518
	orr	r3, r3, #1835008
.LVL263:
	.loc 2 1930 10 view .LVU1519
.LBE1667:
.LBE1668:
	.loc 1 889 5 view .LVU1520
	cmp	r3, r1
	.loc 1 880 1 view .LVU1521
	push	{r4, r5}
.LCFI53:
	.cfi_def_cfa_offset 8
	.cfi_offset 4, -8
	.cfi_offset 5, -4
	.loc 1 889 5 view .LVU1522
	beq	.L361
	adds	r1, r1, #1
	cmp	r3, r1
	bne	.L385
	.loc 1 902 9 is_stmt 1 view .LVU1523
.LBB1669:
.LBI1669:
	.loc 1 1006 17 view .LVU1524
.LBB1670:
	.loc 1 1008 3 view .LVU1525
	.loc 1 1011 3 view .LVU1526
.LBB1671:
.LBI1671:
	.loc 2 1353 26 view .LVU1527
.LBB1672:
	.loc 2 1355 3 view .LVU1528
	.loc 2 1355 21 is_stmt 0 view .LVU1529
	ldr	r3, [r2, #8]
	.loc 2 1355 10 view .LVU1530
	and	r3, r3, #12
.LBE1672:
.LBE1671:
	.loc 1 1011 3 view .LVU1531
	cmp	r3, #8
	beq	.L370
	cmp	r3, #12
	bne	.L371
	.loc 1 1022 7 is_stmt 1 view .LVU1532
.LBB1673:
.LBI1673:
	.loc 1 1070 17 view .LVU1533
.LBB1674:
	.loc 1 1072 3 view .LVU1534
	.loc 1 1077 3 view .LVU1535
.LBB1675:
.LBI1675:
	.loc 2 2260 26 view .LVU1536
.LBB1676:
	.loc 2 2262 3 view .LVU1537
	.loc 2 2262 21 is_stmt 0 view .LVU1538
	ldr	r5, [r2, #12]
.LVL264:
	.loc 2 2262 21 view .LVU1539
.LBE1676:
.LBE1675:
	.loc 1 1079 3 is_stmt 1 view .LVU1540
.LBB1678:
.LBB1679:
	.loc 2 2272 21 is_stmt 0 view .LVU1541
	ldr	r0, [r2, #12]
.LVL265:
	.loc 2 2272 21 view .LVU1542
.LBE1679:
.LBE1678:
.LBB1682:
.LBB1683:
	.loc 2 2370 21 view .LVU1543
	ldr	r1, [r2, #12]
.LBE1683:
.LBE1682:
.LBB1685:
.LBB1686:
	.loc 2 2344 21 view .LVU1544
	ldr	r3, [r2, #12]
.LBE1686:
.LBE1685:
	.loc 1 1086 20 view .LVU1545
	ldr	r4, .L386+12
	.loc 1 1093 10 view .LVU1546
	ubfx	r2, r1, #4, #4
	ubfx	r3, r3, #25, #2
	.loc 1 1086 20 view .LVU1547
	ldr	r1, .L386+16
.LBB1688:
.LBB1677:
	.loc 2 2262 10 view .LVU1548
	and	ip, r5, #3
.LVL266:
	.loc 2 2262 10 view .LVU1549
.LBE1677:
.LBE1688:
	.loc 1 1093 10 view .LVU1550
	adds	r3, r3, #1
.LBB1689:
.LBB1680:
	.loc 2 2272 10 view .LVU1551
	ubfx	r0, r0, #8, #7
.LBE1680:
.LBE1689:
	.loc 1 1086 20 view .LVU1552
	cmp	ip, #3
	it	ne
	movne	r1, r4
.LVL267:
	.loc 1 1093 3 is_stmt 1 view .LVU1553
.LBB1690:
.LBI1678:
	.loc 2 2270 26 view .LVU1554
.LBB1681:
	.loc 2 2272 3 view .LVU1555
.LBE1681:
.LBE1690:
.LBB1691:
.LBI1682:
	.loc 2 2368 26 view .LVU1556
.LBB1684:
	.loc 2 2370 3 view .LVU1557
.LBE1684:
.LBE1691:
.LBB1692:
.LBI1685:
	.loc 2 2342 26 view .LVU1558
.LBB1687:
	.loc 2 2344 3 view .LVU1559
.LBE1687:
.LBE1692:
	.loc 1 1093 10 is_stmt 0 view .LVU1560
	lsls	r3, r3, #1
	adds	r2, r2, #1
	mul	r0, r1, r0
	udiv	r0, r0, r2
.LVL268:
.L383:
	.loc 1 1093 10 view .LVU1561
	udiv	r0, r0, r3
.LVL269:
	.loc 1 1093 10 view .LVU1562
.LBE1674:
.LBE1673:
	.loc 1 1023 7 is_stmt 1 view .LVU1563
	b	.L359
.LVL270:
.L385:
	.loc 1 1023 7 is_stmt 0 view .LVU1564
.LBE1670:
.LBE1669:
	.loc 1 889 5 view .LVU1565
	mov	r0, #-1
.LVL271:
.L359:
	.loc 1 940 1 view .LVU1566
	pop	{r4, r5}
.LCFI54:
	.cfi_remember_state
	.cfi_restore 5
	.cfi_restore 4
	.cfi_def_cfa_offset 0
	bx	lr
.LVL272:
.L361:
.LCFI55:
	.cfi_restore_state
	.loc 1 892 9 is_stmt 1 view .LVU1567
.LBB1695:
.LBI1695:
	.loc 2 2074 26 view .LVU1568
.LBB1696:
	.loc 2 2076 3 view .LVU1569
	.loc 2 2076 12 is_stmt 0 view .LVU1570
	ldr	r0, [r2]
.LVL273:
	.loc 2 2076 71 view .LVU1571
	ands	r0, r0, #33554432
	beq	.L359
.LBE1696:
.LBE1695:
	.loc 1 894 11 is_stmt 1 view .LVU1572
.LBB1697:
.LBI1697:
	.loc 2 2402 26 view .LVU1573
.LBB1698:
	.loc 2 2404 3 view .LVU1574
	.loc 2 2404 12 is_stmt 0 view .LVU1575
	ldr	r0, [r2, #12]
	.loc 2 2404 86 view .LVU1576
	ands	r0, r0, #65536
	beq	.L359
.LBE1698:
.LBE1697:
	.loc 1 896 13 is_stmt 1 view .LVU1577
.LBB1699:
.LBI1699:
	.loc 1 1101 17 view .LVU1578
.LBB1700:
	.loc 1 1103 3 view .LVU1579
	.loc 1 1108 3 view .LVU1580
.LBB1701:
.LBI1701:
	.loc 2 2260 26 view .LVU1581
.LBB1702:
	.loc 2 2262 3 view .LVU1582
	.loc 2 2262 21 is_stmt 0 view .LVU1583
	ldr	r3, [r2, #12]
.LVL274:
	.loc 2 2262 21 view .LVU1584
.LBE1702:
.LBE1701:
	.loc 1 1110 3 is_stmt 1 view .LVU1585
	.loc 1 1117 20 is_stmt 0 view .LVU1586
	ldr	r4, .L386+16
	ldr	r1, .L386+12
.LBB1704:
.LBB1705:
	.loc 2 2272 21 view .LVU1587
	ldr	r0, [r2, #12]
.LBE1705:
.LBE1704:
.LBB1708:
.LBB1703:
	.loc 2 2262 10 view .LVU1588
	and	r3, r3, #3
.LVL275:
	.loc 2 2262 10 view .LVU1589
.LBE1703:
.LBE1708:
	.loc 1 1117 20 view .LVU1590
	cmp	r3, #3
	it	eq
	moveq	r1, r4
.LVL276:
	.loc 1 1124 3 is_stmt 1 view .LVU1591
.LBB1709:
.LBI1704:
	.loc 2 2270 26 view .LVU1592
.LBB1706:
	.loc 2 2272 3 view .LVU1593
.LBE1706:
.LBE1709:
.LBB1710:
.LBI1710:
	.loc 2 2368 26 view .LVU1594
.LBB1711:
	.loc 2 2370 3 view .LVU1595
	.loc 2 2370 21 is_stmt 0 view .LVU1596
	ldr	r3, [r2, #12]
.LVL277:
	.loc 2 2370 21 view .LVU1597
.LBE1711:
.LBE1710:
.LBB1712:
.LBB1713:
	.loc 2 2314 23 view .LVU1598
	ldr	r4, [r2, #12]
.LBE1713:
.LBE1712:
.LBB1717:
.LBB1707:
	.loc 2 2272 10 view .LVU1599
	ubfx	r0, r0, #8, #7
.LBE1707:
.LBE1717:
	.loc 1 1124 10 view .LVU1600
	ubfx	r3, r3, #4, #4
.LBB1718:
.LBB1714:
	.loc 2 2314 10 view .LVU1601
	tst	r4, #-134217728
.LBE1714:
.LBE1718:
	.loc 1 1124 10 view .LVU1602
	add	r3, r3, #1
	mul	r0, r1, r0
	udiv	r0, r0, r3
.LBB1719:
.LBI1712:
	.loc 2 2312 26 is_stmt 1 view .LVU1603
.LBB1715:
	.loc 2 2314 3 view .LVU1604
	.loc 2 2314 76 is_stmt 0 view .LVU1605
	ldr	r3, [r2, #12]
	.loc 2 2314 10 view .LVU1606
	beq	.L364
	lsrs	r3, r3, #27
	b	.L383
.LVL278:
.L371:
	.loc 2 2314 10 view .LVU1607
.LBE1715:
.LBE1719:
.LBE1700:
.LBE1699:
.LBB1722:
.LBB1693:
	.loc 1 1014 17 view .LVU1608
	ldr	r0, .L386+12
.LVL279:
	.loc 1 1014 17 view .LVU1609
.LBE1693:
.LBE1722:
	.loc 1 939 3 is_stmt 1 view .LVU1610
	.loc 1 939 10 is_stmt 0 view .LVU1611
	b	.L359
.LVL280:
.L370:
.LBB1723:
.LBB1694:
	.loc 1 1011 3 view .LVU1612
	ldr	r0, .L386+16
.LVL281:
	.loc 1 1011 3 view .LVU1613
	b	.L359
.LVL282:
.L364:
	.loc 1 1011 3 view .LVU1614
.LBE1694:
.LBE1723:
.LBB1724:
.LBB1721:
.LBB1720:
.LBB1716:
	.loc 2 2314 10 view .LVU1615
	tst	r3, #131072
	ite	ne
	movne	r3, #17
	moveq	r3, #7
	b	.L383
.L387:
	.align	2
.L386:
	.word	1835011
	.word	1073876992
	.word	1835009
	.word	16000000
	.word	8000000
.LBE1716:
.LBE1720:
.LBE1721:
.LBE1724:
	.cfi_endproc
.LFE284:
	.size	LL_RCC_GetADCClockFreq, .-LL_RCC_GetADCClockFreq
	.text
.Letext0:
	.file 3 "/usr/share/gcc-arm-none-eabi-10-2020-q4-major/arm-none-eabi/include/machine/_default_types.h"
	.file 4 "/usr/share/gcc-arm-none-eabi-10-2020-q4-major/arm-none-eabi/include/sys/_stdint.h"
	.file 5 "Drivers/CMSIS/Device/ST/STM32G4xx/Include/system_stm32g4xx.h"
	.file 6 "Drivers/CMSIS/Device/ST/STM32G4xx/Include/stm32g431xx.h"
	.file 7 "Drivers/CMSIS/Device/ST/STM32G4xx/Include/stm32g4xx.h"