	.cpu cortex-m4
	.eabi_attribute 27, 1
	.eabi_attribute 28, 1
	.eabi_attribute 20, 1
	.eabi_attribute 21, 1
	.eabi_attribute 23, 3
	.eabi_attribute 24, 1
	.eabi_attribute 25, 1
	.eabi_attribute 26, 1
	.eabi_attribute 30, 2
	.eabi_attribute 34, 1
	.eabi_attribute 18, 4
	.file	"stm32g4xx_ll_adc.c"
	.text
.Ltext0:
	.cfi_sections	.debug_frame
	.section	.text.LL_ADC_CommonDeInit,"ax",%progbits
	.align	1
	.p2align 2,,3
	.global	LL_ADC_CommonDeInit
	.arch armv7e-m
	.syntax unified
	.thumb
	.thumb_func
	.fpu fpv4-sp-d16
	.type	LL_ADC_CommonDeInit, %function
LL_ADC_CommonDeInit:
.LVL0:
.LFB371:
	.file 1 "Drivers/STM32G4xx_HAL_Driver/Src/stm32g4xx_ll_adc.c"
	.loc 1 658 1 view -0
	.cfi_startproc
	@ args = 0, pretend = 0, frame = 0
	@ frame_needed = 0, uses_anonymous_args = 0
	@ link register save eliminated.
	.loc 1 660 3 view .LVU1
	.loc 1 662 3 view .LVU2
	.loc 1 662 6 is_stmt 0 view .LVU3
	ldr	r3, .L5
	cmp	r0, r3
	beq	.L4
	.loc 1 681 3 is_stmt 1 view .LVU4
	.loc 1 682 1 is_stmt 0 view .LVU5
	movs	r0, #0
.LVL1:
	.loc 1 682 1 view .LVU6
	bx	lr
.LVL2:
.L4:
	.loc 1 665 5 is_stmt 1 view .LVU7
.LBB42:
.LBI42:
	.file 2 "Drivers/STM32G4xx_HAL_Driver/Inc/stm32g4xx_ll_bus.h"
	.loc 2 581 22 view .LVU8
.LBB43:
	.loc 2 583 3 view .LVU9
	ldr	r3, .L5+4
	ldr	r2, [r3, #44]
	orr	r2, r2, #8192
	str	r2, [r3, #44]
.LVL3:
	.loc 2 583 3 is_stmt 0 view .LVU10
.LBE43:
.LBE42:
	.loc 1 668 5 is_stmt 1 view .LVU11
.LBB44:
.LBI44:
	.loc 2 623 22 view .LVU12
.LBB45:
	.loc 2 625 3 view .LVU13
	ldr	r2, [r3, #44]
	bic	r2, r2, #8192
	str	r2, [r3, #44]
.LVL4:
	.loc 2 625 3 is_stmt 0 view .LVU14
.LBE45:
.LBE44:
	.loc 1 681 3 is_stmt 1 view .LVU15
	.loc 1 682 1 is_stmt 0 view .LVU16
	movs	r0, #0
.LVL5:
	.loc 1 682 1 view .LVU17
	bx	lr
.L6:
	.align	2
.L5:
	.word	1342178048
	.word	1073876992
	.cfi_endproc
.LFE371:
	.size	LL_ADC_CommonDeInit, .-LL_ADC_CommonDeInit
	.section	.text.LL_ADC_CommonInit,"ax",%progbits
	.align	1
	.p2align 2,,3
	.global	LL_ADC_CommonInit
	.syntax unified
	.thumb
	.thumb_func
	.fpu fpv4-sp-d16
	.type	LL_ADC_CommonInit, %function
LL_ADC_CommonInit:
.LVL6:
.LFB372:
	.loc 1 700 1 is_stmt 1 view -0
	.cfi_startproc
	@ args = 0, pretend = 0, frame = 0
	@ frame_needed = 0, uses_anonymous_args = 0
	@ link register save eliminated.
	.loc 1 701 3 view .LVU19
	.loc 1 704 3 view .LVU20
	.loc 1 705 3 view .LVU21
	.loc 1 708 3 view .LVU22
	.loc 1 709 3 view .LVU23
	.loc 1 711 5 view .LVU24
	.loc 1 712 5 view .LVU25
	.loc 1 721 3 view .LVU26
.LBB46:
.LBI46:
	.file 3 "Drivers/STM32G4xx_HAL_Driver/Inc/stm32g4xx_ll_adc.h"
	.loc 3 7744 26 view .LVU27
.LBB47:
	.loc 3 7746 3 view .LVU28
.LBE47:
.LBE46:
.LBB49:
.LBB50:
	.loc 3 7746 12 is_stmt 0 view .LVU29
	ldr	r3, .L16
.LBE50:
.LBE49:
.LBB52:
.LBB48:
	mov	r2, #1342177280
	ldr	r2, [r2, #8]
.LVL7:
	.loc 3 7746 12 view .LVU30
.LBE48:
.LBE52:
.LBB53:
.LBI49:
	.loc 3 7744 26 is_stmt 1 view .LVU31
.LBB51:
	.loc 3 7746 3 view .LVU32
	.loc 3 7746 12 is_stmt 0 view .LVU33
	ldr	r3, [r3, #8]
.LVL8:
	.loc 3 7746 12 view .LVU34
.LBE51:
.LBE53:
	.loc 1 721 7 view .LVU35
	orrs	r3, r3, r2
	.loc 1 721 6 view .LVU36
	ands	r3, r3, #1
	bne	.L10
	.loc 1 700 1 view .LVU37
	push	{r4, r5}
.LCFI0:
	.cfi_def_cfa_offset 8
	.cfi_offset 4, -8
	.cfi_offset 5, -4
	.loc 1 709 28 view .LVU38
	ldr	r4, [r1, #4]
	.loc 1 733 5 is_stmt 1 view .LVU39
	mov	r2, r0
	.loc 1 733 8 is_stmt 0 view .LVU40
	cbnz	r4, .L15
	.loc 1 750 7 is_stmt 1 view .LVU41
	ldr	r0, [r0, #8]
.LVL9:
	.loc 1 750 7 is_stmt 0 view .LVU42
	ldr	r3, .L16+4
	ldr	r1, [r1]
.LVL10:
	.loc 1 750 7 view .LVU43
	ands	r3, r3, r0
	orrs	r3, r3, r1
	.loc 1 701 15 view .LVU44
	mov	r0, r4
.LVL11:
	.loc 1 772 3 is_stmt 1 view .LVU45
	.loc 1 750 7 is_stmt 0 view .LVU46
	str	r3, [r2, #8]
	.loc 1 773 1 view .LVU47
	pop	{r4, r5}
.LCFI1:
	.cfi_restore 5
	.cfi_restore 4
	.cfi_def_cfa_offset 0
	bx	lr
.LVL12:
.L10:
	.loc 1 769 12 view .LVU48
	movs	r0, #1
.LVL13:
	.loc 1 772 3 is_stmt 1 view .LVU49
	.loc 1 773 1 is_stmt 0 view .LVU50
	bx	lr
.LVL14:
.L15:
.LCFI2:
	.cfi_def_cfa_offset 8
	.cfi_offset 4, -8
	.cfi_offset 5, -4
	.loc 1 735 7 is_stmt 1 view .LVU51
	ldr	r5, [r0, #8]
	.loc 1 701 15 is_stmt 0 view .LVU52
	mov	r0, r3
.LVL15:
	.loc 1 735 7 view .LVU53
	ldr	r3, .L16+4
	ands	r3, r3, r5
	orrs	r3, r3, r4
	ldr	r4, [r1]
	orrs	r3, r3, r4
	ldrd	r4, r1, [r1, #8]
.LVL16:
	.loc 1 735 7 view .LVU54
	orrs	r3, r3, r4
	orrs	r3, r3, r1
	.loc 1 773 1 view .LVU55
	pop	{r4, r5}
.LCFI3:
	.cfi_restore 5
	.cfi_restore 4
	.cfi_def_cfa_offset 0
	.loc 1 735 7 view .LVU56
	str	r3, [r2, #8]
.LVL17:
	.loc 1 772 3 is_stmt 1 view .LVU57
	.loc 1 773 1 is_stmt 0 view .LVU58
	bx	lr
.L17:
	.align	2
.L16:
	.word	1342177536
	.word	-4181792
	.cfi_endproc
.LFE372:
	.size	LL_ADC_CommonInit, .-LL_ADC_CommonInit
	.section	.text.LL_ADC_CommonStructInit,"ax",%progbits
	.align	1
	.p2align 2,,3
	.global	LL_ADC_CommonStructInit
	.syntax unified
	.thumb
	.thumb_func
	.fpu fpv4-sp-d16
	.type	LL_ADC_CommonStructInit, %function
LL_ADC_CommonStructInit:
.LVL18:
.LFB373:
	.loc 1 782 1 is_stmt 1 view -0
	.cfi_startproc
	@ args = 0, pretend = 0, frame = 0
	@ frame_needed = 0, uses_anonymous_args = 0
	@ link register save eliminated.
	.loc 1 786 3 view .LVU60
	.loc 1 790 48 is_stmt 0 view .LVU61
	movs	r3, #0
	.loc 1 786 38 view .LVU62
	mov	r2, #131072
	.loc 1 790 48 view .LVU63
	strd	r2, r3, [r0]
	.loc 1 791 3 is_stmt 1 view .LVU64
	.loc 1 792 48 is_stmt 0 view .LVU65
	strd	r3, r3, [r0, #8]
	.loc 1 794 1 view .LVU66
	bx	lr
	.cfi_endproc
.LFE373:
	.size	LL_ADC_CommonStructInit, .-LL_ADC_CommonStructInit
	.section	.text.LL_ADC_DeInit,"ax",%progbits
	.align	1
	.p2align 2,,3
	.global	LL_ADC_DeInit
	.syntax unified
	.thumb
	.thumb_func
	.fpu fpv4-sp-d16
	.type	LL_ADC_DeInit, %function
LL_ADC_DeInit:
.LVL19:
.LFB374:
	.loc 1 815 1 is_stmt 1 view -0
	.cfi_startproc
	@ args = 0, pretend = 0, frame = 8
	@ frame_needed = 0, uses_anonymous_args = 0
	@ link register save eliminated.
	.loc 1 816 3 view .LVU68
	.loc 1 818 3 view .LVU69
	.loc 1 815 1 is_stmt 0 view .LVU70
	push	{r4, r5, r6}
.LCFI4:
	.cfi_def_cfa_offset 12
	.cfi_offset 4, -12
	.cfi_offset 5, -8
	.cfi_offset 6, -4
	sub	sp, sp, #12
.LCFI5:
	.cfi_def_cfa_offset 24
	.loc 1 818 17 view .LVU71
	movs	r2, #0
	str	r2, [sp, #4]
	.loc 1 821 3 is_stmt 1 view .LVU72
	.loc 1 824 3 view .LVU73
.LVL20:
.LBB54:
.LBI54:
	.loc 3 7744 26 view .LVU74
.LBB55:
	.loc 3 7746 3 view .LVU75
.LBE55:
.LBE54:
	.loc 1 815 1 is_stmt 0 view .LVU76
	mov	r3, r0
.LBB57:
.LBB56:
	.loc 3 7746 12 view .LVU77
	ldr	r0, [r0, #8]
.LVL21:
	.loc 3 7746 12 view .LVU78
.LBE56:
.LBE57:
	.loc 1 824 6 view .LVU79
	ands	r0, r0, #1
	beq	.L20
	.loc 1 827 5 is_stmt 1 view .LVU80
.LVL22:
.LBB58:
.LBI58:
	.loc 3 7866 26 view .LVU81
.LBB59:
	.loc 3 7868 3 view .LVU82
	.loc 3 7868 12 is_stmt 0 view .LVU83
	ldr	r2, [r3, #8]
	.loc 3 7868 74 view .LVU84
	lsls	r2, r2, #29
	bpl	.L21
.LVL23:
	.loc 3 7868 74 view .LVU85
.LBE59:
.LBE58:
	.loc 1 829 7 is_stmt 1 view .LVU86
.LBB60:
.LBI60:
	.loc 3 7877 26 view .LVU87
.LBB61:
	.loc 3 7879 3 view .LVU88
	.loc 3 7879 12 is_stmt 0 view .LVU89
	ldr	r2, [r3, #8]
	.loc 3 7879 70 view .LVU90
	lsls	r6, r2, #27
	bpl	.L44
.LVL24:
.L21:
	.loc 3 7879 70 view .LVU91
.LBE61:
.LBE60:
	.loc 1 836 5 is_stmt 1 view .LVU92
.LBB62:
.LBI62:
	.loc 3 8092 26 view .LVU93
.LBB63:
	.loc 3 8094 3 view .LVU94
	.loc 3 8094 12 is_stmt 0 view .LVU95
	ldr	r2, [r3, #8]
	.loc 3 8094 76 view .LVU96
	lsls	r5, r2, #28
	bmi	.L45
.LVL25:
.L22:
	.loc 3 8094 76 view .LVU97
.LBE63:
.LBE62:
	.loc 1 845 5 is_stmt 1 view .LVU98
	.loc 1 845 24 is_stmt 0 view .LVU99
	mov	r2, #3968
	str	r2, [sp, #4]
	.loc 1 846 5 is_stmt 1 view .LVU100
.L23:
	.loc 1 846 11 view .LVU101
.LVL26:
.LBB65:
.LBI65:
	.loc 3 7877 26 view .LVU102
.LBB66:
	.loc 3 7879 3 view .LVU103
	.loc 3 7879 3 is_stmt 0 view .LVU104
.LBE66:
.LBE65:
.LBB68:
.LBI68:
	.loc 3 8103 26 is_stmt 1 view .LVU105
.LBB69:
	.loc 3 8105 3 view .LVU106
	.loc 3 8105 3 is_stmt 0 view .LVU107
.LBE69:
	.loc 3 8103 26 is_stmt 1 view .LVU108
.LBB70:
	.loc 3 8105 3 view .LVU109
.LBE70:
.LBE68:
.LBB73:
.LBB67:
	.loc 3 7879 12 is_stmt 0 view .LVU110
	ldr	r2, [r3, #8]
	.loc 3 7879 70 view .LVU111
	lsls	r0, r2, #27
	bmi	.L25
.LBE67:
.LBE73:
.LBB74:
.LBB71:
	.loc 3 8105 12 view .LVU112
	ldr	r0, [r3, #8]
	.loc 3 8105 72 view .LVU113
	ands	r0, r0, #32
	bne	.L26
.LVL27:
.L24:
	.loc 3 8105 72 view .LVU114
.LBE71:
.LBE74:
	.loc 1 861 5 is_stmt 1 view .LVU115
.LBB75:
.LBI75:
	.loc 3 5873 22 view .LVU116
.LBB76:
	.loc 3 5875 3 view .LVU117
	ldr	r2, [r3, #12]
	bic	r2, r2, #-2147483648
	bic	r2, r2, #2097152
	orr	r2, r2, #2097152
	str	r2, [r3, #12]
.LVL28:
	.loc 3 5875 3 is_stmt 0 view .LVU118
.LBE76:
.LBE75:
	.loc 1 864 5 is_stmt 1 view .LVU119
.LBB77:
.LBI77:
	.loc 3 7725 22 view .LVU120
.LBB78:
	.loc 3 7730 3 view .LVU121
	ldr	r2, [r3, #8]
	bic	r2, r2, #-2147483648
	bic	r2, r2, #63
.LBE78:
.LBE77:
	.loc 1 867 24 is_stmt 0 view .LVU122
	mov	r1, #3968
.LBB80:
.LBB79:
	.loc 3 7730 3 view .LVU123
	orr	r2, r2, #2
	str	r2, [r3, #8]
.LVL29:
	.loc 3 7730 3 view .LVU124
.LBE79:
.LBE80:
	.loc 1 867 5 is_stmt 1 view .LVU125
	.loc 1 867 24 is_stmt 0 view .LVU126
	str	r1, [sp, #4]
	.loc 1 868 5 is_stmt 1 view .LVU127
.L27:
	.loc 1 868 11 view .LVU128
.LVL30:
.LBB81:
.LBI81:
	.loc 3 7755 26 view .LVU129
.LBB82:
	.loc 3 7757 3 view .LVU130
	.loc 3 7757 3 is_stmt 0 view .LVU131
.LBE82:
.LBE81:
	.loc 1 870 7 is_stmt 1 view .LVU132
.LBB84:
.LBB83:
	.loc 3 7757 12 is_stmt 0 view .LVU133
	ldr	r2, [r3, #8]
	.loc 3 7757 70 view .LVU134
	lsls	r1, r2, #30
	bmi	.L46
.LVL31:
.L20:
	.loc 3 7757 70 view .LVU135
.LBE83:
.LBE84:
	.loc 1 881 3 is_stmt 1 view .LVU136
	.loc 1 881 7 is_stmt 0 view .LVU137
	ldr	r2, [r3, #8]
	.loc 1 881 6 view .LVU138
	lsls	r2, r2, #26
	bne	.L31
	.loc 1 889 5 is_stmt 1 view .LVU139
	ldr	r2, [r3, #4]
	.loc 1 945 5 is_stmt 0 view .LVU140
	ldr	r1, .L47
	.loc 1 953 5 view .LVU141
	ldr	r5, .L47+4
	.loc 1 997 5 view .LVU142
	ldr	r6, .L47+8
	.loc 1 889 5 view .LVU143
	bic	r2, r2, #2040
	bic	r2, r2, #7
	str	r2, [r3, #4]
	.loc 1 905 5 is_stmt 1 view .LVU144
	ldr	r2, [r3]
	mvn	r2, r2, lsr #11
	mvn	r2, r2, lsl #11
	str	r2, [r3]
	.loc 1 930 5 view .LVU145
	ldr	r2, [r3, #8]
	bic	r2, r2, #1342177280
	str	r2, [r3, #8]
	.loc 1 931 5 view .LVU146
	ldr	r4, [r3, #8]
	orr	r4, r4, #536870912
	str	r4, [r3, #8]
	.loc 1 934 5 view .LVU147
	ldr	r2, [r3, #12]
	.loc 1 967 5 is_stmt 0 view .LVU148
	ldr	r4, .L47+12
	.loc 1 934 5 view .LVU149
	and	r2, r2, #4
	orr	r2, r2, #-2147483648
	str	r2, [r3, #12]
	.loc 1 945 5 is_stmt 1 view .LVU150
	ldr	r2, [r3, #16]
	ands	r2, r2, r1
	str	r2, [r3, #16]
	.loc 1 953 5 view .LVU151
	ldr	r1, [r3, #20]
	ands	r1, r1, r5
	str	r1, [r3, #20]
	.loc 1 960 5 view .LVU152
	ldr	r1, [r3, #24]
	.loc 1 982 5 is_stmt 0 view .LVU153
	ldr	r5, .L47+16
	.loc 1 960 5 view .LVU154
	and	r1, r1, #-134217728
	str	r1, [r3, #24]
	.loc 1 967 5 is_stmt 1 view .LVU155
	ldr	r2, [r3, #32]
	ands	r2, r2, r4
	orr	r2, r2, #267386880
	orr	r2, r2, #983040
	str	r2, [r3, #32]
	.loc 1 970 5 view .LVU156
	ldr	r2, [r3, #36]
	.loc 1 976 5 is_stmt 0 view .LVU157
	ldr	r4, .L47+20
	.loc 1 970 5 view .LVU158
	and	r2, r2, #-16711936
	orr	r2, r2, #16711680
	str	r2, [r3, #36]
	.loc 1 973 5 is_stmt 1 view .LVU159
	ldr	r2, [r3, #40]
	and	r2, r2, #-16711936
	orr	r2, r2, #16711680
	str	r2, [r3, #40]
	.loc 1 976 5 view .LVU160
	ldr	r2, [r3, #48]
	ands	r4, r4, r2
	str	r4, [r3, #48]
	.loc 1 982 5 view .LVU161
	ldr	r4, [r3, #52]
	ands	r4, r4, r5
	str	r4, [r3, #52]
	.loc 1 988 5 view .LVU162
	ldr	r1, [r3, #56]
	.loc 1 1024 5 is_stmt 0 view .LVU163
	ldr	r4, .L47+24
	.loc 1 988 5 view .LVU164
	ands	r1, r1, r5
	str	r1, [r3, #56]
	.loc 1 994 5 is_stmt 1 view .LVU165
	ldr	r2, [r3, #60]
	.loc 1 1008 5 is_stmt 0 view .LVU166
	ldr	r1, .L47+28
	.loc 1 994 5 view .LVU167
	bic	r2, r2, #2008
	bic	r2, r2, #7
	str	r2, [r3, #60]
	.loc 1 997 5 is_stmt 1 view .LVU168
	ldr	r2, [r3, #76]
	ands	r2, r2, r6
	str	r2, [r3, #76]
	.loc 1 1008 5 view .LVU169
	ldr	r2, [r3, #96]
	ands	r2, r2, r1
	str	r2, [r3, #96]
	.loc 1 1011 5 view .LVU170
	ldr	r2, [r3, #100]
	ands	r2, r2, r1
	str	r2, [r3, #100]
	.loc 1 1014 5 view .LVU171
	ldr	r2, [r3, #104]
	ands	r2, r2, r1
	str	r2, [r3, #104]
	.loc 1 1017 5 view .LVU172
	ldr	r2, [r3, #108]
	ands	r1, r1, r2
	str	r1, [r3, #108]
	.loc 1 1024 5 view .LVU173
	ldr	r2, [r3, #160]
	ands	r2, r2, r4
	str	r2, [r3, #160]
	.loc 1 1027 5 view .LVU174
	ldr	r2, [r3, #164]
	ands	r2, r2, r4
	str	r2, [r3, #164]
	.loc 1 1030 5 view .LVU175
	ldr	r2, [r3, #176]
	ands	r2, r2, r4
	str	r2, [r3, #176]
	.loc 1 1033 5 view .LVU176
	ldr	r2, [r3, #180]
	bic	r2, r2, #8323199
	str	r2, [r3, #180]
	.loc 1 1036 5 view .LVU177
	ldr	r2, [r3, #192]
	bic	r2, r2, #16320
	bic	r2, r2, #63
	str	r2, [r3, #192]
	.loc 1 1053 1 is_stmt 0 view .LVU178
	add	sp, sp, #12
.LCFI6:
	.cfi_remember_state
	.cfi_def_cfa_offset 12
	@ sp needed
	pop	{r4, r5, r6}
.LCFI7:
	.cfi_restore 6
	.cfi_restore 5
	.cfi_restore 4
	.cfi_def_cfa_offset 0
	bx	lr
.LVL32:
.L25:
.LCFI8:
	.cfi_restore_state
.LBB85:
.LBB72:
	.loc 3 8105 12 view .LVU179
	ldr	r2, [r3, #8]
.L26:
.LVL33:
	.loc 3 8105 12 view .LVU180
.LBE72:
.LBE85:
	.loc 1 849 7 is_stmt 1 view .LVU181
	.loc 1 849 25 is_stmt 0 view .LVU182
	ldr	r2, [sp, #4]
	subs	r2, r2, #1
	str	r2, [sp, #4]
	.loc 1 850 7 is_stmt 1 view .LVU183
	.loc 1 850 30 is_stmt 0 view .LVU184
	ldr	r2, [sp, #4]
	.loc 1 850 10 view .LVU185
	cmp	r2, #0
	bne	.L23
	.loc 1 853 16 view .LVU186
	movs	r0, #1
	b	.L24
.LVL34:
.L31:
	.loc 1 1049 12 view .LVU187
	movs	r0, #1
.LVL35:
	.loc 1 1052 3 is_stmt 1 view .LVU188
	.loc 1 1053 1 is_stmt 0 view .LVU189
	add	sp, sp, #12
.LCFI9:
	.cfi_remember_state
	.cfi_def_cfa_offset 12
	@ sp needed
	pop	{r4, r5, r6}
.LCFI10:
	.cfi_restore 6
	.cfi_restore 5
	.cfi_restore 4
	.cfi_def_cfa_offset 0
	bx	lr
.LVL36:
.L46:
.LCFI11:
	.cfi_restore_state
	.loc 1 870 25 view .LVU190
	ldr	r2, [sp, #4]
	subs	r2, r2, #1
	str	r2, [sp, #4]
	.loc 1 871 7 is_stmt 1 view .LVU191
	.loc 1 871 30 is_stmt 0 view .LVU192
	ldr	r2, [sp, #4]
	.loc 1 871 10 view .LVU193
	cmp	r2, #0
	bne	.L27
	.loc 1 874 16 view .LVU194
	movs	r0, #1
.LVL37:
	.loc 1 874 16 view .LVU195
	b	.L20
.LVL38:
.L45:
	.loc 1 838 7 is_stmt 1 view .LVU196
.LBB86:
.LBI86:
	.loc 3 8103 26 view .LVU197
.LBB87:
	.loc 3 8105 3 view .LVU198
	.loc 3 8105 12 is_stmt 0 view .LVU199
	ldr	r2, [r3, #8]
	.loc 3 8105 72 view .LVU200
	lsls	r4, r2, #26
	bmi	.L22
.LVL39:
	.loc 3 8105 72 view .LVU201
.LBE87:
.LBE86:
	.loc 1 840 9 is_stmt 1 view .LVU202
.LBB88:
.LBI88:
	.loc 3 8076 22 view .LVU203
.LBB89:
	.loc 3 8081 3 view .LVU204
	ldr	r2, [r3, #8]
	bic	r2, r2, #-2147483648
	bic	r2, r2, #63
	orr	r2, r2, #32
	str	r2, [r3, #8]
	.loc 3 8084 1 is_stmt 0 view .LVU205
	b	.L22
.LVL40:
.L44:
	.loc 3 8084 1 view .LVU206
.LBE89:
.LBE88:
	.loc 1 831 9 is_stmt 1 view .LVU207
.LBB90:
.LBI90:
	.loc 3 7850 22 view .LVU208
.LBB91:
	.loc 3 7855 3 view .LVU209
	ldr	r2, [r3, #8]
	bic	r2, r2, #-2147483648
	bic	r2, r2, #63
	orr	r2, r2, #16
	str	r2, [r3, #8]
.LVL41:
	.loc 3 7855 3 is_stmt 0 view .LVU210
.LBE91:
.LBE90:
	.loc 1 836 5 is_stmt 1 view .LVU211
.LBB92:
	.loc 3 8092 26 view .LVU212
.LBB64:
	.loc 3 8094 3 view .LVU213
	.loc 3 8094 12 is_stmt 0 view .LVU214
	ldr	r2, [r3, #8]
	.loc 3 8094 76 view .LVU215
	lsls	r5, r2, #28
	bpl	.L22
	b	.L45
.L48:
	.align	2
.L47:
	.word	-234948608
	.word	-1073741817
	.word	68173824
	.word	-268402688
	.word	-528349152
	.word	-528349136
	.word	-524288
	.word	16773120
.LBE64:
.LBE92:
	.cfi_endproc
.LFE374:
	.size	LL_ADC_DeInit, .-LL_ADC_DeInit
	.section	.text.LL_ADC_Init,"ax",%progbits
	.align	1
	.p2align 2,,3
	.global	LL_ADC_Init
	.syntax unified
	.thumb
	.thumb_func
	.fpu fpv4-sp-d16
	.type	LL_ADC_Init, %function
LL_ADC_Init:
.LVL42:
.LFB375:
	.loc 1 1089 1 is_stmt 1 view -0
	.cfi_startproc
	@ args = 0, pretend = 0, frame = 0
	@ frame_needed = 0, uses_anonymous_args = 0
	@ link register save eliminated.
	.loc 1 1090 3 view .LVU217
	.loc 1 1093 3 view .LVU218
	.loc 1 1095 3 view .LVU219
	.loc 1 1096 3 view .LVU220
	.loc 1 1097 3 view .LVU221
	.loc 1 1101 3 view .LVU222
.LBB93:
.LBI93:
	.loc 3 7744 26 view .LVU223
.LBB94:
	.loc 3 7746 3 view .LVU224
	.loc 3 7746 12 is_stmt 0 view .LVU225
	ldr	r3, [r0, #8]
.LVL43:
	.loc 3 7746 12 view .LVU226
.LBE94:
.LBE93:
	.loc 1 1101 6 view .LVU227
	ands	r3, r3, #1
	bne	.L51
	.loc 1 1108 5 is_stmt 1 view .LVU228
	mov	r2, r0
	ldr	r0, [r0, #12]
.LVL44:
	.loc 1 1089 1 is_stmt 0 view .LVU229
	push	{r4}
.LCFI12:
	.cfi_def_cfa_offset 4
	.cfi_offset 4, -4
	.loc 1 1108 5 view .LVU230
	bic	ip, r0, #49152
	.loc 1 1090 15 view .LVU231
	mov	r0, r3
	.loc 1 1108 5 view .LVU232
	ldrd	r4, r3, [r1]
	ldr	r1, [r1, #8]
.LVL45:
	.loc 1 1108 5 view .LVU233
	orrs	r3, r3, r4
	bic	ip, ip, #24
	orrs	r3, r3, r1
	orr	r3, r3, ip
	.loc 1 1126 1 view .LVU234
	ldr	r4, [sp], #4
.LCFI13:
	.cfi_restore 4
	.cfi_def_cfa_offset 0
	.loc 1 1108 5 view .LVU235
	str	r3, [r2, #12]
.LVL46:
	.loc 1 1125 3 is_stmt 1 view .LVU236
	.loc 1 1126 1 is_stmt 0 view .LVU237
	bx	lr
.LVL47:
.L51:
	.loc 1 1122 12 view .LVU238
	movs	r0, #1
.LVL48:
	.loc 1 1125 3 is_stmt 1 view .LVU239
	.loc 1 1126 1 is_stmt 0 view .LVU240
	bx	lr
	.cfi_endproc
.LFE375:
	.size	LL_ADC_Init, .-LL_ADC_Init
	.section	.text.LL_ADC_StructInit,"ax",%progbits
	.align	1
	.p2align 2,,3
	.global	LL_ADC_StructInit
	.syntax unified
	.thumb
	.thumb_func
	.fpu fpv4-sp-d16
	.type	LL_ADC_StructInit, %function
LL_ADC_StructInit:
.LVL49:
.LFB376:
	.loc 1 1135 1 is_stmt 1 view -0
	.cfi_startproc
	@ args = 0, pretend = 0, frame = 0
	@ frame_needed = 0, uses_anonymous_args = 0
	@ link register save eliminated.
	.loc 1 1138 3 view .LVU242
	.loc 1 1138 34 is_stmt 0 view .LVU243
	movs	r3, #0
	.loc 1 1139 34 view .LVU244
	strd	r3, r3, [r0]
	.loc 1 1140 3 is_stmt 1 view .LVU245
	.loc 1 1140 34 is_stmt 0 view .LVU246
	str	r3, [r0, #8]
	.loc 1 1142 1 view .LVU247
	bx	lr
	.cfi_endproc
.LFE376:
	.size	LL_ADC_StructInit, .-LL_ADC_StructInit
	.section	.text.LL_ADC_REG_Init,"ax",%progbits
	.align	1
	.p2align 2,,3
	.global	LL_ADC_REG_Init
	.syntax unified
	.thumb
	.thumb_func
	.fpu fpv4-sp-d16
	.type	LL_ADC_REG_Init, %function
LL_ADC_REG_Init:
.LVL50:
.LFB377:
	.loc 1 1177 1 is_stmt 1 view -0
	.cfi_startproc
	@ args = 0, pretend = 0, frame = 0
	@ frame_needed = 0, uses_anonymous_args = 0
	@ link register save eliminated.
	.loc 1 1178 3 view .LVU249
	.loc 1 1181 3 view .LVU250
	.loc 1 1182 3 view .LVU251
	.loc 1 1183 3 view .LVU252
	.loc 1 1184 3 view .LVU253
.LBB95:
.LBB96:
	.loc 3 7746 12 is_stmt 0 view .LVU254
	ldr	r2, [r0, #8]
.LBE96:
.LBE95:
	.loc 1 1186 5 is_stmt 1 view .LVU255
	.loc 1 1190 5 view .LVU256
	.loc 1 1193 3 view .LVU257
	.loc 1 1194 3 view .LVU258
	.loc 1 1195 3 view .LVU259
	.loc 1 1199 3 view .LVU260
.LVL51:
.LBB98:
.LBI95:
	.loc 3 7744 26 view .LVU261
.LBB97:
	.loc 3 7746 3 view .LVU262
	.loc 3 7746 3 is_stmt 0 view .LVU263
.LBE97:
.LBE98:
	.loc 1 1199 6 view .LVU264
	lsls	r3, r2, #31
	bmi	.L61
	.loc 1 1177 1 view .LVU265
	push	{r4, r5}
.LCFI14:
	.cfi_def_cfa_offset 8
	.cfi_offset 4, -8
	.cfi_offset 5, -4
	.loc 1 1184 25 view .LVU266
	ldr	r4, [r1, #4]
	.loc 1 1212 5 is_stmt 1 view .LVU267
	mov	r3, r0
	.loc 1 1212 8 is_stmt 0 view .LVU268
	cbnz	r4, .L66
	.loc 1 1233 7 is_stmt 1 view .LVU269
	ldr	r2, [r0, #12]
	ldr	r0, .L67
.LVL52:
	.loc 1 1233 7 is_stmt 0 view .LVU270
	ands	r0, r0, r2
	ldr	r2, [r1]
	orrs	r0, r0, r2
	ldr	r2, [r1, #12]
	orrs	r0, r0, r2
	ldrd	r5, r2, [r1, #16]
	orr	r1, r0, r5
.LVL53:
	.loc 1 1233 7 view .LVU271
	orrs	r1, r1, r2
	str	r1, [r3, #12]
.L60:
	.loc 1 1252 5 is_stmt 1 view .LVU272
.LVL54:
.LBB99:
.LBI99:
	.loc 3 4828 22 view .LVU273
.LBB100:
	.loc 3 4830 3 view .LVU274
	ldr	r2, [r3, #48]
	bic	r2, r2, #15
	orrs	r2, r2, r4
.LBE100:
.LBE99:
	.loc 1 1178 15 is_stmt 0 view .LVU275
	movs	r0, #0
	.loc 1 1260 1 view .LVU276
	pop	{r4, r5}
.LCFI15:
	.cfi_restore 5
	.cfi_restore 4
	.cfi_def_cfa_offset 0
.LBB102:
.LBB101:
	.loc 3 4830 3 view .LVU277
	str	r2, [r3, #48]
.LVL55:
	.loc 3 4830 3 view .LVU278
.LBE101:
.LBE102:
	.loc 1 1259 3 is_stmt 1 view .LVU279
	.loc 1 1260 1 is_stmt 0 view .LVU280
	bx	lr
.LVL56:
.L61:
	.loc 1 1257 12 view .LVU281
	movs	r0, #1
.LVL57:
	.loc 1 1259 3 is_stmt 1 view .LVU282
	.loc 1 1260 1 is_stmt 0 view .LVU283
	bx	lr
.LVL58:
.L66:
.LCFI16:
	.cfi_def_cfa_offset 8
	.cfi_offset 4, -8
	.cfi_offset 5, -4
	.loc 1 1214 7 is_stmt 1 view .LVU284
	ldr	r0, [r0, #12]
.LVL59:
	.loc 1 1214 7 is_stmt 0 view .LVU285
	ldr	r2, .L67
	ands	r2, r2, r0
	ldr	r0, [r1]
	orrs	r2, r2, r0
	ldr	r0, [r1, #8]
	orrs	r2, r2, r0
	ldr	r0, [r1, #12]
	orrs	r2, r2, r0
	ldrd	r0, r1, [r1, #16]
.LVL60:
	.loc 1 1214 7 view .LVU286
	orrs	r2, r2, r0
	orrs	r2, r2, r1
	str	r2, [r3, #12]
	b	.L60
.L68:
	.align	2
.L67:
	.word	-999396
	.cfi_endproc
.LFE377:
	.size	LL_ADC_REG_Init, .-LL_ADC_REG_Init
	.section	.text.LL_ADC_REG_StructInit,"ax",%progbits
	.align	1
	.p2align 2,,3
	.global	LL_ADC_REG_StructInit
	.syntax unified
	.thumb
	.thumb_func
	.fpu fpv4-sp-d16
	.type	LL_ADC_REG_StructInit, %function
LL_ADC_REG_StructInit:
.LVL61:
.LFB378:
	.loc 1 1269 1 is_stmt 1 view -0
	.cfi_startproc
	@ args = 0, pretend = 0, frame = 0
	@ frame_needed = 0, uses_anonymous_args = 0
	@ link register save eliminated.
	.loc 1 1274 3 view .LVU288
	.loc 1 1274 40 is_stmt 0 view .LVU289
	movs	r3, #0
	.loc 1 1279 40 view .LVU290
	mov	r2, #4096
	.loc 1 1275 40 view .LVU291
	strd	r3, r3, [r0]
	.loc 1 1276 3 is_stmt 1 view .LVU292
	.loc 1 1277 40 is_stmt 0 view .LVU293
	strd	r3, r3, [r0, #8]
	.loc 1 1278 3 is_stmt 1 view .LVU294
	.loc 1 1279 40 is_stmt 0 view .LVU295
	strd	r3, r2, [r0, #16]
	.loc 1 1280 1 view .LVU296
	bx	lr
	.cfi_endproc
.LFE378:
	.size	LL_ADC_REG_StructInit, .-LL_ADC_REG_StructInit
	.section	.text.LL_ADC_INJ_Init,"ax",%progbits
	.align	1
	.p2align 2,,3
	.global	LL_ADC_INJ_Init
	.syntax unified
	.thumb
	.thumb_func
	.fpu fpv4-sp-d16
	.type	LL_ADC_INJ_Init, %function
LL_ADC_INJ_Init:
.LVL62:
.LFB379:
	.loc 1 1321 1 is_stmt 1 view -0
	.cfi_startproc
	@ args = 0, pretend = 0, frame = 0
	@ frame_needed = 0, uses_anonymous_args = 0
	@ link register save eliminated.
	.loc 1 1322 3 view .LVU298
	.loc 1 1325 3 view .LVU299
	.loc 1 1326 3 view .LVU300
	.loc 1 1327 3 view .LVU301
	.loc 1 1328 3 view .LVU302
	.loc 1 1330 5 view .LVU303
	.loc 1 1332 3 view .LVU304
	.loc 1 1336 3 view .LVU305
.LBB103:
.LBI103:
	.loc 3 7744 26 view .LVU306
.LBB104:
	.loc 3 7746 3 view .LVU307
	.loc 3 7746 12 is_stmt 0 view .LVU308
	ldr	r3, [r0, #8]
.LVL63:
	.loc 3 7746 12 view .LVU309
.LBE104:
.LBE103:
	.loc 1 1336 6 view .LVU310
	lsls	r3, r3, #31
	bmi	.L74
	.loc 1 1321 1 view .LVU311
	push	{r4}
.LCFI17:
	.cfi_def_cfa_offset 4
	.cfi_offset 4, -4
	.loc 1 1328 25 view .LVU312
	ldr	r4, [r1, #4]
	.loc 1 1347 5 is_stmt 1 view .LVU313
	.loc 1 1347 8 is_stmt 0 view .LVU314
	cbnz	r4, .L79
	.loc 1 1359 7 is_stmt 1 view .LVU315
	ldr	r3, [r0, #12]
	ldr	r2, [r1, #12]
	bic	r3, r3, #34603008
	orrs	r3, r3, r2
	str	r3, [r0, #12]
.L73:
	.loc 1 1368 5 view .LVU316
	ldr	r3, [r0, #76]
	ldr	r1, [r1]
.LVL64:
	.loc 1 1368 5 is_stmt 0 view .LVU317
	bic	r3, r3, #510
	bic	r3, r3, #1
	orrs	r3, r3, r4
	orrs	r3, r3, r1
	str	r3, [r0, #76]
	.loc 1 1383 1 view .LVU318
	ldr	r4, [sp], #4
.LCFI18:
	.cfi_restore 4
	.cfi_def_cfa_offset 0
	.loc 1 1322 15 view .LVU319
	movs	r0, #0
.LVL65:
	.loc 1 1382 3 is_stmt 1 view .LVU320
	.loc 1 1383 1 is_stmt 0 view .LVU321
	bx	lr
.LVL66:
.L74:
	.loc 1 1380 12 view .LVU322
	movs	r0, #1
.LVL67:
	.loc 1 1382 3 is_stmt 1 view .LVU323
	.loc 1 1383 1 is_stmt 0 view .LVU324
	bx	lr
.LVL68:
.L79:
.LCFI19:
	.cfi_def_cfa_offset 4
	.cfi_offset 4, -4
	.loc 1 1349 7 is_stmt 1 view .LVU325
	ldr	r2, [r0, #12]
	ldr	r3, [r1, #8]
	bic	r2, r2, #34603008
	orrs	r2, r2, r3
	ldr	r3, [r1, #12]
	orrs	r2, r2, r3
	str	r2, [r0, #12]
	b	.L73
	.cfi_endproc
.LFE379:
	.size	LL_ADC_INJ_Init, .-LL_ADC_INJ_Init
	.section	.text.LL_ADC_INJ_StructInit,"ax",%progbits
	.align	1
	.p2align 2,,3
	.global	LL_ADC_INJ_StructInit
	.syntax unified
	.thumb
	.thumb_func
	.fpu fpv4-sp-d16
	.type	LL_ADC_INJ_StructInit, %function
LL_ADC_INJ_StructInit:
.LVL69:
.LFB380:
	.loc 1 1392 1 view -0
	.cfi_startproc
	@ args = 0, pretend = 0, frame = 0
	@ frame_needed = 0, uses_anonymous_args = 0
	@ link register save eliminated.
	.loc 1 1395 3 view .LVU327
	.loc 1 1395 40 is_stmt 0 view .LVU328
	movs	r3, #0
	.loc 1 1396 40 view .LVU329
	strd	r3, r3, [r0]
	.loc 1 1397 3 is_stmt 1 view .LVU330
	.loc 1 1398 40 is_stmt 0 view .LVU331
	strd	r3, r3, [r0, #8]
	.loc 1 1399 1 view .LVU332
	bx	lr
	.cfi_endproc
.LFE380:
	.size	LL_ADC_INJ_StructInit, .-LL_ADC_INJ_StructInit
	.text
.Letext0:
	.file 4 "/usr/share/gcc-arm-none-eabi-10-2020-q4-major/arm-none-eabi/include/machine/_default_types.h"
	.file 5 "/usr/share/gcc-arm-none-eabi-10-2020-q4-major/arm-none-eabi/include/sys/_stdint.h"
	.file 6 "Drivers/CMSIS/Device/ST/STM32G4xx/Include/stm32g431xx.h"
	.file 7 "Drivers/CMSIS/Device/ST/STM32G4xx/Include/stm32g4xx.h"