	.cpu cortex-m4
	.eabi_attribute 27, 1
	.eabi_attribute 28, 1
	.eabi_attribute 20, 1
	.eabi_attribute 21, 1
	.eabi_attribute 23, 3
	.eabi_attribute 24, 1
	.eabi_attribute 25, 1
	.eabi_attribute 26, 1
	.eabi_attribute 30, 2
	.eabi_attribute 34, 1
	.eabi_attribute 18, 4
	.file	"tasks.c"
	.text
.Ltext0:
	.cfi_sections	.debug_frame
	.section	.text.prvIdleTask,"ax",%progbits
	.align	1
	.p2align 2,,3
	.arch armv7e-m
	.syntax unified
	.thumb
	.thumb_func
	.fpu fpv4-sp-d16
	.type	prvIdleTask, %function
prvIdleTask:
.LVL0:
.LFB36:
	.file 1 "Middlewares/Third_Party/FreeRTOS/Source/tasks.c"
	.loc 1 3393 1 view -0
	.cfi_startproc
	@ Volatile: function does not return.
	@ args = 0, pretend = 0, frame = 0
	@ frame_needed = 0, uses_anonymous_args = 0
	.loc 1 3393 1 is_stmt 0 view .LVU1
	push	{r7, lr}
.LCFI0:
	.cfi_def_cfa_offset 8
	.cfi_offset 7, -8
	.cfi_offset 14, -4
	ldr	r5, .L14
	ldr	r7, .L14+4
	ldr	r6, .L14+8
	ldr	r8, .L14+12
	.loc 1 3434 5 view .LVU2
	mov	r10, #-536813568
	mov	r9, #268435456
	b	.L12
.LVL1:
.L3:
.LBB167:
.LBB168:
	.loc 1 3652 4 is_stmt 1 view .LVU3
	bl	vPortEnterCritical
.LVL2:
	.loc 1 3654 5 view .LVU4
	.loc 1 3654 11 is_stmt 0 view .LVU5
	ldr	r3, [r7, #12]
	ldr	r4, [r3, #12]
.LVL3:
	.loc 1 3655 5 is_stmt 1 view .LVU6
	.loc 1 3655 14 is_stmt 0 view .LVU7
	adds	r0, r4, #4
	bl	uxListRemove
.LVL4:
	.loc 1 3656 5 is_stmt 1 view .LVU8
	ldr	r3, [r6]
	subs	r3, r3, #1
	str	r3, [r6]
	.loc 1 3657 5 view .LVU9
	ldr	r3, [r5]
	subs	r3, r3, #1
	str	r3, [r5]
	.loc 1 3659 4 view .LVU10
	bl	vPortExitCritical
.LVL5:
	.loc 1 3661 4 view .LVU11
.LBB169:
.LBI169:
	.loc 1 3887 14 view .LVU12
.LBB170:
	.loc 1 3892 3 view .LVU13
	.loc 1 3908 4 view .LVU14
	ldr	r0, [r4, #48]
	bl	vPortFree
.LVL6:
	.loc 1 3909 4 view .LVU15
	mov	r0, r4
	bl	vPortFree
.LVL7:
.L12:
	.loc 1 3909 4 is_stmt 0 view .LVU16
.LBE170:
.LBE169:
	.loc 1 3650 8 is_stmt 1 view .LVU17
	.loc 1 3650 39 is_stmt 0 view .LVU18
	ldr	r3, [r5]
	.loc 1 3650 8 view .LVU19
	cmp	r3, #0
	bne	.L3
.LBE168:
.LBE167:
	.loc 1 3432 4 is_stmt 1 view .LVU20
	.loc 1 3432 8 is_stmt 0 view .LVU21
	ldr	r3, [r8]
	.loc 1 3432 6 view .LVU22
	cmp	r3, #1
	bls	.L12
	.loc 1 3434 5 is_stmt 1 view .LVU23
	str	r9, [r10, #3332]
	.loc 1 3434 5 view .LVU24
	.syntax unified
@ 3434 "Middlewares/Third_Party/FreeRTOS/Source/tasks.c" 1
	dsb
@ 0 "" 2
	.loc 1 3434 5 view .LVU25
@ 3434 "Middlewares/Third_Party/FreeRTOS/Source/tasks.c" 1
	isb
@ 0 "" 2
	.loc 1 3434 16 view .LVU26
	.thumb
	.syntax unified
	b	.L12
.L15:
	.align	2
.L14:
	.word	.LANCHOR0
	.word	.LANCHOR1
	.word	.LANCHOR2
	.word	.LANCHOR3
	.cfi_endproc
.LFE36:
	.size	prvIdleTask, .-prvIdleTask
	.section	.text.prvAddCurrentTaskToDelayedList,"ax",%progbits
	.align	1
	.p2align 2,,3
	.syntax unified
	.thumb
	.thumb_func
	.fpu fpv4-sp-d16
	.type	prvAddCurrentTaskToDelayedList, %function
prvAddCurrentTaskToDelayedList:
.LVL8:
.LFB55:
	.loc 1 5178 1 view -0
	.cfi_startproc
	@ args = 0, pretend = 0, frame = 0
	@ frame_needed = 0, uses_anonymous_args = 0
	.loc 1 5178 1 is_stmt 0 view .LVU28
	push	{r3, r4, r5, r6, r7, lr}
.LCFI1:
	.cfi_def_cfa_offset 24
	.cfi_offset 3, -24
	.cfi_offset 4, -20
	.cfi_offset 5, -16
	.cfi_offset 6, -12
	.cfi_offset 7, -8
	.cfi_offset 14, -4
	.loc 1 5180 18 view .LVU29
	ldr	r3, .L28
	.loc 1 5193 35 view .LVU30
	ldr	r6, .L28+4
	.loc 1 5180 18 view .LVU31
	ldr	r4, [r3]
	.loc 1 5193 35 view .LVU32
	ldr	r3, [r6]
	.loc 1 5178 1 view .LVU33
	mov	r5, r0
	.loc 1 5193 6 view .LVU34
	adds	r0, r3, #4
.LVL9:
	.loc 1 5179 1 is_stmt 1 view .LVU35
	.loc 1 5180 1 view .LVU36
	.loc 1 5193 2 view .LVU37
	.loc 1 5178 1 is_stmt 0 view .LVU38
	mov	r7, r1
	.loc 1 5193 6 view .LVU39
	bl	uxListRemove
.LVL10:
	.loc 1 5193 4 view .LVU40
	cbnz	r0, .L17
	.loc 1 5197 3 is_stmt 1 view .LVU41
	ldr	r3, [r6]
	ldr	r1, .L28+8
	ldr	r2, [r3, #44]
	movs	r3, #1
	lsl	r2, r3, r2
	ldr	r3, [r1]
	bic	r3, r3, r2
	str	r3, [r1]
.L17:
	.loc 1 5201 27 view .LVU42
	.loc 1 5206 3 view .LVU43
	.loc 1 5206 5 is_stmt 0 view .LVU44
	adds	r3, r5, #1
	beq	.L27
.L18:
	.loc 1 5218 4 is_stmt 1 view .LVU45
	.loc 1 5221 4 is_stmt 0 view .LVU46
	ldr	r3, [r6]
	adds	r4, r4, r5
.LVL11:
	.loc 1 5221 4 is_stmt 1 view .LVU47
	str	r4, [r3, #4]
	.loc 1 5223 4 view .LVU48
	.loc 1 5223 6 is_stmt 0 view .LVU49
	bcc	.L21
.LBB173:
.LBI173:
	.loc 1 5177 13 is_stmt 1 view .LVU50
.LVL12:
.LBB174:
	.loc 1 5227 5 view .LVU51
	ldr	r3, .L28+12
	ldr	r0, [r3]
	.loc 1 5227 60 is_stmt 0 view .LVU52
	ldr	r1, [r6]
.LBE174:
.LBE173:
	.loc 1 5286 1 view .LVU53
	pop	{r3, r4, r5, r6, r7, lr}
.LCFI2:
	.cfi_remember_state
	.cfi_restore 14
	.cfi_restore 7
	.cfi_restore 6
	.cfi_restore 5
	.cfi_restore 4
	.cfi_restore 3
	.cfi_def_cfa_offset 0
.LVL13:
.LBB176:
.LBB175:
	.loc 1 5227 5 view .LVU54
	adds	r1, r1, #4
	b	vListInsert
.LVL14:
.L21:
.LCFI3:
	.cfi_restore_state
	.loc 1 5227 5 view .LVU55
.LBE175:
.LBE176:
	.loc 1 5233 5 is_stmt 1 view .LVU56
	ldr	r3, .L28+16
	ldr	r0, [r3]
	.loc 1 5233 52 is_stmt 0 view .LVU57
	ldr	r1, [r6]
	.loc 1 5233 5 view .LVU58
	adds	r1, r1, #4
	bl	vListInsert
.LVL15:
	.loc 1 5238 5 is_stmt 1 view .LVU59
	.loc 1 5238 21 is_stmt 0 view .LVU60
	ldr	r3, .L28+20
	ldr	r2, [r3]
	.loc 1 5238 7 view .LVU61
	cmp	r2, r4
	.loc 1 5240 6 is_stmt 1 view .LVU62
	.loc 1 5240 27 is_stmt 0 view .LVU63
	it	hi
	strhi	r4, [r3]
	.loc 1 5244 30 is_stmt 1 view .LVU64
	.loc 1 5286 1 is_stmt 0 view .LVU65
	pop	{r3, r4, r5, r6, r7, pc}
.LVL16:
.L27:
	.loc 1 5206 41 discriminator 1 view .LVU66
	cmp	r7, #0
	beq	.L18
	.loc 1 5211 4 is_stmt 1 view .LVU67
	.loc 1 5211 56 is_stmt 0 view .LVU68
	ldr	r1, [r6]
	.loc 1 5211 4 view .LVU69
	ldr	r0, .L28+24
	.loc 1 5286 1 view .LVU70
	pop	{r3, r4, r5, r6, r7, lr}
.LCFI4:
	.cfi_restore 14
	.cfi_restore 7
	.cfi_restore 6
	.cfi_restore 5
	.cfi_restore 4
	.cfi_restore 3
	.cfi_def_cfa_offset 0
.LVL17:
	.loc 1 5211 4 view .LVU71
	adds	r1, r1, #4
	b	vListInsertEnd
.LVL18:
.L29:
	.align	2
.L28:
	.word	.LANCHOR4
	.word	.LANCHOR5
	.word	.LANCHOR6
	.word	.LANCHOR8
	.word	.LANCHOR9
	.word	.LANCHOR10
	.word	.LANCHOR7
	.cfi_endproc
.LFE55:
	.size	prvAddCurrentTaskToDelayedList, .-prvAddCurrentTaskToDelayedList
	.section	.text.xTaskIncrementTick.part.0,"ax",%progbits
	.align	1
	.p2align 2,,3
	.syntax unified
	.thumb
	.thumb_func
	.fpu fpv4-sp-d16
	.type	xTaskIncrementTick.part.0, %function
xTaskIncrementTick.part.0:
.LFB59:
	.loc 1 2707 12 is_stmt 1 view -0
	.cfi_startproc
	@ args = 0, pretend = 0, frame = 8
	@ frame_needed = 0, uses_anonymous_args = 0
.LBB185:
	.loc 1 2721 3 view .LVU73
.LBE185:
	.loc 1 2707 12 is_stmt 0 view .LVU74
	push	{r4, r5, r6, r7, r8, r9, r10, fp, lr}
.LCFI5:
	.cfi_def_cfa_offset 36
	.cfi_offset 4, -36
	.cfi_offset 5, -32
	.cfi_offset 6, -28
	.cfi_offset 7, -24
	.cfi_offset 8, -20
	.cfi_offset 9, -16
	.cfi_offset 10, -12
	.cfi_offset 11, -8
	.cfi_offset 14, -4
.LBB194:
	.loc 1 2721 49 view .LVU75
	ldr	r3, .L54
	ldr	r5, [r3]
	.loc 1 2721 20 view .LVU76
	adds	r5, r5, #1
.LVL19:
	.loc 1 2725 3 is_stmt 1 view .LVU77
.LBE194:
	.loc 1 2707 12 is_stmt 0 view .LVU78
	sub	sp, sp, #12
.LCFI6:
	.cfi_def_cfa_offset 48
.LBB195:
	.loc 1 2725 14 view .LVU79
	str	r5, [r3]
	.loc 1 2727 3 is_stmt 1 view .LVU80
	.loc 1 2727 5 is_stmt 0 view .LVU81
	cmp	r5, #0
	beq	.L52
	ldr	r3, .L54+4
	str	r3, [sp, #4]
.L31:
	.loc 1 2733 28 is_stmt 1 view .LVU82
	.loc 1 2740 3 view .LVU83
	.loc 1 2740 23 is_stmt 0 view .LVU84
	ldr	r3, [r3]
	.loc 1 2740 5 view .LVU85
	cmp	r5, r3
	bcc	.L43
.LVL20:
	.loc 1 2742 4 is_stmt 1 view .LVU86
	.loc 1 2744 5 view .LVU87
	.loc 1 2744 9 is_stmt 0 view .LVU88
	ldr	r6, .L54+8
	ldr	r8, .L54+28
	ldr	r3, [r6]
	ldr	r9, .L54+32
	ldr	r4, [r3]
	.loc 1 2744 7 view .LVU89
	cmp	r4, #0
	beq	.L36
	.loc 1 2794 6 view .LVU90
	ldr	r7, .L54+12
.LBE195:
	.loc 1 2711 12 view .LVU91
	movs	r4, #0
.LBB196:
	.loc 1 2794 6 view .LVU92
	mov	r10, #1
	b	.L37
.LVL21:
.L38:
	.loc 1 2794 6 view .LVU93
	str	r1, [sp]
	.loc 1 2779 15 view .LVU94
	bl	uxListRemove
.LVL22:
	.loc 1 2783 6 is_stmt 1 view .LVU95
	.loc 1 2785 7 view .LVU96
	.loc 1 2783 8 is_stmt 0 view .LVU97
	ldr	r2, [fp, #40]
	ldr	r1, [sp]
	.loc 1 2785 16 view .LVU98
	add	r0, fp, #24
	.loc 1 2783 8 view .LVU99
	cbz	r2, .L39
	.loc 1 2785 16 view .LVU100
	bl	uxListRemove
.LVL23:
	ldr	r1, [sp]
.L39:
	.loc 1 2789 31 is_stmt 1 view .LVU101
	.loc 1 2794 6 view .LVU102
	.loc 1 2794 6 view .LVU103
	ldr	r0, [fp, #44]
	ldr	r3, [r7]
	lsl	r2, r10, r0
	add	r0, r0, r0, lsl #2
	orrs	r2, r2, r3
	add	r0, r8, r0, lsl #2
	str	r2, [r7]
	.loc 1 2794 6 view .LVU104
	bl	vListInsertEnd
.LVL24:
	.loc 1 2794 36 view .LVU105
	.loc 1 2804 7 view .LVU106
	.loc 1 2804 44 is_stmt 0 view .LVU107
	ldr	r2, [r9]
	.loc 1 2744 9 view .LVU108
	ldr	r0, [r6]
	.loc 1 2804 9 view .LVU109
	ldr	r1, [fp, #44]
	ldr	r2, [r2, #44]
	.loc 1 2744 9 view .LVU110
	ldr	r3, [r0]
	.loc 1 2806 24 view .LVU111
	cmp	r1, r2
	it	cs
	movcs	r4, #1
.LVL25:
	.loc 1 2742 4 is_stmt 1 view .LVU112
	.loc 1 2744 5 view .LVU113
	.loc 1 2744 7 is_stmt 0 view .LVU114
	cmp	r3, #0
	beq	.L36
.LVL26:
.L37:
	.loc 1 2760 6 is_stmt 1 view .LVU115
	.loc 1 2775 31 view .LVU116
	.loc 1 2779 6 view .LVU117
	.loc 1 2760 14 is_stmt 0 view .LVU118
	ldr	r3, [r6]
	.loc 1 2760 12 view .LVU119
	ldr	r3, [r3, #12]
	ldr	fp, [r3, #12]
.LVL27:
	.loc 1 2761 6 is_stmt 1 view .LVU120
	.loc 1 2761 17 is_stmt 0 view .LVU121
	ldr	r2, [fp, #4]
.LVL28:
	.loc 1 2763 6 is_stmt 1 view .LVU122
	.loc 1 2779 15 is_stmt 0 view .LVU123
	add	r1, fp, #4
	.loc 1 2763 8 view .LVU124
	cmp	r5, r2
	.loc 1 2779 15 view .LVU125
	mov	r0, r1
	.loc 1 2763 8 view .LVU126
	bcs	.L38
	.loc 1 2770 7 is_stmt 1 view .LVU127
	.loc 1 2770 28 is_stmt 0 view .LVU128
	ldr	r3, [sp, #4]
	str	r2, [r3]
	.loc 1 2771 7 is_stmt 1 view .LVU129
	b	.L35
.LVL29:
.L52:
.LBB186:
	.loc 1 2729 4 view .LVU130
	.loc 1 2729 4 view .LVU131
	ldr	r3, .L54+8
	ldr	r2, [r3]
	ldr	r2, [r2]
	cbz	r2, .L32
	.loc 1 2729 4 view .LVU132
.LBB187:
.LBI187:
	.file 2 "Middlewares/Third_Party/FreeRTOS/Source/portable/GCC/ARM_CM4F/portmacro.h"
	.loc 2 191 30 view .LVU133
.LBB188:
	.loc 2 193 1 view .LVU134
	.loc 2 195 2 view .LVU135
	.syntax unified
@ 195 "Middlewares/Third_Party/FreeRTOS/Source/portable/GCC/ARM_CM4F/portmacro.h" 1
		mov r3, #80												
	msr basepri, r3											
	isb														
	dsb														

@ 0 "" 2
.LVL30:
	.thumb
	.syntax unified
.L33:
	.loc 2 195 2 is_stmt 0 view .LVU136
.LBE188:
.LBE187:
	.loc 1 2729 4 is_stmt 1 view .LVU137
	.loc 1 2729 4 view .LVU138
	.loc 1 2729 4 view .LVU139
	.loc 1 2729 4 view .LVU140
	.loc 1 2729 4 view .LVU141
	.loc 1 2729 4 view .LVU142
	b	.L33
.L43:
	.loc 1 2729 4 is_stmt 0 view .LVU143
	ldr	r8, .L54+28
	ldr	r9, .L54+32
.LBE186:
.LBE196:
	.loc 1 2711 12 view .LVU144
	movs	r4, #0
.L35:
.LVL31:
.LBB197:
	.loc 1 2823 4 is_stmt 1 view .LVU145
	.loc 1 2823 8 is_stmt 0 view .LVU146
	ldr	r3, [r9]
	.loc 1 2851 22 view .LVU147
	ldr	r1, .L54+16
	.loc 1 2823 8 view .LVU148
	ldr	r3, [r3, #44]
	add	r3, r3, r3, lsl #2
	lsls	r3, r3, #2
	ldr	r2, [r8, r3]
	.loc 1 2851 22 view .LVU149
	ldr	r3, [r1]
	.loc 1 2825 21 view .LVU150
	cmp	r2, #2
	it	cs
	movcs	r4, #1
.LVL32:
	.loc 1 2829 29 is_stmt 1 view .LVU151
	.loc 1 2851 4 view .LVU152
	.loc 1 2853 21 is_stmt 0 view .LVU153
	cmp	r3, #0
.LBE197:
	.loc 1 2876 1 view .LVU154
	ite	eq
	moveq	r0, r4
	movne	r0, #1
	add	sp, sp, #12
.LCFI7:
	.cfi_remember_state
	.cfi_def_cfa_offset 36
	@ sp needed
	pop	{r4, r5, r6, r7, r8, r9, r10, fp, pc}
.LVL33:
.L32:
.LCFI8:
	.cfi_restore_state
.LBB198:
.LBB193:
	.loc 1 2729 4 is_stmt 1 view .LVU155
	.loc 1 2729 4 view .LVU156
	ldr	r2, .L54+20
	ldr	r0, [r3]
.LVL34:
	.loc 1 2729 4 view .LVU157
	ldr	r1, [r2]
	str	r1, [r3]
	.loc 1 2729 4 view .LVU158
	ldr	r1, .L54+24
	str	r0, [r2]
	.loc 1 2729 4 view .LVU159
	ldr	r2, [r1]
	adds	r2, r2, #1
	str	r2, [r1]
	.loc 1 2729 4 view .LVU160
.LBB189:
.LBI189:
	.loc 1 3943 13 view .LVU161
.LBB190:
	.loc 1 3945 1 view .LVU162
	.loc 1 3947 2 view .LVU163
	.loc 1 3947 6 is_stmt 0 view .LVU164
	ldr	r2, [r3]
	ldr	r2, [r2]
	.loc 1 3947 4 view .LVU165
	cbnz	r2, .L34
	.loc 1 3953 3 is_stmt 1 view .LVU166
	.loc 1 3953 24 is_stmt 0 view .LVU167
	ldr	r3, .L54+4
	str	r3, [sp, #4]
	mov	r2, r3
	mov	r3, #-1
	str	r3, [r2]
	mov	r3, r2
	b	.L31
.L34:
.LBB191:
.LBI191:
	.loc 1 3943 13 is_stmt 1 view .LVU168
.LBB192:
	.loc 1 3961 3 view .LVU169
	.loc 1 3961 15 is_stmt 0 view .LVU170
	ldr	r3, [r3]
.LVL35:
	.loc 1 3962 3 is_stmt 1 view .LVU171
	.loc 1 3962 24 is_stmt 0 view .LVU172
	ldr	r2, .L54+4
	.loc 1 3961 13 view .LVU173
	ldr	r3, [r3, #12]
.LVL36:
	.loc 1 3962 24 view .LVU174
	str	r2, [sp, #4]
	.loc 1 3962 26 view .LVU175
	ldr	r3, [r3, #12]
.LVL37:
	.loc 1 3962 26 view .LVU176
	ldr	r3, [r3, #4]
.LVL38:
	.loc 1 3962 24 view .LVU177
	str	r3, [r2]
	mov	r3, r2
	.loc 1 3964 1 view .LVU178
	b	.L31
.LVL39:
.L36:
	.loc 1 3964 1 view .LVU179
.LBE192:
.LBE191:
.LBE190:
.LBE189:
.LBE193:
	.loc 1 2751 6 is_stmt 1 view .LVU180
	.loc 1 2751 27 is_stmt 0 view .LVU181
	ldr	r2, [sp, #4]
	mov	r3, #-1
	str	r3, [r2]
	.loc 1 2752 6 is_stmt 1 view .LVU182
	b	.L35
.L55:
	.align	2
.L54:
	.word	.LANCHOR4
	.word	.LANCHOR10
	.word	.LANCHOR9
	.word	.LANCHOR6
	.word	.LANCHOR12
	.word	.LANCHOR8
	.word	.LANCHOR11
	.word	.LANCHOR3
	.word	.LANCHOR5
.LBE198:
	.cfi_endproc
.LFE59:
	.size	xTaskIncrementTick.part.0, .-xTaskIncrementTick.part.0
	.section	.text.xTaskResumeAll.part.0,"ax",%progbits
	.align	1
	.p2align 2,,3
	.syntax unified
	.thumb
	.thumb_func
	.fpu fpv4-sp-d16
	.type	xTaskResumeAll.part.0, %function
xTaskResumeAll.part.0:
.LFB60:
	.loc 1 2194 12 view -0
	.cfi_startproc
	@ args = 0, pretend = 0, frame = 8
	@ frame_needed = 0, uses_anonymous_args = 0
	.loc 1 2201 38 view .LVU184
	.loc 1 2208 2 view .LVU185
	.loc 1 2194 12 is_stmt 0 view .LVU186
	push	{r4, r5, r6, r7, r8, r9, r10, fp, lr}
.LCFI9:
	.cfi_def_cfa_offset 36
	.cfi_offset 4, -36
	.cfi_offset 5, -32
	.cfi_offset 6, -28
	.cfi_offset 7, -24
	.cfi_offset 8, -20
	.cfi_offset 9, -16
	.cfi_offset 10, -12
	.cfi_offset 11, -8
	.cfi_offset 14, -4
	.loc 1 2210 3 view .LVU187
	ldr	r4, .L92
	.loc 1 2194 12 view .LVU188
	sub	sp, sp, #12
.LCFI10:
	.cfi_def_cfa_offset 48
	.loc 1 2208 2 view .LVU189
	bl	vPortEnterCritical
.LVL40:
	.loc 1 2210 3 is_stmt 1 view .LVU190
	ldr	r3, [r4]
	subs	r3, r3, #1
	str	r3, [r4]
	.loc 1 2212 3 view .LVU191
	.loc 1 2212 28 is_stmt 0 view .LVU192
	ldr	r3, [r4]
	.loc 1 2212 5 view .LVU193
	cmp	r3, #0
	bne	.L59
	.loc 1 2214 4 is_stmt 1 view .LVU194
	.loc 1 2214 31 is_stmt 0 view .LVU195
	ldr	r3, .L92+4
	ldr	r3, [r3]
	.loc 1 2214 6 view .LVU196
	cmp	r3, #0
	beq	.L59
.LVL41:
	.loc 1 2233 31 is_stmt 1 view .LVU197
	.loc 1 2218 10 view .LVU198
	.loc 1 2218 12 is_stmt 0 view .LVU199
	ldr	fp, .L92+32
	ldr	r3, [fp]
	.loc 1 2218 10 view .LVU200
	cmp	r3, #0
	beq	.L88
	ldr	r3, .L92+8
	ldr	r5, .L92+12
	ldr	r8, .L92+36
	ldr	r7, .L92+16
	str	r3, [sp, #4]
	.loc 1 2223 6 view .LVU201
	movs	r6, #1
.LVL42:
.L64:
	.loc 1 2220 6 is_stmt 1 view .LVU202
	.loc 1 2220 12 is_stmt 0 view .LVU203
	ldr	r3, [fp, #12]
	ldr	r10, [r3, #12]
.LVL43:
	.loc 1 2221 6 is_stmt 1 view .LVU204
	.loc 1 2222 15 is_stmt 0 view .LVU205
	add	r9, r10, #4
	.loc 1 2221 15 view .LVU206
	add	r0, r10, #24
	bl	uxListRemove
.LVL44:
	.loc 1 2222 6 is_stmt 1 view .LVU207
	.loc 1 2222 15 is_stmt 0 view .LVU208
	mov	r0, r9
	bl	uxListRemove
.LVL45:
	.loc 1 2223 6 is_stmt 1 view .LVU209
	.loc 1 2223 6 view .LVU210
	ldr	r0, [r10, #44]
	ldr	r2, [r5]
	lsl	r3, r6, r0
	add	r0, r0, r0, lsl #2
	orrs	r3, r3, r2
	mov	r1, r9
	add	r0, r8, r0, lsl #2
	str	r3, [r5]
	.loc 1 2223 6 view .LVU211
	bl	vListInsertEnd
.LVL46:
	.loc 1 2223 36 view .LVU212
	.loc 1 2227 6 view .LVU213
	.loc 1 2229 7 view .LVU214
	.loc 1 2233 31 view .LVU215
	.loc 1 2218 10 view .LVU216
	.loc 1 2227 43 is_stmt 0 view .LVU217
	ldr	r3, [r7]
	.loc 1 2227 8 view .LVU218
	ldr	r2, [r10, #44]
	ldr	r3, [r3, #44]
	cmp	r2, r3
	bcc	.L61
	.loc 1 2229 21 view .LVU219
	ldr	r3, [sp, #4]
	str	r6, [r3]
	.loc 1 2233 31 is_stmt 1 view .LVU220
	.loc 1 2218 10 view .LVU221
	.loc 1 2218 12 is_stmt 0 view .LVU222
	ldr	r3, [fp]
	.loc 1 2218 10 view .LVU223
	cmp	r3, #0
	bne	.L64
	.loc 1 2237 5 is_stmt 1 view .LVU224
	.loc 1 2245 6 view .LVU225
.LBB208:
.LBI208:
	.loc 1 3943 13 view .LVU226
.LBB209:
	.loc 1 3945 1 view .LVU227
	.loc 1 3947 2 view .LVU228
	.loc 1 3947 6 is_stmt 0 view .LVU229
	ldr	r3, .L92+20
	ldr	r2, [r3]
	ldr	r2, [r2]
	.loc 1 3947 4 view .LVU230
	cmp	r2, #0
	beq	.L89
.L65:
.LBB210:
.LBI210:
	.loc 1 3943 13 is_stmt 1 view .LVU231
.LBB211:
	.loc 1 3961 3 view .LVU232
	.loc 1 3961 15 is_stmt 0 view .LVU233
	ldr	r2, [r3]
.LVL47:
	.loc 1 3962 3 is_stmt 1 view .LVU234
	.loc 1 3962 24 is_stmt 0 view .LVU235
	ldr	r3, .L92+24
	.loc 1 3961 13 view .LVU236
	ldr	r2, [r2, #12]
.LVL48:
	.loc 1 3962 26 view .LVU237
	ldr	r2, [r2, #12]
.LVL49:
	.loc 1 3962 26 view .LVU238
	ldr	r2, [r2, #4]
.LVL50:
	.loc 1 3962 24 view .LVU239
	str	r2, [r3]
.LVL51:
.L60:
	.loc 1 3962 24 view .LVU240
.LBE211:
.LBE210:
.LBE209:
.LBE208:
.LBB213:
	.loc 1 2253 6 is_stmt 1 view .LVU241
	.loc 1 2253 17 is_stmt 0 view .LVU242
	ldr	r6, .L92+28
	ldr	r5, [r6]
.LVL52:
	.loc 1 2255 6 is_stmt 1 view .LVU243
	.loc 1 2255 8 is_stmt 0 view .LVU244
	cbz	r5, .L66
	.loc 1 2261 23 view .LVU245
	movs	r7, #1
	b	.L70
.LVL53:
.L91:
.LBB214:
.LBB215:
	.loc 1 2261 23 view .LVU246
	bl	xTaskIncrementTick.part.0
.LVL54:
.LBE215:
.LBE214:
	.loc 1 2261 9 is_stmt 1 view .LVU247
.LBB219:
.LBB216:
	.loc 1 2875 2 view .LVU248
	.loc 1 2875 2 is_stmt 0 view .LVU249
.LBE216:
.LBE219:
	.loc 1 2259 10 view .LVU250
	cbz	r0, .L69
	.loc 1 2261 23 view .LVU251
	ldr	r3, [sp, #4]
	str	r7, [r3]
.L69:
	.loc 1 2265 33 is_stmt 1 view .LVU252
	.loc 1 2267 8 view .LVU253
.LVL55:
	.loc 1 2268 14 view .LVU254
	.loc 1 2268 7 is_stmt 0 view .LVU255
	subs	r5, r5, #1
.LVL56:
	.loc 1 2268 7 view .LVU256
	beq	.L90
.LVL57:
.L70:
	.loc 1 2257 7 is_stmt 1 view .LVU257
	.loc 1 2259 8 view .LVU258
.LBB220:
.LBI214:
	.loc 1 2707 12 view .LVU259
.LBB217:
	.loc 1 2709 1 view .LVU260
	.loc 1 2710 1 view .LVU261
	.loc 1 2711 1 view .LVU262
	.loc 1 2716 40 view .LVU263
	.loc 1 2717 2 view .LVU264
	.loc 1 2864 3 view .LVU265
	.loc 1 2717 27 is_stmt 0 view .LVU266
	ldr	r3, [r4]
	.loc 1 2717 4 view .LVU267
	cmp	r3, #0
	beq	.L91
	.loc 1 2864 3 view .LVU268
	ldr	r3, [r6]
.LBE217:
.LBE220:
	.loc 1 2268 7 view .LVU269
	subs	r5, r5, #1
.LVL58:
.LBB221:
.LBB218:
	.loc 1 2864 3 view .LVU270
	add	r3, r3, #1
	str	r3, [r6]
	.loc 1 2875 2 is_stmt 1 view .LVU271
.LVL59:
	.loc 1 2875 2 is_stmt 0 view .LVU272
.LBE218:
.LBE221:
	.loc 1 2265 33 is_stmt 1 view .LVU273
	.loc 1 2267 8 view .LVU274
	.loc 1 2268 14 view .LVU275
	.loc 1 2268 7 is_stmt 0 view .LVU276
	bne	.L70
.L90:
	.loc 1 2270 7 is_stmt 1 view .LVU277
	.loc 1 2270 20 is_stmt 0 view .LVU278
	str	r5, [r6]
.L66:
	.loc 1 2274 31 is_stmt 1 view .LVU279
.LBE213:
	.loc 1 2278 5 view .LVU280
	.loc 1 2278 23 is_stmt 0 view .LVU281
	ldr	r3, [sp, #4]
	ldr	r3, [r3]
	.loc 1 2278 7 view .LVU282
	cbz	r3, .L59
	.loc 1 2282 7 is_stmt 1 view .LVU283
.LVL60:
	.loc 1 2285 6 view .LVU284
	mov	r3, #-536813568
	mov	r2, #268435456
	str	r2, [r3, #3332]
	.loc 1 2285 6 view .LVU285
	.syntax unified
@ 2285 "Middlewares/Third_Party/FreeRTOS/Source/tasks.c" 1
	dsb
@ 0 "" 2
	.loc 1 2285 6 view .LVU286
@ 2285 "Middlewares/Third_Party/FreeRTOS/Source/tasks.c" 1
	isb
@ 0 "" 2
	.loc 1 2285 37 view .LVU287
	.loc 1 2282 23 is_stmt 0 view .LVU288
	.thumb
	.syntax unified
	movs	r0, #1
	b	.L58
.LVL61:
.L59:
	.loc 1 2197 12 view .LVU289
	movs	r0, #0
.L58:
	str	r0, [sp, #4]
.LVL62:
	.loc 1 2295 28 is_stmt 1 view .LVU290
	.loc 1 2298 2 view .LVU291
	bl	vPortExitCritical
.LVL63:
	.loc 1 2300 2 view .LVU292
	.loc 1 2301 1 is_stmt 0 view .LVU293
	ldr	r0, [sp, #4]
	add	sp, sp, #12
.LCFI11:
	.cfi_remember_state
	.cfi_def_cfa_offset 36
	@ sp needed
	pop	{r4, r5, r6, r7, r8, r9, r10, fp, pc}
.LVL64:
.L61:
.LCFI12:
	.cfi_restore_state
	.loc 1 2218 12 view .LVU294
	ldr	r3, [fp]
	.loc 1 2218 10 view .LVU295
	cmp	r3, #0
	bne	.L64
	.loc 1 2237 5 is_stmt 1 view .LVU296
	.loc 1 2245 6 view .LVU297
.LBB222:
	.loc 1 3943 13 view .LVU298
.LBB212:
	.loc 1 3945 1 view .LVU299
	.loc 1 3947 2 view .LVU300
	.loc 1 3947 6 is_stmt 0 view .LVU301
	ldr	r3, .L92+20
	ldr	r2, [r3]
	ldr	r2, [r2]
	.loc 1 3947 4 view .LVU302
	cmp	r2, #0
	bne	.L65
.L89:
	.loc 1 3953 3 is_stmt 1 view .LVU303
	.loc 1 3953 24 is_stmt 0 view .LVU304
	ldr	r3, .L92+24
	mov	r2, #-1
	str	r2, [r3]
	b	.L60
.LVL65:
.L88:
	.loc 1 3953 24 view .LVU305
	ldr	r3, .L92+8
	str	r3, [sp, #4]
	b	.L60
.L93:
	.align	2
.L92:
	.word	.LANCHOR13
	.word	.LANCHOR2
	.word	.LANCHOR12
	.word	.LANCHOR6
	.word	.LANCHOR5
	.word	.LANCHOR9
	.word	.LANCHOR10
	.word	.LANCHOR15
	.word	.LANCHOR14
	.word	.LANCHOR3
.LBE212:
.LBE222:
	.cfi_endproc
.LFE60:
	.size	xTaskResumeAll.part.0, .-xTaskResumeAll.part.0
	.section	.text.xTaskCreate,"ax",%progbits
	.align	1
	.p2align 2,,3
	.global	xTaskCreate
	.syntax unified
	.thumb
	.thumb_func
	.fpu fpv4-sp-d16
	.type	xTaskCreate, %function
xTaskCreate:
.LVL66:
.LFB5:
	.loc 1 739 2 is_stmt 1 view -0
	.cfi_startproc
	@ args = 8, pretend = 0, frame = 0
	@ frame_needed = 0, uses_anonymous_args = 0
	.loc 1 740 2 view .LVU307
	.loc 1 741 2 view .LVU308
.LBB231:
	.loc 1 770 3 view .LVU309
	.loc 1 773 4 view .LVU310
.LBE231:
	.loc 1 739 2 is_stmt 0 view .LVU311
	push	{r3, r4, r5, r6, r7, r8, r9, r10, fp, lr}
.LCFI13:
	.cfi_def_cfa_offset 40
	.cfi_offset 3, -40
	.cfi_offset 4, -36
	.cfi_offset 5, -32
	.cfi_offset 6, -28
	.cfi_offset 7, -24
	.cfi_offset 8, -20
	.cfi_offset 9, -16
	.cfi_offset 10, -12
	.cfi_offset 11, -8
	.cfi_offset 14, -4
.LBB232:
	.loc 1 773 14 view .LVU312
	lsl	r10, r2, #2
.LBE232:
	.loc 1 739 2 view .LVU313
	mov	r7, r0
.LBB233:
	.loc 1 773 14 view .LVU314
	mov	r0, r10
.LVL67:
	.loc 1 773 14 view .LVU315
.LBE233:
	.loc 1 739 2 view .LVU316
	mov	r5, r1
	mov	r8, r3
.LBB234:
	.loc 1 773 14 view .LVU317
	bl	pvPortMalloc
.LVL68:
	.loc 1 775 4 is_stmt 1 view .LVU318
	.loc 1 775 6 is_stmt 0 view .LVU319
	cmp	r0, #0
	beq	.L108
	.loc 1 778 5 is_stmt 1 view .LVU320
	mov	fp, r0
	.loc 1 778 28 is_stmt 0 view .LVU321
	movs	r0, #84
.LVL69:
	.loc 1 778 28 view .LVU322
	bl	pvPortMalloc
.LVL70:
	.loc 1 780 5 is_stmt 1 view .LVU323
	.loc 1 780 7 is_stmt 0 view .LVU324
	mov	r4, r0
	cmp	r0, #0
	beq	.L96
	.loc 1 783 6 is_stmt 1 view .LVU325
	.loc 1 783 24 is_stmt 0 view .LVU326
	str	fp, [r0, #48]
	.loc 1 783 24 view .LVU327
.LBE234:
	.loc 1 799 3 is_stmt 1 view .LVU328
	.loc 1 809 4 view .LVU329
.LVL71:
.LBB235:
.LBI235:
	.loc 1 824 13 view .LVU330
.LBB236:
	.loc 1 833 1 view .LVU331
	.loc 1 834 1 view .LVU332
	.loc 1 864 3 view .LVU333
	.loc 1 865 3 view .LVU334
	.loc 1 868 3 view .LVU335
	.loc 1 868 124 view .LVU336
	.loc 1 892 2 view .LVU337
	.loc 1 892 4 is_stmt 0 view .LVU338
	cmp	r5, #0
	beq	.L165
.LVL72:
	.loc 1 896 4 is_stmt 1 view .LVU339
	.loc 1 896 38 is_stmt 0 view .LVU340
	ldrb	r3, [r5]	@ zero_extendqisi2
	.loc 1 896 30 view .LVU341
	strb	r3, [r0, #52]
	.loc 1 901 4 is_stmt 1 view .LVU342
	.loc 1 901 6 is_stmt 0 view .LVU343
	ldrb	r3, [r5]	@ zero_extendqisi2
	cmp	r3, #0
	beq	.L100
	.loc 1 907 29 is_stmt 1 view .LVU344
	.loc 1 894 76 view .LVU345
.LVL73:
	.loc 1 894 31 view .LVU346
	.loc 1 896 4 view .LVU347
	.loc 1 896 38 is_stmt 0 view .LVU348
	ldrb	r3, [r5, #1]	@ zero_extendqisi2
	.loc 1 896 30 view .LVU349
	strb	r3, [r0, #53]
	.loc 1 901 4 is_stmt 1 view .LVU350
	.loc 1 901 6 is_stmt 0 view .LVU351
	ldrb	r3, [r5, #1]	@ zero_extendqisi2
	cmp	r3, #0
	beq	.L100
	.loc 1 907 29 is_stmt 1 view .LVU352
	.loc 1 894 76 view .LVU353
.LVL74:
	.loc 1 894 31 view .LVU354
	.loc 1 896 4 view .LVU355
	.loc 1 896 38 is_stmt 0 view .LVU356
	ldrb	r3, [r5, #2]	@ zero_extendqisi2
	.loc 1 896 30 view .LVU357
	strb	r3, [r0, #54]
	.loc 1 901 4 is_stmt 1 view .LVU358
	.loc 1 901 6 is_stmt 0 view .LVU359
	ldrb	r3, [r5, #2]	@ zero_extendqisi2
	cmp	r3, #0
	beq	.L100
	.loc 1 907 29 is_stmt 1 view .LVU360
	.loc 1 894 76 view .LVU361
.LVL75:
	.loc 1 894 31 view .LVU362
	.loc 1 896 4 view .LVU363
	.loc 1 896 38 is_stmt 0 view .LVU364
	ldrb	r3, [r5, #3]	@ zero_extendqisi2
	.loc 1 896 30 view .LVU365
	strb	r3, [r0, #55]
	.loc 1 901 4 is_stmt 1 view .LVU366
	.loc 1 901 6 is_stmt 0 view .LVU367
	ldrb	r3, [r5, #3]	@ zero_extendqisi2
	cmp	r3, #0
	beq	.L100
	.loc 1 907 29 is_stmt 1 view .LVU368
	.loc 1 894 76 view .LVU369
.LVL76:
	.loc 1 894 31 view .LVU370
	.loc 1 896 4 view .LVU371
	.loc 1 896 38 is_stmt 0 view .LVU372
	ldrb	r3, [r5, #4]	@ zero_extendqisi2
	.loc 1 896 30 view .LVU373
	strb	r3, [r0, #56]
	.loc 1 901 4 is_stmt 1 view .LVU374
	.loc 1 901 6 is_stmt 0 view .LVU375
	ldrb	r3, [r5, #4]	@ zero_extendqisi2
	cmp	r3, #0
	beq	.L100
	.loc 1 907 29 is_stmt 1 view .LVU376
	.loc 1 894 76 view .LVU377
.LVL77:
	.loc 1 894 31 view .LVU378
	.loc 1 896 4 view .LVU379
	.loc 1 896 38 is_stmt 0 view .LVU380
	ldrb	r3, [r5, #5]	@ zero_extendqisi2
	.loc 1 896 30 view .LVU381
	strb	r3, [r0, #57]
	.loc 1 901 4 is_stmt 1 view .LVU382
	.loc 1 901 6 is_stmt 0 view .LVU383
	ldrb	r3, [r5, #5]	@ zero_extendqisi2
	cmp	r3, #0
	beq	.L100
	.loc 1 907 29 is_stmt 1 view .LVU384
	.loc 1 894 76 view .LVU385
.LVL78:
	.loc 1 894 31 view .LVU386
	.loc 1 896 4 view .LVU387
	.loc 1 896 38 is_stmt 0 view .LVU388
	ldrb	r3, [r5, #6]	@ zero_extendqisi2
	.loc 1 896 30 view .LVU389
	strb	r3, [r0, #58]
	.loc 1 901 4 is_stmt 1 view .LVU390
	.loc 1 901 6 is_stmt 0 view .LVU391
	ldrb	r3, [r5, #6]	@ zero_extendqisi2
	cbz	r3, .L100
	.loc 1 907 29 is_stmt 1 view .LVU392
	.loc 1 894 76 view .LVU393
.LVL79:
	.loc 1 894 31 view .LVU394
	.loc 1 896 4 view .LVU395
	.loc 1 896 38 is_stmt 0 view .LVU396
	ldrb	r3, [r5, #7]	@ zero_extendqisi2
	.loc 1 896 30 view .LVU397
	strb	r3, [r0, #59]
	.loc 1 901 4 is_stmt 1 view .LVU398
	.loc 1 901 6 is_stmt 0 view .LVU399
	ldrb	r3, [r5, #7]	@ zero_extendqisi2
	cbz	r3, .L100
	.loc 1 907 29 is_stmt 1 view .LVU400
	.loc 1 894 76 view .LVU401
.LVL80:
	.loc 1 894 31 view .LVU402
	.loc 1 896 4 view .LVU403
	.loc 1 896 38 is_stmt 0 view .LVU404
	ldrb	r3, [r5, #8]	@ zero_extendqisi2
	.loc 1 896 30 view .LVU405
	strb	r3, [r0, #60]
	.loc 1 901 4 is_stmt 1 view .LVU406
	.loc 1 901 6 is_stmt 0 view .LVU407
	ldrb	r3, [r5, #8]	@ zero_extendqisi2
	cbz	r3, .L100
	.loc 1 907 29 is_stmt 1 view .LVU408
	.loc 1 894 76 view .LVU409
.LVL81:
	.loc 1 894 31 view .LVU410
	.loc 1 896 4 view .LVU411
	.loc 1 896 38 is_stmt 0 view .LVU412
	ldrb	r3, [r5, #9]	@ zero_extendqisi2
	.loc 1 896 30 view .LVU413
	strb	r3, [r0, #61]
	.loc 1 901 4 is_stmt 1 view .LVU414
	.loc 1 901 6 is_stmt 0 view .LVU415
	ldrb	r3, [r5, #9]	@ zero_extendqisi2
	cbz	r3, .L100
	.loc 1 907 29 is_stmt 1 view .LVU416
	.loc 1 894 76 view .LVU417
.LVL82:
	.loc 1 894 31 view .LVU418
	.loc 1 896 4 view .LVU419
	.loc 1 896 38 is_stmt 0 view .LVU420
	ldrb	r3, [r5, #10]	@ zero_extendqisi2
	.loc 1 896 30 view .LVU421
	strb	r3, [r0, #62]
	.loc 1 901 4 is_stmt 1 view .LVU422
	.loc 1 901 6 is_stmt 0 view .LVU423
	ldrb	r3, [r5, #10]	@ zero_extendqisi2
	cbz	r3, .L100
	.loc 1 907 29 is_stmt 1 view .LVU424
	.loc 1 894 76 view .LVU425
.LVL83:
	.loc 1 894 31 view .LVU426
	.loc 1 896 4 view .LVU427
	.loc 1 896 38 is_stmt 0 view .LVU428
	ldrb	r3, [r5, #11]	@ zero_extendqisi2
	.loc 1 896 30 view .LVU429
	strb	r3, [r0, #63]
	.loc 1 901 4 is_stmt 1 view .LVU430
	.loc 1 901 6 is_stmt 0 view .LVU431
	ldrb	r3, [r5, #11]	@ zero_extendqisi2
	cbz	r3, .L100
	.loc 1 907 29 is_stmt 1 view .LVU432
	.loc 1 894 76 view .LVU433
.LVL84:
	.loc 1 894 31 view .LVU434
	.loc 1 896 4 view .LVU435
	.loc 1 896 38 is_stmt 0 view .LVU436
	ldrb	r3, [r5, #12]	@ zero_extendqisi2
	.loc 1 896 30 view .LVU437
	strb	r3, [r0, #64]
	.loc 1 901 4 is_stmt 1 view .LVU438
	.loc 1 901 6 is_stmt 0 view .LVU439
	ldrb	r3, [r5, #12]	@ zero_extendqisi2
	cbz	r3, .L100
	.loc 1 907 29 is_stmt 1 view .LVU440
	.loc 1 894 76 view .LVU441
.LVL85:
	.loc 1 894 31 view .LVU442
	.loc 1 896 4 view .LVU443
	.loc 1 896 38 is_stmt 0 view .LVU444
	ldrb	r3, [r5, #13]	@ zero_extendqisi2
	.loc 1 896 30 view .LVU445
	strb	r3, [r0, #65]
	.loc 1 901 4 is_stmt 1 view .LVU446
	.loc 1 901 6 is_stmt 0 view .LVU447
	ldrb	r3, [r5, #13]	@ zero_extendqisi2
	cbz	r3, .L100
	.loc 1 907 29 is_stmt 1 view .LVU448
	.loc 1 894 76 view .LVU449
.LVL86:
	.loc 1 894 31 view .LVU450
	.loc 1 896 4 view .LVU451
	.loc 1 896 38 is_stmt 0 view .LVU452
	ldrb	r3, [r5, #14]	@ zero_extendqisi2
	.loc 1 896 30 view .LVU453
	strb	r3, [r0, #66]
	.loc 1 901 4 is_stmt 1 view .LVU454
	.loc 1 901 6 is_stmt 0 view .LVU455
	ldrb	r3, [r5, #14]	@ zero_extendqisi2
	cbz	r3, .L100
	.loc 1 907 29 is_stmt 1 view .LVU456
	.loc 1 894 76 view .LVU457
.LVL87:
	.loc 1 894 31 view .LVU458
	.loc 1 896 4 view .LVU459
	.loc 1 896 38 is_stmt 0 view .LVU460
	ldrb	r3, [r5, #15]	@ zero_extendqisi2
	.loc 1 896 30 view .LVU461
	strb	r3, [r0, #67]
	.loc 1 901 4 is_stmt 1 view .LVU462
.LVL88:
.L100:
	.loc 1 913 3 view .LVU463
	.loc 1 913 55 is_stmt 0 view .LVU464
	movs	r3, #0
	strb	r3, [r4, #67]
.L101:
	.loc 1 924 2 is_stmt 1 view .LVU465
	ldr	r6, [sp, #40]
	cmp	r6, #6
	it	cs
	movcs	r6, #6
.LVL89:
	.loc 1 930 27 view .LVU466
	.loc 1 933 2 view .LVU467
	.loc 1 937 27 is_stmt 0 view .LVU468
	movs	r5, #0
.LVL90:
	.loc 1 941 2 view .LVU469
	add	r9, r4, #4
	.loc 1 933 23 view .LVU470
	str	r6, [r4, #44]
	.loc 1 936 3 is_stmt 1 view .LVU471
	.loc 1 936 28 is_stmt 0 view .LVU472
	str	r6, [r4, #68]
	.loc 1 937 3 is_stmt 1 view .LVU473
	.loc 1 941 2 is_stmt 0 view .LVU474
	mov	r0, r9
.LVL91:
	.loc 1 937 27 view .LVU475
	str	r5, [r4, #72]
	.loc 1 941 2 is_stmt 1 view .LVU476
	bl	vListInitialiseItem
.LVL92:
	.loc 1 942 2 view .LVU477
	add	r0, r4, #24
	bl	vListInitialiseItem
.LVL93:
	.loc 1 946 2 view .LVU478
	.loc 1 864 38 is_stmt 0 view .LVU479
	sub	r2, r10, #4
	.loc 1 864 16 view .LVU480
	add	r0, fp, r2
	.loc 1 949 2 view .LVU481
	rsb	r6, r6, #7
.LVL94:
	.loc 1 992 29 view .LVU482
	str	r5, [r4, #76]
	.loc 1 949 2 view .LVU483
	str	r6, [r4, #24]
	.loc 1 993 27 view .LVU484
	strb	r5, [r4, #80]
	.loc 1 946 2 view .LVU485
	str	r4, [r4, #16]
	.loc 1 949 2 is_stmt 1 view .LVU486
	.loc 1 950 2 view .LVU487
	str	r4, [r4, #36]
	.loc 1 977 3 view .LVU488
	.loc 1 992 3 view .LVU489
	.loc 1 993 3 view .LVU490
	.loc 1 1058 4 view .LVU491
	.loc 1 1058 29 is_stmt 0 view .LVU492
	mov	r2, r8
	mov	r1, r7
	bic	r0, r0, #7
	bl	pxPortInitialiseStack
.LVL95:
	.loc 1 1064 4 view .LVU493
	ldr	r3, [sp, #44]
	.loc 1 1058 27 view .LVU494
	str	r0, [r4]
	.loc 1 1064 2 is_stmt 1 view .LVU495
	.loc 1 1064 4 is_stmt 0 view .LVU496
	cbz	r3, .L102
	.loc 1 1068 3 is_stmt 1 view .LVU497
	.loc 1 1068 18 is_stmt 0 view .LVU498
	str	r4, [r3]
.L102:
	.loc 1 1072 27 is_stmt 1 view .LVU499
.LVL96:
	.loc 1 1072 27 is_stmt 0 view .LVU500
.LBE236:
.LBE235:
	.loc 1 810 4 is_stmt 1 view .LVU501
.LBB238:
.LBI238:
	.loc 1 1077 13 view .LVU502
.LBB239:
	.loc 1 1081 2 view .LVU503
	bl	vPortEnterCritical
.LVL97:
	.loc 1 1083 3 view .LVU504
	.loc 1 1083 25 is_stmt 0 view .LVU505
	ldr	r2, .L167
	.loc 1 1084 20 view .LVU506
	ldr	r6, .L167+4
	.loc 1 1083 25 view .LVU507
	ldr	r3, [r2]
	adds	r3, r3, #1
	str	r3, [r2]
	.loc 1 1084 3 is_stmt 1 view .LVU508
	.loc 1 1084 20 is_stmt 0 view .LVU509
	ldr	r3, [r6]
	.loc 1 1084 5 view .LVU510
	cmp	r3, #0
	beq	.L166
	.loc 1 1107 4 is_stmt 1 view .LVU511
	.loc 1 1107 26 is_stmt 0 view .LVU512
	ldr	r7, .L167+8
.LVL98:
	.loc 1 1107 26 view .LVU513
	ldr	r3, [r7]
	.loc 1 1107 6 view .LVU514
	cbz	r3, .L107
	.loc 1 1134 3 view .LVU515
	ldr	r0, [r4, #44]
	ldr	r8, .L167+48
.LVL99:
.L105:
	.loc 1 1120 29 is_stmt 1 view .LVU516
	.loc 1 1124 3 view .LVU517
	.loc 1 1124 15 is_stmt 0 view .LVU518
	ldr	r5, .L167+12
	.loc 1 1134 3 view .LVU519
	ldr	r2, .L167+16
	.loc 1 1124 15 view .LVU520
	ldr	r3, [r5]
	.loc 1 1134 3 view .LVU521
	ldr	ip, [r2]
	.loc 1 1124 15 view .LVU522
	adds	r3, r3, #1
	str	r3, [r5]
	.loc 1 1132 31 is_stmt 1 view .LVU523
	.loc 1 1134 3 view .LVU524
	.loc 1 1134 3 view .LVU525
	movs	r5, #1
	lsl	r3, r5, r0
	add	r0, r0, r0, lsl #2
	orr	r3, r3, ip
	mov	r1, r9
	add	r0, r8, r0, lsl #2
	str	r3, [r2]
	.loc 1 1134 3 view .LVU526
	bl	vListInsertEnd
.LVL100:
	.loc 1 1134 36 view .LVU527
	.loc 1 1136 3 view .LVU528
	.loc 1 1138 2 view .LVU529
	bl	vPortExitCritical
.LVL101:
	.loc 1 1140 2 view .LVU530
	.loc 1 1140 24 is_stmt 0 view .LVU531
	ldr	r3, [r7]
	.loc 1 1140 4 view .LVU532
	cbz	r3, .L110
	.loc 1 1144 3 is_stmt 1 view .LVU533
	.loc 1 1144 19 is_stmt 0 view .LVU534
	ldr	r2, [r6]
	.loc 1 1144 5 view .LVU535
	ldr	r3, [r4, #44]
	ldr	r2, [r2, #44]
	cmp	r2, r3
	bcs	.L110
	.loc 1 1146 4 is_stmt 1 view .LVU536
	mov	r3, #-536813568
	mov	r2, #268435456
	str	r2, [r3, #3332]
.LVL102:
	.loc 1 1146 4 view .LVU537
	.syntax unified
@ 1146 "Middlewares/Third_Party/FreeRTOS/Source/tasks.c" 1
	dsb
@ 0 "" 2
	.loc 1 1146 4 view .LVU538
@ 1146 "Middlewares/Third_Party/FreeRTOS/Source/tasks.c" 1
	isb
@ 0 "" 2
	.loc 1 1146 35 view .LVU539
	.thumb
	.syntax unified
.LBE239:
.LBE238:
	.loc 1 811 12 is_stmt 0 view .LVU540
	mov	r0, r5
.LBB248:
.LBB244:
	b	.L94
.LVL103:
.L108:
	.loc 1 811 12 view .LVU541
.LBE244:
.LBE248:
	.loc 1 815 12 view .LVU542
	mov	r0, #-1
.LVL104:
.L94:
	.loc 1 819 2 view .LVU543
	pop	{r3, r4, r5, r6, r7, r8, r9, r10, fp, pc}
.LVL105:
.L107:
.LBB249:
.LBB245:
	.loc 1 1109 5 is_stmt 1 view .LVU544
	.loc 1 1109 21 is_stmt 0 view .LVU545
	ldr	r3, [r6]
	.loc 1 1109 45 view .LVU546
	ldr	r0, [r4, #44]
	.loc 1 1109 7 view .LVU547
	ldr	r3, [r3, #44]
	ldr	r8, .L167+48
.LVL106:
	.loc 1 1109 7 view .LVU548
	cmp	r3, r0
	.loc 1 1111 6 is_stmt 1 view .LVU549
	.loc 1 1111 19 is_stmt 0 view .LVU550
	it	ls
	strls	r4, [r6]
	b	.L105
.LVL107:
.L96:
	.loc 1 1111 19 view .LVU551
.LBE245:
.LBE249:
.LBB250:
	.loc 1 789 6 is_stmt 1 view .LVU552
	mov	r0, fp
.LVL108:
	.loc 1 789 6 is_stmt 0 view .LVU553
	bl	vPortFree
.LVL109:
	.loc 1 789 6 view .LVU554
.LBE250:
	.loc 1 799 3 is_stmt 1 view .LVU555
	.loc 1 815 12 is_stmt 0 view .LVU556
	mov	r0, #-1
	b	.L94
.LVL110:
.L110:
	.loc 1 811 12 view .LVU557
	mov	r0, r5
.LVL111:
	.loc 1 818 3 is_stmt 1 view .LVU558
	.loc 1 819 2 is_stmt 0 view .LVU559
	pop	{r3, r4, r5, r6, r7, r8, r9, r10, fp, pc}
.LVL112:
.L166:
.LBB251:
.LBB246:
	.loc 1 1088 4 is_stmt 1 view .LVU560
	.loc 1 1088 17 is_stmt 0 view .LVU561
	str	r4, [r6]
	.loc 1 1090 4 is_stmt 1 view .LVU562
	.loc 1 1090 31 is_stmt 0 view .LVU563
	ldr	r3, [r2]
	.loc 1 1090 6 view .LVU564
	cmp	r3, #1
	beq	.L104
	.loc 1 1134 3 view .LVU565
	ldr	r0, [r4, #44]
	ldr	r8, .L167+48
.LVL113:
	.loc 1 1134 3 view .LVU566
	ldr	r7, .L167+8
.LVL114:
	.loc 1 1134 3 view .LVU567
	b	.L105
.LVL115:
.L165:
	.loc 1 1134 3 view .LVU568
.LBE246:
.LBE251:
.LBB252:
.LBB237:
	.loc 1 919 3 is_stmt 1 view .LVU569
	.loc 1 919 29 is_stmt 0 view .LVU570
	strb	r5, [r0, #52]
	b	.L101
.LVL116:
.L104:
	.loc 1 919 29 view .LVU571
	ldr	r8, .L167+48
.LVL117:
	.loc 1 919 29 view .LVU572
	mov	r5, r8
	add	r7, r8, #140
.LVL118:
.L106:
	.loc 1 919 29 view .LVU573
.LBE237:
.LBE252:
.LBB253:
.LBB247:
.LBB240:
.LBB241:
	.loc 1 3613 3 is_stmt 1 view .LVU574
	mov	r0, r5
	.loc 1 3611 2 is_stmt 0 view .LVU575
	adds	r5, r5, #20
	.loc 1 3613 3 view .LVU576
	bl	vListInitialise
.LVL119:
	.loc 1 3611 91 is_stmt 1 view .LVU577
	.loc 1 3611 40 view .LVU578
	.loc 1 3611 2 is_stmt 0 view .LVU579
	cmp	r5, r7
	bne	.L106
	.loc 1 3616 2 is_stmt 1 view .LVU580
	ldr	r7, .L167+20
	.loc 1 3617 2 is_stmt 0 view .LVU581
	ldr	r5, .L167+24
	.loc 1 3616 2 view .LVU582
	mov	r0, r7
	bl	vListInitialise
.LVL120:
	.loc 1 3617 2 is_stmt 1 view .LVU583
	mov	r0, r5
	bl	vListInitialise
.LVL121:
	.loc 1 3618 2 view .LVU584
	ldr	r0, .L167+28
	bl	vListInitialise
.LVL122:
	.loc 1 3622 3 view .LVU585
	ldr	r0, .L167+32
	bl	vListInitialise
.LVL123:
	.loc 1 3628 3 view .LVU586
	ldr	r0, .L167+36
	bl	vListInitialise
.LVL124:
	.loc 1 3634 2 view .LVU587
	.loc 1 3634 20 is_stmt 0 view .LVU588
	ldr	r3, .L167+40
.LBE241:
.LBE240:
	.loc 1 1134 3 view .LVU589
	ldr	r0, [r4, #44]
.LBB243:
.LBB242:
	.loc 1 3634 20 view .LVU590
	str	r7, [r3]
	.loc 1 3635 2 is_stmt 1 view .LVU591
	.loc 1 3635 28 is_stmt 0 view .LVU592
	ldr	r3, .L167+44
	ldr	r7, .L167+8
	str	r5, [r3]
	.loc 1 3636 1 view .LVU593
	b	.L105
.L168:
	.align	2
.L167:
	.word	.LANCHOR2
	.word	.LANCHOR5
	.word	.LANCHOR18
	.word	.LANCHOR19
	.word	.LANCHOR6
	.word	.LANCHOR16
	.word	.LANCHOR17
	.word	.LANCHOR14
	.word	.LANCHOR1
	.word	.LANCHOR7
	.word	.LANCHOR9
	.word	.LANCHOR8
	.word	.LANCHOR3
.LBE242:
.LBE243:
.LBE247:
.LBE253:
	.cfi_endproc
.LFE5:
	.size	xTaskCreate, .-xTaskCreate
	.section	.text.vTaskDelete,"ax",%progbits
	.align	1
	.p2align 2,,3
	.global	vTaskDelete
	.syntax unified
	.thumb
	.thumb_func
	.fpu fpv4-sp-d16
	.type	vTaskDelete, %function
vTaskDelete:
.LVL125:
.LFB8:
	.loc 1 1163 2 is_stmt 1 view -0
	.cfi_startproc
	@ args = 0, pretend = 0, frame = 0
	@ frame_needed = 0, uses_anonymous_args = 0
	.loc 1 1164 2 view .LVU595
	.loc 1 1166 3 view .LVU596
	.loc 1 1163 2 is_stmt 0 view .LVU597
	push	{r4, r5, r6, lr}
.LCFI14:
	.cfi_def_cfa_offset 16
	.cfi_offset 4, -16
	.cfi_offset 5, -12
	.cfi_offset 6, -8
	.cfi_offset 14, -4
	.loc 1 1163 2 view .LVU598
	mov	r4, r0
	.loc 1 1170 12 view .LVU599
	ldr	r5, .L192
	.loc 1 1166 3 view .LVU600
	bl	vPortEnterCritical
.LVL126:
	.loc 1 1170 4 is_stmt 1 view .LVU601
	.loc 1 1170 12 is_stmt 0 view .LVU602
	cmp	r4, #0
	beq	.L186
.LVL127:
.L170:
	.loc 1 1173 4 is_stmt 1 discriminator 4 view .LVU603
	.loc 1 1173 8 is_stmt 0 discriminator 4 view .LVU604
	adds	r6, r4, #4
	mov	r0, r6
	bl	uxListRemove
.LVL128:
	.loc 1 1173 6 discriminator 4 view .LVU605
	cbnz	r0, .L171
	.loc 1 1175 5 is_stmt 1 view .LVU606
	ldr	r2, [r4, #44]
	ldr	r1, .L192+4
	add	r3, r2, r2, lsl #2
	lsls	r3, r3, #2
	ldr	r3, [r1, r3]
	cmp	r3, #0
	beq	.L188
.L171:
	.loc 1 1179 29 view .LVU607
	.loc 1 1183 4 view .LVU608
	.loc 1 1183 6 is_stmt 0 view .LVU609
	ldr	r3, [r4, #40]
	cbz	r3, .L172
	.loc 1 1185 5 is_stmt 1 view .LVU610
	.loc 1 1185 14 is_stmt 0 view .LVU611
	add	r0, r4, #24
	bl	uxListRemove
.LVL129:
.L172:
	.loc 1 1189 29 is_stmt 1 view .LVU612
	.loc 1 1196 4 view .LVU613
	.loc 1 1196 16 is_stmt 0 view .LVU614
	ldr	r2, .L192+8
	ldr	r3, [r2]
	adds	r3, r3, #1
	str	r3, [r2]
	.loc 1 1198 4 is_stmt 1 view .LVU615
	.loc 1 1198 14 is_stmt 0 view .LVU616
	ldr	r3, [r5]
	.loc 1 1198 6 view .LVU617
	cmp	r3, r4
	beq	.L189
	.loc 1 1225 5 is_stmt 1 view .LVU618
	ldr	r2, .L192+12
.LBB262:
.LBB263:
	.loc 1 3908 4 is_stmt 0 view .LVU619
	ldr	r0, [r4, #48]
.LBE263:
.LBE262:
	.loc 1 1225 5 view .LVU620
	ldr	r3, [r2]
	subs	r3, r3, #1
	str	r3, [r2]
	.loc 1 1226 30 is_stmt 1 view .LVU621
	.loc 1 1227 5 view .LVU622
.LVL130:
.LBB265:
.LBI262:
	.loc 1 3887 14 view .LVU623
.LBB264:
	.loc 1 3892 3 view .LVU624
	.loc 1 3908 4 view .LVU625
	bl	vPortFree
.LVL131:
	.loc 1 3909 4 view .LVU626
	mov	r0, r4
	bl	vPortFree
.LVL132:
	.loc 1 3909 4 is_stmt 0 view .LVU627
.LBE264:
.LBE265:
	.loc 1 1231 5 is_stmt 1 view .LVU628
.LBB266:
.LBI266:
	.loc 1 3943 13 view .LVU629
.LBB267:
	.loc 1 3945 1 view .LVU630
	.loc 1 3947 2 view .LVU631
	.loc 1 3947 6 is_stmt 0 view .LVU632
	ldr	r3, .L192+16
	ldr	r2, [r3]
	ldr	r2, [r2]
	.loc 1 3947 4 view .LVU633
	cbz	r2, .L190
.LBB268:
.LBI268:
	.loc 1 3943 13 is_stmt 1 view .LVU634
.LBB269:
	.loc 1 3961 3 view .LVU635
	.loc 1 3961 15 is_stmt 0 view .LVU636
	ldr	r2, [r3]
.LVL133:
	.loc 1 3962 3 is_stmt 1 view .LVU637
	.loc 1 3962 24 is_stmt 0 view .LVU638
	ldr	r3, .L192+20
	.loc 1 3961 13 view .LVU639
	ldr	r2, [r2, #12]
.LVL134:
	.loc 1 3962 26 view .LVU640
	ldr	r2, [r2, #12]
.LVL135:
	.loc 1 3962 26 view .LVU641
	ldr	r2, [r2, #4]
.LVL136:
	.loc 1 3962 24 view .LVU642
	str	r2, [r3]
.L174:
	.loc 1 3962 24 view .LVU643
.LBE269:
.LBE268:
.LBE267:
.LBE266:
	.loc 1 1234 3 is_stmt 1 view .LVU644
	bl	vPortExitCritical
.LVL137:
	.loc 1 1238 3 view .LVU645
	.loc 1 1238 25 is_stmt 0 view .LVU646
	ldr	r3, .L192+24
	ldr	r3, [r3]
	.loc 1 1238 5 view .LVU647
	cbz	r3, .L169
	.loc 1 1240 4 is_stmt 1 view .LVU648
	.loc 1 1240 14 is_stmt 0 view .LVU649
	ldr	r3, [r5]
	.loc 1 1240 6 view .LVU650
	cmp	r3, r4
	beq	.L191
.L169:
	.loc 1 1250 2 view .LVU651
	pop	{r4, r5, r6, pc}
.LVL138:
.L190:
.LBB271:
.LBB270:
	.loc 1 3953 3 is_stmt 1 view .LVU652
	.loc 1 3953 24 is_stmt 0 view .LVU653
	ldr	r3, .L192+20
	mov	r2, #-1
	str	r2, [r3]
	b	.L174
.L188:
	.loc 1 3953 24 view .LVU654
.LBE270:
.LBE271:
	.loc 1 1175 5 is_stmt 1 discriminator 1 view .LVU655
	ldr	r1, .L192+28
	movs	r3, #1
	lsls	r3, r3, r2
	ldr	r2, [r1]
	bic	r2, r2, r3
	str	r2, [r1]
	b	.L171
.L189:
	.loc 1 1205 5 view .LVU656
	ldr	r0, .L192+32
	mov	r1, r6
	bl	vListInsertEnd
.LVL139:
	.loc 1 1210 5 view .LVU657
	ldr	r2, .L192+36
	ldr	r3, [r2]
	adds	r3, r3, #1
	str	r3, [r2]
	.loc 1 1214 30 view .LVU658
	.loc 1 1221 54 view .LVU659
	b	.L174
.LVL140:
.L186:
	.loc 1 1170 12 is_stmt 0 discriminator 1 view .LVU660
	ldr	r4, [r5]
.LVL141:
	.loc 1 1170 12 discriminator 1 view .LVU661
	b	.L170
.LVL142:
.L191:
	.loc 1 1242 5 is_stmt 1 view .LVU662
	ldr	r3, .L192+40
	ldr	r3, [r3]
	cbz	r3, .L177
	.loc 1 1242 5 view .LVU663
.LBB272:
.LBI272:
	.loc 2 191 30 view .LVU664
.LBB273:
	.loc 2 193 1 view .LVU665
	.loc 2 195 2 view .LVU666
	.syntax unified
@ 195 "Middlewares/Third_Party/FreeRTOS/Source/portable/GCC/ARM_CM4F/portmacro.h" 1
		mov r3, #80												
	msr basepri, r3											
	isb														
	dsb														

@ 0 "" 2
.LVL143:
	.thumb
	.syntax unified
.L178:
	.loc 2 195 2 is_stmt 0 view .LVU667
.LBE273:
.LBE272:
	.loc 1 1242 5 is_stmt 1 discriminator 1 view .LVU668
	.loc 1 1242 5 discriminator 1 view .LVU669
	.loc 1 1242 5 discriminator 1 view .LVU670
	.loc 1 1242 5 discriminator 1 view .LVU671
	.loc 1 1242 5 discriminator 1 view .LVU672
	.loc 1 1242 5 discriminator 1 view .LVU673
	b	.L178
.L177:
	.loc 1 1242 46 discriminator 2 view .LVU674
	.loc 1 1243 5 discriminator 2 view .LVU675
	mov	r3, #-536813568
	mov	r2, #268435456
	str	r2, [r3, #3332]
	.loc 1 1243 5 discriminator 2 view .LVU676
	.syntax unified
@ 1243 "Middlewares/Third_Party/FreeRTOS/Source/tasks.c" 1
	dsb
@ 0 "" 2
	.loc 1 1243 5 discriminator 2 view .LVU677
@ 1243 "Middlewares/Third_Party/FreeRTOS/Source/tasks.c" 1
	isb
@ 0 "" 2
	.loc 1 1243 27 discriminator 2 view .LVU678
	.loc 1 1247 29 discriminator 2 view .LVU679
	.loc 1 1250 2 is_stmt 0 discriminator 2 view .LVU680
	.thumb
	.syntax unified
	pop	{r4, r5, r6, pc}
.LVL144:
.L193:
	.loc 1 1250 2 discriminator 2 view .LVU681
	.align	2
.L192:
	.word	.LANCHOR5
	.word	.LANCHOR3
	.word	.LANCHOR19
	.word	.LANCHOR2
	.word	.LANCHOR9
	.word	.LANCHOR10
	.word	.LANCHOR18
	.word	.LANCHOR6
	.word	.LANCHOR1
	.word	.LANCHOR0
	.word	.LANCHOR13
	.cfi_endproc
.LFE8:
	.size	vTaskDelete, .-vTaskDelete
	.section	.text.vTaskDelay,"ax",%progbits
	.align	1
	.p2align 2,,3
	.global	vTaskDelay
	.syntax unified
	.thumb
	.thumb_func
	.fpu fpv4-sp-d16
	.type	vTaskDelay, %function
vTaskDelay:
.LVL145:
.LFB9:
	.loc 1 1342 2 is_stmt 1 view -0
	.cfi_startproc
	@ args = 0, pretend = 0, frame = 0
	@ frame_needed = 0, uses_anonymous_args = 0
	.loc 1 1343 2 view .LVU683
	.loc 1 1346 3 view .LVU684
	.loc 1 1342 2 is_stmt 0 view .LVU685
	push	{r4, lr}
.LCFI15:
	.cfi_def_cfa_offset 8
	.cfi_offset 4, -8
	.cfi_offset 14, -4
	.loc 1 1346 5 view .LVU686
	cbnz	r0, .L195
.LVL146:
.L201:
	.loc 1 1373 4 is_stmt 1 view .LVU687
	mov	r3, #-536813568
	mov	r2, #268435456
	str	r2, [r3, #3332]
	.loc 1 1373 4 view .LVU688
	.syntax unified
@ 1373 "Middlewares/Third_Party/FreeRTOS/Source/tasks.c" 1
	dsb
@ 0 "" 2
	.loc 1 1373 4 view .LVU689
@ 1373 "Middlewares/Third_Party/FreeRTOS/Source/tasks.c" 1
	isb
@ 0 "" 2
	.loc 1 1373 26 view .LVU690
	.loc 1 1379 2 is_stmt 0 view .LVU691
	.thumb
	.syntax unified
	pop	{r4, pc}
.LVL147:
.L195:
	.loc 1 1348 4 is_stmt 1 view .LVU692
	ldr	r4, .L206
	ldr	r1, [r4]
	cbz	r1, .L197
	.loc 1 1348 4 view .LVU693
.LBB282:
.LBI282:
	.loc 2 191 30 view .LVU694
.LBB283:
	.loc 2 193 1 view .LVU695
	.loc 2 195 2 view .LVU696
	.syntax unified
@ 195 "Middlewares/Third_Party/FreeRTOS/Source/portable/GCC/ARM_CM4F/portmacro.h" 1
		mov r3, #80												
	msr basepri, r3											
	isb														
	dsb														

@ 0 "" 2
.LVL148:
	.thumb
	.syntax unified
.L198:
	.loc 2 195 2 is_stmt 0 view .LVU697
.LBE283:
.LBE282:
	.loc 1 1348 4 is_stmt 1 discriminator 1 view .LVU698
	.loc 1 1348 4 discriminator 1 view .LVU699
	.loc 1 1348 4 discriminator 1 view .LVU700
	.loc 1 1348 4 discriminator 1 view .LVU701
	.loc 1 1348 4 discriminator 1 view .LVU702
	.loc 1 1348 4 discriminator 1 view .LVU703
	b	.L198
.L197:
	.loc 1 1348 45 view .LVU704
	.loc 1 1349 4 view .LVU705
.LBB284:
.LBI284:
	.loc 1 2110 6 view .LVU706
.LBB285:
	.loc 1 2119 24 view .LVU707
	.loc 1 2123 2 view .LVU708
	ldr	r3, [r4]
	adds	r3, r3, #1
	str	r3, [r4]
	.loc 1 2127 2 view .LVU709
.LBE285:
.LBE284:
	.loc 1 1351 22 view .LVU710
	.loc 1 1360 5 view .LVU711
	bl	prvAddCurrentTaskToDelayedList
.LVL149:
	.loc 1 1362 4 view .LVU712
.LBB286:
.LBI286:
	.loc 1 2194 12 view .LVU713
.LBB287:
	.loc 1 2196 1 view .LVU714
	.loc 1 2197 1 view .LVU715
	.loc 1 2201 2 view .LVU716
	ldr	r3, [r4]
	cbnz	r3, .L199
	.loc 1 2201 2 view .LVU717
.LBB288:
.LBI288:
	.loc 2 191 30 view .LVU718
.LBB289:
	.loc 2 193 1 view .LVU719
	.loc 2 195 2 view .LVU720
	.syntax unified
@ 195 "Middlewares/Third_Party/FreeRTOS/Source/portable/GCC/ARM_CM4F/portmacro.h" 1
		mov r3, #80												
	msr basepri, r3											
	isb														
	dsb														

@ 0 "" 2
.LVL150:
	.thumb
	.syntax unified
.L200:
	.loc 2 195 2 is_stmt 0 view .LVU721
.LBE289:
.LBE288:
	.loc 1 2201 2 is_stmt 1 view .LVU722
	.loc 1 2201 2 view .LVU723
	.loc 1 2201 2 view .LVU724
	.loc 1 2201 2 view .LVU725
	.loc 1 2201 2 view .LVU726
	.loc 1 2201 2 view .LVU727
	b	.L200
.L199:
	bl	xTaskResumeAll.part.0
.LVL151:
	.loc 1 2201 2 is_stmt 0 view .LVU728
.LBE287:
.LBE286:
	.loc 1 1366 28 is_stmt 1 view .LVU729
	.loc 1 1371 3 view .LVU730
	.loc 1 1371 5 is_stmt 0 view .LVU731
	cmp	r0, #0
	beq	.L201
	.loc 1 1379 2 view .LVU732
	pop	{r4, pc}
.L207:
	.align	2
.L206:
	.word	.LANCHOR13
	.cfi_endproc
.LFE9:
	.size	vTaskDelay, .-vTaskDelay
	.section	.text.uxTaskPriorityGet,"ax",%progbits
	.align	1
	.p2align 2,,3
	.global	uxTaskPriorityGet
	.syntax unified
	.thumb
	.thumb_func
	.fpu fpv4-sp-d16
	.type	uxTaskPriorityGet, %function
uxTaskPriorityGet:
.LVL152:
.LFB10:
	.loc 1 1479 2 is_stmt 1 view -0
	.cfi_startproc
	@ args = 0, pretend = 0, frame = 8
	@ frame_needed = 0, uses_anonymous_args = 0
	.loc 1 1480 2 view .LVU734
	.loc 1 1481 2 view .LVU735
	.loc 1 1483 3 view .LVU736
	.loc 1 1479 2 is_stmt 0 view .LVU737
	push	{r4, lr}
.LCFI16:
	.cfi_def_cfa_offset 8
	.cfi_offset 4, -8
	.cfi_offset 14, -4
	mov	r4, r0
	sub	sp, sp, #8
.LCFI17:
	.cfi_def_cfa_offset 16
	.loc 1 1483 3 view .LVU738
	bl	vPortEnterCritical
.LVL153:
	.loc 1 1487 4 is_stmt 1 view .LVU739
	.loc 1 1487 12 is_stmt 0 view .LVU740
	cbz	r4, .L211
.LVL154:
.L209:
	.loc 1 1488 4 is_stmt 1 discriminator 4 view .LVU741
	.loc 1 1488 13 is_stmt 0 discriminator 4 view .LVU742
	ldr	r0, [r4, #44]
	str	r0, [sp, #4]
.LVL155:
	.loc 1 1490 3 is_stmt 1 discriminator 4 view .LVU743
	bl	vPortExitCritical
.LVL156:
	.loc 1 1492 3 discriminator 4 view .LVU744
	.loc 1 1493 2 is_stmt 0 discriminator 4 view .LVU745
	ldr	r0, [sp, #4]
	add	sp, sp, #8
.LCFI18:
	.cfi_remember_state
	.cfi_def_cfa_offset 8
	@ sp needed
	pop	{r4, pc}
.LVL157:
.L211:
.LCFI19:
	.cfi_restore_state
	.loc 1 1487 12 discriminator 1 view .LVU746
	ldr	r3, .L212
	ldr	r4, [r3]
.LVL158:
	.loc 1 1487 12 discriminator 1 view .LVU747
	b	.L209
.L213:
	.align	2
.L212:
	.word	.LANCHOR5
	.cfi_endproc
.LFE10:
	.size	uxTaskPriorityGet, .-uxTaskPriorityGet
	.section	.text.uxTaskPriorityGetFromISR,"ax",%progbits
	.align	1
	.p2align 2,,3
	.global	uxTaskPriorityGetFromISR
	.syntax unified
	.thumb
	.thumb_func
	.fpu fpv4-sp-d16
	.type	uxTaskPriorityGetFromISR, %function
uxTaskPriorityGetFromISR:
.LVL159:
.LFB11:
	.loc 1 1501 2 is_stmt 1 view -0
	.cfi_startproc
	@ args = 0, pretend = 0, frame = 0
	@ frame_needed = 0, uses_anonymous_args = 0
	.loc 1 1502 2 view .LVU749
	.loc 1 1503 2 view .LVU750
	.loc 1 1521 3 view .LVU751
	.loc 1 1501 2 is_stmt 0 view .LVU752
	push	{r4, lr}
.LCFI20:
	.cfi_def_cfa_offset 8
	.cfi_offset 4, -8
	.cfi_offset 14, -4
	.loc 1 1501 2 view .LVU753
	mov	r4, r0
	.loc 1 1521 3 view .LVU754
	bl	vPortValidateInterruptPriority
.LVL160:
	.loc 1 1523 3 is_stmt 1 view .LVU755
.LBB290:
.LBI290:
	.loc 2 207 34 view .LVU756
.LBB291:
	.loc 2 209 1 view .LVU757
	.loc 2 211 2 view .LVU758
	.syntax unified
@ 211 "Middlewares/Third_Party/FreeRTOS/Source/portable/GCC/ARM_CM4F/portmacro.h" 1
		mrs r3, basepri											
	mov r2, #80												
	msr basepri, r2											
	isb														
	dsb														

@ 0 "" 2
.LVL161:
	.loc 2 223 2 view .LVU759
	.loc 2 223 2 is_stmt 0 view .LVU760
	.thumb
	.syntax unified
.LBE291:
.LBE290:
	.loc 1 1527 4 is_stmt 1 view .LVU761
	.loc 1 1527 12 is_stmt 0 view .LVU762
	cbz	r4, .L217
.LVL162:
	.loc 1 1528 4 is_stmt 1 discriminator 4 view .LVU763
	.loc 1 1528 13 is_stmt 0 discriminator 4 view .LVU764
	ldr	r0, [r4, #44]
.LVL163:
	.loc 1 1530 3 is_stmt 1 discriminator 4 view .LVU765
.LBB292:
.LBI292:
	.loc 2 227 30 discriminator 4 view .LVU766
.LBB293:
	.loc 2 229 2 discriminator 4 view .LVU767
	.syntax unified
@ 229 "Middlewares/Third_Party/FreeRTOS/Source/portable/GCC/ARM_CM4F/portmacro.h" 1
		msr basepri, r3	
@ 0 "" 2
.LVL164:
	.loc 2 229 2 is_stmt 0 discriminator 4 view .LVU768
	.thumb
	.syntax unified
.LBE293:
.LBE292:
	.loc 1 1532 3 is_stmt 1 discriminator 4 view .LVU769
	.loc 1 1533 2 is_stmt 0 discriminator 4 view .LVU770
	pop	{r4, pc}
.LVL165:
.L217:
	.loc 1 1527 12 discriminator 1 view .LVU771
	ldr	r2, .L218
	ldr	r4, [r2]
.LVL166:
	.loc 1 1528 4 is_stmt 1 discriminator 1 view .LVU772
	.loc 1 1528 13 is_stmt 0 discriminator 1 view .LVU773
	ldr	r0, [r4, #44]
.LVL167:
	.loc 1 1530 3 is_stmt 1 discriminator 1 view .LVU774
.LBB295:
	.loc 2 227 30 discriminator 1 view .LVU775
.LBB294:
	.loc 2 229 2 discriminator 1 view .LVU776
	.syntax unified
@ 229 "Middlewares/Third_Party/FreeRTOS/Source/portable/GCC/ARM_CM4F/portmacro.h" 1
		msr basepri, r3	
@ 0 "" 2
.LVL168:
	.loc 2 229 2 is_stmt 0 discriminator 1 view .LVU777
	.thumb
	.syntax unified
.LBE294:
.LBE295:
	.loc 1 1532 3 is_stmt 1 discriminator 1 view .LVU778
	.loc 1 1533 2 is_stmt 0 discriminator 1 view .LVU779
	pop	{r4, pc}
.LVL169:
.L219:
	.loc 1 1533 2 discriminator 1 view .LVU780
	.align	2
.L218:
	.word	.LANCHOR5
	.cfi_endproc
.LFE11:
	.size	uxTaskPriorityGetFromISR, .-uxTaskPriorityGetFromISR
	.section	.text.vTaskPrioritySet,"ax",%progbits
	.align	1
	.p2align 2,,3
	.global	vTaskPrioritySet
	.syntax unified
	.thumb
	.thumb_func
	.fpu fpv4-sp-d16
	.type	vTaskPrioritySet, %function
vTaskPrioritySet:
.LVL170:
.LFB12:
	.loc 1 1541 2 is_stmt 1 view -0
	.cfi_startproc
	@ args = 0, pretend = 0, frame = 8
	@ frame_needed = 0, uses_anonymous_args = 0
	.loc 1 1542 2 view .LVU782
	.loc 1 1543 2 view .LVU783
	.loc 1 1544 2 view .LVU784
	.loc 1 1546 3 view .LVU785
	cmp	r1, #6
	bls	.L221
	.loc 1 1546 3 view .LVU786
.LBB296:
.LBI296:
	.loc 2 191 30 view .LVU787
.LBB297:
	.loc 2 193 1 view .LVU788
	.loc 2 195 2 view .LVU789
	.syntax unified
@ 195 "Middlewares/Third_Party/FreeRTOS/Source/portable/GCC/ARM_CM4F/portmacro.h" 1
		mov r3, #80												
	msr basepri, r3											
	isb														
	dsb														

@ 0 "" 2
.LVL171:
	.thumb
	.syntax unified
.L222:
	.loc 2 195 2 is_stmt 0 view .LVU790
.LBE297:
.LBE296:
	.loc 1 1546 3 is_stmt 1 discriminator 1 view .LVU791
	.loc 1 1546 3 discriminator 1 view .LVU792
	.loc 1 1546 3 discriminator 1 view .LVU793
	.loc 1 1546 3 discriminator 1 view .LVU794
	.loc 1 1546 3 discriminator 1 view .LVU795
	.loc 1 1546 3 discriminator 1 view .LVU796
	b	.L222
.L221:
	.loc 1 1546 59 view .LVU797
	.loc 1 1549 3 view .LVU798
	.loc 1 1541 2 is_stmt 0 view .LVU799
	push	{r4, r5, r6, r7, lr}
.LCFI21:
	.cfi_def_cfa_offset 20
	.cfi_offset 4, -20
	.cfi_offset 5, -16
	.cfi_offset 6, -12
	.cfi_offset 7, -8
	.cfi_offset 14, -4
	mov	r4, r0
	sub	sp, sp, #12
.LCFI22:
	.cfi_def_cfa_offset 32
	mov	r5, r1
.LVL172:
	.loc 1 1555 28 is_stmt 1 view .LVU800
	.loc 1 1558 3 view .LVU801
	bl	vPortEnterCritical
.LVL173:
	.loc 1 1562 4 view .LVU802
	.loc 1 1562 12 is_stmt 0 view .LVU803
	cmp	r4, #0
	beq	.L241
.LVL174:
.L223:
	.loc 1 1564 50 is_stmt 1 discriminator 4 view .LVU804
	.loc 1 1568 5 discriminator 4 view .LVU805
	.loc 1 1568 27 is_stmt 0 discriminator 4 view .LVU806
	ldr	r3, [r4, #68]
.LVL175:
	.loc 1 1576 4 is_stmt 1 discriminator 4 view .LVU807
	.loc 1 1576 6 is_stmt 0 discriminator 4 view .LVU808
	cmp	r5, r3
	beq	.L225
	.loc 1 1580 5 is_stmt 1 view .LVU809
	.loc 1 1582 16 is_stmt 0 view .LVU810
	ldr	r2, .L243
	.loc 1 1580 7 view .LVU811
	bls	.L226
	.loc 1 1582 6 is_stmt 1 view .LVU812
	.loc 1 1582 16 is_stmt 0 view .LVU813
	ldr	r1, [r2]
	.loc 1 1582 8 view .LVU814
	cmp	r1, r4
	beq	.L233
	.loc 1 1587 7 is_stmt 1 view .LVU815
	.loc 1 1587 40 is_stmt 0 view .LVU816
	ldr	r2, [r2]
	.loc 1 1587 9 view .LVU817
	ldr	r7, [r2, #44]
	cmp	r7, r5
	ite	hi
	movhi	r7, #0
	movls	r7, #1
	b	.L227
.L226:
	.loc 1 1603 10 is_stmt 1 view .LVU818
	.loc 1 1603 20 is_stmt 0 view .LVU819
	ldr	r7, [r2]
	.loc 1 1603 12 view .LVU820
	subs	r7, r7, r4
	clz	r7, r7
	lsrs	r7, r7, #5
.L227:
.LVL176:
	.loc 1 1615 5 is_stmt 1 view .LVU821
	.loc 1 1620 5 view .LVU822
	.loc 1 1620 27 is_stmt 0 view .LVU823
	ldr	r6, [r4, #44]
.LVL177:
	.loc 1 1626 6 is_stmt 1 view .LVU824
	.loc 1 1636 28 is_stmt 0 view .LVU825
	str	r5, [r4, #68]
	.loc 1 1626 8 view .LVU826
	cmp	r3, r6
	.loc 1 1628 7 is_stmt 1 view .LVU827
	.loc 1 1646 7 is_stmt 0 view .LVU828
	ldr	r3, [r4, #24]
.LVL178:
	.loc 1 1628 25 view .LVU829
	it	eq
	streq	r5, [r4, #44]
	.loc 1 1632 31 is_stmt 1 view .LVU830
	.loc 1 1636 6 view .LVU831
	.loc 1 1646 5 view .LVU832
	.loc 1 1646 7 is_stmt 0 view .LVU833
	cmp	r3, #0
	.loc 1 1648 6 is_stmt 1 view .LVU834
	.loc 1 1652 30 view .LVU835
	.loc 1 1659 5 view .LVU836
	.loc 1 1648 6 is_stmt 0 view .LVU837
	itt	ge
	rsbge	r5, r5, #7
.LVL179:
	.loc 1 1648 6 view .LVU838
	strge	r5, [r4, #24]
	.loc 1 1659 9 view .LVU839
	ldr	r5, .L243+4
	.loc 1 1659 7 view .LVU840
	ldr	r2, [r4, #20]
	.loc 1 1659 9 view .LVU841
	add	r3, r6, r6, lsl #2
	add	r3, r5, r3, lsl #2
	.loc 1 1659 7 view .LVU842
	cmp	r2, r3
	beq	.L242
.LVL180:
.L230:
	.loc 1 1679 30 is_stmt 1 view .LVU843
	.loc 1 1682 5 view .LVU844
	.loc 1 1682 7 is_stmt 0 view .LVU845
	cbz	r7, .L225
	.loc 1 1684 6 is_stmt 1 view .LVU846
	mov	r3, #-536813568
	mov	r2, #268435456
	str	r2, [r3, #3332]
	.loc 1 1684 6 view .LVU847
	.syntax unified
@ 1684 "Middlewares/Third_Party/FreeRTOS/Source/tasks.c" 1
	dsb
@ 0 "" 2
	.loc 1 1684 6 view .LVU848
@ 1684 "Middlewares/Third_Party/FreeRTOS/Source/tasks.c" 1
	isb
@ 0 "" 2
	.loc 1 1684 37 view .LVU849
.LVL181:
	.thumb
	.syntax unified
.L225:
	.loc 1 1688 30 view .LVU850
	.loc 1 1693 5 view .LVU851
	.loc 1 1696 3 view .LVU852
	.loc 1 1697 2 is_stmt 0 view .LVU853
	add	sp, sp, #12
.LCFI23:
	.cfi_remember_state
	.cfi_def_cfa_offset 20
	@ sp needed
	pop	{r4, r5, r6, r7, lr}
.LCFI24:
	.cfi_restore 14
	.cfi_restore 7
	.cfi_restore 6
	.cfi_restore 5
	.cfi_restore 4
	.cfi_def_cfa_offset 0
	.loc 1 1696 3 view .LVU854
	b	vPortExitCritical
.LVL182:
.L241:
.LCFI25:
	.cfi_restore_state
	.loc 1 1562 12 discriminator 1 view .LVU855
	ldr	r3, .L243
	ldr	r4, [r3]
.LVL183:
	.loc 1 1562 12 discriminator 1 view .LVU856
	b	.L223
.LVL184:
.L242:
	.loc 1 1664 6 is_stmt 1 view .LVU857
	.loc 1 1664 10 is_stmt 0 view .LVU858
	adds	r1, r4, #4
	mov	r0, r1
	str	r1, [sp, #4]
	bl	uxListRemove
.LVL185:
	.loc 1 1664 8 view .LVU859
	ldr	r1, [sp, #4]
	.loc 1 1669 7 view .LVU860
	ldr	r3, .L243+8
	.loc 1 1664 8 view .LVU861
	cbnz	r0, .L231
	.loc 1 1669 7 is_stmt 1 view .LVU862
	movs	r2, #1
	lsl	r6, r2, r6
.LVL186:
	.loc 1 1669 7 is_stmt 0 view .LVU863
	ldr	r2, [r3]
	bic	r2, r2, r6
	str	r2, [r3]
.L231:
	.loc 1 1673 31 is_stmt 1 view .LVU864
	.loc 1 1675 6 view .LVU865
	.loc 1 1675 6 view .LVU866
	ldr	r0, [r4, #44]
	ldr	r4, [r3]
.LVL187:
	.loc 1 1675 6 is_stmt 0 view .LVU867
	movs	r2, #1
	lsls	r2, r2, r0
	add	r0, r0, r0, lsl #2
	orrs	r2, r2, r4
	add	r0, r5, r0, lsl #2
	str	r2, [r3]
	.loc 1 1675 6 is_stmt 1 view .LVU868
	bl	vListInsertEnd
.LVL188:
	.loc 1 1675 36 view .LVU869
	b	.L230
.LVL189:
.L233:
	.loc 1 1544 13 is_stmt 0 view .LVU870
	movs	r7, #0
	b	.L227
.L244:
	.align	2
.L243:
	.word	.LANCHOR5
	.word	.LANCHOR3
	.word	.LANCHOR6
	.cfi_endproc
.LFE12:
	.size	vTaskPrioritySet, .-vTaskPrioritySet
	.section	.text.vTaskResume,"ax",%progbits
	.align	1
	.p2align 2,,3
	.global	vTaskResume
	.syntax unified
	.thumb
	.thumb_func
	.fpu fpv4-sp-d16
	.type	vTaskResume, %function
vTaskResume:
.LVL190:
.LFB15:
	.loc 1 1852 2 is_stmt 1 view -0
	.cfi_startproc
	@ args = 0, pretend = 0, frame = 8
	@ frame_needed = 0, uses_anonymous_args = 0
	.loc 1 1853 2 view .LVU872
	.loc 1 1856 3 view .LVU873
	cbz	r0, .L254
	.loc 1 1852 2 is_stmt 0 discriminator 2 view .LVU874
	push	{r4, r5, r6, r7, lr}
.LCFI26:
	.cfi_def_cfa_offset 20
	.cfi_offset 4, -20
	.cfi_offset 5, -16
	.cfi_offset 6, -12
	.cfi_offset 7, -8
	.cfi_offset 14, -4
	.loc 1 1860 15 discriminator 2 view .LVU875
	ldr	r5, .L256
	ldr	r3, [r5]
	.loc 1 1860 5 discriminator 2 view .LVU876
	cmp	r3, r0
	.loc 1 1852 2 discriminator 2 view .LVU877
	sub	sp, sp, #12
.LCFI27:
	.cfi_def_cfa_offset 32
	mov	r4, r0
	.loc 1 1856 32 is_stmt 1 discriminator 2 view .LVU878
	.loc 1 1860 3 discriminator 2 view .LVU879
	.loc 1 1860 5 is_stmt 0 discriminator 2 view .LVU880
	beq	.L245
	.loc 1 1862 4 is_stmt 1 view .LVU881
	bl	vPortEnterCritical
.LVL191:
	.loc 1 1864 5 view .LVU882
.LBB308:
.LBI308:
	.loc 1 1805 20 view .LVU883
.LBB309:
	.loc 1 1807 2 view .LVU884
	.loc 1 1808 2 view .LVU885
	.loc 1 1814 3 view .LVU886
	.loc 1 1814 24 view .LVU887
	.loc 1 1817 3 view .LVU888
	.loc 1 1817 5 is_stmt 0 view .LVU889
	ldr	r3, .L256+4
	ldr	r2, [r4, #20]
	cmp	r2, r3
	beq	.L255
.LVL192:
.L250:
	.loc 1 1817 5 view .LVU890
.LBE309:
.LBE308:
	.loc 1 1888 30 is_stmt 1 view .LVU891
	.loc 1 1891 4 view .LVU892
	.loc 1 1897 2 is_stmt 0 view .LVU893
	add	sp, sp, #12
.LCFI28:
	.cfi_remember_state
	.cfi_def_cfa_offset 20
	@ sp needed
	pop	{r4, r5, r6, r7, lr}
.LCFI29:
	.cfi_restore 14
	.cfi_restore 7
	.cfi_restore 6
	.cfi_restore 5
	.cfi_restore 4
	.cfi_def_cfa_offset 0
.LVL193:
	.loc 1 1891 4 view .LVU894
	b	vPortExitCritical
.LVL194:
.L245:
.LCFI30:
	.cfi_restore_state
	.loc 1 1897 2 view .LVU895
	add	sp, sp, #12
.LCFI31:
	.cfi_def_cfa_offset 20
	@ sp needed
	pop	{r4, r5, r6, r7, pc}
.L254:
.LCFI32:
	.cfi_def_cfa_offset 0
	.cfi_restore 4
	.cfi_restore 5
	.cfi_restore 6
	.cfi_restore 7
	.cfi_restore 14
	.loc 1 1856 3 is_stmt 1 view .LVU896
.LBB313:
.LBI313:
	.loc 2 191 30 view .LVU897
.LBB314:
	.loc 2 193 1 view .LVU898
	.loc 2 195 2 view .LVU899
	.syntax unified
@ 195 "Middlewares/Third_Party/FreeRTOS/Source/portable/GCC/ARM_CM4F/portmacro.h" 1
		mov r3, #80												
	msr basepri, r3											
	isb														
	dsb														

@ 0 "" 2
.LVL195:
	.thumb
	.syntax unified
.L247:
	.loc 2 195 2 is_stmt 0 view .LVU900
.LBE314:
.LBE313:
	.loc 1 1856 3 is_stmt 1 discriminator 1 view .LVU901
	.loc 1 1856 3 discriminator 1 view .LVU902
	.loc 1 1856 3 discriminator 1 view .LVU903
	.loc 1 1856 3 discriminator 1 view .LVU904
	.loc 1 1856 3 discriminator 1 view .LVU905
	.loc 1 1856 3 discriminator 1 view .LVU906
	b	.L247
.LVL196:
.L255:
.LCFI33:
	.cfi_def_cfa_offset 32
	.cfi_offset 4, -20
	.cfi_offset 5, -16
	.cfi_offset 6, -12
	.cfi_offset 7, -8
	.cfi_offset 14, -4
.LBB315:
.LBB312:
.LBB310:
.LBI310:
	.loc 1 1805 20 view .LVU907
.LBB311:
	.loc 1 1820 4 view .LVU908
	.loc 1 1820 8 is_stmt 0 view .LVU909
	ldr	r3, [r4, #40]
	.loc 1 1820 6 view .LVU910
	ldr	r2, .L256+8
	cmp	r3, r2
	beq	.L250
	.loc 1 1824 5 is_stmt 1 view .LVU911
	.loc 1 1824 7 is_stmt 0 view .LVU912
	cmp	r3, #0
	bne	.L250
	.loc 1 1826 6 is_stmt 1 view .LVU913
.LVL197:
	.loc 1 1826 6 is_stmt 0 view .LVU914
.LBE311:
.LBE310:
	.loc 1 1840 28 is_stmt 1 view .LVU915
	.loc 1 1843 3 view .LVU916
	.loc 1 1843 3 is_stmt 0 view .LVU917
.LBE312:
.LBE315:
	.loc 1 1866 31 is_stmt 1 view .LVU918
	.loc 1 1870 6 view .LVU919
	.loc 1 1870 15 is_stmt 0 view .LVU920
	adds	r1, r4, #4
	mov	r0, r1
	str	r1, [sp, #4]
	bl	uxListRemove
.LVL198:
	.loc 1 1871 6 is_stmt 1 view .LVU921
	.loc 1 1871 6 view .LVU922
	ldr	r0, .L256+12
	ldr	r3, [r4, #44]
	ldr	r7, [r0]
	ldr	r6, .L256+16
	ldr	r1, [sp, #4]
	movs	r2, #1
	lsls	r2, r2, r3
	orrs	r2, r2, r7
	add	r3, r3, r3, lsl #2
	str	r2, [r0]
	.loc 1 1871 6 view .LVU923
	add	r0, r6, r3, lsl #2
	bl	vListInsertEnd
.LVL199:
	.loc 1 1871 36 view .LVU924
	.loc 1 1874 6 view .LVU925
	.loc 1 1874 43 is_stmt 0 view .LVU926
	ldr	r3, [r5]
	.loc 1 1874 8 view .LVU927
	ldr	r2, [r4, #44]
	ldr	r3, [r3, #44]
	cmp	r2, r3
	bcc	.L250
	.loc 1 1879 7 is_stmt 1 view .LVU928
	mov	r3, #-536813568
	mov	r2, #268435456
	str	r2, [r3, #3332]
	.loc 1 1879 7 view .LVU929
	.syntax unified
@ 1879 "Middlewares/Third_Party/FreeRTOS/Source/tasks.c" 1
	dsb
@ 0 "" 2
	.loc 1 1879 7 view .LVU930
@ 1879 "Middlewares/Third_Party/FreeRTOS/Source/tasks.c" 1
	isb
@ 0 "" 2
	.loc 1 1879 38 view .LVU931
	.thumb
	.syntax unified
	b	.L250
.L257:
	.align	2
.L256:
	.word	.LANCHOR5
	.word	.LANCHOR7
	.word	.LANCHOR14
	.word	.LANCHOR6
	.word	.LANCHOR3
	.cfi_endproc
.LFE15:
	.size	vTaskResume, .-vTaskResume
	.section	.text.xTaskResumeFromISR,"ax",%progbits
	.align	1
	.p2align 2,,3
	.global	xTaskResumeFromISR
	.syntax unified
	.thumb
	.thumb_func
	.fpu fpv4-sp-d16
	.type	xTaskResumeFromISR, %function
xTaskResumeFromISR:
.LVL200:
.LFB16:
	.loc 1 1906 2 view -0
	.cfi_startproc
	@ args = 0, pretend = 0, frame = 8
	@ frame_needed = 0, uses_anonymous_args = 0
	.loc 1 1907 2 view .LVU933
	.loc 1 1908 2 view .LVU934
	.loc 1 1909 2 view .LVU935
	.loc 1 1911 3 view .LVU936
	cbz	r0, .L268
	.loc 1 1906 2 is_stmt 0 discriminator 2 view .LVU937
	push	{r4, r5, r6, r7, lr}
.LCFI34:
	.cfi_def_cfa_offset 20
	.cfi_offset 4, -20
	.cfi_offset 5, -16
	.cfi_offset 6, -12
	.cfi_offset 7, -8
	.cfi_offset 14, -4
	sub	sp, sp, #12
.LCFI35:
	.cfi_def_cfa_offset 32
	mov	r4, r0
	.loc 1 1911 32 is_stmt 1 discriminator 2 view .LVU938
	.loc 1 1929 3 discriminator 2 view .LVU939
	bl	vPortValidateInterruptPriority
.LVL201:
	.loc 1 1931 3 discriminator 2 view .LVU940
.LBB330:
.LBI330:
	.loc 2 207 34 discriminator 2 view .LVU941
.LBB331:
	.loc 2 209 1 discriminator 2 view .LVU942
	.loc 2 211 2 discriminator 2 view .LVU943
	.syntax unified
@ 211 "Middlewares/Third_Party/FreeRTOS/Source/portable/GCC/ARM_CM4F/portmacro.h" 1
		mrs r6, basepri											
	mov r3, #80												
	msr basepri, r3											
	isb														
	dsb														

@ 0 "" 2
.LVL202:
	.loc 2 223 2 discriminator 2 view .LVU944
	.loc 2 223 2 is_stmt 0 discriminator 2 view .LVU945
	.thumb
	.syntax unified
.LBE331:
.LBE330:
	.loc 1 1933 4 is_stmt 1 discriminator 2 view .LVU946
.LBB332:
.LBI332:
	.loc 1 1805 20 discriminator 2 view .LVU947
.LBB333:
	.loc 1 1807 2 discriminator 2 view .LVU948
	.loc 1 1808 2 discriminator 2 view .LVU949
	.loc 1 1814 3 discriminator 2 view .LVU950
	.loc 1 1814 24 discriminator 2 view .LVU951
	.loc 1 1817 3 discriminator 2 view .LVU952
	.loc 1 1817 5 is_stmt 0 discriminator 2 view .LVU953
	ldr	r3, .L270
	ldr	r2, [r4, #20]
	cmp	r2, r3
	beq	.L269
.L265:
.LBE333:
.LBE332:
	.loc 1 1907 13 view .LVU954
	movs	r5, #0
.LVL203:
.L261:
	.loc 1 1964 29 is_stmt 1 view .LVU955
	.loc 1 1967 3 view .LVU956
.LBB337:
.LBI337:
	.loc 2 227 30 view .LVU957
.LBB338:
	.loc 2 229 2 view .LVU958
	.syntax unified
@ 229 "Middlewares/Third_Party/FreeRTOS/Source/portable/GCC/ARM_CM4F/portmacro.h" 1
		msr basepri, r6	
@ 0 "" 2
.LVL204:
	.loc 2 229 2 is_stmt 0 view .LVU959
	.thumb
	.syntax unified
.LBE338:
.LBE337:
	.loc 1 1969 3 is_stmt 1 view .LVU960
	.loc 1 1970 2 is_stmt 0 view .LVU961
	mov	r0, r5
	add	sp, sp, #12
.LCFI36:
	.cfi_def_cfa_offset 20
	@ sp needed
	pop	{r4, r5, r6, r7, pc}
.LVL205:
.L268:
.LCFI37:
	.cfi_def_cfa_offset 0
	.cfi_restore 4
	.cfi_restore 5
	.cfi_restore 6
	.cfi_restore 7
	.cfi_restore 14
	.loc 1 1911 3 is_stmt 1 view .LVU962
.LBB340:
.LBI340:
	.loc 2 191 30 view .LVU963
.LBB341:
	.loc 2 193 1 view .LVU964
	.loc 2 195 2 view .LVU965
	.syntax unified
@ 195 "Middlewares/Third_Party/FreeRTOS/Source/portable/GCC/ARM_CM4F/portmacro.h" 1
		mov r3, #80												
	msr basepri, r3											
	isb														
	dsb														

@ 0 "" 2
.LVL206:
	.thumb
	.syntax unified
.L260:
	.loc 2 195 2 is_stmt 0 view .LVU966
.LBE341:
.LBE340:
	.loc 1 1911 3 is_stmt 1 discriminator 1 view .LVU967
	.loc 1 1911 3 discriminator 1 view .LVU968
	.loc 1 1911 3 discriminator 1 view .LVU969
	.loc 1 1911 3 discriminator 1 view .LVU970
	.loc 1 1911 3 discriminator 1 view .LVU971
	.loc 1 1911 3 discriminator 1 view .LVU972
	b	.L260
.LVL207:
.L269:
.LCFI38:
	.cfi_def_cfa_offset 32
	.cfi_offset 4, -20
	.cfi_offset 5, -16
	.cfi_offset 6, -12
	.cfi_offset 7, -8
	.cfi_offset 14, -4
.LBB342:
.LBB336:
.LBB334:
.LBI334:
	.loc 1 1805 20 view .LVU973
.LBB335:
	.loc 1 1820 4 view .LVU974
	.loc 1 1820 8 is_stmt 0 view .LVU975
	ldr	r5, [r4, #40]
	.loc 1 1820 6 view .LVU976
	ldr	r0, .L270+4
	cmp	r5, r0
	beq	.L265
	.loc 1 1824 5 is_stmt 1 view .LVU977
	.loc 1 1824 7 is_stmt 0 view .LVU978
	cmp	r5, #0
	bne	.L265
	.loc 1 1826 6 is_stmt 1 view .LVU979
.LVL208:
	.loc 1 1826 6 is_stmt 0 view .LVU980
.LBE335:
.LBE334:
	.loc 1 1840 28 is_stmt 1 view .LVU981
	.loc 1 1843 3 view .LVU982
	.loc 1 1843 3 is_stmt 0 view .LVU983
.LBE336:
.LBE342:
	.loc 1 1935 39 is_stmt 1 view .LVU984
	.loc 1 1938 5 view .LVU985
	.loc 1 1938 30 is_stmt 0 view .LVU986
	ldr	r3, .L270+8
	ldr	r3, [r3]
	.loc 1 1938 7 view .LVU987
	cbnz	r3, .L262
	.loc 1 1942 6 is_stmt 1 view .LVU988
	.loc 1 1942 43 is_stmt 0 view .LVU989
	ldr	r3, .L270+12
	.loc 1 1942 8 view .LVU990
	ldr	r5, [r4, #44]
	.loc 1 1942 43 view .LVU991
	ldr	r3, [r3]
	.loc 1 1942 8 view .LVU992
	ldr	r3, [r3, #44]
	.loc 1 1951 15 view .LVU993
	adds	r1, r4, #4
	.loc 1 1942 8 view .LVU994
	cmp	r5, r3
	.loc 1 1951 15 view .LVU995
	mov	r0, r1
	.loc 1 1942 8 view .LVU996
	ite	cc
	movcc	r5, #0
	movcs	r5, #1
.LVL209:
	.loc 1 1948 31 is_stmt 1 view .LVU997
	.loc 1 1951 6 view .LVU998
	.loc 1 1951 15 is_stmt 0 view .LVU999
	str	r1, [sp, #4]
	bl	uxListRemove
.LVL210:
	.loc 1 1952 6 is_stmt 1 view .LVU1000
	.loc 1 1952 6 view .LVU1001
	ldr	r0, .L270+16
	ldr	r3, [r4, #44]
	ldr	r7, [r0]
	ldr	r4, .L270+20
.LVL211:
	.loc 1 1952 6 is_stmt 0 view .LVU1002
	ldr	r1, [sp, #4]
	movs	r2, #1
	lsls	r2, r2, r3
	orrs	r2, r2, r7
	add	r3, r3, r3, lsl #2
	str	r2, [r0]
	.loc 1 1952 6 is_stmt 1 view .LVU1003
	add	r0, r4, r3, lsl #2
	bl	vListInsertEnd
.LVL212:
	.loc 1 1952 36 view .LVU1004
	.loc 1 1964 29 view .LVU1005
	.loc 1 1967 3 view .LVU1006
.LBB343:
	.loc 2 227 30 view .LVU1007
.LBB339:
	.loc 2 229 2 view .LVU1008
	.syntax unified
@ 229 "Middlewares/Third_Party/FreeRTOS/Source/portable/GCC/ARM_CM4F/portmacro.h" 1
		msr basepri, r6	
@ 0 "" 2
.LVL213:
	.loc 2 229 2 is_stmt 0 view .LVU1009
	.thumb
	.syntax unified
.LBE339:
.LBE343:
	.loc 1 1969 3 is_stmt 1 view .LVU1010
	.loc 1 1970 2 is_stmt 0 view .LVU1011
	mov	r0, r5
	add	sp, sp, #12
.LCFI39:
	.cfi_remember_state
	.cfi_def_cfa_offset 20
	@ sp needed
	pop	{r4, r5, r6, r7, pc}
.LVL214:
.L262:
.LCFI40:
	.cfi_restore_state
	.loc 1 1959 6 is_stmt 1 view .LVU1012
	add	r1, r4, #24
	bl	vListInsertEnd
.LVL215:
	b	.L261
.L271:
	.align	2
.L270:
	.word	.LANCHOR7
	.word	.LANCHOR14
	.word	.LANCHOR13
	.word	.LANCHOR5
	.word	.LANCHOR6
	.word	.LANCHOR3
	.cfi_endproc
.LFE16:
	.size	xTaskResumeFromISR, .-xTaskResumeFromISR
	.section	.text.vTaskStartScheduler,"ax",%progbits
	.align	1
	.p2align 2,,3
	.global	vTaskStartScheduler
	.syntax unified
	.thumb
	.thumb_func
	.fpu fpv4-sp-d16
	.type	vTaskStartScheduler, %function
vTaskStartScheduler:
.LFB17:
	.loc 1 1976 1 view -0
	.cfi_startproc
	@ args = 0, pretend = 0, frame = 0
	@ frame_needed = 0, uses_anonymous_args = 0
	.loc 1 1977 1 view .LVU1014
	.loc 1 2009 3 view .LVU1015
.LVL216:
.LBB357:
.LBI357:
	.loc 1 733 13 view .LVU1016
.LBB358:
	.loc 1 740 2 view .LVU1017
	.loc 1 741 2 view .LVU1018
.LBB359:
	.loc 1 770 3 view .LVU1019
	.loc 1 773 4 view .LVU1020
.LBE359:
.LBE358:
.LBE357:
	.loc 1 1976 1 is_stmt 0 view .LVU1021
	push	{r3, r4, r5, r6, r7, r8, r9, lr}
.LCFI41:
	.cfi_def_cfa_offset 32
	.cfi_offset 3, -32
	.cfi_offset 4, -28
	.cfi_offset 5, -24
	.cfi_offset 6, -20
	.cfi_offset 7, -16
	.cfi_offset 8, -12
	.cfi_offset 9, -8
	.cfi_offset 14, -4
.LBB375:
.LBB372:
.LBB360:
	.loc 1 773 14 view .LVU1022
	mov	r0, #512
	bl	pvPortMalloc
.LVL217:
	.loc 1 775 4 is_stmt 1 view .LVU1023
	.loc 1 775 6 is_stmt 0 view .LVU1024
	cmp	r0, #0
	beq	.L273
	.loc 1 778 5 is_stmt 1 view .LVU1025
	mov	r5, r0
	.loc 1 778 28 is_stmt 0 view .LVU1026
	movs	r0, #84
.LVL218:
	.loc 1 778 28 view .LVU1027
	bl	pvPortMalloc
.LVL219:
	.loc 1 780 5 is_stmt 1 view .LVU1028
	.loc 1 780 7 is_stmt 0 view .LVU1029
	mov	r4, r0
	cmp	r0, #0
	beq	.L274
	.loc 1 783 6 is_stmt 1 view .LVU1030
.LBE360:
.LBB361:
.LBB362:
	.loc 1 896 30 is_stmt 0 view .LVU1031
	ldr	r3, .L296
	movs	r6, #0
	.loc 1 941 2 view .LVU1032
	adds	r7, r0, #4
	.loc 1 896 30 view .LVU1033
	strd	r5, r3, [r0, #48]
	.loc 1 937 27 view .LVU1034
	strd	r6, r6, [r0, #68]
	.loc 1 896 30 view .LVU1035
	strb	r6, [r0, #56]
	.loc 1 901 4 is_stmt 1 view .LVU1036
	.loc 1 913 3 view .LVU1037
	.loc 1 913 55 is_stmt 0 view .LVU1038
	strb	r6, [r0, #67]
	.loc 1 924 2 is_stmt 1 view .LVU1039
.LVL220:
	.loc 1 930 27 view .LVU1040
	.loc 1 933 2 view .LVU1041
	.loc 1 933 23 is_stmt 0 view .LVU1042
	str	r6, [r0, #44]
	.loc 1 936 3 is_stmt 1 view .LVU1043
	.loc 1 941 2 view .LVU1044
	mov	r0, r7
.LVL221:
	.loc 1 941 2 is_stmt 0 view .LVU1045
	bl	vListInitialiseItem
.LVL222:
	.loc 1 942 2 is_stmt 1 view .LVU1046
	add	r0, r4, #24
	bl	vListInitialiseItem
.LVL223:
	.loc 1 946 2 view .LVU1047
	.loc 1 949 2 is_stmt 0 view .LVU1048
	movs	r3, #7
	.loc 1 864 16 view .LVU1049
	add	r0, r5, #508
	.loc 1 1058 29 view .LVU1050
	mov	r2, r6
	ldr	r1, .L296+4
	.loc 1 992 29 view .LVU1051
	str	r6, [r4, #76]
	.loc 1 949 2 view .LVU1052
	str	r3, [r4, #24]
	.loc 1 946 2 view .LVU1053
	str	r4, [r4, #16]
	.loc 1 949 2 is_stmt 1 view .LVU1054
	.loc 1 950 2 view .LVU1055
	str	r4, [r4, #36]
	.loc 1 977 3 view .LVU1056
	.loc 1 992 3 view .LVU1057
	.loc 1 993 3 view .LVU1058
	.loc 1 993 27 is_stmt 0 view .LVU1059
	strb	r6, [r4, #80]
	.loc 1 1058 4 is_stmt 1 view .LVU1060
	.loc 1 1058 29 is_stmt 0 view .LVU1061
	bic	r0, r0, #7
	bl	pxPortInitialiseStack
.LVL224:
	.loc 1 1068 18 view .LVU1062
	ldr	r3, .L296+8
	.loc 1 1058 27 view .LVU1063
	str	r0, [r4]
	.loc 1 1064 2 is_stmt 1 view .LVU1064
	.loc 1 1068 3 view .LVU1065
	.loc 1 1068 18 is_stmt 0 view .LVU1066
	str	r4, [r3]
	.loc 1 1072 27 is_stmt 1 view .LVU1067
.LVL225:
	.loc 1 1072 27 is_stmt 0 view .LVU1068
.LBE362:
.LBE361:
	.loc 1 810 4 is_stmt 1 view .LVU1069
.LBB363:
.LBI363:
	.loc 1 1077 13 view .LVU1070
.LBB364:
	.loc 1 1081 2 view .LVU1071
	bl	vPortEnterCritical
.LVL226:
	.loc 1 1083 3 view .LVU1072
	.loc 1 1083 25 is_stmt 0 view .LVU1073
	ldr	r2, .L296+12
	.loc 1 1084 20 view .LVU1074
	ldr	r5, .L296+16
.LVL227:
	.loc 1 1083 25 view .LVU1075
	ldr	r3, [r2]
	adds	r3, r3, #1
	str	r3, [r2]
	.loc 1 1084 3 is_stmt 1 view .LVU1076
	.loc 1 1084 20 is_stmt 0 view .LVU1077
	ldr	r3, [r5]
	.loc 1 1084 5 view .LVU1078
	cmp	r3, #0
	beq	.L295
	.loc 1 1107 4 is_stmt 1 view .LVU1079
	.loc 1 1107 26 is_stmt 0 view .LVU1080
	ldr	r6, .L296+20
	ldr	r3, [r6]
	.loc 1 1107 6 view .LVU1081
	cmp	r3, #0
	beq	.L280
	.loc 1 1134 3 view .LVU1082
	ldr	r0, [r4, #44]
	ldr	r8, .L296+64
.L278:
	.loc 1 1120 29 is_stmt 1 view .LVU1083
	.loc 1 1124 3 view .LVU1084
	.loc 1 1134 3 is_stmt 0 view .LVU1085
	ldr	r2, .L296+24
	mov	r1, r7
	.loc 1 1124 15 view .LVU1086
	ldr	r7, .L296+28
	ldr	r3, [r7]
	adds	r3, r3, #1
	str	r3, [r7]
	.loc 1 1132 31 is_stmt 1 view .LVU1087
	.loc 1 1134 3 view .LVU1088
	.loc 1 1134 3 view .LVU1089
	ldr	r7, [r2]
	movs	r3, #1
	lsls	r3, r3, r0
	add	r0, r0, r0, lsl #2
	orrs	r3, r3, r7
	add	r0, r8, r0, lsl #2
	str	r3, [r2]
	.loc 1 1134 3 view .LVU1090
	bl	vListInsertEnd
.LVL228:
	.loc 1 1134 36 view .LVU1091
	.loc 1 1136 3 view .LVU1092
	.loc 1 1138 2 view .LVU1093
	bl	vPortExitCritical
.LVL229:
	.loc 1 1140 2 view .LVU1094
	.loc 1 1140 24 is_stmt 0 view .LVU1095
	ldr	r3, [r6]
	.loc 1 1140 4 view .LVU1096
	cbz	r3, .L281
	.loc 1 1144 3 is_stmt 1 view .LVU1097
	.loc 1 1144 19 is_stmt 0 view .LVU1098
	ldr	r2, [r5]
	.loc 1 1144 5 view .LVU1099
	ldr	r3, [r4, #44]
	ldr	r2, [r2, #44]
	cmp	r2, r3
	bcs	.L281
	.loc 1 1146 4 is_stmt 1 view .LVU1100
	mov	r3, #-536813568
	mov	r2, #268435456
	str	r2, [r3, #3332]
	.loc 1 1146 4 view .LVU1101
	.syntax unified
@ 1146 "Middlewares/Third_Party/FreeRTOS/Source/tasks.c" 1
	dsb
@ 0 "" 2
	.loc 1 1146 4 view .LVU1102
@ 1146 "Middlewares/Third_Party/FreeRTOS/Source/tasks.c" 1
	isb
@ 0 "" 2
	.loc 1 1146 35 view .LVU1103
.LVL230:
	.loc 1 1146 35 is_stmt 0 view .LVU1104
	.thumb
	.syntax unified
.LBE364:
.LBE363:
	.loc 1 818 3 is_stmt 1 view .LVU1105
	.loc 1 818 3 is_stmt 0 view .LVU1106
.LBE372:
.LBE375:
	.loc 1 2031 2 is_stmt 1 view .LVU1107
.L281:
	.loc 1 2047 3 view .LVU1108
.LBB376:
.LBI376:
	.loc 2 191 30 view .LVU1109
.LBB377:
	.loc 2 193 1 view .LVU1110
	.loc 2 195 2 view .LVU1111
	.syntax unified
@ 195 "Middlewares/Third_Party/FreeRTOS/Source/portable/GCC/ARM_CM4F/portmacro.h" 1
		mov r3, #80												
	msr basepri, r3											
	isb														
	dsb														

@ 0 "" 2
	.thumb
	.syntax unified
.LBE377:
.LBE376:
	.loc 1 2059 3 view .LVU1112
	.loc 1 2059 24 is_stmt 0 view .LVU1113
	ldr	r2, .L296+32
	.loc 1 2061 14 view .LVU1114
	ldr	r3, .L296+36
	.loc 1 2059 24 view .LVU1115
	mov	r0, #-1
	str	r0, [r2]
	.loc 1 2060 3 is_stmt 1 view .LVU1116
	.loc 1 2060 21 is_stmt 0 view .LVU1117
	movs	r1, #1
	.loc 1 2061 14 view .LVU1118
	movs	r2, #0
	.loc 1 2060 21 view .LVU1119
	str	r1, [r6]
	.loc 1 2061 3 is_stmt 1 view .LVU1120
	.loc 1 2061 14 is_stmt 0 view .LVU1121
	str	r2, [r3]
	.loc 1 2069 43 is_stmt 1 view .LVU1122
	.loc 1 2071 26 view .LVU1123
	.loc 1 2075 3 view .LVU1124
	.loc 1 2096 1 is_stmt 0 view .LVU1125
	pop	{r3, r4, r5, r6, r7, r8, r9, lr}
.LCFI42:
	.cfi_remember_state
	.cfi_restore 14
	.cfi_restore 9
	.cfi_restore 8
	.cfi_restore 7
	.cfi_restore 6
	.cfi_restore 5
	.cfi_restore 4
	.cfi_restore 3
	.cfi_def_cfa_offset 0
	.loc 1 2075 7 view .LVU1126
	b	xPortStartScheduler
.LVL231:
.L274:
.LCFI43:
	.cfi_restore_state
.LBB378:
.LBB373:
.LBB370:
	.loc 1 789 6 is_stmt 1 view .LVU1127
	mov	r0, r5
.LVL232:
	.loc 1 789 6 is_stmt 0 view .LVU1128
	bl	vPortFree
.LVL233:
	.loc 1 789 6 view .LVU1129
.LBE370:
	.loc 1 799 3 is_stmt 1 view .LVU1130
	.loc 1 818 3 view .LVU1131
	.loc 1 818 3 is_stmt 0 view .LVU1132
.LBE373:
.LBE378:
	.loc 1 2031 2 is_stmt 1 view .LVU1133
.L273:
	.loc 1 2090 3 view .LVU1134
.LBB379:
.LBI379:
	.loc 2 191 30 view .LVU1135
.LBB380:
	.loc 2 193 1 view .LVU1136
	.loc 2 195 2 view .LVU1137
	.syntax unified
@ 195 "Middlewares/Third_Party/FreeRTOS/Source/portable/GCC/ARM_CM4F/portmacro.h" 1
		mov r3, #80												
	msr basepri, r3											
	isb														
	dsb														

@ 0 "" 2
.LVL234:
	.thumb
	.syntax unified
.L282:
	.loc 2 195 2 is_stmt 0 view .LVU1138
.LBE380:
.LBE379:
	.loc 1 2090 3 is_stmt 1 discriminator 2 view .LVU1139
	.loc 1 2090 3 discriminator 2 view .LVU1140
	.loc 1 2090 3 discriminator 2 view .LVU1141
	.loc 1 2090 3 discriminator 2 view .LVU1142
	.loc 1 2090 3 discriminator 2 view .LVU1143
	.loc 1 2090 3 discriminator 2 view .LVU1144
	b	.L282
.LVL235:
.L280:
.LBB381:
.LBB374:
.LBB371:
.LBB369:
	.loc 1 1109 5 view .LVU1145
	.loc 1 1109 21 is_stmt 0 view .LVU1146
	ldr	r3, [r5]
	.loc 1 1109 45 view .LVU1147
	ldr	r0, [r4, #44]
	.loc 1 1109 7 view .LVU1148
	ldr	r3, [r3, #44]
	ldr	r8, .L296+64
	cmp	r3, r0
	.loc 1 1111 6 is_stmt 1 view .LVU1149
	.loc 1 1111 19 is_stmt 0 view .LVU1150
	it	ls
	strls	r4, [r5]
	b	.L278
.L295:
	.loc 1 1088 4 is_stmt 1 view .LVU1151
	.loc 1 1088 17 is_stmt 0 view .LVU1152
	str	r4, [r5]
	.loc 1 1090 4 is_stmt 1 view .LVU1153
	.loc 1 1090 31 is_stmt 0 view .LVU1154
	ldr	r3, [r2]
	.loc 1 1090 6 view .LVU1155
	cmp	r3, #1
	beq	.L277
	.loc 1 1134 3 view .LVU1156
	ldr	r0, [r4, #44]
	ldr	r8, .L296+64
	ldr	r6, .L296+20
	b	.L278
.L277:
	ldr	r8, .L296+64
	mov	r6, r8
	add	r9, r8, #140
.L279:
.LBB365:
.LBB366:
	.loc 1 3613 3 is_stmt 1 view .LVU1157
	mov	r0, r6
	.loc 1 3611 2 is_stmt 0 view .LVU1158
	adds	r6, r6, #20
	.loc 1 3613 3 view .LVU1159
	bl	vListInitialise
.LVL236:
	.loc 1 3611 91 is_stmt 1 view .LVU1160
	.loc 1 3611 40 view .LVU1161
	.loc 1 3611 2 is_stmt 0 view .LVU1162
	cmp	r9, r6
	bne	.L279
	.loc 1 3616 2 is_stmt 1 view .LVU1163
	ldr	r9, .L296+68
	.loc 1 3617 2 is_stmt 0 view .LVU1164
	ldr	r6, .L296+40
	.loc 1 3616 2 view .LVU1165
	mov	r0, r9
	bl	vListInitialise
.LVL237:
	.loc 1 3617 2 is_stmt 1 view .LVU1166
	mov	r0, r6
	bl	vListInitialise
.LVL238:
	.loc 1 3618 2 view .LVU1167
	ldr	r0, .L296+44
	bl	vListInitialise
.LVL239:
	.loc 1 3622 3 view .LVU1168
	ldr	r0, .L296+48
	bl	vListInitialise
.LVL240:
	.loc 1 3628 3 view .LVU1169
	ldr	r0, .L296+52
	bl	vListInitialise
.LVL241:
	.loc 1 3634 2 view .LVU1170
	.loc 1 3634 20 is_stmt 0 view .LVU1171
	ldr	r3, .L296+56
.LBE366:
.LBE365:
	.loc 1 1134 3 view .LVU1172
	ldr	r0, [r4, #44]
.LBB368:
.LBB367:
	.loc 1 3634 20 view .LVU1173
	str	r9, [r3]
	.loc 1 3635 2 is_stmt 1 view .LVU1174
	.loc 1 3635 28 is_stmt 0 view .LVU1175
	ldr	r3, .L296+60
	str	r6, [r3]
	ldr	r6, .L296+20
	.loc 1 3636 1 view .LVU1176
	b	.L278
.L297:
	.align	2
.L296:
	.word	1162626121
	.word	prvIdleTask
	.word	.LANCHOR20
	.word	.LANCHOR2
	.word	.LANCHOR5
	.word	.LANCHOR18
	.word	.LANCHOR6
	.word	.LANCHOR19
	.word	.LANCHOR10
	.word	.LANCHOR4
	.word	.LANCHOR17
	.word	.LANCHOR14
	.word	.LANCHOR1
	.word	.LANCHOR7
	.word	.LANCHOR9
	.word	.LANCHOR8
	.word	.LANCHOR3
	.word	.LANCHOR16
.LBE367:
.LBE368:
.LBE369:
.LBE371:
.LBE374:
.LBE381:
	.cfi_endproc
.LFE17:
	.size	vTaskStartScheduler, .-vTaskStartScheduler
	.section	.text.vTaskEndScheduler,"ax",%progbits
	.align	1
	.p2align 2,,3
	.global	vTaskEndScheduler
	.syntax unified
	.thumb
	.thumb_func
	.fpu fpv4-sp-d16
	.type	vTaskEndScheduler, %function
vTaskEndScheduler:
.LFB18:
	.loc 1 2100 1 is_stmt 1 view -0
	.cfi_startproc
	@ args = 0, pretend = 0, frame = 0
	@ frame_needed = 0, uses_anonymous_args = 0
	@ link register save eliminated.
	.loc 1 2104 2 view .LVU1178
.LBB382:
.LBI382:
	.loc 2 191 30 view .LVU1179
.LBB383:
	.loc 2 193 1 view .LVU1180
	.loc 2 195 2 view .LVU1181
	.syntax unified
@ 195 "Middlewares/Third_Party/FreeRTOS/Source/portable/GCC/ARM_CM4F/portmacro.h" 1
		mov r3, #80												
	msr basepri, r3											
	isb														
	dsb														

@ 0 "" 2
	.thumb
	.syntax unified
.LBE383:
.LBE382:
	.loc 1 2105 2 view .LVU1182
	.loc 1 2105 20 is_stmt 0 view .LVU1183
	ldr	r3, .L299
	movs	r2, #0
	str	r2, [r3]
	.loc 1 2106 2 is_stmt 1 view .LVU1184
	b	vPortEndScheduler
.LVL242:
.L300:
	.align	2
.L299:
	.word	.LANCHOR18
	.cfi_endproc
.LFE18:
	.size	vTaskEndScheduler, .-vTaskEndScheduler
	.section	.text.vTaskSuspendAll,"ax",%progbits
	.align	1
	.p2align 2,,3
	.global	vTaskSuspendAll
	.syntax unified
	.thumb
	.thumb_func
	.fpu fpv4-sp-d16
	.type	vTaskSuspendAll, %function
vTaskSuspendAll:
.LFB19:
	.loc 1 2111 1 view -0
	.cfi_startproc
	@ args = 0, pretend = 0, frame = 0
	@ frame_needed = 0, uses_anonymous_args = 0
	@ link register save eliminated.
	.loc 1 2119 24 view .LVU1186
	.loc 1 2123 2 view .LVU1187
	ldr	r2, .L302
	ldr	r3, [r2]
	adds	r3, r3, #1
	str	r3, [r2]
	.loc 1 2127 2 view .LVU1188
	.loc 1 2128 1 is_stmt 0 view .LVU1189
	bx	lr
.L303:
	.align	2
.L302:
	.word	.LANCHOR13
	.cfi_endproc
.LFE19:
	.size	vTaskSuspendAll, .-vTaskSuspendAll
	.section	.text.xTaskResumeAll,"ax",%progbits
	.align	1
	.p2align 2,,3
	.global	xTaskResumeAll
	.syntax unified
	.thumb
	.thumb_func
	.fpu fpv4-sp-d16
	.type	xTaskResumeAll, %function
xTaskResumeAll:
.LFB20:
	.loc 1 2195 1 is_stmt 1 view -0
	.cfi_startproc
	@ args = 0, pretend = 0, frame = 0
	@ frame_needed = 0, uses_anonymous_args = 0
	@ link register save eliminated.
	.loc 1 2196 1 view .LVU1191
.LVL243:
	.loc 1 2197 1 view .LVU1192
	.loc 1 2201 2 view .LVU1193
	ldr	r3, .L307
	ldr	r3, [r3]
	cbnz	r3, .L305
	.loc 1 2201 2 view .LVU1194
.LBB386:
.LBI386:
	.loc 2 191 30 view .LVU1195
.LBB387:
	.loc 2 193 1 view .LVU1196
	.loc 2 195 2 view .LVU1197
	.syntax unified
@ 195 "Middlewares/Third_Party/FreeRTOS/Source/portable/GCC/ARM_CM4F/portmacro.h" 1
		mov r3, #80												
	msr basepri, r3											
	isb														
	dsb														

@ 0 "" 2
.LVL244:
	.thumb
	.syntax unified
.L306:
	.loc 2 195 2 is_stmt 0 view .LVU1198
.LBE387:
.LBE386:
	.loc 1 2201 2 is_stmt 1 discriminator 1 view .LVU1199
	.loc 1 2201 2 discriminator 1 view .LVU1200
	.loc 1 2201 2 discriminator 1 view .LVU1201
	.loc 1 2201 2 discriminator 1 view .LVU1202
	.loc 1 2201 2 discriminator 1 view .LVU1203
	.loc 1 2201 2 discriminator 1 view .LVU1204
	b	.L306
.L305:
	b	xTaskResumeAll.part.0
.LVL245:
.L308:
	.align	2
.L307:
	.word	.LANCHOR13
	.cfi_endproc
.LFE20:
	.size	xTaskResumeAll, .-xTaskResumeAll
	.section	.text.xTaskGetTickCount,"ax",%progbits
	.align	1
	.p2align 2,,3
	.global	xTaskGetTickCount
	.syntax unified
	.thumb
	.thumb_func
	.fpu fpv4-sp-d16
	.type	xTaskGetTickCount, %function
xTaskGetTickCount:
.LFB21:
	.loc 1 2305 1 view -0
	.cfi_startproc
	@ args = 0, pretend = 0, frame = 0
	@ frame_needed = 0, uses_anonymous_args = 0
	@ link register save eliminated.
	.loc 1 2306 1 view .LVU1206
	.loc 1 2309 32 view .LVU1207
	.loc 1 2311 3 view .LVU1208
	.loc 1 2311 10 is_stmt 0 view .LVU1209
	ldr	r3, .L310
	ldr	r0, [r3]
.LVL246:
	.loc 1 2313 31 is_stmt 1 view .LVU1210
	.loc 1 2315 2 view .LVU1211
	.loc 1 2316 1 is_stmt 0 view .LVU1212
	bx	lr
.L311:
	.align	2
.L310:
	.word	.LANCHOR4
	.cfi_endproc
.LFE21:
	.size	xTaskGetTickCount, .-xTaskGetTickCount
	.section	.text.xTaskGetTickCountFromISR,"ax",%progbits
	.align	1
	.p2align 2,,3
	.global	xTaskGetTickCountFromISR
	.syntax unified
	.thumb
	.thumb_func
	.fpu fpv4-sp-d16
	.type	xTaskGetTickCountFromISR, %function
xTaskGetTickCountFromISR:
.LFB22:
	.loc 1 2320 1 is_stmt 1 view -0
	.cfi_startproc
	@ args = 0, pretend = 0, frame = 0
	@ frame_needed = 0, uses_anonymous_args = 0
	.loc 1 2321 1 view .LVU1214
	.loc 1 2322 1 view .LVU1215
	.loc 1 2338 2 view .LVU1216
	.loc 1 2320 1 is_stmt 0 view .LVU1217
	push	{r3, lr}
.LCFI44:
	.cfi_def_cfa_offset 8
	.cfi_offset 3, -8
	.cfi_offset 14, -4
	.loc 1 2338 2 view .LVU1218
	bl	vPortValidateInterruptPriority
.LVL247:
	.loc 1 2340 2 is_stmt 1 view .LVU1219
	.loc 1 2342 3 view .LVU1220
	.loc 1 2342 11 is_stmt 0 view .LVU1221
	ldr	r3, .L314
	ldr	r0, [r3]
.LVL248:
	.loc 1 2344 2 is_stmt 1 view .LVU1222
	.loc 1 2346 2 view .LVU1223
	.loc 1 2347 1 is_stmt 0 view .LVU1224
	pop	{r3, pc}
.L315:
	.align	2
.L314:
	.word	.LANCHOR4
	.cfi_endproc
.LFE22:
	.size	xTaskGetTickCountFromISR, .-xTaskGetTickCountFromISR
	.section	.text.uxTaskGetNumberOfTasks,"ax",%progbits
	.align	1
	.p2align 2,,3
	.global	uxTaskGetNumberOfTasks
	.syntax unified
	.thumb
	.thumb_func
	.fpu fpv4-sp-d16
	.type	uxTaskGetNumberOfTasks, %function
uxTaskGetNumberOfTasks:
.LFB23:
	.loc 1 2351 1 is_stmt 1 view -0
	.cfi_startproc
	@ args = 0, pretend = 0, frame = 0
	@ frame_needed = 0, uses_anonymous_args = 0
	@ link register save eliminated.
	.loc 1 2354 2 view .LVU1226
	.loc 1 2354 9 is_stmt 0 view .LVU1227
	ldr	r3, .L317
	ldr	r0, [r3]
	.loc 1 2355 1 view .LVU1228
	bx	lr
.L318:
	.align	2
.L317:
	.word	.LANCHOR2
	.cfi_endproc
.LFE23:
	.size	uxTaskGetNumberOfTasks, .-uxTaskGetNumberOfTasks
	.section	.text.pcTaskGetName,"ax",%progbits
	.align	1
	.p2align 2,,3
	.global	pcTaskGetName
	.syntax unified
	.thumb
	.thumb_func
	.fpu fpv4-sp-d16
	.type	pcTaskGetName, %function
pcTaskGetName:
.LVL249:
.LFB24:
	.loc 1 2359 1 is_stmt 1 view -0
	.cfi_startproc
	@ args = 0, pretend = 0, frame = 0
	@ frame_needed = 0, uses_anonymous_args = 0
	@ link register save eliminated.
	.loc 1 2360 1 view .LVU1230
	.loc 1 2364 2 view .LVU1231
	.loc 1 2364 10 is_stmt 0 view .LVU1232
	cbz	r0, .L322
.LVL250:
.L320:
	.loc 1 2365 23 is_stmt 1 discriminator 2 view .LVU1233
	.loc 1 2366 2 discriminator 2 view .LVU1234
	.loc 1 2367 1 is_stmt 0 discriminator 2 view .LVU1235
	adds	r0, r0, #52
.LVL251:
	.loc 1 2367 1 discriminator 2 view .LVU1236
	bx	lr
.LVL252:
.L322:
	.loc 1 2364 10 discriminator 1 view .LVU1237
	ldr	r3, .L323
	ldr	r0, [r3]
.LVL253:
	.loc 1 2365 2 is_stmt 1 discriminator 1 view .LVU1238
	cmp	r0, #0
	bne	.L320
	.loc 1 2365 2 view .LVU1239
.LBB388:
.LBI388:
	.loc 2 191 30 view .LVU1240
.LBB389:
	.loc 2 193 1 view .LVU1241
	.loc 2 195 2 view .LVU1242
	.syntax unified
@ 195 "Middlewares/Third_Party/FreeRTOS/Source/portable/GCC/ARM_CM4F/portmacro.h" 1
		mov r3, #80												
	msr basepri, r3											
	isb														
	dsb														

@ 0 "" 2
.LVL254:
	.thumb
	.syntax unified
.L321:
	.loc 2 195 2 is_stmt 0 view .LVU1243
.LBE389:
.LBE388:
	.loc 1 2365 2 is_stmt 1 discriminator 1 view .LVU1244
	.loc 1 2365 2 discriminator 1 view .LVU1245
	.loc 1 2365 2 discriminator 1 view .LVU1246
	.loc 1 2365 2 discriminator 1 view .LVU1247
	.loc 1 2365 2 discriminator 1 view .LVU1248
	.loc 1 2365 2 discriminator 1 view .LVU1249
	b	.L321
.L324:
	.align	2
.L323:
	.word	.LANCHOR5
	.cfi_endproc
.LFE24:
	.size	pcTaskGetName, .-pcTaskGetName
	.section	.text.xTaskCatchUpTicks,"ax",%progbits
	.align	1
	.p2align 2,,3
	.global	xTaskCatchUpTicks
	.syntax unified
	.thumb
	.thumb_func
	.fpu fpv4-sp-d16
	.type	xTaskCatchUpTicks, %function
xTaskCatchUpTicks:
.LVL255:
.LFB25:
	.loc 1 2610 1 view -0
	.cfi_startproc
	@ args = 0, pretend = 0, frame = 0
	@ frame_needed = 0, uses_anonymous_args = 0
	@ link register save eliminated.
	.loc 1 2611 1 view .LVU1251
	.loc 1 2615 2 view .LVU1252
	ldr	r3, .L330
	ldr	r2, [r3]
	cbz	r2, .L326
	.loc 1 2615 2 view .LVU1253
.LBB398:
.LBI398:
	.loc 2 191 30 view .LVU1254
.LBB399:
	.loc 2 193 1 view .LVU1255
	.loc 2 195 2 view .LVU1256
	.syntax unified
@ 195 "Middlewares/Third_Party/FreeRTOS/Source/portable/GCC/ARM_CM4F/portmacro.h" 1
		mov r3, #80												
	msr basepri, r3											
	isb														
	dsb														

@ 0 "" 2
.LVL256:
	.thumb
	.syntax unified
.L327:
	.loc 2 195 2 is_stmt 0 view .LVU1257
.LBE399:
.LBE398:
	.loc 1 2615 2 is_stmt 1 discriminator 1 view .LVU1258
	.loc 1 2615 2 discriminator 1 view .LVU1259
	.loc 1 2615 2 discriminator 1 view .LVU1260
	.loc 1 2615 2 discriminator 1 view .LVU1261
	.loc 1 2615 2 discriminator 1 view .LVU1262
	.loc 1 2615 2 discriminator 1 view .LVU1263
	b	.L327
.L326:
	.loc 1 2615 43 view .LVU1264
	.loc 1 2619 2 view .LVU1265
.LBB400:
.LBI400:
	.loc 1 2110 6 view .LVU1266
.LBB401:
	.loc 1 2119 24 view .LVU1267
	.loc 1 2123 2 view .LVU1268
	ldr	r2, [r3]
	adds	r2, r2, #1
	str	r2, [r3]
	.loc 1 2127 2 view .LVU1269
.LBE401:
.LBE400:
	.loc 1 2620 2 view .LVU1270
	.loc 1 2620 15 is_stmt 0 view .LVU1271
	ldr	r1, .L330+4
	ldr	r2, [r1]
	add	r0, r0, r2
.LVL257:
	.loc 1 2620 15 view .LVU1272
	str	r0, [r1]
	.loc 1 2621 2 is_stmt 1 view .LVU1273
.LBB402:
.LBI402:
	.loc 1 2194 12 view .LVU1274
.LBB403:
	.loc 1 2196 1 view .LVU1275
.LVL258:
	.loc 1 2197 1 view .LVU1276
	.loc 1 2201 2 view .LVU1277
	ldr	r3, [r3]
	cbnz	r3, .L328
	.loc 1 2201 2 view .LVU1278
.LBB404:
.LBI404:
	.loc 2 191 30 view .LVU1279
.LBB405:
	.loc 2 193 1 view .LVU1280
	.loc 2 195 2 view .LVU1281
	.syntax unified
@ 195 "Middlewares/Third_Party/FreeRTOS/Source/portable/GCC/ARM_CM4F/portmacro.h" 1
		mov r3, #80												
	msr basepri, r3											
	isb														
	dsb														

@ 0 "" 2
.LVL259:
	.thumb
	.syntax unified
.L329:
	.loc 2 195 2 is_stmt 0 view .LVU1282
.LBE405:
.LBE404:
	.loc 1 2201 2 is_stmt 1 view .LVU1283
	.loc 1 2201 2 view .LVU1284
	.loc 1 2201 2 view .LVU1285
	.loc 1 2201 2 view .LVU1286
	.loc 1 2201 2 view .LVU1287
	.loc 1 2201 2 view .LVU1288
	b	.L329
.L328:
	b	xTaskResumeAll.part.0
.LVL260:
.L331:
	.align	2
.L330:
	.word	.LANCHOR13
	.word	.LANCHOR15
.LBE403:
.LBE402:
	.cfi_endproc
.LFE25:
	.size	xTaskCatchUpTicks, .-xTaskCatchUpTicks
	.section	.text.xTaskIncrementTick,"ax",%progbits
	.align	1
	.p2align 2,,3
	.global	xTaskIncrementTick
	.syntax unified
	.thumb
	.thumb_func
	.fpu fpv4-sp-d16
	.type	xTaskIncrementTick, %function
xTaskIncrementTick:
.LFB26:
	.loc 1 2708 1 view -0
	.cfi_startproc
	@ args = 0, pretend = 0, frame = 0
	@ frame_needed = 0, uses_anonymous_args = 0
	@ link register save eliminated.
	.loc 1 2709 1 view .LVU1290
	.loc 1 2710 1 view .LVU1291
	.loc 1 2711 1 view .LVU1292
.LVL261:
	.loc 1 2716 40 view .LVU1293
	.loc 1 2717 2 view .LVU1294
	.loc 1 2717 27 is_stmt 0 view .LVU1295
	ldr	r3, .L334
	ldr	r3, [r3]
	.loc 1 2717 4 view .LVU1296
	cbnz	r3, .L333
	b	xTaskIncrementTick.part.0
.LVL262:
.L333:
	.loc 1 2864 3 is_stmt 1 view .LVU1297
	ldr	r2, .L334+4
	ldr	r3, [r2]
	adds	r3, r3, #1
	.loc 1 2876 1 is_stmt 0 view .LVU1298
	movs	r0, #0
	.loc 1 2864 3 view .LVU1299
	str	r3, [r2]
	.loc 1 2875 2 is_stmt 1 view .LVU1300
	.loc 1 2876 1 is_stmt 0 view .LVU1301
	bx	lr
.L335:
	.align	2
.L334:
	.word	.LANCHOR13
	.word	.LANCHOR15
	.cfi_endproc
.LFE26:
	.size	xTaskIncrementTick, .-xTaskIncrementTick
	.section	.text.vTaskSwitchContext,"ax",%progbits
	.align	1
	.p2align 2,,3
	.global	vTaskSwitchContext
	.syntax unified
	.thumb
	.thumb_func
	.fpu fpv4-sp-d16
	.type	vTaskSwitchContext, %function
vTaskSwitchContext:
.LFB27:
	.loc 1 2990 1 is_stmt 1 view -0
	.cfi_startproc
	@ args = 0, pretend = 0, frame = 0
	@ frame_needed = 0, uses_anonymous_args = 0
	@ link register save eliminated.
	.loc 1 2991 2 view .LVU1303
	.loc 1 2991 27 is_stmt 0 view .LVU1304
	ldr	r3, .L342
	ldr	r3, [r3]
	.loc 1 2991 4 view .LVU1305
	cbz	r3, .L337
	.loc 1 2995 3 is_stmt 1 view .LVU1306
	.loc 1 2995 17 is_stmt 0 view .LVU1307
	ldr	r3, .L342+4
	movs	r2, #1
	str	r2, [r3]
	bx	lr
.L337:
	.loc 1 2999 3 is_stmt 1 view .LVU1308
	.loc 1 2999 17 is_stmt 0 view .LVU1309
	ldr	r1, .L342+4
.LBB418:
	.loc 1 3041 3 view .LVU1310
	ldr	r2, .L342+8
.LBE418:
	.loc 1 2999 17 view .LVU1311
	str	r3, [r1]
	.loc 1 3000 27 is_stmt 1 view .LVU1312
	.loc 1 3030 33 view .LVU1313
.LBB422:
	.loc 1 3041 3 view .LVU1314
	.loc 1 3041 3 view .LVU1315
	ldr	r3, [r2]
.LVL263:
.LBB419:
.LBI419:
	.loc 2 130 59 view .LVU1316
.LBB420:
	.loc 2 132 2 view .LVU1317
	.loc 2 134 3 view .LVU1318
	.syntax unified
@ 134 "Middlewares/Third_Party/FreeRTOS/Source/portable/GCC/ARM_CM4F/portmacro.h" 1
	clz r3, r3
@ 0 "" 2
.LVL264:
	.loc 2 134 3 is_stmt 0 view .LVU1319
	.thumb
	.syntax unified
	uxtb	r3, r3
.LVL265:
	.loc 2 135 3 is_stmt 1 view .LVU1320
	.loc 2 135 3 is_stmt 0 view .LVU1321
.LBE420:
.LBE419:
	.loc 1 3041 3 view .LVU1322
	rsb	r3, r3, #31
.LVL266:
	.loc 1 3041 3 is_stmt 1 view .LVU1323
	add	r3, r3, r3, lsl #2
.LVL267:
	.loc 1 3041 3 is_stmt 0 view .LVU1324
	ldr	r2, .L342+12
	lsls	r1, r3, #2
	add	r3, r2, r3, lsl #2
	ldr	r0, [r2, r1]
	cbnz	r0, .L339
.LBE422:
.LBB423:
.LBI423:
	.loc 1 2989 6 is_stmt 1 view .LVU1325
.LBB424:
	.loc 1 3041 3 view .LVU1326
.LBB425:
.LBI425:
	.loc 2 191 30 view .LVU1327
.LBB426:
	.loc 2 193 1 view .LVU1328
	.loc 2 195 2 view .LVU1329
	.syntax unified
@ 195 "Middlewares/Third_Party/FreeRTOS/Source/portable/GCC/ARM_CM4F/portmacro.h" 1
		mov r3, #80												
	msr basepri, r3											
	isb														
	dsb														

@ 0 "" 2
.LVL268:
	.thumb
	.syntax unified
.L340:
	.loc 2 195 2 is_stmt 0 view .LVU1330
.LBE426:
.LBE425:
	.loc 1 3041 3 is_stmt 1 view .LVU1331
	.loc 1 3041 3 view .LVU1332
	.loc 1 3041 3 view .LVU1333
	.loc 1 3041 3 view .LVU1334
	.loc 1 3041 3 view .LVU1335
	.loc 1 3041 3 view .LVU1336
	b	.L340
.L339:
.LBE424:
.LBE423:
.LBB427:
	.loc 1 3041 3 discriminator 2 view .LVU1337
.LBB421:
	.loc 1 3041 3 discriminator 2 view .LVU1338
.LVL269:
	.loc 1 3041 3 discriminator 2 view .LVU1339
	ldr	r0, [r3, #4]
	adds	r1, r1, #8
	ldr	r0, [r0, #4]
	str	r0, [r3, #4]
	.loc 1 3041 3 discriminator 2 view .LVU1340
	add	r2, r2, r1
	cmp	r0, r2
	.loc 1 3041 3 discriminator 2 view .LVU1341
	itt	eq
	ldreq	r0, [r0, #4]
	streq	r0, [r3, #4]
	.loc 1 3041 3 discriminator 2 view .LVU1342
	ldr	r3, .L342+16
	ldr	r2, [r0, #12]
	str	r2, [r3]
.LBE421:
	.loc 1 3041 3 discriminator 2 view .LVU1343
.LBE427:
	.loc 1 3041 37 discriminator 2 view .LVU1344
	.loc 1 3042 26 discriminator 2 view .LVU1345
	.loc 1 3061 1 is_stmt 0 discriminator 2 view .LVU1346
	bx	lr
.L343:
	.align	2
.L342:
	.word	.LANCHOR13
	.word	.LANCHOR12
	.word	.LANCHOR6
	.word	.LANCHOR3
	.word	.LANCHOR5
	.cfi_endproc
.LFE27:
	.size	vTaskSwitchContext, .-vTaskSwitchContext
	.section	.text.vTaskSuspend,"ax",%progbits
	.align	1
	.p2align 2,,3
	.global	vTaskSuspend
	.syntax unified
	.thumb
	.thumb_func
	.fpu fpv4-sp-d16
	.type	vTaskSuspend, %function
vTaskSuspend:
.LVL270:
.LFB13:
	.loc 1 1705 2 is_stmt 1 view -0
	.cfi_startproc
	@ args = 0, pretend = 0, frame = 0
	@ frame_needed = 0, uses_anonymous_args = 0
	.loc 1 1706 2 view .LVU1348
	.loc 1 1708 3 view .LVU1349
	.loc 1 1705 2 is_stmt 0 view .LVU1350
	push	{r4, r5, r6, lr}
.LCFI45:
	.cfi_def_cfa_offset 16
	.cfi_offset 4, -16
	.cfi_offset 5, -12
	.cfi_offset 6, -8
	.cfi_offset 14, -4
	.loc 1 1705 2 view .LVU1351
	mov	r4, r0
	.loc 1 1712 12 view .LVU1352
	ldr	r6, .L370
	.loc 1 1708 3 view .LVU1353
	bl	vPortEnterCritical
.LVL271:
	.loc 1 1712 4 is_stmt 1 view .LVU1354
	.loc 1 1712 12 is_stmt 0 view .LVU1355
	cmp	r4, #0
	beq	.L364
.LVL272:
.L345:
	.loc 1 1714 30 is_stmt 1 discriminator 4 view .LVU1356
	.loc 1 1718 4 discriminator 4 view .LVU1357
	.loc 1 1718 8 is_stmt 0 discriminator 4 view .LVU1358
	adds	r5, r4, #4
	mov	r0, r5
	bl	uxListRemove
.LVL273:
	.loc 1 1718 6 discriminator 4 view .LVU1359
	cbnz	r0, .L346
	.loc 1 1720 5 is_stmt 1 view .LVU1360
	ldr	r2, [r4, #44]
	ldr	r1, .L370+4
	add	r3, r2, r2, lsl #2
	lsls	r3, r3, #2
	ldr	r3, [r1, r3]
	cbz	r3, .L366
.L346:
	.loc 1 1724 29 view .LVU1361
	.loc 1 1728 4 view .LVU1362
	.loc 1 1728 6 is_stmt 0 view .LVU1363
	ldr	r3, [r4, #40]
	cbz	r3, .L347
	.loc 1 1730 5 is_stmt 1 view .LVU1364
	.loc 1 1730 14 is_stmt 0 view .LVU1365
	add	r0, r4, #24
	bl	uxListRemove
.LVL274:
.L347:
	.loc 1 1734 29 is_stmt 1 view .LVU1366
	.loc 1 1737 4 view .LVU1367
	mov	r1, r5
	ldr	r0, .L370+8
	.loc 1 1752 25 is_stmt 0 view .LVU1368
	ldr	r5, .L370+12
	.loc 1 1737 4 view .LVU1369
	bl	vListInsertEnd
.LVL275:
	.loc 1 1741 5 is_stmt 1 view .LVU1370
	.loc 1 1741 14 is_stmt 0 view .LVU1371
	ldrb	r3, [r4, #80]	@ zero_extendqisi2
	.loc 1 1741 7 view .LVU1372
	cmp	r3, #1
	.loc 1 1745 6 is_stmt 1 view .LVU1373
	.loc 1 1750 3 view .LVU1374
	.loc 1 1745 27 is_stmt 0 view .LVU1375
	itt	eq
	moveq	r3, #0
	strbeq	r3, [r4, #80]
	.loc 1 1750 3 view .LVU1376
	bl	vPortExitCritical
.LVL276:
	.loc 1 1752 3 is_stmt 1 view .LVU1377
	.loc 1 1752 25 is_stmt 0 view .LVU1378
	ldr	r3, [r5]
	.loc 1 1752 5 view .LVU1379
	cbnz	r3, .L367
.L349:
	.loc 1 1764 28 is_stmt 1 view .LVU1380
	.loc 1 1767 3 view .LVU1381
	.loc 1 1767 13 is_stmt 0 view .LVU1382
	ldr	r3, [r6]
	.loc 1 1767 5 view .LVU1383
	cmp	r3, r4
	beq	.L368
	.loc 1 1798 2 view .LVU1384
	pop	{r4, r5, r6, pc}
.LVL277:
.L368:
	.loc 1 1769 4 is_stmt 1 view .LVU1385
	.loc 1 1769 26 is_stmt 0 view .LVU1386
	ldr	r3, [r5]
	.loc 1 1769 6 view .LVU1387
	cbz	r3, .L353
	.loc 1 1772 5 is_stmt 1 view .LVU1388
	ldr	r3, .L370+16
	ldr	r3, [r3]
	cmp	r3, #0
	beq	.L354
	.loc 1 1772 5 view .LVU1389
.LBB434:
.LBI434:
	.loc 2 191 30 view .LVU1390
.LBB435:
	.loc 2 193 1 view .LVU1391
	.loc 2 195 2 view .LVU1392
	.syntax unified
@ 195 "Middlewares/Third_Party/FreeRTOS/Source/portable/GCC/ARM_CM4F/portmacro.h" 1
		mov r3, #80												
	msr basepri, r3											
	isb														
	dsb														

@ 0 "" 2
.LVL278:
	.thumb
	.syntax unified
.L355:
	.loc 2 195 2 is_stmt 0 view .LVU1393
.LBE435:
.LBE434:
	.loc 1 1772 5 is_stmt 1 discriminator 1 view .LVU1394
	.loc 1 1772 5 discriminator 1 view .LVU1395
	.loc 1 1772 5 discriminator 1 view .LVU1396
	.loc 1 1772 5 discriminator 1 view .LVU1397
	.loc 1 1772 5 discriminator 1 view .LVU1398
	.loc 1 1772 5 discriminator 1 view .LVU1399
	b	.L355
.L366:
	.loc 1 1720 5 discriminator 1 view .LVU1400
	ldr	r1, .L370+20
	movs	r3, #1
	lsls	r3, r3, r2
	ldr	r2, [r1]
	bic	r2, r2, r3
	str	r2, [r1]
	b	.L346
.L367:
	.loc 1 1756 4 view .LVU1401
	bl	vPortEnterCritical
.LVL279:
	.loc 1 1758 5 view .LVU1402
.LBB436:
.LBI436:
	.loc 1 3943 13 view .LVU1403
.LBB437:
	.loc 1 3945 1 view .LVU1404
	.loc 1 3947 2 view .LVU1405
	.loc 1 3947 6 is_stmt 0 view .LVU1406
	ldr	r3, .L370+24
	ldr	r2, [r3]
	ldr	r2, [r2]
	.loc 1 3947 4 view .LVU1407
	cbz	r2, .L369
.LBB438:
.LBI438:
	.loc 1 3943 13 is_stmt 1 view .LVU1408
.LBB439:
	.loc 1 3961 3 view .LVU1409
	.loc 1 3961 15 is_stmt 0 view .LVU1410
	ldr	r2, [r3]
.LVL280:
	.loc 1 3962 3 is_stmt 1 view .LVU1411
	.loc 1 3962 24 is_stmt 0 view .LVU1412
	ldr	r3, .L370+28
	.loc 1 3961 13 view .LVU1413
	ldr	r2, [r2, #12]
.LVL281:
	.loc 1 3962 26 view .LVU1414
	ldr	r2, [r2, #12]
.LVL282:
	.loc 1 3962 26 view .LVU1415
	ldr	r2, [r2, #4]
.LVL283:
	.loc 1 3962 24 view .LVU1416
	str	r2, [r3]
.L351:
	.loc 1 3962 24 view .LVU1417
.LBE439:
.LBE438:
.LBE437:
.LBE436:
	.loc 1 1760 4 is_stmt 1 view .LVU1418
	bl	vPortExitCritical
.LVL284:
	b	.L349
.LVL285:
.L364:
	.loc 1 1712 12 is_stmt 0 discriminator 1 view .LVU1419
	ldr	r4, [r6]
.LVL286:
	.loc 1 1712 12 discriminator 1 view .LVU1420
	b	.L345
.LVL287:
.L369:
.LBB441:
.LBB440:
	.loc 1 3953 3 is_stmt 1 view .LVU1421
	.loc 1 3953 24 is_stmt 0 view .LVU1422
	ldr	r3, .L370+28
	mov	r2, #-1
	str	r2, [r3]
	b	.L351
.L353:
	.loc 1 3953 24 view .LVU1423
.LBE440:
.LBE441:
	.loc 1 1780 5 is_stmt 1 view .LVU1424
	.loc 1 1780 9 is_stmt 0 view .LVU1425
	ldr	r1, .L370+8
	.loc 1 1780 56 view .LVU1426
	ldr	r2, .L370+32
	.loc 1 1780 9 view .LVU1427
	ldr	r1, [r1]
	.loc 1 1780 56 view .LVU1428
	ldr	r2, [r2]
	.loc 1 1780 7 view .LVU1429
	cmp	r1, r2
	bne	.L356
	.loc 1 1786 6 is_stmt 1 view .LVU1430
	.loc 1 1786 19 is_stmt 0 view .LVU1431
	str	r3, [r6]
	.loc 1 1798 2 view .LVU1432
	pop	{r4, r5, r6, pc}
.LVL288:
.L354:
	.loc 1 1772 46 is_stmt 1 discriminator 2 view .LVU1433
	.loc 1 1773 5 discriminator 2 view .LVU1434
	mov	r3, #-536813568
	mov	r2, #268435456
	str	r2, [r3, #3332]
	.loc 1 1773 5 discriminator 2 view .LVU1435
	.syntax unified
@ 1773 "Middlewares/Third_Party/FreeRTOS/Source/tasks.c" 1
	dsb
@ 0 "" 2
	.loc 1 1773 5 discriminator 2 view .LVU1436
@ 1773 "Middlewares/Third_Party/FreeRTOS/Source/tasks.c" 1
	isb
@ 0 "" 2
	.loc 1 1773 27 discriminator 2 view .LVU1437
	.loc 1 1798 2 is_stmt 0 discriminator 2 view .LVU1438
	.thumb
	.syntax unified
	pop	{r4, r5, r6, pc}
.LVL289:
.L356:
	.loc 1 1790 6 is_stmt 1 view .LVU1439
	.loc 1 1798 2 is_stmt 0 view .LVU1440
	pop	{r4, r5, r6, lr}
.LCFI46:
	.cfi_restore 14
	.cfi_restore 6
	.cfi_restore 5
	.cfi_restore 4
	.cfi_def_cfa_offset 0
.LVL290:
	.loc 1 1790 6 view .LVU1441
	b	vTaskSwitchContext
.LVL291:
.L371:
	.align	2
.L370:
	.word	.LANCHOR5
	.word	.LANCHOR3
	.word	.LANCHOR7
	.word	.LANCHOR18
	.word	.LANCHOR13
	.word	.LANCHOR6
	.word	.LANCHOR9
	.word	.LANCHOR10
	.word	.LANCHOR2
	.cfi_endproc
.LFE13:
	.size	vTaskSuspend, .-vTaskSuspend
	.section	.text.vTaskPlaceOnEventList,"ax",%progbits
	.align	1
	.p2align 2,,3
	.global	vTaskPlaceOnEventList
	.syntax unified
	.thumb
	.thumb_func
	.fpu fpv4-sp-d16
	.type	vTaskPlaceOnEventList, %function
vTaskPlaceOnEventList:
.LVL292:
.LFB28:
	.loc 1 3065 1 is_stmt 1 view -0
	.cfi_startproc
	@ args = 0, pretend = 0, frame = 0
	@ frame_needed = 0, uses_anonymous_args = 0
	.loc 1 3066 2 view .LVU1443
	cbz	r0, .L383
	.loc 1 3066 29 discriminator 2 view .LVU1444
	.loc 1 3075 2 discriminator 2 view .LVU1445
	.loc 1 3065 1 is_stmt 0 discriminator 2 view .LVU1446
	push	{r4, r5, r6, lr}
.LCFI47:
	.cfi_def_cfa_offset 16
	.cfi_offset 4, -16
	.cfi_offset 5, -12
	.cfi_offset 6, -8
	.cfi_offset 14, -4
	.loc 1 3075 43 discriminator 2 view .LVU1447
	ldr	r5, .L385
	mov	r4, r1
	ldr	r1, [r5]
.LVL293:
	.loc 1 3075 2 discriminator 2 view .LVU1448
	adds	r1, r1, #24
	bl	vListInsert
.LVL294:
	.loc 1 3077 2 is_stmt 1 discriminator 2 view .LVU1449
.LBB448:
.LBI448:
	.loc 1 5177 13 discriminator 2 view .LVU1450
.LBB449:
	.loc 1 5179 1 discriminator 2 view .LVU1451
	.loc 1 5180 1 discriminator 2 view .LVU1452
	.loc 1 5180 18 is_stmt 0 discriminator 2 view .LVU1453
	ldr	r3, .L385+4
	ldr	r6, [r3]
.LVL295:
	.loc 1 5193 2 is_stmt 1 discriminator 2 view .LVU1454
	.loc 1 5193 35 is_stmt 0 discriminator 2 view .LVU1455
	ldr	r0, [r5]
	.loc 1 5193 6 discriminator 2 view .LVU1456
	adds	r0, r0, #4
	bl	uxListRemove
.LVL296:
	.loc 1 5193 4 discriminator 2 view .LVU1457
	cbnz	r0, .L375
	.loc 1 5197 3 is_stmt 1 view .LVU1458
	ldr	r3, [r5]
	ldr	r1, .L385+8
	ldr	r0, [r3, #44]
	ldr	r3, [r1]
	movs	r2, #1
	lsls	r2, r2, r0
	bic	r3, r3, r2
	str	r3, [r1]
.L375:
	.loc 1 5201 27 view .LVU1459
	.loc 1 5206 3 view .LVU1460
	.loc 1 5206 5 is_stmt 0 view .LVU1461
	adds	r3, r4, #1
	beq	.L384
	.loc 1 5218 4 is_stmt 1 view .LVU1462
	.loc 1 5221 4 is_stmt 0 view .LVU1463
	ldr	r3, [r5]
	adds	r4, r4, r6
.LVL297:
	.loc 1 5221 4 is_stmt 1 view .LVU1464
	str	r4, [r3, #4]
	.loc 1 5223 4 view .LVU1465
	.loc 1 5223 6 is_stmt 0 view .LVU1466
	bcc	.L379
.LBB450:
.LBI450:
	.loc 1 5177 13 is_stmt 1 view .LVU1467
.LVL298:
.LBB451:
	.loc 1 5227 5 view .LVU1468
	ldr	r3, .L385+12
	ldr	r0, [r3]
	.loc 1 5227 60 is_stmt 0 view .LVU1469
	ldr	r1, [r5]
.LBE451:
.LBE450:
.LBE449:
.LBE448:
	.loc 1 3078 1 view .LVU1470
	pop	{r4, r5, r6, lr}
.LCFI48:
	.cfi_restore 14
	.cfi_restore 6
	.cfi_restore 5
	.cfi_restore 4
	.cfi_def_cfa_offset 0
.LVL299:
.LBB457:
.LBB454:
.LBB453:
.LBB452:
	.loc 1 5227 5 view .LVU1471
	adds	r1, r1, #4
	b	vListInsert
.LVL300:
.L383:
	.loc 1 5227 5 view .LVU1472
.LBE452:
.LBE453:
.LBE454:
.LBE457:
	.loc 1 3066 2 is_stmt 1 view .LVU1473
.LBB458:
.LBI458:
	.loc 2 191 30 view .LVU1474
.LBB459:
	.loc 2 193 1 view .LVU1475
	.loc 2 195 2 view .LVU1476
	.syntax unified
@ 195 "Middlewares/Third_Party/FreeRTOS/Source/portable/GCC/ARM_CM4F/portmacro.h" 1
		mov r3, #80												
	msr basepri, r3											
	isb														
	dsb														

@ 0 "" 2
.LVL301:
	.thumb
	.syntax unified
.L374:
	.loc 2 195 2 is_stmt 0 view .LVU1477
.LBE459:
.LBE458:
	.loc 1 3066 2 is_stmt 1 discriminator 1 view .LVU1478
	.loc 1 3066 2 discriminator 1 view .LVU1479
	.loc 1 3066 2 discriminator 1 view .LVU1480
	.loc 1 3066 2 discriminator 1 view .LVU1481
	.loc 1 3066 2 discriminator 1 view .LVU1482
	.loc 1 3066 2 discriminator 1 view .LVU1483
	b	.L374
.LVL302:
.L384:
.LCFI49:
	.cfi_def_cfa_offset 16
	.cfi_offset 4, -16
	.cfi_offset 5, -12
	.cfi_offset 6, -8
	.cfi_offset 14, -4
.LBB460:
.LBB455:
	.loc 1 5211 4 view .LVU1484
	.loc 1 5211 56 is_stmt 0 view .LVU1485
	ldr	r1, [r5]
	.loc 1 5211 4 view .LVU1486
	ldr	r0, .L385+16
.LBE455:
.LBE460:
	.loc 1 3078 1 view .LVU1487
	pop	{r4, r5, r6, lr}
.LCFI50:
	.cfi_remember_state
	.cfi_restore 14
	.cfi_restore 6
	.cfi_restore 5
	.cfi_restore 4
	.cfi_def_cfa_offset 0
.LVL303:
.LBB461:
.LBB456:
	.loc 1 5211 4 view .LVU1488
	adds	r1, r1, #4
	b	vListInsertEnd
.LVL304:
.L379:
.LCFI51:
	.cfi_restore_state
	.loc 1 5233 5 is_stmt 1 view .LVU1489
	ldr	r3, .L385+20
	ldr	r0, [r3]
	.loc 1 5233 52 is_stmt 0 view .LVU1490
	ldr	r1, [r5]
	.loc 1 5233 5 view .LVU1491
	adds	r1, r1, #4
	bl	vListInsert
.LVL305:
	.loc 1 5238 5 is_stmt 1 view .LVU1492
	.loc 1 5238 21 is_stmt 0 view .LVU1493
	ldr	r3, .L385+24
	ldr	r2, [r3]
	.loc 1 5238 7 view .LVU1494
	cmp	r4, r2
	.loc 1 5240 6 is_stmt 1 view .LVU1495
	.loc 1 5240 27 is_stmt 0 view .LVU1496
	it	cc
	strcc	r4, [r3]
	.loc 1 5244 30 is_stmt 1 view .LVU1497
.LVL306:
	.loc 1 5244 30 is_stmt 0 view .LVU1498
.LBE456:
.LBE461:
	.loc 1 3078 1 view .LVU1499
	pop	{r4, r5, r6, pc}
.L386:
	.align	2
.L385:
	.word	.LANCHOR5
	.word	.LANCHOR4
	.word	.LANCHOR6
	.word	.LANCHOR8
	.word	.LANCHOR7
	.word	.LANCHOR9
	.word	.LANCHOR10
	.cfi_endproc
.LFE28:
	.size	vTaskPlaceOnEventList, .-vTaskPlaceOnEventList
	.section	.text.vTaskPlaceOnUnorderedEventList,"ax",%progbits
	.align	1
	.p2align 2,,3
	.global	vTaskPlaceOnUnorderedEventList
	.syntax unified
	.thumb
	.thumb_func
	.fpu fpv4-sp-d16
	.type	vTaskPlaceOnUnorderedEventList, %function
vTaskPlaceOnUnorderedEventList:
.LVL307:
.LFB29:
	.loc 1 3082 1 is_stmt 1 view -0
	.cfi_startproc
	@ args = 0, pretend = 0, frame = 0
	@ frame_needed = 0, uses_anonymous_args = 0
	.loc 1 3083 2 view .LVU1501
	cbz	r0, .L394
	.loc 1 3083 29 discriminator 2 view .LVU1502
	.loc 1 3087 2 discriminator 2 view .LVU1503
	ldr	r3, .L395
	ldr	r3, [r3]
	cbnz	r3, .L390
	.loc 1 3087 2 view .LVU1504
.LBB462:
.LBI462:
	.loc 2 191 30 view .LVU1505
.LBB463:
	.loc 2 193 1 view .LVU1506
	.loc 2 195 2 view .LVU1507
	.syntax unified
@ 195 "Middlewares/Third_Party/FreeRTOS/Source/portable/GCC/ARM_CM4F/portmacro.h" 1
		mov r3, #80												
	msr basepri, r3											
	isb														
	dsb														

@ 0 "" 2
.LVL308:
	.thumb
	.syntax unified
.L391:
	.loc 2 195 2 is_stmt 0 view .LVU1508
.LBE463:
.LBE462:
	.loc 1 3087 2 is_stmt 1 discriminator 2 view .LVU1509
	.loc 1 3087 2 discriminator 2 view .LVU1510
	.loc 1 3087 2 discriminator 2 view .LVU1511
	.loc 1 3087 2 discriminator 2 view .LVU1512
	.loc 1 3087 2 discriminator 2 view .LVU1513
	.loc 1 3087 2 discriminator 2 view .LVU1514
	b	.L391
.L390:
	.loc 1 3087 43 discriminator 2 view .LVU1515
	.loc 1 3092 2 discriminator 2 view .LVU1516
	.loc 1 3082 1 is_stmt 0 discriminator 2 view .LVU1517
	push	{r4, lr}
.LCFI52:
	.cfi_def_cfa_offset 8
	.cfi_offset 4, -8
	.cfi_offset 14, -4
	.loc 1 3092 2 discriminator 2 view .LVU1518
	ldr	r3, .L395+4
	mov	r4, r2
	ldr	r2, [r3]
.LVL309:
	.loc 1 3099 46 discriminator 2 view .LVU1519
	ldr	r3, [r3]
	.loc 1 3092 2 discriminator 2 view .LVU1520
	orr	r1, r1, #-2147483648
.LVL310:
	.loc 1 3092 2 discriminator 2 view .LVU1521
	str	r1, [r2, #24]
	.loc 1 3099 2 is_stmt 1 discriminator 2 view .LVU1522
	add	r1, r3, #24
	bl	vListInsertEnd
.LVL311:
	.loc 1 3101 2 discriminator 2 view .LVU1523
	mov	r0, r4
	movs	r1, #1
	.loc 1 3102 1 is_stmt 0 discriminator 2 view .LVU1524
	pop	{r4, lr}
.LCFI53:
	.cfi_restore 14
	.cfi_restore 4
	.cfi_def_cfa_offset 0
.LVL312:
	.loc 1 3101 2 discriminator 2 view .LVU1525
	b	prvAddCurrentTaskToDelayedList
.LVL313:
.L394:
	.loc 1 3083 2 is_stmt 1 view .LVU1526
.LBB464:
.LBI464:
	.loc 2 191 30 view .LVU1527
.LBB465:
	.loc 2 193 1 view .LVU1528
	.loc 2 195 2 view .LVU1529
	.syntax unified
@ 195 "Middlewares/Third_Party/FreeRTOS/Source/portable/GCC/ARM_CM4F/portmacro.h" 1
		mov r3, #80												
	msr basepri, r3											
	isb														
	dsb														

@ 0 "" 2
.LVL314:
	.thumb
	.syntax unified
.L389:
	.loc 2 195 2 is_stmt 0 view .LVU1530
.LBE465:
.LBE464:
	.loc 1 3083 2 is_stmt 1 discriminator 1 view .LVU1531
	.loc 1 3083 2 discriminator 1 view .LVU1532
	.loc 1 3083 2 discriminator 1 view .LVU1533
	.loc 1 3083 2 discriminator 1 view .LVU1534
	.loc 1 3083 2 discriminator 1 view .LVU1535
	.loc 1 3083 2 discriminator 1 view .LVU1536
	b	.L389
.L396:
	.align	2
.L395:
	.word	.LANCHOR13
	.word	.LANCHOR5
	.cfi_endproc
.LFE29:
	.size	vTaskPlaceOnUnorderedEventList, .-vTaskPlaceOnUnorderedEventList
	.section	.text.xTaskRemoveFromEventList,"ax",%progbits
	.align	1
	.p2align 2,,3
	.global	xTaskRemoveFromEventList
	.syntax unified
	.thumb
	.thumb_func
	.fpu fpv4-sp-d16
	.type	xTaskRemoveFromEventList, %function
xTaskRemoveFromEventList:
.LVL315:
.LFB30:
	.loc 1 3139 1 view -0
	.cfi_startproc
	@ args = 0, pretend = 0, frame = 8
	@ frame_needed = 0, uses_anonymous_args = 0
	.loc 1 3140 1 view .LVU1538
	.loc 1 3141 1 view .LVU1539
	.loc 1 3156 2 view .LVU1540
	.loc 1 3139 1 is_stmt 0 view .LVU1541
	push	{r4, r5, r6, lr}
.LCFI54:
	.cfi_def_cfa_offset 16
	.cfi_offset 4, -16
	.cfi_offset 5, -12
	.cfi_offset 6, -8
	.cfi_offset 14, -4
	.loc 1 3156 17 view .LVU1542
	ldr	r3, [r0, #12]
	ldr	r4, [r3, #12]
.LVL316:
	.loc 1 3157 2 is_stmt 1 view .LVU1543
	.loc 1 3139 1 is_stmt 0 view .LVU1544
	sub	sp, sp, #8
.LCFI55:
	.cfi_def_cfa_offset 24
	.loc 1 3157 2 view .LVU1545
	cmp	r4, #0
	beq	.L405
	.loc 1 3157 32 is_stmt 1 discriminator 2 view .LVU1546
	.loc 1 3158 2 discriminator 2 view .LVU1547
	.loc 1 3158 11 is_stmt 0 discriminator 2 view .LVU1548
	add	r5, r4, #24
	mov	r0, r5
.LVL317:
	.loc 1 3158 11 discriminator 2 view .LVU1549
	bl	uxListRemove
.LVL318:
	.loc 1 3160 2 is_stmt 1 discriminator 2 view .LVU1550
	.loc 1 3160 27 is_stmt 0 discriminator 2 view .LVU1551
	ldr	r3, .L407
	ldr	r3, [r3]
	.loc 1 3160 4 discriminator 2 view .LVU1552
	cbz	r3, .L406
	.loc 1 3183 3 is_stmt 1 view .LVU1553
	ldr	r0, .L407+4
	mov	r1, r5
	bl	vListInsertEnd
.LVL319:
.L401:
	.loc 1 3186 2 view .LVU1554
	.loc 1 3186 47 is_stmt 0 view .LVU1555
	ldr	r3, .L407+8
	.loc 1 3186 4 view .LVU1556
	ldr	r2, [r4, #44]
	.loc 1 3186 47 view .LVU1557
	ldr	r3, [r3]
	.loc 1 3186 4 view .LVU1558
	ldr	r3, [r3, #44]
	cmp	r2, r3
	.loc 1 3191 3 is_stmt 1 view .LVU1559
.LVL320:
	.loc 1 3195 3 view .LVU1560
	.loc 1 3195 17 is_stmt 0 view .LVU1561
	ittet	hi
	ldrhi	r3, .L407+12
	movhi	r0, #1
	.loc 1 3199 11 view .LVU1562
	movls	r0, #0
.LVL321:
	.loc 1 3202 2 is_stmt 1 view .LVU1563
	.loc 1 3195 17 is_stmt 0 view .LVU1564
	strhi	r0, [r3]
	.loc 1 3203 1 view .LVU1565
	add	sp, sp, #8
.LCFI56:
	.cfi_remember_state
	.cfi_def_cfa_offset 16
	@ sp needed
	pop	{r4, r5, r6, pc}
.LVL322:
.L406:
.LCFI57:
	.cfi_restore_state
	.loc 1 3162 3 is_stmt 1 view .LVU1566
	.loc 1 3162 12 is_stmt 0 view .LVU1567
	adds	r1, r4, #4
	.loc 1 3163 3 view .LVU1568
	ldr	r5, .L407+16
	.loc 1 3162 12 view .LVU1569
	str	r1, [sp, #4]
	mov	r0, r1
	bl	uxListRemove
.LVL323:
	.loc 1 3163 3 is_stmt 1 view .LVU1570
	.loc 1 3163 3 view .LVU1571
	ldr	r3, [r4, #44]
	ldr	r6, [r5]
	ldr	r0, .L407+20
	ldr	r1, [sp, #4]
	movs	r2, #1
	lsls	r2, r2, r3
	add	r3, r3, r3, lsl #2
	orrs	r2, r2, r6
	add	r0, r0, r3, lsl #2
	str	r2, [r5]
	.loc 1 3163 3 view .LVU1572
	bl	vListInsertEnd
.LVL324:
	.loc 1 3163 42 view .LVU1573
	b	.L401
.LVL325:
.L405:
	.loc 1 3157 2 view .LVU1574
.LBB466:
.LBI466:
	.loc 2 191 30 view .LVU1575
.LBB467:
	.loc 2 193 1 view .LVU1576
	.loc 2 195 2 view .LVU1577
	.syntax unified
@ 195 "Middlewares/Third_Party/FreeRTOS/Source/portable/GCC/ARM_CM4F/portmacro.h" 1
		mov r3, #80												
	msr basepri, r3											
	isb														
	dsb														

@ 0 "" 2
.LVL326:
	.thumb
	.syntax unified
.L399:
	.loc 2 195 2 is_stmt 0 view .LVU1578
.LBE467:
.LBE466:
	.loc 1 3157 2 is_stmt 1 discriminator 1 view .LVU1579
	.loc 1 3157 2 discriminator 1 view .LVU1580
	.loc 1 3157 2 discriminator 1 view .LVU1581
	.loc 1 3157 2 discriminator 1 view .LVU1582
	.loc 1 3157 2 discriminator 1 view .LVU1583
	.loc 1 3157 2 discriminator 1 view .LVU1584
	b	.L399
.L408:
	.align	2
.L407:
	.word	.LANCHOR13
	.word	.LANCHOR14
	.word	.LANCHOR5
	.word	.LANCHOR12
	.word	.LANCHOR6
	.word	.LANCHOR3
	.cfi_endproc
.LFE30:
	.size	xTaskRemoveFromEventList, .-xTaskRemoveFromEventList
	.section	.text.vTaskRemoveFromUnorderedEventList,"ax",%progbits
	.align	1
	.p2align 2,,3
	.global	vTaskRemoveFromUnorderedEventList
	.syntax unified
	.thumb
	.thumb_func
	.fpu fpv4-sp-d16
	.type	vTaskRemoveFromUnorderedEventList, %function
vTaskRemoveFromUnorderedEventList:
.LVL327:
.LFB31:
	.loc 1 3207 1 view -0
	.cfi_startproc
	@ args = 0, pretend = 0, frame = 0
	@ frame_needed = 0, uses_anonymous_args = 0
	.loc 1 3208 1 view .LVU1586
	.loc 1 3212 2 view .LVU1587
	.loc 1 3207 1 is_stmt 0 view .LVU1588
	push	{r3, r4, r5, r6, r7, lr}
.LCFI58:
	.cfi_def_cfa_offset 24
	.cfi_offset 3, -24
	.cfi_offset 4, -20
	.cfi_offset 5, -16
	.cfi_offset 6, -12
	.cfi_offset 7, -8
	.cfi_offset 14, -4
	.loc 1 3212 2 view .LVU1589
	ldr	r3, .L417
	ldr	r2, [r3]
	cbnz	r2, .L410
	.loc 1 3212 2 is_stmt 1 view .LVU1590
.LBB468:
.LBI468:
	.loc 2 191 30 view .LVU1591
.LBB469:
	.loc 2 193 1 view .LVU1592
	.loc 2 195 2 view .LVU1593
	.syntax unified
@ 195 "Middlewares/Third_Party/FreeRTOS/Source/portable/GCC/ARM_CM4F/portmacro.h" 1
		mov r3, #80												
	msr basepri, r3											
	isb														
	dsb														

@ 0 "" 2
.LVL328:
	.thumb
	.syntax unified
.L411:
	.loc 2 195 2 is_stmt 0 view .LVU1594
.LBE469:
.LBE468:
	.loc 1 3212 2 is_stmt 1 discriminator 1 view .LVU1595
	.loc 1 3212 2 discriminator 1 view .LVU1596
	.loc 1 3212 2 discriminator 1 view .LVU1597
	.loc 1 3212 2 discriminator 1 view .LVU1598
	.loc 1 3212 2 discriminator 1 view .LVU1599
	.loc 1 3212 2 discriminator 1 view .LVU1600
	b	.L411
.L410:
	.loc 1 3212 49 discriminator 2 view .LVU1601
	.loc 1 3215 2 discriminator 2 view .LVU1602
	.loc 1 3219 17 is_stmt 0 discriminator 2 view .LVU1603
	ldr	r4, [r0, #12]
	.loc 1 3215 2 discriminator 2 view .LVU1604
	orr	r1, r1, #-2147483648
.LVL329:
	.loc 1 3215 2 discriminator 2 view .LVU1605
	str	r1, [r0]
	.loc 1 3219 2 is_stmt 1 discriminator 2 view .LVU1606
.LVL330:
	.loc 1 3220 2 discriminator 2 view .LVU1607
	cbz	r4, .L416
	.loc 1 3220 32 discriminator 2 view .LVU1608
	.loc 1 3221 2 discriminator 2 view .LVU1609
	.loc 1 3240 11 is_stmt 0 discriminator 2 view .LVU1610
	adds	r5, r4, #4
	.loc 1 3221 11 discriminator 2 view .LVU1611
	bl	uxListRemove
.LVL331:
	.loc 1 3240 2 is_stmt 1 discriminator 2 view .LVU1612
	.loc 1 3240 11 is_stmt 0 discriminator 2 view .LVU1613
	mov	r0, r5
	bl	uxListRemove
.LVL332:
	.loc 1 3241 2 is_stmt 1 discriminator 2 view .LVU1614
	.loc 1 3241 2 discriminator 2 view .LVU1615
	ldr	r0, .L417+4
	ldr	r3, [r4, #44]
	ldr	r7, [r0]
	ldr	r6, .L417+8
	mov	r1, r5
	movs	r5, #1
	lsl	r2, r5, r3
	orrs	r2, r2, r7
	add	r3, r3, r3, lsl #2
	str	r2, [r0]
	.loc 1 3241 2 discriminator 2 view .LVU1616
	add	r0, r6, r3, lsl #2
	bl	vListInsertEnd
.LVL333:
	.loc 1 3241 41 discriminator 2 view .LVU1617
	.loc 1 3243 2 discriminator 2 view .LVU1618
	.loc 1 3243 47 is_stmt 0 discriminator 2 view .LVU1619
	ldr	r3, .L417+12
	.loc 1 3243 4 discriminator 2 view .LVU1620
	ldr	r2, [r4, #44]
	.loc 1 3243 47 discriminator 2 view .LVU1621
	ldr	r3, [r3]
	.loc 1 3243 4 discriminator 2 view .LVU1622
	ldr	r3, [r3, #44]
	cmp	r2, r3
	.loc 1 3249 3 is_stmt 1 discriminator 2 view .LVU1623
	.loc 1 3249 17 is_stmt 0 discriminator 2 view .LVU1624
	itt	hi
	ldrhi	r3, .L417+16
	strhi	r5, [r3]
	.loc 1 3251 1 discriminator 2 view .LVU1625
	pop	{r3, r4, r5, r6, r7, pc}
.LVL334:
.L416:
	.loc 1 3220 2 is_stmt 1 view .LVU1626
.LBB470:
.LBI470:
	.loc 2 191 30 view .LVU1627
.LBB471:
	.loc 2 193 1 view .LVU1628
	.loc 2 195 2 view .LVU1629
	.syntax unified
@ 195 "Middlewares/Third_Party/FreeRTOS/Source/portable/GCC/ARM_CM4F/portmacro.h" 1
		mov r3, #80												
	msr basepri, r3											
	isb														
	dsb														

@ 0 "" 2
.LVL335:
	.thumb
	.syntax unified
.L413:
	.loc 2 195 2 is_stmt 0 view .LVU1630
.LBE471:
.LBE470:
	.loc 1 3220 2 is_stmt 1 discriminator 2 view .LVU1631
	.loc 1 3220 2 discriminator 2 view .LVU1632
	.loc 1 3220 2 discriminator 2 view .LVU1633
	.loc 1 3220 2 discriminator 2 view .LVU1634
	.loc 1 3220 2 discriminator 2 view .LVU1635
	.loc 1 3220 2 discriminator 2 view .LVU1636
	b	.L413
.L418:
	.align	2
.L417:
	.word	.LANCHOR13
	.word	.LANCHOR6
	.word	.LANCHOR3
	.word	.LANCHOR5
	.word	.LANCHOR12
	.cfi_endproc
.LFE31:
	.size	vTaskRemoveFromUnorderedEventList, .-vTaskRemoveFromUnorderedEventList
	.section	.text.vTaskSetTimeOutState,"ax",%progbits
	.align	1
	.p2align 2,,3
	.global	vTaskSetTimeOutState
	.syntax unified
	.thumb
	.thumb_func
	.fpu fpv4-sp-d16
	.type	vTaskSetTimeOutState, %function
vTaskSetTimeOutState:
.LVL336:
.LFB32:
	.loc 1 3255 1 view -0
	.cfi_startproc
	@ args = 0, pretend = 0, frame = 0
	@ frame_needed = 0, uses_anonymous_args = 0
	.loc 1 3256 2 view .LVU1638
	cbz	r0, .L424
	.loc 1 3255 1 is_stmt 0 discriminator 2 view .LVU1639
	push	{r4, lr}
.LCFI59:
	.cfi_def_cfa_offset 8
	.cfi_offset 4, -8
	.cfi_offset 14, -4
	mov	r4, r0
	.loc 1 3256 27 is_stmt 1 discriminator 2 view .LVU1640
	.loc 1 3257 2 discriminator 2 view .LVU1641
	bl	vPortEnterCritical
.LVL337:
	.loc 1 3259 3 discriminator 2 view .LVU1642
	.loc 1 3259 29 is_stmt 0 discriminator 2 view .LVU1643
	ldr	r2, .L425
	.loc 1 3260 30 discriminator 2 view .LVU1644
	ldr	r3, .L425+4
	.loc 1 3259 29 discriminator 2 view .LVU1645
	ldr	r2, [r2]
	.loc 1 3260 30 discriminator 2 view .LVU1646
	ldr	r3, [r3]
	strd	r2, r3, [r4]
	.loc 1 3262 2 is_stmt 1 discriminator 2 view .LVU1647
	.loc 1 3263 1 is_stmt 0 discriminator 2 view .LVU1648
	pop	{r4, lr}
.LCFI60:
	.cfi_restore 14
	.cfi_restore 4
	.cfi_def_cfa_offset 0
.LVL338:
	.loc 1 3262 2 discriminator 2 view .LVU1649
	b	vPortExitCritical
.LVL339:
.L424:
	.loc 1 3256 2 is_stmt 1 view .LVU1650
.LBB472:
.LBI472:
	.loc 2 191 30 view .LVU1651
.LBB473:
	.loc 2 193 1 view .LVU1652
	.loc 2 195 2 view .LVU1653
	.syntax unified
@ 195 "Middlewares/Third_Party/FreeRTOS/Source/portable/GCC/ARM_CM4F/portmacro.h" 1
		mov r3, #80												
	msr basepri, r3											
	isb														
	dsb														

@ 0 "" 2
.LVL340:
	.thumb
	.syntax unified
.L421:
	.loc 2 195 2 is_stmt 0 view .LVU1654
.LBE473:
.LBE472:
	.loc 1 3256 2 is_stmt 1 discriminator 1 view .LVU1655
	.loc 1 3256 2 discriminator 1 view .LVU1656
	.loc 1 3256 2 discriminator 1 view .LVU1657
	.loc 1 3256 2 discriminator 1 view .LVU1658
	.loc 1 3256 2 discriminator 1 view .LVU1659
	.loc 1 3256 2 discriminator 1 view .LVU1660
	b	.L421
.L426:
	.align	2
.L425:
	.word	.LANCHOR11
	.word	.LANCHOR4
	.cfi_endproc
.LFE32:
	.size	vTaskSetTimeOutState, .-vTaskSetTimeOutState
	.section	.text.vTaskInternalSetTimeOutState,"ax",%progbits
	.align	1
	.p2align 2,,3
	.global	vTaskInternalSetTimeOutState
	.syntax unified
	.thumb
	.thumb_func
	.fpu fpv4-sp-d16
	.type	vTaskInternalSetTimeOutState, %function
vTaskInternalSetTimeOutState:
.LVL341:
.LFB33:
	.loc 1 3267 1 view -0
	.cfi_startproc
	@ args = 0, pretend = 0, frame = 0
	@ frame_needed = 0, uses_anonymous_args = 0
	@ link register save eliminated.
	.loc 1 3269 2 view .LVU1662
	.loc 1 3269 28 is_stmt 0 view .LVU1663
	ldr	r2, .L428
	.loc 1 3270 29 view .LVU1664
	ldr	r3, .L428+4
	.loc 1 3269 28 view .LVU1665
	ldr	r2, [r2]
	.loc 1 3270 29 view .LVU1666
	ldr	r3, [r3]
	strd	r2, r3, [r0]
	.loc 1 3271 1 view .LVU1667
	bx	lr
.L429:
	.align	2
.L428:
	.word	.LANCHOR11
	.word	.LANCHOR4
	.cfi_endproc
.LFE33:
	.size	vTaskInternalSetTimeOutState, .-vTaskInternalSetTimeOutState
	.section	.text.xTaskCheckForTimeOut,"ax",%progbits
	.align	1
	.p2align 2,,3
	.global	xTaskCheckForTimeOut
	.syntax unified
	.thumb
	.thumb_func
	.fpu fpv4-sp-d16
	.type	xTaskCheckForTimeOut, %function
xTaskCheckForTimeOut:
.LVL342:
.LFB34:
	.loc 1 3275 1 is_stmt 1 view -0
	.cfi_startproc
	@ args = 0, pretend = 0, frame = 8
	@ frame_needed = 0, uses_anonymous_args = 0
	.loc 1 3276 1 view .LVU1669
	.loc 1 3278 2 view .LVU1670
	cbz	r0, .L442
	.loc 1 3278 27 discriminator 2 view .LVU1671
	.loc 1 3279 2 discriminator 2 view .LVU1672
	.loc 1 3275 1 is_stmt 0 discriminator 2 view .LVU1673
	push	{r4, r5, r6, r7, lr}
.LCFI61:
	.cfi_def_cfa_offset 20
	.cfi_offset 4, -20
	.cfi_offset 5, -16
	.cfi_offset 6, -12
	.cfi_offset 7, -8
	.cfi_offset 14, -4
	mov	r5, r1
	sub	sp, sp, #12
.LCFI62:
	.cfi_def_cfa_offset 32
	.loc 1 3279 2 discriminator 2 view .LVU1674
	cbz	r1, .L443
	mov	r4, r0
	.loc 1 3279 31 is_stmt 1 discriminator 2 view .LVU1675
	.loc 1 3281 2 discriminator 2 view .LVU1676
	bl	vPortEnterCritical
.LVL343:
.LBB474:
	.loc 1 3284 3 discriminator 2 view .LVU1677
	.loc 1 3299 8 is_stmt 0 discriminator 2 view .LVU1678
	ldr	r3, [r5]
	.loc 1 3284 20 discriminator 2 view .LVU1679
	ldr	r2, .L444
	.loc 1 3299 6 discriminator 2 view .LVU1680
	adds	r0, r3, #1
	.loc 1 3284 20 discriminator 2 view .LVU1681
	ldr	r1, [r2]
.LVL344:
	.loc 1 3285 3 is_stmt 1 discriminator 2 view .LVU1682
	.loc 1 3299 4 discriminator 2 view .LVU1683
	.loc 1 3299 6 is_stmt 0 discriminator 2 view .LVU1684
	beq	.L438
	.loc 1 3309 25 view .LVU1685
	ldr	ip, .L444+4
	.loc 1 3309 5 view .LVU1686
	ldrd	r6, r0, [r4]
	.loc 1 3309 25 view .LVU1687
	ldr	r7, [ip]
	.loc 1 3309 5 view .LVU1688
	cmp	r6, r7
	beq	.L436
	.loc 1 3309 56 discriminator 1 view .LVU1689
	cmp	r0, r1
	bhi	.L436
	.loc 1 3316 12 view .LVU1690
	movs	r0, #1
.LVL345:
.L435:
	.loc 1 3316 12 view .LVU1691
	str	r0, [sp, #4]
.LVL346:
	.loc 1 3316 12 view .LVU1692
.LBE474:
	.loc 1 3331 2 is_stmt 1 view .LVU1693
	bl	vPortExitCritical
.LVL347:
	.loc 1 3333 2 view .LVU1694
	.loc 1 3334 1 is_stmt 0 view .LVU1695
	ldr	r0, [sp, #4]
	add	sp, sp, #12
.LCFI63:
	.cfi_remember_state
	.cfi_def_cfa_offset 20
	@ sp needed
	pop	{r4, r5, r6, r7, pc}
.LVL348:
.L443:
.LCFI64:
	.cfi_restore_state
	.loc 1 3279 2 is_stmt 1 view .LVU1696
.LBB481:
.LBI481:
	.loc 2 191 30 view .LVU1697
.LBB482:
	.loc 2 193 1 view .LVU1698
	.loc 2 195 2 view .LVU1699
	.syntax unified
@ 195 "Middlewares/Third_Party/FreeRTOS/Source/portable/GCC/ARM_CM4F/portmacro.h" 1
		mov r3, #80												
	msr basepri, r3											
	isb														
	dsb														

@ 0 "" 2
.LVL349:
	.thumb
	.syntax unified
.L434:
	.loc 2 195 2 is_stmt 0 view .LVU1700
.LBE482:
.LBE481:
	.loc 1 3279 2 is_stmt 1 discriminator 2 view .LVU1701
	.loc 1 3279 2 discriminator 2 view .LVU1702
	.loc 1 3279 2 discriminator 2 view .LVU1703
	.loc 1 3279 2 discriminator 2 view .LVU1704
	.loc 1 3279 2 discriminator 2 view .LVU1705
	.loc 1 3279 2 discriminator 2 view .LVU1706
	b	.L434
.L442:
.LCFI65:
	.cfi_def_cfa_offset 0
	.cfi_restore 4
	.cfi_restore 5
	.cfi_restore 6
	.cfi_restore 7
	.cfi_restore 14
	.loc 1 3278 2 view .LVU1707
.LBB483:
.LBI483:
	.loc 2 191 30 view .LVU1708
.LBB484:
	.loc 2 193 1 view .LVU1709
	.loc 2 195 2 view .LVU1710
	.syntax unified
@ 195 "Middlewares/Third_Party/FreeRTOS/Source/portable/GCC/ARM_CM4F/portmacro.h" 1
		mov r3, #80												
	msr basepri, r3											
	isb														
	dsb														

@ 0 "" 2
.LVL350:
	.thumb
	.syntax unified
.L432:
	.loc 2 195 2 is_stmt 0 view .LVU1711
.LBE484:
.LBE483:
	.loc 1 3278 2 is_stmt 1 discriminator 1 view .LVU1712
	.loc 1 3278 2 discriminator 1 view .LVU1713
	.loc 1 3278 2 discriminator 1 view .LVU1714
	.loc 1 3278 2 discriminator 1 view .LVU1715
	.loc 1 3278 2 discriminator 1 view .LVU1716
	.loc 1 3278 2 discriminator 1 view .LVU1717
	b	.L432
.LVL351:
.L436:
.LCFI66:
	.cfi_def_cfa_offset 32
	.cfi_offset 4, -20
	.cfi_offset 5, -16
	.cfi_offset 6, -12
	.cfi_offset 7, -8
	.cfi_offset 14, -4
.LBB485:
	.loc 1 3318 8 view .LVU1718
	.loc 1 3285 20 is_stmt 0 view .LVU1719
	sub	lr, r1, r0
	.loc 1 3318 10 view .LVU1720
	cmp	r3, lr
	bls	.L437
	.loc 1 3321 4 is_stmt 1 view .LVU1721
	.loc 1 3321 19 is_stmt 0 view .LVU1722
	subs	r3, r3, r1
.LBB475:
.LBB476:
	.loc 1 3269 28 view .LVU1723
	ldr	r1, [ip]
.LVL352:
	.loc 1 3270 29 view .LVU1724
	ldr	r2, [r2]
.LBE476:
.LBE475:
	.loc 1 3321 19 view .LVU1725
	add	r3, r3, r0
	str	r3, [r5]
	.loc 1 3322 4 is_stmt 1 view .LVU1726
.LVL353:
.LBB479:
.LBI475:
	.loc 1 3266 6 view .LVU1727
.LBB477:
	.loc 1 3269 2 view .LVU1728
.LBE477:
.LBE479:
	.loc 1 3323 12 is_stmt 0 view .LVU1729
	movs	r0, #0
.LBB480:
.LBB478:
	.loc 1 3270 29 view .LVU1730
	strd	r1, r2, [r4]
.LVL354:
	.loc 1 3270 29 view .LVU1731
.LBE478:
.LBE480:
	.loc 1 3323 4 is_stmt 1 view .LVU1732
	.loc 1 3323 4 is_stmt 0 view .LVU1733
	b	.L435
.LVL355:
.L438:
	.loc 1 3304 13 view .LVU1734
	movs	r0, #0
	b	.L435
.LVL356:
.L437:
	.loc 1 3327 4 is_stmt 1 view .LVU1735
	.loc 1 3327 19 is_stmt 0 view .LVU1736
	movs	r3, #0
	str	r3, [r5]
	.loc 1 3328 4 is_stmt 1 view .LVU1737
.LVL357:
	.loc 1 3328 12 is_stmt 0 view .LVU1738
	movs	r0, #1
.LVL358:
	.loc 1 3328 12 view .LVU1739
	b	.L435
.L445:
	.align	2
.L444:
	.word	.LANCHOR4
	.word	.LANCHOR11
.LBE485:
	.cfi_endproc
.LFE34:
	.size	xTaskCheckForTimeOut, .-xTaskCheckForTimeOut
	.section	.text.vTaskMissedYield,"ax",%progbits
	.align	1
	.p2align 2,,3
	.global	vTaskMissedYield
	.syntax unified
	.thumb
	.thumb_func
	.fpu fpv4-sp-d16
	.type	vTaskMissedYield, %function
vTaskMissedYield:
.LFB35:
	.loc 1 3338 1 is_stmt 1 view -0
	.cfi_startproc
	@ args = 0, pretend = 0, frame = 0
	@ frame_needed = 0, uses_anonymous_args = 0
	@ link register save eliminated.
	.loc 1 3339 2 view .LVU1741
	.loc 1 3339 16 is_stmt 0 view .LVU1742
	ldr	r3, .L447
	movs	r2, #1
	str	r2, [r3]
	.loc 1 3340 1 view .LVU1743
	bx	lr
.L448:
	.align	2
.L447:
	.word	.LANCHOR12
	.cfi_endproc
.LFE35:
	.size	vTaskMissedYield, .-vTaskMissedYield
	.section	.text.xTaskGetCurrentTaskHandle,"ax",%progbits
	.align	1
	.p2align 2,,3
	.global	xTaskGetCurrentTaskHandle
	.syntax unified
	.thumb
	.thumb_func
	.fpu fpv4-sp-d16
	.type	xTaskGetCurrentTaskHandle, %function
xTaskGetCurrentTaskHandle:
.LFB41:
	.loc 1 3970 2 is_stmt 1 view -0
	.cfi_startproc
	@ args = 0, pretend = 0, frame = 0
	@ frame_needed = 0, uses_anonymous_args = 0
	@ link register save eliminated.
	.loc 1 3971 2 view .LVU1745
	.loc 1 3976 3 view .LVU1746
	.loc 1 3976 11 is_stmt 0 view .LVU1747
	ldr	r3, .L450
	ldr	r0, [r3]
.LVL359:
	.loc 1 3978 3 is_stmt 1 view .LVU1748
	.loc 1 3979 2 is_stmt 0 view .LVU1749
	bx	lr
.L451:
	.align	2
.L450:
	.word	.LANCHOR5
	.cfi_endproc
.LFE41:
	.size	xTaskGetCurrentTaskHandle, .-xTaskGetCurrentTaskHandle
	.section	.text.xTaskGetSchedulerState,"ax",%progbits
	.align	1
	.p2align 2,,3
	.global	xTaskGetSchedulerState
	.syntax unified
	.thumb
	.thumb_func
	.fpu fpv4-sp-d16
	.type	xTaskGetSchedulerState, %function
xTaskGetSchedulerState:
.LFB42:
	.loc 1 3987 2 is_stmt 1 view -0
	.cfi_startproc
	@ args = 0, pretend = 0, frame = 0
	@ frame_needed = 0, uses_anonymous_args = 0
	@ link register save eliminated.
	.loc 1 3988 2 view .LVU1751
	.loc 1 3990 3 view .LVU1752
	.loc 1 3990 25 is_stmt 0 view .LVU1753
	ldr	r3, .L456
	ldr	r3, [r3]
	.loc 1 3990 5 view .LVU1754
	cbz	r3, .L454
	.loc 1 3996 4 is_stmt 1 view .LVU1755
	.loc 1 3996 29 is_stmt 0 view .LVU1756
	ldr	r3, .L456+4
	ldr	r3, [r3]
	.loc 1 4002 13 view .LVU1757
	cmp	r3, #0
	ite	eq
	moveq	r0, #2
	movne	r0, #0
	bx	lr
.L454:
	.loc 1 3992 12 view .LVU1758
	movs	r0, #1
	.loc 1 4007 2 view .LVU1759
	bx	lr
.L457:
	.align	2
.L456:
	.word	.LANCHOR18
	.word	.LANCHOR13
	.cfi_endproc
.LFE42:
	.size	xTaskGetSchedulerState, .-xTaskGetSchedulerState
	.section	.text.xTaskPriorityInherit,"ax",%progbits
	.align	1
	.p2align 2,,3
	.global	xTaskPriorityInherit
	.syntax unified
	.thumb
	.thumb_func
	.fpu fpv4-sp-d16
	.type	xTaskPriorityInherit, %function
xTaskPriorityInherit:
.LVL360:
.LFB43:
	.loc 1 4015 2 is_stmt 1 view -0
	.cfi_startproc
	@ args = 0, pretend = 0, frame = 8
	@ frame_needed = 0, uses_anonymous_args = 0
	.loc 1 4016 2 view .LVU1761
	.loc 1 4017 2 view .LVU1762
	.loc 1 4022 3 view .LVU1763
	.loc 1 4015 2 is_stmt 0 view .LVU1764
	push	{r4, r5, r6, r7, lr}
.LCFI67:
	.cfi_def_cfa_offset 20
	.cfi_offset 4, -20
	.cfi_offset 5, -16
	.cfi_offset 6, -12
	.cfi_offset 7, -8
	.cfi_offset 14, -4
	.loc 1 4022 5 view .LVU1765
	mov	r4, r0
	.loc 1 4015 2 view .LVU1766
	sub	sp, sp, #12
.LCFI68:
	.cfi_def_cfa_offset 32
	.loc 1 4022 5 view .LVU1767
	cbz	r0, .L458
	.loc 1 4027 4 is_stmt 1 view .LVU1768
	.loc 1 4027 51 is_stmt 0 view .LVU1769
	ldr	r5, .L469
	.loc 1 4027 24 view .LVU1770
	ldr	r3, [r0, #44]
	.loc 1 4027 51 view .LVU1771
	ldr	r2, [r5]
	.loc 1 4027 6 view .LVU1772
	ldr	r2, [r2, #44]
	cmp	r3, r2
	bcs	.L460
	.loc 1 4032 5 is_stmt 1 view .LVU1773
	.loc 1 4032 7 is_stmt 0 view .LVU1774
	ldr	r2, [r0, #24]
	cmp	r2, #0
	blt	.L461
	.loc 1 4034 6 is_stmt 1 view .LVU1775
	ldr	r2, [r5]
	ldr	r2, [r2, #44]
	rsb	r2, r2, #7
	str	r2, [r0, #24]
.L461:
	.loc 1 4038 30 view .LVU1776
	.loc 1 4043 5 view .LVU1777
	.loc 1 4043 9 is_stmt 0 view .LVU1778
	ldr	r6, .L469+4
	.loc 1 4043 7 view .LVU1779
	ldr	r2, [r4, #20]
	.loc 1 4043 9 view .LVU1780
	add	r3, r3, r3, lsl #2
	add	r3, r6, r3, lsl #2
	.loc 1 4043 7 view .LVU1781
	cmp	r2, r3
	beq	.L468
	.loc 1 4064 6 is_stmt 1 view .LVU1782
	.loc 1 4064 49 is_stmt 0 view .LVU1783
	ldr	r3, [r5]
	ldr	r3, [r3, #44]
	.loc 1 4064 35 view .LVU1784
	str	r3, [r4, #44]
	.loc 1 4070 13 view .LVU1785
	movs	r0, #1
.LVL361:
.L458:
	.loc 1 4097 2 view .LVU1786
	add	sp, sp, #12
.LCFI69:
	.cfi_remember_state
	.cfi_def_cfa_offset 20
	@ sp needed
	pop	{r4, r5, r6, r7, pc}
.LVL362:
.L460:
.LCFI70:
	.cfi_restore_state
	.loc 1 4074 5 is_stmt 1 view .LVU1787
	.loc 1 4074 56 is_stmt 0 view .LVU1788
	ldr	r3, [r5]
	.loc 1 4074 7 view .LVU1789
	ldr	r0, [r0, #68]
.LVL363:
	.loc 1 4074 7 view .LVU1790
	ldr	r3, [r3, #44]
	cmp	r0, r3
	ite	cs
	movcs	r0, #0
	movcc	r0, #1
	.loc 1 4097 2 view .LVU1791
	add	sp, sp, #12
.LCFI71:
	.cfi_remember_state
	.cfi_def_cfa_offset 20
	@ sp needed
	pop	{r4, r5, r6, r7, pc}
.LVL364:
.L468:
.LCFI72:
	.cfi_restore_state
	.loc 1 4045 6 is_stmt 1 view .LVU1792
	.loc 1 4045 10 is_stmt 0 view .LVU1793
	adds	r1, r4, #4
	mov	r0, r1
.LVL365:
	.loc 1 4045 10 view .LVU1794
	str	r1, [sp, #4]
	bl	uxListRemove
.LVL366:
	.loc 1 4045 8 view .LVU1795
	ldr	r1, [sp, #4]
	.loc 1 4050 7 view .LVU1796
	ldr	r2, .L469+8
	.loc 1 4045 8 view .LVU1797
	cbnz	r0, .L463
	.loc 1 4050 7 is_stmt 1 view .LVU1798
	ldr	r7, [r4, #44]
	ldr	r3, [r2]
	movs	r0, #1
	lsls	r0, r0, r7
	bic	r3, r3, r0
	str	r3, [r2]
.L463:
	.loc 1 4054 31 view .LVU1799
	.loc 1 4058 6 view .LVU1800
	.loc 1 4058 49 is_stmt 0 view .LVU1801
	ldr	r3, [r5]
	.loc 1 4059 6 view .LVU1802
	ldr	r5, [r2]
	.loc 1 4058 49 view .LVU1803
	ldr	r0, [r3, #44]
	.loc 1 4058 35 view .LVU1804
	str	r0, [r4, #44]
	.loc 1 4059 6 is_stmt 1 view .LVU1805
	.loc 1 4059 6 view .LVU1806
	movs	r4, #1
.LVL367:
	.loc 1 4059 6 is_stmt 0 view .LVU1807
	lsl	r3, r4, r0
	add	r0, r0, r0, lsl #2
	orrs	r3, r3, r5
	add	r0, r6, r0, lsl #2
	str	r3, [r2]
	.loc 1 4059 6 is_stmt 1 view .LVU1808
	bl	vListInsertEnd
.LVL368:
	.loc 1 4059 47 view .LVU1809
	.loc 1 4070 13 is_stmt 0 view .LVU1810
	mov	r0, r4
	b	.L458
.L470:
	.align	2
.L469:
	.word	.LANCHOR5
	.word	.LANCHOR3
	.word	.LANCHOR6
	.cfi_endproc
.LFE43:
	.size	xTaskPriorityInherit, .-xTaskPriorityInherit
	.section	.text.xTaskPriorityDisinherit,"ax",%progbits
	.align	1
	.p2align 2,,3
	.global	xTaskPriorityDisinherit
	.syntax unified
	.thumb
	.thumb_func
	.fpu fpv4-sp-d16
	.type	xTaskPriorityDisinherit, %function
xTaskPriorityDisinherit:
.LVL369:
.LFB44:
	.loc 1 4105 2 is_stmt 1 view -0
	.cfi_startproc
	@ args = 0, pretend = 0, frame = 8
	@ frame_needed = 0, uses_anonymous_args = 0
	.loc 1 4106 2 view .LVU1812
	.loc 1 4107 2 view .LVU1813
	.loc 1 4109 3 view .LVU1814
	.loc 1 4109 5 is_stmt 0 view .LVU1815
	cbz	r0, .L487
	.loc 1 4105 2 view .LVU1816
	push	{r4, r5, r6, r7, lr}
.LCFI73:
	.cfi_def_cfa_offset 20
	.cfi_offset 4, -20
	.cfi_offset 5, -16
	.cfi_offset 6, -12
	.cfi_offset 7, -8
	.cfi_offset 14, -4
	.loc 1 4115 4 view .LVU1817
	ldr	r3, .L490
	ldr	r3, [r3]
	cmp	r3, r0
	.loc 1 4105 2 view .LVU1818
	sub	sp, sp, #12
.LCFI74:
	.cfi_def_cfa_offset 32
	mov	r4, r0
	.loc 1 4115 4 is_stmt 1 view .LVU1819
	beq	.L474
	.loc 1 4115 4 view .LVU1820
.LBB486:
.LBI486:
	.loc 2 191 30 view .LVU1821
.LBB487:
	.loc 2 193 1 view .LVU1822
	.loc 2 195 2 view .LVU1823
	.syntax unified
@ 195 "Middlewares/Third_Party/FreeRTOS/Source/portable/GCC/ARM_CM4F/portmacro.h" 1
		mov r3, #80												
	msr basepri, r3											
	isb														
	dsb														

@ 0 "" 2
.LVL370:
	.thumb
	.syntax unified
.L475:
	.loc 2 195 2 is_stmt 0 view .LVU1824
.LBE487:
.LBE486:
	.loc 1 4115 4 is_stmt 1 discriminator 1 view .LVU1825
	.loc 1 4115 4 discriminator 1 view .LVU1826
	.loc 1 4115 4 discriminator 1 view .LVU1827
	.loc 1 4115 4 discriminator 1 view .LVU1828
	.loc 1 4115 4 discriminator 1 view .LVU1829
	.loc 1 4115 4 discriminator 1 view .LVU1830
	b	.L475
.L474:
	.loc 1 4115 41 discriminator 2 view .LVU1831
	.loc 1 4116 4 discriminator 2 view .LVU1832
	ldr	r3, [r3, #72]
	cbz	r3, .L488
	.loc 1 4116 40 discriminator 2 view .LVU1833
	.loc 1 4117 4 discriminator 2 view .LVU1834
	.loc 1 4121 6 is_stmt 0 discriminator 2 view .LVU1835
	ldr	r1, [r0, #44]
	ldr	r2, [r0, #68]
	.loc 1 4117 28 discriminator 2 view .LVU1836
	subs	r3, r3, #1
	.loc 1 4121 6 discriminator 2 view .LVU1837
	cmp	r1, r2
	.loc 1 4117 28 discriminator 2 view .LVU1838
	str	r3, [r0, #72]
	.loc 1 4121 4 is_stmt 1 discriminator 2 view .LVU1839
	.loc 1 4121 6 is_stmt 0 discriminator 2 view .LVU1840
	beq	.L478
	.loc 1 4124 5 is_stmt 1 view .LVU1841
	.loc 1 4124 7 is_stmt 0 view .LVU1842
	cbz	r3, .L489
.L478:
	.loc 1 4107 13 view .LVU1843
	movs	r0, #0
.LVL371:
.L471:
	.loc 1 4177 2 view .LVU1844
	add	sp, sp, #12
.LCFI75:
	.cfi_remember_state
	.cfi_def_cfa_offset 20
	@ sp needed
	pop	{r4, r5, r6, r7, pc}
.LVL372:
.L488:
.LCFI76:
	.cfi_restore_state
	.loc 1 4116 4 is_stmt 1 view .LVU1845
.LBB488:
.LBI488:
	.loc 2 191 30 view .LVU1846
.LBB489:
	.loc 2 193 1 view .LVU1847
	.loc 2 195 2 view .LVU1848
	.syntax unified
@ 195 "Middlewares/Third_Party/FreeRTOS/Source/portable/GCC/ARM_CM4F/portmacro.h" 1
		mov r3, #80												
	msr basepri, r3											
	isb														
	dsb														

@ 0 "" 2
.LVL373:
	.thumb
	.syntax unified
.L477:
	.loc 2 195 2 is_stmt 0 view .LVU1849
.LBE489:
.LBE488:
	.loc 1 4116 4 is_stmt 1 discriminator 2 view .LVU1850
	.loc 1 4116 4 discriminator 2 view .LVU1851
	.loc 1 4116 4 discriminator 2 view .LVU1852
	.loc 1 4116 4 discriminator 2 view .LVU1853
	.loc 1 4116 4 discriminator 2 view .LVU1854
	.loc 1 4116 4 discriminator 2 view .LVU1855
	b	.L477
.L487:
.LCFI77:
	.cfi_def_cfa_offset 0
	.cfi_restore 4
	.cfi_restore 5
	.cfi_restore 6
	.cfi_restore 7
	.cfi_restore 14
	.loc 1 4107 13 is_stmt 0 view .LVU1856
	movs	r0, #0
.LVL374:
	.loc 1 4177 2 view .LVU1857
	bx	lr
.LVL375:
.L489:
.LCFI78:
	.cfi_def_cfa_offset 32
	.cfi_offset 4, -20
	.cfi_offset 5, -16
	.cfi_offset 6, -12
	.cfi_offset 7, -8
	.cfi_offset 14, -4
	.loc 1 4131 6 is_stmt 1 view .LVU1858
	.loc 1 4131 10 is_stmt 0 view .LVU1859
	adds	r1, r0, #4
	mov	r0, r1
.LVL376:
	.loc 1 4131 10 view .LVU1860
	str	r1, [sp, #4]
	bl	uxListRemove
.LVL377:
	.loc 1 4131 8 view .LVU1861
	ldr	r1, [sp, #4]
	cbz	r0, .L482
	ldr	r0, .L490+4
	ldr	r2, .L490+8
.L479:
	.loc 1 4137 31 is_stmt 1 view .LVU1862
	.loc 1 4142 67 view .LVU1863
	.loc 1 4143 6 view .LVU1864
	.loc 1 4143 31 is_stmt 0 view .LVU1865
	ldr	r3, [r4, #68]
	.loc 1 4149 6 view .LVU1866
	ldr	r6, [r2]
	.loc 1 4143 24 view .LVU1867
	str	r3, [r4, #44]
	.loc 1 4148 6 is_stmt 1 view .LVU1868
	.loc 1 4149 6 is_stmt 0 view .LVU1869
	movs	r5, #1
	.loc 1 4148 6 view .LVU1870
	rsb	r7, r3, #7
	str	r7, [r4, #24]
	.loc 1 4149 6 is_stmt 1 view .LVU1871
	.loc 1 4149 6 view .LVU1872
	lsl	r4, r5, r3
.LVL378:
	.loc 1 4149 6 is_stmt 0 view .LVU1873
	add	r3, r3, r3, lsl #2
	add	r0, r0, r3, lsl #2
	orrs	r4, r4, r6
	str	r4, [r2]
	.loc 1 4149 6 is_stmt 1 view .LVU1874
	bl	vListInsertEnd
.LVL379:
	.loc 1 4149 36 view .LVU1875
	.loc 1 4159 6 view .LVU1876
	.loc 1 4159 14 is_stmt 0 view .LVU1877
	mov	r0, r5
	.loc 1 4173 28 is_stmt 1 view .LVU1878
	.loc 1 4176 3 view .LVU1879
	.loc 1 4176 10 is_stmt 0 view .LVU1880
	b	.L471
.LVL380:
.L482:
	.loc 1 4133 7 is_stmt 1 view .LVU1881
	ldr	r5, [r4, #44]
	ldr	r0, .L490+4
	ldr	r2, .L490+8
	add	r3, r5, r5, lsl #2
	lsls	r3, r3, #2
	ldr	r3, [r0, r3]
	cmp	r3, #0
	bne	.L479
	.loc 1 4133 7 discriminator 1 view .LVU1882
	movs	r3, #1
	lsl	r5, r3, r5
	ldr	r3, [r2]
	bic	r3, r3, r5
	str	r3, [r2]
	b	.L479
.L491:
	.align	2
.L490:
	.word	.LANCHOR5
	.word	.LANCHOR3
	.word	.LANCHOR6
	.cfi_endproc
.LFE44:
	.size	xTaskPriorityDisinherit, .-xTaskPriorityDisinherit
	.section	.text.vTaskPriorityDisinheritAfterTimeout,"ax",%progbits
	.align	1
	.p2align 2,,3
	.global	vTaskPriorityDisinheritAfterTimeout
	.syntax unified
	.thumb
	.thumb_func
	.fpu fpv4-sp-d16
	.type	vTaskPriorityDisinheritAfterTimeout, %function
vTaskPriorityDisinheritAfterTimeout:
.LVL381:
.LFB45:
	.loc 1 4185 2 view -0
	.cfi_startproc
	@ args = 0, pretend = 0, frame = 8
	@ frame_needed = 0, uses_anonymous_args = 0
	.loc 1 4186 2 view .LVU1884
	.loc 1 4187 2 view .LVU1885
	.loc 1 4188 2 view .LVU1886
	.loc 1 4190 3 view .LVU1887
	.loc 1 4190 5 is_stmt 0 view .LVU1888
	cmp	r0, #0
	beq	.L504
	.loc 1 4194 4 is_stmt 1 view .LVU1889
	.loc 1 4185 2 is_stmt 0 view .LVU1890
	push	{r4, r5, lr}
.LCFI79:
	.cfi_def_cfa_offset 12
	.cfi_offset 4, -12
	.cfi_offset 5, -8
	.cfi_offset 14, -4
	.loc 1 4194 4 view .LVU1891
	ldr	r3, [r0, #72]
	.loc 1 4185 2 view .LVU1892
	sub	sp, sp, #12
.LCFI80:
	.cfi_def_cfa_offset 24
	mov	r4, r0
	.loc 1 4194 4 view .LVU1893
	cbz	r3, .L507
	.loc 1 4194 40 is_stmt 1 discriminator 2 view .LVU1894
	.loc 1 4200 4 discriminator 2 view .LVU1895
	ldr	r0, [r0, #68]
.LVL382:
	.loc 1 4210 13 is_stmt 0 discriminator 2 view .LVU1896
	ldr	r2, [r4, #44]
	cmp	r1, r0
	it	cc
	movcc	r1, r0
.LVL383:
	.loc 1 4210 4 is_stmt 1 discriminator 2 view .LVU1897
	.loc 1 4210 6 is_stmt 0 discriminator 2 view .LVU1898
	cmp	r2, r1
	beq	.L492
	.loc 1 4216 5 is_stmt 1 view .LVU1899
	.loc 1 4216 7 is_stmt 0 view .LVU1900
	cmp	r3, #1
	beq	.L508
.LVL384:
.L492:
	.loc 1 4282 2 view .LVU1901
	add	sp, sp, #12
.LCFI81:
	.cfi_remember_state
	.cfi_def_cfa_offset 12
	@ sp needed
	pop	{r4, r5, pc}
.LVL385:
.L507:
.LCFI82:
	.cfi_restore_state
	.loc 1 4194 4 is_stmt 1 view .LVU1902
.LBB490:
.LBI490:
	.loc 2 191 30 view .LVU1903
.LBB491:
	.loc 2 193 1 view .LVU1904
	.loc 2 195 2 view .LVU1905
	.syntax unified
@ 195 "Middlewares/Third_Party/FreeRTOS/Source/portable/GCC/ARM_CM4F/portmacro.h" 1
		mov r3, #80												
	msr basepri, r3											
	isb														
	dsb														

@ 0 "" 2
.LVL386:
	.thumb
	.syntax unified
.L496:
	.loc 2 195 2 is_stmt 0 view .LVU1906
.LBE491:
.LBE490:
	.loc 1 4194 4 is_stmt 1 discriminator 1 view .LVU1907
	.loc 1 4194 4 discriminator 1 view .LVU1908
	.loc 1 4194 4 discriminator 1 view .LVU1909
	.loc 1 4194 4 discriminator 1 view .LVU1910
	.loc 1 4194 4 discriminator 1 view .LVU1911
	.loc 1 4194 4 discriminator 1 view .LVU1912
	b	.L496
.LVL387:
.L508:
	.loc 1 4221 6 view .LVU1913
	ldr	r3, .L510
	ldr	r3, [r3]
	cmp	r3, r4
	beq	.L509
	.loc 1 4221 43 discriminator 2 view .LVU1914
	.loc 1 4226 67 discriminator 2 view .LVU1915
	.loc 1 4227 6 discriminator 2 view .LVU1916
.LVL388:
	.loc 1 4228 6 discriminator 2 view .LVU1917
	.loc 1 4232 8 is_stmt 0 discriminator 2 view .LVU1918
	ldr	r3, [r4, #24]
	.loc 1 4228 24 discriminator 2 view .LVU1919
	str	r1, [r4, #44]
	.loc 1 4232 6 is_stmt 1 discriminator 2 view .LVU1920
	.loc 1 4232 8 is_stmt 0 discriminator 2 view .LVU1921
	cmp	r3, #0
	.loc 1 4234 7 is_stmt 1 discriminator 2 view .LVU1922
	.loc 1 4238 31 discriminator 2 view .LVU1923
	.loc 1 4247 6 discriminator 2 view .LVU1924
	.loc 1 4234 7 is_stmt 0 discriminator 2 view .LVU1925
	it	ge
	rsbge	r1, r1, #7
.LVL389:
	.loc 1 4247 10 discriminator 2 view .LVU1926
	ldr	r5, .L510+4
	.loc 1 4234 7 discriminator 2 view .LVU1927
	it	ge
	strge	r1, [r4, #24]
	.loc 1 4247 10 discriminator 2 view .LVU1928
	add	r2, r2, r2, lsl #2
.LVL390:
	.loc 1 4247 8 discriminator 2 view .LVU1929
	ldr	r1, [r4, #20]
	.loc 1 4247 10 discriminator 2 view .LVU1930
	add	r3, r5, r2, lsl #2
	.loc 1 4247 8 discriminator 2 view .LVU1931
	cmp	r1, r3
	bne	.L492
	.loc 1 4249 7 is_stmt 1 view .LVU1932
	.loc 1 4249 11 is_stmt 0 view .LVU1933
	adds	r1, r4, #4
	mov	r0, r1
	str	r1, [sp, #4]
	bl	uxListRemove
.LVL391:
	.loc 1 4249 9 view .LVU1934
	ldr	r1, [sp, #4]
	cbz	r0, .L501
	.loc 1 4254 8 view .LVU1935
	ldr	r0, [r4, #44]
	ldr	r2, .L510+8
	movs	r3, #1
	lsls	r3, r3, r0
.LVL392:
.L502:
	.loc 1 4258 32 is_stmt 1 view .LVU1936
	.loc 1 4261 7 view .LVU1937
	.loc 1 4261 7 view .LVU1938
	ldr	r4, [r2]
	add	r0, r0, r0, lsl #2
	orrs	r3, r3, r4
	add	r0, r5, r0, lsl #2
	str	r3, [r2]
	.loc 1 4261 7 view .LVU1939
	.loc 1 4282 2 is_stmt 0 view .LVU1940
	add	sp, sp, #12
.LCFI83:
	.cfi_def_cfa_offset 12
	@ sp needed
	pop	{r4, r5, lr}
.LCFI84:
	.cfi_restore 14
	.cfi_restore 5
	.cfi_restore 4
	.cfi_def_cfa_offset 0
.LVL393:
	.loc 1 4261 7 view .LVU1941
	b	vListInsertEnd
.LVL394:
.L504:
	.loc 1 4261 7 view .LVU1942
	bx	lr
.LVL395:
.L509:
.LCFI85:
	.cfi_def_cfa_offset 24
	.cfi_offset 4, -12
	.cfi_offset 5, -8
	.cfi_offset 14, -4
	.loc 1 4221 6 is_stmt 1 view .LVU1943
.LBB492:
.LBI492:
	.loc 2 191 30 view .LVU1944
.LBB493:
	.loc 2 193 1 view .LVU1945
	.loc 2 195 2 view .LVU1946
	.syntax unified
@ 195 "Middlewares/Third_Party/FreeRTOS/Source/portable/GCC/ARM_CM4F/portmacro.h" 1
		mov r3, #80												
	msr basepri, r3											
	isb														
	dsb														

@ 0 "" 2
.LVL396:
	.thumb
	.syntax unified
.L499:
	.loc 2 195 2 is_stmt 0 view .LVU1947
.LBE493:
.LBE492:
	.loc 1 4221 6 is_stmt 1 discriminator 2 view .LVU1948
	.loc 1 4221 6 discriminator 2 view .LVU1949
	.loc 1 4221 6 discriminator 2 view .LVU1950
	.loc 1 4221 6 discriminator 2 view .LVU1951
	.loc 1 4221 6 discriminator 2 view .LVU1952
	.loc 1 4221 6 discriminator 2 view .LVU1953
	b	.L499
.LVL397:
.L501:
	.loc 1 4254 8 view .LVU1954
	ldr	r2, .L510+8
	ldr	r0, [r4, #44]
	ldr	r4, [r2]
.LVL398:
	.loc 1 4254 8 is_stmt 0 view .LVU1955
	movs	r3, #1
	lsls	r3, r3, r0
	bic	r4, r4, r3
	str	r4, [r2]
	b	.L502
.L511:
	.align	2
.L510:
	.word	.LANCHOR5
	.word	.LANCHOR3
	.word	.LANCHOR6
	.cfi_endproc
.LFE45:
	.size	vTaskPriorityDisinheritAfterTimeout, .-vTaskPriorityDisinheritAfterTimeout
	.section	.text.uxTaskResetEventItemValue,"ax",%progbits
	.align	1
	.p2align 2,,3
	.global	uxTaskResetEventItemValue
	.syntax unified
	.thumb
	.thumb_func
	.fpu fpv4-sp-d16
	.type	uxTaskResetEventItemValue, %function
uxTaskResetEventItemValue:
.LFB46:
	.loc 1 4603 1 is_stmt 1 view -0
	.cfi_startproc
	@ args = 0, pretend = 0, frame = 0
	@ frame_needed = 0, uses_anonymous_args = 0
	@ link register save eliminated.
	.loc 1 4604 1 view .LVU1957
	.loc 1 4606 2 view .LVU1958
	.loc 1 4606 13 is_stmt 0 view .LVU1959
	ldr	r2, .L513
	ldr	r1, [r2]
	.loc 1 4610 2 view .LVU1960
	ldr	r3, [r2]
	ldr	r2, [r2]
	ldr	r3, [r3, #44]
	.loc 1 4606 11 view .LVU1961
	ldr	r0, [r1, #24]
.LVL399:
	.loc 1 4610 2 is_stmt 1 view .LVU1962
	rsb	r3, r3, #7
	str	r3, [r2, #24]
	.loc 1 4612 2 view .LVU1963
	.loc 1 4613 1 is_stmt 0 view .LVU1964
	bx	lr
.L514:
	.align	2
.L513:
	.word	.LANCHOR5
	.cfi_endproc
.LFE46:
	.size	uxTaskResetEventItemValue, .-uxTaskResetEventItemValue
	.section	.text.pvTaskIncrementMutexHeldCount,"ax",%progbits
	.align	1
	.p2align 2,,3
	.global	pvTaskIncrementMutexHeldCount
	.syntax unified
	.thumb
	.thumb_func
	.fpu fpv4-sp-d16
	.type	pvTaskIncrementMutexHeldCount, %function
pvTaskIncrementMutexHeldCount:
.LFB47:
	.loc 1 4619 2 is_stmt 1 view -0
	.cfi_startproc
	@ args = 0, pretend = 0, frame = 0
	@ frame_needed = 0, uses_anonymous_args = 0
	@ link register save eliminated.
	.loc 1 4622 3 view .LVU1966
	.loc 1 4622 20 is_stmt 0 view .LVU1967
	ldr	r3, .L520
	ldr	r2, [r3]
	.loc 1 4622 5 view .LVU1968
	cbz	r2, .L516
	.loc 1 4624 4 is_stmt 1 view .LVU1969
	.loc 1 4624 18 is_stmt 0 view .LVU1970
	ldr	r1, [r3]
	.loc 1 4624 35 view .LVU1971
	ldr	r2, [r1, #72]
	adds	r2, r2, #1
	str	r2, [r1, #72]
.L516:
	.loc 1 4627 3 is_stmt 1 view .LVU1972
	.loc 1 4627 10 is_stmt 0 view .LVU1973
	ldr	r0, [r3]
	.loc 1 4628 2 view .LVU1974
	bx	lr
.L521:
	.align	2
.L520:
	.word	.LANCHOR5
	.cfi_endproc
.LFE47:
	.size	pvTaskIncrementMutexHeldCount, .-pvTaskIncrementMutexHeldCount
	.section	.text.ulTaskNotifyTake,"ax",%progbits
	.align	1
	.p2align 2,,3
	.global	ulTaskNotifyTake
	.syntax unified
	.thumb
	.thumb_func
	.fpu fpv4-sp-d16
	.type	ulTaskNotifyTake, %function
ulTaskNotifyTake:
.LVL400:
.LFB48:
	.loc 1 4636 2 is_stmt 1 view -0
	.cfi_startproc
	@ args = 0, pretend = 0, frame = 0
	@ frame_needed = 0, uses_anonymous_args = 0
	.loc 1 4637 2 view .LVU1976
	.loc 1 4639 3 view .LVU1977
	.loc 1 4636 2 is_stmt 0 view .LVU1978
	push	{r4, r5, r6, lr}
.LCFI86:
	.cfi_def_cfa_offset 16
	.cfi_offset 4, -16
	.cfi_offset 5, -12
	.cfi_offset 6, -8
	.cfi_offset 14, -4
	.loc 1 4642 20 view .LVU1979
	ldr	r4, .L536
	.loc 1 4636 2 view .LVU1980
	mov	r6, r0
	mov	r5, r1
	.loc 1 4639 3 view .LVU1981
	bl	vPortEnterCritical
.LVL401:
	.loc 1 4642 4 is_stmt 1 view .LVU1982
	.loc 1 4642 20 is_stmt 0 view .LVU1983
	ldr	r3, [r4]
	ldr	r3, [r3, #76]
	.loc 1 4642 6 view .LVU1984
	cbnz	r3, .L524
	.loc 1 4645 5 is_stmt 1 view .LVU1985
	.loc 1 4645 17 is_stmt 0 view .LVU1986
	ldr	r3, [r4]
	.loc 1 4645 33 view .LVU1987
	movs	r1, #1
	strb	r1, [r3, #80]
	.loc 1 4647 5 is_stmt 1 view .LVU1988
	.loc 1 4647 7 is_stmt 0 view .LVU1989
	cbnz	r5, .L535
.L524:
	.loc 1 4665 29 is_stmt 1 view .LVU1990
	.loc 1 4668 3 view .LVU1991
	bl	vPortExitCritical
.LVL402:
	.loc 1 4670 3 view .LVU1992
	bl	vPortEnterCritical
.LVL403:
	.loc 1 4672 27 view .LVU1993
	.loc 1 4673 4 view .LVU1994
	.loc 1 4673 27 is_stmt 0 view .LVU1995
	ldr	r3, [r4]
	.loc 1 4673 13 view .LVU1996
	ldr	r5, [r3, #76]
.LVL404:
	.loc 1 4675 4 is_stmt 1 view .LVU1997
	.loc 1 4675 6 is_stmt 0 view .LVU1998
	cbz	r5, .L526
	.loc 1 4677 5 is_stmt 1 view .LVU1999
	.loc 1 4679 18 is_stmt 0 view .LVU2000
	ldr	r3, [r4]
	.loc 1 4677 7 view .LVU2001
	cbz	r6, .L527
	.loc 1 4679 6 is_stmt 1 view .LVU2002
	.loc 1 4679 36 is_stmt 0 view .LVU2003
	movs	r2, #0
	str	r2, [r3, #76]
.L526:
	.loc 1 4688 29 is_stmt 1 view .LVU2004
	.loc 1 4691 4 view .LVU2005
	.loc 1 4691 16 is_stmt 0 view .LVU2006
	ldr	r3, [r4]
	.loc 1 4691 32 view .LVU2007
	movs	r2, #0
	strb	r2, [r3, #80]
	.loc 1 4693 3 is_stmt 1 view .LVU2008
	bl	vPortExitCritical
.LVL405:
	.loc 1 4695 3 view .LVU2009
	.loc 1 4696 2 is_stmt 0 view .LVU2010
	mov	r0, r5
	pop	{r4, r5, r6, pc}
.LVL406:
.L527:
	.loc 1 4683 6 is_stmt 1 view .LVU2011
	.loc 1 4683 47 is_stmt 0 view .LVU2012
	subs	r2, r5, #1
	.loc 1 4683 36 view .LVU2013
	str	r2, [r3, #76]
	b	.L526
.LVL407:
.L535:
	.loc 1 4649 6 is_stmt 1 view .LVU2014
	mov	r0, r5
	bl	prvAddCurrentTaskToDelayedList
.LVL408:
	.loc 1 4650 35 view .LVU2015
	.loc 1 4656 6 view .LVU2016
	mov	r3, #-536813568
	mov	r2, #268435456
	str	r2, [r3, #3332]
	.loc 1 4656 6 view .LVU2017
	.syntax unified
@ 4656 "Middlewares/Third_Party/FreeRTOS/Source/tasks.c" 1
	dsb
@ 0 "" 2
	.loc 1 4656 6 view .LVU2018
@ 4656 "Middlewares/Third_Party/FreeRTOS/Source/tasks.c" 1
	isb
@ 0 "" 2
	.loc 1 4656 28 view .LVU2019
	.thumb
	.syntax unified
	b	.L524
.L537:
	.align	2
.L536:
	.word	.LANCHOR5
	.cfi_endproc
.LFE48:
	.size	ulTaskNotifyTake, .-ulTaskNotifyTake
	.section	.text.xTaskNotifyWait,"ax",%progbits
	.align	1
	.p2align 2,,3
	.global	xTaskNotifyWait
	.syntax unified
	.thumb
	.thumb_func
	.fpu fpv4-sp-d16
	.type	xTaskNotifyWait, %function
xTaskNotifyWait:
.LVL409:
.LFB49:
	.loc 1 4704 2 view -0
	.cfi_startproc
	@ args = 0, pretend = 0, frame = 8
	@ frame_needed = 0, uses_anonymous_args = 0
	.loc 1 4705 2 view .LVU2021
	.loc 1 4707 3 view .LVU2022
	.loc 1 4704 2 is_stmt 0 view .LVU2023
	push	{r4, r5, r6, r7, r8, r9, lr}
.LCFI87:
	.cfi_def_cfa_offset 28
	.cfi_offset 4, -28
	.cfi_offset 5, -24
	.cfi_offset 6, -20
	.cfi_offset 7, -16
	.cfi_offset 8, -12
	.cfi_offset 9, -8
	.cfi_offset 14, -4
	.loc 1 4710 20 view .LVU2024
	ldr	r4, .L554
	.loc 1 4704 2 view .LVU2025
	sub	sp, sp, #12
.LCFI88:
	.cfi_def_cfa_offset 40
	.loc 1 4704 2 view .LVU2026
	mov	r6, r1
	mov	r8, r0
	mov	r5, r2
	mov	r9, r3
	.loc 1 4707 3 view .LVU2027
	bl	vPortEnterCritical
.LVL410:
	.loc 1 4710 4 is_stmt 1 view .LVU2028
	.loc 1 4710 20 is_stmt 0 view .LVU2029
	ldr	r1, [r4]
	ldrb	r1, [r1, #80]	@ zero_extendqisi2
	.loc 1 4710 6 view .LVU2030
	cmp	r1, #2
	beq	.L540
	.loc 1 4715 5 is_stmt 1 view .LVU2031
	.loc 1 4715 35 is_stmt 0 view .LVU2032
	ldr	r3, [r4]
	ldr	r7, [r3, #76]
	bic	r7, r7, r8
	str	r7, [r3, #76]
	.loc 1 4718 5 is_stmt 1 view .LVU2033
	.loc 1 4718 17 is_stmt 0 view .LVU2034
	ldr	r3, [r4]
	.loc 1 4718 33 view .LVU2035
	movs	r1, #1
	strb	r1, [r3, #80]
	.loc 1 4720 5 is_stmt 1 view .LVU2036
	.loc 1 4720 7 is_stmt 0 view .LVU2037
	cmp	r9, #0
	bne	.L552
.L540:
	.loc 1 4738 29 is_stmt 1 view .LVU2038
	.loc 1 4741 3 view .LVU2039
	bl	vPortExitCritical
.LVL411:
	.loc 1 4743 3 view .LVU2040
	bl	vPortEnterCritical
.LVL412:
	.loc 1 4745 27 view .LVU2041
	.loc 1 4747 4 view .LVU2042
	.loc 1 4747 6 is_stmt 0 view .LVU2043
	cbz	r5, .L542
	.loc 1 4751 5 is_stmt 1 view .LVU2044
	.loc 1 4751 41 is_stmt 0 view .LVU2045
	ldr	r3, [r4]
	ldr	r3, [r3, #76]
	.loc 1 4751 27 view .LVU2046
	str	r3, [r5]
.L542:
	.loc 1 4758 4 is_stmt 1 view .LVU2047
	.loc 1 4758 20 is_stmt 0 view .LVU2048
	ldr	r3, [r4]
	ldrb	r3, [r3, #80]	@ zero_extendqisi2
	.loc 1 4758 6 view .LVU2049
	cmp	r3, #2
	beq	.L553
	.loc 1 4761 13 view .LVU2050
	movs	r0, #0
.LVL413:
.L543:
	.loc 1 4771 16 view .LVU2051
	ldr	r3, [r4]
	str	r0, [sp, #4]
.LVL414:
	.loc 1 4771 4 is_stmt 1 view .LVU2052
	.loc 1 4771 32 is_stmt 0 view .LVU2053
	movs	r2, #0
	strb	r2, [r3, #80]
	.loc 1 4773 3 is_stmt 1 view .LVU2054
	bl	vPortExitCritical
.LVL415:
	.loc 1 4775 3 view .LVU2055
	.loc 1 4776 2 is_stmt 0 view .LVU2056
	ldr	r0, [sp, #4]
	add	sp, sp, #12
.LCFI89:
	.cfi_remember_state
	.cfi_def_cfa_offset 28
	@ sp needed
	pop	{r4, r5, r6, r7, r8, r9, pc}
.LVL416:
.L552:
.LCFI90:
	.cfi_restore_state
	.loc 1 4722 6 is_stmt 1 view .LVU2057
	mov	r0, r9
	bl	prvAddCurrentTaskToDelayedList
.LVL417:
	.loc 1 4723 35 view .LVU2058
	.loc 1 4729 6 view .LVU2059
	mov	r3, #-536813568
	mov	r2, #268435456
	str	r2, [r3, #3332]
	.loc 1 4729 6 view .LVU2060
	.syntax unified
@ 4729 "Middlewares/Third_Party/FreeRTOS/Source/tasks.c" 1
	dsb
@ 0 "" 2
	.loc 1 4729 6 view .LVU2061
@ 4729 "Middlewares/Third_Party/FreeRTOS/Source/tasks.c" 1
	isb
@ 0 "" 2
	.loc 1 4729 28 view .LVU2062
	.thumb
	.syntax unified
	b	.L540
.L553:
	.loc 1 4767 5 view .LVU2063
	.loc 1 4767 35 is_stmt 0 view .LVU2064
	ldr	r3, [r4]
	ldr	r1, [r3, #76]
	bic	r6, r1, r6
.LVL418:
	.loc 1 4768 13 view .LVU2065
	movs	r0, #1
	.loc 1 4767 35 view .LVU2066
	str	r6, [r3, #76]
	.loc 1 4768 5 is_stmt 1 view .LVU2067
.LVL419:
	.loc 1 4768 5 is_stmt 0 view .LVU2068
	b	.L543
.L555:
	.align	2
.L554:
	.word	.LANCHOR5
	.cfi_endproc
.LFE49:
	.size	xTaskNotifyWait, .-xTaskNotifyWait
	.section	.text.xTaskGenericNotify,"ax",%progbits
	.align	1
	.p2align 2,,3
	.global	xTaskGenericNotify
	.syntax unified
	.thumb
	.thumb_func
	.fpu fpv4-sp-d16
	.type	xTaskGenericNotify, %function
xTaskGenericNotify:
.LVL420:
.LFB50:
	.loc 1 4784 2 is_stmt 1 view -0
	.cfi_startproc
	@ args = 0, pretend = 0, frame = 8
	@ frame_needed = 0, uses_anonymous_args = 0
	.loc 1 4785 2 view .LVU2070
	.loc 1 4786 2 view .LVU2071
	.loc 1 4787 2 view .LVU2072
	.loc 1 4789 3 view .LVU2073
	cbz	r0, .L583
	.loc 1 4789 32 discriminator 2 view .LVU2074
	.loc 1 4790 3 discriminator 2 view .LVU2075
	.loc 1 4784 2 is_stmt 0 discriminator 2 view .LVU2076
	push	{r4, r5, r6, r7, lr}
.LCFI91:
	.cfi_def_cfa_offset 20
	.cfi_offset 4, -20
	.cfi_offset 5, -16
	.cfi_offset 6, -12
	.cfi_offset 7, -8
	.cfi_offset 14, -4
	mov	r6, r3
	sub	sp, sp, #12
.LCFI92:
	.cfi_def_cfa_offset 32
	mov	r7, r1
	mov	r5, r2
	mov	r4, r0
.LVL421:
	.loc 1 4792 3 is_stmt 1 discriminator 2 view .LVU2077
	bl	vPortEnterCritical
.LVL422:
	.loc 1 4794 4 discriminator 2 view .LVU2078
	.loc 1 4794 6 is_stmt 0 discriminator 2 view .LVU2079
	cbz	r6, .L559
	.loc 1 4796 5 is_stmt 1 view .LVU2080
	.loc 1 4796 42 is_stmt 0 view .LVU2081
	ldr	r3, [r4, #76]
	.loc 1 4796 35 view .LVU2082
	str	r3, [r6]
.L559:
	.loc 1 4799 4 is_stmt 1 view .LVU2083
	.loc 1 4799 26 is_stmt 0 view .LVU2084
	ldrb	r6, [r4, #80]	@ zero_extendqisi2
.LVL423:
	.loc 1 4801 25 view .LVU2085
	movs	r3, #2
	.loc 1 4799 26 view .LVU2086
	uxtb	r6, r6
.LVL424:
	.loc 1 4801 4 is_stmt 1 view .LVU2087
	.loc 1 4801 25 is_stmt 0 view .LVU2088
	strb	r3, [r4, #80]
	.loc 1 4803 4 is_stmt 1 view .LVU2089
	cmp	r5, #4
	bhi	.L560
	tbb	[pc, r5]
.L562:
	.byte	(.L566-.L562)/2
	.byte	(.L565-.L562)/2
	.byte	(.L564-.L562)/2
	.byte	(.L582-.L562)/2
	.byte	(.L561-.L562)/2
	.p2align 1
.L561:
	.loc 1 4818 6 view .LVU2090
	.loc 1 4818 8 is_stmt 0 view .LVU2091
	cmp	r6, #2
	beq	.L573
.L582:
	.loc 1 4820 7 is_stmt 1 view .LVU2092
	.loc 1 4820 30 is_stmt 0 view .LVU2093
	str	r7, [r4, #76]
.L566:
	.loc 1 4843 22 is_stmt 1 view .LVU2094
	.loc 1 4847 4 view .LVU2095
	.loc 1 4847 6 is_stmt 0 view .LVU2096
	cmp	r6, #1
	beq	.L569
.LVL425:
.L572:
	.loc 1 4784 2 view .LVU2097
	movs	r6, #1
.LVL426:
.L567:
	.loc 1 4884 29 is_stmt 1 view .LVU2098
	.loc 1 4887 3 view .LVU2099
	bl	vPortExitCritical
.LVL427:
	.loc 1 4889 3 view .LVU2100
	.loc 1 4890 2 is_stmt 0 view .LVU2101
	mov	r0, r6
	add	sp, sp, #12
.LCFI93:
	.cfi_def_cfa_offset 20
	@ sp needed
	pop	{r4, r5, r6, r7, pc}
.LVL428:
.L583:
.LCFI94:
	.cfi_def_cfa_offset 0
	.cfi_restore 4
	.cfi_restore 5
	.cfi_restore 6
	.cfi_restore 7
	.cfi_restore 14
	.loc 1 4789 3 is_stmt 1 view .LVU2102
.LBB494:
.LBI494:
	.loc 2 191 30 view .LVU2103
.LBB495:
	.loc 2 193 1 view .LVU2104
	.loc 2 195 2 view .LVU2105
	.syntax unified
@ 195 "Middlewares/Third_Party/FreeRTOS/Source/portable/GCC/ARM_CM4F/portmacro.h" 1
		mov r3, #80												
	msr basepri, r3											
	isb														
	dsb														

@ 0 "" 2
.LVL429:
	.thumb
	.syntax unified
.L558:
	.loc 2 195 2 is_stmt 0 view .LVU2106
.LBE495:
.LBE494:
	.loc 1 4789 3 is_stmt 1 discriminator 1 view .LVU2107
	.loc 1 4789 3 discriminator 1 view .LVU2108
	.loc 1 4789 3 discriminator 1 view .LVU2109
	.loc 1 4789 3 discriminator 1 view .LVU2110
	.loc 1 4789 3 discriminator 1 view .LVU2111
	.loc 1 4789 3 discriminator 1 view .LVU2112
	b	.L558
.LVL430:
.L565:
.LCFI95:
	.cfi_def_cfa_offset 32
	.cfi_offset 4, -20
	.cfi_offset 5, -16
	.cfi_offset 6, -12
	.cfi_offset 7, -8
	.cfi_offset 14, -4
	.loc 1 4806 6 view .LVU2113
	.loc 1 4806 29 is_stmt 0 view .LVU2114
	ldr	r1, [r4, #76]
	orrs	r1, r1, r7
	str	r1, [r4, #76]
	.loc 1 4807 6 is_stmt 1 view .LVU2115
	b	.L566
.L564:
	.loc 1 4810 6 view .LVU2116
	.loc 1 4810 13 is_stmt 0 view .LVU2117
	ldr	r3, [r4, #76]
	.loc 1 4810 32 view .LVU2118
	adds	r3, r3, #1
	str	r3, [r4, #76]
	.loc 1 4811 6 is_stmt 1 view .LVU2119
	b	.L566
.L569:
	.loc 1 4849 5 view .LVU2120
	.loc 1 4849 14 is_stmt 0 view .LVU2121
	adds	r1, r4, #4
	.loc 1 4850 5 view .LVU2122
	ldr	r5, .L584
	.loc 1 4849 14 view .LVU2123
	str	r1, [sp, #4]
	mov	r0, r1
	bl	uxListRemove
.LVL431:
	.loc 1 4850 5 is_stmt 1 view .LVU2124
	.loc 1 4850 5 view .LVU2125
	ldr	r3, [r4, #44]
	ldr	r7, [r5]
.LVL432:
	.loc 1 4850 5 is_stmt 0 view .LVU2126
	ldr	r0, .L584+4
	ldr	r1, [sp, #4]
	lsl	r2, r6, r3
	add	r3, r3, r3, lsl #2
	orrs	r2, r2, r7
	add	r0, r0, r3, lsl #2
	str	r2, [r5]
	.loc 1 4850 5 is_stmt 1 view .LVU2127
	bl	vListInsertEnd
.LVL433:
	.loc 1 4850 35 view .LVU2128
	.loc 1 4853 5 view .LVU2129
	ldr	r3, [r4, #40]
	cbz	r3, .L570
	.loc 1 4853 5 view .LVU2130
.LBB496:
.LBI496:
	.loc 2 191 30 view .LVU2131
.LBB497:
	.loc 2 193 1 view .LVU2132
	.loc 2 195 2 view .LVU2133
	.syntax unified
@ 195 "Middlewares/Third_Party/FreeRTOS/Source/portable/GCC/ARM_CM4F/portmacro.h" 1
		mov r3, #80												
	msr basepri, r3											
	isb														
	dsb														

@ 0 "" 2
.LVL434:
	.thumb
	.syntax unified
.L571:
	.loc 2 195 2 is_stmt 0 view .LVU2134
.LBE497:
.LBE496:
	.loc 1 4853 5 is_stmt 1 discriminator 3 view .LVU2135
	.loc 1 4853 5 discriminator 3 view .LVU2136
	.loc 1 4853 5 discriminator 3 view .LVU2137
	.loc 1 4853 5 discriminator 3 view .LVU2138
	.loc 1 4853 5 discriminator 3 view .LVU2139
	.loc 1 4853 5 discriminator 3 view .LVU2140
	b	.L571
.LVL435:
.L573:
	.loc 1 4825 15 is_stmt 0 view .LVU2141
	movs	r6, #0
.LVL436:
	.loc 1 4825 15 view .LVU2142
	b	.L567
.LVL437:
.L570:
	.loc 1 4853 82 is_stmt 1 discriminator 2 view .LVU2143
	.loc 1 4871 5 discriminator 2 view .LVU2144
	.loc 1 4871 41 is_stmt 0 discriminator 2 view .LVU2145
	ldr	r3, .L584+8
	.loc 1 4871 7 discriminator 2 view .LVU2146
	ldr	r2, [r4, #44]
	.loc 1 4871 41 discriminator 2 view .LVU2147
	ldr	r3, [r3]
	.loc 1 4871 7 discriminator 2 view .LVU2148
	ldr	r3, [r3, #44]
	cmp	r2, r3
	bls	.L572
	.loc 1 4875 6 is_stmt 1 view .LVU2149
	mov	r3, #-536813568
	mov	r2, #268435456
	str	r2, [r3, #3332]
	.loc 1 4875 6 view .LVU2150
	.syntax unified
@ 4875 "Middlewares/Third_Party/FreeRTOS/Source/tasks.c" 1
	dsb
@ 0 "" 2
	.loc 1 4875 6 view .LVU2151
@ 4875 "Middlewares/Third_Party/FreeRTOS/Source/tasks.c" 1
	isb
@ 0 "" 2
	.loc 1 4875 37 view .LVU2152
	.thumb
	.syntax unified
	b	.L567
.LVL438:
.L560:
	.loc 1 4838 6 view .LVU2153
	ldr	r3, [r4, #76]
	adds	r3, r3, #1
	beq	.L566
	.loc 1 4838 6 view .LVU2154
.LBB498:
.LBI498:
	.loc 2 191 30 view .LVU2155
.LBB499:
	.loc 2 193 1 view .LVU2156
	.loc 2 195 2 view .LVU2157
	.syntax unified
@ 195 "Middlewares/Third_Party/FreeRTOS/Source/portable/GCC/ARM_CM4F/portmacro.h" 1
		mov r3, #80												
	msr basepri, r3											
	isb														
	dsb														

@ 0 "" 2
.LVL439:
	.thumb
	.syntax unified
.L568:
	.loc 2 195 2 is_stmt 0 view .LVU2158
.LBE499:
.LBE498:
	.loc 1 4838 6 is_stmt 1 discriminator 2 view .LVU2159
	.loc 1 4838 6 discriminator 2 view .LVU2160
	.loc 1 4838 6 discriminator 2 view .LVU2161
	.loc 1 4838 6 discriminator 2 view .LVU2162
	.loc 1 4838 6 discriminator 2 view .LVU2163
	.loc 1 4838 6 discriminator 2 view .LVU2164
	b	.L568
.L585:
	.align	2
.L584:
	.word	.LANCHOR6
	.word	.LANCHOR3
	.word	.LANCHOR5
	.cfi_endproc
.LFE50:
	.size	xTaskGenericNotify, .-xTaskGenericNotify
	.section	.text.xTaskGenericNotifyFromISR,"ax",%progbits
	.align	1
	.p2align 2,,3
	.global	xTaskGenericNotifyFromISR
	.syntax unified
	.thumb
	.thumb_func
	.fpu fpv4-sp-d16
	.type	xTaskGenericNotifyFromISR, %function
xTaskGenericNotifyFromISR:
.LVL440:
.LFB51:
	.loc 1 4898 2 view -0
	.cfi_startproc
	@ args = 4, pretend = 0, frame = 8
	@ frame_needed = 0, uses_anonymous_args = 0
	.loc 1 4899 2 view .LVU2166
	.loc 1 4900 2 view .LVU2167
	.loc 1 4901 2 view .LVU2168
	.loc 1 4902 2 view .LVU2169
	.loc 1 4904 3 view .LVU2170
	cbz	r0, .L619
	.loc 1 4904 32 discriminator 2 view .LVU2171
	.loc 1 4922 3 discriminator 2 view .LVU2172
	.loc 1 4898 2 is_stmt 0 discriminator 2 view .LVU2173
	push	{r4, r5, r6, r7, r8, lr}
.LCFI96:
	.cfi_def_cfa_offset 24
	.cfi_offset 4, -24
	.cfi_offset 5, -20
	.cfi_offset 6, -16
	.cfi_offset 7, -12
	.cfi_offset 8, -8
	.cfi_offset 14, -4
	sub	sp, sp, #8
.LCFI97:
	.cfi_def_cfa_offset 32
	mov	r7, r1
	mov	r5, r2
	mov	r6, r3
	mov	r4, r0
	.loc 1 4922 3 discriminator 2 view .LVU2174
	bl	vPortValidateInterruptPriority
.LVL441:
	.loc 1 4924 3 is_stmt 1 discriminator 2 view .LVU2175
	.loc 1 4926 3 discriminator 2 view .LVU2176
.LBB500:
.LBI500:
	.loc 2 207 34 discriminator 2 view .LVU2177
.LBB501:
	.loc 2 209 1 discriminator 2 view .LVU2178
	.loc 2 211 2 discriminator 2 view .LVU2179
	.syntax unified
@ 211 "Middlewares/Third_Party/FreeRTOS/Source/portable/GCC/ARM_CM4F/portmacro.h" 1
		mrs r8, basepri											
	mov r3, #80												
	msr basepri, r3											
	isb														
	dsb														

@ 0 "" 2
.LVL442:
	.loc 2 223 2 discriminator 2 view .LVU2180
	.loc 2 223 2 is_stmt 0 discriminator 2 view .LVU2181
	.thumb
	.syntax unified
.LBE501:
.LBE500:
	.loc 1 4928 4 is_stmt 1 discriminator 2 view .LVU2182
	.loc 1 4928 6 is_stmt 0 discriminator 2 view .LVU2183
	cbz	r6, .L589
	.loc 1 4930 5 is_stmt 1 view .LVU2184
	.loc 1 4930 42 is_stmt 0 view .LVU2185
	ldr	r3, [r4, #76]
	.loc 1 4930 35 view .LVU2186
	str	r3, [r6]
.L589:
	.loc 1 4933 4 is_stmt 1 view .LVU2187
	.loc 1 4933 26 is_stmt 0 view .LVU2188
	ldrb	r6, [r4, #80]	@ zero_extendqisi2
.LVL443:
	.loc 1 4934 25 view .LVU2189
	movs	r3, #2
	.loc 1 4933 26 view .LVU2190
	uxtb	r6, r6
.LVL444:
	.loc 1 4934 4 is_stmt 1 view .LVU2191
	.loc 1 4934 25 is_stmt 0 view .LVU2192
	strb	r3, [r4, #80]
	.loc 1 4936 4 is_stmt 1 view .LVU2193
	cmp	r5, #4
	bhi	.L590
	tbb	[pc, r5]
.L592:
	.byte	(.L596-.L592)/2
	.byte	(.L595-.L592)/2
	.byte	(.L594-.L592)/2
	.byte	(.L618-.L592)/2
	.byte	(.L591-.L592)/2
	.p2align 1
.L591:
	.loc 1 4951 6 view .LVU2194
	.loc 1 4951 8 is_stmt 0 view .LVU2195
	cmp	r6, #2
	beq	.L606
.L618:
	.loc 1 4953 7 is_stmt 1 view .LVU2196
	.loc 1 4953 30 is_stmt 0 view .LVU2197
	str	r7, [r4, #76]
.L596:
	.loc 1 4975 31 is_stmt 1 view .LVU2198
	.loc 1 4979 4 view .LVU2199
	.loc 1 4979 6 is_stmt 0 view .LVU2200
	cmp	r6, #1
	beq	.L599
.LVL445:
.L604:
	.loc 1 4979 6 view .LVU2201
	movs	r0, #1
.L597:
.LVL446:
	.loc 1 5012 30 is_stmt 1 view .LVU2202
	.loc 1 5016 3 view .LVU2203
.LBB502:
.LBI502:
	.loc 2 227 30 view .LVU2204
.LBB503:
	.loc 2 229 2 view .LVU2205
	.syntax unified
@ 229 "Middlewares/Third_Party/FreeRTOS/Source/portable/GCC/ARM_CM4F/portmacro.h" 1
		msr basepri, r8	
@ 0 "" 2
.LVL447:
	.loc 2 229 2 is_stmt 0 view .LVU2206
	.thumb
	.syntax unified
.LBE503:
.LBE502:
	.loc 1 5018 3 is_stmt 1 view .LVU2207
	.loc 1 5019 2 is_stmt 0 view .LVU2208
	add	sp, sp, #8
.LCFI98:
	.cfi_def_cfa_offset 24
	@ sp needed
	pop	{r4, r5, r6, r7, r8, pc}
.LVL448:
.L619:
.LCFI99:
	.cfi_def_cfa_offset 0
	.cfi_restore 4
	.cfi_restore 5
	.cfi_restore 6
	.cfi_restore 7
	.cfi_restore 8
	.cfi_restore 14
	.loc 1 4904 3 is_stmt 1 view .LVU2209
.LBB504:
.LBI504:
	.loc 2 191 30 view .LVU2210
.LBB505:
	.loc 2 193 1 view .LVU2211
	.loc 2 195 2 view .LVU2212
	.syntax unified
@ 195 "Middlewares/Third_Party/FreeRTOS/Source/portable/GCC/ARM_CM4F/portmacro.h" 1
		mov r3, #80												
	msr basepri, r3											
	isb														
	dsb														

@ 0 "" 2
.LVL449:
	.thumb
	.syntax unified
.L588:
	.loc 2 195 2 is_stmt 0 view .LVU2213
.LBE505:
.LBE504:
	.loc 1 4904 3 is_stmt 1 discriminator 1 view .LVU2214
	.loc 1 4904 3 discriminator 1 view .LVU2215
	.loc 1 4904 3 discriminator 1 view .LVU2216
	.loc 1 4904 3 discriminator 1 view .LVU2217
	.loc 1 4904 3 discriminator 1 view .LVU2218
	.loc 1 4904 3 discriminator 1 view .LVU2219
	b	.L588
.LVL450:
.L595:
.LCFI100:
	.cfi_def_cfa_offset 32
	.cfi_offset 4, -24
	.cfi_offset 5, -20
	.cfi_offset 6, -16
	.cfi_offset 7, -12
	.cfi_offset 8, -8
	.cfi_offset 14, -4
	.loc 1 4939 6 view .LVU2220
	.loc 1 4939 29 is_stmt 0 view .LVU2221
	ldr	r1, [r4, #76]
	orrs	r1, r1, r7
	str	r1, [r4, #76]
	.loc 1 4940 6 is_stmt 1 view .LVU2222
	b	.L596
.L594:
	.loc 1 4943 6 view .LVU2223
	.loc 1 4943 13 is_stmt 0 view .LVU2224
	ldr	r3, [r4, #76]
	.loc 1 4943 32 view .LVU2225
	adds	r3, r3, #1
	str	r3, [r4, #76]
	.loc 1 4944 6 is_stmt 1 view .LVU2226
	b	.L596
.L599:
	.loc 1 4982 5 view .LVU2227
	ldr	r3, [r4, #40]
	cbz	r3, .L600
	.loc 1 4982 5 view .LVU2228
.LBB506:
.LBI506:
	.loc 2 191 30 view .LVU2229
.LBB507:
	.loc 2 193 1 view .LVU2230
	.loc 2 195 2 view .LVU2231
	.syntax unified
@ 195 "Middlewares/Third_Party/FreeRTOS/Source/portable/GCC/ARM_CM4F/portmacro.h" 1
		mov r3, #80												
	msr basepri, r3											
	isb														
	dsb														

@ 0 "" 2
.LVL451:
	.thumb
	.syntax unified
.L601:
	.loc 2 195 2 is_stmt 0 view .LVU2232
.LBE507:
.LBE506:
	.loc 1 4982 5 is_stmt 1 discriminator 3 view .LVU2233
	.loc 1 4982 5 discriminator 3 view .LVU2234
	.loc 1 4982 5 discriminator 3 view .LVU2235
	.loc 1 4982 5 discriminator 3 view .LVU2236
	.loc 1 4982 5 discriminator 3 view .LVU2237
	.loc 1 4982 5 discriminator 3 view .LVU2238
	b	.L601
.L606:
	.loc 1 4958 15 is_stmt 0 view .LVU2239
	movs	r0, #0
	b	.L597
.L600:
	.loc 1 4982 82 is_stmt 1 discriminator 2 view .LVU2240
	.loc 1 4984 5 discriminator 2 view .LVU2241
	.loc 1 4984 30 is_stmt 0 discriminator 2 view .LVU2242
	ldr	r3, .L620
	ldr	r3, [r3]
	.loc 1 4984 7 discriminator 2 view .LVU2243
	cbnz	r3, .L602
	.loc 1 4986 6 is_stmt 1 view .LVU2244
	.loc 1 4986 15 is_stmt 0 view .LVU2245
	adds	r1, r4, #4
	mov	r0, r1
	str	r1, [sp, #4]
	bl	uxListRemove
.LVL452:
	.loc 1 4987 6 is_stmt 1 view .LVU2246
	.loc 1 4987 6 view .LVU2247
	ldr	r0, [r4, #44]
	ldr	r3, .L620+4
	ldr	r2, .L620+8
	ldr	r1, [sp, #4]
	lsls	r6, r6, r0
.LVL453:
	.loc 1 4987 6 is_stmt 0 view .LVU2248
	add	r0, r0, r0, lsl #2
	add	r0, r2, r0, lsl #2
	ldr	r2, [r3]
	orrs	r6, r6, r2
	str	r6, [r3]
	.loc 1 4987 6 is_stmt 1 view .LVU2249
	bl	vListInsertEnd
.LVL454:
	.loc 1 4987 36 view .LVU2250
.L603:
	.loc 1 4996 5 view .LVU2251
	.loc 1 4996 41 is_stmt 0 view .LVU2252
	ldr	r3, .L620+12
	.loc 1 4996 7 view .LVU2253
	ldr	r2, [r4, #44]
	.loc 1 4996 41 view .LVU2254
	ldr	r3, [r3]
	.loc 1 4996 7 view .LVU2255
	ldr	r3, [r3, #44]
	cmp	r2, r3
	bls	.L604
	.loc 1 5000 6 is_stmt 1 view .LVU2256
	.loc 1 5000 8 is_stmt 0 view .LVU2257
	ldr	r3, [sp, #32]
	cbz	r3, .L605
	mov	r2, r3
	.loc 1 5002 7 is_stmt 1 view .LVU2258
	.loc 1 5002 34 is_stmt 0 view .LVU2259
	movs	r3, #1
	str	r3, [r2]
.L605:
	.loc 1 5008 6 is_stmt 1 view .LVU2260
	.loc 1 5008 20 is_stmt 0 view .LVU2261
	ldr	r3, .L620+16
	movs	r0, #1
	str	r0, [r3]
	b	.L597
.LVL455:
.L602:
	.loc 1 4993 6 is_stmt 1 view .LVU2262
	ldr	r0, .L620+20
	add	r1, r4, #24
	bl	vListInsertEnd
.LVL456:
	b	.L603
.L590:
	.loc 1 4971 6 view .LVU2263
	ldr	r3, [r4, #76]
	adds	r3, r3, #1
	beq	.L596
	.loc 1 4971 6 view .LVU2264
.LBB508:
.LBI508:
	.loc 2 191 30 view .LVU2265
.LBB509:
	.loc 2 193 1 view .LVU2266
	.loc 2 195 2 view .LVU2267
	.syntax unified
@ 195 "Middlewares/Third_Party/FreeRTOS/Source/portable/GCC/ARM_CM4F/portmacro.h" 1
		mov r3, #80												
	msr basepri, r3											
	isb														
	dsb														

@ 0 "" 2
.LVL457:
	.thumb
	.syntax unified
.L598:
	.loc 2 195 2 is_stmt 0 view .LVU2268
.LBE509:
.LBE508:
	.loc 1 4971 6 is_stmt 1 discriminator 2 view .LVU2269
	.loc 1 4971 6 discriminator 2 view .LVU2270
	.loc 1 4971 6 discriminator 2 view .LVU2271
	.loc 1 4971 6 discriminator 2 view .LVU2272
	.loc 1 4971 6 discriminator 2 view .LVU2273
	.loc 1 4971 6 discriminator 2 view .LVU2274
	b	.L598
.L621:
	.align	2
.L620:
	.word	.LANCHOR13
	.word	.LANCHOR6
	.word	.LANCHOR3
	.word	.LANCHOR5
	.word	.LANCHOR12
	.word	.LANCHOR14
	.cfi_endproc
.LFE51:
	.size	xTaskGenericNotifyFromISR, .-xTaskGenericNotifyFromISR
	.section	.text.vTaskNotifyGiveFromISR,"ax",%progbits
	.align	1
	.p2align 2,,3
	.global	vTaskNotifyGiveFromISR
	.syntax unified
	.thumb
	.thumb_func
	.fpu fpv4-sp-d16
	.type	vTaskNotifyGiveFromISR, %function
vTaskNotifyGiveFromISR:
.LVL458:
.LFB52:
	.loc 1 5027 2 view -0
	.cfi_startproc
	@ args = 0, pretend = 0, frame = 8
	@ frame_needed = 0, uses_anonymous_args = 0
	.loc 1 5028 2 view .LVU2276
	.loc 1 5029 2 view .LVU2277
	.loc 1 5030 2 view .LVU2278
	.loc 1 5032 3 view .LVU2279
	cbz	r0, .L638
	.loc 1 5027 2 is_stmt 0 discriminator 2 view .LVU2280
	push	{r4, r5, r6, r7, lr}
.LCFI101:
	.cfi_def_cfa_offset 20
	.cfi_offset 4, -20
	.cfi_offset 5, -16
	.cfi_offset 6, -12
	.cfi_offset 7, -8
	.cfi_offset 14, -4
	sub	sp, sp, #12
.LCFI102:
	.cfi_def_cfa_offset 32
	mov	r5, r1
	mov	r4, r0
	.loc 1 5032 32 is_stmt 1 discriminator 2 view .LVU2281
	.loc 1 5050 3 discriminator 2 view .LVU2282
	bl	vPortValidateInterruptPriority
.LVL459:
	.loc 1 5052 3 discriminator 2 view .LVU2283
	.loc 1 5054 3 discriminator 2 view .LVU2284
.LBB510:
.LBI510:
	.loc 2 207 34 discriminator 2 view .LVU2285
.LBB511:
	.loc 2 209 1 discriminator 2 view .LVU2286
	.loc 2 211 2 discriminator 2 view .LVU2287
	.syntax unified
@ 211 "Middlewares/Third_Party/FreeRTOS/Source/portable/GCC/ARM_CM4F/portmacro.h" 1
		mrs r6, basepri											
	mov r3, #80												
	msr basepri, r3											
	isb														
	dsb														

@ 0 "" 2
.LVL460:
	.loc 2 223 2 discriminator 2 view .LVU2288
	.loc 2 223 2 is_stmt 0 discriminator 2 view .LVU2289
	.thumb
	.syntax unified
.LBE511:
.LBE510:
	.loc 1 5056 4 is_stmt 1 discriminator 2 view .LVU2290
	.loc 1 5057 25 is_stmt 0 discriminator 2 view .LVU2291
	movs	r3, #2
	.loc 1 5056 26 discriminator 2 view .LVU2292
	ldrb	r2, [r4, #80]	@ zero_extendqisi2
	.loc 1 5057 25 discriminator 2 view .LVU2293
	strb	r3, [r4, #80]
	.loc 1 5061 11 discriminator 2 view .LVU2294
	ldr	r3, [r4, #76]
	.loc 1 5067 6 discriminator 2 view .LVU2295
	cmp	r2, #1
	.loc 1 5061 30 discriminator 2 view .LVU2296
	add	r3, r3, #1
	.loc 1 5056 26 discriminator 2 view .LVU2297
	uxtb	r7, r2
.LVL461:
	.loc 1 5057 4 is_stmt 1 discriminator 2 view .LVU2298
	.loc 1 5061 4 discriminator 2 view .LVU2299
	.loc 1 5061 30 is_stmt 0 discriminator 2 view .LVU2300
	str	r3, [r4, #76]
	.loc 1 5063 36 is_stmt 1 discriminator 2 view .LVU2301
	.loc 1 5067 4 discriminator 2 view .LVU2302
	.loc 1 5067 6 is_stmt 0 discriminator 2 view .LVU2303
	beq	.L639
.LVL462:
.L626:
	.loc 1 5100 30 is_stmt 1 view .LVU2304
	.loc 1 5104 3 view .LVU2305
.LBB512:
.LBI512:
	.loc 2 227 30 view .LVU2306
.LBB513:
	.loc 2 229 2 view .LVU2307
	.syntax unified
@ 229 "Middlewares/Third_Party/FreeRTOS/Source/portable/GCC/ARM_CM4F/portmacro.h" 1
		msr basepri, r6	
@ 0 "" 2
.LVL463:
	.loc 2 229 2 is_stmt 0 view .LVU2308
	.thumb
	.syntax unified
.LBE513:
.LBE512:
	.loc 1 5105 2 view .LVU2309
	add	sp, sp, #12
.LCFI103:
	.cfi_def_cfa_offset 20
	@ sp needed
	pop	{r4, r5, r6, r7, pc}
.LVL464:
.L638:
.LCFI104:
	.cfi_def_cfa_offset 0
	.cfi_restore 4
	.cfi_restore 5
	.cfi_restore 6
	.cfi_restore 7
	.cfi_restore 14
	.loc 1 5032 3 is_stmt 1 view .LVU2310
.LBB514:
.LBI514:
	.loc 2 191 30 view .LVU2311
.LBB515:
	.loc 2 193 1 view .LVU2312
	.loc 2 195 2 view .LVU2313
	.syntax unified
@ 195 "Middlewares/Third_Party/FreeRTOS/Source/portable/GCC/ARM_CM4F/portmacro.h" 1
		mov r3, #80												
	msr basepri, r3											
	isb														
	dsb														

@ 0 "" 2
.LVL465:
	.thumb
	.syntax unified
.L624:
	.loc 2 195 2 is_stmt 0 view .LVU2314
.LBE515:
.LBE514:
	.loc 1 5032 3 is_stmt 1 discriminator 1 view .LVU2315
	.loc 1 5032 3 discriminator 1 view .LVU2316
	.loc 1 5032 3 discriminator 1 view .LVU2317
	.loc 1 5032 3 discriminator 1 view .LVU2318
	.loc 1 5032 3 discriminator 1 view .LVU2319
	.loc 1 5032 3 discriminator 1 view .LVU2320
	b	.L624
.LVL466:
.L639:
.LCFI105:
	.cfi_def_cfa_offset 32
	.cfi_offset 4, -20
	.cfi_offset 5, -16
	.cfi_offset 6, -12
	.cfi_offset 7, -8
	.cfi_offset 14, -4
	.loc 1 5070 5 view .LVU2321
	ldr	r3, [r4, #40]
	cbz	r3, .L627
	.loc 1 5070 5 view .LVU2322
.LBB516:
.LBI516:
	.loc 2 191 30 view .LVU2323
.LBB517:
	.loc 2 193 1 view .LVU2324
	.loc 2 195 2 view .LVU2325
	.syntax unified
@ 195 "Middlewares/Third_Party/FreeRTOS/Source/portable/GCC/ARM_CM4F/portmacro.h" 1
		mov r3, #80												
	msr basepri, r3											
	isb														
	dsb														

@ 0 "" 2
.LVL467:
	.thumb
	.syntax unified
.L628:
	.loc 2 195 2 is_stmt 0 view .LVU2326
.LBE517:
.LBE516:
	.loc 1 5070 5 is_stmt 1 discriminator 2 view .LVU2327
	.loc 1 5070 5 discriminator 2 view .LVU2328
	.loc 1 5070 5 discriminator 2 view .LVU2329
	.loc 1 5070 5 discriminator 2 view .LVU2330
	.loc 1 5070 5 discriminator 2 view .LVU2331
	.loc 1 5070 5 discriminator 2 view .LVU2332
	b	.L628
.L627:
	.loc 1 5070 82 discriminator 2 view .LVU2333
	.loc 1 5072 5 discriminator 2 view .LVU2334
	.loc 1 5072 30 is_stmt 0 discriminator 2 view .LVU2335
	ldr	r3, .L641
	ldr	r3, [r3]
	.loc 1 5072 7 discriminator 2 view .LVU2336
	cbz	r3, .L640
	.loc 1 5081 6 is_stmt 1 view .LVU2337
	ldr	r0, .L641+4
	add	r1, r4, #24
	bl	vListInsertEnd
.LVL468:
.L630:
	.loc 1 5084 5 view .LVU2338
	.loc 1 5084 41 is_stmt 0 view .LVU2339
	ldr	r3, .L641+8
	.loc 1 5084 7 view .LVU2340
	ldr	r2, [r4, #44]
	.loc 1 5084 41 view .LVU2341
	ldr	r3, [r3]
	.loc 1 5084 7 view .LVU2342
	ldr	r3, [r3, #44]
	cmp	r2, r3
	bls	.L626
	.loc 1 5088 6 is_stmt 1 view .LVU2343
	.loc 1 5088 8 is_stmt 0 view .LVU2344
	cbz	r5, .L632
	.loc 1 5090 7 is_stmt 1 view .LVU2345
	.loc 1 5090 34 is_stmt 0 view .LVU2346
	movs	r3, #1
	str	r3, [r5]
.L632:
	.loc 1 5096 6 is_stmt 1 view .LVU2347
	.loc 1 5096 20 is_stmt 0 view .LVU2348
	ldr	r3, .L641+12
	movs	r2, #1
	str	r2, [r3]
	b	.L626
.LVL469:
.L640:
	.loc 1 5074 6 is_stmt 1 view .LVU2349
	.loc 1 5074 15 is_stmt 0 view .LVU2350
	adds	r1, r4, #4
	mov	r0, r1
	str	r1, [sp, #4]
	bl	uxListRemove
.LVL470:
	.loc 1 5075 6 is_stmt 1 view .LVU2351
	.loc 1 5075 6 view .LVU2352
	ldr	r2, .L641+16
	ldr	r0, [r4, #44]
	ldr	r1, [sp, #4]
	lsl	r3, r7, r0
	ldr	r7, [r2]
.LVL471:
	.loc 1 5075 6 is_stmt 0 view .LVU2353
	orrs	r3, r3, r7
	str	r3, [r2]
	.loc 1 5075 6 is_stmt 1 view .LVU2354
	ldr	r3, .L641+20
	add	r0, r0, r0, lsl #2
	add	r0, r3, r0, lsl #2
	bl	vListInsertEnd
.LVL472:
	.loc 1 5075 36 view .LVU2355
	b	.L630
.L642:
	.align	2
.L641:
	.word	.LANCHOR13
	.word	.LANCHOR14
	.word	.LANCHOR5
	.word	.LANCHOR12
	.word	.LANCHOR6
	.word	.LANCHOR3
	.cfi_endproc
.LFE52:
	.size	vTaskNotifyGiveFromISR, .-vTaskNotifyGiveFromISR
	.section	.text.xTaskNotifyStateClear,"ax",%progbits
	.align	1
	.p2align 2,,3
	.global	xTaskNotifyStateClear
	.syntax unified
	.thumb
	.thumb_func
	.fpu fpv4-sp-d16
	.type	xTaskNotifyStateClear, %function
xTaskNotifyStateClear:
.LVL473:
.LFB53:
	.loc 1 5113 2 view -0
	.cfi_startproc
	@ args = 0, pretend = 0, frame = 8
	@ frame_needed = 0, uses_anonymous_args = 0
	.loc 1 5114 2 view .LVU2357
	.loc 1 5115 2 view .LVU2358
	.loc 1 5119 3 view .LVU2359
	.loc 1 5113 2 is_stmt 0 view .LVU2360
	push	{r4, lr}
.LCFI106:
	.cfi_def_cfa_offset 8
	.cfi_offset 4, -8
	.cfi_offset 14, -4
	sub	sp, sp, #8
.LCFI107:
	.cfi_def_cfa_offset 16
	.loc 1 5119 11 view .LVU2361
	cbz	r0, .L649
	mov	r4, r0
.LVL474:
.L644:
	.loc 1 5121 3 is_stmt 1 discriminator 4 view .LVU2362
	bl	vPortEnterCritical
.LVL475:
	.loc 1 5123 4 discriminator 4 view .LVU2363
	.loc 1 5123 13 is_stmt 0 discriminator 4 view .LVU2364
	ldrb	r3, [r4, #80]	@ zero_extendqisi2
	.loc 1 5123 6 discriminator 4 view .LVU2365
	cmp	r3, #2
	.loc 1 5125 5 is_stmt 1 discriminator 4 view .LVU2366
	.loc 1 5125 26 is_stmt 0 discriminator 4 view .LVU2367
	ittet	eq
	moveq	r3, #0
	.loc 1 5126 13 discriminator 4 view .LVU2368
	moveq	r0, #1
	.loc 1 5130 13 discriminator 4 view .LVU2369
	movne	r0, #0
	.loc 1 5125 26 discriminator 4 view .LVU2370
	strbeq	r3, [r4, #80]
	.loc 1 5126 5 is_stmt 1 discriminator 4 view .LVU2371
.LVL476:
	.loc 1 5126 5 is_stmt 0 discriminator 4 view .LVU2372
	str	r0, [sp, #4]
.LVL477:
	.loc 1 5133 3 is_stmt 1 discriminator 4 view .LVU2373
	bl	vPortExitCritical
.LVL478:
	.loc 1 5135 3 discriminator 4 view .LVU2374
	.loc 1 5136 2 is_stmt 0 discriminator 4 view .LVU2375
	ldr	r0, [sp, #4]
	add	sp, sp, #8
.LCFI108:
	.cfi_remember_state
	.cfi_def_cfa_offset 8
	@ sp needed
	pop	{r4, pc}
.LVL479:
.L649:
.LCFI109:
	.cfi_restore_state
	.loc 1 5119 11 discriminator 1 view .LVU2376
	ldr	r3, .L650
	ldr	r4, [r3]
.LVL480:
	.loc 1 5119 11 discriminator 1 view .LVU2377
	b	.L644
.L651:
	.align	2
.L650:
	.word	.LANCHOR5
	.cfi_endproc
.LFE53:
	.size	xTaskNotifyStateClear, .-xTaskNotifyStateClear
	.section	.text.ulTaskNotifyValueClear,"ax",%progbits
	.align	1
	.p2align 2,,3
	.global	ulTaskNotifyValueClear
	.syntax unified
	.thumb
	.thumb_func
	.fpu fpv4-sp-d16
	.type	ulTaskNotifyValueClear, %function
ulTaskNotifyValueClear:
.LVL481:
.LFB54:
	.loc 1 5144 2 is_stmt 1 view -0
	.cfi_startproc
	@ args = 0, pretend = 0, frame = 8
	@ frame_needed = 0, uses_anonymous_args = 0
	.loc 1 5145 2 view .LVU2379
	.loc 1 5146 2 view .LVU2380
	.loc 1 5150 3 view .LVU2381
	.loc 1 5144 2 is_stmt 0 view .LVU2382
	push	{r4, r5, r6, lr}
.LCFI110:
	.cfi_def_cfa_offset 16
	.cfi_offset 4, -16
	.cfi_offset 5, -12
	.cfi_offset 6, -8
	.cfi_offset 14, -4
	mov	r5, r1
	sub	sp, sp, #8
.LCFI111:
	.cfi_def_cfa_offset 24
	.loc 1 5150 11 view .LVU2383
	cbz	r0, .L655
	ldr	r6, .L657
	mov	r4, r0
.LVL482:
.L653:
	.loc 1 5152 3 is_stmt 1 discriminator 4 view .LVU2384
	bl	vPortEnterCritical
.LVL483:
	.loc 1 5156 4 discriminator 4 view .LVU2385
	.loc 1 5156 27 is_stmt 0 discriminator 4 view .LVU2386
	ldr	r3, [r6]
	.loc 1 5156 13 discriminator 4 view .LVU2387
	ldr	r0, [r3, #76]
	.loc 1 5157 27 discriminator 4 view .LVU2388
	ldr	r3, [r4, #76]
	.loc 1 5156 13 discriminator 4 view .LVU2389
	str	r0, [sp, #4]
.LVL484:
	.loc 1 5157 4 is_stmt 1 discriminator 4 view .LVU2390
	.loc 1 5157 27 is_stmt 0 discriminator 4 view .LVU2391
	bic	r3, r3, r5
	str	r3, [r4, #76]
	.loc 1 5159 3 is_stmt 1 discriminator 4 view .LVU2392
	bl	vPortExitCritical
.LVL485:
	.loc 1 5161 3 discriminator 4 view .LVU2393
	.loc 1 5162 2 is_stmt 0 discriminator 4 view .LVU2394
	ldr	r0, [sp, #4]
	add	sp, sp, #8
.LCFI112:
	.cfi_remember_state
	.cfi_def_cfa_offset 16
	@ sp needed
	pop	{r4, r5, r6, pc}
.LVL486:
.L655:
.LCFI113:
	.cfi_restore_state
	.loc 1 5150 11 discriminator 1 view .LVU2395
	ldr	r6, .L657
	ldr	r4, [r6]
.LVL487:
	.loc 1 5150 11 discriminator 1 view .LVU2396
	b	.L653
.L658:
	.align	2
.L657:
	.word	.LANCHOR5
	.cfi_endproc
.LFE54:
	.size	ulTaskNotifyValueClear, .-ulTaskNotifyValueClear
	.global	pxCurrentTCB
	.section	.bss.pxCurrentTCB,"aw",%nobits
	.align	2
	.set	.LANCHOR5,. + 0
	.type	pxCurrentTCB, %object
	.size	pxCurrentTCB, 4
pxCurrentTCB:
	.space	4
	.section	.bss.pxDelayedTaskList,"aw",%nobits
	.align	2
	.set	.LANCHOR9,. + 0
	.type	pxDelayedTaskList, %object
	.size	pxDelayedTaskList, 4
pxDelayedTaskList:
	.space	4
	.section	.bss.pxOverflowDelayedTaskList,"aw",%nobits
	.align	2
	.set	.LANCHOR8,. + 0
	.type	pxOverflowDelayedTaskList, %object
	.size	pxOverflowDelayedTaskList, 4
pxOverflowDelayedTaskList:
	.space	4
	.section	.bss.pxReadyTasksLists,"aw",%nobits
	.align	2
	.set	.LANCHOR3,. + 0
	.type	pxReadyTasksLists, %object
	.size	pxReadyTasksLists, 140
pxReadyTasksLists:
	.space	140
	.section	.bss.uxCurrentNumberOfTasks,"aw",%nobits
	.align	2
	.set	.LANCHOR2,. + 0
	.type	uxCurrentNumberOfTasks, %object
	.size	uxCurrentNumberOfTasks, 4
uxCurrentNumberOfTasks:
	.space	4
	.section	.bss.uxDeletedTasksWaitingCleanUp,"aw",%nobits
	.align	2
	.set	.LANCHOR0,. + 0
	.type	uxDeletedTasksWaitingCleanUp, %object
	.size	uxDeletedTasksWaitingCleanUp, 4
uxDeletedTasksWaitingCleanUp:
	.space	4
	.section	.bss.uxSchedulerSuspended,"aw",%nobits
	.align	2
	.set	.LANCHOR13,. + 0
	.type	uxSchedulerSuspended, %object
	.size	uxSchedulerSuspended, 4
uxSchedulerSuspended:
	.space	4
	.section	.bss.uxTaskNumber,"aw",%nobits
	.align	2
	.set	.LANCHOR19,. + 0
	.type	uxTaskNumber, %object
	.size	uxTaskNumber, 4
uxTaskNumber:
	.space	4
	.section	.bss.uxTopReadyPriority,"aw",%nobits
	.align	2
	.set	.LANCHOR6,. + 0
	.type	uxTopReadyPriority, %object
	.size	uxTopReadyPriority, 4
uxTopReadyPriority:
	.space	4
	.section	.bss.xDelayedTaskList1,"aw",%nobits
	.align	2
	.set	.LANCHOR16,. + 0
	.type	xDelayedTaskList1, %object
	.size	xDelayedTaskList1, 20
xDelayedTaskList1:
	.space	20
	.section	.bss.xDelayedTaskList2,"aw",%nobits
	.align	2
	.set	.LANCHOR17,. + 0
	.type	xDelayedTaskList2, %object
	.size	xDelayedTaskList2, 20
xDelayedTaskList2:
	.space	20
	.section	.bss.xIdleTaskHandle,"aw",%nobits
	.align	2
	.set	.LANCHOR20,. + 0
	.type	xIdleTaskHandle, %object
	.size	xIdleTaskHandle, 4
xIdleTaskHandle:
	.space	4
	.section	.bss.xNextTaskUnblockTime,"aw",%nobits
	.align	2
	.set	.LANCHOR10,. + 0
	.type	xNextTaskUnblockTime, %object
	.size	xNextTaskUnblockTime, 4
xNextTaskUnblockTime:
	.space	4
	.section	.bss.xNumOfOverflows,"aw",%nobits
	.align	2
	.set	.LANCHOR11,. + 0
	.type	xNumOfOverflows, %object
	.size	xNumOfOverflows, 4
xNumOfOverflows:
	.space	4
	.section	.bss.xPendedTicks,"aw",%nobits
	.align	2
	.set	.LANCHOR15,. + 0
	.type	xPendedTicks, %object
	.size	xPendedTicks, 4
xPendedTicks:
	.space	4
	.section	.bss.xPendingReadyList,"aw",%nobits
	.align	2
	.set	.LANCHOR14,. + 0
	.type	xPendingReadyList, %object
	.size	xPendingReadyList, 20
xPendingReadyList:
	.space	20
	.section	.bss.xSchedulerRunning,"aw",%nobits
	.align	2
	.set	.LANCHOR18,. + 0
	.type	xSchedulerRunning, %object
	.size	xSchedulerRunning, 4
xSchedulerRunning:
	.space	4
	.section	.bss.xSuspendedTaskList,"aw",%nobits
	.align	2
	.set	.LANCHOR7,. + 0
	.type	xSuspendedTaskList, %object
	.size	xSuspendedTaskList, 20
xSuspendedTaskList:
	.space	20
	.section	.bss.xTasksWaitingTermination,"aw",%nobits
	.align	2
	.set	.LANCHOR1,. + 0
	.type	xTasksWaitingTermination, %object
	.size	xTasksWaitingTermination, 20
xTasksWaitingTermination:
	.space	20
	.section	.bss.xTickCount,"aw",%nobits
	.align	2
	.set	.LANCHOR4,. + 0
	.type	xTickCount, %object
	.size	xTickCount, 4
xTickCount:
	.space	4
	.section	.bss.xYieldPending,"aw",%nobits
	.align	2
	.set	.LANCHOR12,. + 0
	.type	xYieldPending, %object
	.size	xYieldPending, 4
xYieldPending:
	.space	4
	.text
.Letext0:
	.file 3 "/usr/share/gcc-arm-none-eabi-10-2020-q4-major/lib/gcc/arm-none-eabi/10.2.1/include/stddef.h"
	.file 4 "/usr/share/gcc-arm-none-eabi-10-2020-q4-major/arm-none-eabi/include/machine/_default_types.h"
	.file 5 "/usr/share/gcc-arm-none-eabi-10-2020-q4-major/arm-none-eabi/include/sys/_stdint.h"
	.file 6 "Middlewares/Third_Party/FreeRTOS/Source/include/projdefs.h"
	.file 7 "Middlewares/Third_Party/FreeRTOS/Source/include/list.h"
	.file 8 "Middlewares/Third_Party/FreeRTOS/Source/include/task.h"
	.file 9 "Middlewares/Third_Party/FreeRTOS/Source/include/portable.h"