ARM GAS  /tmp/ccaL2bzX.s 			page 1


   1              		.cpu cortex-m4
   2              		.eabi_attribute 27, 1
   3              		.eabi_attribute 28, 1
   4              		.eabi_attribute 20, 1
   5              		.eabi_attribute 21, 1
   6              		.eabi_attribute 23, 3
   7              		.eabi_attribute 24, 1
   8              		.eabi_attribute 25, 1
   9              		.eabi_attribute 26, 1
  10              		.eabi_attribute 30, 6
  11              		.eabi_attribute 34, 1
  12              		.eabi_attribute 18, 2
  13              		.file	"axis.cpp"
  14              		.text
  15              	.Ltext0:
  16              		.cfi_sections	.debug_frame
  17              		.section	.text._ZSt3absf,"axG",%progbits,_ZSt3absf,comdat
  18              		.align	1
  19              		.weak	_ZSt3absf
  20              		.arch armv7e-m
  21              		.syntax unified
  22              		.thumb
  23              		.thumb_func
  24              		.fpu fpv4-sp-d16
  26              	_ZSt3absf:
  27              	.LFB3:
  28              		.file 1 "/usr/share/gcc-arm-none-eabi-10-2020-q4-major/arm-none-eabi/include/c++/10.2.1/bits/std_a
   1:/usr/share/gcc-arm-none-eabi-10-2020-q4-major/arm-none-eabi/include/c++/10.2.1/bits/std_abs.h **** // -*- C++ -*- C library enhancements header.
   2:/usr/share/gcc-arm-none-eabi-10-2020-q4-major/arm-none-eabi/include/c++/10.2.1/bits/std_abs.h **** 
   3:/usr/share/gcc-arm-none-eabi-10-2020-q4-major/arm-none-eabi/include/c++/10.2.1/bits/std_abs.h **** // Copyright (C) 2016-2020 Free Software Foundation, Inc.
   4:/usr/share/gcc-arm-none-eabi-10-2020-q4-major/arm-none-eabi/include/c++/10.2.1/bits/std_abs.h **** //
   5:/usr/share/gcc-arm-none-eabi-10-2020-q4-major/arm-none-eabi/include/c++/10.2.1/bits/std_abs.h **** // This file is part of the GNU ISO C++ Library.  This library is free
   6:/usr/share/gcc-arm-none-eabi-10-2020-q4-major/arm-none-eabi/include/c++/10.2.1/bits/std_abs.h **** // software; you can redistribute it and/or modify it under the
   7:/usr/share/gcc-arm-none-eabi-10-2020-q4-major/arm-none-eabi/include/c++/10.2.1/bits/std_abs.h **** // terms of the GNU General Public License as published by the
   8:/usr/share/gcc-arm-none-eabi-10-2020-q4-major/arm-none-eabi/include/c++/10.2.1/bits/std_abs.h **** // Free Software Foundation; either version 3, or (at your option)
   9:/usr/share/gcc-arm-none-eabi-10-2020-q4-major/arm-none-eabi/include/c++/10.2.1/bits/std_abs.h **** // any later version.
  10:/usr/share/gcc-arm-none-eabi-10-2020-q4-major/arm-none-eabi/include/c++/10.2.1/bits/std_abs.h **** 
  11:/usr/share/gcc-arm-none-eabi-10-2020-q4-major/arm-none-eabi/include/c++/10.2.1/bits/std_abs.h **** // This library is distributed in the hope that it will be useful,
  12:/usr/share/gcc-arm-none-eabi-10-2020-q4-major/arm-none-eabi/include/c++/10.2.1/bits/std_abs.h **** // but WITHOUT ANY WARRANTY; without even the implied warranty of
  13:/usr/share/gcc-arm-none-eabi-10-2020-q4-major/arm-none-eabi/include/c++/10.2.1/bits/std_abs.h **** // MERCHANTABILITY or FITNESS FOR A PARTICULAR PURPOSE.  See the
  14:/usr/share/gcc-arm-none-eabi-10-2020-q4-major/arm-none-eabi/include/c++/10.2.1/bits/std_abs.h **** // GNU General Public License for more details.
  15:/usr/share/gcc-arm-none-eabi-10-2020-q4-major/arm-none-eabi/include/c++/10.2.1/bits/std_abs.h **** 
  16:/usr/share/gcc-arm-none-eabi-10-2020-q4-major/arm-none-eabi/include/c++/10.2.1/bits/std_abs.h **** // Under Section 7 of GPL version 3, you are granted additional
  17:/usr/share/gcc-arm-none-eabi-10-2020-q4-major/arm-none-eabi/include/c++/10.2.1/bits/std_abs.h **** // permissions described in the GCC Runtime Library Exception, version
  18:/usr/share/gcc-arm-none-eabi-10-2020-q4-major/arm-none-eabi/include/c++/10.2.1/bits/std_abs.h **** // 3.1, as published by the Free Software Foundation.
  19:/usr/share/gcc-arm-none-eabi-10-2020-q4-major/arm-none-eabi/include/c++/10.2.1/bits/std_abs.h **** 
  20:/usr/share/gcc-arm-none-eabi-10-2020-q4-major/arm-none-eabi/include/c++/10.2.1/bits/std_abs.h **** // You should have received a copy of the GNU General Public License and
  21:/usr/share/gcc-arm-none-eabi-10-2020-q4-major/arm-none-eabi/include/c++/10.2.1/bits/std_abs.h **** // a copy of the GCC Runtime Library Exception along with this program;
  22:/usr/share/gcc-arm-none-eabi-10-2020-q4-major/arm-none-eabi/include/c++/10.2.1/bits/std_abs.h **** // see the files COPYING3 and COPYING.RUNTIME respectively.  If not, see
  23:/usr/share/gcc-arm-none-eabi-10-2020-q4-major/arm-none-eabi/include/c++/10.2.1/bits/std_abs.h **** // <http://www.gnu.org/licenses/>.
  24:/usr/share/gcc-arm-none-eabi-10-2020-q4-major/arm-none-eabi/include/c++/10.2.1/bits/std_abs.h **** 
  25:/usr/share/gcc-arm-none-eabi-10-2020-q4-major/arm-none-eabi/include/c++/10.2.1/bits/std_abs.h **** /** @file include/bits/std_abs.h
  26:/usr/share/gcc-arm-none-eabi-10-2020-q4-major/arm-none-eabi/include/c++/10.2.1/bits/std_abs.h ****  *  This is an internal header file, included by other library headers.
  27:/usr/share/gcc-arm-none-eabi-10-2020-q4-major/arm-none-eabi/include/c++/10.2.1/bits/std_abs.h ****  *  Do not attempt to use it directly. @headername{cmath, cstdlib}
  28:/usr/share/gcc-arm-none-eabi-10-2020-q4-major/arm-none-eabi/include/c++/10.2.1/bits/std_abs.h ****  */
  29:/usr/share/gcc-arm-none-eabi-10-2020-q4-major/arm-none-eabi/include/c++/10.2.1/bits/std_abs.h **** 
  30:/usr/share/gcc-arm-none-eabi-10-2020-q4-major/arm-none-eabi/include/c++/10.2.1/bits/std_abs.h **** #ifndef _GLIBCXX_BITS_STD_ABS_H
ARM GAS  /tmp/ccaL2bzX.s 			page 2


  31:/usr/share/gcc-arm-none-eabi-10-2020-q4-major/arm-none-eabi/include/c++/10.2.1/bits/std_abs.h **** #define _GLIBCXX_BITS_STD_ABS_H
  32:/usr/share/gcc-arm-none-eabi-10-2020-q4-major/arm-none-eabi/include/c++/10.2.1/bits/std_abs.h **** 
  33:/usr/share/gcc-arm-none-eabi-10-2020-q4-major/arm-none-eabi/include/c++/10.2.1/bits/std_abs.h **** #pragma GCC system_header
  34:/usr/share/gcc-arm-none-eabi-10-2020-q4-major/arm-none-eabi/include/c++/10.2.1/bits/std_abs.h **** 
  35:/usr/share/gcc-arm-none-eabi-10-2020-q4-major/arm-none-eabi/include/c++/10.2.1/bits/std_abs.h **** #include <bits/c++config.h>
  36:/usr/share/gcc-arm-none-eabi-10-2020-q4-major/arm-none-eabi/include/c++/10.2.1/bits/std_abs.h **** 
  37:/usr/share/gcc-arm-none-eabi-10-2020-q4-major/arm-none-eabi/include/c++/10.2.1/bits/std_abs.h **** #define _GLIBCXX_INCLUDE_NEXT_C_HEADERS
  38:/usr/share/gcc-arm-none-eabi-10-2020-q4-major/arm-none-eabi/include/c++/10.2.1/bits/std_abs.h **** #include_next <stdlib.h>
  39:/usr/share/gcc-arm-none-eabi-10-2020-q4-major/arm-none-eabi/include/c++/10.2.1/bits/std_abs.h **** #ifdef __CORRECT_ISO_CPP_MATH_H_PROTO
  40:/usr/share/gcc-arm-none-eabi-10-2020-q4-major/arm-none-eabi/include/c++/10.2.1/bits/std_abs.h **** # include_next <math.h>
  41:/usr/share/gcc-arm-none-eabi-10-2020-q4-major/arm-none-eabi/include/c++/10.2.1/bits/std_abs.h **** #endif
  42:/usr/share/gcc-arm-none-eabi-10-2020-q4-major/arm-none-eabi/include/c++/10.2.1/bits/std_abs.h **** #undef _GLIBCXX_INCLUDE_NEXT_C_HEADERS
  43:/usr/share/gcc-arm-none-eabi-10-2020-q4-major/arm-none-eabi/include/c++/10.2.1/bits/std_abs.h **** 
  44:/usr/share/gcc-arm-none-eabi-10-2020-q4-major/arm-none-eabi/include/c++/10.2.1/bits/std_abs.h **** #undef abs
  45:/usr/share/gcc-arm-none-eabi-10-2020-q4-major/arm-none-eabi/include/c++/10.2.1/bits/std_abs.h **** 
  46:/usr/share/gcc-arm-none-eabi-10-2020-q4-major/arm-none-eabi/include/c++/10.2.1/bits/std_abs.h **** extern "C++"
  47:/usr/share/gcc-arm-none-eabi-10-2020-q4-major/arm-none-eabi/include/c++/10.2.1/bits/std_abs.h **** {
  48:/usr/share/gcc-arm-none-eabi-10-2020-q4-major/arm-none-eabi/include/c++/10.2.1/bits/std_abs.h **** namespace std _GLIBCXX_VISIBILITY(default)
  49:/usr/share/gcc-arm-none-eabi-10-2020-q4-major/arm-none-eabi/include/c++/10.2.1/bits/std_abs.h **** {
  50:/usr/share/gcc-arm-none-eabi-10-2020-q4-major/arm-none-eabi/include/c++/10.2.1/bits/std_abs.h **** _GLIBCXX_BEGIN_NAMESPACE_VERSION
  51:/usr/share/gcc-arm-none-eabi-10-2020-q4-major/arm-none-eabi/include/c++/10.2.1/bits/std_abs.h **** 
  52:/usr/share/gcc-arm-none-eabi-10-2020-q4-major/arm-none-eabi/include/c++/10.2.1/bits/std_abs.h ****   using ::abs;
  53:/usr/share/gcc-arm-none-eabi-10-2020-q4-major/arm-none-eabi/include/c++/10.2.1/bits/std_abs.h **** 
  54:/usr/share/gcc-arm-none-eabi-10-2020-q4-major/arm-none-eabi/include/c++/10.2.1/bits/std_abs.h **** #ifndef __CORRECT_ISO_CPP_STDLIB_H_PROTO
  55:/usr/share/gcc-arm-none-eabi-10-2020-q4-major/arm-none-eabi/include/c++/10.2.1/bits/std_abs.h ****   inline long
  56:/usr/share/gcc-arm-none-eabi-10-2020-q4-major/arm-none-eabi/include/c++/10.2.1/bits/std_abs.h ****   abs(long __i) { return __builtin_labs(__i); }
  57:/usr/share/gcc-arm-none-eabi-10-2020-q4-major/arm-none-eabi/include/c++/10.2.1/bits/std_abs.h **** #endif
  58:/usr/share/gcc-arm-none-eabi-10-2020-q4-major/arm-none-eabi/include/c++/10.2.1/bits/std_abs.h **** 
  59:/usr/share/gcc-arm-none-eabi-10-2020-q4-major/arm-none-eabi/include/c++/10.2.1/bits/std_abs.h **** #ifdef _GLIBCXX_USE_LONG_LONG
  60:/usr/share/gcc-arm-none-eabi-10-2020-q4-major/arm-none-eabi/include/c++/10.2.1/bits/std_abs.h ****   inline long long
  61:/usr/share/gcc-arm-none-eabi-10-2020-q4-major/arm-none-eabi/include/c++/10.2.1/bits/std_abs.h ****   abs(long long __x) { return __builtin_llabs (__x); }
  62:/usr/share/gcc-arm-none-eabi-10-2020-q4-major/arm-none-eabi/include/c++/10.2.1/bits/std_abs.h **** #endif
  63:/usr/share/gcc-arm-none-eabi-10-2020-q4-major/arm-none-eabi/include/c++/10.2.1/bits/std_abs.h **** 
  64:/usr/share/gcc-arm-none-eabi-10-2020-q4-major/arm-none-eabi/include/c++/10.2.1/bits/std_abs.h **** // _GLIBCXX_RESOLVE_LIB_DEFECTS
  65:/usr/share/gcc-arm-none-eabi-10-2020-q4-major/arm-none-eabi/include/c++/10.2.1/bits/std_abs.h **** // 2192. Validity and return type of std::abs(0u) is unclear
  66:/usr/share/gcc-arm-none-eabi-10-2020-q4-major/arm-none-eabi/include/c++/10.2.1/bits/std_abs.h **** // 2294. <cstdlib> should declare abs(double)
  67:/usr/share/gcc-arm-none-eabi-10-2020-q4-major/arm-none-eabi/include/c++/10.2.1/bits/std_abs.h **** // 2735. std::abs(short), std::abs(signed char) and others should return int
  68:/usr/share/gcc-arm-none-eabi-10-2020-q4-major/arm-none-eabi/include/c++/10.2.1/bits/std_abs.h **** 
  69:/usr/share/gcc-arm-none-eabi-10-2020-q4-major/arm-none-eabi/include/c++/10.2.1/bits/std_abs.h **** #ifndef __CORRECT_ISO_CPP_MATH_H_PROTO
  70:/usr/share/gcc-arm-none-eabi-10-2020-q4-major/arm-none-eabi/include/c++/10.2.1/bits/std_abs.h ****   inline _GLIBCXX_CONSTEXPR double
  71:/usr/share/gcc-arm-none-eabi-10-2020-q4-major/arm-none-eabi/include/c++/10.2.1/bits/std_abs.h ****   abs(double __x)
  72:/usr/share/gcc-arm-none-eabi-10-2020-q4-major/arm-none-eabi/include/c++/10.2.1/bits/std_abs.h ****   { return __builtin_fabs(__x); }
  73:/usr/share/gcc-arm-none-eabi-10-2020-q4-major/arm-none-eabi/include/c++/10.2.1/bits/std_abs.h **** 
  74:/usr/share/gcc-arm-none-eabi-10-2020-q4-major/arm-none-eabi/include/c++/10.2.1/bits/std_abs.h ****   inline _GLIBCXX_CONSTEXPR float
  75:/usr/share/gcc-arm-none-eabi-10-2020-q4-major/arm-none-eabi/include/c++/10.2.1/bits/std_abs.h ****   abs(float __x)
  76:/usr/share/gcc-arm-none-eabi-10-2020-q4-major/arm-none-eabi/include/c++/10.2.1/bits/std_abs.h ****   { return __builtin_fabsf(__x); }
  29              		.loc 1 76 3
  30              		.cfi_startproc
  31              		@ args = 0, pretend = 0, frame = 8
  32              		@ frame_needed = 1, uses_anonymous_args = 0
  33              		@ link register save eliminated.
  34 0000 80B4     		push	{r7}
  35              	.LCFI0:
  36              		.cfi_def_cfa_offset 4
  37              		.cfi_offset 7, -4
  38 0002 83B0     		sub	sp, sp, #12
  39              	.LCFI1:
ARM GAS  /tmp/ccaL2bzX.s 			page 3


  40              		.cfi_def_cfa_offset 16
  41 0004 00AF     		add	r7, sp, #0
  42              	.LCFI2:
  43              		.cfi_def_cfa_register 7
  44 0006 87ED010A 		vstr.32	s0, [r7, #4]
  45              		.loc 1 76 31
  46 000a D7ED017A 		vldr.32	s15, [r7, #4]
  47 000e F0EEE77A 		vabs.f32	s15, s15
  48              		.loc 1 76 34
  49 0012 B0EE670A 		vmov.f32	s0, s15
  50 0016 0C37     		adds	r7, r7, #12
  51              	.LCFI3:
  52              		.cfi_def_cfa_offset 4
  53 0018 BD46     		mov	sp, r7
  54              	.LCFI4:
  55              		.cfi_def_cfa_register 13
  56              		@ sp needed
  57 001a 5DF8047B 		ldr	r7, [sp], #4
  58              	.LCFI5:
  59              		.cfi_restore 7
  60              		.cfi_def_cfa_offset 0
  61 001e 7047     		bx	lr
  62              		.cfi_endproc
  63              	.LFE3:
  65              		.section	.text._ZnwjPv,"axG",%progbits,_ZnwjPv,comdat
  66              		.align	1
  67              		.weak	_ZnwjPv
  68              		.syntax unified
  69              		.thumb
  70              		.thumb_func
  71              		.fpu fpv4-sp-d16
  73              	_ZnwjPv:
  74              	.LFB182:
  75              		.file 2 "/usr/share/gcc-arm-none-eabi-10-2020-q4-major/arm-none-eabi/include/c++/10.2.1/new"
   1:/usr/share/gcc-arm-none-eabi-10-2020-q4-major/arm-none-eabi/include/c++/10.2.1/new **** // The -*- C++ -*- dynamic memory management header.
   2:/usr/share/gcc-arm-none-eabi-10-2020-q4-major/arm-none-eabi/include/c++/10.2.1/new **** 
   3:/usr/share/gcc-arm-none-eabi-10-2020-q4-major/arm-none-eabi/include/c++/10.2.1/new **** // Copyright (C) 1994-2020 Free Software Foundation, Inc.
   4:/usr/share/gcc-arm-none-eabi-10-2020-q4-major/arm-none-eabi/include/c++/10.2.1/new **** 
   5:/usr/share/gcc-arm-none-eabi-10-2020-q4-major/arm-none-eabi/include/c++/10.2.1/new **** // This file is part of GCC.
   6:/usr/share/gcc-arm-none-eabi-10-2020-q4-major/arm-none-eabi/include/c++/10.2.1/new **** //
   7:/usr/share/gcc-arm-none-eabi-10-2020-q4-major/arm-none-eabi/include/c++/10.2.1/new **** // GCC is free software; you can redistribute it and/or modify
   8:/usr/share/gcc-arm-none-eabi-10-2020-q4-major/arm-none-eabi/include/c++/10.2.1/new **** // it under the terms of the GNU General Public License as published by
   9:/usr/share/gcc-arm-none-eabi-10-2020-q4-major/arm-none-eabi/include/c++/10.2.1/new **** // the Free Software Foundation; either version 3, or (at your option)
  10:/usr/share/gcc-arm-none-eabi-10-2020-q4-major/arm-none-eabi/include/c++/10.2.1/new **** // any later version.
  11:/usr/share/gcc-arm-none-eabi-10-2020-q4-major/arm-none-eabi/include/c++/10.2.1/new **** // 
  12:/usr/share/gcc-arm-none-eabi-10-2020-q4-major/arm-none-eabi/include/c++/10.2.1/new **** // GCC is distributed in the hope that it will be useful,
  13:/usr/share/gcc-arm-none-eabi-10-2020-q4-major/arm-none-eabi/include/c++/10.2.1/new **** // but WITHOUT ANY WARRANTY; without even the implied warranty of
  14:/usr/share/gcc-arm-none-eabi-10-2020-q4-major/arm-none-eabi/include/c++/10.2.1/new **** // MERCHANTABILITY or FITNESS FOR A PARTICULAR PURPOSE.  See the
  15:/usr/share/gcc-arm-none-eabi-10-2020-q4-major/arm-none-eabi/include/c++/10.2.1/new **** // GNU General Public License for more details.
  16:/usr/share/gcc-arm-none-eabi-10-2020-q4-major/arm-none-eabi/include/c++/10.2.1/new **** // 
  17:/usr/share/gcc-arm-none-eabi-10-2020-q4-major/arm-none-eabi/include/c++/10.2.1/new **** // Under Section 7 of GPL version 3, you are granted additional
  18:/usr/share/gcc-arm-none-eabi-10-2020-q4-major/arm-none-eabi/include/c++/10.2.1/new **** // permissions described in the GCC Runtime Library Exception, version
  19:/usr/share/gcc-arm-none-eabi-10-2020-q4-major/arm-none-eabi/include/c++/10.2.1/new **** // 3.1, as published by the Free Software Foundation.
  20:/usr/share/gcc-arm-none-eabi-10-2020-q4-major/arm-none-eabi/include/c++/10.2.1/new **** 
  21:/usr/share/gcc-arm-none-eabi-10-2020-q4-major/arm-none-eabi/include/c++/10.2.1/new **** // You should have received a copy of the GNU General Public License and
  22:/usr/share/gcc-arm-none-eabi-10-2020-q4-major/arm-none-eabi/include/c++/10.2.1/new **** // a copy of the GCC Runtime Library Exception along with this program;
  23:/usr/share/gcc-arm-none-eabi-10-2020-q4-major/arm-none-eabi/include/c++/10.2.1/new **** // see the files COPYING3 and COPYING.RUNTIME respectively.  If not, see
ARM GAS  /tmp/ccaL2bzX.s 			page 4


  24:/usr/share/gcc-arm-none-eabi-10-2020-q4-major/arm-none-eabi/include/c++/10.2.1/new **** // <http://www.gnu.org/licenses/>.
  25:/usr/share/gcc-arm-none-eabi-10-2020-q4-major/arm-none-eabi/include/c++/10.2.1/new **** 
  26:/usr/share/gcc-arm-none-eabi-10-2020-q4-major/arm-none-eabi/include/c++/10.2.1/new **** /** @file new
  27:/usr/share/gcc-arm-none-eabi-10-2020-q4-major/arm-none-eabi/include/c++/10.2.1/new ****  *  This is a Standard C++ Library header.
  28:/usr/share/gcc-arm-none-eabi-10-2020-q4-major/arm-none-eabi/include/c++/10.2.1/new ****  *
  29:/usr/share/gcc-arm-none-eabi-10-2020-q4-major/arm-none-eabi/include/c++/10.2.1/new ****  *  The header @c new defines several functions to manage dynamic memory and
  30:/usr/share/gcc-arm-none-eabi-10-2020-q4-major/arm-none-eabi/include/c++/10.2.1/new ****  *  handling memory allocation errors; see
  31:/usr/share/gcc-arm-none-eabi-10-2020-q4-major/arm-none-eabi/include/c++/10.2.1/new ****  *  https://gcc.gnu.org/onlinedocs/libstdc++/manual/dynamic_memory.html
  32:/usr/share/gcc-arm-none-eabi-10-2020-q4-major/arm-none-eabi/include/c++/10.2.1/new ****  *  for more.
  33:/usr/share/gcc-arm-none-eabi-10-2020-q4-major/arm-none-eabi/include/c++/10.2.1/new ****  */
  34:/usr/share/gcc-arm-none-eabi-10-2020-q4-major/arm-none-eabi/include/c++/10.2.1/new **** 
  35:/usr/share/gcc-arm-none-eabi-10-2020-q4-major/arm-none-eabi/include/c++/10.2.1/new **** #ifndef _NEW
  36:/usr/share/gcc-arm-none-eabi-10-2020-q4-major/arm-none-eabi/include/c++/10.2.1/new **** #define _NEW
  37:/usr/share/gcc-arm-none-eabi-10-2020-q4-major/arm-none-eabi/include/c++/10.2.1/new **** 
  38:/usr/share/gcc-arm-none-eabi-10-2020-q4-major/arm-none-eabi/include/c++/10.2.1/new **** #pragma GCC system_header
  39:/usr/share/gcc-arm-none-eabi-10-2020-q4-major/arm-none-eabi/include/c++/10.2.1/new **** 
  40:/usr/share/gcc-arm-none-eabi-10-2020-q4-major/arm-none-eabi/include/c++/10.2.1/new **** #include <bits/c++config.h>
  41:/usr/share/gcc-arm-none-eabi-10-2020-q4-major/arm-none-eabi/include/c++/10.2.1/new **** #include <exception>
  42:/usr/share/gcc-arm-none-eabi-10-2020-q4-major/arm-none-eabi/include/c++/10.2.1/new **** 
  43:/usr/share/gcc-arm-none-eabi-10-2020-q4-major/arm-none-eabi/include/c++/10.2.1/new **** #pragma GCC visibility push(default)
  44:/usr/share/gcc-arm-none-eabi-10-2020-q4-major/arm-none-eabi/include/c++/10.2.1/new **** 
  45:/usr/share/gcc-arm-none-eabi-10-2020-q4-major/arm-none-eabi/include/c++/10.2.1/new **** extern "C++" {
  46:/usr/share/gcc-arm-none-eabi-10-2020-q4-major/arm-none-eabi/include/c++/10.2.1/new **** 
  47:/usr/share/gcc-arm-none-eabi-10-2020-q4-major/arm-none-eabi/include/c++/10.2.1/new **** namespace std 
  48:/usr/share/gcc-arm-none-eabi-10-2020-q4-major/arm-none-eabi/include/c++/10.2.1/new **** {
  49:/usr/share/gcc-arm-none-eabi-10-2020-q4-major/arm-none-eabi/include/c++/10.2.1/new ****   /**
  50:/usr/share/gcc-arm-none-eabi-10-2020-q4-major/arm-none-eabi/include/c++/10.2.1/new ****    *  @brief  Exception possibly thrown by @c new.
  51:/usr/share/gcc-arm-none-eabi-10-2020-q4-major/arm-none-eabi/include/c++/10.2.1/new ****    *  @ingroup exceptions
  52:/usr/share/gcc-arm-none-eabi-10-2020-q4-major/arm-none-eabi/include/c++/10.2.1/new ****    *
  53:/usr/share/gcc-arm-none-eabi-10-2020-q4-major/arm-none-eabi/include/c++/10.2.1/new ****    *  @c bad_alloc (or classes derived from it) is used to report allocation
  54:/usr/share/gcc-arm-none-eabi-10-2020-q4-major/arm-none-eabi/include/c++/10.2.1/new ****    *  errors from the throwing forms of @c new.  */
  55:/usr/share/gcc-arm-none-eabi-10-2020-q4-major/arm-none-eabi/include/c++/10.2.1/new ****   class bad_alloc : public exception 
  56:/usr/share/gcc-arm-none-eabi-10-2020-q4-major/arm-none-eabi/include/c++/10.2.1/new ****   {
  57:/usr/share/gcc-arm-none-eabi-10-2020-q4-major/arm-none-eabi/include/c++/10.2.1/new ****   public:
  58:/usr/share/gcc-arm-none-eabi-10-2020-q4-major/arm-none-eabi/include/c++/10.2.1/new ****     bad_alloc() throw() { }
  59:/usr/share/gcc-arm-none-eabi-10-2020-q4-major/arm-none-eabi/include/c++/10.2.1/new **** 
  60:/usr/share/gcc-arm-none-eabi-10-2020-q4-major/arm-none-eabi/include/c++/10.2.1/new **** #if __cplusplus >= 201103L
  61:/usr/share/gcc-arm-none-eabi-10-2020-q4-major/arm-none-eabi/include/c++/10.2.1/new ****     bad_alloc(const bad_alloc&) = default;
  62:/usr/share/gcc-arm-none-eabi-10-2020-q4-major/arm-none-eabi/include/c++/10.2.1/new ****     bad_alloc& operator=(const bad_alloc&) = default;
  63:/usr/share/gcc-arm-none-eabi-10-2020-q4-major/arm-none-eabi/include/c++/10.2.1/new **** #endif
  64:/usr/share/gcc-arm-none-eabi-10-2020-q4-major/arm-none-eabi/include/c++/10.2.1/new **** 
  65:/usr/share/gcc-arm-none-eabi-10-2020-q4-major/arm-none-eabi/include/c++/10.2.1/new ****     // This declaration is not useless:
  66:/usr/share/gcc-arm-none-eabi-10-2020-q4-major/arm-none-eabi/include/c++/10.2.1/new ****     // http://gcc.gnu.org/onlinedocs/gcc-3.0.2/gcc_6.html#SEC118
  67:/usr/share/gcc-arm-none-eabi-10-2020-q4-major/arm-none-eabi/include/c++/10.2.1/new ****     virtual ~bad_alloc() throw();
  68:/usr/share/gcc-arm-none-eabi-10-2020-q4-major/arm-none-eabi/include/c++/10.2.1/new **** 
  69:/usr/share/gcc-arm-none-eabi-10-2020-q4-major/arm-none-eabi/include/c++/10.2.1/new ****     // See comment in eh_exception.cc.
  70:/usr/share/gcc-arm-none-eabi-10-2020-q4-major/arm-none-eabi/include/c++/10.2.1/new ****     virtual const char* what() const throw();
  71:/usr/share/gcc-arm-none-eabi-10-2020-q4-major/arm-none-eabi/include/c++/10.2.1/new ****   };
  72:/usr/share/gcc-arm-none-eabi-10-2020-q4-major/arm-none-eabi/include/c++/10.2.1/new **** 
  73:/usr/share/gcc-arm-none-eabi-10-2020-q4-major/arm-none-eabi/include/c++/10.2.1/new **** #if __cplusplus >= 201103L
  74:/usr/share/gcc-arm-none-eabi-10-2020-q4-major/arm-none-eabi/include/c++/10.2.1/new ****   class bad_array_new_length : public bad_alloc
  75:/usr/share/gcc-arm-none-eabi-10-2020-q4-major/arm-none-eabi/include/c++/10.2.1/new ****   {
  76:/usr/share/gcc-arm-none-eabi-10-2020-q4-major/arm-none-eabi/include/c++/10.2.1/new ****   public:
  77:/usr/share/gcc-arm-none-eabi-10-2020-q4-major/arm-none-eabi/include/c++/10.2.1/new ****     bad_array_new_length() throw() { }
  78:/usr/share/gcc-arm-none-eabi-10-2020-q4-major/arm-none-eabi/include/c++/10.2.1/new **** 
  79:/usr/share/gcc-arm-none-eabi-10-2020-q4-major/arm-none-eabi/include/c++/10.2.1/new ****     // This declaration is not useless:
  80:/usr/share/gcc-arm-none-eabi-10-2020-q4-major/arm-none-eabi/include/c++/10.2.1/new ****     // http://gcc.gnu.org/onlinedocs/gcc-3.0.2/gcc_6.html#SEC118
ARM GAS  /tmp/ccaL2bzX.s 			page 5


  81:/usr/share/gcc-arm-none-eabi-10-2020-q4-major/arm-none-eabi/include/c++/10.2.1/new ****     virtual ~bad_array_new_length() throw();
  82:/usr/share/gcc-arm-none-eabi-10-2020-q4-major/arm-none-eabi/include/c++/10.2.1/new **** 
  83:/usr/share/gcc-arm-none-eabi-10-2020-q4-major/arm-none-eabi/include/c++/10.2.1/new ****     // See comment in eh_exception.cc.
  84:/usr/share/gcc-arm-none-eabi-10-2020-q4-major/arm-none-eabi/include/c++/10.2.1/new ****     virtual const char* what() const throw();
  85:/usr/share/gcc-arm-none-eabi-10-2020-q4-major/arm-none-eabi/include/c++/10.2.1/new ****   };
  86:/usr/share/gcc-arm-none-eabi-10-2020-q4-major/arm-none-eabi/include/c++/10.2.1/new **** #endif
  87:/usr/share/gcc-arm-none-eabi-10-2020-q4-major/arm-none-eabi/include/c++/10.2.1/new **** 
  88:/usr/share/gcc-arm-none-eabi-10-2020-q4-major/arm-none-eabi/include/c++/10.2.1/new **** #if __cpp_aligned_new
  89:/usr/share/gcc-arm-none-eabi-10-2020-q4-major/arm-none-eabi/include/c++/10.2.1/new ****   enum class align_val_t: size_t {};
  90:/usr/share/gcc-arm-none-eabi-10-2020-q4-major/arm-none-eabi/include/c++/10.2.1/new **** #endif
  91:/usr/share/gcc-arm-none-eabi-10-2020-q4-major/arm-none-eabi/include/c++/10.2.1/new **** 
  92:/usr/share/gcc-arm-none-eabi-10-2020-q4-major/arm-none-eabi/include/c++/10.2.1/new ****   struct nothrow_t
  93:/usr/share/gcc-arm-none-eabi-10-2020-q4-major/arm-none-eabi/include/c++/10.2.1/new ****   {
  94:/usr/share/gcc-arm-none-eabi-10-2020-q4-major/arm-none-eabi/include/c++/10.2.1/new **** #if __cplusplus >= 201103L
  95:/usr/share/gcc-arm-none-eabi-10-2020-q4-major/arm-none-eabi/include/c++/10.2.1/new ****     explicit nothrow_t() = default;
  96:/usr/share/gcc-arm-none-eabi-10-2020-q4-major/arm-none-eabi/include/c++/10.2.1/new **** #endif
  97:/usr/share/gcc-arm-none-eabi-10-2020-q4-major/arm-none-eabi/include/c++/10.2.1/new ****   };
  98:/usr/share/gcc-arm-none-eabi-10-2020-q4-major/arm-none-eabi/include/c++/10.2.1/new **** 
  99:/usr/share/gcc-arm-none-eabi-10-2020-q4-major/arm-none-eabi/include/c++/10.2.1/new ****   extern const nothrow_t nothrow;
 100:/usr/share/gcc-arm-none-eabi-10-2020-q4-major/arm-none-eabi/include/c++/10.2.1/new **** 
 101:/usr/share/gcc-arm-none-eabi-10-2020-q4-major/arm-none-eabi/include/c++/10.2.1/new ****   /** If you write your own error handler to be called by @c new, it must
 102:/usr/share/gcc-arm-none-eabi-10-2020-q4-major/arm-none-eabi/include/c++/10.2.1/new ****    *  be of this type.  */
 103:/usr/share/gcc-arm-none-eabi-10-2020-q4-major/arm-none-eabi/include/c++/10.2.1/new ****   typedef void (*new_handler)();
 104:/usr/share/gcc-arm-none-eabi-10-2020-q4-major/arm-none-eabi/include/c++/10.2.1/new **** 
 105:/usr/share/gcc-arm-none-eabi-10-2020-q4-major/arm-none-eabi/include/c++/10.2.1/new ****   /// Takes a replacement handler as the argument, returns the
 106:/usr/share/gcc-arm-none-eabi-10-2020-q4-major/arm-none-eabi/include/c++/10.2.1/new ****   /// previous handler.
 107:/usr/share/gcc-arm-none-eabi-10-2020-q4-major/arm-none-eabi/include/c++/10.2.1/new ****   new_handler set_new_handler(new_handler) throw();
 108:/usr/share/gcc-arm-none-eabi-10-2020-q4-major/arm-none-eabi/include/c++/10.2.1/new **** 
 109:/usr/share/gcc-arm-none-eabi-10-2020-q4-major/arm-none-eabi/include/c++/10.2.1/new **** #if __cplusplus >= 201103L
 110:/usr/share/gcc-arm-none-eabi-10-2020-q4-major/arm-none-eabi/include/c++/10.2.1/new ****   /// Return the current new handler.
 111:/usr/share/gcc-arm-none-eabi-10-2020-q4-major/arm-none-eabi/include/c++/10.2.1/new ****   new_handler get_new_handler() noexcept;
 112:/usr/share/gcc-arm-none-eabi-10-2020-q4-major/arm-none-eabi/include/c++/10.2.1/new **** #endif
 113:/usr/share/gcc-arm-none-eabi-10-2020-q4-major/arm-none-eabi/include/c++/10.2.1/new **** } // namespace std
 114:/usr/share/gcc-arm-none-eabi-10-2020-q4-major/arm-none-eabi/include/c++/10.2.1/new **** 
 115:/usr/share/gcc-arm-none-eabi-10-2020-q4-major/arm-none-eabi/include/c++/10.2.1/new **** //@{
 116:/usr/share/gcc-arm-none-eabi-10-2020-q4-major/arm-none-eabi/include/c++/10.2.1/new **** /** These are replaceable signatures:
 117:/usr/share/gcc-arm-none-eabi-10-2020-q4-major/arm-none-eabi/include/c++/10.2.1/new ****  *  - normal single new and delete (no arguments, throw @c bad_alloc on error)
 118:/usr/share/gcc-arm-none-eabi-10-2020-q4-major/arm-none-eabi/include/c++/10.2.1/new ****  *  - normal array new and delete (same)
 119:/usr/share/gcc-arm-none-eabi-10-2020-q4-major/arm-none-eabi/include/c++/10.2.1/new ****  *  - @c nothrow single new and delete (take a @c nothrow argument, return
 120:/usr/share/gcc-arm-none-eabi-10-2020-q4-major/arm-none-eabi/include/c++/10.2.1/new ****  *    @c NULL on error)
 121:/usr/share/gcc-arm-none-eabi-10-2020-q4-major/arm-none-eabi/include/c++/10.2.1/new ****  *  - @c nothrow array new and delete (same)
 122:/usr/share/gcc-arm-none-eabi-10-2020-q4-major/arm-none-eabi/include/c++/10.2.1/new ****  *
 123:/usr/share/gcc-arm-none-eabi-10-2020-q4-major/arm-none-eabi/include/c++/10.2.1/new ****  *  Placement new and delete signatures (take a memory address argument,
 124:/usr/share/gcc-arm-none-eabi-10-2020-q4-major/arm-none-eabi/include/c++/10.2.1/new ****  *  does nothing) may not be replaced by a user's program.
 125:/usr/share/gcc-arm-none-eabi-10-2020-q4-major/arm-none-eabi/include/c++/10.2.1/new **** */
 126:/usr/share/gcc-arm-none-eabi-10-2020-q4-major/arm-none-eabi/include/c++/10.2.1/new **** _GLIBCXX_NODISCARD void* operator new(std::size_t) _GLIBCXX_THROW (std::bad_alloc)
 127:/usr/share/gcc-arm-none-eabi-10-2020-q4-major/arm-none-eabi/include/c++/10.2.1/new ****   __attribute__((__externally_visible__));
 128:/usr/share/gcc-arm-none-eabi-10-2020-q4-major/arm-none-eabi/include/c++/10.2.1/new **** _GLIBCXX_NODISCARD void* operator new[](std::size_t) _GLIBCXX_THROW (std::bad_alloc)
 129:/usr/share/gcc-arm-none-eabi-10-2020-q4-major/arm-none-eabi/include/c++/10.2.1/new ****   __attribute__((__externally_visible__));
 130:/usr/share/gcc-arm-none-eabi-10-2020-q4-major/arm-none-eabi/include/c++/10.2.1/new **** void operator delete(void*) _GLIBCXX_USE_NOEXCEPT
 131:/usr/share/gcc-arm-none-eabi-10-2020-q4-major/arm-none-eabi/include/c++/10.2.1/new ****   __attribute__((__externally_visible__));
 132:/usr/share/gcc-arm-none-eabi-10-2020-q4-major/arm-none-eabi/include/c++/10.2.1/new **** void operator delete[](void*) _GLIBCXX_USE_NOEXCEPT
 133:/usr/share/gcc-arm-none-eabi-10-2020-q4-major/arm-none-eabi/include/c++/10.2.1/new ****   __attribute__((__externally_visible__));
 134:/usr/share/gcc-arm-none-eabi-10-2020-q4-major/arm-none-eabi/include/c++/10.2.1/new **** #if __cpp_sized_deallocation
 135:/usr/share/gcc-arm-none-eabi-10-2020-q4-major/arm-none-eabi/include/c++/10.2.1/new **** void operator delete(void*, std::size_t) _GLIBCXX_USE_NOEXCEPT
 136:/usr/share/gcc-arm-none-eabi-10-2020-q4-major/arm-none-eabi/include/c++/10.2.1/new ****   __attribute__((__externally_visible__));
 137:/usr/share/gcc-arm-none-eabi-10-2020-q4-major/arm-none-eabi/include/c++/10.2.1/new **** void operator delete[](void*, std::size_t) _GLIBCXX_USE_NOEXCEPT
ARM GAS  /tmp/ccaL2bzX.s 			page 6


 138:/usr/share/gcc-arm-none-eabi-10-2020-q4-major/arm-none-eabi/include/c++/10.2.1/new ****   __attribute__((__externally_visible__));
 139:/usr/share/gcc-arm-none-eabi-10-2020-q4-major/arm-none-eabi/include/c++/10.2.1/new **** #endif
 140:/usr/share/gcc-arm-none-eabi-10-2020-q4-major/arm-none-eabi/include/c++/10.2.1/new **** _GLIBCXX_NODISCARD void* operator new(std::size_t, const std::nothrow_t&) _GLIBCXX_USE_NOEXCEPT
 141:/usr/share/gcc-arm-none-eabi-10-2020-q4-major/arm-none-eabi/include/c++/10.2.1/new ****   __attribute__((__externally_visible__, __malloc__));
 142:/usr/share/gcc-arm-none-eabi-10-2020-q4-major/arm-none-eabi/include/c++/10.2.1/new **** _GLIBCXX_NODISCARD void* operator new[](std::size_t, const std::nothrow_t&) _GLIBCXX_USE_NOEXCEPT
 143:/usr/share/gcc-arm-none-eabi-10-2020-q4-major/arm-none-eabi/include/c++/10.2.1/new ****   __attribute__((__externally_visible__, __malloc__));
 144:/usr/share/gcc-arm-none-eabi-10-2020-q4-major/arm-none-eabi/include/c++/10.2.1/new **** void operator delete(void*, const std::nothrow_t&) _GLIBCXX_USE_NOEXCEPT
 145:/usr/share/gcc-arm-none-eabi-10-2020-q4-major/arm-none-eabi/include/c++/10.2.1/new ****   __attribute__((__externally_visible__));
 146:/usr/share/gcc-arm-none-eabi-10-2020-q4-major/arm-none-eabi/include/c++/10.2.1/new **** void operator delete[](void*, const std::nothrow_t&) _GLIBCXX_USE_NOEXCEPT
 147:/usr/share/gcc-arm-none-eabi-10-2020-q4-major/arm-none-eabi/include/c++/10.2.1/new ****   __attribute__((__externally_visible__));
 148:/usr/share/gcc-arm-none-eabi-10-2020-q4-major/arm-none-eabi/include/c++/10.2.1/new **** #if __cpp_aligned_new
 149:/usr/share/gcc-arm-none-eabi-10-2020-q4-major/arm-none-eabi/include/c++/10.2.1/new **** _GLIBCXX_NODISCARD void* operator new(std::size_t, std::align_val_t)
 150:/usr/share/gcc-arm-none-eabi-10-2020-q4-major/arm-none-eabi/include/c++/10.2.1/new ****   __attribute__((__externally_visible__));
 151:/usr/share/gcc-arm-none-eabi-10-2020-q4-major/arm-none-eabi/include/c++/10.2.1/new **** _GLIBCXX_NODISCARD void* operator new(std::size_t, std::align_val_t, const std::nothrow_t&)
 152:/usr/share/gcc-arm-none-eabi-10-2020-q4-major/arm-none-eabi/include/c++/10.2.1/new ****   _GLIBCXX_USE_NOEXCEPT __attribute__((__externally_visible__, __malloc__));
 153:/usr/share/gcc-arm-none-eabi-10-2020-q4-major/arm-none-eabi/include/c++/10.2.1/new **** void operator delete(void*, std::align_val_t)
 154:/usr/share/gcc-arm-none-eabi-10-2020-q4-major/arm-none-eabi/include/c++/10.2.1/new ****   _GLIBCXX_USE_NOEXCEPT __attribute__((__externally_visible__));
 155:/usr/share/gcc-arm-none-eabi-10-2020-q4-major/arm-none-eabi/include/c++/10.2.1/new **** void operator delete(void*, std::align_val_t, const std::nothrow_t&)
 156:/usr/share/gcc-arm-none-eabi-10-2020-q4-major/arm-none-eabi/include/c++/10.2.1/new ****   _GLIBCXX_USE_NOEXCEPT __attribute__((__externally_visible__));
 157:/usr/share/gcc-arm-none-eabi-10-2020-q4-major/arm-none-eabi/include/c++/10.2.1/new **** _GLIBCXX_NODISCARD void* operator new[](std::size_t, std::align_val_t)
 158:/usr/share/gcc-arm-none-eabi-10-2020-q4-major/arm-none-eabi/include/c++/10.2.1/new ****   __attribute__((__externally_visible__));
 159:/usr/share/gcc-arm-none-eabi-10-2020-q4-major/arm-none-eabi/include/c++/10.2.1/new **** _GLIBCXX_NODISCARD void* operator new[](std::size_t, std::align_val_t, const std::nothrow_t&)
 160:/usr/share/gcc-arm-none-eabi-10-2020-q4-major/arm-none-eabi/include/c++/10.2.1/new ****   _GLIBCXX_USE_NOEXCEPT __attribute__((__externally_visible__, __malloc__));
 161:/usr/share/gcc-arm-none-eabi-10-2020-q4-major/arm-none-eabi/include/c++/10.2.1/new **** void operator delete[](void*, std::align_val_t)
 162:/usr/share/gcc-arm-none-eabi-10-2020-q4-major/arm-none-eabi/include/c++/10.2.1/new ****   _GLIBCXX_USE_NOEXCEPT __attribute__((__externally_visible__));
 163:/usr/share/gcc-arm-none-eabi-10-2020-q4-major/arm-none-eabi/include/c++/10.2.1/new **** void operator delete[](void*, std::align_val_t, const std::nothrow_t&)
 164:/usr/share/gcc-arm-none-eabi-10-2020-q4-major/arm-none-eabi/include/c++/10.2.1/new ****   _GLIBCXX_USE_NOEXCEPT __attribute__((__externally_visible__));
 165:/usr/share/gcc-arm-none-eabi-10-2020-q4-major/arm-none-eabi/include/c++/10.2.1/new **** #if __cpp_sized_deallocation
 166:/usr/share/gcc-arm-none-eabi-10-2020-q4-major/arm-none-eabi/include/c++/10.2.1/new **** void operator delete(void*, std::size_t, std::align_val_t)
 167:/usr/share/gcc-arm-none-eabi-10-2020-q4-major/arm-none-eabi/include/c++/10.2.1/new ****   _GLIBCXX_USE_NOEXCEPT __attribute__((__externally_visible__));
 168:/usr/share/gcc-arm-none-eabi-10-2020-q4-major/arm-none-eabi/include/c++/10.2.1/new **** void operator delete[](void*, std::size_t, std::align_val_t)
 169:/usr/share/gcc-arm-none-eabi-10-2020-q4-major/arm-none-eabi/include/c++/10.2.1/new ****   _GLIBCXX_USE_NOEXCEPT __attribute__((__externally_visible__));
 170:/usr/share/gcc-arm-none-eabi-10-2020-q4-major/arm-none-eabi/include/c++/10.2.1/new **** #endif // __cpp_sized_deallocation
 171:/usr/share/gcc-arm-none-eabi-10-2020-q4-major/arm-none-eabi/include/c++/10.2.1/new **** #endif // __cpp_aligned_new
 172:/usr/share/gcc-arm-none-eabi-10-2020-q4-major/arm-none-eabi/include/c++/10.2.1/new **** 
 173:/usr/share/gcc-arm-none-eabi-10-2020-q4-major/arm-none-eabi/include/c++/10.2.1/new **** // Default placement versions of operator new.
 174:/usr/share/gcc-arm-none-eabi-10-2020-q4-major/arm-none-eabi/include/c++/10.2.1/new **** _GLIBCXX_NODISCARD inline void* operator new(std::size_t, void* __p) _GLIBCXX_USE_NOEXCEPT
 175:/usr/share/gcc-arm-none-eabi-10-2020-q4-major/arm-none-eabi/include/c++/10.2.1/new **** { return __p; }
  76              		.loc 2 175 1
  77              		.cfi_startproc
  78              		@ args = 0, pretend = 0, frame = 8
  79              		@ frame_needed = 1, uses_anonymous_args = 0
  80              		@ link register save eliminated.
  81 0000 80B4     		push	{r7}
  82              	.LCFI6:
  83              		.cfi_def_cfa_offset 4
  84              		.cfi_offset 7, -4
  85 0002 83B0     		sub	sp, sp, #12
  86              	.LCFI7:
  87              		.cfi_def_cfa_offset 16
  88 0004 00AF     		add	r7, sp, #0
  89              	.LCFI8:
  90              		.cfi_def_cfa_register 7
  91 0006 7860     		str	r0, [r7, #4]
  92 0008 3960     		str	r1, [r7]
  93              		.loc 2 175 10
  94 000a 3B68     		ldr	r3, [r7]
ARM GAS  /tmp/ccaL2bzX.s 			page 7


  95              		.loc 2 175 15
  96 000c 1846     		mov	r0, r3
  97 000e 0C37     		adds	r7, r7, #12
  98              	.LCFI9:
  99              		.cfi_def_cfa_offset 4
 100 0010 BD46     		mov	sp, r7
 101              	.LCFI10:
 102              		.cfi_def_cfa_register 13
 103              		@ sp needed
 104 0012 5DF8047B 		ldr	r7, [sp], #4
 105              	.LCFI11:
 106              		.cfi_restore 7
 107              		.cfi_def_cfa_offset 0
 108 0016 7047     		bx	lr
 109              		.cfi_endproc
 110              	.LFE182:
 112              		.section	.text._ZNSt14_Function_baseC2Ev,"axG",%progbits,_ZNSt14_Function_baseC5Ev,comdat
 113              		.align	1
 114              		.weak	_ZNSt14_Function_baseC2Ev
 115              		.syntax unified
 116              		.thumb
 117              		.thumb_func
 118              		.fpu fpv4-sp-d16
 120              	_ZNSt14_Function_baseC2Ev:
 121              	.LFB855:
 122              		.file 3 "/usr/share/gcc-arm-none-eabi-10-2020-q4-major/arm-none-eabi/include/c++/10.2.1/bits/std_f
   1:/usr/share/gcc-arm-none-eabi-10-2020-q4-major/arm-none-eabi/include/c++/10.2.1/bits/std_function.h **** // Implementation of std::function -*- C++ -*-
   2:/usr/share/gcc-arm-none-eabi-10-2020-q4-major/arm-none-eabi/include/c++/10.2.1/bits/std_function.h **** 
   3:/usr/share/gcc-arm-none-eabi-10-2020-q4-major/arm-none-eabi/include/c++/10.2.1/bits/std_function.h **** // Copyright (C) 2004-2020 Free Software Foundation, Inc.
   4:/usr/share/gcc-arm-none-eabi-10-2020-q4-major/arm-none-eabi/include/c++/10.2.1/bits/std_function.h **** //
   5:/usr/share/gcc-arm-none-eabi-10-2020-q4-major/arm-none-eabi/include/c++/10.2.1/bits/std_function.h **** // This file is part of the GNU ISO C++ Library.  This library is free
   6:/usr/share/gcc-arm-none-eabi-10-2020-q4-major/arm-none-eabi/include/c++/10.2.1/bits/std_function.h **** // software; you can redistribute it and/or modify it under the
   7:/usr/share/gcc-arm-none-eabi-10-2020-q4-major/arm-none-eabi/include/c++/10.2.1/bits/std_function.h **** // terms of the GNU General Public License as published by the
   8:/usr/share/gcc-arm-none-eabi-10-2020-q4-major/arm-none-eabi/include/c++/10.2.1/bits/std_function.h **** // Free Software Foundation; either version 3, or (at your option)
   9:/usr/share/gcc-arm-none-eabi-10-2020-q4-major/arm-none-eabi/include/c++/10.2.1/bits/std_function.h **** // any later version.
  10:/usr/share/gcc-arm-none-eabi-10-2020-q4-major/arm-none-eabi/include/c++/10.2.1/bits/std_function.h **** 
  11:/usr/share/gcc-arm-none-eabi-10-2020-q4-major/arm-none-eabi/include/c++/10.2.1/bits/std_function.h **** // This library is distributed in the hope that it will be useful,
  12:/usr/share/gcc-arm-none-eabi-10-2020-q4-major/arm-none-eabi/include/c++/10.2.1/bits/std_function.h **** // but WITHOUT ANY WARRANTY; without even the implied warranty of
  13:/usr/share/gcc-arm-none-eabi-10-2020-q4-major/arm-none-eabi/include/c++/10.2.1/bits/std_function.h **** // MERCHANTABILITY or FITNESS FOR A PARTICULAR PURPOSE.  See the
  14:/usr/share/gcc-arm-none-eabi-10-2020-q4-major/arm-none-eabi/include/c++/10.2.1/bits/std_function.h **** // GNU General Public License for more details.
  15:/usr/share/gcc-arm-none-eabi-10-2020-q4-major/arm-none-eabi/include/c++/10.2.1/bits/std_function.h **** 
  16:/usr/share/gcc-arm-none-eabi-10-2020-q4-major/arm-none-eabi/include/c++/10.2.1/bits/std_function.h **** // Under Section 7 of GPL version 3, you are granted additional
  17:/usr/share/gcc-arm-none-eabi-10-2020-q4-major/arm-none-eabi/include/c++/10.2.1/bits/std_function.h **** // permissions described in the GCC Runtime Library Exception, version
  18:/usr/share/gcc-arm-none-eabi-10-2020-q4-major/arm-none-eabi/include/c++/10.2.1/bits/std_function.h **** // 3.1, as published by the Free Software Foundation.
  19:/usr/share/gcc-arm-none-eabi-10-2020-q4-major/arm-none-eabi/include/c++/10.2.1/bits/std_function.h **** 
  20:/usr/share/gcc-arm-none-eabi-10-2020-q4-major/arm-none-eabi/include/c++/10.2.1/bits/std_function.h **** // You should have received a copy of the GNU General Public License and
  21:/usr/share/gcc-arm-none-eabi-10-2020-q4-major/arm-none-eabi/include/c++/10.2.1/bits/std_function.h **** // a copy of the GCC Runtime Library Exception along with this program;
  22:/usr/share/gcc-arm-none-eabi-10-2020-q4-major/arm-none-eabi/include/c++/10.2.1/bits/std_function.h **** // see the files COPYING3 and COPYING.RUNTIME respectively.  If not, see
  23:/usr/share/gcc-arm-none-eabi-10-2020-q4-major/arm-none-eabi/include/c++/10.2.1/bits/std_function.h **** // <http://www.gnu.org/licenses/>.
  24:/usr/share/gcc-arm-none-eabi-10-2020-q4-major/arm-none-eabi/include/c++/10.2.1/bits/std_function.h **** 
  25:/usr/share/gcc-arm-none-eabi-10-2020-q4-major/arm-none-eabi/include/c++/10.2.1/bits/std_function.h **** /** @file include/bits/std_function.h
  26:/usr/share/gcc-arm-none-eabi-10-2020-q4-major/arm-none-eabi/include/c++/10.2.1/bits/std_function.h ****  *  This is an internal header file, included by other library headers.
  27:/usr/share/gcc-arm-none-eabi-10-2020-q4-major/arm-none-eabi/include/c++/10.2.1/bits/std_function.h ****  *  Do not attempt to use it directly. @headername{functional}
  28:/usr/share/gcc-arm-none-eabi-10-2020-q4-major/arm-none-eabi/include/c++/10.2.1/bits/std_function.h ****  */
  29:/usr/share/gcc-arm-none-eabi-10-2020-q4-major/arm-none-eabi/include/c++/10.2.1/bits/std_function.h **** 
  30:/usr/share/gcc-arm-none-eabi-10-2020-q4-major/arm-none-eabi/include/c++/10.2.1/bits/std_function.h **** #ifndef _GLIBCXX_STD_FUNCTION_H
  31:/usr/share/gcc-arm-none-eabi-10-2020-q4-major/arm-none-eabi/include/c++/10.2.1/bits/std_function.h **** #define _GLIBCXX_STD_FUNCTION_H 1
ARM GAS  /tmp/ccaL2bzX.s 			page 8


  32:/usr/share/gcc-arm-none-eabi-10-2020-q4-major/arm-none-eabi/include/c++/10.2.1/bits/std_function.h **** 
  33:/usr/share/gcc-arm-none-eabi-10-2020-q4-major/arm-none-eabi/include/c++/10.2.1/bits/std_function.h **** #pragma GCC system_header
  34:/usr/share/gcc-arm-none-eabi-10-2020-q4-major/arm-none-eabi/include/c++/10.2.1/bits/std_function.h **** 
  35:/usr/share/gcc-arm-none-eabi-10-2020-q4-major/arm-none-eabi/include/c++/10.2.1/bits/std_function.h **** #if __cplusplus < 201103L
  36:/usr/share/gcc-arm-none-eabi-10-2020-q4-major/arm-none-eabi/include/c++/10.2.1/bits/std_function.h **** # include <bits/c++0x_warning.h>
  37:/usr/share/gcc-arm-none-eabi-10-2020-q4-major/arm-none-eabi/include/c++/10.2.1/bits/std_function.h **** #else
  38:/usr/share/gcc-arm-none-eabi-10-2020-q4-major/arm-none-eabi/include/c++/10.2.1/bits/std_function.h **** 
  39:/usr/share/gcc-arm-none-eabi-10-2020-q4-major/arm-none-eabi/include/c++/10.2.1/bits/std_function.h **** #if __cpp_rtti
  40:/usr/share/gcc-arm-none-eabi-10-2020-q4-major/arm-none-eabi/include/c++/10.2.1/bits/std_function.h **** # include <typeinfo>
  41:/usr/share/gcc-arm-none-eabi-10-2020-q4-major/arm-none-eabi/include/c++/10.2.1/bits/std_function.h **** #endif
  42:/usr/share/gcc-arm-none-eabi-10-2020-q4-major/arm-none-eabi/include/c++/10.2.1/bits/std_function.h **** #include <bits/stl_function.h>
  43:/usr/share/gcc-arm-none-eabi-10-2020-q4-major/arm-none-eabi/include/c++/10.2.1/bits/std_function.h **** #include <bits/invoke.h>
  44:/usr/share/gcc-arm-none-eabi-10-2020-q4-major/arm-none-eabi/include/c++/10.2.1/bits/std_function.h **** #include <bits/refwrap.h>
  45:/usr/share/gcc-arm-none-eabi-10-2020-q4-major/arm-none-eabi/include/c++/10.2.1/bits/std_function.h **** #include <bits/functexcept.h>
  46:/usr/share/gcc-arm-none-eabi-10-2020-q4-major/arm-none-eabi/include/c++/10.2.1/bits/std_function.h **** 
  47:/usr/share/gcc-arm-none-eabi-10-2020-q4-major/arm-none-eabi/include/c++/10.2.1/bits/std_function.h **** namespace std _GLIBCXX_VISIBILITY(default)
  48:/usr/share/gcc-arm-none-eabi-10-2020-q4-major/arm-none-eabi/include/c++/10.2.1/bits/std_function.h **** {
  49:/usr/share/gcc-arm-none-eabi-10-2020-q4-major/arm-none-eabi/include/c++/10.2.1/bits/std_function.h **** _GLIBCXX_BEGIN_NAMESPACE_VERSION
  50:/usr/share/gcc-arm-none-eabi-10-2020-q4-major/arm-none-eabi/include/c++/10.2.1/bits/std_function.h **** 
  51:/usr/share/gcc-arm-none-eabi-10-2020-q4-major/arm-none-eabi/include/c++/10.2.1/bits/std_function.h ****   /**
  52:/usr/share/gcc-arm-none-eabi-10-2020-q4-major/arm-none-eabi/include/c++/10.2.1/bits/std_function.h ****    *  @brief Exception class thrown when class template function's
  53:/usr/share/gcc-arm-none-eabi-10-2020-q4-major/arm-none-eabi/include/c++/10.2.1/bits/std_function.h ****    *  operator() is called with an empty target.
  54:/usr/share/gcc-arm-none-eabi-10-2020-q4-major/arm-none-eabi/include/c++/10.2.1/bits/std_function.h ****    *  @ingroup exceptions
  55:/usr/share/gcc-arm-none-eabi-10-2020-q4-major/arm-none-eabi/include/c++/10.2.1/bits/std_function.h ****    */
  56:/usr/share/gcc-arm-none-eabi-10-2020-q4-major/arm-none-eabi/include/c++/10.2.1/bits/std_function.h ****   class bad_function_call : public std::exception
  57:/usr/share/gcc-arm-none-eabi-10-2020-q4-major/arm-none-eabi/include/c++/10.2.1/bits/std_function.h ****   {
  58:/usr/share/gcc-arm-none-eabi-10-2020-q4-major/arm-none-eabi/include/c++/10.2.1/bits/std_function.h ****   public:
  59:/usr/share/gcc-arm-none-eabi-10-2020-q4-major/arm-none-eabi/include/c++/10.2.1/bits/std_function.h ****     virtual ~bad_function_call() noexcept;
  60:/usr/share/gcc-arm-none-eabi-10-2020-q4-major/arm-none-eabi/include/c++/10.2.1/bits/std_function.h **** 
  61:/usr/share/gcc-arm-none-eabi-10-2020-q4-major/arm-none-eabi/include/c++/10.2.1/bits/std_function.h ****     const char* what() const noexcept;
  62:/usr/share/gcc-arm-none-eabi-10-2020-q4-major/arm-none-eabi/include/c++/10.2.1/bits/std_function.h ****   };
  63:/usr/share/gcc-arm-none-eabi-10-2020-q4-major/arm-none-eabi/include/c++/10.2.1/bits/std_function.h **** 
  64:/usr/share/gcc-arm-none-eabi-10-2020-q4-major/arm-none-eabi/include/c++/10.2.1/bits/std_function.h ****   /**
  65:/usr/share/gcc-arm-none-eabi-10-2020-q4-major/arm-none-eabi/include/c++/10.2.1/bits/std_function.h ****    *  Trait identifying "location-invariant" types, meaning that the
  66:/usr/share/gcc-arm-none-eabi-10-2020-q4-major/arm-none-eabi/include/c++/10.2.1/bits/std_function.h ****    *  address of the object (or any of its members) will not escape.
  67:/usr/share/gcc-arm-none-eabi-10-2020-q4-major/arm-none-eabi/include/c++/10.2.1/bits/std_function.h ****    *  Trivially copyable types are location-invariant and users can
  68:/usr/share/gcc-arm-none-eabi-10-2020-q4-major/arm-none-eabi/include/c++/10.2.1/bits/std_function.h ****    *  specialize this trait for other types.
  69:/usr/share/gcc-arm-none-eabi-10-2020-q4-major/arm-none-eabi/include/c++/10.2.1/bits/std_function.h ****    */
  70:/usr/share/gcc-arm-none-eabi-10-2020-q4-major/arm-none-eabi/include/c++/10.2.1/bits/std_function.h ****   template<typename _Tp>
  71:/usr/share/gcc-arm-none-eabi-10-2020-q4-major/arm-none-eabi/include/c++/10.2.1/bits/std_function.h ****     struct __is_location_invariant
  72:/usr/share/gcc-arm-none-eabi-10-2020-q4-major/arm-none-eabi/include/c++/10.2.1/bits/std_function.h ****     : is_trivially_copyable<_Tp>::type
  73:/usr/share/gcc-arm-none-eabi-10-2020-q4-major/arm-none-eabi/include/c++/10.2.1/bits/std_function.h ****     { };
  74:/usr/share/gcc-arm-none-eabi-10-2020-q4-major/arm-none-eabi/include/c++/10.2.1/bits/std_function.h **** 
  75:/usr/share/gcc-arm-none-eabi-10-2020-q4-major/arm-none-eabi/include/c++/10.2.1/bits/std_function.h ****   class _Undefined_class;
  76:/usr/share/gcc-arm-none-eabi-10-2020-q4-major/arm-none-eabi/include/c++/10.2.1/bits/std_function.h **** 
  77:/usr/share/gcc-arm-none-eabi-10-2020-q4-major/arm-none-eabi/include/c++/10.2.1/bits/std_function.h ****   union _Nocopy_types
  78:/usr/share/gcc-arm-none-eabi-10-2020-q4-major/arm-none-eabi/include/c++/10.2.1/bits/std_function.h ****   {
  79:/usr/share/gcc-arm-none-eabi-10-2020-q4-major/arm-none-eabi/include/c++/10.2.1/bits/std_function.h ****     void*       _M_object;
  80:/usr/share/gcc-arm-none-eabi-10-2020-q4-major/arm-none-eabi/include/c++/10.2.1/bits/std_function.h ****     const void* _M_const_object;
  81:/usr/share/gcc-arm-none-eabi-10-2020-q4-major/arm-none-eabi/include/c++/10.2.1/bits/std_function.h ****     void (*_M_function_pointer)();
  82:/usr/share/gcc-arm-none-eabi-10-2020-q4-major/arm-none-eabi/include/c++/10.2.1/bits/std_function.h ****     void (_Undefined_class::*_M_member_pointer)();
  83:/usr/share/gcc-arm-none-eabi-10-2020-q4-major/arm-none-eabi/include/c++/10.2.1/bits/std_function.h ****   };
  84:/usr/share/gcc-arm-none-eabi-10-2020-q4-major/arm-none-eabi/include/c++/10.2.1/bits/std_function.h **** 
  85:/usr/share/gcc-arm-none-eabi-10-2020-q4-major/arm-none-eabi/include/c++/10.2.1/bits/std_function.h ****   union [[gnu::may_alias]] _Any_data
  86:/usr/share/gcc-arm-none-eabi-10-2020-q4-major/arm-none-eabi/include/c++/10.2.1/bits/std_function.h ****   {
  87:/usr/share/gcc-arm-none-eabi-10-2020-q4-major/arm-none-eabi/include/c++/10.2.1/bits/std_function.h ****     void*       _M_access()       { return &_M_pod_data[0]; }
  88:/usr/share/gcc-arm-none-eabi-10-2020-q4-major/arm-none-eabi/include/c++/10.2.1/bits/std_function.h ****     const void* _M_access() const { return &_M_pod_data[0]; }
ARM GAS  /tmp/ccaL2bzX.s 			page 9


  89:/usr/share/gcc-arm-none-eabi-10-2020-q4-major/arm-none-eabi/include/c++/10.2.1/bits/std_function.h **** 
  90:/usr/share/gcc-arm-none-eabi-10-2020-q4-major/arm-none-eabi/include/c++/10.2.1/bits/std_function.h ****     template<typename _Tp>
  91:/usr/share/gcc-arm-none-eabi-10-2020-q4-major/arm-none-eabi/include/c++/10.2.1/bits/std_function.h ****       _Tp&
  92:/usr/share/gcc-arm-none-eabi-10-2020-q4-major/arm-none-eabi/include/c++/10.2.1/bits/std_function.h ****       _M_access()
  93:/usr/share/gcc-arm-none-eabi-10-2020-q4-major/arm-none-eabi/include/c++/10.2.1/bits/std_function.h ****       { return *static_cast<_Tp*>(_M_access()); }
  94:/usr/share/gcc-arm-none-eabi-10-2020-q4-major/arm-none-eabi/include/c++/10.2.1/bits/std_function.h **** 
  95:/usr/share/gcc-arm-none-eabi-10-2020-q4-major/arm-none-eabi/include/c++/10.2.1/bits/std_function.h ****     template<typename _Tp>
  96:/usr/share/gcc-arm-none-eabi-10-2020-q4-major/arm-none-eabi/include/c++/10.2.1/bits/std_function.h ****       const _Tp&
  97:/usr/share/gcc-arm-none-eabi-10-2020-q4-major/arm-none-eabi/include/c++/10.2.1/bits/std_function.h ****       _M_access() const
  98:/usr/share/gcc-arm-none-eabi-10-2020-q4-major/arm-none-eabi/include/c++/10.2.1/bits/std_function.h ****       { return *static_cast<const _Tp*>(_M_access()); }
  99:/usr/share/gcc-arm-none-eabi-10-2020-q4-major/arm-none-eabi/include/c++/10.2.1/bits/std_function.h **** 
 100:/usr/share/gcc-arm-none-eabi-10-2020-q4-major/arm-none-eabi/include/c++/10.2.1/bits/std_function.h ****     _Nocopy_types _M_unused;
 101:/usr/share/gcc-arm-none-eabi-10-2020-q4-major/arm-none-eabi/include/c++/10.2.1/bits/std_function.h ****     char _M_pod_data[sizeof(_Nocopy_types)];
 102:/usr/share/gcc-arm-none-eabi-10-2020-q4-major/arm-none-eabi/include/c++/10.2.1/bits/std_function.h ****   };
 103:/usr/share/gcc-arm-none-eabi-10-2020-q4-major/arm-none-eabi/include/c++/10.2.1/bits/std_function.h **** 
 104:/usr/share/gcc-arm-none-eabi-10-2020-q4-major/arm-none-eabi/include/c++/10.2.1/bits/std_function.h ****   enum _Manager_operation
 105:/usr/share/gcc-arm-none-eabi-10-2020-q4-major/arm-none-eabi/include/c++/10.2.1/bits/std_function.h ****   {
 106:/usr/share/gcc-arm-none-eabi-10-2020-q4-major/arm-none-eabi/include/c++/10.2.1/bits/std_function.h ****     __get_type_info,
 107:/usr/share/gcc-arm-none-eabi-10-2020-q4-major/arm-none-eabi/include/c++/10.2.1/bits/std_function.h ****     __get_functor_ptr,
 108:/usr/share/gcc-arm-none-eabi-10-2020-q4-major/arm-none-eabi/include/c++/10.2.1/bits/std_function.h ****     __clone_functor,
 109:/usr/share/gcc-arm-none-eabi-10-2020-q4-major/arm-none-eabi/include/c++/10.2.1/bits/std_function.h ****     __destroy_functor
 110:/usr/share/gcc-arm-none-eabi-10-2020-q4-major/arm-none-eabi/include/c++/10.2.1/bits/std_function.h ****   };
 111:/usr/share/gcc-arm-none-eabi-10-2020-q4-major/arm-none-eabi/include/c++/10.2.1/bits/std_function.h **** 
 112:/usr/share/gcc-arm-none-eabi-10-2020-q4-major/arm-none-eabi/include/c++/10.2.1/bits/std_function.h ****   template<typename _Signature>
 113:/usr/share/gcc-arm-none-eabi-10-2020-q4-major/arm-none-eabi/include/c++/10.2.1/bits/std_function.h ****     class function;
 114:/usr/share/gcc-arm-none-eabi-10-2020-q4-major/arm-none-eabi/include/c++/10.2.1/bits/std_function.h **** 
 115:/usr/share/gcc-arm-none-eabi-10-2020-q4-major/arm-none-eabi/include/c++/10.2.1/bits/std_function.h ****   /// Base class of all polymorphic function object wrappers.
 116:/usr/share/gcc-arm-none-eabi-10-2020-q4-major/arm-none-eabi/include/c++/10.2.1/bits/std_function.h ****   class _Function_base
 117:/usr/share/gcc-arm-none-eabi-10-2020-q4-major/arm-none-eabi/include/c++/10.2.1/bits/std_function.h ****   {
 118:/usr/share/gcc-arm-none-eabi-10-2020-q4-major/arm-none-eabi/include/c++/10.2.1/bits/std_function.h ****   public:
 119:/usr/share/gcc-arm-none-eabi-10-2020-q4-major/arm-none-eabi/include/c++/10.2.1/bits/std_function.h ****     static const size_t _M_max_size = sizeof(_Nocopy_types);
 120:/usr/share/gcc-arm-none-eabi-10-2020-q4-major/arm-none-eabi/include/c++/10.2.1/bits/std_function.h ****     static const size_t _M_max_align = __alignof__(_Nocopy_types);
 121:/usr/share/gcc-arm-none-eabi-10-2020-q4-major/arm-none-eabi/include/c++/10.2.1/bits/std_function.h **** 
 122:/usr/share/gcc-arm-none-eabi-10-2020-q4-major/arm-none-eabi/include/c++/10.2.1/bits/std_function.h ****     template<typename _Functor>
 123:/usr/share/gcc-arm-none-eabi-10-2020-q4-major/arm-none-eabi/include/c++/10.2.1/bits/std_function.h ****       class _Base_manager
 124:/usr/share/gcc-arm-none-eabi-10-2020-q4-major/arm-none-eabi/include/c++/10.2.1/bits/std_function.h ****       {
 125:/usr/share/gcc-arm-none-eabi-10-2020-q4-major/arm-none-eabi/include/c++/10.2.1/bits/std_function.h ****       protected:
 126:/usr/share/gcc-arm-none-eabi-10-2020-q4-major/arm-none-eabi/include/c++/10.2.1/bits/std_function.h **** 	static const bool __stored_locally =
 127:/usr/share/gcc-arm-none-eabi-10-2020-q4-major/arm-none-eabi/include/c++/10.2.1/bits/std_function.h **** 	(__is_location_invariant<_Functor>::value
 128:/usr/share/gcc-arm-none-eabi-10-2020-q4-major/arm-none-eabi/include/c++/10.2.1/bits/std_function.h **** 	 && sizeof(_Functor) <= _M_max_size
 129:/usr/share/gcc-arm-none-eabi-10-2020-q4-major/arm-none-eabi/include/c++/10.2.1/bits/std_function.h **** 	 && __alignof__(_Functor) <= _M_max_align
 130:/usr/share/gcc-arm-none-eabi-10-2020-q4-major/arm-none-eabi/include/c++/10.2.1/bits/std_function.h **** 	 && (_M_max_align % __alignof__(_Functor) == 0));
 131:/usr/share/gcc-arm-none-eabi-10-2020-q4-major/arm-none-eabi/include/c++/10.2.1/bits/std_function.h **** 
 132:/usr/share/gcc-arm-none-eabi-10-2020-q4-major/arm-none-eabi/include/c++/10.2.1/bits/std_function.h **** 	typedef integral_constant<bool, __stored_locally> _Local_storage;
 133:/usr/share/gcc-arm-none-eabi-10-2020-q4-major/arm-none-eabi/include/c++/10.2.1/bits/std_function.h **** 
 134:/usr/share/gcc-arm-none-eabi-10-2020-q4-major/arm-none-eabi/include/c++/10.2.1/bits/std_function.h **** 	// Retrieve a pointer to the function object
 135:/usr/share/gcc-arm-none-eabi-10-2020-q4-major/arm-none-eabi/include/c++/10.2.1/bits/std_function.h **** 	static _Functor*
 136:/usr/share/gcc-arm-none-eabi-10-2020-q4-major/arm-none-eabi/include/c++/10.2.1/bits/std_function.h **** 	_M_get_pointer(const _Any_data& __source)
 137:/usr/share/gcc-arm-none-eabi-10-2020-q4-major/arm-none-eabi/include/c++/10.2.1/bits/std_function.h **** 	{
 138:/usr/share/gcc-arm-none-eabi-10-2020-q4-major/arm-none-eabi/include/c++/10.2.1/bits/std_function.h **** 	  if _GLIBCXX17_CONSTEXPR (__stored_locally)
 139:/usr/share/gcc-arm-none-eabi-10-2020-q4-major/arm-none-eabi/include/c++/10.2.1/bits/std_function.h **** 	    {
 140:/usr/share/gcc-arm-none-eabi-10-2020-q4-major/arm-none-eabi/include/c++/10.2.1/bits/std_function.h **** 	      const _Functor& __f = __source._M_access<_Functor>();
 141:/usr/share/gcc-arm-none-eabi-10-2020-q4-major/arm-none-eabi/include/c++/10.2.1/bits/std_function.h **** 	      return const_cast<_Functor*>(std::__addressof(__f));
 142:/usr/share/gcc-arm-none-eabi-10-2020-q4-major/arm-none-eabi/include/c++/10.2.1/bits/std_function.h **** 	    }
 143:/usr/share/gcc-arm-none-eabi-10-2020-q4-major/arm-none-eabi/include/c++/10.2.1/bits/std_function.h **** 	  else // have stored a pointer
 144:/usr/share/gcc-arm-none-eabi-10-2020-q4-major/arm-none-eabi/include/c++/10.2.1/bits/std_function.h **** 	    return __source._M_access<_Functor*>();
 145:/usr/share/gcc-arm-none-eabi-10-2020-q4-major/arm-none-eabi/include/c++/10.2.1/bits/std_function.h **** 	}
ARM GAS  /tmp/ccaL2bzX.s 			page 10


 146:/usr/share/gcc-arm-none-eabi-10-2020-q4-major/arm-none-eabi/include/c++/10.2.1/bits/std_function.h **** 
 147:/usr/share/gcc-arm-none-eabi-10-2020-q4-major/arm-none-eabi/include/c++/10.2.1/bits/std_function.h **** 	// Clone a location-invariant function object that fits within
 148:/usr/share/gcc-arm-none-eabi-10-2020-q4-major/arm-none-eabi/include/c++/10.2.1/bits/std_function.h **** 	// an _Any_data structure.
 149:/usr/share/gcc-arm-none-eabi-10-2020-q4-major/arm-none-eabi/include/c++/10.2.1/bits/std_function.h **** 	static void
 150:/usr/share/gcc-arm-none-eabi-10-2020-q4-major/arm-none-eabi/include/c++/10.2.1/bits/std_function.h **** 	_M_clone(_Any_data& __dest, const _Any_data& __source, true_type)
 151:/usr/share/gcc-arm-none-eabi-10-2020-q4-major/arm-none-eabi/include/c++/10.2.1/bits/std_function.h **** 	{
 152:/usr/share/gcc-arm-none-eabi-10-2020-q4-major/arm-none-eabi/include/c++/10.2.1/bits/std_function.h **** 	  ::new (__dest._M_access()) _Functor(__source._M_access<_Functor>());
 153:/usr/share/gcc-arm-none-eabi-10-2020-q4-major/arm-none-eabi/include/c++/10.2.1/bits/std_function.h **** 	}
 154:/usr/share/gcc-arm-none-eabi-10-2020-q4-major/arm-none-eabi/include/c++/10.2.1/bits/std_function.h **** 
 155:/usr/share/gcc-arm-none-eabi-10-2020-q4-major/arm-none-eabi/include/c++/10.2.1/bits/std_function.h **** 	// Clone a function object that is not location-invariant or
 156:/usr/share/gcc-arm-none-eabi-10-2020-q4-major/arm-none-eabi/include/c++/10.2.1/bits/std_function.h **** 	// that cannot fit into an _Any_data structure.
 157:/usr/share/gcc-arm-none-eabi-10-2020-q4-major/arm-none-eabi/include/c++/10.2.1/bits/std_function.h **** 	static void
 158:/usr/share/gcc-arm-none-eabi-10-2020-q4-major/arm-none-eabi/include/c++/10.2.1/bits/std_function.h **** 	_M_clone(_Any_data& __dest, const _Any_data& __source, false_type)
 159:/usr/share/gcc-arm-none-eabi-10-2020-q4-major/arm-none-eabi/include/c++/10.2.1/bits/std_function.h **** 	{
 160:/usr/share/gcc-arm-none-eabi-10-2020-q4-major/arm-none-eabi/include/c++/10.2.1/bits/std_function.h **** 	  __dest._M_access<_Functor*>() =
 161:/usr/share/gcc-arm-none-eabi-10-2020-q4-major/arm-none-eabi/include/c++/10.2.1/bits/std_function.h **** 	    new _Functor(*__source._M_access<const _Functor*>());
 162:/usr/share/gcc-arm-none-eabi-10-2020-q4-major/arm-none-eabi/include/c++/10.2.1/bits/std_function.h **** 	}
 163:/usr/share/gcc-arm-none-eabi-10-2020-q4-major/arm-none-eabi/include/c++/10.2.1/bits/std_function.h **** 
 164:/usr/share/gcc-arm-none-eabi-10-2020-q4-major/arm-none-eabi/include/c++/10.2.1/bits/std_function.h **** 	// Destroying a location-invariant object may still require
 165:/usr/share/gcc-arm-none-eabi-10-2020-q4-major/arm-none-eabi/include/c++/10.2.1/bits/std_function.h **** 	// destruction.
 166:/usr/share/gcc-arm-none-eabi-10-2020-q4-major/arm-none-eabi/include/c++/10.2.1/bits/std_function.h **** 	static void
 167:/usr/share/gcc-arm-none-eabi-10-2020-q4-major/arm-none-eabi/include/c++/10.2.1/bits/std_function.h **** 	_M_destroy(_Any_data& __victim, true_type)
 168:/usr/share/gcc-arm-none-eabi-10-2020-q4-major/arm-none-eabi/include/c++/10.2.1/bits/std_function.h **** 	{
 169:/usr/share/gcc-arm-none-eabi-10-2020-q4-major/arm-none-eabi/include/c++/10.2.1/bits/std_function.h **** 	  __victim._M_access<_Functor>().~_Functor();
 170:/usr/share/gcc-arm-none-eabi-10-2020-q4-major/arm-none-eabi/include/c++/10.2.1/bits/std_function.h **** 	}
 171:/usr/share/gcc-arm-none-eabi-10-2020-q4-major/arm-none-eabi/include/c++/10.2.1/bits/std_function.h **** 
 172:/usr/share/gcc-arm-none-eabi-10-2020-q4-major/arm-none-eabi/include/c++/10.2.1/bits/std_function.h **** 	// Destroying an object located on the heap.
 173:/usr/share/gcc-arm-none-eabi-10-2020-q4-major/arm-none-eabi/include/c++/10.2.1/bits/std_function.h **** 	static void
 174:/usr/share/gcc-arm-none-eabi-10-2020-q4-major/arm-none-eabi/include/c++/10.2.1/bits/std_function.h **** 	_M_destroy(_Any_data& __victim, false_type)
 175:/usr/share/gcc-arm-none-eabi-10-2020-q4-major/arm-none-eabi/include/c++/10.2.1/bits/std_function.h **** 	{
 176:/usr/share/gcc-arm-none-eabi-10-2020-q4-major/arm-none-eabi/include/c++/10.2.1/bits/std_function.h **** 	  delete __victim._M_access<_Functor*>();
 177:/usr/share/gcc-arm-none-eabi-10-2020-q4-major/arm-none-eabi/include/c++/10.2.1/bits/std_function.h **** 	}
 178:/usr/share/gcc-arm-none-eabi-10-2020-q4-major/arm-none-eabi/include/c++/10.2.1/bits/std_function.h **** 
 179:/usr/share/gcc-arm-none-eabi-10-2020-q4-major/arm-none-eabi/include/c++/10.2.1/bits/std_function.h ****       public:
 180:/usr/share/gcc-arm-none-eabi-10-2020-q4-major/arm-none-eabi/include/c++/10.2.1/bits/std_function.h **** 	static bool
 181:/usr/share/gcc-arm-none-eabi-10-2020-q4-major/arm-none-eabi/include/c++/10.2.1/bits/std_function.h **** 	_M_manager(_Any_data& __dest, const _Any_data& __source,
 182:/usr/share/gcc-arm-none-eabi-10-2020-q4-major/arm-none-eabi/include/c++/10.2.1/bits/std_function.h **** 		   _Manager_operation __op)
 183:/usr/share/gcc-arm-none-eabi-10-2020-q4-major/arm-none-eabi/include/c++/10.2.1/bits/std_function.h **** 	{
 184:/usr/share/gcc-arm-none-eabi-10-2020-q4-major/arm-none-eabi/include/c++/10.2.1/bits/std_function.h **** 	  switch (__op)
 185:/usr/share/gcc-arm-none-eabi-10-2020-q4-major/arm-none-eabi/include/c++/10.2.1/bits/std_function.h **** 	    {
 186:/usr/share/gcc-arm-none-eabi-10-2020-q4-major/arm-none-eabi/include/c++/10.2.1/bits/std_function.h **** #if __cpp_rtti
 187:/usr/share/gcc-arm-none-eabi-10-2020-q4-major/arm-none-eabi/include/c++/10.2.1/bits/std_function.h **** 	    case __get_type_info:
 188:/usr/share/gcc-arm-none-eabi-10-2020-q4-major/arm-none-eabi/include/c++/10.2.1/bits/std_function.h **** 	      __dest._M_access<const type_info*>() = &typeid(_Functor);
 189:/usr/share/gcc-arm-none-eabi-10-2020-q4-major/arm-none-eabi/include/c++/10.2.1/bits/std_function.h **** 	      break;
 190:/usr/share/gcc-arm-none-eabi-10-2020-q4-major/arm-none-eabi/include/c++/10.2.1/bits/std_function.h **** #endif
 191:/usr/share/gcc-arm-none-eabi-10-2020-q4-major/arm-none-eabi/include/c++/10.2.1/bits/std_function.h **** 	    case __get_functor_ptr:
 192:/usr/share/gcc-arm-none-eabi-10-2020-q4-major/arm-none-eabi/include/c++/10.2.1/bits/std_function.h **** 	      __dest._M_access<_Functor*>() = _M_get_pointer(__source);
 193:/usr/share/gcc-arm-none-eabi-10-2020-q4-major/arm-none-eabi/include/c++/10.2.1/bits/std_function.h **** 	      break;
 194:/usr/share/gcc-arm-none-eabi-10-2020-q4-major/arm-none-eabi/include/c++/10.2.1/bits/std_function.h **** 
 195:/usr/share/gcc-arm-none-eabi-10-2020-q4-major/arm-none-eabi/include/c++/10.2.1/bits/std_function.h **** 	    case __clone_functor:
 196:/usr/share/gcc-arm-none-eabi-10-2020-q4-major/arm-none-eabi/include/c++/10.2.1/bits/std_function.h **** 	      _M_clone(__dest, __source, _Local_storage());
 197:/usr/share/gcc-arm-none-eabi-10-2020-q4-major/arm-none-eabi/include/c++/10.2.1/bits/std_function.h **** 	      break;
 198:/usr/share/gcc-arm-none-eabi-10-2020-q4-major/arm-none-eabi/include/c++/10.2.1/bits/std_function.h **** 
 199:/usr/share/gcc-arm-none-eabi-10-2020-q4-major/arm-none-eabi/include/c++/10.2.1/bits/std_function.h **** 	    case __destroy_functor:
 200:/usr/share/gcc-arm-none-eabi-10-2020-q4-major/arm-none-eabi/include/c++/10.2.1/bits/std_function.h **** 	      _M_destroy(__dest, _Local_storage());
 201:/usr/share/gcc-arm-none-eabi-10-2020-q4-major/arm-none-eabi/include/c++/10.2.1/bits/std_function.h **** 	      break;
 202:/usr/share/gcc-arm-none-eabi-10-2020-q4-major/arm-none-eabi/include/c++/10.2.1/bits/std_function.h **** 	    }
ARM GAS  /tmp/ccaL2bzX.s 			page 11


 203:/usr/share/gcc-arm-none-eabi-10-2020-q4-major/arm-none-eabi/include/c++/10.2.1/bits/std_function.h **** 	  return false;
 204:/usr/share/gcc-arm-none-eabi-10-2020-q4-major/arm-none-eabi/include/c++/10.2.1/bits/std_function.h **** 	}
 205:/usr/share/gcc-arm-none-eabi-10-2020-q4-major/arm-none-eabi/include/c++/10.2.1/bits/std_function.h **** 
 206:/usr/share/gcc-arm-none-eabi-10-2020-q4-major/arm-none-eabi/include/c++/10.2.1/bits/std_function.h **** 	static void
 207:/usr/share/gcc-arm-none-eabi-10-2020-q4-major/arm-none-eabi/include/c++/10.2.1/bits/std_function.h **** 	_M_init_functor(_Any_data& __functor, _Functor&& __f)
 208:/usr/share/gcc-arm-none-eabi-10-2020-q4-major/arm-none-eabi/include/c++/10.2.1/bits/std_function.h **** 	{ _M_init_functor(__functor, std::move(__f), _Local_storage()); }
 209:/usr/share/gcc-arm-none-eabi-10-2020-q4-major/arm-none-eabi/include/c++/10.2.1/bits/std_function.h **** 
 210:/usr/share/gcc-arm-none-eabi-10-2020-q4-major/arm-none-eabi/include/c++/10.2.1/bits/std_function.h **** 	template<typename _Signature>
 211:/usr/share/gcc-arm-none-eabi-10-2020-q4-major/arm-none-eabi/include/c++/10.2.1/bits/std_function.h **** 	  static bool
 212:/usr/share/gcc-arm-none-eabi-10-2020-q4-major/arm-none-eabi/include/c++/10.2.1/bits/std_function.h **** 	  _M_not_empty_function(const function<_Signature>& __f)
 213:/usr/share/gcc-arm-none-eabi-10-2020-q4-major/arm-none-eabi/include/c++/10.2.1/bits/std_function.h **** 	  { return static_cast<bool>(__f); }
 214:/usr/share/gcc-arm-none-eabi-10-2020-q4-major/arm-none-eabi/include/c++/10.2.1/bits/std_function.h **** 
 215:/usr/share/gcc-arm-none-eabi-10-2020-q4-major/arm-none-eabi/include/c++/10.2.1/bits/std_function.h **** 	template<typename _Tp>
 216:/usr/share/gcc-arm-none-eabi-10-2020-q4-major/arm-none-eabi/include/c++/10.2.1/bits/std_function.h **** 	  static bool
 217:/usr/share/gcc-arm-none-eabi-10-2020-q4-major/arm-none-eabi/include/c++/10.2.1/bits/std_function.h **** 	  _M_not_empty_function(_Tp* __fp)
 218:/usr/share/gcc-arm-none-eabi-10-2020-q4-major/arm-none-eabi/include/c++/10.2.1/bits/std_function.h **** 	  { return __fp != nullptr; }
 219:/usr/share/gcc-arm-none-eabi-10-2020-q4-major/arm-none-eabi/include/c++/10.2.1/bits/std_function.h **** 
 220:/usr/share/gcc-arm-none-eabi-10-2020-q4-major/arm-none-eabi/include/c++/10.2.1/bits/std_function.h **** 	template<typename _Class, typename _Tp>
 221:/usr/share/gcc-arm-none-eabi-10-2020-q4-major/arm-none-eabi/include/c++/10.2.1/bits/std_function.h **** 	  static bool
 222:/usr/share/gcc-arm-none-eabi-10-2020-q4-major/arm-none-eabi/include/c++/10.2.1/bits/std_function.h **** 	  _M_not_empty_function(_Tp _Class::* __mp)
 223:/usr/share/gcc-arm-none-eabi-10-2020-q4-major/arm-none-eabi/include/c++/10.2.1/bits/std_function.h **** 	  { return __mp != nullptr; }
 224:/usr/share/gcc-arm-none-eabi-10-2020-q4-major/arm-none-eabi/include/c++/10.2.1/bits/std_function.h **** 
 225:/usr/share/gcc-arm-none-eabi-10-2020-q4-major/arm-none-eabi/include/c++/10.2.1/bits/std_function.h **** 	template<typename _Tp>
 226:/usr/share/gcc-arm-none-eabi-10-2020-q4-major/arm-none-eabi/include/c++/10.2.1/bits/std_function.h **** 	  static bool
 227:/usr/share/gcc-arm-none-eabi-10-2020-q4-major/arm-none-eabi/include/c++/10.2.1/bits/std_function.h **** 	  _M_not_empty_function(const _Tp&)
 228:/usr/share/gcc-arm-none-eabi-10-2020-q4-major/arm-none-eabi/include/c++/10.2.1/bits/std_function.h **** 	  { return true; }
 229:/usr/share/gcc-arm-none-eabi-10-2020-q4-major/arm-none-eabi/include/c++/10.2.1/bits/std_function.h **** 
 230:/usr/share/gcc-arm-none-eabi-10-2020-q4-major/arm-none-eabi/include/c++/10.2.1/bits/std_function.h ****       private:
 231:/usr/share/gcc-arm-none-eabi-10-2020-q4-major/arm-none-eabi/include/c++/10.2.1/bits/std_function.h **** 	static void
 232:/usr/share/gcc-arm-none-eabi-10-2020-q4-major/arm-none-eabi/include/c++/10.2.1/bits/std_function.h **** 	_M_init_functor(_Any_data& __functor, _Functor&& __f, true_type)
 233:/usr/share/gcc-arm-none-eabi-10-2020-q4-major/arm-none-eabi/include/c++/10.2.1/bits/std_function.h **** 	{ ::new (__functor._M_access()) _Functor(std::move(__f)); }
 234:/usr/share/gcc-arm-none-eabi-10-2020-q4-major/arm-none-eabi/include/c++/10.2.1/bits/std_function.h **** 
 235:/usr/share/gcc-arm-none-eabi-10-2020-q4-major/arm-none-eabi/include/c++/10.2.1/bits/std_function.h **** 	static void
 236:/usr/share/gcc-arm-none-eabi-10-2020-q4-major/arm-none-eabi/include/c++/10.2.1/bits/std_function.h **** 	_M_init_functor(_Any_data& __functor, _Functor&& __f, false_type)
 237:/usr/share/gcc-arm-none-eabi-10-2020-q4-major/arm-none-eabi/include/c++/10.2.1/bits/std_function.h **** 	{ __functor._M_access<_Functor*>() = new _Functor(std::move(__f)); }
 238:/usr/share/gcc-arm-none-eabi-10-2020-q4-major/arm-none-eabi/include/c++/10.2.1/bits/std_function.h ****       };
 239:/usr/share/gcc-arm-none-eabi-10-2020-q4-major/arm-none-eabi/include/c++/10.2.1/bits/std_function.h **** 
 240:/usr/share/gcc-arm-none-eabi-10-2020-q4-major/arm-none-eabi/include/c++/10.2.1/bits/std_function.h ****     _Function_base() : _M_manager(nullptr) { }
 123              		.loc 3 240 5
 124              		.cfi_startproc
 125              		@ args = 0, pretend = 0, frame = 8
 126              		@ frame_needed = 1, uses_anonymous_args = 0
 127              		@ link register save eliminated.
 128 0000 80B4     		push	{r7}
 129              	.LCFI12:
 130              		.cfi_def_cfa_offset 4
 131              		.cfi_offset 7, -4
 132 0002 83B0     		sub	sp, sp, #12
 133              	.LCFI13:
 134              		.cfi_def_cfa_offset 16
 135 0004 00AF     		add	r7, sp, #0
 136              	.LCFI14:
 137              		.cfi_def_cfa_register 7
 138 0006 7860     		str	r0, [r7, #4]
 139              	.LBB8:
 140              		.loc 3 240 42
 141 0008 7B68     		ldr	r3, [r7, #4]
ARM GAS  /tmp/ccaL2bzX.s 			page 12


 142 000a 0022     		movs	r2, #0
 143 000c 9A60     		str	r2, [r3, #8]
 144              	.LBE8:
 145              		.loc 3 240 46
 146 000e 7B68     		ldr	r3, [r7, #4]
 147 0010 1846     		mov	r0, r3
 148 0012 0C37     		adds	r7, r7, #12
 149              	.LCFI15:
 150              		.cfi_def_cfa_offset 4
 151 0014 BD46     		mov	sp, r7
 152              	.LCFI16:
 153              		.cfi_def_cfa_register 13
 154              		@ sp needed
 155 0016 5DF8047B 		ldr	r7, [sp], #4
 156              	.LCFI17:
 157              		.cfi_restore 7
 158              		.cfi_def_cfa_offset 0
 159 001a 7047     		bx	lr
 160              		.cfi_endproc
 161              	.LFE855:
 163              		.weak	_ZNSt14_Function_baseC1Ev
 164              		.thumb_set _ZNSt14_Function_baseC1Ev,_ZNSt14_Function_baseC2Ev
 165              		.section	.text._ZNSt14_Function_baseD2Ev,"axG",%progbits,_ZNSt14_Function_baseD5Ev,comdat
 166              		.align	1
 167              		.weak	_ZNSt14_Function_baseD2Ev
 168              		.syntax unified
 169              		.thumb
 170              		.thumb_func
 171              		.fpu fpv4-sp-d16
 173              	_ZNSt14_Function_baseD2Ev:
 174              	.LFB858:
 241:/usr/share/gcc-arm-none-eabi-10-2020-q4-major/arm-none-eabi/include/c++/10.2.1/bits/std_function.h **** 
 242:/usr/share/gcc-arm-none-eabi-10-2020-q4-major/arm-none-eabi/include/c++/10.2.1/bits/std_function.h ****     ~_Function_base()
 175              		.loc 3 242 5
 176              		.cfi_startproc
 177              		@ args = 0, pretend = 0, frame = 8
 178              		@ frame_needed = 1, uses_anonymous_args = 0
 179 0000 80B5     		push	{r7, lr}
 180              	.LCFI18:
 181              		.cfi_def_cfa_offset 8
 182              		.cfi_offset 7, -8
 183              		.cfi_offset 14, -4
 184 0002 82B0     		sub	sp, sp, #8
 185              	.LCFI19:
 186              		.cfi_def_cfa_offset 16
 187 0004 00AF     		add	r7, sp, #0
 188              	.LCFI20:
 189              		.cfi_def_cfa_register 7
 190 0006 7860     		str	r0, [r7, #4]
 191              	.LBB9:
 243:/usr/share/gcc-arm-none-eabi-10-2020-q4-major/arm-none-eabi/include/c++/10.2.1/bits/std_function.h ****     {
 244:/usr/share/gcc-arm-none-eabi-10-2020-q4-major/arm-none-eabi/include/c++/10.2.1/bits/std_function.h ****       if (_M_manager)
 192              		.loc 3 244 11
 193 0008 7B68     		ldr	r3, [r7, #4]
 194 000a 9B68     		ldr	r3, [r3, #8]
 195              		.loc 3 244 7
 196 000c 002B     		cmp	r3, #0
ARM GAS  /tmp/ccaL2bzX.s 			page 13


 197 000e 05D0     		beq	.L8
 245:/usr/share/gcc-arm-none-eabi-10-2020-q4-major/arm-none-eabi/include/c++/10.2.1/bits/std_function.h **** 	_M_manager(_M_functor, _M_functor, __destroy_functor);
 198              		.loc 3 245 2
 199 0010 7B68     		ldr	r3, [r7, #4]
 200 0012 9B68     		ldr	r3, [r3, #8]
 201              		.loc 3 245 13
 202 0014 7868     		ldr	r0, [r7, #4]
 203              		.loc 3 245 25
 204 0016 7968     		ldr	r1, [r7, #4]
 205              		.loc 3 245 12
 206 0018 0322     		movs	r2, #3
 207 001a 9847     		blx	r3
 208              	.LVL0:
 209              	.L8:
 210              	.LBE9:
 246:/usr/share/gcc-arm-none-eabi-10-2020-q4-major/arm-none-eabi/include/c++/10.2.1/bits/std_function.h ****     }
 211              		.loc 3 246 5
 212 001c 7B68     		ldr	r3, [r7, #4]
 213 001e 1846     		mov	r0, r3
 214 0020 0837     		adds	r7, r7, #8
 215              	.LCFI21:
 216              		.cfi_def_cfa_offset 8
 217 0022 BD46     		mov	sp, r7
 218              	.LCFI22:
 219              		.cfi_def_cfa_register 13
 220              		@ sp needed
 221 0024 80BD     		pop	{r7, pc}
 222              		.cfi_endproc
 223              	.LFE858:
 225              		.weak	_ZNSt14_Function_baseD1Ev
 226              		.thumb_set _ZNSt14_Function_baseD1Ev,_ZNSt14_Function_baseD2Ev
 227              		.section	.text._ZNKSt14_Function_base8_M_emptyEv,"axG",%progbits,_ZNKSt14_Function_base8_M_emptyEv
 228              		.align	1
 229              		.weak	_ZNKSt14_Function_base8_M_emptyEv
 230              		.syntax unified
 231              		.thumb
 232              		.thumb_func
 233              		.fpu fpv4-sp-d16
 235              	_ZNKSt14_Function_base8_M_emptyEv:
 236              	.LFB860:
 247:/usr/share/gcc-arm-none-eabi-10-2020-q4-major/arm-none-eabi/include/c++/10.2.1/bits/std_function.h **** 
 248:/usr/share/gcc-arm-none-eabi-10-2020-q4-major/arm-none-eabi/include/c++/10.2.1/bits/std_function.h ****     bool _M_empty() const { return !_M_manager; }
 237              		.loc 3 248 10
 238              		.cfi_startproc
 239              		@ args = 0, pretend = 0, frame = 8
 240              		@ frame_needed = 1, uses_anonymous_args = 0
 241              		@ link register save eliminated.
 242 0000 80B4     		push	{r7}
 243              	.LCFI23:
 244              		.cfi_def_cfa_offset 4
 245              		.cfi_offset 7, -4
 246 0002 83B0     		sub	sp, sp, #12
 247              	.LCFI24:
 248              		.cfi_def_cfa_offset 16
 249 0004 00AF     		add	r7, sp, #0
 250              	.LCFI25:
 251              		.cfi_def_cfa_register 7
ARM GAS  /tmp/ccaL2bzX.s 			page 14


 252 0006 7860     		str	r0, [r7, #4]
 253              		.loc 3 248 37
 254 0008 7B68     		ldr	r3, [r7, #4]
 255 000a 9B68     		ldr	r3, [r3, #8]
 256 000c 002B     		cmp	r3, #0
 257 000e 0CBF     		ite	eq
 258 0010 0123     		moveq	r3, #1
 259 0012 0023     		movne	r3, #0
 260 0014 DBB2     		uxtb	r3, r3
 261              		.loc 3 248 49
 262 0016 1846     		mov	r0, r3
 263 0018 0C37     		adds	r7, r7, #12
 264              	.LCFI26:
 265              		.cfi_def_cfa_offset 4
 266 001a BD46     		mov	sp, r7
 267              	.LCFI27:
 268              		.cfi_def_cfa_register 13
 269              		@ sp needed
 270 001c 5DF8047B 		ldr	r7, [sp], #4
 271              	.LCFI28:
 272              		.cfi_restore 7
 273              		.cfi_def_cfa_offset 0
 274 0020 7047     		bx	lr
 275              		.cfi_endproc
 276              	.LFE860:
 278              		.section	.text._ZNSt14numeric_limitsIfE7epsilonEv,"axG",%progbits,_ZNSt14numeric_limitsIfE7epsilon
 279              		.align	1
 280              		.weak	_ZNSt14numeric_limitsIfE7epsilonEv
 281              		.syntax unified
 282              		.thumb
 283              		.thumb_func
 284              		.fpu fpv4-sp-d16
 286              	_ZNSt14numeric_limitsIfE7epsilonEv:
 287              	.LFB1125:
 288              		.file 4 "/usr/share/gcc-arm-none-eabi-10-2020-q4-major/arm-none-eabi/include/c++/10.2.1/limits"
   1:/usr/share/gcc-arm-none-eabi-10-2020-q4-major/arm-none-eabi/include/c++/10.2.1/limits **** // The template and inlines for the numeric_limits classes. -*- C++ -*-
   2:/usr/share/gcc-arm-none-eabi-10-2020-q4-major/arm-none-eabi/include/c++/10.2.1/limits **** 
   3:/usr/share/gcc-arm-none-eabi-10-2020-q4-major/arm-none-eabi/include/c++/10.2.1/limits **** // Copyright (C) 1999-2020 Free Software Foundation, Inc.
   4:/usr/share/gcc-arm-none-eabi-10-2020-q4-major/arm-none-eabi/include/c++/10.2.1/limits **** //
   5:/usr/share/gcc-arm-none-eabi-10-2020-q4-major/arm-none-eabi/include/c++/10.2.1/limits **** // This file is part of the GNU ISO C++ Library.  This library is free
   6:/usr/share/gcc-arm-none-eabi-10-2020-q4-major/arm-none-eabi/include/c++/10.2.1/limits **** // software; you can redistribute it and/or modify it under the
   7:/usr/share/gcc-arm-none-eabi-10-2020-q4-major/arm-none-eabi/include/c++/10.2.1/limits **** // terms of the GNU General Public License as published by the
   8:/usr/share/gcc-arm-none-eabi-10-2020-q4-major/arm-none-eabi/include/c++/10.2.1/limits **** // Free Software Foundation; either version 3, or (at your option)
   9:/usr/share/gcc-arm-none-eabi-10-2020-q4-major/arm-none-eabi/include/c++/10.2.1/limits **** // any later version.
  10:/usr/share/gcc-arm-none-eabi-10-2020-q4-major/arm-none-eabi/include/c++/10.2.1/limits **** 
  11:/usr/share/gcc-arm-none-eabi-10-2020-q4-major/arm-none-eabi/include/c++/10.2.1/limits **** // This library is distributed in the hope that it will be useful,
  12:/usr/share/gcc-arm-none-eabi-10-2020-q4-major/arm-none-eabi/include/c++/10.2.1/limits **** // but WITHOUT ANY WARRANTY; without even the implied warranty of
  13:/usr/share/gcc-arm-none-eabi-10-2020-q4-major/arm-none-eabi/include/c++/10.2.1/limits **** // MERCHANTABILITY or FITNESS FOR A PARTICULAR PURPOSE.  See the
  14:/usr/share/gcc-arm-none-eabi-10-2020-q4-major/arm-none-eabi/include/c++/10.2.1/limits **** // GNU General Public License for more details.
  15:/usr/share/gcc-arm-none-eabi-10-2020-q4-major/arm-none-eabi/include/c++/10.2.1/limits **** 
  16:/usr/share/gcc-arm-none-eabi-10-2020-q4-major/arm-none-eabi/include/c++/10.2.1/limits **** // Under Section 7 of GPL version 3, you are granted additional
  17:/usr/share/gcc-arm-none-eabi-10-2020-q4-major/arm-none-eabi/include/c++/10.2.1/limits **** // permissions described in the GCC Runtime Library Exception, version
  18:/usr/share/gcc-arm-none-eabi-10-2020-q4-major/arm-none-eabi/include/c++/10.2.1/limits **** // 3.1, as published by the Free Software Foundation.
  19:/usr/share/gcc-arm-none-eabi-10-2020-q4-major/arm-none-eabi/include/c++/10.2.1/limits **** 
  20:/usr/share/gcc-arm-none-eabi-10-2020-q4-major/arm-none-eabi/include/c++/10.2.1/limits **** // You should have received a copy of the GNU General Public License and
  21:/usr/share/gcc-arm-none-eabi-10-2020-q4-major/arm-none-eabi/include/c++/10.2.1/limits **** // a copy of the GCC Runtime Library Exception along with this program;
  22:/usr/share/gcc-arm-none-eabi-10-2020-q4-major/arm-none-eabi/include/c++/10.2.1/limits **** // see the files COPYING3 and COPYING.RUNTIME respectively.  If not, see
ARM GAS  /tmp/ccaL2bzX.s 			page 15


  23:/usr/share/gcc-arm-none-eabi-10-2020-q4-major/arm-none-eabi/include/c++/10.2.1/limits **** // <http://www.gnu.org/licenses/>.
  24:/usr/share/gcc-arm-none-eabi-10-2020-q4-major/arm-none-eabi/include/c++/10.2.1/limits **** 
  25:/usr/share/gcc-arm-none-eabi-10-2020-q4-major/arm-none-eabi/include/c++/10.2.1/limits **** /** @file include/limits
  26:/usr/share/gcc-arm-none-eabi-10-2020-q4-major/arm-none-eabi/include/c++/10.2.1/limits ****  *  This is a Standard C++ Library header.
  27:/usr/share/gcc-arm-none-eabi-10-2020-q4-major/arm-none-eabi/include/c++/10.2.1/limits ****  */
  28:/usr/share/gcc-arm-none-eabi-10-2020-q4-major/arm-none-eabi/include/c++/10.2.1/limits **** 
  29:/usr/share/gcc-arm-none-eabi-10-2020-q4-major/arm-none-eabi/include/c++/10.2.1/limits **** // Note: this is not a conforming implementation.
  30:/usr/share/gcc-arm-none-eabi-10-2020-q4-major/arm-none-eabi/include/c++/10.2.1/limits **** // Written by Gabriel Dos Reis <gdr@codesourcery.com>
  31:/usr/share/gcc-arm-none-eabi-10-2020-q4-major/arm-none-eabi/include/c++/10.2.1/limits **** 
  32:/usr/share/gcc-arm-none-eabi-10-2020-q4-major/arm-none-eabi/include/c++/10.2.1/limits **** //
  33:/usr/share/gcc-arm-none-eabi-10-2020-q4-major/arm-none-eabi/include/c++/10.2.1/limits **** // ISO 14882:1998
  34:/usr/share/gcc-arm-none-eabi-10-2020-q4-major/arm-none-eabi/include/c++/10.2.1/limits **** // 18.2.1
  35:/usr/share/gcc-arm-none-eabi-10-2020-q4-major/arm-none-eabi/include/c++/10.2.1/limits **** //
  36:/usr/share/gcc-arm-none-eabi-10-2020-q4-major/arm-none-eabi/include/c++/10.2.1/limits **** 
  37:/usr/share/gcc-arm-none-eabi-10-2020-q4-major/arm-none-eabi/include/c++/10.2.1/limits **** #ifndef _GLIBCXX_NUMERIC_LIMITS
  38:/usr/share/gcc-arm-none-eabi-10-2020-q4-major/arm-none-eabi/include/c++/10.2.1/limits **** #define _GLIBCXX_NUMERIC_LIMITS 1
  39:/usr/share/gcc-arm-none-eabi-10-2020-q4-major/arm-none-eabi/include/c++/10.2.1/limits **** 
  40:/usr/share/gcc-arm-none-eabi-10-2020-q4-major/arm-none-eabi/include/c++/10.2.1/limits **** #pragma GCC system_header
  41:/usr/share/gcc-arm-none-eabi-10-2020-q4-major/arm-none-eabi/include/c++/10.2.1/limits **** 
  42:/usr/share/gcc-arm-none-eabi-10-2020-q4-major/arm-none-eabi/include/c++/10.2.1/limits **** #include <bits/c++config.h>
  43:/usr/share/gcc-arm-none-eabi-10-2020-q4-major/arm-none-eabi/include/c++/10.2.1/limits **** 
  44:/usr/share/gcc-arm-none-eabi-10-2020-q4-major/arm-none-eabi/include/c++/10.2.1/limits **** //
  45:/usr/share/gcc-arm-none-eabi-10-2020-q4-major/arm-none-eabi/include/c++/10.2.1/limits **** // The numeric_limits<> traits document implementation-defined aspects
  46:/usr/share/gcc-arm-none-eabi-10-2020-q4-major/arm-none-eabi/include/c++/10.2.1/limits **** // of fundamental arithmetic data types (integers and floating points).
  47:/usr/share/gcc-arm-none-eabi-10-2020-q4-major/arm-none-eabi/include/c++/10.2.1/limits **** // From Standard C++ point of view, there are 14 such types:
  48:/usr/share/gcc-arm-none-eabi-10-2020-q4-major/arm-none-eabi/include/c++/10.2.1/limits **** //   * integers
  49:/usr/share/gcc-arm-none-eabi-10-2020-q4-major/arm-none-eabi/include/c++/10.2.1/limits **** //         bool							(1)
  50:/usr/share/gcc-arm-none-eabi-10-2020-q4-major/arm-none-eabi/include/c++/10.2.1/limits **** //         char, signed char, unsigned char, wchar_t            (4)
  51:/usr/share/gcc-arm-none-eabi-10-2020-q4-major/arm-none-eabi/include/c++/10.2.1/limits **** //         short, unsigned short				(2)
  52:/usr/share/gcc-arm-none-eabi-10-2020-q4-major/arm-none-eabi/include/c++/10.2.1/limits **** //         int, unsigned					(2)
  53:/usr/share/gcc-arm-none-eabi-10-2020-q4-major/arm-none-eabi/include/c++/10.2.1/limits **** //         long, unsigned long					(2)
  54:/usr/share/gcc-arm-none-eabi-10-2020-q4-major/arm-none-eabi/include/c++/10.2.1/limits **** //
  55:/usr/share/gcc-arm-none-eabi-10-2020-q4-major/arm-none-eabi/include/c++/10.2.1/limits **** //   * floating points
  56:/usr/share/gcc-arm-none-eabi-10-2020-q4-major/arm-none-eabi/include/c++/10.2.1/limits **** //         float						(1)
  57:/usr/share/gcc-arm-none-eabi-10-2020-q4-major/arm-none-eabi/include/c++/10.2.1/limits **** //         double						(1)
  58:/usr/share/gcc-arm-none-eabi-10-2020-q4-major/arm-none-eabi/include/c++/10.2.1/limits **** //         long double						(1)
  59:/usr/share/gcc-arm-none-eabi-10-2020-q4-major/arm-none-eabi/include/c++/10.2.1/limits **** //
  60:/usr/share/gcc-arm-none-eabi-10-2020-q4-major/arm-none-eabi/include/c++/10.2.1/limits **** // GNU C++ understands (where supported by the host C-library)
  61:/usr/share/gcc-arm-none-eabi-10-2020-q4-major/arm-none-eabi/include/c++/10.2.1/limits **** //   * integer
  62:/usr/share/gcc-arm-none-eabi-10-2020-q4-major/arm-none-eabi/include/c++/10.2.1/limits **** //         long long, unsigned long long			(2)
  63:/usr/share/gcc-arm-none-eabi-10-2020-q4-major/arm-none-eabi/include/c++/10.2.1/limits **** //
  64:/usr/share/gcc-arm-none-eabi-10-2020-q4-major/arm-none-eabi/include/c++/10.2.1/limits **** // which brings us to 16 fundamental arithmetic data types in GNU C++.
  65:/usr/share/gcc-arm-none-eabi-10-2020-q4-major/arm-none-eabi/include/c++/10.2.1/limits **** //
  66:/usr/share/gcc-arm-none-eabi-10-2020-q4-major/arm-none-eabi/include/c++/10.2.1/limits **** //
  67:/usr/share/gcc-arm-none-eabi-10-2020-q4-major/arm-none-eabi/include/c++/10.2.1/limits **** // Since a numeric_limits<> is a bit tricky to get right, we rely on
  68:/usr/share/gcc-arm-none-eabi-10-2020-q4-major/arm-none-eabi/include/c++/10.2.1/limits **** // an interface composed of macros which should be defined in config/os
  69:/usr/share/gcc-arm-none-eabi-10-2020-q4-major/arm-none-eabi/include/c++/10.2.1/limits **** // or config/cpu when they differ from the generic (read arbitrary)
  70:/usr/share/gcc-arm-none-eabi-10-2020-q4-major/arm-none-eabi/include/c++/10.2.1/limits **** // definitions given here.
  71:/usr/share/gcc-arm-none-eabi-10-2020-q4-major/arm-none-eabi/include/c++/10.2.1/limits **** //
  72:/usr/share/gcc-arm-none-eabi-10-2020-q4-major/arm-none-eabi/include/c++/10.2.1/limits **** 
  73:/usr/share/gcc-arm-none-eabi-10-2020-q4-major/arm-none-eabi/include/c++/10.2.1/limits **** // These values can be overridden in the target configuration file.
  74:/usr/share/gcc-arm-none-eabi-10-2020-q4-major/arm-none-eabi/include/c++/10.2.1/limits **** // The default values are appropriate for many 32-bit targets.
  75:/usr/share/gcc-arm-none-eabi-10-2020-q4-major/arm-none-eabi/include/c++/10.2.1/limits **** 
  76:/usr/share/gcc-arm-none-eabi-10-2020-q4-major/arm-none-eabi/include/c++/10.2.1/limits **** // GCC only intrinsically supports modulo integral types.  The only remaining
  77:/usr/share/gcc-arm-none-eabi-10-2020-q4-major/arm-none-eabi/include/c++/10.2.1/limits **** // integral exceptional values is division by zero.  Only targets that do not
  78:/usr/share/gcc-arm-none-eabi-10-2020-q4-major/arm-none-eabi/include/c++/10.2.1/limits **** // signal division by zero in some "hard to ignore" way should use false.
  79:/usr/share/gcc-arm-none-eabi-10-2020-q4-major/arm-none-eabi/include/c++/10.2.1/limits **** #ifndef __glibcxx_integral_traps
ARM GAS  /tmp/ccaL2bzX.s 			page 16


  80:/usr/share/gcc-arm-none-eabi-10-2020-q4-major/arm-none-eabi/include/c++/10.2.1/limits **** # define __glibcxx_integral_traps true
  81:/usr/share/gcc-arm-none-eabi-10-2020-q4-major/arm-none-eabi/include/c++/10.2.1/limits **** #endif
  82:/usr/share/gcc-arm-none-eabi-10-2020-q4-major/arm-none-eabi/include/c++/10.2.1/limits **** 
  83:/usr/share/gcc-arm-none-eabi-10-2020-q4-major/arm-none-eabi/include/c++/10.2.1/limits **** // float
  84:/usr/share/gcc-arm-none-eabi-10-2020-q4-major/arm-none-eabi/include/c++/10.2.1/limits **** //
  85:/usr/share/gcc-arm-none-eabi-10-2020-q4-major/arm-none-eabi/include/c++/10.2.1/limits **** 
  86:/usr/share/gcc-arm-none-eabi-10-2020-q4-major/arm-none-eabi/include/c++/10.2.1/limits **** // Default values.  Should be overridden in configuration files if necessary.
  87:/usr/share/gcc-arm-none-eabi-10-2020-q4-major/arm-none-eabi/include/c++/10.2.1/limits **** 
  88:/usr/share/gcc-arm-none-eabi-10-2020-q4-major/arm-none-eabi/include/c++/10.2.1/limits **** #ifndef __glibcxx_float_has_denorm_loss
  89:/usr/share/gcc-arm-none-eabi-10-2020-q4-major/arm-none-eabi/include/c++/10.2.1/limits **** #  define __glibcxx_float_has_denorm_loss false
  90:/usr/share/gcc-arm-none-eabi-10-2020-q4-major/arm-none-eabi/include/c++/10.2.1/limits **** #endif
  91:/usr/share/gcc-arm-none-eabi-10-2020-q4-major/arm-none-eabi/include/c++/10.2.1/limits **** #ifndef __glibcxx_float_traps
  92:/usr/share/gcc-arm-none-eabi-10-2020-q4-major/arm-none-eabi/include/c++/10.2.1/limits **** #  define __glibcxx_float_traps false
  93:/usr/share/gcc-arm-none-eabi-10-2020-q4-major/arm-none-eabi/include/c++/10.2.1/limits **** #endif
  94:/usr/share/gcc-arm-none-eabi-10-2020-q4-major/arm-none-eabi/include/c++/10.2.1/limits **** #ifndef __glibcxx_float_tinyness_before
  95:/usr/share/gcc-arm-none-eabi-10-2020-q4-major/arm-none-eabi/include/c++/10.2.1/limits **** #  define __glibcxx_float_tinyness_before false
  96:/usr/share/gcc-arm-none-eabi-10-2020-q4-major/arm-none-eabi/include/c++/10.2.1/limits **** #endif
  97:/usr/share/gcc-arm-none-eabi-10-2020-q4-major/arm-none-eabi/include/c++/10.2.1/limits **** 
  98:/usr/share/gcc-arm-none-eabi-10-2020-q4-major/arm-none-eabi/include/c++/10.2.1/limits **** // double
  99:/usr/share/gcc-arm-none-eabi-10-2020-q4-major/arm-none-eabi/include/c++/10.2.1/limits **** 
 100:/usr/share/gcc-arm-none-eabi-10-2020-q4-major/arm-none-eabi/include/c++/10.2.1/limits **** // Default values.  Should be overridden in configuration files if necessary.
 101:/usr/share/gcc-arm-none-eabi-10-2020-q4-major/arm-none-eabi/include/c++/10.2.1/limits **** 
 102:/usr/share/gcc-arm-none-eabi-10-2020-q4-major/arm-none-eabi/include/c++/10.2.1/limits **** #ifndef __glibcxx_double_has_denorm_loss
 103:/usr/share/gcc-arm-none-eabi-10-2020-q4-major/arm-none-eabi/include/c++/10.2.1/limits **** #  define __glibcxx_double_has_denorm_loss false
 104:/usr/share/gcc-arm-none-eabi-10-2020-q4-major/arm-none-eabi/include/c++/10.2.1/limits **** #endif
 105:/usr/share/gcc-arm-none-eabi-10-2020-q4-major/arm-none-eabi/include/c++/10.2.1/limits **** #ifndef __glibcxx_double_traps
 106:/usr/share/gcc-arm-none-eabi-10-2020-q4-major/arm-none-eabi/include/c++/10.2.1/limits **** #  define __glibcxx_double_traps false
 107:/usr/share/gcc-arm-none-eabi-10-2020-q4-major/arm-none-eabi/include/c++/10.2.1/limits **** #endif
 108:/usr/share/gcc-arm-none-eabi-10-2020-q4-major/arm-none-eabi/include/c++/10.2.1/limits **** #ifndef __glibcxx_double_tinyness_before
 109:/usr/share/gcc-arm-none-eabi-10-2020-q4-major/arm-none-eabi/include/c++/10.2.1/limits **** #  define __glibcxx_double_tinyness_before false
 110:/usr/share/gcc-arm-none-eabi-10-2020-q4-major/arm-none-eabi/include/c++/10.2.1/limits **** #endif
 111:/usr/share/gcc-arm-none-eabi-10-2020-q4-major/arm-none-eabi/include/c++/10.2.1/limits **** 
 112:/usr/share/gcc-arm-none-eabi-10-2020-q4-major/arm-none-eabi/include/c++/10.2.1/limits **** // long double
 113:/usr/share/gcc-arm-none-eabi-10-2020-q4-major/arm-none-eabi/include/c++/10.2.1/limits **** 
 114:/usr/share/gcc-arm-none-eabi-10-2020-q4-major/arm-none-eabi/include/c++/10.2.1/limits **** // Default values.  Should be overridden in configuration files if necessary.
 115:/usr/share/gcc-arm-none-eabi-10-2020-q4-major/arm-none-eabi/include/c++/10.2.1/limits **** 
 116:/usr/share/gcc-arm-none-eabi-10-2020-q4-major/arm-none-eabi/include/c++/10.2.1/limits **** #ifndef __glibcxx_long_double_has_denorm_loss
 117:/usr/share/gcc-arm-none-eabi-10-2020-q4-major/arm-none-eabi/include/c++/10.2.1/limits **** #  define __glibcxx_long_double_has_denorm_loss false
 118:/usr/share/gcc-arm-none-eabi-10-2020-q4-major/arm-none-eabi/include/c++/10.2.1/limits **** #endif
 119:/usr/share/gcc-arm-none-eabi-10-2020-q4-major/arm-none-eabi/include/c++/10.2.1/limits **** #ifndef __glibcxx_long_double_traps
 120:/usr/share/gcc-arm-none-eabi-10-2020-q4-major/arm-none-eabi/include/c++/10.2.1/limits **** #  define __glibcxx_long_double_traps false
 121:/usr/share/gcc-arm-none-eabi-10-2020-q4-major/arm-none-eabi/include/c++/10.2.1/limits **** #endif
 122:/usr/share/gcc-arm-none-eabi-10-2020-q4-major/arm-none-eabi/include/c++/10.2.1/limits **** #ifndef __glibcxx_long_double_tinyness_before
 123:/usr/share/gcc-arm-none-eabi-10-2020-q4-major/arm-none-eabi/include/c++/10.2.1/limits **** #  define __glibcxx_long_double_tinyness_before false
 124:/usr/share/gcc-arm-none-eabi-10-2020-q4-major/arm-none-eabi/include/c++/10.2.1/limits **** #endif
 125:/usr/share/gcc-arm-none-eabi-10-2020-q4-major/arm-none-eabi/include/c++/10.2.1/limits **** 
 126:/usr/share/gcc-arm-none-eabi-10-2020-q4-major/arm-none-eabi/include/c++/10.2.1/limits **** // You should not need to define any macros below this point.
 127:/usr/share/gcc-arm-none-eabi-10-2020-q4-major/arm-none-eabi/include/c++/10.2.1/limits **** 
 128:/usr/share/gcc-arm-none-eabi-10-2020-q4-major/arm-none-eabi/include/c++/10.2.1/limits **** #define __glibcxx_signed_b(T,B)	((T)(-1) < 0)
 129:/usr/share/gcc-arm-none-eabi-10-2020-q4-major/arm-none-eabi/include/c++/10.2.1/limits **** 
 130:/usr/share/gcc-arm-none-eabi-10-2020-q4-major/arm-none-eabi/include/c++/10.2.1/limits **** #define __glibcxx_min_b(T,B)					\
 131:/usr/share/gcc-arm-none-eabi-10-2020-q4-major/arm-none-eabi/include/c++/10.2.1/limits ****   (__glibcxx_signed_b (T,B) ? -__glibcxx_max_b (T,B) - 1 : (T)0)
 132:/usr/share/gcc-arm-none-eabi-10-2020-q4-major/arm-none-eabi/include/c++/10.2.1/limits **** 
 133:/usr/share/gcc-arm-none-eabi-10-2020-q4-major/arm-none-eabi/include/c++/10.2.1/limits **** #define __glibcxx_max_b(T,B)						\
 134:/usr/share/gcc-arm-none-eabi-10-2020-q4-major/arm-none-eabi/include/c++/10.2.1/limits ****   (__glibcxx_signed_b (T,B) ?						\
 135:/usr/share/gcc-arm-none-eabi-10-2020-q4-major/arm-none-eabi/include/c++/10.2.1/limits ****    (((((T)1 << (__glibcxx_digits_b (T,B) - 1)) - 1) << 1) + 1) : ~(T)0)
 136:/usr/share/gcc-arm-none-eabi-10-2020-q4-major/arm-none-eabi/include/c++/10.2.1/limits **** 
ARM GAS  /tmp/ccaL2bzX.s 			page 17


 137:/usr/share/gcc-arm-none-eabi-10-2020-q4-major/arm-none-eabi/include/c++/10.2.1/limits **** #define __glibcxx_digits_b(T,B)				\
 138:/usr/share/gcc-arm-none-eabi-10-2020-q4-major/arm-none-eabi/include/c++/10.2.1/limits ****   (B - __glibcxx_signed_b (T,B))
 139:/usr/share/gcc-arm-none-eabi-10-2020-q4-major/arm-none-eabi/include/c++/10.2.1/limits **** 
 140:/usr/share/gcc-arm-none-eabi-10-2020-q4-major/arm-none-eabi/include/c++/10.2.1/limits **** // The fraction 643/2136 approximates log10(2) to 7 significant digits.
 141:/usr/share/gcc-arm-none-eabi-10-2020-q4-major/arm-none-eabi/include/c++/10.2.1/limits **** #define __glibcxx_digits10_b(T,B)		\
 142:/usr/share/gcc-arm-none-eabi-10-2020-q4-major/arm-none-eabi/include/c++/10.2.1/limits ****   (__glibcxx_digits_b (T,B) * 643L / 2136)
 143:/usr/share/gcc-arm-none-eabi-10-2020-q4-major/arm-none-eabi/include/c++/10.2.1/limits **** 
 144:/usr/share/gcc-arm-none-eabi-10-2020-q4-major/arm-none-eabi/include/c++/10.2.1/limits **** #define __glibcxx_signed(T) \
 145:/usr/share/gcc-arm-none-eabi-10-2020-q4-major/arm-none-eabi/include/c++/10.2.1/limits ****   __glibcxx_signed_b (T, sizeof(T) * __CHAR_BIT__)
 146:/usr/share/gcc-arm-none-eabi-10-2020-q4-major/arm-none-eabi/include/c++/10.2.1/limits **** #define __glibcxx_min(T) \
 147:/usr/share/gcc-arm-none-eabi-10-2020-q4-major/arm-none-eabi/include/c++/10.2.1/limits ****   __glibcxx_min_b (T, sizeof(T) * __CHAR_BIT__)
 148:/usr/share/gcc-arm-none-eabi-10-2020-q4-major/arm-none-eabi/include/c++/10.2.1/limits **** #define __glibcxx_max(T) \
 149:/usr/share/gcc-arm-none-eabi-10-2020-q4-major/arm-none-eabi/include/c++/10.2.1/limits ****   __glibcxx_max_b (T, sizeof(T) * __CHAR_BIT__)
 150:/usr/share/gcc-arm-none-eabi-10-2020-q4-major/arm-none-eabi/include/c++/10.2.1/limits **** #define __glibcxx_digits(T) \
 151:/usr/share/gcc-arm-none-eabi-10-2020-q4-major/arm-none-eabi/include/c++/10.2.1/limits ****   __glibcxx_digits_b (T, sizeof(T) * __CHAR_BIT__)
 152:/usr/share/gcc-arm-none-eabi-10-2020-q4-major/arm-none-eabi/include/c++/10.2.1/limits **** #define __glibcxx_digits10(T) \
 153:/usr/share/gcc-arm-none-eabi-10-2020-q4-major/arm-none-eabi/include/c++/10.2.1/limits ****   __glibcxx_digits10_b (T, sizeof(T) * __CHAR_BIT__)
 154:/usr/share/gcc-arm-none-eabi-10-2020-q4-major/arm-none-eabi/include/c++/10.2.1/limits **** 
 155:/usr/share/gcc-arm-none-eabi-10-2020-q4-major/arm-none-eabi/include/c++/10.2.1/limits **** #define __glibcxx_max_digits10(T) \
 156:/usr/share/gcc-arm-none-eabi-10-2020-q4-major/arm-none-eabi/include/c++/10.2.1/limits ****   (2 + (T) * 643L / 2136)
 157:/usr/share/gcc-arm-none-eabi-10-2020-q4-major/arm-none-eabi/include/c++/10.2.1/limits **** 
 158:/usr/share/gcc-arm-none-eabi-10-2020-q4-major/arm-none-eabi/include/c++/10.2.1/limits **** namespace std _GLIBCXX_VISIBILITY(default)
 159:/usr/share/gcc-arm-none-eabi-10-2020-q4-major/arm-none-eabi/include/c++/10.2.1/limits **** {
 160:/usr/share/gcc-arm-none-eabi-10-2020-q4-major/arm-none-eabi/include/c++/10.2.1/limits **** _GLIBCXX_BEGIN_NAMESPACE_VERSION
 161:/usr/share/gcc-arm-none-eabi-10-2020-q4-major/arm-none-eabi/include/c++/10.2.1/limits **** 
 162:/usr/share/gcc-arm-none-eabi-10-2020-q4-major/arm-none-eabi/include/c++/10.2.1/limits ****   /**
 163:/usr/share/gcc-arm-none-eabi-10-2020-q4-major/arm-none-eabi/include/c++/10.2.1/limits ****    *  @brief Describes the rounding style for floating-point types.
 164:/usr/share/gcc-arm-none-eabi-10-2020-q4-major/arm-none-eabi/include/c++/10.2.1/limits ****    *
 165:/usr/share/gcc-arm-none-eabi-10-2020-q4-major/arm-none-eabi/include/c++/10.2.1/limits ****    *  This is used in the std::numeric_limits class.
 166:/usr/share/gcc-arm-none-eabi-10-2020-q4-major/arm-none-eabi/include/c++/10.2.1/limits ****   */
 167:/usr/share/gcc-arm-none-eabi-10-2020-q4-major/arm-none-eabi/include/c++/10.2.1/limits ****   enum float_round_style
 168:/usr/share/gcc-arm-none-eabi-10-2020-q4-major/arm-none-eabi/include/c++/10.2.1/limits ****   {
 169:/usr/share/gcc-arm-none-eabi-10-2020-q4-major/arm-none-eabi/include/c++/10.2.1/limits ****     round_indeterminate       = -1,    /// Intermediate.
 170:/usr/share/gcc-arm-none-eabi-10-2020-q4-major/arm-none-eabi/include/c++/10.2.1/limits ****     round_toward_zero         = 0,     /// To zero.
 171:/usr/share/gcc-arm-none-eabi-10-2020-q4-major/arm-none-eabi/include/c++/10.2.1/limits ****     round_to_nearest          = 1,     /// To the nearest representable value.
 172:/usr/share/gcc-arm-none-eabi-10-2020-q4-major/arm-none-eabi/include/c++/10.2.1/limits ****     round_toward_infinity     = 2,     /// To infinity.
 173:/usr/share/gcc-arm-none-eabi-10-2020-q4-major/arm-none-eabi/include/c++/10.2.1/limits ****     round_toward_neg_infinity = 3      /// To negative infinity.
 174:/usr/share/gcc-arm-none-eabi-10-2020-q4-major/arm-none-eabi/include/c++/10.2.1/limits ****   };
 175:/usr/share/gcc-arm-none-eabi-10-2020-q4-major/arm-none-eabi/include/c++/10.2.1/limits **** 
 176:/usr/share/gcc-arm-none-eabi-10-2020-q4-major/arm-none-eabi/include/c++/10.2.1/limits ****   /**
 177:/usr/share/gcc-arm-none-eabi-10-2020-q4-major/arm-none-eabi/include/c++/10.2.1/limits ****    *  @brief Describes the denormalization for floating-point types.
 178:/usr/share/gcc-arm-none-eabi-10-2020-q4-major/arm-none-eabi/include/c++/10.2.1/limits ****    *
 179:/usr/share/gcc-arm-none-eabi-10-2020-q4-major/arm-none-eabi/include/c++/10.2.1/limits ****    *  These values represent the presence or absence of a variable number
 180:/usr/share/gcc-arm-none-eabi-10-2020-q4-major/arm-none-eabi/include/c++/10.2.1/limits ****    *  of exponent bits.  This type is used in the std::numeric_limits class.
 181:/usr/share/gcc-arm-none-eabi-10-2020-q4-major/arm-none-eabi/include/c++/10.2.1/limits ****   */
 182:/usr/share/gcc-arm-none-eabi-10-2020-q4-major/arm-none-eabi/include/c++/10.2.1/limits ****   enum float_denorm_style
 183:/usr/share/gcc-arm-none-eabi-10-2020-q4-major/arm-none-eabi/include/c++/10.2.1/limits ****   {
 184:/usr/share/gcc-arm-none-eabi-10-2020-q4-major/arm-none-eabi/include/c++/10.2.1/limits ****     /// Indeterminate at compile time whether denormalized values are allowed.
 185:/usr/share/gcc-arm-none-eabi-10-2020-q4-major/arm-none-eabi/include/c++/10.2.1/limits ****     denorm_indeterminate = -1,
 186:/usr/share/gcc-arm-none-eabi-10-2020-q4-major/arm-none-eabi/include/c++/10.2.1/limits ****     /// The type does not allow denormalized values.
 187:/usr/share/gcc-arm-none-eabi-10-2020-q4-major/arm-none-eabi/include/c++/10.2.1/limits ****     denorm_absent        = 0,
 188:/usr/share/gcc-arm-none-eabi-10-2020-q4-major/arm-none-eabi/include/c++/10.2.1/limits ****     /// The type allows denormalized values.
 189:/usr/share/gcc-arm-none-eabi-10-2020-q4-major/arm-none-eabi/include/c++/10.2.1/limits ****     denorm_present       = 1
 190:/usr/share/gcc-arm-none-eabi-10-2020-q4-major/arm-none-eabi/include/c++/10.2.1/limits ****   };
 191:/usr/share/gcc-arm-none-eabi-10-2020-q4-major/arm-none-eabi/include/c++/10.2.1/limits **** 
 192:/usr/share/gcc-arm-none-eabi-10-2020-q4-major/arm-none-eabi/include/c++/10.2.1/limits ****   /**
 193:/usr/share/gcc-arm-none-eabi-10-2020-q4-major/arm-none-eabi/include/c++/10.2.1/limits ****    *  @brief Part of std::numeric_limits.
ARM GAS  /tmp/ccaL2bzX.s 			page 18


 194:/usr/share/gcc-arm-none-eabi-10-2020-q4-major/arm-none-eabi/include/c++/10.2.1/limits ****    *
 195:/usr/share/gcc-arm-none-eabi-10-2020-q4-major/arm-none-eabi/include/c++/10.2.1/limits ****    *  The @c static @c const members are usable as integral constant
 196:/usr/share/gcc-arm-none-eabi-10-2020-q4-major/arm-none-eabi/include/c++/10.2.1/limits ****    *  expressions.
 197:/usr/share/gcc-arm-none-eabi-10-2020-q4-major/arm-none-eabi/include/c++/10.2.1/limits ****    *
 198:/usr/share/gcc-arm-none-eabi-10-2020-q4-major/arm-none-eabi/include/c++/10.2.1/limits ****    *  @note This is a separate class for purposes of efficiency; you
 199:/usr/share/gcc-arm-none-eabi-10-2020-q4-major/arm-none-eabi/include/c++/10.2.1/limits ****    *        should only access these members as part of an instantiation
 200:/usr/share/gcc-arm-none-eabi-10-2020-q4-major/arm-none-eabi/include/c++/10.2.1/limits ****    *        of the std::numeric_limits class.
 201:/usr/share/gcc-arm-none-eabi-10-2020-q4-major/arm-none-eabi/include/c++/10.2.1/limits ****   */
 202:/usr/share/gcc-arm-none-eabi-10-2020-q4-major/arm-none-eabi/include/c++/10.2.1/limits ****   struct __numeric_limits_base
 203:/usr/share/gcc-arm-none-eabi-10-2020-q4-major/arm-none-eabi/include/c++/10.2.1/limits ****   {
 204:/usr/share/gcc-arm-none-eabi-10-2020-q4-major/arm-none-eabi/include/c++/10.2.1/limits ****     /** This will be true for all fundamental types (which have
 205:/usr/share/gcc-arm-none-eabi-10-2020-q4-major/arm-none-eabi/include/c++/10.2.1/limits **** 	specializations), and false for everything else.  */
 206:/usr/share/gcc-arm-none-eabi-10-2020-q4-major/arm-none-eabi/include/c++/10.2.1/limits ****     static _GLIBCXX_USE_CONSTEXPR bool is_specialized = false;
 207:/usr/share/gcc-arm-none-eabi-10-2020-q4-major/arm-none-eabi/include/c++/10.2.1/limits **** 
 208:/usr/share/gcc-arm-none-eabi-10-2020-q4-major/arm-none-eabi/include/c++/10.2.1/limits ****     /** The number of @c radix digits that be represented without change:  for
 209:/usr/share/gcc-arm-none-eabi-10-2020-q4-major/arm-none-eabi/include/c++/10.2.1/limits **** 	integer types, the number of non-sign bits in the mantissa; for
 210:/usr/share/gcc-arm-none-eabi-10-2020-q4-major/arm-none-eabi/include/c++/10.2.1/limits **** 	floating types, the number of @c radix digits in the mantissa.  */
 211:/usr/share/gcc-arm-none-eabi-10-2020-q4-major/arm-none-eabi/include/c++/10.2.1/limits ****     static _GLIBCXX_USE_CONSTEXPR int digits = 0;
 212:/usr/share/gcc-arm-none-eabi-10-2020-q4-major/arm-none-eabi/include/c++/10.2.1/limits **** 
 213:/usr/share/gcc-arm-none-eabi-10-2020-q4-major/arm-none-eabi/include/c++/10.2.1/limits ****     /** The number of base 10 digits that can be represented without change. */
 214:/usr/share/gcc-arm-none-eabi-10-2020-q4-major/arm-none-eabi/include/c++/10.2.1/limits ****     static _GLIBCXX_USE_CONSTEXPR int digits10 = 0;
 215:/usr/share/gcc-arm-none-eabi-10-2020-q4-major/arm-none-eabi/include/c++/10.2.1/limits **** 
 216:/usr/share/gcc-arm-none-eabi-10-2020-q4-major/arm-none-eabi/include/c++/10.2.1/limits **** #if __cplusplus >= 201103L
 217:/usr/share/gcc-arm-none-eabi-10-2020-q4-major/arm-none-eabi/include/c++/10.2.1/limits ****     /** The number of base 10 digits required to ensure that values which
 218:/usr/share/gcc-arm-none-eabi-10-2020-q4-major/arm-none-eabi/include/c++/10.2.1/limits **** 	differ are always differentiated.  */
 219:/usr/share/gcc-arm-none-eabi-10-2020-q4-major/arm-none-eabi/include/c++/10.2.1/limits ****     static constexpr int max_digits10 = 0;
 220:/usr/share/gcc-arm-none-eabi-10-2020-q4-major/arm-none-eabi/include/c++/10.2.1/limits **** #endif
 221:/usr/share/gcc-arm-none-eabi-10-2020-q4-major/arm-none-eabi/include/c++/10.2.1/limits **** 
 222:/usr/share/gcc-arm-none-eabi-10-2020-q4-major/arm-none-eabi/include/c++/10.2.1/limits ****     /** True if the type is signed.  */
 223:/usr/share/gcc-arm-none-eabi-10-2020-q4-major/arm-none-eabi/include/c++/10.2.1/limits ****     static _GLIBCXX_USE_CONSTEXPR bool is_signed = false;
 224:/usr/share/gcc-arm-none-eabi-10-2020-q4-major/arm-none-eabi/include/c++/10.2.1/limits **** 
 225:/usr/share/gcc-arm-none-eabi-10-2020-q4-major/arm-none-eabi/include/c++/10.2.1/limits ****     /** True if the type is integer.  */
 226:/usr/share/gcc-arm-none-eabi-10-2020-q4-major/arm-none-eabi/include/c++/10.2.1/limits ****     static _GLIBCXX_USE_CONSTEXPR bool is_integer = false;
 227:/usr/share/gcc-arm-none-eabi-10-2020-q4-major/arm-none-eabi/include/c++/10.2.1/limits **** 
 228:/usr/share/gcc-arm-none-eabi-10-2020-q4-major/arm-none-eabi/include/c++/10.2.1/limits ****     /** True if the type uses an exact representation. All integer types are
 229:/usr/share/gcc-arm-none-eabi-10-2020-q4-major/arm-none-eabi/include/c++/10.2.1/limits **** 	exact, but not all exact types are integer.  For example, rational and
 230:/usr/share/gcc-arm-none-eabi-10-2020-q4-major/arm-none-eabi/include/c++/10.2.1/limits **** 	fixed-exponent representations are exact but not integer. */
 231:/usr/share/gcc-arm-none-eabi-10-2020-q4-major/arm-none-eabi/include/c++/10.2.1/limits ****     static _GLIBCXX_USE_CONSTEXPR bool is_exact = false;
 232:/usr/share/gcc-arm-none-eabi-10-2020-q4-major/arm-none-eabi/include/c++/10.2.1/limits **** 
 233:/usr/share/gcc-arm-none-eabi-10-2020-q4-major/arm-none-eabi/include/c++/10.2.1/limits ****     /** For integer types, specifies the base of the representation.  For
 234:/usr/share/gcc-arm-none-eabi-10-2020-q4-major/arm-none-eabi/include/c++/10.2.1/limits **** 	floating types, specifies the base of the exponent representation.  */
 235:/usr/share/gcc-arm-none-eabi-10-2020-q4-major/arm-none-eabi/include/c++/10.2.1/limits ****     static _GLIBCXX_USE_CONSTEXPR int radix = 0;
 236:/usr/share/gcc-arm-none-eabi-10-2020-q4-major/arm-none-eabi/include/c++/10.2.1/limits **** 
 237:/usr/share/gcc-arm-none-eabi-10-2020-q4-major/arm-none-eabi/include/c++/10.2.1/limits ****     /** The minimum negative integer such that @c radix raised to the power of
 238:/usr/share/gcc-arm-none-eabi-10-2020-q4-major/arm-none-eabi/include/c++/10.2.1/limits **** 	(one less than that integer) is a normalized floating point number.  */
 239:/usr/share/gcc-arm-none-eabi-10-2020-q4-major/arm-none-eabi/include/c++/10.2.1/limits ****     static _GLIBCXX_USE_CONSTEXPR int min_exponent = 0;
 240:/usr/share/gcc-arm-none-eabi-10-2020-q4-major/arm-none-eabi/include/c++/10.2.1/limits **** 
 241:/usr/share/gcc-arm-none-eabi-10-2020-q4-major/arm-none-eabi/include/c++/10.2.1/limits ****     /** The minimum negative integer such that 10 raised to that power is in
 242:/usr/share/gcc-arm-none-eabi-10-2020-q4-major/arm-none-eabi/include/c++/10.2.1/limits **** 	the range of normalized floating point numbers.  */
 243:/usr/share/gcc-arm-none-eabi-10-2020-q4-major/arm-none-eabi/include/c++/10.2.1/limits ****     static _GLIBCXX_USE_CONSTEXPR int min_exponent10 = 0;
 244:/usr/share/gcc-arm-none-eabi-10-2020-q4-major/arm-none-eabi/include/c++/10.2.1/limits **** 
 245:/usr/share/gcc-arm-none-eabi-10-2020-q4-major/arm-none-eabi/include/c++/10.2.1/limits ****     /** The maximum positive integer such that @c radix raised to the power of
 246:/usr/share/gcc-arm-none-eabi-10-2020-q4-major/arm-none-eabi/include/c++/10.2.1/limits **** 	(one less than that integer) is a representable finite floating point
 247:/usr/share/gcc-arm-none-eabi-10-2020-q4-major/arm-none-eabi/include/c++/10.2.1/limits **** 	number.  */
 248:/usr/share/gcc-arm-none-eabi-10-2020-q4-major/arm-none-eabi/include/c++/10.2.1/limits ****     static _GLIBCXX_USE_CONSTEXPR int max_exponent = 0;
 249:/usr/share/gcc-arm-none-eabi-10-2020-q4-major/arm-none-eabi/include/c++/10.2.1/limits **** 
 250:/usr/share/gcc-arm-none-eabi-10-2020-q4-major/arm-none-eabi/include/c++/10.2.1/limits ****     /** The maximum positive integer such that 10 raised to that power is in
ARM GAS  /tmp/ccaL2bzX.s 			page 19


 251:/usr/share/gcc-arm-none-eabi-10-2020-q4-major/arm-none-eabi/include/c++/10.2.1/limits **** 	the range of representable finite floating point numbers.  */
 252:/usr/share/gcc-arm-none-eabi-10-2020-q4-major/arm-none-eabi/include/c++/10.2.1/limits ****     static _GLIBCXX_USE_CONSTEXPR int max_exponent10 = 0;
 253:/usr/share/gcc-arm-none-eabi-10-2020-q4-major/arm-none-eabi/include/c++/10.2.1/limits **** 
 254:/usr/share/gcc-arm-none-eabi-10-2020-q4-major/arm-none-eabi/include/c++/10.2.1/limits ****     /** True if the type has a representation for positive infinity.  */
 255:/usr/share/gcc-arm-none-eabi-10-2020-q4-major/arm-none-eabi/include/c++/10.2.1/limits ****     static _GLIBCXX_USE_CONSTEXPR bool has_infinity = false;
 256:/usr/share/gcc-arm-none-eabi-10-2020-q4-major/arm-none-eabi/include/c++/10.2.1/limits **** 
 257:/usr/share/gcc-arm-none-eabi-10-2020-q4-major/arm-none-eabi/include/c++/10.2.1/limits ****     /** True if the type has a representation for a quiet (non-signaling)
 258:/usr/share/gcc-arm-none-eabi-10-2020-q4-major/arm-none-eabi/include/c++/10.2.1/limits **** 	Not a Number.  */
 259:/usr/share/gcc-arm-none-eabi-10-2020-q4-major/arm-none-eabi/include/c++/10.2.1/limits ****     static _GLIBCXX_USE_CONSTEXPR bool has_quiet_NaN = false;
 260:/usr/share/gcc-arm-none-eabi-10-2020-q4-major/arm-none-eabi/include/c++/10.2.1/limits **** 
 261:/usr/share/gcc-arm-none-eabi-10-2020-q4-major/arm-none-eabi/include/c++/10.2.1/limits ****     /** True if the type has a representation for a signaling
 262:/usr/share/gcc-arm-none-eabi-10-2020-q4-major/arm-none-eabi/include/c++/10.2.1/limits **** 	Not a Number.  */
 263:/usr/share/gcc-arm-none-eabi-10-2020-q4-major/arm-none-eabi/include/c++/10.2.1/limits ****     static _GLIBCXX_USE_CONSTEXPR bool has_signaling_NaN = false;
 264:/usr/share/gcc-arm-none-eabi-10-2020-q4-major/arm-none-eabi/include/c++/10.2.1/limits **** 
 265:/usr/share/gcc-arm-none-eabi-10-2020-q4-major/arm-none-eabi/include/c++/10.2.1/limits ****     /** See std::float_denorm_style for more information.  */
 266:/usr/share/gcc-arm-none-eabi-10-2020-q4-major/arm-none-eabi/include/c++/10.2.1/limits ****     static _GLIBCXX_USE_CONSTEXPR float_denorm_style has_denorm = denorm_absent;
 267:/usr/share/gcc-arm-none-eabi-10-2020-q4-major/arm-none-eabi/include/c++/10.2.1/limits **** 
 268:/usr/share/gcc-arm-none-eabi-10-2020-q4-major/arm-none-eabi/include/c++/10.2.1/limits ****     /** True if loss of accuracy is detected as a denormalization loss,
 269:/usr/share/gcc-arm-none-eabi-10-2020-q4-major/arm-none-eabi/include/c++/10.2.1/limits **** 	rather than as an inexact result. */
 270:/usr/share/gcc-arm-none-eabi-10-2020-q4-major/arm-none-eabi/include/c++/10.2.1/limits ****     static _GLIBCXX_USE_CONSTEXPR bool has_denorm_loss = false;
 271:/usr/share/gcc-arm-none-eabi-10-2020-q4-major/arm-none-eabi/include/c++/10.2.1/limits **** 
 272:/usr/share/gcc-arm-none-eabi-10-2020-q4-major/arm-none-eabi/include/c++/10.2.1/limits ****     /** True if-and-only-if the type adheres to the IEC 559 standard, also
 273:/usr/share/gcc-arm-none-eabi-10-2020-q4-major/arm-none-eabi/include/c++/10.2.1/limits **** 	known as IEEE 754.  (Only makes sense for floating point types.)  */
 274:/usr/share/gcc-arm-none-eabi-10-2020-q4-major/arm-none-eabi/include/c++/10.2.1/limits ****     static _GLIBCXX_USE_CONSTEXPR bool is_iec559 = false;
 275:/usr/share/gcc-arm-none-eabi-10-2020-q4-major/arm-none-eabi/include/c++/10.2.1/limits **** 
 276:/usr/share/gcc-arm-none-eabi-10-2020-q4-major/arm-none-eabi/include/c++/10.2.1/limits ****     /** True if the set of values representable by the type is
 277:/usr/share/gcc-arm-none-eabi-10-2020-q4-major/arm-none-eabi/include/c++/10.2.1/limits **** 	finite.  All built-in types are bounded, this member would be
 278:/usr/share/gcc-arm-none-eabi-10-2020-q4-major/arm-none-eabi/include/c++/10.2.1/limits **** 	false for arbitrary precision types. */
 279:/usr/share/gcc-arm-none-eabi-10-2020-q4-major/arm-none-eabi/include/c++/10.2.1/limits ****     static _GLIBCXX_USE_CONSTEXPR bool is_bounded = false;
 280:/usr/share/gcc-arm-none-eabi-10-2020-q4-major/arm-none-eabi/include/c++/10.2.1/limits **** 
 281:/usr/share/gcc-arm-none-eabi-10-2020-q4-major/arm-none-eabi/include/c++/10.2.1/limits ****     /** True if the type is @e modulo. A type is modulo if, for any
 282:/usr/share/gcc-arm-none-eabi-10-2020-q4-major/arm-none-eabi/include/c++/10.2.1/limits **** 	operation involving +, -, or * on values of that type whose
 283:/usr/share/gcc-arm-none-eabi-10-2020-q4-major/arm-none-eabi/include/c++/10.2.1/limits **** 	result would fall outside the range [min(),max()], the value
 284:/usr/share/gcc-arm-none-eabi-10-2020-q4-major/arm-none-eabi/include/c++/10.2.1/limits **** 	returned differs from the true value by an integer multiple of
 285:/usr/share/gcc-arm-none-eabi-10-2020-q4-major/arm-none-eabi/include/c++/10.2.1/limits **** 	max() - min() + 1. On most machines, this is false for floating
 286:/usr/share/gcc-arm-none-eabi-10-2020-q4-major/arm-none-eabi/include/c++/10.2.1/limits **** 	types, true for unsigned integers, and true for signed integers.
 287:/usr/share/gcc-arm-none-eabi-10-2020-q4-major/arm-none-eabi/include/c++/10.2.1/limits **** 	See PR22200 about signed integers.  */
 288:/usr/share/gcc-arm-none-eabi-10-2020-q4-major/arm-none-eabi/include/c++/10.2.1/limits ****     static _GLIBCXX_USE_CONSTEXPR bool is_modulo = false;
 289:/usr/share/gcc-arm-none-eabi-10-2020-q4-major/arm-none-eabi/include/c++/10.2.1/limits **** 
 290:/usr/share/gcc-arm-none-eabi-10-2020-q4-major/arm-none-eabi/include/c++/10.2.1/limits ****     /** True if trapping is implemented for this type.  */
 291:/usr/share/gcc-arm-none-eabi-10-2020-q4-major/arm-none-eabi/include/c++/10.2.1/limits ****     static _GLIBCXX_USE_CONSTEXPR bool traps = false;
 292:/usr/share/gcc-arm-none-eabi-10-2020-q4-major/arm-none-eabi/include/c++/10.2.1/limits **** 
 293:/usr/share/gcc-arm-none-eabi-10-2020-q4-major/arm-none-eabi/include/c++/10.2.1/limits ****     /** True if tininess is detected before rounding.  (see IEC 559)  */
 294:/usr/share/gcc-arm-none-eabi-10-2020-q4-major/arm-none-eabi/include/c++/10.2.1/limits ****     static _GLIBCXX_USE_CONSTEXPR bool tinyness_before = false;
 295:/usr/share/gcc-arm-none-eabi-10-2020-q4-major/arm-none-eabi/include/c++/10.2.1/limits **** 
 296:/usr/share/gcc-arm-none-eabi-10-2020-q4-major/arm-none-eabi/include/c++/10.2.1/limits ****     /** See std::float_round_style for more information.  This is only
 297:/usr/share/gcc-arm-none-eabi-10-2020-q4-major/arm-none-eabi/include/c++/10.2.1/limits **** 	meaningful for floating types; integer types will all be
 298:/usr/share/gcc-arm-none-eabi-10-2020-q4-major/arm-none-eabi/include/c++/10.2.1/limits **** 	round_toward_zero.  */
 299:/usr/share/gcc-arm-none-eabi-10-2020-q4-major/arm-none-eabi/include/c++/10.2.1/limits ****     static _GLIBCXX_USE_CONSTEXPR float_round_style round_style =
 300:/usr/share/gcc-arm-none-eabi-10-2020-q4-major/arm-none-eabi/include/c++/10.2.1/limits **** 						    round_toward_zero;
 301:/usr/share/gcc-arm-none-eabi-10-2020-q4-major/arm-none-eabi/include/c++/10.2.1/limits ****   };
 302:/usr/share/gcc-arm-none-eabi-10-2020-q4-major/arm-none-eabi/include/c++/10.2.1/limits **** 
 303:/usr/share/gcc-arm-none-eabi-10-2020-q4-major/arm-none-eabi/include/c++/10.2.1/limits ****   /**
 304:/usr/share/gcc-arm-none-eabi-10-2020-q4-major/arm-none-eabi/include/c++/10.2.1/limits ****    *  @brief Properties of fundamental types.
 305:/usr/share/gcc-arm-none-eabi-10-2020-q4-major/arm-none-eabi/include/c++/10.2.1/limits ****    *
 306:/usr/share/gcc-arm-none-eabi-10-2020-q4-major/arm-none-eabi/include/c++/10.2.1/limits ****    *  This class allows a program to obtain information about the
 307:/usr/share/gcc-arm-none-eabi-10-2020-q4-major/arm-none-eabi/include/c++/10.2.1/limits ****    *  representation of a fundamental type on a given platform.  For
ARM GAS  /tmp/ccaL2bzX.s 			page 20


 308:/usr/share/gcc-arm-none-eabi-10-2020-q4-major/arm-none-eabi/include/c++/10.2.1/limits ****    *  non-fundamental types, the functions will return 0 and the data
 309:/usr/share/gcc-arm-none-eabi-10-2020-q4-major/arm-none-eabi/include/c++/10.2.1/limits ****    *  members will all be @c false.
 310:/usr/share/gcc-arm-none-eabi-10-2020-q4-major/arm-none-eabi/include/c++/10.2.1/limits ****   */
 311:/usr/share/gcc-arm-none-eabi-10-2020-q4-major/arm-none-eabi/include/c++/10.2.1/limits ****   template<typename _Tp>
 312:/usr/share/gcc-arm-none-eabi-10-2020-q4-major/arm-none-eabi/include/c++/10.2.1/limits ****     struct numeric_limits : public __numeric_limits_base
 313:/usr/share/gcc-arm-none-eabi-10-2020-q4-major/arm-none-eabi/include/c++/10.2.1/limits ****     {
 314:/usr/share/gcc-arm-none-eabi-10-2020-q4-major/arm-none-eabi/include/c++/10.2.1/limits ****       /** The minimum finite value, or for floating types with
 315:/usr/share/gcc-arm-none-eabi-10-2020-q4-major/arm-none-eabi/include/c++/10.2.1/limits **** 	  denormalization, the minimum positive normalized value.  */
 316:/usr/share/gcc-arm-none-eabi-10-2020-q4-major/arm-none-eabi/include/c++/10.2.1/limits ****       static _GLIBCXX_CONSTEXPR _Tp
 317:/usr/share/gcc-arm-none-eabi-10-2020-q4-major/arm-none-eabi/include/c++/10.2.1/limits ****       min() _GLIBCXX_USE_NOEXCEPT { return _Tp(); }
 318:/usr/share/gcc-arm-none-eabi-10-2020-q4-major/arm-none-eabi/include/c++/10.2.1/limits **** 
 319:/usr/share/gcc-arm-none-eabi-10-2020-q4-major/arm-none-eabi/include/c++/10.2.1/limits ****       /** The maximum finite value.  */
 320:/usr/share/gcc-arm-none-eabi-10-2020-q4-major/arm-none-eabi/include/c++/10.2.1/limits ****       static _GLIBCXX_CONSTEXPR _Tp
 321:/usr/share/gcc-arm-none-eabi-10-2020-q4-major/arm-none-eabi/include/c++/10.2.1/limits ****       max() _GLIBCXX_USE_NOEXCEPT { return _Tp(); }
 322:/usr/share/gcc-arm-none-eabi-10-2020-q4-major/arm-none-eabi/include/c++/10.2.1/limits **** 
 323:/usr/share/gcc-arm-none-eabi-10-2020-q4-major/arm-none-eabi/include/c++/10.2.1/limits **** #if __cplusplus >= 201103L
 324:/usr/share/gcc-arm-none-eabi-10-2020-q4-major/arm-none-eabi/include/c++/10.2.1/limits ****       /** A finite value x such that there is no other finite value y
 325:/usr/share/gcc-arm-none-eabi-10-2020-q4-major/arm-none-eabi/include/c++/10.2.1/limits ****        *  where y < x.  */
 326:/usr/share/gcc-arm-none-eabi-10-2020-q4-major/arm-none-eabi/include/c++/10.2.1/limits ****       static constexpr _Tp
 327:/usr/share/gcc-arm-none-eabi-10-2020-q4-major/arm-none-eabi/include/c++/10.2.1/limits ****       lowest() noexcept { return _Tp(); }
 328:/usr/share/gcc-arm-none-eabi-10-2020-q4-major/arm-none-eabi/include/c++/10.2.1/limits **** #endif
 329:/usr/share/gcc-arm-none-eabi-10-2020-q4-major/arm-none-eabi/include/c++/10.2.1/limits **** 
 330:/usr/share/gcc-arm-none-eabi-10-2020-q4-major/arm-none-eabi/include/c++/10.2.1/limits ****       /** The @e machine @e epsilon:  the difference between 1 and the least
 331:/usr/share/gcc-arm-none-eabi-10-2020-q4-major/arm-none-eabi/include/c++/10.2.1/limits **** 	  value greater than 1 that is representable.  */
 332:/usr/share/gcc-arm-none-eabi-10-2020-q4-major/arm-none-eabi/include/c++/10.2.1/limits ****       static _GLIBCXX_CONSTEXPR _Tp
 333:/usr/share/gcc-arm-none-eabi-10-2020-q4-major/arm-none-eabi/include/c++/10.2.1/limits ****       epsilon() _GLIBCXX_USE_NOEXCEPT { return _Tp(); }
 334:/usr/share/gcc-arm-none-eabi-10-2020-q4-major/arm-none-eabi/include/c++/10.2.1/limits **** 
 335:/usr/share/gcc-arm-none-eabi-10-2020-q4-major/arm-none-eabi/include/c++/10.2.1/limits ****       /** The maximum rounding error measurement (see LIA-1).  */
 336:/usr/share/gcc-arm-none-eabi-10-2020-q4-major/arm-none-eabi/include/c++/10.2.1/limits ****       static _GLIBCXX_CONSTEXPR _Tp
 337:/usr/share/gcc-arm-none-eabi-10-2020-q4-major/arm-none-eabi/include/c++/10.2.1/limits ****       round_error() _GLIBCXX_USE_NOEXCEPT { return _Tp(); }
 338:/usr/share/gcc-arm-none-eabi-10-2020-q4-major/arm-none-eabi/include/c++/10.2.1/limits **** 
 339:/usr/share/gcc-arm-none-eabi-10-2020-q4-major/arm-none-eabi/include/c++/10.2.1/limits ****       /** The representation of positive infinity, if @c has_infinity.  */
 340:/usr/share/gcc-arm-none-eabi-10-2020-q4-major/arm-none-eabi/include/c++/10.2.1/limits ****       static _GLIBCXX_CONSTEXPR _Tp
 341:/usr/share/gcc-arm-none-eabi-10-2020-q4-major/arm-none-eabi/include/c++/10.2.1/limits ****       infinity() _GLIBCXX_USE_NOEXCEPT { return _Tp(); }
 342:/usr/share/gcc-arm-none-eabi-10-2020-q4-major/arm-none-eabi/include/c++/10.2.1/limits **** 
 343:/usr/share/gcc-arm-none-eabi-10-2020-q4-major/arm-none-eabi/include/c++/10.2.1/limits ****       /** The representation of a quiet Not a Number,
 344:/usr/share/gcc-arm-none-eabi-10-2020-q4-major/arm-none-eabi/include/c++/10.2.1/limits **** 	  if @c has_quiet_NaN. */
 345:/usr/share/gcc-arm-none-eabi-10-2020-q4-major/arm-none-eabi/include/c++/10.2.1/limits ****       static _GLIBCXX_CONSTEXPR _Tp
 346:/usr/share/gcc-arm-none-eabi-10-2020-q4-major/arm-none-eabi/include/c++/10.2.1/limits ****       quiet_NaN() _GLIBCXX_USE_NOEXCEPT { return _Tp(); }
 347:/usr/share/gcc-arm-none-eabi-10-2020-q4-major/arm-none-eabi/include/c++/10.2.1/limits **** 
 348:/usr/share/gcc-arm-none-eabi-10-2020-q4-major/arm-none-eabi/include/c++/10.2.1/limits ****       /** The representation of a signaling Not a Number, if
 349:/usr/share/gcc-arm-none-eabi-10-2020-q4-major/arm-none-eabi/include/c++/10.2.1/limits **** 	  @c has_signaling_NaN. */
 350:/usr/share/gcc-arm-none-eabi-10-2020-q4-major/arm-none-eabi/include/c++/10.2.1/limits ****       static _GLIBCXX_CONSTEXPR _Tp
 351:/usr/share/gcc-arm-none-eabi-10-2020-q4-major/arm-none-eabi/include/c++/10.2.1/limits ****       signaling_NaN() _GLIBCXX_USE_NOEXCEPT { return _Tp(); }
 352:/usr/share/gcc-arm-none-eabi-10-2020-q4-major/arm-none-eabi/include/c++/10.2.1/limits **** 
 353:/usr/share/gcc-arm-none-eabi-10-2020-q4-major/arm-none-eabi/include/c++/10.2.1/limits ****       /** The minimum positive denormalized value.  For types where
 354:/usr/share/gcc-arm-none-eabi-10-2020-q4-major/arm-none-eabi/include/c++/10.2.1/limits **** 	  @c has_denorm is false, this is the minimum positive normalized
 355:/usr/share/gcc-arm-none-eabi-10-2020-q4-major/arm-none-eabi/include/c++/10.2.1/limits **** 	  value.  */
 356:/usr/share/gcc-arm-none-eabi-10-2020-q4-major/arm-none-eabi/include/c++/10.2.1/limits ****       static _GLIBCXX_CONSTEXPR _Tp
 357:/usr/share/gcc-arm-none-eabi-10-2020-q4-major/arm-none-eabi/include/c++/10.2.1/limits ****       denorm_min() _GLIBCXX_USE_NOEXCEPT { return _Tp(); }
 358:/usr/share/gcc-arm-none-eabi-10-2020-q4-major/arm-none-eabi/include/c++/10.2.1/limits ****     };
 359:/usr/share/gcc-arm-none-eabi-10-2020-q4-major/arm-none-eabi/include/c++/10.2.1/limits **** 
 360:/usr/share/gcc-arm-none-eabi-10-2020-q4-major/arm-none-eabi/include/c++/10.2.1/limits ****   // _GLIBCXX_RESOLVE_LIB_DEFECTS
 361:/usr/share/gcc-arm-none-eabi-10-2020-q4-major/arm-none-eabi/include/c++/10.2.1/limits ****   // 559. numeric_limits<const T>
 362:/usr/share/gcc-arm-none-eabi-10-2020-q4-major/arm-none-eabi/include/c++/10.2.1/limits **** 
 363:/usr/share/gcc-arm-none-eabi-10-2020-q4-major/arm-none-eabi/include/c++/10.2.1/limits ****   template<typename _Tp>
 364:/usr/share/gcc-arm-none-eabi-10-2020-q4-major/arm-none-eabi/include/c++/10.2.1/limits ****     struct numeric_limits<const _Tp>
ARM GAS  /tmp/ccaL2bzX.s 			page 21


 365:/usr/share/gcc-arm-none-eabi-10-2020-q4-major/arm-none-eabi/include/c++/10.2.1/limits ****     : public numeric_limits<_Tp> { };
 366:/usr/share/gcc-arm-none-eabi-10-2020-q4-major/arm-none-eabi/include/c++/10.2.1/limits **** 
 367:/usr/share/gcc-arm-none-eabi-10-2020-q4-major/arm-none-eabi/include/c++/10.2.1/limits ****   template<typename _Tp>
 368:/usr/share/gcc-arm-none-eabi-10-2020-q4-major/arm-none-eabi/include/c++/10.2.1/limits ****     struct numeric_limits<volatile _Tp>
 369:/usr/share/gcc-arm-none-eabi-10-2020-q4-major/arm-none-eabi/include/c++/10.2.1/limits ****     : public numeric_limits<_Tp> { };
 370:/usr/share/gcc-arm-none-eabi-10-2020-q4-major/arm-none-eabi/include/c++/10.2.1/limits **** 
 371:/usr/share/gcc-arm-none-eabi-10-2020-q4-major/arm-none-eabi/include/c++/10.2.1/limits ****   template<typename _Tp>
 372:/usr/share/gcc-arm-none-eabi-10-2020-q4-major/arm-none-eabi/include/c++/10.2.1/limits ****     struct numeric_limits<const volatile _Tp>
 373:/usr/share/gcc-arm-none-eabi-10-2020-q4-major/arm-none-eabi/include/c++/10.2.1/limits ****     : public numeric_limits<_Tp> { };
 374:/usr/share/gcc-arm-none-eabi-10-2020-q4-major/arm-none-eabi/include/c++/10.2.1/limits **** 
 375:/usr/share/gcc-arm-none-eabi-10-2020-q4-major/arm-none-eabi/include/c++/10.2.1/limits ****   // Now there follow 16 explicit specializations.  Yes, 16.  Make sure
 376:/usr/share/gcc-arm-none-eabi-10-2020-q4-major/arm-none-eabi/include/c++/10.2.1/limits ****   // you get the count right. (18 in C++11 mode, with char16_t and char32_t.)
 377:/usr/share/gcc-arm-none-eabi-10-2020-q4-major/arm-none-eabi/include/c++/10.2.1/limits ****   // (+1 if char8_t is enabled.)
 378:/usr/share/gcc-arm-none-eabi-10-2020-q4-major/arm-none-eabi/include/c++/10.2.1/limits **** 
 379:/usr/share/gcc-arm-none-eabi-10-2020-q4-major/arm-none-eabi/include/c++/10.2.1/limits ****   // _GLIBCXX_RESOLVE_LIB_DEFECTS
 380:/usr/share/gcc-arm-none-eabi-10-2020-q4-major/arm-none-eabi/include/c++/10.2.1/limits ****   // 184. numeric_limits<bool> wording problems
 381:/usr/share/gcc-arm-none-eabi-10-2020-q4-major/arm-none-eabi/include/c++/10.2.1/limits **** 
 382:/usr/share/gcc-arm-none-eabi-10-2020-q4-major/arm-none-eabi/include/c++/10.2.1/limits ****   /// numeric_limits<bool> specialization.
 383:/usr/share/gcc-arm-none-eabi-10-2020-q4-major/arm-none-eabi/include/c++/10.2.1/limits ****   template<>
 384:/usr/share/gcc-arm-none-eabi-10-2020-q4-major/arm-none-eabi/include/c++/10.2.1/limits ****     struct numeric_limits<bool>
 385:/usr/share/gcc-arm-none-eabi-10-2020-q4-major/arm-none-eabi/include/c++/10.2.1/limits ****     {
 386:/usr/share/gcc-arm-none-eabi-10-2020-q4-major/arm-none-eabi/include/c++/10.2.1/limits ****       static _GLIBCXX_USE_CONSTEXPR bool is_specialized = true;
 387:/usr/share/gcc-arm-none-eabi-10-2020-q4-major/arm-none-eabi/include/c++/10.2.1/limits **** 
 388:/usr/share/gcc-arm-none-eabi-10-2020-q4-major/arm-none-eabi/include/c++/10.2.1/limits ****       static _GLIBCXX_CONSTEXPR bool
 389:/usr/share/gcc-arm-none-eabi-10-2020-q4-major/arm-none-eabi/include/c++/10.2.1/limits ****       min() _GLIBCXX_USE_NOEXCEPT { return false; }
 390:/usr/share/gcc-arm-none-eabi-10-2020-q4-major/arm-none-eabi/include/c++/10.2.1/limits **** 
 391:/usr/share/gcc-arm-none-eabi-10-2020-q4-major/arm-none-eabi/include/c++/10.2.1/limits ****       static _GLIBCXX_CONSTEXPR bool
 392:/usr/share/gcc-arm-none-eabi-10-2020-q4-major/arm-none-eabi/include/c++/10.2.1/limits ****       max() _GLIBCXX_USE_NOEXCEPT { return true; }
 393:/usr/share/gcc-arm-none-eabi-10-2020-q4-major/arm-none-eabi/include/c++/10.2.1/limits **** 
 394:/usr/share/gcc-arm-none-eabi-10-2020-q4-major/arm-none-eabi/include/c++/10.2.1/limits **** #if __cplusplus >= 201103L
 395:/usr/share/gcc-arm-none-eabi-10-2020-q4-major/arm-none-eabi/include/c++/10.2.1/limits ****       static constexpr bool
 396:/usr/share/gcc-arm-none-eabi-10-2020-q4-major/arm-none-eabi/include/c++/10.2.1/limits ****       lowest() noexcept { return min(); }
 397:/usr/share/gcc-arm-none-eabi-10-2020-q4-major/arm-none-eabi/include/c++/10.2.1/limits **** #endif
 398:/usr/share/gcc-arm-none-eabi-10-2020-q4-major/arm-none-eabi/include/c++/10.2.1/limits ****       static _GLIBCXX_USE_CONSTEXPR int digits = 1;
 399:/usr/share/gcc-arm-none-eabi-10-2020-q4-major/arm-none-eabi/include/c++/10.2.1/limits ****       static _GLIBCXX_USE_CONSTEXPR int digits10 = 0;
 400:/usr/share/gcc-arm-none-eabi-10-2020-q4-major/arm-none-eabi/include/c++/10.2.1/limits **** #if __cplusplus >= 201103L
 401:/usr/share/gcc-arm-none-eabi-10-2020-q4-major/arm-none-eabi/include/c++/10.2.1/limits ****       static constexpr int max_digits10 = 0;
 402:/usr/share/gcc-arm-none-eabi-10-2020-q4-major/arm-none-eabi/include/c++/10.2.1/limits **** #endif
 403:/usr/share/gcc-arm-none-eabi-10-2020-q4-major/arm-none-eabi/include/c++/10.2.1/limits ****       static _GLIBCXX_USE_CONSTEXPR bool is_signed = false;
 404:/usr/share/gcc-arm-none-eabi-10-2020-q4-major/arm-none-eabi/include/c++/10.2.1/limits ****       static _GLIBCXX_USE_CONSTEXPR bool is_integer = true;
 405:/usr/share/gcc-arm-none-eabi-10-2020-q4-major/arm-none-eabi/include/c++/10.2.1/limits ****       static _GLIBCXX_USE_CONSTEXPR bool is_exact = true;
 406:/usr/share/gcc-arm-none-eabi-10-2020-q4-major/arm-none-eabi/include/c++/10.2.1/limits ****       static _GLIBCXX_USE_CONSTEXPR int radix = 2;
 407:/usr/share/gcc-arm-none-eabi-10-2020-q4-major/arm-none-eabi/include/c++/10.2.1/limits **** 
 408:/usr/share/gcc-arm-none-eabi-10-2020-q4-major/arm-none-eabi/include/c++/10.2.1/limits ****       static _GLIBCXX_CONSTEXPR bool
 409:/usr/share/gcc-arm-none-eabi-10-2020-q4-major/arm-none-eabi/include/c++/10.2.1/limits ****       epsilon() _GLIBCXX_USE_NOEXCEPT { return false; }
 410:/usr/share/gcc-arm-none-eabi-10-2020-q4-major/arm-none-eabi/include/c++/10.2.1/limits **** 
 411:/usr/share/gcc-arm-none-eabi-10-2020-q4-major/arm-none-eabi/include/c++/10.2.1/limits ****       static _GLIBCXX_CONSTEXPR bool
 412:/usr/share/gcc-arm-none-eabi-10-2020-q4-major/arm-none-eabi/include/c++/10.2.1/limits ****       round_error() _GLIBCXX_USE_NOEXCEPT { return false; }
 413:/usr/share/gcc-arm-none-eabi-10-2020-q4-major/arm-none-eabi/include/c++/10.2.1/limits **** 
 414:/usr/share/gcc-arm-none-eabi-10-2020-q4-major/arm-none-eabi/include/c++/10.2.1/limits ****       static _GLIBCXX_USE_CONSTEXPR int min_exponent = 0;
 415:/usr/share/gcc-arm-none-eabi-10-2020-q4-major/arm-none-eabi/include/c++/10.2.1/limits ****       static _GLIBCXX_USE_CONSTEXPR int min_exponent10 = 0;
 416:/usr/share/gcc-arm-none-eabi-10-2020-q4-major/arm-none-eabi/include/c++/10.2.1/limits ****       static _GLIBCXX_USE_CONSTEXPR int max_exponent = 0;
 417:/usr/share/gcc-arm-none-eabi-10-2020-q4-major/arm-none-eabi/include/c++/10.2.1/limits ****       static _GLIBCXX_USE_CONSTEXPR int max_exponent10 = 0;
 418:/usr/share/gcc-arm-none-eabi-10-2020-q4-major/arm-none-eabi/include/c++/10.2.1/limits **** 
 419:/usr/share/gcc-arm-none-eabi-10-2020-q4-major/arm-none-eabi/include/c++/10.2.1/limits ****       static _GLIBCXX_USE_CONSTEXPR bool has_infinity = false;
 420:/usr/share/gcc-arm-none-eabi-10-2020-q4-major/arm-none-eabi/include/c++/10.2.1/limits ****       static _GLIBCXX_USE_CONSTEXPR bool has_quiet_NaN = false;
 421:/usr/share/gcc-arm-none-eabi-10-2020-q4-major/arm-none-eabi/include/c++/10.2.1/limits ****       static _GLIBCXX_USE_CONSTEXPR bool has_signaling_NaN = false;
ARM GAS  /tmp/ccaL2bzX.s 			page 22


 422:/usr/share/gcc-arm-none-eabi-10-2020-q4-major/arm-none-eabi/include/c++/10.2.1/limits ****       static _GLIBCXX_USE_CONSTEXPR float_denorm_style has_denorm
 423:/usr/share/gcc-arm-none-eabi-10-2020-q4-major/arm-none-eabi/include/c++/10.2.1/limits ****        = denorm_absent;
 424:/usr/share/gcc-arm-none-eabi-10-2020-q4-major/arm-none-eabi/include/c++/10.2.1/limits ****       static _GLIBCXX_USE_CONSTEXPR bool has_denorm_loss = false;
 425:/usr/share/gcc-arm-none-eabi-10-2020-q4-major/arm-none-eabi/include/c++/10.2.1/limits **** 
 426:/usr/share/gcc-arm-none-eabi-10-2020-q4-major/arm-none-eabi/include/c++/10.2.1/limits ****       static _GLIBCXX_CONSTEXPR bool
 427:/usr/share/gcc-arm-none-eabi-10-2020-q4-major/arm-none-eabi/include/c++/10.2.1/limits ****       infinity() _GLIBCXX_USE_NOEXCEPT { return false; }
 428:/usr/share/gcc-arm-none-eabi-10-2020-q4-major/arm-none-eabi/include/c++/10.2.1/limits **** 
 429:/usr/share/gcc-arm-none-eabi-10-2020-q4-major/arm-none-eabi/include/c++/10.2.1/limits ****       static _GLIBCXX_CONSTEXPR bool
 430:/usr/share/gcc-arm-none-eabi-10-2020-q4-major/arm-none-eabi/include/c++/10.2.1/limits ****       quiet_NaN() _GLIBCXX_USE_NOEXCEPT { return false; }
 431:/usr/share/gcc-arm-none-eabi-10-2020-q4-major/arm-none-eabi/include/c++/10.2.1/limits **** 
 432:/usr/share/gcc-arm-none-eabi-10-2020-q4-major/arm-none-eabi/include/c++/10.2.1/limits ****       static _GLIBCXX_CONSTEXPR bool
 433:/usr/share/gcc-arm-none-eabi-10-2020-q4-major/arm-none-eabi/include/c++/10.2.1/limits ****       signaling_NaN() _GLIBCXX_USE_NOEXCEPT { return false; }
 434:/usr/share/gcc-arm-none-eabi-10-2020-q4-major/arm-none-eabi/include/c++/10.2.1/limits **** 
 435:/usr/share/gcc-arm-none-eabi-10-2020-q4-major/arm-none-eabi/include/c++/10.2.1/limits ****       static _GLIBCXX_CONSTEXPR bool
 436:/usr/share/gcc-arm-none-eabi-10-2020-q4-major/arm-none-eabi/include/c++/10.2.1/limits ****       denorm_min() _GLIBCXX_USE_NOEXCEPT { return false; }
 437:/usr/share/gcc-arm-none-eabi-10-2020-q4-major/arm-none-eabi/include/c++/10.2.1/limits **** 
 438:/usr/share/gcc-arm-none-eabi-10-2020-q4-major/arm-none-eabi/include/c++/10.2.1/limits ****       static _GLIBCXX_USE_CONSTEXPR bool is_iec559 = false;
 439:/usr/share/gcc-arm-none-eabi-10-2020-q4-major/arm-none-eabi/include/c++/10.2.1/limits ****       static _GLIBCXX_USE_CONSTEXPR bool is_bounded = true;
 440:/usr/share/gcc-arm-none-eabi-10-2020-q4-major/arm-none-eabi/include/c++/10.2.1/limits ****       static _GLIBCXX_USE_CONSTEXPR bool is_modulo = false;
 441:/usr/share/gcc-arm-none-eabi-10-2020-q4-major/arm-none-eabi/include/c++/10.2.1/limits **** 
 442:/usr/share/gcc-arm-none-eabi-10-2020-q4-major/arm-none-eabi/include/c++/10.2.1/limits ****       // It is not clear what it means for a boolean type to trap.
 443:/usr/share/gcc-arm-none-eabi-10-2020-q4-major/arm-none-eabi/include/c++/10.2.1/limits ****       // This is a DR on the LWG issue list.  Here, I use integer
 444:/usr/share/gcc-arm-none-eabi-10-2020-q4-major/arm-none-eabi/include/c++/10.2.1/limits ****       // promotion semantics.
 445:/usr/share/gcc-arm-none-eabi-10-2020-q4-major/arm-none-eabi/include/c++/10.2.1/limits ****       static _GLIBCXX_USE_CONSTEXPR bool traps = __glibcxx_integral_traps;
 446:/usr/share/gcc-arm-none-eabi-10-2020-q4-major/arm-none-eabi/include/c++/10.2.1/limits ****       static _GLIBCXX_USE_CONSTEXPR bool tinyness_before = false;
 447:/usr/share/gcc-arm-none-eabi-10-2020-q4-major/arm-none-eabi/include/c++/10.2.1/limits ****       static _GLIBCXX_USE_CONSTEXPR float_round_style round_style
 448:/usr/share/gcc-arm-none-eabi-10-2020-q4-major/arm-none-eabi/include/c++/10.2.1/limits ****        = round_toward_zero;
 449:/usr/share/gcc-arm-none-eabi-10-2020-q4-major/arm-none-eabi/include/c++/10.2.1/limits ****     };
 450:/usr/share/gcc-arm-none-eabi-10-2020-q4-major/arm-none-eabi/include/c++/10.2.1/limits **** 
 451:/usr/share/gcc-arm-none-eabi-10-2020-q4-major/arm-none-eabi/include/c++/10.2.1/limits ****   /// numeric_limits<char> specialization.
 452:/usr/share/gcc-arm-none-eabi-10-2020-q4-major/arm-none-eabi/include/c++/10.2.1/limits ****   template<>
 453:/usr/share/gcc-arm-none-eabi-10-2020-q4-major/arm-none-eabi/include/c++/10.2.1/limits ****     struct numeric_limits<char>
 454:/usr/share/gcc-arm-none-eabi-10-2020-q4-major/arm-none-eabi/include/c++/10.2.1/limits ****     {
 455:/usr/share/gcc-arm-none-eabi-10-2020-q4-major/arm-none-eabi/include/c++/10.2.1/limits ****       static _GLIBCXX_USE_CONSTEXPR bool is_specialized = true;
 456:/usr/share/gcc-arm-none-eabi-10-2020-q4-major/arm-none-eabi/include/c++/10.2.1/limits **** 
 457:/usr/share/gcc-arm-none-eabi-10-2020-q4-major/arm-none-eabi/include/c++/10.2.1/limits ****       static _GLIBCXX_CONSTEXPR char
 458:/usr/share/gcc-arm-none-eabi-10-2020-q4-major/arm-none-eabi/include/c++/10.2.1/limits ****       min() _GLIBCXX_USE_NOEXCEPT { return __glibcxx_min(char); }
 459:/usr/share/gcc-arm-none-eabi-10-2020-q4-major/arm-none-eabi/include/c++/10.2.1/limits **** 
 460:/usr/share/gcc-arm-none-eabi-10-2020-q4-major/arm-none-eabi/include/c++/10.2.1/limits ****       static _GLIBCXX_CONSTEXPR char
 461:/usr/share/gcc-arm-none-eabi-10-2020-q4-major/arm-none-eabi/include/c++/10.2.1/limits ****       max() _GLIBCXX_USE_NOEXCEPT { return __glibcxx_max(char); }
 462:/usr/share/gcc-arm-none-eabi-10-2020-q4-major/arm-none-eabi/include/c++/10.2.1/limits **** 
 463:/usr/share/gcc-arm-none-eabi-10-2020-q4-major/arm-none-eabi/include/c++/10.2.1/limits **** #if __cplusplus >= 201103L
 464:/usr/share/gcc-arm-none-eabi-10-2020-q4-major/arm-none-eabi/include/c++/10.2.1/limits ****       static constexpr char
 465:/usr/share/gcc-arm-none-eabi-10-2020-q4-major/arm-none-eabi/include/c++/10.2.1/limits ****       lowest() noexcept { return min(); }
 466:/usr/share/gcc-arm-none-eabi-10-2020-q4-major/arm-none-eabi/include/c++/10.2.1/limits **** #endif
 467:/usr/share/gcc-arm-none-eabi-10-2020-q4-major/arm-none-eabi/include/c++/10.2.1/limits **** 
 468:/usr/share/gcc-arm-none-eabi-10-2020-q4-major/arm-none-eabi/include/c++/10.2.1/limits ****       static _GLIBCXX_USE_CONSTEXPR int digits = __glibcxx_digits (char);
 469:/usr/share/gcc-arm-none-eabi-10-2020-q4-major/arm-none-eabi/include/c++/10.2.1/limits ****       static _GLIBCXX_USE_CONSTEXPR int digits10 = __glibcxx_digits10 (char);
 470:/usr/share/gcc-arm-none-eabi-10-2020-q4-major/arm-none-eabi/include/c++/10.2.1/limits **** #if __cplusplus >= 201103L
 471:/usr/share/gcc-arm-none-eabi-10-2020-q4-major/arm-none-eabi/include/c++/10.2.1/limits ****       static constexpr int max_digits10 = 0;
 472:/usr/share/gcc-arm-none-eabi-10-2020-q4-major/arm-none-eabi/include/c++/10.2.1/limits **** #endif
 473:/usr/share/gcc-arm-none-eabi-10-2020-q4-major/arm-none-eabi/include/c++/10.2.1/limits ****       static _GLIBCXX_USE_CONSTEXPR bool is_signed = __glibcxx_signed (char);
 474:/usr/share/gcc-arm-none-eabi-10-2020-q4-major/arm-none-eabi/include/c++/10.2.1/limits ****       static _GLIBCXX_USE_CONSTEXPR bool is_integer = true;
 475:/usr/share/gcc-arm-none-eabi-10-2020-q4-major/arm-none-eabi/include/c++/10.2.1/limits ****       static _GLIBCXX_USE_CONSTEXPR bool is_exact = true;
 476:/usr/share/gcc-arm-none-eabi-10-2020-q4-major/arm-none-eabi/include/c++/10.2.1/limits ****       static _GLIBCXX_USE_CONSTEXPR int radix = 2;
 477:/usr/share/gcc-arm-none-eabi-10-2020-q4-major/arm-none-eabi/include/c++/10.2.1/limits **** 
 478:/usr/share/gcc-arm-none-eabi-10-2020-q4-major/arm-none-eabi/include/c++/10.2.1/limits ****       static _GLIBCXX_CONSTEXPR char
ARM GAS  /tmp/ccaL2bzX.s 			page 23


 479:/usr/share/gcc-arm-none-eabi-10-2020-q4-major/arm-none-eabi/include/c++/10.2.1/limits ****       epsilon() _GLIBCXX_USE_NOEXCEPT { return 0; }
 480:/usr/share/gcc-arm-none-eabi-10-2020-q4-major/arm-none-eabi/include/c++/10.2.1/limits **** 
 481:/usr/share/gcc-arm-none-eabi-10-2020-q4-major/arm-none-eabi/include/c++/10.2.1/limits ****       static _GLIBCXX_CONSTEXPR char
 482:/usr/share/gcc-arm-none-eabi-10-2020-q4-major/arm-none-eabi/include/c++/10.2.1/limits ****       round_error() _GLIBCXX_USE_NOEXCEPT { return 0; }
 483:/usr/share/gcc-arm-none-eabi-10-2020-q4-major/arm-none-eabi/include/c++/10.2.1/limits **** 
 484:/usr/share/gcc-arm-none-eabi-10-2020-q4-major/arm-none-eabi/include/c++/10.2.1/limits ****       static _GLIBCXX_USE_CONSTEXPR int min_exponent = 0;
 485:/usr/share/gcc-arm-none-eabi-10-2020-q4-major/arm-none-eabi/include/c++/10.2.1/limits ****       static _GLIBCXX_USE_CONSTEXPR int min_exponent10 = 0;
 486:/usr/share/gcc-arm-none-eabi-10-2020-q4-major/arm-none-eabi/include/c++/10.2.1/limits ****       static _GLIBCXX_USE_CONSTEXPR int max_exponent = 0;
 487:/usr/share/gcc-arm-none-eabi-10-2020-q4-major/arm-none-eabi/include/c++/10.2.1/limits ****       static _GLIBCXX_USE_CONSTEXPR int max_exponent10 = 0;
 488:/usr/share/gcc-arm-none-eabi-10-2020-q4-major/arm-none-eabi/include/c++/10.2.1/limits **** 
 489:/usr/share/gcc-arm-none-eabi-10-2020-q4-major/arm-none-eabi/include/c++/10.2.1/limits ****       static _GLIBCXX_USE_CONSTEXPR bool has_infinity = false;
 490:/usr/share/gcc-arm-none-eabi-10-2020-q4-major/arm-none-eabi/include/c++/10.2.1/limits ****       static _GLIBCXX_USE_CONSTEXPR bool has_quiet_NaN = false;
 491:/usr/share/gcc-arm-none-eabi-10-2020-q4-major/arm-none-eabi/include/c++/10.2.1/limits ****       static _GLIBCXX_USE_CONSTEXPR bool has_signaling_NaN = false;
 492:/usr/share/gcc-arm-none-eabi-10-2020-q4-major/arm-none-eabi/include/c++/10.2.1/limits ****       static _GLIBCXX_USE_CONSTEXPR float_denorm_style has_denorm
 493:/usr/share/gcc-arm-none-eabi-10-2020-q4-major/arm-none-eabi/include/c++/10.2.1/limits ****        = denorm_absent;
 494:/usr/share/gcc-arm-none-eabi-10-2020-q4-major/arm-none-eabi/include/c++/10.2.1/limits ****       static _GLIBCXX_USE_CONSTEXPR bool has_denorm_loss = false;
 495:/usr/share/gcc-arm-none-eabi-10-2020-q4-major/arm-none-eabi/include/c++/10.2.1/limits **** 
 496:/usr/share/gcc-arm-none-eabi-10-2020-q4-major/arm-none-eabi/include/c++/10.2.1/limits ****       static _GLIBCXX_CONSTEXPR
 497:/usr/share/gcc-arm-none-eabi-10-2020-q4-major/arm-none-eabi/include/c++/10.2.1/limits ****       char infinity() _GLIBCXX_USE_NOEXCEPT { return char(); }
 498:/usr/share/gcc-arm-none-eabi-10-2020-q4-major/arm-none-eabi/include/c++/10.2.1/limits **** 
 499:/usr/share/gcc-arm-none-eabi-10-2020-q4-major/arm-none-eabi/include/c++/10.2.1/limits ****       static _GLIBCXX_CONSTEXPR char
 500:/usr/share/gcc-arm-none-eabi-10-2020-q4-major/arm-none-eabi/include/c++/10.2.1/limits ****       quiet_NaN() _GLIBCXX_USE_NOEXCEPT { return char(); }
 501:/usr/share/gcc-arm-none-eabi-10-2020-q4-major/arm-none-eabi/include/c++/10.2.1/limits **** 
 502:/usr/share/gcc-arm-none-eabi-10-2020-q4-major/arm-none-eabi/include/c++/10.2.1/limits ****       static _GLIBCXX_CONSTEXPR char
 503:/usr/share/gcc-arm-none-eabi-10-2020-q4-major/arm-none-eabi/include/c++/10.2.1/limits ****       signaling_NaN() _GLIBCXX_USE_NOEXCEPT { return char(); }
 504:/usr/share/gcc-arm-none-eabi-10-2020-q4-major/arm-none-eabi/include/c++/10.2.1/limits **** 
 505:/usr/share/gcc-arm-none-eabi-10-2020-q4-major/arm-none-eabi/include/c++/10.2.1/limits ****       static _GLIBCXX_CONSTEXPR char
 506:/usr/share/gcc-arm-none-eabi-10-2020-q4-major/arm-none-eabi/include/c++/10.2.1/limits ****       denorm_min() _GLIBCXX_USE_NOEXCEPT { return static_cast<char>(0); }
 507:/usr/share/gcc-arm-none-eabi-10-2020-q4-major/arm-none-eabi/include/c++/10.2.1/limits **** 
 508:/usr/share/gcc-arm-none-eabi-10-2020-q4-major/arm-none-eabi/include/c++/10.2.1/limits ****       static _GLIBCXX_USE_CONSTEXPR bool is_iec559 = false;
 509:/usr/share/gcc-arm-none-eabi-10-2020-q4-major/arm-none-eabi/include/c++/10.2.1/limits ****       static _GLIBCXX_USE_CONSTEXPR bool is_bounded = true;
 510:/usr/share/gcc-arm-none-eabi-10-2020-q4-major/arm-none-eabi/include/c++/10.2.1/limits ****       static _GLIBCXX_USE_CONSTEXPR bool is_modulo = !is_signed;
 511:/usr/share/gcc-arm-none-eabi-10-2020-q4-major/arm-none-eabi/include/c++/10.2.1/limits **** 
 512:/usr/share/gcc-arm-none-eabi-10-2020-q4-major/arm-none-eabi/include/c++/10.2.1/limits ****       static _GLIBCXX_USE_CONSTEXPR bool traps = __glibcxx_integral_traps;
 513:/usr/share/gcc-arm-none-eabi-10-2020-q4-major/arm-none-eabi/include/c++/10.2.1/limits ****       static _GLIBCXX_USE_CONSTEXPR bool tinyness_before = false;
 514:/usr/share/gcc-arm-none-eabi-10-2020-q4-major/arm-none-eabi/include/c++/10.2.1/limits ****       static _GLIBCXX_USE_CONSTEXPR float_round_style round_style
 515:/usr/share/gcc-arm-none-eabi-10-2020-q4-major/arm-none-eabi/include/c++/10.2.1/limits ****        = round_toward_zero;
 516:/usr/share/gcc-arm-none-eabi-10-2020-q4-major/arm-none-eabi/include/c++/10.2.1/limits ****     };
 517:/usr/share/gcc-arm-none-eabi-10-2020-q4-major/arm-none-eabi/include/c++/10.2.1/limits **** 
 518:/usr/share/gcc-arm-none-eabi-10-2020-q4-major/arm-none-eabi/include/c++/10.2.1/limits ****   /// numeric_limits<signed char> specialization.
 519:/usr/share/gcc-arm-none-eabi-10-2020-q4-major/arm-none-eabi/include/c++/10.2.1/limits ****   template<>
 520:/usr/share/gcc-arm-none-eabi-10-2020-q4-major/arm-none-eabi/include/c++/10.2.1/limits ****     struct numeric_limits<signed char>
 521:/usr/share/gcc-arm-none-eabi-10-2020-q4-major/arm-none-eabi/include/c++/10.2.1/limits ****     {
 522:/usr/share/gcc-arm-none-eabi-10-2020-q4-major/arm-none-eabi/include/c++/10.2.1/limits ****       static _GLIBCXX_USE_CONSTEXPR bool is_specialized = true;
 523:/usr/share/gcc-arm-none-eabi-10-2020-q4-major/arm-none-eabi/include/c++/10.2.1/limits **** 
 524:/usr/share/gcc-arm-none-eabi-10-2020-q4-major/arm-none-eabi/include/c++/10.2.1/limits ****       static _GLIBCXX_CONSTEXPR signed char
 525:/usr/share/gcc-arm-none-eabi-10-2020-q4-major/arm-none-eabi/include/c++/10.2.1/limits ****       min() _GLIBCXX_USE_NOEXCEPT { return -__SCHAR_MAX__ - 1; }
 526:/usr/share/gcc-arm-none-eabi-10-2020-q4-major/arm-none-eabi/include/c++/10.2.1/limits **** 
 527:/usr/share/gcc-arm-none-eabi-10-2020-q4-major/arm-none-eabi/include/c++/10.2.1/limits ****       static _GLIBCXX_CONSTEXPR signed char
 528:/usr/share/gcc-arm-none-eabi-10-2020-q4-major/arm-none-eabi/include/c++/10.2.1/limits ****       max() _GLIBCXX_USE_NOEXCEPT { return __SCHAR_MAX__; }
 529:/usr/share/gcc-arm-none-eabi-10-2020-q4-major/arm-none-eabi/include/c++/10.2.1/limits **** 
 530:/usr/share/gcc-arm-none-eabi-10-2020-q4-major/arm-none-eabi/include/c++/10.2.1/limits **** #if __cplusplus >= 201103L
 531:/usr/share/gcc-arm-none-eabi-10-2020-q4-major/arm-none-eabi/include/c++/10.2.1/limits ****       static constexpr signed char
 532:/usr/share/gcc-arm-none-eabi-10-2020-q4-major/arm-none-eabi/include/c++/10.2.1/limits ****       lowest() noexcept { return min(); }
 533:/usr/share/gcc-arm-none-eabi-10-2020-q4-major/arm-none-eabi/include/c++/10.2.1/limits **** #endif
 534:/usr/share/gcc-arm-none-eabi-10-2020-q4-major/arm-none-eabi/include/c++/10.2.1/limits **** 
 535:/usr/share/gcc-arm-none-eabi-10-2020-q4-major/arm-none-eabi/include/c++/10.2.1/limits ****       static _GLIBCXX_USE_CONSTEXPR int digits = __glibcxx_digits (signed char);
ARM GAS  /tmp/ccaL2bzX.s 			page 24


 536:/usr/share/gcc-arm-none-eabi-10-2020-q4-major/arm-none-eabi/include/c++/10.2.1/limits ****       static _GLIBCXX_USE_CONSTEXPR int digits10
 537:/usr/share/gcc-arm-none-eabi-10-2020-q4-major/arm-none-eabi/include/c++/10.2.1/limits ****        = __glibcxx_digits10 (signed char);
 538:/usr/share/gcc-arm-none-eabi-10-2020-q4-major/arm-none-eabi/include/c++/10.2.1/limits **** #if __cplusplus >= 201103L
 539:/usr/share/gcc-arm-none-eabi-10-2020-q4-major/arm-none-eabi/include/c++/10.2.1/limits ****       static constexpr int max_digits10 = 0;
 540:/usr/share/gcc-arm-none-eabi-10-2020-q4-major/arm-none-eabi/include/c++/10.2.1/limits **** #endif
 541:/usr/share/gcc-arm-none-eabi-10-2020-q4-major/arm-none-eabi/include/c++/10.2.1/limits ****       static _GLIBCXX_USE_CONSTEXPR bool is_signed = true;
 542:/usr/share/gcc-arm-none-eabi-10-2020-q4-major/arm-none-eabi/include/c++/10.2.1/limits ****       static _GLIBCXX_USE_CONSTEXPR bool is_integer = true;
 543:/usr/share/gcc-arm-none-eabi-10-2020-q4-major/arm-none-eabi/include/c++/10.2.1/limits ****       static _GLIBCXX_USE_CONSTEXPR bool is_exact = true;
 544:/usr/share/gcc-arm-none-eabi-10-2020-q4-major/arm-none-eabi/include/c++/10.2.1/limits ****       static _GLIBCXX_USE_CONSTEXPR int radix = 2;
 545:/usr/share/gcc-arm-none-eabi-10-2020-q4-major/arm-none-eabi/include/c++/10.2.1/limits **** 
 546:/usr/share/gcc-arm-none-eabi-10-2020-q4-major/arm-none-eabi/include/c++/10.2.1/limits ****       static _GLIBCXX_CONSTEXPR signed char
 547:/usr/share/gcc-arm-none-eabi-10-2020-q4-major/arm-none-eabi/include/c++/10.2.1/limits ****       epsilon() _GLIBCXX_USE_NOEXCEPT { return 0; }
 548:/usr/share/gcc-arm-none-eabi-10-2020-q4-major/arm-none-eabi/include/c++/10.2.1/limits **** 
 549:/usr/share/gcc-arm-none-eabi-10-2020-q4-major/arm-none-eabi/include/c++/10.2.1/limits ****       static _GLIBCXX_CONSTEXPR signed char
 550:/usr/share/gcc-arm-none-eabi-10-2020-q4-major/arm-none-eabi/include/c++/10.2.1/limits ****       round_error() _GLIBCXX_USE_NOEXCEPT { return 0; }
 551:/usr/share/gcc-arm-none-eabi-10-2020-q4-major/arm-none-eabi/include/c++/10.2.1/limits **** 
 552:/usr/share/gcc-arm-none-eabi-10-2020-q4-major/arm-none-eabi/include/c++/10.2.1/limits ****       static _GLIBCXX_USE_CONSTEXPR int min_exponent = 0;
 553:/usr/share/gcc-arm-none-eabi-10-2020-q4-major/arm-none-eabi/include/c++/10.2.1/limits ****       static _GLIBCXX_USE_CONSTEXPR int min_exponent10 = 0;
 554:/usr/share/gcc-arm-none-eabi-10-2020-q4-major/arm-none-eabi/include/c++/10.2.1/limits ****       static _GLIBCXX_USE_CONSTEXPR int max_exponent = 0;
 555:/usr/share/gcc-arm-none-eabi-10-2020-q4-major/arm-none-eabi/include/c++/10.2.1/limits ****       static _GLIBCXX_USE_CONSTEXPR int max_exponent10 = 0;
 556:/usr/share/gcc-arm-none-eabi-10-2020-q4-major/arm-none-eabi/include/c++/10.2.1/limits **** 
 557:/usr/share/gcc-arm-none-eabi-10-2020-q4-major/arm-none-eabi/include/c++/10.2.1/limits ****       static _GLIBCXX_USE_CONSTEXPR bool has_infinity = false;
 558:/usr/share/gcc-arm-none-eabi-10-2020-q4-major/arm-none-eabi/include/c++/10.2.1/limits ****       static _GLIBCXX_USE_CONSTEXPR bool has_quiet_NaN = false;
 559:/usr/share/gcc-arm-none-eabi-10-2020-q4-major/arm-none-eabi/include/c++/10.2.1/limits ****       static _GLIBCXX_USE_CONSTEXPR bool has_signaling_NaN = false;
 560:/usr/share/gcc-arm-none-eabi-10-2020-q4-major/arm-none-eabi/include/c++/10.2.1/limits ****       static _GLIBCXX_USE_CONSTEXPR float_denorm_style has_denorm
 561:/usr/share/gcc-arm-none-eabi-10-2020-q4-major/arm-none-eabi/include/c++/10.2.1/limits ****        = denorm_absent;
 562:/usr/share/gcc-arm-none-eabi-10-2020-q4-major/arm-none-eabi/include/c++/10.2.1/limits ****       static _GLIBCXX_USE_CONSTEXPR bool has_denorm_loss = false;
 563:/usr/share/gcc-arm-none-eabi-10-2020-q4-major/arm-none-eabi/include/c++/10.2.1/limits **** 
 564:/usr/share/gcc-arm-none-eabi-10-2020-q4-major/arm-none-eabi/include/c++/10.2.1/limits ****       static _GLIBCXX_CONSTEXPR signed char
 565:/usr/share/gcc-arm-none-eabi-10-2020-q4-major/arm-none-eabi/include/c++/10.2.1/limits ****       infinity() _GLIBCXX_USE_NOEXCEPT { return static_cast<signed char>(0); }
 566:/usr/share/gcc-arm-none-eabi-10-2020-q4-major/arm-none-eabi/include/c++/10.2.1/limits **** 
 567:/usr/share/gcc-arm-none-eabi-10-2020-q4-major/arm-none-eabi/include/c++/10.2.1/limits ****       static _GLIBCXX_CONSTEXPR signed char
 568:/usr/share/gcc-arm-none-eabi-10-2020-q4-major/arm-none-eabi/include/c++/10.2.1/limits ****       quiet_NaN() _GLIBCXX_USE_NOEXCEPT { return static_cast<signed char>(0); }
 569:/usr/share/gcc-arm-none-eabi-10-2020-q4-major/arm-none-eabi/include/c++/10.2.1/limits **** 
 570:/usr/share/gcc-arm-none-eabi-10-2020-q4-major/arm-none-eabi/include/c++/10.2.1/limits ****       static _GLIBCXX_CONSTEXPR signed char
 571:/usr/share/gcc-arm-none-eabi-10-2020-q4-major/arm-none-eabi/include/c++/10.2.1/limits ****       signaling_NaN() _GLIBCXX_USE_NOEXCEPT
 572:/usr/share/gcc-arm-none-eabi-10-2020-q4-major/arm-none-eabi/include/c++/10.2.1/limits ****       { return static_cast<signed char>(0); }
 573:/usr/share/gcc-arm-none-eabi-10-2020-q4-major/arm-none-eabi/include/c++/10.2.1/limits **** 
 574:/usr/share/gcc-arm-none-eabi-10-2020-q4-major/arm-none-eabi/include/c++/10.2.1/limits ****       static _GLIBCXX_CONSTEXPR signed char
 575:/usr/share/gcc-arm-none-eabi-10-2020-q4-major/arm-none-eabi/include/c++/10.2.1/limits ****       denorm_min() _GLIBCXX_USE_NOEXCEPT
 576:/usr/share/gcc-arm-none-eabi-10-2020-q4-major/arm-none-eabi/include/c++/10.2.1/limits ****       { return static_cast<signed char>(0); }
 577:/usr/share/gcc-arm-none-eabi-10-2020-q4-major/arm-none-eabi/include/c++/10.2.1/limits **** 
 578:/usr/share/gcc-arm-none-eabi-10-2020-q4-major/arm-none-eabi/include/c++/10.2.1/limits ****       static _GLIBCXX_USE_CONSTEXPR bool is_iec559 = false;
 579:/usr/share/gcc-arm-none-eabi-10-2020-q4-major/arm-none-eabi/include/c++/10.2.1/limits ****       static _GLIBCXX_USE_CONSTEXPR bool is_bounded = true;
 580:/usr/share/gcc-arm-none-eabi-10-2020-q4-major/arm-none-eabi/include/c++/10.2.1/limits ****       static _GLIBCXX_USE_CONSTEXPR bool is_modulo = false;
 581:/usr/share/gcc-arm-none-eabi-10-2020-q4-major/arm-none-eabi/include/c++/10.2.1/limits **** 
 582:/usr/share/gcc-arm-none-eabi-10-2020-q4-major/arm-none-eabi/include/c++/10.2.1/limits ****       static _GLIBCXX_USE_CONSTEXPR bool traps = __glibcxx_integral_traps;
 583:/usr/share/gcc-arm-none-eabi-10-2020-q4-major/arm-none-eabi/include/c++/10.2.1/limits ****       static _GLIBCXX_USE_CONSTEXPR bool tinyness_before = false;
 584:/usr/share/gcc-arm-none-eabi-10-2020-q4-major/arm-none-eabi/include/c++/10.2.1/limits ****       static _GLIBCXX_USE_CONSTEXPR float_round_style round_style
 585:/usr/share/gcc-arm-none-eabi-10-2020-q4-major/arm-none-eabi/include/c++/10.2.1/limits ****        = round_toward_zero;
 586:/usr/share/gcc-arm-none-eabi-10-2020-q4-major/arm-none-eabi/include/c++/10.2.1/limits ****     };
 587:/usr/share/gcc-arm-none-eabi-10-2020-q4-major/arm-none-eabi/include/c++/10.2.1/limits **** 
 588:/usr/share/gcc-arm-none-eabi-10-2020-q4-major/arm-none-eabi/include/c++/10.2.1/limits ****   /// numeric_limits<unsigned char> specialization.
 589:/usr/share/gcc-arm-none-eabi-10-2020-q4-major/arm-none-eabi/include/c++/10.2.1/limits ****   template<>
 590:/usr/share/gcc-arm-none-eabi-10-2020-q4-major/arm-none-eabi/include/c++/10.2.1/limits ****     struct numeric_limits<unsigned char>
 591:/usr/share/gcc-arm-none-eabi-10-2020-q4-major/arm-none-eabi/include/c++/10.2.1/limits ****     {
 592:/usr/share/gcc-arm-none-eabi-10-2020-q4-major/arm-none-eabi/include/c++/10.2.1/limits ****       static _GLIBCXX_USE_CONSTEXPR bool is_specialized = true;
ARM GAS  /tmp/ccaL2bzX.s 			page 25


 593:/usr/share/gcc-arm-none-eabi-10-2020-q4-major/arm-none-eabi/include/c++/10.2.1/limits **** 
 594:/usr/share/gcc-arm-none-eabi-10-2020-q4-major/arm-none-eabi/include/c++/10.2.1/limits ****       static _GLIBCXX_CONSTEXPR unsigned char
 595:/usr/share/gcc-arm-none-eabi-10-2020-q4-major/arm-none-eabi/include/c++/10.2.1/limits ****       min() _GLIBCXX_USE_NOEXCEPT { return 0; }
 596:/usr/share/gcc-arm-none-eabi-10-2020-q4-major/arm-none-eabi/include/c++/10.2.1/limits **** 
 597:/usr/share/gcc-arm-none-eabi-10-2020-q4-major/arm-none-eabi/include/c++/10.2.1/limits ****       static _GLIBCXX_CONSTEXPR unsigned char
 598:/usr/share/gcc-arm-none-eabi-10-2020-q4-major/arm-none-eabi/include/c++/10.2.1/limits ****       max() _GLIBCXX_USE_NOEXCEPT { return __SCHAR_MAX__ * 2U + 1; }
 599:/usr/share/gcc-arm-none-eabi-10-2020-q4-major/arm-none-eabi/include/c++/10.2.1/limits **** 
 600:/usr/share/gcc-arm-none-eabi-10-2020-q4-major/arm-none-eabi/include/c++/10.2.1/limits **** #if __cplusplus >= 201103L
 601:/usr/share/gcc-arm-none-eabi-10-2020-q4-major/arm-none-eabi/include/c++/10.2.1/limits ****       static constexpr unsigned char
 602:/usr/share/gcc-arm-none-eabi-10-2020-q4-major/arm-none-eabi/include/c++/10.2.1/limits ****       lowest() noexcept { return min(); }
 603:/usr/share/gcc-arm-none-eabi-10-2020-q4-major/arm-none-eabi/include/c++/10.2.1/limits **** #endif
 604:/usr/share/gcc-arm-none-eabi-10-2020-q4-major/arm-none-eabi/include/c++/10.2.1/limits **** 
 605:/usr/share/gcc-arm-none-eabi-10-2020-q4-major/arm-none-eabi/include/c++/10.2.1/limits ****       static _GLIBCXX_USE_CONSTEXPR int digits
 606:/usr/share/gcc-arm-none-eabi-10-2020-q4-major/arm-none-eabi/include/c++/10.2.1/limits ****        = __glibcxx_digits (unsigned char);
 607:/usr/share/gcc-arm-none-eabi-10-2020-q4-major/arm-none-eabi/include/c++/10.2.1/limits ****       static _GLIBCXX_USE_CONSTEXPR int digits10
 608:/usr/share/gcc-arm-none-eabi-10-2020-q4-major/arm-none-eabi/include/c++/10.2.1/limits ****        = __glibcxx_digits10 (unsigned char);
 609:/usr/share/gcc-arm-none-eabi-10-2020-q4-major/arm-none-eabi/include/c++/10.2.1/limits **** #if __cplusplus >= 201103L
 610:/usr/share/gcc-arm-none-eabi-10-2020-q4-major/arm-none-eabi/include/c++/10.2.1/limits ****       static constexpr int max_digits10 = 0;
 611:/usr/share/gcc-arm-none-eabi-10-2020-q4-major/arm-none-eabi/include/c++/10.2.1/limits **** #endif
 612:/usr/share/gcc-arm-none-eabi-10-2020-q4-major/arm-none-eabi/include/c++/10.2.1/limits ****       static _GLIBCXX_USE_CONSTEXPR bool is_signed = false;
 613:/usr/share/gcc-arm-none-eabi-10-2020-q4-major/arm-none-eabi/include/c++/10.2.1/limits ****       static _GLIBCXX_USE_CONSTEXPR bool is_integer = true;
 614:/usr/share/gcc-arm-none-eabi-10-2020-q4-major/arm-none-eabi/include/c++/10.2.1/limits ****       static _GLIBCXX_USE_CONSTEXPR bool is_exact = true;
 615:/usr/share/gcc-arm-none-eabi-10-2020-q4-major/arm-none-eabi/include/c++/10.2.1/limits ****       static _GLIBCXX_USE_CONSTEXPR int radix = 2;
 616:/usr/share/gcc-arm-none-eabi-10-2020-q4-major/arm-none-eabi/include/c++/10.2.1/limits **** 
 617:/usr/share/gcc-arm-none-eabi-10-2020-q4-major/arm-none-eabi/include/c++/10.2.1/limits ****       static _GLIBCXX_CONSTEXPR unsigned char
 618:/usr/share/gcc-arm-none-eabi-10-2020-q4-major/arm-none-eabi/include/c++/10.2.1/limits ****       epsilon() _GLIBCXX_USE_NOEXCEPT { return 0; }
 619:/usr/share/gcc-arm-none-eabi-10-2020-q4-major/arm-none-eabi/include/c++/10.2.1/limits **** 
 620:/usr/share/gcc-arm-none-eabi-10-2020-q4-major/arm-none-eabi/include/c++/10.2.1/limits ****       static _GLIBCXX_CONSTEXPR unsigned char
 621:/usr/share/gcc-arm-none-eabi-10-2020-q4-major/arm-none-eabi/include/c++/10.2.1/limits ****       round_error() _GLIBCXX_USE_NOEXCEPT { return 0; }
 622:/usr/share/gcc-arm-none-eabi-10-2020-q4-major/arm-none-eabi/include/c++/10.2.1/limits **** 
 623:/usr/share/gcc-arm-none-eabi-10-2020-q4-major/arm-none-eabi/include/c++/10.2.1/limits ****       static _GLIBCXX_USE_CONSTEXPR int min_exponent = 0;
 624:/usr/share/gcc-arm-none-eabi-10-2020-q4-major/arm-none-eabi/include/c++/10.2.1/limits ****       static _GLIBCXX_USE_CONSTEXPR int min_exponent10 = 0;
 625:/usr/share/gcc-arm-none-eabi-10-2020-q4-major/arm-none-eabi/include/c++/10.2.1/limits ****       static _GLIBCXX_USE_CONSTEXPR int max_exponent = 0;
 626:/usr/share/gcc-arm-none-eabi-10-2020-q4-major/arm-none-eabi/include/c++/10.2.1/limits ****       static _GLIBCXX_USE_CONSTEXPR int max_exponent10 = 0;
 627:/usr/share/gcc-arm-none-eabi-10-2020-q4-major/arm-none-eabi/include/c++/10.2.1/limits **** 
 628:/usr/share/gcc-arm-none-eabi-10-2020-q4-major/arm-none-eabi/include/c++/10.2.1/limits ****       static _GLIBCXX_USE_CONSTEXPR bool has_infinity = false;
 629:/usr/share/gcc-arm-none-eabi-10-2020-q4-major/arm-none-eabi/include/c++/10.2.1/limits ****       static _GLIBCXX_USE_CONSTEXPR bool has_quiet_NaN = false;
 630:/usr/share/gcc-arm-none-eabi-10-2020-q4-major/arm-none-eabi/include/c++/10.2.1/limits ****       static _GLIBCXX_USE_CONSTEXPR bool has_signaling_NaN = false;
 631:/usr/share/gcc-arm-none-eabi-10-2020-q4-major/arm-none-eabi/include/c++/10.2.1/limits ****       static _GLIBCXX_USE_CONSTEXPR float_denorm_style has_denorm
 632:/usr/share/gcc-arm-none-eabi-10-2020-q4-major/arm-none-eabi/include/c++/10.2.1/limits ****        = denorm_absent;
 633:/usr/share/gcc-arm-none-eabi-10-2020-q4-major/arm-none-eabi/include/c++/10.2.1/limits ****       static _GLIBCXX_USE_CONSTEXPR bool has_denorm_loss = false;
 634:/usr/share/gcc-arm-none-eabi-10-2020-q4-major/arm-none-eabi/include/c++/10.2.1/limits **** 
 635:/usr/share/gcc-arm-none-eabi-10-2020-q4-major/arm-none-eabi/include/c++/10.2.1/limits ****       static _GLIBCXX_CONSTEXPR unsigned char
 636:/usr/share/gcc-arm-none-eabi-10-2020-q4-major/arm-none-eabi/include/c++/10.2.1/limits ****       infinity() _GLIBCXX_USE_NOEXCEPT
 637:/usr/share/gcc-arm-none-eabi-10-2020-q4-major/arm-none-eabi/include/c++/10.2.1/limits ****       { return static_cast<unsigned char>(0); }
 638:/usr/share/gcc-arm-none-eabi-10-2020-q4-major/arm-none-eabi/include/c++/10.2.1/limits **** 
 639:/usr/share/gcc-arm-none-eabi-10-2020-q4-major/arm-none-eabi/include/c++/10.2.1/limits ****       static _GLIBCXX_CONSTEXPR unsigned char
 640:/usr/share/gcc-arm-none-eabi-10-2020-q4-major/arm-none-eabi/include/c++/10.2.1/limits ****       quiet_NaN() _GLIBCXX_USE_NOEXCEPT
 641:/usr/share/gcc-arm-none-eabi-10-2020-q4-major/arm-none-eabi/include/c++/10.2.1/limits ****       { return static_cast<unsigned char>(0); }
 642:/usr/share/gcc-arm-none-eabi-10-2020-q4-major/arm-none-eabi/include/c++/10.2.1/limits **** 
 643:/usr/share/gcc-arm-none-eabi-10-2020-q4-major/arm-none-eabi/include/c++/10.2.1/limits ****       static _GLIBCXX_CONSTEXPR unsigned char
 644:/usr/share/gcc-arm-none-eabi-10-2020-q4-major/arm-none-eabi/include/c++/10.2.1/limits ****       signaling_NaN() _GLIBCXX_USE_NOEXCEPT
 645:/usr/share/gcc-arm-none-eabi-10-2020-q4-major/arm-none-eabi/include/c++/10.2.1/limits ****       { return static_cast<unsigned char>(0); }
 646:/usr/share/gcc-arm-none-eabi-10-2020-q4-major/arm-none-eabi/include/c++/10.2.1/limits **** 
 647:/usr/share/gcc-arm-none-eabi-10-2020-q4-major/arm-none-eabi/include/c++/10.2.1/limits ****       static _GLIBCXX_CONSTEXPR unsigned char
 648:/usr/share/gcc-arm-none-eabi-10-2020-q4-major/arm-none-eabi/include/c++/10.2.1/limits ****       denorm_min() _GLIBCXX_USE_NOEXCEPT
 649:/usr/share/gcc-arm-none-eabi-10-2020-q4-major/arm-none-eabi/include/c++/10.2.1/limits ****       { return static_cast<unsigned char>(0); }
ARM GAS  /tmp/ccaL2bzX.s 			page 26


 650:/usr/share/gcc-arm-none-eabi-10-2020-q4-major/arm-none-eabi/include/c++/10.2.1/limits **** 
 651:/usr/share/gcc-arm-none-eabi-10-2020-q4-major/arm-none-eabi/include/c++/10.2.1/limits ****       static _GLIBCXX_USE_CONSTEXPR bool is_iec559 = false;
 652:/usr/share/gcc-arm-none-eabi-10-2020-q4-major/arm-none-eabi/include/c++/10.2.1/limits ****       static _GLIBCXX_USE_CONSTEXPR bool is_bounded = true;
 653:/usr/share/gcc-arm-none-eabi-10-2020-q4-major/arm-none-eabi/include/c++/10.2.1/limits ****       static _GLIBCXX_USE_CONSTEXPR bool is_modulo = true;
 654:/usr/share/gcc-arm-none-eabi-10-2020-q4-major/arm-none-eabi/include/c++/10.2.1/limits **** 
 655:/usr/share/gcc-arm-none-eabi-10-2020-q4-major/arm-none-eabi/include/c++/10.2.1/limits ****       static _GLIBCXX_USE_CONSTEXPR bool traps = __glibcxx_integral_traps;
 656:/usr/share/gcc-arm-none-eabi-10-2020-q4-major/arm-none-eabi/include/c++/10.2.1/limits ****       static _GLIBCXX_USE_CONSTEXPR bool tinyness_before = false;
 657:/usr/share/gcc-arm-none-eabi-10-2020-q4-major/arm-none-eabi/include/c++/10.2.1/limits ****       static _GLIBCXX_USE_CONSTEXPR float_round_style round_style
 658:/usr/share/gcc-arm-none-eabi-10-2020-q4-major/arm-none-eabi/include/c++/10.2.1/limits ****        = round_toward_zero;
 659:/usr/share/gcc-arm-none-eabi-10-2020-q4-major/arm-none-eabi/include/c++/10.2.1/limits ****     };
 660:/usr/share/gcc-arm-none-eabi-10-2020-q4-major/arm-none-eabi/include/c++/10.2.1/limits **** 
 661:/usr/share/gcc-arm-none-eabi-10-2020-q4-major/arm-none-eabi/include/c++/10.2.1/limits ****   /// numeric_limits<wchar_t> specialization.
 662:/usr/share/gcc-arm-none-eabi-10-2020-q4-major/arm-none-eabi/include/c++/10.2.1/limits ****   template<>
 663:/usr/share/gcc-arm-none-eabi-10-2020-q4-major/arm-none-eabi/include/c++/10.2.1/limits ****     struct numeric_limits<wchar_t>
 664:/usr/share/gcc-arm-none-eabi-10-2020-q4-major/arm-none-eabi/include/c++/10.2.1/limits ****     {
 665:/usr/share/gcc-arm-none-eabi-10-2020-q4-major/arm-none-eabi/include/c++/10.2.1/limits ****       static _GLIBCXX_USE_CONSTEXPR bool is_specialized = true;
 666:/usr/share/gcc-arm-none-eabi-10-2020-q4-major/arm-none-eabi/include/c++/10.2.1/limits **** 
 667:/usr/share/gcc-arm-none-eabi-10-2020-q4-major/arm-none-eabi/include/c++/10.2.1/limits ****       static _GLIBCXX_CONSTEXPR wchar_t
 668:/usr/share/gcc-arm-none-eabi-10-2020-q4-major/arm-none-eabi/include/c++/10.2.1/limits ****       min() _GLIBCXX_USE_NOEXCEPT { return __glibcxx_min (wchar_t); }
 669:/usr/share/gcc-arm-none-eabi-10-2020-q4-major/arm-none-eabi/include/c++/10.2.1/limits **** 
 670:/usr/share/gcc-arm-none-eabi-10-2020-q4-major/arm-none-eabi/include/c++/10.2.1/limits ****       static _GLIBCXX_CONSTEXPR wchar_t
 671:/usr/share/gcc-arm-none-eabi-10-2020-q4-major/arm-none-eabi/include/c++/10.2.1/limits ****       max() _GLIBCXX_USE_NOEXCEPT { return __glibcxx_max (wchar_t); }
 672:/usr/share/gcc-arm-none-eabi-10-2020-q4-major/arm-none-eabi/include/c++/10.2.1/limits **** 
 673:/usr/share/gcc-arm-none-eabi-10-2020-q4-major/arm-none-eabi/include/c++/10.2.1/limits **** #if __cplusplus >= 201103L
 674:/usr/share/gcc-arm-none-eabi-10-2020-q4-major/arm-none-eabi/include/c++/10.2.1/limits ****       static constexpr wchar_t
 675:/usr/share/gcc-arm-none-eabi-10-2020-q4-major/arm-none-eabi/include/c++/10.2.1/limits ****       lowest() noexcept { return min(); }
 676:/usr/share/gcc-arm-none-eabi-10-2020-q4-major/arm-none-eabi/include/c++/10.2.1/limits **** #endif
 677:/usr/share/gcc-arm-none-eabi-10-2020-q4-major/arm-none-eabi/include/c++/10.2.1/limits **** 
 678:/usr/share/gcc-arm-none-eabi-10-2020-q4-major/arm-none-eabi/include/c++/10.2.1/limits ****       static _GLIBCXX_USE_CONSTEXPR int digits = __glibcxx_digits (wchar_t);
 679:/usr/share/gcc-arm-none-eabi-10-2020-q4-major/arm-none-eabi/include/c++/10.2.1/limits ****       static _GLIBCXX_USE_CONSTEXPR int digits10
 680:/usr/share/gcc-arm-none-eabi-10-2020-q4-major/arm-none-eabi/include/c++/10.2.1/limits ****        = __glibcxx_digits10 (wchar_t);
 681:/usr/share/gcc-arm-none-eabi-10-2020-q4-major/arm-none-eabi/include/c++/10.2.1/limits **** #if __cplusplus >= 201103L
 682:/usr/share/gcc-arm-none-eabi-10-2020-q4-major/arm-none-eabi/include/c++/10.2.1/limits ****       static constexpr int max_digits10 = 0;
 683:/usr/share/gcc-arm-none-eabi-10-2020-q4-major/arm-none-eabi/include/c++/10.2.1/limits **** #endif
 684:/usr/share/gcc-arm-none-eabi-10-2020-q4-major/arm-none-eabi/include/c++/10.2.1/limits ****       static _GLIBCXX_USE_CONSTEXPR bool is_signed = __glibcxx_signed (wchar_t);
 685:/usr/share/gcc-arm-none-eabi-10-2020-q4-major/arm-none-eabi/include/c++/10.2.1/limits ****       static _GLIBCXX_USE_CONSTEXPR bool is_integer = true;
 686:/usr/share/gcc-arm-none-eabi-10-2020-q4-major/arm-none-eabi/include/c++/10.2.1/limits ****       static _GLIBCXX_USE_CONSTEXPR bool is_exact = true;
 687:/usr/share/gcc-arm-none-eabi-10-2020-q4-major/arm-none-eabi/include/c++/10.2.1/limits ****       static _GLIBCXX_USE_CONSTEXPR int radix = 2;
 688:/usr/share/gcc-arm-none-eabi-10-2020-q4-major/arm-none-eabi/include/c++/10.2.1/limits **** 
 689:/usr/share/gcc-arm-none-eabi-10-2020-q4-major/arm-none-eabi/include/c++/10.2.1/limits ****       static _GLIBCXX_CONSTEXPR wchar_t
 690:/usr/share/gcc-arm-none-eabi-10-2020-q4-major/arm-none-eabi/include/c++/10.2.1/limits ****       epsilon() _GLIBCXX_USE_NOEXCEPT { return 0; }
 691:/usr/share/gcc-arm-none-eabi-10-2020-q4-major/arm-none-eabi/include/c++/10.2.1/limits **** 
 692:/usr/share/gcc-arm-none-eabi-10-2020-q4-major/arm-none-eabi/include/c++/10.2.1/limits ****       static _GLIBCXX_CONSTEXPR wchar_t
 693:/usr/share/gcc-arm-none-eabi-10-2020-q4-major/arm-none-eabi/include/c++/10.2.1/limits ****       round_error() _GLIBCXX_USE_NOEXCEPT { return 0; }
 694:/usr/share/gcc-arm-none-eabi-10-2020-q4-major/arm-none-eabi/include/c++/10.2.1/limits **** 
 695:/usr/share/gcc-arm-none-eabi-10-2020-q4-major/arm-none-eabi/include/c++/10.2.1/limits ****       static _GLIBCXX_USE_CONSTEXPR int min_exponent = 0;
 696:/usr/share/gcc-arm-none-eabi-10-2020-q4-major/arm-none-eabi/include/c++/10.2.1/limits ****       static _GLIBCXX_USE_CONSTEXPR int min_exponent10 = 0;
 697:/usr/share/gcc-arm-none-eabi-10-2020-q4-major/arm-none-eabi/include/c++/10.2.1/limits ****       static _GLIBCXX_USE_CONSTEXPR int max_exponent = 0;
 698:/usr/share/gcc-arm-none-eabi-10-2020-q4-major/arm-none-eabi/include/c++/10.2.1/limits ****       static _GLIBCXX_USE_CONSTEXPR int max_exponent10 = 0;
 699:/usr/share/gcc-arm-none-eabi-10-2020-q4-major/arm-none-eabi/include/c++/10.2.1/limits **** 
 700:/usr/share/gcc-arm-none-eabi-10-2020-q4-major/arm-none-eabi/include/c++/10.2.1/limits ****       static _GLIBCXX_USE_CONSTEXPR bool has_infinity = false;
 701:/usr/share/gcc-arm-none-eabi-10-2020-q4-major/arm-none-eabi/include/c++/10.2.1/limits ****       static _GLIBCXX_USE_CONSTEXPR bool has_quiet_NaN = false;
 702:/usr/share/gcc-arm-none-eabi-10-2020-q4-major/arm-none-eabi/include/c++/10.2.1/limits ****       static _GLIBCXX_USE_CONSTEXPR bool has_signaling_NaN = false;
 703:/usr/share/gcc-arm-none-eabi-10-2020-q4-major/arm-none-eabi/include/c++/10.2.1/limits ****       static _GLIBCXX_USE_CONSTEXPR float_denorm_style has_denorm
 704:/usr/share/gcc-arm-none-eabi-10-2020-q4-major/arm-none-eabi/include/c++/10.2.1/limits ****        = denorm_absent;
 705:/usr/share/gcc-arm-none-eabi-10-2020-q4-major/arm-none-eabi/include/c++/10.2.1/limits ****       static _GLIBCXX_USE_CONSTEXPR bool has_denorm_loss = false;
 706:/usr/share/gcc-arm-none-eabi-10-2020-q4-major/arm-none-eabi/include/c++/10.2.1/limits **** 
ARM GAS  /tmp/ccaL2bzX.s 			page 27


 707:/usr/share/gcc-arm-none-eabi-10-2020-q4-major/arm-none-eabi/include/c++/10.2.1/limits ****       static _GLIBCXX_CONSTEXPR wchar_t
 708:/usr/share/gcc-arm-none-eabi-10-2020-q4-major/arm-none-eabi/include/c++/10.2.1/limits ****       infinity() _GLIBCXX_USE_NOEXCEPT { return wchar_t(); }
 709:/usr/share/gcc-arm-none-eabi-10-2020-q4-major/arm-none-eabi/include/c++/10.2.1/limits **** 
 710:/usr/share/gcc-arm-none-eabi-10-2020-q4-major/arm-none-eabi/include/c++/10.2.1/limits ****       static _GLIBCXX_CONSTEXPR wchar_t
 711:/usr/share/gcc-arm-none-eabi-10-2020-q4-major/arm-none-eabi/include/c++/10.2.1/limits ****       quiet_NaN() _GLIBCXX_USE_NOEXCEPT { return wchar_t(); }
 712:/usr/share/gcc-arm-none-eabi-10-2020-q4-major/arm-none-eabi/include/c++/10.2.1/limits **** 
 713:/usr/share/gcc-arm-none-eabi-10-2020-q4-major/arm-none-eabi/include/c++/10.2.1/limits ****       static _GLIBCXX_CONSTEXPR wchar_t
 714:/usr/share/gcc-arm-none-eabi-10-2020-q4-major/arm-none-eabi/include/c++/10.2.1/limits ****       signaling_NaN() _GLIBCXX_USE_NOEXCEPT { return wchar_t(); }
 715:/usr/share/gcc-arm-none-eabi-10-2020-q4-major/arm-none-eabi/include/c++/10.2.1/limits **** 
 716:/usr/share/gcc-arm-none-eabi-10-2020-q4-major/arm-none-eabi/include/c++/10.2.1/limits ****       static _GLIBCXX_CONSTEXPR wchar_t
 717:/usr/share/gcc-arm-none-eabi-10-2020-q4-major/arm-none-eabi/include/c++/10.2.1/limits ****       denorm_min() _GLIBCXX_USE_NOEXCEPT { return wchar_t(); }
 718:/usr/share/gcc-arm-none-eabi-10-2020-q4-major/arm-none-eabi/include/c++/10.2.1/limits **** 
 719:/usr/share/gcc-arm-none-eabi-10-2020-q4-major/arm-none-eabi/include/c++/10.2.1/limits ****       static _GLIBCXX_USE_CONSTEXPR bool is_iec559 = false;
 720:/usr/share/gcc-arm-none-eabi-10-2020-q4-major/arm-none-eabi/include/c++/10.2.1/limits ****       static _GLIBCXX_USE_CONSTEXPR bool is_bounded = true;
 721:/usr/share/gcc-arm-none-eabi-10-2020-q4-major/arm-none-eabi/include/c++/10.2.1/limits ****       static _GLIBCXX_USE_CONSTEXPR bool is_modulo = !is_signed;
 722:/usr/share/gcc-arm-none-eabi-10-2020-q4-major/arm-none-eabi/include/c++/10.2.1/limits **** 
 723:/usr/share/gcc-arm-none-eabi-10-2020-q4-major/arm-none-eabi/include/c++/10.2.1/limits ****       static _GLIBCXX_USE_CONSTEXPR bool traps = __glibcxx_integral_traps;
 724:/usr/share/gcc-arm-none-eabi-10-2020-q4-major/arm-none-eabi/include/c++/10.2.1/limits ****       static _GLIBCXX_USE_CONSTEXPR bool tinyness_before = false;
 725:/usr/share/gcc-arm-none-eabi-10-2020-q4-major/arm-none-eabi/include/c++/10.2.1/limits ****       static _GLIBCXX_USE_CONSTEXPR float_round_style round_style
 726:/usr/share/gcc-arm-none-eabi-10-2020-q4-major/arm-none-eabi/include/c++/10.2.1/limits ****        = round_toward_zero;
 727:/usr/share/gcc-arm-none-eabi-10-2020-q4-major/arm-none-eabi/include/c++/10.2.1/limits ****     };
 728:/usr/share/gcc-arm-none-eabi-10-2020-q4-major/arm-none-eabi/include/c++/10.2.1/limits **** 
 729:/usr/share/gcc-arm-none-eabi-10-2020-q4-major/arm-none-eabi/include/c++/10.2.1/limits **** #if _GLIBCXX_USE_CHAR8_T
 730:/usr/share/gcc-arm-none-eabi-10-2020-q4-major/arm-none-eabi/include/c++/10.2.1/limits ****   /// numeric_limits<char8_t> specialization.
 731:/usr/share/gcc-arm-none-eabi-10-2020-q4-major/arm-none-eabi/include/c++/10.2.1/limits ****   template<>
 732:/usr/share/gcc-arm-none-eabi-10-2020-q4-major/arm-none-eabi/include/c++/10.2.1/limits ****     struct numeric_limits<char8_t>
 733:/usr/share/gcc-arm-none-eabi-10-2020-q4-major/arm-none-eabi/include/c++/10.2.1/limits ****     {
 734:/usr/share/gcc-arm-none-eabi-10-2020-q4-major/arm-none-eabi/include/c++/10.2.1/limits ****       static _GLIBCXX_USE_CONSTEXPR bool is_specialized = true;
 735:/usr/share/gcc-arm-none-eabi-10-2020-q4-major/arm-none-eabi/include/c++/10.2.1/limits **** 
 736:/usr/share/gcc-arm-none-eabi-10-2020-q4-major/arm-none-eabi/include/c++/10.2.1/limits ****       static _GLIBCXX_CONSTEXPR char8_t
 737:/usr/share/gcc-arm-none-eabi-10-2020-q4-major/arm-none-eabi/include/c++/10.2.1/limits ****       min() _GLIBCXX_USE_NOEXCEPT { return __glibcxx_min (char8_t); }
 738:/usr/share/gcc-arm-none-eabi-10-2020-q4-major/arm-none-eabi/include/c++/10.2.1/limits **** 
 739:/usr/share/gcc-arm-none-eabi-10-2020-q4-major/arm-none-eabi/include/c++/10.2.1/limits ****       static _GLIBCXX_CONSTEXPR char8_t
 740:/usr/share/gcc-arm-none-eabi-10-2020-q4-major/arm-none-eabi/include/c++/10.2.1/limits ****       max() _GLIBCXX_USE_NOEXCEPT { return __glibcxx_max (char8_t); }
 741:/usr/share/gcc-arm-none-eabi-10-2020-q4-major/arm-none-eabi/include/c++/10.2.1/limits **** 
 742:/usr/share/gcc-arm-none-eabi-10-2020-q4-major/arm-none-eabi/include/c++/10.2.1/limits ****       static _GLIBCXX_CONSTEXPR char8_t
 743:/usr/share/gcc-arm-none-eabi-10-2020-q4-major/arm-none-eabi/include/c++/10.2.1/limits ****       lowest() _GLIBCXX_USE_NOEXCEPT { return min(); }
 744:/usr/share/gcc-arm-none-eabi-10-2020-q4-major/arm-none-eabi/include/c++/10.2.1/limits **** 
 745:/usr/share/gcc-arm-none-eabi-10-2020-q4-major/arm-none-eabi/include/c++/10.2.1/limits ****       static _GLIBCXX_USE_CONSTEXPR int digits = __glibcxx_digits (char8_t);
 746:/usr/share/gcc-arm-none-eabi-10-2020-q4-major/arm-none-eabi/include/c++/10.2.1/limits ****       static _GLIBCXX_USE_CONSTEXPR int digits10 = __glibcxx_digits10 (char8_t);
 747:/usr/share/gcc-arm-none-eabi-10-2020-q4-major/arm-none-eabi/include/c++/10.2.1/limits ****       static _GLIBCXX_USE_CONSTEXPR int max_digits10 = 0;
 748:/usr/share/gcc-arm-none-eabi-10-2020-q4-major/arm-none-eabi/include/c++/10.2.1/limits ****       static _GLIBCXX_USE_CONSTEXPR bool is_signed = __glibcxx_signed (char8_t);
 749:/usr/share/gcc-arm-none-eabi-10-2020-q4-major/arm-none-eabi/include/c++/10.2.1/limits ****       static _GLIBCXX_USE_CONSTEXPR bool is_integer = true;
 750:/usr/share/gcc-arm-none-eabi-10-2020-q4-major/arm-none-eabi/include/c++/10.2.1/limits ****       static _GLIBCXX_USE_CONSTEXPR bool is_exact = true;
 751:/usr/share/gcc-arm-none-eabi-10-2020-q4-major/arm-none-eabi/include/c++/10.2.1/limits ****       static _GLIBCXX_USE_CONSTEXPR int radix = 2;
 752:/usr/share/gcc-arm-none-eabi-10-2020-q4-major/arm-none-eabi/include/c++/10.2.1/limits **** 
 753:/usr/share/gcc-arm-none-eabi-10-2020-q4-major/arm-none-eabi/include/c++/10.2.1/limits ****       static _GLIBCXX_CONSTEXPR char8_t
 754:/usr/share/gcc-arm-none-eabi-10-2020-q4-major/arm-none-eabi/include/c++/10.2.1/limits ****       epsilon() _GLIBCXX_USE_NOEXCEPT { return 0; }
 755:/usr/share/gcc-arm-none-eabi-10-2020-q4-major/arm-none-eabi/include/c++/10.2.1/limits **** 
 756:/usr/share/gcc-arm-none-eabi-10-2020-q4-major/arm-none-eabi/include/c++/10.2.1/limits ****       static _GLIBCXX_CONSTEXPR char8_t
 757:/usr/share/gcc-arm-none-eabi-10-2020-q4-major/arm-none-eabi/include/c++/10.2.1/limits ****       round_error() _GLIBCXX_USE_NOEXCEPT { return 0; }
 758:/usr/share/gcc-arm-none-eabi-10-2020-q4-major/arm-none-eabi/include/c++/10.2.1/limits **** 
 759:/usr/share/gcc-arm-none-eabi-10-2020-q4-major/arm-none-eabi/include/c++/10.2.1/limits ****       static _GLIBCXX_USE_CONSTEXPR int min_exponent = 0;
 760:/usr/share/gcc-arm-none-eabi-10-2020-q4-major/arm-none-eabi/include/c++/10.2.1/limits ****       static _GLIBCXX_USE_CONSTEXPR int min_exponent10 = 0;
 761:/usr/share/gcc-arm-none-eabi-10-2020-q4-major/arm-none-eabi/include/c++/10.2.1/limits ****       static _GLIBCXX_USE_CONSTEXPR int max_exponent = 0;
 762:/usr/share/gcc-arm-none-eabi-10-2020-q4-major/arm-none-eabi/include/c++/10.2.1/limits ****       static _GLIBCXX_USE_CONSTEXPR int max_exponent10 = 0;
 763:/usr/share/gcc-arm-none-eabi-10-2020-q4-major/arm-none-eabi/include/c++/10.2.1/limits **** 
ARM GAS  /tmp/ccaL2bzX.s 			page 28


 764:/usr/share/gcc-arm-none-eabi-10-2020-q4-major/arm-none-eabi/include/c++/10.2.1/limits ****       static _GLIBCXX_USE_CONSTEXPR bool has_infinity = false;
 765:/usr/share/gcc-arm-none-eabi-10-2020-q4-major/arm-none-eabi/include/c++/10.2.1/limits ****       static _GLIBCXX_USE_CONSTEXPR bool has_quiet_NaN = false;
 766:/usr/share/gcc-arm-none-eabi-10-2020-q4-major/arm-none-eabi/include/c++/10.2.1/limits ****       static _GLIBCXX_USE_CONSTEXPR bool has_signaling_NaN = false;
 767:/usr/share/gcc-arm-none-eabi-10-2020-q4-major/arm-none-eabi/include/c++/10.2.1/limits ****       static _GLIBCXX_USE_CONSTEXPR float_denorm_style has_denorm
 768:/usr/share/gcc-arm-none-eabi-10-2020-q4-major/arm-none-eabi/include/c++/10.2.1/limits **** 	= denorm_absent;
 769:/usr/share/gcc-arm-none-eabi-10-2020-q4-major/arm-none-eabi/include/c++/10.2.1/limits ****       static _GLIBCXX_USE_CONSTEXPR bool has_denorm_loss = false;
 770:/usr/share/gcc-arm-none-eabi-10-2020-q4-major/arm-none-eabi/include/c++/10.2.1/limits **** 
 771:/usr/share/gcc-arm-none-eabi-10-2020-q4-major/arm-none-eabi/include/c++/10.2.1/limits ****       static _GLIBCXX_CONSTEXPR char8_t
 772:/usr/share/gcc-arm-none-eabi-10-2020-q4-major/arm-none-eabi/include/c++/10.2.1/limits ****       infinity() _GLIBCXX_USE_NOEXCEPT { return char8_t(); }
 773:/usr/share/gcc-arm-none-eabi-10-2020-q4-major/arm-none-eabi/include/c++/10.2.1/limits **** 
 774:/usr/share/gcc-arm-none-eabi-10-2020-q4-major/arm-none-eabi/include/c++/10.2.1/limits ****       static _GLIBCXX_CONSTEXPR char8_t
 775:/usr/share/gcc-arm-none-eabi-10-2020-q4-major/arm-none-eabi/include/c++/10.2.1/limits ****       quiet_NaN() _GLIBCXX_USE_NOEXCEPT { return char8_t(); }
 776:/usr/share/gcc-arm-none-eabi-10-2020-q4-major/arm-none-eabi/include/c++/10.2.1/limits **** 
 777:/usr/share/gcc-arm-none-eabi-10-2020-q4-major/arm-none-eabi/include/c++/10.2.1/limits ****       static _GLIBCXX_CONSTEXPR char8_t
 778:/usr/share/gcc-arm-none-eabi-10-2020-q4-major/arm-none-eabi/include/c++/10.2.1/limits ****       signaling_NaN() _GLIBCXX_USE_NOEXCEPT { return char8_t(); }
 779:/usr/share/gcc-arm-none-eabi-10-2020-q4-major/arm-none-eabi/include/c++/10.2.1/limits **** 
 780:/usr/share/gcc-arm-none-eabi-10-2020-q4-major/arm-none-eabi/include/c++/10.2.1/limits ****       static _GLIBCXX_CONSTEXPR char8_t
 781:/usr/share/gcc-arm-none-eabi-10-2020-q4-major/arm-none-eabi/include/c++/10.2.1/limits ****       denorm_min() _GLIBCXX_USE_NOEXCEPT { return char8_t(); }
 782:/usr/share/gcc-arm-none-eabi-10-2020-q4-major/arm-none-eabi/include/c++/10.2.1/limits **** 
 783:/usr/share/gcc-arm-none-eabi-10-2020-q4-major/arm-none-eabi/include/c++/10.2.1/limits ****       static _GLIBCXX_USE_CONSTEXPR bool is_iec559 = false;
 784:/usr/share/gcc-arm-none-eabi-10-2020-q4-major/arm-none-eabi/include/c++/10.2.1/limits ****       static _GLIBCXX_USE_CONSTEXPR bool is_bounded = true;
 785:/usr/share/gcc-arm-none-eabi-10-2020-q4-major/arm-none-eabi/include/c++/10.2.1/limits ****       static _GLIBCXX_USE_CONSTEXPR bool is_modulo = !is_signed;
 786:/usr/share/gcc-arm-none-eabi-10-2020-q4-major/arm-none-eabi/include/c++/10.2.1/limits **** 
 787:/usr/share/gcc-arm-none-eabi-10-2020-q4-major/arm-none-eabi/include/c++/10.2.1/limits ****       static _GLIBCXX_USE_CONSTEXPR bool traps = __glibcxx_integral_traps;
 788:/usr/share/gcc-arm-none-eabi-10-2020-q4-major/arm-none-eabi/include/c++/10.2.1/limits ****       static _GLIBCXX_USE_CONSTEXPR bool tinyness_before = false;
 789:/usr/share/gcc-arm-none-eabi-10-2020-q4-major/arm-none-eabi/include/c++/10.2.1/limits ****       static _GLIBCXX_USE_CONSTEXPR float_round_style round_style
 790:/usr/share/gcc-arm-none-eabi-10-2020-q4-major/arm-none-eabi/include/c++/10.2.1/limits **** 	= round_toward_zero;
 791:/usr/share/gcc-arm-none-eabi-10-2020-q4-major/arm-none-eabi/include/c++/10.2.1/limits ****     };
 792:/usr/share/gcc-arm-none-eabi-10-2020-q4-major/arm-none-eabi/include/c++/10.2.1/limits **** #endif
 793:/usr/share/gcc-arm-none-eabi-10-2020-q4-major/arm-none-eabi/include/c++/10.2.1/limits **** 
 794:/usr/share/gcc-arm-none-eabi-10-2020-q4-major/arm-none-eabi/include/c++/10.2.1/limits **** #if __cplusplus >= 201103L
 795:/usr/share/gcc-arm-none-eabi-10-2020-q4-major/arm-none-eabi/include/c++/10.2.1/limits ****   /// numeric_limits<char16_t> specialization.
 796:/usr/share/gcc-arm-none-eabi-10-2020-q4-major/arm-none-eabi/include/c++/10.2.1/limits ****   template<>
 797:/usr/share/gcc-arm-none-eabi-10-2020-q4-major/arm-none-eabi/include/c++/10.2.1/limits ****     struct numeric_limits<char16_t>
 798:/usr/share/gcc-arm-none-eabi-10-2020-q4-major/arm-none-eabi/include/c++/10.2.1/limits ****     {
 799:/usr/share/gcc-arm-none-eabi-10-2020-q4-major/arm-none-eabi/include/c++/10.2.1/limits ****       static constexpr bool is_specialized = true;
 800:/usr/share/gcc-arm-none-eabi-10-2020-q4-major/arm-none-eabi/include/c++/10.2.1/limits **** 
 801:/usr/share/gcc-arm-none-eabi-10-2020-q4-major/arm-none-eabi/include/c++/10.2.1/limits ****       static constexpr char16_t
 802:/usr/share/gcc-arm-none-eabi-10-2020-q4-major/arm-none-eabi/include/c++/10.2.1/limits ****       min() noexcept { return __glibcxx_min (char16_t); }
 803:/usr/share/gcc-arm-none-eabi-10-2020-q4-major/arm-none-eabi/include/c++/10.2.1/limits **** 
 804:/usr/share/gcc-arm-none-eabi-10-2020-q4-major/arm-none-eabi/include/c++/10.2.1/limits ****       static constexpr char16_t
 805:/usr/share/gcc-arm-none-eabi-10-2020-q4-major/arm-none-eabi/include/c++/10.2.1/limits ****       max() noexcept { return __glibcxx_max (char16_t); }
 806:/usr/share/gcc-arm-none-eabi-10-2020-q4-major/arm-none-eabi/include/c++/10.2.1/limits **** 
 807:/usr/share/gcc-arm-none-eabi-10-2020-q4-major/arm-none-eabi/include/c++/10.2.1/limits ****       static constexpr char16_t
 808:/usr/share/gcc-arm-none-eabi-10-2020-q4-major/arm-none-eabi/include/c++/10.2.1/limits ****       lowest() noexcept { return min(); }
 809:/usr/share/gcc-arm-none-eabi-10-2020-q4-major/arm-none-eabi/include/c++/10.2.1/limits **** 
 810:/usr/share/gcc-arm-none-eabi-10-2020-q4-major/arm-none-eabi/include/c++/10.2.1/limits ****       static constexpr int digits = __glibcxx_digits (char16_t);
 811:/usr/share/gcc-arm-none-eabi-10-2020-q4-major/arm-none-eabi/include/c++/10.2.1/limits ****       static constexpr int digits10 = __glibcxx_digits10 (char16_t);
 812:/usr/share/gcc-arm-none-eabi-10-2020-q4-major/arm-none-eabi/include/c++/10.2.1/limits ****       static constexpr int max_digits10 = 0;
 813:/usr/share/gcc-arm-none-eabi-10-2020-q4-major/arm-none-eabi/include/c++/10.2.1/limits ****       static constexpr bool is_signed = __glibcxx_signed (char16_t);
 814:/usr/share/gcc-arm-none-eabi-10-2020-q4-major/arm-none-eabi/include/c++/10.2.1/limits ****       static constexpr bool is_integer = true;
 815:/usr/share/gcc-arm-none-eabi-10-2020-q4-major/arm-none-eabi/include/c++/10.2.1/limits ****       static constexpr bool is_exact = true;
 816:/usr/share/gcc-arm-none-eabi-10-2020-q4-major/arm-none-eabi/include/c++/10.2.1/limits ****       static constexpr int radix = 2;
 817:/usr/share/gcc-arm-none-eabi-10-2020-q4-major/arm-none-eabi/include/c++/10.2.1/limits **** 
 818:/usr/share/gcc-arm-none-eabi-10-2020-q4-major/arm-none-eabi/include/c++/10.2.1/limits ****       static constexpr char16_t
 819:/usr/share/gcc-arm-none-eabi-10-2020-q4-major/arm-none-eabi/include/c++/10.2.1/limits ****       epsilon() noexcept { return 0; }
 820:/usr/share/gcc-arm-none-eabi-10-2020-q4-major/arm-none-eabi/include/c++/10.2.1/limits **** 
ARM GAS  /tmp/ccaL2bzX.s 			page 29


 821:/usr/share/gcc-arm-none-eabi-10-2020-q4-major/arm-none-eabi/include/c++/10.2.1/limits ****       static constexpr char16_t
 822:/usr/share/gcc-arm-none-eabi-10-2020-q4-major/arm-none-eabi/include/c++/10.2.1/limits ****       round_error() noexcept { return 0; }
 823:/usr/share/gcc-arm-none-eabi-10-2020-q4-major/arm-none-eabi/include/c++/10.2.1/limits **** 
 824:/usr/share/gcc-arm-none-eabi-10-2020-q4-major/arm-none-eabi/include/c++/10.2.1/limits ****       static constexpr int min_exponent = 0;
 825:/usr/share/gcc-arm-none-eabi-10-2020-q4-major/arm-none-eabi/include/c++/10.2.1/limits ****       static constexpr int min_exponent10 = 0;
 826:/usr/share/gcc-arm-none-eabi-10-2020-q4-major/arm-none-eabi/include/c++/10.2.1/limits ****       static constexpr int max_exponent = 0;
 827:/usr/share/gcc-arm-none-eabi-10-2020-q4-major/arm-none-eabi/include/c++/10.2.1/limits ****       static constexpr int max_exponent10 = 0;
 828:/usr/share/gcc-arm-none-eabi-10-2020-q4-major/arm-none-eabi/include/c++/10.2.1/limits **** 
 829:/usr/share/gcc-arm-none-eabi-10-2020-q4-major/arm-none-eabi/include/c++/10.2.1/limits ****       static constexpr bool has_infinity = false;
 830:/usr/share/gcc-arm-none-eabi-10-2020-q4-major/arm-none-eabi/include/c++/10.2.1/limits ****       static constexpr bool has_quiet_NaN = false;
 831:/usr/share/gcc-arm-none-eabi-10-2020-q4-major/arm-none-eabi/include/c++/10.2.1/limits ****       static constexpr bool has_signaling_NaN = false;
 832:/usr/share/gcc-arm-none-eabi-10-2020-q4-major/arm-none-eabi/include/c++/10.2.1/limits ****       static constexpr float_denorm_style has_denorm = denorm_absent;
 833:/usr/share/gcc-arm-none-eabi-10-2020-q4-major/arm-none-eabi/include/c++/10.2.1/limits ****       static constexpr bool has_denorm_loss = false;
 834:/usr/share/gcc-arm-none-eabi-10-2020-q4-major/arm-none-eabi/include/c++/10.2.1/limits **** 
 835:/usr/share/gcc-arm-none-eabi-10-2020-q4-major/arm-none-eabi/include/c++/10.2.1/limits ****       static constexpr char16_t
 836:/usr/share/gcc-arm-none-eabi-10-2020-q4-major/arm-none-eabi/include/c++/10.2.1/limits ****       infinity() noexcept { return char16_t(); }
 837:/usr/share/gcc-arm-none-eabi-10-2020-q4-major/arm-none-eabi/include/c++/10.2.1/limits **** 
 838:/usr/share/gcc-arm-none-eabi-10-2020-q4-major/arm-none-eabi/include/c++/10.2.1/limits ****       static constexpr char16_t
 839:/usr/share/gcc-arm-none-eabi-10-2020-q4-major/arm-none-eabi/include/c++/10.2.1/limits ****       quiet_NaN() noexcept { return char16_t(); }
 840:/usr/share/gcc-arm-none-eabi-10-2020-q4-major/arm-none-eabi/include/c++/10.2.1/limits **** 
 841:/usr/share/gcc-arm-none-eabi-10-2020-q4-major/arm-none-eabi/include/c++/10.2.1/limits ****       static constexpr char16_t
 842:/usr/share/gcc-arm-none-eabi-10-2020-q4-major/arm-none-eabi/include/c++/10.2.1/limits ****       signaling_NaN() noexcept { return char16_t(); }
 843:/usr/share/gcc-arm-none-eabi-10-2020-q4-major/arm-none-eabi/include/c++/10.2.1/limits **** 
 844:/usr/share/gcc-arm-none-eabi-10-2020-q4-major/arm-none-eabi/include/c++/10.2.1/limits ****       static constexpr char16_t
 845:/usr/share/gcc-arm-none-eabi-10-2020-q4-major/arm-none-eabi/include/c++/10.2.1/limits ****       denorm_min() noexcept { return char16_t(); }
 846:/usr/share/gcc-arm-none-eabi-10-2020-q4-major/arm-none-eabi/include/c++/10.2.1/limits **** 
 847:/usr/share/gcc-arm-none-eabi-10-2020-q4-major/arm-none-eabi/include/c++/10.2.1/limits ****       static constexpr bool is_iec559 = false;
 848:/usr/share/gcc-arm-none-eabi-10-2020-q4-major/arm-none-eabi/include/c++/10.2.1/limits ****       static constexpr bool is_bounded = true;
 849:/usr/share/gcc-arm-none-eabi-10-2020-q4-major/arm-none-eabi/include/c++/10.2.1/limits ****       static constexpr bool is_modulo = !is_signed;
 850:/usr/share/gcc-arm-none-eabi-10-2020-q4-major/arm-none-eabi/include/c++/10.2.1/limits **** 
 851:/usr/share/gcc-arm-none-eabi-10-2020-q4-major/arm-none-eabi/include/c++/10.2.1/limits ****       static constexpr bool traps = __glibcxx_integral_traps;
 852:/usr/share/gcc-arm-none-eabi-10-2020-q4-major/arm-none-eabi/include/c++/10.2.1/limits ****       static constexpr bool tinyness_before = false;
 853:/usr/share/gcc-arm-none-eabi-10-2020-q4-major/arm-none-eabi/include/c++/10.2.1/limits ****       static constexpr float_round_style round_style = round_toward_zero;
 854:/usr/share/gcc-arm-none-eabi-10-2020-q4-major/arm-none-eabi/include/c++/10.2.1/limits ****     };
 855:/usr/share/gcc-arm-none-eabi-10-2020-q4-major/arm-none-eabi/include/c++/10.2.1/limits **** 
 856:/usr/share/gcc-arm-none-eabi-10-2020-q4-major/arm-none-eabi/include/c++/10.2.1/limits ****   /// numeric_limits<char32_t> specialization.
 857:/usr/share/gcc-arm-none-eabi-10-2020-q4-major/arm-none-eabi/include/c++/10.2.1/limits ****   template<>
 858:/usr/share/gcc-arm-none-eabi-10-2020-q4-major/arm-none-eabi/include/c++/10.2.1/limits ****     struct numeric_limits<char32_t>
 859:/usr/share/gcc-arm-none-eabi-10-2020-q4-major/arm-none-eabi/include/c++/10.2.1/limits ****     {
 860:/usr/share/gcc-arm-none-eabi-10-2020-q4-major/arm-none-eabi/include/c++/10.2.1/limits ****       static constexpr bool is_specialized = true;
 861:/usr/share/gcc-arm-none-eabi-10-2020-q4-major/arm-none-eabi/include/c++/10.2.1/limits **** 
 862:/usr/share/gcc-arm-none-eabi-10-2020-q4-major/arm-none-eabi/include/c++/10.2.1/limits ****       static constexpr char32_t
 863:/usr/share/gcc-arm-none-eabi-10-2020-q4-major/arm-none-eabi/include/c++/10.2.1/limits ****       min() noexcept { return __glibcxx_min (char32_t); }
 864:/usr/share/gcc-arm-none-eabi-10-2020-q4-major/arm-none-eabi/include/c++/10.2.1/limits **** 
 865:/usr/share/gcc-arm-none-eabi-10-2020-q4-major/arm-none-eabi/include/c++/10.2.1/limits ****       static constexpr char32_t
 866:/usr/share/gcc-arm-none-eabi-10-2020-q4-major/arm-none-eabi/include/c++/10.2.1/limits ****       max() noexcept { return __glibcxx_max (char32_t); }
 867:/usr/share/gcc-arm-none-eabi-10-2020-q4-major/arm-none-eabi/include/c++/10.2.1/limits **** 
 868:/usr/share/gcc-arm-none-eabi-10-2020-q4-major/arm-none-eabi/include/c++/10.2.1/limits ****       static constexpr char32_t
 869:/usr/share/gcc-arm-none-eabi-10-2020-q4-major/arm-none-eabi/include/c++/10.2.1/limits ****       lowest() noexcept { return min(); }
 870:/usr/share/gcc-arm-none-eabi-10-2020-q4-major/arm-none-eabi/include/c++/10.2.1/limits **** 
 871:/usr/share/gcc-arm-none-eabi-10-2020-q4-major/arm-none-eabi/include/c++/10.2.1/limits ****       static constexpr int digits = __glibcxx_digits (char32_t);
 872:/usr/share/gcc-arm-none-eabi-10-2020-q4-major/arm-none-eabi/include/c++/10.2.1/limits ****       static constexpr int digits10 = __glibcxx_digits10 (char32_t);
 873:/usr/share/gcc-arm-none-eabi-10-2020-q4-major/arm-none-eabi/include/c++/10.2.1/limits ****       static constexpr int max_digits10 = 0;
 874:/usr/share/gcc-arm-none-eabi-10-2020-q4-major/arm-none-eabi/include/c++/10.2.1/limits ****       static constexpr bool is_signed = __glibcxx_signed (char32_t);
 875:/usr/share/gcc-arm-none-eabi-10-2020-q4-major/arm-none-eabi/include/c++/10.2.1/limits ****       static constexpr bool is_integer = true;
 876:/usr/share/gcc-arm-none-eabi-10-2020-q4-major/arm-none-eabi/include/c++/10.2.1/limits ****       static constexpr bool is_exact = true;
 877:/usr/share/gcc-arm-none-eabi-10-2020-q4-major/arm-none-eabi/include/c++/10.2.1/limits ****       static constexpr int radix = 2;
ARM GAS  /tmp/ccaL2bzX.s 			page 30


 878:/usr/share/gcc-arm-none-eabi-10-2020-q4-major/arm-none-eabi/include/c++/10.2.1/limits **** 
 879:/usr/share/gcc-arm-none-eabi-10-2020-q4-major/arm-none-eabi/include/c++/10.2.1/limits ****       static constexpr char32_t
 880:/usr/share/gcc-arm-none-eabi-10-2020-q4-major/arm-none-eabi/include/c++/10.2.1/limits ****       epsilon() noexcept { return 0; }
 881:/usr/share/gcc-arm-none-eabi-10-2020-q4-major/arm-none-eabi/include/c++/10.2.1/limits **** 
 882:/usr/share/gcc-arm-none-eabi-10-2020-q4-major/arm-none-eabi/include/c++/10.2.1/limits ****       static constexpr char32_t
 883:/usr/share/gcc-arm-none-eabi-10-2020-q4-major/arm-none-eabi/include/c++/10.2.1/limits ****       round_error() noexcept { return 0; }
 884:/usr/share/gcc-arm-none-eabi-10-2020-q4-major/arm-none-eabi/include/c++/10.2.1/limits **** 
 885:/usr/share/gcc-arm-none-eabi-10-2020-q4-major/arm-none-eabi/include/c++/10.2.1/limits ****       static constexpr int min_exponent = 0;
 886:/usr/share/gcc-arm-none-eabi-10-2020-q4-major/arm-none-eabi/include/c++/10.2.1/limits ****       static constexpr int min_exponent10 = 0;
 887:/usr/share/gcc-arm-none-eabi-10-2020-q4-major/arm-none-eabi/include/c++/10.2.1/limits ****       static constexpr int max_exponent = 0;
 888:/usr/share/gcc-arm-none-eabi-10-2020-q4-major/arm-none-eabi/include/c++/10.2.1/limits ****       static constexpr int max_exponent10 = 0;
 889:/usr/share/gcc-arm-none-eabi-10-2020-q4-major/arm-none-eabi/include/c++/10.2.1/limits **** 
 890:/usr/share/gcc-arm-none-eabi-10-2020-q4-major/arm-none-eabi/include/c++/10.2.1/limits ****       static constexpr bool has_infinity = false;
 891:/usr/share/gcc-arm-none-eabi-10-2020-q4-major/arm-none-eabi/include/c++/10.2.1/limits ****       static constexpr bool has_quiet_NaN = false;
 892:/usr/share/gcc-arm-none-eabi-10-2020-q4-major/arm-none-eabi/include/c++/10.2.1/limits ****       static constexpr bool has_signaling_NaN = false;
 893:/usr/share/gcc-arm-none-eabi-10-2020-q4-major/arm-none-eabi/include/c++/10.2.1/limits ****       static constexpr float_denorm_style has_denorm = denorm_absent;
 894:/usr/share/gcc-arm-none-eabi-10-2020-q4-major/arm-none-eabi/include/c++/10.2.1/limits ****       static constexpr bool has_denorm_loss = false;
 895:/usr/share/gcc-arm-none-eabi-10-2020-q4-major/arm-none-eabi/include/c++/10.2.1/limits **** 
 896:/usr/share/gcc-arm-none-eabi-10-2020-q4-major/arm-none-eabi/include/c++/10.2.1/limits ****       static constexpr char32_t
 897:/usr/share/gcc-arm-none-eabi-10-2020-q4-major/arm-none-eabi/include/c++/10.2.1/limits ****       infinity() noexcept { return char32_t(); }
 898:/usr/share/gcc-arm-none-eabi-10-2020-q4-major/arm-none-eabi/include/c++/10.2.1/limits **** 
 899:/usr/share/gcc-arm-none-eabi-10-2020-q4-major/arm-none-eabi/include/c++/10.2.1/limits ****       static constexpr char32_t
 900:/usr/share/gcc-arm-none-eabi-10-2020-q4-major/arm-none-eabi/include/c++/10.2.1/limits ****       quiet_NaN() noexcept { return char32_t(); }
 901:/usr/share/gcc-arm-none-eabi-10-2020-q4-major/arm-none-eabi/include/c++/10.2.1/limits **** 
 902:/usr/share/gcc-arm-none-eabi-10-2020-q4-major/arm-none-eabi/include/c++/10.2.1/limits ****       static constexpr char32_t
 903:/usr/share/gcc-arm-none-eabi-10-2020-q4-major/arm-none-eabi/include/c++/10.2.1/limits ****       signaling_NaN() noexcept { return char32_t(); }
 904:/usr/share/gcc-arm-none-eabi-10-2020-q4-major/arm-none-eabi/include/c++/10.2.1/limits **** 
 905:/usr/share/gcc-arm-none-eabi-10-2020-q4-major/arm-none-eabi/include/c++/10.2.1/limits ****       static constexpr char32_t
 906:/usr/share/gcc-arm-none-eabi-10-2020-q4-major/arm-none-eabi/include/c++/10.2.1/limits ****       denorm_min() noexcept { return char32_t(); }
 907:/usr/share/gcc-arm-none-eabi-10-2020-q4-major/arm-none-eabi/include/c++/10.2.1/limits **** 
 908:/usr/share/gcc-arm-none-eabi-10-2020-q4-major/arm-none-eabi/include/c++/10.2.1/limits ****       static constexpr bool is_iec559 = false;
 909:/usr/share/gcc-arm-none-eabi-10-2020-q4-major/arm-none-eabi/include/c++/10.2.1/limits ****       static constexpr bool is_bounded = true;
 910:/usr/share/gcc-arm-none-eabi-10-2020-q4-major/arm-none-eabi/include/c++/10.2.1/limits ****       static constexpr bool is_modulo = !is_signed;
 911:/usr/share/gcc-arm-none-eabi-10-2020-q4-major/arm-none-eabi/include/c++/10.2.1/limits **** 
 912:/usr/share/gcc-arm-none-eabi-10-2020-q4-major/arm-none-eabi/include/c++/10.2.1/limits ****       static constexpr bool traps = __glibcxx_integral_traps;
 913:/usr/share/gcc-arm-none-eabi-10-2020-q4-major/arm-none-eabi/include/c++/10.2.1/limits ****       static constexpr bool tinyness_before = false;
 914:/usr/share/gcc-arm-none-eabi-10-2020-q4-major/arm-none-eabi/include/c++/10.2.1/limits ****       static constexpr float_round_style round_style = round_toward_zero;
 915:/usr/share/gcc-arm-none-eabi-10-2020-q4-major/arm-none-eabi/include/c++/10.2.1/limits ****     };
 916:/usr/share/gcc-arm-none-eabi-10-2020-q4-major/arm-none-eabi/include/c++/10.2.1/limits **** #endif
 917:/usr/share/gcc-arm-none-eabi-10-2020-q4-major/arm-none-eabi/include/c++/10.2.1/limits **** 
 918:/usr/share/gcc-arm-none-eabi-10-2020-q4-major/arm-none-eabi/include/c++/10.2.1/limits ****   /// numeric_limits<short> specialization.
 919:/usr/share/gcc-arm-none-eabi-10-2020-q4-major/arm-none-eabi/include/c++/10.2.1/limits ****   template<>
 920:/usr/share/gcc-arm-none-eabi-10-2020-q4-major/arm-none-eabi/include/c++/10.2.1/limits ****     struct numeric_limits<short>
 921:/usr/share/gcc-arm-none-eabi-10-2020-q4-major/arm-none-eabi/include/c++/10.2.1/limits ****     {
 922:/usr/share/gcc-arm-none-eabi-10-2020-q4-major/arm-none-eabi/include/c++/10.2.1/limits ****       static _GLIBCXX_USE_CONSTEXPR bool is_specialized = true;
 923:/usr/share/gcc-arm-none-eabi-10-2020-q4-major/arm-none-eabi/include/c++/10.2.1/limits **** 
 924:/usr/share/gcc-arm-none-eabi-10-2020-q4-major/arm-none-eabi/include/c++/10.2.1/limits ****       static _GLIBCXX_CONSTEXPR short
 925:/usr/share/gcc-arm-none-eabi-10-2020-q4-major/arm-none-eabi/include/c++/10.2.1/limits ****       min() _GLIBCXX_USE_NOEXCEPT { return -__SHRT_MAX__ - 1; }
 926:/usr/share/gcc-arm-none-eabi-10-2020-q4-major/arm-none-eabi/include/c++/10.2.1/limits **** 
 927:/usr/share/gcc-arm-none-eabi-10-2020-q4-major/arm-none-eabi/include/c++/10.2.1/limits ****       static _GLIBCXX_CONSTEXPR short
 928:/usr/share/gcc-arm-none-eabi-10-2020-q4-major/arm-none-eabi/include/c++/10.2.1/limits ****       max() _GLIBCXX_USE_NOEXCEPT { return __SHRT_MAX__; }
 929:/usr/share/gcc-arm-none-eabi-10-2020-q4-major/arm-none-eabi/include/c++/10.2.1/limits **** 
 930:/usr/share/gcc-arm-none-eabi-10-2020-q4-major/arm-none-eabi/include/c++/10.2.1/limits **** #if __cplusplus >= 201103L
 931:/usr/share/gcc-arm-none-eabi-10-2020-q4-major/arm-none-eabi/include/c++/10.2.1/limits ****       static constexpr short
 932:/usr/share/gcc-arm-none-eabi-10-2020-q4-major/arm-none-eabi/include/c++/10.2.1/limits ****       lowest() noexcept { return min(); }
 933:/usr/share/gcc-arm-none-eabi-10-2020-q4-major/arm-none-eabi/include/c++/10.2.1/limits **** #endif
 934:/usr/share/gcc-arm-none-eabi-10-2020-q4-major/arm-none-eabi/include/c++/10.2.1/limits **** 
ARM GAS  /tmp/ccaL2bzX.s 			page 31


 935:/usr/share/gcc-arm-none-eabi-10-2020-q4-major/arm-none-eabi/include/c++/10.2.1/limits ****       static _GLIBCXX_USE_CONSTEXPR int digits = __glibcxx_digits (short);
 936:/usr/share/gcc-arm-none-eabi-10-2020-q4-major/arm-none-eabi/include/c++/10.2.1/limits ****       static _GLIBCXX_USE_CONSTEXPR int digits10 = __glibcxx_digits10 (short);
 937:/usr/share/gcc-arm-none-eabi-10-2020-q4-major/arm-none-eabi/include/c++/10.2.1/limits **** #if __cplusplus >= 201103L
 938:/usr/share/gcc-arm-none-eabi-10-2020-q4-major/arm-none-eabi/include/c++/10.2.1/limits ****       static constexpr int max_digits10 = 0;
 939:/usr/share/gcc-arm-none-eabi-10-2020-q4-major/arm-none-eabi/include/c++/10.2.1/limits **** #endif
 940:/usr/share/gcc-arm-none-eabi-10-2020-q4-major/arm-none-eabi/include/c++/10.2.1/limits ****       static _GLIBCXX_USE_CONSTEXPR bool is_signed = true;
 941:/usr/share/gcc-arm-none-eabi-10-2020-q4-major/arm-none-eabi/include/c++/10.2.1/limits ****       static _GLIBCXX_USE_CONSTEXPR bool is_integer = true;
 942:/usr/share/gcc-arm-none-eabi-10-2020-q4-major/arm-none-eabi/include/c++/10.2.1/limits ****       static _GLIBCXX_USE_CONSTEXPR bool is_exact = true;
 943:/usr/share/gcc-arm-none-eabi-10-2020-q4-major/arm-none-eabi/include/c++/10.2.1/limits ****       static _GLIBCXX_USE_CONSTEXPR int radix = 2;
 944:/usr/share/gcc-arm-none-eabi-10-2020-q4-major/arm-none-eabi/include/c++/10.2.1/limits **** 
 945:/usr/share/gcc-arm-none-eabi-10-2020-q4-major/arm-none-eabi/include/c++/10.2.1/limits ****       static _GLIBCXX_CONSTEXPR short
 946:/usr/share/gcc-arm-none-eabi-10-2020-q4-major/arm-none-eabi/include/c++/10.2.1/limits ****       epsilon() _GLIBCXX_USE_NOEXCEPT { return 0; }
 947:/usr/share/gcc-arm-none-eabi-10-2020-q4-major/arm-none-eabi/include/c++/10.2.1/limits **** 
 948:/usr/share/gcc-arm-none-eabi-10-2020-q4-major/arm-none-eabi/include/c++/10.2.1/limits ****       static _GLIBCXX_CONSTEXPR short
 949:/usr/share/gcc-arm-none-eabi-10-2020-q4-major/arm-none-eabi/include/c++/10.2.1/limits ****       round_error() _GLIBCXX_USE_NOEXCEPT { return 0; }
 950:/usr/share/gcc-arm-none-eabi-10-2020-q4-major/arm-none-eabi/include/c++/10.2.1/limits **** 
 951:/usr/share/gcc-arm-none-eabi-10-2020-q4-major/arm-none-eabi/include/c++/10.2.1/limits ****       static _GLIBCXX_USE_CONSTEXPR int min_exponent = 0;
 952:/usr/share/gcc-arm-none-eabi-10-2020-q4-major/arm-none-eabi/include/c++/10.2.1/limits ****       static _GLIBCXX_USE_CONSTEXPR int min_exponent10 = 0;
 953:/usr/share/gcc-arm-none-eabi-10-2020-q4-major/arm-none-eabi/include/c++/10.2.1/limits ****       static _GLIBCXX_USE_CONSTEXPR int max_exponent = 0;
 954:/usr/share/gcc-arm-none-eabi-10-2020-q4-major/arm-none-eabi/include/c++/10.2.1/limits ****       static _GLIBCXX_USE_CONSTEXPR int max_exponent10 = 0;
 955:/usr/share/gcc-arm-none-eabi-10-2020-q4-major/arm-none-eabi/include/c++/10.2.1/limits **** 
 956:/usr/share/gcc-arm-none-eabi-10-2020-q4-major/arm-none-eabi/include/c++/10.2.1/limits ****       static _GLIBCXX_USE_CONSTEXPR bool has_infinity = false;
 957:/usr/share/gcc-arm-none-eabi-10-2020-q4-major/arm-none-eabi/include/c++/10.2.1/limits ****       static _GLIBCXX_USE_CONSTEXPR bool has_quiet_NaN = false;
 958:/usr/share/gcc-arm-none-eabi-10-2020-q4-major/arm-none-eabi/include/c++/10.2.1/limits ****       static _GLIBCXX_USE_CONSTEXPR bool has_signaling_NaN = false;
 959:/usr/share/gcc-arm-none-eabi-10-2020-q4-major/arm-none-eabi/include/c++/10.2.1/limits ****       static _GLIBCXX_USE_CONSTEXPR float_denorm_style has_denorm
 960:/usr/share/gcc-arm-none-eabi-10-2020-q4-major/arm-none-eabi/include/c++/10.2.1/limits ****        = denorm_absent;
 961:/usr/share/gcc-arm-none-eabi-10-2020-q4-major/arm-none-eabi/include/c++/10.2.1/limits ****       static _GLIBCXX_USE_CONSTEXPR bool has_denorm_loss = false;
 962:/usr/share/gcc-arm-none-eabi-10-2020-q4-major/arm-none-eabi/include/c++/10.2.1/limits **** 
 963:/usr/share/gcc-arm-none-eabi-10-2020-q4-major/arm-none-eabi/include/c++/10.2.1/limits ****       static _GLIBCXX_CONSTEXPR short
 964:/usr/share/gcc-arm-none-eabi-10-2020-q4-major/arm-none-eabi/include/c++/10.2.1/limits ****       infinity() _GLIBCXX_USE_NOEXCEPT { return short(); }
 965:/usr/share/gcc-arm-none-eabi-10-2020-q4-major/arm-none-eabi/include/c++/10.2.1/limits **** 
 966:/usr/share/gcc-arm-none-eabi-10-2020-q4-major/arm-none-eabi/include/c++/10.2.1/limits ****       static _GLIBCXX_CONSTEXPR short
 967:/usr/share/gcc-arm-none-eabi-10-2020-q4-major/arm-none-eabi/include/c++/10.2.1/limits ****       quiet_NaN() _GLIBCXX_USE_NOEXCEPT { return short(); }
 968:/usr/share/gcc-arm-none-eabi-10-2020-q4-major/arm-none-eabi/include/c++/10.2.1/limits **** 
 969:/usr/share/gcc-arm-none-eabi-10-2020-q4-major/arm-none-eabi/include/c++/10.2.1/limits ****       static _GLIBCXX_CONSTEXPR short
 970:/usr/share/gcc-arm-none-eabi-10-2020-q4-major/arm-none-eabi/include/c++/10.2.1/limits ****       signaling_NaN() _GLIBCXX_USE_NOEXCEPT { return short(); }
 971:/usr/share/gcc-arm-none-eabi-10-2020-q4-major/arm-none-eabi/include/c++/10.2.1/limits **** 
 972:/usr/share/gcc-arm-none-eabi-10-2020-q4-major/arm-none-eabi/include/c++/10.2.1/limits ****       static _GLIBCXX_CONSTEXPR short
 973:/usr/share/gcc-arm-none-eabi-10-2020-q4-major/arm-none-eabi/include/c++/10.2.1/limits ****       denorm_min() _GLIBCXX_USE_NOEXCEPT { return short(); }
 974:/usr/share/gcc-arm-none-eabi-10-2020-q4-major/arm-none-eabi/include/c++/10.2.1/limits **** 
 975:/usr/share/gcc-arm-none-eabi-10-2020-q4-major/arm-none-eabi/include/c++/10.2.1/limits ****       static _GLIBCXX_USE_CONSTEXPR bool is_iec559 = false;
 976:/usr/share/gcc-arm-none-eabi-10-2020-q4-major/arm-none-eabi/include/c++/10.2.1/limits ****       static _GLIBCXX_USE_CONSTEXPR bool is_bounded = true;
 977:/usr/share/gcc-arm-none-eabi-10-2020-q4-major/arm-none-eabi/include/c++/10.2.1/limits ****       static _GLIBCXX_USE_CONSTEXPR bool is_modulo = false;
 978:/usr/share/gcc-arm-none-eabi-10-2020-q4-major/arm-none-eabi/include/c++/10.2.1/limits **** 
 979:/usr/share/gcc-arm-none-eabi-10-2020-q4-major/arm-none-eabi/include/c++/10.2.1/limits ****       static _GLIBCXX_USE_CONSTEXPR bool traps = __glibcxx_integral_traps;
 980:/usr/share/gcc-arm-none-eabi-10-2020-q4-major/arm-none-eabi/include/c++/10.2.1/limits ****       static _GLIBCXX_USE_CONSTEXPR bool tinyness_before = false;
 981:/usr/share/gcc-arm-none-eabi-10-2020-q4-major/arm-none-eabi/include/c++/10.2.1/limits ****       static _GLIBCXX_USE_CONSTEXPR float_round_style round_style
 982:/usr/share/gcc-arm-none-eabi-10-2020-q4-major/arm-none-eabi/include/c++/10.2.1/limits ****        = round_toward_zero;
 983:/usr/share/gcc-arm-none-eabi-10-2020-q4-major/arm-none-eabi/include/c++/10.2.1/limits ****     };
 984:/usr/share/gcc-arm-none-eabi-10-2020-q4-major/arm-none-eabi/include/c++/10.2.1/limits **** 
 985:/usr/share/gcc-arm-none-eabi-10-2020-q4-major/arm-none-eabi/include/c++/10.2.1/limits ****   /// numeric_limits<unsigned short> specialization.
 986:/usr/share/gcc-arm-none-eabi-10-2020-q4-major/arm-none-eabi/include/c++/10.2.1/limits ****   template<>
 987:/usr/share/gcc-arm-none-eabi-10-2020-q4-major/arm-none-eabi/include/c++/10.2.1/limits ****     struct numeric_limits<unsigned short>
 988:/usr/share/gcc-arm-none-eabi-10-2020-q4-major/arm-none-eabi/include/c++/10.2.1/limits ****     {
 989:/usr/share/gcc-arm-none-eabi-10-2020-q4-major/arm-none-eabi/include/c++/10.2.1/limits ****       static _GLIBCXX_USE_CONSTEXPR bool is_specialized = true;
 990:/usr/share/gcc-arm-none-eabi-10-2020-q4-major/arm-none-eabi/include/c++/10.2.1/limits **** 
 991:/usr/share/gcc-arm-none-eabi-10-2020-q4-major/arm-none-eabi/include/c++/10.2.1/limits ****       static _GLIBCXX_CONSTEXPR unsigned short
ARM GAS  /tmp/ccaL2bzX.s 			page 32


 992:/usr/share/gcc-arm-none-eabi-10-2020-q4-major/arm-none-eabi/include/c++/10.2.1/limits ****       min() _GLIBCXX_USE_NOEXCEPT { return 0; }
 993:/usr/share/gcc-arm-none-eabi-10-2020-q4-major/arm-none-eabi/include/c++/10.2.1/limits **** 
 994:/usr/share/gcc-arm-none-eabi-10-2020-q4-major/arm-none-eabi/include/c++/10.2.1/limits ****       static _GLIBCXX_CONSTEXPR unsigned short
 995:/usr/share/gcc-arm-none-eabi-10-2020-q4-major/arm-none-eabi/include/c++/10.2.1/limits ****       max() _GLIBCXX_USE_NOEXCEPT { return __SHRT_MAX__ * 2U + 1; }
 996:/usr/share/gcc-arm-none-eabi-10-2020-q4-major/arm-none-eabi/include/c++/10.2.1/limits **** 
 997:/usr/share/gcc-arm-none-eabi-10-2020-q4-major/arm-none-eabi/include/c++/10.2.1/limits **** #if __cplusplus >= 201103L
 998:/usr/share/gcc-arm-none-eabi-10-2020-q4-major/arm-none-eabi/include/c++/10.2.1/limits ****       static constexpr unsigned short
 999:/usr/share/gcc-arm-none-eabi-10-2020-q4-major/arm-none-eabi/include/c++/10.2.1/limits ****       lowest() noexcept { return min(); }
1000:/usr/share/gcc-arm-none-eabi-10-2020-q4-major/arm-none-eabi/include/c++/10.2.1/limits **** #endif
1001:/usr/share/gcc-arm-none-eabi-10-2020-q4-major/arm-none-eabi/include/c++/10.2.1/limits **** 
1002:/usr/share/gcc-arm-none-eabi-10-2020-q4-major/arm-none-eabi/include/c++/10.2.1/limits ****       static _GLIBCXX_USE_CONSTEXPR int digits
1003:/usr/share/gcc-arm-none-eabi-10-2020-q4-major/arm-none-eabi/include/c++/10.2.1/limits ****        = __glibcxx_digits (unsigned short);
1004:/usr/share/gcc-arm-none-eabi-10-2020-q4-major/arm-none-eabi/include/c++/10.2.1/limits ****       static _GLIBCXX_USE_CONSTEXPR int digits10
1005:/usr/share/gcc-arm-none-eabi-10-2020-q4-major/arm-none-eabi/include/c++/10.2.1/limits ****        = __glibcxx_digits10 (unsigned short);
1006:/usr/share/gcc-arm-none-eabi-10-2020-q4-major/arm-none-eabi/include/c++/10.2.1/limits **** #if __cplusplus >= 201103L
1007:/usr/share/gcc-arm-none-eabi-10-2020-q4-major/arm-none-eabi/include/c++/10.2.1/limits ****       static constexpr int max_digits10 = 0;
1008:/usr/share/gcc-arm-none-eabi-10-2020-q4-major/arm-none-eabi/include/c++/10.2.1/limits **** #endif
1009:/usr/share/gcc-arm-none-eabi-10-2020-q4-major/arm-none-eabi/include/c++/10.2.1/limits ****       static _GLIBCXX_USE_CONSTEXPR bool is_signed = false;
1010:/usr/share/gcc-arm-none-eabi-10-2020-q4-major/arm-none-eabi/include/c++/10.2.1/limits ****       static _GLIBCXX_USE_CONSTEXPR bool is_integer = true;
1011:/usr/share/gcc-arm-none-eabi-10-2020-q4-major/arm-none-eabi/include/c++/10.2.1/limits ****       static _GLIBCXX_USE_CONSTEXPR bool is_exact = true;
1012:/usr/share/gcc-arm-none-eabi-10-2020-q4-major/arm-none-eabi/include/c++/10.2.1/limits ****       static _GLIBCXX_USE_CONSTEXPR int radix = 2;
1013:/usr/share/gcc-arm-none-eabi-10-2020-q4-major/arm-none-eabi/include/c++/10.2.1/limits **** 
1014:/usr/share/gcc-arm-none-eabi-10-2020-q4-major/arm-none-eabi/include/c++/10.2.1/limits ****       static _GLIBCXX_CONSTEXPR unsigned short
1015:/usr/share/gcc-arm-none-eabi-10-2020-q4-major/arm-none-eabi/include/c++/10.2.1/limits ****       epsilon() _GLIBCXX_USE_NOEXCEPT { return 0; }
1016:/usr/share/gcc-arm-none-eabi-10-2020-q4-major/arm-none-eabi/include/c++/10.2.1/limits **** 
1017:/usr/share/gcc-arm-none-eabi-10-2020-q4-major/arm-none-eabi/include/c++/10.2.1/limits ****       static _GLIBCXX_CONSTEXPR unsigned short
1018:/usr/share/gcc-arm-none-eabi-10-2020-q4-major/arm-none-eabi/include/c++/10.2.1/limits ****       round_error() _GLIBCXX_USE_NOEXCEPT { return 0; }
1019:/usr/share/gcc-arm-none-eabi-10-2020-q4-major/arm-none-eabi/include/c++/10.2.1/limits **** 
1020:/usr/share/gcc-arm-none-eabi-10-2020-q4-major/arm-none-eabi/include/c++/10.2.1/limits ****       static _GLIBCXX_USE_CONSTEXPR int min_exponent = 0;
1021:/usr/share/gcc-arm-none-eabi-10-2020-q4-major/arm-none-eabi/include/c++/10.2.1/limits ****       static _GLIBCXX_USE_CONSTEXPR int min_exponent10 = 0;
1022:/usr/share/gcc-arm-none-eabi-10-2020-q4-major/arm-none-eabi/include/c++/10.2.1/limits ****       static _GLIBCXX_USE_CONSTEXPR int max_exponent = 0;
1023:/usr/share/gcc-arm-none-eabi-10-2020-q4-major/arm-none-eabi/include/c++/10.2.1/limits ****       static _GLIBCXX_USE_CONSTEXPR int max_exponent10 = 0;
1024:/usr/share/gcc-arm-none-eabi-10-2020-q4-major/arm-none-eabi/include/c++/10.2.1/limits **** 
1025:/usr/share/gcc-arm-none-eabi-10-2020-q4-major/arm-none-eabi/include/c++/10.2.1/limits ****       static _GLIBCXX_USE_CONSTEXPR bool has_infinity = false;
1026:/usr/share/gcc-arm-none-eabi-10-2020-q4-major/arm-none-eabi/include/c++/10.2.1/limits ****       static _GLIBCXX_USE_CONSTEXPR bool has_quiet_NaN = false;
1027:/usr/share/gcc-arm-none-eabi-10-2020-q4-major/arm-none-eabi/include/c++/10.2.1/limits ****       static _GLIBCXX_USE_CONSTEXPR bool has_signaling_NaN = false;
1028:/usr/share/gcc-arm-none-eabi-10-2020-q4-major/arm-none-eabi/include/c++/10.2.1/limits ****       static _GLIBCXX_USE_CONSTEXPR float_denorm_style has_denorm
1029:/usr/share/gcc-arm-none-eabi-10-2020-q4-major/arm-none-eabi/include/c++/10.2.1/limits ****        = denorm_absent;
1030:/usr/share/gcc-arm-none-eabi-10-2020-q4-major/arm-none-eabi/include/c++/10.2.1/limits ****       static _GLIBCXX_USE_CONSTEXPR bool has_denorm_loss = false;
1031:/usr/share/gcc-arm-none-eabi-10-2020-q4-major/arm-none-eabi/include/c++/10.2.1/limits **** 
1032:/usr/share/gcc-arm-none-eabi-10-2020-q4-major/arm-none-eabi/include/c++/10.2.1/limits ****       static _GLIBCXX_CONSTEXPR unsigned short
1033:/usr/share/gcc-arm-none-eabi-10-2020-q4-major/arm-none-eabi/include/c++/10.2.1/limits ****       infinity() _GLIBCXX_USE_NOEXCEPT
1034:/usr/share/gcc-arm-none-eabi-10-2020-q4-major/arm-none-eabi/include/c++/10.2.1/limits ****       { return static_cast<unsigned short>(0); }
1035:/usr/share/gcc-arm-none-eabi-10-2020-q4-major/arm-none-eabi/include/c++/10.2.1/limits **** 
1036:/usr/share/gcc-arm-none-eabi-10-2020-q4-major/arm-none-eabi/include/c++/10.2.1/limits ****       static _GLIBCXX_CONSTEXPR unsigned short
1037:/usr/share/gcc-arm-none-eabi-10-2020-q4-major/arm-none-eabi/include/c++/10.2.1/limits ****       quiet_NaN() _GLIBCXX_USE_NOEXCEPT
1038:/usr/share/gcc-arm-none-eabi-10-2020-q4-major/arm-none-eabi/include/c++/10.2.1/limits ****       { return static_cast<unsigned short>(0); }
1039:/usr/share/gcc-arm-none-eabi-10-2020-q4-major/arm-none-eabi/include/c++/10.2.1/limits **** 
1040:/usr/share/gcc-arm-none-eabi-10-2020-q4-major/arm-none-eabi/include/c++/10.2.1/limits ****       static _GLIBCXX_CONSTEXPR unsigned short
1041:/usr/share/gcc-arm-none-eabi-10-2020-q4-major/arm-none-eabi/include/c++/10.2.1/limits ****       signaling_NaN() _GLIBCXX_USE_NOEXCEPT
1042:/usr/share/gcc-arm-none-eabi-10-2020-q4-major/arm-none-eabi/include/c++/10.2.1/limits ****       { return static_cast<unsigned short>(0); }
1043:/usr/share/gcc-arm-none-eabi-10-2020-q4-major/arm-none-eabi/include/c++/10.2.1/limits **** 
1044:/usr/share/gcc-arm-none-eabi-10-2020-q4-major/arm-none-eabi/include/c++/10.2.1/limits ****       static _GLIBCXX_CONSTEXPR unsigned short
1045:/usr/share/gcc-arm-none-eabi-10-2020-q4-major/arm-none-eabi/include/c++/10.2.1/limits ****       denorm_min() _GLIBCXX_USE_NOEXCEPT
1046:/usr/share/gcc-arm-none-eabi-10-2020-q4-major/arm-none-eabi/include/c++/10.2.1/limits ****       { return static_cast<unsigned short>(0); }
1047:/usr/share/gcc-arm-none-eabi-10-2020-q4-major/arm-none-eabi/include/c++/10.2.1/limits **** 
1048:/usr/share/gcc-arm-none-eabi-10-2020-q4-major/arm-none-eabi/include/c++/10.2.1/limits ****       static _GLIBCXX_USE_CONSTEXPR bool is_iec559 = false;
ARM GAS  /tmp/ccaL2bzX.s 			page 33


1049:/usr/share/gcc-arm-none-eabi-10-2020-q4-major/arm-none-eabi/include/c++/10.2.1/limits ****       static _GLIBCXX_USE_CONSTEXPR bool is_bounded = true;
1050:/usr/share/gcc-arm-none-eabi-10-2020-q4-major/arm-none-eabi/include/c++/10.2.1/limits ****       static _GLIBCXX_USE_CONSTEXPR bool is_modulo = true;
1051:/usr/share/gcc-arm-none-eabi-10-2020-q4-major/arm-none-eabi/include/c++/10.2.1/limits **** 
1052:/usr/share/gcc-arm-none-eabi-10-2020-q4-major/arm-none-eabi/include/c++/10.2.1/limits ****       static _GLIBCXX_USE_CONSTEXPR bool traps = __glibcxx_integral_traps;
1053:/usr/share/gcc-arm-none-eabi-10-2020-q4-major/arm-none-eabi/include/c++/10.2.1/limits ****       static _GLIBCXX_USE_CONSTEXPR bool tinyness_before = false;
1054:/usr/share/gcc-arm-none-eabi-10-2020-q4-major/arm-none-eabi/include/c++/10.2.1/limits ****       static _GLIBCXX_USE_CONSTEXPR float_round_style round_style
1055:/usr/share/gcc-arm-none-eabi-10-2020-q4-major/arm-none-eabi/include/c++/10.2.1/limits ****        = round_toward_zero;
1056:/usr/share/gcc-arm-none-eabi-10-2020-q4-major/arm-none-eabi/include/c++/10.2.1/limits ****     };
1057:/usr/share/gcc-arm-none-eabi-10-2020-q4-major/arm-none-eabi/include/c++/10.2.1/limits **** 
1058:/usr/share/gcc-arm-none-eabi-10-2020-q4-major/arm-none-eabi/include/c++/10.2.1/limits ****   /// numeric_limits<int> specialization.
1059:/usr/share/gcc-arm-none-eabi-10-2020-q4-major/arm-none-eabi/include/c++/10.2.1/limits ****   template<>
1060:/usr/share/gcc-arm-none-eabi-10-2020-q4-major/arm-none-eabi/include/c++/10.2.1/limits ****     struct numeric_limits<int>
1061:/usr/share/gcc-arm-none-eabi-10-2020-q4-major/arm-none-eabi/include/c++/10.2.1/limits ****     {
1062:/usr/share/gcc-arm-none-eabi-10-2020-q4-major/arm-none-eabi/include/c++/10.2.1/limits ****       static _GLIBCXX_USE_CONSTEXPR bool is_specialized = true;
1063:/usr/share/gcc-arm-none-eabi-10-2020-q4-major/arm-none-eabi/include/c++/10.2.1/limits **** 
1064:/usr/share/gcc-arm-none-eabi-10-2020-q4-major/arm-none-eabi/include/c++/10.2.1/limits ****       static _GLIBCXX_CONSTEXPR int
1065:/usr/share/gcc-arm-none-eabi-10-2020-q4-major/arm-none-eabi/include/c++/10.2.1/limits ****       min() _GLIBCXX_USE_NOEXCEPT { return -__INT_MAX__ - 1; }
1066:/usr/share/gcc-arm-none-eabi-10-2020-q4-major/arm-none-eabi/include/c++/10.2.1/limits **** 
1067:/usr/share/gcc-arm-none-eabi-10-2020-q4-major/arm-none-eabi/include/c++/10.2.1/limits ****       static _GLIBCXX_CONSTEXPR int
1068:/usr/share/gcc-arm-none-eabi-10-2020-q4-major/arm-none-eabi/include/c++/10.2.1/limits ****       max() _GLIBCXX_USE_NOEXCEPT { return __INT_MAX__; }
1069:/usr/share/gcc-arm-none-eabi-10-2020-q4-major/arm-none-eabi/include/c++/10.2.1/limits **** 
1070:/usr/share/gcc-arm-none-eabi-10-2020-q4-major/arm-none-eabi/include/c++/10.2.1/limits **** #if __cplusplus >= 201103L
1071:/usr/share/gcc-arm-none-eabi-10-2020-q4-major/arm-none-eabi/include/c++/10.2.1/limits ****       static constexpr int
1072:/usr/share/gcc-arm-none-eabi-10-2020-q4-major/arm-none-eabi/include/c++/10.2.1/limits ****       lowest() noexcept { return min(); }
1073:/usr/share/gcc-arm-none-eabi-10-2020-q4-major/arm-none-eabi/include/c++/10.2.1/limits **** #endif
1074:/usr/share/gcc-arm-none-eabi-10-2020-q4-major/arm-none-eabi/include/c++/10.2.1/limits **** 
1075:/usr/share/gcc-arm-none-eabi-10-2020-q4-major/arm-none-eabi/include/c++/10.2.1/limits ****       static _GLIBCXX_USE_CONSTEXPR int digits = __glibcxx_digits (int);
1076:/usr/share/gcc-arm-none-eabi-10-2020-q4-major/arm-none-eabi/include/c++/10.2.1/limits ****       static _GLIBCXX_USE_CONSTEXPR int digits10 = __glibcxx_digits10 (int);
1077:/usr/share/gcc-arm-none-eabi-10-2020-q4-major/arm-none-eabi/include/c++/10.2.1/limits **** #if __cplusplus >= 201103L
1078:/usr/share/gcc-arm-none-eabi-10-2020-q4-major/arm-none-eabi/include/c++/10.2.1/limits ****       static constexpr int max_digits10 = 0;
1079:/usr/share/gcc-arm-none-eabi-10-2020-q4-major/arm-none-eabi/include/c++/10.2.1/limits **** #endif
1080:/usr/share/gcc-arm-none-eabi-10-2020-q4-major/arm-none-eabi/include/c++/10.2.1/limits ****       static _GLIBCXX_USE_CONSTEXPR bool is_signed = true;
1081:/usr/share/gcc-arm-none-eabi-10-2020-q4-major/arm-none-eabi/include/c++/10.2.1/limits ****       static _GLIBCXX_USE_CONSTEXPR bool is_integer = true;
1082:/usr/share/gcc-arm-none-eabi-10-2020-q4-major/arm-none-eabi/include/c++/10.2.1/limits ****       static _GLIBCXX_USE_CONSTEXPR bool is_exact = true;
1083:/usr/share/gcc-arm-none-eabi-10-2020-q4-major/arm-none-eabi/include/c++/10.2.1/limits ****       static _GLIBCXX_USE_CONSTEXPR int radix = 2;
1084:/usr/share/gcc-arm-none-eabi-10-2020-q4-major/arm-none-eabi/include/c++/10.2.1/limits **** 
1085:/usr/share/gcc-arm-none-eabi-10-2020-q4-major/arm-none-eabi/include/c++/10.2.1/limits ****       static _GLIBCXX_CONSTEXPR int
1086:/usr/share/gcc-arm-none-eabi-10-2020-q4-major/arm-none-eabi/include/c++/10.2.1/limits ****       epsilon() _GLIBCXX_USE_NOEXCEPT { return 0; }
1087:/usr/share/gcc-arm-none-eabi-10-2020-q4-major/arm-none-eabi/include/c++/10.2.1/limits **** 
1088:/usr/share/gcc-arm-none-eabi-10-2020-q4-major/arm-none-eabi/include/c++/10.2.1/limits ****       static _GLIBCXX_CONSTEXPR int
1089:/usr/share/gcc-arm-none-eabi-10-2020-q4-major/arm-none-eabi/include/c++/10.2.1/limits ****       round_error() _GLIBCXX_USE_NOEXCEPT { return 0; }
1090:/usr/share/gcc-arm-none-eabi-10-2020-q4-major/arm-none-eabi/include/c++/10.2.1/limits **** 
1091:/usr/share/gcc-arm-none-eabi-10-2020-q4-major/arm-none-eabi/include/c++/10.2.1/limits ****       static _GLIBCXX_USE_CONSTEXPR int min_exponent = 0;
1092:/usr/share/gcc-arm-none-eabi-10-2020-q4-major/arm-none-eabi/include/c++/10.2.1/limits ****       static _GLIBCXX_USE_CONSTEXPR int min_exponent10 = 0;
1093:/usr/share/gcc-arm-none-eabi-10-2020-q4-major/arm-none-eabi/include/c++/10.2.1/limits ****       static _GLIBCXX_USE_CONSTEXPR int max_exponent = 0;
1094:/usr/share/gcc-arm-none-eabi-10-2020-q4-major/arm-none-eabi/include/c++/10.2.1/limits ****       static _GLIBCXX_USE_CONSTEXPR int max_exponent10 = 0;
1095:/usr/share/gcc-arm-none-eabi-10-2020-q4-major/arm-none-eabi/include/c++/10.2.1/limits **** 
1096:/usr/share/gcc-arm-none-eabi-10-2020-q4-major/arm-none-eabi/include/c++/10.2.1/limits ****       static _GLIBCXX_USE_CONSTEXPR bool has_infinity = false;
1097:/usr/share/gcc-arm-none-eabi-10-2020-q4-major/arm-none-eabi/include/c++/10.2.1/limits ****       static _GLIBCXX_USE_CONSTEXPR bool has_quiet_NaN = false;
1098:/usr/share/gcc-arm-none-eabi-10-2020-q4-major/arm-none-eabi/include/c++/10.2.1/limits ****       static _GLIBCXX_USE_CONSTEXPR bool has_signaling_NaN = false;
1099:/usr/share/gcc-arm-none-eabi-10-2020-q4-major/arm-none-eabi/include/c++/10.2.1/limits ****       static _GLIBCXX_USE_CONSTEXPR float_denorm_style has_denorm
1100:/usr/share/gcc-arm-none-eabi-10-2020-q4-major/arm-none-eabi/include/c++/10.2.1/limits ****        = denorm_absent;
1101:/usr/share/gcc-arm-none-eabi-10-2020-q4-major/arm-none-eabi/include/c++/10.2.1/limits ****       static _GLIBCXX_USE_CONSTEXPR bool has_denorm_loss = false;
1102:/usr/share/gcc-arm-none-eabi-10-2020-q4-major/arm-none-eabi/include/c++/10.2.1/limits **** 
1103:/usr/share/gcc-arm-none-eabi-10-2020-q4-major/arm-none-eabi/include/c++/10.2.1/limits ****       static _GLIBCXX_CONSTEXPR int
1104:/usr/share/gcc-arm-none-eabi-10-2020-q4-major/arm-none-eabi/include/c++/10.2.1/limits ****       infinity() _GLIBCXX_USE_NOEXCEPT { return static_cast<int>(0); }
1105:/usr/share/gcc-arm-none-eabi-10-2020-q4-major/arm-none-eabi/include/c++/10.2.1/limits **** 
ARM GAS  /tmp/ccaL2bzX.s 			page 34


1106:/usr/share/gcc-arm-none-eabi-10-2020-q4-major/arm-none-eabi/include/c++/10.2.1/limits ****       static _GLIBCXX_CONSTEXPR int
1107:/usr/share/gcc-arm-none-eabi-10-2020-q4-major/arm-none-eabi/include/c++/10.2.1/limits ****       quiet_NaN() _GLIBCXX_USE_NOEXCEPT { return static_cast<int>(0); }
1108:/usr/share/gcc-arm-none-eabi-10-2020-q4-major/arm-none-eabi/include/c++/10.2.1/limits **** 
1109:/usr/share/gcc-arm-none-eabi-10-2020-q4-major/arm-none-eabi/include/c++/10.2.1/limits ****       static _GLIBCXX_CONSTEXPR int
1110:/usr/share/gcc-arm-none-eabi-10-2020-q4-major/arm-none-eabi/include/c++/10.2.1/limits ****       signaling_NaN() _GLIBCXX_USE_NOEXCEPT { return static_cast<int>(0); }
1111:/usr/share/gcc-arm-none-eabi-10-2020-q4-major/arm-none-eabi/include/c++/10.2.1/limits **** 
1112:/usr/share/gcc-arm-none-eabi-10-2020-q4-major/arm-none-eabi/include/c++/10.2.1/limits ****       static _GLIBCXX_CONSTEXPR int
1113:/usr/share/gcc-arm-none-eabi-10-2020-q4-major/arm-none-eabi/include/c++/10.2.1/limits ****       denorm_min() _GLIBCXX_USE_NOEXCEPT { return static_cast<int>(0); }
1114:/usr/share/gcc-arm-none-eabi-10-2020-q4-major/arm-none-eabi/include/c++/10.2.1/limits **** 
1115:/usr/share/gcc-arm-none-eabi-10-2020-q4-major/arm-none-eabi/include/c++/10.2.1/limits ****       static _GLIBCXX_USE_CONSTEXPR bool is_iec559 = false;
1116:/usr/share/gcc-arm-none-eabi-10-2020-q4-major/arm-none-eabi/include/c++/10.2.1/limits ****       static _GLIBCXX_USE_CONSTEXPR bool is_bounded = true;
1117:/usr/share/gcc-arm-none-eabi-10-2020-q4-major/arm-none-eabi/include/c++/10.2.1/limits ****       static _GLIBCXX_USE_CONSTEXPR bool is_modulo = false;
1118:/usr/share/gcc-arm-none-eabi-10-2020-q4-major/arm-none-eabi/include/c++/10.2.1/limits **** 
1119:/usr/share/gcc-arm-none-eabi-10-2020-q4-major/arm-none-eabi/include/c++/10.2.1/limits ****       static _GLIBCXX_USE_CONSTEXPR bool traps = __glibcxx_integral_traps;
1120:/usr/share/gcc-arm-none-eabi-10-2020-q4-major/arm-none-eabi/include/c++/10.2.1/limits ****       static _GLIBCXX_USE_CONSTEXPR bool tinyness_before = false;
1121:/usr/share/gcc-arm-none-eabi-10-2020-q4-major/arm-none-eabi/include/c++/10.2.1/limits ****       static _GLIBCXX_USE_CONSTEXPR float_round_style round_style
1122:/usr/share/gcc-arm-none-eabi-10-2020-q4-major/arm-none-eabi/include/c++/10.2.1/limits ****        = round_toward_zero;
1123:/usr/share/gcc-arm-none-eabi-10-2020-q4-major/arm-none-eabi/include/c++/10.2.1/limits ****     };
1124:/usr/share/gcc-arm-none-eabi-10-2020-q4-major/arm-none-eabi/include/c++/10.2.1/limits **** 
1125:/usr/share/gcc-arm-none-eabi-10-2020-q4-major/arm-none-eabi/include/c++/10.2.1/limits ****   /// numeric_limits<unsigned int> specialization.
1126:/usr/share/gcc-arm-none-eabi-10-2020-q4-major/arm-none-eabi/include/c++/10.2.1/limits ****   template<>
1127:/usr/share/gcc-arm-none-eabi-10-2020-q4-major/arm-none-eabi/include/c++/10.2.1/limits ****     struct numeric_limits<unsigned int>
1128:/usr/share/gcc-arm-none-eabi-10-2020-q4-major/arm-none-eabi/include/c++/10.2.1/limits ****     {
1129:/usr/share/gcc-arm-none-eabi-10-2020-q4-major/arm-none-eabi/include/c++/10.2.1/limits ****       static _GLIBCXX_USE_CONSTEXPR bool is_specialized = true;
1130:/usr/share/gcc-arm-none-eabi-10-2020-q4-major/arm-none-eabi/include/c++/10.2.1/limits **** 
1131:/usr/share/gcc-arm-none-eabi-10-2020-q4-major/arm-none-eabi/include/c++/10.2.1/limits ****       static _GLIBCXX_CONSTEXPR unsigned int
1132:/usr/share/gcc-arm-none-eabi-10-2020-q4-major/arm-none-eabi/include/c++/10.2.1/limits ****       min() _GLIBCXX_USE_NOEXCEPT { return 0; }
1133:/usr/share/gcc-arm-none-eabi-10-2020-q4-major/arm-none-eabi/include/c++/10.2.1/limits **** 
1134:/usr/share/gcc-arm-none-eabi-10-2020-q4-major/arm-none-eabi/include/c++/10.2.1/limits ****       static _GLIBCXX_CONSTEXPR unsigned int
1135:/usr/share/gcc-arm-none-eabi-10-2020-q4-major/arm-none-eabi/include/c++/10.2.1/limits ****       max() _GLIBCXX_USE_NOEXCEPT { return __INT_MAX__ * 2U + 1; }
1136:/usr/share/gcc-arm-none-eabi-10-2020-q4-major/arm-none-eabi/include/c++/10.2.1/limits **** 
1137:/usr/share/gcc-arm-none-eabi-10-2020-q4-major/arm-none-eabi/include/c++/10.2.1/limits **** #if __cplusplus >= 201103L
1138:/usr/share/gcc-arm-none-eabi-10-2020-q4-major/arm-none-eabi/include/c++/10.2.1/limits ****       static constexpr unsigned int
1139:/usr/share/gcc-arm-none-eabi-10-2020-q4-major/arm-none-eabi/include/c++/10.2.1/limits ****       lowest() noexcept { return min(); }
1140:/usr/share/gcc-arm-none-eabi-10-2020-q4-major/arm-none-eabi/include/c++/10.2.1/limits **** #endif
1141:/usr/share/gcc-arm-none-eabi-10-2020-q4-major/arm-none-eabi/include/c++/10.2.1/limits **** 
1142:/usr/share/gcc-arm-none-eabi-10-2020-q4-major/arm-none-eabi/include/c++/10.2.1/limits ****       static _GLIBCXX_USE_CONSTEXPR int digits
1143:/usr/share/gcc-arm-none-eabi-10-2020-q4-major/arm-none-eabi/include/c++/10.2.1/limits ****        = __glibcxx_digits (unsigned int);
1144:/usr/share/gcc-arm-none-eabi-10-2020-q4-major/arm-none-eabi/include/c++/10.2.1/limits ****       static _GLIBCXX_USE_CONSTEXPR int digits10
1145:/usr/share/gcc-arm-none-eabi-10-2020-q4-major/arm-none-eabi/include/c++/10.2.1/limits ****        = __glibcxx_digits10 (unsigned int);
1146:/usr/share/gcc-arm-none-eabi-10-2020-q4-major/arm-none-eabi/include/c++/10.2.1/limits **** #if __cplusplus >= 201103L
1147:/usr/share/gcc-arm-none-eabi-10-2020-q4-major/arm-none-eabi/include/c++/10.2.1/limits ****       static constexpr int max_digits10 = 0;
1148:/usr/share/gcc-arm-none-eabi-10-2020-q4-major/arm-none-eabi/include/c++/10.2.1/limits **** #endif
1149:/usr/share/gcc-arm-none-eabi-10-2020-q4-major/arm-none-eabi/include/c++/10.2.1/limits ****       static _GLIBCXX_USE_CONSTEXPR bool is_signed = false;
1150:/usr/share/gcc-arm-none-eabi-10-2020-q4-major/arm-none-eabi/include/c++/10.2.1/limits ****       static _GLIBCXX_USE_CONSTEXPR bool is_integer = true;
1151:/usr/share/gcc-arm-none-eabi-10-2020-q4-major/arm-none-eabi/include/c++/10.2.1/limits ****       static _GLIBCXX_USE_CONSTEXPR bool is_exact = true;
1152:/usr/share/gcc-arm-none-eabi-10-2020-q4-major/arm-none-eabi/include/c++/10.2.1/limits ****       static _GLIBCXX_USE_CONSTEXPR int radix = 2;
1153:/usr/share/gcc-arm-none-eabi-10-2020-q4-major/arm-none-eabi/include/c++/10.2.1/limits **** 
1154:/usr/share/gcc-arm-none-eabi-10-2020-q4-major/arm-none-eabi/include/c++/10.2.1/limits ****       static _GLIBCXX_CONSTEXPR unsigned int
1155:/usr/share/gcc-arm-none-eabi-10-2020-q4-major/arm-none-eabi/include/c++/10.2.1/limits ****       epsilon() _GLIBCXX_USE_NOEXCEPT { return 0; }
1156:/usr/share/gcc-arm-none-eabi-10-2020-q4-major/arm-none-eabi/include/c++/10.2.1/limits **** 
1157:/usr/share/gcc-arm-none-eabi-10-2020-q4-major/arm-none-eabi/include/c++/10.2.1/limits ****       static _GLIBCXX_CONSTEXPR unsigned int
1158:/usr/share/gcc-arm-none-eabi-10-2020-q4-major/arm-none-eabi/include/c++/10.2.1/limits ****       round_error() _GLIBCXX_USE_NOEXCEPT { return 0; }
1159:/usr/share/gcc-arm-none-eabi-10-2020-q4-major/arm-none-eabi/include/c++/10.2.1/limits **** 
1160:/usr/share/gcc-arm-none-eabi-10-2020-q4-major/arm-none-eabi/include/c++/10.2.1/limits ****       static _GLIBCXX_USE_CONSTEXPR int min_exponent = 0;
1161:/usr/share/gcc-arm-none-eabi-10-2020-q4-major/arm-none-eabi/include/c++/10.2.1/limits ****       static _GLIBCXX_USE_CONSTEXPR int min_exponent10 = 0;
1162:/usr/share/gcc-arm-none-eabi-10-2020-q4-major/arm-none-eabi/include/c++/10.2.1/limits ****       static _GLIBCXX_USE_CONSTEXPR int max_exponent = 0;
ARM GAS  /tmp/ccaL2bzX.s 			page 35


1163:/usr/share/gcc-arm-none-eabi-10-2020-q4-major/arm-none-eabi/include/c++/10.2.1/limits ****       static _GLIBCXX_USE_CONSTEXPR int max_exponent10 = 0;
1164:/usr/share/gcc-arm-none-eabi-10-2020-q4-major/arm-none-eabi/include/c++/10.2.1/limits **** 
1165:/usr/share/gcc-arm-none-eabi-10-2020-q4-major/arm-none-eabi/include/c++/10.2.1/limits ****       static _GLIBCXX_USE_CONSTEXPR bool has_infinity = false;
1166:/usr/share/gcc-arm-none-eabi-10-2020-q4-major/arm-none-eabi/include/c++/10.2.1/limits ****       static _GLIBCXX_USE_CONSTEXPR bool has_quiet_NaN = false;
1167:/usr/share/gcc-arm-none-eabi-10-2020-q4-major/arm-none-eabi/include/c++/10.2.1/limits ****       static _GLIBCXX_USE_CONSTEXPR bool has_signaling_NaN = false;
1168:/usr/share/gcc-arm-none-eabi-10-2020-q4-major/arm-none-eabi/include/c++/10.2.1/limits ****       static _GLIBCXX_USE_CONSTEXPR float_denorm_style has_denorm
1169:/usr/share/gcc-arm-none-eabi-10-2020-q4-major/arm-none-eabi/include/c++/10.2.1/limits ****        = denorm_absent;
1170:/usr/share/gcc-arm-none-eabi-10-2020-q4-major/arm-none-eabi/include/c++/10.2.1/limits ****       static _GLIBCXX_USE_CONSTEXPR bool has_denorm_loss = false;
1171:/usr/share/gcc-arm-none-eabi-10-2020-q4-major/arm-none-eabi/include/c++/10.2.1/limits **** 
1172:/usr/share/gcc-arm-none-eabi-10-2020-q4-major/arm-none-eabi/include/c++/10.2.1/limits ****       static _GLIBCXX_CONSTEXPR unsigned int
1173:/usr/share/gcc-arm-none-eabi-10-2020-q4-major/arm-none-eabi/include/c++/10.2.1/limits ****       infinity() _GLIBCXX_USE_NOEXCEPT { return static_cast<unsigned int>(0); }
1174:/usr/share/gcc-arm-none-eabi-10-2020-q4-major/arm-none-eabi/include/c++/10.2.1/limits **** 
1175:/usr/share/gcc-arm-none-eabi-10-2020-q4-major/arm-none-eabi/include/c++/10.2.1/limits ****       static _GLIBCXX_CONSTEXPR unsigned int
1176:/usr/share/gcc-arm-none-eabi-10-2020-q4-major/arm-none-eabi/include/c++/10.2.1/limits ****       quiet_NaN() _GLIBCXX_USE_NOEXCEPT
1177:/usr/share/gcc-arm-none-eabi-10-2020-q4-major/arm-none-eabi/include/c++/10.2.1/limits ****       { return static_cast<unsigned int>(0); }
1178:/usr/share/gcc-arm-none-eabi-10-2020-q4-major/arm-none-eabi/include/c++/10.2.1/limits **** 
1179:/usr/share/gcc-arm-none-eabi-10-2020-q4-major/arm-none-eabi/include/c++/10.2.1/limits ****       static _GLIBCXX_CONSTEXPR unsigned int
1180:/usr/share/gcc-arm-none-eabi-10-2020-q4-major/arm-none-eabi/include/c++/10.2.1/limits ****       signaling_NaN() _GLIBCXX_USE_NOEXCEPT
1181:/usr/share/gcc-arm-none-eabi-10-2020-q4-major/arm-none-eabi/include/c++/10.2.1/limits ****       { return static_cast<unsigned int>(0); }
1182:/usr/share/gcc-arm-none-eabi-10-2020-q4-major/arm-none-eabi/include/c++/10.2.1/limits **** 
1183:/usr/share/gcc-arm-none-eabi-10-2020-q4-major/arm-none-eabi/include/c++/10.2.1/limits ****       static _GLIBCXX_CONSTEXPR unsigned int
1184:/usr/share/gcc-arm-none-eabi-10-2020-q4-major/arm-none-eabi/include/c++/10.2.1/limits ****       denorm_min() _GLIBCXX_USE_NOEXCEPT
1185:/usr/share/gcc-arm-none-eabi-10-2020-q4-major/arm-none-eabi/include/c++/10.2.1/limits ****       { return static_cast<unsigned int>(0); }
1186:/usr/share/gcc-arm-none-eabi-10-2020-q4-major/arm-none-eabi/include/c++/10.2.1/limits **** 
1187:/usr/share/gcc-arm-none-eabi-10-2020-q4-major/arm-none-eabi/include/c++/10.2.1/limits ****       static _GLIBCXX_USE_CONSTEXPR bool is_iec559 = false;
1188:/usr/share/gcc-arm-none-eabi-10-2020-q4-major/arm-none-eabi/include/c++/10.2.1/limits ****       static _GLIBCXX_USE_CONSTEXPR bool is_bounded = true;
1189:/usr/share/gcc-arm-none-eabi-10-2020-q4-major/arm-none-eabi/include/c++/10.2.1/limits ****       static _GLIBCXX_USE_CONSTEXPR bool is_modulo = true;
1190:/usr/share/gcc-arm-none-eabi-10-2020-q4-major/arm-none-eabi/include/c++/10.2.1/limits **** 
1191:/usr/share/gcc-arm-none-eabi-10-2020-q4-major/arm-none-eabi/include/c++/10.2.1/limits ****       static _GLIBCXX_USE_CONSTEXPR bool traps = __glibcxx_integral_traps;
1192:/usr/share/gcc-arm-none-eabi-10-2020-q4-major/arm-none-eabi/include/c++/10.2.1/limits ****       static _GLIBCXX_USE_CONSTEXPR bool tinyness_before = false;
1193:/usr/share/gcc-arm-none-eabi-10-2020-q4-major/arm-none-eabi/include/c++/10.2.1/limits ****       static _GLIBCXX_USE_CONSTEXPR float_round_style round_style
1194:/usr/share/gcc-arm-none-eabi-10-2020-q4-major/arm-none-eabi/include/c++/10.2.1/limits ****        = round_toward_zero;
1195:/usr/share/gcc-arm-none-eabi-10-2020-q4-major/arm-none-eabi/include/c++/10.2.1/limits ****     };
1196:/usr/share/gcc-arm-none-eabi-10-2020-q4-major/arm-none-eabi/include/c++/10.2.1/limits **** 
1197:/usr/share/gcc-arm-none-eabi-10-2020-q4-major/arm-none-eabi/include/c++/10.2.1/limits ****   /// numeric_limits<long> specialization.
1198:/usr/share/gcc-arm-none-eabi-10-2020-q4-major/arm-none-eabi/include/c++/10.2.1/limits ****   template<>
1199:/usr/share/gcc-arm-none-eabi-10-2020-q4-major/arm-none-eabi/include/c++/10.2.1/limits ****     struct numeric_limits<long>
1200:/usr/share/gcc-arm-none-eabi-10-2020-q4-major/arm-none-eabi/include/c++/10.2.1/limits ****     {
1201:/usr/share/gcc-arm-none-eabi-10-2020-q4-major/arm-none-eabi/include/c++/10.2.1/limits ****       static _GLIBCXX_USE_CONSTEXPR bool is_specialized = true;
1202:/usr/share/gcc-arm-none-eabi-10-2020-q4-major/arm-none-eabi/include/c++/10.2.1/limits **** 
1203:/usr/share/gcc-arm-none-eabi-10-2020-q4-major/arm-none-eabi/include/c++/10.2.1/limits ****       static _GLIBCXX_CONSTEXPR long
1204:/usr/share/gcc-arm-none-eabi-10-2020-q4-major/arm-none-eabi/include/c++/10.2.1/limits ****       min() _GLIBCXX_USE_NOEXCEPT { return -__LONG_MAX__ - 1; }
1205:/usr/share/gcc-arm-none-eabi-10-2020-q4-major/arm-none-eabi/include/c++/10.2.1/limits **** 
1206:/usr/share/gcc-arm-none-eabi-10-2020-q4-major/arm-none-eabi/include/c++/10.2.1/limits ****       static _GLIBCXX_CONSTEXPR long
1207:/usr/share/gcc-arm-none-eabi-10-2020-q4-major/arm-none-eabi/include/c++/10.2.1/limits ****       max() _GLIBCXX_USE_NOEXCEPT { return __LONG_MAX__; }
1208:/usr/share/gcc-arm-none-eabi-10-2020-q4-major/arm-none-eabi/include/c++/10.2.1/limits **** 
1209:/usr/share/gcc-arm-none-eabi-10-2020-q4-major/arm-none-eabi/include/c++/10.2.1/limits **** #if __cplusplus >= 201103L
1210:/usr/share/gcc-arm-none-eabi-10-2020-q4-major/arm-none-eabi/include/c++/10.2.1/limits ****       static constexpr long
1211:/usr/share/gcc-arm-none-eabi-10-2020-q4-major/arm-none-eabi/include/c++/10.2.1/limits ****       lowest() noexcept { return min(); }
1212:/usr/share/gcc-arm-none-eabi-10-2020-q4-major/arm-none-eabi/include/c++/10.2.1/limits **** #endif
1213:/usr/share/gcc-arm-none-eabi-10-2020-q4-major/arm-none-eabi/include/c++/10.2.1/limits **** 
1214:/usr/share/gcc-arm-none-eabi-10-2020-q4-major/arm-none-eabi/include/c++/10.2.1/limits ****       static _GLIBCXX_USE_CONSTEXPR int digits = __glibcxx_digits (long);
1215:/usr/share/gcc-arm-none-eabi-10-2020-q4-major/arm-none-eabi/include/c++/10.2.1/limits ****       static _GLIBCXX_USE_CONSTEXPR int digits10 = __glibcxx_digits10 (long);
1216:/usr/share/gcc-arm-none-eabi-10-2020-q4-major/arm-none-eabi/include/c++/10.2.1/limits **** #if __cplusplus >= 201103L
1217:/usr/share/gcc-arm-none-eabi-10-2020-q4-major/arm-none-eabi/include/c++/10.2.1/limits ****       static constexpr int max_digits10 = 0;
1218:/usr/share/gcc-arm-none-eabi-10-2020-q4-major/arm-none-eabi/include/c++/10.2.1/limits **** #endif
1219:/usr/share/gcc-arm-none-eabi-10-2020-q4-major/arm-none-eabi/include/c++/10.2.1/limits ****       static _GLIBCXX_USE_CONSTEXPR bool is_signed = true;
ARM GAS  /tmp/ccaL2bzX.s 			page 36


1220:/usr/share/gcc-arm-none-eabi-10-2020-q4-major/arm-none-eabi/include/c++/10.2.1/limits ****       static _GLIBCXX_USE_CONSTEXPR bool is_integer = true;
1221:/usr/share/gcc-arm-none-eabi-10-2020-q4-major/arm-none-eabi/include/c++/10.2.1/limits ****       static _GLIBCXX_USE_CONSTEXPR bool is_exact = true;
1222:/usr/share/gcc-arm-none-eabi-10-2020-q4-major/arm-none-eabi/include/c++/10.2.1/limits ****       static _GLIBCXX_USE_CONSTEXPR int radix = 2;
1223:/usr/share/gcc-arm-none-eabi-10-2020-q4-major/arm-none-eabi/include/c++/10.2.1/limits **** 
1224:/usr/share/gcc-arm-none-eabi-10-2020-q4-major/arm-none-eabi/include/c++/10.2.1/limits ****       static _GLIBCXX_CONSTEXPR long
1225:/usr/share/gcc-arm-none-eabi-10-2020-q4-major/arm-none-eabi/include/c++/10.2.1/limits ****       epsilon() _GLIBCXX_USE_NOEXCEPT { return 0; }
1226:/usr/share/gcc-arm-none-eabi-10-2020-q4-major/arm-none-eabi/include/c++/10.2.1/limits **** 
1227:/usr/share/gcc-arm-none-eabi-10-2020-q4-major/arm-none-eabi/include/c++/10.2.1/limits ****       static _GLIBCXX_CONSTEXPR long
1228:/usr/share/gcc-arm-none-eabi-10-2020-q4-major/arm-none-eabi/include/c++/10.2.1/limits ****       round_error() _GLIBCXX_USE_NOEXCEPT { return 0; }
1229:/usr/share/gcc-arm-none-eabi-10-2020-q4-major/arm-none-eabi/include/c++/10.2.1/limits **** 
1230:/usr/share/gcc-arm-none-eabi-10-2020-q4-major/arm-none-eabi/include/c++/10.2.1/limits ****       static _GLIBCXX_USE_CONSTEXPR int min_exponent = 0;
1231:/usr/share/gcc-arm-none-eabi-10-2020-q4-major/arm-none-eabi/include/c++/10.2.1/limits ****       static _GLIBCXX_USE_CONSTEXPR int min_exponent10 = 0;
1232:/usr/share/gcc-arm-none-eabi-10-2020-q4-major/arm-none-eabi/include/c++/10.2.1/limits ****       static _GLIBCXX_USE_CONSTEXPR int max_exponent = 0;
1233:/usr/share/gcc-arm-none-eabi-10-2020-q4-major/arm-none-eabi/include/c++/10.2.1/limits ****       static _GLIBCXX_USE_CONSTEXPR int max_exponent10 = 0;
1234:/usr/share/gcc-arm-none-eabi-10-2020-q4-major/arm-none-eabi/include/c++/10.2.1/limits **** 
1235:/usr/share/gcc-arm-none-eabi-10-2020-q4-major/arm-none-eabi/include/c++/10.2.1/limits ****       static _GLIBCXX_USE_CONSTEXPR bool has_infinity = false;
1236:/usr/share/gcc-arm-none-eabi-10-2020-q4-major/arm-none-eabi/include/c++/10.2.1/limits ****       static _GLIBCXX_USE_CONSTEXPR bool has_quiet_NaN = false;
1237:/usr/share/gcc-arm-none-eabi-10-2020-q4-major/arm-none-eabi/include/c++/10.2.1/limits ****       static _GLIBCXX_USE_CONSTEXPR bool has_signaling_NaN = false;
1238:/usr/share/gcc-arm-none-eabi-10-2020-q4-major/arm-none-eabi/include/c++/10.2.1/limits ****       static _GLIBCXX_USE_CONSTEXPR float_denorm_style has_denorm
1239:/usr/share/gcc-arm-none-eabi-10-2020-q4-major/arm-none-eabi/include/c++/10.2.1/limits ****        = denorm_absent;
1240:/usr/share/gcc-arm-none-eabi-10-2020-q4-major/arm-none-eabi/include/c++/10.2.1/limits ****       static _GLIBCXX_USE_CONSTEXPR bool has_denorm_loss = false;
1241:/usr/share/gcc-arm-none-eabi-10-2020-q4-major/arm-none-eabi/include/c++/10.2.1/limits **** 
1242:/usr/share/gcc-arm-none-eabi-10-2020-q4-major/arm-none-eabi/include/c++/10.2.1/limits ****       static _GLIBCXX_CONSTEXPR long
1243:/usr/share/gcc-arm-none-eabi-10-2020-q4-major/arm-none-eabi/include/c++/10.2.1/limits ****       infinity() _GLIBCXX_USE_NOEXCEPT { return static_cast<long>(0); }
1244:/usr/share/gcc-arm-none-eabi-10-2020-q4-major/arm-none-eabi/include/c++/10.2.1/limits **** 
1245:/usr/share/gcc-arm-none-eabi-10-2020-q4-major/arm-none-eabi/include/c++/10.2.1/limits ****       static _GLIBCXX_CONSTEXPR long
1246:/usr/share/gcc-arm-none-eabi-10-2020-q4-major/arm-none-eabi/include/c++/10.2.1/limits ****       quiet_NaN() _GLIBCXX_USE_NOEXCEPT { return static_cast<long>(0); }
1247:/usr/share/gcc-arm-none-eabi-10-2020-q4-major/arm-none-eabi/include/c++/10.2.1/limits **** 
1248:/usr/share/gcc-arm-none-eabi-10-2020-q4-major/arm-none-eabi/include/c++/10.2.1/limits ****       static _GLIBCXX_CONSTEXPR long
1249:/usr/share/gcc-arm-none-eabi-10-2020-q4-major/arm-none-eabi/include/c++/10.2.1/limits ****       signaling_NaN() _GLIBCXX_USE_NOEXCEPT { return static_cast<long>(0); }
1250:/usr/share/gcc-arm-none-eabi-10-2020-q4-major/arm-none-eabi/include/c++/10.2.1/limits **** 
1251:/usr/share/gcc-arm-none-eabi-10-2020-q4-major/arm-none-eabi/include/c++/10.2.1/limits ****       static _GLIBCXX_CONSTEXPR long
1252:/usr/share/gcc-arm-none-eabi-10-2020-q4-major/arm-none-eabi/include/c++/10.2.1/limits ****       denorm_min() _GLIBCXX_USE_NOEXCEPT { return static_cast<long>(0); }
1253:/usr/share/gcc-arm-none-eabi-10-2020-q4-major/arm-none-eabi/include/c++/10.2.1/limits **** 
1254:/usr/share/gcc-arm-none-eabi-10-2020-q4-major/arm-none-eabi/include/c++/10.2.1/limits ****       static _GLIBCXX_USE_CONSTEXPR bool is_iec559 = false;
1255:/usr/share/gcc-arm-none-eabi-10-2020-q4-major/arm-none-eabi/include/c++/10.2.1/limits ****       static _GLIBCXX_USE_CONSTEXPR bool is_bounded = true;
1256:/usr/share/gcc-arm-none-eabi-10-2020-q4-major/arm-none-eabi/include/c++/10.2.1/limits ****       static _GLIBCXX_USE_CONSTEXPR bool is_modulo = false;
1257:/usr/share/gcc-arm-none-eabi-10-2020-q4-major/arm-none-eabi/include/c++/10.2.1/limits **** 
1258:/usr/share/gcc-arm-none-eabi-10-2020-q4-major/arm-none-eabi/include/c++/10.2.1/limits ****       static _GLIBCXX_USE_CONSTEXPR bool traps = __glibcxx_integral_traps;
1259:/usr/share/gcc-arm-none-eabi-10-2020-q4-major/arm-none-eabi/include/c++/10.2.1/limits ****       static _GLIBCXX_USE_CONSTEXPR bool tinyness_before = false;
1260:/usr/share/gcc-arm-none-eabi-10-2020-q4-major/arm-none-eabi/include/c++/10.2.1/limits ****       static _GLIBCXX_USE_CONSTEXPR float_round_style round_style
1261:/usr/share/gcc-arm-none-eabi-10-2020-q4-major/arm-none-eabi/include/c++/10.2.1/limits ****        = round_toward_zero;
1262:/usr/share/gcc-arm-none-eabi-10-2020-q4-major/arm-none-eabi/include/c++/10.2.1/limits ****     };
1263:/usr/share/gcc-arm-none-eabi-10-2020-q4-major/arm-none-eabi/include/c++/10.2.1/limits **** 
1264:/usr/share/gcc-arm-none-eabi-10-2020-q4-major/arm-none-eabi/include/c++/10.2.1/limits ****   /// numeric_limits<unsigned long> specialization.
1265:/usr/share/gcc-arm-none-eabi-10-2020-q4-major/arm-none-eabi/include/c++/10.2.1/limits ****   template<>
1266:/usr/share/gcc-arm-none-eabi-10-2020-q4-major/arm-none-eabi/include/c++/10.2.1/limits ****     struct numeric_limits<unsigned long>
1267:/usr/share/gcc-arm-none-eabi-10-2020-q4-major/arm-none-eabi/include/c++/10.2.1/limits ****     {
1268:/usr/share/gcc-arm-none-eabi-10-2020-q4-major/arm-none-eabi/include/c++/10.2.1/limits ****       static _GLIBCXX_USE_CONSTEXPR bool is_specialized = true;
1269:/usr/share/gcc-arm-none-eabi-10-2020-q4-major/arm-none-eabi/include/c++/10.2.1/limits **** 
1270:/usr/share/gcc-arm-none-eabi-10-2020-q4-major/arm-none-eabi/include/c++/10.2.1/limits ****       static _GLIBCXX_CONSTEXPR unsigned long
1271:/usr/share/gcc-arm-none-eabi-10-2020-q4-major/arm-none-eabi/include/c++/10.2.1/limits ****       min() _GLIBCXX_USE_NOEXCEPT { return 0; }
1272:/usr/share/gcc-arm-none-eabi-10-2020-q4-major/arm-none-eabi/include/c++/10.2.1/limits **** 
1273:/usr/share/gcc-arm-none-eabi-10-2020-q4-major/arm-none-eabi/include/c++/10.2.1/limits ****       static _GLIBCXX_CONSTEXPR unsigned long
1274:/usr/share/gcc-arm-none-eabi-10-2020-q4-major/arm-none-eabi/include/c++/10.2.1/limits ****       max() _GLIBCXX_USE_NOEXCEPT { return __LONG_MAX__ * 2UL + 1; }
1275:/usr/share/gcc-arm-none-eabi-10-2020-q4-major/arm-none-eabi/include/c++/10.2.1/limits **** 
1276:/usr/share/gcc-arm-none-eabi-10-2020-q4-major/arm-none-eabi/include/c++/10.2.1/limits **** #if __cplusplus >= 201103L
ARM GAS  /tmp/ccaL2bzX.s 			page 37


1277:/usr/share/gcc-arm-none-eabi-10-2020-q4-major/arm-none-eabi/include/c++/10.2.1/limits ****       static constexpr unsigned long
1278:/usr/share/gcc-arm-none-eabi-10-2020-q4-major/arm-none-eabi/include/c++/10.2.1/limits ****       lowest() noexcept { return min(); }
1279:/usr/share/gcc-arm-none-eabi-10-2020-q4-major/arm-none-eabi/include/c++/10.2.1/limits **** #endif
1280:/usr/share/gcc-arm-none-eabi-10-2020-q4-major/arm-none-eabi/include/c++/10.2.1/limits **** 
1281:/usr/share/gcc-arm-none-eabi-10-2020-q4-major/arm-none-eabi/include/c++/10.2.1/limits ****       static _GLIBCXX_USE_CONSTEXPR int digits
1282:/usr/share/gcc-arm-none-eabi-10-2020-q4-major/arm-none-eabi/include/c++/10.2.1/limits ****        = __glibcxx_digits (unsigned long);
1283:/usr/share/gcc-arm-none-eabi-10-2020-q4-major/arm-none-eabi/include/c++/10.2.1/limits ****       static _GLIBCXX_USE_CONSTEXPR int digits10
1284:/usr/share/gcc-arm-none-eabi-10-2020-q4-major/arm-none-eabi/include/c++/10.2.1/limits ****        = __glibcxx_digits10 (unsigned long);
1285:/usr/share/gcc-arm-none-eabi-10-2020-q4-major/arm-none-eabi/include/c++/10.2.1/limits **** #if __cplusplus >= 201103L
