ARM GAS  /tmp/ccF7gVX3.s 			page 1


   1              		.cpu cortex-m4
   2              		.eabi_attribute 27, 1
   3              		.eabi_attribute 28, 1
   4              		.eabi_attribute 20, 1
   5              		.eabi_attribute 21, 1
   6              		.eabi_attribute 23, 3
   7              		.eabi_attribute 24, 1
   8              		.eabi_attribute 25, 1
   9              		.eabi_attribute 26, 1
  10              		.eabi_attribute 30, 2
  11              		.eabi_attribute 34, 1
  12              		.eabi_attribute 18, 2
  13              		.file	"canopen.cpp"
  14              		.text
  15              	.Ltext0:
  16              		.cfi_sections	.debug_frame
  17              		.section	.text._Z12OD_FindEntryth,"ax",%progbits
  18              		.align	1
  19              		.p2align 2,,3
  20              		.global	_Z12OD_FindEntryth
  21              		.arch armv7e-m
  22              		.syntax unified
  23              		.thumb
  24              		.thumb_func
  25              		.fpu fpv4-sp-d16
  27              	_Z12OD_FindEntryth:
  28              	.LVL0:
  29              	.LFB5641:
  30              		.file 1 "Src/canopen.cpp"
   1:Src/canopen.cpp **** #include "canopen.hpp"
   2:Src/canopen.cpp **** #include "main_.hpp"
   3:Src/canopen.cpp **** 
   4:Src/canopen.cpp **** // PDO mapping configuration
   5:Src/canopen.cpp **** static PDO_Map_t scope_map[6] = {
   6:Src/canopen.cpp ****     {{0x4000, 0}},  // CH1: Current Position
   7:Src/canopen.cpp ****     {{0x4001, 0}},  // CH2: Current Velocity 
   8:Src/canopen.cpp ****     {{0x4002, 0}},  // CH3: Current Current
   9:Src/canopen.cpp ****     {{0, 0}},       // CH4: Unmapped
  10:Src/canopen.cpp ****     {{0, 0}},       // CH5: Unmapped 
  11:Src/canopen.cpp ****     {{0, 0}}        // CH6: Unmapped
  12:Src/canopen.cpp **** };
  13:Src/canopen.cpp **** 
  14:Src/canopen.cpp **** // Object Dictionary
  15:Src/canopen.cpp **** static const OD_Entry_t OD_List[] = {
  16:Src/canopen.cpp ****     // Device Info (0x1000-0x1FFF)
  17:Src/canopen.cpp ****     {0x1000, 0, OD_INT16_RO, &motor_params.magic},
  18:Src/canopen.cpp ****     {0x1001, 0, OD_INT16_RO, &motor_params.version},
  19:Src/canopen.cpp ****     {0x1002, 0, OD_INT16_RW, &motor_params.motor_id},
  20:Src/canopen.cpp ****     
  21:Src/canopen.cpp ****     // Motor Parameters (0x2000-0x2FFF)
  22:Src/canopen.cpp ****     {0x2000, 0, OD_INT16_RW, &motor_params.inductance},
  23:Src/canopen.cpp ****     {0x2001, 0, OD_INT16_RW, &motor_params.resistance},
  24:Src/canopen.cpp ****     
  25:Src/canopen.cpp ****     // Main Encoder Parameters
  26:Src/canopen.cpp ****     {0x2010, 0, OD_INT16_RW, &motor_params.main_encoder_type},
  27:Src/canopen.cpp ****     {0x2011, 0, OD_INT16_RW, &motor_params.main_encoder_lines},
  28:Src/canopen.cpp ****     {0x2012, 0, OD_INT16_RW, &motor_params.main_encoder_offset},
ARM GAS  /tmp/ccF7gVX3.s 			page 2


  29:Src/canopen.cpp ****     {0x2013, 0, OD_INT16_RW, &motor_params.main_encoder_dir},
  30:Src/canopen.cpp ****     
  31:Src/canopen.cpp ****     // Sub Encoder Parameters  
  32:Src/canopen.cpp ****     {0x2020, 0, OD_INT16_RW, &motor_params.sub_encoder_type},
  33:Src/canopen.cpp ****     {0x2021, 0, OD_INT16_RW, &motor_params.sub_encoder_lines},
  34:Src/canopen.cpp ****     {0x2022, 0, OD_INT16_RW, &motor_params.sub_encoder_offset},
  35:Src/canopen.cpp ****     {0x2023, 0, OD_INT16_RW, &motor_params.sub_encoder_dir},
  36:Src/canopen.cpp ****     
  37:Src/canopen.cpp ****     // PID Parameters
  38:Src/canopen.cpp ****     {0x2030, 0, OD_INT16_RW, &motor_params.pos_kp},
  39:Src/canopen.cpp ****     {0x2031, 0, OD_INT16_RW, &motor_params.pos_kd},
  40:Src/canopen.cpp ****     {0x2032, 0, OD_INT16_RW, &motor_params.vel_kp},
  41:Src/canopen.cpp ****     {0x2033, 0, OD_INT16_RW, &motor_params.vel_ki},
  42:Src/canopen.cpp ****     {0x2034, 0, OD_INT16_RW, &motor_params.cur_kp},
  43:Src/canopen.cpp ****     {0x2035, 0, OD_INT16_RW, &motor_params.cur_ki},
  44:Src/canopen.cpp ****     
  45:Src/canopen.cpp ****     // Limit Parameters
  46:Src/canopen.cpp ****     {0x2040, 0, OD_INT16_RW, &motor_params.max_current},
  47:Src/canopen.cpp ****     {0x2041, 0, OD_INT16_RW, &motor_params.max_speed},
  48:Src/canopen.cpp ****     {0x2042, 0, OD_INT16_RW, &motor_params.max_position},
  49:Src/canopen.cpp ****     {0x2043, 0, OD_INT16_RW, &motor_params.min_position},
  50:Src/canopen.cpp ****     {0x2044, 0, OD_INT16_RW, &motor_params.ctrl_mode},
  51:Src/canopen.cpp ****     
  52:Src/canopen.cpp ****     // Runtime Parameters (0x3000-0x3FFF)
  53:Src/canopen.cpp ****     // Position Related
  54:Src/canopen.cpp ****     {0x3000, 0, OD_INT16_RW, (void*)&motor_runtime.input_pos},
  55:Src/canopen.cpp ****     {0x3001, 0, OD_INT16_RO, (void*)&motor_runtime.profile_pos},
  56:Src/canopen.cpp ****     {0x3002, 0, OD_INT16_RO, (void*)&motor_runtime.des_pos},
  57:Src/canopen.cpp ****     {0x3003, 0, OD_INT16_RO, (void*)&motor_runtime.current_pos},
  58:Src/canopen.cpp ****     
  59:Src/canopen.cpp ****     // Velocity Related
  60:Src/canopen.cpp ****     {0x3010, 0, OD_INT16_RW, (void*)&motor_runtime.input_vel},
  61:Src/canopen.cpp ****     {0x3011, 0, OD_INT16_RO, (void*)&motor_runtime.profile_vel},
  62:Src/canopen.cpp ****     {0x3012, 0, OD_INT16_RO, (void*)&motor_runtime.des_vel},
  63:Src/canopen.cpp ****     {0x3013, 0, OD_INT16_RO, (void*)&motor_runtime.current_vel},
  64:Src/canopen.cpp ****     
  65:Src/canopen.cpp ****     // Current Related
  66:Src/canopen.cpp ****     {0x3020, 0, OD_INT16_RW, (void*)&motor_runtime.input_cur},
  67:Src/canopen.cpp ****     {0x3021, 0, OD_INT16_RO, (void*)&motor_runtime.profile_cur},
  68:Src/canopen.cpp ****     {0x3022, 0, OD_INT16_RO, (void*)&motor_runtime.des_cur},
  69:Src/canopen.cpp ****     {0x3023, 0, OD_INT16_RO, (void*)&motor_runtime.current_cur},
  70:Src/canopen.cpp ****     
  71:Src/canopen.cpp ****     // Status
  72:Src/canopen.cpp ****     {0x3030, 0, OD_INT16_RO, (void*)&motor_runtime.is_enabled},
  73:Src/canopen.cpp ****     {0x3031, 0, OD_INT16_RO, (void*)&motor_runtime.is_running},
  74:Src/canopen.cpp ****     {0x3032, 0, OD_INT16_RO, (void*)&motor_runtime.temperatrue},
  75:Src/canopen.cpp ****     {0x3033, 0, OD_INT16_RO, (void*)&motor_runtime.error_code},
  76:Src/canopen.cpp ****     
  77:Src/canopen.cpp ****     // PDO Mapping Configuration (0x6000)
  78:Src/canopen.cpp ****     {0x6000, 6, OD_INT32_RW, &scope_map[0]},
  79:Src/canopen.cpp ****     
  80:Src/canopen.cpp **** 
  81:Src/canopen.cpp **** };
  82:Src/canopen.cpp **** #define OD_ENTRIES_COUNT (sizeof(OD_List)/sizeof(OD_Entry_t))
  83:Src/canopen.cpp **** 
  84:Src/canopen.cpp **** // Find entry in object dictionary
  85:Src/canopen.cpp **** const OD_Entry_t* OD_FindEntry(uint16_t index, uint8_t subindex) {
ARM GAS  /tmp/ccF7gVX3.s 			page 3


  31              		.loc 1 85 66 view -0
  32              		.cfi_startproc
  33              		@ args = 0, pretend = 0, frame = 0
  34              		@ frame_needed = 0, uses_anonymous_args = 0
  35              		@ link register save eliminated.
  86:Src/canopen.cpp ****     for(int i = 0; i < OD_ENTRIES_COUNT; i++) {
  36              		.loc 1 86 5 view .LVU1
  37              	.LBB11:
  38              		.loc 1 86 22 view .LVU2
  39 0000 0749     		ldr	r1, .L8
  40              	.LVL1:
  41              		.loc 1 86 13 is_stmt 0 view .LVU3
  42 0002 0023     		movs	r3, #0
  43 0004 02E0     		b	.L4
  44              	.LVL2:
  45              	.L2:
  46              		.loc 1 86 5 discriminator 2 view .LVU4
  47 0006 0133     		adds	r3, r3, #1
  48              	.LVL3:
  49              		.loc 1 86 22 is_stmt 1 discriminator 2 view .LVU5
  50 0008 292B     		cmp	r3, #41
  51 000a 06D0     		beq	.L7
  52              	.LVL4:
  53              	.L4:
  87:Src/canopen.cpp ****         if(OD_List[i].index == index) {
  54              		.loc 1 87 9 view .LVU6
  86:Src/canopen.cpp ****     for(int i = 0; i < OD_ENTRIES_COUNT; i++) {
  55              		.loc 1 86 5 view .LVU7
  56              		.loc 1 87 9 is_stmt 0 view .LVU8
  57 000c 31F83320 		ldrh	r2, [r1, r3, lsl #3]
  58 0010 8242     		cmp	r2, r0
  59 0012 F8D1     		bne	.L2
  88:Src/canopen.cpp ****             return &OD_List[i];
  60              		.loc 1 88 13 is_stmt 1 view .LVU9
  61              		.loc 1 88 30 is_stmt 0 view .LVU10
  62 0014 01EBC300 		add	r0, r1, r3, lsl #3
  63              	.LVL5:
  64              		.loc 1 88 30 view .LVU11
  65 0018 7047     		bx	lr
  66              	.LVL6:
  67              	.L7:
  68              		.loc 1 88 30 view .LVU12
  69              	.LBE11:
  89:Src/canopen.cpp ****         }
  90:Src/canopen.cpp ****     }
  91:Src/canopen.cpp ****     return NULL;
  70              		.loc 1 91 12 view .LVU13
  71 001a 0020     		movs	r0, #0
  72              	.LVL7:
  92:Src/canopen.cpp **** }
  73              		.loc 1 92 1 view .LVU14
  74 001c 7047     		bx	lr
  75              	.L9:
  76 001e 00BF     		.align	2
  77              	.L8:
  78 0020 00000000 		.word	.LANCHOR0
  79              		.cfi_endproc
ARM GAS  /tmp/ccF7gVX3.s 			page 4


  80              	.LFE5641:
  82              		.section	.text._Z7OD_ReadttPt,"ax",%progbits
  83              		.align	1
  84              		.p2align 2,,3
  85              		.global	_Z7OD_ReadttPt
  86              		.syntax unified
  87              		.thumb
  88              		.thumb_func
  89              		.fpu fpv4-sp-d16
  91              	_Z7OD_ReadttPt:
  92              	.LVL8:
  93              	.LFB5642:
  93:Src/canopen.cpp **** 
  94:Src/canopen.cpp **** int32_t OD_Read(uint16_t index, uint16_t subindex, uint16_t* length) {
  94              		.loc 1 94 70 is_stmt 1 view -0
  95              		.cfi_startproc
  96              		@ args = 0, pretend = 0, frame = 0
  97              		@ frame_needed = 0, uses_anonymous_args = 0
  95:Src/canopen.cpp ****     // Initialize length to 0
  96:Src/canopen.cpp ****     if(length) *length = 0;
  98              		.loc 1 96 5 view .LVU16
  94:Src/canopen.cpp ****     // Initialize length to 0
  99              		.loc 1 94 70 is_stmt 0 view .LVU17
 100 0000 10B5     		push	{r4, lr}
 101              	.LCFI0:
 102              		.cfi_def_cfa_offset 8
 103              		.cfi_offset 4, -8
 104              		.cfi_offset 14, -4
 105              		.loc 1 96 5 view .LVU18
 106 0002 0AB1     		cbz	r2, .L11
 107              		.loc 1 96 16 is_stmt 1 discriminator 1 view .LVU19
 108              		.loc 1 96 24 is_stmt 0 discriminator 1 view .LVU20
 109 0004 0023     		movs	r3, #0
 110 0006 1380     		strh	r3, [r2]	@ movhi
 111              	.L11:
  97:Src/canopen.cpp ****     
  98:Src/canopen.cpp ****     // Find entry and validate access rights
  99:Src/canopen.cpp ****     const OD_Entry_t* entry = OD_FindEntry(index, subindex);
 112              		.loc 1 99 5 is_stmt 1 view .LVU21
 113              	.LVL9:
 114              	.LBB15:
 115              	.LBI15:
  85:Src/canopen.cpp ****     for(int i = 0; i < OD_ENTRIES_COUNT; i++) {
 116              		.loc 1 85 19 view .LVU22
 117              	.LBE15:
  86:Src/canopen.cpp ****         if(OD_List[i].index == index) {
 118              		.loc 1 86 5 view .LVU23
 119              	.LBB17:
 120              	.LBB16:
  86:Src/canopen.cpp ****         if(OD_List[i].index == index) {
 121              		.loc 1 86 22 view .LVU24
 122 0008 164C     		ldr	r4, .L38
  86:Src/canopen.cpp ****         if(OD_List[i].index == index) {
 123              		.loc 1 86 13 is_stmt 0 view .LVU25
 124 000a 0023     		movs	r3, #0
 125 000c 02E0     		b	.L15
 126              	.LVL10:
ARM GAS  /tmp/ccF7gVX3.s 			page 5


 127              	.L12:
  86:Src/canopen.cpp ****         if(OD_List[i].index == index) {
 128              		.loc 1 86 5 view .LVU26
 129 000e 0133     		adds	r3, r3, #1
 130              	.LVL11:
  86:Src/canopen.cpp ****         if(OD_List[i].index == index) {
 131              		.loc 1 86 22 is_stmt 1 view .LVU27
 132 0010 292B     		cmp	r3, #41
 133 0012 1DD0     		beq	.L24
 134              	.LVL12:
 135              	.L15:
  87:Src/canopen.cpp ****             return &OD_List[i];
 136              		.loc 1 87 9 view .LVU28
  86:Src/canopen.cpp ****         if(OD_List[i].index == index) {
 137              		.loc 1 86 5 view .LVU29
  87:Src/canopen.cpp ****             return &OD_List[i];
 138              		.loc 1 87 9 is_stmt 0 view .LVU30
 139 0014 34F833C0 		ldrh	ip, [r4, r3, lsl #3]
 140 0018 8445     		cmp	ip, r0
 141 001a F8D1     		bne	.L12
  88:Src/canopen.cpp ****         }
 142              		.loc 1 88 13 is_stmt 1 view .LVU31
 143              	.LVL13:
  88:Src/canopen.cpp ****         }
 144              		.loc 1 88 13 is_stmt 0 view .LVU32
 145              	.LBE16:
 146              	.LBE17:
 100:Src/canopen.cpp ****     if(!entry || !(entry->type_access & OD_ACCESS_RO)) {
 147              		.loc 1 100 5 is_stmt 1 view .LVU33
 148              		.loc 1 100 27 is_stmt 0 view .LVU34
 149 001c 4FEAC30E 		lsl	lr, r3, #3
 150 0020 04EBC303 		add	r3, r4, r3, lsl #3
 151              	.LVL14:
 152              		.loc 1 100 27 view .LVU35
 153 0024 93F803C0 		ldrb	ip, [r3, #3]	@ zero_extendqisi2
 154              		.loc 1 100 15 view .LVU36
 155 0028 1CF00100 		ands	r0, ip, #1
 156              	.LVL15:
 157              		.loc 1 100 15 view .LVU37
 158 002c 0CD0     		beq	.L10
 101:Src/canopen.cpp ****         return 0;
 102:Src/canopen.cpp ****     }
 103:Src/canopen.cpp ****     
 104:Src/canopen.cpp ****     // Handle array access
 105:Src/canopen.cpp ****     uint8_t array_index = (entry->subindex > 0) ? subindex : 0;
 159              		.loc 1 105 5 is_stmt 1 view .LVU38
 160              		.loc 1 105 35 is_stmt 0 view .LVU39
 161 002e 9B78     		ldrb	r3, [r3, #2]	@ zero_extendqisi2
 162              		.loc 1 105 13 view .LVU40
 163 0030 5BB9     		cbnz	r3, .L16
 164 0032 1946     		mov	r1, r3
 165              	.LVL16:
 166              	.L17:
 106:Src/canopen.cpp ****     if(array_index >= entry->subindex && entry->subindex > 0) {
 107:Src/canopen.cpp ****         return 0;
 108:Src/canopen.cpp ****     }
 109:Src/canopen.cpp ****     
ARM GAS  /tmp/ccF7gVX3.s 			page 6


 110:Src/canopen.cpp ****     // Read value based on data type
 111:Src/canopen.cpp ****     if(entry->type_access & OD_TYPE_INT32) {
 167              		.loc 1 111 5 is_stmt 1 view .LVU41
 168 0034 1CF0200F 		tst	ip, #32
 169 0038 0CD0     		beq	.L18
 112:Src/canopen.cpp ****         if(length) *length = 4;
 170              		.loc 1 112 9 view .LVU42
 171 003a 0AB1     		cbz	r2, .L19
 172              		.loc 1 112 20 discriminator 1 view .LVU43
 173              		.loc 1 112 28 is_stmt 0 discriminator 1 view .LVU44
 174 003c 0423     		movs	r3, #4
 175 003e 1380     		strh	r3, [r2]	@ movhi
 176              	.L19:
 113:Src/canopen.cpp ****         return ((int32_t*)entry->data)[array_index];
 177              		.loc 1 113 9 is_stmt 1 view .LVU45
 178              		.loc 1 113 34 is_stmt 0 view .LVU46
 179 0040 7444     		add	r4, r4, lr
 180              		.loc 1 113 51 view .LVU47
 181 0042 6368     		ldr	r3, [r4, #4]
 182 0044 53F82100 		ldr	r0, [r3, r1, lsl #2]
 183              	.L10:
 114:Src/canopen.cpp ****     } else {
 115:Src/canopen.cpp ****         if(length) *length = 2;
 116:Src/canopen.cpp ****         return ((int16_t*)entry->data)[array_index];
 117:Src/canopen.cpp ****     }
 118:Src/canopen.cpp **** }
 184              		.loc 1 118 1 view .LVU48
 185 0048 10BD     		pop	{r4, pc}
 186              	.LVL17:
 187              	.L16:
 188              		.loc 1 118 1 view .LVU49
 189 004a C9B2     		uxtb	r1, r1
 190              	.LVL18:
 106:Src/canopen.cpp ****         return 0;
 191              		.loc 1 106 5 is_stmt 1 view .LVU50
 192 004c 8B42     		cmp	r3, r1
 193 004e F1D8     		bhi	.L17
 194              	.LVL19:
 195              	.L24:
 101:Src/canopen.cpp ****     }
 196              		.loc 1 101 16 is_stmt 0 view .LVU51
 197 0050 0020     		movs	r0, #0
 198              		.loc 1 118 1 view .LVU52
 199 0052 10BD     		pop	{r4, pc}
 200              	.L18:
 115:Src/canopen.cpp ****         return ((int16_t*)entry->data)[array_index];
 201              		.loc 1 115 9 is_stmt 1 view .LVU53
 202 0054 0AB1     		cbz	r2, .L20
 115:Src/canopen.cpp ****         return ((int16_t*)entry->data)[array_index];
 203              		.loc 1 115 20 discriminator 1 view .LVU54
 115:Src/canopen.cpp ****         return ((int16_t*)entry->data)[array_index];
 204              		.loc 1 115 28 is_stmt 0 discriminator 1 view .LVU55
 205 0056 0223     		movs	r3, #2
 206 0058 1380     		strh	r3, [r2]	@ movhi
 207              	.L20:
 116:Src/canopen.cpp ****     }
 208              		.loc 1 116 9 is_stmt 1 view .LVU56
ARM GAS  /tmp/ccF7gVX3.s 			page 7


 116:Src/canopen.cpp ****     }
 209              		.loc 1 116 34 is_stmt 0 view .LVU57
 210 005a 7444     		add	r4, r4, lr
 116:Src/canopen.cpp ****     }
 211              		.loc 1 116 51 view .LVU58
 212 005c 6368     		ldr	r3, [r4, #4]
 213 005e 33F91100 		ldrsh	r0, [r3, r1, lsl #1]
 214              		.loc 1 118 1 view .LVU59
 215 0062 10BD     		pop	{r4, pc}
 216              	.L39:
 217              		.align	2
 218              	.L38:
 219 0064 00000000 		.word	.LANCHOR0
 220              		.cfi_endproc
 221              	.LFE5642:
 223              		.section	.text._Z8OD_Writettl,"ax",%progbits
 224              		.align	1
 225              		.p2align 2,,3
 226              		.global	_Z8OD_Writettl
 227              		.syntax unified
 228              		.thumb
 229              		.thumb_func
 230              		.fpu fpv4-sp-d16
 232              	_Z8OD_Writettl:
 233              	.LVL20:
 234              	.LFB5643:
 119:Src/canopen.cpp **** 
 120:Src/canopen.cpp **** // Write value to object dictionary (also update)
 121:Src/canopen.cpp **** bool OD_Write(uint16_t index, uint16_t subindex, int32_t value) {
 235              		.loc 1 121 65 is_stmt 1 view -0
 236              		.cfi_startproc
 237              		@ args = 0, pretend = 0, frame = 0
 238              		@ frame_needed = 0, uses_anonymous_args = 0
 122:Src/canopen.cpp ****     const OD_Entry_t* entry = OD_FindEntry(index, subindex);
 239              		.loc 1 122 5 view .LVU61
 121:Src/canopen.cpp ****     const OD_Entry_t* entry = OD_FindEntry(index, subindex);
 240              		.loc 1 121 65 is_stmt 0 view .LVU62
 241 0000 10B5     		push	{r4, lr}
 242              	.LCFI1:
 243              		.cfi_def_cfa_offset 8
 244              		.cfi_offset 4, -8
 245              		.cfi_offset 14, -4
 246              	.LBB18:
 247              	.LBB19:
  86:Src/canopen.cpp ****         if(OD_List[i].index == index) {
 248              		.loc 1 86 13 view .LVU63
 249 0002 0023     		movs	r3, #0
 250 0004 124C     		ldr	r4, .L57
 251              	.LVL21:
  86:Src/canopen.cpp ****         if(OD_List[i].index == index) {
 252              		.loc 1 86 13 view .LVU64
 253              	.LBE19:
 254              	.LBI18:
  85:Src/canopen.cpp ****     for(int i = 0; i < OD_ENTRIES_COUNT; i++) {
 255              		.loc 1 85 19 is_stmt 1 view .LVU65
 256              	.LBE18:
  86:Src/canopen.cpp ****         if(OD_List[i].index == index) {
ARM GAS  /tmp/ccF7gVX3.s 			page 8


 257              		.loc 1 86 5 view .LVU66
 258              	.LBB21:
 259              	.LBB20:
  86:Src/canopen.cpp ****         if(OD_List[i].index == index) {
 260              		.loc 1 86 22 view .LVU67
 261 0006 02E0     		b	.L44
 262              	.LVL22:
 263              	.L41:
  86:Src/canopen.cpp ****         if(OD_List[i].index == index) {
 264              		.loc 1 86 5 is_stmt 0 view .LVU68
 265 0008 0133     		adds	r3, r3, #1
 266              	.LVL23:
  86:Src/canopen.cpp ****         if(OD_List[i].index == index) {
 267              		.loc 1 86 22 is_stmt 1 view .LVU69
 268 000a 292B     		cmp	r3, #41
 269 000c 1DD0     		beq	.L51
 270              	.LVL24:
 271              	.L44:
  87:Src/canopen.cpp ****             return &OD_List[i];
 272              		.loc 1 87 9 view .LVU70
  86:Src/canopen.cpp ****         if(OD_List[i].index == index) {
 273              		.loc 1 86 5 view .LVU71
  87:Src/canopen.cpp ****             return &OD_List[i];
 274              		.loc 1 87 9 is_stmt 0 view .LVU72
 275 000e 34F833C0 		ldrh	ip, [r4, r3, lsl #3]
 276 0012 8445     		cmp	ip, r0
 277 0014 F8D1     		bne	.L41
  88:Src/canopen.cpp ****         }
 278              		.loc 1 88 13 is_stmt 1 view .LVU73
 279              	.LVL25:
  88:Src/canopen.cpp ****         }
 280              		.loc 1 88 13 is_stmt 0 view .LVU74
 281              	.LBE20:
 282              	.LBE21:
 123:Src/canopen.cpp ****     if(!entry || !(entry->type_access & OD_ACCESS_WO)) {
 283              		.loc 1 123 5 is_stmt 1 view .LVU75
 284              		.loc 1 123 27 is_stmt 0 view .LVU76
 285 0016 4FEAC30E 		lsl	lr, r3, #3
 286 001a 04EBC303 		add	r3, r4, r3, lsl #3
 287              	.LVL26:
 288              		.loc 1 123 27 view .LVU77
 289 001e 93F803C0 		ldrb	ip, [r3, #3]	@ zero_extendqisi2
 290              		.loc 1 123 15 view .LVU78
 291 0022 1CF00200 		ands	r0, ip, #2
 292              	.LVL27:
 293              		.loc 1 123 15 view .LVU79
 294 0026 0CD0     		beq	.L54
 124:Src/canopen.cpp ****         return false;
 125:Src/canopen.cpp ****     }
 126:Src/canopen.cpp ****     
 127:Src/canopen.cpp ****     // If entry is array type (subindex > 0), use subindex as array index
 128:Src/canopen.cpp ****     uint8_t array_index = (entry->subindex > 0) ? subindex : 0;
 295              		.loc 1 128 5 is_stmt 1 view .LVU80
 296              		.loc 1 128 35 is_stmt 0 view .LVU81
 297 0028 9B78     		ldrb	r3, [r3, #2]	@ zero_extendqisi2
 298              		.loc 1 128 13 view .LVU82
 299 002a 5BB9     		cbnz	r3, .L45
ARM GAS  /tmp/ccF7gVX3.s 			page 9


 300 002c 1946     		mov	r1, r3
 301              	.LVL28:
 302              	.L46:
 129:Src/canopen.cpp ****     if(array_index >= entry->subindex && entry->subindex > 0) {
 130:Src/canopen.cpp ****         return false;
 131:Src/canopen.cpp ****     }
 132:Src/canopen.cpp ****     
 133:Src/canopen.cpp ****     // Write based on data type
 134:Src/canopen.cpp ****     if(entry->type_access & OD_TYPE_INT32) {
 303              		.loc 1 134 5 is_stmt 1 view .LVU83
 135:Src/canopen.cpp ****         ((int32_t*)entry->data)[array_index] = value;
 304              		.loc 1 135 27 is_stmt 0 view .LVU84
 305 002e 7444     		add	r4, r4, lr
 134:Src/canopen.cpp ****         ((int32_t*)entry->data)[array_index] = value;
 306              		.loc 1 134 5 view .LVU85
 307 0030 1CF0200F 		tst	ip, #32
 308              		.loc 1 135 9 is_stmt 1 view .LVU86
 309              		.loc 1 135 46 is_stmt 0 view .LVU87
 310 0034 6368     		ldr	r3, [r4, #4]
 311 0036 14BF     		ite	ne
 312 0038 43F82120 		strne	r2, [r3, r1, lsl #2]
 136:Src/canopen.cpp ****     } else {
 137:Src/canopen.cpp ****         ((int16_t*)entry->data)[array_index] = (int16_t)value;
 313              		.loc 1 137 9 is_stmt 1 view .LVU88
 314              		.loc 1 137 46 is_stmt 0 view .LVU89
 315 003c 23F81120 		strheq	r2, [r3, r1, lsl #1]	@ movhi
 138:Src/canopen.cpp ****     }
 139:Src/canopen.cpp ****     
 140:Src/canopen.cpp ****     return true;
 316              		.loc 1 140 12 view .LVU90
 317 0040 0120     		movs	r0, #1
 318              	.L54:
 141:Src/canopen.cpp **** }
 319              		.loc 1 141 1 view .LVU91
 320 0042 10BD     		pop	{r4, pc}
 321              	.LVL29:
 322              	.L45:
 323              		.loc 1 141 1 view .LVU92
 324 0044 C9B2     		uxtb	r1, r1
 325              	.LVL30:
 129:Src/canopen.cpp ****         return false;
 326              		.loc 1 129 5 is_stmt 1 view .LVU93
 327 0046 8B42     		cmp	r3, r1
 328 0048 F1D8     		bhi	.L46
 329              	.LVL31:
 330              	.L51:
 124:Src/canopen.cpp ****     }
 331              		.loc 1 124 16 is_stmt 0 view .LVU94
 332 004a 0020     		movs	r0, #0
 333              		.loc 1 141 1 view .LVU95
 334 004c 10BD     		pop	{r4, pc}
 335              	.L58:
 336 004e 00BF     		.align	2
 337              	.L57:
 338 0050 00000000 		.word	.LANCHOR0
 339              		.cfi_endproc
 340              	.LFE5643:
ARM GAS  /tmp/ccF7gVX3.s 			page 10


 342              		.section	.text._Z8PDO_ReadhPt,"ax",%progbits
 343              		.align	1
 344              		.p2align 2,,3
 345              		.global	_Z8PDO_ReadhPt
 346              		.syntax unified
 347              		.thumb
 348              		.thumb_func
 349              		.fpu fpv4-sp-d16
 351              	_Z8PDO_ReadhPt:
 352              	.LVL32:
 353              	.LFB5644:
 142:Src/canopen.cpp **** 
 143:Src/canopen.cpp **** 
 144:Src/canopen.cpp **** 
 145:Src/canopen.cpp **** int32_t PDO_Read(uint8_t channel, uint16_t *length) {
 354              		.loc 1 145 53 is_stmt 1 view -0
 355              		.cfi_startproc
 356              		@ args = 0, pretend = 0, frame = 0
 357              		@ frame_needed = 0, uses_anonymous_args = 0
 146:Src/canopen.cpp ****     // Initialize length to 0
 147:Src/canopen.cpp ****     if(length) *length = 0;
 358              		.loc 1 147 5 view .LVU97
 359 0000 09B1     		cbz	r1, .L60
 360              		.loc 1 147 16 discriminator 1 view .LVU98
 361              		.loc 1 147 24 is_stmt 0 discriminator 1 view .LVU99
 362 0002 0023     		movs	r3, #0
 363 0004 0B80     		strh	r3, [r1]	@ movhi
 364              	.L60:
 148:Src/canopen.cpp ****     
 149:Src/canopen.cpp ****     // Validate channel
 150:Src/canopen.cpp ****     if(channel >= 6) {
 365              		.loc 1 150 5 is_stmt 1 view .LVU100
 366 0006 0528     		cmp	r0, #5
 367 0008 17D8     		bhi	.L100
 151:Src/canopen.cpp ****         return 0;
 152:Src/canopen.cpp ****     }
 153:Src/canopen.cpp ****     
 154:Src/canopen.cpp ****     // Get mapping configuration
 155:Src/canopen.cpp ****     PDO_Map_t map = scope_map[channel];
 368              		.loc 1 155 5 view .LVU101
 369              		.loc 1 155 15 is_stmt 0 view .LVU102
 370 000a 234B     		ldr	r3, .L102
 145:Src/canopen.cpp ****     // Initialize length to 0
 371              		.loc 1 145 53 view .LVU103
 372 000c 10B5     		push	{r4, lr}
 373              	.LCFI2:
 374              		.cfi_def_cfa_offset 8
 375              		.cfi_offset 4, -8
 376              		.cfi_offset 14, -4
 377              		.loc 1 155 15 view .LVU104
 378 000e 53F82040 		ldr	r4, [r3, r0, lsl #2]
 379              	.LVL33:
 156:Src/canopen.cpp ****     if(map.raw == 0) {
 380              		.loc 1 156 5 is_stmt 1 view .LVU105
 381              		.loc 1 156 5 is_stmt 0 view .LVU106
 382 0012 84B1     		cbz	r4, .L63
 157:Src/canopen.cpp ****         return 0;  // Channel not mapped
ARM GAS  /tmp/ccF7gVX3.s 			page 11


 158:Src/canopen.cpp ****     }
 159:Src/canopen.cpp ****     
 160:Src/canopen.cpp ****     // Get source parameter directly
 161:Src/canopen.cpp ****     const OD_Entry_t* entry = OD_FindEntry(map.fields.index, map.fields.subindex);
 383              		.loc 1 161 5 is_stmt 1 view .LVU107
 384 0014 2148     		ldr	r0, .L102+4
 385              	.LVL34:
 386              		.loc 1 161 43 is_stmt 0 view .LVU108
 387 0016 1FFA84FC 		uxth	ip, r4
 388              	.LVL35:
 389              	.LBB30:
 390              	.LBI30:
  85:Src/canopen.cpp ****     for(int i = 0; i < OD_ENTRIES_COUNT; i++) {
 391              		.loc 1 85 19 is_stmt 1 view .LVU109
 392              	.LBE30:
  86:Src/canopen.cpp ****         if(OD_List[i].index == index) {
 393              		.loc 1 86 5 view .LVU110
 394              	.LBB32:
 395              	.LBB31:
  86:Src/canopen.cpp ****         if(OD_List[i].index == index) {
 396              		.loc 1 86 22 view .LVU111
  86:Src/canopen.cpp ****         if(OD_List[i].index == index) {
 397              		.loc 1 86 13 is_stmt 0 view .LVU112
 398 001a 0023     		movs	r3, #0
 399 001c 02E0     		b	.L66
 400              	.LVL36:
 401              	.L64:
  86:Src/canopen.cpp ****         if(OD_List[i].index == index) {
 402              		.loc 1 86 5 view .LVU113
 403 001e 0133     		adds	r3, r3, #1
 404              	.LVL37:
  86:Src/canopen.cpp ****         if(OD_List[i].index == index) {
 405              		.loc 1 86 22 is_stmt 1 view .LVU114
 406 0020 292B     		cmp	r3, #41
 407 0022 08D0     		beq	.L63
 408              	.LVL38:
 409              	.L66:
  87:Src/canopen.cpp ****             return &OD_List[i];
 410              		.loc 1 87 9 view .LVU115
  86:Src/canopen.cpp ****         if(OD_List[i].index == index) {
 411              		.loc 1 86 5 view .LVU116
  87:Src/canopen.cpp ****             return &OD_List[i];
 412              		.loc 1 87 9 is_stmt 0 view .LVU117
 413 0024 30F83320 		ldrh	r2, [r0, r3, lsl #3]
 414 0028 6245     		cmp	r2, ip
 415 002a F8D1     		bne	.L64
  88:Src/canopen.cpp ****         }
 416              		.loc 1 88 13 is_stmt 1 view .LVU118
 417              	.LVL39:
  88:Src/canopen.cpp ****         }
 418              		.loc 1 88 13 is_stmt 0 view .LVU119
 419              	.LBE31:
 420              	.LBE32:
 162:Src/canopen.cpp ****     if(!entry || !(entry->type_access & OD_ACCESS_RO)) {
 421              		.loc 1 162 5 is_stmt 1 view .LVU120
 422              		.loc 1 162 27 is_stmt 0 view .LVU121
 423 002c 00EBC303 		add	r3, r0, r3, lsl #3
ARM GAS  /tmp/ccF7gVX3.s 			page 12


 424              	.LVL40:
 425              		.loc 1 162 15 view .LVU122
 426 0030 DB78     		ldrb	r3, [r3, #3]	@ zero_extendqisi2
 427 0032 DB07     		lsls	r3, r3, #31
 428 0034 03D4     		bmi	.L101
 429              	.L63:
 151:Src/canopen.cpp ****     }
 430              		.loc 1 151 16 view .LVU123
 431 0036 0020     		movs	r0, #0
 432              	.L59:
 163:Src/canopen.cpp ****         return 0;
 164:Src/canopen.cpp ****     }
 165:Src/canopen.cpp ****     
 166:Src/canopen.cpp ****     // Read data with length information
 167:Src/canopen.cpp ****     uint16_t data_length;
 168:Src/canopen.cpp ****     int32_t data = OD_Read(map.fields.index, map.fields.subindex, &data_length);
 169:Src/canopen.cpp ****     
 170:Src/canopen.cpp ****     // Update length if pointer provided
 171:Src/canopen.cpp ****     if(length) *length = data_length;
 172:Src/canopen.cpp ****     
 173:Src/canopen.cpp ****     return data;
 174:Src/canopen.cpp **** }...
 433              		.loc 1 174 1 view .LVU124
 434 0038 10BD     		pop	{r4, pc}
 435              	.LVL41:
 436              	.L100:
 437              	.LCFI3:
 438              		.cfi_def_cfa_offset 0
 439              		.cfi_restore 4
 440              		.cfi_restore 14
 151:Src/canopen.cpp ****     }
 441              		.loc 1 151 16 view .LVU125
 442 003a 0020     		movs	r0, #0
 443              	.LVL42:
 444              		.loc 1 174 1 view .LVU126
 445 003c 7047     		bx	lr
 446              	.LVL43:
 447              	.L101:
 448              	.LCFI4:
 449              		.cfi_def_cfa_offset 8
 450              		.cfi_offset 4, -8
 451              		.cfi_offset 14, -4
 452              	.LBB33:
 453              	.LBB34:
 454              	.LBB35:
 455              	.LBB36:
  86:Src/canopen.cpp ****     for(int i = 0; i < OD_ENTRIES_COUNT; i++) {
 456              		.loc 1 86 13 view .LVU127
 457 003e 0023     		movs	r3, #0
 458 0040 02E0     		b	.L65
 459              	.LVL44:
 460              	.L67:
  86:Src/canopen.cpp ****     for(int i = 0; i < OD_ENTRIES_COUNT; i++) {
 461              		.loc 1 86 5 view .LVU128
 462 0042 0133     		adds	r3, r3, #1
 463              	.LVL45:
  86:Src/canopen.cpp ****     for(int i = 0; i < OD_ENTRIES_COUNT; i++) {
ARM GAS  /tmp/ccF7gVX3.s 			page 13


 464              		.loc 1 86 22 is_stmt 1 view .LVU129
 465 0044 292B     		cmp	r3, #41
 466 0046 1FD0     		beq	.L76
 467              	.LVL46:
 468              	.L65:
  87:Src/canopen.cpp ****         if(OD_List[i].index == index) {
 469              		.loc 1 87 9 view .LVU130
  86:Src/canopen.cpp ****     for(int i = 0; i < OD_ENTRIES_COUNT; i++) {
 470              		.loc 1 86 5 view .LVU131
  87:Src/canopen.cpp ****         if(OD_List[i].index == index) {
 471              		.loc 1 87 9 is_stmt 0 view .LVU132
 472 0048 30F83320 		ldrh	r2, [r0, r3, lsl #3]
 473 004c 6245     		cmp	r2, ip
 474 004e F8D1     		bne	.L67
  88:Src/canopen.cpp ****             return &OD_List[i];
 475              		.loc 1 88 13 is_stmt 1 view .LVU133
 476              	.LVL47:
  88:Src/canopen.cpp ****             return &OD_List[i];
 477              		.loc 1 88 13 is_stmt 0 view .LVU134
 478              	.LBE36:
 479              	.LBE35:
 100:Src/canopen.cpp ****     if(!entry || !(entry->type_access & OD_ACCESS_RO)) {
 480              		.loc 1 100 5 is_stmt 1 view .LVU135
 100:Src/canopen.cpp ****     if(!entry || !(entry->type_access & OD_ACCESS_RO)) {
 481              		.loc 1 100 27 is_stmt 0 view .LVU136
 482 0050 4FEAC30E 		lsl	lr, r3, #3
 483 0054 00EBC303 		add	r3, r0, r3, lsl #3
 484              	.LVL48:
 100:Src/canopen.cpp ****     if(!entry || !(entry->type_access & OD_ACCESS_RO)) {
 485              		.loc 1 100 27 view .LVU137
 486 0058 93F803C0 		ldrb	ip, [r3, #3]	@ zero_extendqisi2
 100:Src/canopen.cpp ****     if(!entry || !(entry->type_access & OD_ACCESS_RO)) {
 487              		.loc 1 100 15 view .LVU138
 488 005c 1CF00102 		ands	r2, ip, #1
 489 0060 13D0     		beq	.L99
 105:Src/canopen.cpp ****     uint8_t array_index = (entry->subindex > 0) ? subindex : 0;
 490              		.loc 1 105 35 view .LVU139
 491 0062 9A78     		ldrb	r2, [r3, #2]	@ zero_extendqisi2
 492              	.LBE34:
 493              	.LBE33:
 161:Src/canopen.cpp ****     const OD_Entry_t* entry = OD_FindEntry(map.fields.index, map.fields.subindex);
 494              		.loc 1 161 73 view .LVU140
 495 0064 240C     		lsrs	r4, r4, #16
 496              	.LVL49:
 497              	.LBB39:
 498              	.LBB37:
 105:Src/canopen.cpp ****     uint8_t array_index = (entry->subindex > 0) ? subindex : 0;
 499              		.loc 1 105 5 is_stmt 1 view .LVU141
 105:Src/canopen.cpp ****     uint8_t array_index = (entry->subindex > 0) ? subindex : 0;
 500              		.loc 1 105 13 is_stmt 0 view .LVU142
 501 0066 62B9     		cbnz	r2, .L70
 502 0068 1346     		mov	r3, r2
 503              	.L71:
 111:Src/canopen.cpp ****     if(entry->type_access & OD_TYPE_INT32) {
 504              		.loc 1 111 5 is_stmt 1 view .LVU143
 505 006a 1CF0200F 		tst	ip, #32
 113:Src/canopen.cpp ****         return ((int32_t*)entry->data)[array_index];
ARM GAS  /tmp/ccF7gVX3.s 			page 14


 506              		.loc 1 113 34 is_stmt 0 view .LVU144
 507 006e 7044     		add	r0, r0, lr
 111:Src/canopen.cpp ****     if(entry->type_access & OD_TYPE_INT32) {
 508              		.loc 1 111 5 view .LVU145
 509 0070 0DD0     		beq	.L72
 112:Src/canopen.cpp ****         if(length) *length = 4;
 510              		.loc 1 112 9 is_stmt 1 view .LVU146
 112:Src/canopen.cpp ****         if(length) *length = 4;
 511              		.loc 1 112 20 view .LVU147
 512              	.LVL50:
 113:Src/canopen.cpp ****         return ((int32_t*)entry->data)[array_index];
 513              		.loc 1 113 9 view .LVU148
 113:Src/canopen.cpp ****         return ((int32_t*)entry->data)[array_index];
 514              		.loc 1 113 51 is_stmt 0 view .LVU149
 515 0072 4068     		ldr	r0, [r0, #4]
 516 0074 50F82300 		ldr	r0, [r0, r3, lsl #2]
 112:Src/canopen.cpp ****         if(length) *length = 4;
 517              		.loc 1 112 28 view .LVU150
 518 0078 0422     		movs	r2, #4
 519              	.LVL51:
 520              	.L68:
 112:Src/canopen.cpp ****         if(length) *length = 4;
 521              		.loc 1 112 28 view .LVU151
 522              	.LBE37:
 523              	.LBE39:
 171:Src/canopen.cpp ****     if(length) *length = data_length;
 524              		.loc 1 171 5 is_stmt 1 view .LVU152
 525 007a 0029     		cmp	r1, #0
 526 007c DCD0     		beq	.L59
 171:Src/canopen.cpp ****     if(length) *length = data_length;
 527              		.loc 1 171 16 discriminator 1 view .LVU153
 171:Src/canopen.cpp ****     if(length) *length = data_length;
 528              		.loc 1 171 24 is_stmt 0 discriminator 1 view .LVU154
 529 007e 0A80     		strh	r2, [r1]	@ movhi
 530              	.LVL52:
 531              		.loc 1 174 1 discriminator 1 view .LVU155
 532 0080 10BD     		pop	{r4, pc}
 533              	.LVL53:
 534              	.L70:
 535              		.loc 1 174 1 discriminator 1 view .LVU156
 536 0082 E3B2     		uxtb	r3, r4
 537              	.LVL54:
 538              	.LBB40:
 539              	.LBB38:
 106:Src/canopen.cpp ****     if(array_index >= entry->subindex && entry->subindex > 0) {
 540              		.loc 1 106 5 is_stmt 1 view .LVU157
 541 0084 9A42     		cmp	r2, r3
 542 0086 F0D8     		bhi	.L71
 543              	.LVL55:
 544              	.L76:
  96:Src/canopen.cpp ****     if(length) *length = 0;
 545              		.loc 1 96 24 is_stmt 0 view .LVU158
 546 0088 0022     		movs	r2, #0
 547              	.L99:
 101:Src/canopen.cpp ****         return 0;
 548              		.loc 1 101 16 view .LVU159
 549 008a 1046     		mov	r0, r2
ARM GAS  /tmp/ccF7gVX3.s 			page 15


 550 008c F5E7     		b	.L68
 551              	.LVL56:
 552              	.L72:
 115:Src/canopen.cpp ****         if(length) *length = 2;
 553              		.loc 1 115 9 is_stmt 1 view .LVU160
 115:Src/canopen.cpp ****         if(length) *length = 2;
 554              		.loc 1 115 20 view .LVU161
 116:Src/canopen.cpp ****         return ((int16_t*)entry->data)[array_index];
 555              		.loc 1 116 9 view .LVU162
 116:Src/canopen.cpp ****         return ((int16_t*)entry->data)[array_index];
 556              		.loc 1 116 51 is_stmt 0 view .LVU163
 557 008e 4068     		ldr	r0, [r0, #4]
 115:Src/canopen.cpp ****         if(length) *length = 2;
 558              		.loc 1 115 28 view .LVU164
 559 0090 0222     		movs	r2, #2
 116:Src/canopen.cpp ****         return ((int16_t*)entry->data)[array_index];
 560              		.loc 1 116 51 view .LVU165
 561 0092 30F91300 		ldrsh	r0, [r0, r3, lsl #1]
 562 0096 F0E7     		b	.L68
 563              	.L103:
 564              		.align	2
 565              	.L102:
 566 0098 00000000 		.word	.LANCHOR1
 567 009c 00000000 		.word	.LANCHOR0
 568              	.LBE38:
 569              	.LBE40:
 570              		.cfi_endproc
 571              	.LFE5644:
 573              		.section	.data._ZL9scope_map,"aw"
 574              		.align	2
 575              		.set	.LANCHOR1,. + 0
 578              	_ZL9scope_map:
 579 0000 0040     		.short	16384
 580 0002 0000     		.short	0
 581 0004 0140     		.short	16385
 582 0006 0000     		.short	0
 583 0008 0240     		.short	16386
 584 000a 0000     		.short	0
 585 000c 0000     		.short	0
 586 000e 0000     		.short	0
 587 0010 0000     		.short	0
 588 0012 0000     		.short	0
 589 0014 0000     		.short	0
 590 0016 0000     		.short	0
 591              		.section	.rodata._ZL7OD_List,"a"
 592              		.align	2
 593              		.set	.LANCHOR0,. + 0
 596              	_ZL7OD_List:
 597 0000 0010     		.short	4096
 598 0002 00       		.byte	0
 599 0003 11       		.byte	17
 600 0004 00000000 		.word	motor_params
 601 0008 0110     		.short	4097
 602 000a 00       		.byte	0
 603 000b 11       		.byte	17
 604 000c 02000000 		.word	motor_params+2
 605 0010 0210     		.short	4098
ARM GAS  /tmp/ccF7gVX3.s 			page 16


 606 0012 00       		.byte	0
 607 0013 13       		.byte	19
 608 0014 04000000 		.word	motor_params+4
 609 0018 0020     		.short	8192
 610 001a 00       		.byte	0
 611 001b 13       		.byte	19
 612 001c 06000000 		.word	motor_params+6
 613 0020 0120     		.short	8193
 614 0022 00       		.byte	0
 615 0023 13       		.byte	19
 616 0024 08000000 		.word	motor_params+8
 617 0028 1020     		.short	8208
 618 002a 00       		.byte	0
 619 002b 13       		.byte	19
 620 002c 0A000000 		.word	motor_params+10
 621 0030 1120     		.short	8209
 622 0032 00       		.byte	0
 623 0033 13       		.byte	19
 624 0034 0C000000 		.word	motor_params+12
 625 0038 1220     		.short	8210
 626 003a 00       		.byte	0
 627 003b 13       		.byte	19
 628 003c 0E000000 		.word	motor_params+14
 629 0040 1320     		.short	8211
 630 0042 00       		.byte	0
 631 0043 13       		.byte	19
 632 0044 10000000 		.word	motor_params+16
 633 0048 2020     		.short	8224
 634 004a 00       		.byte	0
 635 004b 13       		.byte	19
 636 004c 12000000 		.word	motor_params+18
 637 0050 2120     		.short	8225
 638 0052 00       		.byte	0
 639 0053 13       		.byte	19
 640 0054 14000000 		.word	motor_params+20
 641 0058 2220     		.short	8226
 642 005a 00       		.byte	0
 643 005b 13       		.byte	19
 644 005c 16000000 		.word	motor_params+22
 645 0060 2320     		.short	8227
 646 0062 00       		.byte	0
 647 0063 13       		.byte	19
 648 0064 18000000 		.word	motor_params+24
 649 0068 3020     		.short	8240
 650 006a 00       		.byte	0
 651 006b 13       		.byte	19
 652 006c 1A000000 		.word	motor_params+26
 653 0070 3120     		.short	8241
 654 0072 00       		.byte	0
 655 0073 13       		.byte	19
 656 0074 1C000000 		.word	motor_params+28
 657 0078 3220     		.short	8242
 658 007a 00       		.byte	0
 659 007b 13       		.byte	19
 660 007c 1E000000 		.word	motor_params+30
 661 0080 3320     		.short	8243
 662 0082 00       		.byte	0
ARM GAS  /tmp/ccF7gVX3.s 			page 17


 663 0083 13       		.byte	19
 664 0084 20000000 		.word	motor_params+32
 665 0088 3420     		.short	8244
 666 008a 00       		.byte	0
 667 008b 13       		.byte	19
 668 008c 22000000 		.word	motor_params+34
 669 0090 3520     		.short	8245
 670 0092 00       		.byte	0
 671 0093 13       		.byte	19
 672 0094 24000000 		.word	motor_params+36
 673 0098 4020     		.short	8256
 674 009a 00       		.byte	0
 675 009b 13       		.byte	19
 676 009c 26000000 		.word	motor_params+38
 677 00a0 4120     		.short	8257
 678 00a2 00       		.byte	0
 679 00a3 13       		.byte	19
 680 00a4 28000000 		.word	motor_params+40
 681 00a8 4220     		.short	8258
 682 00aa 00       		.byte	0
 683 00ab 13       		.byte	19
 684 00ac 2A000000 		.word	motor_params+42
 685 00b0 4320     		.short	8259
 686 00b2 00       		.byte	0
 687 00b3 13       		.byte	19
 688 00b4 2C000000 		.word	motor_params+44
 689 00b8 4420     		.short	8260
 690 00ba 00       		.byte	0
 691 00bb 13       		.byte	19
 692 00bc 2E000000 		.word	motor_params+46
 693 00c0 0030     		.short	12288
 694 00c2 00       		.byte	0
 695 00c3 13       		.byte	19
 696 00c4 00000000 		.word	motor_runtime
 697 00c8 0130     		.short	12289
 698 00ca 00       		.byte	0
 699 00cb 11       		.byte	17
 700 00cc 02000000 		.word	motor_runtime+2
 701 00d0 0230     		.short	12290
 702 00d2 00       		.byte	0
 703 00d3 11       		.byte	17
 704 00d4 04000000 		.word	motor_runtime+4
 705 00d8 0330     		.short	12291
 706 00da 00       		.byte	0
 707 00db 11       		.byte	17
 708 00dc 06000000 		.word	motor_runtime+6
 709 00e0 1030     		.short	12304
 710 00e2 00       		.byte	0
 711 00e3 13       		.byte	19
 712 00e4 08000000 		.word	motor_runtime+8
 713 00e8 1130     		.short	12305
 714 00ea 00       		.byte	0
 715 00eb 11       		.byte	17
 716 00ec 0A000000 		.word	motor_runtime+10
 717 00f0 1230     		.short	12306
 718 00f2 00       		.byte	0
 719 00f3 11       		.byte	17
ARM GAS  /tmp/ccF7gVX3.s 			page 18


 720 00f4 0C000000 		.word	motor_runtime+12
 721 00f8 1330     		.short	12307
 722 00fa 00       		.byte	0
 723 00fb 11       		.byte	17
 724 00fc 0E000000 		.word	motor_runtime+14
 725 0100 2030     		.short	12320
 726 0102 00       		.byte	0
 727 0103 13       		.byte	19
 728 0104 10000000 		.word	motor_runtime+16
 729 0108 2130     		.short	12321
 730 010a 00       		.byte	0
 731 010b 11       		.byte	17
 732 010c 12000000 		.word	motor_runtime+18
 733 0110 2230     		.short	12322
 734 0112 00       		.byte	0
 735 0113 11       		.byte	17
 736 0114 14000000 		.word	motor_runtime+20
 737 0118 2330     		.short	12323
 738 011a 00       		.byte	0
 739 011b 11       		.byte	17
 740 011c 16000000 		.word	motor_runtime+22
 741 0120 3030     		.short	12336
 742 0122 00       		.byte	0
 743 0123 11       		.byte	17
 744 0124 18000000 		.word	motor_runtime+24
 745 0128 3130     		.short	12337
 746 012a 00       		.byte	0
 747 012b 11       		.byte	17
 748 012c 1A000000 		.word	motor_runtime+26
 749 0130 3230     		.short	12338
 750 0132 00       		.byte	0
 751 0133 11       		.byte	17
 752 0134 1C000000 		.word	motor_runtime+28
 753 0138 3330     		.short	12339
 754 013a 00       		.byte	0
 755 013b 11       		.byte	17
 756 013c 1E000000 		.word	motor_runtime+30
 757 0140 0060     		.short	24576
 758 0142 06       		.byte	6
 759 0143 23       		.byte	35
 760 0144 00000000 		.word	_ZL9scope_map
 761              		.text
 762              	.Letext0:
 763              		.file 2 "/usr/share/gcc-arm-none-eabi-10-2020-q4-major/arm-none-eabi/include/machine/_default_type
 764              		.file 3 "/usr/share/gcc-arm-none-eabi-10-2020-q4-major/arm-none-eabi/include/sys/_stdint.h"
 765              		.file 4 "/usr/share/gcc-arm-none-eabi-10-2020-q4-major/arm-none-eabi/include/stdint.h"
 766              		.file 5 "Inc/canopen.hpp"
 767              		.file 6 "/usr/share/gcc-arm-none-eabi-10-2020-q4-major/arm-none-eabi/include/c++/10.2.1/type_trait
 768              		.file 7 "/usr/share/gcc-arm-none-eabi-10-2020-q4-major/arm-none-eabi/include/c++/10.2.1/arm-none-e
 769              		.file 8 "/usr/share/gcc-arm-none-eabi-10-2020-q4-major/arm-none-eabi/include/c++/10.2.1/debug/debu
 770              		.file 9 "/usr/share/gcc-arm-none-eabi-10-2020-q4-major/arm-none-eabi/include/c++/10.2.1/cmath"
 771              		.file 10 "/usr/share/gcc-arm-none-eabi-10-2020-q4-major/arm-none-eabi/include/c++/10.2.1/bits/std_
 772              		.file 11 "/usr/share/gcc-arm-none-eabi-10-2020-q4-major/arm-none-eabi/include/c++/10.2.1/bits/exce
 773              		.file 12 "/usr/share/gcc-arm-none-eabi-10-2020-q4-major/arm-none-eabi/include/c++/10.2.1/bits/enab
 774              		.file 13 "/usr/share/gcc-arm-none-eabi-10-2020-q4-major/arm-none-eabi/include/c++/10.2.1/optional"
 775              		.file 14 "/usr/share/gcc-arm-none-eabi-10-2020-q4-major/arm-none-eabi/include/c++/10.2.1/tr1/speci
 776              		.file 15 "/usr/share/gcc-arm-none-eabi-10-2020-q4-major/arm-none-eabi/include/c++/10.2.1/variant"
ARM GAS  /tmp/ccF7gVX3.s 			page 19


 777              		.file 16 "/usr/share/gcc-arm-none-eabi-10-2020-q4-major/arm-none-eabi/include/c++/10.2.1/bits/stl_
 778              		.file 17 "/usr/share/gcc-arm-none-eabi-10-2020-q4-major/arm-none-eabi/include/c++/10.2.1/bits/std_
 779              		.file 18 "/usr/share/gcc-arm-none-eabi-10-2020-q4-major/arm-none-eabi/include/c++/10.2.1/cstdlib"
 780              		.file 19 "/usr/share/gcc-arm-none-eabi-10-2020-q4-major/arm-none-eabi/include/c++/10.2.1/bits/algo
 781              		.file 20 "/usr/share/gcc-arm-none-eabi-10-2020-q4-major/arm-none-eabi/include/c++/10.2.1/functiona
 782              		.file 21 "/usr/share/gcc-arm-none-eabi-10-2020-q4-major/arm-none-eabi/include/c++/10.2.1/array"
 783              		.file 22 "/usr/share/gcc-arm-none-eabi-10-2020-q4-major/arm-none-eabi/include/c++/10.2.1/bits/stl_
 784              		.file 23 "/usr/share/gcc-arm-none-eabi-10-2020-q4-major/arm-none-eabi/include/c++/10.2.1/bits/refw
 785              		.file 24 "/usr/share/gcc-arm-none-eabi-10-2020-q4-major/arm-none-eabi/include/c++/10.2.1/cstring"
 786              		.file 25 "/usr/share/gcc-arm-none-eabi-10-2020-q4-major/arm-none-eabi/include/c++/10.2.1/cwchar"
 787              		.file 26 "/usr/share/gcc-arm-none-eabi-10-2020-q4-major/arm-none-eabi/include/c++/10.2.1/clocale"
 788              		.file 27 "/usr/share/gcc-arm-none-eabi-10-2020-q4-major/arm-none-eabi/include/c++/10.2.1/cstdint"
 789              		.file 28 "/usr/share/gcc-arm-none-eabi-10-2020-q4-major/arm-none-eabi/include/c++/10.2.1/string_vi
 790              		.file 29 "/usr/share/gcc-arm-none-eabi-10-2020-q4-major/arm-none-eabi/include/c++/10.2.1/bits/basi
 791              		.file 30 "/usr/share/gcc-arm-none-eabi-10-2020-q4-major/arm-none-eabi/include/c++/10.2.1/cstdio"
 792              		.file 31 "/usr/share/gcc-arm-none-eabi-10-2020-q4-major/arm-none-eabi/include/c++/10.2.1/bits/pars
 793              		.file 32 "/usr/share/gcc-arm-none-eabi-10-2020-q4-major/arm-none-eabi/include/c++/10.2.1/bits/pred
 794              		.file 33 "Drivers/CMSIS/Device/ST/STM32G4xx/Include/stm32g431xx.h"
 795              		.file 34 "/usr/share/gcc-arm-none-eabi-10-2020-q4-major/lib/gcc/arm-none-eabi/10.2.1/include/stdde
 796              		.file 35 "Drivers/STM32G4xx_HAL_Driver/Inc/stm32g4xx_hal_def.h"
 797              		.file 36 "Drivers/STM32G4xx_HAL_Driver/Inc/stm32g4xx_hal_dma.h"
 798              		.file 37 "Drivers/STM32G4xx_HAL_Driver/Inc/stm32g4xx_hal_spi.h"
 799              		.file 38 "Drivers/STM32G4xx_HAL_Driver/Inc/stm32g4xx_hal_tim.h"
 800              		.file 39 "Drivers/STM32G4xx_HAL_Driver/Inc/stm32g4xx_ll_tim.h"
 801              		.file 40 "Drivers/STM32G4xx_HAL_Driver/Inc/stm32g4xx_ll_usart.h"
 802              		.file 41 "Drivers/STM32G4xx_HAL_Driver/Inc/stm32g4xx_ll_dma.h"
 803              		.file 42 "Inc/mc_type.h"
 804              		.file 43 "/usr/share/gcc-arm-none-eabi-10-2020-q4-major/arm-none-eabi/include/sys/_types.h"
 805              		.file 44 "/usr/share/gcc-arm-none-eabi-10-2020-q4-major/arm-none-eabi/include/sys/reent.h"
 806              		.file 45 "/usr/share/gcc-arm-none-eabi-10-2020-q4-major/arm-none-eabi/include/sys/lock.h"
 807              		.file 46 "/usr/share/gcc-arm-none-eabi-10-2020-q4-major/arm-none-eabi/include/math.h"
 808              		.file 47 "/usr/share/gcc-arm-none-eabi-10-2020-q4-major/arm-none-eabi/include/stdlib.h"
 809              		.file 48 "/usr/share/gcc-arm-none-eabi-10-2020-q4-major/arm-none-eabi/include/c++/10.2.1/math.h"
 810              		.file 49 "Inc/main.h"
 811              		.file 50 "Inc/task_timer.hpp"
 812              		.file 51 "Inc/interfaces.hpp"
 813              		.file 52 "Inc/component.hpp"
 814              		.file 53 "Middlewares/Third_Party/FreeRTOS/Source/include/task.h"
 815              		.file 54 "Middlewares/Third_Party/FreeRTOS/Source/CMSIS_RTOS/cmsis_os.h"
 816              		.file 55 "Inc/utils.hpp"
 817              		.file 56 "Inc/axis.hpp"
 818              		.file 57 "Inc/encoder.hpp"
 819              		.file 58 "Inc/controller.hpp"
 820              		.file 59 "Inc/motor.hpp"
 821              		.file 60 "/usr/share/gcc-arm-none-eabi-10-2020-q4-major/arm-none-eabi/include/c++/10.2.1/pstl/exec
 822              		.file 61 "/usr/share/gcc-arm-none-eabi-10-2020-q4-major/arm-none-eabi/include/string.h"
 823              		.file 62 "/usr/share/gcc-arm-none-eabi-10-2020-q4-major/lib/gcc/arm-none-eabi/10.2.1/include/stdar
 824              		.file 63 "/usr/share/gcc-arm-none-eabi-10-2020-q4-major/arm-none-eabi/include/wchar.h"
 825              		.file 64 "/usr/share/gcc-arm-none-eabi-10-2020-q4-major/arm-none-eabi/include/locale.h"
 826              		.file 65 "/usr/share/gcc-arm-none-eabi-10-2020-q4-major/arm-none-eabi/include/stdio.h"
 827              		.file 66 "Inc/main_.hpp"
 828              		.file 67 "/usr/share/gcc-arm-none-eabi-10-2020-q4-major/arm-none-eabi/include/c++/10.2.1/stdlib.h"
 829              		.file 68 "<built-in>"
ARM GAS  /tmp/ccF7gVX3.s 			page 20


DEFINED SYMBOLS
                            *ABS*:0000000000000000 canopen.cpp
     /tmp/ccF7gVX3.s:18     .text._Z12OD_FindEntryth:0000000000000000 $t
     /tmp/ccF7gVX3.s:27     .text._Z12OD_FindEntryth:0000000000000000 _Z12OD_FindEntryth
     /tmp/ccF7gVX3.s:78     .text._Z12OD_FindEntryth:0000000000000020 $d
     /tmp/ccF7gVX3.s:83     .text._Z7OD_ReadttPt:0000000000000000 $t
     /tmp/ccF7gVX3.s:91     .text._Z7OD_ReadttPt:0000000000000000 _Z7OD_ReadttPt
     /tmp/ccF7gVX3.s:219    .text._Z7OD_ReadttPt:0000000000000064 $d
     /tmp/ccF7gVX3.s:224    .text._Z8OD_Writettl:0000000000000000 $t
     /tmp/ccF7gVX3.s:232    .text._Z8OD_Writettl:0000000000000000 _Z8OD_Writettl
     /tmp/ccF7gVX3.s:338    .text._Z8OD_Writettl:0000000000000050 $d
     /tmp/ccF7gVX3.s:343    .text._Z8PDO_ReadhPt:0000000000000000 $t
     /tmp/ccF7gVX3.s:351    .text._Z8PDO_ReadhPt:0000000000000000 _Z8PDO_ReadhPt
     /tmp/ccF7gVX3.s:566    .text._Z8PDO_ReadhPt:0000000000000098 $d
     /tmp/ccF7gVX3.s:574    .data._ZL9scope_map:0000000000000000 $d
     /tmp/ccF7gVX3.s:578    .data._ZL9scope_map:0000000000000000 _ZL9scope_map
     /tmp/ccF7gVX3.s:592    .rodata._ZL7OD_List:0000000000000000 $d
     /tmp/ccF7gVX3.s:596    .rodata._ZL7OD_List:0000000000000000 _ZL7OD_List

UNDEFINED SYMBOLS
motor_params
motor_runtime
