ARM GAS  /tmp/ccUQw2ZB.s 			page 1


   1              		.cpu cortex-m4
   2              		.eabi_attribute 27, 1
   3              		.eabi_attribute 28, 1
   4              		.eabi_attribute 20, 1
   5              		.eabi_attribute 21, 1
   6              		.eabi_attribute 23, 3
   7              		.eabi_attribute 24, 1
   8              		.eabi_attribute 25, 1
   9              		.eabi_attribute 26, 1
  10              		.eabi_attribute 30, 1
  11              		.eabi_attribute 34, 1
  12              		.eabi_attribute 18, 2
  13              		.file	"canopen.cpp"
  14              		.text
  15              	.Ltext0:
  16              		.cfi_sections	.debug_frame
  17              		.section	.text._Z12OD_FindEntryth,"ax",%progbits
  18              		.align	1
  19              		.global	_Z12OD_FindEntryth
  20              		.arch armv7e-m
  21              		.syntax unified
  22              		.thumb
  23              		.thumb_func
  24              		.fpu fpv4-sp-d16
  26              	_Z12OD_FindEntryth:
  27              	.LVL0:
  28              	.LFB5762:
  29              		.file 1 "Src/canopen.cpp"
   1:Src/canopen.cpp **** #include "canopen.hpp"
   2:Src/canopen.cpp **** #include "main_.hpp"
   3:Src/canopen.cpp **** 
   4:Src/canopen.cpp **** // PDO mapping configuration
   5:Src/canopen.cpp **** static PDO_Map_t scope_map[6] = {
   6:Src/canopen.cpp ****     {{0x4000, 0}},  // CH1: Current Position
   7:Src/canopen.cpp ****     {{0x4001, 0}},  // CH2: Current Velocity 
   8:Src/canopen.cpp ****     {{0x4002, 0}},  // CH3: Current Current
   9:Src/canopen.cpp ****     {{0, 0}},       // CH4: Unmapped
  10:Src/canopen.cpp ****     {{0, 0}},       // CH5: Unmapped 
  11:Src/canopen.cpp ****     {{0, 0}}        // CH6: Unmapped
  12:Src/canopen.cpp **** };
  13:Src/canopen.cpp **** 
  14:Src/canopen.cpp **** // Object Dictionary
  15:Src/canopen.cpp **** static const OD_Entry_t OD_List[] = {
  16:Src/canopen.cpp ****     // Device Info (0x1000-0x1FFF)
  17:Src/canopen.cpp ****     {0x1000, 0, OD_INT16_RO, &motor_params.magic},
  18:Src/canopen.cpp ****     {0x1001, 0, OD_INT16_RO, &motor_params.version},
  19:Src/canopen.cpp ****     {0x1002, 0, OD_INT16_RW, &motor_params.motor_id},
  20:Src/canopen.cpp ****     
  21:Src/canopen.cpp ****     // Motor Parameters (0x2000-0x2FFF)
  22:Src/canopen.cpp ****     {0x2000, 0, OD_INT16_RW, &motor_params.inductance},
  23:Src/canopen.cpp ****     {0x2001, 0, OD_INT16_RW, &motor_params.resistance},
  24:Src/canopen.cpp ****     
  25:Src/canopen.cpp ****     // Main Encoder Parameters
  26:Src/canopen.cpp ****     {0x2010, 0, OD_INT16_RW, &motor_params.main_encoder_type},
  27:Src/canopen.cpp ****     {0x2011, 0, OD_INT16_RW, &motor_params.main_encoder_lines},
  28:Src/canopen.cpp ****     {0x2012, 0, OD_INT16_RW, &motor_params.main_encoder_offset},
  29:Src/canopen.cpp ****     {0x2013, 0, OD_INT16_RW, &motor_params.main_encoder_dir},
ARM GAS  /tmp/ccUQw2ZB.s 			page 2


  30:Src/canopen.cpp ****     
  31:Src/canopen.cpp ****     // Sub Encoder Parameters  
  32:Src/canopen.cpp ****     {0x2020, 0, OD_INT16_RW, &motor_params.sub_encoder_type},
  33:Src/canopen.cpp ****     {0x2021, 0, OD_INT16_RW, &motor_params.sub_encoder_lines},
  34:Src/canopen.cpp ****     {0x2022, 0, OD_INT16_RW, &motor_params.sub_encoder_offset},
  35:Src/canopen.cpp ****     {0x2023, 0, OD_INT16_RW, &motor_params.sub_encoder_dir},
  36:Src/canopen.cpp ****     
  37:Src/canopen.cpp ****     // PID Parameters
  38:Src/canopen.cpp ****     {0x2030, 0, OD_INT16_RW, &motor_params.pos_kp},
  39:Src/canopen.cpp ****     {0x2031, 0, OD_INT16_RW, &motor_params.pos_kd},
  40:Src/canopen.cpp ****     {0x2032, 0, OD_INT16_RW, &motor_params.vel_kp},
  41:Src/canopen.cpp ****     {0x2033, 0, OD_INT16_RW, &motor_params.vel_ki},
  42:Src/canopen.cpp ****     {0x2034, 0, OD_INT16_RW, &motor_params.cur_kp},
  43:Src/canopen.cpp ****     {0x2035, 0, OD_INT16_RW, &motor_params.cur_ki},
  44:Src/canopen.cpp ****     
  45:Src/canopen.cpp ****     // Limit Parameters
  46:Src/canopen.cpp ****     {0x2040, 0, OD_INT16_RW, &motor_params.max_current},
  47:Src/canopen.cpp ****     {0x2041, 0, OD_INT16_RW, &motor_params.max_speed},
  48:Src/canopen.cpp ****     {0x2042, 0, OD_INT16_RW, &motor_params.max_position},
  49:Src/canopen.cpp ****     {0x2043, 0, OD_INT16_RW, &motor_params.min_position},
  50:Src/canopen.cpp ****     {0x2044, 0, OD_INT16_RW, &motor_params.ctrl_mode},
  51:Src/canopen.cpp ****     
  52:Src/canopen.cpp ****     // Runtime Parameters (0x3000-0x3FFF)
  53:Src/canopen.cpp ****     // Position Related
  54:Src/canopen.cpp ****     {0x3000, 0, OD_INT16_RW, (void*)&motor_runtime.input_pos},
  55:Src/canopen.cpp ****     {0x3001, 0, OD_INT16_RO, (void*)&motor_runtime.profile_pos},
  56:Src/canopen.cpp ****     {0x3002, 0, OD_INT16_RO, (void*)&motor_runtime.des_pos},
  57:Src/canopen.cpp ****     {0x3003, 0, OD_INT16_RO, (void*)&motor_runtime.current_pos},
  58:Src/canopen.cpp ****     
  59:Src/canopen.cpp ****     // Velocity Related
  60:Src/canopen.cpp ****     {0x3010, 0, OD_INT16_RW, (void*)&motor_runtime.input_vel},
  61:Src/canopen.cpp ****     {0x3011, 0, OD_INT16_RO, (void*)&motor_runtime.profile_vel},
  62:Src/canopen.cpp ****     {0x3012, 0, OD_INT16_RO, (void*)&motor_runtime.des_vel},
  63:Src/canopen.cpp ****     {0x3013, 0, OD_INT16_RO, (void*)&motor_runtime.current_vel},
  64:Src/canopen.cpp ****     
  65:Src/canopen.cpp ****     // Current Related
  66:Src/canopen.cpp ****     {0x3020, 0, OD_INT16_RW, (void*)&motor_runtime.input_cur},
  67:Src/canopen.cpp ****     {0x3021, 0, OD_INT16_RO, (void*)&motor_runtime.profile_cur},
  68:Src/canopen.cpp ****     {0x3022, 0, OD_INT16_RO, (void*)&motor_runtime.des_cur},
  69:Src/canopen.cpp ****     {0x3023, 0, OD_INT16_RO, (void*)&motor_runtime.current_cur},
  70:Src/canopen.cpp ****     
  71:Src/canopen.cpp ****     // Status
  72:Src/canopen.cpp ****     {0x3030, 0, OD_INT16_RO, (void*)&motor_runtime.is_enabled},
  73:Src/canopen.cpp ****     {0x3031, 0, OD_INT16_RO, (void*)&motor_runtime.is_running},
  74:Src/canopen.cpp ****     {0x3032, 0, OD_INT16_RO, (void*)&motor_runtime.temperatrue},
  75:Src/canopen.cpp ****     {0x3033, 0, OD_INT16_RO, (void*)&motor_runtime.error_code},
  76:Src/canopen.cpp ****     
  77:Src/canopen.cpp ****     // PDO Mapping Configuration (0x6000)
  78:Src/canopen.cpp ****     {0x6000, 6, OD_INT32_RW, &scope_map[0]},
  79:Src/canopen.cpp ****     
  80:Src/canopen.cpp **** 
  81:Src/canopen.cpp **** };
  82:Src/canopen.cpp **** #define OD_ENTRIES_COUNT (sizeof(OD_List)/sizeof(OD_Entry_t))
  83:Src/canopen.cpp **** 
  84:Src/canopen.cpp **** // Find entry in object dictionary
  85:Src/canopen.cpp **** const OD_Entry_t* OD_FindEntry(uint16_t index, uint8_t subindex) {
  30              		.loc 1 85 66 view -0
ARM GAS  /tmp/ccUQw2ZB.s 			page 3


  31              		.cfi_startproc
  32              		@ args = 0, pretend = 0, frame = 0
  33              		@ frame_needed = 0, uses_anonymous_args = 0
  34              		@ link register save eliminated.
  86:Src/canopen.cpp ****     for(int i = 0; i < OD_ENTRIES_COUNT; i++) {
  35              		.loc 1 86 5 view .LVU1
  36              	.LBB2:
  37              		.loc 1 86 22 view .LVU2
  38              		.loc 1 86 13 is_stmt 0 view .LVU3
  39 0000 0023     		movs	r3, #0
  87:Src/canopen.cpp ****         if(OD_List[i].index == index) {
  40              		.loc 1 87 23 view .LVU4
  41 0002 0749     		ldr	r1, .L7
  42              	.LVL1:
  43              	.L4:
  44              		.loc 1 87 9 is_stmt 1 view .LVU5
  45 0004 31F83320 		ldrh	r2, [r1, r3, lsl #3]
  46 0008 8242     		cmp	r2, r0
  47 000a 04D0     		beq	.L6
  86:Src/canopen.cpp ****     for(int i = 0; i < OD_ENTRIES_COUNT; i++) {
  48              		.loc 1 86 5 discriminator 2 view .LVU6
  49 000c 0133     		adds	r3, r3, #1
  50              	.LVL2:
  86:Src/canopen.cpp ****     for(int i = 0; i < OD_ENTRIES_COUNT; i++) {
  51              		.loc 1 86 22 discriminator 2 view .LVU7
  52 000e 292B     		cmp	r3, #41
  53 0010 F8D1     		bne	.L4
  54              	.LBE2:
  88:Src/canopen.cpp ****             return &OD_List[i];
  89:Src/canopen.cpp ****         }
  90:Src/canopen.cpp ****     }
  91:Src/canopen.cpp ****     return NULL;
  55              		.loc 1 91 12 is_stmt 0 view .LVU8
  56 0012 0020     		movs	r0, #0
  57              	.LVL3:
  92:Src/canopen.cpp **** }
  58              		.loc 1 92 1 view .LVU9
  59 0014 7047     		bx	lr
  60              	.LVL4:
  61              	.L6:
  62              	.LBB3:
  88:Src/canopen.cpp ****             return &OD_List[i];
  63              		.loc 1 88 13 is_stmt 1 view .LVU10
  88:Src/canopen.cpp ****             return &OD_List[i];
  64              		.loc 1 88 30 is_stmt 0 view .LVU11
  65 0016 0248     		ldr	r0, .L7
  66              	.LVL5:
  88:Src/canopen.cpp ****             return &OD_List[i];
  67              		.loc 1 88 30 view .LVU12
  68 0018 00EBC300 		add	r0, r0, r3, lsl #3
  69 001c 7047     		bx	lr
  70              	.L8:
  71 001e 00BF     		.align	2
  72              	.L7:
  73 0020 00000000 		.word	.LANCHOR0
  74              	.LBE3:
  75              		.cfi_endproc
ARM GAS  /tmp/ccUQw2ZB.s 			page 4


  76              	.LFE5762:
  78              		.section	.text._Z7OD_ReadttPt,"ax",%progbits
  79              		.align	1
  80              		.global	_Z7OD_ReadttPt
  81              		.syntax unified
  82              		.thumb
  83              		.thumb_func
  84              		.fpu fpv4-sp-d16
  86              	_Z7OD_ReadttPt:
  87              	.LVL6:
  88              	.LFB5763:
  93:Src/canopen.cpp **** 
  94:Src/canopen.cpp **** int32_t OD_Read(uint16_t index, uint16_t subindex, uint16_t* length) {
  89              		.loc 1 94 70 is_stmt 1 view -0
  90              		.cfi_startproc
  91              		@ args = 0, pretend = 0, frame = 0
  92              		@ frame_needed = 0, uses_anonymous_args = 0
  93              		.loc 1 94 70 is_stmt 0 view .LVU14
  94 0000 38B5     		push	{r3, r4, r5, lr}
  95              	.LCFI0:
  96              		.cfi_def_cfa_offset 16
  97              		.cfi_offset 3, -16
  98              		.cfi_offset 4, -12
  99              		.cfi_offset 5, -8
 100              		.cfi_offset 14, -4
  95:Src/canopen.cpp ****     // Initialize length to 0
  96:Src/canopen.cpp ****     if(length) *length = 0;
 101              		.loc 1 96 5 is_stmt 1 view .LVU15
 102 0002 1546     		mov	r5, r2
 103 0004 0AB1     		cbz	r2, .L10
 104              		.loc 1 96 16 discriminator 1 view .LVU16
 105              		.loc 1 96 24 is_stmt 0 discriminator 1 view .LVU17
 106 0006 0023     		movs	r3, #0
 107 0008 1380     		strh	r3, [r2]	@ movhi
 108              	.L10:
  97:Src/canopen.cpp ****     
  98:Src/canopen.cpp ****     // Find entry and validate access rights
  99:Src/canopen.cpp ****     const OD_Entry_t* entry = OD_FindEntry(index, subindex);
 109              		.loc 1 99 5 is_stmt 1 view .LVU18
 110              		.loc 1 99 43 is_stmt 0 view .LVU19
 111 000a CCB2     		uxtb	r4, r1
 112 000c 2146     		mov	r1, r4
 113              	.LVL7:
 114              		.loc 1 99 43 view .LVU20
 115 000e FFF7FEFF 		bl	_Z12OD_FindEntryth
 116              	.LVL8:
 100:Src/canopen.cpp ****     if(!entry || !(entry->type_access & OD_ACCESS_RO)) {
 117              		.loc 1 100 5 is_stmt 1 view .LVU21
 118 0012 0346     		mov	r3, r0
 119 0014 B0B1     		cbz	r0, .L17
 120              		.loc 1 100 27 is_stmt 0 discriminator 1 view .LVU22
 121 0016 C278     		ldrb	r2, [r0, #3]	@ zero_extendqisi2
 122              		.loc 1 100 15 discriminator 1 view .LVU23
 123 0018 12F0010F 		tst	r2, #1
 124 001c 14D0     		beq	.L18
 101:Src/canopen.cpp ****         return 0;
 102:Src/canopen.cpp ****     }
ARM GAS  /tmp/ccUQw2ZB.s 			page 5


 103:Src/canopen.cpp ****     
 104:Src/canopen.cpp ****     // Handle array access
 105:Src/canopen.cpp ****     uint8_t array_index = (entry->subindex > 0) ? subindex : 0;
 125              		.loc 1 105 5 is_stmt 1 view .LVU24
 126              		.loc 1 105 35 is_stmt 0 view .LVU25
 127 001e 8178     		ldrb	r1, [r0, #2]	@ zero_extendqisi2
 128              		.loc 1 105 13 view .LVU26
 129 0020 B1B9     		cbnz	r1, .L12
 130              	.L16:
 106:Src/canopen.cpp ****     if(array_index >= entry->subindex && entry->subindex > 0) {
 107:Src/canopen.cpp ****         return 0;
 108:Src/canopen.cpp ****     }
 109:Src/canopen.cpp ****     
 110:Src/canopen.cpp ****     // Read value based on data type
 111:Src/canopen.cpp ****     if(entry->type_access & OD_TYPE_INT32) {
 131              		.loc 1 111 5 is_stmt 1 view .LVU27
 132 0022 12F0200F 		tst	r2, #32
 133 0026 06D0     		beq	.L13
 112:Src/canopen.cpp ****         if(length) *length = 4;
 134              		.loc 1 112 9 view .LVU28
 135 0028 0DB1     		cbz	r5, .L14
 136              		.loc 1 112 20 discriminator 1 view .LVU29
 137              		.loc 1 112 28 is_stmt 0 discriminator 1 view .LVU30
 138 002a 0422     		movs	r2, #4
 139 002c 2A80     		strh	r2, [r5]	@ movhi
 140              	.L14:
 113:Src/canopen.cpp ****         return ((int32_t*)entry->data)[array_index];
 141              		.loc 1 113 9 is_stmt 1 view .LVU31
 142              		.loc 1 113 51 is_stmt 0 view .LVU32
 143 002e 5B68     		ldr	r3, [r3, #4]
 144 0030 53F82100 		ldr	r0, [r3, r1, lsl #2]
 145              	.LVL9:
 146              		.loc 1 113 51 view .LVU33
 147 0034 09E0     		b	.L9
 148              	.LVL10:
 149              	.L13:
 114:Src/canopen.cpp ****     } else {
 115:Src/canopen.cpp ****         if(length) *length = 2;
 150              		.loc 1 115 9 is_stmt 1 view .LVU34
 151 0036 0DB1     		cbz	r5, .L15
 152              		.loc 1 115 20 discriminator 1 view .LVU35
 153              		.loc 1 115 28 is_stmt 0 discriminator 1 view .LVU36
 154 0038 0222     		movs	r2, #2
 155 003a 2A80     		strh	r2, [r5]	@ movhi
 156              	.L15:
 116:Src/canopen.cpp ****         return ((int16_t*)entry->data)[array_index];
 157              		.loc 1 116 9 is_stmt 1 view .LVU37
 158              		.loc 1 116 51 is_stmt 0 view .LVU38
 159 003c 5B68     		ldr	r3, [r3, #4]
 160 003e 33F91100 		ldrsh	r0, [r3, r1, lsl #1]
 161              	.LVL11:
 162              		.loc 1 116 51 view .LVU39
 163 0042 02E0     		b	.L9
 164              	.LVL12:
 165              	.L17:
 101:Src/canopen.cpp ****     }
 166              		.loc 1 101 16 view .LVU40
ARM GAS  /tmp/ccUQw2ZB.s 			page 6


 167 0044 0020     		movs	r0, #0
 168              	.LVL13:
 101:Src/canopen.cpp ****     }
 169              		.loc 1 101 16 view .LVU41
 170 0046 00E0     		b	.L9
 171              	.LVL14:
 172              	.L18:
 101:Src/canopen.cpp ****     }
 173              		.loc 1 101 16 view .LVU42
 174 0048 0020     		movs	r0, #0
 175              	.LVL15:
 176              	.L9:
 117:Src/canopen.cpp ****     }
 118:Src/canopen.cpp **** }
 177              		.loc 1 118 1 view .LVU43
 178 004a 38BD     		pop	{r3, r4, r5, pc}
 179              	.LVL16:
 180              	.L19:
 107:Src/canopen.cpp ****     }
 181              		.loc 1 107 16 view .LVU44
 182 004c 0020     		movs	r0, #0
 183              	.LVL17:
 107:Src/canopen.cpp ****     }
 184              		.loc 1 107 16 view .LVU45
 185 004e FCE7     		b	.L9
 186              	.LVL18:
 187              	.L12:
 106:Src/canopen.cpp ****         return 0;
 188              		.loc 1 106 5 is_stmt 1 view .LVU46
 189 0050 8C42     		cmp	r4, r1
 190 0052 FBD2     		bcs	.L19
 105:Src/canopen.cpp ****     if(array_index >= entry->subindex && entry->subindex > 0) {
 191              		.loc 1 105 13 is_stmt 0 view .LVU47
 192 0054 2146     		mov	r1, r4
 193 0056 E4E7     		b	.L16
 194              		.cfi_endproc
 195              	.LFE5763:
 197              		.section	.text._Z8OD_Writettl,"ax",%progbits
 198              		.align	1
 199              		.global	_Z8OD_Writettl
 200              		.syntax unified
 201              		.thumb
 202              		.thumb_func
 203              		.fpu fpv4-sp-d16
 205              	_Z8OD_Writettl:
 206              	.LVL19:
 207              	.LFB5764:
 119:Src/canopen.cpp **** 
 120:Src/canopen.cpp **** // Write value to object dictionary (also update)
 121:Src/canopen.cpp **** bool OD_Write(uint16_t index, uint16_t subindex, int32_t value) {
 208              		.loc 1 121 65 is_stmt 1 view -0
 209              		.cfi_startproc
 210              		@ args = 0, pretend = 0, frame = 0
 211              		@ frame_needed = 0, uses_anonymous_args = 0
 212              		.loc 1 121 65 is_stmt 0 view .LVU49
 213 0000 38B5     		push	{r3, r4, r5, lr}
 214              	.LCFI1:
ARM GAS  /tmp/ccUQw2ZB.s 			page 7


 215              		.cfi_def_cfa_offset 16
 216              		.cfi_offset 3, -16
 217              		.cfi_offset 4, -12
 218              		.cfi_offset 5, -8
 219              		.cfi_offset 14, -4
 220 0002 1546     		mov	r5, r2
 122:Src/canopen.cpp ****     const OD_Entry_t* entry = OD_FindEntry(index, subindex);
 221              		.loc 1 122 5 is_stmt 1 view .LVU50
 222              		.loc 1 122 43 is_stmt 0 view .LVU51
 223 0004 CCB2     		uxtb	r4, r1
 224 0006 2146     		mov	r1, r4
 225              	.LVL20:
 226              		.loc 1 122 43 view .LVU52
 227 0008 FFF7FEFF 		bl	_Z12OD_FindEntryth
 228              	.LVL21:
 123:Src/canopen.cpp ****     if(!entry || !(entry->type_access & OD_ACCESS_WO)) {
 229              		.loc 1 123 5 is_stmt 1 view .LVU53
 230 000c 80B1     		cbz	r0, .L26
 231 000e 0346     		mov	r3, r0
 232              		.loc 1 123 27 is_stmt 0 discriminator 1 view .LVU54
 233 0010 C178     		ldrb	r1, [r0, #3]	@ zero_extendqisi2
 234              		.loc 1 123 15 discriminator 1 view .LVU55
 235 0012 11F0020F 		tst	r1, #2
 236 0016 0DD0     		beq	.L27
 124:Src/canopen.cpp ****         return false;
 125:Src/canopen.cpp ****     }
 126:Src/canopen.cpp ****     
 127:Src/canopen.cpp ****     // If entry is array type (subindex > 0), use subindex as array index
 128:Src/canopen.cpp ****     uint8_t array_index = (entry->subindex > 0) ? subindex : 0;
 237              		.loc 1 128 5 is_stmt 1 view .LVU56
 238              		.loc 1 128 35 is_stmt 0 view .LVU57
 239 0018 8278     		ldrb	r2, [r0, #2]	@ zero_extendqisi2
 240              		.loc 1 128 13 view .LVU58
 241 001a 7AB9     		cbnz	r2, .L23
 242              	.L25:
 129:Src/canopen.cpp ****     if(array_index >= entry->subindex && entry->subindex > 0) {
 130:Src/canopen.cpp ****         return false;
 131:Src/canopen.cpp ****     }
 132:Src/canopen.cpp ****     
 133:Src/canopen.cpp ****     // Write based on data type
 134:Src/canopen.cpp ****     if(entry->type_access & OD_TYPE_INT32) {
 243              		.loc 1 134 5 is_stmt 1 view .LVU59
 244 001c 11F0200F 		tst	r1, #32
 135:Src/canopen.cpp ****         ((int32_t*)entry->data)[array_index] = value;
 245              		.loc 1 135 9 view .LVU60
 246              		.loc 1 135 46 is_stmt 0 view .LVU61
 247 0020 5B68     		ldr	r3, [r3, #4]
 248 0022 14BF     		ite	ne
 249 0024 43F82250 		strne	r5, [r3, r2, lsl #2]
 136:Src/canopen.cpp ****     } else {
 137:Src/canopen.cpp ****         ((int16_t*)entry->data)[array_index] = (int16_t)value;
 250              		.loc 1 137 9 is_stmt 1 view .LVU62
 251              		.loc 1 137 46 is_stmt 0 view .LVU63
 252 0028 23F81250 		strheq	r5, [r3, r2, lsl #1]	@ movhi
 138:Src/canopen.cpp ****     }
 139:Src/canopen.cpp ****     
 140:Src/canopen.cpp ****     return true;
ARM GAS  /tmp/ccUQw2ZB.s 			page 8


 253              		.loc 1 140 12 view .LVU64
 254 002c 0120     		movs	r0, #1
 255              	.LVL22:
 256              	.L29:
 141:Src/canopen.cpp **** }
 257              		.loc 1 141 1 view .LVU65
 258 002e 38BD     		pop	{r3, r4, r5, pc}
 259              	.LVL23:
 260              	.L26:
 124:Src/canopen.cpp ****     }
 261              		.loc 1 124 16 view .LVU66
 262 0030 0020     		movs	r0, #0
 263              	.LVL24:
 124:Src/canopen.cpp ****     }
 264              		.loc 1 124 16 view .LVU67
 265 0032 FCE7     		b	.L29
 266              	.LVL25:
 267              	.L27:
 124:Src/canopen.cpp ****     }
 268              		.loc 1 124 16 view .LVU68
 269 0034 0020     		movs	r0, #0
 270              	.LVL26:
 124:Src/canopen.cpp ****     }
 271              		.loc 1 124 16 view .LVU69
 272 0036 FAE7     		b	.L29
 273              	.LVL27:
 274              	.L28:
 130:Src/canopen.cpp ****     }
 275              		.loc 1 130 16 view .LVU70
 276 0038 0020     		movs	r0, #0
 277              	.LVL28:
 130:Src/canopen.cpp ****     }
 278              		.loc 1 130 16 view .LVU71
 279 003a F8E7     		b	.L29
 280              	.LVL29:
 281              	.L23:
 129:Src/canopen.cpp ****         return false;
 282              		.loc 1 129 5 is_stmt 1 view .LVU72
 283 003c 9442     		cmp	r4, r2
 284 003e FBD2     		bcs	.L28
 128:Src/canopen.cpp ****     if(array_index >= entry->subindex && entry->subindex > 0) {
 285              		.loc 1 128 13 is_stmt 0 view .LVU73
 286 0040 2246     		mov	r2, r4
 287 0042 EBE7     		b	.L25
 288              		.cfi_endproc
 289              	.LFE5764:
 291              		.section	.text._Z8PDO_ReadhPt,"ax",%progbits
 292              		.align	1
 293              		.global	_Z8PDO_ReadhPt
 294              		.syntax unified
 295              		.thumb
 296              		.thumb_func
 297              		.fpu fpv4-sp-d16
 299              	_Z8PDO_ReadhPt:
 300              	.LVL30:
 301              	.LFB5765:
 142:Src/canopen.cpp **** 
ARM GAS  /tmp/ccUQw2ZB.s 			page 9


 143:Src/canopen.cpp **** 
 144:Src/canopen.cpp **** 
 145:Src/canopen.cpp **** int32_t PDO_Read(uint8_t channel, uint16_t *length) {
 302              		.loc 1 145 53 is_stmt 1 view -0
 303              		.cfi_startproc
 304              		@ args = 0, pretend = 0, frame = 8
 305              		@ frame_needed = 0, uses_anonymous_args = 0
 306              		.loc 1 145 53 is_stmt 0 view .LVU75
 307 0000 70B5     		push	{r4, r5, r6, lr}
 308              	.LCFI2:
 309              		.cfi_def_cfa_offset 16
 310              		.cfi_offset 4, -16
 311              		.cfi_offset 5, -12
 312              		.cfi_offset 6, -8
 313              		.cfi_offset 14, -4
 314 0002 82B0     		sub	sp, sp, #8
 315              	.LCFI3:
 316              		.cfi_def_cfa_offset 24
 146:Src/canopen.cpp ****     // Initialize length to 0
 147:Src/canopen.cpp ****     if(length) *length = 0;
 317              		.loc 1 147 5 is_stmt 1 view .LVU76
 318 0004 0C46     		mov	r4, r1
 319 0006 09B1     		cbz	r1, .L32
 320              		.loc 1 147 16 discriminator 1 view .LVU77
 321              		.loc 1 147 24 is_stmt 0 discriminator 1 view .LVU78
 322 0008 0023     		movs	r3, #0
 323 000a 0B80     		strh	r3, [r1]	@ movhi
 324              	.L32:
 148:Src/canopen.cpp ****     
 149:Src/canopen.cpp ****     // Validate channel
 150:Src/canopen.cpp ****     if(channel >= 6) {
 325              		.loc 1 150 5 is_stmt 1 view .LVU79
 326 000c 0528     		cmp	r0, #5
 327 000e 1CD8     		bhi	.L34
 151:Src/canopen.cpp ****         return 0;
 152:Src/canopen.cpp ****     }
 153:Src/canopen.cpp ****     
 154:Src/canopen.cpp ****     // Get mapping configuration
 155:Src/canopen.cpp ****     PDO_Map_t map = scope_map[channel];
 328              		.loc 1 155 5 view .LVU80
 329              		.loc 1 155 15 is_stmt 0 view .LVU81
 330 0010 114B     		ldr	r3, .L40
 331 0012 53F82010 		ldr	r1, [r3, r0, lsl #2]
 332              	.LVL31:
 156:Src/canopen.cpp ****     if(map.raw == 0) {
 333              		.loc 1 156 5 is_stmt 1 view .LVU82
 334              		.loc 1 156 5 is_stmt 0 view .LVU83
 335 0016 D9B1     		cbz	r1, .L35
 157:Src/canopen.cpp ****         return 0;  // Channel not mapped
 158:Src/canopen.cpp ****     }
 159:Src/canopen.cpp ****     
 160:Src/canopen.cpp ****     // Get source parameter directly
 161:Src/canopen.cpp ****     const OD_Entry_t* entry = OD_FindEntry(map.fields.index, map.fields.subindex);
 336              		.loc 1 161 5 is_stmt 1 view .LVU84
 337              		.loc 1 161 43 is_stmt 0 view .LVU85
 338 0018 8DB2     		uxth	r5, r1
 339              		.loc 1 161 73 view .LVU86
ARM GAS  /tmp/ccUQw2ZB.s 			page 10


 340 001a 0E0C     		lsrs	r6, r1, #16
 341              		.loc 1 161 43 view .LVU87
 342 001c C1F30741 		ubfx	r1, r1, #16, #8
 343              	.LVL32:
 344              		.loc 1 161 43 view .LVU88
 345 0020 2846     		mov	r0, r5
 346              	.LVL33:
 347              		.loc 1 161 43 view .LVU89
 348 0022 FFF7FEFF 		bl	_Z12OD_FindEntryth
 349              	.LVL34:
 162:Src/canopen.cpp ****     if(!entry || !(entry->type_access & OD_ACCESS_RO)) {
 350              		.loc 1 162 5 is_stmt 1 view .LVU90
 351 0026 A8B1     		cbz	r0, .L36
 352              		.loc 1 162 15 is_stmt 0 discriminator 1 view .LVU91
 353 0028 C378     		ldrb	r3, [r0, #3]	@ zero_extendqisi2
 354 002a 13F0010F 		tst	r3, #1
 355 002e 01D1     		bne	.L39
 163:Src/canopen.cpp ****         return 0;
 356              		.loc 1 163 16 view .LVU92
 357 0030 0020     		movs	r0, #0
 358              	.LVL35:
 359              		.loc 1 163 16 view .LVU93
 360 0032 0BE0     		b	.L31
 361              	.LVL36:
 362              	.L39:
 164:Src/canopen.cpp ****     }
 165:Src/canopen.cpp ****     
 166:Src/canopen.cpp ****     // Read data with length information
 167:Src/canopen.cpp ****     uint16_t data_length;
 363              		.loc 1 167 5 is_stmt 1 view .LVU94
 168:Src/canopen.cpp ****     int32_t data = OD_Read(map.fields.index, map.fields.subindex, &data_length);
 364              		.loc 1 168 5 view .LVU95
 365              		.loc 1 168 27 is_stmt 0 view .LVU96
 366 0034 0DF10602 		add	r2, sp, #6
 367 0038 3146     		mov	r1, r6
 368 003a 2846     		mov	r0, r5
 369              	.LVL37:
 370              		.loc 1 168 27 view .LVU97
 371 003c FFF7FEFF 		bl	_Z7OD_ReadttPt
 372              	.LVL38:
 169:Src/canopen.cpp ****     
 170:Src/canopen.cpp ****     // Update length if pointer provided
 171:Src/canopen.cpp ****     if(length) *length = data_length;
 373              		.loc 1 171 5 is_stmt 1 view .LVU98
 374 0040 24B1     		cbz	r4, .L31
 375              		.loc 1 171 16 discriminator 1 view .LVU99
 376              		.loc 1 171 24 is_stmt 0 discriminator 1 view .LVU100
 377 0042 BDF80630 		ldrh	r3, [sp, #6]
 378 0046 2380     		strh	r3, [r4]	@ movhi
 379 0048 00E0     		b	.L31
 380              	.LVL39:
 381              	.L34:
 151:Src/canopen.cpp ****     }
 382              		.loc 1 151 16 view .LVU101
 383 004a 0020     		movs	r0, #0
 384              	.LVL40:
 385              	.L31:
ARM GAS  /tmp/ccUQw2ZB.s 			page 11


 172:Src/canopen.cpp ****     
 173:Src/canopen.cpp ****     return data;
 174:Src/canopen.cpp **** }...
 386              		.loc 1 174 1 view .LVU102
 387 004c 02B0     		add	sp, sp, #8
 388              	.LCFI4:
 389              		.cfi_remember_state
 390              		.cfi_def_cfa_offset 16
 391              		@ sp needed
 392 004e 70BD     		pop	{r4, r5, r6, pc}
 393              	.LVL41:
 394              	.L35:
 395              	.LCFI5:
 396              		.cfi_restore_state
 157:Src/canopen.cpp ****         return 0;  // Channel not mapped
 397              		.loc 1 157 16 view .LVU103
 398 0050 0020     		movs	r0, #0
 399              	.LVL42:
 157:Src/canopen.cpp ****         return 0;  // Channel not mapped
 400              		.loc 1 157 16 view .LVU104
 401 0052 FBE7     		b	.L31
 402              	.LVL43:
 403              	.L36:
 163:Src/canopen.cpp ****         return 0;
 404              		.loc 1 163 16 view .LVU105
 405 0054 0020     		movs	r0, #0
 406              	.LVL44:
 163:Src/canopen.cpp ****         return 0;
 407              		.loc 1 163 16 view .LVU106
 408 0056 F9E7     		b	.L31
 409              	.L41:
 410              		.align	2
 411              	.L40:
 412 0058 00000000 		.word	.LANCHOR1
 413              		.cfi_endproc
 414              	.LFE5765:
 416              		.section	.data._ZL9scope_map,"aw"
 417              		.align	2
 418              		.set	.LANCHOR1,. + 0
 421              	_ZL9scope_map:
 422 0000 0040     		.short	16384
 423 0002 0000     		.short	0
 424 0004 0140     		.short	16385
 425 0006 0000     		.short	0
 426 0008 0240     		.short	16386
 427 000a 0000     		.short	0
 428 000c 0000     		.short	0
 429 000e 0000     		.short	0
 430 0010 0000     		.short	0
 431 0012 0000     		.short	0
 432 0014 0000     		.short	0
 433 0016 0000     		.short	0
 434              		.section	.rodata._ZL7OD_List,"a"
 435              		.align	2
 436              		.set	.LANCHOR0,. + 0
 439              	_ZL7OD_List:
 440 0000 0010     		.short	4096
ARM GAS  /tmp/ccUQw2ZB.s 			page 12


 441 0002 00       		.byte	0
 442 0003 11       		.byte	17
 443 0004 00000000 		.word	motor_params
 444 0008 0110     		.short	4097
 445 000a 00       		.byte	0
 446 000b 11       		.byte	17
 447 000c 02000000 		.word	motor_params+2
 448 0010 0210     		.short	4098
 449 0012 00       		.byte	0
 450 0013 13       		.byte	19
 451 0014 04000000 		.word	motor_params+4
 452 0018 0020     		.short	8192
 453 001a 00       		.byte	0
 454 001b 13       		.byte	19
 455 001c 06000000 		.word	motor_params+6
 456 0020 0120     		.short	8193
 457 0022 00       		.byte	0
 458 0023 13       		.byte	19
 459 0024 08000000 		.word	motor_params+8
 460 0028 1020     		.short	8208
 461 002a 00       		.byte	0
 462 002b 13       		.byte	19
 463 002c 0A000000 		.word	motor_params+10
 464 0030 1120     		.short	8209
 465 0032 00       		.byte	0
 466 0033 13       		.byte	19
 467 0034 0C000000 		.word	motor_params+12
 468 0038 1220     		.short	8210
 469 003a 00       		.byte	0
 470 003b 13       		.byte	19
 471 003c 0E000000 		.word	motor_params+14
 472 0040 1320     		.short	8211
 473 0042 00       		.byte	0
 474 0043 13       		.byte	19
 475 0044 10000000 		.word	motor_params+16
 476 0048 2020     		.short	8224
 477 004a 00       		.byte	0
 478 004b 13       		.byte	19
 479 004c 12000000 		.word	motor_params+18
 480 0050 2120     		.short	8225
 481 0052 00       		.byte	0
 482 0053 13       		.byte	19
 483 0054 14000000 		.word	motor_params+20
 484 0058 2220     		.short	8226
 485 005a 00       		.byte	0
 486 005b 13       		.byte	19
 487 005c 16000000 		.word	motor_params+22
 488 0060 2320     		.short	8227
 489 0062 00       		.byte	0
 490 0063 13       		.byte	19
 491 0064 18000000 		.word	motor_params+24
 492 0068 3020     		.short	8240
 493 006a 00       		.byte	0
 494 006b 13       		.byte	19
 495 006c 1A000000 		.word	motor_params+26
 496 0070 3120     		.short	8241
 497 0072 00       		.byte	0
ARM GAS  /tmp/ccUQw2ZB.s 			page 13


 498 0073 13       		.byte	19
 499 0074 1C000000 		.word	motor_params+28
 500 0078 3220     		.short	8242
 501 007a 00       		.byte	0
 502 007b 13       		.byte	19
 503 007c 1E000000 		.word	motor_params+30
 504 0080 3320     		.short	8243
 505 0082 00       		.byte	0
 506 0083 13       		.byte	19
 507 0084 20000000 		.word	motor_params+32
 508 0088 3420     		.short	8244
 509 008a 00       		.byte	0
 510 008b 13       		.byte	19
 511 008c 22000000 		.word	motor_params+34
 512 0090 3520     		.short	8245
 513 0092 00       		.byte	0
 514 0093 13       		.byte	19
 515 0094 24000000 		.word	motor_params+36
 516 0098 4020     		.short	8256
 517 009a 00       		.byte	0
 518 009b 13       		.byte	19
 519 009c 26000000 		.word	motor_params+38
 520 00a0 4120     		.short	8257
 521 00a2 00       		.byte	0
 522 00a3 13       		.byte	19
 523 00a4 28000000 		.word	motor_params+40
 524 00a8 4220     		.short	8258
 525 00aa 00       		.byte	0
 526 00ab 13       		.byte	19
 527 00ac 2A000000 		.word	motor_params+42
 528 00b0 4320     		.short	8259
 529 00b2 00       		.byte	0
 530 00b3 13       		.byte	19
 531 00b4 2C000000 		.word	motor_params+44
 532 00b8 4420     		.short	8260
 533 00ba 00       		.byte	0
 534 00bb 13       		.byte	19
 535 00bc 2E000000 		.word	motor_params+46
 536 00c0 0030     		.short	12288
 537 00c2 00       		.byte	0
 538 00c3 13       		.byte	19
 539 00c4 00000000 		.word	motor_runtime
 540 00c8 0130     		.short	12289
 541 00ca 00       		.byte	0
 542 00cb 11       		.byte	17
 543 00cc 02000000 		.word	motor_runtime+2
 544 00d0 0230     		.short	12290
 545 00d2 00       		.byte	0
 546 00d3 11       		.byte	17
 547 00d4 04000000 		.word	motor_runtime+4
 548 00d8 0330     		.short	12291
 549 00da 00       		.byte	0
 550 00db 11       		.byte	17
 551 00dc 06000000 		.word	motor_runtime+6
 552 00e0 1030     		.short	12304
 553 00e2 00       		.byte	0
 554 00e3 13       		.byte	19
ARM GAS  /tmp/ccUQw2ZB.s 			page 14


 555 00e4 08000000 		.word	motor_runtime+8
 556 00e8 1130     		.short	12305
 557 00ea 00       		.byte	0
 558 00eb 11       		.byte	17
 559 00ec 0A000000 		.word	motor_runtime+10
 560 00f0 1230     		.short	12306
 561 00f2 00       		.byte	0
 562 00f3 11       		.byte	17
 563 00f4 0C000000 		.word	motor_runtime+12
 564 00f8 1330     		.short	12307
 565 00fa 00       		.byte	0
 566 00fb 11       		.byte	17
 567 00fc 0E000000 		.word	motor_runtime+14
 568 0100 2030     		.short	12320
 569 0102 00       		.byte	0
 570 0103 13       		.byte	19
 571 0104 10000000 		.word	motor_runtime+16
 572 0108 2130     		.short	12321
 573 010a 00       		.byte	0
 574 010b 11       		.byte	17
 575 010c 12000000 		.word	motor_runtime+18
 576 0110 2230     		.short	12322
 577 0112 00       		.byte	0
 578 0113 11       		.byte	17
 579 0114 14000000 		.word	motor_runtime+20
 580 0118 2330     		.short	12323
 581 011a 00       		.byte	0
 582 011b 11       		.byte	17
 583 011c 16000000 		.word	motor_runtime+22
 584 0120 3030     		.short	12336
 585 0122 00       		.byte	0
 586 0123 11       		.byte	17
 587 0124 18000000 		.word	motor_runtime+24
 588 0128 3130     		.short	12337
 589 012a 00       		.byte	0
 590 012b 11       		.byte	17
 591 012c 1A000000 		.word	motor_runtime+26
 592 0130 3230     		.short	12338
 593 0132 00       		.byte	0
 594 0133 11       		.byte	17
 595 0134 1C000000 		.word	motor_runtime+28
 596 0138 3330     		.short	12339
 597 013a 00       		.byte	0
 598 013b 11       		.byte	17
 599 013c 1E000000 		.word	motor_runtime+30
 600 0140 0060     		.short	24576
 601 0142 06       		.byte	6
 602 0143 23       		.byte	35
 603 0144 00000000 		.word	_ZL9scope_map
 604              		.text
 605              	.Letext0:
 606              		.file 2 "/usr/share/gcc-arm-none-eabi-10-2020-q4-major/arm-none-eabi/include/machine/_default_type
 607              		.file 3 "/usr/share/gcc-arm-none-eabi-10-2020-q4-major/arm-none-eabi/include/sys/_stdint.h"
 608              		.file 4 "/usr/share/gcc-arm-none-eabi-10-2020-q4-major/arm-none-eabi/include/stdint.h"
 609              		.file 5 "Inc/canopen.hpp"
 610              		.file 6 "/usr/share/gcc-arm-none-eabi-10-2020-q4-major/arm-none-eabi/include/c++/10.2.1/type_trait
 611              		.file 7 "/usr/share/gcc-arm-none-eabi-10-2020-q4-major/arm-none-eabi/include/c++/10.2.1/arm-none-e
ARM GAS  /tmp/ccUQw2ZB.s 			page 15


 612              		.file 8 "/usr/share/gcc-arm-none-eabi-10-2020-q4-major/arm-none-eabi/include/c++/10.2.1/debug/debu
 613              		.file 9 "/usr/share/gcc-arm-none-eabi-10-2020-q4-major/arm-none-eabi/include/c++/10.2.1/cmath"
 614              		.file 10 "/usr/share/gcc-arm-none-eabi-10-2020-q4-major/arm-none-eabi/include/c++/10.2.1/bits/std_
 615              		.file 11 "/usr/share/gcc-arm-none-eabi-10-2020-q4-major/arm-none-eabi/include/c++/10.2.1/bits/exce
 616              		.file 12 "/usr/share/gcc-arm-none-eabi-10-2020-q4-major/arm-none-eabi/include/c++/10.2.1/bits/enab
 617              		.file 13 "/usr/share/gcc-arm-none-eabi-10-2020-q4-major/arm-none-eabi/include/c++/10.2.1/optional"
 618              		.file 14 "/usr/share/gcc-arm-none-eabi-10-2020-q4-major/arm-none-eabi/include/c++/10.2.1/tr1/speci
 619              		.file 15 "/usr/share/gcc-arm-none-eabi-10-2020-q4-major/arm-none-eabi/include/c++/10.2.1/variant"
 620              		.file 16 "/usr/share/gcc-arm-none-eabi-10-2020-q4-major/arm-none-eabi/include/c++/10.2.1/bits/stl_
 621              		.file 17 "/usr/share/gcc-arm-none-eabi-10-2020-q4-major/arm-none-eabi/include/c++/10.2.1/bits/std_
 622              		.file 18 "/usr/share/gcc-arm-none-eabi-10-2020-q4-major/arm-none-eabi/include/c++/10.2.1/cstdlib"
 623              		.file 19 "/usr/share/gcc-arm-none-eabi-10-2020-q4-major/arm-none-eabi/include/c++/10.2.1/bits/algo
 624              		.file 20 "/usr/share/gcc-arm-none-eabi-10-2020-q4-major/arm-none-eabi/include/c++/10.2.1/functiona
 625              		.file 21 "/usr/share/gcc-arm-none-eabi-10-2020-q4-major/arm-none-eabi/include/c++/10.2.1/array"
 626              		.file 22 "/usr/share/gcc-arm-none-eabi-10-2020-q4-major/arm-none-eabi/include/c++/10.2.1/bits/stl_
 627              		.file 23 "/usr/share/gcc-arm-none-eabi-10-2020-q4-major/arm-none-eabi/include/c++/10.2.1/bits/refw
 628              		.file 24 "/usr/share/gcc-arm-none-eabi-10-2020-q4-major/arm-none-eabi/include/c++/10.2.1/cstring"
 629              		.file 25 "/usr/share/gcc-arm-none-eabi-10-2020-q4-major/arm-none-eabi/include/c++/10.2.1/cwchar"
 630              		.file 26 "/usr/share/gcc-arm-none-eabi-10-2020-q4-major/arm-none-eabi/include/c++/10.2.1/clocale"
 631              		.file 27 "/usr/share/gcc-arm-none-eabi-10-2020-q4-major/arm-none-eabi/include/c++/10.2.1/cstdint"
 632              		.file 28 "/usr/share/gcc-arm-none-eabi-10-2020-q4-major/arm-none-eabi/include/c++/10.2.1/string_vi
 633              		.file 29 "/usr/share/gcc-arm-none-eabi-10-2020-q4-major/arm-none-eabi/include/c++/10.2.1/bits/basi
 634              		.file 30 "/usr/share/gcc-arm-none-eabi-10-2020-q4-major/arm-none-eabi/include/c++/10.2.1/cstdio"
 635              		.file 31 "/usr/share/gcc-arm-none-eabi-10-2020-q4-major/arm-none-eabi/include/c++/10.2.1/bits/pars
 636              		.file 32 "/usr/share/gcc-arm-none-eabi-10-2020-q4-major/arm-none-eabi/include/c++/10.2.1/bits/pred
 637              		.file 33 "Drivers/CMSIS/Device/ST/STM32G4xx/Include/stm32g431xx.h"
 638              		.file 34 "/usr/share/gcc-arm-none-eabi-10-2020-q4-major/lib/gcc/arm-none-eabi/10.2.1/include/stdde
 639              		.file 35 "Drivers/STM32G4xx_HAL_Driver/Inc/stm32g4xx_hal_def.h"
 640              		.file 36 "Drivers/STM32G4xx_HAL_Driver/Inc/stm32g4xx_hal_dma.h"
 641              		.file 37 "Drivers/STM32G4xx_HAL_Driver/Inc/stm32g4xx_hal_spi.h"
 642              		.file 38 "Drivers/STM32G4xx_HAL_Driver/Inc/stm32g4xx_hal_tim.h"
 643              		.file 39 "Drivers/STM32G4xx_HAL_Driver/Inc/stm32g4xx_ll_tim.h"
 644              		.file 40 "Drivers/STM32G4xx_HAL_Driver/Inc/stm32g4xx_ll_usart.h"
 645              		.file 41 "Drivers/STM32G4xx_HAL_Driver/Inc/stm32g4xx_ll_dma.h"
 646              		.file 42 "Inc/mc_type.h"
 647              		.file 43 "/usr/share/gcc-arm-none-eabi-10-2020-q4-major/arm-none-eabi/include/sys/_types.h"
 648              		.file 44 "/usr/share/gcc-arm-none-eabi-10-2020-q4-major/arm-none-eabi/include/sys/reent.h"
 649              		.file 45 "/usr/share/gcc-arm-none-eabi-10-2020-q4-major/arm-none-eabi/include/sys/lock.h"
 650              		.file 46 "/usr/share/gcc-arm-none-eabi-10-2020-q4-major/arm-none-eabi/include/math.h"
 651              		.file 47 "/usr/share/gcc-arm-none-eabi-10-2020-q4-major/arm-none-eabi/include/stdlib.h"
 652              		.file 48 "/usr/share/gcc-arm-none-eabi-10-2020-q4-major/arm-none-eabi/include/c++/10.2.1/math.h"
 653              		.file 49 "Inc/main.h"
 654              		.file 50 "Inc/task_timer.hpp"
 655              		.file 51 "Inc/interfaces.hpp"
 656              		.file 52 "Inc/component.hpp"
 657              		.file 53 "Middlewares/Third_Party/FreeRTOS/Source/include/task.h"
 658              		.file 54 "Middlewares/Third_Party/FreeRTOS/Source/CMSIS_RTOS/cmsis_os.h"
 659              		.file 55 "Inc/utils.hpp"
 660              		.file 56 "Inc/axis.hpp"
 661              		.file 57 "Inc/encoder.hpp"
 662              		.file 58 "Inc/controller.hpp"
 663              		.file 59 "Inc/motor.hpp"
 664              		.file 60 "/usr/share/gcc-arm-none-eabi-10-2020-q4-major/arm-none-eabi/include/c++/10.2.1/pstl/exec
 665              		.file 61 "/usr/share/gcc-arm-none-eabi-10-2020-q4-major/arm-none-eabi/include/string.h"
 666              		.file 62 "/usr/share/gcc-arm-none-eabi-10-2020-q4-major/lib/gcc/arm-none-eabi/10.2.1/include/stdar
 667              		.file 63 "/usr/share/gcc-arm-none-eabi-10-2020-q4-major/arm-none-eabi/include/wchar.h"
 668              		.file 64 "/usr/share/gcc-arm-none-eabi-10-2020-q4-major/arm-none-eabi/include/locale.h"
ARM GAS  /tmp/ccUQw2ZB.s 			page 16


 669              		.file 65 "/usr/share/gcc-arm-none-eabi-10-2020-q4-major/arm-none-eabi/include/stdio.h"
 670              		.file 66 "Inc/main_.hpp"
 671              		.file 67 "/usr/share/gcc-arm-none-eabi-10-2020-q4-major/arm-none-eabi/include/c++/10.2.1/stdlib.h"
 672              		.file 68 "<built-in>"
ARM GAS  /tmp/ccUQw2ZB.s 			page 17

