ARM GAS  /tmp/ccIrndB6.s 			page 1


   1              		.cpu cortex-m4
   2              		.eabi_attribute 27, 1
   3              		.eabi_attribute 28, 1
   4              		.eabi_attribute 20, 1
   5              		.eabi_attribute 21, 1
   6              		.eabi_attribute 23, 3
   7              		.eabi_attribute 24, 1
   8              		.eabi_attribute 25, 1
   9              		.eabi_attribute 26, 1
  10              		.eabi_attribute 30, 6
  11              		.eabi_attribute 34, 1
  12              		.eabi_attribute 18, 2
  13              		.file	"controller.cpp"
  14              		.text
  15              	.Ltext0:
  16              		.cfi_sections	.debug_frame
  17              		.section	.text._ZSt3absf,"axG",%progbits,_ZSt3absf,comdat
  18              		.align	1
  19              		.weak	_ZSt3absf
  20              		.arch armv7e-m
  21              		.syntax unified
  22              		.thumb
  23              		.thumb_func
  24              		.fpu fpv4-sp-d16
  26              	_ZSt3absf:
  27              	.LFB376:
  28              		.file 1 "/usr/share/gcc-arm-none-eabi-10-2020-q4-major/arm-none-eabi/include/c++/10.2.1/bits/std_a
   1:/usr/share/gcc-arm-none-eabi-10-2020-q4-major/arm-none-eabi/include/c++/10.2.1/bits/std_abs.h **** // -*- C++ -*- C library enhancements header.
   2:/usr/share/gcc-arm-none-eabi-10-2020-q4-major/arm-none-eabi/include/c++/10.2.1/bits/std_abs.h **** 
   3:/usr/share/gcc-arm-none-eabi-10-2020-q4-major/arm-none-eabi/include/c++/10.2.1/bits/std_abs.h **** // Copyright (C) 2016-2020 Free Software Foundation, Inc.
   4:/usr/share/gcc-arm-none-eabi-10-2020-q4-major/arm-none-eabi/include/c++/10.2.1/bits/std_abs.h **** //
   5:/usr/share/gcc-arm-none-eabi-10-2020-q4-major/arm-none-eabi/include/c++/10.2.1/bits/std_abs.h **** // This file is part of the GNU ISO C++ Library.  This library is free
   6:/usr/share/gcc-arm-none-eabi-10-2020-q4-major/arm-none-eabi/include/c++/10.2.1/bits/std_abs.h **** // software; you can redistribute it and/or modify it under the
   7:/usr/share/gcc-arm-none-eabi-10-2020-q4-major/arm-none-eabi/include/c++/10.2.1/bits/std_abs.h **** // terms of the GNU General Public License as published by the
   8:/usr/share/gcc-arm-none-eabi-10-2020-q4-major/arm-none-eabi/include/c++/10.2.1/bits/std_abs.h **** // Free Software Foundation; either version 3, or (at your option)
   9:/usr/share/gcc-arm-none-eabi-10-2020-q4-major/arm-none-eabi/include/c++/10.2.1/bits/std_abs.h **** // any later version.
  10:/usr/share/gcc-arm-none-eabi-10-2020-q4-major/arm-none-eabi/include/c++/10.2.1/bits/std_abs.h **** 
  11:/usr/share/gcc-arm-none-eabi-10-2020-q4-major/arm-none-eabi/include/c++/10.2.1/bits/std_abs.h **** // This library is distributed in the hope that it will be useful,
  12:/usr/share/gcc-arm-none-eabi-10-2020-q4-major/arm-none-eabi/include/c++/10.2.1/bits/std_abs.h **** // but WITHOUT ANY WARRANTY; without even the implied warranty of
  13:/usr/share/gcc-arm-none-eabi-10-2020-q4-major/arm-none-eabi/include/c++/10.2.1/bits/std_abs.h **** // MERCHANTABILITY or FITNESS FOR A PARTICULAR PURPOSE.  See the
  14:/usr/share/gcc-arm-none-eabi-10-2020-q4-major/arm-none-eabi/include/c++/10.2.1/bits/std_abs.h **** // GNU General Public License for more details.
  15:/usr/share/gcc-arm-none-eabi-10-2020-q4-major/arm-none-eabi/include/c++/10.2.1/bits/std_abs.h **** 
  16:/usr/share/gcc-arm-none-eabi-10-2020-q4-major/arm-none-eabi/include/c++/10.2.1/bits/std_abs.h **** // Under Section 7 of GPL version 3, you are granted additional
  17:/usr/share/gcc-arm-none-eabi-10-2020-q4-major/arm-none-eabi/include/c++/10.2.1/bits/std_abs.h **** // permissions described in the GCC Runtime Library Exception, version
  18:/usr/share/gcc-arm-none-eabi-10-2020-q4-major/arm-none-eabi/include/c++/10.2.1/bits/std_abs.h **** // 3.1, as published by the Free Software Foundation.
  19:/usr/share/gcc-arm-none-eabi-10-2020-q4-major/arm-none-eabi/include/c++/10.2.1/bits/std_abs.h **** 
  20:/usr/share/gcc-arm-none-eabi-10-2020-q4-major/arm-none-eabi/include/c++/10.2.1/bits/std_abs.h **** // You should have received a copy of the GNU General Public License and
  21:/usr/share/gcc-arm-none-eabi-10-2020-q4-major/arm-none-eabi/include/c++/10.2.1/bits/std_abs.h **** // a copy of the GCC Runtime Library Exception along with this program;
  22:/usr/share/gcc-arm-none-eabi-10-2020-q4-major/arm-none-eabi/include/c++/10.2.1/bits/std_abs.h **** // see the files COPYING3 and COPYING.RUNTIME respectively.  If not, see
  23:/usr/share/gcc-arm-none-eabi-10-2020-q4-major/arm-none-eabi/include/c++/10.2.1/bits/std_abs.h **** // <http://www.gnu.org/licenses/>.
  24:/usr/share/gcc-arm-none-eabi-10-2020-q4-major/arm-none-eabi/include/c++/10.2.1/bits/std_abs.h **** 
  25:/usr/share/gcc-arm-none-eabi-10-2020-q4-major/arm-none-eabi/include/c++/10.2.1/bits/std_abs.h **** /** @file include/bits/std_abs.h
  26:/usr/share/gcc-arm-none-eabi-10-2020-q4-major/arm-none-eabi/include/c++/10.2.1/bits/std_abs.h ****  *  This is an internal header file, included by other library headers.
  27:/usr/share/gcc-arm-none-eabi-10-2020-q4-major/arm-none-eabi/include/c++/10.2.1/bits/std_abs.h ****  *  Do not attempt to use it directly. @headername{cmath, cstdlib}
  28:/usr/share/gcc-arm-none-eabi-10-2020-q4-major/arm-none-eabi/include/c++/10.2.1/bits/std_abs.h ****  */
  29:/usr/share/gcc-arm-none-eabi-10-2020-q4-major/arm-none-eabi/include/c++/10.2.1/bits/std_abs.h **** 
  30:/usr/share/gcc-arm-none-eabi-10-2020-q4-major/arm-none-eabi/include/c++/10.2.1/bits/std_abs.h **** #ifndef _GLIBCXX_BITS_STD_ABS_H
ARM GAS  /tmp/ccIrndB6.s 			page 2


  31:/usr/share/gcc-arm-none-eabi-10-2020-q4-major/arm-none-eabi/include/c++/10.2.1/bits/std_abs.h **** #define _GLIBCXX_BITS_STD_ABS_H
  32:/usr/share/gcc-arm-none-eabi-10-2020-q4-major/arm-none-eabi/include/c++/10.2.1/bits/std_abs.h **** 
  33:/usr/share/gcc-arm-none-eabi-10-2020-q4-major/arm-none-eabi/include/c++/10.2.1/bits/std_abs.h **** #pragma GCC system_header
  34:/usr/share/gcc-arm-none-eabi-10-2020-q4-major/arm-none-eabi/include/c++/10.2.1/bits/std_abs.h **** 
  35:/usr/share/gcc-arm-none-eabi-10-2020-q4-major/arm-none-eabi/include/c++/10.2.1/bits/std_abs.h **** #include <bits/c++config.h>
  36:/usr/share/gcc-arm-none-eabi-10-2020-q4-major/arm-none-eabi/include/c++/10.2.1/bits/std_abs.h **** 
  37:/usr/share/gcc-arm-none-eabi-10-2020-q4-major/arm-none-eabi/include/c++/10.2.1/bits/std_abs.h **** #define _GLIBCXX_INCLUDE_NEXT_C_HEADERS
  38:/usr/share/gcc-arm-none-eabi-10-2020-q4-major/arm-none-eabi/include/c++/10.2.1/bits/std_abs.h **** #include_next <stdlib.h>
  39:/usr/share/gcc-arm-none-eabi-10-2020-q4-major/arm-none-eabi/include/c++/10.2.1/bits/std_abs.h **** #ifdef __CORRECT_ISO_CPP_MATH_H_PROTO
  40:/usr/share/gcc-arm-none-eabi-10-2020-q4-major/arm-none-eabi/include/c++/10.2.1/bits/std_abs.h **** # include_next <math.h>
  41:/usr/share/gcc-arm-none-eabi-10-2020-q4-major/arm-none-eabi/include/c++/10.2.1/bits/std_abs.h **** #endif
  42:/usr/share/gcc-arm-none-eabi-10-2020-q4-major/arm-none-eabi/include/c++/10.2.1/bits/std_abs.h **** #undef _GLIBCXX_INCLUDE_NEXT_C_HEADERS
  43:/usr/share/gcc-arm-none-eabi-10-2020-q4-major/arm-none-eabi/include/c++/10.2.1/bits/std_abs.h **** 
  44:/usr/share/gcc-arm-none-eabi-10-2020-q4-major/arm-none-eabi/include/c++/10.2.1/bits/std_abs.h **** #undef abs
  45:/usr/share/gcc-arm-none-eabi-10-2020-q4-major/arm-none-eabi/include/c++/10.2.1/bits/std_abs.h **** 
  46:/usr/share/gcc-arm-none-eabi-10-2020-q4-major/arm-none-eabi/include/c++/10.2.1/bits/std_abs.h **** extern "C++"
  47:/usr/share/gcc-arm-none-eabi-10-2020-q4-major/arm-none-eabi/include/c++/10.2.1/bits/std_abs.h **** {
  48:/usr/share/gcc-arm-none-eabi-10-2020-q4-major/arm-none-eabi/include/c++/10.2.1/bits/std_abs.h **** namespace std _GLIBCXX_VISIBILITY(default)
  49:/usr/share/gcc-arm-none-eabi-10-2020-q4-major/arm-none-eabi/include/c++/10.2.1/bits/std_abs.h **** {
  50:/usr/share/gcc-arm-none-eabi-10-2020-q4-major/arm-none-eabi/include/c++/10.2.1/bits/std_abs.h **** _GLIBCXX_BEGIN_NAMESPACE_VERSION
  51:/usr/share/gcc-arm-none-eabi-10-2020-q4-major/arm-none-eabi/include/c++/10.2.1/bits/std_abs.h **** 
  52:/usr/share/gcc-arm-none-eabi-10-2020-q4-major/arm-none-eabi/include/c++/10.2.1/bits/std_abs.h ****   using ::abs;
  53:/usr/share/gcc-arm-none-eabi-10-2020-q4-major/arm-none-eabi/include/c++/10.2.1/bits/std_abs.h **** 
  54:/usr/share/gcc-arm-none-eabi-10-2020-q4-major/arm-none-eabi/include/c++/10.2.1/bits/std_abs.h **** #ifndef __CORRECT_ISO_CPP_STDLIB_H_PROTO
  55:/usr/share/gcc-arm-none-eabi-10-2020-q4-major/arm-none-eabi/include/c++/10.2.1/bits/std_abs.h ****   inline long
  56:/usr/share/gcc-arm-none-eabi-10-2020-q4-major/arm-none-eabi/include/c++/10.2.1/bits/std_abs.h ****   abs(long __i) { return __builtin_labs(__i); }
  57:/usr/share/gcc-arm-none-eabi-10-2020-q4-major/arm-none-eabi/include/c++/10.2.1/bits/std_abs.h **** #endif
  58:/usr/share/gcc-arm-none-eabi-10-2020-q4-major/arm-none-eabi/include/c++/10.2.1/bits/std_abs.h **** 
  59:/usr/share/gcc-arm-none-eabi-10-2020-q4-major/arm-none-eabi/include/c++/10.2.1/bits/std_abs.h **** #ifdef _GLIBCXX_USE_LONG_LONG
  60:/usr/share/gcc-arm-none-eabi-10-2020-q4-major/arm-none-eabi/include/c++/10.2.1/bits/std_abs.h ****   inline long long
  61:/usr/share/gcc-arm-none-eabi-10-2020-q4-major/arm-none-eabi/include/c++/10.2.1/bits/std_abs.h ****   abs(long long __x) { return __builtin_llabs (__x); }
  62:/usr/share/gcc-arm-none-eabi-10-2020-q4-major/arm-none-eabi/include/c++/10.2.1/bits/std_abs.h **** #endif
  63:/usr/share/gcc-arm-none-eabi-10-2020-q4-major/arm-none-eabi/include/c++/10.2.1/bits/std_abs.h **** 
  64:/usr/share/gcc-arm-none-eabi-10-2020-q4-major/arm-none-eabi/include/c++/10.2.1/bits/std_abs.h **** // _GLIBCXX_RESOLVE_LIB_DEFECTS
  65:/usr/share/gcc-arm-none-eabi-10-2020-q4-major/arm-none-eabi/include/c++/10.2.1/bits/std_abs.h **** // 2192. Validity and return type of std::abs(0u) is unclear
  66:/usr/share/gcc-arm-none-eabi-10-2020-q4-major/arm-none-eabi/include/c++/10.2.1/bits/std_abs.h **** // 2294. <cstdlib> should declare abs(double)
  67:/usr/share/gcc-arm-none-eabi-10-2020-q4-major/arm-none-eabi/include/c++/10.2.1/bits/std_abs.h **** // 2735. std::abs(short), std::abs(signed char) and others should return int
  68:/usr/share/gcc-arm-none-eabi-10-2020-q4-major/arm-none-eabi/include/c++/10.2.1/bits/std_abs.h **** 
  69:/usr/share/gcc-arm-none-eabi-10-2020-q4-major/arm-none-eabi/include/c++/10.2.1/bits/std_abs.h **** #ifndef __CORRECT_ISO_CPP_MATH_H_PROTO
  70:/usr/share/gcc-arm-none-eabi-10-2020-q4-major/arm-none-eabi/include/c++/10.2.1/bits/std_abs.h ****   inline _GLIBCXX_CONSTEXPR double
  71:/usr/share/gcc-arm-none-eabi-10-2020-q4-major/arm-none-eabi/include/c++/10.2.1/bits/std_abs.h ****   abs(double __x)
  72:/usr/share/gcc-arm-none-eabi-10-2020-q4-major/arm-none-eabi/include/c++/10.2.1/bits/std_abs.h ****   { return __builtin_fabs(__x); }
  73:/usr/share/gcc-arm-none-eabi-10-2020-q4-major/arm-none-eabi/include/c++/10.2.1/bits/std_abs.h **** 
  74:/usr/share/gcc-arm-none-eabi-10-2020-q4-major/arm-none-eabi/include/c++/10.2.1/bits/std_abs.h ****   inline _GLIBCXX_CONSTEXPR float
  75:/usr/share/gcc-arm-none-eabi-10-2020-q4-major/arm-none-eabi/include/c++/10.2.1/bits/std_abs.h ****   abs(float __x)
  76:/usr/share/gcc-arm-none-eabi-10-2020-q4-major/arm-none-eabi/include/c++/10.2.1/bits/std_abs.h ****   { return __builtin_fabsf(__x); }
  29              		.loc 1 76 3
  30              		.cfi_startproc
  31              		@ args = 0, pretend = 0, frame = 8
  32              		@ frame_needed = 1, uses_anonymous_args = 0
  33              		@ link register save eliminated.
  34 0000 80B4     		push	{r7}
  35              	.LCFI0:
  36              		.cfi_def_cfa_offset 4
  37              		.cfi_offset 7, -4
  38 0002 83B0     		sub	sp, sp, #12
  39              	.LCFI1:
ARM GAS  /tmp/ccIrndB6.s 			page 3


  40              		.cfi_def_cfa_offset 16
  41 0004 00AF     		add	r7, sp, #0
  42              	.LCFI2:
  43              		.cfi_def_cfa_register 7
  44 0006 87ED010A 		vstr.32	s0, [r7, #4]
  45              		.loc 1 76 31
  46 000a D7ED017A 		vldr.32	s15, [r7, #4]
  47 000e F0EEE77A 		vabs.f32	s15, s15
  48              		.loc 1 76 34
  49 0012 B0EE670A 		vmov.f32	s0, s15
  50 0016 0C37     		adds	r7, r7, #12
  51              	.LCFI3:
  52              		.cfi_def_cfa_offset 4
  53 0018 BD46     		mov	sp, r7
  54              	.LCFI4:
  55              		.cfi_def_cfa_register 13
  56              		@ sp needed
  57 001a 5DF8047B 		ldr	r7, [sp], #4
  58              	.LCFI5:
  59              		.cfi_restore 7
  60              		.cfi_def_cfa_offset 0
  61 001e 7047     		bx	lr
  62              		.cfi_endproc
  63              	.LFE376:
  65              		.section	.rodata._ZN6__pstl9execution2v1L3seqE,"a"
  66              		.align	2
  69              	_ZN6__pstl9execution2v1L3seqE:
  70 0000 00       		.space	1
  71              		.section	.rodata._ZN6__pstl9execution2v1L3parE,"a"
  72              		.align	2
  75              	_ZN6__pstl9execution2v1L3parE:
  76 0000 00       		.space	1
  77              		.section	.rodata._ZN6__pstl9execution2v1L9par_unseqE,"a"
  78              		.align	2
  81              	_ZN6__pstl9execution2v1L9par_unseqE:
  82 0000 00       		.space	1
  83              		.section	.rodata._ZN6__pstl9execution2v1L5unseqE,"a"
  84              		.align	2
  87              	_ZN6__pstl9execution2v1L5unseqE:
  88 0000 00       		.space	1
  89              		.section	.rodata._ZL16OFFSET_TAB_CCMRx,"a"
  90              		.align	2
  93              	_ZL16OFFSET_TAB_CCMRx:
  94 0000 00000000 		.ascii	"\000\000\000\000\004\004\004\00488"
  94      04040404 
  94      3838
  95              		.section	.rodata._ZL14SHIFT_TAB_OCxx,"a"
  96              		.align	2
  99              	_ZL14SHIFT_TAB_OCxx:
 100 0000 00000800 		.ascii	"\000\000\010\000\000\000\010\000\000\010"
 100      00000800 
 100      0008
 101              		.section	.rodata._ZL14SHIFT_TAB_ICxx,"a"
 102              		.align	2
 105              	_ZL14SHIFT_TAB_ICxx:
 106 0000 00000800 		.ascii	"\000\000\010\000\000\000\010\000\000\000"
 106      00000800 
ARM GAS  /tmp/ccIrndB6.s 			page 4


 106      0000
 107              		.section	.rodata._ZL14SHIFT_TAB_CCxP,"a"
 108              		.align	2
 111              	_ZL14SHIFT_TAB_CCxP:
 112 0000 00020406 		.ascii	"\000\002\004\006\010\012\014\016\020\024"
 112      080A0C0E 
 112      1014
 113              		.section	.rodata._ZL14SHIFT_TAB_OISx,"a"
 114              		.align	2
 117              	_ZL14SHIFT_TAB_OISx:
 118 0000 00010203 		.ascii	"\000\001\002\003\004\005\006\007\010\012"
 118      04050607 
 118      080A
 119              		.section	.rodata._ZL19USART_PRESCALER_TAB,"a"
 120              		.align	2
 123              	_ZL19USART_PRESCALER_TAB:
 124 0000 01000000 		.word	1
 125 0004 02000000 		.word	2
 126 0008 04000000 		.word	4
 127 000c 06000000 		.word	6
 128 0010 08000000 		.word	8
 129 0014 0A000000 		.word	10
 130 0018 0C000000 		.word	12
 131 001c 10000000 		.word	16
 132 0020 20000000 		.word	32
 133 0024 40000000 		.word	64
 134 0028 80000000 		.word	128
 135 002c 00010000 		.word	256
 136              		.section	.rodata._ZL18CHANNEL_OFFSET_TAB,"a"
 137              		.align	2
 140              	_ZL18CHANNEL_OFFSET_TAB:
 141 0000 081C3044 		.ascii	"\010\0340DXl"
 141      586C
 142              		.section	.text._ZSt26__throw_bad_variant_accessPKc,"axG",%progbits,_ZSt26__throw_bad_variant_acces
 143              		.align	1
 144              		.weak	_ZSt26__throw_bad_variant_accessPKc
 145              		.syntax unified
 146              		.thumb
 147              		.thumb_func
 148              		.fpu fpv4-sp-d16
 150              	_ZSt26__throw_bad_variant_accessPKc:
 151              	.LFB4738:
 152              		.file 2 "/usr/share/gcc-arm-none-eabi-10-2020-q4-major/arm-none-eabi/include/c++/10.2.1/variant"
   1:/usr/share/gcc-arm-none-eabi-10-2020-q4-major/arm-none-eabi/include/c++/10.2.1/variant **** // <variant> -*- C++ -*-
   2:/usr/share/gcc-arm-none-eabi-10-2020-q4-major/arm-none-eabi/include/c++/10.2.1/variant **** 
   3:/usr/share/gcc-arm-none-eabi-10-2020-q4-major/arm-none-eabi/include/c++/10.2.1/variant **** // Copyright (C) 2016-2020 Free Software Foundation, Inc.
   4:/usr/share/gcc-arm-none-eabi-10-2020-q4-major/arm-none-eabi/include/c++/10.2.1/variant **** //
   5:/usr/share/gcc-arm-none-eabi-10-2020-q4-major/arm-none-eabi/include/c++/10.2.1/variant **** // This file is part of the GNU ISO C++ Library.  This library is free
   6:/usr/share/gcc-arm-none-eabi-10-2020-q4-major/arm-none-eabi/include/c++/10.2.1/variant **** // software; you can redistribute it and/or modify it under the
   7:/usr/share/gcc-arm-none-eabi-10-2020-q4-major/arm-none-eabi/include/c++/10.2.1/variant **** // terms of the GNU General Public License as published by the
   8:/usr/share/gcc-arm-none-eabi-10-2020-q4-major/arm-none-eabi/include/c++/10.2.1/variant **** // Free Software Foundation; either version 3, or (at your option)
   9:/usr/share/gcc-arm-none-eabi-10-2020-q4-major/arm-none-eabi/include/c++/10.2.1/variant **** // any later version.
  10:/usr/share/gcc-arm-none-eabi-10-2020-q4-major/arm-none-eabi/include/c++/10.2.1/variant **** 
  11:/usr/share/gcc-arm-none-eabi-10-2020-q4-major/arm-none-eabi/include/c++/10.2.1/variant **** // This library is distributed in the hope that it will be useful,
  12:/usr/share/gcc-arm-none-eabi-10-2020-q4-major/arm-none-eabi/include/c++/10.2.1/variant **** // but WITHOUT ANY WARRANTY; without even the implied warranty of
  13:/usr/share/gcc-arm-none-eabi-10-2020-q4-major/arm-none-eabi/include/c++/10.2.1/variant **** // MERCHANTABILITY or FITNESS FOR A PARTICULAR PURPOSE.  See the
  14:/usr/share/gcc-arm-none-eabi-10-2020-q4-major/arm-none-eabi/include/c++/10.2.1/variant **** // GNU General Public License for more details.
ARM GAS  /tmp/ccIrndB6.s 			page 5


  15:/usr/share/gcc-arm-none-eabi-10-2020-q4-major/arm-none-eabi/include/c++/10.2.1/variant **** 
  16:/usr/share/gcc-arm-none-eabi-10-2020-q4-major/arm-none-eabi/include/c++/10.2.1/variant **** // Under Section 7 of GPL version 3, you are granted additional
  17:/usr/share/gcc-arm-none-eabi-10-2020-q4-major/arm-none-eabi/include/c++/10.2.1/variant **** // permissions described in the GCC Runtime Library Exception, version
  18:/usr/share/gcc-arm-none-eabi-10-2020-q4-major/arm-none-eabi/include/c++/10.2.1/variant **** // 3.1, as published by the Free Software Foundation.
  19:/usr/share/gcc-arm-none-eabi-10-2020-q4-major/arm-none-eabi/include/c++/10.2.1/variant **** 
  20:/usr/share/gcc-arm-none-eabi-10-2020-q4-major/arm-none-eabi/include/c++/10.2.1/variant **** // You should have received a copy of the GNU General Public License and
  21:/usr/share/gcc-arm-none-eabi-10-2020-q4-major/arm-none-eabi/include/c++/10.2.1/variant **** // a copy of the GCC Runtime Library Exception along with this program;
  22:/usr/share/gcc-arm-none-eabi-10-2020-q4-major/arm-none-eabi/include/c++/10.2.1/variant **** // see the files COPYING3 and COPYING.RUNTIME respectively.  If not, see
  23:/usr/share/gcc-arm-none-eabi-10-2020-q4-major/arm-none-eabi/include/c++/10.2.1/variant **** // <http://www.gnu.org/licenses/>.
  24:/usr/share/gcc-arm-none-eabi-10-2020-q4-major/arm-none-eabi/include/c++/10.2.1/variant **** 
  25:/usr/share/gcc-arm-none-eabi-10-2020-q4-major/arm-none-eabi/include/c++/10.2.1/variant **** /** @file variant
  26:/usr/share/gcc-arm-none-eabi-10-2020-q4-major/arm-none-eabi/include/c++/10.2.1/variant ****  *  This is the <variant> C++ Library header.
  27:/usr/share/gcc-arm-none-eabi-10-2020-q4-major/arm-none-eabi/include/c++/10.2.1/variant ****  */
  28:/usr/share/gcc-arm-none-eabi-10-2020-q4-major/arm-none-eabi/include/c++/10.2.1/variant **** 
  29:/usr/share/gcc-arm-none-eabi-10-2020-q4-major/arm-none-eabi/include/c++/10.2.1/variant **** #ifndef _GLIBCXX_VARIANT
  30:/usr/share/gcc-arm-none-eabi-10-2020-q4-major/arm-none-eabi/include/c++/10.2.1/variant **** #define _GLIBCXX_VARIANT 1
  31:/usr/share/gcc-arm-none-eabi-10-2020-q4-major/arm-none-eabi/include/c++/10.2.1/variant **** 
  32:/usr/share/gcc-arm-none-eabi-10-2020-q4-major/arm-none-eabi/include/c++/10.2.1/variant **** #pragma GCC system_header
  33:/usr/share/gcc-arm-none-eabi-10-2020-q4-major/arm-none-eabi/include/c++/10.2.1/variant **** 
  34:/usr/share/gcc-arm-none-eabi-10-2020-q4-major/arm-none-eabi/include/c++/10.2.1/variant **** #if __cplusplus >= 201703L
  35:/usr/share/gcc-arm-none-eabi-10-2020-q4-major/arm-none-eabi/include/c++/10.2.1/variant **** 
  36:/usr/share/gcc-arm-none-eabi-10-2020-q4-major/arm-none-eabi/include/c++/10.2.1/variant **** #include <type_traits>
  37:/usr/share/gcc-arm-none-eabi-10-2020-q4-major/arm-none-eabi/include/c++/10.2.1/variant **** #include <utility>
  38:/usr/share/gcc-arm-none-eabi-10-2020-q4-major/arm-none-eabi/include/c++/10.2.1/variant **** #include <bits/enable_special_members.h>
  39:/usr/share/gcc-arm-none-eabi-10-2020-q4-major/arm-none-eabi/include/c++/10.2.1/variant **** #include <bits/functexcept.h>
  40:/usr/share/gcc-arm-none-eabi-10-2020-q4-major/arm-none-eabi/include/c++/10.2.1/variant **** #include <bits/move.h>
  41:/usr/share/gcc-arm-none-eabi-10-2020-q4-major/arm-none-eabi/include/c++/10.2.1/variant **** #include <bits/functional_hash.h>
  42:/usr/share/gcc-arm-none-eabi-10-2020-q4-major/arm-none-eabi/include/c++/10.2.1/variant **** #include <bits/invoke.h>
  43:/usr/share/gcc-arm-none-eabi-10-2020-q4-major/arm-none-eabi/include/c++/10.2.1/variant **** #include <ext/aligned_buffer.h>
  44:/usr/share/gcc-arm-none-eabi-10-2020-q4-major/arm-none-eabi/include/c++/10.2.1/variant **** #include <bits/parse_numbers.h>
  45:/usr/share/gcc-arm-none-eabi-10-2020-q4-major/arm-none-eabi/include/c++/10.2.1/variant **** #include <bits/stl_iterator_base_types.h>
  46:/usr/share/gcc-arm-none-eabi-10-2020-q4-major/arm-none-eabi/include/c++/10.2.1/variant **** #include <bits/stl_iterator_base_funcs.h>
  47:/usr/share/gcc-arm-none-eabi-10-2020-q4-major/arm-none-eabi/include/c++/10.2.1/variant **** #include <bits/stl_construct.h>
  48:/usr/share/gcc-arm-none-eabi-10-2020-q4-major/arm-none-eabi/include/c++/10.2.1/variant **** #if __cplusplus > 201703L
  49:/usr/share/gcc-arm-none-eabi-10-2020-q4-major/arm-none-eabi/include/c++/10.2.1/variant **** # include <compare>
  50:/usr/share/gcc-arm-none-eabi-10-2020-q4-major/arm-none-eabi/include/c++/10.2.1/variant **** #endif
  51:/usr/share/gcc-arm-none-eabi-10-2020-q4-major/arm-none-eabi/include/c++/10.2.1/variant **** 
  52:/usr/share/gcc-arm-none-eabi-10-2020-q4-major/arm-none-eabi/include/c++/10.2.1/variant **** namespace std _GLIBCXX_VISIBILITY(default)
  53:/usr/share/gcc-arm-none-eabi-10-2020-q4-major/arm-none-eabi/include/c++/10.2.1/variant **** {
  54:/usr/share/gcc-arm-none-eabi-10-2020-q4-major/arm-none-eabi/include/c++/10.2.1/variant **** _GLIBCXX_BEGIN_NAMESPACE_VERSION
  55:/usr/share/gcc-arm-none-eabi-10-2020-q4-major/arm-none-eabi/include/c++/10.2.1/variant **** 
  56:/usr/share/gcc-arm-none-eabi-10-2020-q4-major/arm-none-eabi/include/c++/10.2.1/variant **** namespace __detail
  57:/usr/share/gcc-arm-none-eabi-10-2020-q4-major/arm-none-eabi/include/c++/10.2.1/variant **** {
  58:/usr/share/gcc-arm-none-eabi-10-2020-q4-major/arm-none-eabi/include/c++/10.2.1/variant **** namespace __variant
  59:/usr/share/gcc-arm-none-eabi-10-2020-q4-major/arm-none-eabi/include/c++/10.2.1/variant **** {
  60:/usr/share/gcc-arm-none-eabi-10-2020-q4-major/arm-none-eabi/include/c++/10.2.1/variant ****   template<size_t _Np, typename... _Types>
  61:/usr/share/gcc-arm-none-eabi-10-2020-q4-major/arm-none-eabi/include/c++/10.2.1/variant ****     struct _Nth_type;
  62:/usr/share/gcc-arm-none-eabi-10-2020-q4-major/arm-none-eabi/include/c++/10.2.1/variant **** 
  63:/usr/share/gcc-arm-none-eabi-10-2020-q4-major/arm-none-eabi/include/c++/10.2.1/variant ****   template<size_t _Np, typename _First, typename... _Rest>
  64:/usr/share/gcc-arm-none-eabi-10-2020-q4-major/arm-none-eabi/include/c++/10.2.1/variant ****     struct _Nth_type<_Np, _First, _Rest...>
  65:/usr/share/gcc-arm-none-eabi-10-2020-q4-major/arm-none-eabi/include/c++/10.2.1/variant ****     : _Nth_type<_Np-1, _Rest...> { };
  66:/usr/share/gcc-arm-none-eabi-10-2020-q4-major/arm-none-eabi/include/c++/10.2.1/variant **** 
  67:/usr/share/gcc-arm-none-eabi-10-2020-q4-major/arm-none-eabi/include/c++/10.2.1/variant ****   template<typename _First, typename... _Rest>
  68:/usr/share/gcc-arm-none-eabi-10-2020-q4-major/arm-none-eabi/include/c++/10.2.1/variant ****     struct _Nth_type<0, _First, _Rest...>
  69:/usr/share/gcc-arm-none-eabi-10-2020-q4-major/arm-none-eabi/include/c++/10.2.1/variant ****     { using type = _First; };
  70:/usr/share/gcc-arm-none-eabi-10-2020-q4-major/arm-none-eabi/include/c++/10.2.1/variant **** 
  71:/usr/share/gcc-arm-none-eabi-10-2020-q4-major/arm-none-eabi/include/c++/10.2.1/variant **** } // namespace __variant
ARM GAS  /tmp/ccIrndB6.s 			page 6


  72:/usr/share/gcc-arm-none-eabi-10-2020-q4-major/arm-none-eabi/include/c++/10.2.1/variant **** } // namespace __detail
  73:/usr/share/gcc-arm-none-eabi-10-2020-q4-major/arm-none-eabi/include/c++/10.2.1/variant **** 
  74:/usr/share/gcc-arm-none-eabi-10-2020-q4-major/arm-none-eabi/include/c++/10.2.1/variant **** #define __cpp_lib_variant 201606L
  75:/usr/share/gcc-arm-none-eabi-10-2020-q4-major/arm-none-eabi/include/c++/10.2.1/variant **** 
  76:/usr/share/gcc-arm-none-eabi-10-2020-q4-major/arm-none-eabi/include/c++/10.2.1/variant ****   template<typename... _Types> class tuple;
  77:/usr/share/gcc-arm-none-eabi-10-2020-q4-major/arm-none-eabi/include/c++/10.2.1/variant ****   template<typename... _Types> class variant;
  78:/usr/share/gcc-arm-none-eabi-10-2020-q4-major/arm-none-eabi/include/c++/10.2.1/variant ****   template <typename> struct hash;
  79:/usr/share/gcc-arm-none-eabi-10-2020-q4-major/arm-none-eabi/include/c++/10.2.1/variant **** 
  80:/usr/share/gcc-arm-none-eabi-10-2020-q4-major/arm-none-eabi/include/c++/10.2.1/variant ****   template<typename _Variant>
  81:/usr/share/gcc-arm-none-eabi-10-2020-q4-major/arm-none-eabi/include/c++/10.2.1/variant ****     struct variant_size;
  82:/usr/share/gcc-arm-none-eabi-10-2020-q4-major/arm-none-eabi/include/c++/10.2.1/variant **** 
  83:/usr/share/gcc-arm-none-eabi-10-2020-q4-major/arm-none-eabi/include/c++/10.2.1/variant ****   template<typename _Variant>
  84:/usr/share/gcc-arm-none-eabi-10-2020-q4-major/arm-none-eabi/include/c++/10.2.1/variant ****     struct variant_size<const _Variant> : variant_size<_Variant> {};
  85:/usr/share/gcc-arm-none-eabi-10-2020-q4-major/arm-none-eabi/include/c++/10.2.1/variant **** 
  86:/usr/share/gcc-arm-none-eabi-10-2020-q4-major/arm-none-eabi/include/c++/10.2.1/variant ****   template<typename _Variant>
  87:/usr/share/gcc-arm-none-eabi-10-2020-q4-major/arm-none-eabi/include/c++/10.2.1/variant ****     struct variant_size<volatile _Variant> : variant_size<_Variant> {};
  88:/usr/share/gcc-arm-none-eabi-10-2020-q4-major/arm-none-eabi/include/c++/10.2.1/variant **** 
  89:/usr/share/gcc-arm-none-eabi-10-2020-q4-major/arm-none-eabi/include/c++/10.2.1/variant ****   template<typename _Variant>
  90:/usr/share/gcc-arm-none-eabi-10-2020-q4-major/arm-none-eabi/include/c++/10.2.1/variant ****     struct variant_size<const volatile _Variant> : variant_size<_Variant> {};
  91:/usr/share/gcc-arm-none-eabi-10-2020-q4-major/arm-none-eabi/include/c++/10.2.1/variant **** 
  92:/usr/share/gcc-arm-none-eabi-10-2020-q4-major/arm-none-eabi/include/c++/10.2.1/variant ****   template<typename... _Types>
  93:/usr/share/gcc-arm-none-eabi-10-2020-q4-major/arm-none-eabi/include/c++/10.2.1/variant ****     struct variant_size<variant<_Types...>>
  94:/usr/share/gcc-arm-none-eabi-10-2020-q4-major/arm-none-eabi/include/c++/10.2.1/variant ****     : std::integral_constant<size_t, sizeof...(_Types)> {};
  95:/usr/share/gcc-arm-none-eabi-10-2020-q4-major/arm-none-eabi/include/c++/10.2.1/variant **** 
  96:/usr/share/gcc-arm-none-eabi-10-2020-q4-major/arm-none-eabi/include/c++/10.2.1/variant ****   template<typename _Variant>
  97:/usr/share/gcc-arm-none-eabi-10-2020-q4-major/arm-none-eabi/include/c++/10.2.1/variant ****     inline constexpr size_t variant_size_v = variant_size<_Variant>::value;
  98:/usr/share/gcc-arm-none-eabi-10-2020-q4-major/arm-none-eabi/include/c++/10.2.1/variant **** 
  99:/usr/share/gcc-arm-none-eabi-10-2020-q4-major/arm-none-eabi/include/c++/10.2.1/variant ****   template<size_t _Np, typename _Variant>
 100:/usr/share/gcc-arm-none-eabi-10-2020-q4-major/arm-none-eabi/include/c++/10.2.1/variant ****     struct variant_alternative;
 101:/usr/share/gcc-arm-none-eabi-10-2020-q4-major/arm-none-eabi/include/c++/10.2.1/variant **** 
 102:/usr/share/gcc-arm-none-eabi-10-2020-q4-major/arm-none-eabi/include/c++/10.2.1/variant ****   template<size_t _Np, typename _First, typename... _Rest>
 103:/usr/share/gcc-arm-none-eabi-10-2020-q4-major/arm-none-eabi/include/c++/10.2.1/variant ****     struct variant_alternative<_Np, variant<_First, _Rest...>>
 104:/usr/share/gcc-arm-none-eabi-10-2020-q4-major/arm-none-eabi/include/c++/10.2.1/variant ****     : variant_alternative<_Np-1, variant<_Rest...>> {};
 105:/usr/share/gcc-arm-none-eabi-10-2020-q4-major/arm-none-eabi/include/c++/10.2.1/variant **** 
 106:/usr/share/gcc-arm-none-eabi-10-2020-q4-major/arm-none-eabi/include/c++/10.2.1/variant ****   template<typename _First, typename... _Rest>
 107:/usr/share/gcc-arm-none-eabi-10-2020-q4-major/arm-none-eabi/include/c++/10.2.1/variant ****     struct variant_alternative<0, variant<_First, _Rest...>>
 108:/usr/share/gcc-arm-none-eabi-10-2020-q4-major/arm-none-eabi/include/c++/10.2.1/variant ****     { using type = _First; };
 109:/usr/share/gcc-arm-none-eabi-10-2020-q4-major/arm-none-eabi/include/c++/10.2.1/variant **** 
 110:/usr/share/gcc-arm-none-eabi-10-2020-q4-major/arm-none-eabi/include/c++/10.2.1/variant ****   template<size_t _Np, typename _Variant>
 111:/usr/share/gcc-arm-none-eabi-10-2020-q4-major/arm-none-eabi/include/c++/10.2.1/variant ****     using variant_alternative_t =
 112:/usr/share/gcc-arm-none-eabi-10-2020-q4-major/arm-none-eabi/include/c++/10.2.1/variant ****       typename variant_alternative<_Np, _Variant>::type;
 113:/usr/share/gcc-arm-none-eabi-10-2020-q4-major/arm-none-eabi/include/c++/10.2.1/variant **** 
 114:/usr/share/gcc-arm-none-eabi-10-2020-q4-major/arm-none-eabi/include/c++/10.2.1/variant ****   template<size_t _Np, typename _Variant>
 115:/usr/share/gcc-arm-none-eabi-10-2020-q4-major/arm-none-eabi/include/c++/10.2.1/variant ****     struct variant_alternative<_Np, const _Variant>
 116:/usr/share/gcc-arm-none-eabi-10-2020-q4-major/arm-none-eabi/include/c++/10.2.1/variant ****     { using type = add_const_t<variant_alternative_t<_Np, _Variant>>; };
 117:/usr/share/gcc-arm-none-eabi-10-2020-q4-major/arm-none-eabi/include/c++/10.2.1/variant **** 
 118:/usr/share/gcc-arm-none-eabi-10-2020-q4-major/arm-none-eabi/include/c++/10.2.1/variant ****   template<size_t _Np, typename _Variant>
 119:/usr/share/gcc-arm-none-eabi-10-2020-q4-major/arm-none-eabi/include/c++/10.2.1/variant ****     struct variant_alternative<_Np, volatile _Variant>
 120:/usr/share/gcc-arm-none-eabi-10-2020-q4-major/arm-none-eabi/include/c++/10.2.1/variant ****     { using type = add_volatile_t<variant_alternative_t<_Np, _Variant>>; };
 121:/usr/share/gcc-arm-none-eabi-10-2020-q4-major/arm-none-eabi/include/c++/10.2.1/variant **** 
 122:/usr/share/gcc-arm-none-eabi-10-2020-q4-major/arm-none-eabi/include/c++/10.2.1/variant ****   template<size_t _Np, typename _Variant>
 123:/usr/share/gcc-arm-none-eabi-10-2020-q4-major/arm-none-eabi/include/c++/10.2.1/variant ****     struct variant_alternative<_Np, const volatile _Variant>
 124:/usr/share/gcc-arm-none-eabi-10-2020-q4-major/arm-none-eabi/include/c++/10.2.1/variant ****     { using type = add_cv_t<variant_alternative_t<_Np, _Variant>>; };
 125:/usr/share/gcc-arm-none-eabi-10-2020-q4-major/arm-none-eabi/include/c++/10.2.1/variant **** 
 126:/usr/share/gcc-arm-none-eabi-10-2020-q4-major/arm-none-eabi/include/c++/10.2.1/variant ****   inline constexpr size_t variant_npos = -1;
 127:/usr/share/gcc-arm-none-eabi-10-2020-q4-major/arm-none-eabi/include/c++/10.2.1/variant **** 
 128:/usr/share/gcc-arm-none-eabi-10-2020-q4-major/arm-none-eabi/include/c++/10.2.1/variant ****   template<size_t _Np, typename... _Types>
ARM GAS  /tmp/ccIrndB6.s 			page 7


 129:/usr/share/gcc-arm-none-eabi-10-2020-q4-major/arm-none-eabi/include/c++/10.2.1/variant ****     constexpr variant_alternative_t<_Np, variant<_Types...>>&
 130:/usr/share/gcc-arm-none-eabi-10-2020-q4-major/arm-none-eabi/include/c++/10.2.1/variant ****     get(variant<_Types...>&);
 131:/usr/share/gcc-arm-none-eabi-10-2020-q4-major/arm-none-eabi/include/c++/10.2.1/variant **** 
 132:/usr/share/gcc-arm-none-eabi-10-2020-q4-major/arm-none-eabi/include/c++/10.2.1/variant ****   template<size_t _Np, typename... _Types>
 133:/usr/share/gcc-arm-none-eabi-10-2020-q4-major/arm-none-eabi/include/c++/10.2.1/variant ****     constexpr variant_alternative_t<_Np, variant<_Types...>>&&
 134:/usr/share/gcc-arm-none-eabi-10-2020-q4-major/arm-none-eabi/include/c++/10.2.1/variant ****     get(variant<_Types...>&&);
 135:/usr/share/gcc-arm-none-eabi-10-2020-q4-major/arm-none-eabi/include/c++/10.2.1/variant **** 
 136:/usr/share/gcc-arm-none-eabi-10-2020-q4-major/arm-none-eabi/include/c++/10.2.1/variant ****   template<size_t _Np, typename... _Types>
 137:/usr/share/gcc-arm-none-eabi-10-2020-q4-major/arm-none-eabi/include/c++/10.2.1/variant ****     constexpr variant_alternative_t<_Np, variant<_Types...>> const&
 138:/usr/share/gcc-arm-none-eabi-10-2020-q4-major/arm-none-eabi/include/c++/10.2.1/variant ****     get(const variant<_Types...>&);
 139:/usr/share/gcc-arm-none-eabi-10-2020-q4-major/arm-none-eabi/include/c++/10.2.1/variant **** 
 140:/usr/share/gcc-arm-none-eabi-10-2020-q4-major/arm-none-eabi/include/c++/10.2.1/variant ****   template<size_t _Np, typename... _Types>
 141:/usr/share/gcc-arm-none-eabi-10-2020-q4-major/arm-none-eabi/include/c++/10.2.1/variant ****     constexpr variant_alternative_t<_Np, variant<_Types...>> const&&
 142:/usr/share/gcc-arm-none-eabi-10-2020-q4-major/arm-none-eabi/include/c++/10.2.1/variant ****     get(const variant<_Types...>&&);
 143:/usr/share/gcc-arm-none-eabi-10-2020-q4-major/arm-none-eabi/include/c++/10.2.1/variant **** 
 144:/usr/share/gcc-arm-none-eabi-10-2020-q4-major/arm-none-eabi/include/c++/10.2.1/variant ****   template<typename _Result_type, typename _Visitor, typename... _Variants>
 145:/usr/share/gcc-arm-none-eabi-10-2020-q4-major/arm-none-eabi/include/c++/10.2.1/variant ****     constexpr decltype(auto)
 146:/usr/share/gcc-arm-none-eabi-10-2020-q4-major/arm-none-eabi/include/c++/10.2.1/variant ****     __do_visit(_Visitor&& __visitor, _Variants&&... __variants);
 147:/usr/share/gcc-arm-none-eabi-10-2020-q4-major/arm-none-eabi/include/c++/10.2.1/variant **** 
 148:/usr/share/gcc-arm-none-eabi-10-2020-q4-major/arm-none-eabi/include/c++/10.2.1/variant ****   template <typename... _Types, typename _Tp>
 149:/usr/share/gcc-arm-none-eabi-10-2020-q4-major/arm-none-eabi/include/c++/10.2.1/variant ****     decltype(auto)
 150:/usr/share/gcc-arm-none-eabi-10-2020-q4-major/arm-none-eabi/include/c++/10.2.1/variant ****     __variant_cast(_Tp&& __rhs)
 151:/usr/share/gcc-arm-none-eabi-10-2020-q4-major/arm-none-eabi/include/c++/10.2.1/variant ****     {
 152:/usr/share/gcc-arm-none-eabi-10-2020-q4-major/arm-none-eabi/include/c++/10.2.1/variant ****       if constexpr (is_lvalue_reference_v<_Tp>)
 153:/usr/share/gcc-arm-none-eabi-10-2020-q4-major/arm-none-eabi/include/c++/10.2.1/variant **** 	{
 154:/usr/share/gcc-arm-none-eabi-10-2020-q4-major/arm-none-eabi/include/c++/10.2.1/variant **** 	  if constexpr (is_const_v<remove_reference_t<_Tp>>)
 155:/usr/share/gcc-arm-none-eabi-10-2020-q4-major/arm-none-eabi/include/c++/10.2.1/variant **** 	    return static_cast<const variant<_Types...>&>(__rhs);
 156:/usr/share/gcc-arm-none-eabi-10-2020-q4-major/arm-none-eabi/include/c++/10.2.1/variant **** 	  else
 157:/usr/share/gcc-arm-none-eabi-10-2020-q4-major/arm-none-eabi/include/c++/10.2.1/variant **** 	    return static_cast<variant<_Types...>&>(__rhs);
 158:/usr/share/gcc-arm-none-eabi-10-2020-q4-major/arm-none-eabi/include/c++/10.2.1/variant **** 	}
 159:/usr/share/gcc-arm-none-eabi-10-2020-q4-major/arm-none-eabi/include/c++/10.2.1/variant ****       else
 160:/usr/share/gcc-arm-none-eabi-10-2020-q4-major/arm-none-eabi/include/c++/10.2.1/variant ****         return static_cast<variant<_Types...>&&>(__rhs);
 161:/usr/share/gcc-arm-none-eabi-10-2020-q4-major/arm-none-eabi/include/c++/10.2.1/variant ****     }
 162:/usr/share/gcc-arm-none-eabi-10-2020-q4-major/arm-none-eabi/include/c++/10.2.1/variant **** 
 163:/usr/share/gcc-arm-none-eabi-10-2020-q4-major/arm-none-eabi/include/c++/10.2.1/variant **** namespace __detail
 164:/usr/share/gcc-arm-none-eabi-10-2020-q4-major/arm-none-eabi/include/c++/10.2.1/variant **** {
 165:/usr/share/gcc-arm-none-eabi-10-2020-q4-major/arm-none-eabi/include/c++/10.2.1/variant **** namespace __variant
 166:/usr/share/gcc-arm-none-eabi-10-2020-q4-major/arm-none-eabi/include/c++/10.2.1/variant **** {
 167:/usr/share/gcc-arm-none-eabi-10-2020-q4-major/arm-none-eabi/include/c++/10.2.1/variant ****   // Returns the first appearence of _Tp in _Types.
 168:/usr/share/gcc-arm-none-eabi-10-2020-q4-major/arm-none-eabi/include/c++/10.2.1/variant ****   // Returns sizeof...(_Types) if _Tp is not in _Types.
 169:/usr/share/gcc-arm-none-eabi-10-2020-q4-major/arm-none-eabi/include/c++/10.2.1/variant ****   template<typename _Tp, typename... _Types>
 170:/usr/share/gcc-arm-none-eabi-10-2020-q4-major/arm-none-eabi/include/c++/10.2.1/variant ****     struct __index_of : std::integral_constant<size_t, 0> {};
 171:/usr/share/gcc-arm-none-eabi-10-2020-q4-major/arm-none-eabi/include/c++/10.2.1/variant **** 
 172:/usr/share/gcc-arm-none-eabi-10-2020-q4-major/arm-none-eabi/include/c++/10.2.1/variant ****   template<typename _Tp, typename... _Types>
 173:/usr/share/gcc-arm-none-eabi-10-2020-q4-major/arm-none-eabi/include/c++/10.2.1/variant ****     inline constexpr size_t __index_of_v = __index_of<_Tp, _Types...>::value;
 174:/usr/share/gcc-arm-none-eabi-10-2020-q4-major/arm-none-eabi/include/c++/10.2.1/variant **** 
 175:/usr/share/gcc-arm-none-eabi-10-2020-q4-major/arm-none-eabi/include/c++/10.2.1/variant ****   template<typename _Tp, typename _First, typename... _Rest>
 176:/usr/share/gcc-arm-none-eabi-10-2020-q4-major/arm-none-eabi/include/c++/10.2.1/variant ****     struct __index_of<_Tp, _First, _Rest...> :
 177:/usr/share/gcc-arm-none-eabi-10-2020-q4-major/arm-none-eabi/include/c++/10.2.1/variant ****       std::integral_constant<size_t, is_same_v<_Tp, _First>
 178:/usr/share/gcc-arm-none-eabi-10-2020-q4-major/arm-none-eabi/include/c++/10.2.1/variant **** 	? 0 : __index_of_v<_Tp, _Rest...> + 1> {};
 179:/usr/share/gcc-arm-none-eabi-10-2020-q4-major/arm-none-eabi/include/c++/10.2.1/variant **** 
 180:/usr/share/gcc-arm-none-eabi-10-2020-q4-major/arm-none-eabi/include/c++/10.2.1/variant ****   // used for raw visitation
 181:/usr/share/gcc-arm-none-eabi-10-2020-q4-major/arm-none-eabi/include/c++/10.2.1/variant ****   struct __variant_cookie {};
 182:/usr/share/gcc-arm-none-eabi-10-2020-q4-major/arm-none-eabi/include/c++/10.2.1/variant ****   // used for raw visitation with indices passed in
 183:/usr/share/gcc-arm-none-eabi-10-2020-q4-major/arm-none-eabi/include/c++/10.2.1/variant ****   struct __variant_idx_cookie { using type = __variant_idx_cookie; };
 184:/usr/share/gcc-arm-none-eabi-10-2020-q4-major/arm-none-eabi/include/c++/10.2.1/variant ****   // Used to enable deduction (and same-type checking) for std::visit:
 185:/usr/share/gcc-arm-none-eabi-10-2020-q4-major/arm-none-eabi/include/c++/10.2.1/variant ****   template<typename> struct __deduce_visit_result { };
ARM GAS  /tmp/ccIrndB6.s 			page 8


 186:/usr/share/gcc-arm-none-eabi-10-2020-q4-major/arm-none-eabi/include/c++/10.2.1/variant **** 
 187:/usr/share/gcc-arm-none-eabi-10-2020-q4-major/arm-none-eabi/include/c++/10.2.1/variant ****   // Visit variants that might be valueless.
 188:/usr/share/gcc-arm-none-eabi-10-2020-q4-major/arm-none-eabi/include/c++/10.2.1/variant ****   template<typename _Visitor, typename... _Variants>
 189:/usr/share/gcc-arm-none-eabi-10-2020-q4-major/arm-none-eabi/include/c++/10.2.1/variant ****     constexpr void
 190:/usr/share/gcc-arm-none-eabi-10-2020-q4-major/arm-none-eabi/include/c++/10.2.1/variant ****     __raw_visit(_Visitor&& __visitor, _Variants&&... __variants)
 191:/usr/share/gcc-arm-none-eabi-10-2020-q4-major/arm-none-eabi/include/c++/10.2.1/variant ****     {
 192:/usr/share/gcc-arm-none-eabi-10-2020-q4-major/arm-none-eabi/include/c++/10.2.1/variant ****       std::__do_visit<__variant_cookie>(std::forward<_Visitor>(__visitor),
 193:/usr/share/gcc-arm-none-eabi-10-2020-q4-major/arm-none-eabi/include/c++/10.2.1/variant **** 				        std::forward<_Variants>(__variants)...);
 194:/usr/share/gcc-arm-none-eabi-10-2020-q4-major/arm-none-eabi/include/c++/10.2.1/variant ****     }
 195:/usr/share/gcc-arm-none-eabi-10-2020-q4-major/arm-none-eabi/include/c++/10.2.1/variant **** 
 196:/usr/share/gcc-arm-none-eabi-10-2020-q4-major/arm-none-eabi/include/c++/10.2.1/variant ****   // Visit variants that might be valueless, passing indices to the visitor.
 197:/usr/share/gcc-arm-none-eabi-10-2020-q4-major/arm-none-eabi/include/c++/10.2.1/variant ****   template<typename _Visitor, typename... _Variants>
 198:/usr/share/gcc-arm-none-eabi-10-2020-q4-major/arm-none-eabi/include/c++/10.2.1/variant ****     constexpr void
 199:/usr/share/gcc-arm-none-eabi-10-2020-q4-major/arm-none-eabi/include/c++/10.2.1/variant ****     __raw_idx_visit(_Visitor&& __visitor, _Variants&&... __variants)
 200:/usr/share/gcc-arm-none-eabi-10-2020-q4-major/arm-none-eabi/include/c++/10.2.1/variant ****     {
 201:/usr/share/gcc-arm-none-eabi-10-2020-q4-major/arm-none-eabi/include/c++/10.2.1/variant ****       std::__do_visit<__variant_idx_cookie>(std::forward<_Visitor>(__visitor),
 202:/usr/share/gcc-arm-none-eabi-10-2020-q4-major/arm-none-eabi/include/c++/10.2.1/variant **** 	  std::forward<_Variants>(__variants)...);
 203:/usr/share/gcc-arm-none-eabi-10-2020-q4-major/arm-none-eabi/include/c++/10.2.1/variant ****     }
 204:/usr/share/gcc-arm-none-eabi-10-2020-q4-major/arm-none-eabi/include/c++/10.2.1/variant **** 
 205:/usr/share/gcc-arm-none-eabi-10-2020-q4-major/arm-none-eabi/include/c++/10.2.1/variant ****   // _Uninitialized<T> is guaranteed to be a trivially destructible type,
 206:/usr/share/gcc-arm-none-eabi-10-2020-q4-major/arm-none-eabi/include/c++/10.2.1/variant ****   // even if T is not.
 207:/usr/share/gcc-arm-none-eabi-10-2020-q4-major/arm-none-eabi/include/c++/10.2.1/variant ****   template<typename _Type, bool = std::is_trivially_destructible_v<_Type>>
 208:/usr/share/gcc-arm-none-eabi-10-2020-q4-major/arm-none-eabi/include/c++/10.2.1/variant ****     struct _Uninitialized;
 209:/usr/share/gcc-arm-none-eabi-10-2020-q4-major/arm-none-eabi/include/c++/10.2.1/variant **** 
 210:/usr/share/gcc-arm-none-eabi-10-2020-q4-major/arm-none-eabi/include/c++/10.2.1/variant ****   template<typename _Type>
 211:/usr/share/gcc-arm-none-eabi-10-2020-q4-major/arm-none-eabi/include/c++/10.2.1/variant ****     struct _Uninitialized<_Type, true>
 212:/usr/share/gcc-arm-none-eabi-10-2020-q4-major/arm-none-eabi/include/c++/10.2.1/variant ****     {
 213:/usr/share/gcc-arm-none-eabi-10-2020-q4-major/arm-none-eabi/include/c++/10.2.1/variant ****       template<typename... _Args>
 214:/usr/share/gcc-arm-none-eabi-10-2020-q4-major/arm-none-eabi/include/c++/10.2.1/variant **** 	constexpr
 215:/usr/share/gcc-arm-none-eabi-10-2020-q4-major/arm-none-eabi/include/c++/10.2.1/variant **** 	_Uninitialized(in_place_index_t<0>, _Args&&... __args)
 216:/usr/share/gcc-arm-none-eabi-10-2020-q4-major/arm-none-eabi/include/c++/10.2.1/variant **** 	: _M_storage(std::forward<_Args>(__args)...)
 217:/usr/share/gcc-arm-none-eabi-10-2020-q4-major/arm-none-eabi/include/c++/10.2.1/variant **** 	{ }
 218:/usr/share/gcc-arm-none-eabi-10-2020-q4-major/arm-none-eabi/include/c++/10.2.1/variant **** 
 219:/usr/share/gcc-arm-none-eabi-10-2020-q4-major/arm-none-eabi/include/c++/10.2.1/variant ****       constexpr const _Type& _M_get() const & noexcept
 220:/usr/share/gcc-arm-none-eabi-10-2020-q4-major/arm-none-eabi/include/c++/10.2.1/variant ****       { return _M_storage; }
 221:/usr/share/gcc-arm-none-eabi-10-2020-q4-major/arm-none-eabi/include/c++/10.2.1/variant **** 
 222:/usr/share/gcc-arm-none-eabi-10-2020-q4-major/arm-none-eabi/include/c++/10.2.1/variant ****       constexpr _Type& _M_get() & noexcept
 223:/usr/share/gcc-arm-none-eabi-10-2020-q4-major/arm-none-eabi/include/c++/10.2.1/variant ****       { return _M_storage; }
 224:/usr/share/gcc-arm-none-eabi-10-2020-q4-major/arm-none-eabi/include/c++/10.2.1/variant **** 
 225:/usr/share/gcc-arm-none-eabi-10-2020-q4-major/arm-none-eabi/include/c++/10.2.1/variant ****       constexpr const _Type&& _M_get() const && noexcept
 226:/usr/share/gcc-arm-none-eabi-10-2020-q4-major/arm-none-eabi/include/c++/10.2.1/variant ****       { return std::move(_M_storage); }
 227:/usr/share/gcc-arm-none-eabi-10-2020-q4-major/arm-none-eabi/include/c++/10.2.1/variant **** 
 228:/usr/share/gcc-arm-none-eabi-10-2020-q4-major/arm-none-eabi/include/c++/10.2.1/variant ****       constexpr _Type&& _M_get() && noexcept
 229:/usr/share/gcc-arm-none-eabi-10-2020-q4-major/arm-none-eabi/include/c++/10.2.1/variant ****       { return std::move(_M_storage); }
 230:/usr/share/gcc-arm-none-eabi-10-2020-q4-major/arm-none-eabi/include/c++/10.2.1/variant **** 
 231:/usr/share/gcc-arm-none-eabi-10-2020-q4-major/arm-none-eabi/include/c++/10.2.1/variant ****       _Type _M_storage;
 232:/usr/share/gcc-arm-none-eabi-10-2020-q4-major/arm-none-eabi/include/c++/10.2.1/variant ****     };
 233:/usr/share/gcc-arm-none-eabi-10-2020-q4-major/arm-none-eabi/include/c++/10.2.1/variant **** 
 234:/usr/share/gcc-arm-none-eabi-10-2020-q4-major/arm-none-eabi/include/c++/10.2.1/variant ****   template<typename _Type>
 235:/usr/share/gcc-arm-none-eabi-10-2020-q4-major/arm-none-eabi/include/c++/10.2.1/variant ****     struct _Uninitialized<_Type, false>
 236:/usr/share/gcc-arm-none-eabi-10-2020-q4-major/arm-none-eabi/include/c++/10.2.1/variant ****     {
 237:/usr/share/gcc-arm-none-eabi-10-2020-q4-major/arm-none-eabi/include/c++/10.2.1/variant ****       template<typename... _Args>
 238:/usr/share/gcc-arm-none-eabi-10-2020-q4-major/arm-none-eabi/include/c++/10.2.1/variant **** 	constexpr
 239:/usr/share/gcc-arm-none-eabi-10-2020-q4-major/arm-none-eabi/include/c++/10.2.1/variant **** 	_Uninitialized(in_place_index_t<0>, _Args&&... __args)
 240:/usr/share/gcc-arm-none-eabi-10-2020-q4-major/arm-none-eabi/include/c++/10.2.1/variant **** 	{
 241:/usr/share/gcc-arm-none-eabi-10-2020-q4-major/arm-none-eabi/include/c++/10.2.1/variant **** 	  ::new ((void*)std::addressof(_M_storage))
 242:/usr/share/gcc-arm-none-eabi-10-2020-q4-major/arm-none-eabi/include/c++/10.2.1/variant **** 	    _Type(std::forward<_Args>(__args)...);
ARM GAS  /tmp/ccIrndB6.s 			page 9


 243:/usr/share/gcc-arm-none-eabi-10-2020-q4-major/arm-none-eabi/include/c++/10.2.1/variant **** 	}
 244:/usr/share/gcc-arm-none-eabi-10-2020-q4-major/arm-none-eabi/include/c++/10.2.1/variant **** 
 245:/usr/share/gcc-arm-none-eabi-10-2020-q4-major/arm-none-eabi/include/c++/10.2.1/variant ****       const _Type& _M_get() const & noexcept
 246:/usr/share/gcc-arm-none-eabi-10-2020-q4-major/arm-none-eabi/include/c++/10.2.1/variant ****       { return *_M_storage._M_ptr(); }
 247:/usr/share/gcc-arm-none-eabi-10-2020-q4-major/arm-none-eabi/include/c++/10.2.1/variant **** 
 248:/usr/share/gcc-arm-none-eabi-10-2020-q4-major/arm-none-eabi/include/c++/10.2.1/variant ****       _Type& _M_get() & noexcept
 249:/usr/share/gcc-arm-none-eabi-10-2020-q4-major/arm-none-eabi/include/c++/10.2.1/variant ****       { return *_M_storage._M_ptr(); }
 250:/usr/share/gcc-arm-none-eabi-10-2020-q4-major/arm-none-eabi/include/c++/10.2.1/variant **** 
 251:/usr/share/gcc-arm-none-eabi-10-2020-q4-major/arm-none-eabi/include/c++/10.2.1/variant ****       const _Type&& _M_get() const && noexcept
 252:/usr/share/gcc-arm-none-eabi-10-2020-q4-major/arm-none-eabi/include/c++/10.2.1/variant ****       { return std::move(*_M_storage._M_ptr()); }
 253:/usr/share/gcc-arm-none-eabi-10-2020-q4-major/arm-none-eabi/include/c++/10.2.1/variant **** 
 254:/usr/share/gcc-arm-none-eabi-10-2020-q4-major/arm-none-eabi/include/c++/10.2.1/variant ****       _Type&& _M_get() && noexcept
 255:/usr/share/gcc-arm-none-eabi-10-2020-q4-major/arm-none-eabi/include/c++/10.2.1/variant ****       { return std::move(*_M_storage._M_ptr()); }
 256:/usr/share/gcc-arm-none-eabi-10-2020-q4-major/arm-none-eabi/include/c++/10.2.1/variant **** 
 257:/usr/share/gcc-arm-none-eabi-10-2020-q4-major/arm-none-eabi/include/c++/10.2.1/variant ****       __gnu_cxx::__aligned_membuf<_Type> _M_storage;
 258:/usr/share/gcc-arm-none-eabi-10-2020-q4-major/arm-none-eabi/include/c++/10.2.1/variant ****     };
 259:/usr/share/gcc-arm-none-eabi-10-2020-q4-major/arm-none-eabi/include/c++/10.2.1/variant **** 
 260:/usr/share/gcc-arm-none-eabi-10-2020-q4-major/arm-none-eabi/include/c++/10.2.1/variant ****   template<typename _Union>
 261:/usr/share/gcc-arm-none-eabi-10-2020-q4-major/arm-none-eabi/include/c++/10.2.1/variant ****     constexpr decltype(auto)
 262:/usr/share/gcc-arm-none-eabi-10-2020-q4-major/arm-none-eabi/include/c++/10.2.1/variant ****     __get(in_place_index_t<0>, _Union&& __u) noexcept
 263:/usr/share/gcc-arm-none-eabi-10-2020-q4-major/arm-none-eabi/include/c++/10.2.1/variant ****     { return std::forward<_Union>(__u)._M_first._M_get(); }
 264:/usr/share/gcc-arm-none-eabi-10-2020-q4-major/arm-none-eabi/include/c++/10.2.1/variant **** 
 265:/usr/share/gcc-arm-none-eabi-10-2020-q4-major/arm-none-eabi/include/c++/10.2.1/variant ****   template<size_t _Np, typename _Union>
 266:/usr/share/gcc-arm-none-eabi-10-2020-q4-major/arm-none-eabi/include/c++/10.2.1/variant ****     constexpr decltype(auto)
 267:/usr/share/gcc-arm-none-eabi-10-2020-q4-major/arm-none-eabi/include/c++/10.2.1/variant ****     __get(in_place_index_t<_Np>, _Union&& __u) noexcept
 268:/usr/share/gcc-arm-none-eabi-10-2020-q4-major/arm-none-eabi/include/c++/10.2.1/variant ****     {
 269:/usr/share/gcc-arm-none-eabi-10-2020-q4-major/arm-none-eabi/include/c++/10.2.1/variant ****       return __variant::__get(in_place_index<_Np-1>,
 270:/usr/share/gcc-arm-none-eabi-10-2020-q4-major/arm-none-eabi/include/c++/10.2.1/variant **** 			      std::forward<_Union>(__u)._M_rest);
 271:/usr/share/gcc-arm-none-eabi-10-2020-q4-major/arm-none-eabi/include/c++/10.2.1/variant ****     }
 272:/usr/share/gcc-arm-none-eabi-10-2020-q4-major/arm-none-eabi/include/c++/10.2.1/variant **** 
 273:/usr/share/gcc-arm-none-eabi-10-2020-q4-major/arm-none-eabi/include/c++/10.2.1/variant ****   // Returns the typed storage for __v.
 274:/usr/share/gcc-arm-none-eabi-10-2020-q4-major/arm-none-eabi/include/c++/10.2.1/variant ****   template<size_t _Np, typename _Variant>
 275:/usr/share/gcc-arm-none-eabi-10-2020-q4-major/arm-none-eabi/include/c++/10.2.1/variant ****     constexpr decltype(auto)
 276:/usr/share/gcc-arm-none-eabi-10-2020-q4-major/arm-none-eabi/include/c++/10.2.1/variant ****     __get(_Variant&& __v) noexcept
 277:/usr/share/gcc-arm-none-eabi-10-2020-q4-major/arm-none-eabi/include/c++/10.2.1/variant ****     {
 278:/usr/share/gcc-arm-none-eabi-10-2020-q4-major/arm-none-eabi/include/c++/10.2.1/variant ****       return __variant::__get(std::in_place_index<_Np>,
 279:/usr/share/gcc-arm-none-eabi-10-2020-q4-major/arm-none-eabi/include/c++/10.2.1/variant **** 			      std::forward<_Variant>(__v)._M_u);
 280:/usr/share/gcc-arm-none-eabi-10-2020-q4-major/arm-none-eabi/include/c++/10.2.1/variant ****     }
 281:/usr/share/gcc-arm-none-eabi-10-2020-q4-major/arm-none-eabi/include/c++/10.2.1/variant **** 
 282:/usr/share/gcc-arm-none-eabi-10-2020-q4-major/arm-none-eabi/include/c++/10.2.1/variant ****   template<typename... _Types>
 283:/usr/share/gcc-arm-none-eabi-10-2020-q4-major/arm-none-eabi/include/c++/10.2.1/variant ****     struct _Traits
 284:/usr/share/gcc-arm-none-eabi-10-2020-q4-major/arm-none-eabi/include/c++/10.2.1/variant ****     {
 285:/usr/share/gcc-arm-none-eabi-10-2020-q4-major/arm-none-eabi/include/c++/10.2.1/variant ****       static constexpr bool _S_default_ctor =
 286:/usr/share/gcc-arm-none-eabi-10-2020-q4-major/arm-none-eabi/include/c++/10.2.1/variant **** 	  is_default_constructible_v<typename _Nth_type<0, _Types...>::type>;
 287:/usr/share/gcc-arm-none-eabi-10-2020-q4-major/arm-none-eabi/include/c++/10.2.1/variant ****       static constexpr bool _S_copy_ctor =
 288:/usr/share/gcc-arm-none-eabi-10-2020-q4-major/arm-none-eabi/include/c++/10.2.1/variant **** 	  (is_copy_constructible_v<_Types> && ...);
 289:/usr/share/gcc-arm-none-eabi-10-2020-q4-major/arm-none-eabi/include/c++/10.2.1/variant ****       static constexpr bool _S_move_ctor =
 290:/usr/share/gcc-arm-none-eabi-10-2020-q4-major/arm-none-eabi/include/c++/10.2.1/variant **** 	  (is_move_constructible_v<_Types> && ...);
 291:/usr/share/gcc-arm-none-eabi-10-2020-q4-major/arm-none-eabi/include/c++/10.2.1/variant ****       static constexpr bool _S_copy_assign =
 292:/usr/share/gcc-arm-none-eabi-10-2020-q4-major/arm-none-eabi/include/c++/10.2.1/variant **** 	  _S_copy_ctor
 293:/usr/share/gcc-arm-none-eabi-10-2020-q4-major/arm-none-eabi/include/c++/10.2.1/variant **** 	  && (is_copy_assignable_v<_Types> && ...);
 294:/usr/share/gcc-arm-none-eabi-10-2020-q4-major/arm-none-eabi/include/c++/10.2.1/variant ****       static constexpr bool _S_move_assign =
 295:/usr/share/gcc-arm-none-eabi-10-2020-q4-major/arm-none-eabi/include/c++/10.2.1/variant **** 	  _S_move_ctor
 296:/usr/share/gcc-arm-none-eabi-10-2020-q4-major/arm-none-eabi/include/c++/10.2.1/variant **** 	  && (is_move_assignable_v<_Types> && ...);
 297:/usr/share/gcc-arm-none-eabi-10-2020-q4-major/arm-none-eabi/include/c++/10.2.1/variant **** 
 298:/usr/share/gcc-arm-none-eabi-10-2020-q4-major/arm-none-eabi/include/c++/10.2.1/variant ****       static constexpr bool _S_trivial_dtor =
 299:/usr/share/gcc-arm-none-eabi-10-2020-q4-major/arm-none-eabi/include/c++/10.2.1/variant **** 	  (is_trivially_destructible_v<_Types> && ...);
ARM GAS  /tmp/ccIrndB6.s 			page 10


 300:/usr/share/gcc-arm-none-eabi-10-2020-q4-major/arm-none-eabi/include/c++/10.2.1/variant ****       static constexpr bool _S_trivial_copy_ctor =
 301:/usr/share/gcc-arm-none-eabi-10-2020-q4-major/arm-none-eabi/include/c++/10.2.1/variant **** 	  (is_trivially_copy_constructible_v<_Types> && ...);
 302:/usr/share/gcc-arm-none-eabi-10-2020-q4-major/arm-none-eabi/include/c++/10.2.1/variant ****       static constexpr bool _S_trivial_move_ctor =
 303:/usr/share/gcc-arm-none-eabi-10-2020-q4-major/arm-none-eabi/include/c++/10.2.1/variant **** 	  (is_trivially_move_constructible_v<_Types> && ...);
 304:/usr/share/gcc-arm-none-eabi-10-2020-q4-major/arm-none-eabi/include/c++/10.2.1/variant ****       static constexpr bool _S_trivial_copy_assign =
 305:/usr/share/gcc-arm-none-eabi-10-2020-q4-major/arm-none-eabi/include/c++/10.2.1/variant **** 	  _S_trivial_dtor && _S_trivial_copy_ctor
 306:/usr/share/gcc-arm-none-eabi-10-2020-q4-major/arm-none-eabi/include/c++/10.2.1/variant **** 	  && (is_trivially_copy_assignable_v<_Types> && ...);
 307:/usr/share/gcc-arm-none-eabi-10-2020-q4-major/arm-none-eabi/include/c++/10.2.1/variant ****       static constexpr bool _S_trivial_move_assign =
 308:/usr/share/gcc-arm-none-eabi-10-2020-q4-major/arm-none-eabi/include/c++/10.2.1/variant **** 	  _S_trivial_dtor && _S_trivial_move_ctor
 309:/usr/share/gcc-arm-none-eabi-10-2020-q4-major/arm-none-eabi/include/c++/10.2.1/variant **** 	  && (is_trivially_move_assignable_v<_Types> && ...);
 310:/usr/share/gcc-arm-none-eabi-10-2020-q4-major/arm-none-eabi/include/c++/10.2.1/variant **** 
 311:/usr/share/gcc-arm-none-eabi-10-2020-q4-major/arm-none-eabi/include/c++/10.2.1/variant ****       // The following nothrow traits are for non-trivial SMFs. Trivial SMFs
 312:/usr/share/gcc-arm-none-eabi-10-2020-q4-major/arm-none-eabi/include/c++/10.2.1/variant ****       // are always nothrow.
 313:/usr/share/gcc-arm-none-eabi-10-2020-q4-major/arm-none-eabi/include/c++/10.2.1/variant ****       static constexpr bool _S_nothrow_default_ctor =
 314:/usr/share/gcc-arm-none-eabi-10-2020-q4-major/arm-none-eabi/include/c++/10.2.1/variant **** 	  is_nothrow_default_constructible_v<
 315:/usr/share/gcc-arm-none-eabi-10-2020-q4-major/arm-none-eabi/include/c++/10.2.1/variant **** 	      typename _Nth_type<0, _Types...>::type>;
 316:/usr/share/gcc-arm-none-eabi-10-2020-q4-major/arm-none-eabi/include/c++/10.2.1/variant ****       static constexpr bool _S_nothrow_copy_ctor = false;
 317:/usr/share/gcc-arm-none-eabi-10-2020-q4-major/arm-none-eabi/include/c++/10.2.1/variant ****       static constexpr bool _S_nothrow_move_ctor =
 318:/usr/share/gcc-arm-none-eabi-10-2020-q4-major/arm-none-eabi/include/c++/10.2.1/variant **** 	  (is_nothrow_move_constructible_v<_Types> && ...);
 319:/usr/share/gcc-arm-none-eabi-10-2020-q4-major/arm-none-eabi/include/c++/10.2.1/variant ****       static constexpr bool _S_nothrow_copy_assign = false;
 320:/usr/share/gcc-arm-none-eabi-10-2020-q4-major/arm-none-eabi/include/c++/10.2.1/variant ****       static constexpr bool _S_nothrow_move_assign =
 321:/usr/share/gcc-arm-none-eabi-10-2020-q4-major/arm-none-eabi/include/c++/10.2.1/variant **** 	  _S_nothrow_move_ctor
 322:/usr/share/gcc-arm-none-eabi-10-2020-q4-major/arm-none-eabi/include/c++/10.2.1/variant **** 	  && (is_nothrow_move_assignable_v<_Types> && ...);
 323:/usr/share/gcc-arm-none-eabi-10-2020-q4-major/arm-none-eabi/include/c++/10.2.1/variant ****     };
 324:/usr/share/gcc-arm-none-eabi-10-2020-q4-major/arm-none-eabi/include/c++/10.2.1/variant **** 
 325:/usr/share/gcc-arm-none-eabi-10-2020-q4-major/arm-none-eabi/include/c++/10.2.1/variant ****   // Defines members and ctors.
 326:/usr/share/gcc-arm-none-eabi-10-2020-q4-major/arm-none-eabi/include/c++/10.2.1/variant ****   template<typename... _Types>
 327:/usr/share/gcc-arm-none-eabi-10-2020-q4-major/arm-none-eabi/include/c++/10.2.1/variant ****     union _Variadic_union { };
 328:/usr/share/gcc-arm-none-eabi-10-2020-q4-major/arm-none-eabi/include/c++/10.2.1/variant **** 
 329:/usr/share/gcc-arm-none-eabi-10-2020-q4-major/arm-none-eabi/include/c++/10.2.1/variant ****   template<typename _First, typename... _Rest>
 330:/usr/share/gcc-arm-none-eabi-10-2020-q4-major/arm-none-eabi/include/c++/10.2.1/variant ****     union _Variadic_union<_First, _Rest...>
 331:/usr/share/gcc-arm-none-eabi-10-2020-q4-major/arm-none-eabi/include/c++/10.2.1/variant ****     {
 332:/usr/share/gcc-arm-none-eabi-10-2020-q4-major/arm-none-eabi/include/c++/10.2.1/variant ****       constexpr _Variadic_union() : _M_rest() { }
 333:/usr/share/gcc-arm-none-eabi-10-2020-q4-major/arm-none-eabi/include/c++/10.2.1/variant **** 
 334:/usr/share/gcc-arm-none-eabi-10-2020-q4-major/arm-none-eabi/include/c++/10.2.1/variant ****       template<typename... _Args>
 335:/usr/share/gcc-arm-none-eabi-10-2020-q4-major/arm-none-eabi/include/c++/10.2.1/variant **** 	constexpr _Variadic_union(in_place_index_t<0>, _Args&&... __args)
 336:/usr/share/gcc-arm-none-eabi-10-2020-q4-major/arm-none-eabi/include/c++/10.2.1/variant **** 	: _M_first(in_place_index<0>, std::forward<_Args>(__args)...)
 337:/usr/share/gcc-arm-none-eabi-10-2020-q4-major/arm-none-eabi/include/c++/10.2.1/variant **** 	{ }
 338:/usr/share/gcc-arm-none-eabi-10-2020-q4-major/arm-none-eabi/include/c++/10.2.1/variant **** 
 339:/usr/share/gcc-arm-none-eabi-10-2020-q4-major/arm-none-eabi/include/c++/10.2.1/variant ****       template<size_t _Np, typename... _Args>
 340:/usr/share/gcc-arm-none-eabi-10-2020-q4-major/arm-none-eabi/include/c++/10.2.1/variant **** 	constexpr _Variadic_union(in_place_index_t<_Np>, _Args&&... __args)
 341:/usr/share/gcc-arm-none-eabi-10-2020-q4-major/arm-none-eabi/include/c++/10.2.1/variant **** 	: _M_rest(in_place_index<_Np-1>, std::forward<_Args>(__args)...)
 342:/usr/share/gcc-arm-none-eabi-10-2020-q4-major/arm-none-eabi/include/c++/10.2.1/variant **** 	{ }
 343:/usr/share/gcc-arm-none-eabi-10-2020-q4-major/arm-none-eabi/include/c++/10.2.1/variant **** 
 344:/usr/share/gcc-arm-none-eabi-10-2020-q4-major/arm-none-eabi/include/c++/10.2.1/variant ****       _Uninitialized<_First> _M_first;
 345:/usr/share/gcc-arm-none-eabi-10-2020-q4-major/arm-none-eabi/include/c++/10.2.1/variant ****       _Variadic_union<_Rest...> _M_rest;
 346:/usr/share/gcc-arm-none-eabi-10-2020-q4-major/arm-none-eabi/include/c++/10.2.1/variant ****     };
 347:/usr/share/gcc-arm-none-eabi-10-2020-q4-major/arm-none-eabi/include/c++/10.2.1/variant **** 
 348:/usr/share/gcc-arm-none-eabi-10-2020-q4-major/arm-none-eabi/include/c++/10.2.1/variant ****   // _Never_valueless_alt is true for variant alternatives that can
 349:/usr/share/gcc-arm-none-eabi-10-2020-q4-major/arm-none-eabi/include/c++/10.2.1/variant ****   // always be placed in a variant without it becoming valueless.
 350:/usr/share/gcc-arm-none-eabi-10-2020-q4-major/arm-none-eabi/include/c++/10.2.1/variant **** 
 351:/usr/share/gcc-arm-none-eabi-10-2020-q4-major/arm-none-eabi/include/c++/10.2.1/variant ****   // For suitably-small, trivially copyable types we can create temporaries
 352:/usr/share/gcc-arm-none-eabi-10-2020-q4-major/arm-none-eabi/include/c++/10.2.1/variant ****   // on the stack and then memcpy them into place.
 353:/usr/share/gcc-arm-none-eabi-10-2020-q4-major/arm-none-eabi/include/c++/10.2.1/variant ****   template<typename _Tp>
 354:/usr/share/gcc-arm-none-eabi-10-2020-q4-major/arm-none-eabi/include/c++/10.2.1/variant ****     struct _Never_valueless_alt
 355:/usr/share/gcc-arm-none-eabi-10-2020-q4-major/arm-none-eabi/include/c++/10.2.1/variant ****     : __and_<bool_constant<sizeof(_Tp) <= 256>, is_trivially_copyable<_Tp>>
 356:/usr/share/gcc-arm-none-eabi-10-2020-q4-major/arm-none-eabi/include/c++/10.2.1/variant ****     { };
ARM GAS  /tmp/ccIrndB6.s 			page 11


 357:/usr/share/gcc-arm-none-eabi-10-2020-q4-major/arm-none-eabi/include/c++/10.2.1/variant **** 
 358:/usr/share/gcc-arm-none-eabi-10-2020-q4-major/arm-none-eabi/include/c++/10.2.1/variant ****   // Specialize _Never_valueless_alt for other types which have a
 359:/usr/share/gcc-arm-none-eabi-10-2020-q4-major/arm-none-eabi/include/c++/10.2.1/variant ****   // non-throwing and cheap move construction and move assignment operator,
 360:/usr/share/gcc-arm-none-eabi-10-2020-q4-major/arm-none-eabi/include/c++/10.2.1/variant ****   // so that emplacing the type will provide the strong exception-safety
 361:/usr/share/gcc-arm-none-eabi-10-2020-q4-major/arm-none-eabi/include/c++/10.2.1/variant ****   // guarantee, by creating and moving a temporary.
 362:/usr/share/gcc-arm-none-eabi-10-2020-q4-major/arm-none-eabi/include/c++/10.2.1/variant ****   // Whether _Never_valueless_alt<T> is true or not affects the ABI of a
 363:/usr/share/gcc-arm-none-eabi-10-2020-q4-major/arm-none-eabi/include/c++/10.2.1/variant ****   // variant using that alternative, so we can't change the value later!
 364:/usr/share/gcc-arm-none-eabi-10-2020-q4-major/arm-none-eabi/include/c++/10.2.1/variant **** 
 365:/usr/share/gcc-arm-none-eabi-10-2020-q4-major/arm-none-eabi/include/c++/10.2.1/variant ****   // True if every alternative in _Types... can be emplaced in a variant
 366:/usr/share/gcc-arm-none-eabi-10-2020-q4-major/arm-none-eabi/include/c++/10.2.1/variant ****   // without it becoming valueless. If this is true, variant<_Types...>
 367:/usr/share/gcc-arm-none-eabi-10-2020-q4-major/arm-none-eabi/include/c++/10.2.1/variant ****   // can never be valueless, which enables some minor optimizations.
 368:/usr/share/gcc-arm-none-eabi-10-2020-q4-major/arm-none-eabi/include/c++/10.2.1/variant ****   template <typename... _Types>
 369:/usr/share/gcc-arm-none-eabi-10-2020-q4-major/arm-none-eabi/include/c++/10.2.1/variant ****     constexpr bool __never_valueless()
 370:/usr/share/gcc-arm-none-eabi-10-2020-q4-major/arm-none-eabi/include/c++/10.2.1/variant ****     {
 371:/usr/share/gcc-arm-none-eabi-10-2020-q4-major/arm-none-eabi/include/c++/10.2.1/variant ****       return _Traits<_Types...>::_S_move_assign
 372:/usr/share/gcc-arm-none-eabi-10-2020-q4-major/arm-none-eabi/include/c++/10.2.1/variant **** 	&& (_Never_valueless_alt<_Types>::value && ...);
 373:/usr/share/gcc-arm-none-eabi-10-2020-q4-major/arm-none-eabi/include/c++/10.2.1/variant ****     }
 374:/usr/share/gcc-arm-none-eabi-10-2020-q4-major/arm-none-eabi/include/c++/10.2.1/variant **** 
 375:/usr/share/gcc-arm-none-eabi-10-2020-q4-major/arm-none-eabi/include/c++/10.2.1/variant ****   // Defines index and the dtor, possibly trivial.
 376:/usr/share/gcc-arm-none-eabi-10-2020-q4-major/arm-none-eabi/include/c++/10.2.1/variant ****   template<bool __trivially_destructible, typename... _Types>
 377:/usr/share/gcc-arm-none-eabi-10-2020-q4-major/arm-none-eabi/include/c++/10.2.1/variant ****     struct _Variant_storage;
 378:/usr/share/gcc-arm-none-eabi-10-2020-q4-major/arm-none-eabi/include/c++/10.2.1/variant **** 
 379:/usr/share/gcc-arm-none-eabi-10-2020-q4-major/arm-none-eabi/include/c++/10.2.1/variant ****   template <typename... _Types>
 380:/usr/share/gcc-arm-none-eabi-10-2020-q4-major/arm-none-eabi/include/c++/10.2.1/variant ****     using __select_index =
 381:/usr/share/gcc-arm-none-eabi-10-2020-q4-major/arm-none-eabi/include/c++/10.2.1/variant ****       typename __select_int::_Select_int_base<sizeof...(_Types),
 382:/usr/share/gcc-arm-none-eabi-10-2020-q4-major/arm-none-eabi/include/c++/10.2.1/variant **** 					      unsigned char,
 383:/usr/share/gcc-arm-none-eabi-10-2020-q4-major/arm-none-eabi/include/c++/10.2.1/variant **** 					      unsigned short>::type::value_type;
 384:/usr/share/gcc-arm-none-eabi-10-2020-q4-major/arm-none-eabi/include/c++/10.2.1/variant **** 
 385:/usr/share/gcc-arm-none-eabi-10-2020-q4-major/arm-none-eabi/include/c++/10.2.1/variant ****   template<typename... _Types>
 386:/usr/share/gcc-arm-none-eabi-10-2020-q4-major/arm-none-eabi/include/c++/10.2.1/variant ****     struct _Variant_storage<false, _Types...>
 387:/usr/share/gcc-arm-none-eabi-10-2020-q4-major/arm-none-eabi/include/c++/10.2.1/variant ****     {
 388:/usr/share/gcc-arm-none-eabi-10-2020-q4-major/arm-none-eabi/include/c++/10.2.1/variant ****       constexpr
 389:/usr/share/gcc-arm-none-eabi-10-2020-q4-major/arm-none-eabi/include/c++/10.2.1/variant ****       _Variant_storage()
 390:/usr/share/gcc-arm-none-eabi-10-2020-q4-major/arm-none-eabi/include/c++/10.2.1/variant ****       : _M_index(static_cast<__index_type>(variant_npos))
 391:/usr/share/gcc-arm-none-eabi-10-2020-q4-major/arm-none-eabi/include/c++/10.2.1/variant ****       { }
 392:/usr/share/gcc-arm-none-eabi-10-2020-q4-major/arm-none-eabi/include/c++/10.2.1/variant **** 
 393:/usr/share/gcc-arm-none-eabi-10-2020-q4-major/arm-none-eabi/include/c++/10.2.1/variant ****       template<size_t _Np, typename... _Args>
 394:/usr/share/gcc-arm-none-eabi-10-2020-q4-major/arm-none-eabi/include/c++/10.2.1/variant **** 	constexpr
 395:/usr/share/gcc-arm-none-eabi-10-2020-q4-major/arm-none-eabi/include/c++/10.2.1/variant **** 	_Variant_storage(in_place_index_t<_Np>, _Args&&... __args)
 396:/usr/share/gcc-arm-none-eabi-10-2020-q4-major/arm-none-eabi/include/c++/10.2.1/variant **** 	: _M_u(in_place_index<_Np>, std::forward<_Args>(__args)...),
 397:/usr/share/gcc-arm-none-eabi-10-2020-q4-major/arm-none-eabi/include/c++/10.2.1/variant **** 	_M_index{_Np}
 398:/usr/share/gcc-arm-none-eabi-10-2020-q4-major/arm-none-eabi/include/c++/10.2.1/variant **** 	{ }
 399:/usr/share/gcc-arm-none-eabi-10-2020-q4-major/arm-none-eabi/include/c++/10.2.1/variant **** 
 400:/usr/share/gcc-arm-none-eabi-10-2020-q4-major/arm-none-eabi/include/c++/10.2.1/variant ****       void _M_reset()
 401:/usr/share/gcc-arm-none-eabi-10-2020-q4-major/arm-none-eabi/include/c++/10.2.1/variant ****       {
 402:/usr/share/gcc-arm-none-eabi-10-2020-q4-major/arm-none-eabi/include/c++/10.2.1/variant **** 	if (!_M_valid()) [[unlikely]]
 403:/usr/share/gcc-arm-none-eabi-10-2020-q4-major/arm-none-eabi/include/c++/10.2.1/variant **** 	  return;
 404:/usr/share/gcc-arm-none-eabi-10-2020-q4-major/arm-none-eabi/include/c++/10.2.1/variant **** 
 405:/usr/share/gcc-arm-none-eabi-10-2020-q4-major/arm-none-eabi/include/c++/10.2.1/variant **** 	std::__do_visit<void>([](auto&& __this_mem) mutable
 406:/usr/share/gcc-arm-none-eabi-10-2020-q4-major/arm-none-eabi/include/c++/10.2.1/variant **** 	  {
 407:/usr/share/gcc-arm-none-eabi-10-2020-q4-major/arm-none-eabi/include/c++/10.2.1/variant **** 	    std::_Destroy(std::__addressof(__this_mem));
 408:/usr/share/gcc-arm-none-eabi-10-2020-q4-major/arm-none-eabi/include/c++/10.2.1/variant **** 	  }, __variant_cast<_Types...>(*this));
 409:/usr/share/gcc-arm-none-eabi-10-2020-q4-major/arm-none-eabi/include/c++/10.2.1/variant **** 
 410:/usr/share/gcc-arm-none-eabi-10-2020-q4-major/arm-none-eabi/include/c++/10.2.1/variant **** 	_M_index = static_cast<__index_type>(variant_npos);
 411:/usr/share/gcc-arm-none-eabi-10-2020-q4-major/arm-none-eabi/include/c++/10.2.1/variant ****       }
 412:/usr/share/gcc-arm-none-eabi-10-2020-q4-major/arm-none-eabi/include/c++/10.2.1/variant **** 
 413:/usr/share/gcc-arm-none-eabi-10-2020-q4-major/arm-none-eabi/include/c++/10.2.1/variant ****       ~_Variant_storage()
ARM GAS  /tmp/ccIrndB6.s 			page 12


 414:/usr/share/gcc-arm-none-eabi-10-2020-q4-major/arm-none-eabi/include/c++/10.2.1/variant ****       { _M_reset(); }
 415:/usr/share/gcc-arm-none-eabi-10-2020-q4-major/arm-none-eabi/include/c++/10.2.1/variant **** 
 416:/usr/share/gcc-arm-none-eabi-10-2020-q4-major/arm-none-eabi/include/c++/10.2.1/variant ****       void*
 417:/usr/share/gcc-arm-none-eabi-10-2020-q4-major/arm-none-eabi/include/c++/10.2.1/variant ****       _M_storage() const noexcept
 418:/usr/share/gcc-arm-none-eabi-10-2020-q4-major/arm-none-eabi/include/c++/10.2.1/variant ****       {
 419:/usr/share/gcc-arm-none-eabi-10-2020-q4-major/arm-none-eabi/include/c++/10.2.1/variant **** 	return const_cast<void*>(static_cast<const void*>(
 420:/usr/share/gcc-arm-none-eabi-10-2020-q4-major/arm-none-eabi/include/c++/10.2.1/variant **** 	    std::addressof(_M_u)));
 421:/usr/share/gcc-arm-none-eabi-10-2020-q4-major/arm-none-eabi/include/c++/10.2.1/variant ****       }
 422:/usr/share/gcc-arm-none-eabi-10-2020-q4-major/arm-none-eabi/include/c++/10.2.1/variant **** 
 423:/usr/share/gcc-arm-none-eabi-10-2020-q4-major/arm-none-eabi/include/c++/10.2.1/variant ****       constexpr bool
 424:/usr/share/gcc-arm-none-eabi-10-2020-q4-major/arm-none-eabi/include/c++/10.2.1/variant ****       _M_valid() const noexcept
 425:/usr/share/gcc-arm-none-eabi-10-2020-q4-major/arm-none-eabi/include/c++/10.2.1/variant ****       {
 426:/usr/share/gcc-arm-none-eabi-10-2020-q4-major/arm-none-eabi/include/c++/10.2.1/variant **** 	if constexpr (__variant::__never_valueless<_Types...>())
 427:/usr/share/gcc-arm-none-eabi-10-2020-q4-major/arm-none-eabi/include/c++/10.2.1/variant **** 	  return true;
 428:/usr/share/gcc-arm-none-eabi-10-2020-q4-major/arm-none-eabi/include/c++/10.2.1/variant **** 	return this->_M_index != __index_type(variant_npos);
 429:/usr/share/gcc-arm-none-eabi-10-2020-q4-major/arm-none-eabi/include/c++/10.2.1/variant ****       }
 430:/usr/share/gcc-arm-none-eabi-10-2020-q4-major/arm-none-eabi/include/c++/10.2.1/variant **** 
 431:/usr/share/gcc-arm-none-eabi-10-2020-q4-major/arm-none-eabi/include/c++/10.2.1/variant ****       _Variadic_union<_Types...> _M_u;
 432:/usr/share/gcc-arm-none-eabi-10-2020-q4-major/arm-none-eabi/include/c++/10.2.1/variant ****       using __index_type = __select_index<_Types...>;
 433:/usr/share/gcc-arm-none-eabi-10-2020-q4-major/arm-none-eabi/include/c++/10.2.1/variant ****       __index_type _M_index;
 434:/usr/share/gcc-arm-none-eabi-10-2020-q4-major/arm-none-eabi/include/c++/10.2.1/variant ****     };
 435:/usr/share/gcc-arm-none-eabi-10-2020-q4-major/arm-none-eabi/include/c++/10.2.1/variant **** 
 436:/usr/share/gcc-arm-none-eabi-10-2020-q4-major/arm-none-eabi/include/c++/10.2.1/variant ****   template<typename... _Types>
 437:/usr/share/gcc-arm-none-eabi-10-2020-q4-major/arm-none-eabi/include/c++/10.2.1/variant ****     struct _Variant_storage<true, _Types...>
 438:/usr/share/gcc-arm-none-eabi-10-2020-q4-major/arm-none-eabi/include/c++/10.2.1/variant ****     {
 439:/usr/share/gcc-arm-none-eabi-10-2020-q4-major/arm-none-eabi/include/c++/10.2.1/variant ****       constexpr
 440:/usr/share/gcc-arm-none-eabi-10-2020-q4-major/arm-none-eabi/include/c++/10.2.1/variant ****       _Variant_storage()
 441:/usr/share/gcc-arm-none-eabi-10-2020-q4-major/arm-none-eabi/include/c++/10.2.1/variant ****       : _M_index(static_cast<__index_type>(variant_npos))
 442:/usr/share/gcc-arm-none-eabi-10-2020-q4-major/arm-none-eabi/include/c++/10.2.1/variant ****       { }
 443:/usr/share/gcc-arm-none-eabi-10-2020-q4-major/arm-none-eabi/include/c++/10.2.1/variant **** 
 444:/usr/share/gcc-arm-none-eabi-10-2020-q4-major/arm-none-eabi/include/c++/10.2.1/variant ****       template<size_t _Np, typename... _Args>
 445:/usr/share/gcc-arm-none-eabi-10-2020-q4-major/arm-none-eabi/include/c++/10.2.1/variant **** 	constexpr
 446:/usr/share/gcc-arm-none-eabi-10-2020-q4-major/arm-none-eabi/include/c++/10.2.1/variant **** 	_Variant_storage(in_place_index_t<_Np>, _Args&&... __args)
 447:/usr/share/gcc-arm-none-eabi-10-2020-q4-major/arm-none-eabi/include/c++/10.2.1/variant **** 	: _M_u(in_place_index<_Np>, std::forward<_Args>(__args)...),
 448:/usr/share/gcc-arm-none-eabi-10-2020-q4-major/arm-none-eabi/include/c++/10.2.1/variant **** 	_M_index{_Np}
 449:/usr/share/gcc-arm-none-eabi-10-2020-q4-major/arm-none-eabi/include/c++/10.2.1/variant **** 	{ }
 450:/usr/share/gcc-arm-none-eabi-10-2020-q4-major/arm-none-eabi/include/c++/10.2.1/variant **** 
 451:/usr/share/gcc-arm-none-eabi-10-2020-q4-major/arm-none-eabi/include/c++/10.2.1/variant ****       void _M_reset() noexcept
 452:/usr/share/gcc-arm-none-eabi-10-2020-q4-major/arm-none-eabi/include/c++/10.2.1/variant ****       { _M_index = static_cast<__index_type>(variant_npos); }
 453:/usr/share/gcc-arm-none-eabi-10-2020-q4-major/arm-none-eabi/include/c++/10.2.1/variant **** 
 454:/usr/share/gcc-arm-none-eabi-10-2020-q4-major/arm-none-eabi/include/c++/10.2.1/variant ****       void*
 455:/usr/share/gcc-arm-none-eabi-10-2020-q4-major/arm-none-eabi/include/c++/10.2.1/variant ****       _M_storage() const noexcept
 456:/usr/share/gcc-arm-none-eabi-10-2020-q4-major/arm-none-eabi/include/c++/10.2.1/variant ****       {
 457:/usr/share/gcc-arm-none-eabi-10-2020-q4-major/arm-none-eabi/include/c++/10.2.1/variant **** 	return const_cast<void*>(static_cast<const void*>(
 458:/usr/share/gcc-arm-none-eabi-10-2020-q4-major/arm-none-eabi/include/c++/10.2.1/variant **** 	    std::addressof(_M_u)));
 459:/usr/share/gcc-arm-none-eabi-10-2020-q4-major/arm-none-eabi/include/c++/10.2.1/variant ****       }
 460:/usr/share/gcc-arm-none-eabi-10-2020-q4-major/arm-none-eabi/include/c++/10.2.1/variant **** 
 461:/usr/share/gcc-arm-none-eabi-10-2020-q4-major/arm-none-eabi/include/c++/10.2.1/variant ****       constexpr bool
 462:/usr/share/gcc-arm-none-eabi-10-2020-q4-major/arm-none-eabi/include/c++/10.2.1/variant ****       _M_valid() const noexcept
 463:/usr/share/gcc-arm-none-eabi-10-2020-q4-major/arm-none-eabi/include/c++/10.2.1/variant ****       {
 464:/usr/share/gcc-arm-none-eabi-10-2020-q4-major/arm-none-eabi/include/c++/10.2.1/variant **** 	if constexpr (__variant::__never_valueless<_Types...>())
 465:/usr/share/gcc-arm-none-eabi-10-2020-q4-major/arm-none-eabi/include/c++/10.2.1/variant **** 	  return true;
 466:/usr/share/gcc-arm-none-eabi-10-2020-q4-major/arm-none-eabi/include/c++/10.2.1/variant **** 	return this->_M_index != static_cast<__index_type>(variant_npos);
 467:/usr/share/gcc-arm-none-eabi-10-2020-q4-major/arm-none-eabi/include/c++/10.2.1/variant ****       }
 468:/usr/share/gcc-arm-none-eabi-10-2020-q4-major/arm-none-eabi/include/c++/10.2.1/variant **** 
 469:/usr/share/gcc-arm-none-eabi-10-2020-q4-major/arm-none-eabi/include/c++/10.2.1/variant ****       _Variadic_union<_Types...> _M_u;
 470:/usr/share/gcc-arm-none-eabi-10-2020-q4-major/arm-none-eabi/include/c++/10.2.1/variant ****       using __index_type = __select_index<_Types...>;
ARM GAS  /tmp/ccIrndB6.s 			page 13


 471:/usr/share/gcc-arm-none-eabi-10-2020-q4-major/arm-none-eabi/include/c++/10.2.1/variant ****       __index_type _M_index;
 472:/usr/share/gcc-arm-none-eabi-10-2020-q4-major/arm-none-eabi/include/c++/10.2.1/variant ****     };
 473:/usr/share/gcc-arm-none-eabi-10-2020-q4-major/arm-none-eabi/include/c++/10.2.1/variant **** 
 474:/usr/share/gcc-arm-none-eabi-10-2020-q4-major/arm-none-eabi/include/c++/10.2.1/variant ****   template<typename... _Types>
 475:/usr/share/gcc-arm-none-eabi-10-2020-q4-major/arm-none-eabi/include/c++/10.2.1/variant ****     using _Variant_storage_alias =
 476:/usr/share/gcc-arm-none-eabi-10-2020-q4-major/arm-none-eabi/include/c++/10.2.1/variant **** 	_Variant_storage<_Traits<_Types...>::_S_trivial_dtor, _Types...>;
 477:/usr/share/gcc-arm-none-eabi-10-2020-q4-major/arm-none-eabi/include/c++/10.2.1/variant **** 
 478:/usr/share/gcc-arm-none-eabi-10-2020-q4-major/arm-none-eabi/include/c++/10.2.1/variant ****   template<typename _Tp, typename _Up>
 479:/usr/share/gcc-arm-none-eabi-10-2020-q4-major/arm-none-eabi/include/c++/10.2.1/variant ****     void __variant_construct_single(_Tp&& __lhs, _Up&& __rhs_mem)
 480:/usr/share/gcc-arm-none-eabi-10-2020-q4-major/arm-none-eabi/include/c++/10.2.1/variant ****     {
 481:/usr/share/gcc-arm-none-eabi-10-2020-q4-major/arm-none-eabi/include/c++/10.2.1/variant ****       void* __storage = std::addressof(__lhs._M_u);
 482:/usr/share/gcc-arm-none-eabi-10-2020-q4-major/arm-none-eabi/include/c++/10.2.1/variant ****       using _Type = remove_reference_t<decltype(__rhs_mem)>;
 483:/usr/share/gcc-arm-none-eabi-10-2020-q4-major/arm-none-eabi/include/c++/10.2.1/variant ****       if constexpr (!is_same_v<_Type, __variant_cookie>)
 484:/usr/share/gcc-arm-none-eabi-10-2020-q4-major/arm-none-eabi/include/c++/10.2.1/variant ****         ::new (__storage)
 485:/usr/share/gcc-arm-none-eabi-10-2020-q4-major/arm-none-eabi/include/c++/10.2.1/variant **** 	  _Type(std::forward<decltype(__rhs_mem)>(__rhs_mem));
 486:/usr/share/gcc-arm-none-eabi-10-2020-q4-major/arm-none-eabi/include/c++/10.2.1/variant ****     }
 487:/usr/share/gcc-arm-none-eabi-10-2020-q4-major/arm-none-eabi/include/c++/10.2.1/variant **** 
 488:/usr/share/gcc-arm-none-eabi-10-2020-q4-major/arm-none-eabi/include/c++/10.2.1/variant ****   template<typename... _Types, typename _Tp, typename _Up>
 489:/usr/share/gcc-arm-none-eabi-10-2020-q4-major/arm-none-eabi/include/c++/10.2.1/variant ****     void __variant_construct(_Tp&& __lhs, _Up&& __rhs)
 490:/usr/share/gcc-arm-none-eabi-10-2020-q4-major/arm-none-eabi/include/c++/10.2.1/variant ****     {
 491:/usr/share/gcc-arm-none-eabi-10-2020-q4-major/arm-none-eabi/include/c++/10.2.1/variant ****       __lhs._M_index = __rhs._M_index;
 492:/usr/share/gcc-arm-none-eabi-10-2020-q4-major/arm-none-eabi/include/c++/10.2.1/variant ****       __variant::__raw_visit([&__lhs](auto&& __rhs_mem) mutable
 493:/usr/share/gcc-arm-none-eabi-10-2020-q4-major/arm-none-eabi/include/c++/10.2.1/variant ****         {
 494:/usr/share/gcc-arm-none-eabi-10-2020-q4-major/arm-none-eabi/include/c++/10.2.1/variant **** 	  __variant_construct_single(std::forward<_Tp>(__lhs),
 495:/usr/share/gcc-arm-none-eabi-10-2020-q4-major/arm-none-eabi/include/c++/10.2.1/variant **** 	      std::forward<decltype(__rhs_mem)>(__rhs_mem));
 496:/usr/share/gcc-arm-none-eabi-10-2020-q4-major/arm-none-eabi/include/c++/10.2.1/variant **** 	}, __variant_cast<_Types...>(std::forward<_Up>(__rhs)));
 497:/usr/share/gcc-arm-none-eabi-10-2020-q4-major/arm-none-eabi/include/c++/10.2.1/variant ****     }
 498:/usr/share/gcc-arm-none-eabi-10-2020-q4-major/arm-none-eabi/include/c++/10.2.1/variant **** 
 499:/usr/share/gcc-arm-none-eabi-10-2020-q4-major/arm-none-eabi/include/c++/10.2.1/variant ****   // The following are (Copy|Move) (ctor|assign) layers for forwarding
 500:/usr/share/gcc-arm-none-eabi-10-2020-q4-major/arm-none-eabi/include/c++/10.2.1/variant ****   // triviality and handling non-trivial SMF behaviors.
 501:/usr/share/gcc-arm-none-eabi-10-2020-q4-major/arm-none-eabi/include/c++/10.2.1/variant **** 
 502:/usr/share/gcc-arm-none-eabi-10-2020-q4-major/arm-none-eabi/include/c++/10.2.1/variant ****   template<bool, typename... _Types>
 503:/usr/share/gcc-arm-none-eabi-10-2020-q4-major/arm-none-eabi/include/c++/10.2.1/variant ****     struct _Copy_ctor_base : _Variant_storage_alias<_Types...>
 504:/usr/share/gcc-arm-none-eabi-10-2020-q4-major/arm-none-eabi/include/c++/10.2.1/variant ****     {
 505:/usr/share/gcc-arm-none-eabi-10-2020-q4-major/arm-none-eabi/include/c++/10.2.1/variant ****       using _Base = _Variant_storage_alias<_Types...>;
 506:/usr/share/gcc-arm-none-eabi-10-2020-q4-major/arm-none-eabi/include/c++/10.2.1/variant ****       using _Base::_Base;
 507:/usr/share/gcc-arm-none-eabi-10-2020-q4-major/arm-none-eabi/include/c++/10.2.1/variant **** 
 508:/usr/share/gcc-arm-none-eabi-10-2020-q4-major/arm-none-eabi/include/c++/10.2.1/variant ****       _Copy_ctor_base(const _Copy_ctor_base& __rhs)
 509:/usr/share/gcc-arm-none-eabi-10-2020-q4-major/arm-none-eabi/include/c++/10.2.1/variant **** 	  noexcept(_Traits<_Types...>::_S_nothrow_copy_ctor)
 510:/usr/share/gcc-arm-none-eabi-10-2020-q4-major/arm-none-eabi/include/c++/10.2.1/variant ****       {
 511:/usr/share/gcc-arm-none-eabi-10-2020-q4-major/arm-none-eabi/include/c++/10.2.1/variant **** 	__variant_construct<_Types...>(*this, __rhs);
 512:/usr/share/gcc-arm-none-eabi-10-2020-q4-major/arm-none-eabi/include/c++/10.2.1/variant ****       }
 513:/usr/share/gcc-arm-none-eabi-10-2020-q4-major/arm-none-eabi/include/c++/10.2.1/variant **** 
 514:/usr/share/gcc-arm-none-eabi-10-2020-q4-major/arm-none-eabi/include/c++/10.2.1/variant ****       _Copy_ctor_base(_Copy_ctor_base&&) = default;
 515:/usr/share/gcc-arm-none-eabi-10-2020-q4-major/arm-none-eabi/include/c++/10.2.1/variant ****       _Copy_ctor_base& operator=(const _Copy_ctor_base&) = default;
 516:/usr/share/gcc-arm-none-eabi-10-2020-q4-major/arm-none-eabi/include/c++/10.2.1/variant ****       _Copy_ctor_base& operator=(_Copy_ctor_base&&) = default;
 517:/usr/share/gcc-arm-none-eabi-10-2020-q4-major/arm-none-eabi/include/c++/10.2.1/variant ****     };
 518:/usr/share/gcc-arm-none-eabi-10-2020-q4-major/arm-none-eabi/include/c++/10.2.1/variant **** 
 519:/usr/share/gcc-arm-none-eabi-10-2020-q4-major/arm-none-eabi/include/c++/10.2.1/variant ****   template<typename... _Types>
 520:/usr/share/gcc-arm-none-eabi-10-2020-q4-major/arm-none-eabi/include/c++/10.2.1/variant ****     struct _Copy_ctor_base<true, _Types...> : _Variant_storage_alias<_Types...>
 521:/usr/share/gcc-arm-none-eabi-10-2020-q4-major/arm-none-eabi/include/c++/10.2.1/variant ****     {
 522:/usr/share/gcc-arm-none-eabi-10-2020-q4-major/arm-none-eabi/include/c++/10.2.1/variant ****       using _Base = _Variant_storage_alias<_Types...>;
 523:/usr/share/gcc-arm-none-eabi-10-2020-q4-major/arm-none-eabi/include/c++/10.2.1/variant ****       using _Base::_Base;
 524:/usr/share/gcc-arm-none-eabi-10-2020-q4-major/arm-none-eabi/include/c++/10.2.1/variant ****     };
 525:/usr/share/gcc-arm-none-eabi-10-2020-q4-major/arm-none-eabi/include/c++/10.2.1/variant **** 
 526:/usr/share/gcc-arm-none-eabi-10-2020-q4-major/arm-none-eabi/include/c++/10.2.1/variant ****   template<typename... _Types>
 527:/usr/share/gcc-arm-none-eabi-10-2020-q4-major/arm-none-eabi/include/c++/10.2.1/variant ****     using _Copy_ctor_alias =
ARM GAS  /tmp/ccIrndB6.s 			page 14


 528:/usr/share/gcc-arm-none-eabi-10-2020-q4-major/arm-none-eabi/include/c++/10.2.1/variant **** 	_Copy_ctor_base<_Traits<_Types...>::_S_trivial_copy_ctor, _Types...>;
 529:/usr/share/gcc-arm-none-eabi-10-2020-q4-major/arm-none-eabi/include/c++/10.2.1/variant **** 
 530:/usr/share/gcc-arm-none-eabi-10-2020-q4-major/arm-none-eabi/include/c++/10.2.1/variant ****   template<bool, typename... _Types>
 531:/usr/share/gcc-arm-none-eabi-10-2020-q4-major/arm-none-eabi/include/c++/10.2.1/variant ****     struct _Move_ctor_base : _Copy_ctor_alias<_Types...>
 532:/usr/share/gcc-arm-none-eabi-10-2020-q4-major/arm-none-eabi/include/c++/10.2.1/variant ****     {
 533:/usr/share/gcc-arm-none-eabi-10-2020-q4-major/arm-none-eabi/include/c++/10.2.1/variant ****       using _Base = _Copy_ctor_alias<_Types...>;
 534:/usr/share/gcc-arm-none-eabi-10-2020-q4-major/arm-none-eabi/include/c++/10.2.1/variant ****       using _Base::_Base;
 535:/usr/share/gcc-arm-none-eabi-10-2020-q4-major/arm-none-eabi/include/c++/10.2.1/variant **** 
 536:/usr/share/gcc-arm-none-eabi-10-2020-q4-major/arm-none-eabi/include/c++/10.2.1/variant ****       _Move_ctor_base(_Move_ctor_base&& __rhs)
 537:/usr/share/gcc-arm-none-eabi-10-2020-q4-major/arm-none-eabi/include/c++/10.2.1/variant **** 	  noexcept(_Traits<_Types...>::_S_nothrow_move_ctor)
 538:/usr/share/gcc-arm-none-eabi-10-2020-q4-major/arm-none-eabi/include/c++/10.2.1/variant ****       {
 539:/usr/share/gcc-arm-none-eabi-10-2020-q4-major/arm-none-eabi/include/c++/10.2.1/variant **** 	__variant_construct<_Types...>(*this, std::move(__rhs));
 540:/usr/share/gcc-arm-none-eabi-10-2020-q4-major/arm-none-eabi/include/c++/10.2.1/variant ****       }
 541:/usr/share/gcc-arm-none-eabi-10-2020-q4-major/arm-none-eabi/include/c++/10.2.1/variant **** 
 542:/usr/share/gcc-arm-none-eabi-10-2020-q4-major/arm-none-eabi/include/c++/10.2.1/variant ****       template<typename _Up>
 543:/usr/share/gcc-arm-none-eabi-10-2020-q4-major/arm-none-eabi/include/c++/10.2.1/variant ****         void _M_destructive_move(unsigned short __rhs_index, _Up&& __rhs)
 544:/usr/share/gcc-arm-none-eabi-10-2020-q4-major/arm-none-eabi/include/c++/10.2.1/variant ****         {
 545:/usr/share/gcc-arm-none-eabi-10-2020-q4-major/arm-none-eabi/include/c++/10.2.1/variant **** 	  this->_M_reset();
 546:/usr/share/gcc-arm-none-eabi-10-2020-q4-major/arm-none-eabi/include/c++/10.2.1/variant **** 	  __variant_construct_single(*this, std::forward<_Up>(__rhs));
 547:/usr/share/gcc-arm-none-eabi-10-2020-q4-major/arm-none-eabi/include/c++/10.2.1/variant **** 	  this->_M_index = __rhs_index;
 548:/usr/share/gcc-arm-none-eabi-10-2020-q4-major/arm-none-eabi/include/c++/10.2.1/variant **** 	}
 549:/usr/share/gcc-arm-none-eabi-10-2020-q4-major/arm-none-eabi/include/c++/10.2.1/variant **** 
 550:/usr/share/gcc-arm-none-eabi-10-2020-q4-major/arm-none-eabi/include/c++/10.2.1/variant ****       template<typename _Up>
 551:/usr/share/gcc-arm-none-eabi-10-2020-q4-major/arm-none-eabi/include/c++/10.2.1/variant ****         void _M_destructive_copy(unsigned short __rhs_index, const _Up& __rhs)
 552:/usr/share/gcc-arm-none-eabi-10-2020-q4-major/arm-none-eabi/include/c++/10.2.1/variant ****         {
 553:/usr/share/gcc-arm-none-eabi-10-2020-q4-major/arm-none-eabi/include/c++/10.2.1/variant **** 	  this->_M_reset();
 554:/usr/share/gcc-arm-none-eabi-10-2020-q4-major/arm-none-eabi/include/c++/10.2.1/variant **** 	  __variant_construct_single(*this, __rhs);
 555:/usr/share/gcc-arm-none-eabi-10-2020-q4-major/arm-none-eabi/include/c++/10.2.1/variant **** 	  this->_M_index = __rhs_index;
 556:/usr/share/gcc-arm-none-eabi-10-2020-q4-major/arm-none-eabi/include/c++/10.2.1/variant **** 	}
 557:/usr/share/gcc-arm-none-eabi-10-2020-q4-major/arm-none-eabi/include/c++/10.2.1/variant **** 
 558:/usr/share/gcc-arm-none-eabi-10-2020-q4-major/arm-none-eabi/include/c++/10.2.1/variant ****       _Move_ctor_base(const _Move_ctor_base&) = default;
 559:/usr/share/gcc-arm-none-eabi-10-2020-q4-major/arm-none-eabi/include/c++/10.2.1/variant ****       _Move_ctor_base& operator=(const _Move_ctor_base&) = default;
 560:/usr/share/gcc-arm-none-eabi-10-2020-q4-major/arm-none-eabi/include/c++/10.2.1/variant ****       _Move_ctor_base& operator=(_Move_ctor_base&&) = default;
 561:/usr/share/gcc-arm-none-eabi-10-2020-q4-major/arm-none-eabi/include/c++/10.2.1/variant ****     };
 562:/usr/share/gcc-arm-none-eabi-10-2020-q4-major/arm-none-eabi/include/c++/10.2.1/variant **** 
 563:/usr/share/gcc-arm-none-eabi-10-2020-q4-major/arm-none-eabi/include/c++/10.2.1/variant ****   template<typename... _Types>
 564:/usr/share/gcc-arm-none-eabi-10-2020-q4-major/arm-none-eabi/include/c++/10.2.1/variant ****     struct _Move_ctor_base<true, _Types...> : _Copy_ctor_alias<_Types...>
 565:/usr/share/gcc-arm-none-eabi-10-2020-q4-major/arm-none-eabi/include/c++/10.2.1/variant ****     {
 566:/usr/share/gcc-arm-none-eabi-10-2020-q4-major/arm-none-eabi/include/c++/10.2.1/variant ****       using _Base = _Copy_ctor_alias<_Types...>;
 567:/usr/share/gcc-arm-none-eabi-10-2020-q4-major/arm-none-eabi/include/c++/10.2.1/variant ****       using _Base::_Base;
 568:/usr/share/gcc-arm-none-eabi-10-2020-q4-major/arm-none-eabi/include/c++/10.2.1/variant **** 
 569:/usr/share/gcc-arm-none-eabi-10-2020-q4-major/arm-none-eabi/include/c++/10.2.1/variant ****       template<typename _Up>
 570:/usr/share/gcc-arm-none-eabi-10-2020-q4-major/arm-none-eabi/include/c++/10.2.1/variant ****         void _M_destructive_move(unsigned short __rhs_index, _Up&& __rhs)
 571:/usr/share/gcc-arm-none-eabi-10-2020-q4-major/arm-none-eabi/include/c++/10.2.1/variant ****         {
 572:/usr/share/gcc-arm-none-eabi-10-2020-q4-major/arm-none-eabi/include/c++/10.2.1/variant **** 	  this->_M_reset();
 573:/usr/share/gcc-arm-none-eabi-10-2020-q4-major/arm-none-eabi/include/c++/10.2.1/variant **** 	  __variant_construct_single(*this, std::forward<_Up>(__rhs));
 574:/usr/share/gcc-arm-none-eabi-10-2020-q4-major/arm-none-eabi/include/c++/10.2.1/variant **** 	  this->_M_index = __rhs_index;
 575:/usr/share/gcc-arm-none-eabi-10-2020-q4-major/arm-none-eabi/include/c++/10.2.1/variant **** 	}
 576:/usr/share/gcc-arm-none-eabi-10-2020-q4-major/arm-none-eabi/include/c++/10.2.1/variant **** 
 577:/usr/share/gcc-arm-none-eabi-10-2020-q4-major/arm-none-eabi/include/c++/10.2.1/variant ****       template<typename _Up>
 578:/usr/share/gcc-arm-none-eabi-10-2020-q4-major/arm-none-eabi/include/c++/10.2.1/variant ****         void _M_destructive_copy(unsigned short __rhs_index, const _Up& __rhs)
 579:/usr/share/gcc-arm-none-eabi-10-2020-q4-major/arm-none-eabi/include/c++/10.2.1/variant ****         {
 580:/usr/share/gcc-arm-none-eabi-10-2020-q4-major/arm-none-eabi/include/c++/10.2.1/variant **** 	  this->_M_reset();
 581:/usr/share/gcc-arm-none-eabi-10-2020-q4-major/arm-none-eabi/include/c++/10.2.1/variant **** 	  __variant_construct_single(*this, __rhs);
 582:/usr/share/gcc-arm-none-eabi-10-2020-q4-major/arm-none-eabi/include/c++/10.2.1/variant **** 	  this->_M_index = __rhs_index;
 583:/usr/share/gcc-arm-none-eabi-10-2020-q4-major/arm-none-eabi/include/c++/10.2.1/variant **** 	}
 584:/usr/share/gcc-arm-none-eabi-10-2020-q4-major/arm-none-eabi/include/c++/10.2.1/variant ****     };
ARM GAS  /tmp/ccIrndB6.s 			page 15


 585:/usr/share/gcc-arm-none-eabi-10-2020-q4-major/arm-none-eabi/include/c++/10.2.1/variant **** 
 586:/usr/share/gcc-arm-none-eabi-10-2020-q4-major/arm-none-eabi/include/c++/10.2.1/variant ****   template<typename... _Types>
 587:/usr/share/gcc-arm-none-eabi-10-2020-q4-major/arm-none-eabi/include/c++/10.2.1/variant ****     using _Move_ctor_alias =
 588:/usr/share/gcc-arm-none-eabi-10-2020-q4-major/arm-none-eabi/include/c++/10.2.1/variant **** 	_Move_ctor_base<_Traits<_Types...>::_S_trivial_move_ctor, _Types...>;
 589:/usr/share/gcc-arm-none-eabi-10-2020-q4-major/arm-none-eabi/include/c++/10.2.1/variant **** 
 590:/usr/share/gcc-arm-none-eabi-10-2020-q4-major/arm-none-eabi/include/c++/10.2.1/variant ****   template<bool, typename... _Types>
 591:/usr/share/gcc-arm-none-eabi-10-2020-q4-major/arm-none-eabi/include/c++/10.2.1/variant ****     struct _Copy_assign_base : _Move_ctor_alias<_Types...>
 592:/usr/share/gcc-arm-none-eabi-10-2020-q4-major/arm-none-eabi/include/c++/10.2.1/variant ****     {
 593:/usr/share/gcc-arm-none-eabi-10-2020-q4-major/arm-none-eabi/include/c++/10.2.1/variant ****       using _Base = _Move_ctor_alias<_Types...>;
 594:/usr/share/gcc-arm-none-eabi-10-2020-q4-major/arm-none-eabi/include/c++/10.2.1/variant ****       using _Base::_Base;
 595:/usr/share/gcc-arm-none-eabi-10-2020-q4-major/arm-none-eabi/include/c++/10.2.1/variant **** 
 596:/usr/share/gcc-arm-none-eabi-10-2020-q4-major/arm-none-eabi/include/c++/10.2.1/variant ****       _Copy_assign_base&
 597:/usr/share/gcc-arm-none-eabi-10-2020-q4-major/arm-none-eabi/include/c++/10.2.1/variant ****       operator=(const _Copy_assign_base& __rhs)
 598:/usr/share/gcc-arm-none-eabi-10-2020-q4-major/arm-none-eabi/include/c++/10.2.1/variant **** 	  noexcept(_Traits<_Types...>::_S_nothrow_copy_assign)
 599:/usr/share/gcc-arm-none-eabi-10-2020-q4-major/arm-none-eabi/include/c++/10.2.1/variant ****       {
 600:/usr/share/gcc-arm-none-eabi-10-2020-q4-major/arm-none-eabi/include/c++/10.2.1/variant **** 	__variant::__raw_idx_visit(
 601:/usr/share/gcc-arm-none-eabi-10-2020-q4-major/arm-none-eabi/include/c++/10.2.1/variant **** 	  [this](auto&& __rhs_mem, auto __rhs_index) mutable
 602:/usr/share/gcc-arm-none-eabi-10-2020-q4-major/arm-none-eabi/include/c++/10.2.1/variant **** 	  {
 603:/usr/share/gcc-arm-none-eabi-10-2020-q4-major/arm-none-eabi/include/c++/10.2.1/variant **** 	    if constexpr (__rhs_index != variant_npos)
 604:/usr/share/gcc-arm-none-eabi-10-2020-q4-major/arm-none-eabi/include/c++/10.2.1/variant **** 	      {
 605:/usr/share/gcc-arm-none-eabi-10-2020-q4-major/arm-none-eabi/include/c++/10.2.1/variant **** 		if (this->_M_index == __rhs_index)
 606:/usr/share/gcc-arm-none-eabi-10-2020-q4-major/arm-none-eabi/include/c++/10.2.1/variant **** 		  __variant::__get<__rhs_index>(*this) = __rhs_mem;
 607:/usr/share/gcc-arm-none-eabi-10-2020-q4-major/arm-none-eabi/include/c++/10.2.1/variant **** 		else
 608:/usr/share/gcc-arm-none-eabi-10-2020-q4-major/arm-none-eabi/include/c++/10.2.1/variant **** 		  {
 609:/usr/share/gcc-arm-none-eabi-10-2020-q4-major/arm-none-eabi/include/c++/10.2.1/variant **** 		    using __rhs_type = __remove_cvref_t<decltype(__rhs_mem)>;
 610:/usr/share/gcc-arm-none-eabi-10-2020-q4-major/arm-none-eabi/include/c++/10.2.1/variant **** 		    if constexpr (is_nothrow_copy_constructible_v<__rhs_type>
 611:/usr/share/gcc-arm-none-eabi-10-2020-q4-major/arm-none-eabi/include/c++/10.2.1/variant **** 			|| !is_nothrow_move_constructible_v<__rhs_type>)
 612:/usr/share/gcc-arm-none-eabi-10-2020-q4-major/arm-none-eabi/include/c++/10.2.1/variant **** 		      // The standard says this->emplace<__rhs_type>(__rhs_mem)
 613:/usr/share/gcc-arm-none-eabi-10-2020-q4-major/arm-none-eabi/include/c++/10.2.1/variant **** 		      // should be used here, but _M_destructive_copy is
 614:/usr/share/gcc-arm-none-eabi-10-2020-q4-major/arm-none-eabi/include/c++/10.2.1/variant **** 		      // equivalent in this case. Either copy construction
 615:/usr/share/gcc-arm-none-eabi-10-2020-q4-major/arm-none-eabi/include/c++/10.2.1/variant **** 		      // doesn't throw, so _M_destructive_copy gives strong
 616:/usr/share/gcc-arm-none-eabi-10-2020-q4-major/arm-none-eabi/include/c++/10.2.1/variant **** 		      // exception safety guarantee, or both copy construction
 617:/usr/share/gcc-arm-none-eabi-10-2020-q4-major/arm-none-eabi/include/c++/10.2.1/variant **** 		      // and move construction can throw, so emplace only gives
 618:/usr/share/gcc-arm-none-eabi-10-2020-q4-major/arm-none-eabi/include/c++/10.2.1/variant **** 		      // basic exception safety anyway.
 619:/usr/share/gcc-arm-none-eabi-10-2020-q4-major/arm-none-eabi/include/c++/10.2.1/variant **** 		      this->_M_destructive_copy(__rhs_index, __rhs_mem);
 620:/usr/share/gcc-arm-none-eabi-10-2020-q4-major/arm-none-eabi/include/c++/10.2.1/variant **** 		    else
 621:/usr/share/gcc-arm-none-eabi-10-2020-q4-major/arm-none-eabi/include/c++/10.2.1/variant **** 		      __variant_cast<_Types...>(*this)
 622:/usr/share/gcc-arm-none-eabi-10-2020-q4-major/arm-none-eabi/include/c++/10.2.1/variant **** 			= variant<_Types...>(std::in_place_index<__rhs_index>,
 623:/usr/share/gcc-arm-none-eabi-10-2020-q4-major/arm-none-eabi/include/c++/10.2.1/variant **** 					     __rhs_mem);
 624:/usr/share/gcc-arm-none-eabi-10-2020-q4-major/arm-none-eabi/include/c++/10.2.1/variant **** 		  }
 625:/usr/share/gcc-arm-none-eabi-10-2020-q4-major/arm-none-eabi/include/c++/10.2.1/variant **** 	      }
 626:/usr/share/gcc-arm-none-eabi-10-2020-q4-major/arm-none-eabi/include/c++/10.2.1/variant **** 	    else
 627:/usr/share/gcc-arm-none-eabi-10-2020-q4-major/arm-none-eabi/include/c++/10.2.1/variant **** 	      this->_M_reset();
 628:/usr/share/gcc-arm-none-eabi-10-2020-q4-major/arm-none-eabi/include/c++/10.2.1/variant **** 	  }, __variant_cast<_Types...>(__rhs));
 629:/usr/share/gcc-arm-none-eabi-10-2020-q4-major/arm-none-eabi/include/c++/10.2.1/variant **** 	return *this;
 630:/usr/share/gcc-arm-none-eabi-10-2020-q4-major/arm-none-eabi/include/c++/10.2.1/variant ****       }
 631:/usr/share/gcc-arm-none-eabi-10-2020-q4-major/arm-none-eabi/include/c++/10.2.1/variant **** 
 632:/usr/share/gcc-arm-none-eabi-10-2020-q4-major/arm-none-eabi/include/c++/10.2.1/variant ****       _Copy_assign_base(const _Copy_assign_base&) = default;
 633:/usr/share/gcc-arm-none-eabi-10-2020-q4-major/arm-none-eabi/include/c++/10.2.1/variant ****       _Copy_assign_base(_Copy_assign_base&&) = default;
 634:/usr/share/gcc-arm-none-eabi-10-2020-q4-major/arm-none-eabi/include/c++/10.2.1/variant ****       _Copy_assign_base& operator=(_Copy_assign_base&&) = default;
 635:/usr/share/gcc-arm-none-eabi-10-2020-q4-major/arm-none-eabi/include/c++/10.2.1/variant ****     };
 636:/usr/share/gcc-arm-none-eabi-10-2020-q4-major/arm-none-eabi/include/c++/10.2.1/variant **** 
 637:/usr/share/gcc-arm-none-eabi-10-2020-q4-major/arm-none-eabi/include/c++/10.2.1/variant ****   template<typename... _Types>
 638:/usr/share/gcc-arm-none-eabi-10-2020-q4-major/arm-none-eabi/include/c++/10.2.1/variant ****     struct _Copy_assign_base<true, _Types...> : _Move_ctor_alias<_Types...>
 639:/usr/share/gcc-arm-none-eabi-10-2020-q4-major/arm-none-eabi/include/c++/10.2.1/variant ****     {
 640:/usr/share/gcc-arm-none-eabi-10-2020-q4-major/arm-none-eabi/include/c++/10.2.1/variant ****       using _Base = _Move_ctor_alias<_Types...>;
 641:/usr/share/gcc-arm-none-eabi-10-2020-q4-major/arm-none-eabi/include/c++/10.2.1/variant ****       using _Base::_Base;
ARM GAS  /tmp/ccIrndB6.s 			page 16


 642:/usr/share/gcc-arm-none-eabi-10-2020-q4-major/arm-none-eabi/include/c++/10.2.1/variant ****     };
 643:/usr/share/gcc-arm-none-eabi-10-2020-q4-major/arm-none-eabi/include/c++/10.2.1/variant **** 
 644:/usr/share/gcc-arm-none-eabi-10-2020-q4-major/arm-none-eabi/include/c++/10.2.1/variant ****   template<typename... _Types>
 645:/usr/share/gcc-arm-none-eabi-10-2020-q4-major/arm-none-eabi/include/c++/10.2.1/variant ****     using _Copy_assign_alias =
 646:/usr/share/gcc-arm-none-eabi-10-2020-q4-major/arm-none-eabi/include/c++/10.2.1/variant ****       _Copy_assign_base<_Traits<_Types...>::_S_trivial_copy_assign, _Types...>;
 647:/usr/share/gcc-arm-none-eabi-10-2020-q4-major/arm-none-eabi/include/c++/10.2.1/variant **** 
 648:/usr/share/gcc-arm-none-eabi-10-2020-q4-major/arm-none-eabi/include/c++/10.2.1/variant ****   template<bool, typename... _Types>
 649:/usr/share/gcc-arm-none-eabi-10-2020-q4-major/arm-none-eabi/include/c++/10.2.1/variant ****     struct _Move_assign_base : _Copy_assign_alias<_Types...>
 650:/usr/share/gcc-arm-none-eabi-10-2020-q4-major/arm-none-eabi/include/c++/10.2.1/variant ****     {
 651:/usr/share/gcc-arm-none-eabi-10-2020-q4-major/arm-none-eabi/include/c++/10.2.1/variant ****       using _Base = _Copy_assign_alias<_Types...>;
 652:/usr/share/gcc-arm-none-eabi-10-2020-q4-major/arm-none-eabi/include/c++/10.2.1/variant ****       using _Base::_Base;
 653:/usr/share/gcc-arm-none-eabi-10-2020-q4-major/arm-none-eabi/include/c++/10.2.1/variant **** 
 654:/usr/share/gcc-arm-none-eabi-10-2020-q4-major/arm-none-eabi/include/c++/10.2.1/variant ****       _Move_assign_base&
 655:/usr/share/gcc-arm-none-eabi-10-2020-q4-major/arm-none-eabi/include/c++/10.2.1/variant ****       operator=(_Move_assign_base&& __rhs)
 656:/usr/share/gcc-arm-none-eabi-10-2020-q4-major/arm-none-eabi/include/c++/10.2.1/variant **** 	  noexcept(_Traits<_Types...>::_S_nothrow_move_assign)
 657:/usr/share/gcc-arm-none-eabi-10-2020-q4-major/arm-none-eabi/include/c++/10.2.1/variant ****       {
 658:/usr/share/gcc-arm-none-eabi-10-2020-q4-major/arm-none-eabi/include/c++/10.2.1/variant **** 	__variant::__raw_idx_visit(
 659:/usr/share/gcc-arm-none-eabi-10-2020-q4-major/arm-none-eabi/include/c++/10.2.1/variant **** 	  [this](auto&& __rhs_mem, auto __rhs_index) mutable
 660:/usr/share/gcc-arm-none-eabi-10-2020-q4-major/arm-none-eabi/include/c++/10.2.1/variant **** 	  {
 661:/usr/share/gcc-arm-none-eabi-10-2020-q4-major/arm-none-eabi/include/c++/10.2.1/variant **** 	    if constexpr (__rhs_index != variant_npos)
 662:/usr/share/gcc-arm-none-eabi-10-2020-q4-major/arm-none-eabi/include/c++/10.2.1/variant **** 	      {
 663:/usr/share/gcc-arm-none-eabi-10-2020-q4-major/arm-none-eabi/include/c++/10.2.1/variant **** 		if (this->_M_index == __rhs_index)
 664:/usr/share/gcc-arm-none-eabi-10-2020-q4-major/arm-none-eabi/include/c++/10.2.1/variant **** 		  __variant::__get<__rhs_index>(*this) = std::move(__rhs_mem);
 665:/usr/share/gcc-arm-none-eabi-10-2020-q4-major/arm-none-eabi/include/c++/10.2.1/variant **** 		else
 666:/usr/share/gcc-arm-none-eabi-10-2020-q4-major/arm-none-eabi/include/c++/10.2.1/variant **** 		  __variant_cast<_Types...>(*this)
 667:/usr/share/gcc-arm-none-eabi-10-2020-q4-major/arm-none-eabi/include/c++/10.2.1/variant **** 		    .template emplace<__rhs_index>(std::move(__rhs_mem));
 668:/usr/share/gcc-arm-none-eabi-10-2020-q4-major/arm-none-eabi/include/c++/10.2.1/variant **** 	      }
 669:/usr/share/gcc-arm-none-eabi-10-2020-q4-major/arm-none-eabi/include/c++/10.2.1/variant **** 	    else
 670:/usr/share/gcc-arm-none-eabi-10-2020-q4-major/arm-none-eabi/include/c++/10.2.1/variant **** 	      this->_M_reset();
 671:/usr/share/gcc-arm-none-eabi-10-2020-q4-major/arm-none-eabi/include/c++/10.2.1/variant **** 	  }, __variant_cast<_Types...>(__rhs));
 672:/usr/share/gcc-arm-none-eabi-10-2020-q4-major/arm-none-eabi/include/c++/10.2.1/variant **** 	return *this;
 673:/usr/share/gcc-arm-none-eabi-10-2020-q4-major/arm-none-eabi/include/c++/10.2.1/variant ****       }
 674:/usr/share/gcc-arm-none-eabi-10-2020-q4-major/arm-none-eabi/include/c++/10.2.1/variant **** 
 675:/usr/share/gcc-arm-none-eabi-10-2020-q4-major/arm-none-eabi/include/c++/10.2.1/variant ****       _Move_assign_base(const _Move_assign_base&) = default;
 676:/usr/share/gcc-arm-none-eabi-10-2020-q4-major/arm-none-eabi/include/c++/10.2.1/variant ****       _Move_assign_base(_Move_assign_base&&) = default;
 677:/usr/share/gcc-arm-none-eabi-10-2020-q4-major/arm-none-eabi/include/c++/10.2.1/variant ****       _Move_assign_base& operator=(const _Move_assign_base&) = default;
 678:/usr/share/gcc-arm-none-eabi-10-2020-q4-major/arm-none-eabi/include/c++/10.2.1/variant ****     };
 679:/usr/share/gcc-arm-none-eabi-10-2020-q4-major/arm-none-eabi/include/c++/10.2.1/variant **** 
 680:/usr/share/gcc-arm-none-eabi-10-2020-q4-major/arm-none-eabi/include/c++/10.2.1/variant ****   template<typename... _Types>
 681:/usr/share/gcc-arm-none-eabi-10-2020-q4-major/arm-none-eabi/include/c++/10.2.1/variant ****     struct _Move_assign_base<true, _Types...> : _Copy_assign_alias<_Types...>
 682:/usr/share/gcc-arm-none-eabi-10-2020-q4-major/arm-none-eabi/include/c++/10.2.1/variant ****     {
 683:/usr/share/gcc-arm-none-eabi-10-2020-q4-major/arm-none-eabi/include/c++/10.2.1/variant ****       using _Base = _Copy_assign_alias<_Types...>;
 684:/usr/share/gcc-arm-none-eabi-10-2020-q4-major/arm-none-eabi/include/c++/10.2.1/variant ****       using _Base::_Base;
 685:/usr/share/gcc-arm-none-eabi-10-2020-q4-major/arm-none-eabi/include/c++/10.2.1/variant ****     };
 686:/usr/share/gcc-arm-none-eabi-10-2020-q4-major/arm-none-eabi/include/c++/10.2.1/variant **** 
 687:/usr/share/gcc-arm-none-eabi-10-2020-q4-major/arm-none-eabi/include/c++/10.2.1/variant ****   template<typename... _Types>
 688:/usr/share/gcc-arm-none-eabi-10-2020-q4-major/arm-none-eabi/include/c++/10.2.1/variant ****     using _Move_assign_alias =
 689:/usr/share/gcc-arm-none-eabi-10-2020-q4-major/arm-none-eabi/include/c++/10.2.1/variant ****       _Move_assign_base<_Traits<_Types...>::_S_trivial_move_assign, _Types...>;
 690:/usr/share/gcc-arm-none-eabi-10-2020-q4-major/arm-none-eabi/include/c++/10.2.1/variant **** 
 691:/usr/share/gcc-arm-none-eabi-10-2020-q4-major/arm-none-eabi/include/c++/10.2.1/variant ****   template<typename... _Types>
 692:/usr/share/gcc-arm-none-eabi-10-2020-q4-major/arm-none-eabi/include/c++/10.2.1/variant ****     struct _Variant_base : _Move_assign_alias<_Types...>
 693:/usr/share/gcc-arm-none-eabi-10-2020-q4-major/arm-none-eabi/include/c++/10.2.1/variant ****     {
 694:/usr/share/gcc-arm-none-eabi-10-2020-q4-major/arm-none-eabi/include/c++/10.2.1/variant ****       using _Base = _Move_assign_alias<_Types...>;
 695:/usr/share/gcc-arm-none-eabi-10-2020-q4-major/arm-none-eabi/include/c++/10.2.1/variant **** 
 696:/usr/share/gcc-arm-none-eabi-10-2020-q4-major/arm-none-eabi/include/c++/10.2.1/variant ****       constexpr
 697:/usr/share/gcc-arm-none-eabi-10-2020-q4-major/arm-none-eabi/include/c++/10.2.1/variant ****       _Variant_base()
 698:/usr/share/gcc-arm-none-eabi-10-2020-q4-major/arm-none-eabi/include/c++/10.2.1/variant **** 	  noexcept(_Traits<_Types...>::_S_nothrow_default_ctor)
ARM GAS  /tmp/ccIrndB6.s 			page 17


 699:/usr/share/gcc-arm-none-eabi-10-2020-q4-major/arm-none-eabi/include/c++/10.2.1/variant ****       : _Variant_base(in_place_index<0>) { }
 700:/usr/share/gcc-arm-none-eabi-10-2020-q4-major/arm-none-eabi/include/c++/10.2.1/variant **** 
 701:/usr/share/gcc-arm-none-eabi-10-2020-q4-major/arm-none-eabi/include/c++/10.2.1/variant ****       template<size_t _Np, typename... _Args>
 702:/usr/share/gcc-arm-none-eabi-10-2020-q4-major/arm-none-eabi/include/c++/10.2.1/variant **** 	constexpr explicit
 703:/usr/share/gcc-arm-none-eabi-10-2020-q4-major/arm-none-eabi/include/c++/10.2.1/variant **** 	_Variant_base(in_place_index_t<_Np> __i, _Args&&... __args)
 704:/usr/share/gcc-arm-none-eabi-10-2020-q4-major/arm-none-eabi/include/c++/10.2.1/variant **** 	: _Base(__i, std::forward<_Args>(__args)...)
 705:/usr/share/gcc-arm-none-eabi-10-2020-q4-major/arm-none-eabi/include/c++/10.2.1/variant **** 	{ }
 706:/usr/share/gcc-arm-none-eabi-10-2020-q4-major/arm-none-eabi/include/c++/10.2.1/variant **** 
 707:/usr/share/gcc-arm-none-eabi-10-2020-q4-major/arm-none-eabi/include/c++/10.2.1/variant ****       _Variant_base(const _Variant_base&) = default;
 708:/usr/share/gcc-arm-none-eabi-10-2020-q4-major/arm-none-eabi/include/c++/10.2.1/variant ****       _Variant_base(_Variant_base&&) = default;
 709:/usr/share/gcc-arm-none-eabi-10-2020-q4-major/arm-none-eabi/include/c++/10.2.1/variant ****       _Variant_base& operator=(const _Variant_base&) = default;
 710:/usr/share/gcc-arm-none-eabi-10-2020-q4-major/arm-none-eabi/include/c++/10.2.1/variant ****       _Variant_base& operator=(_Variant_base&&) = default;
 711:/usr/share/gcc-arm-none-eabi-10-2020-q4-major/arm-none-eabi/include/c++/10.2.1/variant ****     };
 712:/usr/share/gcc-arm-none-eabi-10-2020-q4-major/arm-none-eabi/include/c++/10.2.1/variant **** 
 713:/usr/share/gcc-arm-none-eabi-10-2020-q4-major/arm-none-eabi/include/c++/10.2.1/variant ****   // For how many times does _Tp appear in _Tuple?
 714:/usr/share/gcc-arm-none-eabi-10-2020-q4-major/arm-none-eabi/include/c++/10.2.1/variant ****   template<typename _Tp, typename _Tuple>
 715:/usr/share/gcc-arm-none-eabi-10-2020-q4-major/arm-none-eabi/include/c++/10.2.1/variant ****     struct __tuple_count;
 716:/usr/share/gcc-arm-none-eabi-10-2020-q4-major/arm-none-eabi/include/c++/10.2.1/variant **** 
 717:/usr/share/gcc-arm-none-eabi-10-2020-q4-major/arm-none-eabi/include/c++/10.2.1/variant ****   template<typename _Tp, typename _Tuple>
 718:/usr/share/gcc-arm-none-eabi-10-2020-q4-major/arm-none-eabi/include/c++/10.2.1/variant ****     inline constexpr size_t __tuple_count_v =
 719:/usr/share/gcc-arm-none-eabi-10-2020-q4-major/arm-none-eabi/include/c++/10.2.1/variant ****       __tuple_count<_Tp, _Tuple>::value;
 720:/usr/share/gcc-arm-none-eabi-10-2020-q4-major/arm-none-eabi/include/c++/10.2.1/variant **** 
 721:/usr/share/gcc-arm-none-eabi-10-2020-q4-major/arm-none-eabi/include/c++/10.2.1/variant ****   template<typename _Tp, typename... _Types>
 722:/usr/share/gcc-arm-none-eabi-10-2020-q4-major/arm-none-eabi/include/c++/10.2.1/variant ****     struct __tuple_count<_Tp, tuple<_Types...>>
 723:/usr/share/gcc-arm-none-eabi-10-2020-q4-major/arm-none-eabi/include/c++/10.2.1/variant ****     : integral_constant<size_t, 0> { };
 724:/usr/share/gcc-arm-none-eabi-10-2020-q4-major/arm-none-eabi/include/c++/10.2.1/variant **** 
 725:/usr/share/gcc-arm-none-eabi-10-2020-q4-major/arm-none-eabi/include/c++/10.2.1/variant ****   template<typename _Tp, typename _First, typename... _Rest>
 726:/usr/share/gcc-arm-none-eabi-10-2020-q4-major/arm-none-eabi/include/c++/10.2.1/variant ****     struct __tuple_count<_Tp, tuple<_First, _Rest...>>
 727:/usr/share/gcc-arm-none-eabi-10-2020-q4-major/arm-none-eabi/include/c++/10.2.1/variant ****     : integral_constant<
 728:/usr/share/gcc-arm-none-eabi-10-2020-q4-major/arm-none-eabi/include/c++/10.2.1/variant **** 	size_t,
 729:/usr/share/gcc-arm-none-eabi-10-2020-q4-major/arm-none-eabi/include/c++/10.2.1/variant **** 	__tuple_count_v<_Tp, tuple<_Rest...>> + is_same_v<_Tp, _First>> { };
 730:/usr/share/gcc-arm-none-eabi-10-2020-q4-major/arm-none-eabi/include/c++/10.2.1/variant **** 
 731:/usr/share/gcc-arm-none-eabi-10-2020-q4-major/arm-none-eabi/include/c++/10.2.1/variant ****   // TODO: Reuse this in <tuple> ?
 732:/usr/share/gcc-arm-none-eabi-10-2020-q4-major/arm-none-eabi/include/c++/10.2.1/variant ****   template<typename _Tp, typename... _Types>
 733:/usr/share/gcc-arm-none-eabi-10-2020-q4-major/arm-none-eabi/include/c++/10.2.1/variant ****     inline constexpr bool __exactly_once =
 734:/usr/share/gcc-arm-none-eabi-10-2020-q4-major/arm-none-eabi/include/c++/10.2.1/variant ****       __tuple_count_v<_Tp, tuple<_Types...>> == 1;
 735:/usr/share/gcc-arm-none-eabi-10-2020-q4-major/arm-none-eabi/include/c++/10.2.1/variant **** 
 736:/usr/share/gcc-arm-none-eabi-10-2020-q4-major/arm-none-eabi/include/c++/10.2.1/variant ****   // Helper used to check for valid conversions that don't involve narrowing.
 737:/usr/share/gcc-arm-none-eabi-10-2020-q4-major/arm-none-eabi/include/c++/10.2.1/variant ****   template<typename _Ti> struct _Arr { _Ti _M_x[1]; };
 738:/usr/share/gcc-arm-none-eabi-10-2020-q4-major/arm-none-eabi/include/c++/10.2.1/variant **** 
 739:/usr/share/gcc-arm-none-eabi-10-2020-q4-major/arm-none-eabi/include/c++/10.2.1/variant ****   // Build an imaginary function FUN(Ti) for each alternative type Ti
 740:/usr/share/gcc-arm-none-eabi-10-2020-q4-major/arm-none-eabi/include/c++/10.2.1/variant ****   template<size_t _Ind, typename _Tp, typename _Ti,
 741:/usr/share/gcc-arm-none-eabi-10-2020-q4-major/arm-none-eabi/include/c++/10.2.1/variant **** 	   bool _Ti_is_cv_bool = is_same_v<remove_cv_t<_Ti>, bool>,
 742:/usr/share/gcc-arm-none-eabi-10-2020-q4-major/arm-none-eabi/include/c++/10.2.1/variant **** 	   typename = void>
 743:/usr/share/gcc-arm-none-eabi-10-2020-q4-major/arm-none-eabi/include/c++/10.2.1/variant ****     struct _Build_FUN
 744:/usr/share/gcc-arm-none-eabi-10-2020-q4-major/arm-none-eabi/include/c++/10.2.1/variant ****     {
 745:/usr/share/gcc-arm-none-eabi-10-2020-q4-major/arm-none-eabi/include/c++/10.2.1/variant ****       // This function means 'using _Build_FUN<I, T, Ti>::_S_fun;' is valid,
 746:/usr/share/gcc-arm-none-eabi-10-2020-q4-major/arm-none-eabi/include/c++/10.2.1/variant ****       // but only static functions will be considered in the call below.
 747:/usr/share/gcc-arm-none-eabi-10-2020-q4-major/arm-none-eabi/include/c++/10.2.1/variant ****       void _S_fun();
 748:/usr/share/gcc-arm-none-eabi-10-2020-q4-major/arm-none-eabi/include/c++/10.2.1/variant ****     };
 749:/usr/share/gcc-arm-none-eabi-10-2020-q4-major/arm-none-eabi/include/c++/10.2.1/variant **** 
 750:/usr/share/gcc-arm-none-eabi-10-2020-q4-major/arm-none-eabi/include/c++/10.2.1/variant ****   // ... for which Ti x[] = {std::forward<T>(t)}; is well-formed,
 751:/usr/share/gcc-arm-none-eabi-10-2020-q4-major/arm-none-eabi/include/c++/10.2.1/variant ****   template<size_t _Ind, typename _Tp, typename _Ti>
 752:/usr/share/gcc-arm-none-eabi-10-2020-q4-major/arm-none-eabi/include/c++/10.2.1/variant ****     struct _Build_FUN<_Ind, _Tp, _Ti, false,
 753:/usr/share/gcc-arm-none-eabi-10-2020-q4-major/arm-none-eabi/include/c++/10.2.1/variant **** 		      void_t<decltype(_Arr<_Ti>{{std::declval<_Tp>()}})>>
 754:/usr/share/gcc-arm-none-eabi-10-2020-q4-major/arm-none-eabi/include/c++/10.2.1/variant ****     {
 755:/usr/share/gcc-arm-none-eabi-10-2020-q4-major/arm-none-eabi/include/c++/10.2.1/variant ****       // This is the FUN function for type _Ti, with index _Ind
ARM GAS  /tmp/ccIrndB6.s 			page 18


 756:/usr/share/gcc-arm-none-eabi-10-2020-q4-major/arm-none-eabi/include/c++/10.2.1/variant ****       static integral_constant<size_t, _Ind> _S_fun(_Ti);
 757:/usr/share/gcc-arm-none-eabi-10-2020-q4-major/arm-none-eabi/include/c++/10.2.1/variant ****     };
 758:/usr/share/gcc-arm-none-eabi-10-2020-q4-major/arm-none-eabi/include/c++/10.2.1/variant **** 
 759:/usr/share/gcc-arm-none-eabi-10-2020-q4-major/arm-none-eabi/include/c++/10.2.1/variant ****   // ... and if Ti is cv bool, remove_cvref_t<T> is bool.
 760:/usr/share/gcc-arm-none-eabi-10-2020-q4-major/arm-none-eabi/include/c++/10.2.1/variant ****   template<size_t _Ind, typename _Tp, typename _Ti>
 761:/usr/share/gcc-arm-none-eabi-10-2020-q4-major/arm-none-eabi/include/c++/10.2.1/variant ****     struct _Build_FUN<_Ind, _Tp, _Ti, true,
 762:/usr/share/gcc-arm-none-eabi-10-2020-q4-major/arm-none-eabi/include/c++/10.2.1/variant **** 		      enable_if_t<is_same_v<__remove_cvref_t<_Tp>, bool>>>
 763:/usr/share/gcc-arm-none-eabi-10-2020-q4-major/arm-none-eabi/include/c++/10.2.1/variant ****     {
 764:/usr/share/gcc-arm-none-eabi-10-2020-q4-major/arm-none-eabi/include/c++/10.2.1/variant ****       // This is the FUN function for when _Ti is cv bool, with index _Ind
 765:/usr/share/gcc-arm-none-eabi-10-2020-q4-major/arm-none-eabi/include/c++/10.2.1/variant ****       static integral_constant<size_t, _Ind> _S_fun(_Ti);
 766:/usr/share/gcc-arm-none-eabi-10-2020-q4-major/arm-none-eabi/include/c++/10.2.1/variant ****     };
 767:/usr/share/gcc-arm-none-eabi-10-2020-q4-major/arm-none-eabi/include/c++/10.2.1/variant **** 
 768:/usr/share/gcc-arm-none-eabi-10-2020-q4-major/arm-none-eabi/include/c++/10.2.1/variant ****   template<typename _Tp, typename _Variant,
 769:/usr/share/gcc-arm-none-eabi-10-2020-q4-major/arm-none-eabi/include/c++/10.2.1/variant **** 	   typename = make_index_sequence<variant_size_v<_Variant>>>
 770:/usr/share/gcc-arm-none-eabi-10-2020-q4-major/arm-none-eabi/include/c++/10.2.1/variant ****     struct _Build_FUNs;
 771:/usr/share/gcc-arm-none-eabi-10-2020-q4-major/arm-none-eabi/include/c++/10.2.1/variant **** 
 772:/usr/share/gcc-arm-none-eabi-10-2020-q4-major/arm-none-eabi/include/c++/10.2.1/variant ****   template<typename _Tp, typename... _Ti, size_t... _Ind>
 773:/usr/share/gcc-arm-none-eabi-10-2020-q4-major/arm-none-eabi/include/c++/10.2.1/variant ****     struct _Build_FUNs<_Tp, variant<_Ti...>, index_sequence<_Ind...>>
 774:/usr/share/gcc-arm-none-eabi-10-2020-q4-major/arm-none-eabi/include/c++/10.2.1/variant ****     : _Build_FUN<_Ind, _Tp, _Ti>...
 775:/usr/share/gcc-arm-none-eabi-10-2020-q4-major/arm-none-eabi/include/c++/10.2.1/variant ****     {
 776:/usr/share/gcc-arm-none-eabi-10-2020-q4-major/arm-none-eabi/include/c++/10.2.1/variant ****       using _Build_FUN<_Ind, _Tp, _Ti>::_S_fun...;
 777:/usr/share/gcc-arm-none-eabi-10-2020-q4-major/arm-none-eabi/include/c++/10.2.1/variant ****     };
 778:/usr/share/gcc-arm-none-eabi-10-2020-q4-major/arm-none-eabi/include/c++/10.2.1/variant **** 
 779:/usr/share/gcc-arm-none-eabi-10-2020-q4-major/arm-none-eabi/include/c++/10.2.1/variant ****   // The index j of the overload FUN(Tj) selected by overload resolution
 780:/usr/share/gcc-arm-none-eabi-10-2020-q4-major/arm-none-eabi/include/c++/10.2.1/variant ****   // for FUN(std::forward<_Tp>(t))
 781:/usr/share/gcc-arm-none-eabi-10-2020-q4-major/arm-none-eabi/include/c++/10.2.1/variant ****   template<typename _Tp, typename _Variant>
 782:/usr/share/gcc-arm-none-eabi-10-2020-q4-major/arm-none-eabi/include/c++/10.2.1/variant ****     using _FUN_type
 783:/usr/share/gcc-arm-none-eabi-10-2020-q4-major/arm-none-eabi/include/c++/10.2.1/variant ****       = decltype(_Build_FUNs<_Tp, _Variant>::_S_fun(std::declval<_Tp>()));
 784:/usr/share/gcc-arm-none-eabi-10-2020-q4-major/arm-none-eabi/include/c++/10.2.1/variant **** 
 785:/usr/share/gcc-arm-none-eabi-10-2020-q4-major/arm-none-eabi/include/c++/10.2.1/variant ****   // The index selected for FUN(std::forward<T>(t)), or variant_npos if none.
 786:/usr/share/gcc-arm-none-eabi-10-2020-q4-major/arm-none-eabi/include/c++/10.2.1/variant ****   template<typename _Tp, typename _Variant, typename = void>
 787:/usr/share/gcc-arm-none-eabi-10-2020-q4-major/arm-none-eabi/include/c++/10.2.1/variant ****     struct __accepted_index
 788:/usr/share/gcc-arm-none-eabi-10-2020-q4-major/arm-none-eabi/include/c++/10.2.1/variant ****     : integral_constant<size_t, variant_npos>
 789:/usr/share/gcc-arm-none-eabi-10-2020-q4-major/arm-none-eabi/include/c++/10.2.1/variant ****     { };
 790:/usr/share/gcc-arm-none-eabi-10-2020-q4-major/arm-none-eabi/include/c++/10.2.1/variant **** 
 791:/usr/share/gcc-arm-none-eabi-10-2020-q4-major/arm-none-eabi/include/c++/10.2.1/variant ****   template<typename _Tp, typename _Variant>
 792:/usr/share/gcc-arm-none-eabi-10-2020-q4-major/arm-none-eabi/include/c++/10.2.1/variant ****     struct __accepted_index<_Tp, _Variant, void_t<_FUN_type<_Tp, _Variant>>>
 793:/usr/share/gcc-arm-none-eabi-10-2020-q4-major/arm-none-eabi/include/c++/10.2.1/variant ****     : _FUN_type<_Tp, _Variant>
 794:/usr/share/gcc-arm-none-eabi-10-2020-q4-major/arm-none-eabi/include/c++/10.2.1/variant ****     { };
 795:/usr/share/gcc-arm-none-eabi-10-2020-q4-major/arm-none-eabi/include/c++/10.2.1/variant **** 
 796:/usr/share/gcc-arm-none-eabi-10-2020-q4-major/arm-none-eabi/include/c++/10.2.1/variant ****   // Returns the raw storage for __v.
 797:/usr/share/gcc-arm-none-eabi-10-2020-q4-major/arm-none-eabi/include/c++/10.2.1/variant ****   template<typename _Variant>
 798:/usr/share/gcc-arm-none-eabi-10-2020-q4-major/arm-none-eabi/include/c++/10.2.1/variant ****     void* __get_storage(_Variant&& __v) noexcept
 799:/usr/share/gcc-arm-none-eabi-10-2020-q4-major/arm-none-eabi/include/c++/10.2.1/variant ****     { return __v._M_storage(); }
 800:/usr/share/gcc-arm-none-eabi-10-2020-q4-major/arm-none-eabi/include/c++/10.2.1/variant **** 
 801:/usr/share/gcc-arm-none-eabi-10-2020-q4-major/arm-none-eabi/include/c++/10.2.1/variant ****   template <typename _Maybe_variant_cookie, typename _Variant>
 802:/usr/share/gcc-arm-none-eabi-10-2020-q4-major/arm-none-eabi/include/c++/10.2.1/variant ****     struct _Extra_visit_slot_needed
 803:/usr/share/gcc-arm-none-eabi-10-2020-q4-major/arm-none-eabi/include/c++/10.2.1/variant ****     {
 804:/usr/share/gcc-arm-none-eabi-10-2020-q4-major/arm-none-eabi/include/c++/10.2.1/variant ****       template <typename> struct _Variant_never_valueless;
 805:/usr/share/gcc-arm-none-eabi-10-2020-q4-major/arm-none-eabi/include/c++/10.2.1/variant **** 
 806:/usr/share/gcc-arm-none-eabi-10-2020-q4-major/arm-none-eabi/include/c++/10.2.1/variant ****       template <typename... _Types>
 807:/usr/share/gcc-arm-none-eabi-10-2020-q4-major/arm-none-eabi/include/c++/10.2.1/variant **** 	struct _Variant_never_valueless<variant<_Types...>>
 808:/usr/share/gcc-arm-none-eabi-10-2020-q4-major/arm-none-eabi/include/c++/10.2.1/variant **** 	: bool_constant<__variant::__never_valueless<_Types...>()> {};
 809:/usr/share/gcc-arm-none-eabi-10-2020-q4-major/arm-none-eabi/include/c++/10.2.1/variant **** 
 810:/usr/share/gcc-arm-none-eabi-10-2020-q4-major/arm-none-eabi/include/c++/10.2.1/variant ****       static constexpr bool value =
 811:/usr/share/gcc-arm-none-eabi-10-2020-q4-major/arm-none-eabi/include/c++/10.2.1/variant **** 	(is_same_v<_Maybe_variant_cookie, __variant_cookie>
 812:/usr/share/gcc-arm-none-eabi-10-2020-q4-major/arm-none-eabi/include/c++/10.2.1/variant **** 	 || is_same_v<_Maybe_variant_cookie, __variant_idx_cookie>)
ARM GAS  /tmp/ccIrndB6.s 			page 19


 813:/usr/share/gcc-arm-none-eabi-10-2020-q4-major/arm-none-eabi/include/c++/10.2.1/variant **** 	&& !_Variant_never_valueless<__remove_cvref_t<_Variant>>::value;
 814:/usr/share/gcc-arm-none-eabi-10-2020-q4-major/arm-none-eabi/include/c++/10.2.1/variant ****     };
 815:/usr/share/gcc-arm-none-eabi-10-2020-q4-major/arm-none-eabi/include/c++/10.2.1/variant **** 
 816:/usr/share/gcc-arm-none-eabi-10-2020-q4-major/arm-none-eabi/include/c++/10.2.1/variant ****   // Used for storing a multi-dimensional vtable.
 817:/usr/share/gcc-arm-none-eabi-10-2020-q4-major/arm-none-eabi/include/c++/10.2.1/variant ****   template<typename _Tp, size_t... _Dimensions>
 818:/usr/share/gcc-arm-none-eabi-10-2020-q4-major/arm-none-eabi/include/c++/10.2.1/variant ****     struct _Multi_array;
 819:/usr/share/gcc-arm-none-eabi-10-2020-q4-major/arm-none-eabi/include/c++/10.2.1/variant **** 
 820:/usr/share/gcc-arm-none-eabi-10-2020-q4-major/arm-none-eabi/include/c++/10.2.1/variant ****   // Partial specialization with rank zero, stores a single _Tp element.
 821:/usr/share/gcc-arm-none-eabi-10-2020-q4-major/arm-none-eabi/include/c++/10.2.1/variant ****   template<typename _Tp>
 822:/usr/share/gcc-arm-none-eabi-10-2020-q4-major/arm-none-eabi/include/c++/10.2.1/variant ****     struct _Multi_array<_Tp>
 823:/usr/share/gcc-arm-none-eabi-10-2020-q4-major/arm-none-eabi/include/c++/10.2.1/variant ****     {
 824:/usr/share/gcc-arm-none-eabi-10-2020-q4-major/arm-none-eabi/include/c++/10.2.1/variant ****       template<typename>
 825:/usr/share/gcc-arm-none-eabi-10-2020-q4-major/arm-none-eabi/include/c++/10.2.1/variant **** 	struct __untag_result
 826:/usr/share/gcc-arm-none-eabi-10-2020-q4-major/arm-none-eabi/include/c++/10.2.1/variant **** 	: false_type
 827:/usr/share/gcc-arm-none-eabi-10-2020-q4-major/arm-none-eabi/include/c++/10.2.1/variant **** 	{ using element_type = _Tp; };
 828:/usr/share/gcc-arm-none-eabi-10-2020-q4-major/arm-none-eabi/include/c++/10.2.1/variant **** 
 829:/usr/share/gcc-arm-none-eabi-10-2020-q4-major/arm-none-eabi/include/c++/10.2.1/variant ****       template <typename... _Args>
 830:/usr/share/gcc-arm-none-eabi-10-2020-q4-major/arm-none-eabi/include/c++/10.2.1/variant **** 	struct __untag_result<const void(*)(_Args...)>
 831:/usr/share/gcc-arm-none-eabi-10-2020-q4-major/arm-none-eabi/include/c++/10.2.1/variant **** 	: false_type
 832:/usr/share/gcc-arm-none-eabi-10-2020-q4-major/arm-none-eabi/include/c++/10.2.1/variant **** 	{ using element_type = void(*)(_Args...); };
 833:/usr/share/gcc-arm-none-eabi-10-2020-q4-major/arm-none-eabi/include/c++/10.2.1/variant **** 
 834:/usr/share/gcc-arm-none-eabi-10-2020-q4-major/arm-none-eabi/include/c++/10.2.1/variant ****       template <typename... _Args>
 835:/usr/share/gcc-arm-none-eabi-10-2020-q4-major/arm-none-eabi/include/c++/10.2.1/variant **** 	struct __untag_result<__variant_cookie(*)(_Args...)>
 836:/usr/share/gcc-arm-none-eabi-10-2020-q4-major/arm-none-eabi/include/c++/10.2.1/variant **** 	: false_type
 837:/usr/share/gcc-arm-none-eabi-10-2020-q4-major/arm-none-eabi/include/c++/10.2.1/variant **** 	{ using element_type = void(*)(_Args...); };
 838:/usr/share/gcc-arm-none-eabi-10-2020-q4-major/arm-none-eabi/include/c++/10.2.1/variant **** 
 839:/usr/share/gcc-arm-none-eabi-10-2020-q4-major/arm-none-eabi/include/c++/10.2.1/variant ****       template <typename... _Args>
 840:/usr/share/gcc-arm-none-eabi-10-2020-q4-major/arm-none-eabi/include/c++/10.2.1/variant **** 	struct __untag_result<__variant_idx_cookie(*)(_Args...)>
 841:/usr/share/gcc-arm-none-eabi-10-2020-q4-major/arm-none-eabi/include/c++/10.2.1/variant **** 	: false_type
 842:/usr/share/gcc-arm-none-eabi-10-2020-q4-major/arm-none-eabi/include/c++/10.2.1/variant **** 	{ using element_type = void(*)(_Args...); };
 843:/usr/share/gcc-arm-none-eabi-10-2020-q4-major/arm-none-eabi/include/c++/10.2.1/variant **** 
 844:/usr/share/gcc-arm-none-eabi-10-2020-q4-major/arm-none-eabi/include/c++/10.2.1/variant ****       template <typename _Res, typename... _Args>
 845:/usr/share/gcc-arm-none-eabi-10-2020-q4-major/arm-none-eabi/include/c++/10.2.1/variant **** 	struct __untag_result<__deduce_visit_result<_Res>(*)(_Args...)>
 846:/usr/share/gcc-arm-none-eabi-10-2020-q4-major/arm-none-eabi/include/c++/10.2.1/variant **** 	: true_type
 847:/usr/share/gcc-arm-none-eabi-10-2020-q4-major/arm-none-eabi/include/c++/10.2.1/variant **** 	{ using element_type = _Res(*)(_Args...); };
 848:/usr/share/gcc-arm-none-eabi-10-2020-q4-major/arm-none-eabi/include/c++/10.2.1/variant **** 
 849:/usr/share/gcc-arm-none-eabi-10-2020-q4-major/arm-none-eabi/include/c++/10.2.1/variant ****       using __result_is_deduced = __untag_result<_Tp>;
 850:/usr/share/gcc-arm-none-eabi-10-2020-q4-major/arm-none-eabi/include/c++/10.2.1/variant **** 
 851:/usr/share/gcc-arm-none-eabi-10-2020-q4-major/arm-none-eabi/include/c++/10.2.1/variant ****       constexpr const typename __untag_result<_Tp>::element_type&
 852:/usr/share/gcc-arm-none-eabi-10-2020-q4-major/arm-none-eabi/include/c++/10.2.1/variant ****       _M_access() const
 853:/usr/share/gcc-arm-none-eabi-10-2020-q4-major/arm-none-eabi/include/c++/10.2.1/variant ****       { return _M_data; }
 854:/usr/share/gcc-arm-none-eabi-10-2020-q4-major/arm-none-eabi/include/c++/10.2.1/variant **** 
 855:/usr/share/gcc-arm-none-eabi-10-2020-q4-major/arm-none-eabi/include/c++/10.2.1/variant ****       typename __untag_result<_Tp>::element_type _M_data;
 856:/usr/share/gcc-arm-none-eabi-10-2020-q4-major/arm-none-eabi/include/c++/10.2.1/variant ****     };
 857:/usr/share/gcc-arm-none-eabi-10-2020-q4-major/arm-none-eabi/include/c++/10.2.1/variant **** 
 858:/usr/share/gcc-arm-none-eabi-10-2020-q4-major/arm-none-eabi/include/c++/10.2.1/variant ****   // Partial specialization with rank >= 1.
 859:/usr/share/gcc-arm-none-eabi-10-2020-q4-major/arm-none-eabi/include/c++/10.2.1/variant ****   template<typename _Ret,
 860:/usr/share/gcc-arm-none-eabi-10-2020-q4-major/arm-none-eabi/include/c++/10.2.1/variant **** 	   typename _Visitor,
 861:/usr/share/gcc-arm-none-eabi-10-2020-q4-major/arm-none-eabi/include/c++/10.2.1/variant **** 	   typename... _Variants,
 862:/usr/share/gcc-arm-none-eabi-10-2020-q4-major/arm-none-eabi/include/c++/10.2.1/variant **** 	   size_t __first, size_t... __rest>
 863:/usr/share/gcc-arm-none-eabi-10-2020-q4-major/arm-none-eabi/include/c++/10.2.1/variant ****     struct _Multi_array<_Ret(*)(_Visitor, _Variants...), __first, __rest...>
 864:/usr/share/gcc-arm-none-eabi-10-2020-q4-major/arm-none-eabi/include/c++/10.2.1/variant ****     {
 865:/usr/share/gcc-arm-none-eabi-10-2020-q4-major/arm-none-eabi/include/c++/10.2.1/variant ****       static constexpr size_t __index =
 866:/usr/share/gcc-arm-none-eabi-10-2020-q4-major/arm-none-eabi/include/c++/10.2.1/variant **** 	sizeof...(_Variants) - sizeof...(__rest) - 1;
 867:/usr/share/gcc-arm-none-eabi-10-2020-q4-major/arm-none-eabi/include/c++/10.2.1/variant **** 
 868:/usr/share/gcc-arm-none-eabi-10-2020-q4-major/arm-none-eabi/include/c++/10.2.1/variant ****       using _Variant = typename _Nth_type<__index, _Variants...>::type;
 869:/usr/share/gcc-arm-none-eabi-10-2020-q4-major/arm-none-eabi/include/c++/10.2.1/variant **** 
ARM GAS  /tmp/ccIrndB6.s 			page 20


 870:/usr/share/gcc-arm-none-eabi-10-2020-q4-major/arm-none-eabi/include/c++/10.2.1/variant ****       static constexpr int __do_cookie =
 871:/usr/share/gcc-arm-none-eabi-10-2020-q4-major/arm-none-eabi/include/c++/10.2.1/variant **** 	_Extra_visit_slot_needed<_Ret, _Variant>::value ? 1 : 0;
 872:/usr/share/gcc-arm-none-eabi-10-2020-q4-major/arm-none-eabi/include/c++/10.2.1/variant **** 
 873:/usr/share/gcc-arm-none-eabi-10-2020-q4-major/arm-none-eabi/include/c++/10.2.1/variant ****       using _Tp = _Ret(*)(_Visitor, _Variants...);
 874:/usr/share/gcc-arm-none-eabi-10-2020-q4-major/arm-none-eabi/include/c++/10.2.1/variant **** 
 875:/usr/share/gcc-arm-none-eabi-10-2020-q4-major/arm-none-eabi/include/c++/10.2.1/variant ****       template<typename... _Args>
 876:/usr/share/gcc-arm-none-eabi-10-2020-q4-major/arm-none-eabi/include/c++/10.2.1/variant **** 	constexpr decltype(auto)
 877:/usr/share/gcc-arm-none-eabi-10-2020-q4-major/arm-none-eabi/include/c++/10.2.1/variant **** 	_M_access(size_t __first_index, _Args... __rest_indices) const
 878:/usr/share/gcc-arm-none-eabi-10-2020-q4-major/arm-none-eabi/include/c++/10.2.1/variant ****         {
 879:/usr/share/gcc-arm-none-eabi-10-2020-q4-major/arm-none-eabi/include/c++/10.2.1/variant **** 	  return _M_arr[__first_index + __do_cookie]
 880:/usr/share/gcc-arm-none-eabi-10-2020-q4-major/arm-none-eabi/include/c++/10.2.1/variant **** 	    ._M_access(__rest_indices...);
 881:/usr/share/gcc-arm-none-eabi-10-2020-q4-major/arm-none-eabi/include/c++/10.2.1/variant **** 	}
 882:/usr/share/gcc-arm-none-eabi-10-2020-q4-major/arm-none-eabi/include/c++/10.2.1/variant **** 
 883:/usr/share/gcc-arm-none-eabi-10-2020-q4-major/arm-none-eabi/include/c++/10.2.1/variant ****       _Multi_array<_Tp, __rest...> _M_arr[__first + __do_cookie];
 884:/usr/share/gcc-arm-none-eabi-10-2020-q4-major/arm-none-eabi/include/c++/10.2.1/variant ****     };
 885:/usr/share/gcc-arm-none-eabi-10-2020-q4-major/arm-none-eabi/include/c++/10.2.1/variant **** 
 886:/usr/share/gcc-arm-none-eabi-10-2020-q4-major/arm-none-eabi/include/c++/10.2.1/variant ****   // Creates a multi-dimensional vtable recursively.
 887:/usr/share/gcc-arm-none-eabi-10-2020-q4-major/arm-none-eabi/include/c++/10.2.1/variant ****   //
 888:/usr/share/gcc-arm-none-eabi-10-2020-q4-major/arm-none-eabi/include/c++/10.2.1/variant ****   // For example,
 889:/usr/share/gcc-arm-none-eabi-10-2020-q4-major/arm-none-eabi/include/c++/10.2.1/variant ****   // visit([](auto, auto){},
 890:/usr/share/gcc-arm-none-eabi-10-2020-q4-major/arm-none-eabi/include/c++/10.2.1/variant ****   //       variant<int, char>(),  // typedef'ed as V1
 891:/usr/share/gcc-arm-none-eabi-10-2020-q4-major/arm-none-eabi/include/c++/10.2.1/variant ****   //       variant<float, double, long double>())  // typedef'ed as V2
 892:/usr/share/gcc-arm-none-eabi-10-2020-q4-major/arm-none-eabi/include/c++/10.2.1/variant ****   // will trigger instantiations of:
 893:/usr/share/gcc-arm-none-eabi-10-2020-q4-major/arm-none-eabi/include/c++/10.2.1/variant ****   // __gen_vtable_impl<_Multi_array<void(*)(V1&&, V2&&), 2, 3>,
 894:/usr/share/gcc-arm-none-eabi-10-2020-q4-major/arm-none-eabi/include/c++/10.2.1/variant ****   //                   tuple<V1&&, V2&&>, std::index_sequence<>>
 895:/usr/share/gcc-arm-none-eabi-10-2020-q4-major/arm-none-eabi/include/c++/10.2.1/variant ****   //   __gen_vtable_impl<_Multi_array<void(*)(V1&&, V2&&), 3>,
 896:/usr/share/gcc-arm-none-eabi-10-2020-q4-major/arm-none-eabi/include/c++/10.2.1/variant ****   //                     tuple<V1&&, V2&&>, std::index_sequence<0>>
 897:/usr/share/gcc-arm-none-eabi-10-2020-q4-major/arm-none-eabi/include/c++/10.2.1/variant ****   //     __gen_vtable_impl<_Multi_array<void(*)(V1&&, V2&&)>,
 898:/usr/share/gcc-arm-none-eabi-10-2020-q4-major/arm-none-eabi/include/c++/10.2.1/variant ****   //                       tuple<V1&&, V2&&>, std::index_sequence<0, 0>>
 899:/usr/share/gcc-arm-none-eabi-10-2020-q4-major/arm-none-eabi/include/c++/10.2.1/variant ****   //     __gen_vtable_impl<_Multi_array<void(*)(V1&&, V2&&)>,
 900:/usr/share/gcc-arm-none-eabi-10-2020-q4-major/arm-none-eabi/include/c++/10.2.1/variant ****   //                       tuple<V1&&, V2&&>, std::index_sequence<0, 1>>
 901:/usr/share/gcc-arm-none-eabi-10-2020-q4-major/arm-none-eabi/include/c++/10.2.1/variant ****   //     __gen_vtable_impl<_Multi_array<void(*)(V1&&, V2&&)>,
 902:/usr/share/gcc-arm-none-eabi-10-2020-q4-major/arm-none-eabi/include/c++/10.2.1/variant ****   //                       tuple<V1&&, V2&&>, std::index_sequence<0, 2>>
 903:/usr/share/gcc-arm-none-eabi-10-2020-q4-major/arm-none-eabi/include/c++/10.2.1/variant ****   //   __gen_vtable_impl<_Multi_array<void(*)(V1&&, V2&&), 3>,
 904:/usr/share/gcc-arm-none-eabi-10-2020-q4-major/arm-none-eabi/include/c++/10.2.1/variant ****   //                     tuple<V1&&, V2&&>, std::index_sequence<1>>
 905:/usr/share/gcc-arm-none-eabi-10-2020-q4-major/arm-none-eabi/include/c++/10.2.1/variant ****   //     __gen_vtable_impl<_Multi_array<void(*)(V1&&, V2&&)>,
 906:/usr/share/gcc-arm-none-eabi-10-2020-q4-major/arm-none-eabi/include/c++/10.2.1/variant ****   //                       tuple<V1&&, V2&&>, std::index_sequence<1, 0>>
 907:/usr/share/gcc-arm-none-eabi-10-2020-q4-major/arm-none-eabi/include/c++/10.2.1/variant ****   //     __gen_vtable_impl<_Multi_array<void(*)(V1&&, V2&&)>,
 908:/usr/share/gcc-arm-none-eabi-10-2020-q4-major/arm-none-eabi/include/c++/10.2.1/variant ****   //                       tuple<V1&&, V2&&>, std::index_sequence<1, 1>>
 909:/usr/share/gcc-arm-none-eabi-10-2020-q4-major/arm-none-eabi/include/c++/10.2.1/variant ****   //     __gen_vtable_impl<_Multi_array<void(*)(V1&&, V2&&)>,
 910:/usr/share/gcc-arm-none-eabi-10-2020-q4-major/arm-none-eabi/include/c++/10.2.1/variant ****   //                       tuple<V1&&, V2&&>, std::index_sequence<1, 2>>
 911:/usr/share/gcc-arm-none-eabi-10-2020-q4-major/arm-none-eabi/include/c++/10.2.1/variant ****   // The returned multi-dimensional vtable can be fast accessed by the visitor
 912:/usr/share/gcc-arm-none-eabi-10-2020-q4-major/arm-none-eabi/include/c++/10.2.1/variant ****   // using index calculation.
 913:/usr/share/gcc-arm-none-eabi-10-2020-q4-major/arm-none-eabi/include/c++/10.2.1/variant ****   template<typename _Array_type, typename _Index_seq>
 914:/usr/share/gcc-arm-none-eabi-10-2020-q4-major/arm-none-eabi/include/c++/10.2.1/variant ****     struct __gen_vtable_impl;
 915:/usr/share/gcc-arm-none-eabi-10-2020-q4-major/arm-none-eabi/include/c++/10.2.1/variant **** 
 916:/usr/share/gcc-arm-none-eabi-10-2020-q4-major/arm-none-eabi/include/c++/10.2.1/variant ****   // Defines the _S_apply() member that returns a _Multi_array populated
 917:/usr/share/gcc-arm-none-eabi-10-2020-q4-major/arm-none-eabi/include/c++/10.2.1/variant ****   // with function pointers that perform the visitation expressions e(m)
 918:/usr/share/gcc-arm-none-eabi-10-2020-q4-major/arm-none-eabi/include/c++/10.2.1/variant ****   // for each valid pack of indexes into the variant types _Variants.
 919:/usr/share/gcc-arm-none-eabi-10-2020-q4-major/arm-none-eabi/include/c++/10.2.1/variant ****   //
 920:/usr/share/gcc-arm-none-eabi-10-2020-q4-major/arm-none-eabi/include/c++/10.2.1/variant ****   // This partial specialization builds up the index sequences by recursively
 921:/usr/share/gcc-arm-none-eabi-10-2020-q4-major/arm-none-eabi/include/c++/10.2.1/variant ****   // calling _S_apply() on the next specialization of __gen_vtable_impl.
 922:/usr/share/gcc-arm-none-eabi-10-2020-q4-major/arm-none-eabi/include/c++/10.2.1/variant ****   // The base case of the recursion defines the actual function pointers.
 923:/usr/share/gcc-arm-none-eabi-10-2020-q4-major/arm-none-eabi/include/c++/10.2.1/variant ****   template<typename _Result_type, typename _Visitor, size_t... __dimensions,
 924:/usr/share/gcc-arm-none-eabi-10-2020-q4-major/arm-none-eabi/include/c++/10.2.1/variant **** 	   typename... _Variants, size_t... __indices>
 925:/usr/share/gcc-arm-none-eabi-10-2020-q4-major/arm-none-eabi/include/c++/10.2.1/variant ****     struct __gen_vtable_impl<
 926:/usr/share/gcc-arm-none-eabi-10-2020-q4-major/arm-none-eabi/include/c++/10.2.1/variant **** 	_Multi_array<_Result_type (*)(_Visitor, _Variants...), __dimensions...>,
ARM GAS  /tmp/ccIrndB6.s 			page 21


 927:/usr/share/gcc-arm-none-eabi-10-2020-q4-major/arm-none-eabi/include/c++/10.2.1/variant **** 	std::index_sequence<__indices...>>
 928:/usr/share/gcc-arm-none-eabi-10-2020-q4-major/arm-none-eabi/include/c++/10.2.1/variant ****     {
 929:/usr/share/gcc-arm-none-eabi-10-2020-q4-major/arm-none-eabi/include/c++/10.2.1/variant ****       using _Next =
 930:/usr/share/gcc-arm-none-eabi-10-2020-q4-major/arm-none-eabi/include/c++/10.2.1/variant **** 	  remove_reference_t<typename _Nth_type<sizeof...(__indices),
 931:/usr/share/gcc-arm-none-eabi-10-2020-q4-major/arm-none-eabi/include/c++/10.2.1/variant **** 			     _Variants...>::type>;
 932:/usr/share/gcc-arm-none-eabi-10-2020-q4-major/arm-none-eabi/include/c++/10.2.1/variant ****       using _Array_type =
 933:/usr/share/gcc-arm-none-eabi-10-2020-q4-major/arm-none-eabi/include/c++/10.2.1/variant **** 	  _Multi_array<_Result_type (*)(_Visitor, _Variants...),
 934:/usr/share/gcc-arm-none-eabi-10-2020-q4-major/arm-none-eabi/include/c++/10.2.1/variant **** 		       __dimensions...>;
 935:/usr/share/gcc-arm-none-eabi-10-2020-q4-major/arm-none-eabi/include/c++/10.2.1/variant **** 
 936:/usr/share/gcc-arm-none-eabi-10-2020-q4-major/arm-none-eabi/include/c++/10.2.1/variant ****       static constexpr _Array_type
 937:/usr/share/gcc-arm-none-eabi-10-2020-q4-major/arm-none-eabi/include/c++/10.2.1/variant ****       _S_apply()
 938:/usr/share/gcc-arm-none-eabi-10-2020-q4-major/arm-none-eabi/include/c++/10.2.1/variant ****       {
 939:/usr/share/gcc-arm-none-eabi-10-2020-q4-major/arm-none-eabi/include/c++/10.2.1/variant **** 	_Array_type __vtable{};
 940:/usr/share/gcc-arm-none-eabi-10-2020-q4-major/arm-none-eabi/include/c++/10.2.1/variant **** 	_S_apply_all_alts(
 941:/usr/share/gcc-arm-none-eabi-10-2020-q4-major/arm-none-eabi/include/c++/10.2.1/variant **** 	  __vtable, make_index_sequence<variant_size_v<_Next>>());
 942:/usr/share/gcc-arm-none-eabi-10-2020-q4-major/arm-none-eabi/include/c++/10.2.1/variant **** 	return __vtable;
 943:/usr/share/gcc-arm-none-eabi-10-2020-q4-major/arm-none-eabi/include/c++/10.2.1/variant ****       }
 944:/usr/share/gcc-arm-none-eabi-10-2020-q4-major/arm-none-eabi/include/c++/10.2.1/variant **** 
 945:/usr/share/gcc-arm-none-eabi-10-2020-q4-major/arm-none-eabi/include/c++/10.2.1/variant ****       template<size_t... __var_indices>
 946:/usr/share/gcc-arm-none-eabi-10-2020-q4-major/arm-none-eabi/include/c++/10.2.1/variant **** 	static constexpr void
 947:/usr/share/gcc-arm-none-eabi-10-2020-q4-major/arm-none-eabi/include/c++/10.2.1/variant **** 	_S_apply_all_alts(_Array_type& __vtable,
 948:/usr/share/gcc-arm-none-eabi-10-2020-q4-major/arm-none-eabi/include/c++/10.2.1/variant **** 			  std::index_sequence<__var_indices...>)
 949:/usr/share/gcc-arm-none-eabi-10-2020-q4-major/arm-none-eabi/include/c++/10.2.1/variant **** 	{
 950:/usr/share/gcc-arm-none-eabi-10-2020-q4-major/arm-none-eabi/include/c++/10.2.1/variant **** 	  if constexpr (_Extra_visit_slot_needed<_Result_type, _Next>::value)
 951:/usr/share/gcc-arm-none-eabi-10-2020-q4-major/arm-none-eabi/include/c++/10.2.1/variant **** 	    (_S_apply_single_alt<true, __var_indices>(
 952:/usr/share/gcc-arm-none-eabi-10-2020-q4-major/arm-none-eabi/include/c++/10.2.1/variant **** 	      __vtable._M_arr[__var_indices + 1],
 953:/usr/share/gcc-arm-none-eabi-10-2020-q4-major/arm-none-eabi/include/c++/10.2.1/variant **** 	      &(__vtable._M_arr[0])), ...);
 954:/usr/share/gcc-arm-none-eabi-10-2020-q4-major/arm-none-eabi/include/c++/10.2.1/variant **** 	  else
 955:/usr/share/gcc-arm-none-eabi-10-2020-q4-major/arm-none-eabi/include/c++/10.2.1/variant **** 	    (_S_apply_single_alt<false, __var_indices>(
 956:/usr/share/gcc-arm-none-eabi-10-2020-q4-major/arm-none-eabi/include/c++/10.2.1/variant **** 	      __vtable._M_arr[__var_indices]), ...);
 957:/usr/share/gcc-arm-none-eabi-10-2020-q4-major/arm-none-eabi/include/c++/10.2.1/variant **** 	}
 958:/usr/share/gcc-arm-none-eabi-10-2020-q4-major/arm-none-eabi/include/c++/10.2.1/variant **** 
 959:/usr/share/gcc-arm-none-eabi-10-2020-q4-major/arm-none-eabi/include/c++/10.2.1/variant ****       template<bool __do_cookie, size_t __index, typename _Tp>
 960:/usr/share/gcc-arm-none-eabi-10-2020-q4-major/arm-none-eabi/include/c++/10.2.1/variant **** 	static constexpr void
 961:/usr/share/gcc-arm-none-eabi-10-2020-q4-major/arm-none-eabi/include/c++/10.2.1/variant **** 	_S_apply_single_alt(_Tp& __element, _Tp* __cookie_element = nullptr)
 962:/usr/share/gcc-arm-none-eabi-10-2020-q4-major/arm-none-eabi/include/c++/10.2.1/variant **** 	{
 963:/usr/share/gcc-arm-none-eabi-10-2020-q4-major/arm-none-eabi/include/c++/10.2.1/variant **** 	  if constexpr (__do_cookie)
 964:/usr/share/gcc-arm-none-eabi-10-2020-q4-major/arm-none-eabi/include/c++/10.2.1/variant **** 	    {
 965:/usr/share/gcc-arm-none-eabi-10-2020-q4-major/arm-none-eabi/include/c++/10.2.1/variant **** 	      __element = __gen_vtable_impl<
 966:/usr/share/gcc-arm-none-eabi-10-2020-q4-major/arm-none-eabi/include/c++/10.2.1/variant **** 		_Tp,
 967:/usr/share/gcc-arm-none-eabi-10-2020-q4-major/arm-none-eabi/include/c++/10.2.1/variant **** 		std::index_sequence<__indices..., __index>>::_S_apply();
 968:/usr/share/gcc-arm-none-eabi-10-2020-q4-major/arm-none-eabi/include/c++/10.2.1/variant **** 	      *__cookie_element = __gen_vtable_impl<
 969:/usr/share/gcc-arm-none-eabi-10-2020-q4-major/arm-none-eabi/include/c++/10.2.1/variant **** 		_Tp,
 970:/usr/share/gcc-arm-none-eabi-10-2020-q4-major/arm-none-eabi/include/c++/10.2.1/variant **** 		std::index_sequence<__indices..., variant_npos>>::_S_apply();
 971:/usr/share/gcc-arm-none-eabi-10-2020-q4-major/arm-none-eabi/include/c++/10.2.1/variant **** 	    }
 972:/usr/share/gcc-arm-none-eabi-10-2020-q4-major/arm-none-eabi/include/c++/10.2.1/variant **** 	  else
 973:/usr/share/gcc-arm-none-eabi-10-2020-q4-major/arm-none-eabi/include/c++/10.2.1/variant **** 	    {
 974:/usr/share/gcc-arm-none-eabi-10-2020-q4-major/arm-none-eabi/include/c++/10.2.1/variant **** 	      __element = __gen_vtable_impl<
 975:/usr/share/gcc-arm-none-eabi-10-2020-q4-major/arm-none-eabi/include/c++/10.2.1/variant **** 		remove_reference_t<decltype(__element)>,
 976:/usr/share/gcc-arm-none-eabi-10-2020-q4-major/arm-none-eabi/include/c++/10.2.1/variant **** 		std::index_sequence<__indices..., __index>>::_S_apply();
 977:/usr/share/gcc-arm-none-eabi-10-2020-q4-major/arm-none-eabi/include/c++/10.2.1/variant **** 	    }
 978:/usr/share/gcc-arm-none-eabi-10-2020-q4-major/arm-none-eabi/include/c++/10.2.1/variant **** 	}
 979:/usr/share/gcc-arm-none-eabi-10-2020-q4-major/arm-none-eabi/include/c++/10.2.1/variant ****     };
 980:/usr/share/gcc-arm-none-eabi-10-2020-q4-major/arm-none-eabi/include/c++/10.2.1/variant **** 
 981:/usr/share/gcc-arm-none-eabi-10-2020-q4-major/arm-none-eabi/include/c++/10.2.1/variant ****   // This partial specialization is the base case for the recursion.
 982:/usr/share/gcc-arm-none-eabi-10-2020-q4-major/arm-none-eabi/include/c++/10.2.1/variant ****   // It populates a _Multi_array element with the address of a function
 983:/usr/share/gcc-arm-none-eabi-10-2020-q4-major/arm-none-eabi/include/c++/10.2.1/variant ****   // that invokes the visitor with the alternatives specified by __indices.
ARM GAS  /tmp/ccIrndB6.s 			page 22


 984:/usr/share/gcc-arm-none-eabi-10-2020-q4-major/arm-none-eabi/include/c++/10.2.1/variant ****   template<typename _Result_type, typename _Visitor, typename... _Variants,
 985:/usr/share/gcc-arm-none-eabi-10-2020-q4-major/arm-none-eabi/include/c++/10.2.1/variant **** 	   size_t... __indices>
 986:/usr/share/gcc-arm-none-eabi-10-2020-q4-major/arm-none-eabi/include/c++/10.2.1/variant ****     struct __gen_vtable_impl<
 987:/usr/share/gcc-arm-none-eabi-10-2020-q4-major/arm-none-eabi/include/c++/10.2.1/variant ****       _Multi_array<_Result_type (*)(_Visitor, _Variants...)>,
 988:/usr/share/gcc-arm-none-eabi-10-2020-q4-major/arm-none-eabi/include/c++/10.2.1/variant **** 		   std::index_sequence<__indices...>>
 989:/usr/share/gcc-arm-none-eabi-10-2020-q4-major/arm-none-eabi/include/c++/10.2.1/variant ****     {
 990:/usr/share/gcc-arm-none-eabi-10-2020-q4-major/arm-none-eabi/include/c++/10.2.1/variant ****       using _Array_type =
 991:/usr/share/gcc-arm-none-eabi-10-2020-q4-major/arm-none-eabi/include/c++/10.2.1/variant **** 	  _Multi_array<_Result_type (*)(_Visitor, _Variants...)>;
 992:/usr/share/gcc-arm-none-eabi-10-2020-q4-major/arm-none-eabi/include/c++/10.2.1/variant **** 
 993:/usr/share/gcc-arm-none-eabi-10-2020-q4-major/arm-none-eabi/include/c++/10.2.1/variant ****       template<size_t __index, typename _Variant>
 994:/usr/share/gcc-arm-none-eabi-10-2020-q4-major/arm-none-eabi/include/c++/10.2.1/variant **** 	static constexpr decltype(auto)
 995:/usr/share/gcc-arm-none-eabi-10-2020-q4-major/arm-none-eabi/include/c++/10.2.1/variant **** 	__element_by_index_or_cookie(_Variant&& __var) noexcept
 996:/usr/share/gcc-arm-none-eabi-10-2020-q4-major/arm-none-eabi/include/c++/10.2.1/variant ****         {
 997:/usr/share/gcc-arm-none-eabi-10-2020-q4-major/arm-none-eabi/include/c++/10.2.1/variant **** 	  if constexpr (__index != variant_npos)
 998:/usr/share/gcc-arm-none-eabi-10-2020-q4-major/arm-none-eabi/include/c++/10.2.1/variant **** 	    return __variant::__get<__index>(std::forward<_Variant>(__var));
 999:/usr/share/gcc-arm-none-eabi-10-2020-q4-major/arm-none-eabi/include/c++/10.2.1/variant **** 	  else
1000:/usr/share/gcc-arm-none-eabi-10-2020-q4-major/arm-none-eabi/include/c++/10.2.1/variant **** 	    return __variant_cookie{};
1001:/usr/share/gcc-arm-none-eabi-10-2020-q4-major/arm-none-eabi/include/c++/10.2.1/variant **** 	}
1002:/usr/share/gcc-arm-none-eabi-10-2020-q4-major/arm-none-eabi/include/c++/10.2.1/variant **** 
1003:/usr/share/gcc-arm-none-eabi-10-2020-q4-major/arm-none-eabi/include/c++/10.2.1/variant ****       static constexpr decltype(auto)
1004:/usr/share/gcc-arm-none-eabi-10-2020-q4-major/arm-none-eabi/include/c++/10.2.1/variant ****       __visit_invoke(_Visitor&& __visitor, _Variants... __vars)
1005:/usr/share/gcc-arm-none-eabi-10-2020-q4-major/arm-none-eabi/include/c++/10.2.1/variant ****       {
1006:/usr/share/gcc-arm-none-eabi-10-2020-q4-major/arm-none-eabi/include/c++/10.2.1/variant **** 	if constexpr (is_same_v<_Result_type, __variant_idx_cookie>)
1007:/usr/share/gcc-arm-none-eabi-10-2020-q4-major/arm-none-eabi/include/c++/10.2.1/variant **** 	  // For raw visitation using indices, pass the indices to the visitor
1008:/usr/share/gcc-arm-none-eabi-10-2020-q4-major/arm-none-eabi/include/c++/10.2.1/variant **** 	  // and discard the return value:
1009:/usr/share/gcc-arm-none-eabi-10-2020-q4-major/arm-none-eabi/include/c++/10.2.1/variant **** 	  std::__invoke(std::forward<_Visitor>(__visitor),
1010:/usr/share/gcc-arm-none-eabi-10-2020-q4-major/arm-none-eabi/include/c++/10.2.1/variant **** 	      __element_by_index_or_cookie<__indices>(
1011:/usr/share/gcc-arm-none-eabi-10-2020-q4-major/arm-none-eabi/include/c++/10.2.1/variant **** 		std::forward<_Variants>(__vars))...,
1012:/usr/share/gcc-arm-none-eabi-10-2020-q4-major/arm-none-eabi/include/c++/10.2.1/variant **** 	      integral_constant<size_t, __indices>()...);
1013:/usr/share/gcc-arm-none-eabi-10-2020-q4-major/arm-none-eabi/include/c++/10.2.1/variant **** 	else if constexpr (is_same_v<_Result_type, __variant_cookie>)
1014:/usr/share/gcc-arm-none-eabi-10-2020-q4-major/arm-none-eabi/include/c++/10.2.1/variant **** 	  // For raw visitation without indices, and discard the return value:
1015:/usr/share/gcc-arm-none-eabi-10-2020-q4-major/arm-none-eabi/include/c++/10.2.1/variant **** 	  std::__invoke(std::forward<_Visitor>(__visitor),
1016:/usr/share/gcc-arm-none-eabi-10-2020-q4-major/arm-none-eabi/include/c++/10.2.1/variant **** 	      __element_by_index_or_cookie<__indices>(
1017:/usr/share/gcc-arm-none-eabi-10-2020-q4-major/arm-none-eabi/include/c++/10.2.1/variant **** 		std::forward<_Variants>(__vars))...);
1018:/usr/share/gcc-arm-none-eabi-10-2020-q4-major/arm-none-eabi/include/c++/10.2.1/variant **** 	else if constexpr (_Array_type::__result_is_deduced::value)
1019:/usr/share/gcc-arm-none-eabi-10-2020-q4-major/arm-none-eabi/include/c++/10.2.1/variant **** 	  // For the usual std::visit case deduce the return value:
1020:/usr/share/gcc-arm-none-eabi-10-2020-q4-major/arm-none-eabi/include/c++/10.2.1/variant **** 	  return std::__invoke(std::forward<_Visitor>(__visitor),
1021:/usr/share/gcc-arm-none-eabi-10-2020-q4-major/arm-none-eabi/include/c++/10.2.1/variant **** 	      __element_by_index_or_cookie<__indices>(
1022:/usr/share/gcc-arm-none-eabi-10-2020-q4-major/arm-none-eabi/include/c++/10.2.1/variant **** 		std::forward<_Variants>(__vars))...);
1023:/usr/share/gcc-arm-none-eabi-10-2020-q4-major/arm-none-eabi/include/c++/10.2.1/variant **** 	else // for std::visit<R> use INVOKE<R>
1024:/usr/share/gcc-arm-none-eabi-10-2020-q4-major/arm-none-eabi/include/c++/10.2.1/variant **** 	  return std::__invoke_r<_Result_type>(
1025:/usr/share/gcc-arm-none-eabi-10-2020-q4-major/arm-none-eabi/include/c++/10.2.1/variant **** 	      std::forward<_Visitor>(__visitor),
1026:/usr/share/gcc-arm-none-eabi-10-2020-q4-major/arm-none-eabi/include/c++/10.2.1/variant **** 	      __variant::__get<__indices>(std::forward<_Variants>(__vars))...);
1027:/usr/share/gcc-arm-none-eabi-10-2020-q4-major/arm-none-eabi/include/c++/10.2.1/variant ****       }
1028:/usr/share/gcc-arm-none-eabi-10-2020-q4-major/arm-none-eabi/include/c++/10.2.1/variant **** 
1029:/usr/share/gcc-arm-none-eabi-10-2020-q4-major/arm-none-eabi/include/c++/10.2.1/variant ****       static constexpr auto
1030:/usr/share/gcc-arm-none-eabi-10-2020-q4-major/arm-none-eabi/include/c++/10.2.1/variant ****       _S_apply()
1031:/usr/share/gcc-arm-none-eabi-10-2020-q4-major/arm-none-eabi/include/c++/10.2.1/variant ****       { return _Array_type{&__visit_invoke}; }
1032:/usr/share/gcc-arm-none-eabi-10-2020-q4-major/arm-none-eabi/include/c++/10.2.1/variant ****     };
1033:/usr/share/gcc-arm-none-eabi-10-2020-q4-major/arm-none-eabi/include/c++/10.2.1/variant **** 
1034:/usr/share/gcc-arm-none-eabi-10-2020-q4-major/arm-none-eabi/include/c++/10.2.1/variant ****   template<typename _Result_type, typename _Visitor, typename... _Variants>
1035:/usr/share/gcc-arm-none-eabi-10-2020-q4-major/arm-none-eabi/include/c++/10.2.1/variant ****     struct __gen_vtable
1036:/usr/share/gcc-arm-none-eabi-10-2020-q4-major/arm-none-eabi/include/c++/10.2.1/variant ****     {
1037:/usr/share/gcc-arm-none-eabi-10-2020-q4-major/arm-none-eabi/include/c++/10.2.1/variant ****       using _Array_type =
1038:/usr/share/gcc-arm-none-eabi-10-2020-q4-major/arm-none-eabi/include/c++/10.2.1/variant **** 	  _Multi_array<_Result_type (*)(_Visitor, _Variants...),
1039:/usr/share/gcc-arm-none-eabi-10-2020-q4-major/arm-none-eabi/include/c++/10.2.1/variant **** 		       variant_size_v<remove_reference_t<_Variants>>...>;
1040:/usr/share/gcc-arm-none-eabi-10-2020-q4-major/arm-none-eabi/include/c++/10.2.1/variant **** 
ARM GAS  /tmp/ccIrndB6.s 			page 23


1041:/usr/share/gcc-arm-none-eabi-10-2020-q4-major/arm-none-eabi/include/c++/10.2.1/variant ****       static constexpr _Array_type _S_vtable
1042:/usr/share/gcc-arm-none-eabi-10-2020-q4-major/arm-none-eabi/include/c++/10.2.1/variant **** 	= __gen_vtable_impl<_Array_type, std::index_sequence<>>::_S_apply();
1043:/usr/share/gcc-arm-none-eabi-10-2020-q4-major/arm-none-eabi/include/c++/10.2.1/variant ****     };
1044:/usr/share/gcc-arm-none-eabi-10-2020-q4-major/arm-none-eabi/include/c++/10.2.1/variant **** 
1045:/usr/share/gcc-arm-none-eabi-10-2020-q4-major/arm-none-eabi/include/c++/10.2.1/variant ****   template<size_t _Np, typename _Tp>
1046:/usr/share/gcc-arm-none-eabi-10-2020-q4-major/arm-none-eabi/include/c++/10.2.1/variant ****     struct _Base_dedup : public _Tp { };
1047:/usr/share/gcc-arm-none-eabi-10-2020-q4-major/arm-none-eabi/include/c++/10.2.1/variant **** 
1048:/usr/share/gcc-arm-none-eabi-10-2020-q4-major/arm-none-eabi/include/c++/10.2.1/variant ****   template<typename _Variant, typename __indices>
1049:/usr/share/gcc-arm-none-eabi-10-2020-q4-major/arm-none-eabi/include/c++/10.2.1/variant ****     struct _Variant_hash_base;
1050:/usr/share/gcc-arm-none-eabi-10-2020-q4-major/arm-none-eabi/include/c++/10.2.1/variant **** 
1051:/usr/share/gcc-arm-none-eabi-10-2020-q4-major/arm-none-eabi/include/c++/10.2.1/variant ****   template<typename... _Types, size_t... __indices>
1052:/usr/share/gcc-arm-none-eabi-10-2020-q4-major/arm-none-eabi/include/c++/10.2.1/variant ****     struct _Variant_hash_base<variant<_Types...>,
1053:/usr/share/gcc-arm-none-eabi-10-2020-q4-major/arm-none-eabi/include/c++/10.2.1/variant **** 			      std::index_sequence<__indices...>>
1054:/usr/share/gcc-arm-none-eabi-10-2020-q4-major/arm-none-eabi/include/c++/10.2.1/variant ****     : _Base_dedup<__indices, __poison_hash<remove_const_t<_Types>>>... { };
1055:/usr/share/gcc-arm-none-eabi-10-2020-q4-major/arm-none-eabi/include/c++/10.2.1/variant **** 
1056:/usr/share/gcc-arm-none-eabi-10-2020-q4-major/arm-none-eabi/include/c++/10.2.1/variant **** } // namespace __variant
1057:/usr/share/gcc-arm-none-eabi-10-2020-q4-major/arm-none-eabi/include/c++/10.2.1/variant **** } // namespace __detail
1058:/usr/share/gcc-arm-none-eabi-10-2020-q4-major/arm-none-eabi/include/c++/10.2.1/variant **** 
1059:/usr/share/gcc-arm-none-eabi-10-2020-q4-major/arm-none-eabi/include/c++/10.2.1/variant ****   template<size_t _Np, typename _Variant, typename... _Args>
1060:/usr/share/gcc-arm-none-eabi-10-2020-q4-major/arm-none-eabi/include/c++/10.2.1/variant ****     void __variant_construct_by_index(_Variant& __v, _Args&&... __args)
1061:/usr/share/gcc-arm-none-eabi-10-2020-q4-major/arm-none-eabi/include/c++/10.2.1/variant ****     {
1062:/usr/share/gcc-arm-none-eabi-10-2020-q4-major/arm-none-eabi/include/c++/10.2.1/variant ****       __v._M_index = _Np;
1063:/usr/share/gcc-arm-none-eabi-10-2020-q4-major/arm-none-eabi/include/c++/10.2.1/variant ****       auto&& __storage = __detail::__variant::__get<_Np>(__v);
1064:/usr/share/gcc-arm-none-eabi-10-2020-q4-major/arm-none-eabi/include/c++/10.2.1/variant ****       ::new ((void*)std::addressof(__storage))
1065:/usr/share/gcc-arm-none-eabi-10-2020-q4-major/arm-none-eabi/include/c++/10.2.1/variant ****         remove_reference_t<decltype(__storage)>
1066:/usr/share/gcc-arm-none-eabi-10-2020-q4-major/arm-none-eabi/include/c++/10.2.1/variant **** 	  (std::forward<_Args>(__args)...);
1067:/usr/share/gcc-arm-none-eabi-10-2020-q4-major/arm-none-eabi/include/c++/10.2.1/variant ****     }
1068:/usr/share/gcc-arm-none-eabi-10-2020-q4-major/arm-none-eabi/include/c++/10.2.1/variant **** 
1069:/usr/share/gcc-arm-none-eabi-10-2020-q4-major/arm-none-eabi/include/c++/10.2.1/variant ****   template<typename _Tp, typename... _Types>
1070:/usr/share/gcc-arm-none-eabi-10-2020-q4-major/arm-none-eabi/include/c++/10.2.1/variant ****     constexpr bool
1071:/usr/share/gcc-arm-none-eabi-10-2020-q4-major/arm-none-eabi/include/c++/10.2.1/variant ****     holds_alternative(const variant<_Types...>& __v) noexcept
1072:/usr/share/gcc-arm-none-eabi-10-2020-q4-major/arm-none-eabi/include/c++/10.2.1/variant ****     {
1073:/usr/share/gcc-arm-none-eabi-10-2020-q4-major/arm-none-eabi/include/c++/10.2.1/variant ****       static_assert(__detail::__variant::__exactly_once<_Tp, _Types...>,
1074:/usr/share/gcc-arm-none-eabi-10-2020-q4-major/arm-none-eabi/include/c++/10.2.1/variant **** 		    "T must occur exactly once in alternatives");
1075:/usr/share/gcc-arm-none-eabi-10-2020-q4-major/arm-none-eabi/include/c++/10.2.1/variant ****       return __v.index() == __detail::__variant::__index_of_v<_Tp, _Types...>;
1076:/usr/share/gcc-arm-none-eabi-10-2020-q4-major/arm-none-eabi/include/c++/10.2.1/variant ****     }
1077:/usr/share/gcc-arm-none-eabi-10-2020-q4-major/arm-none-eabi/include/c++/10.2.1/variant **** 
1078:/usr/share/gcc-arm-none-eabi-10-2020-q4-major/arm-none-eabi/include/c++/10.2.1/variant ****   template<typename _Tp, typename... _Types>
1079:/usr/share/gcc-arm-none-eabi-10-2020-q4-major/arm-none-eabi/include/c++/10.2.1/variant ****     constexpr _Tp& get(variant<_Types...>& __v)
1080:/usr/share/gcc-arm-none-eabi-10-2020-q4-major/arm-none-eabi/include/c++/10.2.1/variant ****     {
1081:/usr/share/gcc-arm-none-eabi-10-2020-q4-major/arm-none-eabi/include/c++/10.2.1/variant ****       static_assert(__detail::__variant::__exactly_once<_Tp, _Types...>,
1082:/usr/share/gcc-arm-none-eabi-10-2020-q4-major/arm-none-eabi/include/c++/10.2.1/variant **** 		    "T must occur exactly once in alternatives");
1083:/usr/share/gcc-arm-none-eabi-10-2020-q4-major/arm-none-eabi/include/c++/10.2.1/variant ****       static_assert(!is_void_v<_Tp>, "_Tp must not be void");
1084:/usr/share/gcc-arm-none-eabi-10-2020-q4-major/arm-none-eabi/include/c++/10.2.1/variant ****       return std::get<__detail::__variant::__index_of_v<_Tp, _Types...>>(__v);
1085:/usr/share/gcc-arm-none-eabi-10-2020-q4-major/arm-none-eabi/include/c++/10.2.1/variant ****     }
1086:/usr/share/gcc-arm-none-eabi-10-2020-q4-major/arm-none-eabi/include/c++/10.2.1/variant **** 
1087:/usr/share/gcc-arm-none-eabi-10-2020-q4-major/arm-none-eabi/include/c++/10.2.1/variant ****   template<typename _Tp, typename... _Types>
1088:/usr/share/gcc-arm-none-eabi-10-2020-q4-major/arm-none-eabi/include/c++/10.2.1/variant ****     constexpr _Tp&& get(variant<_Types...>&& __v)
1089:/usr/share/gcc-arm-none-eabi-10-2020-q4-major/arm-none-eabi/include/c++/10.2.1/variant ****     {
1090:/usr/share/gcc-arm-none-eabi-10-2020-q4-major/arm-none-eabi/include/c++/10.2.1/variant ****       static_assert(__detail::__variant::__exactly_once<_Tp, _Types...>,
1091:/usr/share/gcc-arm-none-eabi-10-2020-q4-major/arm-none-eabi/include/c++/10.2.1/variant **** 		    "T must occur exactly once in alternatives");
1092:/usr/share/gcc-arm-none-eabi-10-2020-q4-major/arm-none-eabi/include/c++/10.2.1/variant ****       static_assert(!is_void_v<_Tp>, "_Tp must not be void");
1093:/usr/share/gcc-arm-none-eabi-10-2020-q4-major/arm-none-eabi/include/c++/10.2.1/variant ****       return std::get<__detail::__variant::__index_of_v<_Tp, _Types...>>(
1094:/usr/share/gcc-arm-none-eabi-10-2020-q4-major/arm-none-eabi/include/c++/10.2.1/variant **** 	std::move(__v));
1095:/usr/share/gcc-arm-none-eabi-10-2020-q4-major/arm-none-eabi/include/c++/10.2.1/variant ****     }
1096:/usr/share/gcc-arm-none-eabi-10-2020-q4-major/arm-none-eabi/include/c++/10.2.1/variant **** 
1097:/usr/share/gcc-arm-none-eabi-10-2020-q4-major/arm-none-eabi/include/c++/10.2.1/variant ****   template<typename _Tp, typename... _Types>
ARM GAS  /tmp/ccIrndB6.s 			page 24


1098:/usr/share/gcc-arm-none-eabi-10-2020-q4-major/arm-none-eabi/include/c++/10.2.1/variant ****     constexpr const _Tp& get(const variant<_Types...>& __v)
1099:/usr/share/gcc-arm-none-eabi-10-2020-q4-major/arm-none-eabi/include/c++/10.2.1/variant ****     {
1100:/usr/share/gcc-arm-none-eabi-10-2020-q4-major/arm-none-eabi/include/c++/10.2.1/variant ****       static_assert(__detail::__variant::__exactly_once<_Tp, _Types...>,
1101:/usr/share/gcc-arm-none-eabi-10-2020-q4-major/arm-none-eabi/include/c++/10.2.1/variant **** 		    "T must occur exactly once in alternatives");
1102:/usr/share/gcc-arm-none-eabi-10-2020-q4-major/arm-none-eabi/include/c++/10.2.1/variant ****       static_assert(!is_void_v<_Tp>, "_Tp must not be void");
1103:/usr/share/gcc-arm-none-eabi-10-2020-q4-major/arm-none-eabi/include/c++/10.2.1/variant ****       return std::get<__detail::__variant::__index_of_v<_Tp, _Types...>>(__v);
1104:/usr/share/gcc-arm-none-eabi-10-2020-q4-major/arm-none-eabi/include/c++/10.2.1/variant ****     }
1105:/usr/share/gcc-arm-none-eabi-10-2020-q4-major/arm-none-eabi/include/c++/10.2.1/variant **** 
1106:/usr/share/gcc-arm-none-eabi-10-2020-q4-major/arm-none-eabi/include/c++/10.2.1/variant ****   template<typename _Tp, typename... _Types>
1107:/usr/share/gcc-arm-none-eabi-10-2020-q4-major/arm-none-eabi/include/c++/10.2.1/variant ****     constexpr const _Tp&& get(const variant<_Types...>&& __v)
1108:/usr/share/gcc-arm-none-eabi-10-2020-q4-major/arm-none-eabi/include/c++/10.2.1/variant ****     {
1109:/usr/share/gcc-arm-none-eabi-10-2020-q4-major/arm-none-eabi/include/c++/10.2.1/variant ****       static_assert(__detail::__variant::__exactly_once<_Tp, _Types...>,
1110:/usr/share/gcc-arm-none-eabi-10-2020-q4-major/arm-none-eabi/include/c++/10.2.1/variant **** 		    "T must occur exactly once in alternatives");
1111:/usr/share/gcc-arm-none-eabi-10-2020-q4-major/arm-none-eabi/include/c++/10.2.1/variant ****       static_assert(!is_void_v<_Tp>, "_Tp must not be void");
1112:/usr/share/gcc-arm-none-eabi-10-2020-q4-major/arm-none-eabi/include/c++/10.2.1/variant ****       return std::get<__detail::__variant::__index_of_v<_Tp, _Types...>>(
1113:/usr/share/gcc-arm-none-eabi-10-2020-q4-major/arm-none-eabi/include/c++/10.2.1/variant **** 	std::move(__v));
1114:/usr/share/gcc-arm-none-eabi-10-2020-q4-major/arm-none-eabi/include/c++/10.2.1/variant ****     }
1115:/usr/share/gcc-arm-none-eabi-10-2020-q4-major/arm-none-eabi/include/c++/10.2.1/variant **** 
1116:/usr/share/gcc-arm-none-eabi-10-2020-q4-major/arm-none-eabi/include/c++/10.2.1/variant ****   template<size_t _Np, typename... _Types>
1117:/usr/share/gcc-arm-none-eabi-10-2020-q4-major/arm-none-eabi/include/c++/10.2.1/variant ****     constexpr add_pointer_t<variant_alternative_t<_Np, variant<_Types...>>>
1118:/usr/share/gcc-arm-none-eabi-10-2020-q4-major/arm-none-eabi/include/c++/10.2.1/variant ****     get_if(variant<_Types...>* __ptr) noexcept
1119:/usr/share/gcc-arm-none-eabi-10-2020-q4-major/arm-none-eabi/include/c++/10.2.1/variant ****     {
1120:/usr/share/gcc-arm-none-eabi-10-2020-q4-major/arm-none-eabi/include/c++/10.2.1/variant ****       using _Alternative_type = variant_alternative_t<_Np, variant<_Types...>>;
1121:/usr/share/gcc-arm-none-eabi-10-2020-q4-major/arm-none-eabi/include/c++/10.2.1/variant ****       static_assert(_Np < sizeof...(_Types),
1122:/usr/share/gcc-arm-none-eabi-10-2020-q4-major/arm-none-eabi/include/c++/10.2.1/variant **** 		    "The index must be in [0, number of alternatives)");
1123:/usr/share/gcc-arm-none-eabi-10-2020-q4-major/arm-none-eabi/include/c++/10.2.1/variant ****       static_assert(!is_void_v<_Alternative_type>, "_Tp must not be void");
1124:/usr/share/gcc-arm-none-eabi-10-2020-q4-major/arm-none-eabi/include/c++/10.2.1/variant ****       if (__ptr && __ptr->index() == _Np)
1125:/usr/share/gcc-arm-none-eabi-10-2020-q4-major/arm-none-eabi/include/c++/10.2.1/variant **** 	return std::addressof(__detail::__variant::__get<_Np>(*__ptr));
1126:/usr/share/gcc-arm-none-eabi-10-2020-q4-major/arm-none-eabi/include/c++/10.2.1/variant ****       return nullptr;
1127:/usr/share/gcc-arm-none-eabi-10-2020-q4-major/arm-none-eabi/include/c++/10.2.1/variant ****     }
1128:/usr/share/gcc-arm-none-eabi-10-2020-q4-major/arm-none-eabi/include/c++/10.2.1/variant **** 
1129:/usr/share/gcc-arm-none-eabi-10-2020-q4-major/arm-none-eabi/include/c++/10.2.1/variant ****   template<size_t _Np, typename... _Types>
1130:/usr/share/gcc-arm-none-eabi-10-2020-q4-major/arm-none-eabi/include/c++/10.2.1/variant ****     constexpr
1131:/usr/share/gcc-arm-none-eabi-10-2020-q4-major/arm-none-eabi/include/c++/10.2.1/variant ****     add_pointer_t<const variant_alternative_t<_Np, variant<_Types...>>>
1132:/usr/share/gcc-arm-none-eabi-10-2020-q4-major/arm-none-eabi/include/c++/10.2.1/variant ****     get_if(const variant<_Types...>* __ptr) noexcept
1133:/usr/share/gcc-arm-none-eabi-10-2020-q4-major/arm-none-eabi/include/c++/10.2.1/variant ****     {
1134:/usr/share/gcc-arm-none-eabi-10-2020-q4-major/arm-none-eabi/include/c++/10.2.1/variant ****       using _Alternative_type = variant_alternative_t<_Np, variant<_Types...>>;
1135:/usr/share/gcc-arm-none-eabi-10-2020-q4-major/arm-none-eabi/include/c++/10.2.1/variant ****       static_assert(_Np < sizeof...(_Types),
1136:/usr/share/gcc-arm-none-eabi-10-2020-q4-major/arm-none-eabi/include/c++/10.2.1/variant **** 		    "The index must be in [0, number of alternatives)");
1137:/usr/share/gcc-arm-none-eabi-10-2020-q4-major/arm-none-eabi/include/c++/10.2.1/variant ****       static_assert(!is_void_v<_Alternative_type>, "_Tp must not be void");
1138:/usr/share/gcc-arm-none-eabi-10-2020-q4-major/arm-none-eabi/include/c++/10.2.1/variant ****       if (__ptr && __ptr->index() == _Np)
1139:/usr/share/gcc-arm-none-eabi-10-2020-q4-major/arm-none-eabi/include/c++/10.2.1/variant **** 	return std::addressof(__detail::__variant::__get<_Np>(*__ptr));
1140:/usr/share/gcc-arm-none-eabi-10-2020-q4-major/arm-none-eabi/include/c++/10.2.1/variant ****       return nullptr;
1141:/usr/share/gcc-arm-none-eabi-10-2020-q4-major/arm-none-eabi/include/c++/10.2.1/variant ****     }
1142:/usr/share/gcc-arm-none-eabi-10-2020-q4-major/arm-none-eabi/include/c++/10.2.1/variant **** 
1143:/usr/share/gcc-arm-none-eabi-10-2020-q4-major/arm-none-eabi/include/c++/10.2.1/variant ****   template<typename _Tp, typename... _Types>
1144:/usr/share/gcc-arm-none-eabi-10-2020-q4-major/arm-none-eabi/include/c++/10.2.1/variant ****     constexpr add_pointer_t<_Tp>
1145:/usr/share/gcc-arm-none-eabi-10-2020-q4-major/arm-none-eabi/include/c++/10.2.1/variant ****     get_if(variant<_Types...>* __ptr) noexcept
1146:/usr/share/gcc-arm-none-eabi-10-2020-q4-major/arm-none-eabi/include/c++/10.2.1/variant ****     {
1147:/usr/share/gcc-arm-none-eabi-10-2020-q4-major/arm-none-eabi/include/c++/10.2.1/variant ****       static_assert(__detail::__variant::__exactly_once<_Tp, _Types...>,
1148:/usr/share/gcc-arm-none-eabi-10-2020-q4-major/arm-none-eabi/include/c++/10.2.1/variant **** 		    "T must occur exactly once in alternatives");
1149:/usr/share/gcc-arm-none-eabi-10-2020-q4-major/arm-none-eabi/include/c++/10.2.1/variant ****       static_assert(!is_void_v<_Tp>, "_Tp must not be void");
1150:/usr/share/gcc-arm-none-eabi-10-2020-q4-major/arm-none-eabi/include/c++/10.2.1/variant ****       return std::get_if<__detail::__variant::__index_of_v<_Tp, _Types...>>(
1151:/usr/share/gcc-arm-none-eabi-10-2020-q4-major/arm-none-eabi/include/c++/10.2.1/variant **** 	  __ptr);
1152:/usr/share/gcc-arm-none-eabi-10-2020-q4-major/arm-none-eabi/include/c++/10.2.1/variant ****     }
1153:/usr/share/gcc-arm-none-eabi-10-2020-q4-major/arm-none-eabi/include/c++/10.2.1/variant **** 
1154:/usr/share/gcc-arm-none-eabi-10-2020-q4-major/arm-none-eabi/include/c++/10.2.1/variant ****   template<typename _Tp, typename... _Types>
ARM GAS  /tmp/ccIrndB6.s 			page 25


1155:/usr/share/gcc-arm-none-eabi-10-2020-q4-major/arm-none-eabi/include/c++/10.2.1/variant ****     constexpr add_pointer_t<const _Tp>
1156:/usr/share/gcc-arm-none-eabi-10-2020-q4-major/arm-none-eabi/include/c++/10.2.1/variant ****     get_if(const variant<_Types...>* __ptr) noexcept
1157:/usr/share/gcc-arm-none-eabi-10-2020-q4-major/arm-none-eabi/include/c++/10.2.1/variant ****     {
1158:/usr/share/gcc-arm-none-eabi-10-2020-q4-major/arm-none-eabi/include/c++/10.2.1/variant ****       static_assert(__detail::__variant::__exactly_once<_Tp, _Types...>,
1159:/usr/share/gcc-arm-none-eabi-10-2020-q4-major/arm-none-eabi/include/c++/10.2.1/variant **** 		    "T must occur exactly once in alternatives");
1160:/usr/share/gcc-arm-none-eabi-10-2020-q4-major/arm-none-eabi/include/c++/10.2.1/variant ****       static_assert(!is_void_v<_Tp>, "_Tp must not be void");
1161:/usr/share/gcc-arm-none-eabi-10-2020-q4-major/arm-none-eabi/include/c++/10.2.1/variant ****       return std::get_if<__detail::__variant::__index_of_v<_Tp, _Types...>>(
1162:/usr/share/gcc-arm-none-eabi-10-2020-q4-major/arm-none-eabi/include/c++/10.2.1/variant **** 	  __ptr);
1163:/usr/share/gcc-arm-none-eabi-10-2020-q4-major/arm-none-eabi/include/c++/10.2.1/variant ****     }
1164:/usr/share/gcc-arm-none-eabi-10-2020-q4-major/arm-none-eabi/include/c++/10.2.1/variant **** 
1165:/usr/share/gcc-arm-none-eabi-10-2020-q4-major/arm-none-eabi/include/c++/10.2.1/variant ****   struct monostate { };
1166:/usr/share/gcc-arm-none-eabi-10-2020-q4-major/arm-none-eabi/include/c++/10.2.1/variant **** 
1167:/usr/share/gcc-arm-none-eabi-10-2020-q4-major/arm-none-eabi/include/c++/10.2.1/variant **** #define _VARIANT_RELATION_FUNCTION_TEMPLATE(__OP, __NAME) \
1168:/usr/share/gcc-arm-none-eabi-10-2020-q4-major/arm-none-eabi/include/c++/10.2.1/variant ****   template<typename... _Types> \
1169:/usr/share/gcc-arm-none-eabi-10-2020-q4-major/arm-none-eabi/include/c++/10.2.1/variant ****     constexpr bool operator __OP(const variant<_Types...>& __lhs, \
1170:/usr/share/gcc-arm-none-eabi-10-2020-q4-major/arm-none-eabi/include/c++/10.2.1/variant **** 				 const variant<_Types...>& __rhs) \
1171:/usr/share/gcc-arm-none-eabi-10-2020-q4-major/arm-none-eabi/include/c++/10.2.1/variant ****     { \
1172:/usr/share/gcc-arm-none-eabi-10-2020-q4-major/arm-none-eabi/include/c++/10.2.1/variant ****       bool __ret = true; \
1173:/usr/share/gcc-arm-none-eabi-10-2020-q4-major/arm-none-eabi/include/c++/10.2.1/variant ****       __detail::__variant::__raw_idx_visit( \
1174:/usr/share/gcc-arm-none-eabi-10-2020-q4-major/arm-none-eabi/include/c++/10.2.1/variant ****         [&__ret, &__lhs] (auto&& __rhs_mem, auto __rhs_index) mutable \
1175:/usr/share/gcc-arm-none-eabi-10-2020-q4-major/arm-none-eabi/include/c++/10.2.1/variant ****         { \
1176:/usr/share/gcc-arm-none-eabi-10-2020-q4-major/arm-none-eabi/include/c++/10.2.1/variant **** 	  if constexpr (__rhs_index != variant_npos) \
1177:/usr/share/gcc-arm-none-eabi-10-2020-q4-major/arm-none-eabi/include/c++/10.2.1/variant **** 	    { \
1178:/usr/share/gcc-arm-none-eabi-10-2020-q4-major/arm-none-eabi/include/c++/10.2.1/variant **** 	      if (__lhs.index() == __rhs_index) \
1179:/usr/share/gcc-arm-none-eabi-10-2020-q4-major/arm-none-eabi/include/c++/10.2.1/variant **** 	        { \
1180:/usr/share/gcc-arm-none-eabi-10-2020-q4-major/arm-none-eabi/include/c++/10.2.1/variant **** 		  auto& __this_mem = std::get<__rhs_index>(__lhs);	\
1181:/usr/share/gcc-arm-none-eabi-10-2020-q4-major/arm-none-eabi/include/c++/10.2.1/variant ****                   __ret = __this_mem __OP __rhs_mem; \
1182:/usr/share/gcc-arm-none-eabi-10-2020-q4-major/arm-none-eabi/include/c++/10.2.1/variant ****                 } \
1183:/usr/share/gcc-arm-none-eabi-10-2020-q4-major/arm-none-eabi/include/c++/10.2.1/variant **** 	      else \
1184:/usr/share/gcc-arm-none-eabi-10-2020-q4-major/arm-none-eabi/include/c++/10.2.1/variant **** 		__ret = (__lhs.index() + 1) __OP (__rhs_index + 1); \
1185:/usr/share/gcc-arm-none-eabi-10-2020-q4-major/arm-none-eabi/include/c++/10.2.1/variant ****             } \
1186:/usr/share/gcc-arm-none-eabi-10-2020-q4-major/arm-none-eabi/include/c++/10.2.1/variant ****           else \
1187:/usr/share/gcc-arm-none-eabi-10-2020-q4-major/arm-none-eabi/include/c++/10.2.1/variant ****             __ret = (__lhs.index() + 1) __OP (__rhs_index + 1); \
1188:/usr/share/gcc-arm-none-eabi-10-2020-q4-major/arm-none-eabi/include/c++/10.2.1/variant **** 	}, __rhs); \
1189:/usr/share/gcc-arm-none-eabi-10-2020-q4-major/arm-none-eabi/include/c++/10.2.1/variant ****       return __ret; \
1190:/usr/share/gcc-arm-none-eabi-10-2020-q4-major/arm-none-eabi/include/c++/10.2.1/variant ****     }
1191:/usr/share/gcc-arm-none-eabi-10-2020-q4-major/arm-none-eabi/include/c++/10.2.1/variant **** 
1192:/usr/share/gcc-arm-none-eabi-10-2020-q4-major/arm-none-eabi/include/c++/10.2.1/variant ****   _VARIANT_RELATION_FUNCTION_TEMPLATE(<, less)
1193:/usr/share/gcc-arm-none-eabi-10-2020-q4-major/arm-none-eabi/include/c++/10.2.1/variant ****   _VARIANT_RELATION_FUNCTION_TEMPLATE(<=, less_equal)
1194:/usr/share/gcc-arm-none-eabi-10-2020-q4-major/arm-none-eabi/include/c++/10.2.1/variant ****   _VARIANT_RELATION_FUNCTION_TEMPLATE(==, equal)
1195:/usr/share/gcc-arm-none-eabi-10-2020-q4-major/arm-none-eabi/include/c++/10.2.1/variant ****   _VARIANT_RELATION_FUNCTION_TEMPLATE(!=, not_equal)
1196:/usr/share/gcc-arm-none-eabi-10-2020-q4-major/arm-none-eabi/include/c++/10.2.1/variant ****   _VARIANT_RELATION_FUNCTION_TEMPLATE(>=, greater_equal)
1197:/usr/share/gcc-arm-none-eabi-10-2020-q4-major/arm-none-eabi/include/c++/10.2.1/variant ****   _VARIANT_RELATION_FUNCTION_TEMPLATE(>, greater)
1198:/usr/share/gcc-arm-none-eabi-10-2020-q4-major/arm-none-eabi/include/c++/10.2.1/variant **** 
1199:/usr/share/gcc-arm-none-eabi-10-2020-q4-major/arm-none-eabi/include/c++/10.2.1/variant **** #undef _VARIANT_RELATION_FUNCTION_TEMPLATE
1200:/usr/share/gcc-arm-none-eabi-10-2020-q4-major/arm-none-eabi/include/c++/10.2.1/variant **** 
1201:/usr/share/gcc-arm-none-eabi-10-2020-q4-major/arm-none-eabi/include/c++/10.2.1/variant ****   constexpr bool operator==(monostate, monostate) noexcept { return true; }
1202:/usr/share/gcc-arm-none-eabi-10-2020-q4-major/arm-none-eabi/include/c++/10.2.1/variant **** 
1203:/usr/share/gcc-arm-none-eabi-10-2020-q4-major/arm-none-eabi/include/c++/10.2.1/variant **** #ifdef __cpp_lib_three_way_comparison
1204:/usr/share/gcc-arm-none-eabi-10-2020-q4-major/arm-none-eabi/include/c++/10.2.1/variant ****   template<typename... _Types>
1205:/usr/share/gcc-arm-none-eabi-10-2020-q4-major/arm-none-eabi/include/c++/10.2.1/variant ****     requires (three_way_comparable<_Types> && ...)
1206:/usr/share/gcc-arm-none-eabi-10-2020-q4-major/arm-none-eabi/include/c++/10.2.1/variant ****     constexpr
1207:/usr/share/gcc-arm-none-eabi-10-2020-q4-major/arm-none-eabi/include/c++/10.2.1/variant ****     common_comparison_category_t<compare_three_way_result_t<_Types>...>
1208:/usr/share/gcc-arm-none-eabi-10-2020-q4-major/arm-none-eabi/include/c++/10.2.1/variant ****     operator<=>(const variant<_Types...>& __v, const variant<_Types...>& __w)
1209:/usr/share/gcc-arm-none-eabi-10-2020-q4-major/arm-none-eabi/include/c++/10.2.1/variant ****     {
1210:/usr/share/gcc-arm-none-eabi-10-2020-q4-major/arm-none-eabi/include/c++/10.2.1/variant ****       common_comparison_category_t<compare_three_way_result_t<_Types>...> __ret
1211:/usr/share/gcc-arm-none-eabi-10-2020-q4-major/arm-none-eabi/include/c++/10.2.1/variant **** 	= strong_ordering::equal;
ARM GAS  /tmp/ccIrndB6.s 			page 26


1212:/usr/share/gcc-arm-none-eabi-10-2020-q4-major/arm-none-eabi/include/c++/10.2.1/variant **** 
1213:/usr/share/gcc-arm-none-eabi-10-2020-q4-major/arm-none-eabi/include/c++/10.2.1/variant ****       __detail::__variant::__raw_idx_visit(
1214:/usr/share/gcc-arm-none-eabi-10-2020-q4-major/arm-none-eabi/include/c++/10.2.1/variant **** 	[&__ret, &__v] (auto&& __w_mem, auto __w_index) mutable
1215:/usr/share/gcc-arm-none-eabi-10-2020-q4-major/arm-none-eabi/include/c++/10.2.1/variant **** 	{
1216:/usr/share/gcc-arm-none-eabi-10-2020-q4-major/arm-none-eabi/include/c++/10.2.1/variant **** 	  if constexpr (__w_index != variant_npos)
1217:/usr/share/gcc-arm-none-eabi-10-2020-q4-major/arm-none-eabi/include/c++/10.2.1/variant **** 	    {
1218:/usr/share/gcc-arm-none-eabi-10-2020-q4-major/arm-none-eabi/include/c++/10.2.1/variant **** 	      if (__v.index() == __w_index)
1219:/usr/share/gcc-arm-none-eabi-10-2020-q4-major/arm-none-eabi/include/c++/10.2.1/variant **** 		{
1220:/usr/share/gcc-arm-none-eabi-10-2020-q4-major/arm-none-eabi/include/c++/10.2.1/variant **** 		  auto& __this_mem = std::get<__w_index>(__v);
1221:/usr/share/gcc-arm-none-eabi-10-2020-q4-major/arm-none-eabi/include/c++/10.2.1/variant **** 		  __ret = __this_mem <=> __w_mem;
1222:/usr/share/gcc-arm-none-eabi-10-2020-q4-major/arm-none-eabi/include/c++/10.2.1/variant **** 		  return;
1223:/usr/share/gcc-arm-none-eabi-10-2020-q4-major/arm-none-eabi/include/c++/10.2.1/variant **** 		}
1224:/usr/share/gcc-arm-none-eabi-10-2020-q4-major/arm-none-eabi/include/c++/10.2.1/variant **** 	    }
1225:/usr/share/gcc-arm-none-eabi-10-2020-q4-major/arm-none-eabi/include/c++/10.2.1/variant **** 	  __ret = (__v.index() + 1) <=> (__w_index + 1);
1226:/usr/share/gcc-arm-none-eabi-10-2020-q4-major/arm-none-eabi/include/c++/10.2.1/variant **** 	}, __w);
1227:/usr/share/gcc-arm-none-eabi-10-2020-q4-major/arm-none-eabi/include/c++/10.2.1/variant ****       return __ret;
1228:/usr/share/gcc-arm-none-eabi-10-2020-q4-major/arm-none-eabi/include/c++/10.2.1/variant ****     }
1229:/usr/share/gcc-arm-none-eabi-10-2020-q4-major/arm-none-eabi/include/c++/10.2.1/variant **** 
1230:/usr/share/gcc-arm-none-eabi-10-2020-q4-major/arm-none-eabi/include/c++/10.2.1/variant ****   constexpr strong_ordering
1231:/usr/share/gcc-arm-none-eabi-10-2020-q4-major/arm-none-eabi/include/c++/10.2.1/variant ****   operator<=>(monostate, monostate) noexcept { return strong_ordering::equal; }
1232:/usr/share/gcc-arm-none-eabi-10-2020-q4-major/arm-none-eabi/include/c++/10.2.1/variant **** #else
1233:/usr/share/gcc-arm-none-eabi-10-2020-q4-major/arm-none-eabi/include/c++/10.2.1/variant ****   constexpr bool operator!=(monostate, monostate) noexcept { return false; }
1234:/usr/share/gcc-arm-none-eabi-10-2020-q4-major/arm-none-eabi/include/c++/10.2.1/variant ****   constexpr bool operator<(monostate, monostate) noexcept { return false; }
1235:/usr/share/gcc-arm-none-eabi-10-2020-q4-major/arm-none-eabi/include/c++/10.2.1/variant ****   constexpr bool operator>(monostate, monostate) noexcept { return false; }
1236:/usr/share/gcc-arm-none-eabi-10-2020-q4-major/arm-none-eabi/include/c++/10.2.1/variant ****   constexpr bool operator<=(monostate, monostate) noexcept { return true; }
1237:/usr/share/gcc-arm-none-eabi-10-2020-q4-major/arm-none-eabi/include/c++/10.2.1/variant ****   constexpr bool operator>=(monostate, monostate) noexcept { return true; }
1238:/usr/share/gcc-arm-none-eabi-10-2020-q4-major/arm-none-eabi/include/c++/10.2.1/variant **** #endif
1239:/usr/share/gcc-arm-none-eabi-10-2020-q4-major/arm-none-eabi/include/c++/10.2.1/variant **** 
1240:/usr/share/gcc-arm-none-eabi-10-2020-q4-major/arm-none-eabi/include/c++/10.2.1/variant ****   template<typename _Visitor, typename... _Variants>
1241:/usr/share/gcc-arm-none-eabi-10-2020-q4-major/arm-none-eabi/include/c++/10.2.1/variant ****     constexpr decltype(auto) visit(_Visitor&&, _Variants&&...);
1242:/usr/share/gcc-arm-none-eabi-10-2020-q4-major/arm-none-eabi/include/c++/10.2.1/variant **** 
1243:/usr/share/gcc-arm-none-eabi-10-2020-q4-major/arm-none-eabi/include/c++/10.2.1/variant ****   template<typename... _Types>
1244:/usr/share/gcc-arm-none-eabi-10-2020-q4-major/arm-none-eabi/include/c++/10.2.1/variant ****     inline enable_if_t<(is_move_constructible_v<_Types> && ...)
1245:/usr/share/gcc-arm-none-eabi-10-2020-q4-major/arm-none-eabi/include/c++/10.2.1/variant **** 			&& (is_swappable_v<_Types> && ...)>
1246:/usr/share/gcc-arm-none-eabi-10-2020-q4-major/arm-none-eabi/include/c++/10.2.1/variant ****     swap(variant<_Types...>& __lhs, variant<_Types...>& __rhs)
1247:/usr/share/gcc-arm-none-eabi-10-2020-q4-major/arm-none-eabi/include/c++/10.2.1/variant ****     noexcept(noexcept(__lhs.swap(__rhs)))
1248:/usr/share/gcc-arm-none-eabi-10-2020-q4-major/arm-none-eabi/include/c++/10.2.1/variant ****     { __lhs.swap(__rhs); }
1249:/usr/share/gcc-arm-none-eabi-10-2020-q4-major/arm-none-eabi/include/c++/10.2.1/variant **** 
1250:/usr/share/gcc-arm-none-eabi-10-2020-q4-major/arm-none-eabi/include/c++/10.2.1/variant ****   template<typename... _Types>
1251:/usr/share/gcc-arm-none-eabi-10-2020-q4-major/arm-none-eabi/include/c++/10.2.1/variant ****     enable_if_t<!((is_move_constructible_v<_Types> && ...)
1252:/usr/share/gcc-arm-none-eabi-10-2020-q4-major/arm-none-eabi/include/c++/10.2.1/variant **** 		   && (is_swappable_v<_Types> && ...))>
1253:/usr/share/gcc-arm-none-eabi-10-2020-q4-major/arm-none-eabi/include/c++/10.2.1/variant ****     swap(variant<_Types...>&, variant<_Types...>&) = delete;
1254:/usr/share/gcc-arm-none-eabi-10-2020-q4-major/arm-none-eabi/include/c++/10.2.1/variant **** 
1255:/usr/share/gcc-arm-none-eabi-10-2020-q4-major/arm-none-eabi/include/c++/10.2.1/variant ****   class bad_variant_access : public exception
1256:/usr/share/gcc-arm-none-eabi-10-2020-q4-major/arm-none-eabi/include/c++/10.2.1/variant ****   {
1257:/usr/share/gcc-arm-none-eabi-10-2020-q4-major/arm-none-eabi/include/c++/10.2.1/variant ****   public:
1258:/usr/share/gcc-arm-none-eabi-10-2020-q4-major/arm-none-eabi/include/c++/10.2.1/variant ****     bad_variant_access() noexcept { }
1259:/usr/share/gcc-arm-none-eabi-10-2020-q4-major/arm-none-eabi/include/c++/10.2.1/variant **** 
1260:/usr/share/gcc-arm-none-eabi-10-2020-q4-major/arm-none-eabi/include/c++/10.2.1/variant ****     const char* what() const noexcept override
1261:/usr/share/gcc-arm-none-eabi-10-2020-q4-major/arm-none-eabi/include/c++/10.2.1/variant ****     { return _M_reason; }
1262:/usr/share/gcc-arm-none-eabi-10-2020-q4-major/arm-none-eabi/include/c++/10.2.1/variant **** 
1263:/usr/share/gcc-arm-none-eabi-10-2020-q4-major/arm-none-eabi/include/c++/10.2.1/variant ****   private:
1264:/usr/share/gcc-arm-none-eabi-10-2020-q4-major/arm-none-eabi/include/c++/10.2.1/variant ****     bad_variant_access(const char* __reason) noexcept : _M_reason(__reason) { }
1265:/usr/share/gcc-arm-none-eabi-10-2020-q4-major/arm-none-eabi/include/c++/10.2.1/variant **** 
1266:/usr/share/gcc-arm-none-eabi-10-2020-q4-major/arm-none-eabi/include/c++/10.2.1/variant ****     // Must point to a string with static storage duration:
1267:/usr/share/gcc-arm-none-eabi-10-2020-q4-major/arm-none-eabi/include/c++/10.2.1/variant ****     const char* _M_reason = "bad variant access";
1268:/usr/share/gcc-arm-none-eabi-10-2020-q4-major/arm-none-eabi/include/c++/10.2.1/variant **** 
ARM GAS  /tmp/ccIrndB6.s 			page 27


1269:/usr/share/gcc-arm-none-eabi-10-2020-q4-major/arm-none-eabi/include/c++/10.2.1/variant ****     friend void __throw_bad_variant_access(const char* __what);
1270:/usr/share/gcc-arm-none-eabi-10-2020-q4-major/arm-none-eabi/include/c++/10.2.1/variant ****   };
1271:/usr/share/gcc-arm-none-eabi-10-2020-q4-major/arm-none-eabi/include/c++/10.2.1/variant **** 
1272:/usr/share/gcc-arm-none-eabi-10-2020-q4-major/arm-none-eabi/include/c++/10.2.1/variant ****   // Must only be called with a string literal
1273:/usr/share/gcc-arm-none-eabi-10-2020-q4-major/arm-none-eabi/include/c++/10.2.1/variant ****   inline void
1274:/usr/share/gcc-arm-none-eabi-10-2020-q4-major/arm-none-eabi/include/c++/10.2.1/variant ****   __throw_bad_variant_access(const char* __what)
1275:/usr/share/gcc-arm-none-eabi-10-2020-q4-major/arm-none-eabi/include/c++/10.2.1/variant ****   { _GLIBCXX_THROW_OR_ABORT(bad_variant_access(__what)); }
 153              		.loc 2 1275 3
 154              		.cfi_startproc
 155              		@ args = 0, pretend = 0, frame = 8
 156              		@ frame_needed = 1, uses_anonymous_args = 0
 157 0000 80B5     		push	{r7, lr}
 158              	.LCFI6:
 159              		.cfi_def_cfa_offset 8
 160              		.cfi_offset 7, -8
 161              		.cfi_offset 14, -4
 162 0002 82B0     		sub	sp, sp, #8
 163              	.LCFI7:
 164              		.cfi_def_cfa_offset 16
 165 0004 00AF     		add	r7, sp, #0
 166              	.LCFI8:
 167              		.cfi_def_cfa_register 7
 168 0006 7860     		str	r0, [r7, #4]
 169              		.loc 2 1275 5
 170 0008 FFF7FEFF 		bl	abort
 171              		.cfi_endproc
 172              	.LFE4738:
 174              		.section	.rodata
 175              		.align	2
 176              	.LC0:
 177 0000 7374643A 		.ascii	"std::get: variant is valueless\000"
 177      3A676574 
 177      3A207661 
 177      7269616E 
 177      74206973 
 178 001f 00       		.align	2
 179              	.LC1:
 180 0020 7374643A 		.ascii	"std::get: wrong index for variant\000"
 180      3A676574 
 180      3A207772 
 180      6F6E6720 
 180      696E6465 
 181              		.section	.text._ZSt26__throw_bad_variant_accessb,"axG",%progbits,_ZSt26__throw_bad_variant_accessb
 182              		.align	1
 183              		.weak	_ZSt26__throw_bad_variant_accessb
 184              		.syntax unified
 185              		.thumb
 186              		.thumb_func
 187              		.fpu fpv4-sp-d16
 189              	_ZSt26__throw_bad_variant_accessb:
 190              	.LFB4739:
1276:/usr/share/gcc-arm-none-eabi-10-2020-q4-major/arm-none-eabi/include/c++/10.2.1/variant **** 
1277:/usr/share/gcc-arm-none-eabi-10-2020-q4-major/arm-none-eabi/include/c++/10.2.1/variant ****   inline void
1278:/usr/share/gcc-arm-none-eabi-10-2020-q4-major/arm-none-eabi/include/c++/10.2.1/variant ****   __throw_bad_variant_access(bool __valueless)
1279:/usr/share/gcc-arm-none-eabi-10-2020-q4-major/arm-none-eabi/include/c++/10.2.1/variant ****   {
 191              		.loc 2 1279 3
 192              		.cfi_startproc
ARM GAS  /tmp/ccIrndB6.s 			page 28


 193              		@ args = 0, pretend = 0, frame = 8
 194              		@ frame_needed = 1, uses_anonymous_args = 0
 195 0000 80B5     		push	{r7, lr}
 196              	.LCFI9:
 197              		.cfi_def_cfa_offset 8
 198              		.cfi_offset 7, -8
 199              		.cfi_offset 14, -4
 200 0002 82B0     		sub	sp, sp, #8
 201              	.LCFI10:
 202              		.cfi_def_cfa_offset 16
 203 0004 00AF     		add	r7, sp, #0
 204              	.LCFI11:
 205              		.cfi_def_cfa_register 7
 206 0006 0346     		mov	r3, r0
 207 0008 FB71     		strb	r3, [r7, #7]
1280:/usr/share/gcc-arm-none-eabi-10-2020-q4-major/arm-none-eabi/include/c++/10.2.1/variant ****     if (__valueless) [[__unlikely__]]
 208              		.loc 2 1280 5
 209 000a FB79     		ldrb	r3, [r7, #7]	@ zero_extendqisi2
 210 000c 002B     		cmp	r3, #0
 211 000e 03D0     		beq	.L5
1281:/usr/share/gcc-arm-none-eabi-10-2020-q4-major/arm-none-eabi/include/c++/10.2.1/variant ****       __throw_bad_variant_access("std::get: variant is valueless");
 212              		.loc 2 1281 33 discriminator 1
 213 0010 0548     		ldr	r0, .L8
 214 0012 FFF7FEFF 		bl	_ZSt26__throw_bad_variant_accessPKc
1282:/usr/share/gcc-arm-none-eabi-10-2020-q4-major/arm-none-eabi/include/c++/10.2.1/variant ****     else
1283:/usr/share/gcc-arm-none-eabi-10-2020-q4-major/arm-none-eabi/include/c++/10.2.1/variant ****       __throw_bad_variant_access("std::get: wrong index for variant");
1284:/usr/share/gcc-arm-none-eabi-10-2020-q4-major/arm-none-eabi/include/c++/10.2.1/variant ****   }
 215              		.loc 2 1284 3 discriminator 1
 216 0016 02E0     		b	.L7
 217              	.L5:
1283:/usr/share/gcc-arm-none-eabi-10-2020-q4-major/arm-none-eabi/include/c++/10.2.1/variant ****   }
 218              		.loc 2 1283 33
 219 0018 0448     		ldr	r0, .L8+4
 220 001a FFF7FEFF 		bl	_ZSt26__throw_bad_variant_accessPKc
 221              	.L7:
 222              		.loc 2 1284 3
 223 001e 00BF     		nop
 224 0020 0837     		adds	r7, r7, #8
 225              	.LCFI12:
 226              		.cfi_def_cfa_offset 8
 227 0022 BD46     		mov	sp, r7
 228              	.LCFI13:
 229              		.cfi_def_cfa_register 13
 230              		@ sp needed
 231 0024 80BD     		pop	{r7, pc}
 232              	.L9:
 233 0026 00BF     		.align	2
 234              	.L8:
 235 0028 00000000 		.word	.LC0
 236 002c 20000000 		.word	.LC1
 237              		.cfi_endproc
 238              	.LFE4739:
 240              		.section	.rodata._ZL12one_by_sqrt3,"a"
 241              		.align	2
 244              	_ZL12one_by_sqrt3:
 245 0000 3ACD133F 		.word	1058262330
 246              		.section	.rodata._ZL12two_by_sqrt3,"a"
ARM GAS  /tmp/ccIrndB6.s 			page 29


 247              		.align	2
 250              	_ZL12two_by_sqrt3:
 251 0000 3ACD933F 		.word	1066650938
 252              		.section	.rodata._ZL10sqrt3_by_2,"a"
 253              		.align	2
 256              	_ZL10sqrt3_by_2:
 257 0000 D7B35D3F 		.word	1063105495
 258              		.section	.text.fmodf_pos,"ax",%progbits
 259              		.align	1
 260              		.syntax unified
 261              		.thumb
 262              		.thumb_func
 263              		.fpu fpv4-sp-d16
 265              	fmodf_pos:
 266              	.LFB4795:
 267              		.file 3 "Inc/utils.hpp"
   1:Inc/utils.hpp **** 
   2:Inc/utils.hpp **** #ifndef __UTILS_H
   3:Inc/utils.hpp **** #define __UTILS_H
   4:Inc/utils.hpp **** 
   5:Inc/utils.hpp **** #include <stdint.h>
   6:Inc/utils.hpp **** #include <math.h>
   7:Inc/utils.hpp **** 
   8:Inc/utils.hpp **** /**
   9:Inc/utils.hpp ****  * @brief Flash size register address
  10:Inc/utils.hpp ****  */
  11:Inc/utils.hpp **** #define ID_FLASH_ADDRESS (0x1FFF7A22)
  12:Inc/utils.hpp **** 
  13:Inc/utils.hpp **** /**
  14:Inc/utils.hpp ****  * @brief Device ID register address
  15:Inc/utils.hpp ****  */
  16:Inc/utils.hpp **** #define ID_DBGMCU_IDCODE (0xE0042000)
  17:Inc/utils.hpp **** 
  18:Inc/utils.hpp **** /**
  19:Inc/utils.hpp ****  * "Returns" the device signature
  20:Inc/utils.hpp ****  *
  21:Inc/utils.hpp ****  * Possible returns:
  22:Inc/utils.hpp ****  *    - 0x0413: STM32F405xx/07xx and STM32F415xx/17xx)
  23:Inc/utils.hpp ****  *    - 0x0419: STM32F42xxx and STM32F43xxx
  24:Inc/utils.hpp ****  *    - 0x0423: STM32F401xB/C
  25:Inc/utils.hpp ****  *    - 0x0433: STM32F401xD/E
  26:Inc/utils.hpp ****  *    - 0x0431: STM32F411xC/E
  27:Inc/utils.hpp ****  *
  28:Inc/utils.hpp ****  * Returned data is in 16-bit mode, but only bits 11:0 are valid, bits 15:12 are always 0.
  29:Inc/utils.hpp ****  * Defined as macro
  30:Inc/utils.hpp ****  */
  31:Inc/utils.hpp **** #define STM_ID_GetSignature() ((*(uint16_t *)(ID_DBGMCU_IDCODE)) & 0x0FFF)
  32:Inc/utils.hpp **** 
  33:Inc/utils.hpp **** /**
  34:Inc/utils.hpp ****  * "Returns" the device revision
  35:Inc/utils.hpp ****  *
  36:Inc/utils.hpp ****  * Revisions possible:
  37:Inc/utils.hpp ****  *    - 0x1000: Revision A
  38:Inc/utils.hpp ****  *    - 0x1001: Revision Z
  39:Inc/utils.hpp ****  *    - 0x1003: Revision Y
  40:Inc/utils.hpp ****  *    - 0x1007: Revision 1
  41:Inc/utils.hpp ****  *    - 0x2001: Revision 3
ARM GAS  /tmp/ccIrndB6.s 			page 30


  42:Inc/utils.hpp ****  *
  43:Inc/utils.hpp ****  * Returned data is in 16-bit mode.
  44:Inc/utils.hpp ****  */
  45:Inc/utils.hpp **** #define STM_ID_GetRevision() (*(uint16_t *)(ID_DBGMCU_IDCODE + 2))
  46:Inc/utils.hpp **** 
  47:Inc/utils.hpp **** /**
  48:Inc/utils.hpp **** * "Returns" the Flash size
  49:Inc/utils.hpp **** *
  50:Inc/utils.hpp **** * Returned data is in 16-bit mode, returned value is flash size in kB (kilo bytes).
  51:Inc/utils.hpp **** */
  52:Inc/utils.hpp **** #define STM_ID_GetFlashSize() (*(uint16_t *)(ID_FLASH_ADDRESS))
  53:Inc/utils.hpp **** 
  54:Inc/utils.hpp **** #ifdef M_PI
  55:Inc/utils.hpp **** #undef M_PI
  56:Inc/utils.hpp **** #endif
  57:Inc/utils.hpp **** #define M_PI (3.14159265358979323846f)
  58:Inc/utils.hpp **** 
  59:Inc/utils.hpp **** #define MACRO_MAX(x, y) (((x) > (y)) ? (x) : (y))
  60:Inc/utils.hpp **** #define MACRO_MIN(x, y) (((x) < (y)) ? (x) : (y))
  61:Inc/utils.hpp **** 
  62:Inc/utils.hpp **** #define SQ(x) ((x) * (x))
  63:Inc/utils.hpp **** 
  64:Inc/utils.hpp **** #ifdef __cplusplus
  65:Inc/utils.hpp **** 
  66:Inc/utils.hpp **** #include <array>
  67:Inc/utils.hpp **** 
  68:Inc/utils.hpp **** /**
  69:Inc/utils.hpp ****  * @brief Small helper to make array with known size
  70:Inc/utils.hpp ****  * in contrast to initializer lists the number of arguments
  71:Inc/utils.hpp ****  * has to match exactly. Whereas initializer lists allow
  72:Inc/utils.hpp ****  * less arguments.
  73:Inc/utils.hpp ****  */
  74:Inc/utils.hpp **** template<class T, class... Tail>
  75:Inc/utils.hpp **** std::array<T, 1 + sizeof...(Tail)> make_array(T head, Tail... tail)
  76:Inc/utils.hpp **** {
  77:Inc/utils.hpp ****     return std::array<T, 1 + sizeof...(Tail)>({ head, tail ... });
  78:Inc/utils.hpp **** }
  79:Inc/utils.hpp **** 
  80:Inc/utils.hpp **** extern "C" {
  81:Inc/utils.hpp **** #endif
  82:Inc/utils.hpp **** 
  83:Inc/utils.hpp **** static const float one_by_sqrt3 = 0.57735026919f;
  84:Inc/utils.hpp **** static const float two_by_sqrt3 = 1.15470053838f;
  85:Inc/utils.hpp **** static const float sqrt3_by_2 = 0.86602540378f;
  86:Inc/utils.hpp **** 
  87:Inc/utils.hpp **** // like fmodf, but always positive
  88:Inc/utils.hpp **** static inline float fmodf_pos(float x, float y) {
 268              		.loc 3 88 49
 269              		.cfi_startproc
 270              		@ args = 0, pretend = 0, frame = 16
 271              		@ frame_needed = 1, uses_anonymous_args = 0
 272 0000 80B5     		push	{r7, lr}
 273              	.LCFI14:
 274              		.cfi_def_cfa_offset 8
 275              		.cfi_offset 7, -8
 276              		.cfi_offset 14, -4
 277 0002 84B0     		sub	sp, sp, #16
ARM GAS  /tmp/ccIrndB6.s 			page 31


 278              	.LCFI15:
 279              		.cfi_def_cfa_offset 24
 280 0004 00AF     		add	r7, sp, #0
 281              	.LCFI16:
 282              		.cfi_def_cfa_register 7
 283 0006 87ED010A 		vstr.32	s0, [r7, #4]
 284 000a C7ED000A 		vstr.32	s1, [r7]
  89:Inc/utils.hpp ****     float out = fmodf(x, y);
 285              		.loc 3 89 22
 286 000e D7ED000A 		vldr.32	s1, [r7]
 287 0012 97ED010A 		vldr.32	s0, [r7, #4]
 288 0016 FFF7FEFF 		bl	fmodf
 289 001a 87ED030A 		vstr.32	s0, [r7, #12]
  90:Inc/utils.hpp ****     if (out < 0.0f)
 290              		.loc 3 90 5
 291 001e D7ED037A 		vldr.32	s15, [r7, #12]
 292 0022 F5EEC07A 		vcmpe.f32	s15, #0
 293 0026 F1EE10FA 		vmrs	APSR_nzcv, FPSCR
 294 002a 07D5     		bpl	.L11
  91:Inc/utils.hpp ****         out += y;
 295              		.loc 3 91 13
 296 002c 97ED037A 		vldr.32	s14, [r7, #12]
 297 0030 D7ED007A 		vldr.32	s15, [r7]
 298 0034 77EE277A 		vadd.f32	s15, s14, s15
 299 0038 C7ED037A 		vstr.32	s15, [r7, #12]
 300              	.L11:
  92:Inc/utils.hpp ****     return out;
 301              		.loc 3 92 12
 302 003c FB68     		ldr	r3, [r7, #12]	@ float
 303 003e 07EE903A 		vmov	s15, r3
  93:Inc/utils.hpp **** }
 304              		.loc 3 93 1
 305 0042 B0EE670A 		vmov.f32	s0, s15
 306 0046 1037     		adds	r7, r7, #16
 307              	.LCFI17:
 308              		.cfi_def_cfa_offset 8
 309 0048 BD46     		mov	sp, r7
 310              	.LCFI18:
 311              		.cfi_def_cfa_register 13
 312              		@ sp needed
 313 004a 80BD     		pop	{r7, pc}
 314              		.cfi_endproc
 315              	.LFE4795:
 317              		.section	.text.wrap_pm,"ax",%progbits
 318              		.align	1
 319              		.syntax unified
 320              		.thumb
 321              		.thumb_func
 322              		.fpu fpv4-sp-d16
 324              	wrap_pm:
 325              	.LFB4796:
  94:Inc/utils.hpp **** 
  95:Inc/utils.hpp **** /**
  96:Inc/utils.hpp ****  * @brief Similar to modulo operator, except that the output range is centered
  97:Inc/utils.hpp ****  * around zero.
  98:Inc/utils.hpp ****  * The returned value is always in the range [-pm_range, pm_range).
  99:Inc/utils.hpp ****  */
ARM GAS  /tmp/ccIrndB6.s 			page 32


 100:Inc/utils.hpp **** static inline float wrap_pm(float x, float pm_range) {
 326              		.loc 3 100 54
 327              		.cfi_startproc
 328              		@ args = 0, pretend = 0, frame = 8
 329              		@ frame_needed = 1, uses_anonymous_args = 0
 330 0000 80B5     		push	{r7, lr}
 331              	.LCFI19:
 332              		.cfi_def_cfa_offset 8
 333              		.cfi_offset 7, -8
 334              		.cfi_offset 14, -4
 335 0002 82B0     		sub	sp, sp, #8
 336              	.LCFI20:
 337              		.cfi_def_cfa_offset 16
 338 0004 00AF     		add	r7, sp, #0
 339              	.LCFI21:
 340              		.cfi_def_cfa_register 7
 341 0006 87ED010A 		vstr.32	s0, [r7, #4]
 342 000a C7ED000A 		vstr.32	s1, [r7]
 101:Inc/utils.hpp ****     return fmodf_pos(x + pm_range, 2.0f * pm_range) - pm_range;
 343              		.loc 3 101 21
 344 000e 97ED017A 		vldr.32	s14, [r7, #4]
 345 0012 D7ED007A 		vldr.32	s15, [r7]
 346 0016 37EE277A 		vadd.f32	s14, s14, s15
 347 001a D7ED007A 		vldr.32	s15, [r7]
 348 001e 77EEA77A 		vadd.f32	s15, s15, s15
 349 0022 F0EE670A 		vmov.f32	s1, s15
 350 0026 B0EE470A 		vmov.f32	s0, s14
 351 002a FFF7FEFF 		bl	fmodf_pos
 352 002e B0EE407A 		vmov.f32	s14, s0
 353              		.loc 3 101 55
 354 0032 D7ED007A 		vldr.32	s15, [r7]
 355 0036 77EE677A 		vsub.f32	s15, s14, s15
 102:Inc/utils.hpp **** }
 356              		.loc 3 102 1
 357 003a B0EE670A 		vmov.f32	s0, s15
 358 003e 0837     		adds	r7, r7, #8
 359              	.LCFI22:
 360              		.cfi_def_cfa_offset 8
 361 0040 BD46     		mov	sp, r7
 362              	.LCFI23:
 363              		.cfi_def_cfa_register 13
 364              		@ sp needed
 365 0042 80BD     		pop	{r7, pc}
 366              		.cfi_endproc
 367              	.LFE4796:
 369              		.section	.text._ZSt5clampIfERKT_S2_S2_S2_,"axG",%progbits,_ZSt5clampIfERKT_S2_S2_S2_,comdat
 370              		.align	1
 371              		.weak	_ZSt5clampIfERKT_S2_S2_S2_
 372              		.syntax unified
 373              		.thumb
 374              		.thumb_func
 375              		.fpu fpv4-sp-d16
 377              	_ZSt5clampIfERKT_S2_S2_S2_:
 378              	.LFB4806:
 379              		.file 4 "/usr/share/gcc-arm-none-eabi-10-2020-q4-major/arm-none-eabi/include/c++/10.2.1/bits/stl_a
   1:/usr/share/gcc-arm-none-eabi-10-2020-q4-major/arm-none-eabi/include/c++/10.2.1/bits/stl_algo.h **** // Algorithm implementation -*- C++ -*-
   2:/usr/share/gcc-arm-none-eabi-10-2020-q4-major/arm-none-eabi/include/c++/10.2.1/bits/stl_algo.h **** 
ARM GAS  /tmp/ccIrndB6.s 			page 33


   3:/usr/share/gcc-arm-none-eabi-10-2020-q4-major/arm-none-eabi/include/c++/10.2.1/bits/stl_algo.h **** // Copyright (C) 2001-2020 Free Software Foundation, Inc.
   4:/usr/share/gcc-arm-none-eabi-10-2020-q4-major/arm-none-eabi/include/c++/10.2.1/bits/stl_algo.h **** //
   5:/usr/share/gcc-arm-none-eabi-10-2020-q4-major/arm-none-eabi/include/c++/10.2.1/bits/stl_algo.h **** // This file is part of the GNU ISO C++ Library.  This library is free
   6:/usr/share/gcc-arm-none-eabi-10-2020-q4-major/arm-none-eabi/include/c++/10.2.1/bits/stl_algo.h **** // software; you can redistribute it and/or modify it under the
   7:/usr/share/gcc-arm-none-eabi-10-2020-q4-major/arm-none-eabi/include/c++/10.2.1/bits/stl_algo.h **** // terms of the GNU General Public License as published by the
   8:/usr/share/gcc-arm-none-eabi-10-2020-q4-major/arm-none-eabi/include/c++/10.2.1/bits/stl_algo.h **** // Free Software Foundation; either version 3, or (at your option)
   9:/usr/share/gcc-arm-none-eabi-10-2020-q4-major/arm-none-eabi/include/c++/10.2.1/bits/stl_algo.h **** // any later version.
  10:/usr/share/gcc-arm-none-eabi-10-2020-q4-major/arm-none-eabi/include/c++/10.2.1/bits/stl_algo.h **** 
  11:/usr/share/gcc-arm-none-eabi-10-2020-q4-major/arm-none-eabi/include/c++/10.2.1/bits/stl_algo.h **** // This library is distributed in the hope that it will be useful,
  12:/usr/share/gcc-arm-none-eabi-10-2020-q4-major/arm-none-eabi/include/c++/10.2.1/bits/stl_algo.h **** // but WITHOUT ANY WARRANTY; without even the implied warranty of
  13:/usr/share/gcc-arm-none-eabi-10-2020-q4-major/arm-none-eabi/include/c++/10.2.1/bits/stl_algo.h **** // MERCHANTABILITY or FITNESS FOR A PARTICULAR PURPOSE.  See the
  14:/usr/share/gcc-arm-none-eabi-10-2020-q4-major/arm-none-eabi/include/c++/10.2.1/bits/stl_algo.h **** // GNU General Public License for more details.
  15:/usr/share/gcc-arm-none-eabi-10-2020-q4-major/arm-none-eabi/include/c++/10.2.1/bits/stl_algo.h **** 
  16:/usr/share/gcc-arm-none-eabi-10-2020-q4-major/arm-none-eabi/include/c++/10.2.1/bits/stl_algo.h **** // Under Section 7 of GPL version 3, you are granted additional
  17:/usr/share/gcc-arm-none-eabi-10-2020-q4-major/arm-none-eabi/include/c++/10.2.1/bits/stl_algo.h **** // permissions described in the GCC Runtime Library Exception, version
  18:/usr/share/gcc-arm-none-eabi-10-2020-q4-major/arm-none-eabi/include/c++/10.2.1/bits/stl_algo.h **** // 3.1, as published by the Free Software Foundation.
  19:/usr/share/gcc-arm-none-eabi-10-2020-q4-major/arm-none-eabi/include/c++/10.2.1/bits/stl_algo.h **** 
  20:/usr/share/gcc-arm-none-eabi-10-2020-q4-major/arm-none-eabi/include/c++/10.2.1/bits/stl_algo.h **** // You should have received a copy of the GNU General Public License and
  21:/usr/share/gcc-arm-none-eabi-10-2020-q4-major/arm-none-eabi/include/c++/10.2.1/bits/stl_algo.h **** // a copy of the GCC Runtime Library Exception along with this program;
  22:/usr/share/gcc-arm-none-eabi-10-2020-q4-major/arm-none-eabi/include/c++/10.2.1/bits/stl_algo.h **** // see the files COPYING3 and COPYING.RUNTIME respectively.  If not, see
  23:/usr/share/gcc-arm-none-eabi-10-2020-q4-major/arm-none-eabi/include/c++/10.2.1/bits/stl_algo.h **** // <http://www.gnu.org/licenses/>.
  24:/usr/share/gcc-arm-none-eabi-10-2020-q4-major/arm-none-eabi/include/c++/10.2.1/bits/stl_algo.h **** 
  25:/usr/share/gcc-arm-none-eabi-10-2020-q4-major/arm-none-eabi/include/c++/10.2.1/bits/stl_algo.h **** /*
  26:/usr/share/gcc-arm-none-eabi-10-2020-q4-major/arm-none-eabi/include/c++/10.2.1/bits/stl_algo.h ****  *
  27:/usr/share/gcc-arm-none-eabi-10-2020-q4-major/arm-none-eabi/include/c++/10.2.1/bits/stl_algo.h ****  * Copyright (c) 1994
  28:/usr/share/gcc-arm-none-eabi-10-2020-q4-major/arm-none-eabi/include/c++/10.2.1/bits/stl_algo.h ****  * Hewlett-Packard Company
  29:/usr/share/gcc-arm-none-eabi-10-2020-q4-major/arm-none-eabi/include/c++/10.2.1/bits/stl_algo.h ****  *
  30:/usr/share/gcc-arm-none-eabi-10-2020-q4-major/arm-none-eabi/include/c++/10.2.1/bits/stl_algo.h ****  * Permission to use, copy, modify, distribute and sell this software
  31:/usr/share/gcc-arm-none-eabi-10-2020-q4-major/arm-none-eabi/include/c++/10.2.1/bits/stl_algo.h ****  * and its documentation for any purpose is hereby granted without fee,
  32:/usr/share/gcc-arm-none-eabi-10-2020-q4-major/arm-none-eabi/include/c++/10.2.1/bits/stl_algo.h ****  * provided that the above copyright notice appear in all copies and
  33:/usr/share/gcc-arm-none-eabi-10-2020-q4-major/arm-none-eabi/include/c++/10.2.1/bits/stl_algo.h ****  * that both that copyright notice and this permission notice appear
  34:/usr/share/gcc-arm-none-eabi-10-2020-q4-major/arm-none-eabi/include/c++/10.2.1/bits/stl_algo.h ****  * in supporting documentation.  Hewlett-Packard Company makes no
  35:/usr/share/gcc-arm-none-eabi-10-2020-q4-major/arm-none-eabi/include/c++/10.2.1/bits/stl_algo.h ****  * representations about the suitability of this software for any
  36:/usr/share/gcc-arm-none-eabi-10-2020-q4-major/arm-none-eabi/include/c++/10.2.1/bits/stl_algo.h ****  * purpose.  It is provided "as is" without express or implied warranty.
  37:/usr/share/gcc-arm-none-eabi-10-2020-q4-major/arm-none-eabi/include/c++/10.2.1/bits/stl_algo.h ****  *
  38:/usr/share/gcc-arm-none-eabi-10-2020-q4-major/arm-none-eabi/include/c++/10.2.1/bits/stl_algo.h ****  *
  39:/usr/share/gcc-arm-none-eabi-10-2020-q4-major/arm-none-eabi/include/c++/10.2.1/bits/stl_algo.h ****  * Copyright (c) 1996
  40:/usr/share/gcc-arm-none-eabi-10-2020-q4-major/arm-none-eabi/include/c++/10.2.1/bits/stl_algo.h ****  * Silicon Graphics Computer Systems, Inc.
  41:/usr/share/gcc-arm-none-eabi-10-2020-q4-major/arm-none-eabi/include/c++/10.2.1/bits/stl_algo.h ****  *
  42:/usr/share/gcc-arm-none-eabi-10-2020-q4-major/arm-none-eabi/include/c++/10.2.1/bits/stl_algo.h ****  * Permission to use, copy, modify, distribute and sell this software
  43:/usr/share/gcc-arm-none-eabi-10-2020-q4-major/arm-none-eabi/include/c++/10.2.1/bits/stl_algo.h ****  * and its documentation for any purpose is hereby granted without fee,
  44:/usr/share/gcc-arm-none-eabi-10-2020-q4-major/arm-none-eabi/include/c++/10.2.1/bits/stl_algo.h ****  * provided that the above copyright notice appear in all copies and
  45:/usr/share/gcc-arm-none-eabi-10-2020-q4-major/arm-none-eabi/include/c++/10.2.1/bits/stl_algo.h ****  * that both that copyright notice and this permission notice appear
  46:/usr/share/gcc-arm-none-eabi-10-2020-q4-major/arm-none-eabi/include/c++/10.2.1/bits/stl_algo.h ****  * in supporting documentation.  Silicon Graphics makes no
  47:/usr/share/gcc-arm-none-eabi-10-2020-q4-major/arm-none-eabi/include/c++/10.2.1/bits/stl_algo.h ****  * representations about the suitability of this software for any
  48:/usr/share/gcc-arm-none-eabi-10-2020-q4-major/arm-none-eabi/include/c++/10.2.1/bits/stl_algo.h ****  * purpose.  It is provided "as is" without express or implied warranty.
  49:/usr/share/gcc-arm-none-eabi-10-2020-q4-major/arm-none-eabi/include/c++/10.2.1/bits/stl_algo.h ****  */
  50:/usr/share/gcc-arm-none-eabi-10-2020-q4-major/arm-none-eabi/include/c++/10.2.1/bits/stl_algo.h **** 
  51:/usr/share/gcc-arm-none-eabi-10-2020-q4-major/arm-none-eabi/include/c++/10.2.1/bits/stl_algo.h **** /** @file bits/stl_algo.h
  52:/usr/share/gcc-arm-none-eabi-10-2020-q4-major/arm-none-eabi/include/c++/10.2.1/bits/stl_algo.h ****  *  This is an internal header file, included by other library headers.
  53:/usr/share/gcc-arm-none-eabi-10-2020-q4-major/arm-none-eabi/include/c++/10.2.1/bits/stl_algo.h ****  *  Do not attempt to use it directly. @headername{algorithm}
  54:/usr/share/gcc-arm-none-eabi-10-2020-q4-major/arm-none-eabi/include/c++/10.2.1/bits/stl_algo.h ****  */
  55:/usr/share/gcc-arm-none-eabi-10-2020-q4-major/arm-none-eabi/include/c++/10.2.1/bits/stl_algo.h **** 
  56:/usr/share/gcc-arm-none-eabi-10-2020-q4-major/arm-none-eabi/include/c++/10.2.1/bits/stl_algo.h **** #ifndef _STL_ALGO_H
  57:/usr/share/gcc-arm-none-eabi-10-2020-q4-major/arm-none-eabi/include/c++/10.2.1/bits/stl_algo.h **** #define _STL_ALGO_H 1
  58:/usr/share/gcc-arm-none-eabi-10-2020-q4-major/arm-none-eabi/include/c++/10.2.1/bits/stl_algo.h **** 
  59:/usr/share/gcc-arm-none-eabi-10-2020-q4-major/arm-none-eabi/include/c++/10.2.1/bits/stl_algo.h **** #include <cstdlib>	     // for rand
ARM GAS  /tmp/ccIrndB6.s 			page 34


  60:/usr/share/gcc-arm-none-eabi-10-2020-q4-major/arm-none-eabi/include/c++/10.2.1/bits/stl_algo.h **** #include <bits/algorithmfwd.h>
  61:/usr/share/gcc-arm-none-eabi-10-2020-q4-major/arm-none-eabi/include/c++/10.2.1/bits/stl_algo.h **** #include <bits/stl_heap.h>
  62:/usr/share/gcc-arm-none-eabi-10-2020-q4-major/arm-none-eabi/include/c++/10.2.1/bits/stl_algo.h **** #include <bits/stl_tempbuf.h>  // for _Temporary_buffer
  63:/usr/share/gcc-arm-none-eabi-10-2020-q4-major/arm-none-eabi/include/c++/10.2.1/bits/stl_algo.h **** #include <bits/predefined_ops.h>
  64:/usr/share/gcc-arm-none-eabi-10-2020-q4-major/arm-none-eabi/include/c++/10.2.1/bits/stl_algo.h **** 
  65:/usr/share/gcc-arm-none-eabi-10-2020-q4-major/arm-none-eabi/include/c++/10.2.1/bits/stl_algo.h **** #if __cplusplus >= 201103L
  66:/usr/share/gcc-arm-none-eabi-10-2020-q4-major/arm-none-eabi/include/c++/10.2.1/bits/stl_algo.h **** #include <bits/uniform_int_dist.h>
  67:/usr/share/gcc-arm-none-eabi-10-2020-q4-major/arm-none-eabi/include/c++/10.2.1/bits/stl_algo.h **** #endif
  68:/usr/share/gcc-arm-none-eabi-10-2020-q4-major/arm-none-eabi/include/c++/10.2.1/bits/stl_algo.h **** 
  69:/usr/share/gcc-arm-none-eabi-10-2020-q4-major/arm-none-eabi/include/c++/10.2.1/bits/stl_algo.h **** // See concept_check.h for the __glibcxx_*_requires macros.
  70:/usr/share/gcc-arm-none-eabi-10-2020-q4-major/arm-none-eabi/include/c++/10.2.1/bits/stl_algo.h **** 
  71:/usr/share/gcc-arm-none-eabi-10-2020-q4-major/arm-none-eabi/include/c++/10.2.1/bits/stl_algo.h **** namespace std _GLIBCXX_VISIBILITY(default)
  72:/usr/share/gcc-arm-none-eabi-10-2020-q4-major/arm-none-eabi/include/c++/10.2.1/bits/stl_algo.h **** {
  73:/usr/share/gcc-arm-none-eabi-10-2020-q4-major/arm-none-eabi/include/c++/10.2.1/bits/stl_algo.h **** _GLIBCXX_BEGIN_NAMESPACE_VERSION
  74:/usr/share/gcc-arm-none-eabi-10-2020-q4-major/arm-none-eabi/include/c++/10.2.1/bits/stl_algo.h **** 
  75:/usr/share/gcc-arm-none-eabi-10-2020-q4-major/arm-none-eabi/include/c++/10.2.1/bits/stl_algo.h ****   /// Swaps the median value of *__a, *__b and *__c under __comp to *__result
  76:/usr/share/gcc-arm-none-eabi-10-2020-q4-major/arm-none-eabi/include/c++/10.2.1/bits/stl_algo.h ****   template<typename _Iterator, typename _Compare>
  77:/usr/share/gcc-arm-none-eabi-10-2020-q4-major/arm-none-eabi/include/c++/10.2.1/bits/stl_algo.h ****     _GLIBCXX20_CONSTEXPR
  78:/usr/share/gcc-arm-none-eabi-10-2020-q4-major/arm-none-eabi/include/c++/10.2.1/bits/stl_algo.h ****     void
  79:/usr/share/gcc-arm-none-eabi-10-2020-q4-major/arm-none-eabi/include/c++/10.2.1/bits/stl_algo.h ****     __move_median_to_first(_Iterator __result,_Iterator __a, _Iterator __b,
  80:/usr/share/gcc-arm-none-eabi-10-2020-q4-major/arm-none-eabi/include/c++/10.2.1/bits/stl_algo.h **** 			   _Iterator __c, _Compare __comp)
  81:/usr/share/gcc-arm-none-eabi-10-2020-q4-major/arm-none-eabi/include/c++/10.2.1/bits/stl_algo.h ****     {
  82:/usr/share/gcc-arm-none-eabi-10-2020-q4-major/arm-none-eabi/include/c++/10.2.1/bits/stl_algo.h ****       if (__comp(__a, __b))
  83:/usr/share/gcc-arm-none-eabi-10-2020-q4-major/arm-none-eabi/include/c++/10.2.1/bits/stl_algo.h **** 	{
  84:/usr/share/gcc-arm-none-eabi-10-2020-q4-major/arm-none-eabi/include/c++/10.2.1/bits/stl_algo.h **** 	  if (__comp(__b, __c))
  85:/usr/share/gcc-arm-none-eabi-10-2020-q4-major/arm-none-eabi/include/c++/10.2.1/bits/stl_algo.h **** 	    std::iter_swap(__result, __b);
  86:/usr/share/gcc-arm-none-eabi-10-2020-q4-major/arm-none-eabi/include/c++/10.2.1/bits/stl_algo.h **** 	  else if (__comp(__a, __c))
  87:/usr/share/gcc-arm-none-eabi-10-2020-q4-major/arm-none-eabi/include/c++/10.2.1/bits/stl_algo.h **** 	    std::iter_swap(__result, __c);
  88:/usr/share/gcc-arm-none-eabi-10-2020-q4-major/arm-none-eabi/include/c++/10.2.1/bits/stl_algo.h **** 	  else
  89:/usr/share/gcc-arm-none-eabi-10-2020-q4-major/arm-none-eabi/include/c++/10.2.1/bits/stl_algo.h **** 	    std::iter_swap(__result, __a);
  90:/usr/share/gcc-arm-none-eabi-10-2020-q4-major/arm-none-eabi/include/c++/10.2.1/bits/stl_algo.h **** 	}
  91:/usr/share/gcc-arm-none-eabi-10-2020-q4-major/arm-none-eabi/include/c++/10.2.1/bits/stl_algo.h ****       else if (__comp(__a, __c))
  92:/usr/share/gcc-arm-none-eabi-10-2020-q4-major/arm-none-eabi/include/c++/10.2.1/bits/stl_algo.h **** 	std::iter_swap(__result, __a);
  93:/usr/share/gcc-arm-none-eabi-10-2020-q4-major/arm-none-eabi/include/c++/10.2.1/bits/stl_algo.h ****       else if (__comp(__b, __c))
  94:/usr/share/gcc-arm-none-eabi-10-2020-q4-major/arm-none-eabi/include/c++/10.2.1/bits/stl_algo.h **** 	std::iter_swap(__result, __c);
  95:/usr/share/gcc-arm-none-eabi-10-2020-q4-major/arm-none-eabi/include/c++/10.2.1/bits/stl_algo.h ****       else
  96:/usr/share/gcc-arm-none-eabi-10-2020-q4-major/arm-none-eabi/include/c++/10.2.1/bits/stl_algo.h **** 	std::iter_swap(__result, __b);
  97:/usr/share/gcc-arm-none-eabi-10-2020-q4-major/arm-none-eabi/include/c++/10.2.1/bits/stl_algo.h ****     }
  98:/usr/share/gcc-arm-none-eabi-10-2020-q4-major/arm-none-eabi/include/c++/10.2.1/bits/stl_algo.h **** 
  99:/usr/share/gcc-arm-none-eabi-10-2020-q4-major/arm-none-eabi/include/c++/10.2.1/bits/stl_algo.h ****   /// Provided for stable_partition to use.
 100:/usr/share/gcc-arm-none-eabi-10-2020-q4-major/arm-none-eabi/include/c++/10.2.1/bits/stl_algo.h ****   template<typename _InputIterator, typename _Predicate>
 101:/usr/share/gcc-arm-none-eabi-10-2020-q4-major/arm-none-eabi/include/c++/10.2.1/bits/stl_algo.h ****     _GLIBCXX20_CONSTEXPR
 102:/usr/share/gcc-arm-none-eabi-10-2020-q4-major/arm-none-eabi/include/c++/10.2.1/bits/stl_algo.h ****     inline _InputIterator
 103:/usr/share/gcc-arm-none-eabi-10-2020-q4-major/arm-none-eabi/include/c++/10.2.1/bits/stl_algo.h ****     __find_if_not(_InputIterator __first, _InputIterator __last,
 104:/usr/share/gcc-arm-none-eabi-10-2020-q4-major/arm-none-eabi/include/c++/10.2.1/bits/stl_algo.h **** 		  _Predicate __pred)
 105:/usr/share/gcc-arm-none-eabi-10-2020-q4-major/arm-none-eabi/include/c++/10.2.1/bits/stl_algo.h ****     {
 106:/usr/share/gcc-arm-none-eabi-10-2020-q4-major/arm-none-eabi/include/c++/10.2.1/bits/stl_algo.h ****       return std::__find_if(__first, __last,
 107:/usr/share/gcc-arm-none-eabi-10-2020-q4-major/arm-none-eabi/include/c++/10.2.1/bits/stl_algo.h **** 			    __gnu_cxx::__ops::__negate(__pred),
 108:/usr/share/gcc-arm-none-eabi-10-2020-q4-major/arm-none-eabi/include/c++/10.2.1/bits/stl_algo.h **** 			    std::__iterator_category(__first));
 109:/usr/share/gcc-arm-none-eabi-10-2020-q4-major/arm-none-eabi/include/c++/10.2.1/bits/stl_algo.h ****     }
 110:/usr/share/gcc-arm-none-eabi-10-2020-q4-major/arm-none-eabi/include/c++/10.2.1/bits/stl_algo.h **** 
 111:/usr/share/gcc-arm-none-eabi-10-2020-q4-major/arm-none-eabi/include/c++/10.2.1/bits/stl_algo.h ****   /// Like find_if_not(), but uses and updates a count of the
 112:/usr/share/gcc-arm-none-eabi-10-2020-q4-major/arm-none-eabi/include/c++/10.2.1/bits/stl_algo.h ****   /// remaining range length instead of comparing against an end
 113:/usr/share/gcc-arm-none-eabi-10-2020-q4-major/arm-none-eabi/include/c++/10.2.1/bits/stl_algo.h ****   /// iterator.
 114:/usr/share/gcc-arm-none-eabi-10-2020-q4-major/arm-none-eabi/include/c++/10.2.1/bits/stl_algo.h ****   template<typename _InputIterator, typename _Predicate, typename _Distance>
 115:/usr/share/gcc-arm-none-eabi-10-2020-q4-major/arm-none-eabi/include/c++/10.2.1/bits/stl_algo.h ****     _GLIBCXX20_CONSTEXPR
 116:/usr/share/gcc-arm-none-eabi-10-2020-q4-major/arm-none-eabi/include/c++/10.2.1/bits/stl_algo.h ****     _InputIterator
ARM GAS  /tmp/ccIrndB6.s 			page 35


 117:/usr/share/gcc-arm-none-eabi-10-2020-q4-major/arm-none-eabi/include/c++/10.2.1/bits/stl_algo.h ****     __find_if_not_n(_InputIterator __first, _Distance& __len, _Predicate __pred)
 118:/usr/share/gcc-arm-none-eabi-10-2020-q4-major/arm-none-eabi/include/c++/10.2.1/bits/stl_algo.h ****     {
 119:/usr/share/gcc-arm-none-eabi-10-2020-q4-major/arm-none-eabi/include/c++/10.2.1/bits/stl_algo.h ****       for (; __len; --__len,  (void) ++__first)
 120:/usr/share/gcc-arm-none-eabi-10-2020-q4-major/arm-none-eabi/include/c++/10.2.1/bits/stl_algo.h **** 	if (!__pred(__first))
 121:/usr/share/gcc-arm-none-eabi-10-2020-q4-major/arm-none-eabi/include/c++/10.2.1/bits/stl_algo.h **** 	  break;
 122:/usr/share/gcc-arm-none-eabi-10-2020-q4-major/arm-none-eabi/include/c++/10.2.1/bits/stl_algo.h ****       return __first;
 123:/usr/share/gcc-arm-none-eabi-10-2020-q4-major/arm-none-eabi/include/c++/10.2.1/bits/stl_algo.h ****     }
 124:/usr/share/gcc-arm-none-eabi-10-2020-q4-major/arm-none-eabi/include/c++/10.2.1/bits/stl_algo.h **** 
 125:/usr/share/gcc-arm-none-eabi-10-2020-q4-major/arm-none-eabi/include/c++/10.2.1/bits/stl_algo.h ****   // set_difference
 126:/usr/share/gcc-arm-none-eabi-10-2020-q4-major/arm-none-eabi/include/c++/10.2.1/bits/stl_algo.h ****   // set_intersection
 127:/usr/share/gcc-arm-none-eabi-10-2020-q4-major/arm-none-eabi/include/c++/10.2.1/bits/stl_algo.h ****   // set_symmetric_difference
 128:/usr/share/gcc-arm-none-eabi-10-2020-q4-major/arm-none-eabi/include/c++/10.2.1/bits/stl_algo.h ****   // set_union
 129:/usr/share/gcc-arm-none-eabi-10-2020-q4-major/arm-none-eabi/include/c++/10.2.1/bits/stl_algo.h ****   // for_each
 130:/usr/share/gcc-arm-none-eabi-10-2020-q4-major/arm-none-eabi/include/c++/10.2.1/bits/stl_algo.h ****   // find
 131:/usr/share/gcc-arm-none-eabi-10-2020-q4-major/arm-none-eabi/include/c++/10.2.1/bits/stl_algo.h ****   // find_if
 132:/usr/share/gcc-arm-none-eabi-10-2020-q4-major/arm-none-eabi/include/c++/10.2.1/bits/stl_algo.h ****   // find_first_of
 133:/usr/share/gcc-arm-none-eabi-10-2020-q4-major/arm-none-eabi/include/c++/10.2.1/bits/stl_algo.h ****   // adjacent_find
 134:/usr/share/gcc-arm-none-eabi-10-2020-q4-major/arm-none-eabi/include/c++/10.2.1/bits/stl_algo.h ****   // count
 135:/usr/share/gcc-arm-none-eabi-10-2020-q4-major/arm-none-eabi/include/c++/10.2.1/bits/stl_algo.h ****   // count_if
 136:/usr/share/gcc-arm-none-eabi-10-2020-q4-major/arm-none-eabi/include/c++/10.2.1/bits/stl_algo.h ****   // search
 137:/usr/share/gcc-arm-none-eabi-10-2020-q4-major/arm-none-eabi/include/c++/10.2.1/bits/stl_algo.h **** 
 138:/usr/share/gcc-arm-none-eabi-10-2020-q4-major/arm-none-eabi/include/c++/10.2.1/bits/stl_algo.h ****   template<typename _ForwardIterator1, typename _ForwardIterator2,
 139:/usr/share/gcc-arm-none-eabi-10-2020-q4-major/arm-none-eabi/include/c++/10.2.1/bits/stl_algo.h **** 	   typename _BinaryPredicate>
 140:/usr/share/gcc-arm-none-eabi-10-2020-q4-major/arm-none-eabi/include/c++/10.2.1/bits/stl_algo.h ****     _GLIBCXX20_CONSTEXPR
 141:/usr/share/gcc-arm-none-eabi-10-2020-q4-major/arm-none-eabi/include/c++/10.2.1/bits/stl_algo.h ****     _ForwardIterator1
 142:/usr/share/gcc-arm-none-eabi-10-2020-q4-major/arm-none-eabi/include/c++/10.2.1/bits/stl_algo.h ****     __search(_ForwardIterator1 __first1, _ForwardIterator1 __last1,
 143:/usr/share/gcc-arm-none-eabi-10-2020-q4-major/arm-none-eabi/include/c++/10.2.1/bits/stl_algo.h **** 	     _ForwardIterator2 __first2, _ForwardIterator2 __last2,
 144:/usr/share/gcc-arm-none-eabi-10-2020-q4-major/arm-none-eabi/include/c++/10.2.1/bits/stl_algo.h **** 	     _BinaryPredicate  __predicate)
 145:/usr/share/gcc-arm-none-eabi-10-2020-q4-major/arm-none-eabi/include/c++/10.2.1/bits/stl_algo.h ****     {
 146:/usr/share/gcc-arm-none-eabi-10-2020-q4-major/arm-none-eabi/include/c++/10.2.1/bits/stl_algo.h ****       // Test for empty ranges
 147:/usr/share/gcc-arm-none-eabi-10-2020-q4-major/arm-none-eabi/include/c++/10.2.1/bits/stl_algo.h ****       if (__first1 == __last1 || __first2 == __last2)
 148:/usr/share/gcc-arm-none-eabi-10-2020-q4-major/arm-none-eabi/include/c++/10.2.1/bits/stl_algo.h **** 	return __first1;
 149:/usr/share/gcc-arm-none-eabi-10-2020-q4-major/arm-none-eabi/include/c++/10.2.1/bits/stl_algo.h **** 
 150:/usr/share/gcc-arm-none-eabi-10-2020-q4-major/arm-none-eabi/include/c++/10.2.1/bits/stl_algo.h ****       // Test for a pattern of length 1.
 151:/usr/share/gcc-arm-none-eabi-10-2020-q4-major/arm-none-eabi/include/c++/10.2.1/bits/stl_algo.h ****       _ForwardIterator2 __p1(__first2);
 152:/usr/share/gcc-arm-none-eabi-10-2020-q4-major/arm-none-eabi/include/c++/10.2.1/bits/stl_algo.h ****       if (++__p1 == __last2)
 153:/usr/share/gcc-arm-none-eabi-10-2020-q4-major/arm-none-eabi/include/c++/10.2.1/bits/stl_algo.h **** 	return std::__find_if(__first1, __last1,
 154:/usr/share/gcc-arm-none-eabi-10-2020-q4-major/arm-none-eabi/include/c++/10.2.1/bits/stl_algo.h **** 		__gnu_cxx::__ops::__iter_comp_iter(__predicate, __first2));
 155:/usr/share/gcc-arm-none-eabi-10-2020-q4-major/arm-none-eabi/include/c++/10.2.1/bits/stl_algo.h **** 
 156:/usr/share/gcc-arm-none-eabi-10-2020-q4-major/arm-none-eabi/include/c++/10.2.1/bits/stl_algo.h ****       // General case.
 157:/usr/share/gcc-arm-none-eabi-10-2020-q4-major/arm-none-eabi/include/c++/10.2.1/bits/stl_algo.h ****       _ForwardIterator1 __current = __first1;
 158:/usr/share/gcc-arm-none-eabi-10-2020-q4-major/arm-none-eabi/include/c++/10.2.1/bits/stl_algo.h **** 
 159:/usr/share/gcc-arm-none-eabi-10-2020-q4-major/arm-none-eabi/include/c++/10.2.1/bits/stl_algo.h ****       for (;;)
 160:/usr/share/gcc-arm-none-eabi-10-2020-q4-major/arm-none-eabi/include/c++/10.2.1/bits/stl_algo.h **** 	{
 161:/usr/share/gcc-arm-none-eabi-10-2020-q4-major/arm-none-eabi/include/c++/10.2.1/bits/stl_algo.h **** 	  __first1 =
 162:/usr/share/gcc-arm-none-eabi-10-2020-q4-major/arm-none-eabi/include/c++/10.2.1/bits/stl_algo.h **** 	    std::__find_if(__first1, __last1,
 163:/usr/share/gcc-arm-none-eabi-10-2020-q4-major/arm-none-eabi/include/c++/10.2.1/bits/stl_algo.h **** 		__gnu_cxx::__ops::__iter_comp_iter(__predicate, __first2));
 164:/usr/share/gcc-arm-none-eabi-10-2020-q4-major/arm-none-eabi/include/c++/10.2.1/bits/stl_algo.h **** 
 165:/usr/share/gcc-arm-none-eabi-10-2020-q4-major/arm-none-eabi/include/c++/10.2.1/bits/stl_algo.h **** 	  if (__first1 == __last1)
 166:/usr/share/gcc-arm-none-eabi-10-2020-q4-major/arm-none-eabi/include/c++/10.2.1/bits/stl_algo.h **** 	    return __last1;
 167:/usr/share/gcc-arm-none-eabi-10-2020-q4-major/arm-none-eabi/include/c++/10.2.1/bits/stl_algo.h **** 
 168:/usr/share/gcc-arm-none-eabi-10-2020-q4-major/arm-none-eabi/include/c++/10.2.1/bits/stl_algo.h **** 	  _ForwardIterator2 __p = __p1;
 169:/usr/share/gcc-arm-none-eabi-10-2020-q4-major/arm-none-eabi/include/c++/10.2.1/bits/stl_algo.h **** 	  __current = __first1;
 170:/usr/share/gcc-arm-none-eabi-10-2020-q4-major/arm-none-eabi/include/c++/10.2.1/bits/stl_algo.h **** 	  if (++__current == __last1)
 171:/usr/share/gcc-arm-none-eabi-10-2020-q4-major/arm-none-eabi/include/c++/10.2.1/bits/stl_algo.h **** 	    return __last1;
 172:/usr/share/gcc-arm-none-eabi-10-2020-q4-major/arm-none-eabi/include/c++/10.2.1/bits/stl_algo.h **** 
 173:/usr/share/gcc-arm-none-eabi-10-2020-q4-major/arm-none-eabi/include/c++/10.2.1/bits/stl_algo.h **** 	  while (__predicate(__current, __p))
ARM GAS  /tmp/ccIrndB6.s 			page 36


 174:/usr/share/gcc-arm-none-eabi-10-2020-q4-major/arm-none-eabi/include/c++/10.2.1/bits/stl_algo.h **** 	    {
 175:/usr/share/gcc-arm-none-eabi-10-2020-q4-major/arm-none-eabi/include/c++/10.2.1/bits/stl_algo.h **** 	      if (++__p == __last2)
 176:/usr/share/gcc-arm-none-eabi-10-2020-q4-major/arm-none-eabi/include/c++/10.2.1/bits/stl_algo.h **** 		return __first1;
 177:/usr/share/gcc-arm-none-eabi-10-2020-q4-major/arm-none-eabi/include/c++/10.2.1/bits/stl_algo.h **** 	      if (++__current == __last1)
 178:/usr/share/gcc-arm-none-eabi-10-2020-q4-major/arm-none-eabi/include/c++/10.2.1/bits/stl_algo.h **** 		return __last1;
 179:/usr/share/gcc-arm-none-eabi-10-2020-q4-major/arm-none-eabi/include/c++/10.2.1/bits/stl_algo.h **** 	    }
 180:/usr/share/gcc-arm-none-eabi-10-2020-q4-major/arm-none-eabi/include/c++/10.2.1/bits/stl_algo.h **** 	  ++__first1;
 181:/usr/share/gcc-arm-none-eabi-10-2020-q4-major/arm-none-eabi/include/c++/10.2.1/bits/stl_algo.h **** 	}
 182:/usr/share/gcc-arm-none-eabi-10-2020-q4-major/arm-none-eabi/include/c++/10.2.1/bits/stl_algo.h ****       return __first1;
 183:/usr/share/gcc-arm-none-eabi-10-2020-q4-major/arm-none-eabi/include/c++/10.2.1/bits/stl_algo.h ****     }
 184:/usr/share/gcc-arm-none-eabi-10-2020-q4-major/arm-none-eabi/include/c++/10.2.1/bits/stl_algo.h **** 
 185:/usr/share/gcc-arm-none-eabi-10-2020-q4-major/arm-none-eabi/include/c++/10.2.1/bits/stl_algo.h ****   // search_n
 186:/usr/share/gcc-arm-none-eabi-10-2020-q4-major/arm-none-eabi/include/c++/10.2.1/bits/stl_algo.h **** 
 187:/usr/share/gcc-arm-none-eabi-10-2020-q4-major/arm-none-eabi/include/c++/10.2.1/bits/stl_algo.h ****   /**
 188:/usr/share/gcc-arm-none-eabi-10-2020-q4-major/arm-none-eabi/include/c++/10.2.1/bits/stl_algo.h ****    *  This is an helper function for search_n overloaded for forward iterators.
 189:/usr/share/gcc-arm-none-eabi-10-2020-q4-major/arm-none-eabi/include/c++/10.2.1/bits/stl_algo.h ****   */
 190:/usr/share/gcc-arm-none-eabi-10-2020-q4-major/arm-none-eabi/include/c++/10.2.1/bits/stl_algo.h ****   template<typename _ForwardIterator, typename _Integer,
 191:/usr/share/gcc-arm-none-eabi-10-2020-q4-major/arm-none-eabi/include/c++/10.2.1/bits/stl_algo.h **** 	   typename _UnaryPredicate>
 192:/usr/share/gcc-arm-none-eabi-10-2020-q4-major/arm-none-eabi/include/c++/10.2.1/bits/stl_algo.h ****     _GLIBCXX20_CONSTEXPR
 193:/usr/share/gcc-arm-none-eabi-10-2020-q4-major/arm-none-eabi/include/c++/10.2.1/bits/stl_algo.h ****     _ForwardIterator
 194:/usr/share/gcc-arm-none-eabi-10-2020-q4-major/arm-none-eabi/include/c++/10.2.1/bits/stl_algo.h ****     __search_n_aux(_ForwardIterator __first, _ForwardIterator __last,
 195:/usr/share/gcc-arm-none-eabi-10-2020-q4-major/arm-none-eabi/include/c++/10.2.1/bits/stl_algo.h **** 		   _Integer __count, _UnaryPredicate __unary_pred,
 196:/usr/share/gcc-arm-none-eabi-10-2020-q4-major/arm-none-eabi/include/c++/10.2.1/bits/stl_algo.h **** 		   std::forward_iterator_tag)
 197:/usr/share/gcc-arm-none-eabi-10-2020-q4-major/arm-none-eabi/include/c++/10.2.1/bits/stl_algo.h ****     {
 198:/usr/share/gcc-arm-none-eabi-10-2020-q4-major/arm-none-eabi/include/c++/10.2.1/bits/stl_algo.h ****       __first = std::__find_if(__first, __last, __unary_pred);
 199:/usr/share/gcc-arm-none-eabi-10-2020-q4-major/arm-none-eabi/include/c++/10.2.1/bits/stl_algo.h ****       while (__first != __last)
 200:/usr/share/gcc-arm-none-eabi-10-2020-q4-major/arm-none-eabi/include/c++/10.2.1/bits/stl_algo.h **** 	{
 201:/usr/share/gcc-arm-none-eabi-10-2020-q4-major/arm-none-eabi/include/c++/10.2.1/bits/stl_algo.h **** 	  typename iterator_traits<_ForwardIterator>::difference_type
 202:/usr/share/gcc-arm-none-eabi-10-2020-q4-major/arm-none-eabi/include/c++/10.2.1/bits/stl_algo.h **** 	    __n = __count;
 203:/usr/share/gcc-arm-none-eabi-10-2020-q4-major/arm-none-eabi/include/c++/10.2.1/bits/stl_algo.h **** 	  _ForwardIterator __i = __first;
 204:/usr/share/gcc-arm-none-eabi-10-2020-q4-major/arm-none-eabi/include/c++/10.2.1/bits/stl_algo.h **** 	  ++__i;
 205:/usr/share/gcc-arm-none-eabi-10-2020-q4-major/arm-none-eabi/include/c++/10.2.1/bits/stl_algo.h **** 	  while (__i != __last && __n != 1 && __unary_pred(__i))
 206:/usr/share/gcc-arm-none-eabi-10-2020-q4-major/arm-none-eabi/include/c++/10.2.1/bits/stl_algo.h **** 	    {
 207:/usr/share/gcc-arm-none-eabi-10-2020-q4-major/arm-none-eabi/include/c++/10.2.1/bits/stl_algo.h **** 	      ++__i;
 208:/usr/share/gcc-arm-none-eabi-10-2020-q4-major/arm-none-eabi/include/c++/10.2.1/bits/stl_algo.h **** 	      --__n;
 209:/usr/share/gcc-arm-none-eabi-10-2020-q4-major/arm-none-eabi/include/c++/10.2.1/bits/stl_algo.h **** 	    }
 210:/usr/share/gcc-arm-none-eabi-10-2020-q4-major/arm-none-eabi/include/c++/10.2.1/bits/stl_algo.h **** 	  if (__n == 1)
 211:/usr/share/gcc-arm-none-eabi-10-2020-q4-major/arm-none-eabi/include/c++/10.2.1/bits/stl_algo.h **** 	    return __first;
 212:/usr/share/gcc-arm-none-eabi-10-2020-q4-major/arm-none-eabi/include/c++/10.2.1/bits/stl_algo.h **** 	  if (__i == __last)
 213:/usr/share/gcc-arm-none-eabi-10-2020-q4-major/arm-none-eabi/include/c++/10.2.1/bits/stl_algo.h **** 	    return __last;
 214:/usr/share/gcc-arm-none-eabi-10-2020-q4-major/arm-none-eabi/include/c++/10.2.1/bits/stl_algo.h **** 	  __first = std::__find_if(++__i, __last, __unary_pred);
 215:/usr/share/gcc-arm-none-eabi-10-2020-q4-major/arm-none-eabi/include/c++/10.2.1/bits/stl_algo.h **** 	}
 216:/usr/share/gcc-arm-none-eabi-10-2020-q4-major/arm-none-eabi/include/c++/10.2.1/bits/stl_algo.h ****       return __last;
 217:/usr/share/gcc-arm-none-eabi-10-2020-q4-major/arm-none-eabi/include/c++/10.2.1/bits/stl_algo.h ****     }
 218:/usr/share/gcc-arm-none-eabi-10-2020-q4-major/arm-none-eabi/include/c++/10.2.1/bits/stl_algo.h **** 
 219:/usr/share/gcc-arm-none-eabi-10-2020-q4-major/arm-none-eabi/include/c++/10.2.1/bits/stl_algo.h ****   /**
 220:/usr/share/gcc-arm-none-eabi-10-2020-q4-major/arm-none-eabi/include/c++/10.2.1/bits/stl_algo.h ****    *  This is an helper function for search_n overloaded for random access
 221:/usr/share/gcc-arm-none-eabi-10-2020-q4-major/arm-none-eabi/include/c++/10.2.1/bits/stl_algo.h ****    *  iterators.
 222:/usr/share/gcc-arm-none-eabi-10-2020-q4-major/arm-none-eabi/include/c++/10.2.1/bits/stl_algo.h ****   */
 223:/usr/share/gcc-arm-none-eabi-10-2020-q4-major/arm-none-eabi/include/c++/10.2.1/bits/stl_algo.h ****   template<typename _RandomAccessIter, typename _Integer,
 224:/usr/share/gcc-arm-none-eabi-10-2020-q4-major/arm-none-eabi/include/c++/10.2.1/bits/stl_algo.h **** 	   typename _UnaryPredicate>
 225:/usr/share/gcc-arm-none-eabi-10-2020-q4-major/arm-none-eabi/include/c++/10.2.1/bits/stl_algo.h ****     _GLIBCXX20_CONSTEXPR
 226:/usr/share/gcc-arm-none-eabi-10-2020-q4-major/arm-none-eabi/include/c++/10.2.1/bits/stl_algo.h ****     _RandomAccessIter
 227:/usr/share/gcc-arm-none-eabi-10-2020-q4-major/arm-none-eabi/include/c++/10.2.1/bits/stl_algo.h ****     __search_n_aux(_RandomAccessIter __first, _RandomAccessIter __last,
 228:/usr/share/gcc-arm-none-eabi-10-2020-q4-major/arm-none-eabi/include/c++/10.2.1/bits/stl_algo.h **** 		   _Integer __count, _UnaryPredicate __unary_pred,
 229:/usr/share/gcc-arm-none-eabi-10-2020-q4-major/arm-none-eabi/include/c++/10.2.1/bits/stl_algo.h **** 		   std::random_access_iterator_tag)
 230:/usr/share/gcc-arm-none-eabi-10-2020-q4-major/arm-none-eabi/include/c++/10.2.1/bits/stl_algo.h ****     {
ARM GAS  /tmp/ccIrndB6.s 			page 37


 231:/usr/share/gcc-arm-none-eabi-10-2020-q4-major/arm-none-eabi/include/c++/10.2.1/bits/stl_algo.h ****       typedef typename std::iterator_traits<_RandomAccessIter>::difference_type
 232:/usr/share/gcc-arm-none-eabi-10-2020-q4-major/arm-none-eabi/include/c++/10.2.1/bits/stl_algo.h **** 	_DistanceType;
 233:/usr/share/gcc-arm-none-eabi-10-2020-q4-major/arm-none-eabi/include/c++/10.2.1/bits/stl_algo.h **** 
 234:/usr/share/gcc-arm-none-eabi-10-2020-q4-major/arm-none-eabi/include/c++/10.2.1/bits/stl_algo.h ****       _DistanceType __tailSize = __last - __first;
 235:/usr/share/gcc-arm-none-eabi-10-2020-q4-major/arm-none-eabi/include/c++/10.2.1/bits/stl_algo.h ****       _DistanceType __remainder = __count;
 236:/usr/share/gcc-arm-none-eabi-10-2020-q4-major/arm-none-eabi/include/c++/10.2.1/bits/stl_algo.h **** 
 237:/usr/share/gcc-arm-none-eabi-10-2020-q4-major/arm-none-eabi/include/c++/10.2.1/bits/stl_algo.h ****       while (__remainder <= __tailSize) // the main loop...
 238:/usr/share/gcc-arm-none-eabi-10-2020-q4-major/arm-none-eabi/include/c++/10.2.1/bits/stl_algo.h **** 	{
 239:/usr/share/gcc-arm-none-eabi-10-2020-q4-major/arm-none-eabi/include/c++/10.2.1/bits/stl_algo.h **** 	  __first += __remainder;
 240:/usr/share/gcc-arm-none-eabi-10-2020-q4-major/arm-none-eabi/include/c++/10.2.1/bits/stl_algo.h **** 	  __tailSize -= __remainder;
 241:/usr/share/gcc-arm-none-eabi-10-2020-q4-major/arm-none-eabi/include/c++/10.2.1/bits/stl_algo.h **** 	  // __first here is always pointing to one past the last element of
 242:/usr/share/gcc-arm-none-eabi-10-2020-q4-major/arm-none-eabi/include/c++/10.2.1/bits/stl_algo.h **** 	  // next possible match.
 243:/usr/share/gcc-arm-none-eabi-10-2020-q4-major/arm-none-eabi/include/c++/10.2.1/bits/stl_algo.h **** 	  _RandomAccessIter __backTrack = __first; 
 244:/usr/share/gcc-arm-none-eabi-10-2020-q4-major/arm-none-eabi/include/c++/10.2.1/bits/stl_algo.h **** 	  while (__unary_pred(--__backTrack))
 245:/usr/share/gcc-arm-none-eabi-10-2020-q4-major/arm-none-eabi/include/c++/10.2.1/bits/stl_algo.h **** 	    {
 246:/usr/share/gcc-arm-none-eabi-10-2020-q4-major/arm-none-eabi/include/c++/10.2.1/bits/stl_algo.h **** 	      if (--__remainder == 0)
 247:/usr/share/gcc-arm-none-eabi-10-2020-q4-major/arm-none-eabi/include/c++/10.2.1/bits/stl_algo.h **** 		return (__first - __count); // Success
 248:/usr/share/gcc-arm-none-eabi-10-2020-q4-major/arm-none-eabi/include/c++/10.2.1/bits/stl_algo.h **** 	    }
 249:/usr/share/gcc-arm-none-eabi-10-2020-q4-major/arm-none-eabi/include/c++/10.2.1/bits/stl_algo.h **** 	  __remainder = __count + 1 - (__first - __backTrack);
 250:/usr/share/gcc-arm-none-eabi-10-2020-q4-major/arm-none-eabi/include/c++/10.2.1/bits/stl_algo.h **** 	}
 251:/usr/share/gcc-arm-none-eabi-10-2020-q4-major/arm-none-eabi/include/c++/10.2.1/bits/stl_algo.h ****       return __last; // Failure
 252:/usr/share/gcc-arm-none-eabi-10-2020-q4-major/arm-none-eabi/include/c++/10.2.1/bits/stl_algo.h ****     }
 253:/usr/share/gcc-arm-none-eabi-10-2020-q4-major/arm-none-eabi/include/c++/10.2.1/bits/stl_algo.h **** 
 254:/usr/share/gcc-arm-none-eabi-10-2020-q4-major/arm-none-eabi/include/c++/10.2.1/bits/stl_algo.h ****   template<typename _ForwardIterator, typename _Integer,
 255:/usr/share/gcc-arm-none-eabi-10-2020-q4-major/arm-none-eabi/include/c++/10.2.1/bits/stl_algo.h **** 	   typename _UnaryPredicate>
 256:/usr/share/gcc-arm-none-eabi-10-2020-q4-major/arm-none-eabi/include/c++/10.2.1/bits/stl_algo.h ****     _GLIBCXX20_CONSTEXPR
 257:/usr/share/gcc-arm-none-eabi-10-2020-q4-major/arm-none-eabi/include/c++/10.2.1/bits/stl_algo.h ****     _ForwardIterator
 258:/usr/share/gcc-arm-none-eabi-10-2020-q4-major/arm-none-eabi/include/c++/10.2.1/bits/stl_algo.h ****     __search_n(_ForwardIterator __first, _ForwardIterator __last,
 259:/usr/share/gcc-arm-none-eabi-10-2020-q4-major/arm-none-eabi/include/c++/10.2.1/bits/stl_algo.h **** 	       _Integer __count,
 260:/usr/share/gcc-arm-none-eabi-10-2020-q4-major/arm-none-eabi/include/c++/10.2.1/bits/stl_algo.h **** 	       _UnaryPredicate __unary_pred)
 261:/usr/share/gcc-arm-none-eabi-10-2020-q4-major/arm-none-eabi/include/c++/10.2.1/bits/stl_algo.h ****     {
 262:/usr/share/gcc-arm-none-eabi-10-2020-q4-major/arm-none-eabi/include/c++/10.2.1/bits/stl_algo.h ****       if (__count <= 0)
 263:/usr/share/gcc-arm-none-eabi-10-2020-q4-major/arm-none-eabi/include/c++/10.2.1/bits/stl_algo.h **** 	return __first;
 264:/usr/share/gcc-arm-none-eabi-10-2020-q4-major/arm-none-eabi/include/c++/10.2.1/bits/stl_algo.h **** 
 265:/usr/share/gcc-arm-none-eabi-10-2020-q4-major/arm-none-eabi/include/c++/10.2.1/bits/stl_algo.h ****       if (__count == 1)
 266:/usr/share/gcc-arm-none-eabi-10-2020-q4-major/arm-none-eabi/include/c++/10.2.1/bits/stl_algo.h **** 	return std::__find_if(__first, __last, __unary_pred);
 267:/usr/share/gcc-arm-none-eabi-10-2020-q4-major/arm-none-eabi/include/c++/10.2.1/bits/stl_algo.h **** 
 268:/usr/share/gcc-arm-none-eabi-10-2020-q4-major/arm-none-eabi/include/c++/10.2.1/bits/stl_algo.h ****       return std::__search_n_aux(__first, __last, __count, __unary_pred,
 269:/usr/share/gcc-arm-none-eabi-10-2020-q4-major/arm-none-eabi/include/c++/10.2.1/bits/stl_algo.h **** 				 std::__iterator_category(__first));
 270:/usr/share/gcc-arm-none-eabi-10-2020-q4-major/arm-none-eabi/include/c++/10.2.1/bits/stl_algo.h ****     }
 271:/usr/share/gcc-arm-none-eabi-10-2020-q4-major/arm-none-eabi/include/c++/10.2.1/bits/stl_algo.h **** 
 272:/usr/share/gcc-arm-none-eabi-10-2020-q4-major/arm-none-eabi/include/c++/10.2.1/bits/stl_algo.h ****   // find_end for forward iterators.
 273:/usr/share/gcc-arm-none-eabi-10-2020-q4-major/arm-none-eabi/include/c++/10.2.1/bits/stl_algo.h ****   template<typename _ForwardIterator1, typename _ForwardIterator2,
 274:/usr/share/gcc-arm-none-eabi-10-2020-q4-major/arm-none-eabi/include/c++/10.2.1/bits/stl_algo.h **** 	   typename _BinaryPredicate>
 275:/usr/share/gcc-arm-none-eabi-10-2020-q4-major/arm-none-eabi/include/c++/10.2.1/bits/stl_algo.h ****     _GLIBCXX20_CONSTEXPR
 276:/usr/share/gcc-arm-none-eabi-10-2020-q4-major/arm-none-eabi/include/c++/10.2.1/bits/stl_algo.h ****     _ForwardIterator1
 277:/usr/share/gcc-arm-none-eabi-10-2020-q4-major/arm-none-eabi/include/c++/10.2.1/bits/stl_algo.h ****     __find_end(_ForwardIterator1 __first1, _ForwardIterator1 __last1,
 278:/usr/share/gcc-arm-none-eabi-10-2020-q4-major/arm-none-eabi/include/c++/10.2.1/bits/stl_algo.h **** 	       _ForwardIterator2 __first2, _ForwardIterator2 __last2,
 279:/usr/share/gcc-arm-none-eabi-10-2020-q4-major/arm-none-eabi/include/c++/10.2.1/bits/stl_algo.h **** 	       forward_iterator_tag, forward_iterator_tag,
 280:/usr/share/gcc-arm-none-eabi-10-2020-q4-major/arm-none-eabi/include/c++/10.2.1/bits/stl_algo.h **** 	       _BinaryPredicate __comp)
 281:/usr/share/gcc-arm-none-eabi-10-2020-q4-major/arm-none-eabi/include/c++/10.2.1/bits/stl_algo.h ****     {
 282:/usr/share/gcc-arm-none-eabi-10-2020-q4-major/arm-none-eabi/include/c++/10.2.1/bits/stl_algo.h ****       if (__first2 == __last2)
 283:/usr/share/gcc-arm-none-eabi-10-2020-q4-major/arm-none-eabi/include/c++/10.2.1/bits/stl_algo.h **** 	return __last1;
 284:/usr/share/gcc-arm-none-eabi-10-2020-q4-major/arm-none-eabi/include/c++/10.2.1/bits/stl_algo.h **** 
 285:/usr/share/gcc-arm-none-eabi-10-2020-q4-major/arm-none-eabi/include/c++/10.2.1/bits/stl_algo.h ****       _ForwardIterator1 __result = __last1;
 286:/usr/share/gcc-arm-none-eabi-10-2020-q4-major/arm-none-eabi/include/c++/10.2.1/bits/stl_algo.h ****       while (1)
 287:/usr/share/gcc-arm-none-eabi-10-2020-q4-major/arm-none-eabi/include/c++/10.2.1/bits/stl_algo.h **** 	{
ARM GAS  /tmp/ccIrndB6.s 			page 38


 288:/usr/share/gcc-arm-none-eabi-10-2020-q4-major/arm-none-eabi/include/c++/10.2.1/bits/stl_algo.h **** 	  _ForwardIterator1 __new_result
 289:/usr/share/gcc-arm-none-eabi-10-2020-q4-major/arm-none-eabi/include/c++/10.2.1/bits/stl_algo.h **** 	    = std::__search(__first1, __last1, __first2, __last2, __comp);
 290:/usr/share/gcc-arm-none-eabi-10-2020-q4-major/arm-none-eabi/include/c++/10.2.1/bits/stl_algo.h **** 	  if (__new_result == __last1)
 291:/usr/share/gcc-arm-none-eabi-10-2020-q4-major/arm-none-eabi/include/c++/10.2.1/bits/stl_algo.h **** 	    return __result;
 292:/usr/share/gcc-arm-none-eabi-10-2020-q4-major/arm-none-eabi/include/c++/10.2.1/bits/stl_algo.h **** 	  else
 293:/usr/share/gcc-arm-none-eabi-10-2020-q4-major/arm-none-eabi/include/c++/10.2.1/bits/stl_algo.h **** 	    {
 294:/usr/share/gcc-arm-none-eabi-10-2020-q4-major/arm-none-eabi/include/c++/10.2.1/bits/stl_algo.h **** 	      __result = __new_result;
 295:/usr/share/gcc-arm-none-eabi-10-2020-q4-major/arm-none-eabi/include/c++/10.2.1/bits/stl_algo.h **** 	      __first1 = __new_result;
 296:/usr/share/gcc-arm-none-eabi-10-2020-q4-major/arm-none-eabi/include/c++/10.2.1/bits/stl_algo.h **** 	      ++__first1;
 297:/usr/share/gcc-arm-none-eabi-10-2020-q4-major/arm-none-eabi/include/c++/10.2.1/bits/stl_algo.h **** 	    }
 298:/usr/share/gcc-arm-none-eabi-10-2020-q4-major/arm-none-eabi/include/c++/10.2.1/bits/stl_algo.h **** 	}
 299:/usr/share/gcc-arm-none-eabi-10-2020-q4-major/arm-none-eabi/include/c++/10.2.1/bits/stl_algo.h ****     }
 300:/usr/share/gcc-arm-none-eabi-10-2020-q4-major/arm-none-eabi/include/c++/10.2.1/bits/stl_algo.h **** 
 301:/usr/share/gcc-arm-none-eabi-10-2020-q4-major/arm-none-eabi/include/c++/10.2.1/bits/stl_algo.h ****   // find_end for bidirectional iterators (much faster).
 302:/usr/share/gcc-arm-none-eabi-10-2020-q4-major/arm-none-eabi/include/c++/10.2.1/bits/stl_algo.h ****   template<typename _BidirectionalIterator1, typename _BidirectionalIterator2,
 303:/usr/share/gcc-arm-none-eabi-10-2020-q4-major/arm-none-eabi/include/c++/10.2.1/bits/stl_algo.h **** 	   typename _BinaryPredicate>
 304:/usr/share/gcc-arm-none-eabi-10-2020-q4-major/arm-none-eabi/include/c++/10.2.1/bits/stl_algo.h ****     _GLIBCXX20_CONSTEXPR
 305:/usr/share/gcc-arm-none-eabi-10-2020-q4-major/arm-none-eabi/include/c++/10.2.1/bits/stl_algo.h ****     _BidirectionalIterator1
 306:/usr/share/gcc-arm-none-eabi-10-2020-q4-major/arm-none-eabi/include/c++/10.2.1/bits/stl_algo.h ****     __find_end(_BidirectionalIterator1 __first1,
 307:/usr/share/gcc-arm-none-eabi-10-2020-q4-major/arm-none-eabi/include/c++/10.2.1/bits/stl_algo.h **** 	       _BidirectionalIterator1 __last1,
 308:/usr/share/gcc-arm-none-eabi-10-2020-q4-major/arm-none-eabi/include/c++/10.2.1/bits/stl_algo.h **** 	       _BidirectionalIterator2 __first2,
 309:/usr/share/gcc-arm-none-eabi-10-2020-q4-major/arm-none-eabi/include/c++/10.2.1/bits/stl_algo.h **** 	       _BidirectionalIterator2 __last2,
 310:/usr/share/gcc-arm-none-eabi-10-2020-q4-major/arm-none-eabi/include/c++/10.2.1/bits/stl_algo.h **** 	       bidirectional_iterator_tag, bidirectional_iterator_tag,
 311:/usr/share/gcc-arm-none-eabi-10-2020-q4-major/arm-none-eabi/include/c++/10.2.1/bits/stl_algo.h **** 	       _BinaryPredicate __comp)
 312:/usr/share/gcc-arm-none-eabi-10-2020-q4-major/arm-none-eabi/include/c++/10.2.1/bits/stl_algo.h ****     {
 313:/usr/share/gcc-arm-none-eabi-10-2020-q4-major/arm-none-eabi/include/c++/10.2.1/bits/stl_algo.h ****       // concept requirements
 314:/usr/share/gcc-arm-none-eabi-10-2020-q4-major/arm-none-eabi/include/c++/10.2.1/bits/stl_algo.h ****       __glibcxx_function_requires(_BidirectionalIteratorConcept<
 315:/usr/share/gcc-arm-none-eabi-10-2020-q4-major/arm-none-eabi/include/c++/10.2.1/bits/stl_algo.h **** 				  _BidirectionalIterator1>)
 316:/usr/share/gcc-arm-none-eabi-10-2020-q4-major/arm-none-eabi/include/c++/10.2.1/bits/stl_algo.h ****       __glibcxx_function_requires(_BidirectionalIteratorConcept<
 317:/usr/share/gcc-arm-none-eabi-10-2020-q4-major/arm-none-eabi/include/c++/10.2.1/bits/stl_algo.h **** 				  _BidirectionalIterator2>)
 318:/usr/share/gcc-arm-none-eabi-10-2020-q4-major/arm-none-eabi/include/c++/10.2.1/bits/stl_algo.h **** 
 319:/usr/share/gcc-arm-none-eabi-10-2020-q4-major/arm-none-eabi/include/c++/10.2.1/bits/stl_algo.h ****       typedef reverse_iterator<_BidirectionalIterator1> _RevIterator1;
 320:/usr/share/gcc-arm-none-eabi-10-2020-q4-major/arm-none-eabi/include/c++/10.2.1/bits/stl_algo.h ****       typedef reverse_iterator<_BidirectionalIterator2> _RevIterator2;
 321:/usr/share/gcc-arm-none-eabi-10-2020-q4-major/arm-none-eabi/include/c++/10.2.1/bits/stl_algo.h **** 
 322:/usr/share/gcc-arm-none-eabi-10-2020-q4-major/arm-none-eabi/include/c++/10.2.1/bits/stl_algo.h ****       _RevIterator1 __rlast1(__first1);
 323:/usr/share/gcc-arm-none-eabi-10-2020-q4-major/arm-none-eabi/include/c++/10.2.1/bits/stl_algo.h ****       _RevIterator2 __rlast2(__first2);
 324:/usr/share/gcc-arm-none-eabi-10-2020-q4-major/arm-none-eabi/include/c++/10.2.1/bits/stl_algo.h ****       _RevIterator1 __rresult = std::__search(_RevIterator1(__last1), __rlast1,
 325:/usr/share/gcc-arm-none-eabi-10-2020-q4-major/arm-none-eabi/include/c++/10.2.1/bits/stl_algo.h **** 					      _RevIterator2(__last2), __rlast2,
 326:/usr/share/gcc-arm-none-eabi-10-2020-q4-major/arm-none-eabi/include/c++/10.2.1/bits/stl_algo.h **** 					      __comp);
 327:/usr/share/gcc-arm-none-eabi-10-2020-q4-major/arm-none-eabi/include/c++/10.2.1/bits/stl_algo.h **** 
 328:/usr/share/gcc-arm-none-eabi-10-2020-q4-major/arm-none-eabi/include/c++/10.2.1/bits/stl_algo.h ****       if (__rresult == __rlast1)
 329:/usr/share/gcc-arm-none-eabi-10-2020-q4-major/arm-none-eabi/include/c++/10.2.1/bits/stl_algo.h **** 	return __last1;
 330:/usr/share/gcc-arm-none-eabi-10-2020-q4-major/arm-none-eabi/include/c++/10.2.1/bits/stl_algo.h ****       else
 331:/usr/share/gcc-arm-none-eabi-10-2020-q4-major/arm-none-eabi/include/c++/10.2.1/bits/stl_algo.h **** 	{
 332:/usr/share/gcc-arm-none-eabi-10-2020-q4-major/arm-none-eabi/include/c++/10.2.1/bits/stl_algo.h **** 	  _BidirectionalIterator1 __result = __rresult.base();
 333:/usr/share/gcc-arm-none-eabi-10-2020-q4-major/arm-none-eabi/include/c++/10.2.1/bits/stl_algo.h **** 	  std::advance(__result, -std::distance(__first2, __last2));
 334:/usr/share/gcc-arm-none-eabi-10-2020-q4-major/arm-none-eabi/include/c++/10.2.1/bits/stl_algo.h **** 	  return __result;
 335:/usr/share/gcc-arm-none-eabi-10-2020-q4-major/arm-none-eabi/include/c++/10.2.1/bits/stl_algo.h **** 	}
 336:/usr/share/gcc-arm-none-eabi-10-2020-q4-major/arm-none-eabi/include/c++/10.2.1/bits/stl_algo.h ****     }
 337:/usr/share/gcc-arm-none-eabi-10-2020-q4-major/arm-none-eabi/include/c++/10.2.1/bits/stl_algo.h **** 
 338:/usr/share/gcc-arm-none-eabi-10-2020-q4-major/arm-none-eabi/include/c++/10.2.1/bits/stl_algo.h ****   /**
 339:/usr/share/gcc-arm-none-eabi-10-2020-q4-major/arm-none-eabi/include/c++/10.2.1/bits/stl_algo.h ****    *  @brief  Find last matching subsequence in a sequence.
 340:/usr/share/gcc-arm-none-eabi-10-2020-q4-major/arm-none-eabi/include/c++/10.2.1/bits/stl_algo.h ****    *  @ingroup non_mutating_algorithms
 341:/usr/share/gcc-arm-none-eabi-10-2020-q4-major/arm-none-eabi/include/c++/10.2.1/bits/stl_algo.h ****    *  @param  __first1  Start of range to search.
 342:/usr/share/gcc-arm-none-eabi-10-2020-q4-major/arm-none-eabi/include/c++/10.2.1/bits/stl_algo.h ****    *  @param  __last1   End of range to search.
 343:/usr/share/gcc-arm-none-eabi-10-2020-q4-major/arm-none-eabi/include/c++/10.2.1/bits/stl_algo.h ****    *  @param  __first2  Start of sequence to match.
 344:/usr/share/gcc-arm-none-eabi-10-2020-q4-major/arm-none-eabi/include/c++/10.2.1/bits/stl_algo.h ****    *  @param  __last2   End of sequence to match.
ARM GAS  /tmp/ccIrndB6.s 			page 39


 345:/usr/share/gcc-arm-none-eabi-10-2020-q4-major/arm-none-eabi/include/c++/10.2.1/bits/stl_algo.h ****    *  @return   The last iterator @c i in the range
 346:/usr/share/gcc-arm-none-eabi-10-2020-q4-major/arm-none-eabi/include/c++/10.2.1/bits/stl_algo.h ****    *  @p [__first1,__last1-(__last2-__first2)) such that @c *(i+N) ==
 347:/usr/share/gcc-arm-none-eabi-10-2020-q4-major/arm-none-eabi/include/c++/10.2.1/bits/stl_algo.h ****    *  @p *(__first2+N) for each @c N in the range @p
 348:/usr/share/gcc-arm-none-eabi-10-2020-q4-major/arm-none-eabi/include/c++/10.2.1/bits/stl_algo.h ****    *  [0,__last2-__first2), or @p __last1 if no such iterator exists.
 349:/usr/share/gcc-arm-none-eabi-10-2020-q4-major/arm-none-eabi/include/c++/10.2.1/bits/stl_algo.h ****    *
 350:/usr/share/gcc-arm-none-eabi-10-2020-q4-major/arm-none-eabi/include/c++/10.2.1/bits/stl_algo.h ****    *  Searches the range @p [__first1,__last1) for a sub-sequence that
 351:/usr/share/gcc-arm-none-eabi-10-2020-q4-major/arm-none-eabi/include/c++/10.2.1/bits/stl_algo.h ****    *  compares equal value-by-value with the sequence given by @p
 352:/usr/share/gcc-arm-none-eabi-10-2020-q4-major/arm-none-eabi/include/c++/10.2.1/bits/stl_algo.h ****    *  [__first2,__last2) and returns an iterator to the __first
 353:/usr/share/gcc-arm-none-eabi-10-2020-q4-major/arm-none-eabi/include/c++/10.2.1/bits/stl_algo.h ****    *  element of the sub-sequence, or @p __last1 if the sub-sequence
 354:/usr/share/gcc-arm-none-eabi-10-2020-q4-major/arm-none-eabi/include/c++/10.2.1/bits/stl_algo.h ****    *  is not found.  The sub-sequence will be the last such
 355:/usr/share/gcc-arm-none-eabi-10-2020-q4-major/arm-none-eabi/include/c++/10.2.1/bits/stl_algo.h ****    *  subsequence contained in [__first1,__last1).
 356:/usr/share/gcc-arm-none-eabi-10-2020-q4-major/arm-none-eabi/include/c++/10.2.1/bits/stl_algo.h ****    *
 357:/usr/share/gcc-arm-none-eabi-10-2020-q4-major/arm-none-eabi/include/c++/10.2.1/bits/stl_algo.h ****    *  Because the sub-sequence must lie completely within the range @p
 358:/usr/share/gcc-arm-none-eabi-10-2020-q4-major/arm-none-eabi/include/c++/10.2.1/bits/stl_algo.h ****    *  [__first1,__last1) it must start at a position less than @p
 359:/usr/share/gcc-arm-none-eabi-10-2020-q4-major/arm-none-eabi/include/c++/10.2.1/bits/stl_algo.h ****    *  __last1-(__last2-__first2) where @p __last2-__first2 is the
 360:/usr/share/gcc-arm-none-eabi-10-2020-q4-major/arm-none-eabi/include/c++/10.2.1/bits/stl_algo.h ****    *  length of the sub-sequence.  This means that the returned
 361:/usr/share/gcc-arm-none-eabi-10-2020-q4-major/arm-none-eabi/include/c++/10.2.1/bits/stl_algo.h ****    *  iterator @c i will be in the range @p
 362:/usr/share/gcc-arm-none-eabi-10-2020-q4-major/arm-none-eabi/include/c++/10.2.1/bits/stl_algo.h ****    *  [__first1,__last1-(__last2-__first2))
 363:/usr/share/gcc-arm-none-eabi-10-2020-q4-major/arm-none-eabi/include/c++/10.2.1/bits/stl_algo.h ****   */
 364:/usr/share/gcc-arm-none-eabi-10-2020-q4-major/arm-none-eabi/include/c++/10.2.1/bits/stl_algo.h ****   template<typename _ForwardIterator1, typename _ForwardIterator2>
 365:/usr/share/gcc-arm-none-eabi-10-2020-q4-major/arm-none-eabi/include/c++/10.2.1/bits/stl_algo.h ****     _GLIBCXX20_CONSTEXPR
 366:/usr/share/gcc-arm-none-eabi-10-2020-q4-major/arm-none-eabi/include/c++/10.2.1/bits/stl_algo.h ****     inline _ForwardIterator1
 367:/usr/share/gcc-arm-none-eabi-10-2020-q4-major/arm-none-eabi/include/c++/10.2.1/bits/stl_algo.h ****     find_end(_ForwardIterator1 __first1, _ForwardIterator1 __last1,
 368:/usr/share/gcc-arm-none-eabi-10-2020-q4-major/arm-none-eabi/include/c++/10.2.1/bits/stl_algo.h **** 	     _ForwardIterator2 __first2, _ForwardIterator2 __last2)
 369:/usr/share/gcc-arm-none-eabi-10-2020-q4-major/arm-none-eabi/include/c++/10.2.1/bits/stl_algo.h ****     {
 370:/usr/share/gcc-arm-none-eabi-10-2020-q4-major/arm-none-eabi/include/c++/10.2.1/bits/stl_algo.h ****       // concept requirements
 371:/usr/share/gcc-arm-none-eabi-10-2020-q4-major/arm-none-eabi/include/c++/10.2.1/bits/stl_algo.h ****       __glibcxx_function_requires(_ForwardIteratorConcept<_ForwardIterator1>)
 372:/usr/share/gcc-arm-none-eabi-10-2020-q4-major/arm-none-eabi/include/c++/10.2.1/bits/stl_algo.h ****       __glibcxx_function_requires(_ForwardIteratorConcept<_ForwardIterator2>)
