ARM GAS  /tmp/ccIVhKnY.s 			page 1


   1              		.cpu cortex-m4
   2              		.eabi_attribute 27, 1
   3              		.eabi_attribute 28, 1
   4              		.eabi_attribute 20, 1
   5              		.eabi_attribute 21, 1
   6              		.eabi_attribute 23, 3
   7              		.eabi_attribute 24, 1
   8              		.eabi_attribute 25, 1
   9              		.eabi_attribute 26, 1
  10              		.eabi_attribute 30, 6
  11              		.eabi_attribute 34, 1
  12              		.eabi_attribute 18, 2
  13              		.file	"div.c"
  14              		.text
  15              	.Ltext0:
  16              		.cfi_sections	.debug_frame
  17              		.global	__aeabi_ldivmod
  18              		.section	.text.test_div64,"ax",%progbits
  19              		.align	1
  20              		.global	test_div64
  21              		.arch armv7e-m
  22              		.syntax unified
  23              		.thumb
  24              		.thumb_func
  25              		.fpu fpv4-sp-d16
  27              	test_div64:
  28              	.LFB0:
  29              		.file 1 "Src/div.c"
   1:Src/div.c     **** #include <stdint.h>
   2:Src/div.c     **** 
   3:Src/div.c     **** int64_t test_div64(int64_t a, int64_t b) {
  30              		.loc 1 3 42
  31              		.cfi_startproc
  32              		@ args = 0, pretend = 0, frame = 16
  33              		@ frame_needed = 1, uses_anonymous_args = 0
  34 0000 80B5     		push	{r7, lr}
  35              	.LCFI0:
  36              		.cfi_def_cfa_offset 8
  37              		.cfi_offset 7, -8
  38              		.cfi_offset 14, -4
  39 0002 84B0     		sub	sp, sp, #16
  40              	.LCFI1:
  41              		.cfi_def_cfa_offset 24
  42 0004 00AF     		add	r7, sp, #0
  43              	.LCFI2:
  44              		.cfi_def_cfa_register 7
  45 0006 C7E90201 		strd	r0, [r7, #8]
  46 000a C7E90023 		strd	r2, [r7]
   4:Src/div.c     ****     return a / b;
  47              		.loc 1 4 14
  48 000e D7E90023 		ldrd	r2, [r7]
  49 0012 D7E90201 		ldrd	r0, [r7, #8]
  50 0016 FFF7FEFF 		bl	__aeabi_ldivmod
  51 001a 0246     		mov	r2, r0
  52 001c 0B46     		mov	r3, r1
   5:Src/div.c     **** }
  53              		.loc 1 5 1
ARM GAS  /tmp/ccIVhKnY.s 			page 2


  54 001e 1046     		mov	r0, r2
  55 0020 1946     		mov	r1, r3
  56 0022 1037     		adds	r7, r7, #16
  57              	.LCFI3:
  58              		.cfi_def_cfa_offset 8
  59 0024 BD46     		mov	sp, r7
  60              	.LCFI4:
  61              		.cfi_def_cfa_register 13
  62              		@ sp needed
  63 0026 80BD     		pop	{r7, pc}
  64              		.cfi_endproc
  65              	.LFE0:
  67              		.global	__aeabi_uldivmod
  68              		.section	.text.test_udiv64,"ax",%progbits
  69              		.align	1
  70              		.global	test_udiv64
  71              		.syntax unified
  72              		.thumb
  73              		.thumb_func
  74              		.fpu fpv4-sp-d16
  76              	test_udiv64:
  77              	.LFB1:
   6:Src/div.c     **** 
   7:Src/div.c     **** uint64_t test_udiv64(uint64_t a, uint64_t b) {
  78              		.loc 1 7 46
  79              		.cfi_startproc
  80              		@ args = 0, pretend = 0, frame = 16
  81              		@ frame_needed = 1, uses_anonymous_args = 0
  82 0000 80B5     		push	{r7, lr}
  83              	.LCFI5:
  84              		.cfi_def_cfa_offset 8
  85              		.cfi_offset 7, -8
  86              		.cfi_offset 14, -4
  87 0002 84B0     		sub	sp, sp, #16
  88              	.LCFI6:
  89              		.cfi_def_cfa_offset 24
  90 0004 00AF     		add	r7, sp, #0
  91              	.LCFI7:
  92              		.cfi_def_cfa_register 7
  93 0006 C7E90201 		strd	r0, [r7, #8]
  94 000a C7E90023 		strd	r2, [r7]
   8:Src/div.c     ****     return a / b;
  95              		.loc 1 8 14
  96 000e D7E90023 		ldrd	r2, [r7]
  97 0012 D7E90201 		ldrd	r0, [r7, #8]
  98 0016 FFF7FEFF 		bl	__aeabi_uldivmod
  99 001a 0246     		mov	r2, r0
 100 001c 0B46     		mov	r3, r1
   9:Src/div.c     **** }...
 101              		.loc 1 9 1
 102 001e 1046     		mov	r0, r2
 103 0020 1946     		mov	r1, r3
 104 0022 1037     		adds	r7, r7, #16
 105              	.LCFI8:
 106              		.cfi_def_cfa_offset 8
 107 0024 BD46     		mov	sp, r7
 108              	.LCFI9:
ARM GAS  /tmp/ccIVhKnY.s 			page 3


 109              		.cfi_def_cfa_register 13
 110              		@ sp needed
 111 0026 80BD     		pop	{r7, pc}
 112              		.cfi_endproc
 113              	.LFE1:
 115              		.text
 116              	.Letext0:
 117              		.file 2 "/usr/share/gcc-arm-none-eabi-10-2020-q4-major/arm-none-eabi/include/machine/_default_type
 118              		.file 3 "/usr/share/gcc-arm-none-eabi-10-2020-q4-major/arm-none-eabi/include/sys/_stdint.h"
ARM GAS  /tmp/ccIVhKnY.s 			page 4

