ARM GAS  /tmp/ccqv0h9S.s 			page 1


   1              		.cpu cortex-m4
   2              		.eabi_attribute 27, 1
   3              		.eabi_attribute 28, 1
   4              		.eabi_attribute 20, 1
   5              		.eabi_attribute 21, 1
   6              		.eabi_attribute 23, 3
   7              		.eabi_attribute 24, 1
   8              		.eabi_attribute 25, 1
   9              		.eabi_attribute 26, 1
  10              		.eabi_attribute 30, 6
  11              		.eabi_attribute 34, 1
  12              		.eabi_attribute 18, 2
  13              		.file	"encoder.cpp"
  14              		.text
  15              	.Ltext0:
  16              		.cfi_sections	.debug_frame
  17              		.section	.text._ZnwjPv,"axG",%progbits,_ZnwjPv,comdat
  18              		.align	1
  19              		.weak	_ZnwjPv
  20              		.arch armv7e-m
  21              		.syntax unified
  22              		.thumb
  23              		.thumb_func
  24              		.fpu fpv4-sp-d16
  26              	_ZnwjPv:
  27              	.LFB114:
  28              		.file 1 "/usr/share/gcc-arm-none-eabi-10-2020-q4-major/arm-none-eabi/include/c++/10.2.1/new"
   1:/usr/share/gcc-arm-none-eabi-10-2020-q4-major/arm-none-eabi/include/c++/10.2.1/new **** // The -*- C++ -*- dynamic memory management header.
   2:/usr/share/gcc-arm-none-eabi-10-2020-q4-major/arm-none-eabi/include/c++/10.2.1/new **** 
   3:/usr/share/gcc-arm-none-eabi-10-2020-q4-major/arm-none-eabi/include/c++/10.2.1/new **** // Copyright (C) 1994-2020 Free Software Foundation, Inc.
   4:/usr/share/gcc-arm-none-eabi-10-2020-q4-major/arm-none-eabi/include/c++/10.2.1/new **** 
   5:/usr/share/gcc-arm-none-eabi-10-2020-q4-major/arm-none-eabi/include/c++/10.2.1/new **** // This file is part of GCC.
   6:/usr/share/gcc-arm-none-eabi-10-2020-q4-major/arm-none-eabi/include/c++/10.2.1/new **** //
   7:/usr/share/gcc-arm-none-eabi-10-2020-q4-major/arm-none-eabi/include/c++/10.2.1/new **** // GCC is free software; you can redistribute it and/or modify
   8:/usr/share/gcc-arm-none-eabi-10-2020-q4-major/arm-none-eabi/include/c++/10.2.1/new **** // it under the terms of the GNU General Public License as published by
   9:/usr/share/gcc-arm-none-eabi-10-2020-q4-major/arm-none-eabi/include/c++/10.2.1/new **** // the Free Software Foundation; either version 3, or (at your option)
  10:/usr/share/gcc-arm-none-eabi-10-2020-q4-major/arm-none-eabi/include/c++/10.2.1/new **** // any later version.
  11:/usr/share/gcc-arm-none-eabi-10-2020-q4-major/arm-none-eabi/include/c++/10.2.1/new **** // 
  12:/usr/share/gcc-arm-none-eabi-10-2020-q4-major/arm-none-eabi/include/c++/10.2.1/new **** // GCC is distributed in the hope that it will be useful,
  13:/usr/share/gcc-arm-none-eabi-10-2020-q4-major/arm-none-eabi/include/c++/10.2.1/new **** // but WITHOUT ANY WARRANTY; without even the implied warranty of
  14:/usr/share/gcc-arm-none-eabi-10-2020-q4-major/arm-none-eabi/include/c++/10.2.1/new **** // MERCHANTABILITY or FITNESS FOR A PARTICULAR PURPOSE.  See the
  15:/usr/share/gcc-arm-none-eabi-10-2020-q4-major/arm-none-eabi/include/c++/10.2.1/new **** // GNU General Public License for more details.
  16:/usr/share/gcc-arm-none-eabi-10-2020-q4-major/arm-none-eabi/include/c++/10.2.1/new **** // 
  17:/usr/share/gcc-arm-none-eabi-10-2020-q4-major/arm-none-eabi/include/c++/10.2.1/new **** // Under Section 7 of GPL version 3, you are granted additional
  18:/usr/share/gcc-arm-none-eabi-10-2020-q4-major/arm-none-eabi/include/c++/10.2.1/new **** // permissions described in the GCC Runtime Library Exception, version
  19:/usr/share/gcc-arm-none-eabi-10-2020-q4-major/arm-none-eabi/include/c++/10.2.1/new **** // 3.1, as published by the Free Software Foundation.
  20:/usr/share/gcc-arm-none-eabi-10-2020-q4-major/arm-none-eabi/include/c++/10.2.1/new **** 
  21:/usr/share/gcc-arm-none-eabi-10-2020-q4-major/arm-none-eabi/include/c++/10.2.1/new **** // You should have received a copy of the GNU General Public License and
  22:/usr/share/gcc-arm-none-eabi-10-2020-q4-major/arm-none-eabi/include/c++/10.2.1/new **** // a copy of the GCC Runtime Library Exception along with this program;
  23:/usr/share/gcc-arm-none-eabi-10-2020-q4-major/arm-none-eabi/include/c++/10.2.1/new **** // see the files COPYING3 and COPYING.RUNTIME respectively.  If not, see
  24:/usr/share/gcc-arm-none-eabi-10-2020-q4-major/arm-none-eabi/include/c++/10.2.1/new **** // <http://www.gnu.org/licenses/>.
  25:/usr/share/gcc-arm-none-eabi-10-2020-q4-major/arm-none-eabi/include/c++/10.2.1/new **** 
  26:/usr/share/gcc-arm-none-eabi-10-2020-q4-major/arm-none-eabi/include/c++/10.2.1/new **** /** @file new
  27:/usr/share/gcc-arm-none-eabi-10-2020-q4-major/arm-none-eabi/include/c++/10.2.1/new ****  *  This is a Standard C++ Library header.
  28:/usr/share/gcc-arm-none-eabi-10-2020-q4-major/arm-none-eabi/include/c++/10.2.1/new ****  *
  29:/usr/share/gcc-arm-none-eabi-10-2020-q4-major/arm-none-eabi/include/c++/10.2.1/new ****  *  The header @c new defines several functions to manage dynamic memory and
  30:/usr/share/gcc-arm-none-eabi-10-2020-q4-major/arm-none-eabi/include/c++/10.2.1/new ****  *  handling memory allocation errors; see
ARM GAS  /tmp/ccqv0h9S.s 			page 2


  31:/usr/share/gcc-arm-none-eabi-10-2020-q4-major/arm-none-eabi/include/c++/10.2.1/new ****  *  https://gcc.gnu.org/onlinedocs/libstdc++/manual/dynamic_memory.html
  32:/usr/share/gcc-arm-none-eabi-10-2020-q4-major/arm-none-eabi/include/c++/10.2.1/new ****  *  for more.
  33:/usr/share/gcc-arm-none-eabi-10-2020-q4-major/arm-none-eabi/include/c++/10.2.1/new ****  */
  34:/usr/share/gcc-arm-none-eabi-10-2020-q4-major/arm-none-eabi/include/c++/10.2.1/new **** 
  35:/usr/share/gcc-arm-none-eabi-10-2020-q4-major/arm-none-eabi/include/c++/10.2.1/new **** #ifndef _NEW
  36:/usr/share/gcc-arm-none-eabi-10-2020-q4-major/arm-none-eabi/include/c++/10.2.1/new **** #define _NEW
  37:/usr/share/gcc-arm-none-eabi-10-2020-q4-major/arm-none-eabi/include/c++/10.2.1/new **** 
  38:/usr/share/gcc-arm-none-eabi-10-2020-q4-major/arm-none-eabi/include/c++/10.2.1/new **** #pragma GCC system_header
  39:/usr/share/gcc-arm-none-eabi-10-2020-q4-major/arm-none-eabi/include/c++/10.2.1/new **** 
  40:/usr/share/gcc-arm-none-eabi-10-2020-q4-major/arm-none-eabi/include/c++/10.2.1/new **** #include <bits/c++config.h>
  41:/usr/share/gcc-arm-none-eabi-10-2020-q4-major/arm-none-eabi/include/c++/10.2.1/new **** #include <exception>
  42:/usr/share/gcc-arm-none-eabi-10-2020-q4-major/arm-none-eabi/include/c++/10.2.1/new **** 
  43:/usr/share/gcc-arm-none-eabi-10-2020-q4-major/arm-none-eabi/include/c++/10.2.1/new **** #pragma GCC visibility push(default)
  44:/usr/share/gcc-arm-none-eabi-10-2020-q4-major/arm-none-eabi/include/c++/10.2.1/new **** 
  45:/usr/share/gcc-arm-none-eabi-10-2020-q4-major/arm-none-eabi/include/c++/10.2.1/new **** extern "C++" {
  46:/usr/share/gcc-arm-none-eabi-10-2020-q4-major/arm-none-eabi/include/c++/10.2.1/new **** 
  47:/usr/share/gcc-arm-none-eabi-10-2020-q4-major/arm-none-eabi/include/c++/10.2.1/new **** namespace std 
  48:/usr/share/gcc-arm-none-eabi-10-2020-q4-major/arm-none-eabi/include/c++/10.2.1/new **** {
  49:/usr/share/gcc-arm-none-eabi-10-2020-q4-major/arm-none-eabi/include/c++/10.2.1/new ****   /**
  50:/usr/share/gcc-arm-none-eabi-10-2020-q4-major/arm-none-eabi/include/c++/10.2.1/new ****    *  @brief  Exception possibly thrown by @c new.
  51:/usr/share/gcc-arm-none-eabi-10-2020-q4-major/arm-none-eabi/include/c++/10.2.1/new ****    *  @ingroup exceptions
  52:/usr/share/gcc-arm-none-eabi-10-2020-q4-major/arm-none-eabi/include/c++/10.2.1/new ****    *
  53:/usr/share/gcc-arm-none-eabi-10-2020-q4-major/arm-none-eabi/include/c++/10.2.1/new ****    *  @c bad_alloc (or classes derived from it) is used to report allocation
  54:/usr/share/gcc-arm-none-eabi-10-2020-q4-major/arm-none-eabi/include/c++/10.2.1/new ****    *  errors from the throwing forms of @c new.  */
  55:/usr/share/gcc-arm-none-eabi-10-2020-q4-major/arm-none-eabi/include/c++/10.2.1/new ****   class bad_alloc : public exception 
  56:/usr/share/gcc-arm-none-eabi-10-2020-q4-major/arm-none-eabi/include/c++/10.2.1/new ****   {
  57:/usr/share/gcc-arm-none-eabi-10-2020-q4-major/arm-none-eabi/include/c++/10.2.1/new ****   public:
  58:/usr/share/gcc-arm-none-eabi-10-2020-q4-major/arm-none-eabi/include/c++/10.2.1/new ****     bad_alloc() throw() { }
  59:/usr/share/gcc-arm-none-eabi-10-2020-q4-major/arm-none-eabi/include/c++/10.2.1/new **** 
  60:/usr/share/gcc-arm-none-eabi-10-2020-q4-major/arm-none-eabi/include/c++/10.2.1/new **** #if __cplusplus >= 201103L
  61:/usr/share/gcc-arm-none-eabi-10-2020-q4-major/arm-none-eabi/include/c++/10.2.1/new ****     bad_alloc(const bad_alloc&) = default;
  62:/usr/share/gcc-arm-none-eabi-10-2020-q4-major/arm-none-eabi/include/c++/10.2.1/new ****     bad_alloc& operator=(const bad_alloc&) = default;
  63:/usr/share/gcc-arm-none-eabi-10-2020-q4-major/arm-none-eabi/include/c++/10.2.1/new **** #endif
  64:/usr/share/gcc-arm-none-eabi-10-2020-q4-major/arm-none-eabi/include/c++/10.2.1/new **** 
  65:/usr/share/gcc-arm-none-eabi-10-2020-q4-major/arm-none-eabi/include/c++/10.2.1/new ****     // This declaration is not useless:
  66:/usr/share/gcc-arm-none-eabi-10-2020-q4-major/arm-none-eabi/include/c++/10.2.1/new ****     // http://gcc.gnu.org/onlinedocs/gcc-3.0.2/gcc_6.html#SEC118
  67:/usr/share/gcc-arm-none-eabi-10-2020-q4-major/arm-none-eabi/include/c++/10.2.1/new ****     virtual ~bad_alloc() throw();
  68:/usr/share/gcc-arm-none-eabi-10-2020-q4-major/arm-none-eabi/include/c++/10.2.1/new **** 
  69:/usr/share/gcc-arm-none-eabi-10-2020-q4-major/arm-none-eabi/include/c++/10.2.1/new ****     // See comment in eh_exception.cc.
  70:/usr/share/gcc-arm-none-eabi-10-2020-q4-major/arm-none-eabi/include/c++/10.2.1/new ****     virtual const char* what() const throw();
  71:/usr/share/gcc-arm-none-eabi-10-2020-q4-major/arm-none-eabi/include/c++/10.2.1/new ****   };
  72:/usr/share/gcc-arm-none-eabi-10-2020-q4-major/arm-none-eabi/include/c++/10.2.1/new **** 
  73:/usr/share/gcc-arm-none-eabi-10-2020-q4-major/arm-none-eabi/include/c++/10.2.1/new **** #if __cplusplus >= 201103L
  74:/usr/share/gcc-arm-none-eabi-10-2020-q4-major/arm-none-eabi/include/c++/10.2.1/new ****   class bad_array_new_length : public bad_alloc
  75:/usr/share/gcc-arm-none-eabi-10-2020-q4-major/arm-none-eabi/include/c++/10.2.1/new ****   {
  76:/usr/share/gcc-arm-none-eabi-10-2020-q4-major/arm-none-eabi/include/c++/10.2.1/new ****   public:
  77:/usr/share/gcc-arm-none-eabi-10-2020-q4-major/arm-none-eabi/include/c++/10.2.1/new ****     bad_array_new_length() throw() { }
  78:/usr/share/gcc-arm-none-eabi-10-2020-q4-major/arm-none-eabi/include/c++/10.2.1/new **** 
  79:/usr/share/gcc-arm-none-eabi-10-2020-q4-major/arm-none-eabi/include/c++/10.2.1/new ****     // This declaration is not useless:
  80:/usr/share/gcc-arm-none-eabi-10-2020-q4-major/arm-none-eabi/include/c++/10.2.1/new ****     // http://gcc.gnu.org/onlinedocs/gcc-3.0.2/gcc_6.html#SEC118
  81:/usr/share/gcc-arm-none-eabi-10-2020-q4-major/arm-none-eabi/include/c++/10.2.1/new ****     virtual ~bad_array_new_length() throw();
  82:/usr/share/gcc-arm-none-eabi-10-2020-q4-major/arm-none-eabi/include/c++/10.2.1/new **** 
  83:/usr/share/gcc-arm-none-eabi-10-2020-q4-major/arm-none-eabi/include/c++/10.2.1/new ****     // See comment in eh_exception.cc.
  84:/usr/share/gcc-arm-none-eabi-10-2020-q4-major/arm-none-eabi/include/c++/10.2.1/new ****     virtual const char* what() const throw();
  85:/usr/share/gcc-arm-none-eabi-10-2020-q4-major/arm-none-eabi/include/c++/10.2.1/new ****   };
  86:/usr/share/gcc-arm-none-eabi-10-2020-q4-major/arm-none-eabi/include/c++/10.2.1/new **** #endif
  87:/usr/share/gcc-arm-none-eabi-10-2020-q4-major/arm-none-eabi/include/c++/10.2.1/new **** 
ARM GAS  /tmp/ccqv0h9S.s 			page 3


  88:/usr/share/gcc-arm-none-eabi-10-2020-q4-major/arm-none-eabi/include/c++/10.2.1/new **** #if __cpp_aligned_new
  89:/usr/share/gcc-arm-none-eabi-10-2020-q4-major/arm-none-eabi/include/c++/10.2.1/new ****   enum class align_val_t: size_t {};
  90:/usr/share/gcc-arm-none-eabi-10-2020-q4-major/arm-none-eabi/include/c++/10.2.1/new **** #endif
  91:/usr/share/gcc-arm-none-eabi-10-2020-q4-major/arm-none-eabi/include/c++/10.2.1/new **** 
  92:/usr/share/gcc-arm-none-eabi-10-2020-q4-major/arm-none-eabi/include/c++/10.2.1/new ****   struct nothrow_t
  93:/usr/share/gcc-arm-none-eabi-10-2020-q4-major/arm-none-eabi/include/c++/10.2.1/new ****   {
  94:/usr/share/gcc-arm-none-eabi-10-2020-q4-major/arm-none-eabi/include/c++/10.2.1/new **** #if __cplusplus >= 201103L
  95:/usr/share/gcc-arm-none-eabi-10-2020-q4-major/arm-none-eabi/include/c++/10.2.1/new ****     explicit nothrow_t() = default;
  96:/usr/share/gcc-arm-none-eabi-10-2020-q4-major/arm-none-eabi/include/c++/10.2.1/new **** #endif
  97:/usr/share/gcc-arm-none-eabi-10-2020-q4-major/arm-none-eabi/include/c++/10.2.1/new ****   };
  98:/usr/share/gcc-arm-none-eabi-10-2020-q4-major/arm-none-eabi/include/c++/10.2.1/new **** 
  99:/usr/share/gcc-arm-none-eabi-10-2020-q4-major/arm-none-eabi/include/c++/10.2.1/new ****   extern const nothrow_t nothrow;
 100:/usr/share/gcc-arm-none-eabi-10-2020-q4-major/arm-none-eabi/include/c++/10.2.1/new **** 
 101:/usr/share/gcc-arm-none-eabi-10-2020-q4-major/arm-none-eabi/include/c++/10.2.1/new ****   /** If you write your own error handler to be called by @c new, it must
 102:/usr/share/gcc-arm-none-eabi-10-2020-q4-major/arm-none-eabi/include/c++/10.2.1/new ****    *  be of this type.  */
 103:/usr/share/gcc-arm-none-eabi-10-2020-q4-major/arm-none-eabi/include/c++/10.2.1/new ****   typedef void (*new_handler)();
 104:/usr/share/gcc-arm-none-eabi-10-2020-q4-major/arm-none-eabi/include/c++/10.2.1/new **** 
 105:/usr/share/gcc-arm-none-eabi-10-2020-q4-major/arm-none-eabi/include/c++/10.2.1/new ****   /// Takes a replacement handler as the argument, returns the
 106:/usr/share/gcc-arm-none-eabi-10-2020-q4-major/arm-none-eabi/include/c++/10.2.1/new ****   /// previous handler.
 107:/usr/share/gcc-arm-none-eabi-10-2020-q4-major/arm-none-eabi/include/c++/10.2.1/new ****   new_handler set_new_handler(new_handler) throw();
 108:/usr/share/gcc-arm-none-eabi-10-2020-q4-major/arm-none-eabi/include/c++/10.2.1/new **** 
 109:/usr/share/gcc-arm-none-eabi-10-2020-q4-major/arm-none-eabi/include/c++/10.2.1/new **** #if __cplusplus >= 201103L
 110:/usr/share/gcc-arm-none-eabi-10-2020-q4-major/arm-none-eabi/include/c++/10.2.1/new ****   /// Return the current new handler.
 111:/usr/share/gcc-arm-none-eabi-10-2020-q4-major/arm-none-eabi/include/c++/10.2.1/new ****   new_handler get_new_handler() noexcept;
 112:/usr/share/gcc-arm-none-eabi-10-2020-q4-major/arm-none-eabi/include/c++/10.2.1/new **** #endif
 113:/usr/share/gcc-arm-none-eabi-10-2020-q4-major/arm-none-eabi/include/c++/10.2.1/new **** } // namespace std
 114:/usr/share/gcc-arm-none-eabi-10-2020-q4-major/arm-none-eabi/include/c++/10.2.1/new **** 
 115:/usr/share/gcc-arm-none-eabi-10-2020-q4-major/arm-none-eabi/include/c++/10.2.1/new **** //@{
 116:/usr/share/gcc-arm-none-eabi-10-2020-q4-major/arm-none-eabi/include/c++/10.2.1/new **** /** These are replaceable signatures:
 117:/usr/share/gcc-arm-none-eabi-10-2020-q4-major/arm-none-eabi/include/c++/10.2.1/new ****  *  - normal single new and delete (no arguments, throw @c bad_alloc on error)
 118:/usr/share/gcc-arm-none-eabi-10-2020-q4-major/arm-none-eabi/include/c++/10.2.1/new ****  *  - normal array new and delete (same)
 119:/usr/share/gcc-arm-none-eabi-10-2020-q4-major/arm-none-eabi/include/c++/10.2.1/new ****  *  - @c nothrow single new and delete (take a @c nothrow argument, return
 120:/usr/share/gcc-arm-none-eabi-10-2020-q4-major/arm-none-eabi/include/c++/10.2.1/new ****  *    @c NULL on error)
 121:/usr/share/gcc-arm-none-eabi-10-2020-q4-major/arm-none-eabi/include/c++/10.2.1/new ****  *  - @c nothrow array new and delete (same)
 122:/usr/share/gcc-arm-none-eabi-10-2020-q4-major/arm-none-eabi/include/c++/10.2.1/new ****  *
 123:/usr/share/gcc-arm-none-eabi-10-2020-q4-major/arm-none-eabi/include/c++/10.2.1/new ****  *  Placement new and delete signatures (take a memory address argument,
 124:/usr/share/gcc-arm-none-eabi-10-2020-q4-major/arm-none-eabi/include/c++/10.2.1/new ****  *  does nothing) may not be replaced by a user's program.
 125:/usr/share/gcc-arm-none-eabi-10-2020-q4-major/arm-none-eabi/include/c++/10.2.1/new **** */
 126:/usr/share/gcc-arm-none-eabi-10-2020-q4-major/arm-none-eabi/include/c++/10.2.1/new **** _GLIBCXX_NODISCARD void* operator new(std::size_t) _GLIBCXX_THROW (std::bad_alloc)
 127:/usr/share/gcc-arm-none-eabi-10-2020-q4-major/arm-none-eabi/include/c++/10.2.1/new ****   __attribute__((__externally_visible__));
 128:/usr/share/gcc-arm-none-eabi-10-2020-q4-major/arm-none-eabi/include/c++/10.2.1/new **** _GLIBCXX_NODISCARD void* operator new[](std::size_t) _GLIBCXX_THROW (std::bad_alloc)
 129:/usr/share/gcc-arm-none-eabi-10-2020-q4-major/arm-none-eabi/include/c++/10.2.1/new ****   __attribute__((__externally_visible__));
 130:/usr/share/gcc-arm-none-eabi-10-2020-q4-major/arm-none-eabi/include/c++/10.2.1/new **** void operator delete(void*) _GLIBCXX_USE_NOEXCEPT
 131:/usr/share/gcc-arm-none-eabi-10-2020-q4-major/arm-none-eabi/include/c++/10.2.1/new ****   __attribute__((__externally_visible__));
 132:/usr/share/gcc-arm-none-eabi-10-2020-q4-major/arm-none-eabi/include/c++/10.2.1/new **** void operator delete[](void*) _GLIBCXX_USE_NOEXCEPT
 133:/usr/share/gcc-arm-none-eabi-10-2020-q4-major/arm-none-eabi/include/c++/10.2.1/new ****   __attribute__((__externally_visible__));
 134:/usr/share/gcc-arm-none-eabi-10-2020-q4-major/arm-none-eabi/include/c++/10.2.1/new **** #if __cpp_sized_deallocation
 135:/usr/share/gcc-arm-none-eabi-10-2020-q4-major/arm-none-eabi/include/c++/10.2.1/new **** void operator delete(void*, std::size_t) _GLIBCXX_USE_NOEXCEPT
 136:/usr/share/gcc-arm-none-eabi-10-2020-q4-major/arm-none-eabi/include/c++/10.2.1/new ****   __attribute__((__externally_visible__));
 137:/usr/share/gcc-arm-none-eabi-10-2020-q4-major/arm-none-eabi/include/c++/10.2.1/new **** void operator delete[](void*, std::size_t) _GLIBCXX_USE_NOEXCEPT
 138:/usr/share/gcc-arm-none-eabi-10-2020-q4-major/arm-none-eabi/include/c++/10.2.1/new ****   __attribute__((__externally_visible__));
 139:/usr/share/gcc-arm-none-eabi-10-2020-q4-major/arm-none-eabi/include/c++/10.2.1/new **** #endif
 140:/usr/share/gcc-arm-none-eabi-10-2020-q4-major/arm-none-eabi/include/c++/10.2.1/new **** _GLIBCXX_NODISCARD void* operator new(std::size_t, const std::nothrow_t&) _GLIBCXX_USE_NOEXCEPT
 141:/usr/share/gcc-arm-none-eabi-10-2020-q4-major/arm-none-eabi/include/c++/10.2.1/new ****   __attribute__((__externally_visible__, __malloc__));
 142:/usr/share/gcc-arm-none-eabi-10-2020-q4-major/arm-none-eabi/include/c++/10.2.1/new **** _GLIBCXX_NODISCARD void* operator new[](std::size_t, const std::nothrow_t&) _GLIBCXX_USE_NOEXCEPT
 143:/usr/share/gcc-arm-none-eabi-10-2020-q4-major/arm-none-eabi/include/c++/10.2.1/new ****   __attribute__((__externally_visible__, __malloc__));
 144:/usr/share/gcc-arm-none-eabi-10-2020-q4-major/arm-none-eabi/include/c++/10.2.1/new **** void operator delete(void*, const std::nothrow_t&) _GLIBCXX_USE_NOEXCEPT
ARM GAS  /tmp/ccqv0h9S.s 			page 4


 145:/usr/share/gcc-arm-none-eabi-10-2020-q4-major/arm-none-eabi/include/c++/10.2.1/new ****   __attribute__((__externally_visible__));
 146:/usr/share/gcc-arm-none-eabi-10-2020-q4-major/arm-none-eabi/include/c++/10.2.1/new **** void operator delete[](void*, const std::nothrow_t&) _GLIBCXX_USE_NOEXCEPT
 147:/usr/share/gcc-arm-none-eabi-10-2020-q4-major/arm-none-eabi/include/c++/10.2.1/new ****   __attribute__((__externally_visible__));
 148:/usr/share/gcc-arm-none-eabi-10-2020-q4-major/arm-none-eabi/include/c++/10.2.1/new **** #if __cpp_aligned_new
 149:/usr/share/gcc-arm-none-eabi-10-2020-q4-major/arm-none-eabi/include/c++/10.2.1/new **** _GLIBCXX_NODISCARD void* operator new(std::size_t, std::align_val_t)
 150:/usr/share/gcc-arm-none-eabi-10-2020-q4-major/arm-none-eabi/include/c++/10.2.1/new ****   __attribute__((__externally_visible__));
 151:/usr/share/gcc-arm-none-eabi-10-2020-q4-major/arm-none-eabi/include/c++/10.2.1/new **** _GLIBCXX_NODISCARD void* operator new(std::size_t, std::align_val_t, const std::nothrow_t&)
 152:/usr/share/gcc-arm-none-eabi-10-2020-q4-major/arm-none-eabi/include/c++/10.2.1/new ****   _GLIBCXX_USE_NOEXCEPT __attribute__((__externally_visible__, __malloc__));
 153:/usr/share/gcc-arm-none-eabi-10-2020-q4-major/arm-none-eabi/include/c++/10.2.1/new **** void operator delete(void*, std::align_val_t)
 154:/usr/share/gcc-arm-none-eabi-10-2020-q4-major/arm-none-eabi/include/c++/10.2.1/new ****   _GLIBCXX_USE_NOEXCEPT __attribute__((__externally_visible__));
 155:/usr/share/gcc-arm-none-eabi-10-2020-q4-major/arm-none-eabi/include/c++/10.2.1/new **** void operator delete(void*, std::align_val_t, const std::nothrow_t&)
 156:/usr/share/gcc-arm-none-eabi-10-2020-q4-major/arm-none-eabi/include/c++/10.2.1/new ****   _GLIBCXX_USE_NOEXCEPT __attribute__((__externally_visible__));
 157:/usr/share/gcc-arm-none-eabi-10-2020-q4-major/arm-none-eabi/include/c++/10.2.1/new **** _GLIBCXX_NODISCARD void* operator new[](std::size_t, std::align_val_t)
 158:/usr/share/gcc-arm-none-eabi-10-2020-q4-major/arm-none-eabi/include/c++/10.2.1/new ****   __attribute__((__externally_visible__));
 159:/usr/share/gcc-arm-none-eabi-10-2020-q4-major/arm-none-eabi/include/c++/10.2.1/new **** _GLIBCXX_NODISCARD void* operator new[](std::size_t, std::align_val_t, const std::nothrow_t&)
 160:/usr/share/gcc-arm-none-eabi-10-2020-q4-major/arm-none-eabi/include/c++/10.2.1/new ****   _GLIBCXX_USE_NOEXCEPT __attribute__((__externally_visible__, __malloc__));
 161:/usr/share/gcc-arm-none-eabi-10-2020-q4-major/arm-none-eabi/include/c++/10.2.1/new **** void operator delete[](void*, std::align_val_t)
 162:/usr/share/gcc-arm-none-eabi-10-2020-q4-major/arm-none-eabi/include/c++/10.2.1/new ****   _GLIBCXX_USE_NOEXCEPT __attribute__((__externally_visible__));
 163:/usr/share/gcc-arm-none-eabi-10-2020-q4-major/arm-none-eabi/include/c++/10.2.1/new **** void operator delete[](void*, std::align_val_t, const std::nothrow_t&)
 164:/usr/share/gcc-arm-none-eabi-10-2020-q4-major/arm-none-eabi/include/c++/10.2.1/new ****   _GLIBCXX_USE_NOEXCEPT __attribute__((__externally_visible__));
 165:/usr/share/gcc-arm-none-eabi-10-2020-q4-major/arm-none-eabi/include/c++/10.2.1/new **** #if __cpp_sized_deallocation
 166:/usr/share/gcc-arm-none-eabi-10-2020-q4-major/arm-none-eabi/include/c++/10.2.1/new **** void operator delete(void*, std::size_t, std::align_val_t)
 167:/usr/share/gcc-arm-none-eabi-10-2020-q4-major/arm-none-eabi/include/c++/10.2.1/new ****   _GLIBCXX_USE_NOEXCEPT __attribute__((__externally_visible__));
 168:/usr/share/gcc-arm-none-eabi-10-2020-q4-major/arm-none-eabi/include/c++/10.2.1/new **** void operator delete[](void*, std::size_t, std::align_val_t)
 169:/usr/share/gcc-arm-none-eabi-10-2020-q4-major/arm-none-eabi/include/c++/10.2.1/new ****   _GLIBCXX_USE_NOEXCEPT __attribute__((__externally_visible__));
 170:/usr/share/gcc-arm-none-eabi-10-2020-q4-major/arm-none-eabi/include/c++/10.2.1/new **** #endif // __cpp_sized_deallocation
 171:/usr/share/gcc-arm-none-eabi-10-2020-q4-major/arm-none-eabi/include/c++/10.2.1/new **** #endif // __cpp_aligned_new
 172:/usr/share/gcc-arm-none-eabi-10-2020-q4-major/arm-none-eabi/include/c++/10.2.1/new **** 
 173:/usr/share/gcc-arm-none-eabi-10-2020-q4-major/arm-none-eabi/include/c++/10.2.1/new **** // Default placement versions of operator new.
 174:/usr/share/gcc-arm-none-eabi-10-2020-q4-major/arm-none-eabi/include/c++/10.2.1/new **** _GLIBCXX_NODISCARD inline void* operator new(std::size_t, void* __p) _GLIBCXX_USE_NOEXCEPT
 175:/usr/share/gcc-arm-none-eabi-10-2020-q4-major/arm-none-eabi/include/c++/10.2.1/new **** { return __p; }
  29              		.loc 1 175 1
  30              		.cfi_startproc
  31              		@ args = 0, pretend = 0, frame = 8
  32              		@ frame_needed = 1, uses_anonymous_args = 0
  33              		@ link register save eliminated.
  34 0000 80B4     		push	{r7}
  35              	.LCFI0:
  36              		.cfi_def_cfa_offset 4
  37              		.cfi_offset 7, -4
  38 0002 83B0     		sub	sp, sp, #12
  39              	.LCFI1:
  40              		.cfi_def_cfa_offset 16
  41 0004 00AF     		add	r7, sp, #0
  42              	.LCFI2:
  43              		.cfi_def_cfa_register 7
  44 0006 7860     		str	r0, [r7, #4]
  45 0008 3960     		str	r1, [r7]
  46              		.loc 1 175 10
  47 000a 3B68     		ldr	r3, [r7]
  48              		.loc 1 175 15
  49 000c 1846     		mov	r0, r3
  50 000e 0C37     		adds	r7, r7, #12
  51              	.LCFI3:
  52              		.cfi_def_cfa_offset 4
  53 0010 BD46     		mov	sp, r7
  54              	.LCFI4:
ARM GAS  /tmp/ccqv0h9S.s 			page 5


  55              		.cfi_def_cfa_register 13
  56              		@ sp needed
  57 0012 5DF8047B 		ldr	r7, [sp], #4
  58              	.LCFI5:
  59              		.cfi_restore 7
  60              		.cfi_def_cfa_offset 0
  61 0016 7047     		bx	lr
  62              		.cfi_endproc
  63              	.LFE114:
  65              		.section	.text._ZSt26__throw_bad_variant_accessPKc,"axG",%progbits,_ZSt26__throw_bad_variant_acces
  66              		.align	1
  67              		.weak	_ZSt26__throw_bad_variant_accessPKc
  68              		.syntax unified
  69              		.thumb
  70              		.thumb_func
  71              		.fpu fpv4-sp-d16
  73              	_ZSt26__throw_bad_variant_accessPKc:
  74              	.LFB422:
  75              		.file 2 "/usr/share/gcc-arm-none-eabi-10-2020-q4-major/arm-none-eabi/include/c++/10.2.1/variant"
   1:/usr/share/gcc-arm-none-eabi-10-2020-q4-major/arm-none-eabi/include/c++/10.2.1/variant **** // <variant> -*- C++ -*-
   2:/usr/share/gcc-arm-none-eabi-10-2020-q4-major/arm-none-eabi/include/c++/10.2.1/variant **** 
   3:/usr/share/gcc-arm-none-eabi-10-2020-q4-major/arm-none-eabi/include/c++/10.2.1/variant **** // Copyright (C) 2016-2020 Free Software Foundation, Inc.
   4:/usr/share/gcc-arm-none-eabi-10-2020-q4-major/arm-none-eabi/include/c++/10.2.1/variant **** //
   5:/usr/share/gcc-arm-none-eabi-10-2020-q4-major/arm-none-eabi/include/c++/10.2.1/variant **** // This file is part of the GNU ISO C++ Library.  This library is free
   6:/usr/share/gcc-arm-none-eabi-10-2020-q4-major/arm-none-eabi/include/c++/10.2.1/variant **** // software; you can redistribute it and/or modify it under the
   7:/usr/share/gcc-arm-none-eabi-10-2020-q4-major/arm-none-eabi/include/c++/10.2.1/variant **** // terms of the GNU General Public License as published by the
   8:/usr/share/gcc-arm-none-eabi-10-2020-q4-major/arm-none-eabi/include/c++/10.2.1/variant **** // Free Software Foundation; either version 3, or (at your option)
   9:/usr/share/gcc-arm-none-eabi-10-2020-q4-major/arm-none-eabi/include/c++/10.2.1/variant **** // any later version.
  10:/usr/share/gcc-arm-none-eabi-10-2020-q4-major/arm-none-eabi/include/c++/10.2.1/variant **** 
  11:/usr/share/gcc-arm-none-eabi-10-2020-q4-major/arm-none-eabi/include/c++/10.2.1/variant **** // This library is distributed in the hope that it will be useful,
  12:/usr/share/gcc-arm-none-eabi-10-2020-q4-major/arm-none-eabi/include/c++/10.2.1/variant **** // but WITHOUT ANY WARRANTY; without even the implied warranty of
  13:/usr/share/gcc-arm-none-eabi-10-2020-q4-major/arm-none-eabi/include/c++/10.2.1/variant **** // MERCHANTABILITY or FITNESS FOR A PARTICULAR PURPOSE.  See the
  14:/usr/share/gcc-arm-none-eabi-10-2020-q4-major/arm-none-eabi/include/c++/10.2.1/variant **** // GNU General Public License for more details.
  15:/usr/share/gcc-arm-none-eabi-10-2020-q4-major/arm-none-eabi/include/c++/10.2.1/variant **** 
  16:/usr/share/gcc-arm-none-eabi-10-2020-q4-major/arm-none-eabi/include/c++/10.2.1/variant **** // Under Section 7 of GPL version 3, you are granted additional
  17:/usr/share/gcc-arm-none-eabi-10-2020-q4-major/arm-none-eabi/include/c++/10.2.1/variant **** // permissions described in the GCC Runtime Library Exception, version
  18:/usr/share/gcc-arm-none-eabi-10-2020-q4-major/arm-none-eabi/include/c++/10.2.1/variant **** // 3.1, as published by the Free Software Foundation.
  19:/usr/share/gcc-arm-none-eabi-10-2020-q4-major/arm-none-eabi/include/c++/10.2.1/variant **** 
  20:/usr/share/gcc-arm-none-eabi-10-2020-q4-major/arm-none-eabi/include/c++/10.2.1/variant **** // You should have received a copy of the GNU General Public License and
  21:/usr/share/gcc-arm-none-eabi-10-2020-q4-major/arm-none-eabi/include/c++/10.2.1/variant **** // a copy of the GCC Runtime Library Exception along with this program;
  22:/usr/share/gcc-arm-none-eabi-10-2020-q4-major/arm-none-eabi/include/c++/10.2.1/variant **** // see the files COPYING3 and COPYING.RUNTIME respectively.  If not, see
  23:/usr/share/gcc-arm-none-eabi-10-2020-q4-major/arm-none-eabi/include/c++/10.2.1/variant **** // <http://www.gnu.org/licenses/>.
  24:/usr/share/gcc-arm-none-eabi-10-2020-q4-major/arm-none-eabi/include/c++/10.2.1/variant **** 
  25:/usr/share/gcc-arm-none-eabi-10-2020-q4-major/arm-none-eabi/include/c++/10.2.1/variant **** /** @file variant
  26:/usr/share/gcc-arm-none-eabi-10-2020-q4-major/arm-none-eabi/include/c++/10.2.1/variant ****  *  This is the <variant> C++ Library header.
  27:/usr/share/gcc-arm-none-eabi-10-2020-q4-major/arm-none-eabi/include/c++/10.2.1/variant ****  */
  28:/usr/share/gcc-arm-none-eabi-10-2020-q4-major/arm-none-eabi/include/c++/10.2.1/variant **** 
  29:/usr/share/gcc-arm-none-eabi-10-2020-q4-major/arm-none-eabi/include/c++/10.2.1/variant **** #ifndef _GLIBCXX_VARIANT
  30:/usr/share/gcc-arm-none-eabi-10-2020-q4-major/arm-none-eabi/include/c++/10.2.1/variant **** #define _GLIBCXX_VARIANT 1
  31:/usr/share/gcc-arm-none-eabi-10-2020-q4-major/arm-none-eabi/include/c++/10.2.1/variant **** 
  32:/usr/share/gcc-arm-none-eabi-10-2020-q4-major/arm-none-eabi/include/c++/10.2.1/variant **** #pragma GCC system_header
  33:/usr/share/gcc-arm-none-eabi-10-2020-q4-major/arm-none-eabi/include/c++/10.2.1/variant **** 
  34:/usr/share/gcc-arm-none-eabi-10-2020-q4-major/arm-none-eabi/include/c++/10.2.1/variant **** #if __cplusplus >= 201703L
  35:/usr/share/gcc-arm-none-eabi-10-2020-q4-major/arm-none-eabi/include/c++/10.2.1/variant **** 
  36:/usr/share/gcc-arm-none-eabi-10-2020-q4-major/arm-none-eabi/include/c++/10.2.1/variant **** #include <type_traits>
  37:/usr/share/gcc-arm-none-eabi-10-2020-q4-major/arm-none-eabi/include/c++/10.2.1/variant **** #include <utility>
  38:/usr/share/gcc-arm-none-eabi-10-2020-q4-major/arm-none-eabi/include/c++/10.2.1/variant **** #include <bits/enable_special_members.h>
ARM GAS  /tmp/ccqv0h9S.s 			page 6


  39:/usr/share/gcc-arm-none-eabi-10-2020-q4-major/arm-none-eabi/include/c++/10.2.1/variant **** #include <bits/functexcept.h>
  40:/usr/share/gcc-arm-none-eabi-10-2020-q4-major/arm-none-eabi/include/c++/10.2.1/variant **** #include <bits/move.h>
  41:/usr/share/gcc-arm-none-eabi-10-2020-q4-major/arm-none-eabi/include/c++/10.2.1/variant **** #include <bits/functional_hash.h>
  42:/usr/share/gcc-arm-none-eabi-10-2020-q4-major/arm-none-eabi/include/c++/10.2.1/variant **** #include <bits/invoke.h>
  43:/usr/share/gcc-arm-none-eabi-10-2020-q4-major/arm-none-eabi/include/c++/10.2.1/variant **** #include <ext/aligned_buffer.h>
  44:/usr/share/gcc-arm-none-eabi-10-2020-q4-major/arm-none-eabi/include/c++/10.2.1/variant **** #include <bits/parse_numbers.h>
  45:/usr/share/gcc-arm-none-eabi-10-2020-q4-major/arm-none-eabi/include/c++/10.2.1/variant **** #include <bits/stl_iterator_base_types.h>
  46:/usr/share/gcc-arm-none-eabi-10-2020-q4-major/arm-none-eabi/include/c++/10.2.1/variant **** #include <bits/stl_iterator_base_funcs.h>
  47:/usr/share/gcc-arm-none-eabi-10-2020-q4-major/arm-none-eabi/include/c++/10.2.1/variant **** #include <bits/stl_construct.h>
  48:/usr/share/gcc-arm-none-eabi-10-2020-q4-major/arm-none-eabi/include/c++/10.2.1/variant **** #if __cplusplus > 201703L
  49:/usr/share/gcc-arm-none-eabi-10-2020-q4-major/arm-none-eabi/include/c++/10.2.1/variant **** # include <compare>
  50:/usr/share/gcc-arm-none-eabi-10-2020-q4-major/arm-none-eabi/include/c++/10.2.1/variant **** #endif
  51:/usr/share/gcc-arm-none-eabi-10-2020-q4-major/arm-none-eabi/include/c++/10.2.1/variant **** 
  52:/usr/share/gcc-arm-none-eabi-10-2020-q4-major/arm-none-eabi/include/c++/10.2.1/variant **** namespace std _GLIBCXX_VISIBILITY(default)
  53:/usr/share/gcc-arm-none-eabi-10-2020-q4-major/arm-none-eabi/include/c++/10.2.1/variant **** {
  54:/usr/share/gcc-arm-none-eabi-10-2020-q4-major/arm-none-eabi/include/c++/10.2.1/variant **** _GLIBCXX_BEGIN_NAMESPACE_VERSION
  55:/usr/share/gcc-arm-none-eabi-10-2020-q4-major/arm-none-eabi/include/c++/10.2.1/variant **** 
  56:/usr/share/gcc-arm-none-eabi-10-2020-q4-major/arm-none-eabi/include/c++/10.2.1/variant **** namespace __detail
  57:/usr/share/gcc-arm-none-eabi-10-2020-q4-major/arm-none-eabi/include/c++/10.2.1/variant **** {
  58:/usr/share/gcc-arm-none-eabi-10-2020-q4-major/arm-none-eabi/include/c++/10.2.1/variant **** namespace __variant
  59:/usr/share/gcc-arm-none-eabi-10-2020-q4-major/arm-none-eabi/include/c++/10.2.1/variant **** {
  60:/usr/share/gcc-arm-none-eabi-10-2020-q4-major/arm-none-eabi/include/c++/10.2.1/variant ****   template<size_t _Np, typename... _Types>
  61:/usr/share/gcc-arm-none-eabi-10-2020-q4-major/arm-none-eabi/include/c++/10.2.1/variant ****     struct _Nth_type;
  62:/usr/share/gcc-arm-none-eabi-10-2020-q4-major/arm-none-eabi/include/c++/10.2.1/variant **** 
  63:/usr/share/gcc-arm-none-eabi-10-2020-q4-major/arm-none-eabi/include/c++/10.2.1/variant ****   template<size_t _Np, typename _First, typename... _Rest>
  64:/usr/share/gcc-arm-none-eabi-10-2020-q4-major/arm-none-eabi/include/c++/10.2.1/variant ****     struct _Nth_type<_Np, _First, _Rest...>
  65:/usr/share/gcc-arm-none-eabi-10-2020-q4-major/arm-none-eabi/include/c++/10.2.1/variant ****     : _Nth_type<_Np-1, _Rest...> { };
  66:/usr/share/gcc-arm-none-eabi-10-2020-q4-major/arm-none-eabi/include/c++/10.2.1/variant **** 
  67:/usr/share/gcc-arm-none-eabi-10-2020-q4-major/arm-none-eabi/include/c++/10.2.1/variant ****   template<typename _First, typename... _Rest>
  68:/usr/share/gcc-arm-none-eabi-10-2020-q4-major/arm-none-eabi/include/c++/10.2.1/variant ****     struct _Nth_type<0, _First, _Rest...>
  69:/usr/share/gcc-arm-none-eabi-10-2020-q4-major/arm-none-eabi/include/c++/10.2.1/variant ****     { using type = _First; };
  70:/usr/share/gcc-arm-none-eabi-10-2020-q4-major/arm-none-eabi/include/c++/10.2.1/variant **** 
  71:/usr/share/gcc-arm-none-eabi-10-2020-q4-major/arm-none-eabi/include/c++/10.2.1/variant **** } // namespace __variant
  72:/usr/share/gcc-arm-none-eabi-10-2020-q4-major/arm-none-eabi/include/c++/10.2.1/variant **** } // namespace __detail
  73:/usr/share/gcc-arm-none-eabi-10-2020-q4-major/arm-none-eabi/include/c++/10.2.1/variant **** 
  74:/usr/share/gcc-arm-none-eabi-10-2020-q4-major/arm-none-eabi/include/c++/10.2.1/variant **** #define __cpp_lib_variant 201606L
  75:/usr/share/gcc-arm-none-eabi-10-2020-q4-major/arm-none-eabi/include/c++/10.2.1/variant **** 
  76:/usr/share/gcc-arm-none-eabi-10-2020-q4-major/arm-none-eabi/include/c++/10.2.1/variant ****   template<typename... _Types> class tuple;
  77:/usr/share/gcc-arm-none-eabi-10-2020-q4-major/arm-none-eabi/include/c++/10.2.1/variant ****   template<typename... _Types> class variant;
  78:/usr/share/gcc-arm-none-eabi-10-2020-q4-major/arm-none-eabi/include/c++/10.2.1/variant ****   template <typename> struct hash;
  79:/usr/share/gcc-arm-none-eabi-10-2020-q4-major/arm-none-eabi/include/c++/10.2.1/variant **** 
  80:/usr/share/gcc-arm-none-eabi-10-2020-q4-major/arm-none-eabi/include/c++/10.2.1/variant ****   template<typename _Variant>
  81:/usr/share/gcc-arm-none-eabi-10-2020-q4-major/arm-none-eabi/include/c++/10.2.1/variant ****     struct variant_size;
  82:/usr/share/gcc-arm-none-eabi-10-2020-q4-major/arm-none-eabi/include/c++/10.2.1/variant **** 
  83:/usr/share/gcc-arm-none-eabi-10-2020-q4-major/arm-none-eabi/include/c++/10.2.1/variant ****   template<typename _Variant>
  84:/usr/share/gcc-arm-none-eabi-10-2020-q4-major/arm-none-eabi/include/c++/10.2.1/variant ****     struct variant_size<const _Variant> : variant_size<_Variant> {};
  85:/usr/share/gcc-arm-none-eabi-10-2020-q4-major/arm-none-eabi/include/c++/10.2.1/variant **** 
  86:/usr/share/gcc-arm-none-eabi-10-2020-q4-major/arm-none-eabi/include/c++/10.2.1/variant ****   template<typename _Variant>
  87:/usr/share/gcc-arm-none-eabi-10-2020-q4-major/arm-none-eabi/include/c++/10.2.1/variant ****     struct variant_size<volatile _Variant> : variant_size<_Variant> {};
  88:/usr/share/gcc-arm-none-eabi-10-2020-q4-major/arm-none-eabi/include/c++/10.2.1/variant **** 
  89:/usr/share/gcc-arm-none-eabi-10-2020-q4-major/arm-none-eabi/include/c++/10.2.1/variant ****   template<typename _Variant>
  90:/usr/share/gcc-arm-none-eabi-10-2020-q4-major/arm-none-eabi/include/c++/10.2.1/variant ****     struct variant_size<const volatile _Variant> : variant_size<_Variant> {};
  91:/usr/share/gcc-arm-none-eabi-10-2020-q4-major/arm-none-eabi/include/c++/10.2.1/variant **** 
  92:/usr/share/gcc-arm-none-eabi-10-2020-q4-major/arm-none-eabi/include/c++/10.2.1/variant ****   template<typename... _Types>
  93:/usr/share/gcc-arm-none-eabi-10-2020-q4-major/arm-none-eabi/include/c++/10.2.1/variant ****     struct variant_size<variant<_Types...>>
  94:/usr/share/gcc-arm-none-eabi-10-2020-q4-major/arm-none-eabi/include/c++/10.2.1/variant ****     : std::integral_constant<size_t, sizeof...(_Types)> {};
  95:/usr/share/gcc-arm-none-eabi-10-2020-q4-major/arm-none-eabi/include/c++/10.2.1/variant **** 
ARM GAS  /tmp/ccqv0h9S.s 			page 7


  96:/usr/share/gcc-arm-none-eabi-10-2020-q4-major/arm-none-eabi/include/c++/10.2.1/variant ****   template<typename _Variant>
  97:/usr/share/gcc-arm-none-eabi-10-2020-q4-major/arm-none-eabi/include/c++/10.2.1/variant ****     inline constexpr size_t variant_size_v = variant_size<_Variant>::value;
  98:/usr/share/gcc-arm-none-eabi-10-2020-q4-major/arm-none-eabi/include/c++/10.2.1/variant **** 
  99:/usr/share/gcc-arm-none-eabi-10-2020-q4-major/arm-none-eabi/include/c++/10.2.1/variant ****   template<size_t _Np, typename _Variant>
 100:/usr/share/gcc-arm-none-eabi-10-2020-q4-major/arm-none-eabi/include/c++/10.2.1/variant ****     struct variant_alternative;
 101:/usr/share/gcc-arm-none-eabi-10-2020-q4-major/arm-none-eabi/include/c++/10.2.1/variant **** 
 102:/usr/share/gcc-arm-none-eabi-10-2020-q4-major/arm-none-eabi/include/c++/10.2.1/variant ****   template<size_t _Np, typename _First, typename... _Rest>
 103:/usr/share/gcc-arm-none-eabi-10-2020-q4-major/arm-none-eabi/include/c++/10.2.1/variant ****     struct variant_alternative<_Np, variant<_First, _Rest...>>
 104:/usr/share/gcc-arm-none-eabi-10-2020-q4-major/arm-none-eabi/include/c++/10.2.1/variant ****     : variant_alternative<_Np-1, variant<_Rest...>> {};
 105:/usr/share/gcc-arm-none-eabi-10-2020-q4-major/arm-none-eabi/include/c++/10.2.1/variant **** 
 106:/usr/share/gcc-arm-none-eabi-10-2020-q4-major/arm-none-eabi/include/c++/10.2.1/variant ****   template<typename _First, typename... _Rest>
 107:/usr/share/gcc-arm-none-eabi-10-2020-q4-major/arm-none-eabi/include/c++/10.2.1/variant ****     struct variant_alternative<0, variant<_First, _Rest...>>
 108:/usr/share/gcc-arm-none-eabi-10-2020-q4-major/arm-none-eabi/include/c++/10.2.1/variant ****     { using type = _First; };
 109:/usr/share/gcc-arm-none-eabi-10-2020-q4-major/arm-none-eabi/include/c++/10.2.1/variant **** 
 110:/usr/share/gcc-arm-none-eabi-10-2020-q4-major/arm-none-eabi/include/c++/10.2.1/variant ****   template<size_t _Np, typename _Variant>
 111:/usr/share/gcc-arm-none-eabi-10-2020-q4-major/arm-none-eabi/include/c++/10.2.1/variant ****     using variant_alternative_t =
 112:/usr/share/gcc-arm-none-eabi-10-2020-q4-major/arm-none-eabi/include/c++/10.2.1/variant ****       typename variant_alternative<_Np, _Variant>::type;
 113:/usr/share/gcc-arm-none-eabi-10-2020-q4-major/arm-none-eabi/include/c++/10.2.1/variant **** 
 114:/usr/share/gcc-arm-none-eabi-10-2020-q4-major/arm-none-eabi/include/c++/10.2.1/variant ****   template<size_t _Np, typename _Variant>
 115:/usr/share/gcc-arm-none-eabi-10-2020-q4-major/arm-none-eabi/include/c++/10.2.1/variant ****     struct variant_alternative<_Np, const _Variant>
 116:/usr/share/gcc-arm-none-eabi-10-2020-q4-major/arm-none-eabi/include/c++/10.2.1/variant ****     { using type = add_const_t<variant_alternative_t<_Np, _Variant>>; };
 117:/usr/share/gcc-arm-none-eabi-10-2020-q4-major/arm-none-eabi/include/c++/10.2.1/variant **** 
 118:/usr/share/gcc-arm-none-eabi-10-2020-q4-major/arm-none-eabi/include/c++/10.2.1/variant ****   template<size_t _Np, typename _Variant>
 119:/usr/share/gcc-arm-none-eabi-10-2020-q4-major/arm-none-eabi/include/c++/10.2.1/variant ****     struct variant_alternative<_Np, volatile _Variant>
 120:/usr/share/gcc-arm-none-eabi-10-2020-q4-major/arm-none-eabi/include/c++/10.2.1/variant ****     { using type = add_volatile_t<variant_alternative_t<_Np, _Variant>>; };
 121:/usr/share/gcc-arm-none-eabi-10-2020-q4-major/arm-none-eabi/include/c++/10.2.1/variant **** 
 122:/usr/share/gcc-arm-none-eabi-10-2020-q4-major/arm-none-eabi/include/c++/10.2.1/variant ****   template<size_t _Np, typename _Variant>
 123:/usr/share/gcc-arm-none-eabi-10-2020-q4-major/arm-none-eabi/include/c++/10.2.1/variant ****     struct variant_alternative<_Np, const volatile _Variant>
 124:/usr/share/gcc-arm-none-eabi-10-2020-q4-major/arm-none-eabi/include/c++/10.2.1/variant ****     { using type = add_cv_t<variant_alternative_t<_Np, _Variant>>; };
 125:/usr/share/gcc-arm-none-eabi-10-2020-q4-major/arm-none-eabi/include/c++/10.2.1/variant **** 
 126:/usr/share/gcc-arm-none-eabi-10-2020-q4-major/arm-none-eabi/include/c++/10.2.1/variant ****   inline constexpr size_t variant_npos = -1;
 127:/usr/share/gcc-arm-none-eabi-10-2020-q4-major/arm-none-eabi/include/c++/10.2.1/variant **** 
 128:/usr/share/gcc-arm-none-eabi-10-2020-q4-major/arm-none-eabi/include/c++/10.2.1/variant ****   template<size_t _Np, typename... _Types>
 129:/usr/share/gcc-arm-none-eabi-10-2020-q4-major/arm-none-eabi/include/c++/10.2.1/variant ****     constexpr variant_alternative_t<_Np, variant<_Types...>>&
 130:/usr/share/gcc-arm-none-eabi-10-2020-q4-major/arm-none-eabi/include/c++/10.2.1/variant ****     get(variant<_Types...>&);
 131:/usr/share/gcc-arm-none-eabi-10-2020-q4-major/arm-none-eabi/include/c++/10.2.1/variant **** 
 132:/usr/share/gcc-arm-none-eabi-10-2020-q4-major/arm-none-eabi/include/c++/10.2.1/variant ****   template<size_t _Np, typename... _Types>
 133:/usr/share/gcc-arm-none-eabi-10-2020-q4-major/arm-none-eabi/include/c++/10.2.1/variant ****     constexpr variant_alternative_t<_Np, variant<_Types...>>&&
 134:/usr/share/gcc-arm-none-eabi-10-2020-q4-major/arm-none-eabi/include/c++/10.2.1/variant ****     get(variant<_Types...>&&);
 135:/usr/share/gcc-arm-none-eabi-10-2020-q4-major/arm-none-eabi/include/c++/10.2.1/variant **** 
 136:/usr/share/gcc-arm-none-eabi-10-2020-q4-major/arm-none-eabi/include/c++/10.2.1/variant ****   template<size_t _Np, typename... _Types>
 137:/usr/share/gcc-arm-none-eabi-10-2020-q4-major/arm-none-eabi/include/c++/10.2.1/variant ****     constexpr variant_alternative_t<_Np, variant<_Types...>> const&
 138:/usr/share/gcc-arm-none-eabi-10-2020-q4-major/arm-none-eabi/include/c++/10.2.1/variant ****     get(const variant<_Types...>&);
 139:/usr/share/gcc-arm-none-eabi-10-2020-q4-major/arm-none-eabi/include/c++/10.2.1/variant **** 
 140:/usr/share/gcc-arm-none-eabi-10-2020-q4-major/arm-none-eabi/include/c++/10.2.1/variant ****   template<size_t _Np, typename... _Types>
 141:/usr/share/gcc-arm-none-eabi-10-2020-q4-major/arm-none-eabi/include/c++/10.2.1/variant ****     constexpr variant_alternative_t<_Np, variant<_Types...>> const&&
 142:/usr/share/gcc-arm-none-eabi-10-2020-q4-major/arm-none-eabi/include/c++/10.2.1/variant ****     get(const variant<_Types...>&&);
 143:/usr/share/gcc-arm-none-eabi-10-2020-q4-major/arm-none-eabi/include/c++/10.2.1/variant **** 
 144:/usr/share/gcc-arm-none-eabi-10-2020-q4-major/arm-none-eabi/include/c++/10.2.1/variant ****   template<typename _Result_type, typename _Visitor, typename... _Variants>
 145:/usr/share/gcc-arm-none-eabi-10-2020-q4-major/arm-none-eabi/include/c++/10.2.1/variant ****     constexpr decltype(auto)
 146:/usr/share/gcc-arm-none-eabi-10-2020-q4-major/arm-none-eabi/include/c++/10.2.1/variant ****     __do_visit(_Visitor&& __visitor, _Variants&&... __variants);
 147:/usr/share/gcc-arm-none-eabi-10-2020-q4-major/arm-none-eabi/include/c++/10.2.1/variant **** 
 148:/usr/share/gcc-arm-none-eabi-10-2020-q4-major/arm-none-eabi/include/c++/10.2.1/variant ****   template <typename... _Types, typename _Tp>
 149:/usr/share/gcc-arm-none-eabi-10-2020-q4-major/arm-none-eabi/include/c++/10.2.1/variant ****     decltype(auto)
 150:/usr/share/gcc-arm-none-eabi-10-2020-q4-major/arm-none-eabi/include/c++/10.2.1/variant ****     __variant_cast(_Tp&& __rhs)
 151:/usr/share/gcc-arm-none-eabi-10-2020-q4-major/arm-none-eabi/include/c++/10.2.1/variant ****     {
 152:/usr/share/gcc-arm-none-eabi-10-2020-q4-major/arm-none-eabi/include/c++/10.2.1/variant ****       if constexpr (is_lvalue_reference_v<_Tp>)
ARM GAS  /tmp/ccqv0h9S.s 			page 8


 153:/usr/share/gcc-arm-none-eabi-10-2020-q4-major/arm-none-eabi/include/c++/10.2.1/variant **** 	{
 154:/usr/share/gcc-arm-none-eabi-10-2020-q4-major/arm-none-eabi/include/c++/10.2.1/variant **** 	  if constexpr (is_const_v<remove_reference_t<_Tp>>)
 155:/usr/share/gcc-arm-none-eabi-10-2020-q4-major/arm-none-eabi/include/c++/10.2.1/variant **** 	    return static_cast<const variant<_Types...>&>(__rhs);
 156:/usr/share/gcc-arm-none-eabi-10-2020-q4-major/arm-none-eabi/include/c++/10.2.1/variant **** 	  else
 157:/usr/share/gcc-arm-none-eabi-10-2020-q4-major/arm-none-eabi/include/c++/10.2.1/variant **** 	    return static_cast<variant<_Types...>&>(__rhs);
 158:/usr/share/gcc-arm-none-eabi-10-2020-q4-major/arm-none-eabi/include/c++/10.2.1/variant **** 	}
 159:/usr/share/gcc-arm-none-eabi-10-2020-q4-major/arm-none-eabi/include/c++/10.2.1/variant ****       else
 160:/usr/share/gcc-arm-none-eabi-10-2020-q4-major/arm-none-eabi/include/c++/10.2.1/variant ****         return static_cast<variant<_Types...>&&>(__rhs);
 161:/usr/share/gcc-arm-none-eabi-10-2020-q4-major/arm-none-eabi/include/c++/10.2.1/variant ****     }
 162:/usr/share/gcc-arm-none-eabi-10-2020-q4-major/arm-none-eabi/include/c++/10.2.1/variant **** 
 163:/usr/share/gcc-arm-none-eabi-10-2020-q4-major/arm-none-eabi/include/c++/10.2.1/variant **** namespace __detail
 164:/usr/share/gcc-arm-none-eabi-10-2020-q4-major/arm-none-eabi/include/c++/10.2.1/variant **** {
 165:/usr/share/gcc-arm-none-eabi-10-2020-q4-major/arm-none-eabi/include/c++/10.2.1/variant **** namespace __variant
 166:/usr/share/gcc-arm-none-eabi-10-2020-q4-major/arm-none-eabi/include/c++/10.2.1/variant **** {
 167:/usr/share/gcc-arm-none-eabi-10-2020-q4-major/arm-none-eabi/include/c++/10.2.1/variant ****   // Returns the first appearence of _Tp in _Types.
 168:/usr/share/gcc-arm-none-eabi-10-2020-q4-major/arm-none-eabi/include/c++/10.2.1/variant ****   // Returns sizeof...(_Types) if _Tp is not in _Types.
 169:/usr/share/gcc-arm-none-eabi-10-2020-q4-major/arm-none-eabi/include/c++/10.2.1/variant ****   template<typename _Tp, typename... _Types>
 170:/usr/share/gcc-arm-none-eabi-10-2020-q4-major/arm-none-eabi/include/c++/10.2.1/variant ****     struct __index_of : std::integral_constant<size_t, 0> {};
 171:/usr/share/gcc-arm-none-eabi-10-2020-q4-major/arm-none-eabi/include/c++/10.2.1/variant **** 
 172:/usr/share/gcc-arm-none-eabi-10-2020-q4-major/arm-none-eabi/include/c++/10.2.1/variant ****   template<typename _Tp, typename... _Types>
 173:/usr/share/gcc-arm-none-eabi-10-2020-q4-major/arm-none-eabi/include/c++/10.2.1/variant ****     inline constexpr size_t __index_of_v = __index_of<_Tp, _Types...>::value;
 174:/usr/share/gcc-arm-none-eabi-10-2020-q4-major/arm-none-eabi/include/c++/10.2.1/variant **** 
 175:/usr/share/gcc-arm-none-eabi-10-2020-q4-major/arm-none-eabi/include/c++/10.2.1/variant ****   template<typename _Tp, typename _First, typename... _Rest>
 176:/usr/share/gcc-arm-none-eabi-10-2020-q4-major/arm-none-eabi/include/c++/10.2.1/variant ****     struct __index_of<_Tp, _First, _Rest...> :
 177:/usr/share/gcc-arm-none-eabi-10-2020-q4-major/arm-none-eabi/include/c++/10.2.1/variant ****       std::integral_constant<size_t, is_same_v<_Tp, _First>
 178:/usr/share/gcc-arm-none-eabi-10-2020-q4-major/arm-none-eabi/include/c++/10.2.1/variant **** 	? 0 : __index_of_v<_Tp, _Rest...> + 1> {};
 179:/usr/share/gcc-arm-none-eabi-10-2020-q4-major/arm-none-eabi/include/c++/10.2.1/variant **** 
 180:/usr/share/gcc-arm-none-eabi-10-2020-q4-major/arm-none-eabi/include/c++/10.2.1/variant ****   // used for raw visitation
 181:/usr/share/gcc-arm-none-eabi-10-2020-q4-major/arm-none-eabi/include/c++/10.2.1/variant ****   struct __variant_cookie {};
 182:/usr/share/gcc-arm-none-eabi-10-2020-q4-major/arm-none-eabi/include/c++/10.2.1/variant ****   // used for raw visitation with indices passed in
 183:/usr/share/gcc-arm-none-eabi-10-2020-q4-major/arm-none-eabi/include/c++/10.2.1/variant ****   struct __variant_idx_cookie { using type = __variant_idx_cookie; };
 184:/usr/share/gcc-arm-none-eabi-10-2020-q4-major/arm-none-eabi/include/c++/10.2.1/variant ****   // Used to enable deduction (and same-type checking) for std::visit:
 185:/usr/share/gcc-arm-none-eabi-10-2020-q4-major/arm-none-eabi/include/c++/10.2.1/variant ****   template<typename> struct __deduce_visit_result { };
 186:/usr/share/gcc-arm-none-eabi-10-2020-q4-major/arm-none-eabi/include/c++/10.2.1/variant **** 
 187:/usr/share/gcc-arm-none-eabi-10-2020-q4-major/arm-none-eabi/include/c++/10.2.1/variant ****   // Visit variants that might be valueless.
 188:/usr/share/gcc-arm-none-eabi-10-2020-q4-major/arm-none-eabi/include/c++/10.2.1/variant ****   template<typename _Visitor, typename... _Variants>
 189:/usr/share/gcc-arm-none-eabi-10-2020-q4-major/arm-none-eabi/include/c++/10.2.1/variant ****     constexpr void
 190:/usr/share/gcc-arm-none-eabi-10-2020-q4-major/arm-none-eabi/include/c++/10.2.1/variant ****     __raw_visit(_Visitor&& __visitor, _Variants&&... __variants)
 191:/usr/share/gcc-arm-none-eabi-10-2020-q4-major/arm-none-eabi/include/c++/10.2.1/variant ****     {
 192:/usr/share/gcc-arm-none-eabi-10-2020-q4-major/arm-none-eabi/include/c++/10.2.1/variant ****       std::__do_visit<__variant_cookie>(std::forward<_Visitor>(__visitor),
 193:/usr/share/gcc-arm-none-eabi-10-2020-q4-major/arm-none-eabi/include/c++/10.2.1/variant **** 				        std::forward<_Variants>(__variants)...);
 194:/usr/share/gcc-arm-none-eabi-10-2020-q4-major/arm-none-eabi/include/c++/10.2.1/variant ****     }
 195:/usr/share/gcc-arm-none-eabi-10-2020-q4-major/arm-none-eabi/include/c++/10.2.1/variant **** 
 196:/usr/share/gcc-arm-none-eabi-10-2020-q4-major/arm-none-eabi/include/c++/10.2.1/variant ****   // Visit variants that might be valueless, passing indices to the visitor.
 197:/usr/share/gcc-arm-none-eabi-10-2020-q4-major/arm-none-eabi/include/c++/10.2.1/variant ****   template<typename _Visitor, typename... _Variants>
 198:/usr/share/gcc-arm-none-eabi-10-2020-q4-major/arm-none-eabi/include/c++/10.2.1/variant ****     constexpr void
 199:/usr/share/gcc-arm-none-eabi-10-2020-q4-major/arm-none-eabi/include/c++/10.2.1/variant ****     __raw_idx_visit(_Visitor&& __visitor, _Variants&&... __variants)
 200:/usr/share/gcc-arm-none-eabi-10-2020-q4-major/arm-none-eabi/include/c++/10.2.1/variant ****     {
 201:/usr/share/gcc-arm-none-eabi-10-2020-q4-major/arm-none-eabi/include/c++/10.2.1/variant ****       std::__do_visit<__variant_idx_cookie>(std::forward<_Visitor>(__visitor),
 202:/usr/share/gcc-arm-none-eabi-10-2020-q4-major/arm-none-eabi/include/c++/10.2.1/variant **** 	  std::forward<_Variants>(__variants)...);
 203:/usr/share/gcc-arm-none-eabi-10-2020-q4-major/arm-none-eabi/include/c++/10.2.1/variant ****     }
 204:/usr/share/gcc-arm-none-eabi-10-2020-q4-major/arm-none-eabi/include/c++/10.2.1/variant **** 
 205:/usr/share/gcc-arm-none-eabi-10-2020-q4-major/arm-none-eabi/include/c++/10.2.1/variant ****   // _Uninitialized<T> is guaranteed to be a trivially destructible type,
 206:/usr/share/gcc-arm-none-eabi-10-2020-q4-major/arm-none-eabi/include/c++/10.2.1/variant ****   // even if T is not.
 207:/usr/share/gcc-arm-none-eabi-10-2020-q4-major/arm-none-eabi/include/c++/10.2.1/variant ****   template<typename _Type, bool = std::is_trivially_destructible_v<_Type>>
 208:/usr/share/gcc-arm-none-eabi-10-2020-q4-major/arm-none-eabi/include/c++/10.2.1/variant ****     struct _Uninitialized;
 209:/usr/share/gcc-arm-none-eabi-10-2020-q4-major/arm-none-eabi/include/c++/10.2.1/variant **** 
ARM GAS  /tmp/ccqv0h9S.s 			page 9


 210:/usr/share/gcc-arm-none-eabi-10-2020-q4-major/arm-none-eabi/include/c++/10.2.1/variant ****   template<typename _Type>
 211:/usr/share/gcc-arm-none-eabi-10-2020-q4-major/arm-none-eabi/include/c++/10.2.1/variant ****     struct _Uninitialized<_Type, true>
 212:/usr/share/gcc-arm-none-eabi-10-2020-q4-major/arm-none-eabi/include/c++/10.2.1/variant ****     {
 213:/usr/share/gcc-arm-none-eabi-10-2020-q4-major/arm-none-eabi/include/c++/10.2.1/variant ****       template<typename... _Args>
 214:/usr/share/gcc-arm-none-eabi-10-2020-q4-major/arm-none-eabi/include/c++/10.2.1/variant **** 	constexpr
 215:/usr/share/gcc-arm-none-eabi-10-2020-q4-major/arm-none-eabi/include/c++/10.2.1/variant **** 	_Uninitialized(in_place_index_t<0>, _Args&&... __args)
 216:/usr/share/gcc-arm-none-eabi-10-2020-q4-major/arm-none-eabi/include/c++/10.2.1/variant **** 	: _M_storage(std::forward<_Args>(__args)...)
 217:/usr/share/gcc-arm-none-eabi-10-2020-q4-major/arm-none-eabi/include/c++/10.2.1/variant **** 	{ }
 218:/usr/share/gcc-arm-none-eabi-10-2020-q4-major/arm-none-eabi/include/c++/10.2.1/variant **** 
 219:/usr/share/gcc-arm-none-eabi-10-2020-q4-major/arm-none-eabi/include/c++/10.2.1/variant ****       constexpr const _Type& _M_get() const & noexcept
 220:/usr/share/gcc-arm-none-eabi-10-2020-q4-major/arm-none-eabi/include/c++/10.2.1/variant ****       { return _M_storage; }
 221:/usr/share/gcc-arm-none-eabi-10-2020-q4-major/arm-none-eabi/include/c++/10.2.1/variant **** 
 222:/usr/share/gcc-arm-none-eabi-10-2020-q4-major/arm-none-eabi/include/c++/10.2.1/variant ****       constexpr _Type& _M_get() & noexcept
 223:/usr/share/gcc-arm-none-eabi-10-2020-q4-major/arm-none-eabi/include/c++/10.2.1/variant ****       { return _M_storage; }
 224:/usr/share/gcc-arm-none-eabi-10-2020-q4-major/arm-none-eabi/include/c++/10.2.1/variant **** 
 225:/usr/share/gcc-arm-none-eabi-10-2020-q4-major/arm-none-eabi/include/c++/10.2.1/variant ****       constexpr const _Type&& _M_get() const && noexcept
 226:/usr/share/gcc-arm-none-eabi-10-2020-q4-major/arm-none-eabi/include/c++/10.2.1/variant ****       { return std::move(_M_storage); }
 227:/usr/share/gcc-arm-none-eabi-10-2020-q4-major/arm-none-eabi/include/c++/10.2.1/variant **** 
 228:/usr/share/gcc-arm-none-eabi-10-2020-q4-major/arm-none-eabi/include/c++/10.2.1/variant ****       constexpr _Type&& _M_get() && noexcept
 229:/usr/share/gcc-arm-none-eabi-10-2020-q4-major/arm-none-eabi/include/c++/10.2.1/variant ****       { return std::move(_M_storage); }
 230:/usr/share/gcc-arm-none-eabi-10-2020-q4-major/arm-none-eabi/include/c++/10.2.1/variant **** 
 231:/usr/share/gcc-arm-none-eabi-10-2020-q4-major/arm-none-eabi/include/c++/10.2.1/variant ****       _Type _M_storage;
 232:/usr/share/gcc-arm-none-eabi-10-2020-q4-major/arm-none-eabi/include/c++/10.2.1/variant ****     };
 233:/usr/share/gcc-arm-none-eabi-10-2020-q4-major/arm-none-eabi/include/c++/10.2.1/variant **** 
 234:/usr/share/gcc-arm-none-eabi-10-2020-q4-major/arm-none-eabi/include/c++/10.2.1/variant ****   template<typename _Type>
 235:/usr/share/gcc-arm-none-eabi-10-2020-q4-major/arm-none-eabi/include/c++/10.2.1/variant ****     struct _Uninitialized<_Type, false>
 236:/usr/share/gcc-arm-none-eabi-10-2020-q4-major/arm-none-eabi/include/c++/10.2.1/variant ****     {
 237:/usr/share/gcc-arm-none-eabi-10-2020-q4-major/arm-none-eabi/include/c++/10.2.1/variant ****       template<typename... _Args>
 238:/usr/share/gcc-arm-none-eabi-10-2020-q4-major/arm-none-eabi/include/c++/10.2.1/variant **** 	constexpr
 239:/usr/share/gcc-arm-none-eabi-10-2020-q4-major/arm-none-eabi/include/c++/10.2.1/variant **** 	_Uninitialized(in_place_index_t<0>, _Args&&... __args)
 240:/usr/share/gcc-arm-none-eabi-10-2020-q4-major/arm-none-eabi/include/c++/10.2.1/variant **** 	{
 241:/usr/share/gcc-arm-none-eabi-10-2020-q4-major/arm-none-eabi/include/c++/10.2.1/variant **** 	  ::new ((void*)std::addressof(_M_storage))
 242:/usr/share/gcc-arm-none-eabi-10-2020-q4-major/arm-none-eabi/include/c++/10.2.1/variant **** 	    _Type(std::forward<_Args>(__args)...);
 243:/usr/share/gcc-arm-none-eabi-10-2020-q4-major/arm-none-eabi/include/c++/10.2.1/variant **** 	}
 244:/usr/share/gcc-arm-none-eabi-10-2020-q4-major/arm-none-eabi/include/c++/10.2.1/variant **** 
 245:/usr/share/gcc-arm-none-eabi-10-2020-q4-major/arm-none-eabi/include/c++/10.2.1/variant ****       const _Type& _M_get() const & noexcept
 246:/usr/share/gcc-arm-none-eabi-10-2020-q4-major/arm-none-eabi/include/c++/10.2.1/variant ****       { return *_M_storage._M_ptr(); }
 247:/usr/share/gcc-arm-none-eabi-10-2020-q4-major/arm-none-eabi/include/c++/10.2.1/variant **** 
 248:/usr/share/gcc-arm-none-eabi-10-2020-q4-major/arm-none-eabi/include/c++/10.2.1/variant ****       _Type& _M_get() & noexcept
 249:/usr/share/gcc-arm-none-eabi-10-2020-q4-major/arm-none-eabi/include/c++/10.2.1/variant ****       { return *_M_storage._M_ptr(); }
 250:/usr/share/gcc-arm-none-eabi-10-2020-q4-major/arm-none-eabi/include/c++/10.2.1/variant **** 
 251:/usr/share/gcc-arm-none-eabi-10-2020-q4-major/arm-none-eabi/include/c++/10.2.1/variant ****       const _Type&& _M_get() const && noexcept
 252:/usr/share/gcc-arm-none-eabi-10-2020-q4-major/arm-none-eabi/include/c++/10.2.1/variant ****       { return std::move(*_M_storage._M_ptr()); }
 253:/usr/share/gcc-arm-none-eabi-10-2020-q4-major/arm-none-eabi/include/c++/10.2.1/variant **** 
 254:/usr/share/gcc-arm-none-eabi-10-2020-q4-major/arm-none-eabi/include/c++/10.2.1/variant ****       _Type&& _M_get() && noexcept
 255:/usr/share/gcc-arm-none-eabi-10-2020-q4-major/arm-none-eabi/include/c++/10.2.1/variant ****       { return std::move(*_M_storage._M_ptr()); }
 256:/usr/share/gcc-arm-none-eabi-10-2020-q4-major/arm-none-eabi/include/c++/10.2.1/variant **** 
 257:/usr/share/gcc-arm-none-eabi-10-2020-q4-major/arm-none-eabi/include/c++/10.2.1/variant ****       __gnu_cxx::__aligned_membuf<_Type> _M_storage;
 258:/usr/share/gcc-arm-none-eabi-10-2020-q4-major/arm-none-eabi/include/c++/10.2.1/variant ****     };
 259:/usr/share/gcc-arm-none-eabi-10-2020-q4-major/arm-none-eabi/include/c++/10.2.1/variant **** 
 260:/usr/share/gcc-arm-none-eabi-10-2020-q4-major/arm-none-eabi/include/c++/10.2.1/variant ****   template<typename _Union>
 261:/usr/share/gcc-arm-none-eabi-10-2020-q4-major/arm-none-eabi/include/c++/10.2.1/variant ****     constexpr decltype(auto)
 262:/usr/share/gcc-arm-none-eabi-10-2020-q4-major/arm-none-eabi/include/c++/10.2.1/variant ****     __get(in_place_index_t<0>, _Union&& __u) noexcept
 263:/usr/share/gcc-arm-none-eabi-10-2020-q4-major/arm-none-eabi/include/c++/10.2.1/variant ****     { return std::forward<_Union>(__u)._M_first._M_get(); }
 264:/usr/share/gcc-arm-none-eabi-10-2020-q4-major/arm-none-eabi/include/c++/10.2.1/variant **** 
 265:/usr/share/gcc-arm-none-eabi-10-2020-q4-major/arm-none-eabi/include/c++/10.2.1/variant ****   template<size_t _Np, typename _Union>
 266:/usr/share/gcc-arm-none-eabi-10-2020-q4-major/arm-none-eabi/include/c++/10.2.1/variant ****     constexpr decltype(auto)
ARM GAS  /tmp/ccqv0h9S.s 			page 10


 267:/usr/share/gcc-arm-none-eabi-10-2020-q4-major/arm-none-eabi/include/c++/10.2.1/variant ****     __get(in_place_index_t<_Np>, _Union&& __u) noexcept
 268:/usr/share/gcc-arm-none-eabi-10-2020-q4-major/arm-none-eabi/include/c++/10.2.1/variant ****     {
 269:/usr/share/gcc-arm-none-eabi-10-2020-q4-major/arm-none-eabi/include/c++/10.2.1/variant ****       return __variant::__get(in_place_index<_Np-1>,
 270:/usr/share/gcc-arm-none-eabi-10-2020-q4-major/arm-none-eabi/include/c++/10.2.1/variant **** 			      std::forward<_Union>(__u)._M_rest);
 271:/usr/share/gcc-arm-none-eabi-10-2020-q4-major/arm-none-eabi/include/c++/10.2.1/variant ****     }
 272:/usr/share/gcc-arm-none-eabi-10-2020-q4-major/arm-none-eabi/include/c++/10.2.1/variant **** 
 273:/usr/share/gcc-arm-none-eabi-10-2020-q4-major/arm-none-eabi/include/c++/10.2.1/variant ****   // Returns the typed storage for __v.
 274:/usr/share/gcc-arm-none-eabi-10-2020-q4-major/arm-none-eabi/include/c++/10.2.1/variant ****   template<size_t _Np, typename _Variant>
 275:/usr/share/gcc-arm-none-eabi-10-2020-q4-major/arm-none-eabi/include/c++/10.2.1/variant ****     constexpr decltype(auto)
 276:/usr/share/gcc-arm-none-eabi-10-2020-q4-major/arm-none-eabi/include/c++/10.2.1/variant ****     __get(_Variant&& __v) noexcept
 277:/usr/share/gcc-arm-none-eabi-10-2020-q4-major/arm-none-eabi/include/c++/10.2.1/variant ****     {
 278:/usr/share/gcc-arm-none-eabi-10-2020-q4-major/arm-none-eabi/include/c++/10.2.1/variant ****       return __variant::__get(std::in_place_index<_Np>,
 279:/usr/share/gcc-arm-none-eabi-10-2020-q4-major/arm-none-eabi/include/c++/10.2.1/variant **** 			      std::forward<_Variant>(__v)._M_u);
 280:/usr/share/gcc-arm-none-eabi-10-2020-q4-major/arm-none-eabi/include/c++/10.2.1/variant ****     }
 281:/usr/share/gcc-arm-none-eabi-10-2020-q4-major/arm-none-eabi/include/c++/10.2.1/variant **** 
 282:/usr/share/gcc-arm-none-eabi-10-2020-q4-major/arm-none-eabi/include/c++/10.2.1/variant ****   template<typename... _Types>
 283:/usr/share/gcc-arm-none-eabi-10-2020-q4-major/arm-none-eabi/include/c++/10.2.1/variant ****     struct _Traits
 284:/usr/share/gcc-arm-none-eabi-10-2020-q4-major/arm-none-eabi/include/c++/10.2.1/variant ****     {
 285:/usr/share/gcc-arm-none-eabi-10-2020-q4-major/arm-none-eabi/include/c++/10.2.1/variant ****       static constexpr bool _S_default_ctor =
 286:/usr/share/gcc-arm-none-eabi-10-2020-q4-major/arm-none-eabi/include/c++/10.2.1/variant **** 	  is_default_constructible_v<typename _Nth_type<0, _Types...>::type>;
 287:/usr/share/gcc-arm-none-eabi-10-2020-q4-major/arm-none-eabi/include/c++/10.2.1/variant ****       static constexpr bool _S_copy_ctor =
 288:/usr/share/gcc-arm-none-eabi-10-2020-q4-major/arm-none-eabi/include/c++/10.2.1/variant **** 	  (is_copy_constructible_v<_Types> && ...);
 289:/usr/share/gcc-arm-none-eabi-10-2020-q4-major/arm-none-eabi/include/c++/10.2.1/variant ****       static constexpr bool _S_move_ctor =
 290:/usr/share/gcc-arm-none-eabi-10-2020-q4-major/arm-none-eabi/include/c++/10.2.1/variant **** 	  (is_move_constructible_v<_Types> && ...);
 291:/usr/share/gcc-arm-none-eabi-10-2020-q4-major/arm-none-eabi/include/c++/10.2.1/variant ****       static constexpr bool _S_copy_assign =
 292:/usr/share/gcc-arm-none-eabi-10-2020-q4-major/arm-none-eabi/include/c++/10.2.1/variant **** 	  _S_copy_ctor
 293:/usr/share/gcc-arm-none-eabi-10-2020-q4-major/arm-none-eabi/include/c++/10.2.1/variant **** 	  && (is_copy_assignable_v<_Types> && ...);
 294:/usr/share/gcc-arm-none-eabi-10-2020-q4-major/arm-none-eabi/include/c++/10.2.1/variant ****       static constexpr bool _S_move_assign =
 295:/usr/share/gcc-arm-none-eabi-10-2020-q4-major/arm-none-eabi/include/c++/10.2.1/variant **** 	  _S_move_ctor
 296:/usr/share/gcc-arm-none-eabi-10-2020-q4-major/arm-none-eabi/include/c++/10.2.1/variant **** 	  && (is_move_assignable_v<_Types> && ...);
 297:/usr/share/gcc-arm-none-eabi-10-2020-q4-major/arm-none-eabi/include/c++/10.2.1/variant **** 
 298:/usr/share/gcc-arm-none-eabi-10-2020-q4-major/arm-none-eabi/include/c++/10.2.1/variant ****       static constexpr bool _S_trivial_dtor =
 299:/usr/share/gcc-arm-none-eabi-10-2020-q4-major/arm-none-eabi/include/c++/10.2.1/variant **** 	  (is_trivially_destructible_v<_Types> && ...);
 300:/usr/share/gcc-arm-none-eabi-10-2020-q4-major/arm-none-eabi/include/c++/10.2.1/variant ****       static constexpr bool _S_trivial_copy_ctor =
 301:/usr/share/gcc-arm-none-eabi-10-2020-q4-major/arm-none-eabi/include/c++/10.2.1/variant **** 	  (is_trivially_copy_constructible_v<_Types> && ...);
 302:/usr/share/gcc-arm-none-eabi-10-2020-q4-major/arm-none-eabi/include/c++/10.2.1/variant ****       static constexpr bool _S_trivial_move_ctor =
 303:/usr/share/gcc-arm-none-eabi-10-2020-q4-major/arm-none-eabi/include/c++/10.2.1/variant **** 	  (is_trivially_move_constructible_v<_Types> && ...);
 304:/usr/share/gcc-arm-none-eabi-10-2020-q4-major/arm-none-eabi/include/c++/10.2.1/variant ****       static constexpr bool _S_trivial_copy_assign =
 305:/usr/share/gcc-arm-none-eabi-10-2020-q4-major/arm-none-eabi/include/c++/10.2.1/variant **** 	  _S_trivial_dtor && _S_trivial_copy_ctor
 306:/usr/share/gcc-arm-none-eabi-10-2020-q4-major/arm-none-eabi/include/c++/10.2.1/variant **** 	  && (is_trivially_copy_assignable_v<_Types> && ...);
 307:/usr/share/gcc-arm-none-eabi-10-2020-q4-major/arm-none-eabi/include/c++/10.2.1/variant ****       static constexpr bool _S_trivial_move_assign =
 308:/usr/share/gcc-arm-none-eabi-10-2020-q4-major/arm-none-eabi/include/c++/10.2.1/variant **** 	  _S_trivial_dtor && _S_trivial_move_ctor
 309:/usr/share/gcc-arm-none-eabi-10-2020-q4-major/arm-none-eabi/include/c++/10.2.1/variant **** 	  && (is_trivially_move_assignable_v<_Types> && ...);
 310:/usr/share/gcc-arm-none-eabi-10-2020-q4-major/arm-none-eabi/include/c++/10.2.1/variant **** 
 311:/usr/share/gcc-arm-none-eabi-10-2020-q4-major/arm-none-eabi/include/c++/10.2.1/variant ****       // The following nothrow traits are for non-trivial SMFs. Trivial SMFs
 312:/usr/share/gcc-arm-none-eabi-10-2020-q4-major/arm-none-eabi/include/c++/10.2.1/variant ****       // are always nothrow.
 313:/usr/share/gcc-arm-none-eabi-10-2020-q4-major/arm-none-eabi/include/c++/10.2.1/variant ****       static constexpr bool _S_nothrow_default_ctor =
 314:/usr/share/gcc-arm-none-eabi-10-2020-q4-major/arm-none-eabi/include/c++/10.2.1/variant **** 	  is_nothrow_default_constructible_v<
 315:/usr/share/gcc-arm-none-eabi-10-2020-q4-major/arm-none-eabi/include/c++/10.2.1/variant **** 	      typename _Nth_type<0, _Types...>::type>;
 316:/usr/share/gcc-arm-none-eabi-10-2020-q4-major/arm-none-eabi/include/c++/10.2.1/variant ****       static constexpr bool _S_nothrow_copy_ctor = false;
 317:/usr/share/gcc-arm-none-eabi-10-2020-q4-major/arm-none-eabi/include/c++/10.2.1/variant ****       static constexpr bool _S_nothrow_move_ctor =
 318:/usr/share/gcc-arm-none-eabi-10-2020-q4-major/arm-none-eabi/include/c++/10.2.1/variant **** 	  (is_nothrow_move_constructible_v<_Types> && ...);
 319:/usr/share/gcc-arm-none-eabi-10-2020-q4-major/arm-none-eabi/include/c++/10.2.1/variant ****       static constexpr bool _S_nothrow_copy_assign = false;
 320:/usr/share/gcc-arm-none-eabi-10-2020-q4-major/arm-none-eabi/include/c++/10.2.1/variant ****       static constexpr bool _S_nothrow_move_assign =
 321:/usr/share/gcc-arm-none-eabi-10-2020-q4-major/arm-none-eabi/include/c++/10.2.1/variant **** 	  _S_nothrow_move_ctor
 322:/usr/share/gcc-arm-none-eabi-10-2020-q4-major/arm-none-eabi/include/c++/10.2.1/variant **** 	  && (is_nothrow_move_assignable_v<_Types> && ...);
 323:/usr/share/gcc-arm-none-eabi-10-2020-q4-major/arm-none-eabi/include/c++/10.2.1/variant ****     };
ARM GAS  /tmp/ccqv0h9S.s 			page 11


 324:/usr/share/gcc-arm-none-eabi-10-2020-q4-major/arm-none-eabi/include/c++/10.2.1/variant **** 
 325:/usr/share/gcc-arm-none-eabi-10-2020-q4-major/arm-none-eabi/include/c++/10.2.1/variant ****   // Defines members and ctors.
 326:/usr/share/gcc-arm-none-eabi-10-2020-q4-major/arm-none-eabi/include/c++/10.2.1/variant ****   template<typename... _Types>
 327:/usr/share/gcc-arm-none-eabi-10-2020-q4-major/arm-none-eabi/include/c++/10.2.1/variant ****     union _Variadic_union { };
 328:/usr/share/gcc-arm-none-eabi-10-2020-q4-major/arm-none-eabi/include/c++/10.2.1/variant **** 
 329:/usr/share/gcc-arm-none-eabi-10-2020-q4-major/arm-none-eabi/include/c++/10.2.1/variant ****   template<typename _First, typename... _Rest>
 330:/usr/share/gcc-arm-none-eabi-10-2020-q4-major/arm-none-eabi/include/c++/10.2.1/variant ****     union _Variadic_union<_First, _Rest...>
 331:/usr/share/gcc-arm-none-eabi-10-2020-q4-major/arm-none-eabi/include/c++/10.2.1/variant ****     {
 332:/usr/share/gcc-arm-none-eabi-10-2020-q4-major/arm-none-eabi/include/c++/10.2.1/variant ****       constexpr _Variadic_union() : _M_rest() { }
 333:/usr/share/gcc-arm-none-eabi-10-2020-q4-major/arm-none-eabi/include/c++/10.2.1/variant **** 
 334:/usr/share/gcc-arm-none-eabi-10-2020-q4-major/arm-none-eabi/include/c++/10.2.1/variant ****       template<typename... _Args>
 335:/usr/share/gcc-arm-none-eabi-10-2020-q4-major/arm-none-eabi/include/c++/10.2.1/variant **** 	constexpr _Variadic_union(in_place_index_t<0>, _Args&&... __args)
 336:/usr/share/gcc-arm-none-eabi-10-2020-q4-major/arm-none-eabi/include/c++/10.2.1/variant **** 	: _M_first(in_place_index<0>, std::forward<_Args>(__args)...)
 337:/usr/share/gcc-arm-none-eabi-10-2020-q4-major/arm-none-eabi/include/c++/10.2.1/variant **** 	{ }
 338:/usr/share/gcc-arm-none-eabi-10-2020-q4-major/arm-none-eabi/include/c++/10.2.1/variant **** 
 339:/usr/share/gcc-arm-none-eabi-10-2020-q4-major/arm-none-eabi/include/c++/10.2.1/variant ****       template<size_t _Np, typename... _Args>
 340:/usr/share/gcc-arm-none-eabi-10-2020-q4-major/arm-none-eabi/include/c++/10.2.1/variant **** 	constexpr _Variadic_union(in_place_index_t<_Np>, _Args&&... __args)
 341:/usr/share/gcc-arm-none-eabi-10-2020-q4-major/arm-none-eabi/include/c++/10.2.1/variant **** 	: _M_rest(in_place_index<_Np-1>, std::forward<_Args>(__args)...)
 342:/usr/share/gcc-arm-none-eabi-10-2020-q4-major/arm-none-eabi/include/c++/10.2.1/variant **** 	{ }
 343:/usr/share/gcc-arm-none-eabi-10-2020-q4-major/arm-none-eabi/include/c++/10.2.1/variant **** 
 344:/usr/share/gcc-arm-none-eabi-10-2020-q4-major/arm-none-eabi/include/c++/10.2.1/variant ****       _Uninitialized<_First> _M_first;
 345:/usr/share/gcc-arm-none-eabi-10-2020-q4-major/arm-none-eabi/include/c++/10.2.1/variant ****       _Variadic_union<_Rest...> _M_rest;
 346:/usr/share/gcc-arm-none-eabi-10-2020-q4-major/arm-none-eabi/include/c++/10.2.1/variant ****     };
 347:/usr/share/gcc-arm-none-eabi-10-2020-q4-major/arm-none-eabi/include/c++/10.2.1/variant **** 
 348:/usr/share/gcc-arm-none-eabi-10-2020-q4-major/arm-none-eabi/include/c++/10.2.1/variant ****   // _Never_valueless_alt is true for variant alternatives that can
 349:/usr/share/gcc-arm-none-eabi-10-2020-q4-major/arm-none-eabi/include/c++/10.2.1/variant ****   // always be placed in a variant without it becoming valueless.
 350:/usr/share/gcc-arm-none-eabi-10-2020-q4-major/arm-none-eabi/include/c++/10.2.1/variant **** 
 351:/usr/share/gcc-arm-none-eabi-10-2020-q4-major/arm-none-eabi/include/c++/10.2.1/variant ****   // For suitably-small, trivially copyable types we can create temporaries
 352:/usr/share/gcc-arm-none-eabi-10-2020-q4-major/arm-none-eabi/include/c++/10.2.1/variant ****   // on the stack and then memcpy them into place.
 353:/usr/share/gcc-arm-none-eabi-10-2020-q4-major/arm-none-eabi/include/c++/10.2.1/variant ****   template<typename _Tp>
 354:/usr/share/gcc-arm-none-eabi-10-2020-q4-major/arm-none-eabi/include/c++/10.2.1/variant ****     struct _Never_valueless_alt
 355:/usr/share/gcc-arm-none-eabi-10-2020-q4-major/arm-none-eabi/include/c++/10.2.1/variant ****     : __and_<bool_constant<sizeof(_Tp) <= 256>, is_trivially_copyable<_Tp>>
 356:/usr/share/gcc-arm-none-eabi-10-2020-q4-major/arm-none-eabi/include/c++/10.2.1/variant ****     { };
 357:/usr/share/gcc-arm-none-eabi-10-2020-q4-major/arm-none-eabi/include/c++/10.2.1/variant **** 
 358:/usr/share/gcc-arm-none-eabi-10-2020-q4-major/arm-none-eabi/include/c++/10.2.1/variant ****   // Specialize _Never_valueless_alt for other types which have a
 359:/usr/share/gcc-arm-none-eabi-10-2020-q4-major/arm-none-eabi/include/c++/10.2.1/variant ****   // non-throwing and cheap move construction and move assignment operator,
 360:/usr/share/gcc-arm-none-eabi-10-2020-q4-major/arm-none-eabi/include/c++/10.2.1/variant ****   // so that emplacing the type will provide the strong exception-safety
 361:/usr/share/gcc-arm-none-eabi-10-2020-q4-major/arm-none-eabi/include/c++/10.2.1/variant ****   // guarantee, by creating and moving a temporary.
 362:/usr/share/gcc-arm-none-eabi-10-2020-q4-major/arm-none-eabi/include/c++/10.2.1/variant ****   // Whether _Never_valueless_alt<T> is true or not affects the ABI of a
 363:/usr/share/gcc-arm-none-eabi-10-2020-q4-major/arm-none-eabi/include/c++/10.2.1/variant ****   // variant using that alternative, so we can't change the value later!
 364:/usr/share/gcc-arm-none-eabi-10-2020-q4-major/arm-none-eabi/include/c++/10.2.1/variant **** 
 365:/usr/share/gcc-arm-none-eabi-10-2020-q4-major/arm-none-eabi/include/c++/10.2.1/variant ****   // True if every alternative in _Types... can be emplaced in a variant
 366:/usr/share/gcc-arm-none-eabi-10-2020-q4-major/arm-none-eabi/include/c++/10.2.1/variant ****   // without it becoming valueless. If this is true, variant<_Types...>
 367:/usr/share/gcc-arm-none-eabi-10-2020-q4-major/arm-none-eabi/include/c++/10.2.1/variant ****   // can never be valueless, which enables some minor optimizations.
 368:/usr/share/gcc-arm-none-eabi-10-2020-q4-major/arm-none-eabi/include/c++/10.2.1/variant ****   template <typename... _Types>
 369:/usr/share/gcc-arm-none-eabi-10-2020-q4-major/arm-none-eabi/include/c++/10.2.1/variant ****     constexpr bool __never_valueless()
 370:/usr/share/gcc-arm-none-eabi-10-2020-q4-major/arm-none-eabi/include/c++/10.2.1/variant ****     {
 371:/usr/share/gcc-arm-none-eabi-10-2020-q4-major/arm-none-eabi/include/c++/10.2.1/variant ****       return _Traits<_Types...>::_S_move_assign
 372:/usr/share/gcc-arm-none-eabi-10-2020-q4-major/arm-none-eabi/include/c++/10.2.1/variant **** 	&& (_Never_valueless_alt<_Types>::value && ...);
 373:/usr/share/gcc-arm-none-eabi-10-2020-q4-major/arm-none-eabi/include/c++/10.2.1/variant ****     }
 374:/usr/share/gcc-arm-none-eabi-10-2020-q4-major/arm-none-eabi/include/c++/10.2.1/variant **** 
 375:/usr/share/gcc-arm-none-eabi-10-2020-q4-major/arm-none-eabi/include/c++/10.2.1/variant ****   // Defines index and the dtor, possibly trivial.
 376:/usr/share/gcc-arm-none-eabi-10-2020-q4-major/arm-none-eabi/include/c++/10.2.1/variant ****   template<bool __trivially_destructible, typename... _Types>
 377:/usr/share/gcc-arm-none-eabi-10-2020-q4-major/arm-none-eabi/include/c++/10.2.1/variant ****     struct _Variant_storage;
 378:/usr/share/gcc-arm-none-eabi-10-2020-q4-major/arm-none-eabi/include/c++/10.2.1/variant **** 
 379:/usr/share/gcc-arm-none-eabi-10-2020-q4-major/arm-none-eabi/include/c++/10.2.1/variant ****   template <typename... _Types>
 380:/usr/share/gcc-arm-none-eabi-10-2020-q4-major/arm-none-eabi/include/c++/10.2.1/variant ****     using __select_index =
ARM GAS  /tmp/ccqv0h9S.s 			page 12


 381:/usr/share/gcc-arm-none-eabi-10-2020-q4-major/arm-none-eabi/include/c++/10.2.1/variant ****       typename __select_int::_Select_int_base<sizeof...(_Types),
 382:/usr/share/gcc-arm-none-eabi-10-2020-q4-major/arm-none-eabi/include/c++/10.2.1/variant **** 					      unsigned char,
 383:/usr/share/gcc-arm-none-eabi-10-2020-q4-major/arm-none-eabi/include/c++/10.2.1/variant **** 					      unsigned short>::type::value_type;
 384:/usr/share/gcc-arm-none-eabi-10-2020-q4-major/arm-none-eabi/include/c++/10.2.1/variant **** 
 385:/usr/share/gcc-arm-none-eabi-10-2020-q4-major/arm-none-eabi/include/c++/10.2.1/variant ****   template<typename... _Types>
 386:/usr/share/gcc-arm-none-eabi-10-2020-q4-major/arm-none-eabi/include/c++/10.2.1/variant ****     struct _Variant_storage<false, _Types...>
 387:/usr/share/gcc-arm-none-eabi-10-2020-q4-major/arm-none-eabi/include/c++/10.2.1/variant ****     {
 388:/usr/share/gcc-arm-none-eabi-10-2020-q4-major/arm-none-eabi/include/c++/10.2.1/variant ****       constexpr
 389:/usr/share/gcc-arm-none-eabi-10-2020-q4-major/arm-none-eabi/include/c++/10.2.1/variant ****       _Variant_storage()
 390:/usr/share/gcc-arm-none-eabi-10-2020-q4-major/arm-none-eabi/include/c++/10.2.1/variant ****       : _M_index(static_cast<__index_type>(variant_npos))
 391:/usr/share/gcc-arm-none-eabi-10-2020-q4-major/arm-none-eabi/include/c++/10.2.1/variant ****       { }
 392:/usr/share/gcc-arm-none-eabi-10-2020-q4-major/arm-none-eabi/include/c++/10.2.1/variant **** 
 393:/usr/share/gcc-arm-none-eabi-10-2020-q4-major/arm-none-eabi/include/c++/10.2.1/variant ****       template<size_t _Np, typename... _Args>
 394:/usr/share/gcc-arm-none-eabi-10-2020-q4-major/arm-none-eabi/include/c++/10.2.1/variant **** 	constexpr
 395:/usr/share/gcc-arm-none-eabi-10-2020-q4-major/arm-none-eabi/include/c++/10.2.1/variant **** 	_Variant_storage(in_place_index_t<_Np>, _Args&&... __args)
 396:/usr/share/gcc-arm-none-eabi-10-2020-q4-major/arm-none-eabi/include/c++/10.2.1/variant **** 	: _M_u(in_place_index<_Np>, std::forward<_Args>(__args)...),
 397:/usr/share/gcc-arm-none-eabi-10-2020-q4-major/arm-none-eabi/include/c++/10.2.1/variant **** 	_M_index{_Np}
 398:/usr/share/gcc-arm-none-eabi-10-2020-q4-major/arm-none-eabi/include/c++/10.2.1/variant **** 	{ }
 399:/usr/share/gcc-arm-none-eabi-10-2020-q4-major/arm-none-eabi/include/c++/10.2.1/variant **** 
 400:/usr/share/gcc-arm-none-eabi-10-2020-q4-major/arm-none-eabi/include/c++/10.2.1/variant ****       void _M_reset()
 401:/usr/share/gcc-arm-none-eabi-10-2020-q4-major/arm-none-eabi/include/c++/10.2.1/variant ****       {
 402:/usr/share/gcc-arm-none-eabi-10-2020-q4-major/arm-none-eabi/include/c++/10.2.1/variant **** 	if (!_M_valid()) [[unlikely]]
 403:/usr/share/gcc-arm-none-eabi-10-2020-q4-major/arm-none-eabi/include/c++/10.2.1/variant **** 	  return;
 404:/usr/share/gcc-arm-none-eabi-10-2020-q4-major/arm-none-eabi/include/c++/10.2.1/variant **** 
 405:/usr/share/gcc-arm-none-eabi-10-2020-q4-major/arm-none-eabi/include/c++/10.2.1/variant **** 	std::__do_visit<void>([](auto&& __this_mem) mutable
 406:/usr/share/gcc-arm-none-eabi-10-2020-q4-major/arm-none-eabi/include/c++/10.2.1/variant **** 	  {
 407:/usr/share/gcc-arm-none-eabi-10-2020-q4-major/arm-none-eabi/include/c++/10.2.1/variant **** 	    std::_Destroy(std::__addressof(__this_mem));
 408:/usr/share/gcc-arm-none-eabi-10-2020-q4-major/arm-none-eabi/include/c++/10.2.1/variant **** 	  }, __variant_cast<_Types...>(*this));
 409:/usr/share/gcc-arm-none-eabi-10-2020-q4-major/arm-none-eabi/include/c++/10.2.1/variant **** 
 410:/usr/share/gcc-arm-none-eabi-10-2020-q4-major/arm-none-eabi/include/c++/10.2.1/variant **** 	_M_index = static_cast<__index_type>(variant_npos);
 411:/usr/share/gcc-arm-none-eabi-10-2020-q4-major/arm-none-eabi/include/c++/10.2.1/variant ****       }
 412:/usr/share/gcc-arm-none-eabi-10-2020-q4-major/arm-none-eabi/include/c++/10.2.1/variant **** 
 413:/usr/share/gcc-arm-none-eabi-10-2020-q4-major/arm-none-eabi/include/c++/10.2.1/variant ****       ~_Variant_storage()
 414:/usr/share/gcc-arm-none-eabi-10-2020-q4-major/arm-none-eabi/include/c++/10.2.1/variant ****       { _M_reset(); }
 415:/usr/share/gcc-arm-none-eabi-10-2020-q4-major/arm-none-eabi/include/c++/10.2.1/variant **** 
 416:/usr/share/gcc-arm-none-eabi-10-2020-q4-major/arm-none-eabi/include/c++/10.2.1/variant ****       void*
 417:/usr/share/gcc-arm-none-eabi-10-2020-q4-major/arm-none-eabi/include/c++/10.2.1/variant ****       _M_storage() const noexcept
 418:/usr/share/gcc-arm-none-eabi-10-2020-q4-major/arm-none-eabi/include/c++/10.2.1/variant ****       {
 419:/usr/share/gcc-arm-none-eabi-10-2020-q4-major/arm-none-eabi/include/c++/10.2.1/variant **** 	return const_cast<void*>(static_cast<const void*>(
 420:/usr/share/gcc-arm-none-eabi-10-2020-q4-major/arm-none-eabi/include/c++/10.2.1/variant **** 	    std::addressof(_M_u)));
 421:/usr/share/gcc-arm-none-eabi-10-2020-q4-major/arm-none-eabi/include/c++/10.2.1/variant ****       }
 422:/usr/share/gcc-arm-none-eabi-10-2020-q4-major/arm-none-eabi/include/c++/10.2.1/variant **** 
 423:/usr/share/gcc-arm-none-eabi-10-2020-q4-major/arm-none-eabi/include/c++/10.2.1/variant ****       constexpr bool
 424:/usr/share/gcc-arm-none-eabi-10-2020-q4-major/arm-none-eabi/include/c++/10.2.1/variant ****       _M_valid() const noexcept
 425:/usr/share/gcc-arm-none-eabi-10-2020-q4-major/arm-none-eabi/include/c++/10.2.1/variant ****       {
 426:/usr/share/gcc-arm-none-eabi-10-2020-q4-major/arm-none-eabi/include/c++/10.2.1/variant **** 	if constexpr (__variant::__never_valueless<_Types...>())
 427:/usr/share/gcc-arm-none-eabi-10-2020-q4-major/arm-none-eabi/include/c++/10.2.1/variant **** 	  return true;
 428:/usr/share/gcc-arm-none-eabi-10-2020-q4-major/arm-none-eabi/include/c++/10.2.1/variant **** 	return this->_M_index != __index_type(variant_npos);
 429:/usr/share/gcc-arm-none-eabi-10-2020-q4-major/arm-none-eabi/include/c++/10.2.1/variant ****       }
 430:/usr/share/gcc-arm-none-eabi-10-2020-q4-major/arm-none-eabi/include/c++/10.2.1/variant **** 
 431:/usr/share/gcc-arm-none-eabi-10-2020-q4-major/arm-none-eabi/include/c++/10.2.1/variant ****       _Variadic_union<_Types...> _M_u;
 432:/usr/share/gcc-arm-none-eabi-10-2020-q4-major/arm-none-eabi/include/c++/10.2.1/variant ****       using __index_type = __select_index<_Types...>;
 433:/usr/share/gcc-arm-none-eabi-10-2020-q4-major/arm-none-eabi/include/c++/10.2.1/variant ****       __index_type _M_index;
 434:/usr/share/gcc-arm-none-eabi-10-2020-q4-major/arm-none-eabi/include/c++/10.2.1/variant ****     };
 435:/usr/share/gcc-arm-none-eabi-10-2020-q4-major/arm-none-eabi/include/c++/10.2.1/variant **** 
 436:/usr/share/gcc-arm-none-eabi-10-2020-q4-major/arm-none-eabi/include/c++/10.2.1/variant ****   template<typename... _Types>
 437:/usr/share/gcc-arm-none-eabi-10-2020-q4-major/arm-none-eabi/include/c++/10.2.1/variant ****     struct _Variant_storage<true, _Types...>
ARM GAS  /tmp/ccqv0h9S.s 			page 13


 438:/usr/share/gcc-arm-none-eabi-10-2020-q4-major/arm-none-eabi/include/c++/10.2.1/variant ****     {
 439:/usr/share/gcc-arm-none-eabi-10-2020-q4-major/arm-none-eabi/include/c++/10.2.1/variant ****       constexpr
 440:/usr/share/gcc-arm-none-eabi-10-2020-q4-major/arm-none-eabi/include/c++/10.2.1/variant ****       _Variant_storage()
 441:/usr/share/gcc-arm-none-eabi-10-2020-q4-major/arm-none-eabi/include/c++/10.2.1/variant ****       : _M_index(static_cast<__index_type>(variant_npos))
 442:/usr/share/gcc-arm-none-eabi-10-2020-q4-major/arm-none-eabi/include/c++/10.2.1/variant ****       { }
 443:/usr/share/gcc-arm-none-eabi-10-2020-q4-major/arm-none-eabi/include/c++/10.2.1/variant **** 
 444:/usr/share/gcc-arm-none-eabi-10-2020-q4-major/arm-none-eabi/include/c++/10.2.1/variant ****       template<size_t _Np, typename... _Args>
 445:/usr/share/gcc-arm-none-eabi-10-2020-q4-major/arm-none-eabi/include/c++/10.2.1/variant **** 	constexpr
 446:/usr/share/gcc-arm-none-eabi-10-2020-q4-major/arm-none-eabi/include/c++/10.2.1/variant **** 	_Variant_storage(in_place_index_t<_Np>, _Args&&... __args)
 447:/usr/share/gcc-arm-none-eabi-10-2020-q4-major/arm-none-eabi/include/c++/10.2.1/variant **** 	: _M_u(in_place_index<_Np>, std::forward<_Args>(__args)...),
 448:/usr/share/gcc-arm-none-eabi-10-2020-q4-major/arm-none-eabi/include/c++/10.2.1/variant **** 	_M_index{_Np}
 449:/usr/share/gcc-arm-none-eabi-10-2020-q4-major/arm-none-eabi/include/c++/10.2.1/variant **** 	{ }
 450:/usr/share/gcc-arm-none-eabi-10-2020-q4-major/arm-none-eabi/include/c++/10.2.1/variant **** 
 451:/usr/share/gcc-arm-none-eabi-10-2020-q4-major/arm-none-eabi/include/c++/10.2.1/variant ****       void _M_reset() noexcept
 452:/usr/share/gcc-arm-none-eabi-10-2020-q4-major/arm-none-eabi/include/c++/10.2.1/variant ****       { _M_index = static_cast<__index_type>(variant_npos); }
 453:/usr/share/gcc-arm-none-eabi-10-2020-q4-major/arm-none-eabi/include/c++/10.2.1/variant **** 
 454:/usr/share/gcc-arm-none-eabi-10-2020-q4-major/arm-none-eabi/include/c++/10.2.1/variant ****       void*
 455:/usr/share/gcc-arm-none-eabi-10-2020-q4-major/arm-none-eabi/include/c++/10.2.1/variant ****       _M_storage() const noexcept
 456:/usr/share/gcc-arm-none-eabi-10-2020-q4-major/arm-none-eabi/include/c++/10.2.1/variant ****       {
 457:/usr/share/gcc-arm-none-eabi-10-2020-q4-major/arm-none-eabi/include/c++/10.2.1/variant **** 	return const_cast<void*>(static_cast<const void*>(
 458:/usr/share/gcc-arm-none-eabi-10-2020-q4-major/arm-none-eabi/include/c++/10.2.1/variant **** 	    std::addressof(_M_u)));
 459:/usr/share/gcc-arm-none-eabi-10-2020-q4-major/arm-none-eabi/include/c++/10.2.1/variant ****       }
 460:/usr/share/gcc-arm-none-eabi-10-2020-q4-major/arm-none-eabi/include/c++/10.2.1/variant **** 
 461:/usr/share/gcc-arm-none-eabi-10-2020-q4-major/arm-none-eabi/include/c++/10.2.1/variant ****       constexpr bool
 462:/usr/share/gcc-arm-none-eabi-10-2020-q4-major/arm-none-eabi/include/c++/10.2.1/variant ****       _M_valid() const noexcept
 463:/usr/share/gcc-arm-none-eabi-10-2020-q4-major/arm-none-eabi/include/c++/10.2.1/variant ****       {
 464:/usr/share/gcc-arm-none-eabi-10-2020-q4-major/arm-none-eabi/include/c++/10.2.1/variant **** 	if constexpr (__variant::__never_valueless<_Types...>())
 465:/usr/share/gcc-arm-none-eabi-10-2020-q4-major/arm-none-eabi/include/c++/10.2.1/variant **** 	  return true;
 466:/usr/share/gcc-arm-none-eabi-10-2020-q4-major/arm-none-eabi/include/c++/10.2.1/variant **** 	return this->_M_index != static_cast<__index_type>(variant_npos);
 467:/usr/share/gcc-arm-none-eabi-10-2020-q4-major/arm-none-eabi/include/c++/10.2.1/variant ****       }
 468:/usr/share/gcc-arm-none-eabi-10-2020-q4-major/arm-none-eabi/include/c++/10.2.1/variant **** 
 469:/usr/share/gcc-arm-none-eabi-10-2020-q4-major/arm-none-eabi/include/c++/10.2.1/variant ****       _Variadic_union<_Types...> _M_u;
 470:/usr/share/gcc-arm-none-eabi-10-2020-q4-major/arm-none-eabi/include/c++/10.2.1/variant ****       using __index_type = __select_index<_Types...>;
 471:/usr/share/gcc-arm-none-eabi-10-2020-q4-major/arm-none-eabi/include/c++/10.2.1/variant ****       __index_type _M_index;
 472:/usr/share/gcc-arm-none-eabi-10-2020-q4-major/arm-none-eabi/include/c++/10.2.1/variant ****     };
 473:/usr/share/gcc-arm-none-eabi-10-2020-q4-major/arm-none-eabi/include/c++/10.2.1/variant **** 
 474:/usr/share/gcc-arm-none-eabi-10-2020-q4-major/arm-none-eabi/include/c++/10.2.1/variant ****   template<typename... _Types>
 475:/usr/share/gcc-arm-none-eabi-10-2020-q4-major/arm-none-eabi/include/c++/10.2.1/variant ****     using _Variant_storage_alias =
 476:/usr/share/gcc-arm-none-eabi-10-2020-q4-major/arm-none-eabi/include/c++/10.2.1/variant **** 	_Variant_storage<_Traits<_Types...>::_S_trivial_dtor, _Types...>;
 477:/usr/share/gcc-arm-none-eabi-10-2020-q4-major/arm-none-eabi/include/c++/10.2.1/variant **** 
 478:/usr/share/gcc-arm-none-eabi-10-2020-q4-major/arm-none-eabi/include/c++/10.2.1/variant ****   template<typename _Tp, typename _Up>
 479:/usr/share/gcc-arm-none-eabi-10-2020-q4-major/arm-none-eabi/include/c++/10.2.1/variant ****     void __variant_construct_single(_Tp&& __lhs, _Up&& __rhs_mem)
 480:/usr/share/gcc-arm-none-eabi-10-2020-q4-major/arm-none-eabi/include/c++/10.2.1/variant ****     {
 481:/usr/share/gcc-arm-none-eabi-10-2020-q4-major/arm-none-eabi/include/c++/10.2.1/variant ****       void* __storage = std::addressof(__lhs._M_u);
 482:/usr/share/gcc-arm-none-eabi-10-2020-q4-major/arm-none-eabi/include/c++/10.2.1/variant ****       using _Type = remove_reference_t<decltype(__rhs_mem)>;
 483:/usr/share/gcc-arm-none-eabi-10-2020-q4-major/arm-none-eabi/include/c++/10.2.1/variant ****       if constexpr (!is_same_v<_Type, __variant_cookie>)
 484:/usr/share/gcc-arm-none-eabi-10-2020-q4-major/arm-none-eabi/include/c++/10.2.1/variant ****         ::new (__storage)
 485:/usr/share/gcc-arm-none-eabi-10-2020-q4-major/arm-none-eabi/include/c++/10.2.1/variant **** 	  _Type(std::forward<decltype(__rhs_mem)>(__rhs_mem));
 486:/usr/share/gcc-arm-none-eabi-10-2020-q4-major/arm-none-eabi/include/c++/10.2.1/variant ****     }
 487:/usr/share/gcc-arm-none-eabi-10-2020-q4-major/arm-none-eabi/include/c++/10.2.1/variant **** 
 488:/usr/share/gcc-arm-none-eabi-10-2020-q4-major/arm-none-eabi/include/c++/10.2.1/variant ****   template<typename... _Types, typename _Tp, typename _Up>
 489:/usr/share/gcc-arm-none-eabi-10-2020-q4-major/arm-none-eabi/include/c++/10.2.1/variant ****     void __variant_construct(_Tp&& __lhs, _Up&& __rhs)
 490:/usr/share/gcc-arm-none-eabi-10-2020-q4-major/arm-none-eabi/include/c++/10.2.1/variant ****     {
 491:/usr/share/gcc-arm-none-eabi-10-2020-q4-major/arm-none-eabi/include/c++/10.2.1/variant ****       __lhs._M_index = __rhs._M_index;
 492:/usr/share/gcc-arm-none-eabi-10-2020-q4-major/arm-none-eabi/include/c++/10.2.1/variant ****       __variant::__raw_visit([&__lhs](auto&& __rhs_mem) mutable
 493:/usr/share/gcc-arm-none-eabi-10-2020-q4-major/arm-none-eabi/include/c++/10.2.1/variant ****         {
 494:/usr/share/gcc-arm-none-eabi-10-2020-q4-major/arm-none-eabi/include/c++/10.2.1/variant **** 	  __variant_construct_single(std::forward<_Tp>(__lhs),
ARM GAS  /tmp/ccqv0h9S.s 			page 14


 495:/usr/share/gcc-arm-none-eabi-10-2020-q4-major/arm-none-eabi/include/c++/10.2.1/variant **** 	      std::forward<decltype(__rhs_mem)>(__rhs_mem));
 496:/usr/share/gcc-arm-none-eabi-10-2020-q4-major/arm-none-eabi/include/c++/10.2.1/variant **** 	}, __variant_cast<_Types...>(std::forward<_Up>(__rhs)));
 497:/usr/share/gcc-arm-none-eabi-10-2020-q4-major/arm-none-eabi/include/c++/10.2.1/variant ****     }
 498:/usr/share/gcc-arm-none-eabi-10-2020-q4-major/arm-none-eabi/include/c++/10.2.1/variant **** 
 499:/usr/share/gcc-arm-none-eabi-10-2020-q4-major/arm-none-eabi/include/c++/10.2.1/variant ****   // The following are (Copy|Move) (ctor|assign) layers for forwarding
 500:/usr/share/gcc-arm-none-eabi-10-2020-q4-major/arm-none-eabi/include/c++/10.2.1/variant ****   // triviality and handling non-trivial SMF behaviors.
 501:/usr/share/gcc-arm-none-eabi-10-2020-q4-major/arm-none-eabi/include/c++/10.2.1/variant **** 
 502:/usr/share/gcc-arm-none-eabi-10-2020-q4-major/arm-none-eabi/include/c++/10.2.1/variant ****   template<bool, typename... _Types>
 503:/usr/share/gcc-arm-none-eabi-10-2020-q4-major/arm-none-eabi/include/c++/10.2.1/variant ****     struct _Copy_ctor_base : _Variant_storage_alias<_Types...>
 504:/usr/share/gcc-arm-none-eabi-10-2020-q4-major/arm-none-eabi/include/c++/10.2.1/variant ****     {
 505:/usr/share/gcc-arm-none-eabi-10-2020-q4-major/arm-none-eabi/include/c++/10.2.1/variant ****       using _Base = _Variant_storage_alias<_Types...>;
 506:/usr/share/gcc-arm-none-eabi-10-2020-q4-major/arm-none-eabi/include/c++/10.2.1/variant ****       using _Base::_Base;
 507:/usr/share/gcc-arm-none-eabi-10-2020-q4-major/arm-none-eabi/include/c++/10.2.1/variant **** 
 508:/usr/share/gcc-arm-none-eabi-10-2020-q4-major/arm-none-eabi/include/c++/10.2.1/variant ****       _Copy_ctor_base(const _Copy_ctor_base& __rhs)
 509:/usr/share/gcc-arm-none-eabi-10-2020-q4-major/arm-none-eabi/include/c++/10.2.1/variant **** 	  noexcept(_Traits<_Types...>::_S_nothrow_copy_ctor)
 510:/usr/share/gcc-arm-none-eabi-10-2020-q4-major/arm-none-eabi/include/c++/10.2.1/variant ****       {
 511:/usr/share/gcc-arm-none-eabi-10-2020-q4-major/arm-none-eabi/include/c++/10.2.1/variant **** 	__variant_construct<_Types...>(*this, __rhs);
 512:/usr/share/gcc-arm-none-eabi-10-2020-q4-major/arm-none-eabi/include/c++/10.2.1/variant ****       }
 513:/usr/share/gcc-arm-none-eabi-10-2020-q4-major/arm-none-eabi/include/c++/10.2.1/variant **** 
 514:/usr/share/gcc-arm-none-eabi-10-2020-q4-major/arm-none-eabi/include/c++/10.2.1/variant ****       _Copy_ctor_base(_Copy_ctor_base&&) = default;
 515:/usr/share/gcc-arm-none-eabi-10-2020-q4-major/arm-none-eabi/include/c++/10.2.1/variant ****       _Copy_ctor_base& operator=(const _Copy_ctor_base&) = default;
 516:/usr/share/gcc-arm-none-eabi-10-2020-q4-major/arm-none-eabi/include/c++/10.2.1/variant ****       _Copy_ctor_base& operator=(_Copy_ctor_base&&) = default;
 517:/usr/share/gcc-arm-none-eabi-10-2020-q4-major/arm-none-eabi/include/c++/10.2.1/variant ****     };
 518:/usr/share/gcc-arm-none-eabi-10-2020-q4-major/arm-none-eabi/include/c++/10.2.1/variant **** 
 519:/usr/share/gcc-arm-none-eabi-10-2020-q4-major/arm-none-eabi/include/c++/10.2.1/variant ****   template<typename... _Types>
 520:/usr/share/gcc-arm-none-eabi-10-2020-q4-major/arm-none-eabi/include/c++/10.2.1/variant ****     struct _Copy_ctor_base<true, _Types...> : _Variant_storage_alias<_Types...>
 521:/usr/share/gcc-arm-none-eabi-10-2020-q4-major/arm-none-eabi/include/c++/10.2.1/variant ****     {
 522:/usr/share/gcc-arm-none-eabi-10-2020-q4-major/arm-none-eabi/include/c++/10.2.1/variant ****       using _Base = _Variant_storage_alias<_Types...>;
 523:/usr/share/gcc-arm-none-eabi-10-2020-q4-major/arm-none-eabi/include/c++/10.2.1/variant ****       using _Base::_Base;
 524:/usr/share/gcc-arm-none-eabi-10-2020-q4-major/arm-none-eabi/include/c++/10.2.1/variant ****     };
 525:/usr/share/gcc-arm-none-eabi-10-2020-q4-major/arm-none-eabi/include/c++/10.2.1/variant **** 
 526:/usr/share/gcc-arm-none-eabi-10-2020-q4-major/arm-none-eabi/include/c++/10.2.1/variant ****   template<typename... _Types>
 527:/usr/share/gcc-arm-none-eabi-10-2020-q4-major/arm-none-eabi/include/c++/10.2.1/variant ****     using _Copy_ctor_alias =
 528:/usr/share/gcc-arm-none-eabi-10-2020-q4-major/arm-none-eabi/include/c++/10.2.1/variant **** 	_Copy_ctor_base<_Traits<_Types...>::_S_trivial_copy_ctor, _Types...>;
 529:/usr/share/gcc-arm-none-eabi-10-2020-q4-major/arm-none-eabi/include/c++/10.2.1/variant **** 
 530:/usr/share/gcc-arm-none-eabi-10-2020-q4-major/arm-none-eabi/include/c++/10.2.1/variant ****   template<bool, typename... _Types>
 531:/usr/share/gcc-arm-none-eabi-10-2020-q4-major/arm-none-eabi/include/c++/10.2.1/variant ****     struct _Move_ctor_base : _Copy_ctor_alias<_Types...>
 532:/usr/share/gcc-arm-none-eabi-10-2020-q4-major/arm-none-eabi/include/c++/10.2.1/variant ****     {
 533:/usr/share/gcc-arm-none-eabi-10-2020-q4-major/arm-none-eabi/include/c++/10.2.1/variant ****       using _Base = _Copy_ctor_alias<_Types...>;
 534:/usr/share/gcc-arm-none-eabi-10-2020-q4-major/arm-none-eabi/include/c++/10.2.1/variant ****       using _Base::_Base;
 535:/usr/share/gcc-arm-none-eabi-10-2020-q4-major/arm-none-eabi/include/c++/10.2.1/variant **** 
 536:/usr/share/gcc-arm-none-eabi-10-2020-q4-major/arm-none-eabi/include/c++/10.2.1/variant ****       _Move_ctor_base(_Move_ctor_base&& __rhs)
 537:/usr/share/gcc-arm-none-eabi-10-2020-q4-major/arm-none-eabi/include/c++/10.2.1/variant **** 	  noexcept(_Traits<_Types...>::_S_nothrow_move_ctor)
 538:/usr/share/gcc-arm-none-eabi-10-2020-q4-major/arm-none-eabi/include/c++/10.2.1/variant ****       {
 539:/usr/share/gcc-arm-none-eabi-10-2020-q4-major/arm-none-eabi/include/c++/10.2.1/variant **** 	__variant_construct<_Types...>(*this, std::move(__rhs));
 540:/usr/share/gcc-arm-none-eabi-10-2020-q4-major/arm-none-eabi/include/c++/10.2.1/variant ****       }
 541:/usr/share/gcc-arm-none-eabi-10-2020-q4-major/arm-none-eabi/include/c++/10.2.1/variant **** 
 542:/usr/share/gcc-arm-none-eabi-10-2020-q4-major/arm-none-eabi/include/c++/10.2.1/variant ****       template<typename _Up>
 543:/usr/share/gcc-arm-none-eabi-10-2020-q4-major/arm-none-eabi/include/c++/10.2.1/variant ****         void _M_destructive_move(unsigned short __rhs_index, _Up&& __rhs)
 544:/usr/share/gcc-arm-none-eabi-10-2020-q4-major/arm-none-eabi/include/c++/10.2.1/variant ****         {
 545:/usr/share/gcc-arm-none-eabi-10-2020-q4-major/arm-none-eabi/include/c++/10.2.1/variant **** 	  this->_M_reset();
 546:/usr/share/gcc-arm-none-eabi-10-2020-q4-major/arm-none-eabi/include/c++/10.2.1/variant **** 	  __variant_construct_single(*this, std::forward<_Up>(__rhs));
 547:/usr/share/gcc-arm-none-eabi-10-2020-q4-major/arm-none-eabi/include/c++/10.2.1/variant **** 	  this->_M_index = __rhs_index;
 548:/usr/share/gcc-arm-none-eabi-10-2020-q4-major/arm-none-eabi/include/c++/10.2.1/variant **** 	}
 549:/usr/share/gcc-arm-none-eabi-10-2020-q4-major/arm-none-eabi/include/c++/10.2.1/variant **** 
 550:/usr/share/gcc-arm-none-eabi-10-2020-q4-major/arm-none-eabi/include/c++/10.2.1/variant ****       template<typename _Up>
 551:/usr/share/gcc-arm-none-eabi-10-2020-q4-major/arm-none-eabi/include/c++/10.2.1/variant ****         void _M_destructive_copy(unsigned short __rhs_index, const _Up& __rhs)
ARM GAS  /tmp/ccqv0h9S.s 			page 15


 552:/usr/share/gcc-arm-none-eabi-10-2020-q4-major/arm-none-eabi/include/c++/10.2.1/variant ****         {
 553:/usr/share/gcc-arm-none-eabi-10-2020-q4-major/arm-none-eabi/include/c++/10.2.1/variant **** 	  this->_M_reset();
 554:/usr/share/gcc-arm-none-eabi-10-2020-q4-major/arm-none-eabi/include/c++/10.2.1/variant **** 	  __variant_construct_single(*this, __rhs);
 555:/usr/share/gcc-arm-none-eabi-10-2020-q4-major/arm-none-eabi/include/c++/10.2.1/variant **** 	  this->_M_index = __rhs_index;
 556:/usr/share/gcc-arm-none-eabi-10-2020-q4-major/arm-none-eabi/include/c++/10.2.1/variant **** 	}
 557:/usr/share/gcc-arm-none-eabi-10-2020-q4-major/arm-none-eabi/include/c++/10.2.1/variant **** 
 558:/usr/share/gcc-arm-none-eabi-10-2020-q4-major/arm-none-eabi/include/c++/10.2.1/variant ****       _Move_ctor_base(const _Move_ctor_base&) = default;
 559:/usr/share/gcc-arm-none-eabi-10-2020-q4-major/arm-none-eabi/include/c++/10.2.1/variant ****       _Move_ctor_base& operator=(const _Move_ctor_base&) = default;
 560:/usr/share/gcc-arm-none-eabi-10-2020-q4-major/arm-none-eabi/include/c++/10.2.1/variant ****       _Move_ctor_base& operator=(_Move_ctor_base&&) = default;
 561:/usr/share/gcc-arm-none-eabi-10-2020-q4-major/arm-none-eabi/include/c++/10.2.1/variant ****     };
 562:/usr/share/gcc-arm-none-eabi-10-2020-q4-major/arm-none-eabi/include/c++/10.2.1/variant **** 
 563:/usr/share/gcc-arm-none-eabi-10-2020-q4-major/arm-none-eabi/include/c++/10.2.1/variant ****   template<typename... _Types>
 564:/usr/share/gcc-arm-none-eabi-10-2020-q4-major/arm-none-eabi/include/c++/10.2.1/variant ****     struct _Move_ctor_base<true, _Types...> : _Copy_ctor_alias<_Types...>
 565:/usr/share/gcc-arm-none-eabi-10-2020-q4-major/arm-none-eabi/include/c++/10.2.1/variant ****     {
 566:/usr/share/gcc-arm-none-eabi-10-2020-q4-major/arm-none-eabi/include/c++/10.2.1/variant ****       using _Base = _Copy_ctor_alias<_Types...>;
 567:/usr/share/gcc-arm-none-eabi-10-2020-q4-major/arm-none-eabi/include/c++/10.2.1/variant ****       using _Base::_Base;
 568:/usr/share/gcc-arm-none-eabi-10-2020-q4-major/arm-none-eabi/include/c++/10.2.1/variant **** 
 569:/usr/share/gcc-arm-none-eabi-10-2020-q4-major/arm-none-eabi/include/c++/10.2.1/variant ****       template<typename _Up>
 570:/usr/share/gcc-arm-none-eabi-10-2020-q4-major/arm-none-eabi/include/c++/10.2.1/variant ****         void _M_destructive_move(unsigned short __rhs_index, _Up&& __rhs)
 571:/usr/share/gcc-arm-none-eabi-10-2020-q4-major/arm-none-eabi/include/c++/10.2.1/variant ****         {
 572:/usr/share/gcc-arm-none-eabi-10-2020-q4-major/arm-none-eabi/include/c++/10.2.1/variant **** 	  this->_M_reset();
 573:/usr/share/gcc-arm-none-eabi-10-2020-q4-major/arm-none-eabi/include/c++/10.2.1/variant **** 	  __variant_construct_single(*this, std::forward<_Up>(__rhs));
 574:/usr/share/gcc-arm-none-eabi-10-2020-q4-major/arm-none-eabi/include/c++/10.2.1/variant **** 	  this->_M_index = __rhs_index;
 575:/usr/share/gcc-arm-none-eabi-10-2020-q4-major/arm-none-eabi/include/c++/10.2.1/variant **** 	}
 576:/usr/share/gcc-arm-none-eabi-10-2020-q4-major/arm-none-eabi/include/c++/10.2.1/variant **** 
 577:/usr/share/gcc-arm-none-eabi-10-2020-q4-major/arm-none-eabi/include/c++/10.2.1/variant ****       template<typename _Up>
 578:/usr/share/gcc-arm-none-eabi-10-2020-q4-major/arm-none-eabi/include/c++/10.2.1/variant ****         void _M_destructive_copy(unsigned short __rhs_index, const _Up& __rhs)
 579:/usr/share/gcc-arm-none-eabi-10-2020-q4-major/arm-none-eabi/include/c++/10.2.1/variant ****         {
 580:/usr/share/gcc-arm-none-eabi-10-2020-q4-major/arm-none-eabi/include/c++/10.2.1/variant **** 	  this->_M_reset();
 581:/usr/share/gcc-arm-none-eabi-10-2020-q4-major/arm-none-eabi/include/c++/10.2.1/variant **** 	  __variant_construct_single(*this, __rhs);
 582:/usr/share/gcc-arm-none-eabi-10-2020-q4-major/arm-none-eabi/include/c++/10.2.1/variant **** 	  this->_M_index = __rhs_index;
 583:/usr/share/gcc-arm-none-eabi-10-2020-q4-major/arm-none-eabi/include/c++/10.2.1/variant **** 	}
 584:/usr/share/gcc-arm-none-eabi-10-2020-q4-major/arm-none-eabi/include/c++/10.2.1/variant ****     };
 585:/usr/share/gcc-arm-none-eabi-10-2020-q4-major/arm-none-eabi/include/c++/10.2.1/variant **** 
 586:/usr/share/gcc-arm-none-eabi-10-2020-q4-major/arm-none-eabi/include/c++/10.2.1/variant ****   template<typename... _Types>
 587:/usr/share/gcc-arm-none-eabi-10-2020-q4-major/arm-none-eabi/include/c++/10.2.1/variant ****     using _Move_ctor_alias =
 588:/usr/share/gcc-arm-none-eabi-10-2020-q4-major/arm-none-eabi/include/c++/10.2.1/variant **** 	_Move_ctor_base<_Traits<_Types...>::_S_trivial_move_ctor, _Types...>;
 589:/usr/share/gcc-arm-none-eabi-10-2020-q4-major/arm-none-eabi/include/c++/10.2.1/variant **** 
 590:/usr/share/gcc-arm-none-eabi-10-2020-q4-major/arm-none-eabi/include/c++/10.2.1/variant ****   template<bool, typename... _Types>
 591:/usr/share/gcc-arm-none-eabi-10-2020-q4-major/arm-none-eabi/include/c++/10.2.1/variant ****     struct _Copy_assign_base : _Move_ctor_alias<_Types...>
 592:/usr/share/gcc-arm-none-eabi-10-2020-q4-major/arm-none-eabi/include/c++/10.2.1/variant ****     {
 593:/usr/share/gcc-arm-none-eabi-10-2020-q4-major/arm-none-eabi/include/c++/10.2.1/variant ****       using _Base = _Move_ctor_alias<_Types...>;
 594:/usr/share/gcc-arm-none-eabi-10-2020-q4-major/arm-none-eabi/include/c++/10.2.1/variant ****       using _Base::_Base;
 595:/usr/share/gcc-arm-none-eabi-10-2020-q4-major/arm-none-eabi/include/c++/10.2.1/variant **** 
 596:/usr/share/gcc-arm-none-eabi-10-2020-q4-major/arm-none-eabi/include/c++/10.2.1/variant ****       _Copy_assign_base&
 597:/usr/share/gcc-arm-none-eabi-10-2020-q4-major/arm-none-eabi/include/c++/10.2.1/variant ****       operator=(const _Copy_assign_base& __rhs)
 598:/usr/share/gcc-arm-none-eabi-10-2020-q4-major/arm-none-eabi/include/c++/10.2.1/variant **** 	  noexcept(_Traits<_Types...>::_S_nothrow_copy_assign)
 599:/usr/share/gcc-arm-none-eabi-10-2020-q4-major/arm-none-eabi/include/c++/10.2.1/variant ****       {
 600:/usr/share/gcc-arm-none-eabi-10-2020-q4-major/arm-none-eabi/include/c++/10.2.1/variant **** 	__variant::__raw_idx_visit(
 601:/usr/share/gcc-arm-none-eabi-10-2020-q4-major/arm-none-eabi/include/c++/10.2.1/variant **** 	  [this](auto&& __rhs_mem, auto __rhs_index) mutable
 602:/usr/share/gcc-arm-none-eabi-10-2020-q4-major/arm-none-eabi/include/c++/10.2.1/variant **** 	  {
 603:/usr/share/gcc-arm-none-eabi-10-2020-q4-major/arm-none-eabi/include/c++/10.2.1/variant **** 	    if constexpr (__rhs_index != variant_npos)
 604:/usr/share/gcc-arm-none-eabi-10-2020-q4-major/arm-none-eabi/include/c++/10.2.1/variant **** 	      {
 605:/usr/share/gcc-arm-none-eabi-10-2020-q4-major/arm-none-eabi/include/c++/10.2.1/variant **** 		if (this->_M_index == __rhs_index)
 606:/usr/share/gcc-arm-none-eabi-10-2020-q4-major/arm-none-eabi/include/c++/10.2.1/variant **** 		  __variant::__get<__rhs_index>(*this) = __rhs_mem;
 607:/usr/share/gcc-arm-none-eabi-10-2020-q4-major/arm-none-eabi/include/c++/10.2.1/variant **** 		else
 608:/usr/share/gcc-arm-none-eabi-10-2020-q4-major/arm-none-eabi/include/c++/10.2.1/variant **** 		  {
ARM GAS  /tmp/ccqv0h9S.s 			page 16


 609:/usr/share/gcc-arm-none-eabi-10-2020-q4-major/arm-none-eabi/include/c++/10.2.1/variant **** 		    using __rhs_type = __remove_cvref_t<decltype(__rhs_mem)>;
 610:/usr/share/gcc-arm-none-eabi-10-2020-q4-major/arm-none-eabi/include/c++/10.2.1/variant **** 		    if constexpr (is_nothrow_copy_constructible_v<__rhs_type>
 611:/usr/share/gcc-arm-none-eabi-10-2020-q4-major/arm-none-eabi/include/c++/10.2.1/variant **** 			|| !is_nothrow_move_constructible_v<__rhs_type>)
 612:/usr/share/gcc-arm-none-eabi-10-2020-q4-major/arm-none-eabi/include/c++/10.2.1/variant **** 		      // The standard says this->emplace<__rhs_type>(__rhs_mem)
 613:/usr/share/gcc-arm-none-eabi-10-2020-q4-major/arm-none-eabi/include/c++/10.2.1/variant **** 		      // should be used here, but _M_destructive_copy is
 614:/usr/share/gcc-arm-none-eabi-10-2020-q4-major/arm-none-eabi/include/c++/10.2.1/variant **** 		      // equivalent in this case. Either copy construction
 615:/usr/share/gcc-arm-none-eabi-10-2020-q4-major/arm-none-eabi/include/c++/10.2.1/variant **** 		      // doesn't throw, so _M_destructive_copy gives strong
 616:/usr/share/gcc-arm-none-eabi-10-2020-q4-major/arm-none-eabi/include/c++/10.2.1/variant **** 		      // exception safety guarantee, or both copy construction
 617:/usr/share/gcc-arm-none-eabi-10-2020-q4-major/arm-none-eabi/include/c++/10.2.1/variant **** 		      // and move construction can throw, so emplace only gives
 618:/usr/share/gcc-arm-none-eabi-10-2020-q4-major/arm-none-eabi/include/c++/10.2.1/variant **** 		      // basic exception safety anyway.
 619:/usr/share/gcc-arm-none-eabi-10-2020-q4-major/arm-none-eabi/include/c++/10.2.1/variant **** 		      this->_M_destructive_copy(__rhs_index, __rhs_mem);
 620:/usr/share/gcc-arm-none-eabi-10-2020-q4-major/arm-none-eabi/include/c++/10.2.1/variant **** 		    else
 621:/usr/share/gcc-arm-none-eabi-10-2020-q4-major/arm-none-eabi/include/c++/10.2.1/variant **** 		      __variant_cast<_Types...>(*this)
 622:/usr/share/gcc-arm-none-eabi-10-2020-q4-major/arm-none-eabi/include/c++/10.2.1/variant **** 			= variant<_Types...>(std::in_place_index<__rhs_index>,
 623:/usr/share/gcc-arm-none-eabi-10-2020-q4-major/arm-none-eabi/include/c++/10.2.1/variant **** 					     __rhs_mem);
 624:/usr/share/gcc-arm-none-eabi-10-2020-q4-major/arm-none-eabi/include/c++/10.2.1/variant **** 		  }
 625:/usr/share/gcc-arm-none-eabi-10-2020-q4-major/arm-none-eabi/include/c++/10.2.1/variant **** 	      }
 626:/usr/share/gcc-arm-none-eabi-10-2020-q4-major/arm-none-eabi/include/c++/10.2.1/variant **** 	    else
 627:/usr/share/gcc-arm-none-eabi-10-2020-q4-major/arm-none-eabi/include/c++/10.2.1/variant **** 	      this->_M_reset();
 628:/usr/share/gcc-arm-none-eabi-10-2020-q4-major/arm-none-eabi/include/c++/10.2.1/variant **** 	  }, __variant_cast<_Types...>(__rhs));
 629:/usr/share/gcc-arm-none-eabi-10-2020-q4-major/arm-none-eabi/include/c++/10.2.1/variant **** 	return *this;
 630:/usr/share/gcc-arm-none-eabi-10-2020-q4-major/arm-none-eabi/include/c++/10.2.1/variant ****       }
 631:/usr/share/gcc-arm-none-eabi-10-2020-q4-major/arm-none-eabi/include/c++/10.2.1/variant **** 
 632:/usr/share/gcc-arm-none-eabi-10-2020-q4-major/arm-none-eabi/include/c++/10.2.1/variant ****       _Copy_assign_base(const _Copy_assign_base&) = default;
 633:/usr/share/gcc-arm-none-eabi-10-2020-q4-major/arm-none-eabi/include/c++/10.2.1/variant ****       _Copy_assign_base(_Copy_assign_base&&) = default;
 634:/usr/share/gcc-arm-none-eabi-10-2020-q4-major/arm-none-eabi/include/c++/10.2.1/variant ****       _Copy_assign_base& operator=(_Copy_assign_base&&) = default;
 635:/usr/share/gcc-arm-none-eabi-10-2020-q4-major/arm-none-eabi/include/c++/10.2.1/variant ****     };
 636:/usr/share/gcc-arm-none-eabi-10-2020-q4-major/arm-none-eabi/include/c++/10.2.1/variant **** 
 637:/usr/share/gcc-arm-none-eabi-10-2020-q4-major/arm-none-eabi/include/c++/10.2.1/variant ****   template<typename... _Types>
 638:/usr/share/gcc-arm-none-eabi-10-2020-q4-major/arm-none-eabi/include/c++/10.2.1/variant ****     struct _Copy_assign_base<true, _Types...> : _Move_ctor_alias<_Types...>
 639:/usr/share/gcc-arm-none-eabi-10-2020-q4-major/arm-none-eabi/include/c++/10.2.1/variant ****     {
 640:/usr/share/gcc-arm-none-eabi-10-2020-q4-major/arm-none-eabi/include/c++/10.2.1/variant ****       using _Base = _Move_ctor_alias<_Types...>;
 641:/usr/share/gcc-arm-none-eabi-10-2020-q4-major/arm-none-eabi/include/c++/10.2.1/variant ****       using _Base::_Base;
 642:/usr/share/gcc-arm-none-eabi-10-2020-q4-major/arm-none-eabi/include/c++/10.2.1/variant ****     };
 643:/usr/share/gcc-arm-none-eabi-10-2020-q4-major/arm-none-eabi/include/c++/10.2.1/variant **** 
 644:/usr/share/gcc-arm-none-eabi-10-2020-q4-major/arm-none-eabi/include/c++/10.2.1/variant ****   template<typename... _Types>
 645:/usr/share/gcc-arm-none-eabi-10-2020-q4-major/arm-none-eabi/include/c++/10.2.1/variant ****     using _Copy_assign_alias =
 646:/usr/share/gcc-arm-none-eabi-10-2020-q4-major/arm-none-eabi/include/c++/10.2.1/variant ****       _Copy_assign_base<_Traits<_Types...>::_S_trivial_copy_assign, _Types...>;
 647:/usr/share/gcc-arm-none-eabi-10-2020-q4-major/arm-none-eabi/include/c++/10.2.1/variant **** 
 648:/usr/share/gcc-arm-none-eabi-10-2020-q4-major/arm-none-eabi/include/c++/10.2.1/variant ****   template<bool, typename... _Types>
 649:/usr/share/gcc-arm-none-eabi-10-2020-q4-major/arm-none-eabi/include/c++/10.2.1/variant ****     struct _Move_assign_base : _Copy_assign_alias<_Types...>
 650:/usr/share/gcc-arm-none-eabi-10-2020-q4-major/arm-none-eabi/include/c++/10.2.1/variant ****     {
 651:/usr/share/gcc-arm-none-eabi-10-2020-q4-major/arm-none-eabi/include/c++/10.2.1/variant ****       using _Base = _Copy_assign_alias<_Types...>;
 652:/usr/share/gcc-arm-none-eabi-10-2020-q4-major/arm-none-eabi/include/c++/10.2.1/variant ****       using _Base::_Base;
 653:/usr/share/gcc-arm-none-eabi-10-2020-q4-major/arm-none-eabi/include/c++/10.2.1/variant **** 
 654:/usr/share/gcc-arm-none-eabi-10-2020-q4-major/arm-none-eabi/include/c++/10.2.1/variant ****       _Move_assign_base&
 655:/usr/share/gcc-arm-none-eabi-10-2020-q4-major/arm-none-eabi/include/c++/10.2.1/variant ****       operator=(_Move_assign_base&& __rhs)
 656:/usr/share/gcc-arm-none-eabi-10-2020-q4-major/arm-none-eabi/include/c++/10.2.1/variant **** 	  noexcept(_Traits<_Types...>::_S_nothrow_move_assign)
 657:/usr/share/gcc-arm-none-eabi-10-2020-q4-major/arm-none-eabi/include/c++/10.2.1/variant ****       {
 658:/usr/share/gcc-arm-none-eabi-10-2020-q4-major/arm-none-eabi/include/c++/10.2.1/variant **** 	__variant::__raw_idx_visit(
 659:/usr/share/gcc-arm-none-eabi-10-2020-q4-major/arm-none-eabi/include/c++/10.2.1/variant **** 	  [this](auto&& __rhs_mem, auto __rhs_index) mutable
 660:/usr/share/gcc-arm-none-eabi-10-2020-q4-major/arm-none-eabi/include/c++/10.2.1/variant **** 	  {
 661:/usr/share/gcc-arm-none-eabi-10-2020-q4-major/arm-none-eabi/include/c++/10.2.1/variant **** 	    if constexpr (__rhs_index != variant_npos)
 662:/usr/share/gcc-arm-none-eabi-10-2020-q4-major/arm-none-eabi/include/c++/10.2.1/variant **** 	      {
 663:/usr/share/gcc-arm-none-eabi-10-2020-q4-major/arm-none-eabi/include/c++/10.2.1/variant **** 		if (this->_M_index == __rhs_index)
 664:/usr/share/gcc-arm-none-eabi-10-2020-q4-major/arm-none-eabi/include/c++/10.2.1/variant **** 		  __variant::__get<__rhs_index>(*this) = std::move(__rhs_mem);
 665:/usr/share/gcc-arm-none-eabi-10-2020-q4-major/arm-none-eabi/include/c++/10.2.1/variant **** 		else
ARM GAS  /tmp/ccqv0h9S.s 			page 17


 666:/usr/share/gcc-arm-none-eabi-10-2020-q4-major/arm-none-eabi/include/c++/10.2.1/variant **** 		  __variant_cast<_Types...>(*this)
 667:/usr/share/gcc-arm-none-eabi-10-2020-q4-major/arm-none-eabi/include/c++/10.2.1/variant **** 		    .template emplace<__rhs_index>(std::move(__rhs_mem));
 668:/usr/share/gcc-arm-none-eabi-10-2020-q4-major/arm-none-eabi/include/c++/10.2.1/variant **** 	      }
 669:/usr/share/gcc-arm-none-eabi-10-2020-q4-major/arm-none-eabi/include/c++/10.2.1/variant **** 	    else
 670:/usr/share/gcc-arm-none-eabi-10-2020-q4-major/arm-none-eabi/include/c++/10.2.1/variant **** 	      this->_M_reset();
 671:/usr/share/gcc-arm-none-eabi-10-2020-q4-major/arm-none-eabi/include/c++/10.2.1/variant **** 	  }, __variant_cast<_Types...>(__rhs));
 672:/usr/share/gcc-arm-none-eabi-10-2020-q4-major/arm-none-eabi/include/c++/10.2.1/variant **** 	return *this;
 673:/usr/share/gcc-arm-none-eabi-10-2020-q4-major/arm-none-eabi/include/c++/10.2.1/variant ****       }
 674:/usr/share/gcc-arm-none-eabi-10-2020-q4-major/arm-none-eabi/include/c++/10.2.1/variant **** 
 675:/usr/share/gcc-arm-none-eabi-10-2020-q4-major/arm-none-eabi/include/c++/10.2.1/variant ****       _Move_assign_base(const _Move_assign_base&) = default;
 676:/usr/share/gcc-arm-none-eabi-10-2020-q4-major/arm-none-eabi/include/c++/10.2.1/variant ****       _Move_assign_base(_Move_assign_base&&) = default;
 677:/usr/share/gcc-arm-none-eabi-10-2020-q4-major/arm-none-eabi/include/c++/10.2.1/variant ****       _Move_assign_base& operator=(const _Move_assign_base&) = default;
 678:/usr/share/gcc-arm-none-eabi-10-2020-q4-major/arm-none-eabi/include/c++/10.2.1/variant ****     };
 679:/usr/share/gcc-arm-none-eabi-10-2020-q4-major/arm-none-eabi/include/c++/10.2.1/variant **** 
 680:/usr/share/gcc-arm-none-eabi-10-2020-q4-major/arm-none-eabi/include/c++/10.2.1/variant ****   template<typename... _Types>
 681:/usr/share/gcc-arm-none-eabi-10-2020-q4-major/arm-none-eabi/include/c++/10.2.1/variant ****     struct _Move_assign_base<true, _Types...> : _Copy_assign_alias<_Types...>
 682:/usr/share/gcc-arm-none-eabi-10-2020-q4-major/arm-none-eabi/include/c++/10.2.1/variant ****     {
 683:/usr/share/gcc-arm-none-eabi-10-2020-q4-major/arm-none-eabi/include/c++/10.2.1/variant ****       using _Base = _Copy_assign_alias<_Types...>;
 684:/usr/share/gcc-arm-none-eabi-10-2020-q4-major/arm-none-eabi/include/c++/10.2.1/variant ****       using _Base::_Base;
 685:/usr/share/gcc-arm-none-eabi-10-2020-q4-major/arm-none-eabi/include/c++/10.2.1/variant ****     };
 686:/usr/share/gcc-arm-none-eabi-10-2020-q4-major/arm-none-eabi/include/c++/10.2.1/variant **** 
 687:/usr/share/gcc-arm-none-eabi-10-2020-q4-major/arm-none-eabi/include/c++/10.2.1/variant ****   template<typename... _Types>
 688:/usr/share/gcc-arm-none-eabi-10-2020-q4-major/arm-none-eabi/include/c++/10.2.1/variant ****     using _Move_assign_alias =
 689:/usr/share/gcc-arm-none-eabi-10-2020-q4-major/arm-none-eabi/include/c++/10.2.1/variant ****       _Move_assign_base<_Traits<_Types...>::_S_trivial_move_assign, _Types...>;
 690:/usr/share/gcc-arm-none-eabi-10-2020-q4-major/arm-none-eabi/include/c++/10.2.1/variant **** 
 691:/usr/share/gcc-arm-none-eabi-10-2020-q4-major/arm-none-eabi/include/c++/10.2.1/variant ****   template<typename... _Types>
 692:/usr/share/gcc-arm-none-eabi-10-2020-q4-major/arm-none-eabi/include/c++/10.2.1/variant ****     struct _Variant_base : _Move_assign_alias<_Types...>
 693:/usr/share/gcc-arm-none-eabi-10-2020-q4-major/arm-none-eabi/include/c++/10.2.1/variant ****     {
 694:/usr/share/gcc-arm-none-eabi-10-2020-q4-major/arm-none-eabi/include/c++/10.2.1/variant ****       using _Base = _Move_assign_alias<_Types...>;
 695:/usr/share/gcc-arm-none-eabi-10-2020-q4-major/arm-none-eabi/include/c++/10.2.1/variant **** 
 696:/usr/share/gcc-arm-none-eabi-10-2020-q4-major/arm-none-eabi/include/c++/10.2.1/variant ****       constexpr
 697:/usr/share/gcc-arm-none-eabi-10-2020-q4-major/arm-none-eabi/include/c++/10.2.1/variant ****       _Variant_base()
 698:/usr/share/gcc-arm-none-eabi-10-2020-q4-major/arm-none-eabi/include/c++/10.2.1/variant **** 	  noexcept(_Traits<_Types...>::_S_nothrow_default_ctor)
 699:/usr/share/gcc-arm-none-eabi-10-2020-q4-major/arm-none-eabi/include/c++/10.2.1/variant ****       : _Variant_base(in_place_index<0>) { }
 700:/usr/share/gcc-arm-none-eabi-10-2020-q4-major/arm-none-eabi/include/c++/10.2.1/variant **** 
 701:/usr/share/gcc-arm-none-eabi-10-2020-q4-major/arm-none-eabi/include/c++/10.2.1/variant ****       template<size_t _Np, typename... _Args>
 702:/usr/share/gcc-arm-none-eabi-10-2020-q4-major/arm-none-eabi/include/c++/10.2.1/variant **** 	constexpr explicit
 703:/usr/share/gcc-arm-none-eabi-10-2020-q4-major/arm-none-eabi/include/c++/10.2.1/variant **** 	_Variant_base(in_place_index_t<_Np> __i, _Args&&... __args)
 704:/usr/share/gcc-arm-none-eabi-10-2020-q4-major/arm-none-eabi/include/c++/10.2.1/variant **** 	: _Base(__i, std::forward<_Args>(__args)...)
 705:/usr/share/gcc-arm-none-eabi-10-2020-q4-major/arm-none-eabi/include/c++/10.2.1/variant **** 	{ }
 706:/usr/share/gcc-arm-none-eabi-10-2020-q4-major/arm-none-eabi/include/c++/10.2.1/variant **** 
 707:/usr/share/gcc-arm-none-eabi-10-2020-q4-major/arm-none-eabi/include/c++/10.2.1/variant ****       _Variant_base(const _Variant_base&) = default;
 708:/usr/share/gcc-arm-none-eabi-10-2020-q4-major/arm-none-eabi/include/c++/10.2.1/variant ****       _Variant_base(_Variant_base&&) = default;
 709:/usr/share/gcc-arm-none-eabi-10-2020-q4-major/arm-none-eabi/include/c++/10.2.1/variant ****       _Variant_base& operator=(const _Variant_base&) = default;
 710:/usr/share/gcc-arm-none-eabi-10-2020-q4-major/arm-none-eabi/include/c++/10.2.1/variant ****       _Variant_base& operator=(_Variant_base&&) = default;
 711:/usr/share/gcc-arm-none-eabi-10-2020-q4-major/arm-none-eabi/include/c++/10.2.1/variant ****     };
 712:/usr/share/gcc-arm-none-eabi-10-2020-q4-major/arm-none-eabi/include/c++/10.2.1/variant **** 
 713:/usr/share/gcc-arm-none-eabi-10-2020-q4-major/arm-none-eabi/include/c++/10.2.1/variant ****   // For how many times does _Tp appear in _Tuple?
 714:/usr/share/gcc-arm-none-eabi-10-2020-q4-major/arm-none-eabi/include/c++/10.2.1/variant ****   template<typename _Tp, typename _Tuple>
 715:/usr/share/gcc-arm-none-eabi-10-2020-q4-major/arm-none-eabi/include/c++/10.2.1/variant ****     struct __tuple_count;
 716:/usr/share/gcc-arm-none-eabi-10-2020-q4-major/arm-none-eabi/include/c++/10.2.1/variant **** 
 717:/usr/share/gcc-arm-none-eabi-10-2020-q4-major/arm-none-eabi/include/c++/10.2.1/variant ****   template<typename _Tp, typename _Tuple>
 718:/usr/share/gcc-arm-none-eabi-10-2020-q4-major/arm-none-eabi/include/c++/10.2.1/variant ****     inline constexpr size_t __tuple_count_v =
 719:/usr/share/gcc-arm-none-eabi-10-2020-q4-major/arm-none-eabi/include/c++/10.2.1/variant ****       __tuple_count<_Tp, _Tuple>::value;
 720:/usr/share/gcc-arm-none-eabi-10-2020-q4-major/arm-none-eabi/include/c++/10.2.1/variant **** 
 721:/usr/share/gcc-arm-none-eabi-10-2020-q4-major/arm-none-eabi/include/c++/10.2.1/variant ****   template<typename _Tp, typename... _Types>
 722:/usr/share/gcc-arm-none-eabi-10-2020-q4-major/arm-none-eabi/include/c++/10.2.1/variant ****     struct __tuple_count<_Tp, tuple<_Types...>>
ARM GAS  /tmp/ccqv0h9S.s 			page 18


 723:/usr/share/gcc-arm-none-eabi-10-2020-q4-major/arm-none-eabi/include/c++/10.2.1/variant ****     : integral_constant<size_t, 0> { };
 724:/usr/share/gcc-arm-none-eabi-10-2020-q4-major/arm-none-eabi/include/c++/10.2.1/variant **** 
 725:/usr/share/gcc-arm-none-eabi-10-2020-q4-major/arm-none-eabi/include/c++/10.2.1/variant ****   template<typename _Tp, typename _First, typename... _Rest>
 726:/usr/share/gcc-arm-none-eabi-10-2020-q4-major/arm-none-eabi/include/c++/10.2.1/variant ****     struct __tuple_count<_Tp, tuple<_First, _Rest...>>
 727:/usr/share/gcc-arm-none-eabi-10-2020-q4-major/arm-none-eabi/include/c++/10.2.1/variant ****     : integral_constant<
 728:/usr/share/gcc-arm-none-eabi-10-2020-q4-major/arm-none-eabi/include/c++/10.2.1/variant **** 	size_t,
 729:/usr/share/gcc-arm-none-eabi-10-2020-q4-major/arm-none-eabi/include/c++/10.2.1/variant **** 	__tuple_count_v<_Tp, tuple<_Rest...>> + is_same_v<_Tp, _First>> { };
 730:/usr/share/gcc-arm-none-eabi-10-2020-q4-major/arm-none-eabi/include/c++/10.2.1/variant **** 
 731:/usr/share/gcc-arm-none-eabi-10-2020-q4-major/arm-none-eabi/include/c++/10.2.1/variant ****   // TODO: Reuse this in <tuple> ?
 732:/usr/share/gcc-arm-none-eabi-10-2020-q4-major/arm-none-eabi/include/c++/10.2.1/variant ****   template<typename _Tp, typename... _Types>
 733:/usr/share/gcc-arm-none-eabi-10-2020-q4-major/arm-none-eabi/include/c++/10.2.1/variant ****     inline constexpr bool __exactly_once =
 734:/usr/share/gcc-arm-none-eabi-10-2020-q4-major/arm-none-eabi/include/c++/10.2.1/variant ****       __tuple_count_v<_Tp, tuple<_Types...>> == 1;
 735:/usr/share/gcc-arm-none-eabi-10-2020-q4-major/arm-none-eabi/include/c++/10.2.1/variant **** 
 736:/usr/share/gcc-arm-none-eabi-10-2020-q4-major/arm-none-eabi/include/c++/10.2.1/variant ****   // Helper used to check for valid conversions that don't involve narrowing.
 737:/usr/share/gcc-arm-none-eabi-10-2020-q4-major/arm-none-eabi/include/c++/10.2.1/variant ****   template<typename _Ti> struct _Arr { _Ti _M_x[1]; };
 738:/usr/share/gcc-arm-none-eabi-10-2020-q4-major/arm-none-eabi/include/c++/10.2.1/variant **** 
 739:/usr/share/gcc-arm-none-eabi-10-2020-q4-major/arm-none-eabi/include/c++/10.2.1/variant ****   // Build an imaginary function FUN(Ti) for each alternative type Ti
 740:/usr/share/gcc-arm-none-eabi-10-2020-q4-major/arm-none-eabi/include/c++/10.2.1/variant ****   template<size_t _Ind, typename _Tp, typename _Ti,
 741:/usr/share/gcc-arm-none-eabi-10-2020-q4-major/arm-none-eabi/include/c++/10.2.1/variant **** 	   bool _Ti_is_cv_bool = is_same_v<remove_cv_t<_Ti>, bool>,
 742:/usr/share/gcc-arm-none-eabi-10-2020-q4-major/arm-none-eabi/include/c++/10.2.1/variant **** 	   typename = void>
 743:/usr/share/gcc-arm-none-eabi-10-2020-q4-major/arm-none-eabi/include/c++/10.2.1/variant ****     struct _Build_FUN
 744:/usr/share/gcc-arm-none-eabi-10-2020-q4-major/arm-none-eabi/include/c++/10.2.1/variant ****     {
 745:/usr/share/gcc-arm-none-eabi-10-2020-q4-major/arm-none-eabi/include/c++/10.2.1/variant ****       // This function means 'using _Build_FUN<I, T, Ti>::_S_fun;' is valid,
 746:/usr/share/gcc-arm-none-eabi-10-2020-q4-major/arm-none-eabi/include/c++/10.2.1/variant ****       // but only static functions will be considered in the call below.
 747:/usr/share/gcc-arm-none-eabi-10-2020-q4-major/arm-none-eabi/include/c++/10.2.1/variant ****       void _S_fun();
 748:/usr/share/gcc-arm-none-eabi-10-2020-q4-major/arm-none-eabi/include/c++/10.2.1/variant ****     };
 749:/usr/share/gcc-arm-none-eabi-10-2020-q4-major/arm-none-eabi/include/c++/10.2.1/variant **** 
 750:/usr/share/gcc-arm-none-eabi-10-2020-q4-major/arm-none-eabi/include/c++/10.2.1/variant ****   // ... for which Ti x[] = {std::forward<T>(t)}; is well-formed,
 751:/usr/share/gcc-arm-none-eabi-10-2020-q4-major/arm-none-eabi/include/c++/10.2.1/variant ****   template<size_t _Ind, typename _Tp, typename _Ti>
 752:/usr/share/gcc-arm-none-eabi-10-2020-q4-major/arm-none-eabi/include/c++/10.2.1/variant ****     struct _Build_FUN<_Ind, _Tp, _Ti, false,
 753:/usr/share/gcc-arm-none-eabi-10-2020-q4-major/arm-none-eabi/include/c++/10.2.1/variant **** 		      void_t<decltype(_Arr<_Ti>{{std::declval<_Tp>()}})>>
 754:/usr/share/gcc-arm-none-eabi-10-2020-q4-major/arm-none-eabi/include/c++/10.2.1/variant ****     {
 755:/usr/share/gcc-arm-none-eabi-10-2020-q4-major/arm-none-eabi/include/c++/10.2.1/variant ****       // This is the FUN function for type _Ti, with index _Ind
 756:/usr/share/gcc-arm-none-eabi-10-2020-q4-major/arm-none-eabi/include/c++/10.2.1/variant ****       static integral_constant<size_t, _Ind> _S_fun(_Ti);
 757:/usr/share/gcc-arm-none-eabi-10-2020-q4-major/arm-none-eabi/include/c++/10.2.1/variant ****     };
 758:/usr/share/gcc-arm-none-eabi-10-2020-q4-major/arm-none-eabi/include/c++/10.2.1/variant **** 
 759:/usr/share/gcc-arm-none-eabi-10-2020-q4-major/arm-none-eabi/include/c++/10.2.1/variant ****   // ... and if Ti is cv bool, remove_cvref_t<T> is bool.
 760:/usr/share/gcc-arm-none-eabi-10-2020-q4-major/arm-none-eabi/include/c++/10.2.1/variant ****   template<size_t _Ind, typename _Tp, typename _Ti>
 761:/usr/share/gcc-arm-none-eabi-10-2020-q4-major/arm-none-eabi/include/c++/10.2.1/variant ****     struct _Build_FUN<_Ind, _Tp, _Ti, true,
 762:/usr/share/gcc-arm-none-eabi-10-2020-q4-major/arm-none-eabi/include/c++/10.2.1/variant **** 		      enable_if_t<is_same_v<__remove_cvref_t<_Tp>, bool>>>
 763:/usr/share/gcc-arm-none-eabi-10-2020-q4-major/arm-none-eabi/include/c++/10.2.1/variant ****     {
 764:/usr/share/gcc-arm-none-eabi-10-2020-q4-major/arm-none-eabi/include/c++/10.2.1/variant ****       // This is the FUN function for when _Ti is cv bool, with index _Ind
 765:/usr/share/gcc-arm-none-eabi-10-2020-q4-major/arm-none-eabi/include/c++/10.2.1/variant ****       static integral_constant<size_t, _Ind> _S_fun(_Ti);
 766:/usr/share/gcc-arm-none-eabi-10-2020-q4-major/arm-none-eabi/include/c++/10.2.1/variant ****     };
 767:/usr/share/gcc-arm-none-eabi-10-2020-q4-major/arm-none-eabi/include/c++/10.2.1/variant **** 
 768:/usr/share/gcc-arm-none-eabi-10-2020-q4-major/arm-none-eabi/include/c++/10.2.1/variant ****   template<typename _Tp, typename _Variant,
 769:/usr/share/gcc-arm-none-eabi-10-2020-q4-major/arm-none-eabi/include/c++/10.2.1/variant **** 	   typename = make_index_sequence<variant_size_v<_Variant>>>
 770:/usr/share/gcc-arm-none-eabi-10-2020-q4-major/arm-none-eabi/include/c++/10.2.1/variant ****     struct _Build_FUNs;
 771:/usr/share/gcc-arm-none-eabi-10-2020-q4-major/arm-none-eabi/include/c++/10.2.1/variant **** 
 772:/usr/share/gcc-arm-none-eabi-10-2020-q4-major/arm-none-eabi/include/c++/10.2.1/variant ****   template<typename _Tp, typename... _Ti, size_t... _Ind>
 773:/usr/share/gcc-arm-none-eabi-10-2020-q4-major/arm-none-eabi/include/c++/10.2.1/variant ****     struct _Build_FUNs<_Tp, variant<_Ti...>, index_sequence<_Ind...>>
 774:/usr/share/gcc-arm-none-eabi-10-2020-q4-major/arm-none-eabi/include/c++/10.2.1/variant ****     : _Build_FUN<_Ind, _Tp, _Ti>...
 775:/usr/share/gcc-arm-none-eabi-10-2020-q4-major/arm-none-eabi/include/c++/10.2.1/variant ****     {
 776:/usr/share/gcc-arm-none-eabi-10-2020-q4-major/arm-none-eabi/include/c++/10.2.1/variant ****       using _Build_FUN<_Ind, _Tp, _Ti>::_S_fun...;
 777:/usr/share/gcc-arm-none-eabi-10-2020-q4-major/arm-none-eabi/include/c++/10.2.1/variant ****     };
 778:/usr/share/gcc-arm-none-eabi-10-2020-q4-major/arm-none-eabi/include/c++/10.2.1/variant **** 
 779:/usr/share/gcc-arm-none-eabi-10-2020-q4-major/arm-none-eabi/include/c++/10.2.1/variant ****   // The index j of the overload FUN(Tj) selected by overload resolution
ARM GAS  /tmp/ccqv0h9S.s 			page 19


 780:/usr/share/gcc-arm-none-eabi-10-2020-q4-major/arm-none-eabi/include/c++/10.2.1/variant ****   // for FUN(std::forward<_Tp>(t))
 781:/usr/share/gcc-arm-none-eabi-10-2020-q4-major/arm-none-eabi/include/c++/10.2.1/variant ****   template<typename _Tp, typename _Variant>
 782:/usr/share/gcc-arm-none-eabi-10-2020-q4-major/arm-none-eabi/include/c++/10.2.1/variant ****     using _FUN_type
 783:/usr/share/gcc-arm-none-eabi-10-2020-q4-major/arm-none-eabi/include/c++/10.2.1/variant ****       = decltype(_Build_FUNs<_Tp, _Variant>::_S_fun(std::declval<_Tp>()));
 784:/usr/share/gcc-arm-none-eabi-10-2020-q4-major/arm-none-eabi/include/c++/10.2.1/variant **** 
 785:/usr/share/gcc-arm-none-eabi-10-2020-q4-major/arm-none-eabi/include/c++/10.2.1/variant ****   // The index selected for FUN(std::forward<T>(t)), or variant_npos if none.
 786:/usr/share/gcc-arm-none-eabi-10-2020-q4-major/arm-none-eabi/include/c++/10.2.1/variant ****   template<typename _Tp, typename _Variant, typename = void>
 787:/usr/share/gcc-arm-none-eabi-10-2020-q4-major/arm-none-eabi/include/c++/10.2.1/variant ****     struct __accepted_index
 788:/usr/share/gcc-arm-none-eabi-10-2020-q4-major/arm-none-eabi/include/c++/10.2.1/variant ****     : integral_constant<size_t, variant_npos>
 789:/usr/share/gcc-arm-none-eabi-10-2020-q4-major/arm-none-eabi/include/c++/10.2.1/variant ****     { };
 790:/usr/share/gcc-arm-none-eabi-10-2020-q4-major/arm-none-eabi/include/c++/10.2.1/variant **** 
 791:/usr/share/gcc-arm-none-eabi-10-2020-q4-major/arm-none-eabi/include/c++/10.2.1/variant ****   template<typename _Tp, typename _Variant>
 792:/usr/share/gcc-arm-none-eabi-10-2020-q4-major/arm-none-eabi/include/c++/10.2.1/variant ****     struct __accepted_index<_Tp, _Variant, void_t<_FUN_type<_Tp, _Variant>>>
 793:/usr/share/gcc-arm-none-eabi-10-2020-q4-major/arm-none-eabi/include/c++/10.2.1/variant ****     : _FUN_type<_Tp, _Variant>
 794:/usr/share/gcc-arm-none-eabi-10-2020-q4-major/arm-none-eabi/include/c++/10.2.1/variant ****     { };
 795:/usr/share/gcc-arm-none-eabi-10-2020-q4-major/arm-none-eabi/include/c++/10.2.1/variant **** 
 796:/usr/share/gcc-arm-none-eabi-10-2020-q4-major/arm-none-eabi/include/c++/10.2.1/variant ****   // Returns the raw storage for __v.
 797:/usr/share/gcc-arm-none-eabi-10-2020-q4-major/arm-none-eabi/include/c++/10.2.1/variant ****   template<typename _Variant>
 798:/usr/share/gcc-arm-none-eabi-10-2020-q4-major/arm-none-eabi/include/c++/10.2.1/variant ****     void* __get_storage(_Variant&& __v) noexcept
 799:/usr/share/gcc-arm-none-eabi-10-2020-q4-major/arm-none-eabi/include/c++/10.2.1/variant ****     { return __v._M_storage(); }
 800:/usr/share/gcc-arm-none-eabi-10-2020-q4-major/arm-none-eabi/include/c++/10.2.1/variant **** 
 801:/usr/share/gcc-arm-none-eabi-10-2020-q4-major/arm-none-eabi/include/c++/10.2.1/variant ****   template <typename _Maybe_variant_cookie, typename _Variant>
 802:/usr/share/gcc-arm-none-eabi-10-2020-q4-major/arm-none-eabi/include/c++/10.2.1/variant ****     struct _Extra_visit_slot_needed
 803:/usr/share/gcc-arm-none-eabi-10-2020-q4-major/arm-none-eabi/include/c++/10.2.1/variant ****     {
 804:/usr/share/gcc-arm-none-eabi-10-2020-q4-major/arm-none-eabi/include/c++/10.2.1/variant ****       template <typename> struct _Variant_never_valueless;
 805:/usr/share/gcc-arm-none-eabi-10-2020-q4-major/arm-none-eabi/include/c++/10.2.1/variant **** 
 806:/usr/share/gcc-arm-none-eabi-10-2020-q4-major/arm-none-eabi/include/c++/10.2.1/variant ****       template <typename... _Types>
 807:/usr/share/gcc-arm-none-eabi-10-2020-q4-major/arm-none-eabi/include/c++/10.2.1/variant **** 	struct _Variant_never_valueless<variant<_Types...>>
 808:/usr/share/gcc-arm-none-eabi-10-2020-q4-major/arm-none-eabi/include/c++/10.2.1/variant **** 	: bool_constant<__variant::__never_valueless<_Types...>()> {};
 809:/usr/share/gcc-arm-none-eabi-10-2020-q4-major/arm-none-eabi/include/c++/10.2.1/variant **** 
 810:/usr/share/gcc-arm-none-eabi-10-2020-q4-major/arm-none-eabi/include/c++/10.2.1/variant ****       static constexpr bool value =
 811:/usr/share/gcc-arm-none-eabi-10-2020-q4-major/arm-none-eabi/include/c++/10.2.1/variant **** 	(is_same_v<_Maybe_variant_cookie, __variant_cookie>
 812:/usr/share/gcc-arm-none-eabi-10-2020-q4-major/arm-none-eabi/include/c++/10.2.1/variant **** 	 || is_same_v<_Maybe_variant_cookie, __variant_idx_cookie>)
 813:/usr/share/gcc-arm-none-eabi-10-2020-q4-major/arm-none-eabi/include/c++/10.2.1/variant **** 	&& !_Variant_never_valueless<__remove_cvref_t<_Variant>>::value;
 814:/usr/share/gcc-arm-none-eabi-10-2020-q4-major/arm-none-eabi/include/c++/10.2.1/variant ****     };
 815:/usr/share/gcc-arm-none-eabi-10-2020-q4-major/arm-none-eabi/include/c++/10.2.1/variant **** 
 816:/usr/share/gcc-arm-none-eabi-10-2020-q4-major/arm-none-eabi/include/c++/10.2.1/variant ****   // Used for storing a multi-dimensional vtable.
 817:/usr/share/gcc-arm-none-eabi-10-2020-q4-major/arm-none-eabi/include/c++/10.2.1/variant ****   template<typename _Tp, size_t... _Dimensions>
 818:/usr/share/gcc-arm-none-eabi-10-2020-q4-major/arm-none-eabi/include/c++/10.2.1/variant ****     struct _Multi_array;
 819:/usr/share/gcc-arm-none-eabi-10-2020-q4-major/arm-none-eabi/include/c++/10.2.1/variant **** 
 820:/usr/share/gcc-arm-none-eabi-10-2020-q4-major/arm-none-eabi/include/c++/10.2.1/variant ****   // Partial specialization with rank zero, stores a single _Tp element.
 821:/usr/share/gcc-arm-none-eabi-10-2020-q4-major/arm-none-eabi/include/c++/10.2.1/variant ****   template<typename _Tp>
 822:/usr/share/gcc-arm-none-eabi-10-2020-q4-major/arm-none-eabi/include/c++/10.2.1/variant ****     struct _Multi_array<_Tp>
 823:/usr/share/gcc-arm-none-eabi-10-2020-q4-major/arm-none-eabi/include/c++/10.2.1/variant ****     {
 824:/usr/share/gcc-arm-none-eabi-10-2020-q4-major/arm-none-eabi/include/c++/10.2.1/variant ****       template<typename>
 825:/usr/share/gcc-arm-none-eabi-10-2020-q4-major/arm-none-eabi/include/c++/10.2.1/variant **** 	struct __untag_result
 826:/usr/share/gcc-arm-none-eabi-10-2020-q4-major/arm-none-eabi/include/c++/10.2.1/variant **** 	: false_type
 827:/usr/share/gcc-arm-none-eabi-10-2020-q4-major/arm-none-eabi/include/c++/10.2.1/variant **** 	{ using element_type = _Tp; };
 828:/usr/share/gcc-arm-none-eabi-10-2020-q4-major/arm-none-eabi/include/c++/10.2.1/variant **** 
 829:/usr/share/gcc-arm-none-eabi-10-2020-q4-major/arm-none-eabi/include/c++/10.2.1/variant ****       template <typename... _Args>
 830:/usr/share/gcc-arm-none-eabi-10-2020-q4-major/arm-none-eabi/include/c++/10.2.1/variant **** 	struct __untag_result<const void(*)(_Args...)>
 831:/usr/share/gcc-arm-none-eabi-10-2020-q4-major/arm-none-eabi/include/c++/10.2.1/variant **** 	: false_type
 832:/usr/share/gcc-arm-none-eabi-10-2020-q4-major/arm-none-eabi/include/c++/10.2.1/variant **** 	{ using element_type = void(*)(_Args...); };
 833:/usr/share/gcc-arm-none-eabi-10-2020-q4-major/arm-none-eabi/include/c++/10.2.1/variant **** 
 834:/usr/share/gcc-arm-none-eabi-10-2020-q4-major/arm-none-eabi/include/c++/10.2.1/variant ****       template <typename... _Args>
 835:/usr/share/gcc-arm-none-eabi-10-2020-q4-major/arm-none-eabi/include/c++/10.2.1/variant **** 	struct __untag_result<__variant_cookie(*)(_Args...)>
 836:/usr/share/gcc-arm-none-eabi-10-2020-q4-major/arm-none-eabi/include/c++/10.2.1/variant **** 	: false_type
ARM GAS  /tmp/ccqv0h9S.s 			page 20


 837:/usr/share/gcc-arm-none-eabi-10-2020-q4-major/arm-none-eabi/include/c++/10.2.1/variant **** 	{ using element_type = void(*)(_Args...); };
 838:/usr/share/gcc-arm-none-eabi-10-2020-q4-major/arm-none-eabi/include/c++/10.2.1/variant **** 
 839:/usr/share/gcc-arm-none-eabi-10-2020-q4-major/arm-none-eabi/include/c++/10.2.1/variant ****       template <typename... _Args>
 840:/usr/share/gcc-arm-none-eabi-10-2020-q4-major/arm-none-eabi/include/c++/10.2.1/variant **** 	struct __untag_result<__variant_idx_cookie(*)(_Args...)>
 841:/usr/share/gcc-arm-none-eabi-10-2020-q4-major/arm-none-eabi/include/c++/10.2.1/variant **** 	: false_type
 842:/usr/share/gcc-arm-none-eabi-10-2020-q4-major/arm-none-eabi/include/c++/10.2.1/variant **** 	{ using element_type = void(*)(_Args...); };
 843:/usr/share/gcc-arm-none-eabi-10-2020-q4-major/arm-none-eabi/include/c++/10.2.1/variant **** 
 844:/usr/share/gcc-arm-none-eabi-10-2020-q4-major/arm-none-eabi/include/c++/10.2.1/variant ****       template <typename _Res, typename... _Args>
 845:/usr/share/gcc-arm-none-eabi-10-2020-q4-major/arm-none-eabi/include/c++/10.2.1/variant **** 	struct __untag_result<__deduce_visit_result<_Res>(*)(_Args...)>
 846:/usr/share/gcc-arm-none-eabi-10-2020-q4-major/arm-none-eabi/include/c++/10.2.1/variant **** 	: true_type
 847:/usr/share/gcc-arm-none-eabi-10-2020-q4-major/arm-none-eabi/include/c++/10.2.1/variant **** 	{ using element_type = _Res(*)(_Args...); };
 848:/usr/share/gcc-arm-none-eabi-10-2020-q4-major/arm-none-eabi/include/c++/10.2.1/variant **** 
 849:/usr/share/gcc-arm-none-eabi-10-2020-q4-major/arm-none-eabi/include/c++/10.2.1/variant ****       using __result_is_deduced = __untag_result<_Tp>;
 850:/usr/share/gcc-arm-none-eabi-10-2020-q4-major/arm-none-eabi/include/c++/10.2.1/variant **** 
 851:/usr/share/gcc-arm-none-eabi-10-2020-q4-major/arm-none-eabi/include/c++/10.2.1/variant ****       constexpr const typename __untag_result<_Tp>::element_type&
 852:/usr/share/gcc-arm-none-eabi-10-2020-q4-major/arm-none-eabi/include/c++/10.2.1/variant ****       _M_access() const
 853:/usr/share/gcc-arm-none-eabi-10-2020-q4-major/arm-none-eabi/include/c++/10.2.1/variant ****       { return _M_data; }
 854:/usr/share/gcc-arm-none-eabi-10-2020-q4-major/arm-none-eabi/include/c++/10.2.1/variant **** 
 855:/usr/share/gcc-arm-none-eabi-10-2020-q4-major/arm-none-eabi/include/c++/10.2.1/variant ****       typename __untag_result<_Tp>::element_type _M_data;
 856:/usr/share/gcc-arm-none-eabi-10-2020-q4-major/arm-none-eabi/include/c++/10.2.1/variant ****     };
 857:/usr/share/gcc-arm-none-eabi-10-2020-q4-major/arm-none-eabi/include/c++/10.2.1/variant **** 
 858:/usr/share/gcc-arm-none-eabi-10-2020-q4-major/arm-none-eabi/include/c++/10.2.1/variant ****   // Partial specialization with rank >= 1.
 859:/usr/share/gcc-arm-none-eabi-10-2020-q4-major/arm-none-eabi/include/c++/10.2.1/variant ****   template<typename _Ret,
 860:/usr/share/gcc-arm-none-eabi-10-2020-q4-major/arm-none-eabi/include/c++/10.2.1/variant **** 	   typename _Visitor,
 861:/usr/share/gcc-arm-none-eabi-10-2020-q4-major/arm-none-eabi/include/c++/10.2.1/variant **** 	   typename... _Variants,
 862:/usr/share/gcc-arm-none-eabi-10-2020-q4-major/arm-none-eabi/include/c++/10.2.1/variant **** 	   size_t __first, size_t... __rest>
 863:/usr/share/gcc-arm-none-eabi-10-2020-q4-major/arm-none-eabi/include/c++/10.2.1/variant ****     struct _Multi_array<_Ret(*)(_Visitor, _Variants...), __first, __rest...>
 864:/usr/share/gcc-arm-none-eabi-10-2020-q4-major/arm-none-eabi/include/c++/10.2.1/variant ****     {
 865:/usr/share/gcc-arm-none-eabi-10-2020-q4-major/arm-none-eabi/include/c++/10.2.1/variant ****       static constexpr size_t __index =
 866:/usr/share/gcc-arm-none-eabi-10-2020-q4-major/arm-none-eabi/include/c++/10.2.1/variant **** 	sizeof...(_Variants) - sizeof...(__rest) - 1;
 867:/usr/share/gcc-arm-none-eabi-10-2020-q4-major/arm-none-eabi/include/c++/10.2.1/variant **** 
 868:/usr/share/gcc-arm-none-eabi-10-2020-q4-major/arm-none-eabi/include/c++/10.2.1/variant ****       using _Variant = typename _Nth_type<__index, _Variants...>::type;
 869:/usr/share/gcc-arm-none-eabi-10-2020-q4-major/arm-none-eabi/include/c++/10.2.1/variant **** 
 870:/usr/share/gcc-arm-none-eabi-10-2020-q4-major/arm-none-eabi/include/c++/10.2.1/variant ****       static constexpr int __do_cookie =
 871:/usr/share/gcc-arm-none-eabi-10-2020-q4-major/arm-none-eabi/include/c++/10.2.1/variant **** 	_Extra_visit_slot_needed<_Ret, _Variant>::value ? 1 : 0;
 872:/usr/share/gcc-arm-none-eabi-10-2020-q4-major/arm-none-eabi/include/c++/10.2.1/variant **** 
 873:/usr/share/gcc-arm-none-eabi-10-2020-q4-major/arm-none-eabi/include/c++/10.2.1/variant ****       using _Tp = _Ret(*)(_Visitor, _Variants...);
 874:/usr/share/gcc-arm-none-eabi-10-2020-q4-major/arm-none-eabi/include/c++/10.2.1/variant **** 
 875:/usr/share/gcc-arm-none-eabi-10-2020-q4-major/arm-none-eabi/include/c++/10.2.1/variant ****       template<typename... _Args>
 876:/usr/share/gcc-arm-none-eabi-10-2020-q4-major/arm-none-eabi/include/c++/10.2.1/variant **** 	constexpr decltype(auto)
 877:/usr/share/gcc-arm-none-eabi-10-2020-q4-major/arm-none-eabi/include/c++/10.2.1/variant **** 	_M_access(size_t __first_index, _Args... __rest_indices) const
 878:/usr/share/gcc-arm-none-eabi-10-2020-q4-major/arm-none-eabi/include/c++/10.2.1/variant ****         {
 879:/usr/share/gcc-arm-none-eabi-10-2020-q4-major/arm-none-eabi/include/c++/10.2.1/variant **** 	  return _M_arr[__first_index + __do_cookie]
 880:/usr/share/gcc-arm-none-eabi-10-2020-q4-major/arm-none-eabi/include/c++/10.2.1/variant **** 	    ._M_access(__rest_indices...);
 881:/usr/share/gcc-arm-none-eabi-10-2020-q4-major/arm-none-eabi/include/c++/10.2.1/variant **** 	}
 882:/usr/share/gcc-arm-none-eabi-10-2020-q4-major/arm-none-eabi/include/c++/10.2.1/variant **** 
 883:/usr/share/gcc-arm-none-eabi-10-2020-q4-major/arm-none-eabi/include/c++/10.2.1/variant ****       _Multi_array<_Tp, __rest...> _M_arr[__first + __do_cookie];
 884:/usr/share/gcc-arm-none-eabi-10-2020-q4-major/arm-none-eabi/include/c++/10.2.1/variant ****     };
 885:/usr/share/gcc-arm-none-eabi-10-2020-q4-major/arm-none-eabi/include/c++/10.2.1/variant **** 
 886:/usr/share/gcc-arm-none-eabi-10-2020-q4-major/arm-none-eabi/include/c++/10.2.1/variant ****   // Creates a multi-dimensional vtable recursively.
 887:/usr/share/gcc-arm-none-eabi-10-2020-q4-major/arm-none-eabi/include/c++/10.2.1/variant ****   //
 888:/usr/share/gcc-arm-none-eabi-10-2020-q4-major/arm-none-eabi/include/c++/10.2.1/variant ****   // For example,
 889:/usr/share/gcc-arm-none-eabi-10-2020-q4-major/arm-none-eabi/include/c++/10.2.1/variant ****   // visit([](auto, auto){},
 890:/usr/share/gcc-arm-none-eabi-10-2020-q4-major/arm-none-eabi/include/c++/10.2.1/variant ****   //       variant<int, char>(),  // typedef'ed as V1
 891:/usr/share/gcc-arm-none-eabi-10-2020-q4-major/arm-none-eabi/include/c++/10.2.1/variant ****   //       variant<float, double, long double>())  // typedef'ed as V2
 892:/usr/share/gcc-arm-none-eabi-10-2020-q4-major/arm-none-eabi/include/c++/10.2.1/variant ****   // will trigger instantiations of:
 893:/usr/share/gcc-arm-none-eabi-10-2020-q4-major/arm-none-eabi/include/c++/10.2.1/variant ****   // __gen_vtable_impl<_Multi_array<void(*)(V1&&, V2&&), 2, 3>,
ARM GAS  /tmp/ccqv0h9S.s 			page 21


 894:/usr/share/gcc-arm-none-eabi-10-2020-q4-major/arm-none-eabi/include/c++/10.2.1/variant ****   //                   tuple<V1&&, V2&&>, std::index_sequence<>>
 895:/usr/share/gcc-arm-none-eabi-10-2020-q4-major/arm-none-eabi/include/c++/10.2.1/variant ****   //   __gen_vtable_impl<_Multi_array<void(*)(V1&&, V2&&), 3>,
 896:/usr/share/gcc-arm-none-eabi-10-2020-q4-major/arm-none-eabi/include/c++/10.2.1/variant ****   //                     tuple<V1&&, V2&&>, std::index_sequence<0>>
 897:/usr/share/gcc-arm-none-eabi-10-2020-q4-major/arm-none-eabi/include/c++/10.2.1/variant ****   //     __gen_vtable_impl<_Multi_array<void(*)(V1&&, V2&&)>,
 898:/usr/share/gcc-arm-none-eabi-10-2020-q4-major/arm-none-eabi/include/c++/10.2.1/variant ****   //                       tuple<V1&&, V2&&>, std::index_sequence<0, 0>>
 899:/usr/share/gcc-arm-none-eabi-10-2020-q4-major/arm-none-eabi/include/c++/10.2.1/variant ****   //     __gen_vtable_impl<_Multi_array<void(*)(V1&&, V2&&)>,
 900:/usr/share/gcc-arm-none-eabi-10-2020-q4-major/arm-none-eabi/include/c++/10.2.1/variant ****   //                       tuple<V1&&, V2&&>, std::index_sequence<0, 1>>
 901:/usr/share/gcc-arm-none-eabi-10-2020-q4-major/arm-none-eabi/include/c++/10.2.1/variant ****   //     __gen_vtable_impl<_Multi_array<void(*)(V1&&, V2&&)>,
 902:/usr/share/gcc-arm-none-eabi-10-2020-q4-major/arm-none-eabi/include/c++/10.2.1/variant ****   //                       tuple<V1&&, V2&&>, std::index_sequence<0, 2>>
 903:/usr/share/gcc-arm-none-eabi-10-2020-q4-major/arm-none-eabi/include/c++/10.2.1/variant ****   //   __gen_vtable_impl<_Multi_array<void(*)(V1&&, V2&&), 3>,
 904:/usr/share/gcc-arm-none-eabi-10-2020-q4-major/arm-none-eabi/include/c++/10.2.1/variant ****   //                     tuple<V1&&, V2&&>, std::index_sequence<1>>
 905:/usr/share/gcc-arm-none-eabi-10-2020-q4-major/arm-none-eabi/include/c++/10.2.1/variant ****   //     __gen_vtable_impl<_Multi_array<void(*)(V1&&, V2&&)>,
 906:/usr/share/gcc-arm-none-eabi-10-2020-q4-major/arm-none-eabi/include/c++/10.2.1/variant ****   //                       tuple<V1&&, V2&&>, std::index_sequence<1, 0>>
 907:/usr/share/gcc-arm-none-eabi-10-2020-q4-major/arm-none-eabi/include/c++/10.2.1/variant ****   //     __gen_vtable_impl<_Multi_array<void(*)(V1&&, V2&&)>,
 908:/usr/share/gcc-arm-none-eabi-10-2020-q4-major/arm-none-eabi/include/c++/10.2.1/variant ****   //                       tuple<V1&&, V2&&>, std::index_sequence<1, 1>>
 909:/usr/share/gcc-arm-none-eabi-10-2020-q4-major/arm-none-eabi/include/c++/10.2.1/variant ****   //     __gen_vtable_impl<_Multi_array<void(*)(V1&&, V2&&)>,
 910:/usr/share/gcc-arm-none-eabi-10-2020-q4-major/arm-none-eabi/include/c++/10.2.1/variant ****   //                       tuple<V1&&, V2&&>, std::index_sequence<1, 2>>
 911:/usr/share/gcc-arm-none-eabi-10-2020-q4-major/arm-none-eabi/include/c++/10.2.1/variant ****   // The returned multi-dimensional vtable can be fast accessed by the visitor
 912:/usr/share/gcc-arm-none-eabi-10-2020-q4-major/arm-none-eabi/include/c++/10.2.1/variant ****   // using index calculation.
 913:/usr/share/gcc-arm-none-eabi-10-2020-q4-major/arm-none-eabi/include/c++/10.2.1/variant ****   template<typename _Array_type, typename _Index_seq>
 914:/usr/share/gcc-arm-none-eabi-10-2020-q4-major/arm-none-eabi/include/c++/10.2.1/variant ****     struct __gen_vtable_impl;
 915:/usr/share/gcc-arm-none-eabi-10-2020-q4-major/arm-none-eabi/include/c++/10.2.1/variant **** 
 916:/usr/share/gcc-arm-none-eabi-10-2020-q4-major/arm-none-eabi/include/c++/10.2.1/variant ****   // Defines the _S_apply() member that returns a _Multi_array populated
 917:/usr/share/gcc-arm-none-eabi-10-2020-q4-major/arm-none-eabi/include/c++/10.2.1/variant ****   // with function pointers that perform the visitation expressions e(m)
 918:/usr/share/gcc-arm-none-eabi-10-2020-q4-major/arm-none-eabi/include/c++/10.2.1/variant ****   // for each valid pack of indexes into the variant types _Variants.
 919:/usr/share/gcc-arm-none-eabi-10-2020-q4-major/arm-none-eabi/include/c++/10.2.1/variant ****   //
 920:/usr/share/gcc-arm-none-eabi-10-2020-q4-major/arm-none-eabi/include/c++/10.2.1/variant ****   // This partial specialization builds up the index sequences by recursively
 921:/usr/share/gcc-arm-none-eabi-10-2020-q4-major/arm-none-eabi/include/c++/10.2.1/variant ****   // calling _S_apply() on the next specialization of __gen_vtable_impl.
 922:/usr/share/gcc-arm-none-eabi-10-2020-q4-major/arm-none-eabi/include/c++/10.2.1/variant ****   // The base case of the recursion defines the actual function pointers.
 923:/usr/share/gcc-arm-none-eabi-10-2020-q4-major/arm-none-eabi/include/c++/10.2.1/variant ****   template<typename _Result_type, typename _Visitor, size_t... __dimensions,
 924:/usr/share/gcc-arm-none-eabi-10-2020-q4-major/arm-none-eabi/include/c++/10.2.1/variant **** 	   typename... _Variants, size_t... __indices>
 925:/usr/share/gcc-arm-none-eabi-10-2020-q4-major/arm-none-eabi/include/c++/10.2.1/variant ****     struct __gen_vtable_impl<
 926:/usr/share/gcc-arm-none-eabi-10-2020-q4-major/arm-none-eabi/include/c++/10.2.1/variant **** 	_Multi_array<_Result_type (*)(_Visitor, _Variants...), __dimensions...>,
 927:/usr/share/gcc-arm-none-eabi-10-2020-q4-major/arm-none-eabi/include/c++/10.2.1/variant **** 	std::index_sequence<__indices...>>
 928:/usr/share/gcc-arm-none-eabi-10-2020-q4-major/arm-none-eabi/include/c++/10.2.1/variant ****     {
 929:/usr/share/gcc-arm-none-eabi-10-2020-q4-major/arm-none-eabi/include/c++/10.2.1/variant ****       using _Next =
 930:/usr/share/gcc-arm-none-eabi-10-2020-q4-major/arm-none-eabi/include/c++/10.2.1/variant **** 	  remove_reference_t<typename _Nth_type<sizeof...(__indices),
 931:/usr/share/gcc-arm-none-eabi-10-2020-q4-major/arm-none-eabi/include/c++/10.2.1/variant **** 			     _Variants...>::type>;
 932:/usr/share/gcc-arm-none-eabi-10-2020-q4-major/arm-none-eabi/include/c++/10.2.1/variant ****       using _Array_type =
 933:/usr/share/gcc-arm-none-eabi-10-2020-q4-major/arm-none-eabi/include/c++/10.2.1/variant **** 	  _Multi_array<_Result_type (*)(_Visitor, _Variants...),
 934:/usr/share/gcc-arm-none-eabi-10-2020-q4-major/arm-none-eabi/include/c++/10.2.1/variant **** 		       __dimensions...>;
 935:/usr/share/gcc-arm-none-eabi-10-2020-q4-major/arm-none-eabi/include/c++/10.2.1/variant **** 
 936:/usr/share/gcc-arm-none-eabi-10-2020-q4-major/arm-none-eabi/include/c++/10.2.1/variant ****       static constexpr _Array_type
 937:/usr/share/gcc-arm-none-eabi-10-2020-q4-major/arm-none-eabi/include/c++/10.2.1/variant ****       _S_apply()
 938:/usr/share/gcc-arm-none-eabi-10-2020-q4-major/arm-none-eabi/include/c++/10.2.1/variant ****       {
 939:/usr/share/gcc-arm-none-eabi-10-2020-q4-major/arm-none-eabi/include/c++/10.2.1/variant **** 	_Array_type __vtable{};
 940:/usr/share/gcc-arm-none-eabi-10-2020-q4-major/arm-none-eabi/include/c++/10.2.1/variant **** 	_S_apply_all_alts(
 941:/usr/share/gcc-arm-none-eabi-10-2020-q4-major/arm-none-eabi/include/c++/10.2.1/variant **** 	  __vtable, make_index_sequence<variant_size_v<_Next>>());
 942:/usr/share/gcc-arm-none-eabi-10-2020-q4-major/arm-none-eabi/include/c++/10.2.1/variant **** 	return __vtable;
 943:/usr/share/gcc-arm-none-eabi-10-2020-q4-major/arm-none-eabi/include/c++/10.2.1/variant ****       }
 944:/usr/share/gcc-arm-none-eabi-10-2020-q4-major/arm-none-eabi/include/c++/10.2.1/variant **** 
 945:/usr/share/gcc-arm-none-eabi-10-2020-q4-major/arm-none-eabi/include/c++/10.2.1/variant ****       template<size_t... __var_indices>
 946:/usr/share/gcc-arm-none-eabi-10-2020-q4-major/arm-none-eabi/include/c++/10.2.1/variant **** 	static constexpr void
 947:/usr/share/gcc-arm-none-eabi-10-2020-q4-major/arm-none-eabi/include/c++/10.2.1/variant **** 	_S_apply_all_alts(_Array_type& __vtable,
 948:/usr/share/gcc-arm-none-eabi-10-2020-q4-major/arm-none-eabi/include/c++/10.2.1/variant **** 			  std::index_sequence<__var_indices...>)
 949:/usr/share/gcc-arm-none-eabi-10-2020-q4-major/arm-none-eabi/include/c++/10.2.1/variant **** 	{
 950:/usr/share/gcc-arm-none-eabi-10-2020-q4-major/arm-none-eabi/include/c++/10.2.1/variant **** 	  if constexpr (_Extra_visit_slot_needed<_Result_type, _Next>::value)
ARM GAS  /tmp/ccqv0h9S.s 			page 22


 951:/usr/share/gcc-arm-none-eabi-10-2020-q4-major/arm-none-eabi/include/c++/10.2.1/variant **** 	    (_S_apply_single_alt<true, __var_indices>(
 952:/usr/share/gcc-arm-none-eabi-10-2020-q4-major/arm-none-eabi/include/c++/10.2.1/variant **** 	      __vtable._M_arr[__var_indices + 1],
 953:/usr/share/gcc-arm-none-eabi-10-2020-q4-major/arm-none-eabi/include/c++/10.2.1/variant **** 	      &(__vtable._M_arr[0])), ...);
 954:/usr/share/gcc-arm-none-eabi-10-2020-q4-major/arm-none-eabi/include/c++/10.2.1/variant **** 	  else
 955:/usr/share/gcc-arm-none-eabi-10-2020-q4-major/arm-none-eabi/include/c++/10.2.1/variant **** 	    (_S_apply_single_alt<false, __var_indices>(
 956:/usr/share/gcc-arm-none-eabi-10-2020-q4-major/arm-none-eabi/include/c++/10.2.1/variant **** 	      __vtable._M_arr[__var_indices]), ...);
 957:/usr/share/gcc-arm-none-eabi-10-2020-q4-major/arm-none-eabi/include/c++/10.2.1/variant **** 	}
 958:/usr/share/gcc-arm-none-eabi-10-2020-q4-major/arm-none-eabi/include/c++/10.2.1/variant **** 
 959:/usr/share/gcc-arm-none-eabi-10-2020-q4-major/arm-none-eabi/include/c++/10.2.1/variant ****       template<bool __do_cookie, size_t __index, typename _Tp>
 960:/usr/share/gcc-arm-none-eabi-10-2020-q4-major/arm-none-eabi/include/c++/10.2.1/variant **** 	static constexpr void
 961:/usr/share/gcc-arm-none-eabi-10-2020-q4-major/arm-none-eabi/include/c++/10.2.1/variant **** 	_S_apply_single_alt(_Tp& __element, _Tp* __cookie_element = nullptr)
 962:/usr/share/gcc-arm-none-eabi-10-2020-q4-major/arm-none-eabi/include/c++/10.2.1/variant **** 	{
 963:/usr/share/gcc-arm-none-eabi-10-2020-q4-major/arm-none-eabi/include/c++/10.2.1/variant **** 	  if constexpr (__do_cookie)
 964:/usr/share/gcc-arm-none-eabi-10-2020-q4-major/arm-none-eabi/include/c++/10.2.1/variant **** 	    {
 965:/usr/share/gcc-arm-none-eabi-10-2020-q4-major/arm-none-eabi/include/c++/10.2.1/variant **** 	      __element = __gen_vtable_impl<
 966:/usr/share/gcc-arm-none-eabi-10-2020-q4-major/arm-none-eabi/include/c++/10.2.1/variant **** 		_Tp,
 967:/usr/share/gcc-arm-none-eabi-10-2020-q4-major/arm-none-eabi/include/c++/10.2.1/variant **** 		std::index_sequence<__indices..., __index>>::_S_apply();
 968:/usr/share/gcc-arm-none-eabi-10-2020-q4-major/arm-none-eabi/include/c++/10.2.1/variant **** 	      *__cookie_element = __gen_vtable_impl<
 969:/usr/share/gcc-arm-none-eabi-10-2020-q4-major/arm-none-eabi/include/c++/10.2.1/variant **** 		_Tp,
 970:/usr/share/gcc-arm-none-eabi-10-2020-q4-major/arm-none-eabi/include/c++/10.2.1/variant **** 		std::index_sequence<__indices..., variant_npos>>::_S_apply();
 971:/usr/share/gcc-arm-none-eabi-10-2020-q4-major/arm-none-eabi/include/c++/10.2.1/variant **** 	    }
 972:/usr/share/gcc-arm-none-eabi-10-2020-q4-major/arm-none-eabi/include/c++/10.2.1/variant **** 	  else
 973:/usr/share/gcc-arm-none-eabi-10-2020-q4-major/arm-none-eabi/include/c++/10.2.1/variant **** 	    {
 974:/usr/share/gcc-arm-none-eabi-10-2020-q4-major/arm-none-eabi/include/c++/10.2.1/variant **** 	      __element = __gen_vtable_impl<
 975:/usr/share/gcc-arm-none-eabi-10-2020-q4-major/arm-none-eabi/include/c++/10.2.1/variant **** 		remove_reference_t<decltype(__element)>,
 976:/usr/share/gcc-arm-none-eabi-10-2020-q4-major/arm-none-eabi/include/c++/10.2.1/variant **** 		std::index_sequence<__indices..., __index>>::_S_apply();
 977:/usr/share/gcc-arm-none-eabi-10-2020-q4-major/arm-none-eabi/include/c++/10.2.1/variant **** 	    }
 978:/usr/share/gcc-arm-none-eabi-10-2020-q4-major/arm-none-eabi/include/c++/10.2.1/variant **** 	}
 979:/usr/share/gcc-arm-none-eabi-10-2020-q4-major/arm-none-eabi/include/c++/10.2.1/variant ****     };
 980:/usr/share/gcc-arm-none-eabi-10-2020-q4-major/arm-none-eabi/include/c++/10.2.1/variant **** 
 981:/usr/share/gcc-arm-none-eabi-10-2020-q4-major/arm-none-eabi/include/c++/10.2.1/variant ****   // This partial specialization is the base case for the recursion.
 982:/usr/share/gcc-arm-none-eabi-10-2020-q4-major/arm-none-eabi/include/c++/10.2.1/variant ****   // It populates a _Multi_array element with the address of a function
 983:/usr/share/gcc-arm-none-eabi-10-2020-q4-major/arm-none-eabi/include/c++/10.2.1/variant ****   // that invokes the visitor with the alternatives specified by __indices.
 984:/usr/share/gcc-arm-none-eabi-10-2020-q4-major/arm-none-eabi/include/c++/10.2.1/variant ****   template<typename _Result_type, typename _Visitor, typename... _Variants,
 985:/usr/share/gcc-arm-none-eabi-10-2020-q4-major/arm-none-eabi/include/c++/10.2.1/variant **** 	   size_t... __indices>
 986:/usr/share/gcc-arm-none-eabi-10-2020-q4-major/arm-none-eabi/include/c++/10.2.1/variant ****     struct __gen_vtable_impl<
 987:/usr/share/gcc-arm-none-eabi-10-2020-q4-major/arm-none-eabi/include/c++/10.2.1/variant ****       _Multi_array<_Result_type (*)(_Visitor, _Variants...)>,
 988:/usr/share/gcc-arm-none-eabi-10-2020-q4-major/arm-none-eabi/include/c++/10.2.1/variant **** 		   std::index_sequence<__indices...>>
 989:/usr/share/gcc-arm-none-eabi-10-2020-q4-major/arm-none-eabi/include/c++/10.2.1/variant ****     {
 990:/usr/share/gcc-arm-none-eabi-10-2020-q4-major/arm-none-eabi/include/c++/10.2.1/variant ****       using _Array_type =
 991:/usr/share/gcc-arm-none-eabi-10-2020-q4-major/arm-none-eabi/include/c++/10.2.1/variant **** 	  _Multi_array<_Result_type (*)(_Visitor, _Variants...)>;
 992:/usr/share/gcc-arm-none-eabi-10-2020-q4-major/arm-none-eabi/include/c++/10.2.1/variant **** 
 993:/usr/share/gcc-arm-none-eabi-10-2020-q4-major/arm-none-eabi/include/c++/10.2.1/variant ****       template<size_t __index, typename _Variant>
 994:/usr/share/gcc-arm-none-eabi-10-2020-q4-major/arm-none-eabi/include/c++/10.2.1/variant **** 	static constexpr decltype(auto)
 995:/usr/share/gcc-arm-none-eabi-10-2020-q4-major/arm-none-eabi/include/c++/10.2.1/variant **** 	__element_by_index_or_cookie(_Variant&& __var) noexcept
 996:/usr/share/gcc-arm-none-eabi-10-2020-q4-major/arm-none-eabi/include/c++/10.2.1/variant ****         {
 997:/usr/share/gcc-arm-none-eabi-10-2020-q4-major/arm-none-eabi/include/c++/10.2.1/variant **** 	  if constexpr (__index != variant_npos)
 998:/usr/share/gcc-arm-none-eabi-10-2020-q4-major/arm-none-eabi/include/c++/10.2.1/variant **** 	    return __variant::__get<__index>(std::forward<_Variant>(__var));
 999:/usr/share/gcc-arm-none-eabi-10-2020-q4-major/arm-none-eabi/include/c++/10.2.1/variant **** 	  else
1000:/usr/share/gcc-arm-none-eabi-10-2020-q4-major/arm-none-eabi/include/c++/10.2.1/variant **** 	    return __variant_cookie{};
1001:/usr/share/gcc-arm-none-eabi-10-2020-q4-major/arm-none-eabi/include/c++/10.2.1/variant **** 	}
1002:/usr/share/gcc-arm-none-eabi-10-2020-q4-major/arm-none-eabi/include/c++/10.2.1/variant **** 
1003:/usr/share/gcc-arm-none-eabi-10-2020-q4-major/arm-none-eabi/include/c++/10.2.1/variant ****       static constexpr decltype(auto)
1004:/usr/share/gcc-arm-none-eabi-10-2020-q4-major/arm-none-eabi/include/c++/10.2.1/variant ****       __visit_invoke(_Visitor&& __visitor, _Variants... __vars)
1005:/usr/share/gcc-arm-none-eabi-10-2020-q4-major/arm-none-eabi/include/c++/10.2.1/variant ****       {
1006:/usr/share/gcc-arm-none-eabi-10-2020-q4-major/arm-none-eabi/include/c++/10.2.1/variant **** 	if constexpr (is_same_v<_Result_type, __variant_idx_cookie>)
1007:/usr/share/gcc-arm-none-eabi-10-2020-q4-major/arm-none-eabi/include/c++/10.2.1/variant **** 	  // For raw visitation using indices, pass the indices to the visitor
ARM GAS  /tmp/ccqv0h9S.s 			page 23


1008:/usr/share/gcc-arm-none-eabi-10-2020-q4-major/arm-none-eabi/include/c++/10.2.1/variant **** 	  // and discard the return value:
1009:/usr/share/gcc-arm-none-eabi-10-2020-q4-major/arm-none-eabi/include/c++/10.2.1/variant **** 	  std::__invoke(std::forward<_Visitor>(__visitor),
1010:/usr/share/gcc-arm-none-eabi-10-2020-q4-major/arm-none-eabi/include/c++/10.2.1/variant **** 	      __element_by_index_or_cookie<__indices>(
1011:/usr/share/gcc-arm-none-eabi-10-2020-q4-major/arm-none-eabi/include/c++/10.2.1/variant **** 		std::forward<_Variants>(__vars))...,
1012:/usr/share/gcc-arm-none-eabi-10-2020-q4-major/arm-none-eabi/include/c++/10.2.1/variant **** 	      integral_constant<size_t, __indices>()...);
1013:/usr/share/gcc-arm-none-eabi-10-2020-q4-major/arm-none-eabi/include/c++/10.2.1/variant **** 	else if constexpr (is_same_v<_Result_type, __variant_cookie>)
1014:/usr/share/gcc-arm-none-eabi-10-2020-q4-major/arm-none-eabi/include/c++/10.2.1/variant **** 	  // For raw visitation without indices, and discard the return value:
1015:/usr/share/gcc-arm-none-eabi-10-2020-q4-major/arm-none-eabi/include/c++/10.2.1/variant **** 	  std::__invoke(std::forward<_Visitor>(__visitor),
1016:/usr/share/gcc-arm-none-eabi-10-2020-q4-major/arm-none-eabi/include/c++/10.2.1/variant **** 	      __element_by_index_or_cookie<__indices>(
1017:/usr/share/gcc-arm-none-eabi-10-2020-q4-major/arm-none-eabi/include/c++/10.2.1/variant **** 		std::forward<_Variants>(__vars))...);
1018:/usr/share/gcc-arm-none-eabi-10-2020-q4-major/arm-none-eabi/include/c++/10.2.1/variant **** 	else if constexpr (_Array_type::__result_is_deduced::value)
1019:/usr/share/gcc-arm-none-eabi-10-2020-q4-major/arm-none-eabi/include/c++/10.2.1/variant **** 	  // For the usual std::visit case deduce the return value:
1020:/usr/share/gcc-arm-none-eabi-10-2020-q4-major/arm-none-eabi/include/c++/10.2.1/variant **** 	  return std::__invoke(std::forward<_Visitor>(__visitor),
1021:/usr/share/gcc-arm-none-eabi-10-2020-q4-major/arm-none-eabi/include/c++/10.2.1/variant **** 	      __element_by_index_or_cookie<__indices>(
1022:/usr/share/gcc-arm-none-eabi-10-2020-q4-major/arm-none-eabi/include/c++/10.2.1/variant **** 		std::forward<_Variants>(__vars))...);
1023:/usr/share/gcc-arm-none-eabi-10-2020-q4-major/arm-none-eabi/include/c++/10.2.1/variant **** 	else // for std::visit<R> use INVOKE<R>
1024:/usr/share/gcc-arm-none-eabi-10-2020-q4-major/arm-none-eabi/include/c++/10.2.1/variant **** 	  return std::__invoke_r<_Result_type>(
1025:/usr/share/gcc-arm-none-eabi-10-2020-q4-major/arm-none-eabi/include/c++/10.2.1/variant **** 	      std::forward<_Visitor>(__visitor),
1026:/usr/share/gcc-arm-none-eabi-10-2020-q4-major/arm-none-eabi/include/c++/10.2.1/variant **** 	      __variant::__get<__indices>(std::forward<_Variants>(__vars))...);
1027:/usr/share/gcc-arm-none-eabi-10-2020-q4-major/arm-none-eabi/include/c++/10.2.1/variant ****       }
1028:/usr/share/gcc-arm-none-eabi-10-2020-q4-major/arm-none-eabi/include/c++/10.2.1/variant **** 
1029:/usr/share/gcc-arm-none-eabi-10-2020-q4-major/arm-none-eabi/include/c++/10.2.1/variant ****       static constexpr auto
1030:/usr/share/gcc-arm-none-eabi-10-2020-q4-major/arm-none-eabi/include/c++/10.2.1/variant ****       _S_apply()
1031:/usr/share/gcc-arm-none-eabi-10-2020-q4-major/arm-none-eabi/include/c++/10.2.1/variant ****       { return _Array_type{&__visit_invoke}; }
1032:/usr/share/gcc-arm-none-eabi-10-2020-q4-major/arm-none-eabi/include/c++/10.2.1/variant ****     };
1033:/usr/share/gcc-arm-none-eabi-10-2020-q4-major/arm-none-eabi/include/c++/10.2.1/variant **** 
1034:/usr/share/gcc-arm-none-eabi-10-2020-q4-major/arm-none-eabi/include/c++/10.2.1/variant ****   template<typename _Result_type, typename _Visitor, typename... _Variants>
1035:/usr/share/gcc-arm-none-eabi-10-2020-q4-major/arm-none-eabi/include/c++/10.2.1/variant ****     struct __gen_vtable
1036:/usr/share/gcc-arm-none-eabi-10-2020-q4-major/arm-none-eabi/include/c++/10.2.1/variant ****     {
1037:/usr/share/gcc-arm-none-eabi-10-2020-q4-major/arm-none-eabi/include/c++/10.2.1/variant ****       using _Array_type =
1038:/usr/share/gcc-arm-none-eabi-10-2020-q4-major/arm-none-eabi/include/c++/10.2.1/variant **** 	  _Multi_array<_Result_type (*)(_Visitor, _Variants...),
1039:/usr/share/gcc-arm-none-eabi-10-2020-q4-major/arm-none-eabi/include/c++/10.2.1/variant **** 		       variant_size_v<remove_reference_t<_Variants>>...>;
1040:/usr/share/gcc-arm-none-eabi-10-2020-q4-major/arm-none-eabi/include/c++/10.2.1/variant **** 
1041:/usr/share/gcc-arm-none-eabi-10-2020-q4-major/arm-none-eabi/include/c++/10.2.1/variant ****       static constexpr _Array_type _S_vtable
1042:/usr/share/gcc-arm-none-eabi-10-2020-q4-major/arm-none-eabi/include/c++/10.2.1/variant **** 	= __gen_vtable_impl<_Array_type, std::index_sequence<>>::_S_apply();
1043:/usr/share/gcc-arm-none-eabi-10-2020-q4-major/arm-none-eabi/include/c++/10.2.1/variant ****     };
1044:/usr/share/gcc-arm-none-eabi-10-2020-q4-major/arm-none-eabi/include/c++/10.2.1/variant **** 
1045:/usr/share/gcc-arm-none-eabi-10-2020-q4-major/arm-none-eabi/include/c++/10.2.1/variant ****   template<size_t _Np, typename _Tp>
1046:/usr/share/gcc-arm-none-eabi-10-2020-q4-major/arm-none-eabi/include/c++/10.2.1/variant ****     struct _Base_dedup : public _Tp { };
1047:/usr/share/gcc-arm-none-eabi-10-2020-q4-major/arm-none-eabi/include/c++/10.2.1/variant **** 
1048:/usr/share/gcc-arm-none-eabi-10-2020-q4-major/arm-none-eabi/include/c++/10.2.1/variant ****   template<typename _Variant, typename __indices>
1049:/usr/share/gcc-arm-none-eabi-10-2020-q4-major/arm-none-eabi/include/c++/10.2.1/variant ****     struct _Variant_hash_base;
1050:/usr/share/gcc-arm-none-eabi-10-2020-q4-major/arm-none-eabi/include/c++/10.2.1/variant **** 
1051:/usr/share/gcc-arm-none-eabi-10-2020-q4-major/arm-none-eabi/include/c++/10.2.1/variant ****   template<typename... _Types, size_t... __indices>
1052:/usr/share/gcc-arm-none-eabi-10-2020-q4-major/arm-none-eabi/include/c++/10.2.1/variant ****     struct _Variant_hash_base<variant<_Types...>,
1053:/usr/share/gcc-arm-none-eabi-10-2020-q4-major/arm-none-eabi/include/c++/10.2.1/variant **** 			      std::index_sequence<__indices...>>
1054:/usr/share/gcc-arm-none-eabi-10-2020-q4-major/arm-none-eabi/include/c++/10.2.1/variant ****     : _Base_dedup<__indices, __poison_hash<remove_const_t<_Types>>>... { };
1055:/usr/share/gcc-arm-none-eabi-10-2020-q4-major/arm-none-eabi/include/c++/10.2.1/variant **** 
1056:/usr/share/gcc-arm-none-eabi-10-2020-q4-major/arm-none-eabi/include/c++/10.2.1/variant **** } // namespace __variant
1057:/usr/share/gcc-arm-none-eabi-10-2020-q4-major/arm-none-eabi/include/c++/10.2.1/variant **** } // namespace __detail
1058:/usr/share/gcc-arm-none-eabi-10-2020-q4-major/arm-none-eabi/include/c++/10.2.1/variant **** 
1059:/usr/share/gcc-arm-none-eabi-10-2020-q4-major/arm-none-eabi/include/c++/10.2.1/variant ****   template<size_t _Np, typename _Variant, typename... _Args>
1060:/usr/share/gcc-arm-none-eabi-10-2020-q4-major/arm-none-eabi/include/c++/10.2.1/variant ****     void __variant_construct_by_index(_Variant& __v, _Args&&... __args)
1061:/usr/share/gcc-arm-none-eabi-10-2020-q4-major/arm-none-eabi/include/c++/10.2.1/variant ****     {
1062:/usr/share/gcc-arm-none-eabi-10-2020-q4-major/arm-none-eabi/include/c++/10.2.1/variant ****       __v._M_index = _Np;
1063:/usr/share/gcc-arm-none-eabi-10-2020-q4-major/arm-none-eabi/include/c++/10.2.1/variant ****       auto&& __storage = __detail::__variant::__get<_Np>(__v);
1064:/usr/share/gcc-arm-none-eabi-10-2020-q4-major/arm-none-eabi/include/c++/10.2.1/variant ****       ::new ((void*)std::addressof(__storage))
ARM GAS  /tmp/ccqv0h9S.s 			page 24


1065:/usr/share/gcc-arm-none-eabi-10-2020-q4-major/arm-none-eabi/include/c++/10.2.1/variant ****         remove_reference_t<decltype(__storage)>
1066:/usr/share/gcc-arm-none-eabi-10-2020-q4-major/arm-none-eabi/include/c++/10.2.1/variant **** 	  (std::forward<_Args>(__args)...);
1067:/usr/share/gcc-arm-none-eabi-10-2020-q4-major/arm-none-eabi/include/c++/10.2.1/variant ****     }
1068:/usr/share/gcc-arm-none-eabi-10-2020-q4-major/arm-none-eabi/include/c++/10.2.1/variant **** 
1069:/usr/share/gcc-arm-none-eabi-10-2020-q4-major/arm-none-eabi/include/c++/10.2.1/variant ****   template<typename _Tp, typename... _Types>
1070:/usr/share/gcc-arm-none-eabi-10-2020-q4-major/arm-none-eabi/include/c++/10.2.1/variant ****     constexpr bool
1071:/usr/share/gcc-arm-none-eabi-10-2020-q4-major/arm-none-eabi/include/c++/10.2.1/variant ****     holds_alternative(const variant<_Types...>& __v) noexcept
1072:/usr/share/gcc-arm-none-eabi-10-2020-q4-major/arm-none-eabi/include/c++/10.2.1/variant ****     {
1073:/usr/share/gcc-arm-none-eabi-10-2020-q4-major/arm-none-eabi/include/c++/10.2.1/variant ****       static_assert(__detail::__variant::__exactly_once<_Tp, _Types...>,
1074:/usr/share/gcc-arm-none-eabi-10-2020-q4-major/arm-none-eabi/include/c++/10.2.1/variant **** 		    "T must occur exactly once in alternatives");
1075:/usr/share/gcc-arm-none-eabi-10-2020-q4-major/arm-none-eabi/include/c++/10.2.1/variant ****       return __v.index() == __detail::__variant::__index_of_v<_Tp, _Types...>;
1076:/usr/share/gcc-arm-none-eabi-10-2020-q4-major/arm-none-eabi/include/c++/10.2.1/variant ****     }
1077:/usr/share/gcc-arm-none-eabi-10-2020-q4-major/arm-none-eabi/include/c++/10.2.1/variant **** 
1078:/usr/share/gcc-arm-none-eabi-10-2020-q4-major/arm-none-eabi/include/c++/10.2.1/variant ****   template<typename _Tp, typename... _Types>
1079:/usr/share/gcc-arm-none-eabi-10-2020-q4-major/arm-none-eabi/include/c++/10.2.1/variant ****     constexpr _Tp& get(variant<_Types...>& __v)
1080:/usr/share/gcc-arm-none-eabi-10-2020-q4-major/arm-none-eabi/include/c++/10.2.1/variant ****     {
1081:/usr/share/gcc-arm-none-eabi-10-2020-q4-major/arm-none-eabi/include/c++/10.2.1/variant ****       static_assert(__detail::__variant::__exactly_once<_Tp, _Types...>,
1082:/usr/share/gcc-arm-none-eabi-10-2020-q4-major/arm-none-eabi/include/c++/10.2.1/variant **** 		    "T must occur exactly once in alternatives");
1083:/usr/share/gcc-arm-none-eabi-10-2020-q4-major/arm-none-eabi/include/c++/10.2.1/variant ****       static_assert(!is_void_v<_Tp>, "_Tp must not be void");
1084:/usr/share/gcc-arm-none-eabi-10-2020-q4-major/arm-none-eabi/include/c++/10.2.1/variant ****       return std::get<__detail::__variant::__index_of_v<_Tp, _Types...>>(__v);
1085:/usr/share/gcc-arm-none-eabi-10-2020-q4-major/arm-none-eabi/include/c++/10.2.1/variant ****     }
1086:/usr/share/gcc-arm-none-eabi-10-2020-q4-major/arm-none-eabi/include/c++/10.2.1/variant **** 
1087:/usr/share/gcc-arm-none-eabi-10-2020-q4-major/arm-none-eabi/include/c++/10.2.1/variant ****   template<typename _Tp, typename... _Types>
1088:/usr/share/gcc-arm-none-eabi-10-2020-q4-major/arm-none-eabi/include/c++/10.2.1/variant ****     constexpr _Tp&& get(variant<_Types...>&& __v)
1089:/usr/share/gcc-arm-none-eabi-10-2020-q4-major/arm-none-eabi/include/c++/10.2.1/variant ****     {
1090:/usr/share/gcc-arm-none-eabi-10-2020-q4-major/arm-none-eabi/include/c++/10.2.1/variant ****       static_assert(__detail::__variant::__exactly_once<_Tp, _Types...>,
1091:/usr/share/gcc-arm-none-eabi-10-2020-q4-major/arm-none-eabi/include/c++/10.2.1/variant **** 		    "T must occur exactly once in alternatives");
1092:/usr/share/gcc-arm-none-eabi-10-2020-q4-major/arm-none-eabi/include/c++/10.2.1/variant ****       static_assert(!is_void_v<_Tp>, "_Tp must not be void");
1093:/usr/share/gcc-arm-none-eabi-10-2020-q4-major/arm-none-eabi/include/c++/10.2.1/variant ****       return std::get<__detail::__variant::__index_of_v<_Tp, _Types...>>(
1094:/usr/share/gcc-arm-none-eabi-10-2020-q4-major/arm-none-eabi/include/c++/10.2.1/variant **** 	std::move(__v));
1095:/usr/share/gcc-arm-none-eabi-10-2020-q4-major/arm-none-eabi/include/c++/10.2.1/variant ****     }
1096:/usr/share/gcc-arm-none-eabi-10-2020-q4-major/arm-none-eabi/include/c++/10.2.1/variant **** 
1097:/usr/share/gcc-arm-none-eabi-10-2020-q4-major/arm-none-eabi/include/c++/10.2.1/variant ****   template<typename _Tp, typename... _Types>
1098:/usr/share/gcc-arm-none-eabi-10-2020-q4-major/arm-none-eabi/include/c++/10.2.1/variant ****     constexpr const _Tp& get(const variant<_Types...>& __v)
1099:/usr/share/gcc-arm-none-eabi-10-2020-q4-major/arm-none-eabi/include/c++/10.2.1/variant ****     {
1100:/usr/share/gcc-arm-none-eabi-10-2020-q4-major/arm-none-eabi/include/c++/10.2.1/variant ****       static_assert(__detail::__variant::__exactly_once<_Tp, _Types...>,
1101:/usr/share/gcc-arm-none-eabi-10-2020-q4-major/arm-none-eabi/include/c++/10.2.1/variant **** 		    "T must occur exactly once in alternatives");
1102:/usr/share/gcc-arm-none-eabi-10-2020-q4-major/arm-none-eabi/include/c++/10.2.1/variant ****       static_assert(!is_void_v<_Tp>, "_Tp must not be void");
1103:/usr/share/gcc-arm-none-eabi-10-2020-q4-major/arm-none-eabi/include/c++/10.2.1/variant ****       return std::get<__detail::__variant::__index_of_v<_Tp, _Types...>>(__v);
1104:/usr/share/gcc-arm-none-eabi-10-2020-q4-major/arm-none-eabi/include/c++/10.2.1/variant ****     }
1105:/usr/share/gcc-arm-none-eabi-10-2020-q4-major/arm-none-eabi/include/c++/10.2.1/variant **** 
1106:/usr/share/gcc-arm-none-eabi-10-2020-q4-major/arm-none-eabi/include/c++/10.2.1/variant ****   template<typename _Tp, typename... _Types>
1107:/usr/share/gcc-arm-none-eabi-10-2020-q4-major/arm-none-eabi/include/c++/10.2.1/variant ****     constexpr const _Tp&& get(const variant<_Types...>&& __v)
1108:/usr/share/gcc-arm-none-eabi-10-2020-q4-major/arm-none-eabi/include/c++/10.2.1/variant ****     {
1109:/usr/share/gcc-arm-none-eabi-10-2020-q4-major/arm-none-eabi/include/c++/10.2.1/variant ****       static_assert(__detail::__variant::__exactly_once<_Tp, _Types...>,
1110:/usr/share/gcc-arm-none-eabi-10-2020-q4-major/arm-none-eabi/include/c++/10.2.1/variant **** 		    "T must occur exactly once in alternatives");
1111:/usr/share/gcc-arm-none-eabi-10-2020-q4-major/arm-none-eabi/include/c++/10.2.1/variant ****       static_assert(!is_void_v<_Tp>, "_Tp must not be void");
1112:/usr/share/gcc-arm-none-eabi-10-2020-q4-major/arm-none-eabi/include/c++/10.2.1/variant ****       return std::get<__detail::__variant::__index_of_v<_Tp, _Types...>>(
1113:/usr/share/gcc-arm-none-eabi-10-2020-q4-major/arm-none-eabi/include/c++/10.2.1/variant **** 	std::move(__v));
1114:/usr/share/gcc-arm-none-eabi-10-2020-q4-major/arm-none-eabi/include/c++/10.2.1/variant ****     }
1115:/usr/share/gcc-arm-none-eabi-10-2020-q4-major/arm-none-eabi/include/c++/10.2.1/variant **** 
1116:/usr/share/gcc-arm-none-eabi-10-2020-q4-major/arm-none-eabi/include/c++/10.2.1/variant ****   template<size_t _Np, typename... _Types>
1117:/usr/share/gcc-arm-none-eabi-10-2020-q4-major/arm-none-eabi/include/c++/10.2.1/variant ****     constexpr add_pointer_t<variant_alternative_t<_Np, variant<_Types...>>>
1118:/usr/share/gcc-arm-none-eabi-10-2020-q4-major/arm-none-eabi/include/c++/10.2.1/variant ****     get_if(variant<_Types...>* __ptr) noexcept
1119:/usr/share/gcc-arm-none-eabi-10-2020-q4-major/arm-none-eabi/include/c++/10.2.1/variant ****     {
1120:/usr/share/gcc-arm-none-eabi-10-2020-q4-major/arm-none-eabi/include/c++/10.2.1/variant ****       using _Alternative_type = variant_alternative_t<_Np, variant<_Types...>>;
1121:/usr/share/gcc-arm-none-eabi-10-2020-q4-major/arm-none-eabi/include/c++/10.2.1/variant ****       static_assert(_Np < sizeof...(_Types),
ARM GAS  /tmp/ccqv0h9S.s 			page 25


1122:/usr/share/gcc-arm-none-eabi-10-2020-q4-major/arm-none-eabi/include/c++/10.2.1/variant **** 		    "The index must be in [0, number of alternatives)");
1123:/usr/share/gcc-arm-none-eabi-10-2020-q4-major/arm-none-eabi/include/c++/10.2.1/variant ****       static_assert(!is_void_v<_Alternative_type>, "_Tp must not be void");
1124:/usr/share/gcc-arm-none-eabi-10-2020-q4-major/arm-none-eabi/include/c++/10.2.1/variant ****       if (__ptr && __ptr->index() == _Np)
1125:/usr/share/gcc-arm-none-eabi-10-2020-q4-major/arm-none-eabi/include/c++/10.2.1/variant **** 	return std::addressof(__detail::__variant::__get<_Np>(*__ptr));
1126:/usr/share/gcc-arm-none-eabi-10-2020-q4-major/arm-none-eabi/include/c++/10.2.1/variant ****       return nullptr;
1127:/usr/share/gcc-arm-none-eabi-10-2020-q4-major/arm-none-eabi/include/c++/10.2.1/variant ****     }
1128:/usr/share/gcc-arm-none-eabi-10-2020-q4-major/arm-none-eabi/include/c++/10.2.1/variant **** 
1129:/usr/share/gcc-arm-none-eabi-10-2020-q4-major/arm-none-eabi/include/c++/10.2.1/variant ****   template<size_t _Np, typename... _Types>
1130:/usr/share/gcc-arm-none-eabi-10-2020-q4-major/arm-none-eabi/include/c++/10.2.1/variant ****     constexpr
1131:/usr/share/gcc-arm-none-eabi-10-2020-q4-major/arm-none-eabi/include/c++/10.2.1/variant ****     add_pointer_t<const variant_alternative_t<_Np, variant<_Types...>>>
1132:/usr/share/gcc-arm-none-eabi-10-2020-q4-major/arm-none-eabi/include/c++/10.2.1/variant ****     get_if(const variant<_Types...>* __ptr) noexcept
1133:/usr/share/gcc-arm-none-eabi-10-2020-q4-major/arm-none-eabi/include/c++/10.2.1/variant ****     {
1134:/usr/share/gcc-arm-none-eabi-10-2020-q4-major/arm-none-eabi/include/c++/10.2.1/variant ****       using _Alternative_type = variant_alternative_t<_Np, variant<_Types...>>;
1135:/usr/share/gcc-arm-none-eabi-10-2020-q4-major/arm-none-eabi/include/c++/10.2.1/variant ****       static_assert(_Np < sizeof...(_Types),
1136:/usr/share/gcc-arm-none-eabi-10-2020-q4-major/arm-none-eabi/include/c++/10.2.1/variant **** 		    "The index must be in [0, number of alternatives)");
1137:/usr/share/gcc-arm-none-eabi-10-2020-q4-major/arm-none-eabi/include/c++/10.2.1/variant ****       static_assert(!is_void_v<_Alternative_type>, "_Tp must not be void");
1138:/usr/share/gcc-arm-none-eabi-10-2020-q4-major/arm-none-eabi/include/c++/10.2.1/variant ****       if (__ptr && __ptr->index() == _Np)
1139:/usr/share/gcc-arm-none-eabi-10-2020-q4-major/arm-none-eabi/include/c++/10.2.1/variant **** 	return std::addressof(__detail::__variant::__get<_Np>(*__ptr));
1140:/usr/share/gcc-arm-none-eabi-10-2020-q4-major/arm-none-eabi/include/c++/10.2.1/variant ****       return nullptr;
1141:/usr/share/gcc-arm-none-eabi-10-2020-q4-major/arm-none-eabi/include/c++/10.2.1/variant ****     }
1142:/usr/share/gcc-arm-none-eabi-10-2020-q4-major/arm-none-eabi/include/c++/10.2.1/variant **** 
1143:/usr/share/gcc-arm-none-eabi-10-2020-q4-major/arm-none-eabi/include/c++/10.2.1/variant ****   template<typename _Tp, typename... _Types>
1144:/usr/share/gcc-arm-none-eabi-10-2020-q4-major/arm-none-eabi/include/c++/10.2.1/variant ****     constexpr add_pointer_t<_Tp>
1145:/usr/share/gcc-arm-none-eabi-10-2020-q4-major/arm-none-eabi/include/c++/10.2.1/variant ****     get_if(variant<_Types...>* __ptr) noexcept
1146:/usr/share/gcc-arm-none-eabi-10-2020-q4-major/arm-none-eabi/include/c++/10.2.1/variant ****     {
1147:/usr/share/gcc-arm-none-eabi-10-2020-q4-major/arm-none-eabi/include/c++/10.2.1/variant ****       static_assert(__detail::__variant::__exactly_once<_Tp, _Types...>,
1148:/usr/share/gcc-arm-none-eabi-10-2020-q4-major/arm-none-eabi/include/c++/10.2.1/variant **** 		    "T must occur exactly once in alternatives");
1149:/usr/share/gcc-arm-none-eabi-10-2020-q4-major/arm-none-eabi/include/c++/10.2.1/variant ****       static_assert(!is_void_v<_Tp>, "_Tp must not be void");
1150:/usr/share/gcc-arm-none-eabi-10-2020-q4-major/arm-none-eabi/include/c++/10.2.1/variant ****       return std::get_if<__detail::__variant::__index_of_v<_Tp, _Types...>>(
1151:/usr/share/gcc-arm-none-eabi-10-2020-q4-major/arm-none-eabi/include/c++/10.2.1/variant **** 	  __ptr);
1152:/usr/share/gcc-arm-none-eabi-10-2020-q4-major/arm-none-eabi/include/c++/10.2.1/variant ****     }
1153:/usr/share/gcc-arm-none-eabi-10-2020-q4-major/arm-none-eabi/include/c++/10.2.1/variant **** 
1154:/usr/share/gcc-arm-none-eabi-10-2020-q4-major/arm-none-eabi/include/c++/10.2.1/variant ****   template<typename _Tp, typename... _Types>
1155:/usr/share/gcc-arm-none-eabi-10-2020-q4-major/arm-none-eabi/include/c++/10.2.1/variant ****     constexpr add_pointer_t<const _Tp>
1156:/usr/share/gcc-arm-none-eabi-10-2020-q4-major/arm-none-eabi/include/c++/10.2.1/variant ****     get_if(const variant<_Types...>* __ptr) noexcept
1157:/usr/share/gcc-arm-none-eabi-10-2020-q4-major/arm-none-eabi/include/c++/10.2.1/variant ****     {
1158:/usr/share/gcc-arm-none-eabi-10-2020-q4-major/arm-none-eabi/include/c++/10.2.1/variant ****       static_assert(__detail::__variant::__exactly_once<_Tp, _Types...>,
1159:/usr/share/gcc-arm-none-eabi-10-2020-q4-major/arm-none-eabi/include/c++/10.2.1/variant **** 		    "T must occur exactly once in alternatives");
1160:/usr/share/gcc-arm-none-eabi-10-2020-q4-major/arm-none-eabi/include/c++/10.2.1/variant ****       static_assert(!is_void_v<_Tp>, "_Tp must not be void");
1161:/usr/share/gcc-arm-none-eabi-10-2020-q4-major/arm-none-eabi/include/c++/10.2.1/variant ****       return std::get_if<__detail::__variant::__index_of_v<_Tp, _Types...>>(
1162:/usr/share/gcc-arm-none-eabi-10-2020-q4-major/arm-none-eabi/include/c++/10.2.1/variant **** 	  __ptr);
1163:/usr/share/gcc-arm-none-eabi-10-2020-q4-major/arm-none-eabi/include/c++/10.2.1/variant ****     }
1164:/usr/share/gcc-arm-none-eabi-10-2020-q4-major/arm-none-eabi/include/c++/10.2.1/variant **** 
1165:/usr/share/gcc-arm-none-eabi-10-2020-q4-major/arm-none-eabi/include/c++/10.2.1/variant ****   struct monostate { };
1166:/usr/share/gcc-arm-none-eabi-10-2020-q4-major/arm-none-eabi/include/c++/10.2.1/variant **** 
1167:/usr/share/gcc-arm-none-eabi-10-2020-q4-major/arm-none-eabi/include/c++/10.2.1/variant **** #define _VARIANT_RELATION_FUNCTION_TEMPLATE(__OP, __NAME) \
1168:/usr/share/gcc-arm-none-eabi-10-2020-q4-major/arm-none-eabi/include/c++/10.2.1/variant ****   template<typename... _Types> \
1169:/usr/share/gcc-arm-none-eabi-10-2020-q4-major/arm-none-eabi/include/c++/10.2.1/variant ****     constexpr bool operator __OP(const variant<_Types...>& __lhs, \
1170:/usr/share/gcc-arm-none-eabi-10-2020-q4-major/arm-none-eabi/include/c++/10.2.1/variant **** 				 const variant<_Types...>& __rhs) \
1171:/usr/share/gcc-arm-none-eabi-10-2020-q4-major/arm-none-eabi/include/c++/10.2.1/variant ****     { \
1172:/usr/share/gcc-arm-none-eabi-10-2020-q4-major/arm-none-eabi/include/c++/10.2.1/variant ****       bool __ret = true; \
1173:/usr/share/gcc-arm-none-eabi-10-2020-q4-major/arm-none-eabi/include/c++/10.2.1/variant ****       __detail::__variant::__raw_idx_visit( \
1174:/usr/share/gcc-arm-none-eabi-10-2020-q4-major/arm-none-eabi/include/c++/10.2.1/variant ****         [&__ret, &__lhs] (auto&& __rhs_mem, auto __rhs_index) mutable \
1175:/usr/share/gcc-arm-none-eabi-10-2020-q4-major/arm-none-eabi/include/c++/10.2.1/variant ****         { \
1176:/usr/share/gcc-arm-none-eabi-10-2020-q4-major/arm-none-eabi/include/c++/10.2.1/variant **** 	  if constexpr (__rhs_index != variant_npos) \
1177:/usr/share/gcc-arm-none-eabi-10-2020-q4-major/arm-none-eabi/include/c++/10.2.1/variant **** 	    { \
1178:/usr/share/gcc-arm-none-eabi-10-2020-q4-major/arm-none-eabi/include/c++/10.2.1/variant **** 	      if (__lhs.index() == __rhs_index) \
ARM GAS  /tmp/ccqv0h9S.s 			page 26


1179:/usr/share/gcc-arm-none-eabi-10-2020-q4-major/arm-none-eabi/include/c++/10.2.1/variant **** 	        { \
1180:/usr/share/gcc-arm-none-eabi-10-2020-q4-major/arm-none-eabi/include/c++/10.2.1/variant **** 		  auto& __this_mem = std::get<__rhs_index>(__lhs);	\
1181:/usr/share/gcc-arm-none-eabi-10-2020-q4-major/arm-none-eabi/include/c++/10.2.1/variant ****                   __ret = __this_mem __OP __rhs_mem; \
1182:/usr/share/gcc-arm-none-eabi-10-2020-q4-major/arm-none-eabi/include/c++/10.2.1/variant ****                 } \
1183:/usr/share/gcc-arm-none-eabi-10-2020-q4-major/arm-none-eabi/include/c++/10.2.1/variant **** 	      else \
1184:/usr/share/gcc-arm-none-eabi-10-2020-q4-major/arm-none-eabi/include/c++/10.2.1/variant **** 		__ret = (__lhs.index() + 1) __OP (__rhs_index + 1); \
1185:/usr/share/gcc-arm-none-eabi-10-2020-q4-major/arm-none-eabi/include/c++/10.2.1/variant ****             } \
1186:/usr/share/gcc-arm-none-eabi-10-2020-q4-major/arm-none-eabi/include/c++/10.2.1/variant ****           else \
1187:/usr/share/gcc-arm-none-eabi-10-2020-q4-major/arm-none-eabi/include/c++/10.2.1/variant ****             __ret = (__lhs.index() + 1) __OP (__rhs_index + 1); \
1188:/usr/share/gcc-arm-none-eabi-10-2020-q4-major/arm-none-eabi/include/c++/10.2.1/variant **** 	}, __rhs); \
1189:/usr/share/gcc-arm-none-eabi-10-2020-q4-major/arm-none-eabi/include/c++/10.2.1/variant ****       return __ret; \
1190:/usr/share/gcc-arm-none-eabi-10-2020-q4-major/arm-none-eabi/include/c++/10.2.1/variant ****     }
1191:/usr/share/gcc-arm-none-eabi-10-2020-q4-major/arm-none-eabi/include/c++/10.2.1/variant **** 
1192:/usr/share/gcc-arm-none-eabi-10-2020-q4-major/arm-none-eabi/include/c++/10.2.1/variant ****   _VARIANT_RELATION_FUNCTION_TEMPLATE(<, less)
1193:/usr/share/gcc-arm-none-eabi-10-2020-q4-major/arm-none-eabi/include/c++/10.2.1/variant ****   _VARIANT_RELATION_FUNCTION_TEMPLATE(<=, less_equal)
1194:/usr/share/gcc-arm-none-eabi-10-2020-q4-major/arm-none-eabi/include/c++/10.2.1/variant ****   _VARIANT_RELATION_FUNCTION_TEMPLATE(==, equal)
1195:/usr/share/gcc-arm-none-eabi-10-2020-q4-major/arm-none-eabi/include/c++/10.2.1/variant ****   _VARIANT_RELATION_FUNCTION_TEMPLATE(!=, not_equal)
1196:/usr/share/gcc-arm-none-eabi-10-2020-q4-major/arm-none-eabi/include/c++/10.2.1/variant ****   _VARIANT_RELATION_FUNCTION_TEMPLATE(>=, greater_equal)
1197:/usr/share/gcc-arm-none-eabi-10-2020-q4-major/arm-none-eabi/include/c++/10.2.1/variant ****   _VARIANT_RELATION_FUNCTION_TEMPLATE(>, greater)
1198:/usr/share/gcc-arm-none-eabi-10-2020-q4-major/arm-none-eabi/include/c++/10.2.1/variant **** 
1199:/usr/share/gcc-arm-none-eabi-10-2020-q4-major/arm-none-eabi/include/c++/10.2.1/variant **** #undef _VARIANT_RELATION_FUNCTION_TEMPLATE
1200:/usr/share/gcc-arm-none-eabi-10-2020-q4-major/arm-none-eabi/include/c++/10.2.1/variant **** 
1201:/usr/share/gcc-arm-none-eabi-10-2020-q4-major/arm-none-eabi/include/c++/10.2.1/variant ****   constexpr bool operator==(monostate, monostate) noexcept { return true; }
1202:/usr/share/gcc-arm-none-eabi-10-2020-q4-major/arm-none-eabi/include/c++/10.2.1/variant **** 
1203:/usr/share/gcc-arm-none-eabi-10-2020-q4-major/arm-none-eabi/include/c++/10.2.1/variant **** #ifdef __cpp_lib_three_way_comparison
1204:/usr/share/gcc-arm-none-eabi-10-2020-q4-major/arm-none-eabi/include/c++/10.2.1/variant ****   template<typename... _Types>
1205:/usr/share/gcc-arm-none-eabi-10-2020-q4-major/arm-none-eabi/include/c++/10.2.1/variant ****     requires (three_way_comparable<_Types> && ...)
1206:/usr/share/gcc-arm-none-eabi-10-2020-q4-major/arm-none-eabi/include/c++/10.2.1/variant ****     constexpr
1207:/usr/share/gcc-arm-none-eabi-10-2020-q4-major/arm-none-eabi/include/c++/10.2.1/variant ****     common_comparison_category_t<compare_three_way_result_t<_Types>...>
1208:/usr/share/gcc-arm-none-eabi-10-2020-q4-major/arm-none-eabi/include/c++/10.2.1/variant ****     operator<=>(const variant<_Types...>& __v, const variant<_Types...>& __w)
1209:/usr/share/gcc-arm-none-eabi-10-2020-q4-major/arm-none-eabi/include/c++/10.2.1/variant ****     {
1210:/usr/share/gcc-arm-none-eabi-10-2020-q4-major/arm-none-eabi/include/c++/10.2.1/variant ****       common_comparison_category_t<compare_three_way_result_t<_Types>...> __ret
1211:/usr/share/gcc-arm-none-eabi-10-2020-q4-major/arm-none-eabi/include/c++/10.2.1/variant **** 	= strong_ordering::equal;
1212:/usr/share/gcc-arm-none-eabi-10-2020-q4-major/arm-none-eabi/include/c++/10.2.1/variant **** 
1213:/usr/share/gcc-arm-none-eabi-10-2020-q4-major/arm-none-eabi/include/c++/10.2.1/variant ****       __detail::__variant::__raw_idx_visit(
1214:/usr/share/gcc-arm-none-eabi-10-2020-q4-major/arm-none-eabi/include/c++/10.2.1/variant **** 	[&__ret, &__v] (auto&& __w_mem, auto __w_index) mutable
1215:/usr/share/gcc-arm-none-eabi-10-2020-q4-major/arm-none-eabi/include/c++/10.2.1/variant **** 	{
1216:/usr/share/gcc-arm-none-eabi-10-2020-q4-major/arm-none-eabi/include/c++/10.2.1/variant **** 	  if constexpr (__w_index != variant_npos)
1217:/usr/share/gcc-arm-none-eabi-10-2020-q4-major/arm-none-eabi/include/c++/10.2.1/variant **** 	    {
1218:/usr/share/gcc-arm-none-eabi-10-2020-q4-major/arm-none-eabi/include/c++/10.2.1/variant **** 	      if (__v.index() == __w_index)
1219:/usr/share/gcc-arm-none-eabi-10-2020-q4-major/arm-none-eabi/include/c++/10.2.1/variant **** 		{
1220:/usr/share/gcc-arm-none-eabi-10-2020-q4-major/arm-none-eabi/include/c++/10.2.1/variant **** 		  auto& __this_mem = std::get<__w_index>(__v);
1221:/usr/share/gcc-arm-none-eabi-10-2020-q4-major/arm-none-eabi/include/c++/10.2.1/variant **** 		  __ret = __this_mem <=> __w_mem;
1222:/usr/share/gcc-arm-none-eabi-10-2020-q4-major/arm-none-eabi/include/c++/10.2.1/variant **** 		  return;
1223:/usr/share/gcc-arm-none-eabi-10-2020-q4-major/arm-none-eabi/include/c++/10.2.1/variant **** 		}
1224:/usr/share/gcc-arm-none-eabi-10-2020-q4-major/arm-none-eabi/include/c++/10.2.1/variant **** 	    }
1225:/usr/share/gcc-arm-none-eabi-10-2020-q4-major/arm-none-eabi/include/c++/10.2.1/variant **** 	  __ret = (__v.index() + 1) <=> (__w_index + 1);
1226:/usr/share/gcc-arm-none-eabi-10-2020-q4-major/arm-none-eabi/include/c++/10.2.1/variant **** 	}, __w);
1227:/usr/share/gcc-arm-none-eabi-10-2020-q4-major/arm-none-eabi/include/c++/10.2.1/variant ****       return __ret;
1228:/usr/share/gcc-arm-none-eabi-10-2020-q4-major/arm-none-eabi/include/c++/10.2.1/variant ****     }
1229:/usr/share/gcc-arm-none-eabi-10-2020-q4-major/arm-none-eabi/include/c++/10.2.1/variant **** 
1230:/usr/share/gcc-arm-none-eabi-10-2020-q4-major/arm-none-eabi/include/c++/10.2.1/variant ****   constexpr strong_ordering
1231:/usr/share/gcc-arm-none-eabi-10-2020-q4-major/arm-none-eabi/include/c++/10.2.1/variant ****   operator<=>(monostate, monostate) noexcept { return strong_ordering::equal; }
1232:/usr/share/gcc-arm-none-eabi-10-2020-q4-major/arm-none-eabi/include/c++/10.2.1/variant **** #else
1233:/usr/share/gcc-arm-none-eabi-10-2020-q4-major/arm-none-eabi/include/c++/10.2.1/variant ****   constexpr bool operator!=(monostate, monostate) noexcept { return false; }
1234:/usr/share/gcc-arm-none-eabi-10-2020-q4-major/arm-none-eabi/include/c++/10.2.1/variant ****   constexpr bool operator<(monostate, monostate) noexcept { return false; }
1235:/usr/share/gcc-arm-none-eabi-10-2020-q4-major/arm-none-eabi/include/c++/10.2.1/variant ****   constexpr bool operator>(monostate, monostate) noexcept { return false; }
ARM GAS  /tmp/ccqv0h9S.s 			page 27


1236:/usr/share/gcc-arm-none-eabi-10-2020-q4-major/arm-none-eabi/include/c++/10.2.1/variant ****   constexpr bool operator<=(monostate, monostate) noexcept { return true; }
1237:/usr/share/gcc-arm-none-eabi-10-2020-q4-major/arm-none-eabi/include/c++/10.2.1/variant ****   constexpr bool operator>=(monostate, monostate) noexcept { return true; }
1238:/usr/share/gcc-arm-none-eabi-10-2020-q4-major/arm-none-eabi/include/c++/10.2.1/variant **** #endif
1239:/usr/share/gcc-arm-none-eabi-10-2020-q4-major/arm-none-eabi/include/c++/10.2.1/variant **** 
1240:/usr/share/gcc-arm-none-eabi-10-2020-q4-major/arm-none-eabi/include/c++/10.2.1/variant ****   template<typename _Visitor, typename... _Variants>
1241:/usr/share/gcc-arm-none-eabi-10-2020-q4-major/arm-none-eabi/include/c++/10.2.1/variant ****     constexpr decltype(auto) visit(_Visitor&&, _Variants&&...);
1242:/usr/share/gcc-arm-none-eabi-10-2020-q4-major/arm-none-eabi/include/c++/10.2.1/variant **** 
1243:/usr/share/gcc-arm-none-eabi-10-2020-q4-major/arm-none-eabi/include/c++/10.2.1/variant ****   template<typename... _Types>
1244:/usr/share/gcc-arm-none-eabi-10-2020-q4-major/arm-none-eabi/include/c++/10.2.1/variant ****     inline enable_if_t<(is_move_constructible_v<_Types> && ...)
1245:/usr/share/gcc-arm-none-eabi-10-2020-q4-major/arm-none-eabi/include/c++/10.2.1/variant **** 			&& (is_swappable_v<_Types> && ...)>
1246:/usr/share/gcc-arm-none-eabi-10-2020-q4-major/arm-none-eabi/include/c++/10.2.1/variant ****     swap(variant<_Types...>& __lhs, variant<_Types...>& __rhs)
1247:/usr/share/gcc-arm-none-eabi-10-2020-q4-major/arm-none-eabi/include/c++/10.2.1/variant ****     noexcept(noexcept(__lhs.swap(__rhs)))
1248:/usr/share/gcc-arm-none-eabi-10-2020-q4-major/arm-none-eabi/include/c++/10.2.1/variant ****     { __lhs.swap(__rhs); }
1249:/usr/share/gcc-arm-none-eabi-10-2020-q4-major/arm-none-eabi/include/c++/10.2.1/variant **** 
1250:/usr/share/gcc-arm-none-eabi-10-2020-q4-major/arm-none-eabi/include/c++/10.2.1/variant ****   template<typename... _Types>
1251:/usr/share/gcc-arm-none-eabi-10-2020-q4-major/arm-none-eabi/include/c++/10.2.1/variant ****     enable_if_t<!((is_move_constructible_v<_Types> && ...)
1252:/usr/share/gcc-arm-none-eabi-10-2020-q4-major/arm-none-eabi/include/c++/10.2.1/variant **** 		   && (is_swappable_v<_Types> && ...))>
1253:/usr/share/gcc-arm-none-eabi-10-2020-q4-major/arm-none-eabi/include/c++/10.2.1/variant ****     swap(variant<_Types...>&, variant<_Types...>&) = delete;
1254:/usr/share/gcc-arm-none-eabi-10-2020-q4-major/arm-none-eabi/include/c++/10.2.1/variant **** 
1255:/usr/share/gcc-arm-none-eabi-10-2020-q4-major/arm-none-eabi/include/c++/10.2.1/variant ****   class bad_variant_access : public exception
1256:/usr/share/gcc-arm-none-eabi-10-2020-q4-major/arm-none-eabi/include/c++/10.2.1/variant ****   {
1257:/usr/share/gcc-arm-none-eabi-10-2020-q4-major/arm-none-eabi/include/c++/10.2.1/variant ****   public:
1258:/usr/share/gcc-arm-none-eabi-10-2020-q4-major/arm-none-eabi/include/c++/10.2.1/variant ****     bad_variant_access() noexcept { }
1259:/usr/share/gcc-arm-none-eabi-10-2020-q4-major/arm-none-eabi/include/c++/10.2.1/variant **** 
1260:/usr/share/gcc-arm-none-eabi-10-2020-q4-major/arm-none-eabi/include/c++/10.2.1/variant ****     const char* what() const noexcept override
1261:/usr/share/gcc-arm-none-eabi-10-2020-q4-major/arm-none-eabi/include/c++/10.2.1/variant ****     { return _M_reason; }
1262:/usr/share/gcc-arm-none-eabi-10-2020-q4-major/arm-none-eabi/include/c++/10.2.1/variant **** 
1263:/usr/share/gcc-arm-none-eabi-10-2020-q4-major/arm-none-eabi/include/c++/10.2.1/variant ****   private:
1264:/usr/share/gcc-arm-none-eabi-10-2020-q4-major/arm-none-eabi/include/c++/10.2.1/variant ****     bad_variant_access(const char* __reason) noexcept : _M_reason(__reason) { }
1265:/usr/share/gcc-arm-none-eabi-10-2020-q4-major/arm-none-eabi/include/c++/10.2.1/variant **** 
1266:/usr/share/gcc-arm-none-eabi-10-2020-q4-major/arm-none-eabi/include/c++/10.2.1/variant ****     // Must point to a string with static storage duration:
1267:/usr/share/gcc-arm-none-eabi-10-2020-q4-major/arm-none-eabi/include/c++/10.2.1/variant ****     const char* _M_reason = "bad variant access";
1268:/usr/share/gcc-arm-none-eabi-10-2020-q4-major/arm-none-eabi/include/c++/10.2.1/variant **** 
1269:/usr/share/gcc-arm-none-eabi-10-2020-q4-major/arm-none-eabi/include/c++/10.2.1/variant ****     friend void __throw_bad_variant_access(const char* __what);
1270:/usr/share/gcc-arm-none-eabi-10-2020-q4-major/arm-none-eabi/include/c++/10.2.1/variant ****   };
1271:/usr/share/gcc-arm-none-eabi-10-2020-q4-major/arm-none-eabi/include/c++/10.2.1/variant **** 
1272:/usr/share/gcc-arm-none-eabi-10-2020-q4-major/arm-none-eabi/include/c++/10.2.1/variant ****   // Must only be called with a string literal
1273:/usr/share/gcc-arm-none-eabi-10-2020-q4-major/arm-none-eabi/include/c++/10.2.1/variant ****   inline void
1274:/usr/share/gcc-arm-none-eabi-10-2020-q4-major/arm-none-eabi/include/c++/10.2.1/variant ****   __throw_bad_variant_access(const char* __what)
1275:/usr/share/gcc-arm-none-eabi-10-2020-q4-major/arm-none-eabi/include/c++/10.2.1/variant ****   { _GLIBCXX_THROW_OR_ABORT(bad_variant_access(__what)); }
  76              		.loc 2 1275 3
  77              		.cfi_startproc
  78              		@ args = 0, pretend = 0, frame = 8
  79              		@ frame_needed = 1, uses_anonymous_args = 0
  80 0000 80B5     		push	{r7, lr}
  81              	.LCFI6:
  82              		.cfi_def_cfa_offset 8
  83              		.cfi_offset 7, -8
  84              		.cfi_offset 14, -4
  85 0002 82B0     		sub	sp, sp, #8
  86              	.LCFI7:
  87              		.cfi_def_cfa_offset 16
  88 0004 00AF     		add	r7, sp, #0
  89              	.LCFI8:
  90              		.cfi_def_cfa_register 7
  91 0006 7860     		str	r0, [r7, #4]
  92              		.loc 2 1275 5
ARM GAS  /tmp/ccqv0h9S.s 			page 28


  93 0008 FFF7FEFF 		bl	abort
  94              		.cfi_endproc
  95              	.LFE422:
  97              		.section	.rodata
  98              		.align	2
  99              	.LC0:
 100 0000 7374643A 		.ascii	"std::get: variant is valueless\000"
 100      3A676574 
 100      3A207661 
 100      7269616E 
 100      74206973 
 101 001f 00       		.align	2
 102              	.LC1:
 103 0020 7374643A 		.ascii	"std::get: wrong index for variant\000"
 103      3A676574 
 103      3A207772 
 103      6F6E6720 
 103      696E6465 
 104              		.section	.text._ZSt26__throw_bad_variant_accessb,"axG",%progbits,_ZSt26__throw_bad_variant_accessb
 105              		.align	1
 106              		.weak	_ZSt26__throw_bad_variant_accessb
 107              		.syntax unified
 108              		.thumb
 109              		.thumb_func
 110              		.fpu fpv4-sp-d16
 112              	_ZSt26__throw_bad_variant_accessb:
 113              	.LFB423:
1276:/usr/share/gcc-arm-none-eabi-10-2020-q4-major/arm-none-eabi/include/c++/10.2.1/variant **** 
1277:/usr/share/gcc-arm-none-eabi-10-2020-q4-major/arm-none-eabi/include/c++/10.2.1/variant ****   inline void
1278:/usr/share/gcc-arm-none-eabi-10-2020-q4-major/arm-none-eabi/include/c++/10.2.1/variant ****   __throw_bad_variant_access(bool __valueless)
1279:/usr/share/gcc-arm-none-eabi-10-2020-q4-major/arm-none-eabi/include/c++/10.2.1/variant ****   {
 114              		.loc 2 1279 3
 115              		.cfi_startproc
 116              		@ args = 0, pretend = 0, frame = 8
 117              		@ frame_needed = 1, uses_anonymous_args = 0
 118 0000 80B5     		push	{r7, lr}
 119              	.LCFI9:
 120              		.cfi_def_cfa_offset 8
 121              		.cfi_offset 7, -8
 122              		.cfi_offset 14, -4
 123 0002 82B0     		sub	sp, sp, #8
 124              	.LCFI10:
 125              		.cfi_def_cfa_offset 16
 126 0004 00AF     		add	r7, sp, #0
 127              	.LCFI11:
 128              		.cfi_def_cfa_register 7
 129 0006 0346     		mov	r3, r0
 130 0008 FB71     		strb	r3, [r7, #7]
1280:/usr/share/gcc-arm-none-eabi-10-2020-q4-major/arm-none-eabi/include/c++/10.2.1/variant ****     if (__valueless) [[__unlikely__]]
 131              		.loc 2 1280 5
 132 000a FB79     		ldrb	r3, [r7, #7]	@ zero_extendqisi2
 133 000c 002B     		cmp	r3, #0
 134 000e 03D0     		beq	.L5
1281:/usr/share/gcc-arm-none-eabi-10-2020-q4-major/arm-none-eabi/include/c++/10.2.1/variant ****       __throw_bad_variant_access("std::get: variant is valueless");
 135              		.loc 2 1281 33 discriminator 1
 136 0010 0548     		ldr	r0, .L8
 137 0012 FFF7FEFF 		bl	_ZSt26__throw_bad_variant_accessPKc
ARM GAS  /tmp/ccqv0h9S.s 			page 29


1282:/usr/share/gcc-arm-none-eabi-10-2020-q4-major/arm-none-eabi/include/c++/10.2.1/variant ****     else
1283:/usr/share/gcc-arm-none-eabi-10-2020-q4-major/arm-none-eabi/include/c++/10.2.1/variant ****       __throw_bad_variant_access("std::get: wrong index for variant");
1284:/usr/share/gcc-arm-none-eabi-10-2020-q4-major/arm-none-eabi/include/c++/10.2.1/variant ****   }
 138              		.loc 2 1284 3 discriminator 1
 139 0016 02E0     		b	.L7
 140              	.L5:
1283:/usr/share/gcc-arm-none-eabi-10-2020-q4-major/arm-none-eabi/include/c++/10.2.1/variant ****   }
 141              		.loc 2 1283 33
 142 0018 0448     		ldr	r0, .L8+4
 143 001a FFF7FEFF 		bl	_ZSt26__throw_bad_variant_accessPKc
 144              	.L7:
 145              		.loc 2 1284 3
 146 001e 00BF     		nop
 147 0020 0837     		adds	r7, r7, #8
 148              	.LCFI12:
 149              		.cfi_def_cfa_offset 8
 150 0022 BD46     		mov	sp, r7
 151              	.LCFI13:
 152              		.cfi_def_cfa_register 13
 153              		@ sp needed
 154 0024 80BD     		pop	{r7, pc}
 155              	.L9:
 156 0026 00BF     		.align	2
 157              	.L8:
 158 0028 00000000 		.word	.LC0
 159 002c 20000000 		.word	.LC1
 160              		.cfi_endproc
 161              	.LFE423:
 163              		.section	.rodata._ZL16OFFSET_TAB_CCMRx,"a"
 164              		.align	2
 167              	_ZL16OFFSET_TAB_CCMRx:
 168 0000 00000000 		.ascii	"\000\000\000\000\004\004\004\00488"
 168      04040404 
 168      3838
 169              		.section	.rodata._ZL14SHIFT_TAB_OCxx,"a"
 170              		.align	2
 173              	_ZL14SHIFT_TAB_OCxx:
 174 0000 00000800 		.ascii	"\000\000\010\000\000\000\010\000\000\010"
 174      00000800 
 174      0008
 175              		.section	.rodata._ZL14SHIFT_TAB_ICxx,"a"
 176              		.align	2
 179              	_ZL14SHIFT_TAB_ICxx:
 180 0000 00000800 		.ascii	"\000\000\010\000\000\000\010\000\000\000"
 180      00000800 
 180      0000
 181              		.section	.rodata._ZL14SHIFT_TAB_CCxP,"a"
 182              		.align	2
 185              	_ZL14SHIFT_TAB_CCxP:
 186 0000 00020406 		.ascii	"\000\002\004\006\010\012\014\016\020\024"
 186      080A0C0E 
 186      1014
 187              		.section	.rodata._ZL14SHIFT_TAB_OISx,"a"
 188              		.align	2
 191              	_ZL14SHIFT_TAB_OISx:
 192 0000 00010203 		.ascii	"\000\001\002\003\004\005\006\007\010\012"
 192      04050607 
ARM GAS  /tmp/ccqv0h9S.s 			page 30


 192      080A
 193              		.section	.rodata._ZL19USART_PRESCALER_TAB,"a"
 194              		.align	2
 197              	_ZL19USART_PRESCALER_TAB:
 198 0000 01000000 		.word	1
 199 0004 02000000 		.word	2
 200 0008 04000000 		.word	4
 201 000c 06000000 		.word	6
 202 0010 08000000 		.word	8
 203 0014 0A000000 		.word	10
 204 0018 0C000000 		.word	12
 205 001c 10000000 		.word	16
 206 0020 20000000 		.word	32
 207 0024 40000000 		.word	64
 208 0028 80000000 		.word	128
 209 002c 00010000 		.word	256
 210              		.section	.rodata._ZL18CHANNEL_OFFSET_TAB,"a"
 211              		.align	2
 214              	_ZL18CHANNEL_OFFSET_TAB:
 215 0000 081C3044 		.ascii	"\010\0340DXl"
 215      586C
 216              		.section	.text._ZSt3absl,"axG",%progbits,_ZSt3absl,comdat
 217              		.align	1
 218              		.weak	_ZSt3absl
 219              		.syntax unified
 220              		.thumb
 221              		.thumb_func
 222              		.fpu fpv4-sp-d16
 224              	_ZSt3absl:
 225              	.LFB2612:
 226              		.file 3 "/usr/share/gcc-arm-none-eabi-10-2020-q4-major/arm-none-eabi/include/c++/10.2.1/bits/std_a
   1:/usr/share/gcc-arm-none-eabi-10-2020-q4-major/arm-none-eabi/include/c++/10.2.1/bits/std_abs.h **** // -*- C++ -*- C library enhancements header.
   2:/usr/share/gcc-arm-none-eabi-10-2020-q4-major/arm-none-eabi/include/c++/10.2.1/bits/std_abs.h **** 
   3:/usr/share/gcc-arm-none-eabi-10-2020-q4-major/arm-none-eabi/include/c++/10.2.1/bits/std_abs.h **** // Copyright (C) 2016-2020 Free Software Foundation, Inc.
   4:/usr/share/gcc-arm-none-eabi-10-2020-q4-major/arm-none-eabi/include/c++/10.2.1/bits/std_abs.h **** //
   5:/usr/share/gcc-arm-none-eabi-10-2020-q4-major/arm-none-eabi/include/c++/10.2.1/bits/std_abs.h **** // This file is part of the GNU ISO C++ Library.  This library is free
   6:/usr/share/gcc-arm-none-eabi-10-2020-q4-major/arm-none-eabi/include/c++/10.2.1/bits/std_abs.h **** // software; you can redistribute it and/or modify it under the
   7:/usr/share/gcc-arm-none-eabi-10-2020-q4-major/arm-none-eabi/include/c++/10.2.1/bits/std_abs.h **** // terms of the GNU General Public License as published by the
   8:/usr/share/gcc-arm-none-eabi-10-2020-q4-major/arm-none-eabi/include/c++/10.2.1/bits/std_abs.h **** // Free Software Foundation; either version 3, or (at your option)
   9:/usr/share/gcc-arm-none-eabi-10-2020-q4-major/arm-none-eabi/include/c++/10.2.1/bits/std_abs.h **** // any later version.
  10:/usr/share/gcc-arm-none-eabi-10-2020-q4-major/arm-none-eabi/include/c++/10.2.1/bits/std_abs.h **** 
  11:/usr/share/gcc-arm-none-eabi-10-2020-q4-major/arm-none-eabi/include/c++/10.2.1/bits/std_abs.h **** // This library is distributed in the hope that it will be useful,
  12:/usr/share/gcc-arm-none-eabi-10-2020-q4-major/arm-none-eabi/include/c++/10.2.1/bits/std_abs.h **** // but WITHOUT ANY WARRANTY; without even the implied warranty of
  13:/usr/share/gcc-arm-none-eabi-10-2020-q4-major/arm-none-eabi/include/c++/10.2.1/bits/std_abs.h **** // MERCHANTABILITY or FITNESS FOR A PARTICULAR PURPOSE.  See the
  14:/usr/share/gcc-arm-none-eabi-10-2020-q4-major/arm-none-eabi/include/c++/10.2.1/bits/std_abs.h **** // GNU General Public License for more details.
  15:/usr/share/gcc-arm-none-eabi-10-2020-q4-major/arm-none-eabi/include/c++/10.2.1/bits/std_abs.h **** 
  16:/usr/share/gcc-arm-none-eabi-10-2020-q4-major/arm-none-eabi/include/c++/10.2.1/bits/std_abs.h **** // Under Section 7 of GPL version 3, you are granted additional
  17:/usr/share/gcc-arm-none-eabi-10-2020-q4-major/arm-none-eabi/include/c++/10.2.1/bits/std_abs.h **** // permissions described in the GCC Runtime Library Exception, version
  18:/usr/share/gcc-arm-none-eabi-10-2020-q4-major/arm-none-eabi/include/c++/10.2.1/bits/std_abs.h **** // 3.1, as published by the Free Software Foundation.
  19:/usr/share/gcc-arm-none-eabi-10-2020-q4-major/arm-none-eabi/include/c++/10.2.1/bits/std_abs.h **** 
  20:/usr/share/gcc-arm-none-eabi-10-2020-q4-major/arm-none-eabi/include/c++/10.2.1/bits/std_abs.h **** // You should have received a copy of the GNU General Public License and
  21:/usr/share/gcc-arm-none-eabi-10-2020-q4-major/arm-none-eabi/include/c++/10.2.1/bits/std_abs.h **** // a copy of the GCC Runtime Library Exception along with this program;
  22:/usr/share/gcc-arm-none-eabi-10-2020-q4-major/arm-none-eabi/include/c++/10.2.1/bits/std_abs.h **** // see the files COPYING3 and COPYING.RUNTIME respectively.  If not, see
  23:/usr/share/gcc-arm-none-eabi-10-2020-q4-major/arm-none-eabi/include/c++/10.2.1/bits/std_abs.h **** // <http://www.gnu.org/licenses/>.
  24:/usr/share/gcc-arm-none-eabi-10-2020-q4-major/arm-none-eabi/include/c++/10.2.1/bits/std_abs.h **** 
  25:/usr/share/gcc-arm-none-eabi-10-2020-q4-major/arm-none-eabi/include/c++/10.2.1/bits/std_abs.h **** /** @file include/bits/std_abs.h
  26:/usr/share/gcc-arm-none-eabi-10-2020-q4-major/arm-none-eabi/include/c++/10.2.1/bits/std_abs.h ****  *  This is an internal header file, included by other library headers.
ARM GAS  /tmp/ccqv0h9S.s 			page 31


  27:/usr/share/gcc-arm-none-eabi-10-2020-q4-major/arm-none-eabi/include/c++/10.2.1/bits/std_abs.h ****  *  Do not attempt to use it directly. @headername{cmath, cstdlib}
  28:/usr/share/gcc-arm-none-eabi-10-2020-q4-major/arm-none-eabi/include/c++/10.2.1/bits/std_abs.h ****  */
  29:/usr/share/gcc-arm-none-eabi-10-2020-q4-major/arm-none-eabi/include/c++/10.2.1/bits/std_abs.h **** 
  30:/usr/share/gcc-arm-none-eabi-10-2020-q4-major/arm-none-eabi/include/c++/10.2.1/bits/std_abs.h **** #ifndef _GLIBCXX_BITS_STD_ABS_H
  31:/usr/share/gcc-arm-none-eabi-10-2020-q4-major/arm-none-eabi/include/c++/10.2.1/bits/std_abs.h **** #define _GLIBCXX_BITS_STD_ABS_H
  32:/usr/share/gcc-arm-none-eabi-10-2020-q4-major/arm-none-eabi/include/c++/10.2.1/bits/std_abs.h **** 
  33:/usr/share/gcc-arm-none-eabi-10-2020-q4-major/arm-none-eabi/include/c++/10.2.1/bits/std_abs.h **** #pragma GCC system_header
  34:/usr/share/gcc-arm-none-eabi-10-2020-q4-major/arm-none-eabi/include/c++/10.2.1/bits/std_abs.h **** 
  35:/usr/share/gcc-arm-none-eabi-10-2020-q4-major/arm-none-eabi/include/c++/10.2.1/bits/std_abs.h **** #include <bits/c++config.h>
  36:/usr/share/gcc-arm-none-eabi-10-2020-q4-major/arm-none-eabi/include/c++/10.2.1/bits/std_abs.h **** 
  37:/usr/share/gcc-arm-none-eabi-10-2020-q4-major/arm-none-eabi/include/c++/10.2.1/bits/std_abs.h **** #define _GLIBCXX_INCLUDE_NEXT_C_HEADERS
  38:/usr/share/gcc-arm-none-eabi-10-2020-q4-major/arm-none-eabi/include/c++/10.2.1/bits/std_abs.h **** #include_next <stdlib.h>
  39:/usr/share/gcc-arm-none-eabi-10-2020-q4-major/arm-none-eabi/include/c++/10.2.1/bits/std_abs.h **** #ifdef __CORRECT_ISO_CPP_MATH_H_PROTO
  40:/usr/share/gcc-arm-none-eabi-10-2020-q4-major/arm-none-eabi/include/c++/10.2.1/bits/std_abs.h **** # include_next <math.h>
  41:/usr/share/gcc-arm-none-eabi-10-2020-q4-major/arm-none-eabi/include/c++/10.2.1/bits/std_abs.h **** #endif
  42:/usr/share/gcc-arm-none-eabi-10-2020-q4-major/arm-none-eabi/include/c++/10.2.1/bits/std_abs.h **** #undef _GLIBCXX_INCLUDE_NEXT_C_HEADERS
  43:/usr/share/gcc-arm-none-eabi-10-2020-q4-major/arm-none-eabi/include/c++/10.2.1/bits/std_abs.h **** 
  44:/usr/share/gcc-arm-none-eabi-10-2020-q4-major/arm-none-eabi/include/c++/10.2.1/bits/std_abs.h **** #undef abs
  45:/usr/share/gcc-arm-none-eabi-10-2020-q4-major/arm-none-eabi/include/c++/10.2.1/bits/std_abs.h **** 
  46:/usr/share/gcc-arm-none-eabi-10-2020-q4-major/arm-none-eabi/include/c++/10.2.1/bits/std_abs.h **** extern "C++"
  47:/usr/share/gcc-arm-none-eabi-10-2020-q4-major/arm-none-eabi/include/c++/10.2.1/bits/std_abs.h **** {
  48:/usr/share/gcc-arm-none-eabi-10-2020-q4-major/arm-none-eabi/include/c++/10.2.1/bits/std_abs.h **** namespace std _GLIBCXX_VISIBILITY(default)
  49:/usr/share/gcc-arm-none-eabi-10-2020-q4-major/arm-none-eabi/include/c++/10.2.1/bits/std_abs.h **** {
  50:/usr/share/gcc-arm-none-eabi-10-2020-q4-major/arm-none-eabi/include/c++/10.2.1/bits/std_abs.h **** _GLIBCXX_BEGIN_NAMESPACE_VERSION
  51:/usr/share/gcc-arm-none-eabi-10-2020-q4-major/arm-none-eabi/include/c++/10.2.1/bits/std_abs.h **** 
  52:/usr/share/gcc-arm-none-eabi-10-2020-q4-major/arm-none-eabi/include/c++/10.2.1/bits/std_abs.h ****   using ::abs;
  53:/usr/share/gcc-arm-none-eabi-10-2020-q4-major/arm-none-eabi/include/c++/10.2.1/bits/std_abs.h **** 
  54:/usr/share/gcc-arm-none-eabi-10-2020-q4-major/arm-none-eabi/include/c++/10.2.1/bits/std_abs.h **** #ifndef __CORRECT_ISO_CPP_STDLIB_H_PROTO
  55:/usr/share/gcc-arm-none-eabi-10-2020-q4-major/arm-none-eabi/include/c++/10.2.1/bits/std_abs.h ****   inline long
  56:/usr/share/gcc-arm-none-eabi-10-2020-q4-major/arm-none-eabi/include/c++/10.2.1/bits/std_abs.h ****   abs(long __i) { return __builtin_labs(__i); }
 227              		.loc 3 56 17
 228              		.cfi_startproc
 229              		@ args = 0, pretend = 0, frame = 8
 230              		@ frame_needed = 1, uses_anonymous_args = 0
 231              		@ link register save eliminated.
 232 0000 80B4     		push	{r7}
 233              	.LCFI14:
 234              		.cfi_def_cfa_offset 4
 235              		.cfi_offset 7, -4
 236 0002 83B0     		sub	sp, sp, #12
 237              	.LCFI15:
 238              		.cfi_def_cfa_offset 16
 239 0004 00AF     		add	r7, sp, #0
 240              	.LCFI16:
 241              		.cfi_def_cfa_register 7
 242 0006 7860     		str	r0, [r7, #4]
 243              		.loc 3 56 44
 244 0008 7B68     		ldr	r3, [r7, #4]
 245 000a 002B     		cmp	r3, #0
 246 000c B8BF     		it	lt
 247 000e 5B42     		rsblt	r3, r3, #0
 248              		.loc 3 56 47
 249 0010 1846     		mov	r0, r3
 250 0012 0C37     		adds	r7, r7, #12
 251              	.LCFI17:
 252              		.cfi_def_cfa_offset 4
 253 0014 BD46     		mov	sp, r7
ARM GAS  /tmp/ccqv0h9S.s 			page 32


 254              	.LCFI18:
 255              		.cfi_def_cfa_register 13
 256              		@ sp needed
 257 0016 5DF8047B 		ldr	r7, [sp], #4
 258              	.LCFI19:
 259              		.cfi_restore 7
 260              		.cfi_def_cfa_offset 0
 261 001a 7047     		bx	lr
 262              		.cfi_endproc
 263              	.LFE2612:
 265              		.section	.text._ZSt3absf,"axG",%progbits,_ZSt3absf,comdat
 266              		.align	1
 267              		.weak	_ZSt3absf
 268              		.syntax unified
 269              		.thumb
 270              		.thumb_func
 271              		.fpu fpv4-sp-d16
 273              	_ZSt3absf:
 274              	.LFB2615:
  57:/usr/share/gcc-arm-none-eabi-10-2020-q4-major/arm-none-eabi/include/c++/10.2.1/bits/std_abs.h **** #endif
  58:/usr/share/gcc-arm-none-eabi-10-2020-q4-major/arm-none-eabi/include/c++/10.2.1/bits/std_abs.h **** 
  59:/usr/share/gcc-arm-none-eabi-10-2020-q4-major/arm-none-eabi/include/c++/10.2.1/bits/std_abs.h **** #ifdef _GLIBCXX_USE_LONG_LONG
  60:/usr/share/gcc-arm-none-eabi-10-2020-q4-major/arm-none-eabi/include/c++/10.2.1/bits/std_abs.h ****   inline long long
  61:/usr/share/gcc-arm-none-eabi-10-2020-q4-major/arm-none-eabi/include/c++/10.2.1/bits/std_abs.h ****   abs(long long __x) { return __builtin_llabs (__x); }
  62:/usr/share/gcc-arm-none-eabi-10-2020-q4-major/arm-none-eabi/include/c++/10.2.1/bits/std_abs.h **** #endif
  63:/usr/share/gcc-arm-none-eabi-10-2020-q4-major/arm-none-eabi/include/c++/10.2.1/bits/std_abs.h **** 
  64:/usr/share/gcc-arm-none-eabi-10-2020-q4-major/arm-none-eabi/include/c++/10.2.1/bits/std_abs.h **** // _GLIBCXX_RESOLVE_LIB_DEFECTS
  65:/usr/share/gcc-arm-none-eabi-10-2020-q4-major/arm-none-eabi/include/c++/10.2.1/bits/std_abs.h **** // 2192. Validity and return type of std::abs(0u) is unclear
  66:/usr/share/gcc-arm-none-eabi-10-2020-q4-major/arm-none-eabi/include/c++/10.2.1/bits/std_abs.h **** // 2294. <cstdlib> should declare abs(double)
  67:/usr/share/gcc-arm-none-eabi-10-2020-q4-major/arm-none-eabi/include/c++/10.2.1/bits/std_abs.h **** // 2735. std::abs(short), std::abs(signed char) and others should return int
  68:/usr/share/gcc-arm-none-eabi-10-2020-q4-major/arm-none-eabi/include/c++/10.2.1/bits/std_abs.h **** 
  69:/usr/share/gcc-arm-none-eabi-10-2020-q4-major/arm-none-eabi/include/c++/10.2.1/bits/std_abs.h **** #ifndef __CORRECT_ISO_CPP_MATH_H_PROTO
  70:/usr/share/gcc-arm-none-eabi-10-2020-q4-major/arm-none-eabi/include/c++/10.2.1/bits/std_abs.h ****   inline _GLIBCXX_CONSTEXPR double
  71:/usr/share/gcc-arm-none-eabi-10-2020-q4-major/arm-none-eabi/include/c++/10.2.1/bits/std_abs.h ****   abs(double __x)
  72:/usr/share/gcc-arm-none-eabi-10-2020-q4-major/arm-none-eabi/include/c++/10.2.1/bits/std_abs.h ****   { return __builtin_fabs(__x); }
  73:/usr/share/gcc-arm-none-eabi-10-2020-q4-major/arm-none-eabi/include/c++/10.2.1/bits/std_abs.h **** 
  74:/usr/share/gcc-arm-none-eabi-10-2020-q4-major/arm-none-eabi/include/c++/10.2.1/bits/std_abs.h ****   inline _GLIBCXX_CONSTEXPR float
  75:/usr/share/gcc-arm-none-eabi-10-2020-q4-major/arm-none-eabi/include/c++/10.2.1/bits/std_abs.h ****   abs(float __x)
  76:/usr/share/gcc-arm-none-eabi-10-2020-q4-major/arm-none-eabi/include/c++/10.2.1/bits/std_abs.h ****   { return __builtin_fabsf(__x); }
 275              		.loc 3 76 3
 276              		.cfi_startproc
 277              		@ args = 0, pretend = 0, frame = 8
 278              		@ frame_needed = 1, uses_anonymous_args = 0
 279              		@ link register save eliminated.
 280 0000 80B4     		push	{r7}
 281              	.LCFI20:
 282              		.cfi_def_cfa_offset 4
 283              		.cfi_offset 7, -4
 284 0002 83B0     		sub	sp, sp, #12
 285              	.LCFI21:
 286              		.cfi_def_cfa_offset 16
 287 0004 00AF     		add	r7, sp, #0
 288              	.LCFI22:
 289              		.cfi_def_cfa_register 7
 290 0006 87ED010A 		vstr.32	s0, [r7, #4]
 291              		.loc 3 76 31
 292 000a D7ED017A 		vldr.32	s15, [r7, #4]
ARM GAS  /tmp/ccqv0h9S.s 			page 33


 293 000e F0EEE77A 		vabs.f32	s15, s15
 294              		.loc 3 76 34
 295 0012 B0EE670A 		vmov.f32	s0, s15
 296 0016 0C37     		adds	r7, r7, #12
 297              	.LCFI23:
 298              		.cfi_def_cfa_offset 4
 299 0018 BD46     		mov	sp, r7
 300              	.LCFI24:
 301              		.cfi_def_cfa_register 13
 302              		@ sp needed
 303 001a 5DF8047B 		ldr	r7, [sp], #4
 304              	.LCFI25:
 305              		.cfi_restore 7
 306              		.cfi_def_cfa_offset 0
 307 001e 7047     		bx	lr
 308              		.cfi_endproc
 309              	.LFE2615:
 311              		.section	.text._ZSt5floorf,"axG",%progbits,_ZSt5floorf,comdat
 312              		.align	1
 313              		.weak	_ZSt5floorf
 314              		.syntax unified
 315              		.thumb
 316              		.thumb_func
 317              		.fpu fpv4-sp-d16
 319              	_ZSt5floorf:
 320              	.LFB2644:
 321              		.file 4 "/usr/share/gcc-arm-none-eabi-10-2020-q4-major/arm-none-eabi/include/c++/10.2.1/cmath"
   1:/usr/share/gcc-arm-none-eabi-10-2020-q4-major/arm-none-eabi/include/c++/10.2.1/cmath **** // -*- C++ -*- C forwarding header.
   2:/usr/share/gcc-arm-none-eabi-10-2020-q4-major/arm-none-eabi/include/c++/10.2.1/cmath **** 
   3:/usr/share/gcc-arm-none-eabi-10-2020-q4-major/arm-none-eabi/include/c++/10.2.1/cmath **** // Copyright (C) 1997-2020 Free Software Foundation, Inc.
   4:/usr/share/gcc-arm-none-eabi-10-2020-q4-major/arm-none-eabi/include/c++/10.2.1/cmath **** //
   5:/usr/share/gcc-arm-none-eabi-10-2020-q4-major/arm-none-eabi/include/c++/10.2.1/cmath **** // This file is part of the GNU ISO C++ Library.  This library is free
   6:/usr/share/gcc-arm-none-eabi-10-2020-q4-major/arm-none-eabi/include/c++/10.2.1/cmath **** // software; you can redistribute it and/or modify it under the
   7:/usr/share/gcc-arm-none-eabi-10-2020-q4-major/arm-none-eabi/include/c++/10.2.1/cmath **** // terms of the GNU General Public License as published by the
   8:/usr/share/gcc-arm-none-eabi-10-2020-q4-major/arm-none-eabi/include/c++/10.2.1/cmath **** // Free Software Foundation; either version 3, or (at your option)
   9:/usr/share/gcc-arm-none-eabi-10-2020-q4-major/arm-none-eabi/include/c++/10.2.1/cmath **** // any later version.
  10:/usr/share/gcc-arm-none-eabi-10-2020-q4-major/arm-none-eabi/include/c++/10.2.1/cmath **** 
  11:/usr/share/gcc-arm-none-eabi-10-2020-q4-major/arm-none-eabi/include/c++/10.2.1/cmath **** // This library is distributed in the hope that it will be useful,
  12:/usr/share/gcc-arm-none-eabi-10-2020-q4-major/arm-none-eabi/include/c++/10.2.1/cmath **** // but WITHOUT ANY WARRANTY; without even the implied warranty of
  13:/usr/share/gcc-arm-none-eabi-10-2020-q4-major/arm-none-eabi/include/c++/10.2.1/cmath **** // MERCHANTABILITY or FITNESS FOR A PARTICULAR PURPOSE.  See the
  14:/usr/share/gcc-arm-none-eabi-10-2020-q4-major/arm-none-eabi/include/c++/10.2.1/cmath **** // GNU General Public License for more details.
  15:/usr/share/gcc-arm-none-eabi-10-2020-q4-major/arm-none-eabi/include/c++/10.2.1/cmath **** 
  16:/usr/share/gcc-arm-none-eabi-10-2020-q4-major/arm-none-eabi/include/c++/10.2.1/cmath **** // Under Section 7 of GPL version 3, you are granted additional
  17:/usr/share/gcc-arm-none-eabi-10-2020-q4-major/arm-none-eabi/include/c++/10.2.1/cmath **** // permissions described in the GCC Runtime Library Exception, version
  18:/usr/share/gcc-arm-none-eabi-10-2020-q4-major/arm-none-eabi/include/c++/10.2.1/cmath **** // 3.1, as published by the Free Software Foundation.
  19:/usr/share/gcc-arm-none-eabi-10-2020-q4-major/arm-none-eabi/include/c++/10.2.1/cmath **** 
  20:/usr/share/gcc-arm-none-eabi-10-2020-q4-major/arm-none-eabi/include/c++/10.2.1/cmath **** // You should have received a copy of the GNU General Public License and
  21:/usr/share/gcc-arm-none-eabi-10-2020-q4-major/arm-none-eabi/include/c++/10.2.1/cmath **** // a copy of the GCC Runtime Library Exception along with this program;
  22:/usr/share/gcc-arm-none-eabi-10-2020-q4-major/arm-none-eabi/include/c++/10.2.1/cmath **** // see the files COPYING3 and COPYING.RUNTIME respectively.  If not, see
  23:/usr/share/gcc-arm-none-eabi-10-2020-q4-major/arm-none-eabi/include/c++/10.2.1/cmath **** // <http://www.gnu.org/licenses/>.
  24:/usr/share/gcc-arm-none-eabi-10-2020-q4-major/arm-none-eabi/include/c++/10.2.1/cmath **** 
  25:/usr/share/gcc-arm-none-eabi-10-2020-q4-major/arm-none-eabi/include/c++/10.2.1/cmath **** /** @file include/cmath
  26:/usr/share/gcc-arm-none-eabi-10-2020-q4-major/arm-none-eabi/include/c++/10.2.1/cmath ****  *  This is a Standard C++ Library file.  You should @c \#include this file
  27:/usr/share/gcc-arm-none-eabi-10-2020-q4-major/arm-none-eabi/include/c++/10.2.1/cmath ****  *  in your programs, rather than any of the @a *.h implementation files.
  28:/usr/share/gcc-arm-none-eabi-10-2020-q4-major/arm-none-eabi/include/c++/10.2.1/cmath ****  *
  29:/usr/share/gcc-arm-none-eabi-10-2020-q4-major/arm-none-eabi/include/c++/10.2.1/cmath ****  *  This is the C++ version of the Standard C Library header @c math.h,
  30:/usr/share/gcc-arm-none-eabi-10-2020-q4-major/arm-none-eabi/include/c++/10.2.1/cmath ****  *  and its contents are (mostly) the same as that header, but are all
ARM GAS  /tmp/ccqv0h9S.s 			page 34


  31:/usr/share/gcc-arm-none-eabi-10-2020-q4-major/arm-none-eabi/include/c++/10.2.1/cmath ****  *  contained in the namespace @c std (except for names which are defined
  32:/usr/share/gcc-arm-none-eabi-10-2020-q4-major/arm-none-eabi/include/c++/10.2.1/cmath ****  *  as macros in C).
  33:/usr/share/gcc-arm-none-eabi-10-2020-q4-major/arm-none-eabi/include/c++/10.2.1/cmath ****  */
  34:/usr/share/gcc-arm-none-eabi-10-2020-q4-major/arm-none-eabi/include/c++/10.2.1/cmath **** 
  35:/usr/share/gcc-arm-none-eabi-10-2020-q4-major/arm-none-eabi/include/c++/10.2.1/cmath **** //
  36:/usr/share/gcc-arm-none-eabi-10-2020-q4-major/arm-none-eabi/include/c++/10.2.1/cmath **** // ISO C++ 14882: 26.5  C library
  37:/usr/share/gcc-arm-none-eabi-10-2020-q4-major/arm-none-eabi/include/c++/10.2.1/cmath **** //
  38:/usr/share/gcc-arm-none-eabi-10-2020-q4-major/arm-none-eabi/include/c++/10.2.1/cmath **** 
  39:/usr/share/gcc-arm-none-eabi-10-2020-q4-major/arm-none-eabi/include/c++/10.2.1/cmath **** #pragma GCC system_header
  40:/usr/share/gcc-arm-none-eabi-10-2020-q4-major/arm-none-eabi/include/c++/10.2.1/cmath **** 
  41:/usr/share/gcc-arm-none-eabi-10-2020-q4-major/arm-none-eabi/include/c++/10.2.1/cmath **** #include <bits/c++config.h>
  42:/usr/share/gcc-arm-none-eabi-10-2020-q4-major/arm-none-eabi/include/c++/10.2.1/cmath **** #include <bits/cpp_type_traits.h>
  43:/usr/share/gcc-arm-none-eabi-10-2020-q4-major/arm-none-eabi/include/c++/10.2.1/cmath **** #include <ext/type_traits.h>
  44:/usr/share/gcc-arm-none-eabi-10-2020-q4-major/arm-none-eabi/include/c++/10.2.1/cmath **** #define _GLIBCXX_INCLUDE_NEXT_C_HEADERS
  45:/usr/share/gcc-arm-none-eabi-10-2020-q4-major/arm-none-eabi/include/c++/10.2.1/cmath **** #include_next <math.h>
  46:/usr/share/gcc-arm-none-eabi-10-2020-q4-major/arm-none-eabi/include/c++/10.2.1/cmath **** #undef _GLIBCXX_INCLUDE_NEXT_C_HEADERS
  47:/usr/share/gcc-arm-none-eabi-10-2020-q4-major/arm-none-eabi/include/c++/10.2.1/cmath **** #include <bits/std_abs.h>
  48:/usr/share/gcc-arm-none-eabi-10-2020-q4-major/arm-none-eabi/include/c++/10.2.1/cmath **** 
  49:/usr/share/gcc-arm-none-eabi-10-2020-q4-major/arm-none-eabi/include/c++/10.2.1/cmath **** #ifndef _GLIBCXX_CMATH
  50:/usr/share/gcc-arm-none-eabi-10-2020-q4-major/arm-none-eabi/include/c++/10.2.1/cmath **** #define _GLIBCXX_CMATH 1
  51:/usr/share/gcc-arm-none-eabi-10-2020-q4-major/arm-none-eabi/include/c++/10.2.1/cmath **** 
  52:/usr/share/gcc-arm-none-eabi-10-2020-q4-major/arm-none-eabi/include/c++/10.2.1/cmath **** // Get rid of those macros defined in <math.h> in lieu of real functions.
  53:/usr/share/gcc-arm-none-eabi-10-2020-q4-major/arm-none-eabi/include/c++/10.2.1/cmath **** #undef div
  54:/usr/share/gcc-arm-none-eabi-10-2020-q4-major/arm-none-eabi/include/c++/10.2.1/cmath **** #undef acos
  55:/usr/share/gcc-arm-none-eabi-10-2020-q4-major/arm-none-eabi/include/c++/10.2.1/cmath **** #undef asin
  56:/usr/share/gcc-arm-none-eabi-10-2020-q4-major/arm-none-eabi/include/c++/10.2.1/cmath **** #undef atan
  57:/usr/share/gcc-arm-none-eabi-10-2020-q4-major/arm-none-eabi/include/c++/10.2.1/cmath **** #undef atan2
  58:/usr/share/gcc-arm-none-eabi-10-2020-q4-major/arm-none-eabi/include/c++/10.2.1/cmath **** #undef ceil
  59:/usr/share/gcc-arm-none-eabi-10-2020-q4-major/arm-none-eabi/include/c++/10.2.1/cmath **** #undef cos
  60:/usr/share/gcc-arm-none-eabi-10-2020-q4-major/arm-none-eabi/include/c++/10.2.1/cmath **** #undef cosh
  61:/usr/share/gcc-arm-none-eabi-10-2020-q4-major/arm-none-eabi/include/c++/10.2.1/cmath **** #undef exp
  62:/usr/share/gcc-arm-none-eabi-10-2020-q4-major/arm-none-eabi/include/c++/10.2.1/cmath **** #undef fabs
  63:/usr/share/gcc-arm-none-eabi-10-2020-q4-major/arm-none-eabi/include/c++/10.2.1/cmath **** #undef floor
  64:/usr/share/gcc-arm-none-eabi-10-2020-q4-major/arm-none-eabi/include/c++/10.2.1/cmath **** #undef fmod
  65:/usr/share/gcc-arm-none-eabi-10-2020-q4-major/arm-none-eabi/include/c++/10.2.1/cmath **** #undef frexp
  66:/usr/share/gcc-arm-none-eabi-10-2020-q4-major/arm-none-eabi/include/c++/10.2.1/cmath **** #undef ldexp
  67:/usr/share/gcc-arm-none-eabi-10-2020-q4-major/arm-none-eabi/include/c++/10.2.1/cmath **** #undef log
  68:/usr/share/gcc-arm-none-eabi-10-2020-q4-major/arm-none-eabi/include/c++/10.2.1/cmath **** #undef log10
  69:/usr/share/gcc-arm-none-eabi-10-2020-q4-major/arm-none-eabi/include/c++/10.2.1/cmath **** #undef modf
  70:/usr/share/gcc-arm-none-eabi-10-2020-q4-major/arm-none-eabi/include/c++/10.2.1/cmath **** #undef pow
  71:/usr/share/gcc-arm-none-eabi-10-2020-q4-major/arm-none-eabi/include/c++/10.2.1/cmath **** #undef sin
  72:/usr/share/gcc-arm-none-eabi-10-2020-q4-major/arm-none-eabi/include/c++/10.2.1/cmath **** #undef sinh
  73:/usr/share/gcc-arm-none-eabi-10-2020-q4-major/arm-none-eabi/include/c++/10.2.1/cmath **** #undef sqrt
  74:/usr/share/gcc-arm-none-eabi-10-2020-q4-major/arm-none-eabi/include/c++/10.2.1/cmath **** #undef tan
  75:/usr/share/gcc-arm-none-eabi-10-2020-q4-major/arm-none-eabi/include/c++/10.2.1/cmath **** #undef tanh
  76:/usr/share/gcc-arm-none-eabi-10-2020-q4-major/arm-none-eabi/include/c++/10.2.1/cmath **** 
  77:/usr/share/gcc-arm-none-eabi-10-2020-q4-major/arm-none-eabi/include/c++/10.2.1/cmath **** extern "C++"
  78:/usr/share/gcc-arm-none-eabi-10-2020-q4-major/arm-none-eabi/include/c++/10.2.1/cmath **** {
  79:/usr/share/gcc-arm-none-eabi-10-2020-q4-major/arm-none-eabi/include/c++/10.2.1/cmath **** namespace std _GLIBCXX_VISIBILITY(default)
  80:/usr/share/gcc-arm-none-eabi-10-2020-q4-major/arm-none-eabi/include/c++/10.2.1/cmath **** {
  81:/usr/share/gcc-arm-none-eabi-10-2020-q4-major/arm-none-eabi/include/c++/10.2.1/cmath **** _GLIBCXX_BEGIN_NAMESPACE_VERSION
  82:/usr/share/gcc-arm-none-eabi-10-2020-q4-major/arm-none-eabi/include/c++/10.2.1/cmath **** 
  83:/usr/share/gcc-arm-none-eabi-10-2020-q4-major/arm-none-eabi/include/c++/10.2.1/cmath ****   using ::acos;
  84:/usr/share/gcc-arm-none-eabi-10-2020-q4-major/arm-none-eabi/include/c++/10.2.1/cmath **** 
  85:/usr/share/gcc-arm-none-eabi-10-2020-q4-major/arm-none-eabi/include/c++/10.2.1/cmath **** #ifndef __CORRECT_ISO_CPP_MATH_H_PROTO
  86:/usr/share/gcc-arm-none-eabi-10-2020-q4-major/arm-none-eabi/include/c++/10.2.1/cmath ****   inline _GLIBCXX_CONSTEXPR float
  87:/usr/share/gcc-arm-none-eabi-10-2020-q4-major/arm-none-eabi/include/c++/10.2.1/cmath ****   acos(float __x)
ARM GAS  /tmp/ccqv0h9S.s 			page 35


  88:/usr/share/gcc-arm-none-eabi-10-2020-q4-major/arm-none-eabi/include/c++/10.2.1/cmath ****   { return __builtin_acosf(__x); }
  89:/usr/share/gcc-arm-none-eabi-10-2020-q4-major/arm-none-eabi/include/c++/10.2.1/cmath **** 
  90:/usr/share/gcc-arm-none-eabi-10-2020-q4-major/arm-none-eabi/include/c++/10.2.1/cmath ****   inline _GLIBCXX_CONSTEXPR long double
  91:/usr/share/gcc-arm-none-eabi-10-2020-q4-major/arm-none-eabi/include/c++/10.2.1/cmath ****   acos(long double __x)
  92:/usr/share/gcc-arm-none-eabi-10-2020-q4-major/arm-none-eabi/include/c++/10.2.1/cmath ****   { return __builtin_acosl(__x); }
  93:/usr/share/gcc-arm-none-eabi-10-2020-q4-major/arm-none-eabi/include/c++/10.2.1/cmath **** #endif
  94:/usr/share/gcc-arm-none-eabi-10-2020-q4-major/arm-none-eabi/include/c++/10.2.1/cmath **** 
  95:/usr/share/gcc-arm-none-eabi-10-2020-q4-major/arm-none-eabi/include/c++/10.2.1/cmath ****   template<typename _Tp>
  96:/usr/share/gcc-arm-none-eabi-10-2020-q4-major/arm-none-eabi/include/c++/10.2.1/cmath ****     inline _GLIBCXX_CONSTEXPR
  97:/usr/share/gcc-arm-none-eabi-10-2020-q4-major/arm-none-eabi/include/c++/10.2.1/cmath ****     typename __gnu_cxx::__enable_if<__is_integer<_Tp>::__value, 
  98:/usr/share/gcc-arm-none-eabi-10-2020-q4-major/arm-none-eabi/include/c++/10.2.1/cmath ****                                     double>::__type
  99:/usr/share/gcc-arm-none-eabi-10-2020-q4-major/arm-none-eabi/include/c++/10.2.1/cmath ****     acos(_Tp __x)
 100:/usr/share/gcc-arm-none-eabi-10-2020-q4-major/arm-none-eabi/include/c++/10.2.1/cmath ****     { return __builtin_acos(__x); }
 101:/usr/share/gcc-arm-none-eabi-10-2020-q4-major/arm-none-eabi/include/c++/10.2.1/cmath **** 
 102:/usr/share/gcc-arm-none-eabi-10-2020-q4-major/arm-none-eabi/include/c++/10.2.1/cmath ****   using ::asin;
 103:/usr/share/gcc-arm-none-eabi-10-2020-q4-major/arm-none-eabi/include/c++/10.2.1/cmath **** 
 104:/usr/share/gcc-arm-none-eabi-10-2020-q4-major/arm-none-eabi/include/c++/10.2.1/cmath **** #ifndef __CORRECT_ISO_CPP_MATH_H_PROTO
 105:/usr/share/gcc-arm-none-eabi-10-2020-q4-major/arm-none-eabi/include/c++/10.2.1/cmath ****   inline _GLIBCXX_CONSTEXPR float
 106:/usr/share/gcc-arm-none-eabi-10-2020-q4-major/arm-none-eabi/include/c++/10.2.1/cmath ****   asin(float __x)
 107:/usr/share/gcc-arm-none-eabi-10-2020-q4-major/arm-none-eabi/include/c++/10.2.1/cmath ****   { return __builtin_asinf(__x); }
 108:/usr/share/gcc-arm-none-eabi-10-2020-q4-major/arm-none-eabi/include/c++/10.2.1/cmath **** 
 109:/usr/share/gcc-arm-none-eabi-10-2020-q4-major/arm-none-eabi/include/c++/10.2.1/cmath ****   inline _GLIBCXX_CONSTEXPR long double
 110:/usr/share/gcc-arm-none-eabi-10-2020-q4-major/arm-none-eabi/include/c++/10.2.1/cmath ****   asin(long double __x)
 111:/usr/share/gcc-arm-none-eabi-10-2020-q4-major/arm-none-eabi/include/c++/10.2.1/cmath ****   { return __builtin_asinl(__x); }
 112:/usr/share/gcc-arm-none-eabi-10-2020-q4-major/arm-none-eabi/include/c++/10.2.1/cmath **** #endif
 113:/usr/share/gcc-arm-none-eabi-10-2020-q4-major/arm-none-eabi/include/c++/10.2.1/cmath **** 
 114:/usr/share/gcc-arm-none-eabi-10-2020-q4-major/arm-none-eabi/include/c++/10.2.1/cmath ****   template<typename _Tp>
 115:/usr/share/gcc-arm-none-eabi-10-2020-q4-major/arm-none-eabi/include/c++/10.2.1/cmath ****     inline _GLIBCXX_CONSTEXPR
 116:/usr/share/gcc-arm-none-eabi-10-2020-q4-major/arm-none-eabi/include/c++/10.2.1/cmath ****     typename __gnu_cxx::__enable_if<__is_integer<_Tp>::__value,
 117:/usr/share/gcc-arm-none-eabi-10-2020-q4-major/arm-none-eabi/include/c++/10.2.1/cmath ****                                     double>::__type
 118:/usr/share/gcc-arm-none-eabi-10-2020-q4-major/arm-none-eabi/include/c++/10.2.1/cmath ****     asin(_Tp __x)
 119:/usr/share/gcc-arm-none-eabi-10-2020-q4-major/arm-none-eabi/include/c++/10.2.1/cmath ****     { return __builtin_asin(__x); }
 120:/usr/share/gcc-arm-none-eabi-10-2020-q4-major/arm-none-eabi/include/c++/10.2.1/cmath **** 
 121:/usr/share/gcc-arm-none-eabi-10-2020-q4-major/arm-none-eabi/include/c++/10.2.1/cmath ****   using ::atan;
 122:/usr/share/gcc-arm-none-eabi-10-2020-q4-major/arm-none-eabi/include/c++/10.2.1/cmath **** 
 123:/usr/share/gcc-arm-none-eabi-10-2020-q4-major/arm-none-eabi/include/c++/10.2.1/cmath **** #ifndef __CORRECT_ISO_CPP_MATH_H_PROTO
 124:/usr/share/gcc-arm-none-eabi-10-2020-q4-major/arm-none-eabi/include/c++/10.2.1/cmath ****   inline _GLIBCXX_CONSTEXPR float
 125:/usr/share/gcc-arm-none-eabi-10-2020-q4-major/arm-none-eabi/include/c++/10.2.1/cmath ****   atan(float __x)
 126:/usr/share/gcc-arm-none-eabi-10-2020-q4-major/arm-none-eabi/include/c++/10.2.1/cmath ****   { return __builtin_atanf(__x); }
 127:/usr/share/gcc-arm-none-eabi-10-2020-q4-major/arm-none-eabi/include/c++/10.2.1/cmath **** 
 128:/usr/share/gcc-arm-none-eabi-10-2020-q4-major/arm-none-eabi/include/c++/10.2.1/cmath ****   inline _GLIBCXX_CONSTEXPR long double
 129:/usr/share/gcc-arm-none-eabi-10-2020-q4-major/arm-none-eabi/include/c++/10.2.1/cmath ****   atan(long double __x)
 130:/usr/share/gcc-arm-none-eabi-10-2020-q4-major/arm-none-eabi/include/c++/10.2.1/cmath ****   { return __builtin_atanl(__x); }
 131:/usr/share/gcc-arm-none-eabi-10-2020-q4-major/arm-none-eabi/include/c++/10.2.1/cmath **** #endif
 132:/usr/share/gcc-arm-none-eabi-10-2020-q4-major/arm-none-eabi/include/c++/10.2.1/cmath **** 
 133:/usr/share/gcc-arm-none-eabi-10-2020-q4-major/arm-none-eabi/include/c++/10.2.1/cmath ****   template<typename _Tp>
 134:/usr/share/gcc-arm-none-eabi-10-2020-q4-major/arm-none-eabi/include/c++/10.2.1/cmath ****     inline _GLIBCXX_CONSTEXPR
 135:/usr/share/gcc-arm-none-eabi-10-2020-q4-major/arm-none-eabi/include/c++/10.2.1/cmath ****     typename __gnu_cxx::__enable_if<__is_integer<_Tp>::__value,
 136:/usr/share/gcc-arm-none-eabi-10-2020-q4-major/arm-none-eabi/include/c++/10.2.1/cmath ****                                     double>::__type
 137:/usr/share/gcc-arm-none-eabi-10-2020-q4-major/arm-none-eabi/include/c++/10.2.1/cmath ****     atan(_Tp __x)
 138:/usr/share/gcc-arm-none-eabi-10-2020-q4-major/arm-none-eabi/include/c++/10.2.1/cmath ****     { return __builtin_atan(__x); }
 139:/usr/share/gcc-arm-none-eabi-10-2020-q4-major/arm-none-eabi/include/c++/10.2.1/cmath **** 
 140:/usr/share/gcc-arm-none-eabi-10-2020-q4-major/arm-none-eabi/include/c++/10.2.1/cmath ****   using ::atan2;
 141:/usr/share/gcc-arm-none-eabi-10-2020-q4-major/arm-none-eabi/include/c++/10.2.1/cmath **** 
 142:/usr/share/gcc-arm-none-eabi-10-2020-q4-major/arm-none-eabi/include/c++/10.2.1/cmath **** #ifndef __CORRECT_ISO_CPP_MATH_H_PROTO
 143:/usr/share/gcc-arm-none-eabi-10-2020-q4-major/arm-none-eabi/include/c++/10.2.1/cmath ****   inline _GLIBCXX_CONSTEXPR float
 144:/usr/share/gcc-arm-none-eabi-10-2020-q4-major/arm-none-eabi/include/c++/10.2.1/cmath ****   atan2(float __y, float __x)
ARM GAS  /tmp/ccqv0h9S.s 			page 36


 145:/usr/share/gcc-arm-none-eabi-10-2020-q4-major/arm-none-eabi/include/c++/10.2.1/cmath ****   { return __builtin_atan2f(__y, __x); }
 146:/usr/share/gcc-arm-none-eabi-10-2020-q4-major/arm-none-eabi/include/c++/10.2.1/cmath **** 
 147:/usr/share/gcc-arm-none-eabi-10-2020-q4-major/arm-none-eabi/include/c++/10.2.1/cmath ****   inline _GLIBCXX_CONSTEXPR long double
 148:/usr/share/gcc-arm-none-eabi-10-2020-q4-major/arm-none-eabi/include/c++/10.2.1/cmath ****   atan2(long double __y, long double __x)
 149:/usr/share/gcc-arm-none-eabi-10-2020-q4-major/arm-none-eabi/include/c++/10.2.1/cmath ****   { return __builtin_atan2l(__y, __x); }
 150:/usr/share/gcc-arm-none-eabi-10-2020-q4-major/arm-none-eabi/include/c++/10.2.1/cmath **** #endif
 151:/usr/share/gcc-arm-none-eabi-10-2020-q4-major/arm-none-eabi/include/c++/10.2.1/cmath **** 
 152:/usr/share/gcc-arm-none-eabi-10-2020-q4-major/arm-none-eabi/include/c++/10.2.1/cmath ****   template<typename _Tp, typename _Up>
 153:/usr/share/gcc-arm-none-eabi-10-2020-q4-major/arm-none-eabi/include/c++/10.2.1/cmath ****     inline _GLIBCXX_CONSTEXPR
 154:/usr/share/gcc-arm-none-eabi-10-2020-q4-major/arm-none-eabi/include/c++/10.2.1/cmath ****     typename __gnu_cxx::__promote_2<_Tp, _Up>::__type
 155:/usr/share/gcc-arm-none-eabi-10-2020-q4-major/arm-none-eabi/include/c++/10.2.1/cmath ****     atan2(_Tp __y, _Up __x)
 156:/usr/share/gcc-arm-none-eabi-10-2020-q4-major/arm-none-eabi/include/c++/10.2.1/cmath ****     {
 157:/usr/share/gcc-arm-none-eabi-10-2020-q4-major/arm-none-eabi/include/c++/10.2.1/cmath ****       typedef typename __gnu_cxx::__promote_2<_Tp, _Up>::__type __type;
 158:/usr/share/gcc-arm-none-eabi-10-2020-q4-major/arm-none-eabi/include/c++/10.2.1/cmath ****       return atan2(__type(__y), __type(__x));
 159:/usr/share/gcc-arm-none-eabi-10-2020-q4-major/arm-none-eabi/include/c++/10.2.1/cmath ****     }
 160:/usr/share/gcc-arm-none-eabi-10-2020-q4-major/arm-none-eabi/include/c++/10.2.1/cmath **** 
 161:/usr/share/gcc-arm-none-eabi-10-2020-q4-major/arm-none-eabi/include/c++/10.2.1/cmath ****   using ::ceil;
 162:/usr/share/gcc-arm-none-eabi-10-2020-q4-major/arm-none-eabi/include/c++/10.2.1/cmath **** 
 163:/usr/share/gcc-arm-none-eabi-10-2020-q4-major/arm-none-eabi/include/c++/10.2.1/cmath **** #ifndef __CORRECT_ISO_CPP_MATH_H_PROTO
 164:/usr/share/gcc-arm-none-eabi-10-2020-q4-major/arm-none-eabi/include/c++/10.2.1/cmath ****   inline _GLIBCXX_CONSTEXPR float
 165:/usr/share/gcc-arm-none-eabi-10-2020-q4-major/arm-none-eabi/include/c++/10.2.1/cmath ****   ceil(float __x)
 166:/usr/share/gcc-arm-none-eabi-10-2020-q4-major/arm-none-eabi/include/c++/10.2.1/cmath ****   { return __builtin_ceilf(__x); }
 167:/usr/share/gcc-arm-none-eabi-10-2020-q4-major/arm-none-eabi/include/c++/10.2.1/cmath **** 
 168:/usr/share/gcc-arm-none-eabi-10-2020-q4-major/arm-none-eabi/include/c++/10.2.1/cmath ****   inline _GLIBCXX_CONSTEXPR long double
 169:/usr/share/gcc-arm-none-eabi-10-2020-q4-major/arm-none-eabi/include/c++/10.2.1/cmath ****   ceil(long double __x)
 170:/usr/share/gcc-arm-none-eabi-10-2020-q4-major/arm-none-eabi/include/c++/10.2.1/cmath ****   { return __builtin_ceill(__x); }
 171:/usr/share/gcc-arm-none-eabi-10-2020-q4-major/arm-none-eabi/include/c++/10.2.1/cmath **** #endif
 172:/usr/share/gcc-arm-none-eabi-10-2020-q4-major/arm-none-eabi/include/c++/10.2.1/cmath **** 
 173:/usr/share/gcc-arm-none-eabi-10-2020-q4-major/arm-none-eabi/include/c++/10.2.1/cmath ****   template<typename _Tp>
 174:/usr/share/gcc-arm-none-eabi-10-2020-q4-major/arm-none-eabi/include/c++/10.2.1/cmath ****     inline _GLIBCXX_CONSTEXPR
 175:/usr/share/gcc-arm-none-eabi-10-2020-q4-major/arm-none-eabi/include/c++/10.2.1/cmath ****     typename __gnu_cxx::__enable_if<__is_integer<_Tp>::__value, 
 176:/usr/share/gcc-arm-none-eabi-10-2020-q4-major/arm-none-eabi/include/c++/10.2.1/cmath ****                                     double>::__type
 177:/usr/share/gcc-arm-none-eabi-10-2020-q4-major/arm-none-eabi/include/c++/10.2.1/cmath ****     ceil(_Tp __x)
 178:/usr/share/gcc-arm-none-eabi-10-2020-q4-major/arm-none-eabi/include/c++/10.2.1/cmath ****     { return __builtin_ceil(__x); }
 179:/usr/share/gcc-arm-none-eabi-10-2020-q4-major/arm-none-eabi/include/c++/10.2.1/cmath **** 
 180:/usr/share/gcc-arm-none-eabi-10-2020-q4-major/arm-none-eabi/include/c++/10.2.1/cmath ****   using ::cos;
 181:/usr/share/gcc-arm-none-eabi-10-2020-q4-major/arm-none-eabi/include/c++/10.2.1/cmath **** 
 182:/usr/share/gcc-arm-none-eabi-10-2020-q4-major/arm-none-eabi/include/c++/10.2.1/cmath **** #ifndef __CORRECT_ISO_CPP_MATH_H_PROTO
 183:/usr/share/gcc-arm-none-eabi-10-2020-q4-major/arm-none-eabi/include/c++/10.2.1/cmath ****   inline _GLIBCXX_CONSTEXPR float
 184:/usr/share/gcc-arm-none-eabi-10-2020-q4-major/arm-none-eabi/include/c++/10.2.1/cmath ****   cos(float __x)
 185:/usr/share/gcc-arm-none-eabi-10-2020-q4-major/arm-none-eabi/include/c++/10.2.1/cmath ****   { return __builtin_cosf(__x); }
 186:/usr/share/gcc-arm-none-eabi-10-2020-q4-major/arm-none-eabi/include/c++/10.2.1/cmath **** 
 187:/usr/share/gcc-arm-none-eabi-10-2020-q4-major/arm-none-eabi/include/c++/10.2.1/cmath ****   inline _GLIBCXX_CONSTEXPR long double
 188:/usr/share/gcc-arm-none-eabi-10-2020-q4-major/arm-none-eabi/include/c++/10.2.1/cmath ****   cos(long double __x)
 189:/usr/share/gcc-arm-none-eabi-10-2020-q4-major/arm-none-eabi/include/c++/10.2.1/cmath ****   { return __builtin_cosl(__x); }
 190:/usr/share/gcc-arm-none-eabi-10-2020-q4-major/arm-none-eabi/include/c++/10.2.1/cmath **** #endif
 191:/usr/share/gcc-arm-none-eabi-10-2020-q4-major/arm-none-eabi/include/c++/10.2.1/cmath **** 
 192:/usr/share/gcc-arm-none-eabi-10-2020-q4-major/arm-none-eabi/include/c++/10.2.1/cmath ****   template<typename _Tp>
 193:/usr/share/gcc-arm-none-eabi-10-2020-q4-major/arm-none-eabi/include/c++/10.2.1/cmath ****     inline _GLIBCXX_CONSTEXPR
 194:/usr/share/gcc-arm-none-eabi-10-2020-q4-major/arm-none-eabi/include/c++/10.2.1/cmath ****     typename __gnu_cxx::__enable_if<__is_integer<_Tp>::__value,
 195:/usr/share/gcc-arm-none-eabi-10-2020-q4-major/arm-none-eabi/include/c++/10.2.1/cmath ****                                     double>::__type
 196:/usr/share/gcc-arm-none-eabi-10-2020-q4-major/arm-none-eabi/include/c++/10.2.1/cmath ****     cos(_Tp __x)
 197:/usr/share/gcc-arm-none-eabi-10-2020-q4-major/arm-none-eabi/include/c++/10.2.1/cmath ****     { return __builtin_cos(__x); }
 198:/usr/share/gcc-arm-none-eabi-10-2020-q4-major/arm-none-eabi/include/c++/10.2.1/cmath **** 
 199:/usr/share/gcc-arm-none-eabi-10-2020-q4-major/arm-none-eabi/include/c++/10.2.1/cmath ****   using ::cosh;
 200:/usr/share/gcc-arm-none-eabi-10-2020-q4-major/arm-none-eabi/include/c++/10.2.1/cmath **** 
 201:/usr/share/gcc-arm-none-eabi-10-2020-q4-major/arm-none-eabi/include/c++/10.2.1/cmath **** #ifndef __CORRECT_ISO_CPP_MATH_H_PROTO
ARM GAS  /tmp/ccqv0h9S.s 			page 37


 202:/usr/share/gcc-arm-none-eabi-10-2020-q4-major/arm-none-eabi/include/c++/10.2.1/cmath ****   inline _GLIBCXX_CONSTEXPR float
 203:/usr/share/gcc-arm-none-eabi-10-2020-q4-major/arm-none-eabi/include/c++/10.2.1/cmath ****   cosh(float __x)
 204:/usr/share/gcc-arm-none-eabi-10-2020-q4-major/arm-none-eabi/include/c++/10.2.1/cmath ****   { return __builtin_coshf(__x); }
 205:/usr/share/gcc-arm-none-eabi-10-2020-q4-major/arm-none-eabi/include/c++/10.2.1/cmath **** 
 206:/usr/share/gcc-arm-none-eabi-10-2020-q4-major/arm-none-eabi/include/c++/10.2.1/cmath ****   inline _GLIBCXX_CONSTEXPR long double
 207:/usr/share/gcc-arm-none-eabi-10-2020-q4-major/arm-none-eabi/include/c++/10.2.1/cmath ****   cosh(long double __x)
 208:/usr/share/gcc-arm-none-eabi-10-2020-q4-major/arm-none-eabi/include/c++/10.2.1/cmath ****   { return __builtin_coshl(__x); }
 209:/usr/share/gcc-arm-none-eabi-10-2020-q4-major/arm-none-eabi/include/c++/10.2.1/cmath **** #endif
 210:/usr/share/gcc-arm-none-eabi-10-2020-q4-major/arm-none-eabi/include/c++/10.2.1/cmath **** 
 211:/usr/share/gcc-arm-none-eabi-10-2020-q4-major/arm-none-eabi/include/c++/10.2.1/cmath ****   template<typename _Tp>
 212:/usr/share/gcc-arm-none-eabi-10-2020-q4-major/arm-none-eabi/include/c++/10.2.1/cmath ****     inline _GLIBCXX_CONSTEXPR
 213:/usr/share/gcc-arm-none-eabi-10-2020-q4-major/arm-none-eabi/include/c++/10.2.1/cmath ****     typename __gnu_cxx::__enable_if<__is_integer<_Tp>::__value,
 214:/usr/share/gcc-arm-none-eabi-10-2020-q4-major/arm-none-eabi/include/c++/10.2.1/cmath ****                                     double>::__type
 215:/usr/share/gcc-arm-none-eabi-10-2020-q4-major/arm-none-eabi/include/c++/10.2.1/cmath ****     cosh(_Tp __x)
 216:/usr/share/gcc-arm-none-eabi-10-2020-q4-major/arm-none-eabi/include/c++/10.2.1/cmath ****     { return __builtin_cosh(__x); }
 217:/usr/share/gcc-arm-none-eabi-10-2020-q4-major/arm-none-eabi/include/c++/10.2.1/cmath **** 
 218:/usr/share/gcc-arm-none-eabi-10-2020-q4-major/arm-none-eabi/include/c++/10.2.1/cmath ****   using ::exp;
 219:/usr/share/gcc-arm-none-eabi-10-2020-q4-major/arm-none-eabi/include/c++/10.2.1/cmath **** 
 220:/usr/share/gcc-arm-none-eabi-10-2020-q4-major/arm-none-eabi/include/c++/10.2.1/cmath **** #ifndef __CORRECT_ISO_CPP_MATH_H_PROTO
 221:/usr/share/gcc-arm-none-eabi-10-2020-q4-major/arm-none-eabi/include/c++/10.2.1/cmath ****   inline _GLIBCXX_CONSTEXPR float
 222:/usr/share/gcc-arm-none-eabi-10-2020-q4-major/arm-none-eabi/include/c++/10.2.1/cmath ****   exp(float __x)
 223:/usr/share/gcc-arm-none-eabi-10-2020-q4-major/arm-none-eabi/include/c++/10.2.1/cmath ****   { return __builtin_expf(__x); }
 224:/usr/share/gcc-arm-none-eabi-10-2020-q4-major/arm-none-eabi/include/c++/10.2.1/cmath **** 
 225:/usr/share/gcc-arm-none-eabi-10-2020-q4-major/arm-none-eabi/include/c++/10.2.1/cmath ****   inline _GLIBCXX_CONSTEXPR long double
 226:/usr/share/gcc-arm-none-eabi-10-2020-q4-major/arm-none-eabi/include/c++/10.2.1/cmath ****   exp(long double __x)
 227:/usr/share/gcc-arm-none-eabi-10-2020-q4-major/arm-none-eabi/include/c++/10.2.1/cmath ****   { return __builtin_expl(__x); }
 228:/usr/share/gcc-arm-none-eabi-10-2020-q4-major/arm-none-eabi/include/c++/10.2.1/cmath **** #endif
 229:/usr/share/gcc-arm-none-eabi-10-2020-q4-major/arm-none-eabi/include/c++/10.2.1/cmath **** 
 230:/usr/share/gcc-arm-none-eabi-10-2020-q4-major/arm-none-eabi/include/c++/10.2.1/cmath ****   template<typename _Tp>
 231:/usr/share/gcc-arm-none-eabi-10-2020-q4-major/arm-none-eabi/include/c++/10.2.1/cmath ****     inline _GLIBCXX_CONSTEXPR
 232:/usr/share/gcc-arm-none-eabi-10-2020-q4-major/arm-none-eabi/include/c++/10.2.1/cmath ****     typename __gnu_cxx::__enable_if<__is_integer<_Tp>::__value,
 233:/usr/share/gcc-arm-none-eabi-10-2020-q4-major/arm-none-eabi/include/c++/10.2.1/cmath ****                                     double>::__type
 234:/usr/share/gcc-arm-none-eabi-10-2020-q4-major/arm-none-eabi/include/c++/10.2.1/cmath ****     exp(_Tp __x)
 235:/usr/share/gcc-arm-none-eabi-10-2020-q4-major/arm-none-eabi/include/c++/10.2.1/cmath ****     { return __builtin_exp(__x); }
 236:/usr/share/gcc-arm-none-eabi-10-2020-q4-major/arm-none-eabi/include/c++/10.2.1/cmath **** 
 237:/usr/share/gcc-arm-none-eabi-10-2020-q4-major/arm-none-eabi/include/c++/10.2.1/cmath ****   using ::fabs;
 238:/usr/share/gcc-arm-none-eabi-10-2020-q4-major/arm-none-eabi/include/c++/10.2.1/cmath **** 
 239:/usr/share/gcc-arm-none-eabi-10-2020-q4-major/arm-none-eabi/include/c++/10.2.1/cmath **** #ifndef __CORRECT_ISO_CPP_MATH_H_PROTO
 240:/usr/share/gcc-arm-none-eabi-10-2020-q4-major/arm-none-eabi/include/c++/10.2.1/cmath ****   inline _GLIBCXX_CONSTEXPR float
 241:/usr/share/gcc-arm-none-eabi-10-2020-q4-major/arm-none-eabi/include/c++/10.2.1/cmath ****   fabs(float __x)
 242:/usr/share/gcc-arm-none-eabi-10-2020-q4-major/arm-none-eabi/include/c++/10.2.1/cmath ****   { return __builtin_fabsf(__x); }
 243:/usr/share/gcc-arm-none-eabi-10-2020-q4-major/arm-none-eabi/include/c++/10.2.1/cmath **** 
 244:/usr/share/gcc-arm-none-eabi-10-2020-q4-major/arm-none-eabi/include/c++/10.2.1/cmath ****   inline _GLIBCXX_CONSTEXPR long double
 245:/usr/share/gcc-arm-none-eabi-10-2020-q4-major/arm-none-eabi/include/c++/10.2.1/cmath ****   fabs(long double __x)
 246:/usr/share/gcc-arm-none-eabi-10-2020-q4-major/arm-none-eabi/include/c++/10.2.1/cmath ****   { return __builtin_fabsl(__x); }
 247:/usr/share/gcc-arm-none-eabi-10-2020-q4-major/arm-none-eabi/include/c++/10.2.1/cmath **** #endif
 248:/usr/share/gcc-arm-none-eabi-10-2020-q4-major/arm-none-eabi/include/c++/10.2.1/cmath **** 
 249:/usr/share/gcc-arm-none-eabi-10-2020-q4-major/arm-none-eabi/include/c++/10.2.1/cmath ****   template<typename _Tp>
 250:/usr/share/gcc-arm-none-eabi-10-2020-q4-major/arm-none-eabi/include/c++/10.2.1/cmath ****     inline _GLIBCXX_CONSTEXPR
 251:/usr/share/gcc-arm-none-eabi-10-2020-q4-major/arm-none-eabi/include/c++/10.2.1/cmath ****     typename __gnu_cxx::__enable_if<__is_integer<_Tp>::__value,
 252:/usr/share/gcc-arm-none-eabi-10-2020-q4-major/arm-none-eabi/include/c++/10.2.1/cmath ****                                     double>::__type
 253:/usr/share/gcc-arm-none-eabi-10-2020-q4-major/arm-none-eabi/include/c++/10.2.1/cmath ****     fabs(_Tp __x)
 254:/usr/share/gcc-arm-none-eabi-10-2020-q4-major/arm-none-eabi/include/c++/10.2.1/cmath ****     { return __builtin_fabs(__x); }
 255:/usr/share/gcc-arm-none-eabi-10-2020-q4-major/arm-none-eabi/include/c++/10.2.1/cmath **** 
 256:/usr/share/gcc-arm-none-eabi-10-2020-q4-major/arm-none-eabi/include/c++/10.2.1/cmath ****   using ::floor;
 257:/usr/share/gcc-arm-none-eabi-10-2020-q4-major/arm-none-eabi/include/c++/10.2.1/cmath **** 
 258:/usr/share/gcc-arm-none-eabi-10-2020-q4-major/arm-none-eabi/include/c++/10.2.1/cmath **** #ifndef __CORRECT_ISO_CPP_MATH_H_PROTO
ARM GAS  /tmp/ccqv0h9S.s 			page 38


 259:/usr/share/gcc-arm-none-eabi-10-2020-q4-major/arm-none-eabi/include/c++/10.2.1/cmath ****   inline _GLIBCXX_CONSTEXPR float
 260:/usr/share/gcc-arm-none-eabi-10-2020-q4-major/arm-none-eabi/include/c++/10.2.1/cmath ****   floor(float __x)
 261:/usr/share/gcc-arm-none-eabi-10-2020-q4-major/arm-none-eabi/include/c++/10.2.1/cmath ****   { return __builtin_floorf(__x); }
 322              		.loc 4 261 3
 323              		.cfi_startproc
 324              		@ args = 0, pretend = 0, frame = 8
 325              		@ frame_needed = 1, uses_anonymous_args = 0
 326 0000 80B5     		push	{r7, lr}
 327              	.LCFI26:
 328              		.cfi_def_cfa_offset 8
 329              		.cfi_offset 7, -8
 330              		.cfi_offset 14, -4
 331 0002 82B0     		sub	sp, sp, #8
 332              	.LCFI27:
 333              		.cfi_def_cfa_offset 16
 334 0004 00AF     		add	r7, sp, #0
 335              	.LCFI28:
 336              		.cfi_def_cfa_register 7
 337 0006 87ED010A 		vstr.32	s0, [r7, #4]
 338              		.loc 4 261 28
 339 000a 97ED010A 		vldr.32	s0, [r7, #4]
 340 000e FFF7FEFF 		bl	floorf
 341 0012 F0EE407A 		vmov.f32	s15, s0
 342              		.loc 4 261 35
 343 0016 B0EE670A 		vmov.f32	s0, s15
 344 001a 0837     		adds	r7, r7, #8
 345              	.LCFI29:
 346              		.cfi_def_cfa_offset 8
 347 001c BD46     		mov	sp, r7
 348              	.LCFI30:
 349              		.cfi_def_cfa_register 13
 350              		@ sp needed
 351 001e 80BD     		pop	{r7, pc}
 352              		.cfi_endproc
 353              	.LFE2644:
 355              		.section	.rodata._ZL12one_by_sqrt3,"a"
 356              		.align	2
 359              	_ZL12one_by_sqrt3:
 360 0000 3ACD133F 		.word	1058262330
 361              		.section	.rodata._ZL12two_by_sqrt3,"a"
 362              		.align	2
 365              	_ZL12two_by_sqrt3:
 366 0000 3ACD933F 		.word	1066650938
 367              		.section	.rodata._ZL10sqrt3_by_2,"a"
 368              		.align	2
 371              	_ZL10sqrt3_by_2:
 372 0000 D7B35D3F 		.word	1063105495
 373              		.section	.text.fmodf_pos,"ax",%progbits
 374              		.align	1
 375              		.syntax unified
 376              		.thumb
 377              		.thumb_func
 378              		.fpu fpv4-sp-d16
 380              	fmodf_pos:
 381              	.LFB3402:
 382              		.file 5 "Inc/utils.hpp"
   1:Inc/utils.hpp **** 
ARM GAS  /tmp/ccqv0h9S.s 			page 39


   2:Inc/utils.hpp **** #ifndef __UTILS_H
   3:Inc/utils.hpp **** #define __UTILS_H
   4:Inc/utils.hpp **** 
   5:Inc/utils.hpp **** #include <stdint.h>
   6:Inc/utils.hpp **** #include <math.h>
   7:Inc/utils.hpp **** 
   8:Inc/utils.hpp **** /**
   9:Inc/utils.hpp ****  * @brief Flash size register address
  10:Inc/utils.hpp ****  */
  11:Inc/utils.hpp **** #define ID_FLASH_ADDRESS (0x1FFF7A22)
  12:Inc/utils.hpp **** 
  13:Inc/utils.hpp **** /**
  14:Inc/utils.hpp ****  * @brief Device ID register address
  15:Inc/utils.hpp ****  */
  16:Inc/utils.hpp **** #define ID_DBGMCU_IDCODE (0xE0042000)
  17:Inc/utils.hpp **** 
  18:Inc/utils.hpp **** /**
  19:Inc/utils.hpp ****  * "Returns" the device signature
  20:Inc/utils.hpp ****  *
  21:Inc/utils.hpp ****  * Possible returns:
  22:Inc/utils.hpp ****  *    - 0x0413: STM32F405xx/07xx and STM32F415xx/17xx)
  23:Inc/utils.hpp ****  *    - 0x0419: STM32F42xxx and STM32F43xxx
  24:Inc/utils.hpp ****  *    - 0x0423: STM32F401xB/C
  25:Inc/utils.hpp ****  *    - 0x0433: STM32F401xD/E
  26:Inc/utils.hpp ****  *    - 0x0431: STM32F411xC/E
  27:Inc/utils.hpp ****  *
  28:Inc/utils.hpp ****  * Returned data is in 16-bit mode, but only bits 11:0 are valid, bits 15:12 are always 0.
  29:Inc/utils.hpp ****  * Defined as macro
  30:Inc/utils.hpp ****  */
  31:Inc/utils.hpp **** #define STM_ID_GetSignature() ((*(uint16_t *)(ID_DBGMCU_IDCODE)) & 0x0FFF)
  32:Inc/utils.hpp **** 
  33:Inc/utils.hpp **** /**
  34:Inc/utils.hpp ****  * "Returns" the device revision
  35:Inc/utils.hpp ****  *
