ARM GAS  /tmp/ccM7u9RP.s 			page 1


   1              		.cpu cortex-m4
   2              		.eabi_attribute 27, 1
   3              		.eabi_attribute 28, 1
   4              		.eabi_attribute 20, 1
   5              		.eabi_attribute 21, 1
   6              		.eabi_attribute 23, 3
   7              		.eabi_attribute 24, 1
   8              		.eabi_attribute 25, 1
   9              		.eabi_attribute 26, 1
  10              		.eabi_attribute 30, 2
  11              		.eabi_attribute 34, 1
  12              		.eabi_attribute 18, 4
  13              		.file	"event_groups.c"
  14              		.text
  15              	.Ltext0:
  16              		.cfi_sections	.debug_frame
  17              		.section	.text.xEventGroupCreate,"ax",%progbits
  18              		.align	1
  19              		.p2align 2,,3
  20              		.global	xEventGroupCreate
  21              		.arch armv7e-m
  22              		.syntax unified
  23              		.thumb
  24              		.thumb_func
  25              		.fpu fpv4-sp-d16
  27              	xEventGroupCreate:
  28              	.LFB5:
  29              		.file 1 "Middlewares/Third_Party/FreeRTOS/Source/event_groups.c"
   1:Middlewares/Third_Party/FreeRTOS/Source/event_groups.c **** /*
   2:Middlewares/Third_Party/FreeRTOS/Source/event_groups.c ****  * FreeRTOS Kernel V10.3.1
   3:Middlewares/Third_Party/FreeRTOS/Source/event_groups.c ****  * Copyright (C) 2020 Amazon.com, Inc. or its affiliates.  All Rights Reserved.
   4:Middlewares/Third_Party/FreeRTOS/Source/event_groups.c ****  *
   5:Middlewares/Third_Party/FreeRTOS/Source/event_groups.c ****  * Permission is hereby granted, free of charge, to any person obtaining a copy of
   6:Middlewares/Third_Party/FreeRTOS/Source/event_groups.c ****  * this software and associated documentation files (the "Software"), to deal in
   7:Middlewares/Third_Party/FreeRTOS/Source/event_groups.c ****  * the Software without restriction, including without limitation the rights to
   8:Middlewares/Third_Party/FreeRTOS/Source/event_groups.c ****  * use, copy, modify, merge, publish, distribute, sublicense, and/or sell copies of
   9:Middlewares/Third_Party/FreeRTOS/Source/event_groups.c ****  * the Software, and to permit persons to whom the Software is furnished to do so,
  10:Middlewares/Third_Party/FreeRTOS/Source/event_groups.c ****  * subject to the following conditions:
  11:Middlewares/Third_Party/FreeRTOS/Source/event_groups.c ****  *
  12:Middlewares/Third_Party/FreeRTOS/Source/event_groups.c ****  * The above copyright notice and this permission notice shall be included in all
  13:Middlewares/Third_Party/FreeRTOS/Source/event_groups.c ****  * copies or substantial portions of the Software.
  14:Middlewares/Third_Party/FreeRTOS/Source/event_groups.c ****  *
  15:Middlewares/Third_Party/FreeRTOS/Source/event_groups.c ****  * THE SOFTWARE IS PROVIDED "AS IS", WITHOUT WARRANTY OF ANY KIND, EXPRESS OR
  16:Middlewares/Third_Party/FreeRTOS/Source/event_groups.c ****  * IMPLIED, INCLUDING BUT NOT LIMITED TO THE WARRANTIES OF MERCHANTABILITY, FITNESS
  17:Middlewares/Third_Party/FreeRTOS/Source/event_groups.c ****  * FOR A PARTICULAR PURPOSE AND NONINFRINGEMENT. IN NO EVENT SHALL THE AUTHORS OR
  18:Middlewares/Third_Party/FreeRTOS/Source/event_groups.c ****  * COPYRIGHT HOLDERS BE LIABLE FOR ANY CLAIM, DAMAGES OR OTHER LIABILITY, WHETHER
  19:Middlewares/Third_Party/FreeRTOS/Source/event_groups.c ****  * IN AN ACTION OF CONTRACT, TORT OR OTHERWISE, ARISING FROM, OUT OF OR IN
  20:Middlewares/Third_Party/FreeRTOS/Source/event_groups.c ****  * CONNECTION WITH THE SOFTWARE OR THE USE OR OTHER DEALINGS IN THE SOFTWARE.
  21:Middlewares/Third_Party/FreeRTOS/Source/event_groups.c ****  *
  22:Middlewares/Third_Party/FreeRTOS/Source/event_groups.c ****  * http://www.FreeRTOS.org
  23:Middlewares/Third_Party/FreeRTOS/Source/event_groups.c ****  * http://aws.amazon.com/freertos
  24:Middlewares/Third_Party/FreeRTOS/Source/event_groups.c ****  *
  25:Middlewares/Third_Party/FreeRTOS/Source/event_groups.c ****  * 1 tab == 4 spaces!
  26:Middlewares/Third_Party/FreeRTOS/Source/event_groups.c ****  */
  27:Middlewares/Third_Party/FreeRTOS/Source/event_groups.c **** 
  28:Middlewares/Third_Party/FreeRTOS/Source/event_groups.c **** /* Standard includes. */
  29:Middlewares/Third_Party/FreeRTOS/Source/event_groups.c **** #include <stdlib.h>
ARM GAS  /tmp/ccM7u9RP.s 			page 2


  30:Middlewares/Third_Party/FreeRTOS/Source/event_groups.c **** 
  31:Middlewares/Third_Party/FreeRTOS/Source/event_groups.c **** /* Defining MPU_WRAPPERS_INCLUDED_FROM_API_FILE prevents task.h from redefining
  32:Middlewares/Third_Party/FreeRTOS/Source/event_groups.c **** all the API functions to use the MPU wrappers.  That should only be done when
  33:Middlewares/Third_Party/FreeRTOS/Source/event_groups.c **** task.h is included from an application file. */
  34:Middlewares/Third_Party/FreeRTOS/Source/event_groups.c **** #define MPU_WRAPPERS_INCLUDED_FROM_API_FILE
  35:Middlewares/Third_Party/FreeRTOS/Source/event_groups.c **** 
  36:Middlewares/Third_Party/FreeRTOS/Source/event_groups.c **** /* FreeRTOS includes. */
  37:Middlewares/Third_Party/FreeRTOS/Source/event_groups.c **** #include "FreeRTOS.h"
  38:Middlewares/Third_Party/FreeRTOS/Source/event_groups.c **** #include "task.h"
  39:Middlewares/Third_Party/FreeRTOS/Source/event_groups.c **** #include "timers.h"
  40:Middlewares/Third_Party/FreeRTOS/Source/event_groups.c **** #include "event_groups.h"
  41:Middlewares/Third_Party/FreeRTOS/Source/event_groups.c **** 
  42:Middlewares/Third_Party/FreeRTOS/Source/event_groups.c **** /* Lint e961, e750 and e9021 are suppressed as a MISRA exception justified
  43:Middlewares/Third_Party/FreeRTOS/Source/event_groups.c **** because the MPU ports require MPU_WRAPPERS_INCLUDED_FROM_API_FILE to be defined
  44:Middlewares/Third_Party/FreeRTOS/Source/event_groups.c **** for the header files above, but not in this file, in order to generate the
  45:Middlewares/Third_Party/FreeRTOS/Source/event_groups.c **** correct privileged Vs unprivileged linkage and placement. */
  46:Middlewares/Third_Party/FreeRTOS/Source/event_groups.c **** #undef MPU_WRAPPERS_INCLUDED_FROM_API_FILE /*lint !e961 !e750 !e9021 See comment above. */
  47:Middlewares/Third_Party/FreeRTOS/Source/event_groups.c **** 
  48:Middlewares/Third_Party/FreeRTOS/Source/event_groups.c **** /* The following bit fields convey control information in a task's event list
  49:Middlewares/Third_Party/FreeRTOS/Source/event_groups.c **** item value.  It is important they don't clash with the
  50:Middlewares/Third_Party/FreeRTOS/Source/event_groups.c **** taskEVENT_LIST_ITEM_VALUE_IN_USE definition. */
  51:Middlewares/Third_Party/FreeRTOS/Source/event_groups.c **** #if configUSE_16_BIT_TICKS == 1
  52:Middlewares/Third_Party/FreeRTOS/Source/event_groups.c **** 	#define eventCLEAR_EVENTS_ON_EXIT_BIT	0x0100U
  53:Middlewares/Third_Party/FreeRTOS/Source/event_groups.c **** 	#define eventUNBLOCKED_DUE_TO_BIT_SET	0x0200U
  54:Middlewares/Third_Party/FreeRTOS/Source/event_groups.c **** 	#define eventWAIT_FOR_ALL_BITS			0x0400U
  55:Middlewares/Third_Party/FreeRTOS/Source/event_groups.c **** 	#define eventEVENT_BITS_CONTROL_BYTES	0xff00U
  56:Middlewares/Third_Party/FreeRTOS/Source/event_groups.c **** #else
  57:Middlewares/Third_Party/FreeRTOS/Source/event_groups.c **** 	#define eventCLEAR_EVENTS_ON_EXIT_BIT	0x01000000UL
  58:Middlewares/Third_Party/FreeRTOS/Source/event_groups.c **** 	#define eventUNBLOCKED_DUE_TO_BIT_SET	0x02000000UL
  59:Middlewares/Third_Party/FreeRTOS/Source/event_groups.c **** 	#define eventWAIT_FOR_ALL_BITS			0x04000000UL
  60:Middlewares/Third_Party/FreeRTOS/Source/event_groups.c **** 	#define eventEVENT_BITS_CONTROL_BYTES	0xff000000UL
  61:Middlewares/Third_Party/FreeRTOS/Source/event_groups.c **** #endif
  62:Middlewares/Third_Party/FreeRTOS/Source/event_groups.c **** 
  63:Middlewares/Third_Party/FreeRTOS/Source/event_groups.c **** typedef struct EventGroupDef_t
  64:Middlewares/Third_Party/FreeRTOS/Source/event_groups.c **** {
  65:Middlewares/Third_Party/FreeRTOS/Source/event_groups.c **** 	EventBits_t uxEventBits;
  66:Middlewares/Third_Party/FreeRTOS/Source/event_groups.c **** 	List_t xTasksWaitingForBits;		/*< List of tasks waiting for a bit to be set. */
  67:Middlewares/Third_Party/FreeRTOS/Source/event_groups.c **** 
  68:Middlewares/Third_Party/FreeRTOS/Source/event_groups.c **** 	#if( configUSE_TRACE_FACILITY == 1 )
  69:Middlewares/Third_Party/FreeRTOS/Source/event_groups.c **** 		UBaseType_t uxEventGroupNumber;
  70:Middlewares/Third_Party/FreeRTOS/Source/event_groups.c **** 	#endif
  71:Middlewares/Third_Party/FreeRTOS/Source/event_groups.c **** 
  72:Middlewares/Third_Party/FreeRTOS/Source/event_groups.c **** 	#if( ( configSUPPORT_STATIC_ALLOCATION == 1 ) && ( configSUPPORT_DYNAMIC_ALLOCATION == 1 ) )
  73:Middlewares/Third_Party/FreeRTOS/Source/event_groups.c **** 		uint8_t ucStaticallyAllocated; /*< Set to pdTRUE if the event group is statically allocated to en
  74:Middlewares/Third_Party/FreeRTOS/Source/event_groups.c **** 	#endif
  75:Middlewares/Third_Party/FreeRTOS/Source/event_groups.c **** } EventGroup_t;
  76:Middlewares/Third_Party/FreeRTOS/Source/event_groups.c **** 
  77:Middlewares/Third_Party/FreeRTOS/Source/event_groups.c **** /*-----------------------------------------------------------*/
  78:Middlewares/Third_Party/FreeRTOS/Source/event_groups.c **** 
  79:Middlewares/Third_Party/FreeRTOS/Source/event_groups.c **** /*
  80:Middlewares/Third_Party/FreeRTOS/Source/event_groups.c ****  * Test the bits set in uxCurrentEventBits to see if the wait condition is met.
  81:Middlewares/Third_Party/FreeRTOS/Source/event_groups.c ****  * The wait condition is defined by xWaitForAllBits.  If xWaitForAllBits is
  82:Middlewares/Third_Party/FreeRTOS/Source/event_groups.c ****  * pdTRUE then the wait condition is met if all the bits set in uxBitsToWaitFor
  83:Middlewares/Third_Party/FreeRTOS/Source/event_groups.c ****  * are also set in uxCurrentEventBits.  If xWaitForAllBits is pdFALSE then the
  84:Middlewares/Third_Party/FreeRTOS/Source/event_groups.c ****  * wait condition is met if any of the bits set in uxBitsToWait for are also set
  85:Middlewares/Third_Party/FreeRTOS/Source/event_groups.c ****  * in uxCurrentEventBits.
  86:Middlewares/Third_Party/FreeRTOS/Source/event_groups.c ****  */
ARM GAS  /tmp/ccM7u9RP.s 			page 3


  87:Middlewares/Third_Party/FreeRTOS/Source/event_groups.c **** static BaseType_t prvTestWaitCondition( const EventBits_t uxCurrentEventBits, const EventBits_t uxB
  88:Middlewares/Third_Party/FreeRTOS/Source/event_groups.c **** 
  89:Middlewares/Third_Party/FreeRTOS/Source/event_groups.c **** /*-----------------------------------------------------------*/
  90:Middlewares/Third_Party/FreeRTOS/Source/event_groups.c **** 
  91:Middlewares/Third_Party/FreeRTOS/Source/event_groups.c **** #if( configSUPPORT_STATIC_ALLOCATION == 1 )
  92:Middlewares/Third_Party/FreeRTOS/Source/event_groups.c **** 
  93:Middlewares/Third_Party/FreeRTOS/Source/event_groups.c **** 	EventGroupHandle_t xEventGroupCreateStatic( StaticEventGroup_t *pxEventGroupBuffer )
  94:Middlewares/Third_Party/FreeRTOS/Source/event_groups.c **** 	{
  95:Middlewares/Third_Party/FreeRTOS/Source/event_groups.c **** 	EventGroup_t *pxEventBits;
  96:Middlewares/Third_Party/FreeRTOS/Source/event_groups.c **** 
  97:Middlewares/Third_Party/FreeRTOS/Source/event_groups.c **** 		/* A StaticEventGroup_t object must be provided. */
  98:Middlewares/Third_Party/FreeRTOS/Source/event_groups.c **** 		configASSERT( pxEventGroupBuffer );
  99:Middlewares/Third_Party/FreeRTOS/Source/event_groups.c **** 
 100:Middlewares/Third_Party/FreeRTOS/Source/event_groups.c **** 		#if( configASSERT_DEFINED == 1 )
 101:Middlewares/Third_Party/FreeRTOS/Source/event_groups.c **** 		{
 102:Middlewares/Third_Party/FreeRTOS/Source/event_groups.c **** 			/* Sanity check that the size of the structure used to declare a
 103:Middlewares/Third_Party/FreeRTOS/Source/event_groups.c **** 			variable of type StaticEventGroup_t equals the size of the real
 104:Middlewares/Third_Party/FreeRTOS/Source/event_groups.c **** 			event group structure. */
 105:Middlewares/Third_Party/FreeRTOS/Source/event_groups.c **** 			volatile size_t xSize = sizeof( StaticEventGroup_t );
 106:Middlewares/Third_Party/FreeRTOS/Source/event_groups.c **** 			configASSERT( xSize == sizeof( EventGroup_t ) );
 107:Middlewares/Third_Party/FreeRTOS/Source/event_groups.c **** 		} /*lint !e529 xSize is referenced if configASSERT() is defined. */
 108:Middlewares/Third_Party/FreeRTOS/Source/event_groups.c **** 		#endif /* configASSERT_DEFINED */
 109:Middlewares/Third_Party/FreeRTOS/Source/event_groups.c **** 
 110:Middlewares/Third_Party/FreeRTOS/Source/event_groups.c **** 		/* The user has provided a statically allocated event group - use it. */
 111:Middlewares/Third_Party/FreeRTOS/Source/event_groups.c **** 		pxEventBits = ( EventGroup_t * ) pxEventGroupBuffer; /*lint !e740 !e9087 EventGroup_t and StaticE
 112:Middlewares/Third_Party/FreeRTOS/Source/event_groups.c **** 
 113:Middlewares/Third_Party/FreeRTOS/Source/event_groups.c **** 		if( pxEventBits != NULL )
 114:Middlewares/Third_Party/FreeRTOS/Source/event_groups.c **** 		{
 115:Middlewares/Third_Party/FreeRTOS/Source/event_groups.c **** 			pxEventBits->uxEventBits = 0;
 116:Middlewares/Third_Party/FreeRTOS/Source/event_groups.c **** 			vListInitialise( &( pxEventBits->xTasksWaitingForBits ) );
 117:Middlewares/Third_Party/FreeRTOS/Source/event_groups.c **** 
 118:Middlewares/Third_Party/FreeRTOS/Source/event_groups.c **** 			#if( configSUPPORT_DYNAMIC_ALLOCATION == 1 )
 119:Middlewares/Third_Party/FreeRTOS/Source/event_groups.c **** 			{
 120:Middlewares/Third_Party/FreeRTOS/Source/event_groups.c **** 				/* Both static and dynamic allocation can be used, so note that
 121:Middlewares/Third_Party/FreeRTOS/Source/event_groups.c **** 				this event group was created statically in case the event group
 122:Middlewares/Third_Party/FreeRTOS/Source/event_groups.c **** 				is later deleted. */
 123:Middlewares/Third_Party/FreeRTOS/Source/event_groups.c **** 				pxEventBits->ucStaticallyAllocated = pdTRUE;
 124:Middlewares/Third_Party/FreeRTOS/Source/event_groups.c **** 			}
 125:Middlewares/Third_Party/FreeRTOS/Source/event_groups.c **** 			#endif /* configSUPPORT_DYNAMIC_ALLOCATION */
 126:Middlewares/Third_Party/FreeRTOS/Source/event_groups.c **** 
 127:Middlewares/Third_Party/FreeRTOS/Source/event_groups.c **** 			traceEVENT_GROUP_CREATE( pxEventBits );
 128:Middlewares/Third_Party/FreeRTOS/Source/event_groups.c **** 		}
 129:Middlewares/Third_Party/FreeRTOS/Source/event_groups.c **** 		else
 130:Middlewares/Third_Party/FreeRTOS/Source/event_groups.c **** 		{
 131:Middlewares/Third_Party/FreeRTOS/Source/event_groups.c **** 			/* xEventGroupCreateStatic should only ever be called with
 132:Middlewares/Third_Party/FreeRTOS/Source/event_groups.c **** 			pxEventGroupBuffer pointing to a pre-allocated (compile time
 133:Middlewares/Third_Party/FreeRTOS/Source/event_groups.c **** 			allocated) StaticEventGroup_t variable. */
 134:Middlewares/Third_Party/FreeRTOS/Source/event_groups.c **** 			traceEVENT_GROUP_CREATE_FAILED();
 135:Middlewares/Third_Party/FreeRTOS/Source/event_groups.c **** 		}
 136:Middlewares/Third_Party/FreeRTOS/Source/event_groups.c **** 
 137:Middlewares/Third_Party/FreeRTOS/Source/event_groups.c **** 		return pxEventBits;
 138:Middlewares/Third_Party/FreeRTOS/Source/event_groups.c **** 	}
 139:Middlewares/Third_Party/FreeRTOS/Source/event_groups.c **** 
 140:Middlewares/Third_Party/FreeRTOS/Source/event_groups.c **** #endif /* configSUPPORT_STATIC_ALLOCATION */
 141:Middlewares/Third_Party/FreeRTOS/Source/event_groups.c **** /*-----------------------------------------------------------*/
 142:Middlewares/Third_Party/FreeRTOS/Source/event_groups.c **** 
 143:Middlewares/Third_Party/FreeRTOS/Source/event_groups.c **** #if( configSUPPORT_DYNAMIC_ALLOCATION == 1 )
ARM GAS  /tmp/ccM7u9RP.s 			page 4


 144:Middlewares/Third_Party/FreeRTOS/Source/event_groups.c **** 
 145:Middlewares/Third_Party/FreeRTOS/Source/event_groups.c **** 	EventGroupHandle_t xEventGroupCreate( void )
 146:Middlewares/Third_Party/FreeRTOS/Source/event_groups.c **** 	{
  30              		.loc 1 146 2 view -0
  31              		.cfi_startproc
  32              		@ args = 0, pretend = 0, frame = 0
  33              		@ frame_needed = 0, uses_anonymous_args = 0
 147:Middlewares/Third_Party/FreeRTOS/Source/event_groups.c **** 	EventGroup_t *pxEventBits;
  34              		.loc 1 147 2 view .LVU1
 148:Middlewares/Third_Party/FreeRTOS/Source/event_groups.c **** 
 149:Middlewares/Third_Party/FreeRTOS/Source/event_groups.c **** 		/* Allocate the event group.  Justification for MISRA deviation as
 150:Middlewares/Third_Party/FreeRTOS/Source/event_groups.c **** 		follows:  pvPortMalloc() always ensures returned memory blocks are
 151:Middlewares/Third_Party/FreeRTOS/Source/event_groups.c **** 		aligned per the requirements of the MCU stack.  In this case
 152:Middlewares/Third_Party/FreeRTOS/Source/event_groups.c **** 		pvPortMalloc() must return a pointer that is guaranteed to meet the
 153:Middlewares/Third_Party/FreeRTOS/Source/event_groups.c **** 		alignment requirements of the EventGroup_t structure - which (if you
 154:Middlewares/Third_Party/FreeRTOS/Source/event_groups.c **** 		follow it through) is the alignment requirements of the TickType_t type
 155:Middlewares/Third_Party/FreeRTOS/Source/event_groups.c **** 		(EventBits_t being of TickType_t itself).  Therefore, whenever the
 156:Middlewares/Third_Party/FreeRTOS/Source/event_groups.c **** 		stack alignment requirements are greater than or equal to the
 157:Middlewares/Third_Party/FreeRTOS/Source/event_groups.c **** 		TickType_t alignment requirements the cast is safe.  In other cases,
 158:Middlewares/Third_Party/FreeRTOS/Source/event_groups.c **** 		where the natural word size of the architecture is less than
 159:Middlewares/Third_Party/FreeRTOS/Source/event_groups.c **** 		sizeof( TickType_t ), the TickType_t variables will be accessed in two
 160:Middlewares/Third_Party/FreeRTOS/Source/event_groups.c **** 		or more reads operations, and the alignment requirements is only that
 161:Middlewares/Third_Party/FreeRTOS/Source/event_groups.c **** 		of each individual read. */
 162:Middlewares/Third_Party/FreeRTOS/Source/event_groups.c **** 		pxEventBits = ( EventGroup_t * ) pvPortMalloc( sizeof( EventGroup_t ) ); /*lint !e9087 !e9079 see
  35              		.loc 1 162 3 view .LVU2
 146:Middlewares/Third_Party/FreeRTOS/Source/event_groups.c **** 	EventGroup_t *pxEventBits;
  36              		.loc 1 146 2 is_stmt 0 view .LVU3
  37 0000 10B5     		push	{r4, lr}
  38              	.LCFI0:
  39              		.cfi_def_cfa_offset 8
  40              		.cfi_offset 4, -8
  41              		.cfi_offset 14, -4
  42              		.loc 1 162 36 view .LVU4
  43 0002 1820     		movs	r0, #24
  44 0004 FFF7FEFF 		bl	pvPortMalloc
  45              	.LVL0:
 163:Middlewares/Third_Party/FreeRTOS/Source/event_groups.c **** 
 164:Middlewares/Third_Party/FreeRTOS/Source/event_groups.c **** 		if( pxEventBits != NULL )
  46              		.loc 1 164 3 is_stmt 1 view .LVU5
  47              		.loc 1 164 5 is_stmt 0 view .LVU6
  48 0008 0446     		mov	r4, r0
  49 000a 20B1     		cbz	r0, .L1
 165:Middlewares/Third_Party/FreeRTOS/Source/event_groups.c **** 		{
 166:Middlewares/Third_Party/FreeRTOS/Source/event_groups.c **** 			pxEventBits->uxEventBits = 0;
  50              		.loc 1 166 4 is_stmt 1 view .LVU7
  51              		.loc 1 166 29 is_stmt 0 view .LVU8
  52 000c 0023     		movs	r3, #0
  53 000e 40F8043B 		str	r3, [r0], #4
  54              	.LVL1:
 167:Middlewares/Third_Party/FreeRTOS/Source/event_groups.c **** 			vListInitialise( &( pxEventBits->xTasksWaitingForBits ) );
  55              		.loc 1 167 4 is_stmt 1 view .LVU9
  56 0012 FFF7FEFF 		bl	vListInitialise
  57              	.LVL2:
 168:Middlewares/Third_Party/FreeRTOS/Source/event_groups.c **** 
 169:Middlewares/Third_Party/FreeRTOS/Source/event_groups.c **** 			#if( configSUPPORT_STATIC_ALLOCATION == 1 )
 170:Middlewares/Third_Party/FreeRTOS/Source/event_groups.c **** 			{
 171:Middlewares/Third_Party/FreeRTOS/Source/event_groups.c **** 				/* Both static and dynamic allocation can be used, so note this
ARM GAS  /tmp/ccM7u9RP.s 			page 5


 172:Middlewares/Third_Party/FreeRTOS/Source/event_groups.c **** 				event group was allocated statically in case the event group is
 173:Middlewares/Third_Party/FreeRTOS/Source/event_groups.c **** 				later deleted. */
 174:Middlewares/Third_Party/FreeRTOS/Source/event_groups.c **** 				pxEventBits->ucStaticallyAllocated = pdFALSE;
 175:Middlewares/Third_Party/FreeRTOS/Source/event_groups.c **** 			}
 176:Middlewares/Third_Party/FreeRTOS/Source/event_groups.c **** 			#endif /* configSUPPORT_STATIC_ALLOCATION */
 177:Middlewares/Third_Party/FreeRTOS/Source/event_groups.c **** 
 178:Middlewares/Third_Party/FreeRTOS/Source/event_groups.c **** 			traceEVENT_GROUP_CREATE( pxEventBits );
  58              		.loc 1 178 42 view .LVU10
 179:Middlewares/Third_Party/FreeRTOS/Source/event_groups.c **** 		}
 180:Middlewares/Third_Party/FreeRTOS/Source/event_groups.c **** 		else
 181:Middlewares/Third_Party/FreeRTOS/Source/event_groups.c **** 		{
 182:Middlewares/Third_Party/FreeRTOS/Source/event_groups.c **** 			traceEVENT_GROUP_CREATE_FAILED(); /*lint !e9063 Else branch only exists to allow tracing and doe
  59              		.loc 1 182 36 view .LVU11
 183:Middlewares/Third_Party/FreeRTOS/Source/event_groups.c **** 		}
 184:Middlewares/Third_Party/FreeRTOS/Source/event_groups.c **** 
 185:Middlewares/Third_Party/FreeRTOS/Source/event_groups.c **** 		return pxEventBits;
  60              		.loc 1 185 3 view .LVU12
  61              	.L1:
 186:Middlewares/Third_Party/FreeRTOS/Source/event_groups.c **** 	}
  62              		.loc 1 186 2 is_stmt 0 view .LVU13
  63 0016 2046     		mov	r0, r4
  64 0018 10BD     		pop	{r4, pc}
  65              		.loc 1 186 2 view .LVU14
  66              		.cfi_endproc
  67              	.LFE5:
  69 001a 00BF     		.section	.text.xEventGroupWaitBits,"ax",%progbits
  70              		.align	1
  71              		.p2align 2,,3
  72              		.global	xEventGroupWaitBits
  73              		.syntax unified
  74              		.thumb
  75              		.thumb_func
  76              		.fpu fpv4-sp-d16
  78              	xEventGroupWaitBits:
  79              	.LVL3:
  80              	.LFB7:
 187:Middlewares/Third_Party/FreeRTOS/Source/event_groups.c **** 
 188:Middlewares/Third_Party/FreeRTOS/Source/event_groups.c **** #endif /* configSUPPORT_DYNAMIC_ALLOCATION */
 189:Middlewares/Third_Party/FreeRTOS/Source/event_groups.c **** /*-----------------------------------------------------------*/
 190:Middlewares/Third_Party/FreeRTOS/Source/event_groups.c **** 
 191:Middlewares/Third_Party/FreeRTOS/Source/event_groups.c **** EventBits_t xEventGroupSync( EventGroupHandle_t xEventGroup, const EventBits_t uxBitsToSet, const E
 192:Middlewares/Third_Party/FreeRTOS/Source/event_groups.c **** {
 193:Middlewares/Third_Party/FreeRTOS/Source/event_groups.c **** EventBits_t uxOriginalBitValue, uxReturn;
 194:Middlewares/Third_Party/FreeRTOS/Source/event_groups.c **** EventGroup_t *pxEventBits = xEventGroup;
 195:Middlewares/Third_Party/FreeRTOS/Source/event_groups.c **** BaseType_t xAlreadyYielded;
 196:Middlewares/Third_Party/FreeRTOS/Source/event_groups.c **** BaseType_t xTimeoutOccurred = pdFALSE;
 197:Middlewares/Third_Party/FreeRTOS/Source/event_groups.c **** 
 198:Middlewares/Third_Party/FreeRTOS/Source/event_groups.c **** 	configASSERT( ( uxBitsToWaitFor & eventEVENT_BITS_CONTROL_BYTES ) == 0 );
 199:Middlewares/Third_Party/FreeRTOS/Source/event_groups.c **** 	configASSERT( uxBitsToWaitFor != 0 );
 200:Middlewares/Third_Party/FreeRTOS/Source/event_groups.c **** 	#if ( ( INCLUDE_xTaskGetSchedulerState == 1 ) || ( configUSE_TIMERS == 1 ) )
 201:Middlewares/Third_Party/FreeRTOS/Source/event_groups.c **** 	{
 202:Middlewares/Third_Party/FreeRTOS/Source/event_groups.c **** 		configASSERT( !( ( xTaskGetSchedulerState() == taskSCHEDULER_SUSPENDED ) && ( xTicksToWait != 0 )
 203:Middlewares/Third_Party/FreeRTOS/Source/event_groups.c **** 	}
 204:Middlewares/Third_Party/FreeRTOS/Source/event_groups.c **** 	#endif
 205:Middlewares/Third_Party/FreeRTOS/Source/event_groups.c **** 
 206:Middlewares/Third_Party/FreeRTOS/Source/event_groups.c **** 	vTaskSuspendAll();
 207:Middlewares/Third_Party/FreeRTOS/Source/event_groups.c **** 	{
ARM GAS  /tmp/ccM7u9RP.s 			page 6


 208:Middlewares/Third_Party/FreeRTOS/Source/event_groups.c **** 		uxOriginalBitValue = pxEventBits->uxEventBits;
 209:Middlewares/Third_Party/FreeRTOS/Source/event_groups.c **** 
 210:Middlewares/Third_Party/FreeRTOS/Source/event_groups.c **** 		( void ) xEventGroupSetBits( xEventGroup, uxBitsToSet );
 211:Middlewares/Third_Party/FreeRTOS/Source/event_groups.c **** 
 212:Middlewares/Third_Party/FreeRTOS/Source/event_groups.c **** 		if( ( ( uxOriginalBitValue | uxBitsToSet ) & uxBitsToWaitFor ) == uxBitsToWaitFor )
 213:Middlewares/Third_Party/FreeRTOS/Source/event_groups.c **** 		{
 214:Middlewares/Third_Party/FreeRTOS/Source/event_groups.c **** 			/* All the rendezvous bits are now set - no need to block. */
 215:Middlewares/Third_Party/FreeRTOS/Source/event_groups.c **** 			uxReturn = ( uxOriginalBitValue | uxBitsToSet );
 216:Middlewares/Third_Party/FreeRTOS/Source/event_groups.c **** 
 217:Middlewares/Third_Party/FreeRTOS/Source/event_groups.c **** 			/* Rendezvous always clear the bits.  They will have been cleared
 218:Middlewares/Third_Party/FreeRTOS/Source/event_groups.c **** 			already unless this is the only task in the rendezvous. */
 219:Middlewares/Third_Party/FreeRTOS/Source/event_groups.c **** 			pxEventBits->uxEventBits &= ~uxBitsToWaitFor;
 220:Middlewares/Third_Party/FreeRTOS/Source/event_groups.c **** 
 221:Middlewares/Third_Party/FreeRTOS/Source/event_groups.c **** 			xTicksToWait = 0;
 222:Middlewares/Third_Party/FreeRTOS/Source/event_groups.c **** 		}
 223:Middlewares/Third_Party/FreeRTOS/Source/event_groups.c **** 		else
 224:Middlewares/Third_Party/FreeRTOS/Source/event_groups.c **** 		{
 225:Middlewares/Third_Party/FreeRTOS/Source/event_groups.c **** 			if( xTicksToWait != ( TickType_t ) 0 )
 226:Middlewares/Third_Party/FreeRTOS/Source/event_groups.c **** 			{
 227:Middlewares/Third_Party/FreeRTOS/Source/event_groups.c **** 				traceEVENT_GROUP_SYNC_BLOCK( xEventGroup, uxBitsToSet, uxBitsToWaitFor );
 228:Middlewares/Third_Party/FreeRTOS/Source/event_groups.c **** 
 229:Middlewares/Third_Party/FreeRTOS/Source/event_groups.c **** 				/* Store the bits that the calling task is waiting for in the
 230:Middlewares/Third_Party/FreeRTOS/Source/event_groups.c **** 				task's event list item so the kernel knows when a match is
 231:Middlewares/Third_Party/FreeRTOS/Source/event_groups.c **** 				found.  Then enter the blocked state. */
 232:Middlewares/Third_Party/FreeRTOS/Source/event_groups.c **** 				vTaskPlaceOnUnorderedEventList( &( pxEventBits->xTasksWaitingForBits ), ( uxBitsToWaitFor | eve
 233:Middlewares/Third_Party/FreeRTOS/Source/event_groups.c **** 
 234:Middlewares/Third_Party/FreeRTOS/Source/event_groups.c **** 				/* This assignment is obsolete as uxReturn will get set after
 235:Middlewares/Third_Party/FreeRTOS/Source/event_groups.c **** 				the task unblocks, but some compilers mistakenly generate a
 236:Middlewares/Third_Party/FreeRTOS/Source/event_groups.c **** 				warning about uxReturn being returned without being set if the
 237:Middlewares/Third_Party/FreeRTOS/Source/event_groups.c **** 				assignment is omitted. */
 238:Middlewares/Third_Party/FreeRTOS/Source/event_groups.c **** 				uxReturn = 0;
 239:Middlewares/Third_Party/FreeRTOS/Source/event_groups.c **** 			}
 240:Middlewares/Third_Party/FreeRTOS/Source/event_groups.c **** 			else
 241:Middlewares/Third_Party/FreeRTOS/Source/event_groups.c **** 			{
 242:Middlewares/Third_Party/FreeRTOS/Source/event_groups.c **** 				/* The rendezvous bits were not set, but no block time was
 243:Middlewares/Third_Party/FreeRTOS/Source/event_groups.c **** 				specified - just return the current event bit value. */
 244:Middlewares/Third_Party/FreeRTOS/Source/event_groups.c **** 				uxReturn = pxEventBits->uxEventBits;
 245:Middlewares/Third_Party/FreeRTOS/Source/event_groups.c **** 				xTimeoutOccurred = pdTRUE;
 246:Middlewares/Third_Party/FreeRTOS/Source/event_groups.c **** 			}
 247:Middlewares/Third_Party/FreeRTOS/Source/event_groups.c **** 		}
 248:Middlewares/Third_Party/FreeRTOS/Source/event_groups.c **** 	}
 249:Middlewares/Third_Party/FreeRTOS/Source/event_groups.c **** 	xAlreadyYielded = xTaskResumeAll();
 250:Middlewares/Third_Party/FreeRTOS/Source/event_groups.c **** 
 251:Middlewares/Third_Party/FreeRTOS/Source/event_groups.c **** 	if( xTicksToWait != ( TickType_t ) 0 )
 252:Middlewares/Third_Party/FreeRTOS/Source/event_groups.c **** 	{
 253:Middlewares/Third_Party/FreeRTOS/Source/event_groups.c **** 		if( xAlreadyYielded == pdFALSE )
 254:Middlewares/Third_Party/FreeRTOS/Source/event_groups.c **** 		{
 255:Middlewares/Third_Party/FreeRTOS/Source/event_groups.c **** 			portYIELD_WITHIN_API();
 256:Middlewares/Third_Party/FreeRTOS/Source/event_groups.c **** 		}
 257:Middlewares/Third_Party/FreeRTOS/Source/event_groups.c **** 		else
 258:Middlewares/Third_Party/FreeRTOS/Source/event_groups.c **** 		{
 259:Middlewares/Third_Party/FreeRTOS/Source/event_groups.c **** 			mtCOVERAGE_TEST_MARKER();
 260:Middlewares/Third_Party/FreeRTOS/Source/event_groups.c **** 		}
 261:Middlewares/Third_Party/FreeRTOS/Source/event_groups.c **** 
 262:Middlewares/Third_Party/FreeRTOS/Source/event_groups.c **** 		/* The task blocked to wait for its required bits to be set - at this
 263:Middlewares/Third_Party/FreeRTOS/Source/event_groups.c **** 		point either the required bits were set or the block time expired.  If
 264:Middlewares/Third_Party/FreeRTOS/Source/event_groups.c **** 		the required bits were set they will have been stored in the task's
ARM GAS  /tmp/ccM7u9RP.s 			page 7


 265:Middlewares/Third_Party/FreeRTOS/Source/event_groups.c **** 		event list item, and they should now be retrieved then cleared. */
 266:Middlewares/Third_Party/FreeRTOS/Source/event_groups.c **** 		uxReturn = uxTaskResetEventItemValue();
 267:Middlewares/Third_Party/FreeRTOS/Source/event_groups.c **** 
 268:Middlewares/Third_Party/FreeRTOS/Source/event_groups.c **** 		if( ( uxReturn & eventUNBLOCKED_DUE_TO_BIT_SET ) == ( EventBits_t ) 0 )
 269:Middlewares/Third_Party/FreeRTOS/Source/event_groups.c **** 		{
 270:Middlewares/Third_Party/FreeRTOS/Source/event_groups.c **** 			/* The task timed out, just return the current event bit value. */
 271:Middlewares/Third_Party/FreeRTOS/Source/event_groups.c **** 			taskENTER_CRITICAL();
 272:Middlewares/Third_Party/FreeRTOS/Source/event_groups.c **** 			{
 273:Middlewares/Third_Party/FreeRTOS/Source/event_groups.c **** 				uxReturn = pxEventBits->uxEventBits;
 274:Middlewares/Third_Party/FreeRTOS/Source/event_groups.c **** 
 275:Middlewares/Third_Party/FreeRTOS/Source/event_groups.c **** 				/* Although the task got here because it timed out before the
 276:Middlewares/Third_Party/FreeRTOS/Source/event_groups.c **** 				bits it was waiting for were set, it is possible that since it
 277:Middlewares/Third_Party/FreeRTOS/Source/event_groups.c **** 				unblocked another task has set the bits.  If this is the case
 278:Middlewares/Third_Party/FreeRTOS/Source/event_groups.c **** 				then it needs to clear the bits before exiting. */
 279:Middlewares/Third_Party/FreeRTOS/Source/event_groups.c **** 				if( ( uxReturn & uxBitsToWaitFor ) == uxBitsToWaitFor )
 280:Middlewares/Third_Party/FreeRTOS/Source/event_groups.c **** 				{
 281:Middlewares/Third_Party/FreeRTOS/Source/event_groups.c **** 					pxEventBits->uxEventBits &= ~uxBitsToWaitFor;
 282:Middlewares/Third_Party/FreeRTOS/Source/event_groups.c **** 				}
 283:Middlewares/Third_Party/FreeRTOS/Source/event_groups.c **** 				else
 284:Middlewares/Third_Party/FreeRTOS/Source/event_groups.c **** 				{
 285:Middlewares/Third_Party/FreeRTOS/Source/event_groups.c **** 					mtCOVERAGE_TEST_MARKER();
 286:Middlewares/Third_Party/FreeRTOS/Source/event_groups.c **** 				}
 287:Middlewares/Third_Party/FreeRTOS/Source/event_groups.c **** 			}
 288:Middlewares/Third_Party/FreeRTOS/Source/event_groups.c **** 			taskEXIT_CRITICAL();
 289:Middlewares/Third_Party/FreeRTOS/Source/event_groups.c **** 
 290:Middlewares/Third_Party/FreeRTOS/Source/event_groups.c **** 			xTimeoutOccurred = pdTRUE;
 291:Middlewares/Third_Party/FreeRTOS/Source/event_groups.c **** 		}
 292:Middlewares/Third_Party/FreeRTOS/Source/event_groups.c **** 		else
 293:Middlewares/Third_Party/FreeRTOS/Source/event_groups.c **** 		{
 294:Middlewares/Third_Party/FreeRTOS/Source/event_groups.c **** 			/* The task unblocked because the bits were set. */
 295:Middlewares/Third_Party/FreeRTOS/Source/event_groups.c **** 		}
 296:Middlewares/Third_Party/FreeRTOS/Source/event_groups.c **** 
 297:Middlewares/Third_Party/FreeRTOS/Source/event_groups.c **** 		/* Control bits might be set as the task had blocked should not be
 298:Middlewares/Third_Party/FreeRTOS/Source/event_groups.c **** 		returned. */
 299:Middlewares/Third_Party/FreeRTOS/Source/event_groups.c **** 		uxReturn &= ~eventEVENT_BITS_CONTROL_BYTES;
 300:Middlewares/Third_Party/FreeRTOS/Source/event_groups.c **** 	}
 301:Middlewares/Third_Party/FreeRTOS/Source/event_groups.c **** 
 302:Middlewares/Third_Party/FreeRTOS/Source/event_groups.c **** 	traceEVENT_GROUP_SYNC_END( xEventGroup, uxBitsToSet, uxBitsToWaitFor, xTimeoutOccurred );
 303:Middlewares/Third_Party/FreeRTOS/Source/event_groups.c **** 
 304:Middlewares/Third_Party/FreeRTOS/Source/event_groups.c **** 	/* Prevent compiler warnings when trace macros are not used. */
 305:Middlewares/Third_Party/FreeRTOS/Source/event_groups.c **** 	( void ) xTimeoutOccurred;
 306:Middlewares/Third_Party/FreeRTOS/Source/event_groups.c **** 
 307:Middlewares/Third_Party/FreeRTOS/Source/event_groups.c **** 	return uxReturn;
 308:Middlewares/Third_Party/FreeRTOS/Source/event_groups.c **** }
 309:Middlewares/Third_Party/FreeRTOS/Source/event_groups.c **** /*-----------------------------------------------------------*/
 310:Middlewares/Third_Party/FreeRTOS/Source/event_groups.c **** 
 311:Middlewares/Third_Party/FreeRTOS/Source/event_groups.c **** EventBits_t xEventGroupWaitBits( EventGroupHandle_t xEventGroup, const EventBits_t uxBitsToWaitFor,
 312:Middlewares/Third_Party/FreeRTOS/Source/event_groups.c **** {
  81              		.loc 1 312 1 is_stmt 1 view -0
  82              		.cfi_startproc
  83              		@ args = 4, pretend = 0, frame = 0
  84              		@ frame_needed = 0, uses_anonymous_args = 0
  85              		.loc 1 312 1 is_stmt 0 view .LVU16
  86 0000 2DE9F843 		push	{r3, r4, r5, r6, r7, r8, r9, lr}
  87              	.LCFI1:
  88              		.cfi_def_cfa_offset 32
  89              		.cfi_offset 3, -32
ARM GAS  /tmp/ccM7u9RP.s 			page 8


  90              		.cfi_offset 4, -28
  91              		.cfi_offset 5, -24
  92              		.cfi_offset 6, -20
  93              		.cfi_offset 7, -16
  94              		.cfi_offset 8, -12
  95              		.cfi_offset 9, -8
  96              		.cfi_offset 14, -4
 313:Middlewares/Third_Party/FreeRTOS/Source/event_groups.c **** EventGroup_t *pxEventBits = xEventGroup;
  97              		.loc 1 313 1 is_stmt 1 view .LVU17
  98              	.LVL4:
 314:Middlewares/Third_Party/FreeRTOS/Source/event_groups.c **** EventBits_t uxReturn, uxControlBits = 0;
  99              		.loc 1 314 1 view .LVU18
 315:Middlewares/Third_Party/FreeRTOS/Source/event_groups.c **** BaseType_t xWaitConditionMet, xAlreadyYielded;
 100              		.loc 1 315 1 view .LVU19
 316:Middlewares/Third_Party/FreeRTOS/Source/event_groups.c **** BaseType_t xTimeoutOccurred = pdFALSE;
 101              		.loc 1 316 1 view .LVU20
 317:Middlewares/Third_Party/FreeRTOS/Source/event_groups.c **** 
 318:Middlewares/Third_Party/FreeRTOS/Source/event_groups.c **** 	/* Check the user is not attempting to wait on the bits used by the kernel
 319:Middlewares/Third_Party/FreeRTOS/Source/event_groups.c **** 	itself, and that at least one bit is being requested. */
 320:Middlewares/Third_Party/FreeRTOS/Source/event_groups.c **** 	configASSERT( xEventGroup );
 102              		.loc 1 320 2 view .LVU21
 103 0004 B0B1     		cbz	r0, .L38
 104              		.loc 1 320 29 discriminator 2 view .LVU22
 321:Middlewares/Third_Party/FreeRTOS/Source/event_groups.c **** 	configASSERT( ( uxBitsToWaitFor & eventEVENT_BITS_CONTROL_BYTES ) == 0 );
 105              		.loc 1 321 2 discriminator 2 view .LVU23
 106 0006 11F07F48 		ands	r8, r1, #-16777216
 107 000a 0C46     		mov	r4, r1
 108 000c 09D1     		bne	.L39
 109              		.loc 1 321 74 discriminator 2 view .LVU24
 322:Middlewares/Third_Party/FreeRTOS/Source/event_groups.c **** 	configASSERT( uxBitsToWaitFor != 0 );
 110              		.loc 1 322 2 discriminator 2 view .LVU25
 111 000e D1B9     		cbnz	r1, .L13
 112              		.loc 1 322 2 view .LVU26
 113              	.LBB52:
 114              	.LBI52:
 115              		.file 2 "Middlewares/Third_Party/FreeRTOS/Source/portable/GCC/ARM_CM4F/portmacro.h"
   1:Middlewares/Third_Party/FreeRTOS/Source/portable/GCC/ARM_CM4F/portmacro.h **** /*
   2:Middlewares/Third_Party/FreeRTOS/Source/portable/GCC/ARM_CM4F/portmacro.h ****  * FreeRTOS Kernel V10.3.1
   3:Middlewares/Third_Party/FreeRTOS/Source/portable/GCC/ARM_CM4F/portmacro.h ****  * Copyright (C) 2020 Amazon.com, Inc. or its affiliates.  All Rights Reserved.
   4:Middlewares/Third_Party/FreeRTOS/Source/portable/GCC/ARM_CM4F/portmacro.h ****  *
   5:Middlewares/Third_Party/FreeRTOS/Source/portable/GCC/ARM_CM4F/portmacro.h ****  * Permission is hereby granted, free of charge, to any person obtaining a copy of
   6:Middlewares/Third_Party/FreeRTOS/Source/portable/GCC/ARM_CM4F/portmacro.h ****  * this software and associated documentation files (the "Software"), to deal in
   7:Middlewares/Third_Party/FreeRTOS/Source/portable/GCC/ARM_CM4F/portmacro.h ****  * the Software without restriction, including without limitation the rights to
   8:Middlewares/Third_Party/FreeRTOS/Source/portable/GCC/ARM_CM4F/portmacro.h ****  * use, copy, modify, merge, publish, distribute, sublicense, and/or sell copies of
   9:Middlewares/Third_Party/FreeRTOS/Source/portable/GCC/ARM_CM4F/portmacro.h ****  * the Software, and to permit persons to whom the Software is furnished to do so,
  10:Middlewares/Third_Party/FreeRTOS/Source/portable/GCC/ARM_CM4F/portmacro.h ****  * subject to the following conditions:
  11:Middlewares/Third_Party/FreeRTOS/Source/portable/GCC/ARM_CM4F/portmacro.h ****  *
  12:Middlewares/Third_Party/FreeRTOS/Source/portable/GCC/ARM_CM4F/portmacro.h ****  * The above copyright notice and this permission notice shall be included in all
  13:Middlewares/Third_Party/FreeRTOS/Source/portable/GCC/ARM_CM4F/portmacro.h ****  * copies or substantial portions of the Software.
  14:Middlewares/Third_Party/FreeRTOS/Source/portable/GCC/ARM_CM4F/portmacro.h ****  *
  15:Middlewares/Third_Party/FreeRTOS/Source/portable/GCC/ARM_CM4F/portmacro.h ****  * THE SOFTWARE IS PROVIDED "AS IS", WITHOUT WARRANTY OF ANY KIND, EXPRESS OR
  16:Middlewares/Third_Party/FreeRTOS/Source/portable/GCC/ARM_CM4F/portmacro.h ****  * IMPLIED, INCLUDING BUT NOT LIMITED TO THE WARRANTIES OF MERCHANTABILITY, FITNESS
  17:Middlewares/Third_Party/FreeRTOS/Source/portable/GCC/ARM_CM4F/portmacro.h ****  * FOR A PARTICULAR PURPOSE AND NONINFRINGEMENT. IN NO EVENT SHALL THE AUTHORS OR
  18:Middlewares/Third_Party/FreeRTOS/Source/portable/GCC/ARM_CM4F/portmacro.h ****  * COPYRIGHT HOLDERS BE LIABLE FOR ANY CLAIM, DAMAGES OR OTHER LIABILITY, WHETHER
  19:Middlewares/Third_Party/FreeRTOS/Source/portable/GCC/ARM_CM4F/portmacro.h ****  * IN AN ACTION OF CONTRACT, TORT OR OTHERWISE, ARISING FROM, OUT OF OR IN
  20:Middlewares/Third_Party/FreeRTOS/Source/portable/GCC/ARM_CM4F/portmacro.h ****  * CONNECTION WITH THE SOFTWARE OR THE USE OR OTHER DEALINGS IN THE SOFTWARE.
  21:Middlewares/Third_Party/FreeRTOS/Source/portable/GCC/ARM_CM4F/portmacro.h ****  *
ARM GAS  /tmp/ccM7u9RP.s 			page 9


  22:Middlewares/Third_Party/FreeRTOS/Source/portable/GCC/ARM_CM4F/portmacro.h ****  * http://www.FreeRTOS.org
  23:Middlewares/Third_Party/FreeRTOS/Source/portable/GCC/ARM_CM4F/portmacro.h ****  * http://aws.amazon.com/freertos
  24:Middlewares/Third_Party/FreeRTOS/Source/portable/GCC/ARM_CM4F/portmacro.h ****  *
  25:Middlewares/Third_Party/FreeRTOS/Source/portable/GCC/ARM_CM4F/portmacro.h ****  * 1 tab == 4 spaces!
  26:Middlewares/Third_Party/FreeRTOS/Source/portable/GCC/ARM_CM4F/portmacro.h ****  */
  27:Middlewares/Third_Party/FreeRTOS/Source/portable/GCC/ARM_CM4F/portmacro.h **** 
  28:Middlewares/Third_Party/FreeRTOS/Source/portable/GCC/ARM_CM4F/portmacro.h **** 
  29:Middlewares/Third_Party/FreeRTOS/Source/portable/GCC/ARM_CM4F/portmacro.h **** #ifndef PORTMACRO_H
  30:Middlewares/Third_Party/FreeRTOS/Source/portable/GCC/ARM_CM4F/portmacro.h **** #define PORTMACRO_H
  31:Middlewares/Third_Party/FreeRTOS/Source/portable/GCC/ARM_CM4F/portmacro.h **** 
  32:Middlewares/Third_Party/FreeRTOS/Source/portable/GCC/ARM_CM4F/portmacro.h **** #ifdef __cplusplus
  33:Middlewares/Third_Party/FreeRTOS/Source/portable/GCC/ARM_CM4F/portmacro.h **** extern "C" {
  34:Middlewares/Third_Party/FreeRTOS/Source/portable/GCC/ARM_CM4F/portmacro.h **** #endif
  35:Middlewares/Third_Party/FreeRTOS/Source/portable/GCC/ARM_CM4F/portmacro.h **** 
  36:Middlewares/Third_Party/FreeRTOS/Source/portable/GCC/ARM_CM4F/portmacro.h **** /*-----------------------------------------------------------
  37:Middlewares/Third_Party/FreeRTOS/Source/portable/GCC/ARM_CM4F/portmacro.h ****  * Port specific definitions.
  38:Middlewares/Third_Party/FreeRTOS/Source/portable/GCC/ARM_CM4F/portmacro.h ****  *
  39:Middlewares/Third_Party/FreeRTOS/Source/portable/GCC/ARM_CM4F/portmacro.h ****  * The settings in this file configure FreeRTOS correctly for the
  40:Middlewares/Third_Party/FreeRTOS/Source/portable/GCC/ARM_CM4F/portmacro.h ****  * given hardware and compiler.
  41:Middlewares/Third_Party/FreeRTOS/Source/portable/GCC/ARM_CM4F/portmacro.h ****  *
  42:Middlewares/Third_Party/FreeRTOS/Source/portable/GCC/ARM_CM4F/portmacro.h ****  * These settings should not be altered.
  43:Middlewares/Third_Party/FreeRTOS/Source/portable/GCC/ARM_CM4F/portmacro.h ****  *-----------------------------------------------------------
  44:Middlewares/Third_Party/FreeRTOS/Source/portable/GCC/ARM_CM4F/portmacro.h ****  */
  45:Middlewares/Third_Party/FreeRTOS/Source/portable/GCC/ARM_CM4F/portmacro.h **** 
  46:Middlewares/Third_Party/FreeRTOS/Source/portable/GCC/ARM_CM4F/portmacro.h **** /* Type definitions. */
  47:Middlewares/Third_Party/FreeRTOS/Source/portable/GCC/ARM_CM4F/portmacro.h **** #define portCHAR		char
  48:Middlewares/Third_Party/FreeRTOS/Source/portable/GCC/ARM_CM4F/portmacro.h **** #define portFLOAT		float
  49:Middlewares/Third_Party/FreeRTOS/Source/portable/GCC/ARM_CM4F/portmacro.h **** #define portDOUBLE		double
  50:Middlewares/Third_Party/FreeRTOS/Source/portable/GCC/ARM_CM4F/portmacro.h **** #define portLONG		long
  51:Middlewares/Third_Party/FreeRTOS/Source/portable/GCC/ARM_CM4F/portmacro.h **** #define portSHORT		short
  52:Middlewares/Third_Party/FreeRTOS/Source/portable/GCC/ARM_CM4F/portmacro.h **** #define portSTACK_TYPE	uint32_t
  53:Middlewares/Third_Party/FreeRTOS/Source/portable/GCC/ARM_CM4F/portmacro.h **** #define portBASE_TYPE	long
  54:Middlewares/Third_Party/FreeRTOS/Source/portable/GCC/ARM_CM4F/portmacro.h **** 
  55:Middlewares/Third_Party/FreeRTOS/Source/portable/GCC/ARM_CM4F/portmacro.h **** typedef portSTACK_TYPE StackType_t;
  56:Middlewares/Third_Party/FreeRTOS/Source/portable/GCC/ARM_CM4F/portmacro.h **** typedef long BaseType_t;
  57:Middlewares/Third_Party/FreeRTOS/Source/portable/GCC/ARM_CM4F/portmacro.h **** typedef unsigned long UBaseType_t;
  58:Middlewares/Third_Party/FreeRTOS/Source/portable/GCC/ARM_CM4F/portmacro.h **** 
  59:Middlewares/Third_Party/FreeRTOS/Source/portable/GCC/ARM_CM4F/portmacro.h **** #if( configUSE_16_BIT_TICKS == 1 )
  60:Middlewares/Third_Party/FreeRTOS/Source/portable/GCC/ARM_CM4F/portmacro.h **** 	typedef uint16_t TickType_t;
  61:Middlewares/Third_Party/FreeRTOS/Source/portable/GCC/ARM_CM4F/portmacro.h **** 	#define portMAX_DELAY ( TickType_t ) 0xffff
  62:Middlewares/Third_Party/FreeRTOS/Source/portable/GCC/ARM_CM4F/portmacro.h **** #else
  63:Middlewares/Third_Party/FreeRTOS/Source/portable/GCC/ARM_CM4F/portmacro.h **** 	typedef uint32_t TickType_t;
  64:Middlewares/Third_Party/FreeRTOS/Source/portable/GCC/ARM_CM4F/portmacro.h **** 	#define portMAX_DELAY ( TickType_t ) 0xffffffffUL
  65:Middlewares/Third_Party/FreeRTOS/Source/portable/GCC/ARM_CM4F/portmacro.h **** 
  66:Middlewares/Third_Party/FreeRTOS/Source/portable/GCC/ARM_CM4F/portmacro.h **** 	/* 32-bit tick type on a 32-bit architecture, so reads of the tick count do
  67:Middlewares/Third_Party/FreeRTOS/Source/portable/GCC/ARM_CM4F/portmacro.h **** 	not need to be guarded with a critical section. */
  68:Middlewares/Third_Party/FreeRTOS/Source/portable/GCC/ARM_CM4F/portmacro.h **** 	#define portTICK_TYPE_IS_ATOMIC 1
  69:Middlewares/Third_Party/FreeRTOS/Source/portable/GCC/ARM_CM4F/portmacro.h **** #endif
  70:Middlewares/Third_Party/FreeRTOS/Source/portable/GCC/ARM_CM4F/portmacro.h **** /*-----------------------------------------------------------*/
  71:Middlewares/Third_Party/FreeRTOS/Source/portable/GCC/ARM_CM4F/portmacro.h **** 
  72:Middlewares/Third_Party/FreeRTOS/Source/portable/GCC/ARM_CM4F/portmacro.h **** /* Architecture specifics. */
  73:Middlewares/Third_Party/FreeRTOS/Source/portable/GCC/ARM_CM4F/portmacro.h **** #define portSTACK_GROWTH			( -1 )
  74:Middlewares/Third_Party/FreeRTOS/Source/portable/GCC/ARM_CM4F/portmacro.h **** #define portTICK_PERIOD_MS			( ( TickType_t ) 1000 / configTICK_RATE_HZ )
  75:Middlewares/Third_Party/FreeRTOS/Source/portable/GCC/ARM_CM4F/portmacro.h **** #define portBYTE_ALIGNMENT			8
  76:Middlewares/Third_Party/FreeRTOS/Source/portable/GCC/ARM_CM4F/portmacro.h **** /*-----------------------------------------------------------*/
  77:Middlewares/Third_Party/FreeRTOS/Source/portable/GCC/ARM_CM4F/portmacro.h **** 
  78:Middlewares/Third_Party/FreeRTOS/Source/portable/GCC/ARM_CM4F/portmacro.h **** /* Scheduler utilities. */
ARM GAS  /tmp/ccM7u9RP.s 			page 10


  79:Middlewares/Third_Party/FreeRTOS/Source/portable/GCC/ARM_CM4F/portmacro.h **** #define portYIELD() 															\
  80:Middlewares/Third_Party/FreeRTOS/Source/portable/GCC/ARM_CM4F/portmacro.h **** {																				\
  81:Middlewares/Third_Party/FreeRTOS/Source/portable/GCC/ARM_CM4F/portmacro.h **** 	/* Set a PendSV to request a context switch. */								\
  82:Middlewares/Third_Party/FreeRTOS/Source/portable/GCC/ARM_CM4F/portmacro.h **** 	portNVIC_INT_CTRL_REG = portNVIC_PENDSVSET_BIT;								\
  83:Middlewares/Third_Party/FreeRTOS/Source/portable/GCC/ARM_CM4F/portmacro.h **** 																				\
  84:Middlewares/Third_Party/FreeRTOS/Source/portable/GCC/ARM_CM4F/portmacro.h **** 	/* Barriers are normally not required but do ensure the code is completely	\
  85:Middlewares/Third_Party/FreeRTOS/Source/portable/GCC/ARM_CM4F/portmacro.h **** 	within the specified behaviour for the architecture. */						\
  86:Middlewares/Third_Party/FreeRTOS/Source/portable/GCC/ARM_CM4F/portmacro.h **** 	__asm volatile( "dsb" ::: "memory" );										\
  87:Middlewares/Third_Party/FreeRTOS/Source/portable/GCC/ARM_CM4F/portmacro.h **** 	__asm volatile( "isb" );													\
  88:Middlewares/Third_Party/FreeRTOS/Source/portable/GCC/ARM_CM4F/portmacro.h **** }
  89:Middlewares/Third_Party/FreeRTOS/Source/portable/GCC/ARM_CM4F/portmacro.h **** 
  90:Middlewares/Third_Party/FreeRTOS/Source/portable/GCC/ARM_CM4F/portmacro.h **** #define portNVIC_INT_CTRL_REG		( * ( ( volatile uint32_t * ) 0xe000ed04 ) )
  91:Middlewares/Third_Party/FreeRTOS/Source/portable/GCC/ARM_CM4F/portmacro.h **** #define portNVIC_PENDSVSET_BIT		( 1UL << 28UL )
  92:Middlewares/Third_Party/FreeRTOS/Source/portable/GCC/ARM_CM4F/portmacro.h **** #define portEND_SWITCHING_ISR( xSwitchRequired ) if( xSwitchRequired != pdFALSE ) portYIELD()
  93:Middlewares/Third_Party/FreeRTOS/Source/portable/GCC/ARM_CM4F/portmacro.h **** #define portYIELD_FROM_ISR( x ) portEND_SWITCHING_ISR( x )
  94:Middlewares/Third_Party/FreeRTOS/Source/portable/GCC/ARM_CM4F/portmacro.h **** /*-----------------------------------------------------------*/
  95:Middlewares/Third_Party/FreeRTOS/Source/portable/GCC/ARM_CM4F/portmacro.h **** 
  96:Middlewares/Third_Party/FreeRTOS/Source/portable/GCC/ARM_CM4F/portmacro.h **** /* Critical section management. */
  97:Middlewares/Third_Party/FreeRTOS/Source/portable/GCC/ARM_CM4F/portmacro.h **** extern void vPortEnterCritical( void );
  98:Middlewares/Third_Party/FreeRTOS/Source/portable/GCC/ARM_CM4F/portmacro.h **** extern void vPortExitCritical( void );
  99:Middlewares/Third_Party/FreeRTOS/Source/portable/GCC/ARM_CM4F/portmacro.h **** #define portSET_INTERRUPT_MASK_FROM_ISR()		ulPortRaiseBASEPRI()
 100:Middlewares/Third_Party/FreeRTOS/Source/portable/GCC/ARM_CM4F/portmacro.h **** #define portCLEAR_INTERRUPT_MASK_FROM_ISR(x)	vPortSetBASEPRI(x)
 101:Middlewares/Third_Party/FreeRTOS/Source/portable/GCC/ARM_CM4F/portmacro.h **** #define portDISABLE_INTERRUPTS()				vPortRaiseBASEPRI()
 102:Middlewares/Third_Party/FreeRTOS/Source/portable/GCC/ARM_CM4F/portmacro.h **** #define portENABLE_INTERRUPTS()					vPortSetBASEPRI(0)
 103:Middlewares/Third_Party/FreeRTOS/Source/portable/GCC/ARM_CM4F/portmacro.h **** #define portENTER_CRITICAL()					vPortEnterCritical()
 104:Middlewares/Third_Party/FreeRTOS/Source/portable/GCC/ARM_CM4F/portmacro.h **** #define portEXIT_CRITICAL()						vPortExitCritical()
 105:Middlewares/Third_Party/FreeRTOS/Source/portable/GCC/ARM_CM4F/portmacro.h **** 
 106:Middlewares/Third_Party/FreeRTOS/Source/portable/GCC/ARM_CM4F/portmacro.h **** /*-----------------------------------------------------------*/
 107:Middlewares/Third_Party/FreeRTOS/Source/portable/GCC/ARM_CM4F/portmacro.h **** 
 108:Middlewares/Third_Party/FreeRTOS/Source/portable/GCC/ARM_CM4F/portmacro.h **** /* Task function macros as described on the FreeRTOS.org WEB site.  These are
 109:Middlewares/Third_Party/FreeRTOS/Source/portable/GCC/ARM_CM4F/portmacro.h **** not necessary for to use this port.  They are defined so the common demo files
 110:Middlewares/Third_Party/FreeRTOS/Source/portable/GCC/ARM_CM4F/portmacro.h **** (which build with all the ports) will build. */
 111:Middlewares/Third_Party/FreeRTOS/Source/portable/GCC/ARM_CM4F/portmacro.h **** #define portTASK_FUNCTION_PROTO( vFunction, pvParameters ) void vFunction( void *pvParameters )
 112:Middlewares/Third_Party/FreeRTOS/Source/portable/GCC/ARM_CM4F/portmacro.h **** #define portTASK_FUNCTION( vFunction, pvParameters ) void vFunction( void *pvParameters )
 113:Middlewares/Third_Party/FreeRTOS/Source/portable/GCC/ARM_CM4F/portmacro.h **** /*-----------------------------------------------------------*/
 114:Middlewares/Third_Party/FreeRTOS/Source/portable/GCC/ARM_CM4F/portmacro.h **** 
 115:Middlewares/Third_Party/FreeRTOS/Source/portable/GCC/ARM_CM4F/portmacro.h **** /* Tickless idle/low power functionality. */
 116:Middlewares/Third_Party/FreeRTOS/Source/portable/GCC/ARM_CM4F/portmacro.h **** #ifndef portSUPPRESS_TICKS_AND_SLEEP
 117:Middlewares/Third_Party/FreeRTOS/Source/portable/GCC/ARM_CM4F/portmacro.h **** 	extern void vPortSuppressTicksAndSleep( TickType_t xExpectedIdleTime );
 118:Middlewares/Third_Party/FreeRTOS/Source/portable/GCC/ARM_CM4F/portmacro.h **** 	#define portSUPPRESS_TICKS_AND_SLEEP( xExpectedIdleTime ) vPortSuppressTicksAndSleep( xExpectedIdl
 119:Middlewares/Third_Party/FreeRTOS/Source/portable/GCC/ARM_CM4F/portmacro.h **** #endif
 120:Middlewares/Third_Party/FreeRTOS/Source/portable/GCC/ARM_CM4F/portmacro.h **** /*-----------------------------------------------------------*/
 121:Middlewares/Third_Party/FreeRTOS/Source/portable/GCC/ARM_CM4F/portmacro.h **** 
 122:Middlewares/Third_Party/FreeRTOS/Source/portable/GCC/ARM_CM4F/portmacro.h **** /* Architecture specific optimisations. */
 123:Middlewares/Third_Party/FreeRTOS/Source/portable/GCC/ARM_CM4F/portmacro.h **** #ifndef configUSE_PORT_OPTIMISED_TASK_SELECTION
 124:Middlewares/Third_Party/FreeRTOS/Source/portable/GCC/ARM_CM4F/portmacro.h **** 	#define configUSE_PORT_OPTIMISED_TASK_SELECTION 1
 125:Middlewares/Third_Party/FreeRTOS/Source/portable/GCC/ARM_CM4F/portmacro.h **** #endif
 126:Middlewares/Third_Party/FreeRTOS/Source/portable/GCC/ARM_CM4F/portmacro.h **** 
 127:Middlewares/Third_Party/FreeRTOS/Source/portable/GCC/ARM_CM4F/portmacro.h **** #if configUSE_PORT_OPTIMISED_TASK_SELECTION == 1
 128:Middlewares/Third_Party/FreeRTOS/Source/portable/GCC/ARM_CM4F/portmacro.h **** 
 129:Middlewares/Third_Party/FreeRTOS/Source/portable/GCC/ARM_CM4F/portmacro.h **** 	/* Generic helper function. */
 130:Middlewares/Third_Party/FreeRTOS/Source/portable/GCC/ARM_CM4F/portmacro.h **** 	__attribute__( ( always_inline ) ) static inline uint8_t ucPortCountLeadingZeros( uint32_t ulBitma
 131:Middlewares/Third_Party/FreeRTOS/Source/portable/GCC/ARM_CM4F/portmacro.h **** 	{
 132:Middlewares/Third_Party/FreeRTOS/Source/portable/GCC/ARM_CM4F/portmacro.h **** 	uint8_t ucReturn;
 133:Middlewares/Third_Party/FreeRTOS/Source/portable/GCC/ARM_CM4F/portmacro.h **** 
 134:Middlewares/Third_Party/FreeRTOS/Source/portable/GCC/ARM_CM4F/portmacro.h **** 		__asm volatile ( "clz %0, %1" : "=r" ( ucReturn ) : "r" ( ulBitmap ) : "memory" );
 135:Middlewares/Third_Party/FreeRTOS/Source/portable/GCC/ARM_CM4F/portmacro.h **** 		return ucReturn;
ARM GAS  /tmp/ccM7u9RP.s 			page 11


 136:Middlewares/Third_Party/FreeRTOS/Source/portable/GCC/ARM_CM4F/portmacro.h **** 	}
 137:Middlewares/Third_Party/FreeRTOS/Source/portable/GCC/ARM_CM4F/portmacro.h **** 
 138:Middlewares/Third_Party/FreeRTOS/Source/portable/GCC/ARM_CM4F/portmacro.h **** 	/* Check the configuration. */
 139:Middlewares/Third_Party/FreeRTOS/Source/portable/GCC/ARM_CM4F/portmacro.h **** 	#if( configMAX_PRIORITIES > 32 )
 140:Middlewares/Third_Party/FreeRTOS/Source/portable/GCC/ARM_CM4F/portmacro.h **** 		#error configUSE_PORT_OPTIMISED_TASK_SELECTION can only be set to 1 when configMAX_PRIORITIES is 
 141:Middlewares/Third_Party/FreeRTOS/Source/portable/GCC/ARM_CM4F/portmacro.h **** 	#endif
 142:Middlewares/Third_Party/FreeRTOS/Source/portable/GCC/ARM_CM4F/portmacro.h **** 
 143:Middlewares/Third_Party/FreeRTOS/Source/portable/GCC/ARM_CM4F/portmacro.h **** 	/* Store/clear the ready priorities in a bit map. */
 144:Middlewares/Third_Party/FreeRTOS/Source/portable/GCC/ARM_CM4F/portmacro.h **** 	#define portRECORD_READY_PRIORITY( uxPriority, uxReadyPriorities ) ( uxReadyPriorities ) |= ( 1UL 
 145:Middlewares/Third_Party/FreeRTOS/Source/portable/GCC/ARM_CM4F/portmacro.h **** 	#define portRESET_READY_PRIORITY( uxPriority, uxReadyPriorities ) ( uxReadyPriorities ) &= ~( 1UL 
 146:Middlewares/Third_Party/FreeRTOS/Source/portable/GCC/ARM_CM4F/portmacro.h **** 
 147:Middlewares/Third_Party/FreeRTOS/Source/portable/GCC/ARM_CM4F/portmacro.h **** 	/*-----------------------------------------------------------*/
 148:Middlewares/Third_Party/FreeRTOS/Source/portable/GCC/ARM_CM4F/portmacro.h **** 
 149:Middlewares/Third_Party/FreeRTOS/Source/portable/GCC/ARM_CM4F/portmacro.h **** 	#define portGET_HIGHEST_PRIORITY( uxTopPriority, uxReadyPriorities ) uxTopPriority = ( 31UL - ( ui
 150:Middlewares/Third_Party/FreeRTOS/Source/portable/GCC/ARM_CM4F/portmacro.h **** 
 151:Middlewares/Third_Party/FreeRTOS/Source/portable/GCC/ARM_CM4F/portmacro.h **** #endif /* configUSE_PORT_OPTIMISED_TASK_SELECTION */
 152:Middlewares/Third_Party/FreeRTOS/Source/portable/GCC/ARM_CM4F/portmacro.h **** 
 153:Middlewares/Third_Party/FreeRTOS/Source/portable/GCC/ARM_CM4F/portmacro.h **** /*-----------------------------------------------------------*/
 154:Middlewares/Third_Party/FreeRTOS/Source/portable/GCC/ARM_CM4F/portmacro.h **** 
 155:Middlewares/Third_Party/FreeRTOS/Source/portable/GCC/ARM_CM4F/portmacro.h **** #ifdef configASSERT
 156:Middlewares/Third_Party/FreeRTOS/Source/portable/GCC/ARM_CM4F/portmacro.h **** 	void vPortValidateInterruptPriority( void );
 157:Middlewares/Third_Party/FreeRTOS/Source/portable/GCC/ARM_CM4F/portmacro.h **** 	#define portASSERT_IF_INTERRUPT_PRIORITY_INVALID() 	vPortValidateInterruptPriority()
 158:Middlewares/Third_Party/FreeRTOS/Source/portable/GCC/ARM_CM4F/portmacro.h **** #endif
 159:Middlewares/Third_Party/FreeRTOS/Source/portable/GCC/ARM_CM4F/portmacro.h **** 
 160:Middlewares/Third_Party/FreeRTOS/Source/portable/GCC/ARM_CM4F/portmacro.h **** /* portNOP() is not required by this port. */
 161:Middlewares/Third_Party/FreeRTOS/Source/portable/GCC/ARM_CM4F/portmacro.h **** #define portNOP()
 162:Middlewares/Third_Party/FreeRTOS/Source/portable/GCC/ARM_CM4F/portmacro.h **** 
 163:Middlewares/Third_Party/FreeRTOS/Source/portable/GCC/ARM_CM4F/portmacro.h **** #define portINLINE	__inline
 164:Middlewares/Third_Party/FreeRTOS/Source/portable/GCC/ARM_CM4F/portmacro.h **** 
 165:Middlewares/Third_Party/FreeRTOS/Source/portable/GCC/ARM_CM4F/portmacro.h **** #ifndef portFORCE_INLINE
 166:Middlewares/Third_Party/FreeRTOS/Source/portable/GCC/ARM_CM4F/portmacro.h **** 	#define portFORCE_INLINE inline __attribute__(( always_inline))
 167:Middlewares/Third_Party/FreeRTOS/Source/portable/GCC/ARM_CM4F/portmacro.h **** #endif
 168:Middlewares/Third_Party/FreeRTOS/Source/portable/GCC/ARM_CM4F/portmacro.h **** 
 169:Middlewares/Third_Party/FreeRTOS/Source/portable/GCC/ARM_CM4F/portmacro.h **** portFORCE_INLINE static BaseType_t xPortIsInsideInterrupt( void )
 170:Middlewares/Third_Party/FreeRTOS/Source/portable/GCC/ARM_CM4F/portmacro.h **** {
 171:Middlewares/Third_Party/FreeRTOS/Source/portable/GCC/ARM_CM4F/portmacro.h **** uint32_t ulCurrentInterrupt;
 172:Middlewares/Third_Party/FreeRTOS/Source/portable/GCC/ARM_CM4F/portmacro.h **** BaseType_t xReturn;
 173:Middlewares/Third_Party/FreeRTOS/Source/portable/GCC/ARM_CM4F/portmacro.h **** 
 174:Middlewares/Third_Party/FreeRTOS/Source/portable/GCC/ARM_CM4F/portmacro.h **** 	/* Obtain the number of the currently executing interrupt. */
 175:Middlewares/Third_Party/FreeRTOS/Source/portable/GCC/ARM_CM4F/portmacro.h **** 	__asm volatile( "mrs %0, ipsr" : "=r"( ulCurrentInterrupt ) :: "memory" );
 176:Middlewares/Third_Party/FreeRTOS/Source/portable/GCC/ARM_CM4F/portmacro.h **** 
 177:Middlewares/Third_Party/FreeRTOS/Source/portable/GCC/ARM_CM4F/portmacro.h **** 	if( ulCurrentInterrupt == 0 )
 178:Middlewares/Third_Party/FreeRTOS/Source/portable/GCC/ARM_CM4F/portmacro.h **** 	{
 179:Middlewares/Third_Party/FreeRTOS/Source/portable/GCC/ARM_CM4F/portmacro.h **** 		xReturn = pdFALSE;
 180:Middlewares/Third_Party/FreeRTOS/Source/portable/GCC/ARM_CM4F/portmacro.h **** 	}
 181:Middlewares/Third_Party/FreeRTOS/Source/portable/GCC/ARM_CM4F/portmacro.h **** 	else
 182:Middlewares/Third_Party/FreeRTOS/Source/portable/GCC/ARM_CM4F/portmacro.h **** 	{
 183:Middlewares/Third_Party/FreeRTOS/Source/portable/GCC/ARM_CM4F/portmacro.h **** 		xReturn = pdTRUE;
 184:Middlewares/Third_Party/FreeRTOS/Source/portable/GCC/ARM_CM4F/portmacro.h **** 	}
 185:Middlewares/Third_Party/FreeRTOS/Source/portable/GCC/ARM_CM4F/portmacro.h **** 
 186:Middlewares/Third_Party/FreeRTOS/Source/portable/GCC/ARM_CM4F/portmacro.h **** 	return xReturn;
 187:Middlewares/Third_Party/FreeRTOS/Source/portable/GCC/ARM_CM4F/portmacro.h **** }
 188:Middlewares/Third_Party/FreeRTOS/Source/portable/GCC/ARM_CM4F/portmacro.h **** 
 189:Middlewares/Third_Party/FreeRTOS/Source/portable/GCC/ARM_CM4F/portmacro.h **** /*-----------------------------------------------------------*/
 190:Middlewares/Third_Party/FreeRTOS/Source/portable/GCC/ARM_CM4F/portmacro.h **** 
 191:Middlewares/Third_Party/FreeRTOS/Source/portable/GCC/ARM_CM4F/portmacro.h **** portFORCE_INLINE static void vPortRaiseBASEPRI( void )
 116              		.loc 2 191 30 view .LVU27
ARM GAS  /tmp/ccM7u9RP.s 			page 12


 117              	.LBB53:
 192:Middlewares/Third_Party/FreeRTOS/Source/portable/GCC/ARM_CM4F/portmacro.h **** {
 193:Middlewares/Third_Party/FreeRTOS/Source/portable/GCC/ARM_CM4F/portmacro.h **** uint32_t ulNewBASEPRI;
 118              		.loc 2 193 1 view .LVU28
 194:Middlewares/Third_Party/FreeRTOS/Source/portable/GCC/ARM_CM4F/portmacro.h **** 
 195:Middlewares/Third_Party/FreeRTOS/Source/portable/GCC/ARM_CM4F/portmacro.h **** 	__asm volatile
 119              		.loc 2 195 2 view .LVU29
 120              		.syntax unified
 121              	@ 195 "Middlewares/Third_Party/FreeRTOS/Source/portable/GCC/ARM_CM4F/portmacro.h" 1
 122 0010 4FF05003 			mov r3, #80												
 123 0014 83F31188 		msr basepri, r3											
 124 0018 BFF36F8F 		isb														
 125 001c BFF34F8F 		dsb														
 126              	
 127              	@ 0 "" 2
 128              	.LVL5:
 129              		.thumb
 130              		.syntax unified
 131              	.L14:
 132              		.loc 2 195 2 is_stmt 0 view .LVU30
 133              	.LBE53:
 134              	.LBE52:
 135              		.loc 1 322 2 is_stmt 1 discriminator 3 view .LVU31
 136              		.loc 1 322 2 discriminator 3 view .LVU32
 137              		.loc 1 322 2 discriminator 3 view .LVU33
 138              		.loc 1 322 2 discriminator 3 view .LVU34
 139              		.loc 1 322 2 discriminator 3 view .LVU35
 140              		.loc 1 322 2 discriminator 3 view .LVU36
 141 0020 FEE7     		b	.L14
 142              	.LVL6:
 143              	.L39:
 321:Middlewares/Third_Party/FreeRTOS/Source/event_groups.c **** 	configASSERT( uxBitsToWaitFor != 0 );
 144              		.loc 1 321 2 view .LVU37
 145              	.LBB54:
 146              	.LBI54:
 191:Middlewares/Third_Party/FreeRTOS/Source/portable/GCC/ARM_CM4F/portmacro.h **** {
 147              		.loc 2 191 30 view .LVU38
 148              	.LBB55:
 193:Middlewares/Third_Party/FreeRTOS/Source/portable/GCC/ARM_CM4F/portmacro.h **** 
 149              		.loc 2 193 1 view .LVU39
 150              		.loc 2 195 2 view .LVU40
 151              		.syntax unified
 152              	@ 195 "Middlewares/Third_Party/FreeRTOS/Source/portable/GCC/ARM_CM4F/portmacro.h" 1
 153 0022 4FF05003 			mov r3, #80												
 154 0026 83F31188 		msr basepri, r3											
 155 002a BFF36F8F 		isb														
 156 002e BFF34F8F 		dsb														
 157              	
 158              	@ 0 "" 2
 159              	.LVL7:
 160              		.thumb
 161              		.syntax unified
 162              	.L12:
 163              		.loc 2 195 2 is_stmt 0 view .LVU41
 164              	.LBE55:
 165              	.LBE54:
 321:Middlewares/Third_Party/FreeRTOS/Source/event_groups.c **** 	configASSERT( uxBitsToWaitFor != 0 );
ARM GAS  /tmp/ccM7u9RP.s 			page 13


 166              		.loc 1 321 2 is_stmt 1 discriminator 2 view .LVU42
 321:Middlewares/Third_Party/FreeRTOS/Source/event_groups.c **** 	configASSERT( uxBitsToWaitFor != 0 );
 167              		.loc 1 321 2 discriminator 2 view .LVU43
 321:Middlewares/Third_Party/FreeRTOS/Source/event_groups.c **** 	configASSERT( uxBitsToWaitFor != 0 );
 168              		.loc 1 321 2 discriminator 2 view .LVU44
 321:Middlewares/Third_Party/FreeRTOS/Source/event_groups.c **** 	configASSERT( uxBitsToWaitFor != 0 );
 169              		.loc 1 321 2 discriminator 2 view .LVU45
 321:Middlewares/Third_Party/FreeRTOS/Source/event_groups.c **** 	configASSERT( uxBitsToWaitFor != 0 );
 170              		.loc 1 321 2 discriminator 2 view .LVU46
 321:Middlewares/Third_Party/FreeRTOS/Source/event_groups.c **** 	configASSERT( uxBitsToWaitFor != 0 );
 171              		.loc 1 321 2 discriminator 2 view .LVU47
 172 0032 FEE7     		b	.L12
 173              	.LVL8:
 174              	.L38:
 320:Middlewares/Third_Party/FreeRTOS/Source/event_groups.c **** 	configASSERT( ( uxBitsToWaitFor & eventEVENT_BITS_CONTROL_BYTES ) == 0 );
 175              		.loc 1 320 2 view .LVU48
 176              	.LBB56:
 177              	.LBI56:
 191:Middlewares/Third_Party/FreeRTOS/Source/portable/GCC/ARM_CM4F/portmacro.h **** {
 178              		.loc 2 191 30 view .LVU49
 179              	.LBB57:
 193:Middlewares/Third_Party/FreeRTOS/Source/portable/GCC/ARM_CM4F/portmacro.h **** 
 180              		.loc 2 193 1 view .LVU50
 181              		.loc 2 195 2 view .LVU51
 182              		.syntax unified
 183              	@ 195 "Middlewares/Third_Party/FreeRTOS/Source/portable/GCC/ARM_CM4F/portmacro.h" 1
 184 0034 4FF05003 			mov r3, #80												
 185 0038 83F31188 		msr basepri, r3											
 186 003c BFF36F8F 		isb														
 187 0040 BFF34F8F 		dsb														
 188              	
 189              	@ 0 "" 2
 190              	.LVL9:
 191              		.thumb
 192              		.syntax unified
 193              	.L10:
 194              		.loc 2 195 2 is_stmt 0 view .LVU52
 195              	.LBE57:
 196              	.LBE56:
 320:Middlewares/Third_Party/FreeRTOS/Source/event_groups.c **** 	configASSERT( ( uxBitsToWaitFor & eventEVENT_BITS_CONTROL_BYTES ) == 0 );
 197              		.loc 1 320 2 is_stmt 1 discriminator 1 view .LVU53
 320:Middlewares/Third_Party/FreeRTOS/Source/event_groups.c **** 	configASSERT( ( uxBitsToWaitFor & eventEVENT_BITS_CONTROL_BYTES ) == 0 );
 198              		.loc 1 320 2 discriminator 1 view .LVU54
 320:Middlewares/Third_Party/FreeRTOS/Source/event_groups.c **** 	configASSERT( ( uxBitsToWaitFor & eventEVENT_BITS_CONTROL_BYTES ) == 0 );
 199              		.loc 1 320 2 discriminator 1 view .LVU55
 320:Middlewares/Third_Party/FreeRTOS/Source/event_groups.c **** 	configASSERT( ( uxBitsToWaitFor & eventEVENT_BITS_CONTROL_BYTES ) == 0 );
 200              		.loc 1 320 2 discriminator 1 view .LVU56
 320:Middlewares/Third_Party/FreeRTOS/Source/event_groups.c **** 	configASSERT( ( uxBitsToWaitFor & eventEVENT_BITS_CONTROL_BYTES ) == 0 );
 201              		.loc 1 320 2 discriminator 1 view .LVU57
 320:Middlewares/Third_Party/FreeRTOS/Source/event_groups.c **** 	configASSERT( ( uxBitsToWaitFor & eventEVENT_BITS_CONTROL_BYTES ) == 0 );
 202              		.loc 1 320 2 discriminator 1 view .LVU58
 203 0044 FEE7     		b	.L10
 204              	.LVL10:
 205              	.L13:
 206              		.loc 1 322 38 discriminator 2 view .LVU59
 323:Middlewares/Third_Party/FreeRTOS/Source/event_groups.c **** 	#if ( ( INCLUDE_xTaskGetSchedulerState == 1 ) || ( configUSE_TIMERS == 1 ) )
 324:Middlewares/Third_Party/FreeRTOS/Source/event_groups.c **** 	{
ARM GAS  /tmp/ccM7u9RP.s 			page 14


 325:Middlewares/Third_Party/FreeRTOS/Source/event_groups.c **** 		configASSERT( !( ( xTaskGetSchedulerState() == taskSCHEDULER_SUSPENDED ) && ( xTicksToWait != 0 )
 207              		.loc 1 325 3 discriminator 2 view .LVU60
 208 0046 1746     		mov	r7, r2
 209 0048 1E46     		mov	r6, r3
 210 004a 0546     		mov	r5, r0
 211 004c FFF7FEFF 		bl	xTaskGetSchedulerState
 212              	.LVL11:
 213              		.loc 1 325 3 is_stmt 0 discriminator 2 view .LVU61
 214 0050 10B9     		cbnz	r0, .L15
 215              		.loc 1 325 3 discriminator 2 view .LVU62
 216 0052 089B     		ldr	r3, [sp, #32]
 217 0054 002B     		cmp	r3, #0
 218 0056 3CD1     		bne	.L40
 219              	.L15:
 220              		.loc 1 325 104 is_stmt 1 discriminator 8 view .LVU63
 326:Middlewares/Third_Party/FreeRTOS/Source/event_groups.c **** 	}
 327:Middlewares/Third_Party/FreeRTOS/Source/event_groups.c **** 	#endif
 328:Middlewares/Third_Party/FreeRTOS/Source/event_groups.c **** 
 329:Middlewares/Third_Party/FreeRTOS/Source/event_groups.c **** 	vTaskSuspendAll();
 221              		.loc 1 329 2 discriminator 8 view .LVU64
 222 0058 FFF7FEFF 		bl	vTaskSuspendAll
 223              	.LVL12:
 224              	.LBB58:
 330:Middlewares/Third_Party/FreeRTOS/Source/event_groups.c **** 	{
 331:Middlewares/Third_Party/FreeRTOS/Source/event_groups.c **** 		const EventBits_t uxCurrentEventBits = pxEventBits->uxEventBits;
 225              		.loc 1 331 3 discriminator 8 view .LVU65
 226              		.loc 1 331 21 is_stmt 0 discriminator 8 view .LVU66
 227 005c D5F80090 		ldr	r9, [r5]
 228              	.LVL13:
 332:Middlewares/Third_Party/FreeRTOS/Source/event_groups.c **** 
 333:Middlewares/Third_Party/FreeRTOS/Source/event_groups.c **** 		/* Check to see if the wait condition is already met or not. */
 334:Middlewares/Third_Party/FreeRTOS/Source/event_groups.c **** 		xWaitConditionMet = prvTestWaitCondition( uxCurrentEventBits, uxBitsToWaitFor, xWaitForAllBits );
 229              		.loc 1 334 3 is_stmt 1 discriminator 8 view .LVU67
 230              	.LBB59:
 231              	.LBI59:
 335:Middlewares/Third_Party/FreeRTOS/Source/event_groups.c **** 
 336:Middlewares/Third_Party/FreeRTOS/Source/event_groups.c **** 		if( xWaitConditionMet != pdFALSE )
 337:Middlewares/Third_Party/FreeRTOS/Source/event_groups.c **** 		{
 338:Middlewares/Third_Party/FreeRTOS/Source/event_groups.c **** 			/* The wait condition has already been met so there is no need to
 339:Middlewares/Third_Party/FreeRTOS/Source/event_groups.c **** 			block. */
 340:Middlewares/Third_Party/FreeRTOS/Source/event_groups.c **** 			uxReturn = uxCurrentEventBits;
 341:Middlewares/Third_Party/FreeRTOS/Source/event_groups.c **** 			xTicksToWait = ( TickType_t ) 0;
 342:Middlewares/Third_Party/FreeRTOS/Source/event_groups.c **** 
 343:Middlewares/Third_Party/FreeRTOS/Source/event_groups.c **** 			/* Clear the wait bits if requested to do so. */
 344:Middlewares/Third_Party/FreeRTOS/Source/event_groups.c **** 			if( xClearOnExit != pdFALSE )
 345:Middlewares/Third_Party/FreeRTOS/Source/event_groups.c **** 			{
 346:Middlewares/Third_Party/FreeRTOS/Source/event_groups.c **** 				pxEventBits->uxEventBits &= ~uxBitsToWaitFor;
 347:Middlewares/Third_Party/FreeRTOS/Source/event_groups.c **** 			}
 348:Middlewares/Third_Party/FreeRTOS/Source/event_groups.c **** 			else
 349:Middlewares/Third_Party/FreeRTOS/Source/event_groups.c **** 			{
 350:Middlewares/Third_Party/FreeRTOS/Source/event_groups.c **** 				mtCOVERAGE_TEST_MARKER();
 351:Middlewares/Third_Party/FreeRTOS/Source/event_groups.c **** 			}
 352:Middlewares/Third_Party/FreeRTOS/Source/event_groups.c **** 		}
 353:Middlewares/Third_Party/FreeRTOS/Source/event_groups.c **** 		else if( xTicksToWait == ( TickType_t ) 0 )
 354:Middlewares/Third_Party/FreeRTOS/Source/event_groups.c **** 		{
 355:Middlewares/Third_Party/FreeRTOS/Source/event_groups.c **** 			/* The wait condition has not been met, but no block time was
 356:Middlewares/Third_Party/FreeRTOS/Source/event_groups.c **** 			specified, so just return the current value. */
ARM GAS  /tmp/ccM7u9RP.s 			page 15


 357:Middlewares/Third_Party/FreeRTOS/Source/event_groups.c **** 			uxReturn = uxCurrentEventBits;
 358:Middlewares/Third_Party/FreeRTOS/Source/event_groups.c **** 			xTimeoutOccurred = pdTRUE;
 359:Middlewares/Third_Party/FreeRTOS/Source/event_groups.c **** 		}
 360:Middlewares/Third_Party/FreeRTOS/Source/event_groups.c **** 		else
 361:Middlewares/Third_Party/FreeRTOS/Source/event_groups.c **** 		{
 362:Middlewares/Third_Party/FreeRTOS/Source/event_groups.c **** 			/* The task is going to block to wait for its required bits to be
 363:Middlewares/Third_Party/FreeRTOS/Source/event_groups.c **** 			set.  uxControlBits are used to remember the specified behaviour of
 364:Middlewares/Third_Party/FreeRTOS/Source/event_groups.c **** 			this call to xEventGroupWaitBits() - for use when the event bits
 365:Middlewares/Third_Party/FreeRTOS/Source/event_groups.c **** 			unblock the task. */
 366:Middlewares/Third_Party/FreeRTOS/Source/event_groups.c **** 			if( xClearOnExit != pdFALSE )
 367:Middlewares/Third_Party/FreeRTOS/Source/event_groups.c **** 			{
 368:Middlewares/Third_Party/FreeRTOS/Source/event_groups.c **** 				uxControlBits |= eventCLEAR_EVENTS_ON_EXIT_BIT;
 369:Middlewares/Third_Party/FreeRTOS/Source/event_groups.c **** 			}
 370:Middlewares/Third_Party/FreeRTOS/Source/event_groups.c **** 			else
 371:Middlewares/Third_Party/FreeRTOS/Source/event_groups.c **** 			{
 372:Middlewares/Third_Party/FreeRTOS/Source/event_groups.c **** 				mtCOVERAGE_TEST_MARKER();
 373:Middlewares/Third_Party/FreeRTOS/Source/event_groups.c **** 			}
 374:Middlewares/Third_Party/FreeRTOS/Source/event_groups.c **** 
 375:Middlewares/Third_Party/FreeRTOS/Source/event_groups.c **** 			if( xWaitForAllBits != pdFALSE )
 376:Middlewares/Third_Party/FreeRTOS/Source/event_groups.c **** 			{
 377:Middlewares/Third_Party/FreeRTOS/Source/event_groups.c **** 				uxControlBits |= eventWAIT_FOR_ALL_BITS;
 378:Middlewares/Third_Party/FreeRTOS/Source/event_groups.c **** 			}
 379:Middlewares/Third_Party/FreeRTOS/Source/event_groups.c **** 			else
 380:Middlewares/Third_Party/FreeRTOS/Source/event_groups.c **** 			{
 381:Middlewares/Third_Party/FreeRTOS/Source/event_groups.c **** 				mtCOVERAGE_TEST_MARKER();
 382:Middlewares/Third_Party/FreeRTOS/Source/event_groups.c **** 			}
 383:Middlewares/Third_Party/FreeRTOS/Source/event_groups.c **** 
 384:Middlewares/Third_Party/FreeRTOS/Source/event_groups.c **** 			/* Store the bits that the calling task is waiting for in the
 385:Middlewares/Third_Party/FreeRTOS/Source/event_groups.c **** 			task's event list item so the kernel knows when a match is
 386:Middlewares/Third_Party/FreeRTOS/Source/event_groups.c **** 			found.  Then enter the blocked state. */
 387:Middlewares/Third_Party/FreeRTOS/Source/event_groups.c **** 			vTaskPlaceOnUnorderedEventList( &( pxEventBits->xTasksWaitingForBits ), ( uxBitsToWaitFor | uxCo
 388:Middlewares/Third_Party/FreeRTOS/Source/event_groups.c **** 
 389:Middlewares/Third_Party/FreeRTOS/Source/event_groups.c **** 			/* This is obsolete as it will get set after the task unblocks, but
 390:Middlewares/Third_Party/FreeRTOS/Source/event_groups.c **** 			some compilers mistakenly generate a warning about the variable
 391:Middlewares/Third_Party/FreeRTOS/Source/event_groups.c **** 			being returned without being set if it is not done. */
 392:Middlewares/Third_Party/FreeRTOS/Source/event_groups.c **** 			uxReturn = 0;
 393:Middlewares/Third_Party/FreeRTOS/Source/event_groups.c **** 
 394:Middlewares/Third_Party/FreeRTOS/Source/event_groups.c **** 			traceEVENT_GROUP_WAIT_BITS_BLOCK( xEventGroup, uxBitsToWaitFor );
 395:Middlewares/Third_Party/FreeRTOS/Source/event_groups.c **** 		}
 396:Middlewares/Third_Party/FreeRTOS/Source/event_groups.c **** 	}
 397:Middlewares/Third_Party/FreeRTOS/Source/event_groups.c **** 	xAlreadyYielded = xTaskResumeAll();
 398:Middlewares/Third_Party/FreeRTOS/Source/event_groups.c **** 
 399:Middlewares/Third_Party/FreeRTOS/Source/event_groups.c **** 	if( xTicksToWait != ( TickType_t ) 0 )
 400:Middlewares/Third_Party/FreeRTOS/Source/event_groups.c **** 	{
 401:Middlewares/Third_Party/FreeRTOS/Source/event_groups.c **** 		if( xAlreadyYielded == pdFALSE )
 402:Middlewares/Third_Party/FreeRTOS/Source/event_groups.c **** 		{
 403:Middlewares/Third_Party/FreeRTOS/Source/event_groups.c **** 			portYIELD_WITHIN_API();
 404:Middlewares/Third_Party/FreeRTOS/Source/event_groups.c **** 		}
 405:Middlewares/Third_Party/FreeRTOS/Source/event_groups.c **** 		else
 406:Middlewares/Third_Party/FreeRTOS/Source/event_groups.c **** 		{
 407:Middlewares/Third_Party/FreeRTOS/Source/event_groups.c **** 			mtCOVERAGE_TEST_MARKER();
 408:Middlewares/Third_Party/FreeRTOS/Source/event_groups.c **** 		}
 409:Middlewares/Third_Party/FreeRTOS/Source/event_groups.c **** 
 410:Middlewares/Third_Party/FreeRTOS/Source/event_groups.c **** 		/* The task blocked to wait for its required bits to be set - at this
 411:Middlewares/Third_Party/FreeRTOS/Source/event_groups.c **** 		point either the required bits were set or the block time expired.  If
 412:Middlewares/Third_Party/FreeRTOS/Source/event_groups.c **** 		the required bits were set they will have been stored in the task's
 413:Middlewares/Third_Party/FreeRTOS/Source/event_groups.c **** 		event list item, and they should now be retrieved then cleared. */
ARM GAS  /tmp/ccM7u9RP.s 			page 16


 414:Middlewares/Third_Party/FreeRTOS/Source/event_groups.c **** 		uxReturn = uxTaskResetEventItemValue();
 415:Middlewares/Third_Party/FreeRTOS/Source/event_groups.c **** 
 416:Middlewares/Third_Party/FreeRTOS/Source/event_groups.c **** 		if( ( uxReturn & eventUNBLOCKED_DUE_TO_BIT_SET ) == ( EventBits_t ) 0 )
 417:Middlewares/Third_Party/FreeRTOS/Source/event_groups.c **** 		{
 418:Middlewares/Third_Party/FreeRTOS/Source/event_groups.c **** 			taskENTER_CRITICAL();
 419:Middlewares/Third_Party/FreeRTOS/Source/event_groups.c **** 			{
 420:Middlewares/Third_Party/FreeRTOS/Source/event_groups.c **** 				/* The task timed out, just return the current event bit value. */
 421:Middlewares/Third_Party/FreeRTOS/Source/event_groups.c **** 				uxReturn = pxEventBits->uxEventBits;
 422:Middlewares/Third_Party/FreeRTOS/Source/event_groups.c **** 
 423:Middlewares/Third_Party/FreeRTOS/Source/event_groups.c **** 				/* It is possible that the event bits were updated between this
 424:Middlewares/Third_Party/FreeRTOS/Source/event_groups.c **** 				task leaving the Blocked state and running again. */
 425:Middlewares/Third_Party/FreeRTOS/Source/event_groups.c **** 				if( prvTestWaitCondition( uxReturn, uxBitsToWaitFor, xWaitForAllBits ) != pdFALSE )
 426:Middlewares/Third_Party/FreeRTOS/Source/event_groups.c **** 				{
 427:Middlewares/Third_Party/FreeRTOS/Source/event_groups.c **** 					if( xClearOnExit != pdFALSE )
 428:Middlewares/Third_Party/FreeRTOS/Source/event_groups.c **** 					{
 429:Middlewares/Third_Party/FreeRTOS/Source/event_groups.c **** 						pxEventBits->uxEventBits &= ~uxBitsToWaitFor;
 430:Middlewares/Third_Party/FreeRTOS/Source/event_groups.c **** 					}
 431:Middlewares/Third_Party/FreeRTOS/Source/event_groups.c **** 					else
 432:Middlewares/Third_Party/FreeRTOS/Source/event_groups.c **** 					{
 433:Middlewares/Third_Party/FreeRTOS/Source/event_groups.c **** 						mtCOVERAGE_TEST_MARKER();
 434:Middlewares/Third_Party/FreeRTOS/Source/event_groups.c **** 					}
 435:Middlewares/Third_Party/FreeRTOS/Source/event_groups.c **** 				}
 436:Middlewares/Third_Party/FreeRTOS/Source/event_groups.c **** 				else
 437:Middlewares/Third_Party/FreeRTOS/Source/event_groups.c **** 				{
 438:Middlewares/Third_Party/FreeRTOS/Source/event_groups.c **** 					mtCOVERAGE_TEST_MARKER();
 439:Middlewares/Third_Party/FreeRTOS/Source/event_groups.c **** 				}
 440:Middlewares/Third_Party/FreeRTOS/Source/event_groups.c **** 				xTimeoutOccurred = pdTRUE;
 441:Middlewares/Third_Party/FreeRTOS/Source/event_groups.c **** 			}
 442:Middlewares/Third_Party/FreeRTOS/Source/event_groups.c **** 			taskEXIT_CRITICAL();
 443:Middlewares/Third_Party/FreeRTOS/Source/event_groups.c **** 		}
 444:Middlewares/Third_Party/FreeRTOS/Source/event_groups.c **** 		else
 445:Middlewares/Third_Party/FreeRTOS/Source/event_groups.c **** 		{
 446:Middlewares/Third_Party/FreeRTOS/Source/event_groups.c **** 			/* The task unblocked because the bits were set. */
 447:Middlewares/Third_Party/FreeRTOS/Source/event_groups.c **** 		}
 448:Middlewares/Third_Party/FreeRTOS/Source/event_groups.c **** 
 449:Middlewares/Third_Party/FreeRTOS/Source/event_groups.c **** 		/* The task blocked so control bits may have been set. */
 450:Middlewares/Third_Party/FreeRTOS/Source/event_groups.c **** 		uxReturn &= ~eventEVENT_BITS_CONTROL_BYTES;
 451:Middlewares/Third_Party/FreeRTOS/Source/event_groups.c **** 	}
 452:Middlewares/Third_Party/FreeRTOS/Source/event_groups.c **** 	traceEVENT_GROUP_WAIT_BITS_END( xEventGroup, uxBitsToWaitFor, xTimeoutOccurred );
 453:Middlewares/Third_Party/FreeRTOS/Source/event_groups.c **** 
 454:Middlewares/Third_Party/FreeRTOS/Source/event_groups.c **** 	/* Prevent compiler warnings when trace macros are not used. */
 455:Middlewares/Third_Party/FreeRTOS/Source/event_groups.c **** 	( void ) xTimeoutOccurred;
 456:Middlewares/Third_Party/FreeRTOS/Source/event_groups.c **** 
 457:Middlewares/Third_Party/FreeRTOS/Source/event_groups.c **** 	return uxReturn;
 458:Middlewares/Third_Party/FreeRTOS/Source/event_groups.c **** }
 459:Middlewares/Third_Party/FreeRTOS/Source/event_groups.c **** /*-----------------------------------------------------------*/
 460:Middlewares/Third_Party/FreeRTOS/Source/event_groups.c **** 
 461:Middlewares/Third_Party/FreeRTOS/Source/event_groups.c **** EventBits_t xEventGroupClearBits( EventGroupHandle_t xEventGroup, const EventBits_t uxBitsToClear )
 462:Middlewares/Third_Party/FreeRTOS/Source/event_groups.c **** {
 463:Middlewares/Third_Party/FreeRTOS/Source/event_groups.c **** EventGroup_t *pxEventBits = xEventGroup;
 464:Middlewares/Third_Party/FreeRTOS/Source/event_groups.c **** EventBits_t uxReturn;
 465:Middlewares/Third_Party/FreeRTOS/Source/event_groups.c **** 
 466:Middlewares/Third_Party/FreeRTOS/Source/event_groups.c **** 	/* Check the user is not attempting to clear the bits used by the kernel
 467:Middlewares/Third_Party/FreeRTOS/Source/event_groups.c **** 	itself. */
 468:Middlewares/Third_Party/FreeRTOS/Source/event_groups.c **** 	configASSERT( xEventGroup );
 469:Middlewares/Third_Party/FreeRTOS/Source/event_groups.c **** 	configASSERT( ( uxBitsToClear & eventEVENT_BITS_CONTROL_BYTES ) == 0 );
 470:Middlewares/Third_Party/FreeRTOS/Source/event_groups.c **** 
ARM GAS  /tmp/ccM7u9RP.s 			page 17


 471:Middlewares/Third_Party/FreeRTOS/Source/event_groups.c **** 	taskENTER_CRITICAL();
 472:Middlewares/Third_Party/FreeRTOS/Source/event_groups.c **** 	{
 473:Middlewares/Third_Party/FreeRTOS/Source/event_groups.c **** 		traceEVENT_GROUP_CLEAR_BITS( xEventGroup, uxBitsToClear );
 474:Middlewares/Third_Party/FreeRTOS/Source/event_groups.c **** 
 475:Middlewares/Third_Party/FreeRTOS/Source/event_groups.c **** 		/* The value returned is the event group value prior to the bits being
 476:Middlewares/Third_Party/FreeRTOS/Source/event_groups.c **** 		cleared. */
 477:Middlewares/Third_Party/FreeRTOS/Source/event_groups.c **** 		uxReturn = pxEventBits->uxEventBits;
 478:Middlewares/Third_Party/FreeRTOS/Source/event_groups.c **** 
 479:Middlewares/Third_Party/FreeRTOS/Source/event_groups.c **** 		/* Clear the bits. */
 480:Middlewares/Third_Party/FreeRTOS/Source/event_groups.c **** 		pxEventBits->uxEventBits &= ~uxBitsToClear;
 481:Middlewares/Third_Party/FreeRTOS/Source/event_groups.c **** 	}
 482:Middlewares/Third_Party/FreeRTOS/Source/event_groups.c **** 	taskEXIT_CRITICAL();
 483:Middlewares/Third_Party/FreeRTOS/Source/event_groups.c **** 
 484:Middlewares/Third_Party/FreeRTOS/Source/event_groups.c **** 	return uxReturn;
 485:Middlewares/Third_Party/FreeRTOS/Source/event_groups.c **** }
 486:Middlewares/Third_Party/FreeRTOS/Source/event_groups.c **** /*-----------------------------------------------------------*/
 487:Middlewares/Third_Party/FreeRTOS/Source/event_groups.c **** 
 488:Middlewares/Third_Party/FreeRTOS/Source/event_groups.c **** #if ( ( configUSE_TRACE_FACILITY == 1 ) && ( INCLUDE_xTimerPendFunctionCall == 1 ) && ( configUSE_T
 489:Middlewares/Third_Party/FreeRTOS/Source/event_groups.c **** 
 490:Middlewares/Third_Party/FreeRTOS/Source/event_groups.c **** 	BaseType_t xEventGroupClearBitsFromISR( EventGroupHandle_t xEventGroup, const EventBits_t uxBitsTo
 491:Middlewares/Third_Party/FreeRTOS/Source/event_groups.c **** 	{
 492:Middlewares/Third_Party/FreeRTOS/Source/event_groups.c **** 		BaseType_t xReturn;
 493:Middlewares/Third_Party/FreeRTOS/Source/event_groups.c **** 
 494:Middlewares/Third_Party/FreeRTOS/Source/event_groups.c **** 		traceEVENT_GROUP_CLEAR_BITS_FROM_ISR( xEventGroup, uxBitsToClear );
 495:Middlewares/Third_Party/FreeRTOS/Source/event_groups.c **** 		xReturn = xTimerPendFunctionCallFromISR( vEventGroupClearBitsCallback, ( void * ) xEventGroup, ( 
 496:Middlewares/Third_Party/FreeRTOS/Source/event_groups.c **** 
 497:Middlewares/Third_Party/FreeRTOS/Source/event_groups.c **** 		return xReturn;
 498:Middlewares/Third_Party/FreeRTOS/Source/event_groups.c **** 	}
 499:Middlewares/Third_Party/FreeRTOS/Source/event_groups.c **** 
 500:Middlewares/Third_Party/FreeRTOS/Source/event_groups.c **** #endif
 501:Middlewares/Third_Party/FreeRTOS/Source/event_groups.c **** /*-----------------------------------------------------------*/
 502:Middlewares/Third_Party/FreeRTOS/Source/event_groups.c **** 
 503:Middlewares/Third_Party/FreeRTOS/Source/event_groups.c **** EventBits_t xEventGroupGetBitsFromISR( EventGroupHandle_t xEventGroup )
 504:Middlewares/Third_Party/FreeRTOS/Source/event_groups.c **** {
 505:Middlewares/Third_Party/FreeRTOS/Source/event_groups.c **** UBaseType_t uxSavedInterruptStatus;
 506:Middlewares/Third_Party/FreeRTOS/Source/event_groups.c **** EventGroup_t const * const pxEventBits = xEventGroup;
 507:Middlewares/Third_Party/FreeRTOS/Source/event_groups.c **** EventBits_t uxReturn;
 508:Middlewares/Third_Party/FreeRTOS/Source/event_groups.c **** 
 509:Middlewares/Third_Party/FreeRTOS/Source/event_groups.c **** 	uxSavedInterruptStatus = portSET_INTERRUPT_MASK_FROM_ISR();
 510:Middlewares/Third_Party/FreeRTOS/Source/event_groups.c **** 	{
 511:Middlewares/Third_Party/FreeRTOS/Source/event_groups.c **** 		uxReturn = pxEventBits->uxEventBits;
 512:Middlewares/Third_Party/FreeRTOS/Source/event_groups.c **** 	}
 513:Middlewares/Third_Party/FreeRTOS/Source/event_groups.c **** 	portCLEAR_INTERRUPT_MASK_FROM_ISR( uxSavedInterruptStatus );
 514:Middlewares/Third_Party/FreeRTOS/Source/event_groups.c **** 
 515:Middlewares/Third_Party/FreeRTOS/Source/event_groups.c **** 	return uxReturn;
 516:Middlewares/Third_Party/FreeRTOS/Source/event_groups.c **** } /*lint !e818 EventGroupHandle_t is a typedef used in other functions to so can't be pointer to co
 517:Middlewares/Third_Party/FreeRTOS/Source/event_groups.c **** /*-----------------------------------------------------------*/
 518:Middlewares/Third_Party/FreeRTOS/Source/event_groups.c **** 
 519:Middlewares/Third_Party/FreeRTOS/Source/event_groups.c **** EventBits_t xEventGroupSetBits( EventGroupHandle_t xEventGroup, const EventBits_t uxBitsToSet )
 520:Middlewares/Third_Party/FreeRTOS/Source/event_groups.c **** {
 521:Middlewares/Third_Party/FreeRTOS/Source/event_groups.c **** ListItem_t *pxListItem, *pxNext;
 522:Middlewares/Third_Party/FreeRTOS/Source/event_groups.c **** ListItem_t const *pxListEnd;
 523:Middlewares/Third_Party/FreeRTOS/Source/event_groups.c **** List_t const * pxList;
 524:Middlewares/Third_Party/FreeRTOS/Source/event_groups.c **** EventBits_t uxBitsToClear = 0, uxBitsWaitedFor, uxControlBits;
 525:Middlewares/Third_Party/FreeRTOS/Source/event_groups.c **** EventGroup_t *pxEventBits = xEventGroup;
 526:Middlewares/Third_Party/FreeRTOS/Source/event_groups.c **** BaseType_t xMatchFound = pdFALSE;
 527:Middlewares/Third_Party/FreeRTOS/Source/event_groups.c **** 
ARM GAS  /tmp/ccM7u9RP.s 			page 18


 528:Middlewares/Third_Party/FreeRTOS/Source/event_groups.c **** 	/* Check the user is not attempting to set the bits used by the kernel
 529:Middlewares/Third_Party/FreeRTOS/Source/event_groups.c **** 	itself. */
 530:Middlewares/Third_Party/FreeRTOS/Source/event_groups.c **** 	configASSERT( xEventGroup );
 531:Middlewares/Third_Party/FreeRTOS/Source/event_groups.c **** 	configASSERT( ( uxBitsToSet & eventEVENT_BITS_CONTROL_BYTES ) == 0 );
 532:Middlewares/Third_Party/FreeRTOS/Source/event_groups.c **** 
 533:Middlewares/Third_Party/FreeRTOS/Source/event_groups.c **** 	pxList = &( pxEventBits->xTasksWaitingForBits );
 534:Middlewares/Third_Party/FreeRTOS/Source/event_groups.c **** 	pxListEnd = listGET_END_MARKER( pxList ); /*lint !e826 !e740 !e9087 The mini list structure is use
 535:Middlewares/Third_Party/FreeRTOS/Source/event_groups.c **** 	vTaskSuspendAll();
 536:Middlewares/Third_Party/FreeRTOS/Source/event_groups.c **** 	{
 537:Middlewares/Third_Party/FreeRTOS/Source/event_groups.c **** 		traceEVENT_GROUP_SET_BITS( xEventGroup, uxBitsToSet );
 538:Middlewares/Third_Party/FreeRTOS/Source/event_groups.c **** 
 539:Middlewares/Third_Party/FreeRTOS/Source/event_groups.c **** 		pxListItem = listGET_HEAD_ENTRY( pxList );
 540:Middlewares/Third_Party/FreeRTOS/Source/event_groups.c **** 
 541:Middlewares/Third_Party/FreeRTOS/Source/event_groups.c **** 		/* Set the bits. */
 542:Middlewares/Third_Party/FreeRTOS/Source/event_groups.c **** 		pxEventBits->uxEventBits |= uxBitsToSet;
 543:Middlewares/Third_Party/FreeRTOS/Source/event_groups.c **** 
 544:Middlewares/Third_Party/FreeRTOS/Source/event_groups.c **** 		/* See if the new bit value should unblock any tasks. */
 545:Middlewares/Third_Party/FreeRTOS/Source/event_groups.c **** 		while( pxListItem != pxListEnd )
 546:Middlewares/Third_Party/FreeRTOS/Source/event_groups.c **** 		{
 547:Middlewares/Third_Party/FreeRTOS/Source/event_groups.c **** 			pxNext = listGET_NEXT( pxListItem );
 548:Middlewares/Third_Party/FreeRTOS/Source/event_groups.c **** 			uxBitsWaitedFor = listGET_LIST_ITEM_VALUE( pxListItem );
 549:Middlewares/Third_Party/FreeRTOS/Source/event_groups.c **** 			xMatchFound = pdFALSE;
 550:Middlewares/Third_Party/FreeRTOS/Source/event_groups.c **** 
 551:Middlewares/Third_Party/FreeRTOS/Source/event_groups.c **** 			/* Split the bits waited for from the control bits. */
 552:Middlewares/Third_Party/FreeRTOS/Source/event_groups.c **** 			uxControlBits = uxBitsWaitedFor & eventEVENT_BITS_CONTROL_BYTES;
 553:Middlewares/Third_Party/FreeRTOS/Source/event_groups.c **** 			uxBitsWaitedFor &= ~eventEVENT_BITS_CONTROL_BYTES;
 554:Middlewares/Third_Party/FreeRTOS/Source/event_groups.c **** 
 555:Middlewares/Third_Party/FreeRTOS/Source/event_groups.c **** 			if( ( uxControlBits & eventWAIT_FOR_ALL_BITS ) == ( EventBits_t ) 0 )
 556:Middlewares/Third_Party/FreeRTOS/Source/event_groups.c **** 			{
 557:Middlewares/Third_Party/FreeRTOS/Source/event_groups.c **** 				/* Just looking for single bit being set. */
 558:Middlewares/Third_Party/FreeRTOS/Source/event_groups.c **** 				if( ( uxBitsWaitedFor & pxEventBits->uxEventBits ) != ( EventBits_t ) 0 )
 559:Middlewares/Third_Party/FreeRTOS/Source/event_groups.c **** 				{
 560:Middlewares/Third_Party/FreeRTOS/Source/event_groups.c **** 					xMatchFound = pdTRUE;
 561:Middlewares/Third_Party/FreeRTOS/Source/event_groups.c **** 				}
 562:Middlewares/Third_Party/FreeRTOS/Source/event_groups.c **** 				else
 563:Middlewares/Third_Party/FreeRTOS/Source/event_groups.c **** 				{
 564:Middlewares/Third_Party/FreeRTOS/Source/event_groups.c **** 					mtCOVERAGE_TEST_MARKER();
 565:Middlewares/Third_Party/FreeRTOS/Source/event_groups.c **** 				}
 566:Middlewares/Third_Party/FreeRTOS/Source/event_groups.c **** 			}
 567:Middlewares/Third_Party/FreeRTOS/Source/event_groups.c **** 			else if( ( uxBitsWaitedFor & pxEventBits->uxEventBits ) == uxBitsWaitedFor )
 568:Middlewares/Third_Party/FreeRTOS/Source/event_groups.c **** 			{
 569:Middlewares/Third_Party/FreeRTOS/Source/event_groups.c **** 				/* All bits are set. */
 570:Middlewares/Third_Party/FreeRTOS/Source/event_groups.c **** 				xMatchFound = pdTRUE;
 571:Middlewares/Third_Party/FreeRTOS/Source/event_groups.c **** 			}
 572:Middlewares/Third_Party/FreeRTOS/Source/event_groups.c **** 			else
 573:Middlewares/Third_Party/FreeRTOS/Source/event_groups.c **** 			{
 574:Middlewares/Third_Party/FreeRTOS/Source/event_groups.c **** 				/* Need all bits to be set, but not all the bits were set. */
 575:Middlewares/Third_Party/FreeRTOS/Source/event_groups.c **** 			}
 576:Middlewares/Third_Party/FreeRTOS/Source/event_groups.c **** 
 577:Middlewares/Third_Party/FreeRTOS/Source/event_groups.c **** 			if( xMatchFound != pdFALSE )
 578:Middlewares/Third_Party/FreeRTOS/Source/event_groups.c **** 			{
 579:Middlewares/Third_Party/FreeRTOS/Source/event_groups.c **** 				/* The bits match.  Should the bits be cleared on exit? */
 580:Middlewares/Third_Party/FreeRTOS/Source/event_groups.c **** 				if( ( uxControlBits & eventCLEAR_EVENTS_ON_EXIT_BIT ) != ( EventBits_t ) 0 )
 581:Middlewares/Third_Party/FreeRTOS/Source/event_groups.c **** 				{
 582:Middlewares/Third_Party/FreeRTOS/Source/event_groups.c **** 					uxBitsToClear |= uxBitsWaitedFor;
 583:Middlewares/Third_Party/FreeRTOS/Source/event_groups.c **** 				}
 584:Middlewares/Third_Party/FreeRTOS/Source/event_groups.c **** 				else
ARM GAS  /tmp/ccM7u9RP.s 			page 19


 585:Middlewares/Third_Party/FreeRTOS/Source/event_groups.c **** 				{
 586:Middlewares/Third_Party/FreeRTOS/Source/event_groups.c **** 					mtCOVERAGE_TEST_MARKER();
 587:Middlewares/Third_Party/FreeRTOS/Source/event_groups.c **** 				}
 588:Middlewares/Third_Party/FreeRTOS/Source/event_groups.c **** 
 589:Middlewares/Third_Party/FreeRTOS/Source/event_groups.c **** 				/* Store the actual event flag value in the task's event list
 590:Middlewares/Third_Party/FreeRTOS/Source/event_groups.c **** 				item before removing the task from the event list.  The
 591:Middlewares/Third_Party/FreeRTOS/Source/event_groups.c **** 				eventUNBLOCKED_DUE_TO_BIT_SET bit is set so the task knows
 592:Middlewares/Third_Party/FreeRTOS/Source/event_groups.c **** 				that is was unblocked due to its required bits matching, rather
 593:Middlewares/Third_Party/FreeRTOS/Source/event_groups.c **** 				than because it timed out. */
 594:Middlewares/Third_Party/FreeRTOS/Source/event_groups.c **** 				vTaskRemoveFromUnorderedEventList( pxListItem, pxEventBits->uxEventBits | eventUNBLOCKED_DUE_TO
 595:Middlewares/Third_Party/FreeRTOS/Source/event_groups.c **** 			}
 596:Middlewares/Third_Party/FreeRTOS/Source/event_groups.c **** 
 597:Middlewares/Third_Party/FreeRTOS/Source/event_groups.c **** 			/* Move onto the next list item.  Note pxListItem->pxNext is not
 598:Middlewares/Third_Party/FreeRTOS/Source/event_groups.c **** 			used here as the list item may have been removed from the event list
 599:Middlewares/Third_Party/FreeRTOS/Source/event_groups.c **** 			and inserted into the ready/pending reading list. */
 600:Middlewares/Third_Party/FreeRTOS/Source/event_groups.c **** 			pxListItem = pxNext;
 601:Middlewares/Third_Party/FreeRTOS/Source/event_groups.c **** 		}
 602:Middlewares/Third_Party/FreeRTOS/Source/event_groups.c **** 
 603:Middlewares/Third_Party/FreeRTOS/Source/event_groups.c **** 		/* Clear any bits that matched when the eventCLEAR_EVENTS_ON_EXIT_BIT
 604:Middlewares/Third_Party/FreeRTOS/Source/event_groups.c **** 		bit was set in the control word. */
 605:Middlewares/Third_Party/FreeRTOS/Source/event_groups.c **** 		pxEventBits->uxEventBits &= ~uxBitsToClear;
 606:Middlewares/Third_Party/FreeRTOS/Source/event_groups.c **** 	}
 607:Middlewares/Third_Party/FreeRTOS/Source/event_groups.c **** 	( void ) xTaskResumeAll();
 608:Middlewares/Third_Party/FreeRTOS/Source/event_groups.c **** 
 609:Middlewares/Third_Party/FreeRTOS/Source/event_groups.c **** 	return pxEventBits->uxEventBits;
 610:Middlewares/Third_Party/FreeRTOS/Source/event_groups.c **** }
 611:Middlewares/Third_Party/FreeRTOS/Source/event_groups.c **** /*-----------------------------------------------------------*/
 612:Middlewares/Third_Party/FreeRTOS/Source/event_groups.c **** 
 613:Middlewares/Third_Party/FreeRTOS/Source/event_groups.c **** void vEventGroupDelete( EventGroupHandle_t xEventGroup )
 614:Middlewares/Third_Party/FreeRTOS/Source/event_groups.c **** {
 615:Middlewares/Third_Party/FreeRTOS/Source/event_groups.c **** EventGroup_t *pxEventBits = xEventGroup;
 616:Middlewares/Third_Party/FreeRTOS/Source/event_groups.c **** const List_t *pxTasksWaitingForBits = &( pxEventBits->xTasksWaitingForBits );
 617:Middlewares/Third_Party/FreeRTOS/Source/event_groups.c **** 
 618:Middlewares/Third_Party/FreeRTOS/Source/event_groups.c **** 	vTaskSuspendAll();
 619:Middlewares/Third_Party/FreeRTOS/Source/event_groups.c **** 	{
 620:Middlewares/Third_Party/FreeRTOS/Source/event_groups.c **** 		traceEVENT_GROUP_DELETE( xEventGroup );
 621:Middlewares/Third_Party/FreeRTOS/Source/event_groups.c **** 
 622:Middlewares/Third_Party/FreeRTOS/Source/event_groups.c **** 		while( listCURRENT_LIST_LENGTH( pxTasksWaitingForBits ) > ( UBaseType_t ) 0 )
 623:Middlewares/Third_Party/FreeRTOS/Source/event_groups.c **** 		{
 624:Middlewares/Third_Party/FreeRTOS/Source/event_groups.c **** 			/* Unblock the task, returning 0 as the event list is being deleted
 625:Middlewares/Third_Party/FreeRTOS/Source/event_groups.c **** 			and cannot therefore have any bits set. */
 626:Middlewares/Third_Party/FreeRTOS/Source/event_groups.c **** 			configASSERT( pxTasksWaitingForBits->xListEnd.pxNext != ( const ListItem_t * ) &( pxTasksWaiting
 627:Middlewares/Third_Party/FreeRTOS/Source/event_groups.c **** 			vTaskRemoveFromUnorderedEventList( pxTasksWaitingForBits->xListEnd.pxNext, eventUNBLOCKED_DUE_TO
 628:Middlewares/Third_Party/FreeRTOS/Source/event_groups.c **** 		}
 629:Middlewares/Third_Party/FreeRTOS/Source/event_groups.c **** 
 630:Middlewares/Third_Party/FreeRTOS/Source/event_groups.c **** 		#if( ( configSUPPORT_DYNAMIC_ALLOCATION == 1 ) && ( configSUPPORT_STATIC_ALLOCATION == 0 ) )
 631:Middlewares/Third_Party/FreeRTOS/Source/event_groups.c **** 		{
 632:Middlewares/Third_Party/FreeRTOS/Source/event_groups.c **** 			/* The event group can only have been allocated dynamically - free
 633:Middlewares/Third_Party/FreeRTOS/Source/event_groups.c **** 			it again. */
 634:Middlewares/Third_Party/FreeRTOS/Source/event_groups.c **** 			vPortFree( pxEventBits );
 635:Middlewares/Third_Party/FreeRTOS/Source/event_groups.c **** 		}
 636:Middlewares/Third_Party/FreeRTOS/Source/event_groups.c **** 		#elif( ( configSUPPORT_DYNAMIC_ALLOCATION == 1 ) && ( configSUPPORT_STATIC_ALLOCATION == 1 ) )
 637:Middlewares/Third_Party/FreeRTOS/Source/event_groups.c **** 		{
 638:Middlewares/Third_Party/FreeRTOS/Source/event_groups.c **** 			/* The event group could have been allocated statically or
 639:Middlewares/Third_Party/FreeRTOS/Source/event_groups.c **** 			dynamically, so check before attempting to free the memory. */
 640:Middlewares/Third_Party/FreeRTOS/Source/event_groups.c **** 			if( pxEventBits->ucStaticallyAllocated == ( uint8_t ) pdFALSE )
 641:Middlewares/Third_Party/FreeRTOS/Source/event_groups.c **** 			{
ARM GAS  /tmp/ccM7u9RP.s 			page 20


 642:Middlewares/Third_Party/FreeRTOS/Source/event_groups.c **** 				vPortFree( pxEventBits );
 643:Middlewares/Third_Party/FreeRTOS/Source/event_groups.c **** 			}
 644:Middlewares/Third_Party/FreeRTOS/Source/event_groups.c **** 			else
 645:Middlewares/Third_Party/FreeRTOS/Source/event_groups.c **** 			{
 646:Middlewares/Third_Party/FreeRTOS/Source/event_groups.c **** 				mtCOVERAGE_TEST_MARKER();
 647:Middlewares/Third_Party/FreeRTOS/Source/event_groups.c **** 			}
 648:Middlewares/Third_Party/FreeRTOS/Source/event_groups.c **** 		}
 649:Middlewares/Third_Party/FreeRTOS/Source/event_groups.c **** 		#endif /* configSUPPORT_DYNAMIC_ALLOCATION */
 650:Middlewares/Third_Party/FreeRTOS/Source/event_groups.c **** 	}
 651:Middlewares/Third_Party/FreeRTOS/Source/event_groups.c **** 	( void ) xTaskResumeAll();
 652:Middlewares/Third_Party/FreeRTOS/Source/event_groups.c **** }
 653:Middlewares/Third_Party/FreeRTOS/Source/event_groups.c **** /*-----------------------------------------------------------*/
 654:Middlewares/Third_Party/FreeRTOS/Source/event_groups.c **** 
 655:Middlewares/Third_Party/FreeRTOS/Source/event_groups.c **** /* For internal use only - execute a 'set bits' command that was pended from
 656:Middlewares/Third_Party/FreeRTOS/Source/event_groups.c **** an interrupt. */
 657:Middlewares/Third_Party/FreeRTOS/Source/event_groups.c **** void vEventGroupSetBitsCallback( void *pvEventGroup, const uint32_t ulBitsToSet )
 658:Middlewares/Third_Party/FreeRTOS/Source/event_groups.c **** {
 659:Middlewares/Third_Party/FreeRTOS/Source/event_groups.c **** 	( void ) xEventGroupSetBits( pvEventGroup, ( EventBits_t ) ulBitsToSet ); /*lint !e9079 Can't avoi
 660:Middlewares/Third_Party/FreeRTOS/Source/event_groups.c **** }
 661:Middlewares/Third_Party/FreeRTOS/Source/event_groups.c **** /*-----------------------------------------------------------*/
 662:Middlewares/Third_Party/FreeRTOS/Source/event_groups.c **** 
 663:Middlewares/Third_Party/FreeRTOS/Source/event_groups.c **** /* For internal use only - execute a 'clear bits' command that was pended from
 664:Middlewares/Third_Party/FreeRTOS/Source/event_groups.c **** an interrupt. */
 665:Middlewares/Third_Party/FreeRTOS/Source/event_groups.c **** void vEventGroupClearBitsCallback( void *pvEventGroup, const uint32_t ulBitsToClear )
 666:Middlewares/Third_Party/FreeRTOS/Source/event_groups.c **** {
 667:Middlewares/Third_Party/FreeRTOS/Source/event_groups.c **** 	( void ) xEventGroupClearBits( pvEventGroup, ( EventBits_t ) ulBitsToClear ); /*lint !e9079 Can't 
 668:Middlewares/Third_Party/FreeRTOS/Source/event_groups.c **** }
 669:Middlewares/Third_Party/FreeRTOS/Source/event_groups.c **** /*-----------------------------------------------------------*/
 670:Middlewares/Third_Party/FreeRTOS/Source/event_groups.c **** 
 671:Middlewares/Third_Party/FreeRTOS/Source/event_groups.c **** static BaseType_t prvTestWaitCondition( const EventBits_t uxCurrentEventBits, const EventBits_t uxB
 232              		.loc 1 671 19 discriminator 8 view .LVU68
 233              	.LBB60:
 672:Middlewares/Third_Party/FreeRTOS/Source/event_groups.c **** {
 673:Middlewares/Third_Party/FreeRTOS/Source/event_groups.c **** BaseType_t xWaitConditionMet = pdFALSE;
 234              		.loc 1 673 1 discriminator 8 view .LVU69
 674:Middlewares/Third_Party/FreeRTOS/Source/event_groups.c **** 
 675:Middlewares/Third_Party/FreeRTOS/Source/event_groups.c **** 	if( xWaitForAllBits == pdFALSE )
 235              		.loc 1 675 2 discriminator 8 view .LVU70
 236              		.loc 1 675 4 is_stmt 0 discriminator 8 view .LVU71
 237 0060 6EB3     		cbz	r6, .L41
 676:Middlewares/Third_Party/FreeRTOS/Source/event_groups.c **** 	{
 677:Middlewares/Third_Party/FreeRTOS/Source/event_groups.c **** 		/* Task only has to wait for one bit within uxBitsToWaitFor to be
 678:Middlewares/Third_Party/FreeRTOS/Source/event_groups.c **** 		set.  Is one already set? */
 679:Middlewares/Third_Party/FreeRTOS/Source/event_groups.c **** 		if( ( uxCurrentEventBits & uxBitsToWaitFor ) != ( EventBits_t ) 0 )
 680:Middlewares/Third_Party/FreeRTOS/Source/event_groups.c **** 		{
 681:Middlewares/Third_Party/FreeRTOS/Source/event_groups.c **** 			xWaitConditionMet = pdTRUE;
 682:Middlewares/Third_Party/FreeRTOS/Source/event_groups.c **** 		}
 683:Middlewares/Third_Party/FreeRTOS/Source/event_groups.c **** 		else
 684:Middlewares/Third_Party/FreeRTOS/Source/event_groups.c **** 		{
 685:Middlewares/Third_Party/FreeRTOS/Source/event_groups.c **** 			mtCOVERAGE_TEST_MARKER();
 686:Middlewares/Third_Party/FreeRTOS/Source/event_groups.c **** 		}
 687:Middlewares/Third_Party/FreeRTOS/Source/event_groups.c **** 	}
 688:Middlewares/Third_Party/FreeRTOS/Source/event_groups.c **** 	else
 689:Middlewares/Third_Party/FreeRTOS/Source/event_groups.c **** 	{
 690:Middlewares/Third_Party/FreeRTOS/Source/event_groups.c **** 		/* Task has to wait for all the bits in uxBitsToWaitFor to be set.
 691:Middlewares/Third_Party/FreeRTOS/Source/event_groups.c **** 		Are they set already? */
 692:Middlewares/Third_Party/FreeRTOS/Source/event_groups.c **** 		if( ( uxCurrentEventBits & uxBitsToWaitFor ) == uxBitsToWaitFor )
ARM GAS  /tmp/ccM7u9RP.s 			page 21


 238              		.loc 1 692 3 is_stmt 1 view .LVU72
 239              		.loc 1 692 5 is_stmt 0 view .LVU73
 240 0062 34EA0903 		bics	r3, r4, r9
 241 0066 2DD0     		beq	.L18
 242              	.L19:
 243              	.LVL14:
 244              		.loc 1 692 5 view .LVU74
 245              	.LBE60:
 246              	.LBE59:
 353:Middlewares/Third_Party/FreeRTOS/Source/event_groups.c **** 		{
 247              		.loc 1 353 8 is_stmt 1 view .LVU75
 353:Middlewares/Third_Party/FreeRTOS/Source/event_groups.c **** 		{
 248              		.loc 1 353 10 is_stmt 0 view .LVU76
 249 0068 089B     		ldr	r3, [sp, #32]
 250 006a 002B     		cmp	r3, #0
 251 006c 3AD0     		beq	.L22
 366:Middlewares/Third_Party/FreeRTOS/Source/event_groups.c **** 			{
 252              		.loc 1 366 4 is_stmt 1 view .LVU77
 366:Middlewares/Third_Party/FreeRTOS/Source/event_groups.c **** 			{
 253              		.loc 1 366 6 is_stmt 0 view .LVU78
 254 006e 002F     		cmp	r7, #0
 255 0070 16BF     		itet	ne
 256 0072 4FF08078 		movne	r8, #16777216
 257              	.LVL15:
 372:Middlewares/Third_Party/FreeRTOS/Source/event_groups.c **** 			}
 258              		.loc 1 372 29 is_stmt 1 view .LVU79
 375:Middlewares/Third_Party/FreeRTOS/Source/event_groups.c **** 			{
 259              		.loc 1 375 4 view .LVU80
 366:Middlewares/Third_Party/FreeRTOS/Source/event_groups.c **** 			{
 260              		.loc 1 366 6 is_stmt 0 view .LVU81
 261 0076 4FF08061 		moveq	r1, #67108864
 262 007a 4FF0A061 		movne	r1, #83886080
 375:Middlewares/Third_Party/FreeRTOS/Source/event_groups.c **** 			{
 263              		.loc 1 375 6 view .LVU82
 264 007e 002E     		cmp	r6, #0
 265 0080 08BF     		it	eq
 266 0082 4146     		moveq	r1, r8
 267              	.LVL16:
 381:Middlewares/Third_Party/FreeRTOS/Source/event_groups.c **** 			}
 268              		.loc 1 381 29 is_stmt 1 view .LVU83
 387:Middlewares/Third_Party/FreeRTOS/Source/event_groups.c **** 
 269              		.loc 1 387 4 view .LVU84
 270 0084 2143     		orrs	r1, r1, r4
 271              	.LVL17:
 387:Middlewares/Third_Party/FreeRTOS/Source/event_groups.c **** 
 272              		.loc 1 387 4 is_stmt 0 view .LVU85
 273 0086 1A46     		mov	r2, r3
 274 0088 281D     		adds	r0, r5, #4
 275 008a FFF7FEFF 		bl	vTaskPlaceOnUnorderedEventList
 276              	.LVL18:
 392:Middlewares/Third_Party/FreeRTOS/Source/event_groups.c **** 
 277              		.loc 1 392 4 is_stmt 1 view .LVU86
 394:Middlewares/Third_Party/FreeRTOS/Source/event_groups.c **** 		}
 278              		.loc 1 394 68 view .LVU87
 279              	.LBE58:
 397:Middlewares/Third_Party/FreeRTOS/Source/event_groups.c **** 
 280              		.loc 1 397 2 view .LVU88
ARM GAS  /tmp/ccM7u9RP.s 			page 22


 397:Middlewares/Third_Party/FreeRTOS/Source/event_groups.c **** 
 281              		.loc 1 397 20 is_stmt 0 view .LVU89
 282 008e FFF7FEFF 		bl	xTaskResumeAll
 283              	.LVL19:
 399:Middlewares/Third_Party/FreeRTOS/Source/event_groups.c **** 	{
 284              		.loc 1 399 2 is_stmt 1 view .LVU90
 401:Middlewares/Third_Party/FreeRTOS/Source/event_groups.c **** 		{
 285              		.loc 1 401 3 view .LVU91
 401:Middlewares/Third_Party/FreeRTOS/Source/event_groups.c **** 		{
 286              		.loc 1 401 5 is_stmt 0 view .LVU92
 287 0092 48B9     		cbnz	r0, .L25
 403:Middlewares/Third_Party/FreeRTOS/Source/event_groups.c **** 		}
 288              		.loc 1 403 4 is_stmt 1 view .LVU93
 289 0094 4FF0E023 		mov	r3, #-536813568
 290 0098 4FF08052 		mov	r2, #268435456
 291 009c C3F8042D 		str	r2, [r3, #3332]
 292              	.LVL20:
 403:Middlewares/Third_Party/FreeRTOS/Source/event_groups.c **** 		}
 293              		.loc 1 403 4 view .LVU94
 294              		.syntax unified
 295              	@ 403 "Middlewares/Third_Party/FreeRTOS/Source/event_groups.c" 1
 296 00a0 BFF34F8F 		dsb
 297              	@ 0 "" 2
 403:Middlewares/Third_Party/FreeRTOS/Source/event_groups.c **** 		}
 298              		.loc 1 403 4 view .LVU95
 299              	@ 403 "Middlewares/Third_Party/FreeRTOS/Source/event_groups.c" 1
 300 00a4 BFF36F8F 		isb
 301              	@ 0 "" 2
 403:Middlewares/Third_Party/FreeRTOS/Source/event_groups.c **** 		}
 302              		.loc 1 403 26 view .LVU96
 303              		.thumb
 304              		.syntax unified
 305              	.L25:
 407:Middlewares/Third_Party/FreeRTOS/Source/event_groups.c **** 		}
 306              		.loc 1 407 28 view .LVU97
 414:Middlewares/Third_Party/FreeRTOS/Source/event_groups.c **** 
 307              		.loc 1 414 3 view .LVU98
 414:Middlewares/Third_Party/FreeRTOS/Source/event_groups.c **** 
 308              		.loc 1 414 14 is_stmt 0 view .LVU99
 309 00a8 FFF7FEFF 		bl	uxTaskResetEventItemValue
 310              	.LVL21:
 416:Middlewares/Third_Party/FreeRTOS/Source/event_groups.c **** 		{
 311              		.loc 1 416 5 view .LVU100
 312 00ac 10F0007F 		tst	r0, #33554432
 414:Middlewares/Third_Party/FreeRTOS/Source/event_groups.c **** 
 313              		.loc 1 414 14 view .LVU101
 314 00b0 8146     		mov	r9, r0
 315              	.LVL22:
 416:Middlewares/Third_Party/FreeRTOS/Source/event_groups.c **** 		{
 316              		.loc 1 416 3 is_stmt 1 view .LVU102
 416:Middlewares/Third_Party/FreeRTOS/Source/event_groups.c **** 		{
 317              		.loc 1 416 5 is_stmt 0 view .LVU103
 318 00b2 1AD0     		beq	.L42
 319              	.LVL23:
 320              	.L26:
 447:Middlewares/Third_Party/FreeRTOS/Source/event_groups.c **** 
 321              		.loc 1 447 3 is_stmt 1 view .LVU104
ARM GAS  /tmp/ccM7u9RP.s 			page 23


 450:Middlewares/Third_Party/FreeRTOS/Source/event_groups.c **** 	}
 322              		.loc 1 450 3 view .LVU105
 450:Middlewares/Third_Party/FreeRTOS/Source/event_groups.c **** 	}
 323              		.loc 1 450 12 is_stmt 0 view .LVU106
 324 00b4 29F07F49 		bic	r9, r9, #-16777216
 325              	.LVL24:
 452:Middlewares/Third_Party/FreeRTOS/Source/event_groups.c **** 
 326              		.loc 1 452 2 is_stmt 1 view .LVU107
 455:Middlewares/Third_Party/FreeRTOS/Source/event_groups.c **** 
 327              		.loc 1 455 2 view .LVU108
 457:Middlewares/Third_Party/FreeRTOS/Source/event_groups.c **** }
 328              		.loc 1 457 2 view .LVU109
 329              	.L8:
 458:Middlewares/Third_Party/FreeRTOS/Source/event_groups.c **** /*-----------------------------------------------------------*/
 330              		.loc 1 458 1 is_stmt 0 view .LVU110
 331 00b8 4846     		mov	r0, r9
 332 00ba BDE8F883 		pop	{r3, r4, r5, r6, r7, r8, r9, pc}
 333              	.LVL25:
 334              	.L41:
 335              	.LBB63:
 336              	.LBB62:
 337              	.LBB61:
 679:Middlewares/Third_Party/FreeRTOS/Source/event_groups.c **** 		{
 338              		.loc 1 679 3 is_stmt 1 view .LVU111
 679:Middlewares/Third_Party/FreeRTOS/Source/event_groups.c **** 		{
 339              		.loc 1 679 5 is_stmt 0 view .LVU112
 340 00be 14EA090F 		tst	r4, r9
 341 00c2 D1D0     		beq	.L19
 342              	.L18:
 343              	.LVL26:
 679:Middlewares/Third_Party/FreeRTOS/Source/event_groups.c **** 		{
 344              		.loc 1 679 5 view .LVU113
 345              	.LBE61:
 346              	.LBE62:
 340:Middlewares/Third_Party/FreeRTOS/Source/event_groups.c **** 			xTicksToWait = ( TickType_t ) 0;
 347              		.loc 1 340 4 is_stmt 1 view .LVU114
 341:Middlewares/Third_Party/FreeRTOS/Source/event_groups.c **** 
 348              		.loc 1 341 4 view .LVU115
 344:Middlewares/Third_Party/FreeRTOS/Source/event_groups.c **** 			{
 349              		.loc 1 344 4 view .LVU116
 344:Middlewares/Third_Party/FreeRTOS/Source/event_groups.c **** 			{
 350              		.loc 1 344 6 is_stmt 0 view .LVU117
 351 00c4 77B1     		cbz	r7, .L22
 346:Middlewares/Third_Party/FreeRTOS/Source/event_groups.c **** 			}
 352              		.loc 1 346 5 is_stmt 1 view .LVU118
 346:Middlewares/Third_Party/FreeRTOS/Source/event_groups.c **** 			}
 353              		.loc 1 346 30 is_stmt 0 view .LVU119
 354 00c6 29EA0404 		bic	r4, r9, r4
 355              	.LVL27:
 346:Middlewares/Third_Party/FreeRTOS/Source/event_groups.c **** 			}
 356              		.loc 1 346 30 view .LVU120
 357 00ca 2C60     		str	r4, [r5]
 358              	.LVL28:
 394:Middlewares/Third_Party/FreeRTOS/Source/event_groups.c **** 		}
 359              		.loc 1 394 68 is_stmt 1 view .LVU121
 360              	.LBE63:
 397:Middlewares/Third_Party/FreeRTOS/Source/event_groups.c **** 
ARM GAS  /tmp/ccM7u9RP.s 			page 24


 361              		.loc 1 397 2 view .LVU122
 397:Middlewares/Third_Party/FreeRTOS/Source/event_groups.c **** 
 362              		.loc 1 397 20 is_stmt 0 view .LVU123
 363 00cc FFF7FEFF 		bl	xTaskResumeAll
 364              	.LVL29:
 399:Middlewares/Third_Party/FreeRTOS/Source/event_groups.c **** 	{
 365              		.loc 1 399 2 is_stmt 1 view .LVU124
 366 00d0 F2E7     		b	.L8
 367              	.LVL30:
 368              	.L40:
 325:Middlewares/Third_Party/FreeRTOS/Source/event_groups.c **** 	}
 369              		.loc 1 325 3 view .LVU125
 370              	.LBB64:
 371              	.LBI64:
 191:Middlewares/Third_Party/FreeRTOS/Source/portable/GCC/ARM_CM4F/portmacro.h **** {
 372              		.loc 2 191 30 view .LVU126
 373              	.LBB65:
 193:Middlewares/Third_Party/FreeRTOS/Source/portable/GCC/ARM_CM4F/portmacro.h **** 
 374              		.loc 2 193 1 view .LVU127
 375              		.loc 2 195 2 view .LVU128
 376              		.syntax unified
 377              	@ 195 "Middlewares/Third_Party/FreeRTOS/Source/portable/GCC/ARM_CM4F/portmacro.h" 1
 378 00d2 4FF05003 			mov r3, #80												
 379 00d6 83F31188 		msr basepri, r3											
 380 00da BFF36F8F 		isb														
 381 00de BFF34F8F 		dsb														
 382              	
 383              	@ 0 "" 2
 384              	.LVL31:
 385              		.thumb
 386              		.syntax unified
 387              	.L16:
 388              		.loc 2 195 2 is_stmt 0 view .LVU129
 389              	.LBE65:
 390              	.LBE64:
 325:Middlewares/Third_Party/FreeRTOS/Source/event_groups.c **** 	}
 391              		.loc 1 325 3 is_stmt 1 discriminator 4 view .LVU130
 325:Middlewares/Third_Party/FreeRTOS/Source/event_groups.c **** 	}
 392              		.loc 1 325 3 discriminator 4 view .LVU131
 325:Middlewares/Third_Party/FreeRTOS/Source/event_groups.c **** 	}
 393              		.loc 1 325 3 discriminator 4 view .LVU132
 325:Middlewares/Third_Party/FreeRTOS/Source/event_groups.c **** 	}
 394              		.loc 1 325 3 discriminator 4 view .LVU133
 325:Middlewares/Third_Party/FreeRTOS/Source/event_groups.c **** 	}
 395              		.loc 1 325 3 discriminator 4 view .LVU134
 325:Middlewares/Third_Party/FreeRTOS/Source/event_groups.c **** 	}
 396              		.loc 1 325 3 discriminator 4 view .LVU135
 397 00e2 FEE7     		b	.L16
 398              	.LVL32:
 399              	.L22:
 400              	.LBB66:
 394:Middlewares/Third_Party/FreeRTOS/Source/event_groups.c **** 		}
 401              		.loc 1 394 68 view .LVU136
 402              	.LBE66:
 397:Middlewares/Third_Party/FreeRTOS/Source/event_groups.c **** 
 403              		.loc 1 397 2 view .LVU137
 397:Middlewares/Third_Party/FreeRTOS/Source/event_groups.c **** 
ARM GAS  /tmp/ccM7u9RP.s 			page 25


 404              		.loc 1 397 20 is_stmt 0 view .LVU138
 405 00e4 FFF7FEFF 		bl	xTaskResumeAll
 406              	.LVL33:
 399:Middlewares/Third_Party/FreeRTOS/Source/event_groups.c **** 	{
 407              		.loc 1 399 2 is_stmt 1 view .LVU139
 408 00e8 E6E7     		b	.L8
 409              	.LVL34:
 410              	.L42:
 418:Middlewares/Third_Party/FreeRTOS/Source/event_groups.c **** 			{
 411              		.loc 1 418 4 view .LVU140
 412 00ea FFF7FEFF 		bl	vPortEnterCritical
 413              	.LVL35:
 421:Middlewares/Third_Party/FreeRTOS/Source/event_groups.c **** 
 414              		.loc 1 421 5 view .LVU141
 421:Middlewares/Third_Party/FreeRTOS/Source/event_groups.c **** 
 415              		.loc 1 421 14 is_stmt 0 view .LVU142
 416 00ee D5F80090 		ldr	r9, [r5]
 417              	.LVL36:
 425:Middlewares/Third_Party/FreeRTOS/Source/event_groups.c **** 				{
 418              		.loc 1 425 5 is_stmt 1 view .LVU143
 419              	.LBB67:
 420              	.LBI67:
 671:Middlewares/Third_Party/FreeRTOS/Source/event_groups.c **** {
 421              		.loc 1 671 19 view .LVU144
 422              	.LBB68:
 673:Middlewares/Third_Party/FreeRTOS/Source/event_groups.c **** 
 423              		.loc 1 673 1 view .LVU145
 675:Middlewares/Third_Party/FreeRTOS/Source/event_groups.c **** 	{
 424              		.loc 1 675 2 view .LVU146
 675:Middlewares/Third_Party/FreeRTOS/Source/event_groups.c **** 	{
 425              		.loc 1 675 4 is_stmt 0 view .LVU147
 426 00f2 4EB9     		cbnz	r6, .L27
 679:Middlewares/Third_Party/FreeRTOS/Source/event_groups.c **** 		{
 427              		.loc 1 679 3 is_stmt 1 view .LVU148
 679:Middlewares/Third_Party/FreeRTOS/Source/event_groups.c **** 		{
 428              		.loc 1 679 5 is_stmt 0 view .LVU149
 429 00f4 14EA090F 		tst	r4, r9
 430 00f8 03D0     		beq	.L29
 431              	.L28:
 432              	.LVL37:
 679:Middlewares/Third_Party/FreeRTOS/Source/event_groups.c **** 		{
 433              		.loc 1 679 5 view .LVU150
 434              	.LBE68:
 435              	.LBE67:
 427:Middlewares/Third_Party/FreeRTOS/Source/event_groups.c **** 					{
 436              		.loc 1 427 6 is_stmt 1 view .LVU151
 427:Middlewares/Third_Party/FreeRTOS/Source/event_groups.c **** 					{
 437              		.loc 1 427 8 is_stmt 0 view .LVU152
 438 00fa 17B1     		cbz	r7, .L29
 429:Middlewares/Third_Party/FreeRTOS/Source/event_groups.c **** 					}
 439              		.loc 1 429 7 is_stmt 1 view .LVU153
 429:Middlewares/Third_Party/FreeRTOS/Source/event_groups.c **** 					}
 440              		.loc 1 429 32 is_stmt 0 view .LVU154
 441 00fc 29EA0404 		bic	r4, r9, r4
 442              	.LVL38:
 429:Middlewares/Third_Party/FreeRTOS/Source/event_groups.c **** 					}
 443              		.loc 1 429 32 view .LVU155
ARM GAS  /tmp/ccM7u9RP.s 			page 26


 444 0100 2C60     		str	r4, [r5]
 445              	.L29:
 438:Middlewares/Third_Party/FreeRTOS/Source/event_groups.c **** 				}
 446              		.loc 1 438 30 is_stmt 1 view .LVU156
 440:Middlewares/Third_Party/FreeRTOS/Source/event_groups.c **** 			}
 447              		.loc 1 440 5 view .LVU157
 448              	.LVL39:
 442:Middlewares/Third_Party/FreeRTOS/Source/event_groups.c **** 		}
 449              		.loc 1 442 4 view .LVU158
 450 0102 FFF7FEFF 		bl	vPortExitCritical
 451              	.LVL40:
 452 0106 D5E7     		b	.L26
 453              	.LVL41:
 454              	.L27:
 455              	.LBB70:
 456              	.LBB69:
 457              		.loc 1 692 3 view .LVU159
 458              		.loc 1 692 5 is_stmt 0 view .LVU160
 459 0108 34EA0903 		bics	r3, r4, r9
 460 010c F9D1     		bne	.L29
 461 010e F4E7     		b	.L28
 462              	.LBE69:
 463              	.LBE70:
 464              		.cfi_endproc
 465              	.LFE7:
 467              		.section	.text.xEventGroupClearBits,"ax",%progbits
 468              		.align	1
 469              		.p2align 2,,3
 470              		.global	xEventGroupClearBits
 471              		.syntax unified
 472              		.thumb
 473              		.thumb_func
 474              		.fpu fpv4-sp-d16
 476              	xEventGroupClearBits:
 477              	.LVL42:
 478              	.LFB8:
 462:Middlewares/Third_Party/FreeRTOS/Source/event_groups.c **** EventGroup_t *pxEventBits = xEventGroup;
 479              		.loc 1 462 1 is_stmt 1 view -0
 480              		.cfi_startproc
 481              		@ args = 0, pretend = 0, frame = 0
 482              		@ frame_needed = 0, uses_anonymous_args = 0
 463:Middlewares/Third_Party/FreeRTOS/Source/event_groups.c **** EventBits_t uxReturn;
 483              		.loc 1 463 1 view .LVU162
 464:Middlewares/Third_Party/FreeRTOS/Source/event_groups.c **** 
 484              		.loc 1 464 1 view .LVU163
 468:Middlewares/Third_Party/FreeRTOS/Source/event_groups.c **** 	configASSERT( ( uxBitsToClear & eventEVENT_BITS_CONTROL_BYTES ) == 0 );
 485              		.loc 1 468 2 view .LVU164
 486 0000 C0B1     		cbz	r0, .L50
 468:Middlewares/Third_Party/FreeRTOS/Source/event_groups.c **** 	configASSERT( ( uxBitsToClear & eventEVENT_BITS_CONTROL_BYTES ) == 0 );
 487              		.loc 1 468 29 discriminator 2 view .LVU165
 469:Middlewares/Third_Party/FreeRTOS/Source/event_groups.c **** 
 488              		.loc 1 469 2 discriminator 2 view .LVU166
 489 0002 11F07F4F 		tst	r1, #-16777216
 462:Middlewares/Third_Party/FreeRTOS/Source/event_groups.c **** EventGroup_t *pxEventBits = xEventGroup;
 490              		.loc 1 462 1 is_stmt 0 discriminator 2 view .LVU167
 491 0006 70B5     		push	{r4, r5, r6, lr}
 492              	.LCFI2:
ARM GAS  /tmp/ccM7u9RP.s 			page 27


 493              		.cfi_def_cfa_offset 16
 494              		.cfi_offset 4, -16
 495              		.cfi_offset 5, -12
 496              		.cfi_offset 6, -8
 497              		.cfi_offset 14, -4
 498 0008 0C46     		mov	r4, r1
 469:Middlewares/Third_Party/FreeRTOS/Source/event_groups.c **** 
 499              		.loc 1 469 2 discriminator 2 view .LVU168
 500 000a 08D0     		beq	.L46
 469:Middlewares/Third_Party/FreeRTOS/Source/event_groups.c **** 
 501              		.loc 1 469 2 is_stmt 1 view .LVU169
 502              	.LBB85:
 503              	.LBI85:
 191:Middlewares/Third_Party/FreeRTOS/Source/portable/GCC/ARM_CM4F/portmacro.h **** {
 504              		.loc 2 191 30 view .LVU170
 505              	.LBB86:
 193:Middlewares/Third_Party/FreeRTOS/Source/portable/GCC/ARM_CM4F/portmacro.h **** 
 506              		.loc 2 193 1 view .LVU171
 507              		.loc 2 195 2 view .LVU172
 508              		.syntax unified
 509              	@ 195 "Middlewares/Third_Party/FreeRTOS/Source/portable/GCC/ARM_CM4F/portmacro.h" 1
 510 000c 4FF05003 			mov r3, #80												
 511 0010 83F31188 		msr basepri, r3											
 512 0014 BFF36F8F 		isb														
 513 0018 BFF34F8F 		dsb														
 514              	
 515              	@ 0 "" 2
 516              	.LVL43:
 517              		.thumb
 518              		.syntax unified
 519              	.L47:
 520              		.loc 2 195 2 is_stmt 0 view .LVU173
 521              	.LBE86:
 522              	.LBE85:
 469:Middlewares/Third_Party/FreeRTOS/Source/event_groups.c **** 
 523              		.loc 1 469 2 is_stmt 1 discriminator 2 view .LVU174
 469:Middlewares/Third_Party/FreeRTOS/Source/event_groups.c **** 
 524              		.loc 1 469 2 discriminator 2 view .LVU175
 469:Middlewares/Third_Party/FreeRTOS/Source/event_groups.c **** 
 525              		.loc 1 469 2 discriminator 2 view .LVU176
 469:Middlewares/Third_Party/FreeRTOS/Source/event_groups.c **** 
 526              		.loc 1 469 2 discriminator 2 view .LVU177
 469:Middlewares/Third_Party/FreeRTOS/Source/event_groups.c **** 
 527              		.loc 1 469 2 discriminator 2 view .LVU178
 469:Middlewares/Third_Party/FreeRTOS/Source/event_groups.c **** 
 528              		.loc 1 469 2 discriminator 2 view .LVU179
 529 001c FEE7     		b	.L47
 530              	.L46:
 531 001e 0646     		mov	r6, r0
 532              	.LVL44:
 533              	.LBB87:
 534              	.LBI87:
 461:Middlewares/Third_Party/FreeRTOS/Source/event_groups.c **** {
 535              		.loc 1 461 13 view .LVU180
 536              	.LBB88:
 469:Middlewares/Third_Party/FreeRTOS/Source/event_groups.c **** 
 537              		.loc 1 469 72 view .LVU181
ARM GAS  /tmp/ccM7u9RP.s 			page 28


 471:Middlewares/Third_Party/FreeRTOS/Source/event_groups.c **** 	{
 538              		.loc 1 471 2 view .LVU182
 539 0020 FFF7FEFF 		bl	vPortEnterCritical
 540              	.LVL45:
 473:Middlewares/Third_Party/FreeRTOS/Source/event_groups.c **** 
 541              		.loc 1 473 60 view .LVU183
 477:Middlewares/Third_Party/FreeRTOS/Source/event_groups.c **** 
 542              		.loc 1 477 3 view .LVU184
 477:Middlewares/Third_Party/FreeRTOS/Source/event_groups.c **** 
 543              		.loc 1 477 12 is_stmt 0 view .LVU185
 544 0024 3568     		ldr	r5, [r6]
 545              	.LVL46:
 480:Middlewares/Third_Party/FreeRTOS/Source/event_groups.c **** 	}
 546              		.loc 1 480 3 is_stmt 1 view .LVU186
 480:Middlewares/Third_Party/FreeRTOS/Source/event_groups.c **** 	}
 547              		.loc 1 480 28 is_stmt 0 view .LVU187
 548 0026 25EA0404 		bic	r4, r5, r4
 549              	.LVL47:
 480:Middlewares/Third_Party/FreeRTOS/Source/event_groups.c **** 	}
 550              		.loc 1 480 28 view .LVU188
 551 002a 3460     		str	r4, [r6]
 482:Middlewares/Third_Party/FreeRTOS/Source/event_groups.c **** 
 552              		.loc 1 482 2 is_stmt 1 view .LVU189
 553 002c FFF7FEFF 		bl	vPortExitCritical
 554              	.LVL48:
 484:Middlewares/Third_Party/FreeRTOS/Source/event_groups.c **** }
 555              		.loc 1 484 2 view .LVU190
 484:Middlewares/Third_Party/FreeRTOS/Source/event_groups.c **** }
 556              		.loc 1 484 2 is_stmt 0 view .LVU191
 557              	.LBE88:
 558              	.LBE87:
 485:Middlewares/Third_Party/FreeRTOS/Source/event_groups.c **** /*-----------------------------------------------------------*/
 559              		.loc 1 485 1 view .LVU192
 560 0030 2846     		mov	r0, r5
 561 0032 70BD     		pop	{r4, r5, r6, pc}
 562              	.LVL49:
 563              	.L50:
 564              	.LCFI3:
 565              		.cfi_def_cfa_offset 0
 566              		.cfi_restore 4
 567              		.cfi_restore 5
 568              		.cfi_restore 6
 569              		.cfi_restore 14
 468:Middlewares/Third_Party/FreeRTOS/Source/event_groups.c **** 	configASSERT( ( uxBitsToClear & eventEVENT_BITS_CONTROL_BYTES ) == 0 );
 570              		.loc 1 468 2 is_stmt 1 view .LVU193
 571              	.LBB89:
 572              	.LBI89:
 191:Middlewares/Third_Party/FreeRTOS/Source/portable/GCC/ARM_CM4F/portmacro.h **** {
 573              		.loc 2 191 30 view .LVU194
 574              	.LBB90:
 193:Middlewares/Third_Party/FreeRTOS/Source/portable/GCC/ARM_CM4F/portmacro.h **** 
 575              		.loc 2 193 1 view .LVU195
 576              		.loc 2 195 2 view .LVU196
 577              		.syntax unified
 578              	@ 195 "Middlewares/Third_Party/FreeRTOS/Source/portable/GCC/ARM_CM4F/portmacro.h" 1
 579 0034 4FF05003 			mov r3, #80												
 580 0038 83F31188 		msr basepri, r3											
ARM GAS  /tmp/ccM7u9RP.s 			page 29


 581 003c BFF36F8F 		isb														
 582 0040 BFF34F8F 		dsb														
 583              	
 584              	@ 0 "" 2
 585              	.LVL50:
 586              		.thumb
 587              		.syntax unified
 588              	.L45:
 589              		.loc 2 195 2 is_stmt 0 view .LVU197
 590              	.LBE90:
 591              	.LBE89:
 468:Middlewares/Third_Party/FreeRTOS/Source/event_groups.c **** 	configASSERT( ( uxBitsToClear & eventEVENT_BITS_CONTROL_BYTES ) == 0 );
 592              		.loc 1 468 2 is_stmt 1 discriminator 1 view .LVU198
 468:Middlewares/Third_Party/FreeRTOS/Source/event_groups.c **** 	configASSERT( ( uxBitsToClear & eventEVENT_BITS_CONTROL_BYTES ) == 0 );
 593              		.loc 1 468 2 discriminator 1 view .LVU199
 468:Middlewares/Third_Party/FreeRTOS/Source/event_groups.c **** 	configASSERT( ( uxBitsToClear & eventEVENT_BITS_CONTROL_BYTES ) == 0 );
 594              		.loc 1 468 2 discriminator 1 view .LVU200
 468:Middlewares/Third_Party/FreeRTOS/Source/event_groups.c **** 	configASSERT( ( uxBitsToClear & eventEVENT_BITS_CONTROL_BYTES ) == 0 );
 595              		.loc 1 468 2 discriminator 1 view .LVU201
 468:Middlewares/Third_Party/FreeRTOS/Source/event_groups.c **** 	configASSERT( ( uxBitsToClear & eventEVENT_BITS_CONTROL_BYTES ) == 0 );
 596              		.loc 1 468 2 discriminator 1 view .LVU202
 468:Middlewares/Third_Party/FreeRTOS/Source/event_groups.c **** 	configASSERT( ( uxBitsToClear & eventEVENT_BITS_CONTROL_BYTES ) == 0 );
 597              		.loc 1 468 2 discriminator 1 view .LVU203
 598 0044 FEE7     		b	.L45
 599              		.cfi_endproc
 600              	.LFE8:
 602 0046 00BF     		.section	.text.xEventGroupGetBitsFromISR,"ax",%progbits
 603              		.align	1
 604              		.p2align 2,,3
 605              		.global	xEventGroupGetBitsFromISR
 606              		.syntax unified
 607              		.thumb
 608              		.thumb_func
 609              		.fpu fpv4-sp-d16
 611              	xEventGroupGetBitsFromISR:
 612              	.LVL51:
 613              	.LFB9:
 504:Middlewares/Third_Party/FreeRTOS/Source/event_groups.c **** UBaseType_t uxSavedInterruptStatus;
 614              		.loc 1 504 1 view -0
 615              		.cfi_startproc
 616              		@ args = 0, pretend = 0, frame = 0
 617              		@ frame_needed = 0, uses_anonymous_args = 0
 618              		@ link register save eliminated.
 505:Middlewares/Third_Party/FreeRTOS/Source/event_groups.c **** EventGroup_t const * const pxEventBits = xEventGroup;
 619              		.loc 1 505 1 view .LVU205
 506:Middlewares/Third_Party/FreeRTOS/Source/event_groups.c **** EventBits_t uxReturn;
 620              		.loc 1 506 1 view .LVU206
 507:Middlewares/Third_Party/FreeRTOS/Source/event_groups.c **** 
 621              		.loc 1 507 1 view .LVU207
 509:Middlewares/Third_Party/FreeRTOS/Source/event_groups.c **** 	{
 622              		.loc 1 509 2 view .LVU208
 623              	.LBB91:
 624              	.LBI91:
 196:Middlewares/Third_Party/FreeRTOS/Source/portable/GCC/ARM_CM4F/portmacro.h **** 	(
 197:Middlewares/Third_Party/FreeRTOS/Source/portable/GCC/ARM_CM4F/portmacro.h **** 		"	mov %0, %1												\n"	\
 198:Middlewares/Third_Party/FreeRTOS/Source/portable/GCC/ARM_CM4F/portmacro.h **** 		"	msr basepri, %0											\n" \
 199:Middlewares/Third_Party/FreeRTOS/Source/portable/GCC/ARM_CM4F/portmacro.h **** 		"	isb														\n" \
ARM GAS  /tmp/ccM7u9RP.s 			page 30


 200:Middlewares/Third_Party/FreeRTOS/Source/portable/GCC/ARM_CM4F/portmacro.h **** 		"	dsb														\n" \
 201:Middlewares/Third_Party/FreeRTOS/Source/portable/GCC/ARM_CM4F/portmacro.h **** 		:"=r" (ulNewBASEPRI) : "i" ( configMAX_SYSCALL_INTERRUPT_PRIORITY ) : "memory"
 202:Middlewares/Third_Party/FreeRTOS/Source/portable/GCC/ARM_CM4F/portmacro.h **** 	);
 203:Middlewares/Third_Party/FreeRTOS/Source/portable/GCC/ARM_CM4F/portmacro.h **** }
 204:Middlewares/Third_Party/FreeRTOS/Source/portable/GCC/ARM_CM4F/portmacro.h **** 
 205:Middlewares/Third_Party/FreeRTOS/Source/portable/GCC/ARM_CM4F/portmacro.h **** /*-----------------------------------------------------------*/
 206:Middlewares/Third_Party/FreeRTOS/Source/portable/GCC/ARM_CM4F/portmacro.h **** 
 207:Middlewares/Third_Party/FreeRTOS/Source/portable/GCC/ARM_CM4F/portmacro.h **** portFORCE_INLINE static uint32_t ulPortRaiseBASEPRI( void )
 625              		.loc 2 207 34 view .LVU209
 626              	.LBB92:
 208:Middlewares/Third_Party/FreeRTOS/Source/portable/GCC/ARM_CM4F/portmacro.h **** {
 209:Middlewares/Third_Party/FreeRTOS/Source/portable/GCC/ARM_CM4F/portmacro.h **** uint32_t ulOriginalBASEPRI, ulNewBASEPRI;
 627              		.loc 2 209 1 view .LVU210
 210:Middlewares/Third_Party/FreeRTOS/Source/portable/GCC/ARM_CM4F/portmacro.h **** 
 211:Middlewares/Third_Party/FreeRTOS/Source/portable/GCC/ARM_CM4F/portmacro.h **** 	__asm volatile
 628              		.loc 2 211 2 view .LVU211
 629              		.syntax unified
 630              	@ 211 "Middlewares/Third_Party/FreeRTOS/Source/portable/GCC/ARM_CM4F/portmacro.h" 1
 631 0000 EFF31183 			mrs r3, basepri											
 632 0004 4FF05002 		mov r2, #80												
 633 0008 82F31188 		msr basepri, r2											
 634 000c BFF36F8F 		isb														
 635 0010 BFF34F8F 		dsb														
 636              	
 637              	@ 0 "" 2
 638              	.LVL52:
 212:Middlewares/Third_Party/FreeRTOS/Source/portable/GCC/ARM_CM4F/portmacro.h **** 	(
 213:Middlewares/Third_Party/FreeRTOS/Source/portable/GCC/ARM_CM4F/portmacro.h **** 		"	mrs %0, basepri											\n" \
 214:Middlewares/Third_Party/FreeRTOS/Source/portable/GCC/ARM_CM4F/portmacro.h **** 		"	mov %1, %2												\n"	\
 215:Middlewares/Third_Party/FreeRTOS/Source/portable/GCC/ARM_CM4F/portmacro.h **** 		"	msr basepri, %1											\n" \
 216:Middlewares/Third_Party/FreeRTOS/Source/portable/GCC/ARM_CM4F/portmacro.h **** 		"	isb														\n" \
 217:Middlewares/Third_Party/FreeRTOS/Source/portable/GCC/ARM_CM4F/portmacro.h **** 		"	dsb														\n" \
 218:Middlewares/Third_Party/FreeRTOS/Source/portable/GCC/ARM_CM4F/portmacro.h **** 		:"=r" (ulOriginalBASEPRI), "=r" (ulNewBASEPRI) : "i" ( configMAX_SYSCALL_INTERRUPT_PRIORITY ) : "
 219:Middlewares/Third_Party/FreeRTOS/Source/portable/GCC/ARM_CM4F/portmacro.h **** 	);
 220:Middlewares/Third_Party/FreeRTOS/Source/portable/GCC/ARM_CM4F/portmacro.h **** 
 221:Middlewares/Third_Party/FreeRTOS/Source/portable/GCC/ARM_CM4F/portmacro.h **** 	/* This return will not be reached but is necessary to prevent compiler
 222:Middlewares/Third_Party/FreeRTOS/Source/portable/GCC/ARM_CM4F/portmacro.h **** 	warnings. */
 223:Middlewares/Third_Party/FreeRTOS/Source/portable/GCC/ARM_CM4F/portmacro.h **** 	return ulOriginalBASEPRI;
 639              		.loc 2 223 2 view .LVU212
 640              		.loc 2 223 2 is_stmt 0 view .LVU213
 641              		.thumb
 642              		.syntax unified
 643              	.LBE92:
 644              	.LBE91:
 511:Middlewares/Third_Party/FreeRTOS/Source/event_groups.c **** 	}
 645              		.loc 1 511 3 is_stmt 1 view .LVU214
 511:Middlewares/Third_Party/FreeRTOS/Source/event_groups.c **** 	}
 646              		.loc 1 511 12 is_stmt 0 view .LVU215
 647 0014 0068     		ldr	r0, [r0]
 648              	.LVL53:
 513:Middlewares/Third_Party/FreeRTOS/Source/event_groups.c **** 
 649              		.loc 1 513 2 is_stmt 1 view .LVU216
 650              	.LBB93:
 651              	.LBI93:
 224:Middlewares/Third_Party/FreeRTOS/Source/portable/GCC/ARM_CM4F/portmacro.h **** }
 225:Middlewares/Third_Party/FreeRTOS/Source/portable/GCC/ARM_CM4F/portmacro.h **** /*-----------------------------------------------------------*/
 226:Middlewares/Third_Party/FreeRTOS/Source/portable/GCC/ARM_CM4F/portmacro.h **** 
ARM GAS  /tmp/ccM7u9RP.s 			page 31


 227:Middlewares/Third_Party/FreeRTOS/Source/portable/GCC/ARM_CM4F/portmacro.h **** portFORCE_INLINE static void vPortSetBASEPRI( uint32_t ulNewMaskValue )
 652              		.loc 2 227 30 view .LVU217
 653              	.LBB94:
 228:Middlewares/Third_Party/FreeRTOS/Source/portable/GCC/ARM_CM4F/portmacro.h **** {
 229:Middlewares/Third_Party/FreeRTOS/Source/portable/GCC/ARM_CM4F/portmacro.h **** 	__asm volatile
 654              		.loc 2 229 2 view .LVU218
 655              		.syntax unified
 656              	@ 229 "Middlewares/Third_Party/FreeRTOS/Source/portable/GCC/ARM_CM4F/portmacro.h" 1
 657 0016 83F31188 			msr basepri, r3	
 658              	@ 0 "" 2
 659              	.LVL54:
 660              		.loc 2 229 2 is_stmt 0 view .LVU219
 661              		.thumb
 662              		.syntax unified
 663              	.LBE94:
 664              	.LBE93:
 515:Middlewares/Third_Party/FreeRTOS/Source/event_groups.c **** } /*lint !e818 EventGroupHandle_t is a typedef used in other functions to so can't be pointer to co
 665              		.loc 1 515 2 is_stmt 1 view .LVU220
 516:Middlewares/Third_Party/FreeRTOS/Source/event_groups.c **** /*-----------------------------------------------------------*/
 666              		.loc 1 516 1 is_stmt 0 view .LVU221
 667 001a 7047     		bx	lr
 668              		.cfi_endproc
 669              	.LFE9:
 671              		.section	.text.xEventGroupSetBits,"ax",%progbits
 672              		.align	1
 673              		.p2align 2,,3
 674              		.global	xEventGroupSetBits
 675              		.syntax unified
 676              		.thumb
 677              		.thumb_func
 678              		.fpu fpv4-sp-d16
 680              	xEventGroupSetBits:
 681              	.LVL55:
 682              	.LFB10:
 520:Middlewares/Third_Party/FreeRTOS/Source/event_groups.c **** ListItem_t *pxListItem, *pxNext;
 683              		.loc 1 520 1 is_stmt 1 view -0
 684              		.cfi_startproc
 685              		@ args = 0, pretend = 0, frame = 0
 686              		@ frame_needed = 0, uses_anonymous_args = 0
 521:Middlewares/Third_Party/FreeRTOS/Source/event_groups.c **** ListItem_t const *pxListEnd;
 687              		.loc 1 521 1 view .LVU223
 522:Middlewares/Third_Party/FreeRTOS/Source/event_groups.c **** List_t const * pxList;
 688              		.loc 1 522 1 view .LVU224
 523:Middlewares/Third_Party/FreeRTOS/Source/event_groups.c **** EventBits_t uxBitsToClear = 0, uxBitsWaitedFor, uxControlBits;
 689              		.loc 1 523 1 view .LVU225
 524:Middlewares/Third_Party/FreeRTOS/Source/event_groups.c **** EventGroup_t *pxEventBits = xEventGroup;
 690              		.loc 1 524 1 view .LVU226
 525:Middlewares/Third_Party/FreeRTOS/Source/event_groups.c **** BaseType_t xMatchFound = pdFALSE;
 691              		.loc 1 525 1 view .LVU227
 526:Middlewares/Third_Party/FreeRTOS/Source/event_groups.c **** 
 692              		.loc 1 526 1 view .LVU228
 530:Middlewares/Third_Party/FreeRTOS/Source/event_groups.c **** 	configASSERT( ( uxBitsToSet & eventEVENT_BITS_CONTROL_BYTES ) == 0 );
 693              		.loc 1 530 2 view .LVU229
 694 0000 0028     		cmp	r0, #0
 695 0002 3ED0     		beq	.L70
 530:Middlewares/Third_Party/FreeRTOS/Source/event_groups.c **** 	configASSERT( ( uxBitsToSet & eventEVENT_BITS_CONTROL_BYTES ) == 0 );
 696              		.loc 1 530 29 discriminator 2 view .LVU230
ARM GAS  /tmp/ccM7u9RP.s 			page 32


 531:Middlewares/Third_Party/FreeRTOS/Source/event_groups.c **** 
 697              		.loc 1 531 2 discriminator 2 view .LVU231
 520:Middlewares/Third_Party/FreeRTOS/Source/event_groups.c **** ListItem_t *pxListItem, *pxNext;
 698              		.loc 1 520 1 is_stmt 0 discriminator 2 view .LVU232
 699 0004 2DE9F041 		push	{r4, r5, r6, r7, r8, lr}
 700              	.LCFI4:
 701              		.cfi_def_cfa_offset 24
 702              		.cfi_offset 4, -24
 703              		.cfi_offset 5, -20
 704              		.cfi_offset 6, -16
 705              		.cfi_offset 7, -12
 706              		.cfi_offset 8, -8
 707              		.cfi_offset 14, -4
 531:Middlewares/Third_Party/FreeRTOS/Source/event_groups.c **** 
 708              		.loc 1 531 2 discriminator 2 view .LVU233
 709 0008 11F07F46 		ands	r6, r1, #-16777216
 710 000c 8846     		mov	r8, r1
 711 000e 08D0     		beq	.L55
 531:Middlewares/Third_Party/FreeRTOS/Source/event_groups.c **** 
 712              		.loc 1 531 2 is_stmt 1 view .LVU234
 713              	.LBB109:
 714              	.LBI109:
 191:Middlewares/Third_Party/FreeRTOS/Source/portable/GCC/ARM_CM4F/portmacro.h **** {
 715              		.loc 2 191 30 view .LVU235
 716              	.LBB110:
 193:Middlewares/Third_Party/FreeRTOS/Source/portable/GCC/ARM_CM4F/portmacro.h **** 
 717              		.loc 2 193 1 view .LVU236
 195:Middlewares/Third_Party/FreeRTOS/Source/portable/GCC/ARM_CM4F/portmacro.h **** 	(
 718              		.loc 2 195 2 view .LVU237
 719              		.syntax unified
 720              	@ 195 "Middlewares/Third_Party/FreeRTOS/Source/portable/GCC/ARM_CM4F/portmacro.h" 1
 721 0010 4FF05003 			mov r3, #80												
 722 0014 83F31188 		msr basepri, r3											
 723 0018 BFF36F8F 		isb														
 724 001c BFF34F8F 		dsb														
 725              	
 726              	@ 0 "" 2
 727              	.LVL56:
 728              		.thumb
 729              		.syntax unified
 730              	.L56:
 195:Middlewares/Third_Party/FreeRTOS/Source/portable/GCC/ARM_CM4F/portmacro.h **** 	(
 731              		.loc 2 195 2 is_stmt 0 view .LVU238
 732              	.LBE110:
 733              	.LBE109:
 531:Middlewares/Third_Party/FreeRTOS/Source/event_groups.c **** 
 734              		.loc 1 531 2 is_stmt 1 discriminator 2 view .LVU239
 531:Middlewares/Third_Party/FreeRTOS/Source/event_groups.c **** 
 735              		.loc 1 531 2 discriminator 2 view .LVU240
 531:Middlewares/Third_Party/FreeRTOS/Source/event_groups.c **** 
 736              		.loc 1 531 2 discriminator 2 view .LVU241
 531:Middlewares/Third_Party/FreeRTOS/Source/event_groups.c **** 
 737              		.loc 1 531 2 discriminator 2 view .LVU242
 531:Middlewares/Third_Party/FreeRTOS/Source/event_groups.c **** 
 738              		.loc 1 531 2 discriminator 2 view .LVU243
 531:Middlewares/Third_Party/FreeRTOS/Source/event_groups.c **** 
 739              		.loc 1 531 2 discriminator 2 view .LVU244
ARM GAS  /tmp/ccM7u9RP.s 			page 33


 740 0020 FEE7     		b	.L56
 741              	.L55:
 742 0022 0546     		mov	r5, r0
 743              	.LVL57:
 744              	.LBB111:
 745              	.LBI111:
 519:Middlewares/Third_Party/FreeRTOS/Source/event_groups.c **** {
 746              		.loc 1 519 13 view .LVU245
 747              	.LBB112:
 531:Middlewares/Third_Party/FreeRTOS/Source/event_groups.c **** 
 748              		.loc 1 531 70 view .LVU246
 533:Middlewares/Third_Party/FreeRTOS/Source/event_groups.c **** 	pxListEnd = listGET_END_MARKER( pxList ); /*lint !e826 !e740 !e9087 The mini list structure is use
 749              		.loc 1 533 2 view .LVU247
 534:Middlewares/Third_Party/FreeRTOS/Source/event_groups.c **** 	vTaskSuspendAll();
 750              		.loc 1 534 2 view .LVU248
 535:Middlewares/Third_Party/FreeRTOS/Source/event_groups.c **** 	{
 751              		.loc 1 535 2 is_stmt 0 view .LVU249
 752 0024 FFF7FEFF 		bl	vTaskSuspendAll
 753              	.LVL58:
 542:Middlewares/Third_Party/FreeRTOS/Source/event_groups.c **** 
 754              		.loc 1 542 28 view .LVU250
 755 0028 2B68     		ldr	r3, [r5]
 539:Middlewares/Third_Party/FreeRTOS/Source/event_groups.c **** 
 756              		.loc 1 539 14 view .LVU251
 757 002a 2C69     		ldr	r4, [r5, #16]
 534:Middlewares/Third_Party/FreeRTOS/Source/event_groups.c **** 	vTaskSuspendAll();
 758              		.loc 1 534 12 view .LVU252
 759 002c 05F10C07 		add	r7, r5, #12
 760              	.LVL59:
 535:Middlewares/Third_Party/FreeRTOS/Source/event_groups.c **** 	{
 761              		.loc 1 535 2 is_stmt 1 view .LVU253
 537:Middlewares/Third_Party/FreeRTOS/Source/event_groups.c **** 
 762              		.loc 1 537 56 view .LVU254
 539:Middlewares/Third_Party/FreeRTOS/Source/event_groups.c **** 
 763              		.loc 1 539 3 view .LVU255
 542:Middlewares/Third_Party/FreeRTOS/Source/event_groups.c **** 
 764              		.loc 1 542 3 view .LVU256
 542:Middlewares/Third_Party/FreeRTOS/Source/event_groups.c **** 
 765              		.loc 1 542 28 is_stmt 0 view .LVU257
 766 0030 48EA0303 		orr	r3, r8, r3
 545:Middlewares/Third_Party/FreeRTOS/Source/event_groups.c **** 		{
 767              		.loc 1 545 8 view .LVU258
 768 0034 A742     		cmp	r7, r4
 542:Middlewares/Third_Party/FreeRTOS/Source/event_groups.c **** 
 769              		.loc 1 542 28 view .LVU259
 770 0036 2B60     		str	r3, [r5]
 545:Middlewares/Third_Party/FreeRTOS/Source/event_groups.c **** 		{
 771              		.loc 1 545 3 is_stmt 1 view .LVU260
 772              	.LVL60:
 545:Middlewares/Third_Party/FreeRTOS/Source/event_groups.c **** 		{
 773              		.loc 1 545 8 view .LVU261
 774 0038 0CD1     		bne	.L62
 545:Middlewares/Third_Party/FreeRTOS/Source/event_groups.c **** 		{
 775              		.loc 1 545 8 is_stmt 0 view .LVU262
 776 003a 1CE0     		b	.L57
 777              	.LVL61:
 778              	.L72:
ARM GAS  /tmp/ccM7u9RP.s 			page 34


 558:Middlewares/Third_Party/FreeRTOS/Source/event_groups.c **** 				{
 779              		.loc 1 558 7 view .LVU263
 780 003c 13EA0C0F 		tst	r3, ip
 781 0040 06D0     		beq	.L60
 782              	.L59:
 582:Middlewares/Third_Party/FreeRTOS/Source/event_groups.c **** 				}
 783              		.loc 1 582 6 is_stmt 1 view .LVU264
 580:Middlewares/Third_Party/FreeRTOS/Source/event_groups.c **** 				{
 784              		.loc 1 580 7 is_stmt 0 view .LVU265
 785 0042 D301     		lsls	r3, r2, #7
 582:Middlewares/Third_Party/FreeRTOS/Source/event_groups.c **** 				}
 786              		.loc 1 582 20 view .LVU266
 787 0044 48BF     		it	mi
 788 0046 46EA0C06 		orrmi	r6, r6, ip
 789              	.LVL62:
 586:Middlewares/Third_Party/FreeRTOS/Source/event_groups.c **** 				}
 790              		.loc 1 586 30 is_stmt 1 view .LVU267
 594:Middlewares/Third_Party/FreeRTOS/Source/event_groups.c **** 			}
 791              		.loc 1 594 5 view .LVU268
 792 004a FFF7FEFF 		bl	vTaskRemoveFromUnorderedEventList
 793              	.LVL63:
 605:Middlewares/Third_Party/FreeRTOS/Source/event_groups.c **** 	}
 794              		.loc 1 605 28 is_stmt 0 view .LVU269
 795 004e 2B68     		ldr	r3, [r5]
 796              	.L60:
 797              	.LVL64:
 545:Middlewares/Third_Party/FreeRTOS/Source/event_groups.c **** 		{
 798              		.loc 1 545 8 is_stmt 1 view .LVU270
 799 0050 A742     		cmp	r7, r4
 800 0052 0ED0     		beq	.L71
 801              	.LVL65:
 802              	.L62:
 547:Middlewares/Third_Party/FreeRTOS/Source/event_groups.c **** 			uxBitsWaitedFor = listGET_LIST_ITEM_VALUE( pxListItem );
 803              		.loc 1 547 4 view .LVU271
 558:Middlewares/Third_Party/FreeRTOS/Source/event_groups.c **** 				{
 804              		.loc 1 558 5 view .LVU272
 567:Middlewares/Third_Party/FreeRTOS/Source/event_groups.c **** 			{
 805              		.loc 1 567 9 view .LVU273
 580:Middlewares/Third_Party/FreeRTOS/Source/event_groups.c **** 				{
 806              		.loc 1 580 5 view .LVU274
 807 0054 2046     		mov	r0, r4
 594:Middlewares/Third_Party/FreeRTOS/Source/event_groups.c **** 			}
 808              		.loc 1 594 5 is_stmt 0 view .LVU275
 809 0056 43F00071 		orr	r1, r3, #33554432
 548:Middlewares/Third_Party/FreeRTOS/Source/event_groups.c **** 			xMatchFound = pdFALSE;
 810              		.loc 1 548 20 view .LVU276
 811 005a 0268     		ldr	r2, [r0]
 547:Middlewares/Third_Party/FreeRTOS/Source/event_groups.c **** 			uxBitsWaitedFor = listGET_LIST_ITEM_VALUE( pxListItem );
 812              		.loc 1 547 11 view .LVU277
 813 005c 6468     		ldr	r4, [r4, #4]
 814              	.LVL66:
 548:Middlewares/Third_Party/FreeRTOS/Source/event_groups.c **** 			xMatchFound = pdFALSE;
 815              		.loc 1 548 4 is_stmt 1 view .LVU278
 549:Middlewares/Third_Party/FreeRTOS/Source/event_groups.c **** 
 816              		.loc 1 549 4 view .LVU279
 552:Middlewares/Third_Party/FreeRTOS/Source/event_groups.c **** 			uxBitsWaitedFor &= ~eventEVENT_BITS_CONTROL_BYTES;
 817              		.loc 1 552 4 view .LVU280
ARM GAS  /tmp/ccM7u9RP.s 			page 35


 553:Middlewares/Third_Party/FreeRTOS/Source/event_groups.c **** 
 818              		.loc 1 553 4 view .LVU281
 555:Middlewares/Third_Party/FreeRTOS/Source/event_groups.c **** 			{
 819              		.loc 1 555 6 is_stmt 0 view .LVU282
 820 005e 12F0806F 		tst	r2, #67108864
 553:Middlewares/Third_Party/FreeRTOS/Source/event_groups.c **** 
 821              		.loc 1 553 20 view .LVU283
 822 0062 22F07F4C 		bic	ip, r2, #-16777216
 823              	.LVL67:
 555:Middlewares/Third_Party/FreeRTOS/Source/event_groups.c **** 			{
 824              		.loc 1 555 4 is_stmt 1 view .LVU284
 555:Middlewares/Third_Party/FreeRTOS/Source/event_groups.c **** 			{
 825              		.loc 1 555 6 is_stmt 0 view .LVU285
 826 0066 E9D0     		beq	.L72
 567:Middlewares/Third_Party/FreeRTOS/Source/event_groups.c **** 			{
 827              		.loc 1 567 11 view .LVU286
 828 0068 3CEA030E 		bics	lr, ip, r3
 829 006c E9D0     		beq	.L59
 830              	.LVL68:
 545:Middlewares/Third_Party/FreeRTOS/Source/event_groups.c **** 		{
 831              		.loc 1 545 8 is_stmt 1 view .LVU287
 832 006e A742     		cmp	r7, r4
 833 0070 F0D1     		bne	.L62
 834              	.LVL69:
 835              	.L71:
 605:Middlewares/Third_Party/FreeRTOS/Source/event_groups.c **** 	}
 836              		.loc 1 605 28 is_stmt 0 view .LVU288
 837 0072 23EA0603 		bic	r3, r3, r6
 838              	.LVL70:
 839              	.L57:
 605:Middlewares/Third_Party/FreeRTOS/Source/event_groups.c **** 	}
 840              		.loc 1 605 3 is_stmt 1 view .LVU289
 605:Middlewares/Third_Party/FreeRTOS/Source/event_groups.c **** 	}
 841              		.loc 1 605 28 is_stmt 0 view .LVU290
 842 0076 2B60     		str	r3, [r5]
 607:Middlewares/Third_Party/FreeRTOS/Source/event_groups.c **** 
 843              		.loc 1 607 2 is_stmt 1 view .LVU291
 607:Middlewares/Third_Party/FreeRTOS/Source/event_groups.c **** 
 844              		.loc 1 607 11 is_stmt 0 view .LVU292
 845 0078 FFF7FEFF 		bl	xTaskResumeAll
 846              	.LVL71:
 609:Middlewares/Third_Party/FreeRTOS/Source/event_groups.c **** }
 847              		.loc 1 609 2 is_stmt 1 view .LVU293
 609:Middlewares/Third_Party/FreeRTOS/Source/event_groups.c **** }
 848              		.loc 1 609 2 is_stmt 0 view .LVU294
 849              	.LBE112:
 850              	.LBE111:
 610:Middlewares/Third_Party/FreeRTOS/Source/event_groups.c **** /*-----------------------------------------------------------*/
 851              		.loc 1 610 1 view .LVU295
 852 007c 2868     		ldr	r0, [r5]
 853 007e BDE8F081 		pop	{r4, r5, r6, r7, r8, pc}
 854              	.LVL72:
 855              	.L70:
 856              	.LCFI5:
 857              		.cfi_def_cfa_offset 0
 858              		.cfi_restore 4
 859              		.cfi_restore 5
ARM GAS  /tmp/ccM7u9RP.s 			page 36


 860              		.cfi_restore 6
 861              		.cfi_restore 7
 862              		.cfi_restore 8
 863              		.cfi_restore 14
 530:Middlewares/Third_Party/FreeRTOS/Source/event_groups.c **** 	configASSERT( ( uxBitsToSet & eventEVENT_BITS_CONTROL_BYTES ) == 0 );
 864              		.loc 1 530 2 is_stmt 1 view .LVU296
 865              	.LBB113:
 866              	.LBI113:
 191:Middlewares/Third_Party/FreeRTOS/Source/portable/GCC/ARM_CM4F/portmacro.h **** {
 867              		.loc 2 191 30 view .LVU297
 868              	.LBB114:
 193:Middlewares/Third_Party/FreeRTOS/Source/portable/GCC/ARM_CM4F/portmacro.h **** 
 869              		.loc 2 193 1 view .LVU298
 195:Middlewares/Third_Party/FreeRTOS/Source/portable/GCC/ARM_CM4F/portmacro.h **** 	(
 870              		.loc 2 195 2 view .LVU299
 871              		.syntax unified
 872              	@ 195 "Middlewares/Third_Party/FreeRTOS/Source/portable/GCC/ARM_CM4F/portmacro.h" 1
 873 0082 4FF05003 			mov r3, #80												
 874 0086 83F31188 		msr basepri, r3											
 875 008a BFF36F8F 		isb														
 876 008e BFF34F8F 		dsb														
 877              	
 878              	@ 0 "" 2
 879              	.LVL73:
 880              		.thumb
 881              		.syntax unified
 882              	.L54:
 195:Middlewares/Third_Party/FreeRTOS/Source/portable/GCC/ARM_CM4F/portmacro.h **** 	(
 883              		.loc 2 195 2 is_stmt 0 view .LVU300
 884              	.LBE114:
 885              	.LBE113:
 530:Middlewares/Third_Party/FreeRTOS/Source/event_groups.c **** 	configASSERT( ( uxBitsToSet & eventEVENT_BITS_CONTROL_BYTES ) == 0 );
 886              		.loc 1 530 2 is_stmt 1 discriminator 1 view .LVU301
 530:Middlewares/Third_Party/FreeRTOS/Source/event_groups.c **** 	configASSERT( ( uxBitsToSet & eventEVENT_BITS_CONTROL_BYTES ) == 0 );
 887              		.loc 1 530 2 discriminator 1 view .LVU302
 530:Middlewares/Third_Party/FreeRTOS/Source/event_groups.c **** 	configASSERT( ( uxBitsToSet & eventEVENT_BITS_CONTROL_BYTES ) == 0 );
 888              		.loc 1 530 2 discriminator 1 view .LVU303
 530:Middlewares/Third_Party/FreeRTOS/Source/event_groups.c **** 	configASSERT( ( uxBitsToSet & eventEVENT_BITS_CONTROL_BYTES ) == 0 );
 889              		.loc 1 530 2 discriminator 1 view .LVU304
 530:Middlewares/Third_Party/FreeRTOS/Source/event_groups.c **** 	configASSERT( ( uxBitsToSet & eventEVENT_BITS_CONTROL_BYTES ) == 0 );
 890              		.loc 1 530 2 discriminator 1 view .LVU305
 530:Middlewares/Third_Party/FreeRTOS/Source/event_groups.c **** 	configASSERT( ( uxBitsToSet & eventEVENT_BITS_CONTROL_BYTES ) == 0 );
 891              		.loc 1 530 2 discriminator 1 view .LVU306
 892 0092 FEE7     		b	.L54
 893              		.cfi_endproc
 894              	.LFE10:
 896              		.section	.text.xEventGroupSync,"ax",%progbits
 897              		.align	1
 898              		.p2align 2,,3
 899              		.global	xEventGroupSync
 900              		.syntax unified
 901              		.thumb
 902              		.thumb_func
 903              		.fpu fpv4-sp-d16
 905              	xEventGroupSync:
 906              	.LVL74:
 907              	.LFB6:
ARM GAS  /tmp/ccM7u9RP.s 			page 37


 192:Middlewares/Third_Party/FreeRTOS/Source/event_groups.c **** EventBits_t uxOriginalBitValue, uxReturn;
 908              		.loc 1 192 1 view -0
 909              		.cfi_startproc
 910              		@ args = 0, pretend = 0, frame = 0
 911              		@ frame_needed = 0, uses_anonymous_args = 0
 193:Middlewares/Third_Party/FreeRTOS/Source/event_groups.c **** EventGroup_t *pxEventBits = xEventGroup;
 912              		.loc 1 193 1 view .LVU308
 194:Middlewares/Third_Party/FreeRTOS/Source/event_groups.c **** BaseType_t xAlreadyYielded;
 913              		.loc 1 194 1 view .LVU309
 195:Middlewares/Third_Party/FreeRTOS/Source/event_groups.c **** BaseType_t xTimeoutOccurred = pdFALSE;
 914              		.loc 1 195 1 view .LVU310
 196:Middlewares/Third_Party/FreeRTOS/Source/event_groups.c **** 
 915              		.loc 1 196 1 view .LVU311
 198:Middlewares/Third_Party/FreeRTOS/Source/event_groups.c **** 	configASSERT( uxBitsToWaitFor != 0 );
 916              		.loc 1 198 2 view .LVU312
 917 0000 12F07F4F 		tst	r2, #-16777216
 918 0004 08D0     		beq	.L74
 198:Middlewares/Third_Party/FreeRTOS/Source/event_groups.c **** 	configASSERT( uxBitsToWaitFor != 0 );
 919              		.loc 1 198 2 view .LVU313
 920              	.LBB115:
 921              	.LBI115:
 191:Middlewares/Third_Party/FreeRTOS/Source/portable/GCC/ARM_CM4F/portmacro.h **** {
 922              		.loc 2 191 30 view .LVU314
 923              	.LBB116:
 193:Middlewares/Third_Party/FreeRTOS/Source/portable/GCC/ARM_CM4F/portmacro.h **** 
 924              		.loc 2 193 1 view .LVU315
 195:Middlewares/Third_Party/FreeRTOS/Source/portable/GCC/ARM_CM4F/portmacro.h **** 	(
 925              		.loc 2 195 2 view .LVU316
 926              		.syntax unified
 927              	@ 195 "Middlewares/Third_Party/FreeRTOS/Source/portable/GCC/ARM_CM4F/portmacro.h" 1
 928 0006 4FF05003 			mov r3, #80												
 929 000a 83F31188 		msr basepri, r3											
 930 000e BFF36F8F 		isb														
 931 0012 BFF34F8F 		dsb														
 932              	
 933              	@ 0 "" 2
 934              	.LVL75:
 935              		.thumb
 936              		.syntax unified
 937              	.L75:
 195:Middlewares/Third_Party/FreeRTOS/Source/portable/GCC/ARM_CM4F/portmacro.h **** 	(
 938              		.loc 2 195 2 is_stmt 0 view .LVU317
 939              	.LBE116:
 940              	.LBE115:
 198:Middlewares/Third_Party/FreeRTOS/Source/event_groups.c **** 	configASSERT( uxBitsToWaitFor != 0 );
 941              		.loc 1 198 2 is_stmt 1 discriminator 1 view .LVU318
 198:Middlewares/Third_Party/FreeRTOS/Source/event_groups.c **** 	configASSERT( uxBitsToWaitFor != 0 );
 942              		.loc 1 198 2 discriminator 1 view .LVU319
 198:Middlewares/Third_Party/FreeRTOS/Source/event_groups.c **** 	configASSERT( uxBitsToWaitFor != 0 );
 943              		.loc 1 198 2 discriminator 1 view .LVU320
 198:Middlewares/Third_Party/FreeRTOS/Source/event_groups.c **** 	configASSERT( uxBitsToWaitFor != 0 );
 944              		.loc 1 198 2 discriminator 1 view .LVU321
 198:Middlewares/Third_Party/FreeRTOS/Source/event_groups.c **** 	configASSERT( uxBitsToWaitFor != 0 );
 945              		.loc 1 198 2 discriminator 1 view .LVU322
 198:Middlewares/Third_Party/FreeRTOS/Source/event_groups.c **** 	configASSERT( uxBitsToWaitFor != 0 );
 946              		.loc 1 198 2 discriminator 1 view .LVU323
 947 0016 FEE7     		b	.L75
ARM GAS  /tmp/ccM7u9RP.s 			page 38


 948              	.LVL76:
 949              	.L74:
 198:Middlewares/Third_Party/FreeRTOS/Source/event_groups.c **** 	configASSERT( uxBitsToWaitFor != 0 );
 950              		.loc 1 198 74 discriminator 2 view .LVU324
 199:Middlewares/Third_Party/FreeRTOS/Source/event_groups.c **** 	#if ( ( INCLUDE_xTaskGetSchedulerState == 1 ) || ( configUSE_TIMERS == 1 ) )
 951              		.loc 1 199 2 discriminator 2 view .LVU325
 192:Middlewares/Third_Party/FreeRTOS/Source/event_groups.c **** EventBits_t uxOriginalBitValue, uxReturn;
 952              		.loc 1 192 1 is_stmt 0 discriminator 2 view .LVU326
 953 0018 2DE9F041 		push	{r4, r5, r6, r7, r8, lr}
 954              	.LCFI6:
 955              		.cfi_def_cfa_offset 24
 956              		.cfi_offset 4, -24
 957              		.cfi_offset 5, -20
 958              		.cfi_offset 6, -16
 959              		.cfi_offset 7, -12
 960              		.cfi_offset 8, -8
 961              		.cfi_offset 14, -4
 962 001c 1446     		mov	r4, r2
 199:Middlewares/Third_Party/FreeRTOS/Source/event_groups.c **** 	#if ( ( INCLUDE_xTaskGetSchedulerState == 1 ) || ( configUSE_TIMERS == 1 ) )
 963              		.loc 1 199 2 discriminator 2 view .LVU327
 964 001e 42B9     		cbnz	r2, .L76
 199:Middlewares/Third_Party/FreeRTOS/Source/event_groups.c **** 	#if ( ( INCLUDE_xTaskGetSchedulerState == 1 ) || ( configUSE_TIMERS == 1 ) )
 965              		.loc 1 199 2 is_stmt 1 view .LVU328
 966              	.LBB117:
 967              	.LBI117:
 191:Middlewares/Third_Party/FreeRTOS/Source/portable/GCC/ARM_CM4F/portmacro.h **** {
 968              		.loc 2 191 30 view .LVU329
 969              	.LBB118:
 193:Middlewares/Third_Party/FreeRTOS/Source/portable/GCC/ARM_CM4F/portmacro.h **** 
 970              		.loc 2 193 1 view .LVU330
 195:Middlewares/Third_Party/FreeRTOS/Source/portable/GCC/ARM_CM4F/portmacro.h **** 	(
 971              		.loc 2 195 2 view .LVU331
 972              		.syntax unified
 973              	@ 195 "Middlewares/Third_Party/FreeRTOS/Source/portable/GCC/ARM_CM4F/portmacro.h" 1
 974 0020 4FF05003 			mov r3, #80												
 975 0024 83F31188 		msr basepri, r3											
 976 0028 BFF36F8F 		isb														
 977 002c BFF34F8F 		dsb														
 978              	
 979              	@ 0 "" 2
 980              	.LVL77:
 981              		.thumb
 982              		.syntax unified
 983              	.L77:
 195:Middlewares/Third_Party/FreeRTOS/Source/portable/GCC/ARM_CM4F/portmacro.h **** 	(
 984              		.loc 2 195 2 is_stmt 0 view .LVU332
 985              	.LBE118:
 986              	.LBE117:
 199:Middlewares/Third_Party/FreeRTOS/Source/event_groups.c **** 	#if ( ( INCLUDE_xTaskGetSchedulerState == 1 ) || ( configUSE_TIMERS == 1 ) )
 987              		.loc 1 199 2 is_stmt 1 discriminator 2 view .LVU333
 199:Middlewares/Third_Party/FreeRTOS/Source/event_groups.c **** 	#if ( ( INCLUDE_xTaskGetSchedulerState == 1 ) || ( configUSE_TIMERS == 1 ) )
 988              		.loc 1 199 2 discriminator 2 view .LVU334
 199:Middlewares/Third_Party/FreeRTOS/Source/event_groups.c **** 	#if ( ( INCLUDE_xTaskGetSchedulerState == 1 ) || ( configUSE_TIMERS == 1 ) )
 989              		.loc 1 199 2 discriminator 2 view .LVU335
 199:Middlewares/Third_Party/FreeRTOS/Source/event_groups.c **** 	#if ( ( INCLUDE_xTaskGetSchedulerState == 1 ) || ( configUSE_TIMERS == 1 ) )
 990              		.loc 1 199 2 discriminator 2 view .LVU336
 199:Middlewares/Third_Party/FreeRTOS/Source/event_groups.c **** 	#if ( ( INCLUDE_xTaskGetSchedulerState == 1 ) || ( configUSE_TIMERS == 1 ) )
ARM GAS  /tmp/ccM7u9RP.s 			page 39


 991              		.loc 1 199 2 discriminator 2 view .LVU337
 199:Middlewares/Third_Party/FreeRTOS/Source/event_groups.c **** 	#if ( ( INCLUDE_xTaskGetSchedulerState == 1 ) || ( configUSE_TIMERS == 1 ) )
 992              		.loc 1 199 2 discriminator 2 view .LVU338
 993 0030 FEE7     		b	.L77
 994              	.LVL78:
 995              	.L76:
 199:Middlewares/Third_Party/FreeRTOS/Source/event_groups.c **** 	#if ( ( INCLUDE_xTaskGetSchedulerState == 1 ) || ( configUSE_TIMERS == 1 ) )
 996              		.loc 1 199 38 discriminator 2 view .LVU339
 202:Middlewares/Third_Party/FreeRTOS/Source/event_groups.c **** 	}
 997              		.loc 1 202 3 discriminator 2 view .LVU340
 998 0032 0746     		mov	r7, r0
 999 0034 0E46     		mov	r6, r1
 1000 0036 1D46     		mov	r5, r3
 1001 0038 FFF7FEFF 		bl	xTaskGetSchedulerState
 1002              	.LVL79:
 202:Middlewares/Third_Party/FreeRTOS/Source/event_groups.c **** 	}
 1003              		.loc 1 202 3 is_stmt 0 discriminator 2 view .LVU341
 1004 003c E0B9     		cbnz	r0, .L78
 202:Middlewares/Third_Party/FreeRTOS/Source/event_groups.c **** 	}
 1005              		.loc 1 202 3 discriminator 2 view .LVU342
 1006 003e 45B1     		cbz	r5, .L79
 202:Middlewares/Third_Party/FreeRTOS/Source/event_groups.c **** 	}
 1007              		.loc 1 202 3 is_stmt 1 view .LVU343
 1008              	.LBB119:
 1009              	.LBI119:
 191:Middlewares/Third_Party/FreeRTOS/Source/portable/GCC/ARM_CM4F/portmacro.h **** {
 1010              		.loc 2 191 30 view .LVU344
 1011              	.LBB120:
 193:Middlewares/Third_Party/FreeRTOS/Source/portable/GCC/ARM_CM4F/portmacro.h **** 
 1012              		.loc 2 193 1 view .LVU345
 195:Middlewares/Third_Party/FreeRTOS/Source/portable/GCC/ARM_CM4F/portmacro.h **** 	(
 1013              		.loc 2 195 2 view .LVU346
 1014              		.syntax unified
 1015              	@ 195 "Middlewares/Third_Party/FreeRTOS/Source/portable/GCC/ARM_CM4F/portmacro.h" 1
 1016 0040 4FF05003 			mov r3, #80												
 1017 0044 83F31188 		msr basepri, r3											
 1018 0048 BFF36F8F 		isb														
 1019 004c BFF34F8F 		dsb														
 1020              	
 1021              	@ 0 "" 2
 1022              	.LVL80:
 1023              		.thumb
 1024              		.syntax unified
 1025              	.L80:
 195:Middlewares/Third_Party/FreeRTOS/Source/portable/GCC/ARM_CM4F/portmacro.h **** 	(
 1026              		.loc 2 195 2 is_stmt 0 view .LVU347
 1027              	.LBE120:
 1028              	.LBE119:
 202:Middlewares/Third_Party/FreeRTOS/Source/event_groups.c **** 	}
 1029              		.loc 1 202 3 is_stmt 1 discriminator 3 view .LVU348
 202:Middlewares/Third_Party/FreeRTOS/Source/event_groups.c **** 	}
 1030              		.loc 1 202 3 discriminator 3 view .LVU349
 202:Middlewares/Third_Party/FreeRTOS/Source/event_groups.c **** 	}
 1031              		.loc 1 202 3 discriminator 3 view .LVU350
 202:Middlewares/Third_Party/FreeRTOS/Source/event_groups.c **** 	}
 1032              		.loc 1 202 3 discriminator 3 view .LVU351
 202:Middlewares/Third_Party/FreeRTOS/Source/event_groups.c **** 	}
ARM GAS  /tmp/ccM7u9RP.s 			page 40


 1033              		.loc 1 202 3 discriminator 3 view .LVU352
 202:Middlewares/Third_Party/FreeRTOS/Source/event_groups.c **** 	}
 1034              		.loc 1 202 3 discriminator 3 view .LVU353
 1035 0050 FEE7     		b	.L80
 1036              	.L79:
 202:Middlewares/Third_Party/FreeRTOS/Source/event_groups.c **** 	}
 1037              		.loc 1 202 104 view .LVU354
 206:Middlewares/Third_Party/FreeRTOS/Source/event_groups.c **** 	{
 1038              		.loc 1 206 2 view .LVU355
 1039 0052 FFF7FEFF 		bl	vTaskSuspendAll
 1040              	.LVL81:
 208:Middlewares/Third_Party/FreeRTOS/Source/event_groups.c **** 
 1041              		.loc 1 208 3 view .LVU356
 208:Middlewares/Third_Party/FreeRTOS/Source/event_groups.c **** 
 1042              		.loc 1 208 22 is_stmt 0 view .LVU357
 1043 0056 3B68     		ldr	r3, [r7]
 1044              	.LVL82:
 210:Middlewares/Third_Party/FreeRTOS/Source/event_groups.c **** 
 1045              		.loc 1 210 3 is_stmt 1 view .LVU358
 210:Middlewares/Third_Party/FreeRTOS/Source/event_groups.c **** 
 1046              		.loc 1 210 12 is_stmt 0 view .LVU359
 1047 0058 3146     		mov	r1, r6
 212:Middlewares/Third_Party/FreeRTOS/Source/event_groups.c **** 		{
 1048              		.loc 1 212 30 view .LVU360
 1049 005a 46EA0308 		orr	r8, r6, r3
 210:Middlewares/Third_Party/FreeRTOS/Source/event_groups.c **** 
 1050              		.loc 1 210 12 view .LVU361
 1051 005e 3846     		mov	r0, r7
 1052 0060 FFF7FEFF 		bl	xEventGroupSetBits
 1053              	.LVL83:
 212:Middlewares/Third_Party/FreeRTOS/Source/event_groups.c **** 		{
 1054              		.loc 1 212 3 is_stmt 1 view .LVU362
 212:Middlewares/Third_Party/FreeRTOS/Source/event_groups.c **** 		{
 1055              		.loc 1 212 5 is_stmt 0 view .LVU363
 1056 0064 34EA0803 		bics	r3, r4, r8
 1057 0068 2FD0     		beq	.L88
 1058              	.L83:
 244:Middlewares/Third_Party/FreeRTOS/Source/event_groups.c **** 				xTimeoutOccurred = pdTRUE;
 1059              		.loc 1 244 5 is_stmt 1 view .LVU364
 244:Middlewares/Third_Party/FreeRTOS/Source/event_groups.c **** 				xTimeoutOccurred = pdTRUE;
 1060              		.loc 1 244 14 is_stmt 0 view .LVU365
 1061 006a D7F80080 		ldr	r8, [r7]
 1062              	.LVL84:
 245:Middlewares/Third_Party/FreeRTOS/Source/event_groups.c **** 			}
 1063              		.loc 1 245 5 is_stmt 1 view .LVU366
 249:Middlewares/Third_Party/FreeRTOS/Source/event_groups.c **** 
 1064              		.loc 1 249 2 view .LVU367
 249:Middlewares/Third_Party/FreeRTOS/Source/event_groups.c **** 
 1065              		.loc 1 249 20 is_stmt 0 view .LVU368
 1066 006e FFF7FEFF 		bl	xTaskResumeAll
 1067              	.LVL85:
 251:Middlewares/Third_Party/FreeRTOS/Source/event_groups.c **** 	{
 1068              		.loc 1 251 2 is_stmt 1 view .LVU369
 1069              	.L73:
 308:Middlewares/Third_Party/FreeRTOS/Source/event_groups.c **** /*-----------------------------------------------------------*/
 1070              		.loc 1 308 1 is_stmt 0 view .LVU370
 1071 0072 4046     		mov	r0, r8
ARM GAS  /tmp/ccM7u9RP.s 			page 41


 1072 0074 BDE8F081 		pop	{r4, r5, r6, r7, r8, pc}
 1073              	.LVL86:
 1074              	.L78:
 202:Middlewares/Third_Party/FreeRTOS/Source/event_groups.c **** 	}
 1075              		.loc 1 202 104 is_stmt 1 discriminator 8 view .LVU371
 206:Middlewares/Third_Party/FreeRTOS/Source/event_groups.c **** 	{
 1076              		.loc 1 206 2 discriminator 8 view .LVU372
 1077 0078 FFF7FEFF 		bl	vTaskSuspendAll
 1078              	.LVL87:
 208:Middlewares/Third_Party/FreeRTOS/Source/event_groups.c **** 
 1079              		.loc 1 208 3 discriminator 8 view .LVU373
 208:Middlewares/Third_Party/FreeRTOS/Source/event_groups.c **** 
 1080              		.loc 1 208 22 is_stmt 0 discriminator 8 view .LVU374
 1081 007c 3B68     		ldr	r3, [r7]
 1082              	.LVL88:
 210:Middlewares/Third_Party/FreeRTOS/Source/event_groups.c **** 
 1083              		.loc 1 210 3 is_stmt 1 discriminator 8 view .LVU375
 210:Middlewares/Third_Party/FreeRTOS/Source/event_groups.c **** 
 1084              		.loc 1 210 12 is_stmt 0 discriminator 8 view .LVU376
 1085 007e 3146     		mov	r1, r6
 212:Middlewares/Third_Party/FreeRTOS/Source/event_groups.c **** 		{
 1086              		.loc 1 212 30 discriminator 8 view .LVU377
 1087 0080 43EA0608 		orr	r8, r3, r6
 210:Middlewares/Third_Party/FreeRTOS/Source/event_groups.c **** 
 1088              		.loc 1 210 12 discriminator 8 view .LVU378
 1089 0084 3846     		mov	r0, r7
 1090 0086 FFF7FEFF 		bl	xEventGroupSetBits
 1091              	.LVL89:
 212:Middlewares/Third_Party/FreeRTOS/Source/event_groups.c **** 		{
 1092              		.loc 1 212 3 is_stmt 1 discriminator 8 view .LVU379
 212:Middlewares/Third_Party/FreeRTOS/Source/event_groups.c **** 		{
 1093              		.loc 1 212 5 is_stmt 0 discriminator 8 view .LVU380
 1094 008a 34EA0803 		bics	r3, r4, r8
 1095 008e 1CD0     		beq	.L88
 225:Middlewares/Third_Party/FreeRTOS/Source/event_groups.c **** 			{
 1096              		.loc 1 225 4 is_stmt 1 view .LVU381
 225:Middlewares/Third_Party/FreeRTOS/Source/event_groups.c **** 			{
 1097              		.loc 1 225 6 is_stmt 0 view .LVU382
 1098 0090 002D     		cmp	r5, #0
 1099 0092 EAD0     		beq	.L83
 227:Middlewares/Third_Party/FreeRTOS/Source/event_groups.c **** 
 1100              		.loc 1 227 77 is_stmt 1 view .LVU383
 232:Middlewares/Third_Party/FreeRTOS/Source/event_groups.c **** 
 1101              		.loc 1 232 5 view .LVU384
 1102 0094 2A46     		mov	r2, r5
 1103 0096 44F0A061 		orr	r1, r4, #83886080
 1104 009a 381D     		adds	r0, r7, #4
 1105 009c FFF7FEFF 		bl	vTaskPlaceOnUnorderedEventList
 1106              	.LVL90:
 238:Middlewares/Third_Party/FreeRTOS/Source/event_groups.c **** 			}
 1107              		.loc 1 238 5 view .LVU385
 249:Middlewares/Third_Party/FreeRTOS/Source/event_groups.c **** 
 1108              		.loc 1 249 2 view .LVU386
 249:Middlewares/Third_Party/FreeRTOS/Source/event_groups.c **** 
 1109              		.loc 1 249 20 is_stmt 0 view .LVU387
 1110 00a0 FFF7FEFF 		bl	xTaskResumeAll
 1111              	.LVL91:
ARM GAS  /tmp/ccM7u9RP.s 			page 42


 251:Middlewares/Third_Party/FreeRTOS/Source/event_groups.c **** 	{
 1112              		.loc 1 251 2 is_stmt 1 view .LVU388
 253:Middlewares/Third_Party/FreeRTOS/Source/event_groups.c **** 		{
 1113              		.loc 1 253 3 view .LVU389
 253:Middlewares/Third_Party/FreeRTOS/Source/event_groups.c **** 		{
 1114              		.loc 1 253 5 is_stmt 0 view .LVU390
 1115 00a4 48B9     		cbnz	r0, .L85
 255:Middlewares/Third_Party/FreeRTOS/Source/event_groups.c **** 		}
 1116              		.loc 1 255 4 is_stmt 1 view .LVU391
 1117 00a6 4FF0E023 		mov	r3, #-536813568
 1118 00aa 4FF08052 		mov	r2, #268435456
 1119 00ae C3F8042D 		str	r2, [r3, #3332]
 255:Middlewares/Third_Party/FreeRTOS/Source/event_groups.c **** 		}
 1120              		.loc 1 255 4 view .LVU392
 1121              		.syntax unified
 1122              	@ 255 "Middlewares/Third_Party/FreeRTOS/Source/event_groups.c" 1
 1123 00b2 BFF34F8F 		dsb
 1124              	@ 0 "" 2
 255:Middlewares/Third_Party/FreeRTOS/Source/event_groups.c **** 		}
 1125              		.loc 1 255 4 view .LVU393
 1126              	@ 255 "Middlewares/Third_Party/FreeRTOS/Source/event_groups.c" 1
 1127 00b6 BFF36F8F 		isb
 1128              	@ 0 "" 2
 255:Middlewares/Third_Party/FreeRTOS/Source/event_groups.c **** 		}
 1129              		.loc 1 255 26 view .LVU394
 1130              		.thumb
 1131              		.syntax unified
 1132              	.L85:
 259:Middlewares/Third_Party/FreeRTOS/Source/event_groups.c **** 		}
 1133              		.loc 1 259 28 view .LVU395
 266:Middlewares/Third_Party/FreeRTOS/Source/event_groups.c **** 
 1134              		.loc 1 266 3 view .LVU396
 266:Middlewares/Third_Party/FreeRTOS/Source/event_groups.c **** 
 1135              		.loc 1 266 14 is_stmt 0 view .LVU397
 1136 00ba FFF7FEFF 		bl	uxTaskResetEventItemValue
 1137              	.LVL92:
 268:Middlewares/Third_Party/FreeRTOS/Source/event_groups.c **** 		{
 1138              		.loc 1 268 5 view .LVU398
 1139 00be 8301     		lsls	r3, r0, #6
 266:Middlewares/Third_Party/FreeRTOS/Source/event_groups.c **** 
 1140              		.loc 1 266 14 view .LVU399
 1141 00c0 0546     		mov	r5, r0
 1142              	.LVL93:
 268:Middlewares/Third_Party/FreeRTOS/Source/event_groups.c **** 		{
 1143              		.loc 1 268 3 is_stmt 1 view .LVU400
 268:Middlewares/Third_Party/FreeRTOS/Source/event_groups.c **** 		{
 1144              		.loc 1 268 5 is_stmt 0 view .LVU401
 1145 00c2 09D5     		bpl	.L94
 1146              	.LVL94:
 1147              	.L86:
 295:Middlewares/Third_Party/FreeRTOS/Source/event_groups.c **** 
 1148              		.loc 1 295 3 is_stmt 1 view .LVU402
 299:Middlewares/Third_Party/FreeRTOS/Source/event_groups.c **** 	}
 1149              		.loc 1 299 3 view .LVU403
 299:Middlewares/Third_Party/FreeRTOS/Source/event_groups.c **** 	}
 1150              		.loc 1 299 12 is_stmt 0 view .LVU404
 1151 00c4 25F07F48 		bic	r8, r5, #-16777216
ARM GAS  /tmp/ccM7u9RP.s 			page 43


 1152              	.LVL95:
 302:Middlewares/Third_Party/FreeRTOS/Source/event_groups.c **** 
 1153              		.loc 1 302 2 is_stmt 1 view .LVU405
 305:Middlewares/Third_Party/FreeRTOS/Source/event_groups.c **** 
 1154              		.loc 1 305 2 view .LVU406
 307:Middlewares/Third_Party/FreeRTOS/Source/event_groups.c **** }
 1155              		.loc 1 307 2 view .LVU407
 307:Middlewares/Third_Party/FreeRTOS/Source/event_groups.c **** }
 1156              		.loc 1 307 9 is_stmt 0 view .LVU408
 1157 00c8 D3E7     		b	.L73
 1158              	.LVL96:
 1159              	.L88:
 215:Middlewares/Third_Party/FreeRTOS/Source/event_groups.c **** 
 1160              		.loc 1 215 4 is_stmt 1 view .LVU409
 219:Middlewares/Third_Party/FreeRTOS/Source/event_groups.c **** 
 1161              		.loc 1 219 4 view .LVU410
 219:Middlewares/Third_Party/FreeRTOS/Source/event_groups.c **** 
 1162              		.loc 1 219 29 is_stmt 0 view .LVU411
 1163 00ca 3B68     		ldr	r3, [r7]
 1164 00cc 23EA0403 		bic	r3, r3, r4
 1165 00d0 3B60     		str	r3, [r7]
 221:Middlewares/Third_Party/FreeRTOS/Source/event_groups.c **** 		}
 1166              		.loc 1 221 4 is_stmt 1 view .LVU412
 1167              	.LVL97:
 249:Middlewares/Third_Party/FreeRTOS/Source/event_groups.c **** 
 1168              		.loc 1 249 2 view .LVU413
 249:Middlewares/Third_Party/FreeRTOS/Source/event_groups.c **** 
 1169              		.loc 1 249 20 is_stmt 0 view .LVU414
 1170 00d2 FFF7FEFF 		bl	xTaskResumeAll
 1171              	.LVL98:
 251:Middlewares/Third_Party/FreeRTOS/Source/event_groups.c **** 	{
 1172              		.loc 1 251 2 is_stmt 1 view .LVU415
 1173 00d6 CCE7     		b	.L73
 1174              	.LVL99:
 1175              	.L94:
 271:Middlewares/Third_Party/FreeRTOS/Source/event_groups.c **** 			{
 1176              		.loc 1 271 4 view .LVU416
 1177 00d8 FFF7FEFF 		bl	vPortEnterCritical
 1178              	.LVL100:
 273:Middlewares/Third_Party/FreeRTOS/Source/event_groups.c **** 
 1179              		.loc 1 273 5 view .LVU417
 273:Middlewares/Third_Party/FreeRTOS/Source/event_groups.c **** 
 1180              		.loc 1 273 14 is_stmt 0 view .LVU418
 1181 00dc 3D68     		ldr	r5, [r7]
 1182              	.LVL101:
 279:Middlewares/Third_Party/FreeRTOS/Source/event_groups.c **** 				{
 1183              		.loc 1 279 5 is_stmt 1 view .LVU419
 281:Middlewares/Third_Party/FreeRTOS/Source/event_groups.c **** 				}
 1184              		.loc 1 281 6 view .LVU420
 279:Middlewares/Third_Party/FreeRTOS/Source/event_groups.c **** 				{
 1185              		.loc 1 279 7 is_stmt 0 view .LVU421
 1186 00de 34EA0503 		bics	r3, r4, r5
 281:Middlewares/Third_Party/FreeRTOS/Source/event_groups.c **** 				}
 1187              		.loc 1 281 31 view .LVU422
 1188 00e2 04BF     		itt	eq
 1189 00e4 25EA0404 		biceq	r4, r5, r4
 1190              	.LVL102:
ARM GAS  /tmp/ccM7u9RP.s 			page 44


 281:Middlewares/Third_Party/FreeRTOS/Source/event_groups.c **** 				}
 1191              		.loc 1 281 31 view .LVU423
 1192 00e8 3C60     		streq	r4, [r7]
 285:Middlewares/Third_Party/FreeRTOS/Source/event_groups.c **** 				}
 1193              		.loc 1 285 30 is_stmt 1 view .LVU424
 288:Middlewares/Third_Party/FreeRTOS/Source/event_groups.c **** 
 1194              		.loc 1 288 4 view .LVU425
 1195 00ea FFF7FEFF 		bl	vPortExitCritical
 1196              	.LVL103:
 290:Middlewares/Third_Party/FreeRTOS/Source/event_groups.c **** 		}
 1197              		.loc 1 290 4 view .LVU426
 290:Middlewares/Third_Party/FreeRTOS/Source/event_groups.c **** 		}
 1198              		.loc 1 290 4 is_stmt 0 view .LVU427
 1199 00ee E9E7     		b	.L86
 1200              		.cfi_endproc
 1201              	.LFE6:
 1203              		.section	.text.vEventGroupDelete,"ax",%progbits
 1204              		.align	1
 1205              		.p2align 2,,3
 1206              		.global	vEventGroupDelete
 1207              		.syntax unified
 1208              		.thumb
 1209              		.thumb_func
 1210              		.fpu fpv4-sp-d16
 1212              	vEventGroupDelete:
 1213              	.LVL104:
 1214              	.LFB11:
 614:Middlewares/Third_Party/FreeRTOS/Source/event_groups.c **** EventGroup_t *pxEventBits = xEventGroup;
 1215              		.loc 1 614 1 is_stmt 1 view -0
 1216              		.cfi_startproc
 1217              		@ args = 0, pretend = 0, frame = 0
 1218              		@ frame_needed = 0, uses_anonymous_args = 0
 615:Middlewares/Third_Party/FreeRTOS/Source/event_groups.c **** const List_t *pxTasksWaitingForBits = &( pxEventBits->xTasksWaitingForBits );
 1219              		.loc 1 615 1 view .LVU429
 614:Middlewares/Third_Party/FreeRTOS/Source/event_groups.c **** EventGroup_t *pxEventBits = xEventGroup;
 1220              		.loc 1 614 1 is_stmt 0 view .LVU430
 1221 0000 38B5     		push	{r3, r4, r5, lr}
 1222              	.LCFI7:
 1223              		.cfi_def_cfa_offset 16
 1224              		.cfi_offset 3, -16
 1225              		.cfi_offset 4, -12
 1226              		.cfi_offset 5, -8
 1227              		.cfi_offset 14, -4
 614:Middlewares/Third_Party/FreeRTOS/Source/event_groups.c **** EventGroup_t *pxEventBits = xEventGroup;
 1228              		.loc 1 614 1 view .LVU431
 1229 0002 0446     		mov	r4, r0
 1230              	.LVL105:
 616:Middlewares/Third_Party/FreeRTOS/Source/event_groups.c **** 
 1231              		.loc 1 616 1 is_stmt 1 view .LVU432
 618:Middlewares/Third_Party/FreeRTOS/Source/event_groups.c **** 	{
 1232              		.loc 1 618 2 view .LVU433
 1233 0004 FFF7FEFF 		bl	vTaskSuspendAll
 1234              	.LVL106:
 620:Middlewares/Third_Party/FreeRTOS/Source/event_groups.c **** 
 1235              		.loc 1 620 41 view .LVU434
 622:Middlewares/Third_Party/FreeRTOS/Source/event_groups.c **** 		{
 1236              		.loc 1 622 3 view .LVU435
ARM GAS  /tmp/ccM7u9RP.s 			page 45


 622:Middlewares/Third_Party/FreeRTOS/Source/event_groups.c **** 		{
 1237              		.loc 1 622 8 view .LVU436
 622:Middlewares/Third_Party/FreeRTOS/Source/event_groups.c **** 		{
 1238              		.loc 1 622 10 is_stmt 0 view .LVU437
 1239 0008 6368     		ldr	r3, [r4, #4]
 626:Middlewares/Third_Party/FreeRTOS/Source/event_groups.c **** 			vTaskRemoveFromUnorderedEventList( pxTasksWaitingForBits->xListEnd.pxNext, eventUNBLOCKED_DUE_TO
 1240              		.loc 1 626 4 view .LVU438
 1241 000a 04F10C05 		add	r5, r4, #12
 622:Middlewares/Third_Party/FreeRTOS/Source/event_groups.c **** 		{
 1242              		.loc 1 622 8 view .LVU439
 1243 000e 23B9     		cbnz	r3, .L99
 1244 0010 11E0     		b	.L100
 1245              	.L97:
 627:Middlewares/Third_Party/FreeRTOS/Source/event_groups.c **** 		}
 1246              		.loc 1 627 4 discriminator 2 view .LVU440
 1247 0012 FFF7FEFF 		bl	vTaskRemoveFromUnorderedEventList
 1248              	.LVL107:
 622:Middlewares/Third_Party/FreeRTOS/Source/event_groups.c **** 		{
 1249              		.loc 1 622 8 is_stmt 1 discriminator 2 view .LVU441
 622:Middlewares/Third_Party/FreeRTOS/Source/event_groups.c **** 		{
 1250              		.loc 1 622 10 is_stmt 0 discriminator 2 view .LVU442
 1251 0016 6368     		ldr	r3, [r4, #4]
 622:Middlewares/Third_Party/FreeRTOS/Source/event_groups.c **** 		{
 1252              		.loc 1 622 8 discriminator 2 view .LVU443
 1253 0018 6BB1     		cbz	r3, .L100
 1254              	.L99:
 626:Middlewares/Third_Party/FreeRTOS/Source/event_groups.c **** 			vTaskRemoveFromUnorderedEventList( pxTasksWaitingForBits->xListEnd.pxNext, eventUNBLOCKED_DUE_TO
 1255              		.loc 1 626 4 is_stmt 1 view .LVU444
 626:Middlewares/Third_Party/FreeRTOS/Source/event_groups.c **** 			vTaskRemoveFromUnorderedEventList( pxTasksWaitingForBits->xListEnd.pxNext, eventUNBLOCKED_DUE_TO
 1256              		.loc 1 626 121 view .LVU445
 627:Middlewares/Third_Party/FreeRTOS/Source/event_groups.c **** 		}
 1257              		.loc 1 627 4 view .LVU446
 626:Middlewares/Third_Party/FreeRTOS/Source/event_groups.c **** 			vTaskRemoveFromUnorderedEventList( pxTasksWaitingForBits->xListEnd.pxNext, eventUNBLOCKED_DUE_TO
 1258              		.loc 1 626 4 is_stmt 0 view .LVU447
 1259 001a 2069     		ldr	r0, [r4, #16]
 1260 001c A842     		cmp	r0, r5
 627:Middlewares/Third_Party/FreeRTOS/Source/event_groups.c **** 		}
 1261              		.loc 1 627 4 view .LVU448
 1262 001e 4FF00071 		mov	r1, #33554432
 626:Middlewares/Third_Party/FreeRTOS/Source/event_groups.c **** 			vTaskRemoveFromUnorderedEventList( pxTasksWaitingForBits->xListEnd.pxNext, eventUNBLOCKED_DUE_TO
 1263              		.loc 1 626 4 view .LVU449
 1264 0022 F6D1     		bne	.L97
 626:Middlewares/Third_Party/FreeRTOS/Source/event_groups.c **** 			vTaskRemoveFromUnorderedEventList( pxTasksWaitingForBits->xListEnd.pxNext, eventUNBLOCKED_DUE_TO
 1265              		.loc 1 626 4 is_stmt 1 view .LVU450
 1266              	.LBB121:
 1267              	.LBI121:
 191:Middlewares/Third_Party/FreeRTOS/Source/portable/GCC/ARM_CM4F/portmacro.h **** {
 1268              		.loc 2 191 30 view .LVU451
 1269              	.LBB122:
 193:Middlewares/Third_Party/FreeRTOS/Source/portable/GCC/ARM_CM4F/portmacro.h **** 
 1270              		.loc 2 193 1 view .LVU452
 195:Middlewares/Third_Party/FreeRTOS/Source/portable/GCC/ARM_CM4F/portmacro.h **** 	(
 1271              		.loc 2 195 2 view .LVU453
 1272              		.syntax unified
 1273              	@ 195 "Middlewares/Third_Party/FreeRTOS/Source/portable/GCC/ARM_CM4F/portmacro.h" 1
 1274 0024 4FF05003 			mov r3, #80												
 1275 0028 83F31188 		msr basepri, r3											
ARM GAS  /tmp/ccM7u9RP.s 			page 46


 1276 002c BFF36F8F 		isb														
 1277 0030 BFF34F8F 		dsb														
 1278              	
 1279              	@ 0 "" 2
 1280              	.LVL108:
 1281              		.thumb
 1282              		.syntax unified
 1283              	.L98:
 195:Middlewares/Third_Party/FreeRTOS/Source/portable/GCC/ARM_CM4F/portmacro.h **** 	(
 1284              		.loc 2 195 2 is_stmt 0 view .LVU454
 1285              	.LBE122:
 1286              	.LBE121:
 626:Middlewares/Third_Party/FreeRTOS/Source/event_groups.c **** 			vTaskRemoveFromUnorderedEventList( pxTasksWaitingForBits->xListEnd.pxNext, eventUNBLOCKED_DUE_TO
 1287              		.loc 1 626 4 is_stmt 1 discriminator 1 view .LVU455
 626:Middlewares/Third_Party/FreeRTOS/Source/event_groups.c **** 			vTaskRemoveFromUnorderedEventList( pxTasksWaitingForBits->xListEnd.pxNext, eventUNBLOCKED_DUE_TO
 1288              		.loc 1 626 4 discriminator 1 view .LVU456
 626:Middlewares/Third_Party/FreeRTOS/Source/event_groups.c **** 			vTaskRemoveFromUnorderedEventList( pxTasksWaitingForBits->xListEnd.pxNext, eventUNBLOCKED_DUE_TO
 1289              		.loc 1 626 4 discriminator 1 view .LVU457
 626:Middlewares/Third_Party/FreeRTOS/Source/event_groups.c **** 			vTaskRemoveFromUnorderedEventList( pxTasksWaitingForBits->xListEnd.pxNext, eventUNBLOCKED_DUE_TO
 1290              		.loc 1 626 4 discriminator 1 view .LVU458
 626:Middlewares/Third_Party/FreeRTOS/Source/event_groups.c **** 			vTaskRemoveFromUnorderedEventList( pxTasksWaitingForBits->xListEnd.pxNext, eventUNBLOCKED_DUE_TO
 1291              		.loc 1 626 4 discriminator 1 view .LVU459
 626:Middlewares/Third_Party/FreeRTOS/Source/event_groups.c **** 			vTaskRemoveFromUnorderedEventList( pxTasksWaitingForBits->xListEnd.pxNext, eventUNBLOCKED_DUE_TO
 1292              		.loc 1 626 4 discriminator 1 view .LVU460
 1293 0034 FEE7     		b	.L98
 1294              	.L100:
 634:Middlewares/Third_Party/FreeRTOS/Source/event_groups.c **** 		}
 1295              		.loc 1 634 4 view .LVU461
 1296 0036 2046     		mov	r0, r4
 1297 0038 FFF7FEFF 		bl	vPortFree
 1298              	.LVL109:
 651:Middlewares/Third_Party/FreeRTOS/Source/event_groups.c **** }
 1299              		.loc 1 651 2 view .LVU462
 652:Middlewares/Third_Party/FreeRTOS/Source/event_groups.c **** /*-----------------------------------------------------------*/
 1300              		.loc 1 652 1 is_stmt 0 view .LVU463
 1301 003c BDE83840 		pop	{r3, r4, r5, lr}
 1302              	.LCFI8:
 1303              		.cfi_restore 14
 1304              		.cfi_restore 5
 1305              		.cfi_restore 4
 1306              		.cfi_restore 3
 1307              		.cfi_def_cfa_offset 0
 1308              	.LVL110:
 651:Middlewares/Third_Party/FreeRTOS/Source/event_groups.c **** }
 1309              		.loc 1 651 11 view .LVU464
 1310 0040 FFF7FEBF 		b	xTaskResumeAll
 1311              	.LVL111:
 1312              		.cfi_endproc
 1313              	.LFE11:
 1315              		.section	.text.vEventGroupSetBitsCallback,"ax",%progbits
 1316              		.align	1
 1317              		.p2align 2,,3
 1318              		.global	vEventGroupSetBitsCallback
 1319              		.syntax unified
 1320              		.thumb
 1321              		.thumb_func
 1322              		.fpu fpv4-sp-d16
ARM GAS  /tmp/ccM7u9RP.s 			page 47


 1324              	vEventGroupSetBitsCallback:
 1325              	.LVL112:
 1326              	.LFB12:
 658:Middlewares/Third_Party/FreeRTOS/Source/event_groups.c **** 	( void ) xEventGroupSetBits( pvEventGroup, ( EventBits_t ) ulBitsToSet ); /*lint !e9079 Can't avoi
 1327              		.loc 1 658 1 is_stmt 1 view -0
 1328              		.cfi_startproc
 1329              		@ args = 0, pretend = 0, frame = 0
 1330              		@ frame_needed = 0, uses_anonymous_args = 0
 659:Middlewares/Third_Party/FreeRTOS/Source/event_groups.c **** }
 1331              		.loc 1 659 2 view .LVU466
 1332              	.LBB135:
 1333              	.LBI135:
 519:Middlewares/Third_Party/FreeRTOS/Source/event_groups.c **** {
 1334              		.loc 1 519 13 view .LVU467
 1335              	.LBB136:
 521:Middlewares/Third_Party/FreeRTOS/Source/event_groups.c **** ListItem_t const *pxListEnd;
 1336              		.loc 1 521 1 view .LVU468
 522:Middlewares/Third_Party/FreeRTOS/Source/event_groups.c **** List_t const * pxList;
 1337              		.loc 1 522 1 view .LVU469
 523:Middlewares/Third_Party/FreeRTOS/Source/event_groups.c **** EventBits_t uxBitsToClear = 0, uxBitsWaitedFor, uxControlBits;
 1338              		.loc 1 523 1 view .LVU470
 524:Middlewares/Third_Party/FreeRTOS/Source/event_groups.c **** EventGroup_t *pxEventBits = xEventGroup;
 1339              		.loc 1 524 1 view .LVU471
 525:Middlewares/Third_Party/FreeRTOS/Source/event_groups.c **** BaseType_t xMatchFound = pdFALSE;
 1340              		.loc 1 525 1 view .LVU472
 526:Middlewares/Third_Party/FreeRTOS/Source/event_groups.c **** 
 1341              		.loc 1 526 1 view .LVU473
 530:Middlewares/Third_Party/FreeRTOS/Source/event_groups.c **** 	configASSERT( ( uxBitsToSet & eventEVENT_BITS_CONTROL_BYTES ) == 0 );
 1342              		.loc 1 530 2 view .LVU474
 1343 0000 0028     		cmp	r0, #0
 1344 0002 3DD0     		beq	.L121
 530:Middlewares/Third_Party/FreeRTOS/Source/event_groups.c **** 	configASSERT( ( uxBitsToSet & eventEVENT_BITS_CONTROL_BYTES ) == 0 );
 1345              		.loc 1 530 29 view .LVU475
 531:Middlewares/Third_Party/FreeRTOS/Source/event_groups.c **** 
 1346              		.loc 1 531 2 view .LVU476
 1347              	.LBE136:
 1348              	.LBE135:
 658:Middlewares/Third_Party/FreeRTOS/Source/event_groups.c **** 	( void ) xEventGroupSetBits( pvEventGroup, ( EventBits_t ) ulBitsToSet ); /*lint !e9079 Can't avoi
 1349              		.loc 1 658 1 is_stmt 0 view .LVU477
 1350 0004 2DE9F041 		push	{r4, r5, r6, r7, r8, lr}
 1351              	.LCFI9:
 1352              		.cfi_def_cfa_offset 24
 1353              		.cfi_offset 4, -24
 1354              		.cfi_offset 5, -20
 1355              		.cfi_offset 6, -16
 1356              		.cfi_offset 7, -12
 1357              		.cfi_offset 8, -8
 1358              		.cfi_offset 14, -4
 1359              	.LBB147:
 1360              	.LBB145:
 531:Middlewares/Third_Party/FreeRTOS/Source/event_groups.c **** 
 1361              		.loc 1 531 2 view .LVU478
 1362 0008 11F07F46 		ands	r6, r1, #-16777216
 1363 000c 8846     		mov	r8, r1
 1364 000e 08D0     		beq	.L106
 531:Middlewares/Third_Party/FreeRTOS/Source/event_groups.c **** 
 1365              		.loc 1 531 2 is_stmt 1 view .LVU479
ARM GAS  /tmp/ccM7u9RP.s 			page 48


 1366              	.LBB137:
 1367              	.LBI137:
 191:Middlewares/Third_Party/FreeRTOS/Source/portable/GCC/ARM_CM4F/portmacro.h **** {
 1368              		.loc 2 191 30 view .LVU480
 1369              	.LBB138:
 193:Middlewares/Third_Party/FreeRTOS/Source/portable/GCC/ARM_CM4F/portmacro.h **** 
 1370              		.loc 2 193 1 view .LVU481
 195:Middlewares/Third_Party/FreeRTOS/Source/portable/GCC/ARM_CM4F/portmacro.h **** 	(
 1371              		.loc 2 195 2 view .LVU482
 1372              		.syntax unified
 1373              	@ 195 "Middlewares/Third_Party/FreeRTOS/Source/portable/GCC/ARM_CM4F/portmacro.h" 1
 1374 0010 4FF05003 			mov r3, #80												
 1375 0014 83F31188 		msr basepri, r3											
 1376 0018 BFF36F8F 		isb														
 1377 001c BFF34F8F 		dsb														
 1378              	
 1379              	@ 0 "" 2
 1380              	.LVL113:
 1381              		.thumb
 1382              		.syntax unified
 1383              	.L107:
 195:Middlewares/Third_Party/FreeRTOS/Source/portable/GCC/ARM_CM4F/portmacro.h **** 	(
 1384              		.loc 2 195 2 is_stmt 0 view .LVU483
 1385              	.LBE138:
 1386              	.LBE137:
 531:Middlewares/Third_Party/FreeRTOS/Source/event_groups.c **** 
 1387              		.loc 1 531 2 is_stmt 1 view .LVU484
 531:Middlewares/Third_Party/FreeRTOS/Source/event_groups.c **** 
 1388              		.loc 1 531 2 view .LVU485
 531:Middlewares/Third_Party/FreeRTOS/Source/event_groups.c **** 
 1389              		.loc 1 531 2 view .LVU486
 531:Middlewares/Third_Party/FreeRTOS/Source/event_groups.c **** 
 1390              		.loc 1 531 2 view .LVU487
 531:Middlewares/Third_Party/FreeRTOS/Source/event_groups.c **** 
 1391              		.loc 1 531 2 view .LVU488
 531:Middlewares/Third_Party/FreeRTOS/Source/event_groups.c **** 
 1392              		.loc 1 531 2 view .LVU489
 1393 0020 FEE7     		b	.L107
 1394              	.L106:
 1395 0022 0546     		mov	r5, r0
 1396              	.LVL114:
 1397              	.LBB139:
 1398              	.LBI139:
 519:Middlewares/Third_Party/FreeRTOS/Source/event_groups.c **** {
 1399              		.loc 1 519 13 view .LVU490
 1400              	.LBB140:
 531:Middlewares/Third_Party/FreeRTOS/Source/event_groups.c **** 
 1401              		.loc 1 531 70 view .LVU491
 533:Middlewares/Third_Party/FreeRTOS/Source/event_groups.c **** 	pxListEnd = listGET_END_MARKER( pxList ); /*lint !e826 !e740 !e9087 The mini list structure is use
 1402              		.loc 1 533 2 view .LVU492
 534:Middlewares/Third_Party/FreeRTOS/Source/event_groups.c **** 	vTaskSuspendAll();
 1403              		.loc 1 534 2 view .LVU493
 535:Middlewares/Third_Party/FreeRTOS/Source/event_groups.c **** 	{
 1404              		.loc 1 535 2 is_stmt 0 view .LVU494
 1405 0024 FFF7FEFF 		bl	vTaskSuspendAll
 1406              	.LVL115:
 542:Middlewares/Third_Party/FreeRTOS/Source/event_groups.c **** 
ARM GAS  /tmp/ccM7u9RP.s 			page 49


 1407              		.loc 1 542 28 view .LVU495
 1408 0028 2B68     		ldr	r3, [r5]
 539:Middlewares/Third_Party/FreeRTOS/Source/event_groups.c **** 
 1409              		.loc 1 539 14 view .LVU496
 1410 002a 2C69     		ldr	r4, [r5, #16]
 534:Middlewares/Third_Party/FreeRTOS/Source/event_groups.c **** 	vTaskSuspendAll();
 1411              		.loc 1 534 12 view .LVU497
 1412 002c 05F10C07 		add	r7, r5, #12
 1413              	.LVL116:
 535:Middlewares/Third_Party/FreeRTOS/Source/event_groups.c **** 	{
 1414              		.loc 1 535 2 is_stmt 1 view .LVU498
 537:Middlewares/Third_Party/FreeRTOS/Source/event_groups.c **** 
 1415              		.loc 1 537 56 view .LVU499
 539:Middlewares/Third_Party/FreeRTOS/Source/event_groups.c **** 
 1416              		.loc 1 539 3 view .LVU500
 542:Middlewares/Third_Party/FreeRTOS/Source/event_groups.c **** 
 1417              		.loc 1 542 3 view .LVU501
 542:Middlewares/Third_Party/FreeRTOS/Source/event_groups.c **** 
 1418              		.loc 1 542 28 is_stmt 0 view .LVU502
 1419 0030 48EA0303 		orr	r3, r8, r3
 545:Middlewares/Third_Party/FreeRTOS/Source/event_groups.c **** 		{
 1420              		.loc 1 545 8 view .LVU503
 1421 0034 A742     		cmp	r7, r4
 542:Middlewares/Third_Party/FreeRTOS/Source/event_groups.c **** 
 1422              		.loc 1 542 28 view .LVU504
 1423 0036 2B60     		str	r3, [r5]
 545:Middlewares/Third_Party/FreeRTOS/Source/event_groups.c **** 		{
 1424              		.loc 1 545 3 is_stmt 1 view .LVU505
 1425              	.LVL117:
 545:Middlewares/Third_Party/FreeRTOS/Source/event_groups.c **** 		{
 1426              		.loc 1 545 8 view .LVU506
 1427 0038 0CD1     		bne	.L113
 545:Middlewares/Third_Party/FreeRTOS/Source/event_groups.c **** 		{
 1428              		.loc 1 545 8 is_stmt 0 view .LVU507
 1429 003a 1CE0     		b	.L108
 1430              	.LVL118:
 1431              	.L123:
 558:Middlewares/Third_Party/FreeRTOS/Source/event_groups.c **** 				{
 1432              		.loc 1 558 7 view .LVU508
 1433 003c 13EA0C0F 		tst	r3, ip
 1434 0040 06D0     		beq	.L111
 1435              	.L110:
 582:Middlewares/Third_Party/FreeRTOS/Source/event_groups.c **** 				}
 1436              		.loc 1 582 6 is_stmt 1 view .LVU509
 580:Middlewares/Third_Party/FreeRTOS/Source/event_groups.c **** 				{
 1437              		.loc 1 580 7 is_stmt 0 view .LVU510
 1438 0042 D301     		lsls	r3, r2, #7
 582:Middlewares/Third_Party/FreeRTOS/Source/event_groups.c **** 				}
 1439              		.loc 1 582 20 view .LVU511
 1440 0044 48BF     		it	mi
 1441 0046 46EA0C06 		orrmi	r6, r6, ip
 1442              	.LVL119:
 586:Middlewares/Third_Party/FreeRTOS/Source/event_groups.c **** 				}
 1443              		.loc 1 586 30 is_stmt 1 view .LVU512
 594:Middlewares/Third_Party/FreeRTOS/Source/event_groups.c **** 			}
 1444              		.loc 1 594 5 view .LVU513
 1445 004a FFF7FEFF 		bl	vTaskRemoveFromUnorderedEventList
ARM GAS  /tmp/ccM7u9RP.s 			page 50


 1446              	.LVL120:
 605:Middlewares/Third_Party/FreeRTOS/Source/event_groups.c **** 	}
 1447              		.loc 1 605 28 is_stmt 0 view .LVU514
 1448 004e 2B68     		ldr	r3, [r5]
 1449              	.L111:
 1450              	.LVL121:
 545:Middlewares/Third_Party/FreeRTOS/Source/event_groups.c **** 		{
 1451              		.loc 1 545 8 is_stmt 1 view .LVU515
 1452 0050 A742     		cmp	r7, r4
 1453 0052 0ED0     		beq	.L122
 1454              	.LVL122:
 1455              	.L113:
 547:Middlewares/Third_Party/FreeRTOS/Source/event_groups.c **** 			uxBitsWaitedFor = listGET_LIST_ITEM_VALUE( pxListItem );
 1456              		.loc 1 547 4 view .LVU516
 558:Middlewares/Third_Party/FreeRTOS/Source/event_groups.c **** 				{
 1457              		.loc 1 558 5 view .LVU517
 567:Middlewares/Third_Party/FreeRTOS/Source/event_groups.c **** 			{
 1458              		.loc 1 567 9 view .LVU518
 580:Middlewares/Third_Party/FreeRTOS/Source/event_groups.c **** 				{
 1459              		.loc 1 580 5 view .LVU519
 1460 0054 2046     		mov	r0, r4
 594:Middlewares/Third_Party/FreeRTOS/Source/event_groups.c **** 			}
 1461              		.loc 1 594 5 is_stmt 0 view .LVU520
 1462 0056 43F00071 		orr	r1, r3, #33554432
 548:Middlewares/Third_Party/FreeRTOS/Source/event_groups.c **** 			xMatchFound = pdFALSE;
 1463              		.loc 1 548 20 view .LVU521
 1464 005a 0268     		ldr	r2, [r0]
 547:Middlewares/Third_Party/FreeRTOS/Source/event_groups.c **** 			uxBitsWaitedFor = listGET_LIST_ITEM_VALUE( pxListItem );
 1465              		.loc 1 547 11 view .LVU522
 1466 005c 6468     		ldr	r4, [r4, #4]
 1467              	.LVL123:
 548:Middlewares/Third_Party/FreeRTOS/Source/event_groups.c **** 			xMatchFound = pdFALSE;
 1468              		.loc 1 548 4 is_stmt 1 view .LVU523
 549:Middlewares/Third_Party/FreeRTOS/Source/event_groups.c **** 
 1469              		.loc 1 549 4 view .LVU524
 552:Middlewares/Third_Party/FreeRTOS/Source/event_groups.c **** 			uxBitsWaitedFor &= ~eventEVENT_BITS_CONTROL_BYTES;
 1470              		.loc 1 552 4 view .LVU525
 553:Middlewares/Third_Party/FreeRTOS/Source/event_groups.c **** 
 1471              		.loc 1 553 4 view .LVU526
 555:Middlewares/Third_Party/FreeRTOS/Source/event_groups.c **** 			{
 1472              		.loc 1 555 6 is_stmt 0 view .LVU527
 1473 005e 12F0806F 		tst	r2, #67108864
 553:Middlewares/Third_Party/FreeRTOS/Source/event_groups.c **** 
 1474              		.loc 1 553 20 view .LVU528
 1475 0062 22F07F4C 		bic	ip, r2, #-16777216
 1476              	.LVL124:
 555:Middlewares/Third_Party/FreeRTOS/Source/event_groups.c **** 			{
 1477              		.loc 1 555 4 is_stmt 1 view .LVU529
 555:Middlewares/Third_Party/FreeRTOS/Source/event_groups.c **** 			{
 1478              		.loc 1 555 6 is_stmt 0 view .LVU530
 1479 0066 E9D0     		beq	.L123
 567:Middlewares/Third_Party/FreeRTOS/Source/event_groups.c **** 			{
 1480              		.loc 1 567 11 view .LVU531
 1481 0068 3CEA030E 		bics	lr, ip, r3
 1482 006c E9D0     		beq	.L110
 1483              	.LVL125:
 545:Middlewares/Third_Party/FreeRTOS/Source/event_groups.c **** 		{
ARM GAS  /tmp/ccM7u9RP.s 			page 51


 1484              		.loc 1 545 8 is_stmt 1 view .LVU532
 1485 006e A742     		cmp	r7, r4
 1486 0070 F0D1     		bne	.L113
 1487              	.LVL126:
 1488              	.L122:
 605:Middlewares/Third_Party/FreeRTOS/Source/event_groups.c **** 	}
 1489              		.loc 1 605 28 is_stmt 0 view .LVU533
 1490 0072 23EA0603 		bic	r3, r3, r6
 1491              	.LVL127:
 1492              	.L108:
 605:Middlewares/Third_Party/FreeRTOS/Source/event_groups.c **** 	}
 1493              		.loc 1 605 3 is_stmt 1 view .LVU534
 605:Middlewares/Third_Party/FreeRTOS/Source/event_groups.c **** 	}
 1494              		.loc 1 605 28 is_stmt 0 view .LVU535
 1495 0076 2B60     		str	r3, [r5]
 607:Middlewares/Third_Party/FreeRTOS/Source/event_groups.c **** 
 1496              		.loc 1 607 2 is_stmt 1 view .LVU536
 1497              	.LBE140:
 1498              	.LBE139:
 1499              	.LBE145:
 1500              	.LBE147:
 660:Middlewares/Third_Party/FreeRTOS/Source/event_groups.c **** /*-----------------------------------------------------------*/
 1501              		.loc 1 660 1 is_stmt 0 view .LVU537
 1502 0078 BDE8F041 		pop	{r4, r5, r6, r7, r8, lr}
 1503              	.LCFI10:
 1504              		.cfi_restore 14
 1505              		.cfi_restore 8
 1506              		.cfi_restore 7
 1507              		.cfi_restore 6
 1508              		.cfi_restore 5
 1509              		.cfi_restore 4
 1510              		.cfi_def_cfa_offset 0
 1511              	.LVL128:
 1512              	.LBB148:
 1513              	.LBB146:
 1514              	.LBB142:
 1515              	.LBB141:
 607:Middlewares/Third_Party/FreeRTOS/Source/event_groups.c **** 
 1516              		.loc 1 607 11 view .LVU538
 1517 007c FFF7FEBF 		b	xTaskResumeAll
 1518              	.LVL129:
 1519              	.L121:
 607:Middlewares/Third_Party/FreeRTOS/Source/event_groups.c **** 
 1520              		.loc 1 607 11 view .LVU539
 1521              	.LBE141:
 1522              	.LBE142:
 530:Middlewares/Third_Party/FreeRTOS/Source/event_groups.c **** 	configASSERT( ( uxBitsToSet & eventEVENT_BITS_CONTROL_BYTES ) == 0 );
 1523              		.loc 1 530 2 is_stmt 1 view .LVU540
 1524              	.LBB143:
 1525              	.LBI143:
 191:Middlewares/Third_Party/FreeRTOS/Source/portable/GCC/ARM_CM4F/portmacro.h **** {
 1526              		.loc 2 191 30 view .LVU541
 1527              	.LBB144:
 193:Middlewares/Third_Party/FreeRTOS/Source/portable/GCC/ARM_CM4F/portmacro.h **** 
 1528              		.loc 2 193 1 view .LVU542
 195:Middlewares/Third_Party/FreeRTOS/Source/portable/GCC/ARM_CM4F/portmacro.h **** 	(
 1529              		.loc 2 195 2 view .LVU543
ARM GAS  /tmp/ccM7u9RP.s 			page 52


 1530              		.syntax unified
 1531              	@ 195 "Middlewares/Third_Party/FreeRTOS/Source/portable/GCC/ARM_CM4F/portmacro.h" 1
 1532 0080 4FF05003 			mov r3, #80												
 1533 0084 83F31188 		msr basepri, r3											
 1534 0088 BFF36F8F 		isb														
 1535 008c BFF34F8F 		dsb														
 1536              	
 1537              	@ 0 "" 2
 1538              	.LVL130:
 1539              		.thumb
 1540              		.syntax unified
 1541              	.L105:
 195:Middlewares/Third_Party/FreeRTOS/Source/portable/GCC/ARM_CM4F/portmacro.h **** 	(
 1542              		.loc 2 195 2 is_stmt 0 view .LVU544
 1543              	.LBE144:
 1544              	.LBE143:
 530:Middlewares/Third_Party/FreeRTOS/Source/event_groups.c **** 	configASSERT( ( uxBitsToSet & eventEVENT_BITS_CONTROL_BYTES ) == 0 );
 1545              		.loc 1 530 2 is_stmt 1 view .LVU545
 530:Middlewares/Third_Party/FreeRTOS/Source/event_groups.c **** 	configASSERT( ( uxBitsToSet & eventEVENT_BITS_CONTROL_BYTES ) == 0 );
 1546              		.loc 1 530 2 view .LVU546
 530:Middlewares/Third_Party/FreeRTOS/Source/event_groups.c **** 	configASSERT( ( uxBitsToSet & eventEVENT_BITS_CONTROL_BYTES ) == 0 );
 1547              		.loc 1 530 2 view .LVU547
 530:Middlewares/Third_Party/FreeRTOS/Source/event_groups.c **** 	configASSERT( ( uxBitsToSet & eventEVENT_BITS_CONTROL_BYTES ) == 0 );
 1548              		.loc 1 530 2 view .LVU548
 530:Middlewares/Third_Party/FreeRTOS/Source/event_groups.c **** 	configASSERT( ( uxBitsToSet & eventEVENT_BITS_CONTROL_BYTES ) == 0 );
 1549              		.loc 1 530 2 view .LVU549
 530:Middlewares/Third_Party/FreeRTOS/Source/event_groups.c **** 	configASSERT( ( uxBitsToSet & eventEVENT_BITS_CONTROL_BYTES ) == 0 );
 1550              		.loc 1 530 2 view .LVU550
 1551 0090 FEE7     		b	.L105
 1552              	.LBE146:
 1553              	.LBE148:
 1554              		.cfi_endproc
 1555              	.LFE12:
 1557 0092 00BF     		.section	.text.vEventGroupClearBitsCallback,"ax",%progbits
 1558              		.align	1
 1559              		.p2align 2,,3
 1560              		.global	vEventGroupClearBitsCallback
 1561              		.syntax unified
 1562              		.thumb
 1563              		.thumb_func
 1564              		.fpu fpv4-sp-d16
 1566              	vEventGroupClearBitsCallback:
 1567              	.LVL131:
 1568              	.LFB13:
 666:Middlewares/Third_Party/FreeRTOS/Source/event_groups.c **** 	( void ) xEventGroupClearBits( pvEventGroup, ( EventBits_t ) ulBitsToClear ); /*lint !e9079 Can't 
 1569              		.loc 1 666 1 view -0
 1570              		.cfi_startproc
 1571              		@ args = 0, pretend = 0, frame = 0
 1572              		@ frame_needed = 0, uses_anonymous_args = 0
 667:Middlewares/Third_Party/FreeRTOS/Source/event_groups.c **** }
 1573              		.loc 1 667 2 view .LVU552
 1574              	.LBB161:
 1575              	.LBI161:
 461:Middlewares/Third_Party/FreeRTOS/Source/event_groups.c **** {
 1576              		.loc 1 461 13 view .LVU553
 1577              	.LBB162:
 463:Middlewares/Third_Party/FreeRTOS/Source/event_groups.c **** EventBits_t uxReturn;
ARM GAS  /tmp/ccM7u9RP.s 			page 53


 1578              		.loc 1 463 1 view .LVU554
 464:Middlewares/Third_Party/FreeRTOS/Source/event_groups.c **** 
 1579              		.loc 1 464 1 view .LVU555
 468:Middlewares/Third_Party/FreeRTOS/Source/event_groups.c **** 	configASSERT( ( uxBitsToClear & eventEVENT_BITS_CONTROL_BYTES ) == 0 );
 1580              		.loc 1 468 2 view .LVU556
 1581              	.LBE162:
 1582              	.LBE161:
 666:Middlewares/Third_Party/FreeRTOS/Source/event_groups.c **** 	( void ) xEventGroupClearBits( pvEventGroup, ( EventBits_t ) ulBitsToClear ); /*lint !e9079 Can't 
 1583              		.loc 1 666 1 is_stmt 0 view .LVU557
 1584 0000 38B5     		push	{r3, r4, r5, lr}
 1585              	.LCFI11:
 1586              		.cfi_def_cfa_offset 16
 1587              		.cfi_offset 3, -16
 1588              		.cfi_offset 4, -12
 1589              		.cfi_offset 5, -8
 1590              		.cfi_offset 14, -4
 1591              	.LBB173:
 1592              	.LBB171:
 468:Middlewares/Third_Party/FreeRTOS/Source/event_groups.c **** 	configASSERT( ( uxBitsToClear & eventEVENT_BITS_CONTROL_BYTES ) == 0 );
 1593              		.loc 1 468 2 view .LVU558
 1594 0002 B8B1     		cbz	r0, .L130
 468:Middlewares/Third_Party/FreeRTOS/Source/event_groups.c **** 	configASSERT( ( uxBitsToClear & eventEVENT_BITS_CONTROL_BYTES ) == 0 );
 1595              		.loc 1 468 29 is_stmt 1 view .LVU559
 469:Middlewares/Third_Party/FreeRTOS/Source/event_groups.c **** 
 1596              		.loc 1 469 2 view .LVU560
 1597 0004 11F07F4F 		tst	r1, #-16777216
 1598 0008 0C46     		mov	r4, r1
 1599 000a 08D0     		beq	.L127
 469:Middlewares/Third_Party/FreeRTOS/Source/event_groups.c **** 
 1600              		.loc 1 469 2 view .LVU561
 1601              	.LBB163:
 1602              	.LBI163:
 191:Middlewares/Third_Party/FreeRTOS/Source/portable/GCC/ARM_CM4F/portmacro.h **** {
 1603              		.loc 2 191 30 view .LVU562
 1604              	.LBB164:
 193:Middlewares/Third_Party/FreeRTOS/Source/portable/GCC/ARM_CM4F/portmacro.h **** 
 1605              		.loc 2 193 1 view .LVU563
 195:Middlewares/Third_Party/FreeRTOS/Source/portable/GCC/ARM_CM4F/portmacro.h **** 	(
 1606              		.loc 2 195 2 view .LVU564
 1607              		.syntax unified
 1608              	@ 195 "Middlewares/Third_Party/FreeRTOS/Source/portable/GCC/ARM_CM4F/portmacro.h" 1
 1609 000c 4FF05003 			mov r3, #80												
 1610 0010 83F31188 		msr basepri, r3											
 1611 0014 BFF36F8F 		isb														
 1612 0018 BFF34F8F 		dsb														
 1613              	
 1614              	@ 0 "" 2
 1615              	.LVL132:
 1616              		.thumb
 1617              		.syntax unified
 1618              	.L128:
 195:Middlewares/Third_Party/FreeRTOS/Source/portable/GCC/ARM_CM4F/portmacro.h **** 	(
 1619              		.loc 2 195 2 is_stmt 0 view .LVU565
 1620              	.LBE164:
 1621              	.LBE163:
 469:Middlewares/Third_Party/FreeRTOS/Source/event_groups.c **** 
 1622              		.loc 1 469 2 is_stmt 1 view .LVU566
ARM GAS  /tmp/ccM7u9RP.s 			page 54


 469:Middlewares/Third_Party/FreeRTOS/Source/event_groups.c **** 
 1623              		.loc 1 469 2 view .LVU567
 469:Middlewares/Third_Party/FreeRTOS/Source/event_groups.c **** 
 1624              		.loc 1 469 2 view .LVU568
 469:Middlewares/Third_Party/FreeRTOS/Source/event_groups.c **** 
 1625              		.loc 1 469 2 view .LVU569
 469:Middlewares/Third_Party/FreeRTOS/Source/event_groups.c **** 
 1626              		.loc 1 469 2 view .LVU570
 469:Middlewares/Third_Party/FreeRTOS/Source/event_groups.c **** 
 1627              		.loc 1 469 2 view .LVU571
 1628 001c FEE7     		b	.L128
 1629              	.L127:
 1630 001e 0546     		mov	r5, r0
 1631              	.LVL133:
 1632              	.LBB165:
 1633              	.LBI165:
 461:Middlewares/Third_Party/FreeRTOS/Source/event_groups.c **** {
 1634              		.loc 1 461 13 view .LVU572
 1635              	.LBB166:
 469:Middlewares/Third_Party/FreeRTOS/Source/event_groups.c **** 
 1636              		.loc 1 469 72 view .LVU573
 471:Middlewares/Third_Party/FreeRTOS/Source/event_groups.c **** 	{
 1637              		.loc 1 471 2 view .LVU574
 1638 0020 FFF7FEFF 		bl	vPortEnterCritical
 1639              	.LVL134:
 473:Middlewares/Third_Party/FreeRTOS/Source/event_groups.c **** 
 1640              		.loc 1 473 60 view .LVU575
 477:Middlewares/Third_Party/FreeRTOS/Source/event_groups.c **** 
 1641              		.loc 1 477 3 view .LVU576
 480:Middlewares/Third_Party/FreeRTOS/Source/event_groups.c **** 	}
 1642              		.loc 1 480 3 view .LVU577
 480:Middlewares/Third_Party/FreeRTOS/Source/event_groups.c **** 	}
 1643              		.loc 1 480 28 is_stmt 0 view .LVU578
 1644 0024 2B68     		ldr	r3, [r5]
 1645 0026 23EA0403 		bic	r3, r3, r4
 1646 002a 2B60     		str	r3, [r5]
 1647              	.LVL135:
 482:Middlewares/Third_Party/FreeRTOS/Source/event_groups.c **** 
 1648              		.loc 1 482 2 is_stmt 1 view .LVU579
 1649              	.LBE166:
 1650              	.LBE165:
 1651              	.LBE171:
 1652              	.LBE173:
 668:Middlewares/Third_Party/FreeRTOS/Source/event_groups.c **** /*-----------------------------------------------------------*/
 1653              		.loc 1 668 1 is_stmt 0 view .LVU580
 1654 002c BDE83840 		pop	{r3, r4, r5, lr}
 1655              	.LCFI12:
 1656              		.cfi_remember_state
 1657              		.cfi_restore 14
 1658              		.cfi_restore 5
 1659              		.cfi_restore 4
 1660              		.cfi_restore 3
 1661              		.cfi_def_cfa_offset 0
 1662              	.LVL136:
 1663              	.LBB174:
 1664              	.LBB172:
 1665              	.LBB168:
ARM GAS  /tmp/ccM7u9RP.s 			page 55


 1666              	.LBB167:
 482:Middlewares/Third_Party/FreeRTOS/Source/event_groups.c **** 
 1667              		.loc 1 482 2 view .LVU581
 1668 0030 FFF7FEBF 		b	vPortExitCritical
 1669              	.LVL137:
 1670              	.L130:
 1671              	.LCFI13:
 1672              		.cfi_restore_state
 482:Middlewares/Third_Party/FreeRTOS/Source/event_groups.c **** 
 1673              		.loc 1 482 2 view .LVU582
 1674              	.LBE167:
 1675              	.LBE168:
 468:Middlewares/Third_Party/FreeRTOS/Source/event_groups.c **** 	configASSERT( ( uxBitsToClear & eventEVENT_BITS_CONTROL_BYTES ) == 0 );
 1676              		.loc 1 468 2 is_stmt 1 view .LVU583
 1677              	.LBB169:
 1678              	.LBI169:
 191:Middlewares/Third_Party/FreeRTOS/Source/portable/GCC/ARM_CM4F/portmacro.h **** {
 1679              		.loc 2 191 30 view .LVU584
 1680              	.LBB170:
 193:Middlewares/Third_Party/FreeRTOS/Source/portable/GCC/ARM_CM4F/portmacro.h **** 
 1681              		.loc 2 193 1 view .LVU585
 195:Middlewares/Third_Party/FreeRTOS/Source/portable/GCC/ARM_CM4F/portmacro.h **** 	(
 1682              		.loc 2 195 2 view .LVU586
 1683              		.syntax unified
 1684              	@ 195 "Middlewares/Third_Party/FreeRTOS/Source/portable/GCC/ARM_CM4F/portmacro.h" 1
 1685 0034 4FF05003 			mov r3, #80												
 1686 0038 83F31188 		msr basepri, r3											
 1687 003c BFF36F8F 		isb														
 1688 0040 BFF34F8F 		dsb														
 1689              	
 1690              	@ 0 "" 2
 1691              	.LVL138:
 1692              		.thumb
 1693              		.syntax unified
 1694              	.L126:
 195:Middlewares/Third_Party/FreeRTOS/Source/portable/GCC/ARM_CM4F/portmacro.h **** 	(
 1695              		.loc 2 195 2 is_stmt 0 view .LVU587
 1696              	.LBE170:
 1697              	.LBE169:
 468:Middlewares/Third_Party/FreeRTOS/Source/event_groups.c **** 	configASSERT( ( uxBitsToClear & eventEVENT_BITS_CONTROL_BYTES ) == 0 );
 1698              		.loc 1 468 2 is_stmt 1 view .LVU588
 468:Middlewares/Third_Party/FreeRTOS/Source/event_groups.c **** 	configASSERT( ( uxBitsToClear & eventEVENT_BITS_CONTROL_BYTES ) == 0 );
 1699              		.loc 1 468 2 view .LVU589
 468:Middlewares/Third_Party/FreeRTOS/Source/event_groups.c **** 	configASSERT( ( uxBitsToClear & eventEVENT_BITS_CONTROL_BYTES ) == 0 );
 1700              		.loc 1 468 2 view .LVU590
 468:Middlewares/Third_Party/FreeRTOS/Source/event_groups.c **** 	configASSERT( ( uxBitsToClear & eventEVENT_BITS_CONTROL_BYTES ) == 0 );
 1701              		.loc 1 468 2 view .LVU591
 468:Middlewares/Third_Party/FreeRTOS/Source/event_groups.c **** 	configASSERT( ( uxBitsToClear & eventEVENT_BITS_CONTROL_BYTES ) == 0 );
 1702              		.loc 1 468 2 view .LVU592
 468:Middlewares/Third_Party/FreeRTOS/Source/event_groups.c **** 	configASSERT( ( uxBitsToClear & eventEVENT_BITS_CONTROL_BYTES ) == 0 );
 1703              		.loc 1 468 2 view .LVU593
 1704 0044 FEE7     		b	.L126
 1705              	.LBE172:
 1706              	.LBE174:
 1707              		.cfi_endproc
 1708              	.LFE13:
 1710 0046 00BF     		.text
ARM GAS  /tmp/ccM7u9RP.s 			page 56


 1711              	.Letext0:
 1712              		.file 3 "/usr/share/gcc-arm-none-eabi-10-2020-q4-major/arm-none-eabi/include/machine/_default_type
 1713              		.file 4 "/usr/share/gcc-arm-none-eabi-10-2020-q4-major/arm-none-eabi/include/sys/_stdint.h"
 1714              		.file 5 "Middlewares/Third_Party/FreeRTOS/Source/include/list.h"
 1715              		.file 6 "Middlewares/Third_Party/FreeRTOS/Source/include/event_groups.h"
 1716              		.file 7 "Middlewares/Third_Party/FreeRTOS/Source/include/task.h"
 1717              		.file 8 "Middlewares/Third_Party/FreeRTOS/Source/include/portable.h"
ARM GAS  /tmp/ccM7u9RP.s 			page 57

