Archive member included to satisfy reference by file (symbol)

/usr/share/gcc-arm-none-eabi-10-2020-q4-major/bin/../lib/gcc/arm-none-eabi/10.2.1/../../../../arm-none-eabi/lib/thumb/v7e-m+fp/hard/libc_nano.a(lib_a-errno.o)
                              build/sysmem.o (__errno)
/usr/share/gcc-arm-none-eabi-10-2020-q4-major/bin/../lib/gcc/arm-none-eabi/10.2.1/../../../../arm-none-eabi/lib/thumb/v7e-m+fp/hard/libc_nano.a(lib_a-exit.o)
                              /usr/share/gcc-arm-none-eabi-10-2020-q4-major/bin/../lib/gcc/arm-none-eabi/10.2.1/../../../../arm-none-eabi/lib/thumb/v7e-m+fp/hard/crt0.o (exit)
/usr/share/gcc-arm-none-eabi-10-2020-q4-major/bin/../lib/gcc/arm-none-eabi/10.2.1/../../../../arm-none-eabi/lib/thumb/v7e-m+fp/hard/libc_nano.a(lib_a-impure.o)
                              /usr/share/gcc-arm-none-eabi-10-2020-q4-major/bin/../lib/gcc/arm-none-eabi/10.2.1/../../../../arm-none-eabi/lib/thumb/v7e-m+fp/hard/libc_nano.a(lib_a-exit.o) (_global_impure_ptr)
/usr/share/gcc-arm-none-eabi-10-2020-q4-major/bin/../lib/gcc/arm-none-eabi/10.2.1/../../../../arm-none-eabi/lib/thumb/v7e-m+fp/hard/libc_nano.a(lib_a-init.o)
                              /usr/share/gcc-arm-none-eabi-10-2020-q4-major/bin/../lib/gcc/arm-none-eabi/10.2.1/../../../../arm-none-eabi/lib/thumb/v7e-m+fp/hard/crt0.o (__libc_init_array)
/usr/share/gcc-arm-none-eabi-10-2020-q4-major/bin/../lib/gcc/arm-none-eabi/10.2.1/../../../../arm-none-eabi/lib/thumb/v7e-m+fp/hard/libc_nano.a(lib_a-memcpy-stub.o)
                              build/vesc_uart.o (memcpy)
/usr/share/gcc-arm-none-eabi-10-2020-q4-major/bin/../lib/gcc/arm-none-eabi/10.2.1/../../../../arm-none-eabi/lib/thumb/v7e-m+fp/hard/libc_nano.a(lib_a-memset.o)
                              /usr/share/gcc-arm-none-eabi-10-2020-q4-major/bin/../lib/gcc/arm-none-eabi/10.2.1/../../../../arm-none-eabi/lib/thumb/v7e-m+fp/hard/crt0.o (memset)
MCSDK_v6.3.2-Full/MotorControl/libMP/libmp-G4-MDK-ARM_ARMv7-M.a(mp_one_touch_tuning.o)
                              build/mc_tasks_foc.o (OTT_Init)
MCSDK_v6.3.2-Full/MotorControl/libMP/libmp-G4-MDK-ARM_ARMv7-M.a(mp_self_com_ctrl.o)
                              build/mc_tasks_foc.o (SCC_Init)
/usr/share/gcc-arm-none-eabi-10-2020-q4-major/bin/../lib/gcc/arm-none-eabi/10.2.1/thumb/v7e-m+fp/hard/libgcc.a(_arm_muldf3.o)
                              MCSDK_v6.3.2-Full/MotorControl/libMP/libmp-G4-MDK-ARM_ARMv7-M.a(mp_self_com_ctrl.o) (__aeabi_dmul)
/usr/share/gcc-arm-none-eabi-10-2020-q4-major/bin/../lib/gcc/arm-none-eabi/10.2.1/thumb/v7e-m+fp/hard/libgcc.a(_arm_addsubdf3.o)
                              MCSDK_v6.3.2-Full/MotorControl/libMP/libmp-G4-MDK-ARM_ARMv7-M.a(mp_self_com_ctrl.o) (__aeabi_i2d)
/usr/share/gcc-arm-none-eabi-10-2020-q4-major/bin/../lib/gcc/arm-none-eabi/10.2.1/thumb/v7e-m+fp/hard/libgcc.a(_arm_fixdfsi.o)
                              MCSDK_v6.3.2-Full/MotorControl/libMP/libmp-G4-MDK-ARM_ARMv7-M.a(mp_self_com_ctrl.o) (__aeabi_d2iz)
/usr/share/gcc-arm-none-eabi-10-2020-q4-major/bin/../lib/gcc/arm-none-eabi/10.2.1/thumb/v7e-m+fp/hard/libgcc.a(_aeabi_ldivmod.o)
                              build/div.o (__aeabi_ldivmod)
/usr/share/gcc-arm-none-eabi-10-2020-q4-major/bin/../lib/gcc/arm-none-eabi/10.2.1/thumb/v7e-m+fp/hard/libgcc.a(_aeabi_uldivmod.o)
                              build/div.o (__aeabi_uldivmod)
/usr/share/gcc-arm-none-eabi-10-2020-q4-major/bin/../lib/gcc/arm-none-eabi/10.2.1/thumb/v7e-m+fp/hard/libgcc.a(_udivmoddi4.o)
                              /usr/share/gcc-arm-none-eabi-10-2020-q4-major/bin/../lib/gcc/arm-none-eabi/10.2.1/thumb/v7e-m+fp/hard/libgcc.a(_aeabi_ldivmod.o) (__udivmoddi4)
/usr/share/gcc-arm-none-eabi-10-2020-q4-major/bin/../lib/gcc/arm-none-eabi/10.2.1/thumb/v7e-m+fp/hard/libgcc.a(_dvmd_tls.o)
                              /usr/share/gcc-arm-none-eabi-10-2020-q4-major/bin/../lib/gcc/arm-none-eabi/10.2.1/thumb/v7e-m+fp/hard/libgcc.a(_aeabi_ldivmod.o) (__aeabi_ldiv0)
/usr/share/gcc-arm-none-eabi-10-2020-q4-major/bin/../lib/gcc/arm-none-eabi/10.2.1/../../../../arm-none-eabi/lib/thumb/v7e-m+fp/hard/libc_nano.a(lib_a-aeabi_memclr.o)
                              MCSDK_v6.3.2-Full/MotorControl/libMP/libmp-G4-MDK-ARM_ARMv7-M.a(mp_self_com_ctrl.o) (__aeabi_memclr4)
/usr/share/gcc-arm-none-eabi-10-2020-q4-major/bin/../lib/gcc/arm-none-eabi/10.2.1/../../../../arm-none-eabi/lib/thumb/v7e-m+fp/hard/libc_nano.a(lib_a-aeabi_memset-soft.o)
                              /usr/share/gcc-arm-none-eabi-10-2020-q4-major/bin/../lib/gcc/arm-none-eabi/10.2.1/../../../../arm-none-eabi/lib/thumb/v7e-m+fp/hard/libc_nano.a(lib_a-aeabi_memclr.o) (__aeabi_memset)

Discarded input sections

 .text          0x0000000000000000        0x0 /usr/share/gcc-arm-none-eabi-10-2020-q4-major/bin/../lib/gcc/arm-none-eabi/10.2.1/thumb/v7e-m+fp/hard/crti.o
 .data          0x0000000000000000        0x0 /usr/share/gcc-arm-none-eabi-10-2020-q4-major/bin/../lib/gcc/arm-none-eabi/10.2.1/thumb/v7e-m+fp/hard/crti.o
 .bss           0x0000000000000000        0x0 /usr/share/gcc-arm-none-eabi-10-2020-q4-major/bin/../lib/gcc/arm-none-eabi/10.2.1/thumb/v7e-m+fp/hard/crti.o
 .data          0x0000000000000000        0x4 /usr/share/gcc-arm-none-eabi-10-2020-q4-major/bin/../lib/gcc/arm-none-eabi/10.2.1/thumb/v7e-m+fp/hard/crtbegin.o
 .rodata        0x0000000000000000       0x24 /usr/share/gcc-arm-none-eabi-10-2020-q4-major/bin/../lib/gcc/arm-none-eabi/10.2.1/thumb/v7e-m+fp/hard/crtbegin.o
 .text          0x0000000000000000       0x7c /usr/share/gcc-arm-none-eabi-10-2020-q4-major/bin/../lib/gcc/arm-none-eabi/10.2.1/../../../../arm-none-eabi/lib/thumb/v7e-m+fp/hard/crt0.o
 .data          0x0000000000000000        0x0 /usr/share/gcc-arm-none-eabi-10-2020-q4-major/bin/../lib/gcc/arm-none-eabi/10.2.1/../../../../arm-none-eabi/lib/thumb/v7e-m+fp/hard/crt0.o
 .bss           0x0000000000000000        0x0 /usr/share/gcc-arm-none-eabi-10-2020-q4-major/bin/../lib/gcc/arm-none-eabi/10.2.1/../../../../arm-none-eabi/lib/thumb/v7e-m+fp/hard/crt0.o
 .ARM.extab     0x0000000000000000        0x0 /usr/share/gcc-arm-none-eabi-10-2020-q4-major/bin/../lib/gcc/arm-none-eabi/10.2.1/../../../../arm-none-eabi/lib/thumb/v7e-m+fp/hard/crt0.o
 .ARM.exidx     0x0000000000000000       0x10 /usr/share/gcc-arm-none-eabi-10-2020-q4-major/bin/../lib/gcc/arm-none-eabi/10.2.1/../../../../arm-none-eabi/lib/thumb/v7e-m+fp/hard/crt0.o
 .ARM.attributes
                0x0000000000000000       0x1c /usr/share/gcc-arm-none-eabi-10-2020-q4-major/bin/../lib/gcc/arm-none-eabi/10.2.1/../../../../arm-none-eabi/lib/thumb/v7e-m+fp/hard/crt0.o
 .text          0x0000000000000000        0x0 build/main.o
 .data          0x0000000000000000        0x0 build/main.o
 .bss           0x0000000000000000        0x0 build/main.o
 .text.startMediumFrequencyTask
                0x0000000000000000        0xc build/main.o
 .text.Error_Handler
                0x0000000000000000        0x4 build/main.o
 .text          0x0000000000000000        0x0 build/app_freertos.o
 .data          0x0000000000000000        0x0 build/app_freertos.o
 .bss           0x0000000000000000        0x0 build/app_freertos.o
 .debug_info    0x0000000000000000      0x1c3 build/app_freertos.o
 .debug_abbrev  0x0000000000000000       0x5f build/app_freertos.o
 .debug_aranges
                0x0000000000000000       0x18 build/app_freertos.o
 .debug_line    0x0000000000000000      0x137 build/app_freertos.o
 .debug_str     0x0000000000000000      0x21e build/app_freertos.o
 .comment       0x0000000000000000       0x4e build/app_freertos.o
 .ARM.attributes
                0x0000000000000000       0x39 build/app_freertos.o
 .text          0x0000000000000000        0x0 build/motorcontrol.o
 .data          0x0000000000000000        0x0 build/motorcontrol.o
 .bss           0x0000000000000000        0x0 build/motorcontrol.o
 .text          0x0000000000000000        0x0 build/pwm_common.o
 .data          0x0000000000000000        0x0 build/pwm_common.o
 .bss           0x0000000000000000        0x0 build/pwm_common.o
 .text          0x0000000000000000        0x0 build/mc_api.o
 .data          0x0000000000000000        0x0 build/mc_api.o
 .bss           0x0000000000000000        0x0 build/mc_api.o
 .text.MC_ProgramSpeedRampMotor1
                0x0000000000000000       0x18 build/mc_api.o
 .text.MC_ProgramSpeedRampMotor1_F
                0x0000000000000000       0x10 build/mc_api.o
 .text.MC_ProgramTorqueRampMotor1
                0x0000000000000000       0x18 build/mc_api.o
 .text.MC_ProgramTorqueRampMotor1_F
                0x0000000000000000       0x10 build/mc_api.o
 .text.MC_SetCurrentReferenceMotor1
                0x0000000000000000       0x14 build/mc_api.o
 .text.MC_SetCurrentReferenceMotor1_F
                0x0000000000000000       0x10 build/mc_api.o
 .text.MC_GetCommandStateMotor1
                0x0000000000000000        0xc build/mc_api.o
 .text.MC_StopSpeedRampMotor1
                0x0000000000000000        0xc build/mc_api.o
 .text.MC_StopRampMotor1
                0x0000000000000000        0xc build/mc_api.o
 .text.MC_HasRampCompletedMotor1
                0x0000000000000000        0xc build/mc_api.o
 .text.MC_GetMecSpeedReferenceMotor1
                0x0000000000000000        0xc build/mc_api.o
 .text.MC_GetMecSpeedReferenceMotor1_F
                0x0000000000000000        0xc build/mc_api.o
 .text.MC_GetMecSpeedAverageMotor1
                0x0000000000000000        0xc build/mc_api.o
 .text.MC_GetAverageMecSpeedMotor1_F
                0x0000000000000000        0xc build/mc_api.o
 .text.MC_GetLastRampFinalSpeedMotor1
                0x0000000000000000        0xc build/mc_api.o
 .text.MC_GetLastRampFinalSpeedM1_F
                0x0000000000000000        0xc build/mc_api.o
 .text.MC_GetFinalTorqueReferenceMotor1_F
                0x0000000000000000        0xc build/mc_api.o
 .text.MC_GetFinalTorqueReferenceMotor1
                0x0000000000000000        0xc build/mc_api.o
 .text.MC_GetControlModeMotor1
                0x0000000000000000        0xc build/mc_api.o
 .text.MC_GetImposedDirectionMotor1
                0x0000000000000000        0xc build/mc_api.o
 .text.MC_GetSpeedSensorReliabilityMotor1
                0x0000000000000000        0xc build/mc_api.o
 .text.MC_GetPhaseCurrentAmplitudeMotor1
                0x0000000000000000        0xc build/mc_api.o
 .text.MC_GetPhaseVoltageAmplitudeMotor1
                0x0000000000000000        0xc build/mc_api.o
 .text.MC_GetIabMotor1
                0x0000000000000000       0x10 build/mc_api.o
 .text.MC_GetIabMotor1_F
                0x0000000000000000       0x10 build/mc_api.o
 .text.MC_GetIalphabetaMotor1
                0x0000000000000000       0x10 build/mc_api.o
 .text.MC_GetIqdMotor1
                0x0000000000000000       0x10 build/mc_api.o
 .text.MC_GetIqdMotor1_F
                0x0000000000000000       0x10 build/mc_api.o
 .text.MC_GetIqdrefMotor1
                0x0000000000000000       0x10 build/mc_api.o
 .text.MC_GetIqdrefMotor1_F
                0x0000000000000000       0x10 build/mc_api.o
 .text.MC_GetVqdMotor1
                0x0000000000000000       0x10 build/mc_api.o
 .text.MC_GetValphabetaMotor1
                0x0000000000000000       0x10 build/mc_api.o
 .text.MC_GetElAngledppMotor1
                0x0000000000000000        0xc build/mc_api.o
 .text.MC_GetTerefMotor1
                0x0000000000000000        0xc build/mc_api.o
 .text.MC_GetTerefMotor1_F
                0x0000000000000000        0xc build/mc_api.o
 .text.MC_Clear_IqdrefMotor1
                0x0000000000000000        0xc build/mc_api.o
 .text.MC_GetOccurredFaultsMotor1
                0x0000000000000000        0xc build/mc_api.o
 .text.MC_GetCurrentFaultsMotor1
                0x0000000000000000        0xc build/mc_api.o
 .text.MC_SetPolarizationOffsetsMotor1
                0x0000000000000000       0x10 build/mc_api.o
 .text.MC_GetPolarizationOffsetsMotor1
                0x0000000000000000       0x10 build/mc_api.o
 .text.MC_StartPolarizationOffsetsMeasurementMotor1
                0x0000000000000000        0xc build/mc_api.o
 .text.MC_GetAveragePowerMotor1_F
                0x0000000000000000        0xc build/mc_api.o
 .text          0x0000000000000000        0x0 build/mc_config.o
 .data          0x0000000000000000        0x0 build/mc_config.o
 .bss           0x0000000000000000        0x0 build/mc_config.o
 .data.pTemperatureSensor
                0x0000000000000000        0x4 build/mc_config.o
 .text          0x0000000000000000        0x0 build/mc_config_common.o
 .data          0x0000000000000000        0x0 build/mc_config_common.o
 .bss           0x0000000000000000        0x0 build/mc_config_common.o
 .text          0x0000000000000000        0x0 build/mcp_config.o
 .data          0x0000000000000000        0x0 build/mcp_config.o
 .bss           0x0000000000000000        0x0 build/mcp_config.o
 .text          0x0000000000000000        0x0 build/mc_tasks.o
 .data          0x0000000000000000        0x0 build/mc_tasks.o
 .bss           0x0000000000000000        0x0 build/mc_tasks.o
 .text          0x0000000000000000        0x0 build/mc_tasks_foc.o
 .data          0x0000000000000000        0x0 build/mc_tasks_foc.o
 .bss           0x0000000000000000        0x0 build/mc_tasks_foc.o
 .text.TSK_MF_StopProcessing
                0x0000000000000000       0x48 build/mc_tasks_foc.o
 .bss.hBootCapDelayCounterM1
                0x0000000000000000        0x2 build/mc_tasks_foc.o
 .bss.hStopPermanencyCounterM1
                0x0000000000000000        0x2 build/mc_tasks_foc.o
 .text          0x0000000000000000        0x0 build/pwm_curr_fdbk.o
 .data          0x0000000000000000        0x0 build/pwm_curr_fdbk.o
 .bss           0x0000000000000000        0x0 build/pwm_curr_fdbk.o
 .text.PWMC_SetOffsetCalib
                0x0000000000000000        0x8 build/pwm_curr_fdbk.o
 .text.PWMC_GetOffsetCalib
                0x0000000000000000        0x8 build/pwm_curr_fdbk.o
 .text.PWMC_CalcPhaseCurrentsEst
                0x0000000000000000       0x74 build/pwm_curr_fdbk.o
 .text.PWMC_TurnOnLowSides
                0x0000000000000000        0x4 build/pwm_curr_fdbk.o
 .text.PWMC_DP_Handler
                0x0000000000000000       0x40 build/pwm_curr_fdbk.o
 .text.PWMC_OCPSetReferenceVoltage
                0x0000000000000000        0x4 build/pwm_curr_fdbk.o
 .text.PWMC_DPWM_ModeEnable
                0x0000000000000000        0x8 build/pwm_curr_fdbk.o
 .text.PWMC_DPWM_ModeDisable
                0x0000000000000000        0x8 build/pwm_curr_fdbk.o
 .text.PWMC_GetDPWM_Mode
                0x0000000000000000        0x8 build/pwm_curr_fdbk.o
 .text.PWMC_RegisterGetPhaseCurrentsCallBack
                0x0000000000000000        0x4 build/pwm_curr_fdbk.o
 .text.PWMC_RegisterSwitchOffPwmCallBack
                0x0000000000000000        0x4 build/pwm_curr_fdbk.o
 .text.PWMC_RegisterSwitchonPwmCallBack
                0x0000000000000000        0x4 build/pwm_curr_fdbk.o
 .text.PWMC_RegisterReadingCalibrationCallBack
                0x0000000000000000        0x4 build/pwm_curr_fdbk.o
 .text.PWMC_RegisterTurnOnLowSidesCallBack
                0x0000000000000000        0x4 build/pwm_curr_fdbk.o
 .text.PWMC_RegisterSampPointSectXCallBack
                0x0000000000000000        0x4 build/pwm_curr_fdbk.o
 .text.PWMC_RegisterOCPSetRefVoltageCallBack
                0x0000000000000000        0x4 build/pwm_curr_fdbk.o
 .text.PWMC_RegisterRLDetectionModeEnableCallBack
                0x0000000000000000        0x4 build/pwm_curr_fdbk.o
 .text.PWMC_RegisterRLDetectionModeDisableCallBack
                0x0000000000000000        0x4 build/pwm_curr_fdbk.o
 .text.PWMC_RegisterRLDetectionModeSetDutyCallBack
                0x0000000000000000        0x4 build/pwm_curr_fdbk.o
 .text          0x0000000000000000        0x0 build/regular_conversion_manager.o
 .data          0x0000000000000000        0x0 build/regular_conversion_manager.o
 .bss           0x0000000000000000        0x0 build/regular_conversion_manager.o
 .text.RCM_RegisterRegConv_WithCB
                0x0000000000000000       0x24 build/regular_conversion_manager.o
 .text.RCM_RequestUserConv
                0x0000000000000000       0x20 build/regular_conversion_manager.o
 .text.RCM_GetUserConv
                0x0000000000000000       0x20 build/regular_conversion_manager.o
 .text.RCM_GetUserConvState
                0x0000000000000000        0xc build/regular_conversion_manager.o
 .text.RCM_PauseRegularConv
                0x0000000000000000       0x48 build/regular_conversion_manager.o
 .text          0x0000000000000000        0x0 build/mc_math.o
 .data          0x0000000000000000        0x0 build/mc_math.o
 .bss           0x0000000000000000        0x0 build/mc_math.o
 .text          0x0000000000000000        0x0 build/mc_interface.o
 .data          0x0000000000000000        0x0 build/mc_interface.o
 .bss           0x0000000000000000        0x0 build/mc_interface.o
 .text.MCI_ExecSpeedRamp_F
                0x0000000000000000       0x28 build/mc_interface.o
 .text.MCI_ExecTorqueRamp_F
                0x0000000000000000       0x20 build/mc_interface.o
 .text.MCI_SetCurrentReferences
                0x0000000000000000       0x14 build/mc_interface.o
 .text.MCI_SetCurrentReferences_F
                0x0000000000000000       0x38 build/mc_interface.o
 .text.MCI_GetCalibratedOffsetsMotor
                0x0000000000000000       0x18 build/mc_interface.o
 .text.MCI_IsCommandAcknowledged
                0x0000000000000000       0x14 build/mc_interface.o
 .text.MCI_StartWithPolarizationMotor
                0x0000000000000000       0x38 build/mc_interface.o
 .text.MCI_StartOffsetMeasurments
                0x0000000000000000       0x34 build/mc_interface.o
 .text.MCI_SetCalibratedOffsetsMotor
                0x0000000000000000       0x38 build/mc_interface.o
 .text.MCI_GetLastRampFinalTorque
                0x0000000000000000        0x8 build/mc_interface.o
 .text.MCI_GetLastRampFinalTorque_F
                0x0000000000000000       0x1c build/mc_interface.o
 .text.MCI_GetLastRampFinalSpeed_F
                0x0000000000000000       0x30 build/mc_interface.o
 .text.MCI_RampCompleted
                0x0000000000000000       0x1c build/mc_interface.o
 .text.MCI_StopSpeedRamp
                0x0000000000000000        0x8 build/mc_interface.o
 .text.MCI_GetSpdSensorReliability
                0x0000000000000000       0x10 build/mc_interface.o
 .text.MCI_GetAvrgMecSpeed_F
                0x0000000000000000       0x28 build/mc_interface.o
 .text.MCI_GetMecSpeedRef_F
                0x0000000000000000       0x28 build/mc_interface.o
 .text.MCI_GetIab
                0x0000000000000000       0x1c build/mc_interface.o
 .text.MCI_GetIab_F
                0x0000000000000000       0x30 build/mc_interface.o
 .text.MCI_GetIalphabeta
                0x0000000000000000       0x1c build/mc_interface.o
 .text.MCI_GetIqd
                0x0000000000000000       0x1c build/mc_interface.o
 .text.MCI_GetIqd_F
                0x0000000000000000       0x30 build/mc_interface.o
 .text.MCI_GetIqdHF
                0x0000000000000000       0x1c build/mc_interface.o
 .text.MCI_GetIqdref
                0x0000000000000000       0x1c build/mc_interface.o
 .text.MCI_GetIqdref_F
                0x0000000000000000       0x30 build/mc_interface.o
 .text.MCI_GetElAngledpp
                0x0000000000000000        0x8 build/mc_interface.o
 .text.MCI_GetTeref_F
                0x0000000000000000       0x1c build/mc_interface.o
 .text.MCI_GetPhaseCurrentAmplitude
                0x0000000000000000       0x24 build/mc_interface.o
 .text.MCI_GetPhaseVoltageAmplitude
                0x0000000000000000       0x28 build/mc_interface.o
 .text          0x0000000000000000        0x0 build/stm32_mc_common_it.o
 .data          0x0000000000000000        0x0 build/stm32_mc_common_it.o
 .bss           0x0000000000000000        0x0 build/stm32_mc_common_it.o
 .bss.bdmaActivTc
                0x0000000000000000        0x1 build/stm32_mc_common_it.o
 .text          0x0000000000000000        0x0 build/stm32g4xx_mc_it.o
 .data          0x0000000000000000        0x0 build/stm32g4xx_mc_it.o
 .bss           0x0000000000000000        0x0 build/stm32g4xx_mc_it.o
 .text          0x0000000000000000        0x0 build/mc_parameters.o
 .data          0x0000000000000000        0x0 build/mc_parameters.o
 .bss           0x0000000000000000        0x0 build/mc_parameters.o
 .text          0x0000000000000000        0x0 build/register_interface.o
 .data          0x0000000000000000        0x0 build/register_interface.o
 .bss           0x0000000000000000        0x0 build/register_interface.o
 .text.RI_GetIDSize
                0x0000000000000000       0x18 build/register_interface.o
 .text.RI_GetPtrReg
                0x0000000000000000       0xb4 build/register_interface.o
 .bss.nullData16.0
                0x0000000000000000        0x2 build/register_interface.o
 .rodata.CSWTCH.72
                0x0000000000000000       0x11 build/register_interface.o
 .text          0x0000000000000000        0x0 build/mcp.o
 .data          0x0000000000000000        0x0 build/mcp.o
 .bss           0x0000000000000000        0x0 build/mcp.o
 .text.MCP_RegisterCallBack
                0x0000000000000000       0x18 build/mcp.o
 .text          0x0000000000000000        0x0 build/mc_perf.o
 .data          0x0000000000000000        0x0 build/mc_perf.o
 .bss           0x0000000000000000        0x0 build/mc_perf.o
 .text          0x0000000000000000        0x0 build/usart_aspep_driver.o
 .data          0x0000000000000000        0x0 build/usart_aspep_driver.o
 .bss           0x0000000000000000        0x0 build/usart_aspep_driver.o
 .text.UASPEP_TX_INIT
                0x0000000000000000       0x4c build/usart_aspep_driver.o
 .text.UASPEP_RX_INIT
                0x0000000000000000       0x4c build/usart_aspep_driver.o
 .text          0x0000000000000000        0x0 build/mc_configuration_registers.o
 .data          0x0000000000000000        0x0 build/mc_configuration_registers.o
 .bss           0x0000000000000000        0x0 build/mc_configuration_registers.o
 .data.MotorConfig_reg
                0x0000000000000000        0x4 build/mc_configuration_registers.o
 .data.PWR_BOARD_NAME
                0x0000000000000000        0x4 build/mc_configuration_registers.o
 .rodata.CTL_BOARD
                0x0000000000000000        0xb build/mc_configuration_registers.o
 .rodata.FIRMWARE_NAME
                0x0000000000000000       0x14 build/mc_configuration_registers.o
 .rodata.M1_MotorConfig_reg
                0x0000000000000000       0x3c build/mc_configuration_registers.o
 .rodata.M1_PWR_BOARD
                0x0000000000000000        0xb build/mc_configuration_registers.o
 .text          0x0000000000000000        0x0 build/aspep.o
 .data          0x0000000000000000        0x0 build/aspep.o
 .bss           0x0000000000000000        0x0 build/aspep.o
 .text.ASPEP_HWDataTransmittedIT
                0x0000000000000000       0x98 build/aspep.o
 .text.ASPEP_HWReset
                0x0000000000000000       0x14 build/aspep.o
 .text          0x0000000000000000        0x0 build/mc_app_hooks.o
 .data          0x0000000000000000        0x0 build/mc_app_hooks.o
 .bss           0x0000000000000000        0x0 build/mc_app_hooks.o
 .text          0x0000000000000000        0x0 build/stm32g4xx_it.o
 .data          0x0000000000000000        0x0 build/stm32g4xx_it.o
 .bss           0x0000000000000000        0x0 build/stm32g4xx_it.o
 .text          0x0000000000000000        0x0 build/stm32g4xx_hal_msp.o
 .data          0x0000000000000000        0x0 build/stm32g4xx_hal_msp.o
 .bss           0x0000000000000000        0x0 build/stm32g4xx_hal_msp.o
 .text          0x0000000000000000        0x0 build/stm32g4xx_hal_timebase_tim.o
 .data          0x0000000000000000        0x0 build/stm32g4xx_hal_timebase_tim.o
 .bss           0x0000000000000000        0x0 build/stm32g4xx_hal_timebase_tim.o
 .text.HAL_SuspendTick
                0x0000000000000000       0x14 build/stm32g4xx_hal_timebase_tim.o
 .text.HAL_ResumeTick
                0x0000000000000000       0x14 build/stm32g4xx_hal_timebase_tim.o
 .text          0x0000000000000000        0x0 build/vesc_commands.o
 .data          0x0000000000000000        0x0 build/vesc_commands.o
 .bss           0x0000000000000000        0x0 build/vesc_commands.o
 .text          0x0000000000000000        0x0 build/vesc_uart.o
 .data          0x0000000000000000        0x0 build/vesc_uart.o
 .bss           0x0000000000000000        0x0 build/vesc_uart.o
 .text          0x0000000000000000        0x0 build/stm32g4xx_ll_utils.o
 .data          0x0000000000000000        0x0 build/stm32g4xx_ll_utils.o
 .bss           0x0000000000000000        0x0 build/stm32g4xx_ll_utils.o
 .text.LL_Init1msTick
                0x0000000000000000       0x20 build/stm32g4xx_ll_utils.o
 .text.LL_mDelay
                0x0000000000000000       0x24 build/stm32g4xx_ll_utils.o
 .text.LL_SetFlashLatency
                0x0000000000000000       0xf0 build/stm32g4xx_ll_utils.o
 .text.UTILS_EnablePLLAndSwitchSystem
                0x0000000000000000       0xa4 build/stm32g4xx_ll_utils.o
 .text.LL_PLL_ConfigSystemClock_HSI
                0x0000000000000000       0xbc build/stm32g4xx_ll_utils.o
 .text.LL_PLL_ConfigSystemClock_HSE
                0x0000000000000000       0xc8 build/stm32g4xx_ll_utils.o
 .text          0x0000000000000000        0x0 build/stm32g4xx_ll_exti.o
 .data          0x0000000000000000        0x0 build/stm32g4xx_ll_exti.o
 .bss           0x0000000000000000        0x0 build/stm32g4xx_ll_exti.o
 .text.LL_EXTI_DeInit
                0x0000000000000000       0x38 build/stm32g4xx_ll_exti.o
 .text.LL_EXTI_StructInit
                0x0000000000000000       0x10 build/stm32g4xx_ll_exti.o
 .text          0x0000000000000000        0x0 build/stm32g4xx_ll_gpio.o
 .data          0x0000000000000000        0x0 build/stm32g4xx_ll_gpio.o
 .bss           0x0000000000000000        0x0 build/stm32g4xx_ll_gpio.o
 .text.LL_GPIO_DeInit
                0x0000000000000000      0x108 build/stm32g4xx_ll_gpio.o
 .text.LL_GPIO_StructInit
                0x0000000000000000       0x18 build/stm32g4xx_ll_gpio.o
 .text          0x0000000000000000        0x0 build/stm32g4xx_ll_adc.o
 .data          0x0000000000000000        0x0 build/stm32g4xx_ll_adc.o
 .bss           0x0000000000000000        0x0 build/stm32g4xx_ll_adc.o
 .text.LL_ADC_CommonDeInit
                0x0000000000000000       0x28 build/stm32g4xx_ll_adc.o
 .text.LL_ADC_CommonStructInit
                0x0000000000000000       0x10 build/stm32g4xx_ll_adc.o
 .text.LL_ADC_DeInit
                0x0000000000000000      0x1f4 build/stm32g4xx_ll_adc.o
 .text.LL_ADC_StructInit
                0x0000000000000000        0xc build/stm32g4xx_ll_adc.o
 .text.LL_ADC_REG_StructInit
                0x0000000000000000       0x14 build/stm32g4xx_ll_adc.o
 .text.LL_ADC_INJ_StructInit
                0x0000000000000000        0xc build/stm32g4xx_ll_adc.o
 .text          0x0000000000000000        0x0 build/stm32g4xx_ll_dma.o
 .data          0x0000000000000000        0x0 build/stm32g4xx_ll_dma.o
 .bss           0x0000000000000000        0x0 build/stm32g4xx_ll_dma.o
 .text.LL_DMA_DeInit
                0x0000000000000000      0x17c build/stm32g4xx_ll_dma.o
 .text.LL_DMA_Init
                0x0000000000000000       0x88 build/stm32g4xx_ll_dma.o
 .text.LL_DMA_StructInit
                0x0000000000000000       0x1c build/stm32g4xx_ll_dma.o
 .rodata.CHANNEL_OFFSET_TAB
                0x0000000000000000        0x6 build/stm32g4xx_ll_dma.o
 .debug_info    0x0000000000000000      0xb9b build/stm32g4xx_ll_dma.o
 .debug_abbrev  0x0000000000000000      0x2a9 build/stm32g4xx_ll_dma.o
 .debug_loc     0x0000000000000000      0x639 build/stm32g4xx_ll_dma.o
 .debug_aranges
                0x0000000000000000       0x30 build/stm32g4xx_ll_dma.o
 .debug_ranges  0x0000000000000000      0x140 build/stm32g4xx_ll_dma.o
 .debug_line    0x0000000000000000      0x5c3 build/stm32g4xx_ll_dma.o
 .debug_str     0x0000000000000000      0x608 build/stm32g4xx_ll_dma.o
 .comment       0x0000000000000000       0x4e build/stm32g4xx_ll_dma.o
 .debug_frame   0x0000000000000000       0x74 build/stm32g4xx_ll_dma.o
 .ARM.attributes
                0x0000000000000000       0x34 build/stm32g4xx_ll_dma.o
 .text          0x0000000000000000        0x0 build/stm32g4xx_hal.o
 .data          0x0000000000000000        0x0 build/stm32g4xx_hal.o
 .bss           0x0000000000000000        0x0 build/stm32g4xx_hal.o
 .text.HAL_MspInit
                0x0000000000000000        0x4 build/stm32g4xx_hal.o
 .text.HAL_MspDeInit
                0x0000000000000000        0x4 build/stm32g4xx_hal.o
 .text.HAL_DeInit
                0x0000000000000000       0x2c build/stm32g4xx_hal.o
 .text.HAL_InitTick
                0x0000000000000000       0x4c build/stm32g4xx_hal.o
 .text.HAL_GetTick
                0x0000000000000000        0xc build/stm32g4xx_hal.o
 .text.HAL_GetTickPrio
                0x0000000000000000        0xc build/stm32g4xx_hal.o
 .text.HAL_SetTickFreq
                0x0000000000000000       0x28 build/stm32g4xx_hal.o
 .text.HAL_GetTickFreq
                0x0000000000000000        0xc build/stm32g4xx_hal.o
 .text.HAL_Delay
                0x0000000000000000       0x24 build/stm32g4xx_hal.o
 .text.HAL_SuspendTick
                0x0000000000000000       0x10 build/stm32g4xx_hal.o
 .text.HAL_ResumeTick
                0x0000000000000000       0x10 build/stm32g4xx_hal.o
 .text.HAL_GetHalVersion
                0x0000000000000000        0x8 build/stm32g4xx_hal.o
 .text.HAL_GetREVID
                0x0000000000000000        0xc build/stm32g4xx_hal.o
 .text.HAL_GetDEVID
                0x0000000000000000       0x10 build/stm32g4xx_hal.o
 .text.HAL_GetUIDw0
                0x0000000000000000        0xc build/stm32g4xx_hal.o
 .text.HAL_GetUIDw1
                0x0000000000000000        0xc build/stm32g4xx_hal.o
 .text.HAL_GetUIDw2
                0x0000000000000000        0xc build/stm32g4xx_hal.o
 .text.HAL_DBGMCU_EnableDBGSleepMode
                0x0000000000000000       0x10 build/stm32g4xx_hal.o
 .text.HAL_DBGMCU_DisableDBGSleepMode
                0x0000000000000000       0x10 build/stm32g4xx_hal.o
 .text.HAL_DBGMCU_EnableDBGStopMode
                0x0000000000000000       0x10 build/stm32g4xx_hal.o
 .text.HAL_DBGMCU_DisableDBGStopMode
                0x0000000000000000       0x10 build/stm32g4xx_hal.o
 .text.HAL_DBGMCU_EnableDBGStandbyMode
                0x0000000000000000       0x10 build/stm32g4xx_hal.o
 .text.HAL_DBGMCU_DisableDBGStandbyMode
                0x0000000000000000       0x10 build/stm32g4xx_hal.o
 .text.HAL_SYSCFG_CCMSRAMErase
                0x0000000000000000       0x18 build/stm32g4xx_hal.o
 .text.HAL_SYSCFG_EnableMemorySwappingBank
                0x0000000000000000       0x10 build/stm32g4xx_hal.o
 .text.HAL_SYSCFG_DisableMemorySwappingBank
                0x0000000000000000       0x10 build/stm32g4xx_hal.o
 .text.HAL_SYSCFG_VREFBUF_VoltageScalingConfig
                0x0000000000000000       0x14 build/stm32g4xx_hal.o
 .text.HAL_SYSCFG_VREFBUF_HighImpedanceConfig
                0x0000000000000000       0x14 build/stm32g4xx_hal.o
 .text.HAL_SYSCFG_VREFBUF_TrimmingConfig
                0x0000000000000000       0x14 build/stm32g4xx_hal.o
 .text.HAL_SYSCFG_EnableVREFBUF
                0x0000000000000000       0x30 build/stm32g4xx_hal.o
 .text.HAL_SYSCFG_DisableVREFBUF
                0x0000000000000000       0x10 build/stm32g4xx_hal.o
 .text.HAL_SYSCFG_EnableIOSwitchBooster
                0x0000000000000000       0x10 build/stm32g4xx_hal.o
 .text.HAL_SYSCFG_DisableIOSwitchBooster
                0x0000000000000000       0x10 build/stm32g4xx_hal.o
 .text.HAL_SYSCFG_EnableIOSwitchVDD
                0x0000000000000000       0x10 build/stm32g4xx_hal.o
 .text.HAL_SYSCFG_DisableIOSwitchVDD
                0x0000000000000000       0x10 build/stm32g4xx_hal.o
 .text.HAL_SYSCFG_CCMSRAM_WriteProtectionEnable
                0x0000000000000000       0x10 build/stm32g4xx_hal.o
 .text          0x0000000000000000        0x0 build/stm32g4xx_hal_rcc.o
 .data          0x0000000000000000        0x0 build/stm32g4xx_hal_rcc.o
 .bss           0x0000000000000000        0x0 build/stm32g4xx_hal_rcc.o
 .text.HAL_RCC_DeInit
                0x0000000000000000       0xc0 build/stm32g4xx_hal_rcc.o
 .text.HAL_RCC_OscConfig
                0x0000000000000000      0x498 build/stm32g4xx_hal_rcc.o
 .text.HAL_RCC_MCOConfig
                0x0000000000000000       0x54 build/stm32g4xx_hal_rcc.o
 .text.HAL_RCC_GetSysClockFreq
                0x0000000000000000       0x70 build/stm32g4xx_hal_rcc.o
 .text.HAL_RCC_ClockConfig
                0x0000000000000000      0x224 build/stm32g4xx_hal_rcc.o
 .text.HAL_RCC_GetPCLK2Freq
                0x0000000000000000       0x24 build/stm32g4xx_hal_rcc.o
 .text.HAL_RCC_GetOscConfig
                0x0000000000000000       0xb4 build/stm32g4xx_hal_rcc.o
 .text.HAL_RCC_EnableCSS
                0x0000000000000000       0x10 build/stm32g4xx_hal_rcc.o
 .text.HAL_RCC_EnableLSECSS
                0x0000000000000000       0x14 build/stm32g4xx_hal_rcc.o
 .text.HAL_RCC_DisableLSECSS
                0x0000000000000000       0x14 build/stm32g4xx_hal_rcc.o
 .text.HAL_RCC_CSSCallback
                0x0000000000000000        0x4 build/stm32g4xx_hal_rcc.o
 .text.HAL_RCC_NMI_IRQHandler
                0x0000000000000000       0x1c build/stm32g4xx_hal_rcc.o
 .text          0x0000000000000000        0x0 build/stm32g4xx_hal_rcc_ex.o
 .data          0x0000000000000000        0x0 build/stm32g4xx_hal_rcc_ex.o
 .bss           0x0000000000000000        0x0 build/stm32g4xx_hal_rcc_ex.o
 .text.HAL_RCCEx_PeriphCLKConfig
                0x0000000000000000      0x298 build/stm32g4xx_hal_rcc_ex.o
 .text.HAL_RCCEx_GetPeriphCLKConfig
                0x0000000000000000       0xb0 build/stm32g4xx_hal_rcc_ex.o
 .text.HAL_RCCEx_GetPeriphCLKFreq
                0x0000000000000000      0x450 build/stm32g4xx_hal_rcc_ex.o
 .text.HAL_RCCEx_EnableLSECSS
                0x0000000000000000       0x14 build/stm32g4xx_hal_rcc_ex.o
 .text.HAL_RCCEx_DisableLSECSS
                0x0000000000000000       0x1c build/stm32g4xx_hal_rcc_ex.o
 .text.HAL_RCCEx_EnableLSECSS_IT
                0x0000000000000000       0x34 build/stm32g4xx_hal_rcc_ex.o
 .text.HAL_RCCEx_LSECSS_Callback
                0x0000000000000000        0x4 build/stm32g4xx_hal_rcc_ex.o
 .text.HAL_RCCEx_LSECSS_IRQHandler
                0x0000000000000000       0x1c build/stm32g4xx_hal_rcc_ex.o
 .text.HAL_RCCEx_EnableLSCO
                0x0000000000000000       0xb8 build/stm32g4xx_hal_rcc_ex.o
 .text.HAL_RCCEx_DisableLSCO
                0x0000000000000000       0x74 build/stm32g4xx_hal_rcc_ex.o
 .text.HAL_RCCEx_CRSConfig
                0x0000000000000000       0x50 build/stm32g4xx_hal_rcc_ex.o
 .text.HAL_RCCEx_CRSSoftwareSynchronizationGenerate
                0x0000000000000000       0x10 build/stm32g4xx_hal_rcc_ex.o
 .text.HAL_RCCEx_CRSGetSynchronizationInfo
                0x0000000000000000       0x24 build/stm32g4xx_hal_rcc_ex.o
 .text.HAL_RCCEx_CRSWaitSynchronization
                0x0000000000000000      0x174 build/stm32g4xx_hal_rcc_ex.o
 .text.HAL_RCCEx_CRS_SyncOkCallback
                0x0000000000000000        0x4 build/stm32g4xx_hal_rcc_ex.o
 .text.HAL_RCCEx_CRS_SyncWarnCallback
                0x0000000000000000        0x4 build/stm32g4xx_hal_rcc_ex.o
 .text.HAL_RCCEx_CRS_ExpectedSyncCallback
                0x0000000000000000        0x4 build/stm32g4xx_hal_rcc_ex.o
 .text.HAL_RCCEx_CRS_ErrorCallback
                0x0000000000000000        0x4 build/stm32g4xx_hal_rcc_ex.o
 .text.HAL_RCCEx_CRS_IRQHandler
                0x0000000000000000       0x8c build/stm32g4xx_hal_rcc_ex.o
 .debug_info    0x0000000000000000      0xf7d build/stm32g4xx_hal_rcc_ex.o
 .debug_abbrev  0x0000000000000000      0x2cb build/stm32g4xx_hal_rcc_ex.o
 .debug_loc     0x0000000000000000      0xc41 build/stm32g4xx_hal_rcc_ex.o
 .debug_aranges
                0x0000000000000000       0x98 build/stm32g4xx_hal_rcc_ex.o
 .debug_ranges  0x0000000000000000       0xd8 build/stm32g4xx_hal_rcc_ex.o
 .debug_line    0x0000000000000000      0xfb6 build/stm32g4xx_hal_rcc_ex.o
 .debug_str     0x0000000000000000      0x9f8 build/stm32g4xx_hal_rcc_ex.o
 .comment       0x0000000000000000       0x4e build/stm32g4xx_hal_rcc_ex.o
 .debug_frame   0x0000000000000000      0x1b0 build/stm32g4xx_hal_rcc_ex.o
 .ARM.attributes
                0x0000000000000000       0x34 build/stm32g4xx_hal_rcc_ex.o
 .text          0x0000000000000000        0x0 build/stm32g4xx_hal_flash.o
 .data          0x0000000000000000        0x0 build/stm32g4xx_hal_flash.o
 .bss           0x0000000000000000        0x0 build/stm32g4xx_hal_flash.o
 .text.HAL_FLASH_Program
                0x0000000000000000      0x174 build/stm32g4xx_hal_flash.o
 .text.HAL_FLASH_Program_IT
                0x0000000000000000      0x14c build/stm32g4xx_hal_flash.o
 .text.HAL_FLASH_EndOfOperationCallback
                0x0000000000000000        0x4 build/stm32g4xx_hal_flash.o
 .text.HAL_FLASH_OperationErrorCallback
                0x0000000000000000        0x4 build/stm32g4xx_hal_flash.o
 .text.HAL_FLASH_IRQHandler
                0x0000000000000000       0xf4 build/stm32g4xx_hal_flash.o
 .text.HAL_FLASH_Unlock
                0x0000000000000000       0x28 build/stm32g4xx_hal_flash.o
 .text.HAL_FLASH_Lock
                0x0000000000000000       0x18 build/stm32g4xx_hal_flash.o
 .text.HAL_FLASH_OB_Unlock
                0x0000000000000000       0x28 build/stm32g4xx_hal_flash.o
 .text.HAL_FLASH_OB_Lock
                0x0000000000000000       0x1c build/stm32g4xx_hal_flash.o
 .text.HAL_FLASH_OB_Launch
                0x0000000000000000       0x5c build/stm32g4xx_hal_flash.o
 .text.HAL_FLASH_GetError
                0x0000000000000000        0xc build/stm32g4xx_hal_flash.o
 .text.FLASH_WaitForLastOperation
                0x0000000000000000       0x54 build/stm32g4xx_hal_flash.o
 .data.pFlash   0x0000000000000000       0x20 build/stm32g4xx_hal_flash.o
 .debug_info    0x0000000000000000      0xc88 build/stm32g4xx_hal_flash.o
 .debug_abbrev  0x0000000000000000      0x37a build/stm32g4xx_hal_flash.o
 .debug_loc     0x0000000000000000      0xd2d build/stm32g4xx_hal_flash.o
 .debug_aranges
                0x0000000000000000       0x70 build/stm32g4xx_hal_flash.o
 .debug_ranges  0x0000000000000000      0x180 build/stm32g4xx_hal_flash.o
 .debug_line    0x0000000000000000      0xb33 build/stm32g4xx_hal_flash.o
 .debug_str     0x0000000000000000      0x629 build/stm32g4xx_hal_flash.o
 .comment       0x0000000000000000       0x4e build/stm32g4xx_hal_flash.o
 .debug_frame   0x0000000000000000      0x118 build/stm32g4xx_hal_flash.o
 .ARM.attributes
                0x0000000000000000       0x34 build/stm32g4xx_hal_flash.o
 .text          0x0000000000000000        0x0 build/stm32g4xx_hal_flash_ex.o
 .data          0x0000000000000000        0x0 build/stm32g4xx_hal_flash_ex.o
 .bss           0x0000000000000000        0x0 build/stm32g4xx_hal_flash_ex.o
 .text.HAL_FLASHEx_Erase
                0x0000000000000000      0x15c build/stm32g4xx_hal_flash_ex.o
 .text.HAL_FLASHEx_Erase_IT
                0x0000000000000000       0xbc build/stm32g4xx_hal_flash_ex.o
 .text.HAL_FLASHEx_OBProgram
                0x0000000000000000      0x2fc build/stm32g4xx_hal_flash_ex.o
 .text.HAL_FLASHEx_OBGetConfig
                0x0000000000000000       0xb4 build/stm32g4xx_hal_flash_ex.o
 .text.HAL_FLASHEx_EnableSecMemProtection
                0x0000000000000000       0x14 build/stm32g4xx_hal_flash_ex.o
 .text.HAL_FLASHEx_EnableDebugger
                0x0000000000000000       0x10 build/stm32g4xx_hal_flash_ex.o
 .text.HAL_FLASHEx_DisableDebugger
                0x0000000000000000       0x10 build/stm32g4xx_hal_flash_ex.o
 .text.FLASH_PageErase
                0x0000000000000000       0x28 build/stm32g4xx_hal_flash_ex.o
 .text.FLASH_FlushCaches
                0x0000000000000000       0x60 build/stm32g4xx_hal_flash_ex.o
 .debug_info    0x0000000000000000      0xe22 build/stm32g4xx_hal_flash_ex.o
 .debug_abbrev  0x0000000000000000      0x359 build/stm32g4xx_hal_flash_ex.o
 .debug_loc     0x0000000000000000      0xa6f build/stm32g4xx_hal_flash_ex.o
 .debug_aranges
                0x0000000000000000       0x60 build/stm32g4xx_hal_flash_ex.o
 .debug_ranges  0x0000000000000000      0x1c8 build/stm32g4xx_hal_flash_ex.o
 .debug_line    0x0000000000000000      0xc5e build/stm32g4xx_hal_flash_ex.o
 .debug_str     0x0000000000000000      0x747 build/stm32g4xx_hal_flash_ex.o
 .comment       0x0000000000000000       0x4e build/stm32g4xx_hal_flash_ex.o
 .debug_frame   0x0000000000000000       0xe4 build/stm32g4xx_hal_flash_ex.o
 .ARM.attributes
                0x0000000000000000       0x34 build/stm32g4xx_hal_flash_ex.o
 .text          0x0000000000000000        0x0 build/stm32g4xx_hal_flash_ramfunc.o
 .data          0x0000000000000000        0x0 build/stm32g4xx_hal_flash_ramfunc.o
 .bss           0x0000000000000000        0x0 build/stm32g4xx_hal_flash_ramfunc.o
 .RamFunc       0x0000000000000000       0x48 build/stm32g4xx_hal_flash_ramfunc.o
 .debug_info    0x0000000000000000      0x211 build/stm32g4xx_hal_flash_ramfunc.o
 .debug_abbrev  0x0000000000000000       0xcc build/stm32g4xx_hal_flash_ramfunc.o
 .debug_aranges
                0x0000000000000000       0x28 build/stm32g4xx_hal_flash_ramfunc.o
 .debug_ranges  0x0000000000000000       0x18 build/stm32g4xx_hal_flash_ramfunc.o
 .debug_line    0x0000000000000000      0x1ca build/stm32g4xx_hal_flash_ramfunc.o
 .debug_str     0x0000000000000000      0x289 build/stm32g4xx_hal_flash_ramfunc.o
 .comment       0x0000000000000000       0x4e build/stm32g4xx_hal_flash_ramfunc.o
 .debug_frame   0x0000000000000000       0x30 build/stm32g4xx_hal_flash_ramfunc.o
 .ARM.attributes
                0x0000000000000000       0x34 build/stm32g4xx_hal_flash_ramfunc.o
 .text          0x0000000000000000        0x0 build/stm32g4xx_hal_gpio.o
 .data          0x0000000000000000        0x0 build/stm32g4xx_hal_gpio.o
 .bss           0x0000000000000000        0x0 build/stm32g4xx_hal_gpio.o
 .text.HAL_GPIO_Init
                0x0000000000000000      0x1f0 build/stm32g4xx_hal_gpio.o
 .text.HAL_GPIO_DeInit
                0x0000000000000000      0x124 build/stm32g4xx_hal_gpio.o
 .text.HAL_GPIO_ReadPin
                0x0000000000000000        0xc build/stm32g4xx_hal_gpio.o
 .text.HAL_GPIO_WritePin
                0x0000000000000000        0xc build/stm32g4xx_hal_gpio.o
 .text.HAL_GPIO_TogglePin
                0x0000000000000000       0x14 build/stm32g4xx_hal_gpio.o
 .text.HAL_GPIO_LockPin
                0x0000000000000000       0x2c build/stm32g4xx_hal_gpio.o
 .text.HAL_GPIO_EXTI_Callback
                0x0000000000000000        0x4 build/stm32g4xx_hal_gpio.o
 .text.HAL_GPIO_EXTI_IRQHandler
                0x0000000000000000       0x18 build/stm32g4xx_hal_gpio.o
 .debug_info    0x0000000000000000      0x92f build/stm32g4xx_hal_gpio.o
 .debug_abbrev  0x0000000000000000      0x234 build/stm32g4xx_hal_gpio.o
 .debug_loc     0x0000000000000000      0x4c5 build/stm32g4xx_hal_gpio.o
 .debug_aranges
                0x0000000000000000       0x58 build/stm32g4xx_hal_gpio.o
 .debug_ranges  0x0000000000000000       0x60 build/stm32g4xx_hal_gpio.o
 .debug_line    0x0000000000000000      0x73c build/stm32g4xx_hal_gpio.o
 .debug_str     0x0000000000000000      0x522 build/stm32g4xx_hal_gpio.o
 .comment       0x0000000000000000       0x4e build/stm32g4xx_hal_gpio.o
 .debug_frame   0x0000000000000000       0xe4 build/stm32g4xx_hal_gpio.o
 .ARM.attributes
                0x0000000000000000       0x34 build/stm32g4xx_hal_gpio.o
 .text          0x0000000000000000        0x0 build/stm32g4xx_hal_exti.o
 .data          0x0000000000000000        0x0 build/stm32g4xx_hal_exti.o
 .bss           0x0000000000000000        0x0 build/stm32g4xx_hal_exti.o
 .text.HAL_EXTI_SetConfigLine
                0x0000000000000000       0xc4 build/stm32g4xx_hal_exti.o
 .text.HAL_EXTI_GetConfigLine
                0x0000000000000000       0xb0 build/stm32g4xx_hal_exti.o
 .text.HAL_EXTI_ClearConfigLine
                0x0000000000000000       0x98 build/stm32g4xx_hal_exti.o
 .text.HAL_EXTI_RegisterCallback
                0x0000000000000000       0x10 build/stm32g4xx_hal_exti.o
 .text.HAL_EXTI_GetHandle
                0x0000000000000000        0xc build/stm32g4xx_hal_exti.o
 .text.HAL_EXTI_IRQHandler
                0x0000000000000000       0x34 build/stm32g4xx_hal_exti.o
 .text.HAL_EXTI_GetPending
                0x0000000000000000       0x20 build/stm32g4xx_hal_exti.o
 .text.HAL_EXTI_ClearPending
                0x0000000000000000       0x24 build/stm32g4xx_hal_exti.o
 .text.HAL_EXTI_GenerateSWI
                0x0000000000000000       0x24 build/stm32g4xx_hal_exti.o
 .debug_info    0x0000000000000000      0x7ed build/stm32g4xx_hal_exti.o
 .debug_abbrev  0x0000000000000000      0x1ce build/stm32g4xx_hal_exti.o
 .debug_loc     0x0000000000000000      0xb05 build/stm32g4xx_hal_exti.o
 .debug_aranges
                0x0000000000000000       0x60 build/stm32g4xx_hal_exti.o
 .debug_ranges  0x0000000000000000       0x50 build/stm32g4xx_hal_exti.o
 .debug_line    0x0000000000000000      0x6e6 build/stm32g4xx_hal_exti.o
 .debug_str     0x0000000000000000      0x413 build/stm32g4xx_hal_exti.o
 .comment       0x0000000000000000       0x4e build/stm32g4xx_hal_exti.o
 .debug_frame   0x0000000000000000      0x100 build/stm32g4xx_hal_exti.o
 .ARM.attributes
                0x0000000000000000       0x34 build/stm32g4xx_hal_exti.o
 .text          0x0000000000000000        0x0 build/stm32g4xx_hal_dma.o
 .data          0x0000000000000000        0x0 build/stm32g4xx_hal_dma.o
 .bss           0x0000000000000000        0x0 build/stm32g4xx_hal_dma.o
 .text.HAL_DMA_Init
                0x0000000000000000      0x12c build/stm32g4xx_hal_dma.o
 .text.HAL_DMA_DeInit
                0x0000000000000000       0xf0 build/stm32g4xx_hal_dma.o
 .text.HAL_DMA_Start
                0x0000000000000000       0x7c build/stm32g4xx_hal_dma.o
 .text.HAL_DMA_Start_IT
                0x0000000000000000       0xb4 build/stm32g4xx_hal_dma.o
 .text.HAL_DMA_Abort
                0x0000000000000000       0x74 build/stm32g4xx_hal_dma.o
 .text.HAL_DMA_Abort_IT
                0x0000000000000000       0x7c build/stm32g4xx_hal_dma.o
 .text.HAL_DMA_PollForTransfer
                0x0000000000000000      0x118 build/stm32g4xx_hal_dma.o
 .text.HAL_DMA_IRQHandler
                0x0000000000000000       0x9c build/stm32g4xx_hal_dma.o
 .text.HAL_DMA_RegisterCallback
                0x0000000000000000       0x4c build/stm32g4xx_hal_dma.o
 .text.HAL_DMA_UnRegisterCallback
                0x0000000000000000       0x60 build/stm32g4xx_hal_dma.o
 .text.HAL_DMA_GetState
                0x0000000000000000        0x8 build/stm32g4xx_hal_dma.o
 .text.HAL_DMA_GetError
                0x0000000000000000        0x4 build/stm32g4xx_hal_dma.o
 .debug_info    0x0000000000000000      0xb6e build/stm32g4xx_hal_dma.o
 .debug_abbrev  0x0000000000000000      0x2c4 build/stm32g4xx_hal_dma.o
 .debug_loc     0x0000000000000000      0xbad build/stm32g4xx_hal_dma.o
 .debug_aranges
                0x0000000000000000       0x78 build/stm32g4xx_hal_dma.o
 .debug_ranges  0x0000000000000000      0x120 build/stm32g4xx_hal_dma.o
 .debug_line    0x0000000000000000      0xe23 build/stm32g4xx_hal_dma.o
 .debug_str     0x0000000000000000      0x783 build/stm32g4xx_hal_dma.o
 .comment       0x0000000000000000       0x4e build/stm32g4xx_hal_dma.o
 .debug_frame   0x0000000000000000      0x19c build/stm32g4xx_hal_dma.o
 .ARM.attributes
                0x0000000000000000       0x34 build/stm32g4xx_hal_dma.o
 .text          0x0000000000000000        0x0 build/stm32g4xx_hal_dma_ex.o
 .data          0x0000000000000000        0x0 build/stm32g4xx_hal_dma_ex.o
 .bss           0x0000000000000000        0x0 build/stm32g4xx_hal_dma_ex.o
 .text.HAL_DMAEx_ConfigMuxSync
                0x0000000000000000       0x50 build/stm32g4xx_hal_dma_ex.o
 .text.HAL_DMAEx_ConfigMuxRequestGenerator
                0x0000000000000000       0x58 build/stm32g4xx_hal_dma_ex.o
 .text.HAL_DMAEx_EnableMuxRequestGenerator
                0x0000000000000000       0x1c build/stm32g4xx_hal_dma_ex.o
 .text.HAL_DMAEx_DisableMuxRequestGenerator
                0x0000000000000000       0x1c build/stm32g4xx_hal_dma_ex.o
 .text.HAL_DMAEx_MUX_IRQHandler
                0x0000000000000000       0x58 build/stm32g4xx_hal_dma_ex.o
 .debug_info    0x0000000000000000      0x748 build/stm32g4xx_hal_dma_ex.o
 .debug_abbrev  0x0000000000000000      0x20d build/stm32g4xx_hal_dma_ex.o
 .debug_loc     0x0000000000000000      0x2ba build/stm32g4xx_hal_dma_ex.o
 .debug_aranges
                0x0000000000000000       0x40 build/stm32g4xx_hal_dma_ex.o
 .debug_ranges  0x0000000000000000       0x30 build/stm32g4xx_hal_dma_ex.o
 .debug_line    0x0000000000000000      0x485 build/stm32g4xx_hal_dma_ex.o
 .debug_str     0x0000000000000000      0x660 build/stm32g4xx_hal_dma_ex.o
 .comment       0x0000000000000000       0x4e build/stm32g4xx_hal_dma_ex.o
 .debug_frame   0x0000000000000000       0x94 build/stm32g4xx_hal_dma_ex.o
 .ARM.attributes
                0x0000000000000000       0x34 build/stm32g4xx_hal_dma_ex.o
 .text          0x0000000000000000        0x0 build/stm32g4xx_hal_pwr.o
 .data          0x0000000000000000        0x0 build/stm32g4xx_hal_pwr.o
 .bss           0x0000000000000000        0x0 build/stm32g4xx_hal_pwr.o
 .text.HAL_PWR_DeInit
                0x0000000000000000       0x18 build/stm32g4xx_hal_pwr.o
 .text.HAL_PWR_EnableBkUpAccess
                0x0000000000000000       0x10 build/stm32g4xx_hal_pwr.o
 .text.HAL_PWR_DisableBkUpAccess
                0x0000000000000000       0x10 build/stm32g4xx_hal_pwr.o
 .text.HAL_PWR_ConfigPVD
                0x0000000000000000       0x7c build/stm32g4xx_hal_pwr.o
 .text.HAL_PWR_EnablePVD
                0x0000000000000000       0x10 build/stm32g4xx_hal_pwr.o
 .text.HAL_PWR_DisablePVD
                0x0000000000000000       0x10 build/stm32g4xx_hal_pwr.o
 .text.HAL_PWR_EnableWakeUpPin
                0x0000000000000000       0x20 build/stm32g4xx_hal_pwr.o
 .text.HAL_PWR_DisableWakeUpPin
                0x0000000000000000       0x14 build/stm32g4xx_hal_pwr.o
 .text.HAL_PWR_EnterSLEEPMode
                0x0000000000000000       0x40 build/stm32g4xx_hal_pwr.o
 .text.HAL_PWR_EnterSTOPMode
                0x0000000000000000       0x10 build/stm32g4xx_hal_pwr.o
 .text.HAL_PWR_EnterSTANDBYMode
                0x0000000000000000       0x24 build/stm32g4xx_hal_pwr.o
 .text.HAL_PWR_EnableSleepOnExit
                0x0000000000000000       0x10 build/stm32g4xx_hal_pwr.o
 .text.HAL_PWR_DisableSleepOnExit
                0x0000000000000000       0x10 build/stm32g4xx_hal_pwr.o
 .text.HAL_PWR_EnableSEVOnPend
                0x0000000000000000       0x10 build/stm32g4xx_hal_pwr.o
 .text.HAL_PWR_DisableSEVOnPend
                0x0000000000000000       0x10 build/stm32g4xx_hal_pwr.o
 .text.HAL_PWR_PVDCallback
                0x0000000000000000        0x4 build/stm32g4xx_hal_pwr.o
 .debug_info    0x0000000000000000      0xaba build/stm32g4xx_hal_pwr.o
 .debug_abbrev  0x0000000000000000      0x1bc build/stm32g4xx_hal_pwr.o
 .debug_loc     0x0000000000000000      0x1bb build/stm32g4xx_hal_pwr.o
 .debug_aranges
                0x0000000000000000       0x98 build/stm32g4xx_hal_pwr.o
 .debug_ranges  0x0000000000000000       0x88 build/stm32g4xx_hal_pwr.o
 .debug_line    0x0000000000000000      0x406 build/stm32g4xx_hal_pwr.o
 .debug_str     0x0000000000000000      0x683 build/stm32g4xx_hal_pwr.o
 .comment       0x0000000000000000       0x4e build/stm32g4xx_hal_pwr.o
 .debug_frame   0x0000000000000000      0x124 build/stm32g4xx_hal_pwr.o
 .ARM.attributes
                0x0000000000000000       0x34 build/stm32g4xx_hal_pwr.o
 .text          0x0000000000000000        0x0 build/stm32g4xx_hal_pwr_ex.o
 .data          0x0000000000000000        0x0 build/stm32g4xx_hal_pwr_ex.o
 .bss           0x0000000000000000        0x0 build/stm32g4xx_hal_pwr_ex.o
 .text.HAL_PWREx_GetVoltageRange
                0x0000000000000000       0x24 build/stm32g4xx_hal_pwr_ex.o
 .text.HAL_PWREx_ControlVoltageScaling
                0x0000000000000000       0xfc build/stm32g4xx_hal_pwr_ex.o
 .text.HAL_PWREx_EnableBatteryCharging
                0x0000000000000000       0x1c build/stm32g4xx_hal_pwr_ex.o
 .text.HAL_PWREx_DisableBatteryCharging
                0x0000000000000000       0x10 build/stm32g4xx_hal_pwr_ex.o
 .text.HAL_PWREx_EnableInternalWakeUpLine
                0x0000000000000000       0x10 build/stm32g4xx_hal_pwr_ex.o
 .text.HAL_PWREx_DisableInternalWakeUpLine
                0x0000000000000000       0x10 build/stm32g4xx_hal_pwr_ex.o
 .text.HAL_PWREx_EnableGPIOPullUp
                0x0000000000000000       0xb8 build/stm32g4xx_hal_pwr_ex.o
 .text.HAL_PWREx_DisableGPIOPullUp
                0x0000000000000000       0x88 build/stm32g4xx_hal_pwr_ex.o
 .text.HAL_PWREx_EnableGPIOPullDown
                0x0000000000000000       0xc0 build/stm32g4xx_hal_pwr_ex.o
 .text.HAL_PWREx_DisableGPIOPullDown
                0x0000000000000000       0x84 build/stm32g4xx_hal_pwr_ex.o
 .text.HAL_PWREx_EnablePullUpPullDownConfig
                0x0000000000000000       0x10 build/stm32g4xx_hal_pwr_ex.o
 .text.HAL_PWREx_DisablePullUpPullDownConfig
                0x0000000000000000       0x10 build/stm32g4xx_hal_pwr_ex.o
 .text.HAL_PWREx_EnableSRAM2ContentRetention
                0x0000000000000000       0x10 build/stm32g4xx_hal_pwr_ex.o
 .text.HAL_PWREx_DisableSRAM2ContentRetention
                0x0000000000000000       0x10 build/stm32g4xx_hal_pwr_ex.o
 .text.HAL_PWREx_EnablePVM1
                0x0000000000000000       0x10 build/stm32g4xx_hal_pwr_ex.o
 .text.HAL_PWREx_DisablePVM1
                0x0000000000000000       0x10 build/stm32g4xx_hal_pwr_ex.o
 .text.HAL_PWREx_EnablePVM2
                0x0000000000000000       0x10 build/stm32g4xx_hal_pwr_ex.o
 .text.HAL_PWREx_DisablePVM2
                0x0000000000000000       0x10 build/stm32g4xx_hal_pwr_ex.o
 .text.HAL_PWREx_EnablePVM3
                0x0000000000000000       0x10 build/stm32g4xx_hal_pwr_ex.o
 .text.HAL_PWREx_DisablePVM3
                0x0000000000000000       0x10 build/stm32g4xx_hal_pwr_ex.o
 .text.HAL_PWREx_EnablePVM4
                0x0000000000000000       0x10 build/stm32g4xx_hal_pwr_ex.o
 .text.HAL_PWREx_DisablePVM4
                0x0000000000000000       0x10 build/stm32g4xx_hal_pwr_ex.o
 .text.HAL_PWREx_ConfigPVM
                0x0000000000000000      0x1ac build/stm32g4xx_hal_pwr_ex.o
 .text.HAL_PWREx_EnableLowPowerRunMode
                0x0000000000000000       0x10 build/stm32g4xx_hal_pwr_ex.o
 .text.HAL_PWREx_DisableLowPowerRunMode
                0x0000000000000000       0x50 build/stm32g4xx_hal_pwr_ex.o
 .text.HAL_PWREx_EnterSTOP0Mode
                0x0000000000000000       0x38 build/stm32g4xx_hal_pwr_ex.o
 .text.HAL_PWREx_EnterSTOP1Mode
                0x0000000000000000       0x3c build/stm32g4xx_hal_pwr_ex.o
 .text.HAL_PWREx_EnterSHUTDOWNMode
                0x0000000000000000       0x24 build/stm32g4xx_hal_pwr_ex.o
 .text.HAL_PWREx_PVM1Callback
                0x0000000000000000        0x4 build/stm32g4xx_hal_pwr_ex.o
 .text.HAL_PWREx_PVM2Callback
                0x0000000000000000        0x4 build/stm32g4xx_hal_pwr_ex.o
 .text.HAL_PWREx_PVM3Callback
                0x0000000000000000        0x4 build/stm32g4xx_hal_pwr_ex.o
 .text.HAL_PWREx_PVM4Callback
                0x0000000000000000        0x4 build/stm32g4xx_hal_pwr_ex.o
 .text.HAL_PWREx_PVD_PVM_IRQHandler
                0x0000000000000000       0x64 build/stm32g4xx_hal_pwr_ex.o
 .text.HAL_PWREx_EnableUCPDStandbyMode
                0x0000000000000000       0x10 build/stm32g4xx_hal_pwr_ex.o
 .text.HAL_PWREx_DisableUCPDStandbyMode
                0x0000000000000000       0x10 build/stm32g4xx_hal_pwr_ex.o
 .text.HAL_PWREx_EnableUCPDDeadBattery
                0x0000000000000000       0x10 build/stm32g4xx_hal_pwr_ex.o
 .text          0x0000000000000000        0x0 build/stm32g4xx_hal_cortex.o
 .data          0x0000000000000000        0x0 build/stm32g4xx_hal_cortex.o
 .bss           0x0000000000000000        0x0 build/stm32g4xx_hal_cortex.o
 .text.HAL_NVIC_DisableIRQ
                0x0000000000000000       0x28 build/stm32g4xx_hal_cortex.o
 .text.HAL_NVIC_GetPriorityGrouping
                0x0000000000000000       0x10 build/stm32g4xx_hal_cortex.o
 .text.HAL_NVIC_GetPriority
                0x0000000000000000       0x68 build/stm32g4xx_hal_cortex.o
 .text.HAL_NVIC_SetPendingIRQ
                0x0000000000000000       0x20 build/stm32g4xx_hal_cortex.o
 .text.HAL_NVIC_GetPendingIRQ
                0x0000000000000000       0x24 build/stm32g4xx_hal_cortex.o
 .text.HAL_NVIC_ClearPendingIRQ
                0x0000000000000000       0x20 build/stm32g4xx_hal_cortex.o
 .text.HAL_NVIC_GetActive
                0x0000000000000000       0x24 build/stm32g4xx_hal_cortex.o
 .text.HAL_SYSTICK_CLKSourceConfig
                0x0000000000000000       0x18 build/stm32g4xx_hal_cortex.o
 .text.HAL_SYSTICK_Callback
                0x0000000000000000        0x4 build/stm32g4xx_hal_cortex.o
 .text.HAL_SYSTICK_IRQHandler
                0x0000000000000000        0x8 build/stm32g4xx_hal_cortex.o
 .text.HAL_MPU_Enable
                0x0000000000000000       0x18 build/stm32g4xx_hal_cortex.o
 .text.HAL_MPU_Disable
                0x0000000000000000       0x14 build/stm32g4xx_hal_cortex.o
 .text.HAL_MPU_ConfigRegion
                0x0000000000000000       0x64 build/stm32g4xx_hal_cortex.o
 .text          0x0000000000000000        0x0 build/stm32g4xx_ll_comp.o
 .data          0x0000000000000000        0x0 build/stm32g4xx_ll_comp.o
 .bss           0x0000000000000000        0x0 build/stm32g4xx_ll_comp.o
 .text.LL_COMP_DeInit
                0x0000000000000000       0x10 build/stm32g4xx_ll_comp.o
 .text.LL_COMP_StructInit
                0x0000000000000000       0x14 build/stm32g4xx_ll_comp.o
 .text          0x0000000000000000        0x0 build/stm32g4xx_ll_rcc.o
 .data          0x0000000000000000        0x0 build/stm32g4xx_ll_rcc.o
 .bss           0x0000000000000000        0x0 build/stm32g4xx_ll_rcc.o
 .text.LL_RCC_DeInit
                0x0000000000000000       0x60 build/stm32g4xx_ll_rcc.o
 .text.LL_RCC_GetI2CClockFreq
                0x0000000000000000      0x220 build/stm32g4xx_ll_rcc.o
 .text.LL_RCC_GetLPUARTClockFreq
                0x0000000000000000      0x10c build/stm32g4xx_ll_rcc.o
 .text.LL_RCC_GetLPTIMClockFreq
                0x0000000000000000       0xe0 build/stm32g4xx_ll_rcc.o
 .text.LL_RCC_GetSAIClockFreq
                0x0000000000000000       0xe0 build/stm32g4xx_ll_rcc.o
 .text.LL_RCC_GetI2SClockFreq
                0x0000000000000000       0xe0 build/stm32g4xx_ll_rcc.o
 .text.LL_RCC_GetFDCANClockFreq
                0x0000000000000000      0x100 build/stm32g4xx_ll_rcc.o
 .text.LL_RCC_GetRNGClockFreq
                0x0000000000000000       0x84 build/stm32g4xx_ll_rcc.o
 .text.LL_RCC_GetUSBClockFreq
                0x0000000000000000       0x84 build/stm32g4xx_ll_rcc.o
 .text.LL_RCC_GetADCClockFreq
                0x0000000000000000       0xe4 build/stm32g4xx_ll_rcc.o
 .text          0x0000000000000000        0x0 build/stm32g4xx_ll_cordic.o
 .data          0x0000000000000000        0x0 build/stm32g4xx_ll_cordic.o
 .bss           0x0000000000000000        0x0 build/stm32g4xx_ll_cordic.o
 .text.LL_CORDIC_DeInit
                0x0000000000000000       0x2c build/stm32g4xx_ll_cordic.o
 .debug_info    0x0000000000000000      0x469 build/stm32g4xx_ll_cordic.o
 .debug_abbrev  0x0000000000000000      0x168 build/stm32g4xx_ll_cordic.o
 .debug_loc     0x0000000000000000       0x89 build/stm32g4xx_ll_cordic.o
 .debug_aranges
                0x0000000000000000       0x20 build/stm32g4xx_ll_cordic.o
 .debug_ranges  0x0000000000000000       0x28 build/stm32g4xx_ll_cordic.o
 .debug_line    0x0000000000000000      0x1ef build/stm32g4xx_ll_cordic.o
 .debug_str     0x0000000000000000      0x385 build/stm32g4xx_ll_cordic.o
 .comment       0x0000000000000000       0x4e build/stm32g4xx_ll_cordic.o
 .debug_frame   0x0000000000000000       0x20 build/stm32g4xx_ll_cordic.o
 .ARM.attributes
                0x0000000000000000       0x34 build/stm32g4xx_ll_cordic.o
 .text          0x0000000000000000        0x0 build/stm32g4xx_ll_dac.o
 .data          0x0000000000000000        0x0 build/stm32g4xx_ll_dac.o
 .bss           0x0000000000000000        0x0 build/stm32g4xx_ll_dac.o
 .text.LL_DAC_DeInit
                0x0000000000000000       0x50 build/stm32g4xx_ll_dac.o
 .text.LL_DAC_StructInit
                0x0000000000000000       0x14 build/stm32g4xx_ll_dac.o
 .text          0x0000000000000000        0x0 build/stm32g4xx_ll_i2c.o
 .data          0x0000000000000000        0x0 build/stm32g4xx_ll_i2c.o
 .bss           0x0000000000000000        0x0 build/stm32g4xx_ll_i2c.o
 .text.LL_I2C_DeInit
                0x0000000000000000       0x6c build/stm32g4xx_ll_i2c.o
 .text.LL_I2C_StructInit
                0x0000000000000000       0x18 build/stm32g4xx_ll_i2c.o
 .text          0x0000000000000000        0x0 build/stm32g4xx_ll_opamp.o
 .data          0x0000000000000000        0x0 build/stm32g4xx_ll_opamp.o
 .bss           0x0000000000000000        0x0 build/stm32g4xx_ll_opamp.o
 .text.LL_OPAMP_DeInit
                0x0000000000000000       0x2c build/stm32g4xx_ll_opamp.o
 .text.LL_OPAMP_StructInit
                0x0000000000000000       0x10 build/stm32g4xx_ll_opamp.o
 .text          0x0000000000000000        0x0 build/stm32g4xx_hal_tim.o
 .data          0x0000000000000000        0x0 build/stm32g4xx_hal_tim.o
 .bss           0x0000000000000000        0x0 build/stm32g4xx_hal_tim.o
 .text.TIM_OC1_SetConfig
                0x0000000000000000       0x78 build/stm32g4xx_hal_tim.o
 .text.TIM_OC3_SetConfig
                0x0000000000000000       0x80 build/stm32g4xx_hal_tim.o
 .text.TIM_OC4_SetConfig
                0x0000000000000000       0x80 build/stm32g4xx_hal_tim.o
 .text.HAL_TIM_Base_MspDeInit
                0x0000000000000000        0x4 build/stm32g4xx_hal_tim.o
 .text.HAL_TIM_Base_DeInit
                0x0000000000000000       0x68 build/stm32g4xx_hal_tim.o
 .text.HAL_TIM_Base_Start
                0x0000000000000000       0x68 build/stm32g4xx_hal_tim.o
 .text.HAL_TIM_Base_Stop
                0x0000000000000000       0x28 build/stm32g4xx_hal_tim.o
 .text.HAL_TIM_Base_Stop_IT
                0x0000000000000000       0x30 build/stm32g4xx_hal_tim.o
 .text.HAL_TIM_Base_Start_DMA
                0x0000000000000000       0xac build/stm32g4xx_hal_tim.o
 .text.HAL_TIM_Base_Stop_DMA
                0x0000000000000000       0x3c build/stm32g4xx_hal_tim.o
 .text.HAL_TIM_OC_MspInit
                0x0000000000000000        0x4 build/stm32g4xx_hal_tim.o
 .text.HAL_TIM_OC_Init
                0x0000000000000000      0x120 build/stm32g4xx_hal_tim.o
 .text.HAL_TIM_OC_MspDeInit
                0x0000000000000000        0x4 build/stm32g4xx_hal_tim.o
 .text.HAL_TIM_OC_DeInit
                0x0000000000000000       0x68 build/stm32g4xx_hal_tim.o
 .text.HAL_TIM_OC_Start
                0x0000000000000000      0x124 build/stm32g4xx_hal_tim.o
 .text.HAL_TIM_OC_Stop
                0x0000000000000000       0xd0 build/stm32g4xx_hal_tim.o
 .text.HAL_TIM_OC_Start_IT
                0x0000000000000000      0x180 build/stm32g4xx_hal_tim.o
 .text.HAL_TIM_OC_Stop_IT
                0x0000000000000000      0x114 build/stm32g4xx_hal_tim.o
 .text.HAL_TIM_OC_Start_DMA
                0x0000000000000000      0x2b8 build/stm32g4xx_hal_tim.o
 .text.HAL_TIM_OC_Stop_DMA
                0x0000000000000000      0x120 build/stm32g4xx_hal_tim.o
 .text.HAL_TIM_PWM_MspInit
                0x0000000000000000        0x4 build/stm32g4xx_hal_tim.o
 .text.HAL_TIM_PWM_Init
                0x0000000000000000      0x120 build/stm32g4xx_hal_tim.o
 .text.HAL_TIM_PWM_MspDeInit
                0x0000000000000000        0x4 build/stm32g4xx_hal_tim.o
 .text.HAL_TIM_PWM_DeInit
                0x0000000000000000       0x68 build/stm32g4xx_hal_tim.o
 .text.HAL_TIM_PWM_Start
                0x0000000000000000      0x124 build/stm32g4xx_hal_tim.o
 .text.HAL_TIM_PWM_Stop
                0x0000000000000000       0xd0 build/stm32g4xx_hal_tim.o
 .text.HAL_TIM_PWM_Start_IT
                0x0000000000000000      0x180 build/stm32g4xx_hal_tim.o
 .text.HAL_TIM_PWM_Stop_IT
                0x0000000000000000      0x114 build/stm32g4xx_hal_tim.o
 .text.HAL_TIM_PWM_Start_DMA
                0x0000000000000000      0x2b8 build/stm32g4xx_hal_tim.o
 .text.HAL_TIM_PWM_Stop_DMA
                0x0000000000000000      0x120 build/stm32g4xx_hal_tim.o
 .text.HAL_TIM_IC_MspInit
                0x0000000000000000        0x4 build/stm32g4xx_hal_tim.o
 .text.HAL_TIM_IC_Init
                0x0000000000000000      0x120 build/stm32g4xx_hal_tim.o
 .text.HAL_TIM_IC_MspDeInit
                0x0000000000000000        0x4 build/stm32g4xx_hal_tim.o
 .text.HAL_TIM_IC_DeInit
                0x0000000000000000       0x68 build/stm32g4xx_hal_tim.o
 .text.HAL_TIM_IC_Start
                0x0000000000000000      0x120 build/stm32g4xx_hal_tim.o
 .text.HAL_TIM_IC_Stop
                0x0000000000000000       0x9c build/stm32g4xx_hal_tim.o
 .text.HAL_TIM_IC_Start_IT
                0x0000000000000000      0x188 build/stm32g4xx_hal_tim.o
 .text.HAL_TIM_IC_Stop_IT
                0x0000000000000000      0x148 build/stm32g4xx_hal_tim.o
 .text.HAL_TIM_IC_Start_DMA
                0x0000000000000000      0x26c build/stm32g4xx_hal_tim.o
 .text.HAL_TIM_IC_Stop_DMA
                0x0000000000000000      0x130 build/stm32g4xx_hal_tim.o
 .text.HAL_TIM_OnePulse_MspInit
                0x0000000000000000        0x4 build/stm32g4xx_hal_tim.o
 .text.HAL_TIM_OnePulse_Init
                0x0000000000000000       0xf8 build/stm32g4xx_hal_tim.o
 .text.HAL_TIM_OnePulse_MspDeInit
                0x0000000000000000        0x4 build/stm32g4xx_hal_tim.o
 .text.HAL_TIM_OnePulse_DeInit
                0x0000000000000000       0x50 build/stm32g4xx_hal_tim.o
 .text.HAL_TIM_OnePulse_Start
                0x0000000000000000       0xb4 build/stm32g4xx_hal_tim.o
 .text.HAL_TIM_OnePulse_Stop
                0x0000000000000000       0x98 build/stm32g4xx_hal_tim.o
 .text.HAL_TIM_OnePulse_Start_IT
                0x0000000000000000       0xc4 build/stm32g4xx_hal_tim.o
 .text.HAL_TIM_OnePulse_Stop_IT
                0x0000000000000000       0xa8 build/stm32g4xx_hal_tim.o
 .text.HAL_TIM_Encoder_MspInit
                0x0000000000000000        0x4 build/stm32g4xx_hal_tim.o
 .text.HAL_TIM_Encoder_Init
                0x0000000000000000      0x148 build/stm32g4xx_hal_tim.o
 .text.HAL_TIM_Encoder_MspDeInit
                0x0000000000000000        0x4 build/stm32g4xx_hal_tim.o
 .text.HAL_TIM_Encoder_DeInit
                0x0000000000000000       0x50 build/stm32g4xx_hal_tim.o
 .text.HAL_TIM_Encoder_Start
                0x0000000000000000       0xc4 build/stm32g4xx_hal_tim.o
 .text.HAL_TIM_Encoder_Stop
                0x0000000000000000       0xac build/stm32g4xx_hal_tim.o
 .text.HAL_TIM_Encoder_Start_IT
                0x0000000000000000       0xf4 build/stm32g4xx_hal_tim.o
 .text.HAL_TIM_Encoder_Stop_IT
                0x0000000000000000       0xe0 build/stm32g4xx_hal_tim.o
 .text.HAL_TIM_Encoder_Start_DMA
                0x0000000000000000      0x1c4 build/stm32g4xx_hal_tim.o
 .text.HAL_TIM_Encoder_Stop_DMA
                0x0000000000000000       0xf8 build/stm32g4xx_hal_tim.o
 .text.HAL_TIM_IC_ConfigChannel
                0x0000000000000000      0x1ac build/stm32g4xx_hal_tim.o
 .text.HAL_TIM_DMABurst_WriteStart
                0x0000000000000000      0x114 build/stm32g4xx_hal_tim.o
 .text.HAL_TIM_DMABurst_MultiWriteStart
                0x0000000000000000       0xf4 build/stm32g4xx_hal_tim.o
 .text.HAL_TIM_DMABurst_WriteStop
                0x0000000000000000       0x80 build/stm32g4xx_hal_tim.o
 .text.HAL_TIM_DMABurst_ReadStart
                0x0000000000000000      0x114 build/stm32g4xx_hal_tim.o
 .text.HAL_TIM_DMABurst_MultiReadStart
                0x0000000000000000       0xfc build/stm32g4xx_hal_tim.o
 .text.HAL_TIM_DMABurst_ReadStop
                0x0000000000000000       0x80 build/stm32g4xx_hal_tim.o
 .text.HAL_TIM_GenerateEvent
                0x0000000000000000       0x2c build/stm32g4xx_hal_tim.o
 .text.HAL_TIM_ConfigOCrefClear
                0x0000000000000000      0x214 build/stm32g4xx_hal_tim.o
 .text.HAL_TIM_ConfigClockSource
                0x0000000000000000      0x1a8 build/stm32g4xx_hal_tim.o
 .text.HAL_TIM_ConfigTI1Input
                0x0000000000000000       0x10 build/stm32g4xx_hal_tim.o
 .text.HAL_TIM_SlaveConfigSynchro
                0x0000000000000000      0x14c build/stm32g4xx_hal_tim.o
 .text.HAL_TIM_SlaveConfigSynchro_IT
                0x0000000000000000      0x14c build/stm32g4xx_hal_tim.o
 .text.HAL_TIM_ReadCapturedValue
                0x0000000000000000       0x34 build/stm32g4xx_hal_tim.o
 .text.HAL_TIM_PeriodElapsedCallback
                0x0000000000000000        0x4 build/stm32g4xx_hal_tim.o
 .text.TIM_DMAPeriodElapsedCplt
                0x0000000000000000       0x18 build/stm32g4xx_hal_tim.o
 .text.HAL_TIM_PeriodElapsedHalfCpltCallback
                0x0000000000000000        0x4 build/stm32g4xx_hal_tim.o
 .text.TIM_DMAPeriodElapsedHalfCplt
                0x0000000000000000        0xc build/stm32g4xx_hal_tim.o
 .text.TIM_DMACaptureCplt
                0x0000000000000000       0x94 build/stm32g4xx_hal_tim.o
 .text.HAL_TIM_IC_CaptureHalfCpltCallback
                0x0000000000000000        0x4 build/stm32g4xx_hal_tim.o
 .text.TIM_DMACaptureHalfCplt
                0x0000000000000000       0x5c build/stm32g4xx_hal_tim.o
 .text.TIM_DMADelayPulseCplt
                0x0000000000000000       0x84 build/stm32g4xx_hal_tim.o
 .text.HAL_TIM_PWM_PulseFinishedHalfCpltCallback
                0x0000000000000000        0x4 build/stm32g4xx_hal_tim.o
 .text.TIM_DMADelayPulseHalfCplt
                0x0000000000000000       0x5c build/stm32g4xx_hal_tim.o
 .text.TIM_DMATriggerCplt
                0x0000000000000000       0x18 build/stm32g4xx_hal_tim.o
 .text.HAL_TIM_TriggerHalfCpltCallback
                0x0000000000000000        0x4 build/stm32g4xx_hal_tim.o
 .text.TIM_DMATriggerHalfCplt
                0x0000000000000000        0xc build/stm32g4xx_hal_tim.o
 .text.HAL_TIM_ErrorCallback
                0x0000000000000000        0x4 build/stm32g4xx_hal_tim.o
 .text.TIM_DMAError
                0x0000000000000000       0x84 build/stm32g4xx_hal_tim.o
 .text.HAL_TIM_Base_GetState
                0x0000000000000000        0x8 build/stm32g4xx_hal_tim.o
 .text.HAL_TIM_OC_GetState
                0x0000000000000000        0x8 build/stm32g4xx_hal_tim.o
 .text.HAL_TIM_PWM_GetState
                0x0000000000000000        0x8 build/stm32g4xx_hal_tim.o
 .text.HAL_TIM_IC_GetState
                0x0000000000000000        0x8 build/stm32g4xx_hal_tim.o
 .text.HAL_TIM_OnePulse_GetState
                0x0000000000000000        0x8 build/stm32g4xx_hal_tim.o
 .text.HAL_TIM_Encoder_GetState
                0x0000000000000000        0x8 build/stm32g4xx_hal_tim.o
 .text.HAL_TIM_GetActiveChannel
                0x0000000000000000        0x4 build/stm32g4xx_hal_tim.o
 .text.HAL_TIM_GetChannelState
                0x0000000000000000       0x40 build/stm32g4xx_hal_tim.o
 .text.HAL_TIM_DMABurstState
                0x0000000000000000        0x8 build/stm32g4xx_hal_tim.o
 .text.TIM_Base_SetConfig
                0x0000000000000000       0xd8 build/stm32g4xx_hal_tim.o
 .text.TIM_OC2_SetConfig
                0x0000000000000000       0x80 build/stm32g4xx_hal_tim.o
 .text.HAL_TIM_OC_ConfigChannel
                0x0000000000000000      0x15c build/stm32g4xx_hal_tim.o
 .text.HAL_TIM_PWM_ConfigChannel
                0x0000000000000000      0x1fc build/stm32g4xx_hal_tim.o
 .text.HAL_TIM_OnePulse_ConfigChannel
                0x0000000000000000      0x170 build/stm32g4xx_hal_tim.o
 .text.TIM_TI1_SetConfig
                0x0000000000000000       0x68 build/stm32g4xx_hal_tim.o
 .text.TIM_ETR_SetConfig
                0x0000000000000000       0x18 build/stm32g4xx_hal_tim.o
 .text.TIM_CCxChannelCmd
                0x0000000000000000       0x20 build/stm32g4xx_hal_tim.o
 .text          0x0000000000000000        0x0 build/stm32g4xx_hal_tim_ex.o
 .data          0x0000000000000000        0x0 build/stm32g4xx_hal_tim_ex.o
 .bss           0x0000000000000000        0x0 build/stm32g4xx_hal_tim_ex.o
 .text.TIM_DMAErrorCCxN
                0x0000000000000000       0x80 build/stm32g4xx_hal_tim_ex.o
 .text.TIM_DMADelayPulseNCplt
                0x0000000000000000       0x84 build/stm32g4xx_hal_tim_ex.o
 .text.HAL_TIMEx_HallSensor_MspInit
                0x0000000000000000        0x4 build/stm32g4xx_hal_tim_ex.o
 .text.HAL_TIMEx_HallSensor_Init
                0x0000000000000000       0xd4 build/stm32g4xx_hal_tim_ex.o
 .text.HAL_TIMEx_HallSensor_MspDeInit
                0x0000000000000000        0x4 build/stm32g4xx_hal_tim_ex.o
 .text.HAL_TIMEx_HallSensor_DeInit
                0x0000000000000000       0x50 build/stm32g4xx_hal_tim_ex.o
 .text.HAL_TIMEx_HallSensor_Start
                0x0000000000000000       0xa8 build/stm32g4xx_hal_tim_ex.o
 .text.HAL_TIMEx_HallSensor_Stop
                0x0000000000000000       0x44 build/stm32g4xx_hal_tim_ex.o
 .text.HAL_TIMEx_HallSensor_Start_IT
                0x0000000000000000       0xb0 build/stm32g4xx_hal_tim_ex.o
 .text.HAL_TIMEx_HallSensor_Stop_IT
                0x0000000000000000       0x4c build/stm32g4xx_hal_tim_ex.o
 .text.HAL_TIMEx_HallSensor_Start_DMA
                0x0000000000000000       0xd8 build/stm32g4xx_hal_tim_ex.o
 .text.HAL_TIMEx_HallSensor_Stop_DMA
                0x0000000000000000       0x4c build/stm32g4xx_hal_tim_ex.o
 .text.HAL_TIMEx_OCN_Start
                0x0000000000000000       0xc8 build/stm32g4xx_hal_tim_ex.o
 .text.HAL_TIMEx_OCN_Stop
                0x0000000000000000       0x8c build/stm32g4xx_hal_tim_ex.o
 .text.HAL_TIMEx_OCN_Start_IT
                0x0000000000000000      0x12c build/stm32g4xx_hal_tim_ex.o
 .text.HAL_TIMEx_OCN_Stop_IT
                0x0000000000000000       0xe0 build/stm32g4xx_hal_tim_ex.o
 .text.HAL_TIMEx_OCN_Start_DMA
                0x0000000000000000      0x1ec build/stm32g4xx_hal_tim_ex.o
 .text.HAL_TIMEx_OCN_Stop_DMA
                0x0000000000000000       0xdc build/stm32g4xx_hal_tim_ex.o
 .text.HAL_TIMEx_PWMN_Start
                0x0000000000000000       0xc8 build/stm32g4xx_hal_tim_ex.o
 .text.HAL_TIMEx_PWMN_Stop
                0x0000000000000000       0x8c build/stm32g4xx_hal_tim_ex.o
 .text.HAL_TIMEx_PWMN_Start_IT
                0x0000000000000000      0x12c build/stm32g4xx_hal_tim_ex.o
 .text.HAL_TIMEx_PWMN_Stop_IT
                0x0000000000000000       0xe0 build/stm32g4xx_hal_tim_ex.o
 .text.HAL_TIMEx_PWMN_Start_DMA
                0x0000000000000000      0x1ec build/stm32g4xx_hal_tim_ex.o
 .text.HAL_TIMEx_PWMN_Stop_DMA
                0x0000000000000000       0xdc build/stm32g4xx_hal_tim_ex.o
 .text.HAL_TIMEx_OnePulseN_Start
                0x0000000000000000       0x88 build/stm32g4xx_hal_tim_ex.o
 .text.HAL_TIMEx_OnePulseN_Stop
                0x0000000000000000       0x80 build/stm32g4xx_hal_tim_ex.o
 .text.HAL_TIMEx_OnePulseN_Start_IT
                0x0000000000000000       0x98 build/stm32g4xx_hal_tim_ex.o
 .text.HAL_TIMEx_OnePulseN_Stop_IT
                0x0000000000000000       0x90 build/stm32g4xx_hal_tim_ex.o
 .text.HAL_TIMEx_ConfigCommutEvent
                0x0000000000000000       0x8c build/stm32g4xx_hal_tim_ex.o
 .text.HAL_TIMEx_ConfigCommutEvent_IT
                0x0000000000000000       0x8c build/stm32g4xx_hal_tim_ex.o
 .text.HAL_TIMEx_ConfigCommutEvent_DMA
                0x0000000000000000       0xa0 build/stm32g4xx_hal_tim_ex.o
 .text.HAL_TIMEx_MasterConfigSynchronization
                0x0000000000000000       0x94 build/stm32g4xx_hal_tim_ex.o
 .text.HAL_TIMEx_ConfigBreakDeadTime
                0x0000000000000000       0x9c build/stm32g4xx_hal_tim_ex.o
 .text.HAL_TIMEx_ConfigBreakInput
                0x0000000000000000       0xb8 build/stm32g4xx_hal_tim_ex.o
 .text.HAL_TIMEx_RemapConfig
                0x0000000000000000       0x28 build/stm32g4xx_hal_tim_ex.o
 .text.HAL_TIMEx_TISelection
                0x0000000000000000       0xa4 build/stm32g4xx_hal_tim_ex.o
 .text.HAL_TIMEx_GroupChannel5
                0x0000000000000000       0x3c build/stm32g4xx_hal_tim_ex.o
 .text.HAL_TIMEx_DisarmBreakInput
                0x0000000000000000       0x4c build/stm32g4xx_hal_tim_ex.o
 .text.HAL_TIMEx_ReArmBreakInput
                0x0000000000000000       0x6c build/stm32g4xx_hal_tim_ex.o
 .text.HAL_TIMEx_DitheringEnable
                0x0000000000000000       0x10 build/stm32g4xx_hal_tim_ex.o
 .text.HAL_TIMEx_DitheringDisable
                0x0000000000000000       0x10 build/stm32g4xx_hal_tim_ex.o
 .text.HAL_TIMEx_OC_ConfigPulseOnCompare
                0x0000000000000000       0x40 build/stm32g4xx_hal_tim_ex.o
 .text.HAL_TIMEx_ConfigSlaveModePreload
                0x0000000000000000       0x10 build/stm32g4xx_hal_tim_ex.o
 .text.HAL_TIMEx_EnableSlaveModePreload
                0x0000000000000000       0x10 build/stm32g4xx_hal_tim_ex.o
 .text.HAL_TIMEx_DisableSlaveModePreload
                0x0000000000000000       0x10 build/stm32g4xx_hal_tim_ex.o
 .text.HAL_TIMEx_EnableDeadTimePreload
                0x0000000000000000       0x10 build/stm32g4xx_hal_tim_ex.o
 .text.HAL_TIMEx_DisableDeadTimePreload
                0x0000000000000000       0x10 build/stm32g4xx_hal_tim_ex.o
 .text.HAL_TIMEx_ConfigDeadTime
                0x0000000000000000       0x10 build/stm32g4xx_hal_tim_ex.o
 .text.HAL_TIMEx_ConfigAsymmetricalDeadTime
                0x0000000000000000       0x10 build/stm32g4xx_hal_tim_ex.o
 .text.HAL_TIMEx_EnableAsymmetricalDeadTime
                0x0000000000000000       0x10 build/stm32g4xx_hal_tim_ex.o
 .text.HAL_TIMEx_DisableAsymmetricalDeadTime
                0x0000000000000000       0x10 build/stm32g4xx_hal_tim_ex.o
 .text.HAL_TIMEx_ConfigEncoderIndex
                0x0000000000000000       0x54 build/stm32g4xx_hal_tim_ex.o
 .text.HAL_TIMEx_EnableEncoderIndex
                0x0000000000000000       0x10 build/stm32g4xx_hal_tim_ex.o
 .text.HAL_TIMEx_DisableEncoderIndex
                0x0000000000000000       0x10 build/stm32g4xx_hal_tim_ex.o
 .text.HAL_TIMEx_EnableEncoderFirstIndex
                0x0000000000000000       0x10 build/stm32g4xx_hal_tim_ex.o
 .text.HAL_TIMEx_DisableEncoderFirstIndex
                0x0000000000000000       0x10 build/stm32g4xx_hal_tim_ex.o
 .text.TIMEx_DMACommutationCplt
                0x0000000000000000       0x10 build/stm32g4xx_hal_tim_ex.o
 .text.HAL_TIMEx_CommutHalfCpltCallback
                0x0000000000000000        0x4 build/stm32g4xx_hal_tim_ex.o
 .text.TIMEx_DMACommutationHalfCplt
                0x0000000000000000       0x10 build/stm32g4xx_hal_tim_ex.o
 .text.HAL_TIMEx_HallSensor_GetState
                0x0000000000000000        0x8 build/stm32g4xx_hal_tim_ex.o
 .text.HAL_TIMEx_GetChannelNState
                0x0000000000000000       0x28 build/stm32g4xx_hal_tim_ex.o
 .rodata.CSWTCH.112
                0x0000000000000000       0x40 build/stm32g4xx_hal_tim_ex.o
 .rodata.CSWTCH.113
                0x0000000000000000       0x40 build/stm32g4xx_hal_tim_ex.o
 .rodata.CSWTCH.114
                0x0000000000000000       0x40 build/stm32g4xx_hal_tim_ex.o
 .rodata.CSWTCH.115
                0x0000000000000000       0x40 build/stm32g4xx_hal_tim_ex.o
 .text          0x0000000000000000        0x0 build/stm32g4xx_ll_tim.o
 .data          0x0000000000000000        0x0 build/stm32g4xx_ll_tim.o
 .bss           0x0000000000000000        0x0 build/stm32g4xx_ll_tim.o
 .text.LL_TIM_DeInit
                0x0000000000000000      0x158 build/stm32g4xx_ll_tim.o
 .text.LL_TIM_StructInit
                0x0000000000000000       0x14 build/stm32g4xx_ll_tim.o
 .text.LL_TIM_OC_StructInit
                0x0000000000000000       0x14 build/stm32g4xx_ll_tim.o
 .text.LL_TIM_IC_StructInit
                0x0000000000000000       0x10 build/stm32g4xx_ll_tim.o
 .text.LL_TIM_IC_Init
                0x0000000000000000      0x100 build/stm32g4xx_ll_tim.o
 .text.LL_TIM_ENCODER_StructInit
                0x0000000000000000       0x1c build/stm32g4xx_ll_tim.o
 .text.LL_TIM_ENCODER_Init
                0x0000000000000000       0x64 build/stm32g4xx_ll_tim.o
 .text.LL_TIM_HALLSENSOR_StructInit
                0x0000000000000000        0xc build/stm32g4xx_ll_tim.o
 .text.LL_TIM_HALLSENSOR_Init
                0x0000000000000000       0x60 build/stm32g4xx_ll_tim.o
 .text.LL_TIM_BDTR_StructInit
                0x0000000000000000       0x20 build/stm32g4xx_ll_tim.o
 .text          0x0000000000000000        0x0 build/stm32g4xx_ll_usart.o
 .data          0x0000000000000000        0x0 build/stm32g4xx_ll_usart.o
 .bss           0x0000000000000000        0x0 build/stm32g4xx_ll_usart.o
 .text.LL_USART_DeInit
                0x0000000000000000       0x8c build/stm32g4xx_ll_usart.o
 .text.LL_USART_StructInit
                0x0000000000000000       0x1c build/stm32g4xx_ll_usart.o
 .text.LL_USART_ClockInit
                0x0000000000000000       0x34 build/stm32g4xx_ll_usart.o
 .text.LL_USART_ClockStructInit
                0x0000000000000000        0xc build/stm32g4xx_ll_usart.o
 .text          0x0000000000000000        0x0 build/system_stm32g4xx.o
 .data          0x0000000000000000        0x0 build/system_stm32g4xx.o
 .bss           0x0000000000000000        0x0 build/system_stm32g4xx.o
 .text.SystemCoreClockUpdate
                0x0000000000000000       0x84 build/system_stm32g4xx.o
 .text          0x0000000000000000        0x0 build/croutine.o
 .data          0x0000000000000000        0x0 build/croutine.o
 .bss           0x0000000000000000        0x0 build/croutine.o
 .debug_info    0x0000000000000000       0x72 build/croutine.o
 .debug_abbrev  0x0000000000000000       0x26 build/croutine.o
 .debug_aranges
                0x0000000000000000       0x18 build/croutine.o
 .debug_line    0x0000000000000000       0x1d build/croutine.o
 .debug_str     0x0000000000000000      0x191 build/croutine.o
 .comment       0x0000000000000000       0x4e build/croutine.o
 .ARM.attributes
                0x0000000000000000       0x39 build/croutine.o
 .text          0x0000000000000000        0x0 build/event_groups.o
 .data          0x0000000000000000        0x0 build/event_groups.o
 .bss           0x0000000000000000        0x0 build/event_groups.o
 .text.xEventGroupCreate
                0x0000000000000000       0x1c build/event_groups.o
 .text.xEventGroupWaitBits
                0x0000000000000000      0x110 build/event_groups.o
 .text.xEventGroupClearBits
                0x0000000000000000       0x48 build/event_groups.o
 .text.xEventGroupGetBitsFromISR
                0x0000000000000000       0x1c build/event_groups.o
 .text.xEventGroupSetBits
                0x0000000000000000       0x94 build/event_groups.o
 .text.xEventGroupSync
                0x0000000000000000       0xf0 build/event_groups.o
 .text.vEventGroupDelete
                0x0000000000000000       0x44 build/event_groups.o
 .text.vEventGroupSetBitsCallback
                0x0000000000000000       0x94 build/event_groups.o
 .text.vEventGroupClearBitsCallback
                0x0000000000000000       0x48 build/event_groups.o
 .debug_info    0x0000000000000000      0xfda build/event_groups.o
 .debug_abbrev  0x0000000000000000      0x2f0 build/event_groups.o
 .debug_loc     0x0000000000000000     0x1093 build/event_groups.o
 .debug_aranges
                0x0000000000000000       0x60 build/event_groups.o
 .debug_ranges  0x0000000000000000      0x110 build/event_groups.o
 .debug_line    0x0000000000000000      0xb9c build/event_groups.o
 .debug_str     0x0000000000000000      0x63b build/event_groups.o
 .comment       0x0000000000000000       0x4e build/event_groups.o
 .debug_frame   0x0000000000000000      0x13c build/event_groups.o
 .ARM.attributes
                0x0000000000000000       0x34 build/event_groups.o
 .text          0x0000000000000000        0x0 build/list.o
 .data          0x0000000000000000        0x0 build/list.o
 .bss           0x0000000000000000        0x0 build/list.o
 .text          0x0000000000000000        0x0 build/queue.o
 .data          0x0000000000000000        0x0 build/queue.o
 .bss           0x0000000000000000        0x0 build/queue.o
 .text.prvCopyDataToQueue
                0x0000000000000000       0x78 build/queue.o
 .text.xQueueGenericReset
                0x0000000000000000       0x8c build/queue.o
 .text.xQueueGenericCreate
                0x0000000000000000       0x78 build/queue.o
 .text.xQueueGenericSend
                0x0000000000000000      0x2fc build/queue.o
 .text.xQueueCreateMutex
                0x0000000000000000       0x68 build/queue.o
 .text.xQueueGenericSendFromISR
                0x0000000000000000       0xcc build/queue.o
 .text.xQueueGiveFromISR
                0x0000000000000000       0xb0 build/queue.o
 .text.xQueueReceive
                0x0000000000000000      0x304 build/queue.o
 .text.xQueueSemaphoreTake
                0x0000000000000000      0x314 build/queue.o
 .text.xQueuePeek
                0x0000000000000000      0x2f4 build/queue.o
 .text.xQueueReceiveFromISR
                0x0000000000000000       0xbc build/queue.o
 .text.xQueuePeekFromISR
                0x0000000000000000       0x8c build/queue.o
 .text.uxQueueMessagesWaiting
                0x0000000000000000       0x2c build/queue.o
 .text.uxQueueSpacesAvailable
                0x0000000000000000       0x30 build/queue.o
 .text.uxQueueMessagesWaitingFromISR
                0x0000000000000000       0x18 build/queue.o
 .text.vQueueDelete
                0x0000000000000000       0x84 build/queue.o
 .text.xQueueIsQueueEmptyFromISR
                0x0000000000000000       0x20 build/queue.o
 .text.xQueueIsQueueFullFromISR
                0x0000000000000000       0x24 build/queue.o
 .text.vQueueAddToRegistry
                0x0000000000000000       0x50 build/queue.o
 .text.pcQueueGetName
                0x0000000000000000       0x60 build/queue.o
 .text.vQueueUnregisterQueue
                0x0000000000000000       0x64 build/queue.o
 .bss.xQueueRegistry
                0x0000000000000000       0x40 build/queue.o
 .debug_info    0x0000000000000000     0x2ce6 build/queue.o
 .debug_abbrev  0x0000000000000000      0x42f build/queue.o
 .debug_loc     0x0000000000000000     0x2607 build/queue.o
 .debug_aranges
                0x0000000000000000       0xc0 build/queue.o
 .debug_ranges  0x0000000000000000      0x410 build/queue.o
 .debug_line    0x0000000000000000     0x28b6 build/queue.o
 .debug_str     0x0000000000000000      0xa34 build/queue.o
 .comment       0x0000000000000000       0x4e build/queue.o
 .debug_frame   0x0000000000000000      0x294 build/queue.o
 .ARM.attributes
                0x0000000000000000       0x34 build/queue.o
 .text          0x0000000000000000        0x0 build/stream_buffer.o
 .data          0x0000000000000000        0x0 build/stream_buffer.o
 .bss           0x0000000000000000        0x0 build/stream_buffer.o
 .text.prvReadBytesFromBuffer
                0x0000000000000000       0xa8 build/stream_buffer.o
 .text.prvWriteBytesToBuffer.part.0
                0x0000000000000000       0x74 build/stream_buffer.o
 .text.xStreamBufferGenericCreate
                0x0000000000000000       0xa8 build/stream_buffer.o
 .text.vStreamBufferDelete
                0x0000000000000000       0x28 build/stream_buffer.o
 .text.xStreamBufferReset
                0x0000000000000000       0x80 build/stream_buffer.o
 .text.xStreamBufferSetTriggerLevel
                0x0000000000000000       0x28 build/stream_buffer.o
 .text.xStreamBufferSpacesAvailable
                0x0000000000000000       0x28 build/stream_buffer.o
 .text.xStreamBufferBytesAvailable
                0x0000000000000000       0x28 build/stream_buffer.o
 .text.xStreamBufferSend
                0x0000000000000000      0x16c build/stream_buffer.o
 .text.xStreamBufferSendFromISR
                0x0000000000000000       0xec build/stream_buffer.o
 .text.xStreamBufferReceive
                0x0000000000000000      0x114 build/stream_buffer.o
 .text.xStreamBufferNextMessageLengthBytes
                0x0000000000000000       0x68 build/stream_buffer.o
 .text.xStreamBufferReceiveFromISR
                0x0000000000000000       0xc8 build/stream_buffer.o
 .text.xStreamBufferIsEmpty
                0x0000000000000000       0x24 build/stream_buffer.o
 .text.xStreamBufferIsFull
                0x0000000000000000       0x40 build/stream_buffer.o
 .text.xStreamBufferSendCompletedFromISR
                0x0000000000000000       0x50 build/stream_buffer.o
 .text.xStreamBufferReceiveCompletedFromISR
                0x0000000000000000       0x50 build/stream_buffer.o
 .debug_info    0x0000000000000000     0x20e2 build/stream_buffer.o
 .debug_abbrev  0x0000000000000000      0x3cc build/stream_buffer.o
 .debug_loc     0x0000000000000000     0x2666 build/stream_buffer.o
 .debug_aranges
                0x0000000000000000       0xa0 build/stream_buffer.o
 .debug_ranges  0x0000000000000000      0x268 build/stream_buffer.o
 .debug_line    0x0000000000000000     0x1a76 build/stream_buffer.o
 .debug_str     0x0000000000000000      0x886 build/stream_buffer.o
 .comment       0x0000000000000000       0x4e build/stream_buffer.o
 .debug_frame   0x0000000000000000      0x278 build/stream_buffer.o
 .ARM.attributes
                0x0000000000000000       0x34 build/stream_buffer.o
 .text          0x0000000000000000        0x0 build/tasks.o
 .data          0x0000000000000000        0x0 build/tasks.o
 .bss           0x0000000000000000        0x0 build/tasks.o
 .text.vTaskDelete
                0x0000000000000000      0x108 build/tasks.o
 .text.uxTaskPriorityGet
                0x0000000000000000       0x24 build/tasks.o
 .text.uxTaskPriorityGetFromISR
                0x0000000000000000       0x38 build/tasks.o
 .text.vTaskPrioritySet
                0x0000000000000000       0xe4 build/tasks.o
 .text.vTaskResume
                0x0000000000000000       0xa4 build/tasks.o
 .text.xTaskResumeFromISR
                0x0000000000000000       0xbc build/tasks.o
 .text.vTaskEndScheduler
                0x0000000000000000       0x20 build/tasks.o
 .text.xTaskGetTickCount
                0x0000000000000000        0xc build/tasks.o
 .text.xTaskGetTickCountFromISR
                0x0000000000000000       0x10 build/tasks.o
 .text.uxTaskGetNumberOfTasks
                0x0000000000000000        0xc build/tasks.o
 .text.pcTaskGetName
                0x0000000000000000       0x24 build/tasks.o
 .text.xTaskCatchUpTicks
                0x0000000000000000       0x48 build/tasks.o
 .text.vTaskSuspend
                0x0000000000000000      0x108 build/tasks.o
 .text.vTaskPlaceOnEventList
                0x0000000000000000       0xa0 build/tasks.o
 .text.vTaskPlaceOnUnorderedEventList
                0x0000000000000000       0x58 build/tasks.o
 .text.xTaskRemoveFromEventList
                0x0000000000000000       0x90 build/tasks.o
 .text.vTaskRemoveFromUnorderedEventList
                0x0000000000000000       0x88 build/tasks.o
 .text.vTaskSetTimeOutState
                0x0000000000000000       0x38 build/tasks.o
 .text.vTaskInternalSetTimeOutState
                0x0000000000000000       0x18 build/tasks.o
 .text.xTaskCheckForTimeOut
                0x0000000000000000       0x90 build/tasks.o
 .text.vTaskMissedYield
                0x0000000000000000        0xc build/tasks.o
 .text.xTaskGetCurrentTaskHandle
                0x0000000000000000        0xc build/tasks.o
 .text.xTaskGetSchedulerState
                0x0000000000000000       0x20 build/tasks.o
 .text.xTaskPriorityInherit
                0x0000000000000000       0xa0 build/tasks.o
 .text.xTaskPriorityDisinherit
                0x0000000000000000       0xb8 build/tasks.o
 .text.vTaskPriorityDisinheritAfterTimeout
                0x0000000000000000       0xc0 build/tasks.o
 .text.uxTaskResetEventItemValue
                0x0000000000000000       0x18 build/tasks.o
 .text.pvTaskIncrementMutexHeldCount
                0x0000000000000000       0x18 build/tasks.o
 .text.ulTaskNotifyTake
                0x0000000000000000       0x68 build/tasks.o
 .text.xTaskNotifyWait
                0x0000000000000000       0x98 build/tasks.o
 .text.xTaskGenericNotify
                0x0000000000000000       0xf4 build/tasks.o
 .text.xTaskGenericNotifyFromISR
                0x0000000000000000      0x120 build/tasks.o
 .text.vTaskNotifyGiveFromISR
                0x0000000000000000       0xd8 build/tasks.o
 .text.xTaskNotifyStateClear
                0x0000000000000000       0x34 build/tasks.o
 .text.ulTaskNotifyValueClear
                0x0000000000000000       0x34 build/tasks.o
 .text          0x0000000000000000        0x0 build/timers.o
 .data          0x0000000000000000        0x0 build/timers.o
 .bss           0x0000000000000000        0x0 build/timers.o
 .debug_info    0x0000000000000000       0x72 build/timers.o
 .debug_abbrev  0x0000000000000000       0x26 build/timers.o
 .debug_aranges
                0x0000000000000000       0x18 build/timers.o
 .debug_line    0x0000000000000000       0x1d build/timers.o
 .debug_str     0x0000000000000000      0x18f build/timers.o
 .comment       0x0000000000000000       0x4e build/timers.o
 .ARM.attributes
                0x0000000000000000       0x39 build/timers.o
 .text          0x0000000000000000        0x0 build/cmsis_os.o
 .data          0x0000000000000000        0x0 build/cmsis_os.o
 .bss           0x0000000000000000        0x0 build/cmsis_os.o
 .text.osKernelRunning
                0x0000000000000000       0x10 build/cmsis_os.o
 .text.osKernelSysTick
                0x0000000000000000       0x10 build/cmsis_os.o
 .text.osThreadGetId
                0x0000000000000000        0x4 build/cmsis_os.o
 .text.osThreadTerminate
                0x0000000000000000        0xc build/cmsis_os.o
 .text.osThreadYield
                0x0000000000000000       0x18 build/cmsis_os.o
 .text.osThreadSetPriority
                0x0000000000000000       0x14 build/cmsis_os.o
 .text.osThreadGetPriority
                0x0000000000000000       0x24 build/cmsis_os.o
 .text.osDelay  0x0000000000000000       0x10 build/cmsis_os.o
 .text.osTimerCreate
                0x0000000000000000        0x4 build/cmsis_os.o
 .text.osTimerStart
                0x0000000000000000        0x4 build/cmsis_os.o
 .text.osTimerStop
                0x0000000000000000        0x4 build/cmsis_os.o
 .text.osTimerDelete
                0x0000000000000000        0x4 build/cmsis_os.o
 .text.osSignalSet
                0x0000000000000000       0x54 build/cmsis_os.o
 .text.osSignalWait
                0x0000000000000000       0x4c build/cmsis_os.o
 .text.osMutexCreate
                0x0000000000000000        0x8 build/cmsis_os.o
 .text.osMutexWait
                0x0000000000000000       0x58 build/cmsis_os.o
 .text.osMutexRelease
                0x0000000000000000       0x50 build/cmsis_os.o
 .text.osMutexDelete
                0x0000000000000000       0x18 build/cmsis_os.o
 .text.osSemaphoreCreate
                0x0000000000000000       0x2c build/cmsis_os.o
 .text.osSemaphoreWait
                0x0000000000000000       0x58 build/cmsis_os.o
 .text.osSemaphoreRelease
                0x0000000000000000       0x50 build/cmsis_os.o
 .text.osSemaphoreDelete
                0x0000000000000000       0x18 build/cmsis_os.o
 .text.osPoolCreate
                0x0000000000000000       0x74 build/cmsis_os.o
 .text.osPoolAlloc
                0x0000000000000000       0x84 build/cmsis_os.o
 .text.osPoolCAlloc
                0x0000000000000000       0x84 build/cmsis_os.o
 .text.osPoolFree
                0x0000000000000000       0x38 build/cmsis_os.o
 .text.osMessageCreate
                0x0000000000000000        0xc build/cmsis_os.o
 .text.osMessagePut
                0x0000000000000000       0x58 build/cmsis_os.o
 .text.osMessageGet
                0x0000000000000000       0x88 build/cmsis_os.o
 .text.osMailCreate
                0x0000000000000000       0x60 build/cmsis_os.o
 .text.osMailAlloc
                0x0000000000000000       0x88 build/cmsis_os.o
 .text.osMailCAlloc
                0x0000000000000000       0xb0 build/cmsis_os.o
 .text.osMailPut
                0x0000000000000000       0x60 build/cmsis_os.o
 .text.osMailGet
                0x0000000000000000       0x84 build/cmsis_os.o
 .text.osMailFree
                0x0000000000000000       0x3c build/cmsis_os.o
 .text.osSystickHandler
                0x0000000000000000       0x14 build/cmsis_os.o
 .text.osThreadSuspend
                0x0000000000000000        0xc build/cmsis_os.o
 .text.osThreadResume
                0x0000000000000000       0x34 build/cmsis_os.o
 .text.osThreadSuspendAll
                0x0000000000000000        0xc build/cmsis_os.o
 .text.osThreadResumeAll
                0x0000000000000000       0x10 build/cmsis_os.o
 .text.osDelayUntil
                0x0000000000000000        0x4 build/cmsis_os.o
 .text.osAbortDelay
                0x0000000000000000        0x4 build/cmsis_os.o
 .text.osThreadList
                0x0000000000000000        0x4 build/cmsis_os.o
 .text.osMessagePeek
                0x0000000000000000       0x4c build/cmsis_os.o
 .text.osMessageWaiting
                0x0000000000000000       0x10 build/cmsis_os.o
 .text.osMessageAvailableSpace
                0x0000000000000000        0x4 build/cmsis_os.o
 .text.osMessageDelete
                0x0000000000000000       0x18 build/cmsis_os.o
 .text.osRecursiveMutexCreate
                0x0000000000000000        0x4 build/cmsis_os.o
 .text.osRecursiveMutexRelease
                0x0000000000000000        0x4 build/cmsis_os.o
 .text.osRecursiveMutexWait
                0x0000000000000000        0x4 build/cmsis_os.o
 .text.osSemaphoreGetCount
                0x0000000000000000        0x4 build/cmsis_os.o
 .text          0x0000000000000000        0x0 build/heap_4.o
 .data          0x0000000000000000        0x0 build/heap_4.o
 .bss           0x0000000000000000        0x0 build/heap_4.o
 .text.xPortGetFreeHeapSize
                0x0000000000000000        0xc build/heap_4.o
 .text.xPortGetMinimumEverFreeHeapSize
                0x0000000000000000        0xc build/heap_4.o
 .text.vPortInitialiseBlocks
                0x0000000000000000        0x4 build/heap_4.o
 .text.vPortGetHeapStats
                0x0000000000000000       0x84 build/heap_4.o
 .text          0x0000000000000000        0x0 build/port.o
 .data          0x0000000000000000        0x0 build/port.o
 .bss           0x0000000000000000        0x0 build/port.o
 .text.vPortEndScheduler
                0x0000000000000000       0x24 build/port.o
 .text.vPortSetupTimerInterrupt
                0x0000000000000000       0x28 build/port.o
 .text.vPortValidateInterruptPriority
                0x0000000000000000       0x5c build/port.o
 .text          0x0000000000000000        0x0 build/stspin32g4.o
 .data          0x0000000000000000        0x0 build/stspin32g4.o
 .bss           0x0000000000000000        0x0 build/stspin32g4.o
 .text.STSPIN32G4_deInit
                0x0000000000000000        0x8 build/stspin32g4.o
 .text.STSPIN32G4_lockReg
                0x0000000000000000       0x40 build/stspin32g4.o
 .text.STSPIN32G4_unlockReg
                0x0000000000000000       0x3c build/stspin32g4.o
 .text.STSPIN32G4_readReg
                0x0000000000000000       0x20 build/stspin32g4.o
 .text.STSPIN32G4_writeReg
                0x0000000000000000       0x10 build/stspin32g4.o
 .text.STSPIN32G4_writeVerifyReg
                0x0000000000000000       0x44 build/stspin32g4.o
 .text.STSPIN32G4_set3V3
                0x0000000000000000       0xe4 build/stspin32g4.o
 .text.STSPIN32G4_get3V3
                0x0000000000000000       0x3c build/stspin32g4.o
 .text.STSPIN32G4_getVCC
                0x0000000000000000       0xa0 build/stspin32g4.o
 .text.STSPIN32G4_setInterlocking
                0x0000000000000000       0xe4 build/stspin32g4.o
 .text.STSPIN32G4_getInterlocking
                0x0000000000000000       0x38 build/stspin32g4.o
 .text.STSPIN32G4_setMinimumDeadTime
                0x0000000000000000       0xe4 build/stspin32g4.o
 .text.STSPIN32G4_getMinimumDeadTime
                0x0000000000000000       0x38 build/stspin32g4.o
 .text.STSPIN32G4_getVDSP
                0x0000000000000000       0x80 build/stspin32g4.o
 .text.STSPIN32G4_setTHSD
                0x0000000000000000      0x128 build/stspin32g4.o
 .text.STSPIN32G4_getTHSD
                0x0000000000000000       0x60 build/stspin32g4.o
 .text.STSPIN32G4_standby
                0x0000000000000000      0x178 build/stspin32g4.o
 .text.STSPIN32G4_wakeup
                0x0000000000000000       0x74 build/stspin32g4.o
 .text.STSPIN32G4_getStatus
                0x0000000000000000       0x14 build/stspin32g4.o
 .bss.STSPIN32G4_bkupREADY
                0x0000000000000000        0x1 build/stspin32g4.o
 .text          0x0000000000000000        0x0 build/bus_voltage_sensor.o
 .data          0x0000000000000000        0x0 build/bus_voltage_sensor.o
 .bss           0x0000000000000000        0x0 build/bus_voltage_sensor.o
 .text.VBS_GetBusVoltage_d
                0x0000000000000000        0x4 build/bus_voltage_sensor.o
 .text          0x0000000000000000        0x0 build/circle_limitation.o
 .data          0x0000000000000000        0x0 build/circle_limitation.o
 .bss           0x0000000000000000        0x0 build/circle_limitation.o
 .text          0x0000000000000000        0x0 build/digital_output.o
 .data          0x0000000000000000        0x0 build/digital_output.o
 .bss           0x0000000000000000        0x0 build/digital_output.o
 .text.DOUT_SetOutputState
                0x0000000000000000       0x24 build/digital_output.o
 .text.DOUT_GetOutputState
                0x0000000000000000        0x4 build/digital_output.o
 .debug_info    0x0000000000000000      0x447 build/digital_output.o
 .debug_abbrev  0x0000000000000000      0x1bd build/digital_output.o
 .debug_loc     0x0000000000000000       0x79 build/digital_output.o
 .debug_aranges
                0x0000000000000000       0x28 build/digital_output.o
 .debug_ranges  0x0000000000000000       0x18 build/digital_output.o
 .debug_line    0x0000000000000000      0x2c8 build/digital_output.o
 .debug_str     0x0000000000000000      0x356 build/digital_output.o
 .comment       0x0000000000000000       0x4e build/digital_output.o
 .debug_frame   0x0000000000000000       0x30 build/digital_output.o
 .ARM.attributes
                0x0000000000000000       0x34 build/digital_output.o
 .text          0x0000000000000000        0x0 build/feed_forward_ctrl.o
 .data          0x0000000000000000        0x0 build/feed_forward_ctrl.o
 .bss           0x0000000000000000        0x0 build/feed_forward_ctrl.o
 .text.FF_VqdConditioning
                0x0000000000000000       0x4c build/feed_forward_ctrl.o
 .text.FF_DataProcess
                0x0000000000000000       0x30 build/feed_forward_ctrl.o
 .text.FF_SetFFConstants
                0x0000000000000000       0x14 build/feed_forward_ctrl.o
 .text.FF_GetFFConstants
                0x0000000000000000       0x10 build/feed_forward_ctrl.o
 .text          0x0000000000000000        0x0 build/pwm_curr_fdbk_ovm.o
 .data          0x0000000000000000        0x0 build/pwm_curr_fdbk_ovm.o
 .bss           0x0000000000000000        0x0 build/pwm_curr_fdbk_ovm.o
 .text.PWMC_SetPhaseVoltage_OVM
                0x0000000000000000      0x780 build/pwm_curr_fdbk_ovm.o
 .rodata.aOVMGain.1
                0x0000000000000000      0x180 build/pwm_curr_fdbk_ovm.o
 .rodata.aOVMGamma.0
                0x0000000000000000       0xc8 build/pwm_curr_fdbk_ovm.o
 .debug_info    0x0000000000000000     0x1021 build/pwm_curr_fdbk_ovm.o
 .debug_abbrev  0x0000000000000000      0x2b8 build/pwm_curr_fdbk_ovm.o
 .debug_loc     0x0000000000000000     0x25cc build/pwm_curr_fdbk_ovm.o
 .debug_aranges
                0x0000000000000000       0x20 build/pwm_curr_fdbk_ovm.o
 .debug_ranges  0x0000000000000000      0x198 build/pwm_curr_fdbk_ovm.o
 .debug_line    0x0000000000000000      0xb94 build/pwm_curr_fdbk_ovm.o
 .debug_str     0x0000000000000000      0x8e5 build/pwm_curr_fdbk_ovm.o
 .comment       0x0000000000000000       0x4e build/pwm_curr_fdbk_ovm.o
 .debug_frame   0x0000000000000000       0x40 build/pwm_curr_fdbk_ovm.o
 .ARM.attributes
                0x0000000000000000       0x34 build/pwm_curr_fdbk_ovm.o
 .text          0x0000000000000000        0x0 build/ntc_temperature_sensor.o
 .data          0x0000000000000000        0x0 build/ntc_temperature_sensor.o
 .bss           0x0000000000000000        0x0 build/ntc_temperature_sensor.o
 .text.NTC_GetAvTemp_d
                0x0000000000000000        0x4 build/ntc_temperature_sensor.o
 .text.NTC_CheckTemp
                0x0000000000000000        0x4 build/ntc_temperature_sensor.o
 .text          0x0000000000000000        0x0 build/open_loop.o
 .data          0x0000000000000000        0x0 build/open_loop.o
 .bss           0x0000000000000000        0x0 build/open_loop.o
 .text.OL_Init  0x0000000000000000        0x8 build/open_loop.o
 .text.OL_VqdConditioning
                0x0000000000000000        0x8 build/open_loop.o
 .text.OL_Calc  0x0000000000000000       0x24 build/open_loop.o
 .text.OL_VF    0x0000000000000000        0x4 build/open_loop.o
 .debug_info    0x0000000000000000      0x57a build/open_loop.o
 .debug_abbrev  0x0000000000000000      0x12c build/open_loop.o
 .debug_loc     0x0000000000000000       0x7f build/open_loop.o
 .debug_aranges
                0x0000000000000000       0x38 build/open_loop.o
 .debug_ranges  0x0000000000000000       0x28 build/open_loop.o
 .debug_line    0x0000000000000000      0x2ac build/open_loop.o
 .debug_str     0x0000000000000000      0x51e build/open_loop.o
 .comment       0x0000000000000000       0x4e build/open_loop.o
 .debug_frame   0x0000000000000000       0x58 build/open_loop.o
 .ARM.attributes
                0x0000000000000000       0x34 build/open_loop.o
 .text          0x0000000000000000        0x0 build/pid_regulator.o
 .data          0x0000000000000000        0x0 build/pid_regulator.o
 .bss           0x0000000000000000        0x0 build/pid_regulator.o
 .text.PID_GetDefaultKP
                0x0000000000000000        0x8 build/pid_regulator.o
 .text.PID_GetDefaultKI
                0x0000000000000000        0x8 build/pid_regulator.o
 .text.PID_GetKPDivisor
                0x0000000000000000        0x4 build/pid_regulator.o
 .text.PID_GetKPDivisorPOW2
                0x0000000000000000        0x4 build/pid_regulator.o
 .text.PID_GetKIDivisorPOW2
                0x0000000000000000        0x4 build/pid_regulator.o
 .text.PID_SetPrevError
                0x0000000000000000        0x4 build/pid_regulator.o
 .text.PID_GetKDDivisor
                0x0000000000000000        0x4 build/pid_regulator.o
 .text.PID_GetKDDivisorPOW2
                0x0000000000000000        0x4 build/pid_regulator.o
 .text.PID_SetKDDivisorPOW2
                0x0000000000000000        0xc build/pid_regulator.o
 .text.PID_Controller
                0x0000000000000000       0x40 build/pid_regulator.o
 .text          0x0000000000000000        0x0 build/pqd_motor_power_measurement.o
 .data          0x0000000000000000        0x0 build/pqd_motor_power_measurement.o
 .bss           0x0000000000000000        0x0 build/pqd_motor_power_measurement.o
 .text.PQD_Clear
                0x0000000000000000        0x8 build/pqd_motor_power_measurement.o
 .text          0x0000000000000000        0x0 build/r_divider_bus_voltage_sensor.o
 .data          0x0000000000000000        0x0 build/r_divider_bus_voltage_sensor.o
 .bss           0x0000000000000000        0x0 build/r_divider_bus_voltage_sensor.o
 .text          0x0000000000000000        0x0 build/ramp_ext_mngr.o
 .data          0x0000000000000000        0x0 build/ramp_ext_mngr.o
 .bss           0x0000000000000000        0x0 build/ramp_ext_mngr.o
 .text.REMNG_GetValue
                0x0000000000000000        0xc build/ramp_ext_mngr.o
 .text          0x0000000000000000        0x0 build/revup_ctrl.o
 .data          0x0000000000000000        0x0 build/revup_ctrl.o
 .bss           0x0000000000000000        0x0 build/revup_ctrl.o
 .text.RUC_OTF_Exec
                0x0000000000000000      0x220 build/revup_ctrl.o
 .text.RUC_IsAlignStageNow
                0x0000000000000000       0x18 build/revup_ctrl.o
 .text.RUC_GetPhaseDurationms
                0x0000000000000000        0xc build/revup_ctrl.o
 .text.RUC_GetPhaseFinalMecSpeedUnit
                0x0000000000000000       0x10 build/revup_ctrl.o
 .text.RUC_GetPhaseFinalTorque
                0x0000000000000000       0x10 build/revup_ctrl.o
 .text          0x0000000000000000        0x0 build/speed_pos_fdbk.o
 .data          0x0000000000000000        0x0 build/speed_pos_fdbk.o
 .bss           0x0000000000000000        0x0 build/speed_pos_fdbk.o
 .text.SPD_GetMecAngle
                0x0000000000000000        0x4 build/speed_pos_fdbk.o
 .text          0x0000000000000000        0x0 build/speed_torq_ctrl.o
 .data          0x0000000000000000        0x0 build/speed_torq_ctrl.o
 .bss           0x0000000000000000        0x0 build/speed_torq_ctrl.o
 .text.STC_GetMecSpeedRefUnitDefault
                0x0000000000000000        0x8 build/speed_torq_ctrl.o
 .text.STC_GetMaxAppPositiveMecSpeedUnit
                0x0000000000000000        0x4 build/speed_torq_ctrl.o
 .text.STC_GetMinAppNegativeMecSpeedUnit
                0x0000000000000000        0x8 build/speed_torq_ctrl.o
 .text.STC_StopSpeedRamp
                0x0000000000000000       0x10 build/speed_torq_ctrl.o
 .text          0x0000000000000000        0x0 build/sto_pll_speed_pos_fdbk.o
 .data          0x0000000000000000        0x0 build/sto_pll_speed_pos_fdbk.o
 .bss           0x0000000000000000        0x0 build/sto_pll_speed_pos_fdbk.o
 .text.STO_PLL_Return
                0x0000000000000000        0x4 build/sto_pll_speed_pos_fdbk.o
 .text.STO_PLL_GetEstimatedCurrent
                0x0000000000000000       0x28 build/sto_pll_speed_pos_fdbk.o
 .text.STO_GetPLLGains
                0x0000000000000000       0x1c build/sto_pll_speed_pos_fdbk.o
 .text.STO_PLL_SetMecAngle
                0x0000000000000000        0x4 build/sto_pll_speed_pos_fdbk.o
 .text.STO_PLL_BemfConsistencyCheckSwitch
                0x0000000000000000        0x8 build/sto_pll_speed_pos_fdbk.o
 .text.STO_PLL_IsBemfConsistent
                0x0000000000000000        0x8 build/sto_pll_speed_pos_fdbk.o
 .text          0x0000000000000000        0x0 build/virtual_speed_sensor.o
 .data          0x0000000000000000        0x0 build/virtual_speed_sensor.o
 .bss           0x0000000000000000        0x0 build/virtual_speed_sensor.o
 .text.VSS_RampCompleted
                0x0000000000000000        0xc build/virtual_speed_sensor.o
 .text.VSS_GetLastRampFinalSpeed
                0x0000000000000000        0x8 build/virtual_speed_sensor.o
 .text.VSS_IsTransitionOngoing
                0x0000000000000000       0x1c build/virtual_speed_sensor.o
 .text.VSS_SetElAngle
                0x0000000000000000        0x8 build/virtual_speed_sensor.o
 .text          0x0000000000000000        0x0 build/r3_2_g4xx_pwm_curr_fdbk.o
 .data          0x0000000000000000        0x0 build/r3_2_g4xx_pwm_curr_fdbk.o
 .bss           0x0000000000000000        0x0 build/r3_2_g4xx_pwm_curr_fdbk.o
 .text.R3_2_SetADCSampPointSectX
                0x0000000000000000       0x88 build/r3_2_g4xx_pwm_curr_fdbk.o
 .text          0x0000000000000000        0x0 build/mcpa.o
 .data          0x0000000000000000        0x0 build/mcpa.o
 .bss           0x0000000000000000        0x0 build/mcpa.o
 .text.MCPA_cfgLog
                0x0000000000000000       0xec build/mcpa.o
 .text          0x0000000000000000        0x0 build/sysmem.o
 .data          0x0000000000000000        0x0 build/sysmem.o
 .bss           0x0000000000000000        0x0 build/sysmem.o
 .text._sbrk    0x0000000000000000       0x44 build/sysmem.o
 .bss.__sbrk_heap_end
                0x0000000000000000        0x4 build/sysmem.o
 .debug_info    0x0000000000000000      0x195 build/sysmem.o
 .debug_abbrev  0x0000000000000000       0xdb build/sysmem.o
 .debug_loc     0x0000000000000000       0x90 build/sysmem.o
 .debug_aranges
                0x0000000000000000       0x20 build/sysmem.o
 .debug_ranges  0x0000000000000000       0x10 build/sysmem.o
 .debug_line    0x0000000000000000      0x1c6 build/sysmem.o
 .debug_str     0x0000000000000000      0x1fe build/sysmem.o
 .comment       0x0000000000000000       0x4e build/sysmem.o
 .debug_frame   0x0000000000000000       0x28 build/sysmem.o
 .ARM.attributes
                0x0000000000000000       0x34 build/sysmem.o
 .text          0x0000000000000000        0x0 build/syscalls.o
 .data          0x0000000000000000        0x0 build/syscalls.o
 .bss           0x0000000000000000        0x0 build/syscalls.o
 .text.initialise_monitor_handles
                0x0000000000000000        0x4 build/syscalls.o
 .text._getpid  0x0000000000000000        0x4 build/syscalls.o
 .text._kill    0x0000000000000000       0x10 build/syscalls.o
 .text._exit    0x0000000000000000        0xc build/syscalls.o
 .text._read    0x0000000000000000       0x1c build/syscalls.o
 .text._write   0x0000000000000000       0x1c build/syscalls.o
 .text._close   0x0000000000000000        0x8 build/syscalls.o
 .text._fstat   0x0000000000000000        0xc build/syscalls.o
 .text._isatty  0x0000000000000000        0x4 build/syscalls.o
 .text._lseek   0x0000000000000000        0x4 build/syscalls.o
 .text._open    0x0000000000000000        0xc build/syscalls.o
 .text._wait    0x0000000000000000       0x10 build/syscalls.o
 .text._unlink  0x0000000000000000       0x10 build/syscalls.o
 .text._times   0x0000000000000000        0x8 build/syscalls.o
 .text._stat    0x0000000000000000        0xc build/syscalls.o
 .text._link    0x0000000000000000       0x10 build/syscalls.o
 .text._fork    0x0000000000000000       0x10 build/syscalls.o
 .text._execve  0x0000000000000000       0x10 build/syscalls.o
 .bss.__env     0x0000000000000000        0x4 build/syscalls.o
 .data.environ  0x0000000000000000        0x4 build/syscalls.o
 .debug_info    0x0000000000000000      0x85a build/syscalls.o
 .debug_abbrev  0x0000000000000000      0x202 build/syscalls.o
 .debug_loc     0x0000000000000000      0x507 build/syscalls.o
 .debug_aranges
                0x0000000000000000       0xa8 build/syscalls.o
 .debug_ranges  0x0000000000000000       0xb0 build/syscalls.o
 .debug_line    0x0000000000000000      0x413 build/syscalls.o
 .debug_str     0x0000000000000000      0x3d2 build/syscalls.o
 .comment       0x0000000000000000       0x4e build/syscalls.o
 .debug_frame   0x0000000000000000      0x190 build/syscalls.o
 .ARM.attributes
                0x0000000000000000       0x34 build/syscalls.o
 .text          0x0000000000000000        0x0 build/div.o
 .data          0x0000000000000000        0x0 build/div.o
 .bss           0x0000000000000000        0x0 build/div.o
 .text.test_div64
                0x0000000000000000        0x8 build/div.o
 .text.test_udiv64
                0x0000000000000000        0x8 build/div.o
 .debug_info    0x0000000000000000      0x150 build/div.o
 .debug_abbrev  0x0000000000000000       0x86 build/div.o
 .debug_loc     0x0000000000000000       0xf0 build/div.o
 .debug_aranges
                0x0000000000000000       0x28 build/div.o
 .debug_ranges  0x0000000000000000       0x18 build/div.o
 .debug_line    0x0000000000000000      0x117 build/div.o
 .debug_str     0x0000000000000000      0x1b5 build/div.o
 .comment       0x0000000000000000       0x4e build/div.o
 .debug_frame   0x0000000000000000       0x40 build/div.o
 .ARM.attributes
                0x0000000000000000       0x34 build/div.o
 .text          0x0000000000000000       0x14 build/startup_stm32g431xx.o
 .data          0x0000000000000000        0x0 build/startup_stm32g431xx.o
 .bss           0x0000000000000000        0x0 build/startup_stm32g431xx.o
 .text          0x0000000000000000        0x0 /usr/share/gcc-arm-none-eabi-10-2020-q4-major/bin/../lib/gcc/arm-none-eabi/10.2.1/../../../../arm-none-eabi/lib/thumb/v7e-m+fp/hard/libc_nano.a(lib_a-errno.o)
 .data          0x0000000000000000        0x0 /usr/share/gcc-arm-none-eabi-10-2020-q4-major/bin/../lib/gcc/arm-none-eabi/10.2.1/../../../../arm-none-eabi/lib/thumb/v7e-m+fp/hard/libc_nano.a(lib_a-errno.o)
 .bss           0x0000000000000000        0x0 /usr/share/gcc-arm-none-eabi-10-2020-q4-major/bin/../lib/gcc/arm-none-eabi/10.2.1/../../../../arm-none-eabi/lib/thumb/v7e-m+fp/hard/libc_nano.a(lib_a-errno.o)
 .text.__errno  0x0000000000000000        0xc /usr/share/gcc-arm-none-eabi-10-2020-q4-major/bin/../lib/gcc/arm-none-eabi/10.2.1/../../../../arm-none-eabi/lib/thumb/v7e-m+fp/hard/libc_nano.a(lib_a-errno.o)
 .debug_frame   0x0000000000000000       0x20 /usr/share/gcc-arm-none-eabi-10-2020-q4-major/bin/../lib/gcc/arm-none-eabi/10.2.1/../../../../arm-none-eabi/lib/thumb/v7e-m+fp/hard/libc_nano.a(lib_a-errno.o)
 .ARM.attributes
                0x0000000000000000       0x34 /usr/share/gcc-arm-none-eabi-10-2020-q4-major/bin/../lib/gcc/arm-none-eabi/10.2.1/../../../../arm-none-eabi/lib/thumb/v7e-m+fp/hard/libc_nano.a(lib_a-errno.o)
 .text          0x0000000000000000        0x0 /usr/share/gcc-arm-none-eabi-10-2020-q4-major/bin/../lib/gcc/arm-none-eabi/10.2.1/../../../../arm-none-eabi/lib/thumb/v7e-m+fp/hard/libc_nano.a(lib_a-exit.o)
 .data          0x0000000000000000        0x0 /usr/share/gcc-arm-none-eabi-10-2020-q4-major/bin/../lib/gcc/arm-none-eabi/10.2.1/../../../../arm-none-eabi/lib/thumb/v7e-m+fp/hard/libc_nano.a(lib_a-exit.o)
 .bss           0x0000000000000000        0x0 /usr/share/gcc-arm-none-eabi-10-2020-q4-major/bin/../lib/gcc/arm-none-eabi/10.2.1/../../../../arm-none-eabi/lib/thumb/v7e-m+fp/hard/libc_nano.a(lib_a-exit.o)
 .text.exit     0x0000000000000000       0x28 /usr/share/gcc-arm-none-eabi-10-2020-q4-major/bin/../lib/gcc/arm-none-eabi/10.2.1/../../../../arm-none-eabi/lib/thumb/v7e-m+fp/hard/libc_nano.a(lib_a-exit.o)
 .debug_frame   0x0000000000000000       0x28 /usr/share/gcc-arm-none-eabi-10-2020-q4-major/bin/../lib/gcc/arm-none-eabi/10.2.1/../../../../arm-none-eabi/lib/thumb/v7e-m+fp/hard/libc_nano.a(lib_a-exit.o)
 .ARM.attributes
                0x0000000000000000       0x34 /usr/share/gcc-arm-none-eabi-10-2020-q4-major/bin/../lib/gcc/arm-none-eabi/10.2.1/../../../../arm-none-eabi/lib/thumb/v7e-m+fp/hard/libc_nano.a(lib_a-exit.o)
 .text          0x0000000000000000        0x0 /usr/share/gcc-arm-none-eabi-10-2020-q4-major/bin/../lib/gcc/arm-none-eabi/10.2.1/../../../../arm-none-eabi/lib/thumb/v7e-m+fp/hard/libc_nano.a(lib_a-impure.o)
 .data          0x0000000000000000        0x0 /usr/share/gcc-arm-none-eabi-10-2020-q4-major/bin/../lib/gcc/arm-none-eabi/10.2.1/../../../../arm-none-eabi/lib/thumb/v7e-m+fp/hard/libc_nano.a(lib_a-impure.o)
 .bss           0x0000000000000000        0x0 /usr/share/gcc-arm-none-eabi-10-2020-q4-major/bin/../lib/gcc/arm-none-eabi/10.2.1/../../../../arm-none-eabi/lib/thumb/v7e-m+fp/hard/libc_nano.a(lib_a-impure.o)
 .data._impure_ptr
                0x0000000000000000        0x4 /usr/share/gcc-arm-none-eabi-10-2020-q4-major/bin/../lib/gcc/arm-none-eabi/10.2.1/../../../../arm-none-eabi/lib/thumb/v7e-m+fp/hard/libc_nano.a(lib_a-impure.o)
 .data.impure_data
                0x0000000000000000       0x60 /usr/share/gcc-arm-none-eabi-10-2020-q4-major/bin/../lib/gcc/arm-none-eabi/10.2.1/../../../../arm-none-eabi/lib/thumb/v7e-m+fp/hard/libc_nano.a(lib_a-impure.o)
 .rodata._global_impure_ptr
                0x0000000000000000        0x4 /usr/share/gcc-arm-none-eabi-10-2020-q4-major/bin/../lib/gcc/arm-none-eabi/10.2.1/../../../../arm-none-eabi/lib/thumb/v7e-m+fp/hard/libc_nano.a(lib_a-impure.o)
 .ARM.attributes
                0x0000000000000000       0x32 /usr/share/gcc-arm-none-eabi-10-2020-q4-major/bin/../lib/gcc/arm-none-eabi/10.2.1/../../../../arm-none-eabi/lib/thumb/v7e-m+fp/hard/libc_nano.a(lib_a-impure.o)
 .text          0x0000000000000000        0x0 /usr/share/gcc-arm-none-eabi-10-2020-q4-major/bin/../lib/gcc/arm-none-eabi/10.2.1/../../../../arm-none-eabi/lib/thumb/v7e-m+fp/hard/libc_nano.a(lib_a-init.o)
 .data          0x0000000000000000        0x0 /usr/share/gcc-arm-none-eabi-10-2020-q4-major/bin/../lib/gcc/arm-none-eabi/10.2.1/../../../../arm-none-eabi/lib/thumb/v7e-m+fp/hard/libc_nano.a(lib_a-init.o)
 .bss           0x0000000000000000        0x0 /usr/share/gcc-arm-none-eabi-10-2020-q4-major/bin/../lib/gcc/arm-none-eabi/10.2.1/../../../../arm-none-eabi/lib/thumb/v7e-m+fp/hard/libc_nano.a(lib_a-init.o)
 .text          0x0000000000000000        0x0 /usr/share/gcc-arm-none-eabi-10-2020-q4-major/bin/../lib/gcc/arm-none-eabi/10.2.1/../../../../arm-none-eabi/lib/thumb/v7e-m+fp/hard/libc_nano.a(lib_a-memcpy-stub.o)
 .data          0x0000000000000000        0x0 /usr/share/gcc-arm-none-eabi-10-2020-q4-major/bin/../lib/gcc/arm-none-eabi/10.2.1/../../../../arm-none-eabi/lib/thumb/v7e-m+fp/hard/libc_nano.a(lib_a-memcpy-stub.o)
 .bss           0x0000000000000000        0x0 /usr/share/gcc-arm-none-eabi-10-2020-q4-major/bin/../lib/gcc/arm-none-eabi/10.2.1/../../../../arm-none-eabi/lib/thumb/v7e-m+fp/hard/libc_nano.a(lib_a-memcpy-stub.o)
 .text          0x0000000000000000        0x0 /usr/share/gcc-arm-none-eabi-10-2020-q4-major/bin/../lib/gcc/arm-none-eabi/10.2.1/../../../../arm-none-eabi/lib/thumb/v7e-m+fp/hard/libc_nano.a(lib_a-memset.o)
 .data          0x0000000000000000        0x0 /usr/share/gcc-arm-none-eabi-10-2020-q4-major/bin/../lib/gcc/arm-none-eabi/10.2.1/../../../../arm-none-eabi/lib/thumb/v7e-m+fp/hard/libc_nano.a(lib_a-memset.o)
 .bss           0x0000000000000000        0x0 /usr/share/gcc-arm-none-eabi-10-2020-q4-major/bin/../lib/gcc/arm-none-eabi/10.2.1/../../../../arm-none-eabi/lib/thumb/v7e-m+fp/hard/libc_nano.a(lib_a-memset.o)
 .text          0x0000000000000000        0x0 MCSDK_v6.3.2-Full/MotorControl/libMP/libmp-G4-MDK-ARM_ARMv7-M.a(mp_one_touch_tuning.o)
 .text.OTT_fGetNominalSpeedRPM
                0x0000000000000000        0x6 MCSDK_v6.3.2-Full/MotorControl/libMP/libmp-G4-MDK-ARM_ARMv7-M.a(mp_one_touch_tuning.o)
 .ARM.exidx.text.OTT_fGetNominalSpeedRPM
                0x0000000000000000        0x8 MCSDK_v6.3.2-Full/MotorControl/libMP/libmp-G4-MDK-ARM_ARMv7-M.a(mp_one_touch_tuning.o)
 .text          0x0000000000000000        0x0 MCSDK_v6.3.2-Full/MotorControl/libMP/libmp-G4-MDK-ARM_ARMv7-M.a(mp_self_com_ctrl.o)
 .text.SCC_InitKeDetRevup
                0x0000000000000000       0x20 MCSDK_v6.3.2-Full/MotorControl/libMP/libmp-G4-MDK-ARM_ARMv7-M.a(mp_self_com_ctrl.o)
 .ARM.exidx.text.SCC_InitKeDetRevup
                0x0000000000000000        0x8 MCSDK_v6.3.2-Full/MotorControl/libMP/libmp-G4-MDK-ARM_ARMv7-M.a(mp_self_com_ctrl.o)
 .text.SCC_ForceProfile
                0x0000000000000000       0x56 MCSDK_v6.3.2-Full/MotorControl/libMP/libmp-G4-MDK-ARM_ARMv7-M.a(mp_self_com_ctrl.o)
 .ARM.exidx.text.SCC_ForceProfile
                0x0000000000000000        0x8 MCSDK_v6.3.2-Full/MotorControl/libMP/libmp-G4-MDK-ARM_ARMv7-M.a(mp_self_com_ctrl.o)
 .text.STO_ReInit
                0x0000000000000000       0xcc MCSDK_v6.3.2-Full/MotorControl/libMP/libmp-G4-MDK-ARM_ARMv7-M.a(mp_self_com_ctrl.o)
 .ARM.exidx.text.STO_ReInit
                0x0000000000000000        0x8 MCSDK_v6.3.2-Full/MotorControl/libMP/libmp-G4-MDK-ARM_ARMv7-M.a(mp_self_com_ctrl.o)
 .text.SCC_GetEstNominalSpeed
                0x0000000000000000        0x8 MCSDK_v6.3.2-Full/MotorControl/libMP/libmp-G4-MDK-ARM_ARMv7-M.a(mp_self_com_ctrl.o)
 .ARM.exidx.text.SCC_GetEstNominalSpeed
                0x0000000000000000        0x8 MCSDK_v6.3.2-Full/MotorControl/libMP/libmp-G4-MDK-ARM_ARMv7-M.a(mp_self_com_ctrl.o)
 .text.SCC_StopProfile
                0x0000000000000000       0x16 MCSDK_v6.3.2-Full/MotorControl/libMP/libmp-G4-MDK-ARM_ARMv7-M.a(mp_self_com_ctrl.o)
 .ARM.exidx.text.SCC_StopProfile
                0x0000000000000000        0x8 MCSDK_v6.3.2-Full/MotorControl/libMP/libmp-G4-MDK-ARM_ARMv7-M.a(mp_self_com_ctrl.o)
 .text.Fitab    0x0000000000000000      0x260 MCSDK_v6.3.2-Full/MotorControl/libMP/libmp-G4-MDK-ARM_ARMv7-M.a(mp_self_com_ctrl.o)
 .ARM.exidx.text.Fitab
                0x0000000000000000        0x8 MCSDK_v6.3.2-Full/MotorControl/libMP/libmp-G4-MDK-ARM_ARMv7-M.a(mp_self_com_ctrl.o)
 .text.SCC_CheckBemf
                0x0000000000000000       0x54 MCSDK_v6.3.2-Full/MotorControl/libMP/libmp-G4-MDK-ARM_ARMv7-M.a(mp_self_com_ctrl.o)
 .ARM.exidx.text.SCC_CheckBemf
                0x0000000000000000        0x8 MCSDK_v6.3.2-Full/MotorControl/libMP/libmp-G4-MDK-ARM_ARMv7-M.a(mp_self_com_ctrl.o)
 .text.SCC_GetStartupCurrentS16
                0x0000000000000000       0x3c MCSDK_v6.3.2-Full/MotorControl/libMP/libmp-G4-MDK-ARM_ARMv7-M.a(mp_self_com_ctrl.o)
 .ARM.exidx.text.SCC_GetStartupCurrentS16
                0x0000000000000000        0x8 MCSDK_v6.3.2-Full/MotorControl/libMP/libmp-G4-MDK-ARM_ARMv7-M.a(mp_self_com_ctrl.o)
 .data          0x0000000000000000        0x0 /usr/share/gcc-arm-none-eabi-10-2020-q4-major/bin/../lib/gcc/arm-none-eabi/10.2.1/thumb/v7e-m+fp/hard/libgcc.a(_arm_muldf3.o)
 .bss           0x0000000000000000        0x0 /usr/share/gcc-arm-none-eabi-10-2020-q4-major/bin/../lib/gcc/arm-none-eabi/10.2.1/thumb/v7e-m+fp/hard/libgcc.a(_arm_muldf3.o)
 .data          0x0000000000000000        0x0 /usr/share/gcc-arm-none-eabi-10-2020-q4-major/bin/../lib/gcc/arm-none-eabi/10.2.1/thumb/v7e-m+fp/hard/libgcc.a(_arm_addsubdf3.o)
 .bss           0x0000000000000000        0x0 /usr/share/gcc-arm-none-eabi-10-2020-q4-major/bin/../lib/gcc/arm-none-eabi/10.2.1/thumb/v7e-m+fp/hard/libgcc.a(_arm_addsubdf3.o)
 .data          0x0000000000000000        0x0 /usr/share/gcc-arm-none-eabi-10-2020-q4-major/bin/../lib/gcc/arm-none-eabi/10.2.1/thumb/v7e-m+fp/hard/libgcc.a(_arm_fixdfsi.o)
 .bss           0x0000000000000000        0x0 /usr/share/gcc-arm-none-eabi-10-2020-q4-major/bin/../lib/gcc/arm-none-eabi/10.2.1/thumb/v7e-m+fp/hard/libgcc.a(_arm_fixdfsi.o)
 .text          0x0000000000000000       0xa0 /usr/share/gcc-arm-none-eabi-10-2020-q4-major/bin/../lib/gcc/arm-none-eabi/10.2.1/thumb/v7e-m+fp/hard/libgcc.a(_aeabi_ldivmod.o)
 .data          0x0000000000000000        0x0 /usr/share/gcc-arm-none-eabi-10-2020-q4-major/bin/../lib/gcc/arm-none-eabi/10.2.1/thumb/v7e-m+fp/hard/libgcc.a(_aeabi_ldivmod.o)
 .bss           0x0000000000000000        0x0 /usr/share/gcc-arm-none-eabi-10-2020-q4-major/bin/../lib/gcc/arm-none-eabi/10.2.1/thumb/v7e-m+fp/hard/libgcc.a(_aeabi_ldivmod.o)
 .debug_frame   0x0000000000000000       0x44 /usr/share/gcc-arm-none-eabi-10-2020-q4-major/bin/../lib/gcc/arm-none-eabi/10.2.1/thumb/v7e-m+fp/hard/libgcc.a(_aeabi_ldivmod.o)
 .ARM.attributes
                0x0000000000000000       0x1e /usr/share/gcc-arm-none-eabi-10-2020-q4-major/bin/../lib/gcc/arm-none-eabi/10.2.1/thumb/v7e-m+fp/hard/libgcc.a(_aeabi_ldivmod.o)
 .text          0x0000000000000000       0x30 /usr/share/gcc-arm-none-eabi-10-2020-q4-major/bin/../lib/gcc/arm-none-eabi/10.2.1/thumb/v7e-m+fp/hard/libgcc.a(_aeabi_uldivmod.o)
 .data          0x0000000000000000        0x0 /usr/share/gcc-arm-none-eabi-10-2020-q4-major/bin/../lib/gcc/arm-none-eabi/10.2.1/thumb/v7e-m+fp/hard/libgcc.a(_aeabi_uldivmod.o)
 .bss           0x0000000000000000        0x0 /usr/share/gcc-arm-none-eabi-10-2020-q4-major/bin/../lib/gcc/arm-none-eabi/10.2.1/thumb/v7e-m+fp/hard/libgcc.a(_aeabi_uldivmod.o)
 .debug_frame   0x0000000000000000       0x2c /usr/share/gcc-arm-none-eabi-10-2020-q4-major/bin/../lib/gcc/arm-none-eabi/10.2.1/thumb/v7e-m+fp/hard/libgcc.a(_aeabi_uldivmod.o)
 .ARM.attributes
                0x0000000000000000       0x1e /usr/share/gcc-arm-none-eabi-10-2020-q4-major/bin/../lib/gcc/arm-none-eabi/10.2.1/thumb/v7e-m+fp/hard/libgcc.a(_aeabi_uldivmod.o)
 .text          0x0000000000000000      0x2d0 /usr/share/gcc-arm-none-eabi-10-2020-q4-major/bin/../lib/gcc/arm-none-eabi/10.2.1/thumb/v7e-m+fp/hard/libgcc.a(_udivmoddi4.o)
 .data          0x0000000000000000        0x0 /usr/share/gcc-arm-none-eabi-10-2020-q4-major/bin/../lib/gcc/arm-none-eabi/10.2.1/thumb/v7e-m+fp/hard/libgcc.a(_udivmoddi4.o)
 .bss           0x0000000000000000        0x0 /usr/share/gcc-arm-none-eabi-10-2020-q4-major/bin/../lib/gcc/arm-none-eabi/10.2.1/thumb/v7e-m+fp/hard/libgcc.a(_udivmoddi4.o)
 .ARM.extab     0x0000000000000000        0x0 /usr/share/gcc-arm-none-eabi-10-2020-q4-major/bin/../lib/gcc/arm-none-eabi/10.2.1/thumb/v7e-m+fp/hard/libgcc.a(_udivmoddi4.o)
 .ARM.exidx     0x0000000000000000        0x8 /usr/share/gcc-arm-none-eabi-10-2020-q4-major/bin/../lib/gcc/arm-none-eabi/10.2.1/thumb/v7e-m+fp/hard/libgcc.a(_udivmoddi4.o)
 .debug_frame   0x0000000000000000       0x34 /usr/share/gcc-arm-none-eabi-10-2020-q4-major/bin/../lib/gcc/arm-none-eabi/10.2.1/thumb/v7e-m+fp/hard/libgcc.a(_udivmoddi4.o)
 .ARM.attributes
                0x0000000000000000       0x34 /usr/share/gcc-arm-none-eabi-10-2020-q4-major/bin/../lib/gcc/arm-none-eabi/10.2.1/thumb/v7e-m+fp/hard/libgcc.a(_udivmoddi4.o)
 .text          0x0000000000000000        0x4 /usr/share/gcc-arm-none-eabi-10-2020-q4-major/bin/../lib/gcc/arm-none-eabi/10.2.1/thumb/v7e-m+fp/hard/libgcc.a(_dvmd_tls.o)
 .data          0x0000000000000000        0x0 /usr/share/gcc-arm-none-eabi-10-2020-q4-major/bin/../lib/gcc/arm-none-eabi/10.2.1/thumb/v7e-m+fp/hard/libgcc.a(_dvmd_tls.o)
 .bss           0x0000000000000000        0x0 /usr/share/gcc-arm-none-eabi-10-2020-q4-major/bin/../lib/gcc/arm-none-eabi/10.2.1/thumb/v7e-m+fp/hard/libgcc.a(_dvmd_tls.o)
 .ARM.attributes
                0x0000000000000000       0x1e /usr/share/gcc-arm-none-eabi-10-2020-q4-major/bin/../lib/gcc/arm-none-eabi/10.2.1/thumb/v7e-m+fp/hard/libgcc.a(_dvmd_tls.o)
 .text          0x0000000000000000        0x0 /usr/share/gcc-arm-none-eabi-10-2020-q4-major/bin/../lib/gcc/arm-none-eabi/10.2.1/../../../../arm-none-eabi/lib/thumb/v7e-m+fp/hard/libc_nano.a(lib_a-aeabi_memclr.o)
 .data          0x0000000000000000        0x0 /usr/share/gcc-arm-none-eabi-10-2020-q4-major/bin/../lib/gcc/arm-none-eabi/10.2.1/../../../../arm-none-eabi/lib/thumb/v7e-m+fp/hard/libc_nano.a(lib_a-aeabi_memclr.o)
 .bss           0x0000000000000000        0x0 /usr/share/gcc-arm-none-eabi-10-2020-q4-major/bin/../lib/gcc/arm-none-eabi/10.2.1/../../../../arm-none-eabi/lib/thumb/v7e-m+fp/hard/libc_nano.a(lib_a-aeabi_memclr.o)
 .data          0x0000000000000000        0x0 /usr/share/gcc-arm-none-eabi-10-2020-q4-major/bin/../lib/gcc/arm-none-eabi/10.2.1/../../../../arm-none-eabi/lib/thumb/v7e-m+fp/hard/libc_nano.a(lib_a-aeabi_memset-soft.o)
 .bss           0x0000000000000000        0x0 /usr/share/gcc-arm-none-eabi-10-2020-q4-major/bin/../lib/gcc/arm-none-eabi/10.2.1/../../../../arm-none-eabi/lib/thumb/v7e-m+fp/hard/libc_nano.a(lib_a-aeabi_memset-soft.o)
 .text          0x0000000000000000        0x0 /usr/share/gcc-arm-none-eabi-10-2020-q4-major/bin/../lib/gcc/arm-none-eabi/10.2.1/thumb/v7e-m+fp/hard/crtend.o
 .data          0x0000000000000000        0x0 /usr/share/gcc-arm-none-eabi-10-2020-q4-major/bin/../lib/gcc/arm-none-eabi/10.2.1/thumb/v7e-m+fp/hard/crtend.o
 .bss           0x0000000000000000        0x0 /usr/share/gcc-arm-none-eabi-10-2020-q4-major/bin/../lib/gcc/arm-none-eabi/10.2.1/thumb/v7e-m+fp/hard/crtend.o
 .rodata        0x0000000000000000       0x24 /usr/share/gcc-arm-none-eabi-10-2020-q4-major/bin/../lib/gcc/arm-none-eabi/10.2.1/thumb/v7e-m+fp/hard/crtend.o
 .eh_frame      0x0000000000000000        0x4 /usr/share/gcc-arm-none-eabi-10-2020-q4-major/bin/../lib/gcc/arm-none-eabi/10.2.1/thumb/v7e-m+fp/hard/crtend.o
 .ARM.attributes
                0x0000000000000000       0x32 /usr/share/gcc-arm-none-eabi-10-2020-q4-major/bin/../lib/gcc/arm-none-eabi/10.2.1/thumb/v7e-m+fp/hard/crtend.o
 .text          0x0000000000000000        0x0 /usr/share/gcc-arm-none-eabi-10-2020-q4-major/bin/../lib/gcc/arm-none-eabi/10.2.1/thumb/v7e-m+fp/hard/crtn.o
 .data          0x0000000000000000        0x0 /usr/share/gcc-arm-none-eabi-10-2020-q4-major/bin/../lib/gcc/arm-none-eabi/10.2.1/thumb/v7e-m+fp/hard/crtn.o
 .bss           0x0000000000000000        0x0 /usr/share/gcc-arm-none-eabi-10-2020-q4-major/bin/../lib/gcc/arm-none-eabi/10.2.1/thumb/v7e-m+fp/hard/crtn.o

Memory Configuration

Name             Origin             Length             Attributes
RAM              0x0000000020000000 0x0000000000008000 xrw
FLASH            0x0000000008000000 0x0000000000020000 xr
*default*        0x0000000000000000 0xffffffffffffffff

Linker script and memory map

LOAD /usr/share/gcc-arm-none-eabi-10-2020-q4-major/bin/../lib/gcc/arm-none-eabi/10.2.1/thumb/v7e-m+fp/hard/crti.o
LOAD /usr/share/gcc-arm-none-eabi-10-2020-q4-major/bin/../lib/gcc/arm-none-eabi/10.2.1/thumb/v7e-m+fp/hard/crtbegin.o
LOAD /usr/share/gcc-arm-none-eabi-10-2020-q4-major/bin/../lib/gcc/arm-none-eabi/10.2.1/../../../../arm-none-eabi/lib/thumb/v7e-m+fp/hard/crt0.o
LOAD build/main.o
LOAD build/app_freertos.o
LOAD build/motorcontrol.o
LOAD build/pwm_common.o
LOAD build/mc_api.o
LOAD build/mc_config.o
LOAD build/mc_config_common.o
LOAD build/mcp_config.o
LOAD build/mc_tasks.o
LOAD build/mc_tasks_foc.o
LOAD build/pwm_curr_fdbk.o
LOAD build/regular_conversion_manager.o
LOAD build/mc_math.o
LOAD build/mc_interface.o
LOAD build/stm32_mc_common_it.o
LOAD build/stm32g4xx_mc_it.o
LOAD build/mc_parameters.o
LOAD build/register_interface.o
LOAD build/mcp.o
LOAD build/mc_perf.o
LOAD build/usart_aspep_driver.o
LOAD build/mc_configuration_registers.o
LOAD build/aspep.o
LOAD build/mc_app_hooks.o
LOAD build/stm32g4xx_it.o
LOAD build/stm32g4xx_hal_msp.o
LOAD build/stm32g4xx_hal_timebase_tim.o
LOAD build/vesc_commands.o
LOAD build/vesc_uart.o
LOAD build/stm32g4xx_ll_utils.o
LOAD build/stm32g4xx_ll_exti.o
LOAD build/stm32g4xx_ll_gpio.o
LOAD build/stm32g4xx_ll_adc.o
LOAD build/stm32g4xx_ll_dma.o
LOAD build/stm32g4xx_hal.o
LOAD build/stm32g4xx_hal_rcc.o
LOAD build/stm32g4xx_hal_rcc_ex.o
LOAD build/stm32g4xx_hal_flash.o
LOAD build/stm32g4xx_hal_flash_ex.o
LOAD build/stm32g4xx_hal_flash_ramfunc.o
LOAD build/stm32g4xx_hal_gpio.o
LOAD build/stm32g4xx_hal_exti.o
LOAD build/stm32g4xx_hal_dma.o
LOAD build/stm32g4xx_hal_dma_ex.o
LOAD build/stm32g4xx_hal_pwr.o
LOAD build/stm32g4xx_hal_pwr_ex.o
LOAD build/stm32g4xx_hal_cortex.o
LOAD build/stm32g4xx_ll_comp.o
LOAD build/stm32g4xx_ll_rcc.o
LOAD build/stm32g4xx_ll_cordic.o
LOAD build/stm32g4xx_ll_dac.o
LOAD build/stm32g4xx_ll_i2c.o
LOAD build/stm32g4xx_ll_opamp.o
LOAD build/stm32g4xx_hal_tim.o
LOAD build/stm32g4xx_hal_tim_ex.o
LOAD build/stm32g4xx_ll_tim.o
LOAD build/stm32g4xx_ll_usart.o
LOAD build/system_stm32g4xx.o
LOAD build/croutine.o
LOAD build/event_groups.o
LOAD build/list.o
LOAD build/queue.o
LOAD build/stream_buffer.o
LOAD build/tasks.o
LOAD build/timers.o
LOAD build/cmsis_os.o
LOAD build/heap_4.o
LOAD build/port.o
LOAD build/stspin32g4.o
LOAD build/bus_voltage_sensor.o
LOAD build/circle_limitation.o
LOAD build/digital_output.o
LOAD build/feed_forward_ctrl.o
LOAD build/pwm_curr_fdbk_ovm.o
LOAD build/ntc_temperature_sensor.o
LOAD build/open_loop.o
LOAD build/pid_regulator.o
LOAD build/pqd_motor_power_measurement.o
LOAD build/r_divider_bus_voltage_sensor.o
LOAD build/ramp_ext_mngr.o
LOAD build/revup_ctrl.o
LOAD build/speed_pos_fdbk.o
LOAD build/speed_torq_ctrl.o
LOAD build/sto_pll_speed_pos_fdbk.o
LOAD build/virtual_speed_sensor.o
LOAD build/r3_2_g4xx_pwm_curr_fdbk.o
LOAD build/mcpa.o
LOAD build/sysmem.o
LOAD build/syscalls.o
LOAD build/div.o
LOAD build/startup_stm32g431xx.o
LOAD /usr/share/gcc-arm-none-eabi-10-2020-q4-major/bin/../lib/gcc/arm-none-eabi/10.2.1/../../../../arm-none-eabi/lib/thumb/v7e-m+fp/hard/libc_nano.a
LOAD /usr/share/gcc-arm-none-eabi-10-2020-q4-major/bin/../lib/gcc/arm-none-eabi/10.2.1/../../../../arm-none-eabi/lib/thumb/v7e-m+fp/hard/libm.a
LOAD /usr/share/gcc-arm-none-eabi-10-2020-q4-major/bin/../lib/gcc/arm-none-eabi/10.2.1/../../../../arm-none-eabi/lib/thumb/v7e-m+fp/hard/libnosys.a
LOAD MCSDK_v6.3.2-Full/MotorControl/libMP/libmp-G4-MDK-ARM_ARMv7-M.a
START GROUP
LOAD /usr/share/gcc-arm-none-eabi-10-2020-q4-major/bin/../lib/gcc/arm-none-eabi/10.2.1/thumb/v7e-m+fp/hard/libgcc.a
LOAD /usr/share/gcc-arm-none-eabi-10-2020-q4-major/bin/../lib/gcc/arm-none-eabi/10.2.1/../../../../arm-none-eabi/lib/thumb/v7e-m+fp/hard/libc_nano.a
END GROUP
START GROUP
LOAD /usr/share/gcc-arm-none-eabi-10-2020-q4-major/bin/../lib/gcc/arm-none-eabi/10.2.1/thumb/v7e-m+fp/hard/libgcc.a
LOAD /usr/share/gcc-arm-none-eabi-10-2020-q4-major/bin/../lib/gcc/arm-none-eabi/10.2.1/../../../../arm-none-eabi/lib/thumb/v7e-m+fp/hard/libc_nano.a
END GROUP
LOAD /usr/share/gcc-arm-none-eabi-10-2020-q4-major/bin/../lib/gcc/arm-none-eabi/10.2.1/thumb/v7e-m+fp/hard/crtend.o
LOAD /usr/share/gcc-arm-none-eabi-10-2020-q4-major/bin/../lib/gcc/arm-none-eabi/10.2.1/thumb/v7e-m+fp/hard/crtn.o
                0x0000000020008000                _estack = (ORIGIN (RAM) + LENGTH (RAM))
                0x0000000000000200                _Min_Heap_Size = 0x200
                0x0000000000000400                _Min_Stack_Size = 0x400

.isr_vector     0x0000000008000000      0x1d8
                0x0000000008000000                . = ALIGN (0x4)
 *(.isr_vector)
 .isr_vector    0x0000000008000000      0x1d8 build/startup_stm32g431xx.o
                0x0000000008000000                g_pfnVectors
                0x00000000080001d8                . = ALIGN (0x4)

.text           0x00000000080001e0     0xd26c
                0x00000000080001e0                . = ALIGN (0x4)
 *(.text)
 .text          0x00000000080001e0       0x40 /usr/share/gcc-arm-none-eabi-10-2020-q4-major/bin/../lib/gcc/arm-none-eabi/10.2.1/thumb/v7e-m+fp/hard/crtbegin.o
 .text          0x0000000008000220      0x254 /usr/share/gcc-arm-none-eabi-10-2020-q4-major/bin/../lib/gcc/arm-none-eabi/10.2.1/thumb/v7e-m+fp/hard/libgcc.a(_arm_muldf3.o)
                0x0000000008000220                __aeabi_dmul
                0x0000000008000220                __muldf3
 .text          0x0000000008000474      0x378 /usr/share/gcc-arm-none-eabi-10-2020-q4-major/bin/../lib/gcc/arm-none-eabi/10.2.1/thumb/v7e-m+fp/hard/libgcc.a(_arm_addsubdf3.o)
                0x0000000008000474                __aeabi_drsub
                0x000000000800047c                __aeabi_dsub
                0x000000000800047c                __subdf3
                0x0000000008000480                __adddf3
                0x0000000008000480                __aeabi_dadd
                0x00000000080006f8                __aeabi_ui2d
                0x00000000080006f8                __floatunsidf
                0x0000000008000718                __floatsidf
                0x0000000008000718                __aeabi_i2d
                0x000000000800073c                __extendsfdf2
                0x000000000800073c                __aeabi_f2d
                0x0000000008000780                __aeabi_ul2d
                0x0000000008000780                __floatundidf
                0x0000000008000790                __floatdidf
                0x0000000008000790                __aeabi_l2d
 .text          0x00000000080007ec       0x50 /usr/share/gcc-arm-none-eabi-10-2020-q4-major/bin/../lib/gcc/arm-none-eabi/10.2.1/thumb/v7e-m+fp/hard/libgcc.a(_arm_fixdfsi.o)
                0x00000000080007ec                __fixdfsi
                0x00000000080007ec                __aeabi_d2iz
 .text          0x000000000800083c       0x9a /usr/share/gcc-arm-none-eabi-10-2020-q4-major/bin/../lib/gcc/arm-none-eabi/10.2.1/../../../../arm-none-eabi/lib/thumb/v7e-m+fp/hard/libc_nano.a(lib_a-aeabi_memset-soft.o)
                0x000000000800083c                __aeabi_memset
                0x000000000800083c                __aeabi_memset8
                0x000000000800083c                __aeabi_memset4
 *(.text*)
 *fill*         0x00000000080008d6        0x2 
 .text.SystemClock_Config
                0x00000000080008d8      0x104 build/main.o
                0x00000000080008d8                SystemClock_Config
 *fill*         0x00000000080009dc        0x4 
 .text.startup.main
                0x00000000080009e0     0x1038 build/main.o
                0x00000000080009e0                main
 .text.HAL_TIM_PeriodElapsedCallback
                0x0000000008001a18       0x14 build/main.o
                0x0000000008001a18                HAL_TIM_PeriodElapsedCallback
 .text.MX_MotorControl_Init
                0x0000000008001a2c       0x14 build/motorcontrol.o
                0x0000000008001a2c                MX_MotorControl_Init
 .text.vPortSetupTimerInterrupt
                0x0000000008001a40       0x1c build/motorcontrol.o
                0x0000000008001a40                vPortSetupTimerInterrupt
 .text.startTimers
                0x0000000008001a5c       0x98 build/pwm_common.o
                0x0000000008001a5c                startTimers
 .text.waitForPolarizationEnd
                0x0000000008001af4       0x3c build/pwm_common.o
                0x0000000008001af4                waitForPolarizationEnd
 .text.MC_StartMotor1
                0x0000000008001b30        0xc build/mc_api.o
                0x0000000008001b30                MC_StartMotor1
 .text.MC_StopMotor1
                0x0000000008001b3c        0xc build/mc_api.o
                0x0000000008001b3c                MC_StopMotor1
 .text.MC_AcknowledgeFaultMotor1
                0x0000000008001b48        0xc build/mc_api.o
                0x0000000008001b48                MC_AcknowledgeFaultMotor1
 .text.MC_GetSTMStateMotor1
                0x0000000008001b54        0xc build/mc_api.o
                0x0000000008001b54                MC_GetSTMStateMotor1
 .text.MC_ProfilerCommand
                0x0000000008001b60       0x24 build/mc_api.o
                0x0000000008001b60                MC_ProfilerCommand
 .text.MCboot   0x0000000008001b84       0xb8 build/mc_tasks.o
                0x0000000008001b84                MCboot
 .text.MC_RunMotorControlTasks
                0x0000000008001c3c       0xa0 build/mc_tasks.o
                0x0000000008001c3c                MC_RunMotorControlTasks
 .text.TSK_SetChargeBootCapDelayM1
                0x0000000008001cdc        0xc build/mc_tasks.o
                0x0000000008001cdc                TSK_SetChargeBootCapDelayM1
 .text.TSK_ChargeBootCapDelayHasElapsedM1
                0x0000000008001ce8       0x14 build/mc_tasks.o
                0x0000000008001ce8                TSK_ChargeBootCapDelayHasElapsedM1
 .text.TSK_SetStopPermanencyTimeM1
                0x0000000008001cfc        0xc build/mc_tasks.o
                0x0000000008001cfc                TSK_SetStopPermanencyTimeM1
 .text.TSK_StopPermanencyTimeHasElapsedM1
                0x0000000008001d08       0x14 build/mc_tasks.o
                0x0000000008001d08                TSK_StopPermanencyTimeHasElapsedM1
 .text.TSK_HighFrequencyTask
                0x0000000008001d1c       0x44 build/mc_tasks.o
                0x0000000008001d1c                TSK_HighFrequencyTask
 .text.TSK_SafetyTask_PWMOFF
                0x0000000008001d60       0xcc build/mc_tasks.o
                0x0000000008001d60                TSK_SafetyTask_PWMOFF
 .text.TSK_SafetyTask
                0x0000000008001e2c       0x28 build/mc_tasks.o
                0x0000000008001e2c                TSK_SafetyTask
 .text.TSK_HardwareFaultTask
                0x0000000008001e54       0x30 build/mc_tasks.o
                0x0000000008001e54                TSK_HardwareFaultTask
 .text.startMediumFrequencyTask
                0x0000000008001e84       0x2c build/mc_tasks.o
                0x0000000008001e84                startMediumFrequencyTask
 .text.StartSafetyTask
                0x0000000008001eb0       0x10 build/mc_tasks.o
                0x0000000008001eb0                StartSafetyTask
 .text.UI_HandleStartStopButton_cb
                0x0000000008001ec0       0x18 build/mc_tasks.o
                0x0000000008001ec0                UI_HandleStartStopButton_cb
 .text.mc_lock_pins
                0x0000000008001ed8      0x144 build/mc_tasks.o
                0x0000000008001ed8                mc_lock_pins
 .text.FOC_Clear
                0x000000000800201c       0x90 build/mc_tasks_foc.o
                0x000000000800201c                FOC_Clear
 .text.FOC_Init
                0x00000000080020ac      0x17c build/mc_tasks_foc.o
                0x00000000080020ac                FOC_Init
 .text.FOC_InitAdditionalMethods
                0x0000000008002228       0x18 build/mc_tasks_foc.o
                0x0000000008002228                FOC_InitAdditionalMethods
 .text.FOC_CalcCurrRef
                0x0000000008002240       0x70 build/mc_tasks_foc.o
                0x0000000008002240                FOC_CalcCurrRef
 .text.TSK_MediumFrequencyTaskM1
                0x00000000080022b0      0x384 build/mc_tasks_foc.o
                0x00000000080022b0                TSK_MediumFrequencyTaskM1
 .text.FOC_HighFrequencyTask
                0x0000000008002634       0x5c build/mc_tasks_foc.o
                0x0000000008002634                FOC_HighFrequencyTask
 .text.PWMC_Clear
                0x0000000008002690       0x10 build/pwm_curr_fdbk.o
                0x0000000008002690                PWMC_Clear
 .text.PWMC_SetPhaseVoltage
                0x00000000080026a0      0x2d0 build/pwm_curr_fdbk.o
                0x00000000080026a0                PWMC_SetPhaseVoltage
 .text.PWMC_SwitchOffPWM
                0x0000000008002970        0x4 build/pwm_curr_fdbk.o
                0x0000000008002970                PWMC_SwitchOffPWM
 .text.PWMC_SwitchOnPWM
                0x0000000008002974        0x4 build/pwm_curr_fdbk.o
                0x0000000008002974                PWMC_SwitchOnPWM
 .text.PWMC_CurrentReadingCalibr
                0x0000000008002978       0x48 build/pwm_curr_fdbk.o
                0x0000000008002978                PWMC_CurrentReadingCalibr
 .text.PWMC_OCP_Handler
                0x00000000080029c0       0x40 build/pwm_curr_fdbk.o
                0x00000000080029c0                PWMC_OCP_Handler
 .text.PWMC_OVP_Handler
                0x0000000008002a00       0x1c build/pwm_curr_fdbk.o
                0x0000000008002a00                PWMC_OVP_Handler
 .text.PWMC_IsFaultOccurred
                0x0000000008002a1c       0x38 build/pwm_curr_fdbk.o
                0x0000000008002a1c                PWMC_IsFaultOccurred
 .text.PWMC_RLDetectionModeEnable
                0x0000000008002a54        0x4 build/pwm_curr_fdbk.o
                0x0000000008002a54                PWMC_RLDetectionModeEnable
 .text.PWMC_RLDetectionModeDisable
                0x0000000008002a58        0x4 build/pwm_curr_fdbk.o
                0x0000000008002a58                PWMC_RLDetectionModeDisable
 .text.PWMC_RLDetectionModeSetDuty
                0x0000000008002a5c        0x4 build/pwm_curr_fdbk.o
                0x0000000008002a5c                PWMC_RLDetectionModeSetDuty
 .text.PWMC_RLTurnOnLowSidesAndStart
                0x0000000008002a60        0x4 build/pwm_curr_fdbk.o
                0x0000000008002a60                PWMC_RLTurnOnLowSidesAndStart
 .text.RCM_RegisterRegConv
                0x0000000008002a64      0x1dc build/regular_conversion_manager.o
                0x0000000008002a64                RCM_RegisterRegConv
 .text.RCM_ExecRegularConv
                0x0000000008002c40      0x194 build/regular_conversion_manager.o
                0x0000000008002c40                RCM_ExecRegularConv
 .text.RCM_ExecUserConv
                0x0000000008002dd4       0x68 build/regular_conversion_manager.o
                0x0000000008002dd4                RCM_ExecUserConv
 .text.RCM_ExecNextConv
                0x0000000008002e3c       0xa0 build/regular_conversion_manager.o
                0x0000000008002e3c                RCM_ExecNextConv
 .text.RCM_ReadOngoingConv
                0x0000000008002edc       0x58 build/regular_conversion_manager.o
                0x0000000008002edc                RCM_ReadOngoingConv
 .text.MCM_Clarke
                0x0000000008002f34       0x54 build/mc_math.o
                0x0000000008002f34                MCM_Clarke
 .text.MCM_Trig_Functions
                0x0000000008002f88       0x2c build/mc_math.o
                0x0000000008002f88                MCM_Trig_Functions
 .text.MCM_Park
                0x0000000008002fb4       0x88 build/mc_math.o
                0x0000000008002fb4                MCM_Park
 .text.MCM_Rev_Park
                0x000000000800303c       0x40 build/mc_math.o
                0x000000000800303c                MCM_Rev_Park
 .text.MCM_Sqrt
                0x000000000800307c       0x20 build/mc_math.o
                0x000000000800307c                MCM_Sqrt
 .text.MCM_floatToIntBit
                0x000000000800309c        0xc build/mc_math.o
                0x000000000800309c                MCM_floatToIntBit
 .text.MCI_ExecSpeedRamp
                0x00000000080030a8       0x14 build/mc_interface.o
                0x00000000080030a8                MCI_ExecSpeedRamp
 .text.MCI_ExecTorqueRamp
                0x00000000080030bc       0x14 build/mc_interface.o
                0x00000000080030bc                MCI_ExecTorqueRamp
 .text.MCI_FaultProcessing
                0x00000000080030d0       0x18 build/mc_interface.o
                0x00000000080030d0                MCI_FaultProcessing
 .text.MCI_ExecBufferedCommands
                0x00000000080030e8       0x78 build/mc_interface.o
                0x00000000080030e8                MCI_ExecBufferedCommands
 .text.MCI_GetSTMState
                0x0000000008003160        0x4 build/mc_interface.o
                0x0000000008003160                MCI_GetSTMState
 .text.MCI_GetOccurredFaults
                0x0000000008003164        0x4 build/mc_interface.o
                0x0000000008003164                MCI_GetOccurredFaults
 .text.MCI_GetCurrentFaults
                0x0000000008003168        0x4 build/mc_interface.o
                0x0000000008003168                MCI_GetCurrentFaults
 .text.MCI_StartMotor
                0x000000000800316c       0x2c build/mc_interface.o
                0x000000000800316c                MCI_StartMotor
 .text.MCI_StopMotor
                0x0000000008003198       0x40 build/mc_interface.o
                0x0000000008003198                MCI_StopMotor
 .text.MCI_FaultAcknowledged
                0x00000000080031d8       0x24 build/mc_interface.o
                0x00000000080031d8                MCI_FaultAcknowledged
 .text.MCI_GetFaultState
                0x00000000080031fc        0xc build/mc_interface.o
                0x00000000080031fc                MCI_GetFaultState
 .text.MCI_GetControlMode
                0x0000000008003208        0x8 build/mc_interface.o
                0x0000000008003208                MCI_GetControlMode
 .text.MCI_GetImposedMotorDirection
                0x0000000008003210       0x44 build/mc_interface.o
                0x0000000008003210                MCI_GetImposedMotorDirection
 .text.MCI_GetLastRampFinalSpeed
                0x0000000008003254        0x8 build/mc_interface.o
                0x0000000008003254                MCI_GetLastRampFinalSpeed
 .text.MCI_GetLastRampFinalDuration
                0x000000000800325c        0x4 build/mc_interface.o
                0x000000000800325c                MCI_GetLastRampFinalDuration
 .text.MCI_StopRamp
                0x0000000008003260        0xc build/mc_interface.o
                0x0000000008003260                MCI_StopRamp
 .text.MCI_GetAvrgMecSpeedUnit
                0x000000000800326c        0x8 build/mc_interface.o
                0x000000000800326c                MCI_GetAvrgMecSpeedUnit
 .text.MCI_GetMecSpeedRefUnit
                0x0000000008003274        0x8 build/mc_interface.o
                0x0000000008003274                MCI_GetMecSpeedRefUnit
 .text.MCI_GetVqd
                0x000000000800327c       0x1c build/mc_interface.o
                0x000000000800327c                MCI_GetVqd
 .text.MCI_GetValphabeta
                0x0000000008003298       0x1c build/mc_interface.o
                0x0000000008003298                MCI_GetValphabeta
 .text.MCI_GetTeref
                0x00000000080032b4        0x8 build/mc_interface.o
                0x00000000080032b4                MCI_GetTeref
 .text.MCI_Clear_Iqdref
                0x00000000080032bc       0x14 build/mc_interface.o
                0x00000000080032bc                MCI_Clear_Iqdref
 .text.MCI_Clear_PerfMeasure
                0x00000000080032d0        0x8 build/mc_interface.o
                0x00000000080032d0                MCI_Clear_PerfMeasure
 .text.HardFault_Handler
                0x00000000080032d8        0x8 build/stm32_mc_common_it.o
                0x00000000080032d8                HardFault_Handler
 .text.EXTI15_10_IRQHandler
                0x00000000080032e0       0x18 build/stm32_mc_common_it.o
                0x00000000080032e0                EXTI15_10_IRQHandler
 .text.ADC1_2_IRQHandler
                0x00000000080032f8        0xc build/stm32g4xx_mc_it.o
                0x00000000080032f8                ADC1_2_IRQHandler
 .text.TIM1_UP_TIM16_IRQHandler
                0x0000000008003304       0x18 build/stm32g4xx_mc_it.o
                0x0000000008003304                TIM1_UP_TIM16_IRQHandler
 .text.TIM1_BRK_TIM15_IRQHandler
                0x000000000800331c       0x3c build/stm32g4xx_mc_it.o
                0x000000000800331c                TIM1_BRK_TIM15_IRQHandler
 .text.USART1_IRQHandler
                0x0000000008003358        0x4 build/stm32g4xx_mc_it.o
                0x0000000008003358                USART1_IRQHandler
 .text.DMA1_Channel1_IRQHandler
                0x000000000800335c       0x2c build/stm32g4xx_mc_it.o
                0x000000000800335c                DMA1_Channel1_IRQHandler
 .text.DMA1_Channel2_IRQHandler
                0x0000000008003388       0x38 build/stm32g4xx_mc_it.o
                0x0000000008003388                DMA1_Channel2_IRQHandler
 .text.RI_SetRegisterGlobal
                0x00000000080033c0       0xa8 build/register_interface.o
                0x00000000080033c0                RI_SetRegisterGlobal
 .text.RI_SetRegisterMotor1
                0x0000000008003468      0x4c4 build/register_interface.o
                0x0000000008003468                RI_SetRegisterMotor1
 .text.RI_GetRegisterGlobal
                0x000000000800392c      0x12c build/register_interface.o
                0x000000000800392c                RI_GetRegisterGlobal
 .text.RI_GetRegisterMotor1
                0x0000000008003a58      0x73c build/register_interface.o
                0x0000000008003a58                RI_GetRegisterMotor1
 .text.RI_SetRegCommandParser
                0x0000000008004194       0xdc build/mcp.o
                0x0000000008004194                RI_SetRegCommandParser
 .text.RI_GetRegCommandParser
                0x0000000008004270       0x98 build/mcp.o
                0x0000000008004270                RI_GetRegCommandParser
 .text.MCP_ReceivedPacket
                0x0000000008004308      0x1b8 build/mcp.o
                0x0000000008004308                MCP_ReceivedPacket
 .text.MC_Perf_Measure_Init
                0x00000000080044c0       0x44 build/mc_perf.o
                0x00000000080044c0                MC_Perf_Measure_Init
 .text.MC_Perf_Clear
                0x0000000008004504       0x18 build/mc_perf.o
                0x0000000008004504                MC_Perf_Clear
 .text.MC_BG_Perf_Measure_Start
                0x000000000800451c       0x18 build/mc_perf.o
                0x000000000800451c                MC_BG_Perf_Measure_Start
 .text.MC_Perf_Measure_Stop
                0x0000000008004534       0x44 build/mc_perf.o
                0x0000000008004534                MC_Perf_Measure_Stop
 .text.MC_BG_Perf_Measure_Stop
                0x0000000008004578       0x4c build/mc_perf.o
                0x0000000008004578                MC_BG_Perf_Measure_Stop
 .text.MC_Perf_GetCPU_Load
                0x00000000080045c4       0x58 build/mc_perf.o
                0x00000000080045c4                MC_Perf_GetCPU_Load
 .text.MC_Perf_GetMaxCPU_Load
                0x000000000800461c       0x60 build/mc_perf.o
                0x000000000800461c                MC_Perf_GetMaxCPU_Load
 .text.MC_Perf_GetMinCPU_Load
                0x000000000800467c       0x7c build/mc_perf.o
                0x000000000800467c                MC_Perf_GetMinCPU_Load
 .text.UASPEP_INIT
                0x00000000080046f8       0x84 build/usart_aspep_driver.o
                0x00000000080046f8                UASPEP_INIT
 .text.UASPEP_CFG_TRANSMISSION
                0x000000000800477c       0x38 build/usart_aspep_driver.o
                0x000000000800477c                UASPEP_CFG_TRANSMISSION
 .text.UASPEP_CFG_RECEPTION
                0x00000000080047b4       0x38 build/usart_aspep_driver.o
                0x00000000080047b4                UASPEP_CFG_RECEPTION
 .text.UASPEP_IDLE_ENABLE
                0x00000000080047ec       0x18 build/usart_aspep_driver.o
                0x00000000080047ec                UASPEP_IDLE_ENABLE
 .text.ASPEP_start
                0x0000000008004804       0x28 build/aspep.o
                0x0000000008004804                ASPEP_start
 .text.ASPEP_sendBeacon
                0x000000000800482c       0x8c build/aspep.o
                0x000000000800482c                ASPEP_sendBeacon
 .text.ASPEP_sendPing
                0x00000000080048b8       0x90 build/aspep.o
                0x00000000080048b8                ASPEP_sendPing
 .text.ASPEP_getBuffer
                0x0000000008004948       0x6c build/aspep.o
                0x0000000008004948                ASPEP_getBuffer
 .text.ASPEP_sendPacket
                0x00000000080049b4      0x118 build/aspep.o
                0x00000000080049b4                ASPEP_sendPacket
 .text.ASPEP_RXframeProcess
                0x0000000008004acc      0x2ac build/aspep.o
                0x0000000008004acc                ASPEP_RXframeProcess
 .text.ASPEP_HWDataReceivedIT
                0x0000000008004d78       0x9c build/aspep.o
                0x0000000008004d78                ASPEP_HWDataReceivedIT
 .text.MC_APP_BootHook
                0x0000000008004e14        0x4 build/mc_app_hooks.o
                0x0000000008004e14                MC_APP_BootHook
 .text.MC_APP_PostMediumFrequencyHook_M1
                0x0000000008004e18        0x4 build/mc_app_hooks.o
                0x0000000008004e18                MC_APP_PostMediumFrequencyHook_M1
 .text.TIM6_DAC_IRQHandler
                0x0000000008004e1c        0xc build/stm32g4xx_it.o
                0x0000000008004e1c                TIM6_DAC_IRQHandler
 .text.HAL_MspInit
                0x0000000008004e28       0x44 build/stm32g4xx_hal_msp.o
                0x0000000008004e28                HAL_MspInit
 .text.HAL_InitTick
                0x0000000008004e6c       0x94 build/stm32g4xx_hal_timebase_tim.o
                0x0000000008004e6c                HAL_InitTick
 .text.VESC_ExecuteCommand
                0x0000000008004f00       0x44 build/vesc_commands.o
                0x0000000008004f00                VESC_ExecuteCommand
 *fill*         0x0000000008004f44        0x4 
 .text.VESC_UART_Init
                0x0000000008004f48      0x1d0 build/vesc_uart.o
                0x0000000008004f48                VESC_UART_Init
 .text.VESC_ProcessPacket
                0x0000000008005118       0xe4 build/vesc_uart.o
                0x0000000008005118                VESC_ProcessPacket
 .text.VESC_SendPacket
                0x00000000080051fc      0x134 build/vesc_uart.o
                0x00000000080051fc                VESC_SendPacket
 .text.VESC_UART_IRQHandler
                0x0000000008005330       0x78 build/vesc_uart.o
                0x0000000008005330                VESC_UART_IRQHandler
 .text.LL_SetSystemCoreClock
                0x00000000080053a8        0xc build/stm32g4xx_ll_utils.o
                0x00000000080053a8                LL_SetSystemCoreClock
 .text.LL_EXTI_Init
                0x00000000080053b4      0x174 build/stm32g4xx_ll_exti.o
                0x00000000080053b4                LL_EXTI_Init
 .text.LL_GPIO_Init
                0x0000000008005528      0x1c0 build/stm32g4xx_ll_gpio.o
                0x0000000008005528                LL_GPIO_Init
 .text.LL_ADC_CommonInit
                0x00000000080056e8       0x54 build/stm32g4xx_ll_adc.o
                0x00000000080056e8                LL_ADC_CommonInit
 .text.LL_ADC_Init
                0x000000000800573c       0x34 build/stm32g4xx_ll_adc.o
                0x000000000800573c                LL_ADC_Init
 .text.LL_ADC_REG_Init
                0x0000000008005770       0x60 build/stm32g4xx_ll_adc.o
                0x0000000008005770                LL_ADC_REG_Init
 .text.LL_ADC_INJ_Init
                0x00000000080057d0       0x48 build/stm32g4xx_ll_adc.o
                0x00000000080057d0                LL_ADC_INJ_Init
 .text.HAL_Init
                0x0000000008005818       0x30 build/stm32g4xx_hal.o
                0x0000000008005818                HAL_Init
 .text.HAL_IncTick
                0x0000000008005848       0x18 build/stm32g4xx_hal.o
                0x0000000008005848                HAL_IncTick
 .text.HAL_RCC_GetHCLKFreq
                0x0000000008005860        0xc build/stm32g4xx_hal_rcc.o
                0x0000000008005860                HAL_RCC_GetHCLKFreq
 .text.HAL_RCC_GetPCLK1Freq
                0x000000000800586c       0x24 build/stm32g4xx_hal_rcc.o
                0x000000000800586c                HAL_RCC_GetPCLK1Freq
 .text.HAL_RCC_GetClockConfig
                0x0000000008005890       0x44 build/stm32g4xx_hal_rcc.o
                0x0000000008005890                HAL_RCC_GetClockConfig
 .text.HAL_PWREx_DisableUCPDDeadBattery
                0x00000000080058d4       0x10 build/stm32g4xx_hal_pwr_ex.o
                0x00000000080058d4                HAL_PWREx_DisableUCPDDeadBattery
 .text.HAL_NVIC_SetPriorityGrouping
                0x00000000080058e4       0x24 build/stm32g4xx_hal_cortex.o
                0x00000000080058e4                HAL_NVIC_SetPriorityGrouping
 .text.HAL_NVIC_SetPriority
                0x0000000008005908       0x7c build/stm32g4xx_hal_cortex.o
                0x0000000008005908                HAL_NVIC_SetPriority
 .text.HAL_NVIC_EnableIRQ
                0x0000000008005984       0x1c build/stm32g4xx_hal_cortex.o
                0x0000000008005984                HAL_NVIC_EnableIRQ
 .text.HAL_NVIC_SystemReset
                0x00000000080059a0       0x24 build/stm32g4xx_hal_cortex.o
                0x00000000080059a0                HAL_NVIC_SystemReset
 .text.HAL_SYSTICK_Config
                0x00000000080059c4       0x34 build/stm32g4xx_hal_cortex.o
                0x00000000080059c4                HAL_SYSTICK_Config
 .text.LL_COMP_Init
                0x00000000080059f8       0x34 build/stm32g4xx_ll_comp.o
                0x00000000080059f8                LL_COMP_Init
 .text.LL_RCC_GetSystemClocksFreq
                0x0000000008005a2c       0xa4 build/stm32g4xx_ll_rcc.o
                0x0000000008005a2c                LL_RCC_GetSystemClocksFreq
 .text.LL_RCC_GetUSARTClockFreq
                0x0000000008005ad0      0x22c build/stm32g4xx_ll_rcc.o
                0x0000000008005ad0                LL_RCC_GetUSARTClockFreq
 .text.LL_RCC_GetUARTClockFreq
                0x0000000008005cfc      0x11c build/stm32g4xx_ll_rcc.o
                0x0000000008005cfc                LL_RCC_GetUARTClockFreq
 .text.LL_DAC_Init
                0x0000000008005e18       0xb4 build/stm32g4xx_ll_dac.o
                0x0000000008005e18                LL_DAC_Init
 .text.LL_I2C_Init
                0x0000000008005ecc       0x70 build/stm32g4xx_ll_i2c.o
                0x0000000008005ecc                LL_I2C_Init
 .text.LL_OPAMP_Init
                0x0000000008005f3c       0x54 build/stm32g4xx_ll_opamp.o
                0x0000000008005f3c                LL_OPAMP_Init
 .text.HAL_TIM_Base_MspInit
                0x0000000008005f90        0x4 build/stm32g4xx_hal_tim.o
                0x0000000008005f90                HAL_TIM_Base_MspInit
 .text.HAL_TIM_Base_Init
                0x0000000008005f94      0x120 build/stm32g4xx_hal_tim.o
                0x0000000008005f94                HAL_TIM_Base_Init
 .text.HAL_TIM_Base_Start_IT
                0x00000000080060b4       0x74 build/stm32g4xx_hal_tim.o
                0x00000000080060b4                HAL_TIM_Base_Start_IT
 .text.HAL_TIM_OC_DelayElapsedCallback
                0x0000000008006128        0x4 build/stm32g4xx_hal_tim.o
                0x0000000008006128                HAL_TIM_OC_DelayElapsedCallback
 .text.HAL_TIM_IC_CaptureCallback
                0x000000000800612c        0x4 build/stm32g4xx_hal_tim.o
                0x000000000800612c                HAL_TIM_IC_CaptureCallback
 .text.HAL_TIM_PWM_PulseFinishedCallback
                0x0000000008006130        0x4 build/stm32g4xx_hal_tim.o
                0x0000000008006130                HAL_TIM_PWM_PulseFinishedCallback
 .text.HAL_TIM_TriggerCallback
                0x0000000008006134        0x4 build/stm32g4xx_hal_tim.o
                0x0000000008006134                HAL_TIM_TriggerCallback
 .text.HAL_TIM_IRQHandler
                0x0000000008006138      0x1c4 build/stm32g4xx_hal_tim.o
                0x0000000008006138                HAL_TIM_IRQHandler
 .text.HAL_TIMEx_CommutCallback
                0x00000000080062fc        0x4 build/stm32g4xx_hal_tim_ex.o
                0x00000000080062fc                HAL_TIMEx_CommutCallback
 .text.HAL_TIMEx_BreakCallback
                0x0000000008006300        0x4 build/stm32g4xx_hal_tim_ex.o
                0x0000000008006300                HAL_TIMEx_BreakCallback
 .text.HAL_TIMEx_Break2Callback
                0x0000000008006304        0x4 build/stm32g4xx_hal_tim_ex.o
                0x0000000008006304                HAL_TIMEx_Break2Callback
 .text.HAL_TIMEx_EncoderIndexCallback
                0x0000000008006308        0x4 build/stm32g4xx_hal_tim_ex.o
                0x0000000008006308                HAL_TIMEx_EncoderIndexCallback
 .text.HAL_TIMEx_DirectionChangeCallback
                0x000000000800630c        0x4 build/stm32g4xx_hal_tim_ex.o
                0x000000000800630c                HAL_TIMEx_DirectionChangeCallback
 .text.HAL_TIMEx_IndexErrorCallback
                0x0000000008006310        0x4 build/stm32g4xx_hal_tim_ex.o
                0x0000000008006310                HAL_TIMEx_IndexErrorCallback
 .text.HAL_TIMEx_TransitionErrorCallback
                0x0000000008006314        0x4 build/stm32g4xx_hal_tim_ex.o
                0x0000000008006314                HAL_TIMEx_TransitionErrorCallback
 .text.LL_TIM_Init
                0x0000000008006318       0xa8 build/stm32g4xx_ll_tim.o
                0x0000000008006318                LL_TIM_Init
 .text.LL_TIM_OC_Init
                0x00000000080063c0      0x358 build/stm32g4xx_ll_tim.o
                0x00000000080063c0                LL_TIM_OC_Init
 .text.LL_TIM_BDTR_Init
                0x0000000008006718       0x88 build/stm32g4xx_ll_tim.o
                0x0000000008006718                LL_TIM_BDTR_Init
 .text.LL_USART_Init
                0x00000000080067a0       0xf8 build/stm32g4xx_ll_usart.o
                0x00000000080067a0                LL_USART_Init
 .text.SystemInit
                0x0000000008006898       0x14 build/system_stm32g4xx.o
                0x0000000008006898                SystemInit
 .text.vListInitialise
                0x00000000080068ac       0x18 build/list.o
                0x00000000080068ac                vListInitialise
 .text.vListInitialiseItem
                0x00000000080068c4        0x8 build/list.o
                0x00000000080068c4                vListInitialiseItem
 .text.vListInsertEnd
                0x00000000080068cc       0x20 build/list.o
                0x00000000080068cc                vListInsertEnd
 .text.vListInsert
                0x00000000080068ec       0x30 build/list.o
                0x00000000080068ec                vListInsert
 .text.uxListRemove
                0x000000000800691c       0x28 build/list.o
                0x000000000800691c                uxListRemove
 .text.prvIdleTask
                0x0000000008006944       0x6c build/tasks.o
 .text.prvAddCurrentTaskToDelayedList
                0x00000000080069b0       0x8c build/tasks.o
 .text.xTaskIncrementTick.part.0
                0x0000000008006a3c      0x154 build/tasks.o
 .text.xTaskResumeAll.part.0
                0x0000000008006b90      0x144 build/tasks.o
 .text.xTaskCreate
                0x0000000008006cd4      0x260 build/tasks.o
                0x0000000008006cd4                xTaskCreate
 .text.vTaskDelay
                0x0000000008006f34       0x60 build/tasks.o
                0x0000000008006f34                vTaskDelay
 .text.vTaskStartScheduler
                0x0000000008006f94      0x1cc build/tasks.o
                0x0000000008006f94                vTaskStartScheduler
 .text.vTaskSuspendAll
                0x0000000008007160       0x10 build/tasks.o
                0x0000000008007160                vTaskSuspendAll
 .text.xTaskResumeAll
                0x0000000008007170       0x20 build/tasks.o
                0x0000000008007170                xTaskResumeAll
 .text.xTaskIncrementTick
                0x0000000008007190       0x20 build/tasks.o
                0x0000000008007190                xTaskIncrementTick
 .text.vTaskSwitchContext
                0x00000000080071b0       0x70 build/tasks.o
                0x00000000080071b0                vTaskSwitchContext
 .text.osKernelStart
                0x0000000008007220        0xc build/cmsis_os.o
                0x0000000008007220                osKernelStart
 .text.osThreadCreate
                0x000000000800722c       0x38 build/cmsis_os.o
                0x000000000800722c                osThreadCreate
 .text.pvPortMalloc
                0x0000000008007264      0x170 build/heap_4.o
                0x0000000008007264                pvPortMalloc
 .text.vPortFree
                0x00000000080073d4       0xc4 build/heap_4.o
                0x00000000080073d4                vPortFree
 .text.prvPortStartFirstTask
                0x0000000008007498       0x28 build/port.o
 .text.vPortEnableVFP
                0x00000000080074c0       0x14 build/port.o
 .text.prvTaskExitError
                0x00000000080074d4       0x40 build/port.o
 .text.pxPortInitialiseStack
                0x0000000008007514       0x28 build/port.o
                0x0000000008007514                pxPortInitialiseStack
 *fill*         0x000000000800753c        0x4 
 .text.SVC_Handler
                0x0000000008007540       0x24 build/port.o
                0x0000000008007540                SVC_Handler
 .text.vPortEnterCritical
                0x0000000008007564       0x44 build/port.o
                0x0000000008007564                vPortEnterCritical
 .text.vPortExitCritical
                0x00000000080075a8       0x28 build/port.o
                0x00000000080075a8                vPortExitCritical
 .text.PendSV_Handler
                0x00000000080075d0       0x64 build/port.o
                0x00000000080075d0                PendSV_Handler
 .text.SysTick_Handler
                0x0000000008007634       0x2c build/port.o
                0x0000000008007634                SysTick_Handler
 .text.xPortStartScheduler
                0x0000000008007660      0x140 build/port.o
                0x0000000008007660                xPortStartScheduler
 .text.STSPIN32G4_readReg.part.0
                0x00000000080077a0      0x118 build/stspin32g4.o
 .text.STSPIN32G4_writeReg.part.0
                0x00000000080078b8      0x10c build/stspin32g4.o
 .text.STSPIN32G4_init
                0x00000000080079c4       0x14 build/stspin32g4.o
                0x00000000080079c4                STSPIN32G4_init
 .text.STSPIN32G4_setVCC
                0x00000000080079d8      0x1c0 build/stspin32g4.o
                0x00000000080079d8                STSPIN32G4_setVCC
 .text.STSPIN32G4_setVDSP
                0x0000000008007b98      0x148 build/stspin32g4.o
                0x0000000008007b98                STSPIN32G4_setVDSP
 .text.STSPIN32G4_clearFaults
                0x0000000008007ce0       0x14 build/stspin32g4.o
                0x0000000008007ce0                STSPIN32G4_clearFaults
 .text.STSPIN32G4_reset
                0x0000000008007cf4       0x4c build/stspin32g4.o
                0x0000000008007cf4                STSPIN32G4_reset
 .text.VBS_GetAvBusVoltage_V
                0x0000000008007d40        0xc build/bus_voltage_sensor.o
                0x0000000008007d40                VBS_GetAvBusVoltage_V
 .text.Circle_Limitation
                0x0000000008007d4c       0x60 build/circle_limitation.o
                0x0000000008007d4c                Circle_Limitation
 .text.FF_Init  0x0000000008007dac       0x1c build/feed_forward_ctrl.o
                0x0000000008007dac                FF_Init
 .text.FF_Clear
                0x0000000008007dc8        0x8 build/feed_forward_ctrl.o
                0x0000000008007dc8                FF_Clear
 .text.FF_VqdffComputation
                0x0000000008007dd0       0xb0 build/feed_forward_ctrl.o
                0x0000000008007dd0                FF_VqdffComputation
 .text.FF_InitFOCAdditionalMethods
                0x0000000008007e80       0x1c build/feed_forward_ctrl.o
                0x0000000008007e80                FF_InitFOCAdditionalMethods
 .text.FF_GetVqdff
                0x0000000008007e9c       0x18 build/feed_forward_ctrl.o
                0x0000000008007e9c                FF_GetVqdff
 .text.FF_GetVqdAvPIout
                0x0000000008007eb4       0x18 build/feed_forward_ctrl.o
                0x0000000008007eb4                FF_GetVqdAvPIout
 .text.NTC_SetFaultState
                0x0000000008007ecc       0x2c build/ntc_temperature_sensor.o
                0x0000000008007ecc                NTC_SetFaultState
 .text.NTC_Init
                0x0000000008007ef8       0x24 build/ntc_temperature_sensor.o
                0x0000000008007ef8                NTC_Init
 .text.NTC_CalcAvTemp
                0x0000000008007f1c       0x30 build/ntc_temperature_sensor.o
                0x0000000008007f1c                NTC_CalcAvTemp
 .text.NTC_GetAvTemp_C
                0x0000000008007f4c       0x24 build/ntc_temperature_sensor.o
                0x0000000008007f4c                NTC_GetAvTemp_C
 .text.PID_HandleInit
                0x0000000008007f70       0x10 build/pid_regulator.o
                0x0000000008007f70                PID_HandleInit
 .text.PID_SetKP
                0x0000000008007f80        0x4 build/pid_regulator.o
                0x0000000008007f80                PID_SetKP
 .text.PID_SetKI
                0x0000000008007f84        0x4 build/pid_regulator.o
                0x0000000008007f84                PID_SetKI
 .text.PID_GetKP
                0x0000000008007f88        0x8 build/pid_regulator.o
                0x0000000008007f88                PID_GetKP
 .text.PID_GetKI
                0x0000000008007f90        0x8 build/pid_regulator.o
                0x0000000008007f90                PID_GetKI
 .text.PID_SetIntegralTerm
                0x0000000008007f98        0x4 build/pid_regulator.o
                0x0000000008007f98                PID_SetIntegralTerm
 .text.PID_SetKPDivisorPOW2
                0x0000000008007f9c        0xc build/pid_regulator.o
                0x0000000008007f9c                PID_SetKPDivisorPOW2
 .text.PID_GetKIDivisor
                0x0000000008007fa8        0x4 build/pid_regulator.o
                0x0000000008007fa8                PID_GetKIDivisor
 .text.PID_SetLowerIntegralTermLimit
                0x0000000008007fac        0x4 build/pid_regulator.o
                0x0000000008007fac                PID_SetLowerIntegralTermLimit
 .text.PID_SetUpperIntegralTermLimit
                0x0000000008007fb0        0x4 build/pid_regulator.o
                0x0000000008007fb0                PID_SetUpperIntegralTermLimit
 .text.PID_SetKIDivisorPOW2
                0x0000000008007fb4       0x28 build/pid_regulator.o
                0x0000000008007fb4                PID_SetKIDivisorPOW2
 .text.PID_SetKD
                0x0000000008007fdc        0x4 build/pid_regulator.o
                0x0000000008007fdc                PID_SetKD
 .text.PID_GetKD
                0x0000000008007fe0        0x8 build/pid_regulator.o
                0x0000000008007fe0                PID_GetKD
 .text.PI_Controller
                0x0000000008007fe8       0x8c build/pid_regulator.o
                0x0000000008007fe8                PI_Controller
 .text.PQD_CalcElMotorPower
                0x0000000008008074       0x38 build/pqd_motor_power_measurement.o
                0x0000000008008074                PQD_CalcElMotorPower
 .text.PQD_GetAvrgElMotorPowerW
                0x00000000080080ac       0x34 build/pqd_motor_power_measurement.o
                0x00000000080080ac                PQD_GetAvrgElMotorPowerW
 .text.RVBS_Clear
                0x00000000080080e0       0x3c build/r_divider_bus_voltage_sensor.o
                0x00000000080080e0                RVBS_Clear
 .text.RVBS_Init
                0x000000000800811c        0x8 build/r_divider_bus_voltage_sensor.o
                0x000000000800811c                RVBS_Init
 .text.RVBS_CheckFaultState
                0x0000000008008124       0x4c build/r_divider_bus_voltage_sensor.o
                0x0000000008008124                RVBS_CheckFaultState
 .text.RVBS_CalcAvVbus
                0x0000000008008170       0x5c build/r_divider_bus_voltage_sensor.o
                0x0000000008008170                RVBS_CalcAvVbus
 .text.REMNG_Init
                0x00000000080081cc       0x10 build/ramp_ext_mngr.o
                0x00000000080081cc                REMNG_Init
 .text.REMNG_Calc
                0x00000000080081dc       0x44 build/ramp_ext_mngr.o
                0x00000000080081dc                REMNG_Calc
 .text.REMNG_RampCompleted
                0x0000000008008220        0xc build/ramp_ext_mngr.o
                0x0000000008008220                REMNG_RampCompleted
 .text.REMNG_StopRamp
                0x000000000800822c        0x8 build/ramp_ext_mngr.o
                0x000000000800822c                REMNG_StopRamp
 .text.getScalingFactor
                0x0000000008008234       0x2c build/ramp_ext_mngr.o
                0x0000000008008234                getScalingFactor
 .text.REMNG_ExecRamp
                0x0000000008008260       0x88 build/ramp_ext_mngr.o
                0x0000000008008260                REMNG_ExecRamp
 .text.RUC_Init
                0x00000000080082e8       0x70 build/revup_ctrl.o
                0x00000000080082e8                RUC_Init
 .text.RUC_Clear
                0x0000000008008358       0x90 build/revup_ctrl.o
                0x0000000008008358                RUC_Clear
 .text.RUC_Exec
                0x00000000080083e8       0x6c build/revup_ctrl.o
                0x00000000080083e8                RUC_Exec
 .text.RUC_FirstAccelerationStageReached
                0x0000000008008454       0x14 build/revup_ctrl.o
                0x0000000008008454                RUC_FirstAccelerationStageReached
 .text.RUC_SetPhaseDurationms
                0x0000000008008468        0xc build/revup_ctrl.o
                0x0000000008008468                RUC_SetPhaseDurationms
 .text.RUC_SetPhaseFinalMecSpeedUnit
                0x0000000008008474        0xc build/revup_ctrl.o
                0x0000000008008474                RUC_SetPhaseFinalMecSpeedUnit
 .text.RUC_SetPhaseFinalTorque
                0x0000000008008480        0xc build/revup_ctrl.o
                0x0000000008008480                RUC_SetPhaseFinalTorque
 .text.SPD_GetAvrgMecSpeedUnit
                0x000000000800848c        0x8 build/speed_pos_fdbk.o
                0x000000000800848c                SPD_GetAvrgMecSpeedUnit
 .text.SPD_GetElSpeedDpp
                0x0000000008008494        0x8 build/speed_pos_fdbk.o
                0x0000000008008494                SPD_GetElSpeedDpp
 .text.SPD_IsMecSpeedReliable
                0x000000000800849c       0x6c build/speed_pos_fdbk.o
                0x000000000800849c                SPD_IsMecSpeedReliable
 .text.SPD_GetS16Speed
                0x0000000008008508       0x14 build/speed_pos_fdbk.o
                0x0000000008008508                SPD_GetS16Speed
 .text.SPD_GetElToMecRatio
                0x000000000800851c        0x4 build/speed_pos_fdbk.o
                0x000000000800851c                SPD_GetElToMecRatio
 .text.SPD_SetElToMecRatio
                0x0000000008008520        0x4 build/speed_pos_fdbk.o
                0x0000000008008520                SPD_SetElToMecRatio
 .text.STC_Init
                0x0000000008008524       0x2c build/speed_torq_ctrl.o
                0x0000000008008524                STC_Init
 .text.STC_SetSpeedSensor
                0x0000000008008550        0x4 build/speed_torq_ctrl.o
                0x0000000008008550                STC_SetSpeedSensor
 .text.STC_Clear
                0x0000000008008554       0x10 build/speed_torq_ctrl.o
                0x0000000008008554                STC_Clear
 .text.STC_GetMecSpeedRefUnit
                0x0000000008008564        0x8 build/speed_torq_ctrl.o
                0x0000000008008564                STC_GetMecSpeedRefUnit
 .text.STC_SetControlMode
                0x000000000800856c        0x8 build/speed_torq_ctrl.o
                0x000000000800856c                STC_SetControlMode
 .text.STC_ExecRamp
                0x0000000008008574       0x90 build/speed_torq_ctrl.o
                0x0000000008008574                STC_ExecRamp
 .text.STC_CalcTorqueReference
                0x0000000008008604       0x54 build/speed_torq_ctrl.o
                0x0000000008008604                STC_CalcTorqueReference
 .text.STC_GetDefaultIqdref
                0x0000000008008658       0x1c build/speed_torq_ctrl.o
                0x0000000008008658                STC_GetDefaultIqdref
 .text.STC_ForceSpeedReferenceToCurrentSpeed
                0x0000000008008674       0x10 build/speed_torq_ctrl.o
                0x0000000008008674                STC_ForceSpeedReferenceToCurrentSpeed
 .text.STO_PLL_CalcElAngle
                0x0000000008008684      0x1f0 build/sto_pll_speed_pos_fdbk.o
                0x0000000008008684                STO_PLL_CalcElAngle
 .text.STO_PLL_CalcAvrgMecSpeedUnit
                0x0000000008008874      0x150 build/sto_pll_speed_pos_fdbk.o
                0x0000000008008874                STO_PLL_CalcAvrgMecSpeedUnit
 .text.STO_PLL_CalcAvrgElSpeedDpp
                0x00000000080089c4       0x64 build/sto_pll_speed_pos_fdbk.o
                0x00000000080089c4                STO_PLL_CalcAvrgElSpeedDpp
 .text.STO_PLL_Clear
                0x0000000008008a28       0x4c build/sto_pll_speed_pos_fdbk.o
                0x0000000008008a28                STO_PLL_Clear
 .text.STO_PLL_Init
                0x0000000008008a74       0x74 build/sto_pll_speed_pos_fdbk.o
                0x0000000008008a74                STO_PLL_Init
 .text.STO_PLL_IsObserverConverged
                0x0000000008008ae8       0xc4 build/sto_pll_speed_pos_fdbk.o
                0x0000000008008ae8                STO_PLL_IsObserverConverged
 .text.STO_PLL_GetEstimatedBemf
                0x0000000008008bac       0x18 build/sto_pll_speed_pos_fdbk.o
                0x0000000008008bac                STO_PLL_GetEstimatedBemf
 .text.STO_PLL_GetObserverGains
                0x0000000008008bc4       0x10 build/sto_pll_speed_pos_fdbk.o
                0x0000000008008bc4                STO_PLL_GetObserverGains
 .text.STO_PLL_SetObserverGains
                0x0000000008008bd4        0x8 build/sto_pll_speed_pos_fdbk.o
                0x0000000008008bd4                STO_PLL_SetObserverGains
 .text.STO_OTF_ResetPLL
                0x0000000008008bdc        0xc build/sto_pll_speed_pos_fdbk.o
                0x0000000008008bdc                STO_OTF_ResetPLL
 .text.STO_PLL_IsVarianceTight
                0x0000000008008be8        0x8 build/sto_pll_speed_pos_fdbk.o
                0x0000000008008be8                STO_PLL_IsVarianceTight
 .text.STO_PLL_ForceConvergency1
                0x0000000008008bf0        0xc build/sto_pll_speed_pos_fdbk.o
                0x0000000008008bf0                STO_PLL_ForceConvergency1
 .text.STO_PLL_ForceConvergency2
                0x0000000008008bfc        0xc build/sto_pll_speed_pos_fdbk.o
                0x0000000008008bfc                STO_PLL_ForceConvergency2
 .text.STO_SetDirection
                0x0000000008008c08        0x8 build/sto_pll_speed_pos_fdbk.o
                0x0000000008008c08                STO_SetDirection
 .text.VSS_Clear
                0x0000000008008c10       0x1c build/virtual_speed_sensor.o
                0x0000000008008c10                VSS_Clear
 .text.VSS_Init
                0x0000000008008c2c        0x8 build/virtual_speed_sensor.o
                0x0000000008008c2c                VSS_Init
 .text.VSS_CalcElAngle
                0x0000000008008c34       0xa8 build/virtual_speed_sensor.o
                0x0000000008008c34                VSS_CalcElAngle
 .text.VSS_CalcAvrgMecSpeedUnit
                0x0000000008008cdc       0xa4 build/virtual_speed_sensor.o
                0x0000000008008cdc                VSS_CalcAvrgMecSpeedUnit
 .text.VSS_SetMecAcceleration
                0x0000000008008d80       0x90 build/virtual_speed_sensor.o
                0x0000000008008d80                VSS_SetMecAcceleration
 .text.VSS_SetStartTransition
                0x0000000008008e10       0x1c build/virtual_speed_sensor.o
                0x0000000008008e10                VSS_SetStartTransition
 .text.VSS_TransitionEnded
                0x0000000008008e2c        0x8 build/virtual_speed_sensor.o
                0x0000000008008e2c                VSS_TransitionEnded
 .text.R3_2_ADCxInit
                0x0000000008008e34       0xbc build/r3_2_g4xx_pwm_curr_fdbk.o
 .text.R3_2_GetPhaseCurrents
                0x0000000008008ef0      0x18c build/r3_2_g4xx_pwm_curr_fdbk.o
                0x0000000008008ef0                R3_2_GetPhaseCurrents
 .text.R3_2_SetADCSampPointPolarization
                0x000000000800907c       0x44 build/r3_2_g4xx_pwm_curr_fdbk.o
                0x000000000800907c                R3_2_SetADCSampPointPolarization
 .text.R3_2_HFCurrentsPolarizationAB
                0x00000000080090c0       0x58 build/r3_2_g4xx_pwm_curr_fdbk.o
 .text.R3_2_HFCurrentsPolarizationC
                0x0000000008009118       0x4c build/r3_2_g4xx_pwm_curr_fdbk.o
 .text.R3_2_SwitchOnPWM
                0x0000000008009164       0x98 build/r3_2_g4xx_pwm_curr_fdbk.o
                0x0000000008009164                R3_2_SwitchOnPWM
 .text.R3_2_SwitchOffPWM
                0x00000000080091fc       0x7c build/r3_2_g4xx_pwm_curr_fdbk.o
                0x00000000080091fc                R3_2_SwitchOffPWM
 .text.R3_2_RLGetPhaseCurrents
                0x0000000008009278       0x5c build/r3_2_g4xx_pwm_curr_fdbk.o
 .text.R3_2_RLSwitchOnPWM
                0x00000000080092d4       0xb4 build/r3_2_g4xx_pwm_curr_fdbk.o
 .text.R3_2_TurnOnLowSides
                0x0000000008009388       0x54 build/r3_2_g4xx_pwm_curr_fdbk.o
                0x0000000008009388                R3_2_TurnOnLowSides
 .text.R3_2_SetAOReferenceVoltage
                0x00000000080093dc       0x98 build/r3_2_g4xx_pwm_curr_fdbk.o
 .text.R3_2_RLTurnOnLowSides
                0x0000000008009474       0x50 build/r3_2_g4xx_pwm_curr_fdbk.o
 .text.R3_2_Init
                0x00000000080094c4      0x28c build/r3_2_g4xx_pwm_curr_fdbk.o
                0x00000000080094c4                R3_2_Init
 .text.R3_2_SetOffsetCalib
                0x0000000008009750       0x1c build/r3_2_g4xx_pwm_curr_fdbk.o
                0x0000000008009750                R3_2_SetOffsetCalib
 .text.R3_2_GetOffsetCalib
                0x000000000800976c       0x10 build/r3_2_g4xx_pwm_curr_fdbk.o
                0x000000000800976c                R3_2_GetOffsetCalib
 .text.R3_2_CurrentReadingPolarization
                0x000000000800977c      0x148 build/r3_2_g4xx_pwm_curr_fdbk.o
                0x000000000800977c                R3_2_CurrentReadingPolarization
 .text.R3_2_GetPhaseCurrents_OVM
                0x00000000080098c4      0x2f0 build/r3_2_g4xx_pwm_curr_fdbk.o
                0x00000000080098c4                R3_2_GetPhaseCurrents_OVM
 .text.R3_2_SetADCSampPointSectX_OVM
                0x0000000008009bb4       0x9c build/r3_2_g4xx_pwm_curr_fdbk.o
                0x0000000008009bb4                R3_2_SetADCSampPointSectX_OVM
 .text.R3_2_TIMx_UP_IRQHandler
                0x0000000008009c50       0x94 build/r3_2_g4xx_pwm_curr_fdbk.o
                0x0000000008009c50                R3_2_TIMx_UP_IRQHandler
 .text.R3_2_RLDetectionModeEnable
                0x0000000008009ce4       0xd8 build/r3_2_g4xx_pwm_curr_fdbk.o
                0x0000000008009ce4                R3_2_RLDetectionModeEnable
 .text.R3_2_RLDetectionModeDisable
                0x0000000008009dbc      0x134 build/r3_2_g4xx_pwm_curr_fdbk.o
                0x0000000008009dbc                R3_2_RLDetectionModeDisable
 .text.R3_2_RLDetectionModeSetDuty
                0x0000000008009ef0       0x84 build/r3_2_g4xx_pwm_curr_fdbk.o
                0x0000000008009ef0                R3_2_RLDetectionModeSetDuty
 .text.R3_2_RLTurnOnLowSidesAndStart
                0x0000000008009f74       0x80 build/r3_2_g4xx_pwm_curr_fdbk.o
                0x0000000008009f74                R3_2_RLTurnOnLowSidesAndStart
 .text.MCPA_dataLog
                0x0000000008009ff4      0x188 build/mcpa.o
                0x0000000008009ff4                MCPA_dataLog
 .text.MCPA_flushDataLog
                0x000000000800a17c       0x5c build/mcpa.o
                0x000000000800a17c                MCPA_flushDataLog
 .text.Reset_Handler
                0x000000000800a1d8       0x50 build/startup_stm32g431xx.o
                0x000000000800a1d8                Reset_Handler
 .text.Default_Handler
                0x000000000800a228        0x2 build/startup_stm32g431xx.o
                0x000000000800a228                RTC_Alarm_IRQHandler
                0x000000000800a228                EXTI2_IRQHandler
                0x000000000800a228                TIM8_TRG_COM_IRQHandler
                0x000000000800a228                TIM8_CC_IRQHandler
                0x000000000800a228                DebugMon_Handler
                0x000000000800a228                TIM1_CC_IRQHandler
                0x000000000800a228                USB_HP_IRQHandler
                0x000000000800a228                CORDIC_IRQHandler
                0x000000000800a228                NMI_Handler
                0x000000000800a228                EXTI3_IRQHandler
                0x000000000800a228                I2C3_ER_IRQHandler
                0x000000000800a228                EXTI0_IRQHandler
                0x000000000800a228                I2C2_EV_IRQHandler
                0x000000000800a228                FPU_IRQHandler
                0x000000000800a228                FDCAN1_IT1_IRQHandler
                0x000000000800a228                UsageFault_Handler
                0x000000000800a228                SPI1_IRQHandler
                0x000000000800a228                TIM8_UP_IRQHandler
                0x000000000800a228                DMA2_Channel2_IRQHandler
                0x000000000800a228                DMA1_Channel4_IRQHandler
                0x000000000800a228                USART3_IRQHandler
                0x000000000800a228                TIM4_IRQHandler
                0x000000000800a228                DMA2_Channel1_IRQHandler
                0x000000000800a228                I2C1_EV_IRQHandler
                0x000000000800a228                DMA1_Channel6_IRQHandler
                0x000000000800a228                UART4_IRQHandler
                0x000000000800a228                DMA2_Channel4_IRQHandler
                0x000000000800a228                TIM3_IRQHandler
                0x000000000800a228                RCC_IRQHandler
                0x000000000800a228                Default_Handler
                0x000000000800a228                RTC_TAMP_LSECSS_IRQHandler
                0x000000000800a228                FMAC_IRQHandler
                0x000000000800a228                TIM7_IRQHandler
                0x000000000800a228                UCPD1_IRQHandler
                0x000000000800a228                I2C3_EV_IRQHandler
                0x000000000800a228                EXTI9_5_IRQHandler
                0x000000000800a228                RTC_WKUP_IRQHandler
                0x000000000800a228                PVD_PVM_IRQHandler
                0x000000000800a228                SPI2_IRQHandler
                0x000000000800a228                MemManage_Handler
                0x000000000800a228                DMA2_Channel5_IRQHandler
                0x000000000800a228                CRS_IRQHandler
                0x000000000800a228                DMA1_Channel5_IRQHandler
                0x000000000800a228                USB_LP_IRQHandler
                0x000000000800a228                EXTI4_IRQHandler
                0x000000000800a228                RNG_IRQHandler
                0x000000000800a228                TIM1_TRG_COM_TIM17_IRQHandler
                0x000000000800a228                DMA1_Channel3_IRQHandler
                0x000000000800a228                WWDG_IRQHandler
                0x000000000800a228                LPUART1_IRQHandler
                0x000000000800a228                DMA2_Channel6_IRQHandler
                0x000000000800a228                FDCAN1_IT0_IRQHandler
                0x000000000800a228                TIM2_IRQHandler
                0x000000000800a228                COMP1_2_3_IRQHandler
                0x000000000800a228                EXTI1_IRQHandler
                0x000000000800a228                USART2_IRQHandler
                0x000000000800a228                I2C2_ER_IRQHandler
                0x000000000800a228                TIM8_BRK_IRQHandler
                0x000000000800a228                FLASH_IRQHandler
                0x000000000800a228                BusFault_Handler
                0x000000000800a228                SPI3_IRQHandler
                0x000000000800a228                I2C1_ER_IRQHandler
                0x000000000800a228                LPTIM1_IRQHandler
                0x000000000800a228                DMAMUX_OVR_IRQHandler
                0x000000000800a228                USBWakeUp_IRQHandler
                0x000000000800a228                SAI1_IRQHandler
                0x000000000800a228                DMA2_Channel3_IRQHandler
                0x000000000800a228                COMP4_IRQHandler
 *fill*         0x000000000800a22a        0x2 
 .text.__libc_init_array
                0x000000000800a22c       0x48 /usr/share/gcc-arm-none-eabi-10-2020-q4-major/bin/../lib/gcc/arm-none-eabi/10.2.1/../../../../arm-none-eabi/lib/thumb/v7e-m+fp/hard/libc_nano.a(lib_a-init.o)
                0x000000000800a22c                __libc_init_array
 .text.memcpy   0x000000000800a274       0x1c /usr/share/gcc-arm-none-eabi-10-2020-q4-major/bin/../lib/gcc/arm-none-eabi/10.2.1/../../../../arm-none-eabi/lib/thumb/v7e-m+fp/hard/libc_nano.a(lib_a-memcpy-stub.o)
                0x000000000800a274                memcpy
 .text.memset   0x000000000800a290       0x10 /usr/share/gcc-arm-none-eabi-10-2020-q4-major/bin/../lib/gcc/arm-none-eabi/10.2.1/../../../../arm-none-eabi/lib/thumb/v7e-m+fp/hard/libc_nano.a(lib_a-memset.o)
                0x000000000800a290                memset
 .text.OTT_Init
                0x000000000800a2a0       0xc8 MCSDK_v6.3.2-Full/MotorControl/libMP/libmp-G4-MDK-ARM_ARMv7-M.a(mp_one_touch_tuning.o)
                0x000000000800a2a0                OTT_Init
 .text.OTT_Clear
                0x000000000800a368       0x26 MCSDK_v6.3.2-Full/MotorControl/libMP/libmp-G4-MDK-ARM_ARMv7-M.a(mp_one_touch_tuning.o)
                0x000000000800a368                OTT_Clear
 *fill*         0x000000000800a38e        0x2 
 .text.OTT_Stop
                0x000000000800a390        0x8 MCSDK_v6.3.2-Full/MotorControl/libMP/libmp-G4-MDK-ARM_ARMv7-M.a(mp_one_touch_tuning.o)
                0x000000000800a390                OTT_Stop
 .text.OTT_MF   0x000000000800a398      0x6d0 MCSDK_v6.3.2-Full/MotorControl/libMP/libmp-G4-MDK-ARM_ARMv7-M.a(mp_one_touch_tuning.o)
                0x000000000800a398                OTT_MF
 .text.OTT_SpeedCtrl
                0x000000000800aa68      0x12e MCSDK_v6.3.2-Full/MotorControl/libMP/libmp-G4-MDK-ARM_ARMv7-M.a(mp_one_touch_tuning.o)
 *fill*         0x000000000800ab96        0x2 
 .text.OTT_SR   0x000000000800ab98       0x3e MCSDK_v6.3.2-Full/MotorControl/libMP/libmp-G4-MDK-ARM_ARMv7-M.a(mp_one_touch_tuning.o)
                0x000000000800ab98                OTT_SR
 *fill*         0x000000000800abd6        0x2 
 .text.OTT_ForceTuning
                0x000000000800abd8        0x8 MCSDK_v6.3.2-Full/MotorControl/libMP/libmp-G4-MDK-ARM_ARMv7-M.a(mp_one_touch_tuning.o)
                0x000000000800abd8                OTT_ForceTuning
 .text.SCC_Init
                0x000000000800abe0      0x11c MCSDK_v6.3.2-Full/MotorControl/libMP/libmp-G4-MDK-ARM_ARMv7-M.a(mp_self_com_ctrl.o)
                0x000000000800abe0                SCC_Init
 .text.SCC_CMD  0x000000000800acfc      0x128 MCSDK_v6.3.2-Full/MotorControl/libMP/libmp-G4-MDK-ARM_ARMv7-M.a(mp_self_com_ctrl.o)
                0x000000000800acfc                SCC_CMD
 .text.SCC_Stop
                0x000000000800ae24       0x28 MCSDK_v6.3.2-Full/MotorControl/libMP/libmp-G4-MDK-ARM_ARMv7-M.a(mp_self_com_ctrl.o)
                0x000000000800ae24                SCC_Stop
 .text.SCC_Start
                0x000000000800ae4c       0x70 MCSDK_v6.3.2-Full/MotorControl/libMP/libmp-G4-MDK-ARM_ARMv7-M.a(mp_self_com_ctrl.o)
                0x000000000800ae4c                SCC_Start
 .text.SCC_CheckOC_RL
                0x000000000800aebc      0x2d8 MCSDK_v6.3.2-Full/MotorControl/libMP/libmp-G4-MDK-ARM_ARMv7-M.a(mp_self_com_ctrl.o)
                0x000000000800aebc                SCC_CheckOC_RL
 .text.SCC_SetNominalCurrent
                0x000000000800b194       0x5c MCSDK_v6.3.2-Full/MotorControl/libMP/libmp-G4-MDK-ARM_ARMv7-M.a(mp_self_com_ctrl.o)
                0x000000000800b194                SCC_SetNominalCurrent
 .text.SCC_UpdateRevup
                0x000000000800b1f0       0xe4 MCSDK_v6.3.2-Full/MotorControl/libMP/libmp-G4-MDK-ARM_ARMv7-M.a(mp_self_com_ctrl.o)
                0x000000000800b1f0                SCC_UpdateRevup
 .text.SCC_SetPhaseVoltage
                0x000000000800b2d4     0x1138 MCSDK_v6.3.2-Full/MotorControl/libMP/libmp-G4-MDK-ARM_ARMv7-M.a(mp_self_com_ctrl.o)
                0x000000000800b2d4                SCC_SetPhaseVoltage
 *fill*         0x000000000800c40c        0x4 
 .text.SCC_KeDetection
                0x000000000800c410      0x3c8 MCSDK_v6.3.2-Full/MotorControl/libMP/libmp-G4-MDK-ARM_ARMv7-M.a(mp_self_com_ctrl.o)
                0x000000000800c410                SCC_KeDetection
 .text.SCC_MF   0x000000000800c7d8      0x8d4 MCSDK_v6.3.2-Full/MotorControl/libMP/libmp-G4-MDK-ARM_ARMv7-M.a(mp_self_com_ctrl.o)
                0x000000000800c7d8                SCC_MF
 .text.SCC_DetectBemf
                0x000000000800d0ac      0x2b8 MCSDK_v6.3.2-Full/MotorControl/libMP/libmp-G4-MDK-ARM_ARMv7-M.a(mp_self_com_ctrl.o)
                0x000000000800d0ac                SCC_DetectBemf
 .text.SCC_GetState
                0x000000000800d364       0x70 MCSDK_v6.3.2-Full/MotorControl/libMP/libmp-G4-MDK-ARM_ARMv7-M.a(mp_self_com_ctrl.o)
                0x000000000800d364                SCC_GetState
 .text.SCC_SetNominalSpeed
                0x000000000800d3d4       0x38 MCSDK_v6.3.2-Full/MotorControl/libMP/libmp-G4-MDK-ARM_ARMv7-M.a(mp_self_com_ctrl.o)
                0x000000000800d3d4                SCC_SetNominalSpeed
 .text.SCC_GetResistorOffset
                0x000000000800d40c        0xa MCSDK_v6.3.2-Full/MotorControl/libMP/libmp-G4-MDK-ARM_ARMv7-M.a(mp_self_com_ctrl.o)
                0x000000000800d40c                SCC_GetResistorOffset
 *fill*         0x000000000800d416        0x2 
 .text.SCC_SetPBCharacterization
                0x000000000800d418        0xa MCSDK_v6.3.2-Full/MotorControl/libMP/libmp-G4-MDK-ARM_ARMv7-M.a(mp_self_com_ctrl.o)
                0x000000000800d418                SCC_SetPBCharacterization
 *fill*         0x000000000800d422        0x2 
 .text.SCC_SetResistorOffset
                0x000000000800d424        0xa MCSDK_v6.3.2-Full/MotorControl/libMP/libmp-G4-MDK-ARM_ARMv7-M.a(mp_self_com_ctrl.o)
                0x000000000800d424                SCC_SetResistorOffset
 .text.__aeabi_memclr
                0x000000000800d42e        0x6 /usr/share/gcc-arm-none-eabi-10-2020-q4-major/bin/../lib/gcc/arm-none-eabi/10.2.1/../../../../arm-none-eabi/lib/thumb/v7e-m+fp/hard/libc_nano.a(lib_a-aeabi_memclr.o)
                0x000000000800d42e                __aeabi_memclr8
                0x000000000800d42e                __aeabi_memclr
                0x000000000800d42e                __aeabi_memclr4
 *(.glue_7)
 .glue_7        0x000000000800d434        0x0 linker stubs
 *(.glue_7t)
 .glue_7t       0x000000000800d434        0x0 linker stubs
 *(.eh_frame)
 .eh_frame      0x000000000800d434        0x0 /usr/share/gcc-arm-none-eabi-10-2020-q4-major/bin/../lib/gcc/arm-none-eabi/10.2.1/thumb/v7e-m+fp/hard/crtbegin.o
 *(.init)
 .init          0x000000000800d434        0x4 /usr/share/gcc-arm-none-eabi-10-2020-q4-major/bin/../lib/gcc/arm-none-eabi/10.2.1/thumb/v7e-m+fp/hard/crti.o
                0x000000000800d434                _init
 .init          0x000000000800d438        0x8 /usr/share/gcc-arm-none-eabi-10-2020-q4-major/bin/../lib/gcc/arm-none-eabi/10.2.1/thumb/v7e-m+fp/hard/crtn.o
 *(.fini)
 .fini          0x000000000800d440        0x4 /usr/share/gcc-arm-none-eabi-10-2020-q4-major/bin/../lib/gcc/arm-none-eabi/10.2.1/thumb/v7e-m+fp/hard/crti.o
                0x000000000800d440                _fini
 .fini          0x000000000800d444        0x8 /usr/share/gcc-arm-none-eabi-10-2020-q4-major/bin/../lib/gcc/arm-none-eabi/10.2.1/thumb/v7e-m+fp/hard/crtn.o
                0x000000000800d44c                . = ALIGN (0x4)
                0x000000000800d44c                _etext = .

.vfp11_veneer   0x000000000800d44c        0x0
 .vfp11_veneer  0x000000000800d44c        0x0 linker stubs

.v4_bx          0x000000000800d44c        0x0
 .v4_bx         0x000000000800d44c        0x0 linker stubs

.iplt           0x000000000800d44c        0x0
 .iplt          0x000000000800d44c        0x0 /usr/share/gcc-arm-none-eabi-10-2020-q4-major/bin/../lib/gcc/arm-none-eabi/10.2.1/thumb/v7e-m+fp/hard/crtbegin.o

.rodata         0x000000000800d44c      0x330
                0x000000000800d44c                . = ALIGN (0x4)
 *(.rodata)
 .rodata        0x000000000800d44c       0x28 build/main.o
 *(.rodata*)
 .rodata.str1.4
                0x000000000800d474       0x17 build/main.o
 *fill*         0x000000000800d48b        0x1 
 .rodata.OTT_Params
                0x000000000800d48c       0x54 build/mc_parameters.o
                0x000000000800d48c                OTT_Params
 .rodata.R3_2_ParamsM1
                0x000000000800d4e0       0xb0 build/mc_parameters.o
                0x000000000800d4e0                R3_2_ParamsM1
 .rodata.R3_3_OPAMPParamsM1
                0x000000000800d590       0x60 build/mc_parameters.o
                0x000000000800d590                R3_3_OPAMPParamsM1
 .rodata.CHANNEL_OFFSET_TAB
                0x000000000800d5f0        0x6 build/usart_aspep_driver.o
 *fill*         0x000000000800d5f6        0x2 
 .rodata.M1_ApplicationConfig_reg
                0x000000000800d5f8       0x10 build/mc_configuration_registers.o
 .rodata.M1_FOCConfig_reg
                0x000000000800d608        0xe build/mc_configuration_registers.o
 *fill*         0x000000000800d616        0x2 
 .rodata.globalConfig_reg
                0x000000000800d618        0xa build/mc_configuration_registers.o
                0x000000000800d618                globalConfig_reg
 *fill*         0x000000000800d622        0x2 
 .rodata.CRC4_Lookup4
                0x000000000800d624       0x10 build/aspep.o
 .rodata.CRC4_Lookup8
                0x000000000800d634      0x100 build/aspep.o
 .rodata.USART_PRESCALER_TAB
                0x000000000800d734       0x30 build/stm32g4xx_ll_usart.o
 .rodata.AHBPrescTable
                0x000000000800d764       0x10 build/system_stm32g4xx.o
                0x000000000800d764                AHBPrescTable
 .rodata.APBPrescTable
                0x000000000800d774        0x8 build/system_stm32g4xx.o
                0x000000000800d774                APBPrescTable
                0x000000000800d77c                . = ALIGN (0x4)

.ARM.extab
 *(.ARM.extab* .gnu.linkonce.armextab.*)

.ARM            0x000000000800d77c        0x8
                0x000000000800d77c                __exidx_start = .
 *(.ARM.exidx*)
 .ARM.exidx.text.OTT_Init
                0x000000000800d77c        0x8 MCSDK_v6.3.2-Full/MotorControl/libMP/libmp-G4-MDK-ARM_ARMv7-M.a(mp_one_touch_tuning.o)
 .ARM.exidx.text.OTT_Clear
                0x000000000800d784        0x0 MCSDK_v6.3.2-Full/MotorControl/libMP/libmp-G4-MDK-ARM_ARMv7-M.a(mp_one_touch_tuning.o)
                                          0x8 (size before relaxing)
 .ARM.exidx.text.OTT_Stop
                0x000000000800d784        0x0 MCSDK_v6.3.2-Full/MotorControl/libMP/libmp-G4-MDK-ARM_ARMv7-M.a(mp_one_touch_tuning.o)
                                          0x8 (size before relaxing)
 .ARM.exidx.text.OTT_MF
                0x000000000800d784        0x0 MCSDK_v6.3.2-Full/MotorControl/libMP/libmp-G4-MDK-ARM_ARMv7-M.a(mp_one_touch_tuning.o)
                                          0x8 (size before relaxing)
 .ARM.exidx.text.OTT_SpeedCtrl
                0x000000000800d784        0x0 MCSDK_v6.3.2-Full/MotorControl/libMP/libmp-G4-MDK-ARM_ARMv7-M.a(mp_one_touch_tuning.o)
                                          0x8 (size before relaxing)
 .ARM.exidx.text.OTT_SR
                0x000000000800d784        0x0 MCSDK_v6.3.2-Full/MotorControl/libMP/libmp-G4-MDK-ARM_ARMv7-M.a(mp_one_touch_tuning.o)
                                          0x8 (size before relaxing)
 .ARM.exidx.text.OTT_ForceTuning
                0x000000000800d784        0x0 MCSDK_v6.3.2-Full/MotorControl/libMP/libmp-G4-MDK-ARM_ARMv7-M.a(mp_one_touch_tuning.o)
                                          0x8 (size before relaxing)
 .ARM.exidx.text.SCC_Init
                0x000000000800d784        0x0 MCSDK_v6.3.2-Full/MotorControl/libMP/libmp-G4-MDK-ARM_ARMv7-M.a(mp_self_com_ctrl.o)
                                          0x8 (size before relaxing)
 .ARM.exidx.text.SCC_CMD
                0x000000000800d784        0x0 MCSDK_v6.3.2-Full/MotorControl/libMP/libmp-G4-MDK-ARM_ARMv7-M.a(mp_self_com_ctrl.o)
                                          0x8 (size before relaxing)
 .ARM.exidx.text.SCC_Stop
                0x000000000800d784        0x0 MCSDK_v6.3.2-Full/MotorControl/libMP/libmp-G4-MDK-ARM_ARMv7-M.a(mp_self_com_ctrl.o)
                                          0x8 (size before relaxing)
 .ARM.exidx.text.SCC_Start
                0x000000000800d784        0x0 MCSDK_v6.3.2-Full/MotorControl/libMP/libmp-G4-MDK-ARM_ARMv7-M.a(mp_self_com_ctrl.o)
                                          0x8 (size before relaxing)
 .ARM.exidx.text.SCC_CheckOC_RL
                0x000000000800d784        0x0 MCSDK_v6.3.2-Full/MotorControl/libMP/libmp-G4-MDK-ARM_ARMv7-M.a(mp_self_com_ctrl.o)
                                          0x8 (size before relaxing)
 .ARM.exidx.text.SCC_SetNominalCurrent
                0x000000000800d784        0x0 MCSDK_v6.3.2-Full/MotorControl/libMP/libmp-G4-MDK-ARM_ARMv7-M.a(mp_self_com_ctrl.o)
                                          0x8 (size before relaxing)
 .ARM.exidx.text.SCC_UpdateRevup
                0x000000000800d784        0x0 MCSDK_v6.3.2-Full/MotorControl/libMP/libmp-G4-MDK-ARM_ARMv7-M.a(mp_self_com_ctrl.o)
                                          0x8 (size before relaxing)
 .ARM.exidx.text.SCC_SetPhaseVoltage
                0x000000000800d784        0x0 MCSDK_v6.3.2-Full/MotorControl/libMP/libmp-G4-MDK-ARM_ARMv7-M.a(mp_self_com_ctrl.o)
                                          0x8 (size before relaxing)
 .ARM.exidx.text.SCC_KeDetection
                0x000000000800d784        0x0 MCSDK_v6.3.2-Full/MotorControl/libMP/libmp-G4-MDK-ARM_ARMv7-M.a(mp_self_com_ctrl.o)
                                          0x8 (size before relaxing)
 .ARM.exidx.text.SCC_MF
                0x000000000800d784        0x0 MCSDK_v6.3.2-Full/MotorControl/libMP/libmp-G4-MDK-ARM_ARMv7-M.a(mp_self_com_ctrl.o)
                                          0x8 (size before relaxing)
 .ARM.exidx.text.SCC_DetectBemf
                0x000000000800d784        0x0 MCSDK_v6.3.2-Full/MotorControl/libMP/libmp-G4-MDK-ARM_ARMv7-M.a(mp_self_com_ctrl.o)
                                          0x8 (size before relaxing)
 .ARM.exidx.text.SCC_GetState
                0x000000000800d784        0x0 MCSDK_v6.3.2-Full/MotorControl/libMP/libmp-G4-MDK-ARM_ARMv7-M.a(mp_self_com_ctrl.o)
                                          0x8 (size before relaxing)
 .ARM.exidx.text.SCC_SetNominalSpeed
                0x000000000800d784        0x0 MCSDK_v6.3.2-Full/MotorControl/libMP/libmp-G4-MDK-ARM_ARMv7-M.a(mp_self_com_ctrl.o)
                                          0x8 (size before relaxing)
 .ARM.exidx.text.SCC_GetResistorOffset
                0x000000000800d784        0x0 MCSDK_v6.3.2-Full/MotorControl/libMP/libmp-G4-MDK-ARM_ARMv7-M.a(mp_self_com_ctrl.o)
                                          0x8 (size before relaxing)
 .ARM.exidx.text.SCC_SetPBCharacterization
                0x000000000800d784        0x0 MCSDK_v6.3.2-Full/MotorControl/libMP/libmp-G4-MDK-ARM_ARMv7-M.a(mp_self_com_ctrl.o)
                                          0x8 (size before relaxing)
 .ARM.exidx.text.SCC_SetResistorOffset
                0x000000000800d784        0x0 MCSDK_v6.3.2-Full/MotorControl/libMP/libmp-G4-MDK-ARM_ARMv7-M.a(mp_self_com_ctrl.o)
                                          0x8 (size before relaxing)
                0x000000000800d784                __exidx_end = .

.rel.dyn        0x000000000800d784        0x0
 .rel.iplt      0x000000000800d784        0x0 /usr/share/gcc-arm-none-eabi-10-2020-q4-major/bin/../lib/gcc/arm-none-eabi/10.2.1/thumb/v7e-m+fp/hard/crtbegin.o

.preinit_array  0x000000000800d784        0x0
                0x000000000800d784                PROVIDE (__preinit_array_start = .)
 *(.preinit_array*)
                0x000000000800d784                PROVIDE (__preinit_array_end = .)

.init_array     0x000000000800d784        0x4
                0x000000000800d784                PROVIDE (__init_array_start = .)
 *(SORT_BY_NAME(.init_array.*))
 *(.init_array*)
 .init_array    0x000000000800d784        0x4 /usr/share/gcc-arm-none-eabi-10-2020-q4-major/bin/../lib/gcc/arm-none-eabi/10.2.1/thumb/v7e-m+fp/hard/crtbegin.o
                0x000000000800d788                PROVIDE (__init_array_end = .)

.fini_array     0x000000000800d788        0x4
                [!provide]                        PROVIDE (__fini_array_start = .)
 *(SORT_BY_NAME(.fini_array.*))
 *(.fini_array*)
 .fini_array    0x000000000800d788        0x4 /usr/share/gcc-arm-none-eabi-10-2020-q4-major/bin/../lib/gcc/arm-none-eabi/10.2.1/thumb/v7e-m+fp/hard/crtbegin.o
                [!provide]                        PROVIDE (__fini_array_end = .)
                0x000000000800d78c                _sidata = LOADADDR (.data)

.data           0x0000000020000000      0xba0 load address 0x000000000800d78c
                0x0000000020000000                . = ALIGN (0x4)
                0x0000000020000000                _sdata = .
 *(.data)
 *(.data*)
 .data.CircleLimitationM1
                0x0000000020000000        0x4 build/mc_config.o
                0x0000000020000000                CircleLimitationM1
 .data.FF_M1    0x0000000020000004       0x38 build/mc_config.o
                0x0000000020000004                FF_M1
 .data.Mci      0x000000002000003c       0x2c build/mc_config.o
                0x000000002000003c                Mci
 .data.OTT      0x0000000020000068       0xa0 build/mc_config.o
                0x0000000020000068                OTT
 .data.PIDIdHandle_M1
                0x0000000020000108       0x2c build/mc_config.o
                0x0000000020000108                PIDIdHandle_M1
 .data.PIDIqHandle_M1
                0x0000000020000134       0x2c build/mc_config.o
                0x0000000020000134                PIDIqHandle_M1
 .data.PIDSpeedHandle_M1
                0x0000000020000160       0x2c build/mc_config.o
                0x0000000020000160                PIDSpeedHandle_M1
 .data.PQD_MotorPowMeasM1
                0x000000002000018c       0x10 build/mc_config.o
                0x000000002000018c                PQD_MotorPowMeasM1
 .data.PWM_Handle_M1
                0x000000002000019c       0xa4 build/mc_config.o
                0x000000002000019c                PWM_Handle_M1
 .data.RampExtMngrHFParamsM1
                0x0000000020000240       0x18 build/mc_config.o
                0x0000000020000240                RampExtMngrHFParamsM1
 .data.RampExtMngrParamsOTT
                0x0000000020000258       0x18 build/mc_config.o
                0x0000000020000258                RampExtMngrParamsOTT
 .data.RampExtMngrParamsSCC
                0x0000000020000270       0x18 build/mc_config.o
                0x0000000020000270                RampExtMngrParamsSCC
 .data.RevUpControlM1
                0x0000000020000288       0x78 build/mc_config.o
                0x0000000020000288                RevUpControlM1
 .data.SCC      0x0000000020000300      0x54c build/mc_config.o
                0x0000000020000300                SCC
 .data.STO_M1   0x000000002000084c       0x14 build/mc_config.o
                0x000000002000084c                STO_M1
 .data.STO_PLL_M1
                0x0000000020000860      0x128 build/mc_config.o
                0x0000000020000860                STO_PLL_M1
 .data.SpeednTorqCtrlM1
                0x0000000020000988       0x34 build/mc_config.o
                0x0000000020000988                SpeednTorqCtrlM1
 .data.pFF      0x00000000200009bc        0x4 build/mc_config.o
                0x00000000200009bc                pFF
 .data.pMPM     0x00000000200009c0        0x4 build/mc_config.o
                0x00000000200009c0                pMPM
 .data.pPIDId   0x00000000200009c4        0x4 build/mc_config.o
                0x00000000200009c4                pPIDId
 .data.pPIDIq   0x00000000200009c8        0x4 build/mc_config.o
                0x00000000200009c8                pPIDIq
 .data.pSTC     0x00000000200009cc        0x4 build/mc_config.o
                0x00000000200009cc                pSTC
 .data.BusVoltageSensor_M1
                0x00000000200009d0       0x1c build/mc_config_common.o
                0x00000000200009d0                BusVoltageSensor_M1
 .data.TempRegConv_M1
                0x00000000200009ec       0x10 build/mc_config_common.o
                0x00000000200009ec                TempRegConv_M1
 .data.TempSensor_M1
                0x00000000200009fc       0x1c build/mc_config_common.o
                0x00000000200009fc                TempSensor_M1
 .data.VbusRegConv_M1
                0x0000000020000a18       0x10 build/mc_config_common.o
                0x0000000020000a18                VbusRegConv_M1
 .data.VirtualSpeedSensorM1
                0x0000000020000a28       0x38 build/mc_config_common.o
                0x0000000020000a28                VirtualSpeedSensorM1
 .data.MCPA_UART_A
                0x0000000020000a60       0x2c build/mcp_config.o
                0x0000000020000a60                MCPA_UART_A
 .data.MCP_Over_UartA
                0x0000000020000a8c       0x10 build/mcp_config.o
                0x0000000020000a8c                MCP_Over_UartA
 .data.UASPEP_A
                0x0000000020000a9c       0x14 build/mcp_config.o
 .data.aspepOverUartA
                0x0000000020000ab0       0x74 build/mcp_config.o
                0x0000000020000ab0                aspepOverUartA
 .data.SCC_Params
                0x0000000020000b24       0x54 build/mc_parameters.o
                0x0000000020000b24                SCC_Params
 .data.scaleParams_M1
                0x0000000020000b78       0x10 build/mc_parameters.o
                0x0000000020000b78                scaleParams_M1
 .data.ApplicationConfig_reg
                0x0000000020000b88        0x4 build/mc_configuration_registers.o
                0x0000000020000b88                ApplicationConfig_reg
 .data.FOCConfig_reg
                0x0000000020000b8c        0x4 build/mc_configuration_registers.o
                0x0000000020000b8c                FOCConfig_reg
 .data.uwTickFreq
                0x0000000020000b90        0x4 build/stm32g4xx_hal.o
                0x0000000020000b90                uwTickFreq
 .data.uwTickPrio
                0x0000000020000b94        0x4 build/stm32g4xx_hal.o
                0x0000000020000b94                uwTickPrio
 .data.SystemCoreClock
                0x0000000020000b98        0x4 build/system_stm32g4xx.o
                0x0000000020000b98                SystemCoreClock
 .data.uxCriticalNesting
                0x0000000020000b9c        0x4 build/port.o
                0x0000000020000ba0                . = ALIGN (0x4)
                0x0000000020000ba0                _edata = .

.igot.plt       0x0000000020000ba0        0x0 load address 0x000000000800e32c
 .igot.plt      0x0000000020000ba0        0x0 /usr/share/gcc-arm-none-eabi-10-2020-q4-major/bin/../lib/gcc/arm-none-eabi/10.2.1/thumb/v7e-m+fp/hard/crtbegin.o
                0x0000000020000ba0                . = ALIGN (0x4)

.bss            0x0000000020000ba0     0x2d68 load address 0x000000000800e32c
                0x0000000020000ba0                _sbss = .
                0x0000000020000ba0                __bss_start__ = _sbss
 *(.bss)
 .bss           0x0000000020000ba0       0x1c /usr/share/gcc-arm-none-eabi-10-2020-q4-major/bin/../lib/gcc/arm-none-eabi/10.2.1/thumb/v7e-m+fp/hard/crtbegin.o
 *(.bss*)
 .bss.mediumFrequencyHandle
                0x0000000020000bbc        0x4 build/main.o
                0x0000000020000bbc                mediumFrequencyHandle
 .bss.safetyHandle
                0x0000000020000bc0        0x4 build/main.o
                0x0000000020000bc0                safetyHandle
 .bss.pMCI      0x0000000020000bc4        0x4 build/motorcontrol.o
                0x0000000020000bc4                pMCI
 .bss.FOCVars   0x0000000020000bc8       0x26 build/mc_config.o
                0x0000000020000bc8                FOCVars
 *fill*         0x0000000020000bee        0x2 
 .bss.pREMNG    0x0000000020000bf0        0x4 build/mc_config.o
                0x0000000020000bf0                pREMNG
 .bss.HdlSTSPING4
                0x0000000020000bf4        0x4 build/mc_config_common.o
                0x0000000020000bf4                HdlSTSPING4
 .bss.PerfTraces
                0x0000000020000bf8       0x28 build/mc_config_common.o
                0x0000000020000bf8                PerfTraces
 .bss.RealBusVoltageSensorFilterBufferM1
                0x0000000020000c20        0xc build/mc_config_common.o
 .bss.pwmcHandle
                0x0000000020000c2c        0x4 build/mc_config_common.o
                0x0000000020000c2c                pwmcHandle
 .bss.MCPAsyncBuffUARTA_A
                0x0000000020000c30      0x806 build/mcp_config.o
 *fill*         0x0000000020001436        0x2 
 .bss.MCPAsyncBuffUARTA_B
                0x0000000020001438      0x806 build/mcp_config.o
 *fill*         0x0000000020001c3e        0x2 
 .bss.MCPSyncRXBuff
                0x0000000020001c40      0x102 build/mcp_config.o
 *fill*         0x0000000020001d42        0x2 
 .bss.MCPSyncTxBuff
                0x0000000020001d44      0x106 build/mcp_config.o
 *fill*         0x0000000020001e4a        0x2 
 .bss.MCP_UserCallBack
                0x0000000020001e4c        0x8 build/mcp_config.o
                0x0000000020001e4c                MCP_UserCallBack
 .bss.dataPtrTableA
                0x0000000020001e54       0x28 build/mcp_config.o
 .bss.dataPtrTableBuffA
                0x0000000020001e7c       0x28 build/mcp_config.o
 .bss.dataSizeTableA
                0x0000000020001ea4        0xa build/mcp_config.o
 *fill*         0x0000000020001eae        0x2 
 .bss.dataSizeTableBuffA
                0x0000000020001eb0        0xa build/mcp_config.o
 .bss.bMCBootCompleted
                0x0000000020001eba        0x1 build/mc_tasks.o
 *fill*         0x0000000020001ebb        0x1 
 .bss.hBootCapDelayCounterM1
                0x0000000020001ebc        0x2 build/mc_tasks.o
 .bss.hMFTaskCounterM1
                0x0000000020001ebe        0x2 build/mc_tasks.o
 .bss.hStopPermanencyCounterM1
                0x0000000020001ec0        0x2 build/mc_tasks.o
 *fill*         0x0000000020001ec2        0x2 
 .bss.RCM_CB_array
                0x0000000020001ec4       0x20 build/regular_conversion_manager.o
 .bss.RCM_NoInj_array
                0x0000000020001ee4       0x18 build/regular_conversion_manager.o
 .bss.RCM_UserConvHandle
                0x0000000020001efc        0x4 build/regular_conversion_manager.o
 .bss.RCM_UserConvState
                0x0000000020001f00        0x1 build/regular_conversion_manager.o
 *fill*         0x0000000020001f01        0x1 
 .bss.RCM_UserConvValue
                0x0000000020001f02        0x2 build/regular_conversion_manager.o
 .bss.RCM_currentHandle
                0x0000000020001f04        0x1 build/regular_conversion_manager.o
 *fill*         0x0000000020001f05        0x3 
 .bss.RCM_handle_array
                0x0000000020001f08       0x10 build/regular_conversion_manager.o
 .bss.htim6     0x0000000020001f18       0x4c build/stm32g4xx_hal_timebase_tim.o
                0x0000000020001f18                htim6
 .bss.response_buffer
                0x0000000020001f64       0x20 build/vesc_commands.o
 .bss.dma_busy  0x0000000020001f84        0x1 build/vesc_uart.o
 *fill*         0x0000000020001f85        0x3 
 .bss.tx_buffer
                0x0000000020001f88      0x400 build/vesc_uart.o
 .bss.tx_in_progress
                0x0000000020002388        0x1 build/vesc_uart.o
                0x0000000020002388                tx_in_progress
 *fill*         0x0000000020002389        0x7 
 .bss.uart_handle
                0x0000000020002390      0x814 build/vesc_uart.o
 .bss.uwTick    0x0000000020002ba4        0x4 build/stm32g4xx_hal.o
                0x0000000020002ba4                uwTick
 .bss.pxCurrentTCB
                0x0000000020002ba8        0x4 build/tasks.o
                0x0000000020002ba8                pxCurrentTCB
 .bss.pxDelayedTaskList
                0x0000000020002bac        0x4 build/tasks.o
 .bss.pxOverflowDelayedTaskList
                0x0000000020002bb0        0x4 build/tasks.o
 .bss.pxReadyTasksLists
                0x0000000020002bb4       0x8c build/tasks.o
 .bss.uxCurrentNumberOfTasks
                0x0000000020002c40        0x4 build/tasks.o
 .bss.uxDeletedTasksWaitingCleanUp
                0x0000000020002c44        0x4 build/tasks.o
 .bss.uxSchedulerSuspended
                0x0000000020002c48        0x4 build/tasks.o
 .bss.uxTaskNumber
                0x0000000020002c4c        0x4 build/tasks.o
 .bss.uxTopReadyPriority
                0x0000000020002c50        0x4 build/tasks.o
 .bss.xDelayedTaskList1
                0x0000000020002c54       0x14 build/tasks.o
 .bss.xDelayedTaskList2
                0x0000000020002c68       0x14 build/tasks.o
 .bss.xIdleTaskHandle
                0x0000000020002c7c        0x4 build/tasks.o
 .bss.xNextTaskUnblockTime
                0x0000000020002c80        0x4 build/tasks.o
 .bss.xNumOfOverflows
                0x0000000020002c84        0x4 build/tasks.o
 .bss.xPendedTicks
                0x0000000020002c88        0x4 build/tasks.o
 .bss.xPendingReadyList
                0x0000000020002c8c       0x14 build/tasks.o
 .bss.xSchedulerRunning
                0x0000000020002ca0        0x4 build/tasks.o
 .bss.xSuspendedTaskList
                0x0000000020002ca4       0x14 build/tasks.o
 .bss.xTasksWaitingTermination
                0x0000000020002cb8       0x14 build/tasks.o
 .bss.xTickCount
                0x0000000020002ccc        0x4 build/tasks.o
 .bss.xYieldPending
                0x0000000020002cd0        0x4 build/tasks.o
 .bss.pxEnd     0x0000000020002cd4        0x4 build/heap_4.o
 .bss.ucHeap    0x0000000020002cd8      0xc00 build/heap_4.o
 .bss.xBlockAllocatedBit
                0x00000000200038d8        0x4 build/heap_4.o
 .bss.xFreeBytesRemaining
                0x00000000200038dc        0x4 build/heap_4.o
 .bss.xMinimumEverFreeBytesRemaining
                0x00000000200038e0        0x4 build/heap_4.o
 .bss.xNumberOfSuccessfulAllocations
                0x00000000200038e4        0x4 build/heap_4.o
 .bss.xNumberOfSuccessfulFrees
                0x00000000200038e8        0x4 build/heap_4.o
 .bss.xStart    0x00000000200038ec        0x8 build/heap_4.o
 .bss.ucMaxSysCallPriority
                0x00000000200038f4        0x1 build/port.o
 *fill*         0x00000000200038f5        0x3 
 .bss.ulMaxPRIGROUPValue
                0x00000000200038f8        0x4 build/port.o
 .bss.GLOBAL_TIMESTAMP
                0x00000000200038fc        0x4 build/mcpa.o
                0x00000000200038fc                GLOBAL_TIMESTAMP
 .bss..L_MergedGlobals
                0x0000000020003900        0x6 MCSDK_v6.3.2-Full/MotorControl/libMP/libmp-G4-MDK-ARM_ARMv7-M.a(mp_self_com_ctrl.o)
                0x0000000020003900                ocEvent
                0x0000000020003902                stillEvent
                0x0000000020003904                loseControlEvent
 *(COMMON)
                0x0000000020003908                . = ALIGN (0x4)
 *fill*         0x0000000020003906        0x2 
                0x0000000020003908                _ebss = .
                0x0000000020003908                __bss_end__ = _ebss

._user_heap_stack
                0x0000000020003908      0x600 load address 0x000000000800e32c
                0x0000000020003908                . = ALIGN (0x8)
                [!provide]                        PROVIDE (end = .)
                0x0000000020003908                PROVIDE (_end = .)
                0x0000000020003b08                . = (. + _Min_Heap_Size)
 *fill*         0x0000000020003908      0x200 
                0x0000000020003f08                . = (. + _Min_Stack_Size)
 *fill*         0x0000000020003b08      0x400 
                0x0000000020003f08                . = ALIGN (0x8)

/DISCARD/
 libc.a(*)
 libm.a(*)
 libgcc.a(*)

.ARM.attributes
                0x0000000000000000       0x36
 *(.ARM.attributes)
 .ARM.attributes
                0x0000000000000000       0x1e /usr/share/gcc-arm-none-eabi-10-2020-q4-major/bin/../lib/gcc/arm-none-eabi/10.2.1/thumb/v7e-m+fp/hard/crti.o
 .ARM.attributes
                0x000000000000001e       0x34 /usr/share/gcc-arm-none-eabi-10-2020-q4-major/bin/../lib/gcc/arm-none-eabi/10.2.1/thumb/v7e-m+fp/hard/crtbegin.o
 .ARM.attributes
                0x0000000000000052       0x34 build/main.o
 .ARM.attributes
                0x0000000000000086       0x34 build/motorcontrol.o
 .ARM.attributes
                0x00000000000000ba       0x34 build/pwm_common.o
 .ARM.attributes
                0x00000000000000ee       0x34 build/mc_api.o
 .ARM.attributes
                0x0000000000000122       0x39 build/mc_config.o
 .ARM.attributes
                0x000000000000015b       0x39 build/mc_config_common.o
 .ARM.attributes
                0x0000000000000194       0x39 build/mcp_config.o
 .ARM.attributes
                0x00000000000001cd       0x34 build/mc_tasks.o
 .ARM.attributes
                0x0000000000000201       0x34 build/mc_tasks_foc.o
 .ARM.attributes
                0x0000000000000235       0x34 build/pwm_curr_fdbk.o
 .ARM.attributes
                0x0000000000000269       0x34 build/regular_conversion_manager.o
 .ARM.attributes
                0x000000000000029d       0x34 build/mc_math.o
 .ARM.attributes
                0x00000000000002d1       0x34 build/mc_interface.o
 .ARM.attributes
                0x0000000000000305       0x34 build/stm32_mc_common_it.o
 .ARM.attributes
                0x0000000000000339       0x34 build/stm32g4xx_mc_it.o
 .ARM.attributes
                0x000000000000036d       0x39 build/mc_parameters.o
 .ARM.attributes
                0x00000000000003a6       0x34 build/register_interface.o
 .ARM.attributes
                0x00000000000003da       0x34 build/mcp.o
 .ARM.attributes
                0x000000000000040e       0x34 build/mc_perf.o
 .ARM.attributes
                0x0000000000000442       0x34 build/usart_aspep_driver.o
 .ARM.attributes
                0x0000000000000476       0x39 build/mc_configuration_registers.o
 .ARM.attributes
                0x00000000000004af       0x34 build/aspep.o
 .ARM.attributes
                0x00000000000004e3       0x34 build/mc_app_hooks.o
 .ARM.attributes
                0x0000000000000517       0x34 build/stm32g4xx_it.o
 .ARM.attributes
                0x000000000000054b       0x34 build/stm32g4xx_hal_msp.o
 .ARM.attributes
                0x000000000000057f       0x34 build/stm32g4xx_hal_timebase_tim.o
 .ARM.attributes
                0x00000000000005b3       0x34 build/vesc_commands.o
 .ARM.attributes
                0x00000000000005e7       0x34 build/vesc_uart.o
 .ARM.attributes
                0x000000000000061b       0x34 build/stm32g4xx_ll_utils.o
 .ARM.attributes
                0x000000000000064f       0x34 build/stm32g4xx_ll_exti.o
 .ARM.attributes
                0x0000000000000683       0x34 build/stm32g4xx_ll_gpio.o
 .ARM.attributes
                0x00000000000006b7       0x34 build/stm32g4xx_ll_adc.o
 .ARM.attributes
                0x00000000000006eb       0x34 build/stm32g4xx_hal.o
 .ARM.attributes
                0x000000000000071f       0x34 build/stm32g4xx_hal_rcc.o
 .ARM.attributes
                0x0000000000000753       0x34 build/stm32g4xx_hal_pwr_ex.o
 .ARM.attributes
                0x0000000000000787       0x34 build/stm32g4xx_hal_cortex.o
 .ARM.attributes
                0x00000000000007bb       0x34 build/stm32g4xx_ll_comp.o
 .ARM.attributes
                0x00000000000007ef       0x34 build/stm32g4xx_ll_rcc.o
 .ARM.attributes
                0x0000000000000823       0x34 build/stm32g4xx_ll_dac.o
 .ARM.attributes
                0x0000000000000857       0x34 build/stm32g4xx_ll_i2c.o
 .ARM.attributes
                0x000000000000088b       0x34 build/stm32g4xx_ll_opamp.o
 .ARM.attributes
                0x00000000000008bf       0x34 build/stm32g4xx_hal_tim.o
 .ARM.attributes
                0x00000000000008f3       0x34 build/stm32g4xx_hal_tim_ex.o
 .ARM.attributes
                0x0000000000000927       0x34 build/stm32g4xx_ll_tim.o
 .ARM.attributes
                0x000000000000095b       0x34 build/stm32g4xx_ll_usart.o
 .ARM.attributes
                0x000000000000098f       0x34 build/system_stm32g4xx.o
 .ARM.attributes
                0x00000000000009c3       0x34 build/list.o
 .ARM.attributes
                0x00000000000009f7       0x34 build/tasks.o
 .ARM.attributes
                0x0000000000000a2b       0x34 build/cmsis_os.o
 .ARM.attributes
                0x0000000000000a5f       0x34 build/heap_4.o
 .ARM.attributes
                0x0000000000000a93       0x34 build/port.o
 .ARM.attributes
                0x0000000000000ac7       0x34 build/stspin32g4.o
 .ARM.attributes
                0x0000000000000afb       0x34 build/bus_voltage_sensor.o
 .ARM.attributes
                0x0000000000000b2f       0x34 build/circle_limitation.o
 .ARM.attributes
                0x0000000000000b63       0x34 build/feed_forward_ctrl.o
 .ARM.attributes
                0x0000000000000b97       0x34 build/ntc_temperature_sensor.o
 .ARM.attributes
                0x0000000000000bcb       0x34 build/pid_regulator.o
 .ARM.attributes
                0x0000000000000bff       0x34 build/pqd_motor_power_measurement.o
 .ARM.attributes
                0x0000000000000c33       0x34 build/r_divider_bus_voltage_sensor.o
 .ARM.attributes
                0x0000000000000c67       0x34 build/ramp_ext_mngr.o
 .ARM.attributes
                0x0000000000000c9b       0x34 build/revup_ctrl.o
 .ARM.attributes
                0x0000000000000ccf       0x34 build/speed_pos_fdbk.o
 .ARM.attributes
                0x0000000000000d03       0x34 build/speed_torq_ctrl.o
 .ARM.attributes
                0x0000000000000d37       0x34 build/sto_pll_speed_pos_fdbk.o
 .ARM.attributes
                0x0000000000000d6b       0x34 build/virtual_speed_sensor.o
 .ARM.attributes
                0x0000000000000d9f       0x34 build/r3_2_g4xx_pwm_curr_fdbk.o
 .ARM.attributes
                0x0000000000000dd3       0x34 build/mcpa.o
 .ARM.attributes
                0x0000000000000e07       0x21 build/startup_stm32g431xx.o
 .ARM.attributes
                0x0000000000000e28       0x34 /usr/share/gcc-arm-none-eabi-10-2020-q4-major/bin/../lib/gcc/arm-none-eabi/10.2.1/../../../../arm-none-eabi/lib/thumb/v7e-m+fp/hard/libc_nano.a(lib_a-init.o)
 .ARM.attributes
                0x0000000000000e5c       0x34 /usr/share/gcc-arm-none-eabi-10-2020-q4-major/bin/../lib/gcc/arm-none-eabi/10.2.1/../../../../arm-none-eabi/lib/thumb/v7e-m+fp/hard/libc_nano.a(lib_a-memcpy-stub.o)
 .ARM.attributes
                0x0000000000000e90       0x34 /usr/share/gcc-arm-none-eabi-10-2020-q4-major/bin/../lib/gcc/arm-none-eabi/10.2.1/../../../../arm-none-eabi/lib/thumb/v7e-m+fp/hard/libc_nano.a(lib_a-memset.o)
 .ARM.attributes
                0x0000000000000ec4       0x58 MCSDK_v6.3.2-Full/MotorControl/libMP/libmp-G4-MDK-ARM_ARMv7-M.a(mp_one_touch_tuning.o)
 .ARM.attributes
                0x0000000000000f1c       0x58 MCSDK_v6.3.2-Full/MotorControl/libMP/libmp-G4-MDK-ARM_ARMv7-M.a(mp_self_com_ctrl.o)
 .ARM.attributes
                0x0000000000000f74       0x1e /usr/share/gcc-arm-none-eabi-10-2020-q4-major/bin/../lib/gcc/arm-none-eabi/10.2.1/thumb/v7e-m+fp/hard/libgcc.a(_arm_muldf3.o)
 .ARM.attributes
                0x0000000000000f92       0x1e /usr/share/gcc-arm-none-eabi-10-2020-q4-major/bin/../lib/gcc/arm-none-eabi/10.2.1/thumb/v7e-m+fp/hard/libgcc.a(_arm_addsubdf3.o)
 .ARM.attributes
                0x0000000000000fb0       0x1e /usr/share/gcc-arm-none-eabi-10-2020-q4-major/bin/../lib/gcc/arm-none-eabi/10.2.1/thumb/v7e-m+fp/hard/libgcc.a(_arm_fixdfsi.o)
 .ARM.attributes
                0x0000000000000fce       0x34 /usr/share/gcc-arm-none-eabi-10-2020-q4-major/bin/../lib/gcc/arm-none-eabi/10.2.1/../../../../arm-none-eabi/lib/thumb/v7e-m+fp/hard/libc_nano.a(lib_a-aeabi_memclr.o)
 .ARM.attributes
                0x0000000000001002       0x1c /usr/share/gcc-arm-none-eabi-10-2020-q4-major/bin/../lib/gcc/arm-none-eabi/10.2.1/../../../../arm-none-eabi/lib/thumb/v7e-m+fp/hard/libc_nano.a(lib_a-aeabi_memset-soft.o)
 .ARM.attributes
                0x000000000000101e       0x1e /usr/share/gcc-arm-none-eabi-10-2020-q4-major/bin/../lib/gcc/arm-none-eabi/10.2.1/thumb/v7e-m+fp/hard/crtn.o
OUTPUT(build/EVSPIN32G4_Shinano.elf elf32-littlearm)
LOAD linker stubs
LOAD /usr/share/gcc-arm-none-eabi-10-2020-q4-major/bin/../lib/gcc/arm-none-eabi/10.2.1/../../../../arm-none-eabi/lib/thumb/v7e-m+fp/hard/libc.a
LOAD /usr/share/gcc-arm-none-eabi-10-2020-q4-major/bin/../lib/gcc/arm-none-eabi/10.2.1/../../../../arm-none-eabi/lib/thumb/v7e-m+fp/hard/libm.a
LOAD /usr/share/gcc-arm-none-eabi-10-2020-q4-major/bin/../lib/gcc/arm-none-eabi/10.2.1/thumb/v7e-m+fp/hard/libgcc.a

.debug_info     0x0000000000000000    0x6437e
 .debug_info    0x0000000000000000     0x6b0c build/main.o
 .debug_info    0x0000000000006b0c     0x113f build/motorcontrol.o
 .debug_info    0x0000000000007c4b      0xaab build/pwm_common.o
 .debug_info    0x00000000000086f6     0x3bac build/mc_api.o
 .debug_info    0x000000000000c2a2     0x3cbf build/mc_config.o
 .debug_info    0x000000000000ff61     0x1175 build/mc_config_common.o
 .debug_info    0x00000000000110d6      0xb55 build/mcp_config.o
 .debug_info    0x0000000000011c2b     0x4aa8 build/mc_tasks.o
 .debug_info    0x00000000000166d3     0x46d1 build/mc_tasks_foc.o
 .debug_info    0x000000000001ada4     0x1637 build/pwm_curr_fdbk.o
 .debug_info    0x000000000001c3db     0x1d73 build/regular_conversion_manager.o
 .debug_info    0x000000000001e14e      0x7ce build/mc_math.o
 .debug_info    0x000000000001e91c     0x25a4 build/mc_interface.o
 .debug_info    0x0000000000020ec0      0x3d1 build/stm32_mc_common_it.o
 .debug_info    0x0000000000021291     0x193d build/stm32g4xx_mc_it.o
 .debug_info    0x0000000000022bce      0xef7 build/mc_parameters.o
 .debug_info    0x0000000000023ac5     0x4ae7 build/register_interface.o
 .debug_info    0x00000000000285ac     0x17b7 build/mcp.o
 .debug_info    0x0000000000029d63      0x772 build/mc_perf.o
 .debug_info    0x000000000002a4d5     0x133d build/usart_aspep_driver.o
 .debug_info    0x000000000002b812      0x600 build/mc_configuration_registers.o
 .debug_info    0x000000000002be12     0x1344 build/aspep.o
 .debug_info    0x000000000002d156      0x1e0 build/mc_app_hooks.o
 .debug_info    0x000000000002d336      0xa0f build/stm32g4xx_it.o
 .debug_info    0x000000000002dd45      0x6f0 build/stm32g4xx_hal_msp.o
 .debug_info    0x000000000002e435      0xf73 build/stm32g4xx_hal_timebase_tim.o
 .debug_info    0x000000000002f3a8      0x499 build/vesc_commands.o
 .debug_info    0x000000000002f841     0x2244 build/vesc_uart.o
 .debug_info    0x0000000000031a85     0x11b8 build/stm32g4xx_ll_utils.o
 .debug_info    0x0000000000032c3d      0x88a build/stm32g4xx_ll_exti.o
 .debug_info    0x00000000000334c7      0xe9e build/stm32g4xx_ll_gpio.o
 .debug_info    0x0000000000034365      0xf69 build/stm32g4xx_ll_adc.o
 .debug_info    0x00000000000352ce      0xe56 build/stm32g4xx_hal.o
 .debug_info    0x0000000000036124     0x106c build/stm32g4xx_hal_rcc.o
 .debug_info    0x0000000000037190      0xb0b build/stm32g4xx_hal_pwr_ex.o
 .debug_info    0x0000000000037c9b     0x111b build/stm32g4xx_hal_cortex.o
 .debug_info    0x0000000000038db6      0x2a4 build/stm32g4xx_ll_comp.o
 .debug_info    0x000000000003905a     0x247d build/stm32g4xx_ll_rcc.o
 .debug_info    0x000000000003b4d7      0x79a build/stm32g4xx_ll_dac.o
 .debug_info    0x000000000003bc71      0x987 build/stm32g4xx_ll_i2c.o
 .debug_info    0x000000000003c5f8      0x2e3 build/stm32g4xx_ll_opamp.o
 .debug_info    0x000000000003c8db     0x5500 build/stm32g4xx_hal_tim.o
 .debug_info    0x0000000000041ddb     0x2841 build/stm32g4xx_hal_tim_ex.o
 .debug_info    0x000000000004461c     0x1ab3 build/stm32g4xx_ll_tim.o
 .debug_info    0x00000000000460cf      0xb69 build/stm32g4xx_ll_usart.o
 .debug_info    0x0000000000046c38      0x649 build/system_stm32g4xx.o
 .debug_info    0x0000000000047281      0x311 build/list.o
 .debug_info    0x0000000000047592     0x2e50 build/tasks.o
 .debug_info    0x000000000004a3e2     0x2605 build/cmsis_os.o
 .debug_info    0x000000000004c9e7      0x677 build/heap_4.o
 .debug_info    0x000000000004d05e      0x665 build/port.o
 .debug_info    0x000000000004d6c3     0x57db build/stspin32g4.o
 .debug_info    0x0000000000052e9e      0x2db build/bus_voltage_sensor.o
 .debug_info    0x0000000000053179      0x3a1 build/circle_limitation.o
 .debug_info    0x000000000005351a      0xba7 build/feed_forward_ctrl.o
 .debug_info    0x00000000000540c1      0x557 build/ntc_temperature_sensor.o
 .debug_info    0x0000000000054618      0x9da build/pid_regulator.o
 .debug_info    0x0000000000054ff2      0x588 build/pqd_motor_power_measurement.o
 .debug_info    0x000000000005557a      0x495 build/r_divider_bus_voltage_sensor.o
 .debug_info    0x0000000000055a0f      0x544 build/ramp_ext_mngr.o
 .debug_info    0x0000000000055f53     0x16b6 build/revup_ctrl.o
 .debug_info    0x0000000000057609      0x557 build/speed_pos_fdbk.o
 .debug_info    0x0000000000057b60      0xa52 build/speed_torq_ctrl.o
 .debug_info    0x00000000000585b2     0x1501 build/sto_pll_speed_pos_fdbk.o
 .debug_info    0x0000000000059ab3      0x7de build/virtual_speed_sensor.o
 .debug_info    0x000000000005a291     0x4dda build/r3_2_g4xx_pwm_curr_fdbk.o
 .debug_info    0x000000000005f06b      0x74b build/mcpa.o
 .debug_info    0x000000000005f7b6       0x22 build/startup_stm32g431xx.o
 .debug_info    0x000000000005f7d8      0xd08 MCSDK_v6.3.2-Full/MotorControl/libMP/libmp-G4-MDK-ARM_ARMv7-M.a(mp_one_touch_tuning.o)
 .debug_info    0x00000000000604e0     0x3e9e MCSDK_v6.3.2-Full/MotorControl/libMP/libmp-G4-MDK-ARM_ARMv7-M.a(mp_self_com_ctrl.o)

.debug_abbrev   0x0000000000000000     0xb42e
 .debug_abbrev  0x0000000000000000      0x51b build/main.o
 .debug_abbrev  0x000000000000051b      0x1e2 build/motorcontrol.o
 .debug_abbrev  0x00000000000006fd      0x207 build/pwm_common.o
 .debug_abbrev  0x0000000000000904      0x2f3 build/mc_api.o
 .debug_abbrev  0x0000000000000bf7      0x1ad build/mc_config.o
 .debug_abbrev  0x0000000000000da4      0x16e build/mc_config_common.o
 .debug_abbrev  0x0000000000000f12      0x16e build/mcp_config.o
 .debug_abbrev  0x0000000000001080      0x47f build/mc_tasks.o
 .debug_abbrev  0x00000000000014ff      0x421 build/mc_tasks_foc.o
 .debug_abbrev  0x0000000000001920      0x3bd build/pwm_curr_fdbk.o
 .debug_abbrev  0x0000000000001cdd      0x3cc build/regular_conversion_manager.o
 .debug_abbrev  0x00000000000020a9      0x27c build/mc_math.o
 .debug_abbrev  0x0000000000002325      0x41c build/mc_interface.o
 .debug_abbrev  0x0000000000002741      0x17f build/stm32_mc_common_it.o
 .debug_abbrev  0x00000000000028c0      0x2c4 build/stm32g4xx_mc_it.o
 .debug_abbrev  0x0000000000002b84      0x102 build/mc_parameters.o
 .debug_abbrev  0x0000000000002c86      0x476 build/register_interface.o
 .debug_abbrev  0x00000000000030fc      0x2b2 build/mcp.o
 .debug_abbrev  0x00000000000033ae      0x1f1 build/mc_perf.o
 .debug_abbrev  0x000000000000359f      0x2c7 build/usart_aspep_driver.o
 .debug_abbrev  0x0000000000003866       0xe2 build/mc_configuration_registers.o
 .debug_abbrev  0x0000000000003948      0x394 build/aspep.o
 .debug_abbrev  0x0000000000003cdc       0x99 build/mc_app_hooks.o
 .debug_abbrev  0x0000000000003d75      0x18c build/stm32g4xx_it.o
 .debug_abbrev  0x0000000000003f01      0x142 build/stm32g4xx_hal_msp.o
 .debug_abbrev  0x0000000000004043      0x20f build/stm32g4xx_hal_timebase_tim.o
 .debug_abbrev  0x0000000000004252      0x1d8 build/vesc_commands.o
 .debug_abbrev  0x000000000000442a      0x44b build/vesc_uart.o
 .debug_abbrev  0x0000000000004875      0x33b build/stm32g4xx_ll_utils.o
 .debug_abbrev  0x0000000000004bb0      0x1f6 build/stm32g4xx_ll_exti.o
 .debug_abbrev  0x0000000000004da6      0x288 build/stm32g4xx_ll_gpio.o
 .debug_abbrev  0x000000000000502e      0x23f build/stm32g4xx_ll_adc.o
 .debug_abbrev  0x000000000000526d      0x2c9 build/stm32g4xx_hal.o
 .debug_abbrev  0x0000000000005536      0x34e build/stm32g4xx_hal_rcc.o
 .debug_abbrev  0x0000000000005884      0x2a5 build/stm32g4xx_hal_pwr_ex.o
 .debug_abbrev  0x0000000000005b29      0x36f build/stm32g4xx_hal_cortex.o
 .debug_abbrev  0x0000000000005e98      0x194 build/stm32g4xx_ll_comp.o
 .debug_abbrev  0x000000000000602c      0x3b7 build/stm32g4xx_ll_rcc.o
 .debug_abbrev  0x00000000000063e3      0x21e build/stm32g4xx_ll_dac.o
 .debug_abbrev  0x0000000000006601      0x1eb build/stm32g4xx_ll_i2c.o
 .debug_abbrev  0x00000000000067ec      0x1ef build/stm32g4xx_ll_opamp.o
 .debug_abbrev  0x00000000000069db      0x3a1 build/stm32g4xx_hal_tim.o
 .debug_abbrev  0x0000000000006d7c      0x386 build/stm32g4xx_hal_tim_ex.o
 .debug_abbrev  0x0000000000007102      0x2c5 build/stm32g4xx_ll_tim.o
 .debug_abbrev  0x00000000000073c7      0x2f6 build/stm32g4xx_ll_usart.o
 .debug_abbrev  0x00000000000076bd      0x11b build/system_stm32g4xx.o
 .debug_abbrev  0x00000000000077d8      0x124 build/list.o
 .debug_abbrev  0x00000000000078fc      0x4ae build/tasks.o
 .debug_abbrev  0x0000000000007daa      0x48f build/cmsis_os.o
 .debug_abbrev  0x0000000000008239      0x2b5 build/heap_4.o
 .debug_abbrev  0x00000000000084ee      0x2a8 build/port.o
 .debug_abbrev  0x0000000000008796      0x4de build/stspin32g4.o
 .debug_abbrev  0x0000000000008c74      0x10c build/bus_voltage_sensor.o
 .debug_abbrev  0x0000000000008d80      0x118 build/circle_limitation.o
 .debug_abbrev  0x0000000000008e98      0x29f build/feed_forward_ctrl.o
 .debug_abbrev  0x0000000000009137      0x25e build/ntc_temperature_sensor.o
 .debug_abbrev  0x0000000000009395      0x1e7 build/pid_regulator.o
 .debug_abbrev  0x000000000000957c      0x1d0 build/pqd_motor_power_measurement.o
 .debug_abbrev  0x000000000000974c      0x180 build/r_divider_bus_voltage_sensor.o
 .debug_abbrev  0x00000000000098cc      0x218 build/ramp_ext_mngr.o
 .debug_abbrev  0x0000000000009ae4      0x319 build/revup_ctrl.o
 .debug_abbrev  0x0000000000009dfd      0x1a1 build/speed_pos_fdbk.o
 .debug_abbrev  0x0000000000009f9e      0x256 build/speed_torq_ctrl.o
 .debug_abbrev  0x000000000000a1f4      0x351 build/sto_pll_speed_pos_fdbk.o
 .debug_abbrev  0x000000000000a545      0x239 build/virtual_speed_sensor.o
 .debug_abbrev  0x000000000000a77e      0x475 build/r3_2_g4xx_pwm_curr_fdbk.o
 .debug_abbrev  0x000000000000abf3      0x26c build/mcpa.o
 .debug_abbrev  0x000000000000ae5f       0x12 build/startup_stm32g431xx.o
 .debug_abbrev  0x000000000000ae71      0x22a MCSDK_v6.3.2-Full/MotorControl/libMP/libmp-G4-MDK-ARM_ARMv7-M.a(mp_one_touch_tuning.o)
 .debug_abbrev  0x000000000000b09b      0x393 MCSDK_v6.3.2-Full/MotorControl/libMP/libmp-G4-MDK-ARM_ARMv7-M.a(mp_self_com_ctrl.o)

.debug_loc      0x0000000000000000    0x3b0eb
 .debug_loc     0x0000000000000000     0x24d9 build/main.o
 .debug_loc     0x00000000000024d9       0x58 build/motorcontrol.o
 .debug_loc     0x0000000000002531      0x2b5 build/pwm_common.o
 .debug_loc     0x00000000000027e6      0x4d9 build/mc_api.o
 .debug_loc     0x0000000000002cbf      0x749 build/mc_tasks.o
 .debug_loc     0x0000000000003408      0x46f build/mc_tasks_foc.o
 .debug_loc     0x0000000000003877      0xd28 build/pwm_curr_fdbk.o
 .debug_loc     0x000000000000459f      0xa12 build/regular_conversion_manager.o
 .debug_loc     0x0000000000004fb1      0x7ac build/mc_math.o
 .debug_loc     0x000000000000575d     0x14c8 build/mc_interface.o
 .debug_loc     0x0000000000006c25       0x50 build/stm32_mc_common_it.o
 .debug_loc     0x0000000000006c75      0x25e build/stm32g4xx_mc_it.o
 .debug_loc     0x0000000000006ed3     0x3c65 build/register_interface.o
 .debug_loc     0x000000000000ab38      0xa83 build/mcp.o
 .debug_loc     0x000000000000b5bb      0x35b build/mc_perf.o
 .debug_loc     0x000000000000b916      0xcfd build/usart_aspep_driver.o
 .debug_loc     0x000000000000c613     0x1d6f build/aspep.o
 .debug_loc     0x000000000000e382       0x44 build/stm32g4xx_hal_msp.o
 .debug_loc     0x000000000000e3c6       0xf8 build/stm32g4xx_hal_timebase_tim.o
 .debug_loc     0x000000000000e4be      0x2b6 build/vesc_commands.o
 .debug_loc     0x000000000000e774     0x14e8 build/vesc_uart.o
 .debug_loc     0x000000000000fc5c      0xa52 build/stm32g4xx_ll_utils.o
 .debug_loc     0x00000000000106ae      0x3ee build/stm32g4xx_ll_exti.o
 .debug_loc     0x0000000000010a9c      0x8ad build/stm32g4xx_ll_gpio.o
 .debug_loc     0x0000000000011349      0x773 build/stm32g4xx_ll_adc.o
 .debug_loc     0x0000000000011abc      0x38d build/stm32g4xx_hal.o
 .debug_loc     0x0000000000011e49      0xa12 build/stm32g4xx_hal_rcc.o
 .debug_loc     0x000000000001285b      0xa64 build/stm32g4xx_hal_pwr_ex.o
 .debug_loc     0x00000000000132bf      0x845 build/stm32g4xx_hal_cortex.o
 .debug_loc     0x0000000000013b04      0x15d build/stm32g4xx_ll_comp.o
 .debug_loc     0x0000000000013c61     0x1828 build/stm32g4xx_ll_rcc.o
 .debug_loc     0x0000000000015489      0x24f build/stm32g4xx_ll_dac.o
 .debug_loc     0x00000000000156d8      0x2cb build/stm32g4xx_ll_i2c.o
 .debug_loc     0x00000000000159a3      0x1ad build/stm32g4xx_ll_opamp.o
 .debug_loc     0x0000000000015b50     0x821b build/stm32g4xx_hal_tim.o
 .debug_loc     0x000000000001dd6b     0x2c19 build/stm32g4xx_hal_tim_ex.o
 .debug_loc     0x0000000000020984     0x189b build/stm32g4xx_ll_tim.o
 .debug_loc     0x000000000002221f      0x5fe build/stm32g4xx_ll_usart.o
 .debug_loc     0x000000000002281d       0xbd build/system_stm32g4xx.o
 .debug_loc     0x00000000000228da      0x14c build/list.o
 .debug_loc     0x0000000000022a26     0x2b07 build/tasks.o
 .debug_loc     0x000000000002552d     0x2316 build/cmsis_os.o
 .debug_loc     0x0000000000027843      0x817 build/heap_4.o
 .debug_loc     0x000000000002805a      0x1ce build/port.o
 .debug_loc     0x0000000000028228     0x5d6e build/stspin32g4.o
 .debug_loc     0x000000000002df96       0x8a build/bus_voltage_sensor.o
 .debug_loc     0x000000000002e020      0x2da build/circle_limitation.o
 .debug_loc     0x000000000002e2fa      0xa6e build/feed_forward_ctrl.o
 .debug_loc     0x000000000002ed68      0x315 build/ntc_temperature_sensor.o
 .debug_loc     0x000000000002f07d      0x639 build/pid_regulator.o
 .debug_loc     0x000000000002f6b6      0x1a7 build/pqd_motor_power_measurement.o
 .debug_loc     0x000000000002f85d      0x2ba build/r_divider_bus_voltage_sensor.o
 .debug_loc     0x000000000002fb17      0x561 build/ramp_ext_mngr.o
 .debug_loc     0x0000000000030078      0x9f3 build/revup_ctrl.o
 .debug_loc     0x0000000000030a6b      0x3bc build/speed_pos_fdbk.o
 .debug_loc     0x0000000000030e27      0x4f2 build/speed_torq_ctrl.o
 .debug_loc     0x0000000000031319     0x1428 build/sto_pll_speed_pos_fdbk.o
 .debug_loc     0x0000000000032741      0x6b3 build/virtual_speed_sensor.o
 .debug_loc     0x0000000000032df4     0x3667 build/r3_2_g4xx_pwm_curr_fdbk.o
 .debug_loc     0x000000000003645b      0x5a4 build/mcpa.o
 .debug_loc     0x00000000000369ff      0x784 MCSDK_v6.3.2-Full/MotorControl/libMP/libmp-G4-MDK-ARM_ARMv7-M.a(mp_one_touch_tuning.o)
 .debug_loc     0x0000000000037183     0x3f68 MCSDK_v6.3.2-Full/MotorControl/libMP/libmp-G4-MDK-ARM_ARMv7-M.a(mp_self_com_ctrl.o)

.debug_aranges  0x0000000000000000     0x2018
 .debug_aranges
                0x0000000000000000       0x40 build/main.o
 .debug_aranges
                0x0000000000000040       0x28 build/motorcontrol.o
 .debug_aranges
                0x0000000000000068       0x28 build/pwm_common.o
 .debug_aranges
                0x0000000000000090      0x190 build/mc_api.o
 .debug_aranges
                0x0000000000000220       0x18 build/mc_config.o
 .debug_aranges
                0x0000000000000238       0x18 build/mc_config_common.o
 .debug_aranges
                0x0000000000000250       0x18 build/mcp_config.o
 .debug_aranges
                0x0000000000000268       0x88 build/mc_tasks.o
 .debug_aranges
                0x00000000000002f0       0x50 build/mc_tasks_foc.o
 .debug_aranges
                0x0000000000000340      0x110 build/pwm_curr_fdbk.o
 .debug_aranges
                0x0000000000000450       0x68 build/regular_conversion_manager.o
 .debug_aranges
                0x00000000000004b8       0x48 build/mc_math.o
 .debug_aranges
                0x0000000000000500      0x1b8 build/mc_interface.o
 .debug_aranges
                0x00000000000006b8       0x28 build/stm32_mc_common_it.o
 .debug_aranges
                0x00000000000006e0       0x48 build/stm32g4xx_mc_it.o
 .debug_aranges
                0x0000000000000728       0x18 build/mc_parameters.o
 .debug_aranges
                0x0000000000000740       0x48 build/register_interface.o
 .debug_aranges
                0x0000000000000788       0x38 build/mcp.o
 .debug_aranges
                0x00000000000007c0       0x58 build/mc_perf.o
 .debug_aranges
                0x0000000000000818       0x48 build/usart_aspep_driver.o
 .debug_aranges
                0x0000000000000860       0x18 build/mc_configuration_registers.o
 .debug_aranges
                0x0000000000000878       0x60 build/aspep.o
 .debug_aranges
                0x00000000000008d8       0x20 build/mc_app_hooks.o
 .debug_aranges
                0x00000000000008f8       0x20 build/stm32g4xx_it.o
 .debug_aranges
                0x0000000000000918       0x20 build/stm32g4xx_hal_msp.o
 .debug_aranges
                0x0000000000000938       0x30 build/stm32g4xx_hal_timebase_tim.o
 .debug_aranges
                0x0000000000000968       0x20 build/vesc_commands.o
 .debug_aranges
                0x0000000000000988       0x38 build/vesc_uart.o
 .debug_aranges
                0x00000000000009c0       0x50 build/stm32g4xx_ll_utils.o
 .debug_aranges
                0x0000000000000a10       0x30 build/stm32g4xx_ll_exti.o
 .debug_aranges
                0x0000000000000a40       0x30 build/stm32g4xx_ll_gpio.o
 .debug_aranges
                0x0000000000000a70       0x68 build/stm32g4xx_ll_adc.o
 .debug_aranges
                0x0000000000000ad8      0x140 build/stm32g4xx_hal.o
 .debug_aranges
                0x0000000000000c18       0x90 build/stm32g4xx_hal_rcc.o
 .debug_aranges
                0x0000000000000ca8      0x128 build/stm32g4xx_hal_pwr_ex.o
 .debug_aranges
                0x0000000000000dd0       0xa8 build/stm32g4xx_hal_cortex.o
 .debug_aranges
                0x0000000000000e78       0x30 build/stm32g4xx_ll_comp.o
 .debug_aranges
                0x0000000000000ea8       0x78 build/stm32g4xx_ll_rcc.o
 .debug_aranges
                0x0000000000000f20       0x30 build/stm32g4xx_ll_dac.o
 .debug_aranges
                0x0000000000000f50       0x30 build/stm32g4xx_ll_i2c.o
 .debug_aranges
                0x0000000000000f80       0x30 build/stm32g4xx_ll_opamp.o
 .debug_aranges
                0x0000000000000fb0      0x290 build/stm32g4xx_hal_tim.o
 .debug_aranges
                0x0000000000001240      0x1c0 build/stm32g4xx_hal_tim_ex.o
 .debug_aranges
                0x0000000000001400       0x80 build/stm32g4xx_ll_tim.o
 .debug_aranges
                0x0000000000001480       0x40 build/stm32g4xx_ll_usart.o
 .debug_aranges
                0x00000000000014c0       0x28 build/system_stm32g4xx.o
 .debug_aranges
                0x00000000000014e8       0x40 build/list.o
 .debug_aranges
                0x0000000000001528      0x188 build/tasks.o
 .debug_aranges
                0x00000000000016b0      0x190 build/cmsis_os.o
 .debug_aranges
                0x0000000000001840       0x48 build/heap_4.o
 .debug_aranges
                0x0000000000001888       0x80 build/port.o
 .debug_aranges
                0x0000000000001908       0xe8 build/stspin32g4.o
 .debug_aranges
                0x00000000000019f0       0x28 build/bus_voltage_sensor.o
 .debug_aranges
                0x0000000000001a18       0x20 build/circle_limitation.o
 .debug_aranges
                0x0000000000001a38       0x68 build/feed_forward_ctrl.o
 .debug_aranges
                0x0000000000001aa0       0x48 build/ntc_temperature_sensor.o
 .debug_aranges
                0x0000000000001ae8       0xd8 build/pid_regulator.o
 .debug_aranges
                0x0000000000001bc0       0x30 build/pqd_motor_power_measurement.o
 .debug_aranges
                0x0000000000001bf0       0x38 build/r_divider_bus_voltage_sensor.o
 .debug_aranges
                0x0000000000001c28       0x50 build/ramp_ext_mngr.o
 .debug_aranges
                0x0000000000001c78       0x78 build/revup_ctrl.o
 .debug_aranges
                0x0000000000001cf0       0x50 build/speed_pos_fdbk.o
 .debug_aranges
                0x0000000000001d40       0x80 build/speed_torq_ctrl.o
 .debug_aranges
                0x0000000000001dc0       0xb8 build/sto_pll_speed_pos_fdbk.o
 .debug_aranges
                0x0000000000001e78       0x70 build/virtual_speed_sensor.o
 .debug_aranges
                0x0000000000001ee8       0xd8 build/r3_2_g4xx_pwm_curr_fdbk.o
 .debug_aranges
                0x0000000000001fc0       0x30 build/mcpa.o
 .debug_aranges
                0x0000000000001ff0       0x28 build/startup_stm32g431xx.o

.debug_ranges   0x0000000000000000     0x82f0
 .debug_ranges  0x0000000000000000      0xa70 build/main.o
 .debug_ranges  0x0000000000000a70       0x18 build/motorcontrol.o
 .debug_ranges  0x0000000000000a88      0x108 build/pwm_common.o
 .debug_ranges  0x0000000000000b90      0x180 build/mc_api.o
 .debug_ranges  0x0000000000000d10      0x290 build/mc_tasks.o
 .debug_ranges  0x0000000000000fa0       0xa0 build/mc_tasks_foc.o
 .debug_ranges  0x0000000000001040      0x198 build/pwm_curr_fdbk.o
 .debug_ranges  0x00000000000011d8      0x160 build/regular_conversion_manager.o
 .debug_ranges  0x0000000000001338       0x38 build/mc_math.o
 .debug_ranges  0x0000000000001370      0x228 build/mc_interface.o
 .debug_ranges  0x0000000000001598       0x18 build/stm32_mc_common_it.o
 .debug_ranges  0x00000000000015b0      0x118 build/stm32g4xx_mc_it.o
 .debug_ranges  0x00000000000016c8      0x670 build/register_interface.o
 .debug_ranges  0x0000000000001d38       0x28 build/mcp.o
 .debug_ranges  0x0000000000001d60       0x48 build/mc_perf.o
 .debug_ranges  0x0000000000001da8      0x2d0 build/usart_aspep_driver.o
 .debug_ranges  0x0000000000002078      0x1f0 build/aspep.o
 .debug_ranges  0x0000000000002268       0x10 build/mc_app_hooks.o
 .debug_ranges  0x0000000000002278       0x10 build/stm32g4xx_it.o
 .debug_ranges  0x0000000000002288       0x48 build/stm32g4xx_hal_msp.o
 .debug_ranges  0x00000000000022d0       0x58 build/stm32g4xx_hal_timebase_tim.o
 .debug_ranges  0x0000000000002328       0x50 build/vesc_commands.o
 .debug_ranges  0x0000000000002378      0x430 build/vesc_uart.o
 .debug_ranges  0x00000000000027a8      0x218 build/stm32g4xx_ll_utils.o
 .debug_ranges  0x00000000000029c0       0xa8 build/stm32g4xx_ll_exti.o
 .debug_ranges  0x0000000000002a68      0x1e0 build/stm32g4xx_ll_gpio.o
 .debug_ranges  0x0000000000002c48      0x150 build/stm32g4xx_ll_adc.o
 .debug_ranges  0x0000000000002d98      0x130 build/stm32g4xx_hal.o
 .debug_ranges  0x0000000000002ec8       0xf8 build/stm32g4xx_hal_rcc.o
 .debug_ranges  0x0000000000002fc0      0x118 build/stm32g4xx_hal_pwr_ex.o
 .debug_ranges  0x00000000000030d8      0x190 build/stm32g4xx_hal_cortex.o
 .debug_ranges  0x0000000000003268       0x20 build/stm32g4xx_ll_comp.o
 .debug_ranges  0x0000000000003288     0x11b8 build/stm32g4xx_ll_rcc.o
 .debug_ranges  0x0000000000004440       0x68 build/stm32g4xx_ll_dac.o
 .debug_ranges  0x00000000000044a8       0xc8 build/stm32g4xx_ll_i2c.o
 .debug_ranges  0x0000000000004570       0x38 build/stm32g4xx_ll_opamp.o
 .debug_ranges  0x00000000000045a8      0x780 build/stm32g4xx_hal_tim.o
 .debug_ranges  0x0000000000004d28      0x260 build/stm32g4xx_hal_tim_ex.o
 .debug_ranges  0x0000000000004f88      0x2d8 build/stm32g4xx_ll_tim.o
 .debug_ranges  0x0000000000005260      0x108 build/stm32g4xx_ll_usart.o
 .debug_ranges  0x0000000000005368       0x18 build/system_stm32g4xx.o
 .debug_ranges  0x0000000000005380       0x30 build/list.o
 .debug_ranges  0x00000000000053b0      0x468 build/tasks.o
 .debug_ranges  0x0000000000005818      0x5b0 build/cmsis_os.o
 .debug_ranges  0x0000000000005dc8       0x78 build/heap_4.o
 .debug_ranges  0x0000000000005e40       0xb8 build/port.o
 .debug_ranges  0x0000000000005ef8      0xd78 build/stspin32g4.o
 .debug_ranges  0x0000000000006c70       0x18 build/bus_voltage_sensor.o
 .debug_ranges  0x0000000000006c88       0x10 build/circle_limitation.o
 .debug_ranges  0x0000000000006c98       0x70 build/feed_forward_ctrl.o
 .debug_ranges  0x0000000000006d08       0x50 build/ntc_temperature_sensor.o
 .debug_ranges  0x0000000000006d58       0xc8 build/pid_regulator.o
 .debug_ranges  0x0000000000006e20       0x20 build/pqd_motor_power_measurement.o
 .debug_ranges  0x0000000000006e40       0x28 build/r_divider_bus_voltage_sensor.o
 .debug_ranges  0x0000000000006e68       0x78 build/ramp_ext_mngr.o
 .debug_ranges  0x0000000000006ee0      0x158 build/revup_ctrl.o
 .debug_ranges  0x0000000000007038       0x40 build/speed_pos_fdbk.o
 .debug_ranges  0x0000000000007078       0x90 build/speed_torq_ctrl.o
 .debug_ranges  0x0000000000007108      0x110 build/sto_pll_speed_pos_fdbk.o
 .debug_ranges  0x0000000000007218       0x60 build/virtual_speed_sensor.o
 .debug_ranges  0x0000000000007278      0x8c8 build/r3_2_g4xx_pwm_curr_fdbk.o
 .debug_ranges  0x0000000000007b40       0x20 build/mcpa.o
 .debug_ranges  0x0000000000007b60       0x20 build/startup_stm32g431xx.o
 .debug_ranges  0x0000000000007b80       0xd0 MCSDK_v6.3.2-Full/MotorControl/libMP/libmp-G4-MDK-ARM_ARMv7-M.a(mp_one_touch_tuning.o)
 .debug_ranges  0x0000000000007c50      0x6a0 MCSDK_v6.3.2-Full/MotorControl/libMP/libmp-G4-MDK-ARM_ARMv7-M.a(mp_self_com_ctrl.o)

.debug_line     0x0000000000000000    0x30e1a
 .debug_line    0x0000000000000000     0x21ef build/main.o
 .debug_line    0x00000000000021ef      0x2d0 build/motorcontrol.o
 .debug_line    0x00000000000024bf      0x3f9 build/pwm_common.o
 .debug_line    0x00000000000028b8      0x8ab build/mc_api.o
 .debug_line    0x0000000000003163      0x432 build/mc_config.o
 .debug_line    0x0000000000003595      0x2ee build/mc_config_common.o
 .debug_line    0x0000000000003883      0x20e build/mcp_config.o
 .debug_line    0x0000000000003a91      0xb98 build/mc_tasks.o
 .debug_line    0x0000000000004629      0xaa4 build/mc_tasks_foc.o
 .debug_line    0x00000000000050cd      0xb4c build/pwm_curr_fdbk.o
 .debug_line    0x0000000000005c19      0xd09 build/regular_conversion_manager.o
 .debug_line    0x0000000000006922      0x454 build/mc_math.o
 .debug_line    0x0000000000006d76      0xf03 build/mc_interface.o
 .debug_line    0x0000000000007c79      0x246 build/stm32_mc_common_it.o
 .debug_line    0x0000000000007ebf      0x4ee build/stm32g4xx_mc_it.o
 .debug_line    0x00000000000083ad      0x265 build/mc_parameters.o
 .debug_line    0x0000000000008612     0x1746 build/register_interface.o
 .debug_line    0x0000000000009d58      0x793 build/mcp.o
 .debug_line    0x000000000000a4eb      0x55c build/mc_perf.o
 .debug_line    0x000000000000aa47      0x7d9 build/usart_aspep_driver.o
 .debug_line    0x000000000000b220      0x18c build/mc_configuration_registers.o
 .debug_line    0x000000000000b3ac      0xe43 build/aspep.o
 .debug_line    0x000000000000c1ef      0x161 build/mc_app_hooks.o
 .debug_line    0x000000000000c350      0x1e2 build/stm32g4xx_it.o
 .debug_line    0x000000000000c532      0x201 build/stm32g4xx_hal_msp.o
 .debug_line    0x000000000000c733      0x2d1 build/stm32g4xx_hal_timebase_tim.o
 .debug_line    0x000000000000ca04      0x1ee build/vesc_commands.o
 .debug_line    0x000000000000cbf2      0xb77 build/vesc_uart.o
 .debug_line    0x000000000000d769      0xa17 build/stm32g4xx_ll_utils.o
 .debug_line    0x000000000000e180      0x570 build/stm32g4xx_ll_exti.o
 .debug_line    0x000000000000e6f0      0x76f build/stm32g4xx_ll_gpio.o
 .debug_line    0x000000000000ee5f      0x741 build/stm32g4xx_ll_adc.o
 .debug_line    0x000000000000f5a0      0x706 build/stm32g4xx_hal.o
 .debug_line    0x000000000000fca6      0xed2 build/stm32g4xx_hal_rcc.o
 .debug_line    0x0000000000010b78      0xabb build/stm32g4xx_hal_pwr_ex.o
 .debug_line    0x0000000000011633      0x7e0 build/stm32g4xx_hal_cortex.o
 .debug_line    0x0000000000011e13      0x261 build/stm32g4xx_ll_comp.o
 .debug_line    0x0000000000012074     0x200b build/stm32g4xx_ll_rcc.o
 .debug_line    0x000000000001407f      0x337 build/stm32g4xx_ll_dac.o
 .debug_line    0x00000000000143b6      0x3de build/stm32g4xx_ll_i2c.o
 .debug_line    0x0000000000014794      0x2bf build/stm32g4xx_ll_opamp.o
 .debug_line    0x0000000000014a53     0x63e2 build/stm32g4xx_hal_tim.o
 .debug_line    0x000000000001ae35     0x21d2 build/stm32g4xx_hal_tim_ex.o
 .debug_line    0x000000000001d007      0xe99 build/stm32g4xx_ll_tim.o
 .debug_line    0x000000000001dea0      0x565 build/stm32g4xx_ll_usart.o
 .debug_line    0x000000000001e405      0x22c build/system_stm32g4xx.o
 .debug_line    0x000000000001e631      0x361 build/list.o
 .debug_line    0x000000000001e992     0x2d33 build/tasks.o
 .debug_line    0x00000000000216c5     0x15d0 build/cmsis_os.o
 .debug_line    0x0000000000022c95      0x7db build/heap_4.o
 .debug_line    0x0000000000023470      0x88f build/port.o
 .debug_line    0x0000000000023cff     0x23bf build/stspin32g4.o
 .debug_line    0x00000000000260be      0x22e build/bus_voltage_sensor.o
 .debug_line    0x00000000000262ec      0x2b3 build/circle_limitation.o
 .debug_line    0x000000000002659f      0x50a build/feed_forward_ctrl.o
 .debug_line    0x0000000000026aa9      0x3ce build/ntc_temperature_sensor.o
 .debug_line    0x0000000000026e77      0x671 build/pid_regulator.o
 .debug_line    0x00000000000274e8      0x2b7 build/pqd_motor_power_measurement.o
 .debug_line    0x000000000002779f      0x435 build/r_divider_bus_voltage_sensor.o
 .debug_line    0x0000000000027bd4      0x464 build/ramp_ext_mngr.o
 .debug_line    0x0000000000028038      0xa22 build/revup_ctrl.o
 .debug_line    0x0000000000028a5a      0x363 build/speed_pos_fdbk.o
 .debug_line    0x0000000000028dbd      0x5de build/speed_torq_ctrl.o
 .debug_line    0x000000000002939b      0xd52 build/sto_pll_speed_pos_fdbk.o
 .debug_line    0x000000000002a0ed      0x705 build/virtual_speed_sensor.o
 .debug_line    0x000000000002a7f2     0x2c99 build/r3_2_g4xx_pwm_curr_fdbk.o
 .debug_line    0x000000000002d48b      0x81a build/mcpa.o
 .debug_line    0x000000000002dca5       0x77 build/startup_stm32g431xx.o
 .debug_line    0x000000000002dd1c      0x953 MCSDK_v6.3.2-Full/MotorControl/libMP/libmp-G4-MDK-ARM_ARMv7-M.a(mp_one_touch_tuning.o)
 .debug_line    0x000000000002e66f     0x27ab MCSDK_v6.3.2-Full/MotorControl/libMP/libmp-G4-MDK-ARM_ARMv7-M.a(mp_self_com_ctrl.o)

.debug_str      0x0000000000000000     0xfe54
 .debug_str     0x0000000000000000     0x232e build/main.o
                                       0x2635 (size before relaxing)
 .debug_str     0x000000000000232e      0xbec build/motorcontrol.o
                                        0xf7b (size before relaxing)
 .debug_str     0x0000000000002f1a      0x127 build/pwm_common.o
                                        0x56d (size before relaxing)
 .debug_str     0x0000000000003041     0x20b1 build/mc_api.o
                                       0x3160 (size before relaxing)
 .debug_str     0x00000000000050f2      0x550 build/mc_config.o
                                       0x2fc6 (size before relaxing)
 .debug_str     0x0000000000005642       0xe1 build/mc_config_common.o
                                        0xd23 (size before relaxing)
 .debug_str     0x0000000000005723      0x571 build/mcp_config.o
                                        0x82f (size before relaxing)
 .debug_str     0x0000000000005c94      0x5f0 build/mc_tasks.o
                                       0x363f (size before relaxing)
 .debug_str     0x0000000000006284      0x3f5 build/mc_tasks_foc.o
                                       0x3491 (size before relaxing)
 .debug_str     0x0000000000006679      0x3dd build/pwm_curr_fdbk.o
                                        0xbbd (size before relaxing)
 .debug_str     0x0000000000006a56      0x31e build/regular_conversion_manager.o
                                       0x100d (size before relaxing)
 .debug_str     0x0000000000006d74      0x19a build/mc_math.o
                                        0x430 (size before relaxing)
 .debug_str     0x0000000000006f0e      0x204 build/mc_interface.o
                                       0x160f (size before relaxing)
 .debug_str     0x0000000000007112       0x79 build/stm32_mc_common_it.o
                                        0x31a (size before relaxing)
 .debug_str     0x000000000000718b      0x25c build/stm32g4xx_mc_it.o
                                        0xec5 (size before relaxing)
 .debug_str     0x00000000000073e7       0x27 build/mc_parameters.o
                                        0x93a (size before relaxing)
 .debug_str     0x000000000000740e      0x76e build/register_interface.o
                                       0x3321 (size before relaxing)
 .debug_str     0x0000000000007b7c       0xf5 build/mcp.o
                                       0x11e1 (size before relaxing)
 .debug_str     0x0000000000007c71       0x79 build/mc_perf.o
                                        0x4c4 (size before relaxing)
 .debug_str     0x0000000000007cea      0x1aa build/usart_aspep_driver.o
                                        0x4d3 (size before relaxing)
 .debug_str     0x0000000000007e94       0xf4 build/mc_configuration_registers.o
                                        0x4cf (size before relaxing)
 .debug_str     0x0000000000007f88      0x1cd build/aspep.o
                                        0x7d2 (size before relaxing)
 .debug_str     0x0000000000008155       0x13 build/mc_app_hooks.o
                                        0x23e (size before relaxing)
 .debug_str     0x0000000000008168       0x40 build/stm32g4xx_it.o
                                        0x859 (size before relaxing)
 .debug_str     0x00000000000081a8       0x5a build/stm32g4xx_hal_msp.o
                                        0x813 (size before relaxing)
 .debug_str     0x0000000000008202      0x157 build/stm32g4xx_hal_timebase_tim.o
                                        0xecb (size before relaxing)
 .debug_str     0x0000000000008359      0x173 build/vesc_commands.o
                                        0x3cc (size before relaxing)
 .debug_str     0x00000000000084cc      0x1df build/vesc_uart.o
                                        0xd86 (size before relaxing)
 .debug_str     0x00000000000086ab      0x2ad build/stm32g4xx_ll_utils.o
                                        0x810 (size before relaxing)
 .debug_str     0x0000000000008958      0x1e6 build/stm32g4xx_ll_exti.o
                                        0x47f (size before relaxing)
 .debug_str     0x0000000000008b3e       0xf3 build/stm32g4xx_ll_gpio.o
                                        0x4c3 (size before relaxing)
 .debug_str     0x0000000000008c31      0x1f7 build/stm32g4xx_ll_adc.o
                                        0x76e (size before relaxing)
 .debug_str     0x0000000000008e28      0x3e5 build/stm32g4xx_hal.o
                                        0xc96 (size before relaxing)
 .debug_str     0x000000000000920d      0x2c3 build/stm32g4xx_hal_rcc.o
                                        0x811 (size before relaxing)
 .debug_str     0x00000000000094d0      0x48a build/stm32g4xx_hal_pwr_ex.o
                                        0x7c4 (size before relaxing)
 .debug_str     0x000000000000995a      0x342 build/stm32g4xx_hal_cortex.o
                                        0xb6c (size before relaxing)
 .debug_str     0x0000000000009c9c       0x6e build/stm32g4xx_ll_comp.o
                                        0x283 (size before relaxing)
 .debug_str     0x0000000000009d0a      0x5e4 build/stm32g4xx_ll_rcc.o
                                        0x9e9 (size before relaxing)
 .debug_str     0x000000000000a2ee       0x65 build/stm32g4xx_ll_dac.o
                                        0x4c3 (size before relaxing)
 .debug_str     0x000000000000a353      0x13c build/stm32g4xx_ll_i2c.o
                                        0x4e6 (size before relaxing)
 .debug_str     0x000000000000a48f       0x86 build/stm32g4xx_ll_opamp.o
                                        0x2a5 (size before relaxing)
 .debug_str     0x000000000000a515      0xf19 build/stm32g4xx_hal_tim.o
                                       0x1851 (size before relaxing)
 .debug_str     0x000000000000b42e      0x907 build/stm32g4xx_hal_tim_ex.o
                                       0x14a9 (size before relaxing)
 .debug_str     0x000000000000bd35      0x37f build/stm32g4xx_ll_tim.o
                                        0xa1e (size before relaxing)
 .debug_str     0x000000000000c0b4      0x174 build/stm32g4xx_ll_usart.o
                                        0x5f7 (size before relaxing)
 .debug_str     0x000000000000c228       0x38 build/system_stm32g4xx.o
                                        0x3a4 (size before relaxing)
 .debug_str     0x000000000000c260      0x163 build/list.o
                                        0x2e0 (size before relaxing)
 .debug_str     0x000000000000c3c3      0xbc1 build/tasks.o
                                        0xeb2 (size before relaxing)
 .debug_str     0x000000000000cf84      0x7fa build/cmsis_os.o
                                        0xde5 (size before relaxing)
 .debug_str     0x000000000000d77e      0x2c8 build/heap_4.o
                                        0x4ee (size before relaxing)
 .debug_str     0x000000000000da46      0x164 build/port.o
                                        0x45c (size before relaxing)
 .debug_str     0x000000000000dbaa      0x433 build/stspin32g4.o
                                        0x858 (size before relaxing)
 .debug_str     0x000000000000dfdd       0x5c build/bus_voltage_sensor.o
                                        0x30f (size before relaxing)
 .debug_str     0x000000000000e039       0xb2 build/circle_limitation.o
                                        0x330 (size before relaxing)
 .debug_str     0x000000000000e0eb      0x150 build/feed_forward_ctrl.o
                                        0x9bc (size before relaxing)
 .debug_str     0x000000000000e23b       0xa1 build/ntc_temperature_sensor.o
                                        0x3df (size before relaxing)
 .debug_str     0x000000000000e2dc      0x229 build/pid_regulator.o
                                        0x5e1 (size before relaxing)
 .debug_str     0x000000000000e505       0x5b build/pqd_motor_power_measurement.o
                                        0x454 (size before relaxing)
 .debug_str     0x000000000000e560       0x7c build/r_divider_bus_voltage_sensor.o
                                        0x3f3 (size before relaxing)
 .debug_str     0x000000000000e5dc       0xdd build/ramp_ext_mngr.o
                                        0x3a1 (size before relaxing)
 .debug_str     0x000000000000e6b9      0x254 build/revup_ctrl.o
                                       0x116d (size before relaxing)
 .debug_str     0x000000000000e90d       0xa7 build/speed_pos_fdbk.o
                                        0x49f (size before relaxing)
 .debug_str     0x000000000000e9b4      0x138 build/speed_torq_ctrl.o
                                        0x8dc (size before relaxing)
 .debug_str     0x000000000000eaec      0x480 build/sto_pll_speed_pos_fdbk.o
                                        0xdf8 (size before relaxing)
 .debug_str     0x000000000000ef6c      0x13a build/virtual_speed_sensor.o
                                        0x654 (size before relaxing)
 .debug_str     0x000000000000f0a6      0x53c build/r3_2_g4xx_pwm_curr_fdbk.o
                                       0x158f (size before relaxing)
 .debug_str     0x000000000000f5e2       0x93 build/mcpa.o
                                        0x4d6 (size before relaxing)
 .debug_str     0x000000000000f675       0x24 build/startup_stm32g431xx.o
                                         0x48 (size before relaxing)
 .debug_str     0x000000000000f699      0x236 MCSDK_v6.3.2-Full/MotorControl/libMP/libmp-G4-MDK-ARM_ARMv7-M.a(mp_one_touch_tuning.o)
                                        0xb72 (size before relaxing)
 .debug_str     0x000000000000f8cf      0x585 MCSDK_v6.3.2-Full/MotorControl/libMP/libmp-G4-MDK-ARM_ARMv7-M.a(mp_self_com_ctrl.o)
                                       0x2ee9 (size before relaxing)

.comment        0x0000000000000000       0x91
 .comment       0x0000000000000000       0x4d build/main.o
                                         0x4e (size before relaxing)
 .comment       0x000000000000004d       0x4e build/motorcontrol.o
 .comment       0x000000000000004d       0x4e build/pwm_common.o
 .comment       0x000000000000004d       0x4e build/mc_api.o
 .comment       0x000000000000004d       0x4e build/mc_config.o
 .comment       0x000000000000004d       0x4e build/mc_config_common.o
 .comment       0x000000000000004d       0x4e build/mcp_config.o
 .comment       0x000000000000004d       0x4e build/mc_tasks.o
 .comment       0x000000000000004d       0x4e build/mc_tasks_foc.o
 .comment       0x000000000000004d       0x4e build/pwm_curr_fdbk.o
 .comment       0x000000000000004d       0x4e build/regular_conversion_manager.o
 .comment       0x000000000000004d       0x4e build/mc_math.o
 .comment       0x000000000000004d       0x4e build/mc_interface.o
 .comment       0x000000000000004d       0x4e build/stm32_mc_common_it.o
 .comment       0x000000000000004d       0x4e build/stm32g4xx_mc_it.o
 .comment       0x000000000000004d       0x4e build/mc_parameters.o
 .comment       0x000000000000004d       0x4e build/register_interface.o
 .comment       0x000000000000004d       0x4e build/mcp.o
 .comment       0x000000000000004d       0x4e build/mc_perf.o
 .comment       0x000000000000004d       0x4e build/usart_aspep_driver.o
 .comment       0x000000000000004d       0x4e build/mc_configuration_registers.o
 .comment       0x000000000000004d       0x4e build/aspep.o
 .comment       0x000000000000004d       0x4e build/mc_app_hooks.o
 .comment       0x000000000000004d       0x4e build/stm32g4xx_it.o
 .comment       0x000000000000004d       0x4e build/stm32g4xx_hal_msp.o
 .comment       0x000000000000004d       0x4e build/stm32g4xx_hal_timebase_tim.o
 .comment       0x000000000000004d       0x4e build/vesc_commands.o
 .comment       0x000000000000004d       0x4e build/vesc_uart.o
 .comment       0x000000000000004d       0x4e build/stm32g4xx_ll_utils.o
 .comment       0x000000000000004d       0x4e build/stm32g4xx_ll_exti.o
 .comment       0x000000000000004d       0x4e build/stm32g4xx_ll_gpio.o
 .comment       0x000000000000004d       0x4e build/stm32g4xx_ll_adc.o
 .comment       0x000000000000004d       0x4e build/stm32g4xx_hal.o
 .comment       0x000000000000004d       0x4e build/stm32g4xx_hal_rcc.o
 .comment       0x000000000000004d       0x4e build/stm32g4xx_hal_pwr_ex.o
 .comment       0x000000000000004d       0x4e build/stm32g4xx_hal_cortex.o
 .comment       0x000000000000004d       0x4e build/stm32g4xx_ll_comp.o
 .comment       0x000000000000004d       0x4e build/stm32g4xx_ll_rcc.o
 .comment       0x000000000000004d       0x4e build/stm32g4xx_ll_dac.o
 .comment       0x000000000000004d       0x4e build/stm32g4xx_ll_i2c.o
 .comment       0x000000000000004d       0x4e build/stm32g4xx_ll_opamp.o
 .comment       0x000000000000004d       0x4e build/stm32g4xx_hal_tim.o
 .comment       0x000000000000004d       0x4e build/stm32g4xx_hal_tim_ex.o
 .comment       0x000000000000004d       0x4e build/stm32g4xx_ll_tim.o
 .comment       0x000000000000004d       0x4e build/stm32g4xx_ll_usart.o
 .comment       0x000000000000004d       0x4e build/system_stm32g4xx.o
 .comment       0x000000000000004d       0x4e build/list.o
 .comment       0x000000000000004d       0x4e build/tasks.o
 .comment       0x000000000000004d       0x4e build/cmsis_os.o
 .comment       0x000000000000004d       0x4e build/heap_4.o
 .comment       0x000000000000004d       0x4e build/port.o
 .comment       0x000000000000004d       0x4e build/stspin32g4.o
 .comment       0x000000000000004d       0x4e build/bus_voltage_sensor.o
 .comment       0x000000000000004d       0x4e build/circle_limitation.o
 .comment       0x000000000000004d       0x4e build/feed_forward_ctrl.o
 .comment       0x000000000000004d       0x4e build/ntc_temperature_sensor.o
 .comment       0x000000000000004d       0x4e build/pid_regulator.o
 .comment       0x000000000000004d       0x4e build/pqd_motor_power_measurement.o
 .comment       0x000000000000004d       0x4e build/r_divider_bus_voltage_sensor.o
 .comment       0x000000000000004d       0x4e build/ramp_ext_mngr.o
 .comment       0x000000000000004d       0x4e build/revup_ctrl.o
 .comment       0x000000000000004d       0x4e build/speed_pos_fdbk.o
 .comment       0x000000000000004d       0x4e build/speed_torq_ctrl.o
 .comment       0x000000000000004d       0x4e build/sto_pll_speed_pos_fdbk.o
 .comment       0x000000000000004d       0x4e build/virtual_speed_sensor.o
 .comment       0x000000000000004d       0x4e build/r3_2_g4xx_pwm_curr_fdbk.o
 .comment       0x000000000000004d       0x4e build/mcpa.o
 .comment       0x000000000000004d       0x44 MCSDK_v6.3.2-Full/MotorControl/libMP/libmp-G4-MDK-ARM_ARMv7-M.a(mp_one_touch_tuning.o)
                                         0x45 (size before relaxing)
 .comment       0x0000000000000091       0x45 MCSDK_v6.3.2-Full/MotorControl/libMP/libmp-G4-MDK-ARM_ARMv7-M.a(mp_self_com_ctrl.o)

.note.GNU-stack
                0x0000000000000000        0x0
 .note.GNU-stack
                0x0000000000000000        0x0 MCSDK_v6.3.2-Full/MotorControl/libMP/libmp-G4-MDK-ARM_ARMv7-M.a(mp_one_touch_tuning.o)
 .note.GNU-stack
                0x0000000000000000        0x0 MCSDK_v6.3.2-Full/MotorControl/libMP/libmp-G4-MDK-ARM_ARMv7-M.a(mp_self_com_ctrl.o)

.debug_frame    0x0000000000000000     0x5d48
 .debug_frame   0x0000000000000000       0x84 build/main.o
 .debug_frame   0x0000000000000084       0x48 build/motorcontrol.o
 .debug_frame   0x00000000000000cc       0x5c build/pwm_common.o
 .debug_frame   0x0000000000000128      0x37c build/mc_api.o
 .debug_frame   0x00000000000004a4      0x1ac build/mc_tasks.o
 .debug_frame   0x0000000000000650      0x108 build/mc_tasks_foc.o
 .debug_frame   0x0000000000000758      0x25c build/pwm_curr_fdbk.o
 .debug_frame   0x00000000000009b4      0x108 build/regular_conversion_manager.o
 .debug_frame   0x0000000000000abc       0xb0 build/mc_math.o
 .debug_frame   0x0000000000000b6c      0x434 build/mc_interface.o
 .debug_frame   0x0000000000000fa0       0x38 build/stm32_mc_common_it.o
 .debug_frame   0x0000000000000fd8       0x7c build/stm32g4xx_mc_it.o
 .debug_frame   0x0000000000001054      0x104 build/register_interface.o
 .debug_frame   0x0000000000001158       0xb8 build/mcp.o
 .debug_frame   0x0000000000001210       0xa8 build/mc_perf.o
 .debug_frame   0x00000000000012b8       0xac build/usart_aspep_driver.o
 .debug_frame   0x0000000000001364      0x124 build/aspep.o
 .debug_frame   0x0000000000001488       0x30 build/mc_app_hooks.o
 .debug_frame   0x00000000000014b8       0x20 build/stm32g4xx_it.o
 .debug_frame   0x00000000000014d8       0x34 build/stm32g4xx_hal_msp.o
 .debug_frame   0x000000000000150c       0x54 build/stm32g4xx_hal_timebase_tim.o
 .debug_frame   0x0000000000001560       0x2c build/vesc_commands.o
 .debug_frame   0x000000000000158c       0x94 build/vesc_uart.o
 .debug_frame   0x0000000000001620       0xd0 build/stm32g4xx_ll_utils.o
 .debug_frame   0x00000000000016f0       0x64 build/stm32g4xx_ll_exti.o
 .debug_frame   0x0000000000001754       0x58 build/stm32g4xx_ll_gpio.o
 .debug_frame   0x00000000000017ac      0x120 build/stm32g4xx_ll_adc.o
 .debug_frame   0x00000000000018cc      0x2b0 build/stm32g4xx_hal.o
 .debug_frame   0x0000000000001b7c      0x1b8 build/stm32g4xx_hal_rcc.o
 .debug_frame   0x0000000000001d34      0x2a4 build/stm32g4xx_hal_pwr_ex.o
 .debug_frame   0x0000000000001fd8      0x164 build/stm32g4xx_hal_cortex.o
 .debug_frame   0x000000000000213c       0x4c build/stm32g4xx_ll_comp.o
 .debug_frame   0x0000000000002188      0x200 build/stm32g4xx_ll_rcc.o
 .debug_frame   0x0000000000002388       0x48 build/stm32g4xx_ll_dac.o
 .debug_frame   0x00000000000023d0       0x4c build/stm32g4xx_ll_i2c.o
 .debug_frame   0x000000000000241c       0x50 build/stm32g4xx_ll_opamp.o
 .debug_frame   0x000000000000246c      0xb58 build/stm32g4xx_hal_tim.o
 .debug_frame   0x0000000000002fc4      0x650 build/stm32g4xx_hal_tim_ex.o
 .debug_frame   0x0000000000003614      0x180 build/stm32g4xx_ll_tim.o
 .debug_frame   0x0000000000003794       0x7c build/stm32g4xx_ll_usart.o
 .debug_frame   0x0000000000003810       0x30 build/system_stm32g4xx.o
 .debug_frame   0x0000000000003840       0x88 build/list.o
 .debug_frame   0x00000000000038c8      0x630 build/tasks.o
 .debug_frame   0x0000000000003ef8      0x5b8 build/cmsis_os.o
 .debug_frame   0x00000000000044b0       0xb4 build/heap_4.o
 .debug_frame   0x0000000000004564      0x120 build/port.o
 .debug_frame   0x0000000000004684      0x3f8 build/stspin32g4.o
 .debug_frame   0x0000000000004a7c       0x30 build/bus_voltage_sensor.o
 .debug_frame   0x0000000000004aac       0x34 build/circle_limitation.o
 .debug_frame   0x0000000000004ae0      0x10c build/feed_forward_ctrl.o
 .debug_frame   0x0000000000004bec       0x78 build/ntc_temperature_sensor.o
 .debug_frame   0x0000000000004c64      0x1b0 build/pid_regulator.o
 .debug_frame   0x0000000000004e14       0x60 build/pqd_motor_power_measurement.o
 .debug_frame   0x0000000000004e74       0x70 build/r_divider_bus_voltage_sensor.o
 .debug_frame   0x0000000000004ee4       0xa0 build/ramp_ext_mngr.o
 .debug_frame   0x0000000000004f84      0x100 build/revup_ctrl.o
 .debug_frame   0x0000000000005084       0x88 build/speed_pos_fdbk.o
 .debug_frame   0x000000000000510c      0x124 build/speed_torq_ctrl.o
 .debug_frame   0x0000000000005230      0x1d0 build/sto_pll_speed_pos_fdbk.o
 .debug_frame   0x0000000000005400       0xfc build/virtual_speed_sensor.o
 .debug_frame   0x00000000000054fc      0x2e8 build/r3_2_g4xx_pwm_curr_fdbk.o
 .debug_frame   0x00000000000057e4       0x84 build/mcpa.o
 .debug_frame   0x0000000000005868       0x2c /usr/share/gcc-arm-none-eabi-10-2020-q4-major/bin/../lib/gcc/arm-none-eabi/10.2.1/../../../../arm-none-eabi/lib/thumb/v7e-m+fp/hard/libc_nano.a(lib_a-init.o)
 .debug_frame   0x0000000000005894       0x28 /usr/share/gcc-arm-none-eabi-10-2020-q4-major/bin/../lib/gcc/arm-none-eabi/10.2.1/../../../../arm-none-eabi/lib/thumb/v7e-m+fp/hard/libc_nano.a(lib_a-memcpy-stub.o)
 .debug_frame   0x00000000000058bc       0x20 /usr/share/gcc-arm-none-eabi-10-2020-q4-major/bin/../lib/gcc/arm-none-eabi/10.2.1/../../../../arm-none-eabi/lib/thumb/v7e-m+fp/hard/libc_nano.a(lib_a-memset.o)
 .debug_frame   0x00000000000058dc       0xd8 MCSDK_v6.3.2-Full/MotorControl/libMP/libmp-G4-MDK-ARM_ARMv7-M.a(mp_one_touch_tuning.o)
 .debug_frame   0x00000000000059b4      0x274 MCSDK_v6.3.2-Full/MotorControl/libMP/libmp-G4-MDK-ARM_ARMv7-M.a(mp_self_com_ctrl.o)
 .debug_frame   0x0000000000005c28       0x30 /usr/share/gcc-arm-none-eabi-10-2020-q4-major/bin/../lib/gcc/arm-none-eabi/10.2.1/thumb/v7e-m+fp/hard/libgcc.a(_arm_muldf3.o)
 .debug_frame   0x0000000000005c58       0xac /usr/share/gcc-arm-none-eabi-10-2020-q4-major/bin/../lib/gcc/arm-none-eabi/10.2.1/thumb/v7e-m+fp/hard/libgcc.a(_arm_addsubdf3.o)
 .debug_frame   0x0000000000005d04       0x24 /usr/share/gcc-arm-none-eabi-10-2020-q4-major/bin/../lib/gcc/arm-none-eabi/10.2.1/thumb/v7e-m+fp/hard/libgcc.a(_arm_fixdfsi.o)
 .debug_frame   0x0000000000005d28       0x20 /usr/share/gcc-arm-none-eabi-10-2020-q4-major/bin/../lib/gcc/arm-none-eabi/10.2.1/../../../../arm-none-eabi/lib/thumb/v7e-m+fp/hard/libc_nano.a(lib_a-aeabi_memclr.o)

Cross Reference Table

Symbol                                            File
ADC1_2_IRQHandler                                 build/stm32g4xx_mc_it.o
AHBPrescTable                                     build/system_stm32g4xx.o
                                                  build/stm32g4xx_ll_rcc.o
                                                  build/stm32g4xx_hal_rcc.o
                                                  build/stm32g4xx_ll_utils.o
APBPrescTable                                     build/system_stm32g4xx.o
                                                  build/stm32g4xx_ll_rcc.o
                                                  build/stm32g4xx_hal_rcc.o
ASPEP_HWDataReceivedIT                            build/aspep.o
                                                  build/mc_tasks.o
ASPEP_HWDataTransmittedIT                         build/aspep.o
ASPEP_HWReset                                     build/aspep.o
ASPEP_RXframeProcess                              build/aspep.o
                                                  build/mcp_config.o
ASPEP_getBuffer                                   build/aspep.o
                                                  build/mcp_config.o
ASPEP_sendBeacon                                  build/aspep.o
ASPEP_sendPacket                                  build/aspep.o
                                                  build/mcp_config.o
ASPEP_sendPing                                    build/aspep.o
ASPEP_start                                       build/aspep.o
                                                  build/mc_tasks.o
ApplicationConfig_reg                             build/mc_configuration_registers.o
                                                  build/register_interface.o
BusFault_Handler                                  build/startup_stm32g431xx.o
BusVoltageSensor_M1                               build/mc_config_common.o
                                                  build/register_interface.o
                                                  build/mc_tasks_foc.o
                                                  build/mc_tasks.o
COMP1_2_3_IRQHandler                              build/startup_stm32g431xx.o
COMP4_IRQHandler                                  build/startup_stm32g431xx.o
CORDIC_IRQHandler                                 build/startup_stm32g431xx.o
CRS_IRQHandler                                    build/startup_stm32g431xx.o
CTL_BOARD                                         build/mc_configuration_registers.o
CircleLimitationM1                                build/mc_config.o
                                                  build/mc_tasks_foc.o
Circle_Limitation                                 build/circle_limitation.o
                                                  MCSDK_v6.3.2-Full/MotorControl/libMP/libmp-G4-MDK-ARM_ARMv7-M.a(mp_self_com_ctrl.o)
DMA1_Channel1_IRQHandler                          build/stm32g4xx_mc_it.o
DMA1_Channel2_IRQHandler                          build/stm32g4xx_mc_it.o
DMA1_Channel3_IRQHandler                          build/startup_stm32g431xx.o
DMA1_Channel4_IRQHandler                          build/startup_stm32g431xx.o
DMA1_Channel5_IRQHandler                          build/startup_stm32g431xx.o
DMA1_Channel6_IRQHandler                          build/startup_stm32g431xx.o
DMA2_Channel1_IRQHandler                          build/startup_stm32g431xx.o
DMA2_Channel2_IRQHandler                          build/startup_stm32g431xx.o
DMA2_Channel3_IRQHandler                          build/startup_stm32g431xx.o
DMA2_Channel4_IRQHandler                          build/startup_stm32g431xx.o
DMA2_Channel5_IRQHandler                          build/startup_stm32g431xx.o
DMA2_Channel6_IRQHandler                          build/startup_stm32g431xx.o
DMAMUX_OVR_IRQHandler                             build/startup_stm32g431xx.o
DOUT_GetOutputState                               build/digital_output.o
DOUT_SetOutputState                               build/digital_output.o
DebugMon_Handler                                  build/startup_stm32g431xx.o
Default_Handler                                   build/startup_stm32g431xx.o
EXTI0_IRQHandler                                  build/startup_stm32g431xx.o
EXTI15_10_IRQHandler                              build/stm32_mc_common_it.o
EXTI1_IRQHandler                                  build/startup_stm32g431xx.o
EXTI2_IRQHandler                                  build/startup_stm32g431xx.o
EXTI3_IRQHandler                                  build/startup_stm32g431xx.o
EXTI4_IRQHandler                                  build/startup_stm32g431xx.o
EXTI9_5_IRQHandler                                build/startup_stm32g431xx.o
Error_Handler                                     build/main.o
FDCAN1_IT0_IRQHandler                             build/startup_stm32g431xx.o
FDCAN1_IT1_IRQHandler                             build/startup_stm32g431xx.o
FF_Clear                                          build/feed_forward_ctrl.o
                                                  build/mc_tasks_foc.o
FF_DataProcess                                    build/feed_forward_ctrl.o
FF_GetFFConstants                                 build/feed_forward_ctrl.o
FF_GetVqdAvPIout                                  build/feed_forward_ctrl.o
                                                  build/register_interface.o
FF_GetVqdff                                       build/feed_forward_ctrl.o
                                                  build/register_interface.o
FF_Init                                           build/feed_forward_ctrl.o
                                                  build/mc_tasks_foc.o
FF_InitFOCAdditionalMethods                       build/feed_forward_ctrl.o
                                                  build/mc_tasks_foc.o
FF_M1                                             build/mc_config.o
                                                  build/register_interface.o
FF_SetFFConstants                                 build/feed_forward_ctrl.o
FF_VqdConditioning                                build/feed_forward_ctrl.o
FF_VqdffComputation                               build/feed_forward_ctrl.o
                                                  build/mc_tasks_foc.o
FIRMWARE_NAME                                     build/mc_configuration_registers.o
FLASH_FlushCaches                                 build/stm32g4xx_hal_flash_ex.o
                                                  build/stm32g4xx_hal_flash.o
FLASH_IRQHandler                                  build/startup_stm32g431xx.o
FLASH_PageErase                                   build/stm32g4xx_hal_flash_ex.o
                                                  build/stm32g4xx_hal_flash.o
FLASH_WaitForLastOperation                        build/stm32g4xx_hal_flash.o
                                                  build/stm32g4xx_hal_flash_ex.o
FMAC_IRQHandler                                   build/startup_stm32g431xx.o
FOCConfig_reg                                     build/mc_configuration_registers.o
                                                  build/register_interface.o
FOCVars                                           build/mc_config.o
                                                  build/mc_tasks_foc.o
FOC_CalcCurrRef                                   build/mc_tasks_foc.o
FOC_Clear                                         build/mc_tasks_foc.o
                                                  build/mc_tasks.o
FOC_HighFrequencyTask                             build/mc_tasks_foc.o
                                                  build/mc_tasks.o
FOC_Init                                          build/mc_tasks_foc.o
                                                  build/mc_tasks.o
FOC_InitAdditionalMethods                         build/mc_tasks_foc.o
FPU_IRQHandler                                    build/startup_stm32g431xx.o
Fitab                                             MCSDK_v6.3.2-Full/MotorControl/libMP/libmp-G4-MDK-ARM_ARMv7-M.a(mp_self_com_ctrl.o)
GLOBAL_TIMESTAMP                                  build/mcpa.o
                                                  build/mc_tasks.o
HAL_DBGMCU_DisableDBGSleepMode                    build/stm32g4xx_hal.o
HAL_DBGMCU_DisableDBGStandbyMode                  build/stm32g4xx_hal.o
HAL_DBGMCU_DisableDBGStopMode                     build/stm32g4xx_hal.o
HAL_DBGMCU_EnableDBGSleepMode                     build/stm32g4xx_hal.o
HAL_DBGMCU_EnableDBGStandbyMode                   build/stm32g4xx_hal.o
HAL_DBGMCU_EnableDBGStopMode                      build/stm32g4xx_hal.o
HAL_DMAEx_ConfigMuxRequestGenerator               build/stm32g4xx_hal_dma_ex.o
HAL_DMAEx_ConfigMuxSync                           build/stm32g4xx_hal_dma_ex.o
HAL_DMAEx_DisableMuxRequestGenerator              build/stm32g4xx_hal_dma_ex.o
HAL_DMAEx_EnableMuxRequestGenerator               build/stm32g4xx_hal_dma_ex.o
HAL_DMAEx_MUX_IRQHandler                          build/stm32g4xx_hal_dma_ex.o
HAL_DMA_Abort                                     build/stm32g4xx_hal_dma.o
HAL_DMA_Abort_IT                                  build/stm32g4xx_hal_dma.o
                                                  build/stm32g4xx_hal_tim_ex.o
                                                  build/stm32g4xx_hal_tim.o
HAL_DMA_DeInit                                    build/stm32g4xx_hal_dma.o
HAL_DMA_GetError                                  build/stm32g4xx_hal_dma.o
HAL_DMA_GetState                                  build/stm32g4xx_hal_dma.o
HAL_DMA_IRQHandler                                build/stm32g4xx_hal_dma.o
HAL_DMA_Init                                      build/stm32g4xx_hal_dma.o
HAL_DMA_PollForTransfer                           build/stm32g4xx_hal_dma.o
HAL_DMA_RegisterCallback                          build/stm32g4xx_hal_dma.o
HAL_DMA_Start                                     build/stm32g4xx_hal_dma.o
HAL_DMA_Start_IT                                  build/stm32g4xx_hal_dma.o
                                                  build/stm32g4xx_hal_tim_ex.o
                                                  build/stm32g4xx_hal_tim.o
HAL_DMA_UnRegisterCallback                        build/stm32g4xx_hal_dma.o
HAL_DeInit                                        build/stm32g4xx_hal.o
HAL_Delay                                         build/stm32g4xx_hal.o
HAL_EXTI_ClearConfigLine                          build/stm32g4xx_hal_exti.o
HAL_EXTI_ClearPending                             build/stm32g4xx_hal_exti.o
HAL_EXTI_GenerateSWI                              build/stm32g4xx_hal_exti.o
HAL_EXTI_GetConfigLine                            build/stm32g4xx_hal_exti.o
HAL_EXTI_GetHandle                                build/stm32g4xx_hal_exti.o
HAL_EXTI_GetPending                               build/stm32g4xx_hal_exti.o
HAL_EXTI_IRQHandler                               build/stm32g4xx_hal_exti.o
HAL_EXTI_RegisterCallback                         build/stm32g4xx_hal_exti.o
HAL_EXTI_SetConfigLine                            build/stm32g4xx_hal_exti.o
HAL_FLASHEx_DisableDebugger                       build/stm32g4xx_hal_flash_ex.o
HAL_FLASHEx_DisableRunPowerDown                   build/stm32g4xx_hal_flash_ramfunc.o
HAL_FLASHEx_EnableDebugger                        build/stm32g4xx_hal_flash_ex.o
HAL_FLASHEx_EnableRunPowerDown                    build/stm32g4xx_hal_flash_ramfunc.o
HAL_FLASHEx_EnableSecMemProtection                build/stm32g4xx_hal_flash_ex.o
HAL_FLASHEx_Erase                                 build/stm32g4xx_hal_flash_ex.o
HAL_FLASHEx_Erase_IT                              build/stm32g4xx_hal_flash_ex.o
HAL_FLASHEx_OBGetConfig                           build/stm32g4xx_hal_flash_ex.o
HAL_FLASHEx_OBProgram                             build/stm32g4xx_hal_flash_ex.o
HAL_FLASH_EndOfOperationCallback                  build/stm32g4xx_hal_flash.o
HAL_FLASH_GetError                                build/stm32g4xx_hal_flash.o
HAL_FLASH_IRQHandler                              build/stm32g4xx_hal_flash.o
HAL_FLASH_Lock                                    build/stm32g4xx_hal_flash.o
HAL_FLASH_OB_Launch                               build/stm32g4xx_hal_flash.o
HAL_FLASH_OB_Lock                                 build/stm32g4xx_hal_flash.o
HAL_FLASH_OB_Unlock                               build/stm32g4xx_hal_flash.o
HAL_FLASH_OperationErrorCallback                  build/stm32g4xx_hal_flash.o
HAL_FLASH_Program                                 build/stm32g4xx_hal_flash.o
HAL_FLASH_Program_IT                              build/stm32g4xx_hal_flash.o
HAL_FLASH_Unlock                                  build/stm32g4xx_hal_flash.o
HAL_GPIO_DeInit                                   build/stm32g4xx_hal_gpio.o
HAL_GPIO_EXTI_Callback                            build/stm32g4xx_hal_gpio.o
HAL_GPIO_EXTI_IRQHandler                          build/stm32g4xx_hal_gpio.o
HAL_GPIO_Init                                     build/stm32g4xx_hal_gpio.o
                                                  build/stm32g4xx_hal_rcc_ex.o
                                                  build/stm32g4xx_hal_rcc.o
HAL_GPIO_LockPin                                  build/stm32g4xx_hal_gpio.o
HAL_GPIO_ReadPin                                  build/stm32g4xx_hal_gpio.o
HAL_GPIO_TogglePin                                build/stm32g4xx_hal_gpio.o
HAL_GPIO_WritePin                                 build/stm32g4xx_hal_gpio.o
HAL_GetDEVID                                      build/stm32g4xx_hal.o
HAL_GetHalVersion                                 build/stm32g4xx_hal.o
HAL_GetREVID                                      build/stm32g4xx_hal.o
HAL_GetTick                                       build/stm32g4xx_hal.o
                                                  build/stm32g4xx_hal_tim_ex.o
                                                  build/stm32g4xx_hal_dma.o
                                                  build/stm32g4xx_hal_flash.o
                                                  build/stm32g4xx_hal_rcc_ex.o
                                                  build/stm32g4xx_hal_rcc.o
HAL_GetTickFreq                                   build/stm32g4xx_hal.o
HAL_GetTickPrio                                   build/stm32g4xx_hal.o
HAL_GetUIDw0                                      build/stm32g4xx_hal.o
HAL_GetUIDw1                                      build/stm32g4xx_hal.o
HAL_GetUIDw2                                      build/stm32g4xx_hal.o
HAL_IncTick                                       build/stm32g4xx_hal.o
                                                  build/main.o
HAL_Init                                          build/stm32g4xx_hal.o
                                                  build/main.o
HAL_InitTick                                      build/stm32g4xx_hal_timebase_tim.o
                                                  build/stm32g4xx_hal_rcc.o
                                                  build/main.o
HAL_MPU_ConfigRegion                              build/stm32g4xx_hal_cortex.o
HAL_MPU_Disable                                   build/stm32g4xx_hal_cortex.o
HAL_MPU_Enable                                    build/stm32g4xx_hal_cortex.o
HAL_MspDeInit                                     build/stm32g4xx_hal.o
HAL_MspInit                                       build/stm32g4xx_hal_msp.o
HAL_NVIC_ClearPendingIRQ                          build/stm32g4xx_hal_cortex.o
HAL_NVIC_DisableIRQ                               build/stm32g4xx_hal_cortex.o
HAL_NVIC_EnableIRQ                                build/stm32g4xx_hal_cortex.o
                                                  build/stm32g4xx_hal_timebase_tim.o
HAL_NVIC_GetActive                                build/stm32g4xx_hal_cortex.o
HAL_NVIC_GetPendingIRQ                            build/stm32g4xx_hal_cortex.o
HAL_NVIC_GetPriority                              build/stm32g4xx_hal_cortex.o
HAL_NVIC_GetPriorityGrouping                      build/stm32g4xx_hal_cortex.o
HAL_NVIC_SetPendingIRQ                            build/stm32g4xx_hal_cortex.o
HAL_NVIC_SetPriority                              build/stm32g4xx_hal_cortex.o
                                                  build/stm32g4xx_hal.o
                                                  build/stm32g4xx_hal_timebase_tim.o
                                                  build/stm32g4xx_hal_msp.o
HAL_NVIC_SetPriorityGrouping                      build/stm32g4xx_hal_cortex.o
                                                  build/stm32g4xx_hal.o
HAL_NVIC_SystemReset                              build/stm32g4xx_hal_cortex.o
                                                  build/mcp.o
HAL_PWREx_ConfigPVM                               build/stm32g4xx_hal_pwr_ex.o
HAL_PWREx_ControlVoltageScaling                   build/stm32g4xx_hal_pwr_ex.o
HAL_PWREx_DisableBatteryCharging                  build/stm32g4xx_hal_pwr_ex.o
HAL_PWREx_DisableGPIOPullDown                     build/stm32g4xx_hal_pwr_ex.o
HAL_PWREx_DisableGPIOPullUp                       build/stm32g4xx_hal_pwr_ex.o
HAL_PWREx_DisableInternalWakeUpLine               build/stm32g4xx_hal_pwr_ex.o
HAL_PWREx_DisableLowPowerRunMode                  build/stm32g4xx_hal_pwr_ex.o
                                                  build/stm32g4xx_hal_pwr.o
HAL_PWREx_DisablePVM1                             build/stm32g4xx_hal_pwr_ex.o
HAL_PWREx_DisablePVM2                             build/stm32g4xx_hal_pwr_ex.o
HAL_PWREx_DisablePVM3                             build/stm32g4xx_hal_pwr_ex.o
HAL_PWREx_DisablePVM4                             build/stm32g4xx_hal_pwr_ex.o
HAL_PWREx_DisablePullUpPullDownConfig             build/stm32g4xx_hal_pwr_ex.o
HAL_PWREx_DisableSRAM2ContentRetention            build/stm32g4xx_hal_pwr_ex.o
HAL_PWREx_DisableUCPDDeadBattery                  build/stm32g4xx_hal_pwr_ex.o
                                                  build/stm32g4xx_hal_msp.o
HAL_PWREx_DisableUCPDStandbyMode                  build/stm32g4xx_hal_pwr_ex.o
HAL_PWREx_EnableBatteryCharging                   build/stm32g4xx_hal_pwr_ex.o
HAL_PWREx_EnableGPIOPullDown                      build/stm32g4xx_hal_pwr_ex.o
HAL_PWREx_EnableGPIOPullUp                        build/stm32g4xx_hal_pwr_ex.o
HAL_PWREx_EnableInternalWakeUpLine                build/stm32g4xx_hal_pwr_ex.o
HAL_PWREx_EnableLowPowerRunMode                   build/stm32g4xx_hal_pwr_ex.o
                                                  build/stm32g4xx_hal_pwr.o
HAL_PWREx_EnablePVM1                              build/stm32g4xx_hal_pwr_ex.o
HAL_PWREx_EnablePVM2                              build/stm32g4xx_hal_pwr_ex.o
HAL_PWREx_EnablePVM3                              build/stm32g4xx_hal_pwr_ex.o
HAL_PWREx_EnablePVM4                              build/stm32g4xx_hal_pwr_ex.o
HAL_PWREx_EnablePullUpPullDownConfig              build/stm32g4xx_hal_pwr_ex.o
HAL_PWREx_EnableSRAM2ContentRetention             build/stm32g4xx_hal_pwr_ex.o
HAL_PWREx_EnableUCPDDeadBattery                   build/stm32g4xx_hal_pwr_ex.o
HAL_PWREx_EnableUCPDStandbyMode                   build/stm32g4xx_hal_pwr_ex.o
HAL_PWREx_EnterSHUTDOWNMode                       build/stm32g4xx_hal_pwr_ex.o
HAL_PWREx_EnterSTOP0Mode                          build/stm32g4xx_hal_pwr_ex.o
                                                  build/stm32g4xx_hal_pwr.o
HAL_PWREx_EnterSTOP1Mode                          build/stm32g4xx_hal_pwr_ex.o
                                                  build/stm32g4xx_hal_pwr.o
HAL_PWREx_GetVoltageRange                         build/stm32g4xx_hal_pwr_ex.o
HAL_PWREx_PVD_PVM_IRQHandler                      build/stm32g4xx_hal_pwr_ex.o
HAL_PWREx_PVM1Callback                            build/stm32g4xx_hal_pwr_ex.o
HAL_PWREx_PVM2Callback                            build/stm32g4xx_hal_pwr_ex.o
HAL_PWREx_PVM3Callback                            build/stm32g4xx_hal_pwr_ex.o
HAL_PWREx_PVM4Callback                            build/stm32g4xx_hal_pwr_ex.o
HAL_PWR_ConfigPVD                                 build/stm32g4xx_hal_pwr.o
HAL_PWR_DeInit                                    build/stm32g4xx_hal_pwr.o
HAL_PWR_DisableBkUpAccess                         build/stm32g4xx_hal_pwr.o
                                                  build/stm32g4xx_hal_rcc_ex.o
HAL_PWR_DisablePVD                                build/stm32g4xx_hal_pwr.o
HAL_PWR_DisableSEVOnPend                          build/stm32g4xx_hal_pwr.o
HAL_PWR_DisableSleepOnExit                        build/stm32g4xx_hal_pwr.o
HAL_PWR_DisableWakeUpPin                          build/stm32g4xx_hal_pwr.o
HAL_PWR_EnableBkUpAccess                          build/stm32g4xx_hal_pwr.o
                                                  build/stm32g4xx_hal_rcc_ex.o
HAL_PWR_EnablePVD                                 build/stm32g4xx_hal_pwr.o
HAL_PWR_EnableSEVOnPend                           build/stm32g4xx_hal_pwr.o
HAL_PWR_EnableSleepOnExit                         build/stm32g4xx_hal_pwr.o
HAL_PWR_EnableWakeUpPin                           build/stm32g4xx_hal_pwr.o
HAL_PWR_EnterSLEEPMode                            build/stm32g4xx_hal_pwr.o
HAL_PWR_EnterSTANDBYMode                          build/stm32g4xx_hal_pwr.o
HAL_PWR_EnterSTOPMode                             build/stm32g4xx_hal_pwr.o
HAL_PWR_PVDCallback                               build/stm32g4xx_hal_pwr.o
                                                  build/stm32g4xx_hal_pwr_ex.o
HAL_RCCEx_CRSConfig                               build/stm32g4xx_hal_rcc_ex.o
HAL_RCCEx_CRSGetSynchronizationInfo               build/stm32g4xx_hal_rcc_ex.o
HAL_RCCEx_CRSSoftwareSynchronizationGenerate      build/stm32g4xx_hal_rcc_ex.o
HAL_RCCEx_CRSWaitSynchronization                  build/stm32g4xx_hal_rcc_ex.o
HAL_RCCEx_CRS_ErrorCallback                       build/stm32g4xx_hal_rcc_ex.o
HAL_RCCEx_CRS_ExpectedSyncCallback                build/stm32g4xx_hal_rcc_ex.o
HAL_RCCEx_CRS_IRQHandler                          build/stm32g4xx_hal_rcc_ex.o
HAL_RCCEx_CRS_SyncOkCallback                      build/stm32g4xx_hal_rcc_ex.o
HAL_RCCEx_CRS_SyncWarnCallback                    build/stm32g4xx_hal_rcc_ex.o
HAL_RCCEx_DisableLSCO                             build/stm32g4xx_hal_rcc_ex.o
HAL_RCCEx_DisableLSECSS                           build/stm32g4xx_hal_rcc_ex.o
HAL_RCCEx_EnableLSCO                              build/stm32g4xx_hal_rcc_ex.o
HAL_RCCEx_EnableLSECSS                            build/stm32g4xx_hal_rcc_ex.o
HAL_RCCEx_EnableLSECSS_IT                         build/stm32g4xx_hal_rcc_ex.o
HAL_RCCEx_GetPeriphCLKConfig                      build/stm32g4xx_hal_rcc_ex.o
HAL_RCCEx_GetPeriphCLKFreq                        build/stm32g4xx_hal_rcc_ex.o
HAL_RCCEx_LSECSS_Callback                         build/stm32g4xx_hal_rcc_ex.o
HAL_RCCEx_LSECSS_IRQHandler                       build/stm32g4xx_hal_rcc_ex.o
HAL_RCCEx_PeriphCLKConfig                         build/stm32g4xx_hal_rcc_ex.o
HAL_RCC_CSSCallback                               build/stm32g4xx_hal_rcc.o
HAL_RCC_ClockConfig                               build/stm32g4xx_hal_rcc.o
HAL_RCC_DeInit                                    build/stm32g4xx_hal_rcc.o
HAL_RCC_DisableLSECSS                             build/stm32g4xx_hal_rcc.o
HAL_RCC_EnableCSS                                 build/stm32g4xx_hal_rcc.o
HAL_RCC_EnableLSECSS                              build/stm32g4xx_hal_rcc.o
HAL_RCC_GetClockConfig                            build/stm32g4xx_hal_rcc.o
                                                  build/stm32g4xx_hal_timebase_tim.o
HAL_RCC_GetHCLKFreq                               build/stm32g4xx_hal_rcc.o
                                                  build/motorcontrol.o
HAL_RCC_GetOscConfig                              build/stm32g4xx_hal_rcc.o
HAL_RCC_GetPCLK1Freq                              build/stm32g4xx_hal_rcc.o
                                                  build/stm32g4xx_hal_rcc_ex.o
                                                  build/stm32g4xx_hal_timebase_tim.o
HAL_RCC_GetPCLK2Freq                              build/stm32g4xx_hal_rcc.o
                                                  build/stm32g4xx_hal_rcc_ex.o
HAL_RCC_GetSysClockFreq                           build/stm32g4xx_hal_rcc.o
                                                  build/stm32g4xx_hal_rcc_ex.o
HAL_RCC_MCOConfig                                 build/stm32g4xx_hal_rcc.o
HAL_RCC_NMI_IRQHandler                            build/stm32g4xx_hal_rcc.o
HAL_RCC_OscConfig                                 build/stm32g4xx_hal_rcc.o
HAL_ResumeTick                                    build/stm32g4xx_hal_timebase_tim.o
HAL_SYSCFG_CCMSRAMErase                           build/stm32g4xx_hal.o
HAL_SYSCFG_CCMSRAM_WriteProtectionEnable          build/stm32g4xx_hal.o
HAL_SYSCFG_DisableIOSwitchBooster                 build/stm32g4xx_hal.o
HAL_SYSCFG_DisableIOSwitchVDD                     build/stm32g4xx_hal.o
HAL_SYSCFG_DisableMemorySwappingBank              build/stm32g4xx_hal.o
HAL_SYSCFG_DisableVREFBUF                         build/stm32g4xx_hal.o
HAL_SYSCFG_EnableIOSwitchBooster                  build/stm32g4xx_hal.o
HAL_SYSCFG_EnableIOSwitchVDD                      build/stm32g4xx_hal.o
HAL_SYSCFG_EnableMemorySwappingBank               build/stm32g4xx_hal.o
HAL_SYSCFG_EnableVREFBUF                          build/stm32g4xx_hal.o
HAL_SYSCFG_VREFBUF_HighImpedanceConfig            build/stm32g4xx_hal.o
HAL_SYSCFG_VREFBUF_TrimmingConfig                 build/stm32g4xx_hal.o
HAL_SYSCFG_VREFBUF_VoltageScalingConfig           build/stm32g4xx_hal.o
HAL_SYSTICK_CLKSourceConfig                       build/stm32g4xx_hal_cortex.o
HAL_SYSTICK_Callback                              build/stm32g4xx_hal_cortex.o
HAL_SYSTICK_Config                                build/stm32g4xx_hal_cortex.o
                                                  build/stm32g4xx_hal.o
                                                  build/motorcontrol.o
HAL_SYSTICK_IRQHandler                            build/stm32g4xx_hal_cortex.o
HAL_SetTickFreq                                   build/stm32g4xx_hal.o
HAL_SuspendTick                                   build/stm32g4xx_hal_timebase_tim.o
HAL_TIMEx_Break2Callback                          build/stm32g4xx_hal_tim_ex.o
                                                  build/stm32g4xx_hal_tim.o
HAL_TIMEx_BreakCallback                           build/stm32g4xx_hal_tim_ex.o
                                                  build/stm32g4xx_hal_tim.o
HAL_TIMEx_CommutCallback                          build/stm32g4xx_hal_tim_ex.o
                                                  build/stm32g4xx_hal_tim.o
HAL_TIMEx_CommutHalfCpltCallback                  build/stm32g4xx_hal_tim_ex.o
HAL_TIMEx_ConfigAsymmetricalDeadTime              build/stm32g4xx_hal_tim_ex.o
HAL_TIMEx_ConfigBreakDeadTime                     build/stm32g4xx_hal_tim_ex.o
HAL_TIMEx_ConfigBreakInput                        build/stm32g4xx_hal_tim_ex.o
HAL_TIMEx_ConfigCommutEvent                       build/stm32g4xx_hal_tim_ex.o
HAL_TIMEx_ConfigCommutEvent_DMA                   build/stm32g4xx_hal_tim_ex.o
HAL_TIMEx_ConfigCommutEvent_IT                    build/stm32g4xx_hal_tim_ex.o
HAL_TIMEx_ConfigDeadTime                          build/stm32g4xx_hal_tim_ex.o
HAL_TIMEx_ConfigEncoderIndex                      build/stm32g4xx_hal_tim_ex.o
HAL_TIMEx_ConfigSlaveModePreload                  build/stm32g4xx_hal_tim_ex.o
HAL_TIMEx_DirectionChangeCallback                 build/stm32g4xx_hal_tim_ex.o
                                                  build/stm32g4xx_hal_tim.o
HAL_TIMEx_DisableAsymmetricalDeadTime             build/stm32g4xx_hal_tim_ex.o
HAL_TIMEx_DisableDeadTimePreload                  build/stm32g4xx_hal_tim_ex.o
HAL_TIMEx_DisableEncoderFirstIndex                build/stm32g4xx_hal_tim_ex.o
HAL_TIMEx_DisableEncoderIndex                     build/stm32g4xx_hal_tim_ex.o
HAL_TIMEx_DisableSlaveModePreload                 build/stm32g4xx_hal_tim_ex.o
HAL_TIMEx_DisarmBreakInput                        build/stm32g4xx_hal_tim_ex.o
HAL_TIMEx_DitheringDisable                        build/stm32g4xx_hal_tim_ex.o
HAL_TIMEx_DitheringEnable                         build/stm32g4xx_hal_tim_ex.o
HAL_TIMEx_EnableAsymmetricalDeadTime              build/stm32g4xx_hal_tim_ex.o
HAL_TIMEx_EnableDeadTimePreload                   build/stm32g4xx_hal_tim_ex.o
HAL_TIMEx_EnableEncoderFirstIndex                 build/stm32g4xx_hal_tim_ex.o
HAL_TIMEx_EnableEncoderIndex                      build/stm32g4xx_hal_tim_ex.o
HAL_TIMEx_EnableSlaveModePreload                  build/stm32g4xx_hal_tim_ex.o
HAL_TIMEx_EncoderIndexCallback                    build/stm32g4xx_hal_tim_ex.o
                                                  build/stm32g4xx_hal_tim.o
HAL_TIMEx_GetChannelNState                        build/stm32g4xx_hal_tim_ex.o
HAL_TIMEx_GroupChannel5                           build/stm32g4xx_hal_tim_ex.o
HAL_TIMEx_HallSensor_DeInit                       build/stm32g4xx_hal_tim_ex.o
HAL_TIMEx_HallSensor_GetState                     build/stm32g4xx_hal_tim_ex.o
HAL_TIMEx_HallSensor_Init                         build/stm32g4xx_hal_tim_ex.o
HAL_TIMEx_HallSensor_MspDeInit                    build/stm32g4xx_hal_tim_ex.o
HAL_TIMEx_HallSensor_MspInit                      build/stm32g4xx_hal_tim_ex.o
HAL_TIMEx_HallSensor_Start                        build/stm32g4xx_hal_tim_ex.o
HAL_TIMEx_HallSensor_Start_DMA                    build/stm32g4xx_hal_tim_ex.o
HAL_TIMEx_HallSensor_Start_IT                     build/stm32g4xx_hal_tim_ex.o
HAL_TIMEx_HallSensor_Stop                         build/stm32g4xx_hal_tim_ex.o
HAL_TIMEx_HallSensor_Stop_DMA                     build/stm32g4xx_hal_tim_ex.o
HAL_TIMEx_HallSensor_Stop_IT                      build/stm32g4xx_hal_tim_ex.o
HAL_TIMEx_IndexErrorCallback                      build/stm32g4xx_hal_tim_ex.o
                                                  build/stm32g4xx_hal_tim.o
HAL_TIMEx_MasterConfigSynchronization             build/stm32g4xx_hal_tim_ex.o
HAL_TIMEx_OCN_Start                               build/stm32g4xx_hal_tim_ex.o
HAL_TIMEx_OCN_Start_DMA                           build/stm32g4xx_hal_tim_ex.o
HAL_TIMEx_OCN_Start_IT                            build/stm32g4xx_hal_tim_ex.o
HAL_TIMEx_OCN_Stop                                build/stm32g4xx_hal_tim_ex.o
HAL_TIMEx_OCN_Stop_DMA                            build/stm32g4xx_hal_tim_ex.o
HAL_TIMEx_OCN_Stop_IT                             build/stm32g4xx_hal_tim_ex.o
HAL_TIMEx_OC_ConfigPulseOnCompare                 build/stm32g4xx_hal_tim_ex.o
HAL_TIMEx_OnePulseN_Start                         build/stm32g4xx_hal_tim_ex.o
HAL_TIMEx_OnePulseN_Start_IT                      build/stm32g4xx_hal_tim_ex.o
HAL_TIMEx_OnePulseN_Stop                          build/stm32g4xx_hal_tim_ex.o
HAL_TIMEx_OnePulseN_Stop_IT                       build/stm32g4xx_hal_tim_ex.o
HAL_TIMEx_PWMN_Start                              build/stm32g4xx_hal_tim_ex.o
HAL_TIMEx_PWMN_Start_DMA                          build/stm32g4xx_hal_tim_ex.o
HAL_TIMEx_PWMN_Start_IT                           build/stm32g4xx_hal_tim_ex.o
HAL_TIMEx_PWMN_Stop                               build/stm32g4xx_hal_tim_ex.o
HAL_TIMEx_PWMN_Stop_DMA                           build/stm32g4xx_hal_tim_ex.o
HAL_TIMEx_PWMN_Stop_IT                            build/stm32g4xx_hal_tim_ex.o
HAL_TIMEx_ReArmBreakInput                         build/stm32g4xx_hal_tim_ex.o
HAL_TIMEx_RemapConfig                             build/stm32g4xx_hal_tim_ex.o
HAL_TIMEx_TISelection                             build/stm32g4xx_hal_tim_ex.o
HAL_TIMEx_TransitionErrorCallback                 build/stm32g4xx_hal_tim_ex.o
                                                  build/stm32g4xx_hal_tim.o
HAL_TIM_Base_DeInit                               build/stm32g4xx_hal_tim.o
HAL_TIM_Base_GetState                             build/stm32g4xx_hal_tim.o
HAL_TIM_Base_Init                                 build/stm32g4xx_hal_tim.o
                                                  build/stm32g4xx_hal_timebase_tim.o
HAL_TIM_Base_MspDeInit                            build/stm32g4xx_hal_tim.o
HAL_TIM_Base_MspInit                              build/stm32g4xx_hal_tim.o
HAL_TIM_Base_Start                                build/stm32g4xx_hal_tim.o
HAL_TIM_Base_Start_DMA                            build/stm32g4xx_hal_tim.o
HAL_TIM_Base_Start_IT                             build/stm32g4xx_hal_tim.o
                                                  build/stm32g4xx_hal_timebase_tim.o
HAL_TIM_Base_Stop                                 build/stm32g4xx_hal_tim.o
HAL_TIM_Base_Stop_DMA                             build/stm32g4xx_hal_tim.o
HAL_TIM_Base_Stop_IT                              build/stm32g4xx_hal_tim.o
HAL_TIM_ConfigClockSource                         build/stm32g4xx_hal_tim.o
HAL_TIM_ConfigOCrefClear                          build/stm32g4xx_hal_tim.o
HAL_TIM_ConfigTI1Input                            build/stm32g4xx_hal_tim.o
HAL_TIM_DMABurstState                             build/stm32g4xx_hal_tim.o
HAL_TIM_DMABurst_MultiReadStart                   build/stm32g4xx_hal_tim.o
HAL_TIM_DMABurst_MultiWriteStart                  build/stm32g4xx_hal_tim.o
HAL_TIM_DMABurst_ReadStart                        build/stm32g4xx_hal_tim.o
HAL_TIM_DMABurst_ReadStop                         build/stm32g4xx_hal_tim.o
HAL_TIM_DMABurst_WriteStart                       build/stm32g4xx_hal_tim.o
HAL_TIM_DMABurst_WriteStop                        build/stm32g4xx_hal_tim.o
HAL_TIM_Encoder_DeInit                            build/stm32g4xx_hal_tim.o
HAL_TIM_Encoder_GetState                          build/stm32g4xx_hal_tim.o
HAL_TIM_Encoder_Init                              build/stm32g4xx_hal_tim.o
HAL_TIM_Encoder_MspDeInit                         build/stm32g4xx_hal_tim.o
HAL_TIM_Encoder_MspInit                           build/stm32g4xx_hal_tim.o
HAL_TIM_Encoder_Start                             build/stm32g4xx_hal_tim.o
HAL_TIM_Encoder_Start_DMA                         build/stm32g4xx_hal_tim.o
HAL_TIM_Encoder_Start_IT                          build/stm32g4xx_hal_tim.o
HAL_TIM_Encoder_Stop                              build/stm32g4xx_hal_tim.o
HAL_TIM_Encoder_Stop_DMA                          build/stm32g4xx_hal_tim.o
HAL_TIM_Encoder_Stop_IT                           build/stm32g4xx_hal_tim.o
HAL_TIM_ErrorCallback                             build/stm32g4xx_hal_tim.o
                                                  build/stm32g4xx_hal_tim_ex.o
HAL_TIM_GenerateEvent                             build/stm32g4xx_hal_tim.o
HAL_TIM_GetActiveChannel                          build/stm32g4xx_hal_tim.o
HAL_TIM_GetChannelState                           build/stm32g4xx_hal_tim.o
HAL_TIM_IC_CaptureCallback                        build/stm32g4xx_hal_tim.o
HAL_TIM_IC_CaptureHalfCpltCallback                build/stm32g4xx_hal_tim.o
HAL_TIM_IC_ConfigChannel                          build/stm32g4xx_hal_tim.o
HAL_TIM_IC_DeInit                                 build/stm32g4xx_hal_tim.o
HAL_TIM_IC_GetState                               build/stm32g4xx_hal_tim.o
HAL_TIM_IC_Init                                   build/stm32g4xx_hal_tim.o
HAL_TIM_IC_MspDeInit                              build/stm32g4xx_hal_tim.o
HAL_TIM_IC_MspInit                                build/stm32g4xx_hal_tim.o
HAL_TIM_IC_Start                                  build/stm32g4xx_hal_tim.o
HAL_TIM_IC_Start_DMA                              build/stm32g4xx_hal_tim.o
HAL_TIM_IC_Start_IT                               build/stm32g4xx_hal_tim.o
HAL_TIM_IC_Stop                                   build/stm32g4xx_hal_tim.o
HAL_TIM_IC_Stop_DMA                               build/stm32g4xx_hal_tim.o
HAL_TIM_IC_Stop_IT                                build/stm32g4xx_hal_tim.o
HAL_TIM_IRQHandler                                build/stm32g4xx_hal_tim.o
                                                  build/stm32g4xx_it.o
HAL_TIM_OC_ConfigChannel                          build/stm32g4xx_hal_tim.o
HAL_TIM_OC_DeInit                                 build/stm32g4xx_hal_tim.o
HAL_TIM_OC_DelayElapsedCallback                   build/stm32g4xx_hal_tim.o
HAL_TIM_OC_GetState                               build/stm32g4xx_hal_tim.o
HAL_TIM_OC_Init                                   build/stm32g4xx_hal_tim.o
HAL_TIM_OC_MspDeInit                              build/stm32g4xx_hal_tim.o
HAL_TIM_OC_MspInit                                build/stm32g4xx_hal_tim.o
HAL_TIM_OC_Start                                  build/stm32g4xx_hal_tim.o
HAL_TIM_OC_Start_DMA                              build/stm32g4xx_hal_tim.o
HAL_TIM_OC_Start_IT                               build/stm32g4xx_hal_tim.o
HAL_TIM_OC_Stop                                   build/stm32g4xx_hal_tim.o
HAL_TIM_OC_Stop_DMA                               build/stm32g4xx_hal_tim.o
HAL_TIM_OC_Stop_IT                                build/stm32g4xx_hal_tim.o
HAL_TIM_OnePulse_ConfigChannel                    build/stm32g4xx_hal_tim.o
HAL_TIM_OnePulse_DeInit                           build/stm32g4xx_hal_tim.o
HAL_TIM_OnePulse_GetState                         build/stm32g4xx_hal_tim.o
HAL_TIM_OnePulse_Init                             build/stm32g4xx_hal_tim.o
HAL_TIM_OnePulse_MspDeInit                        build/stm32g4xx_hal_tim.o
HAL_TIM_OnePulse_MspInit                          build/stm32g4xx_hal_tim.o
HAL_TIM_OnePulse_Start                            build/stm32g4xx_hal_tim.o
HAL_TIM_OnePulse_Start_IT                         build/stm32g4xx_hal_tim.o
HAL_TIM_OnePulse_Stop                             build/stm32g4xx_hal_tim.o
HAL_TIM_OnePulse_Stop_IT                          build/stm32g4xx_hal_tim.o
HAL_TIM_PWM_ConfigChannel                         build/stm32g4xx_hal_tim.o
HAL_TIM_PWM_DeInit                                build/stm32g4xx_hal_tim.o
HAL_TIM_PWM_GetState                              build/stm32g4xx_hal_tim.o
HAL_TIM_PWM_Init                                  build/stm32g4xx_hal_tim.o
HAL_TIM_PWM_MspDeInit                             build/stm32g4xx_hal_tim.o
HAL_TIM_PWM_MspInit                               build/stm32g4xx_hal_tim.o
HAL_TIM_PWM_PulseFinishedCallback                 build/stm32g4xx_hal_tim.o
                                                  build/stm32g4xx_hal_tim_ex.o
HAL_TIM_PWM_PulseFinishedHalfCpltCallback         build/stm32g4xx_hal_tim.o
HAL_TIM_PWM_Start                                 build/stm32g4xx_hal_tim.o
HAL_TIM_PWM_Start_DMA                             build/stm32g4xx_hal_tim.o
HAL_TIM_PWM_Start_IT                              build/stm32g4xx_hal_tim.o
HAL_TIM_PWM_Stop                                  build/stm32g4xx_hal_tim.o
HAL_TIM_PWM_Stop_DMA                              build/stm32g4xx_hal_tim.o
HAL_TIM_PWM_Stop_IT                               build/stm32g4xx_hal_tim.o
HAL_TIM_PeriodElapsedCallback                     build/main.o
HAL_TIM_PeriodElapsedHalfCpltCallback             build/stm32g4xx_hal_tim.o
HAL_TIM_ReadCapturedValue                         build/stm32g4xx_hal_tim.o
HAL_TIM_SlaveConfigSynchro                        build/stm32g4xx_hal_tim.o
HAL_TIM_SlaveConfigSynchro_IT                     build/stm32g4xx_hal_tim.o
HAL_TIM_TriggerCallback                           build/stm32g4xx_hal_tim.o
HAL_TIM_TriggerHalfCpltCallback                   build/stm32g4xx_hal_tim.o
HardFault_Handler                                 build/stm32_mc_common_it.o
HdlSTSPING4                                       build/mc_config_common.o
                                                  build/mc_tasks.o
I2C1_ER_IRQHandler                                build/startup_stm32g431xx.o
I2C1_EV_IRQHandler                                build/startup_stm32g431xx.o
I2C2_ER_IRQHandler                                build/startup_stm32g431xx.o
I2C2_EV_IRQHandler                                build/startup_stm32g431xx.o
I2C3_ER_IRQHandler                                build/startup_stm32g431xx.o
I2C3_EV_IRQHandler                                build/startup_stm32g431xx.o
LL_ADC_CommonDeInit                               build/stm32g4xx_ll_adc.o
LL_ADC_CommonInit                                 build/stm32g4xx_ll_adc.o
                                                  build/main.o
LL_ADC_CommonStructInit                           build/stm32g4xx_ll_adc.o
LL_ADC_DeInit                                     build/stm32g4xx_ll_adc.o
LL_ADC_INJ_Init                                   build/stm32g4xx_ll_adc.o
                                                  build/main.o
LL_ADC_INJ_StructInit                             build/stm32g4xx_ll_adc.o
LL_ADC_Init                                       build/stm32g4xx_ll_adc.o
                                                  build/main.o
LL_ADC_REG_Init                                   build/stm32g4xx_ll_adc.o
                                                  build/main.o
LL_ADC_REG_StructInit                             build/stm32g4xx_ll_adc.o
LL_ADC_StructInit                                 build/stm32g4xx_ll_adc.o
LL_COMP_DeInit                                    build/stm32g4xx_ll_comp.o
LL_COMP_Init                                      build/stm32g4xx_ll_comp.o
                                                  build/main.o
LL_COMP_StructInit                                build/stm32g4xx_ll_comp.o
LL_CORDIC_DeInit                                  build/stm32g4xx_ll_cordic.o
LL_DAC_DeInit                                     build/stm32g4xx_ll_dac.o
LL_DAC_Init                                       build/stm32g4xx_ll_dac.o
                                                  build/main.o
LL_DAC_StructInit                                 build/stm32g4xx_ll_dac.o
LL_DMA_DeInit                                     build/stm32g4xx_ll_dma.o
LL_DMA_Init                                       build/stm32g4xx_ll_dma.o
LL_DMA_StructInit                                 build/stm32g4xx_ll_dma.o
LL_EXTI_DeInit                                    build/stm32g4xx_ll_exti.o
LL_EXTI_Init                                      build/stm32g4xx_ll_exti.o
                                                  build/main.o
LL_EXTI_StructInit                                build/stm32g4xx_ll_exti.o
LL_GPIO_DeInit                                    build/stm32g4xx_ll_gpio.o
LL_GPIO_Init                                      build/stm32g4xx_ll_gpio.o
                                                  build/main.o
LL_GPIO_StructInit                                build/stm32g4xx_ll_gpio.o
LL_I2C_DeInit                                     build/stm32g4xx_ll_i2c.o
LL_I2C_Init                                       build/stm32g4xx_ll_i2c.o
                                                  build/main.o
LL_I2C_StructInit                                 build/stm32g4xx_ll_i2c.o
LL_Init1msTick                                    build/stm32g4xx_ll_utils.o
LL_OPAMP_DeInit                                   build/stm32g4xx_ll_opamp.o
LL_OPAMP_Init                                     build/stm32g4xx_ll_opamp.o
                                                  build/main.o
LL_OPAMP_StructInit                               build/stm32g4xx_ll_opamp.o
LL_PLL_ConfigSystemClock_HSE                      build/stm32g4xx_ll_utils.o
LL_PLL_ConfigSystemClock_HSI                      build/stm32g4xx_ll_utils.o
LL_RCC_DeInit                                     build/stm32g4xx_ll_rcc.o
                                                  build/stspin32g4.o
LL_RCC_GetADCClockFreq                            build/stm32g4xx_ll_rcc.o
LL_RCC_GetFDCANClockFreq                          build/stm32g4xx_ll_rcc.o
LL_RCC_GetI2CClockFreq                            build/stm32g4xx_ll_rcc.o
LL_RCC_GetI2SClockFreq                            build/stm32g4xx_ll_rcc.o
LL_RCC_GetLPTIMClockFreq                          build/stm32g4xx_ll_rcc.o
LL_RCC_GetLPUARTClockFreq                         build/stm32g4xx_ll_rcc.o
LL_RCC_GetRNGClockFreq                            build/stm32g4xx_ll_rcc.o
LL_RCC_GetSAIClockFreq                            build/stm32g4xx_ll_rcc.o
LL_RCC_GetSystemClocksFreq                        build/stm32g4xx_ll_rcc.o
                                                  build/stspin32g4.o
LL_RCC_GetUARTClockFreq                           build/stm32g4xx_ll_rcc.o
                                                  build/stm32g4xx_ll_usart.o
LL_RCC_GetUSARTClockFreq                          build/stm32g4xx_ll_rcc.o
                                                  build/stm32g4xx_ll_usart.o
LL_RCC_GetUSBClockFreq                            build/stm32g4xx_ll_rcc.o
LL_SetFlashLatency                                build/stm32g4xx_ll_utils.o
LL_SetSystemCoreClock                             build/stm32g4xx_ll_utils.o
                                                  build/main.o
LL_TIM_BDTR_Init                                  build/stm32g4xx_ll_tim.o
                                                  build/main.o
LL_TIM_BDTR_StructInit                            build/stm32g4xx_ll_tim.o
LL_TIM_DeInit                                     build/stm32g4xx_ll_tim.o
LL_TIM_ENCODER_Init                               build/stm32g4xx_ll_tim.o
LL_TIM_ENCODER_StructInit                         build/stm32g4xx_ll_tim.o
LL_TIM_HALLSENSOR_Init                            build/stm32g4xx_ll_tim.o
LL_TIM_HALLSENSOR_StructInit                      build/stm32g4xx_ll_tim.o
LL_TIM_IC_Init                                    build/stm32g4xx_ll_tim.o
LL_TIM_IC_StructInit                              build/stm32g4xx_ll_tim.o
LL_TIM_Init                                       build/stm32g4xx_ll_tim.o
                                                  build/main.o
LL_TIM_OC_Init                                    build/stm32g4xx_ll_tim.o
                                                  build/main.o
LL_TIM_OC_StructInit                              build/stm32g4xx_ll_tim.o
LL_TIM_StructInit                                 build/stm32g4xx_ll_tim.o
LL_USART_ClockInit                                build/stm32g4xx_ll_usart.o
LL_USART_ClockStructInit                          build/stm32g4xx_ll_usart.o
LL_USART_DeInit                                   build/stm32g4xx_ll_usart.o
LL_USART_Init                                     build/stm32g4xx_ll_usart.o
                                                  build/main.o
LL_USART_StructInit                               build/stm32g4xx_ll_usart.o
LL_mDelay                                         build/stm32g4xx_ll_utils.o
                                                  build/stspin32g4.o
LPTIM1_IRQHandler                                 build/startup_stm32g431xx.o
LPUART1_IRQHandler                                build/startup_stm32g431xx.o
MCI_Clear_Iqdref                                  build/mc_interface.o
                                                  build/mcp.o
                                                  build/mc_api.o
MCI_Clear_PerfMeasure                             build/mc_interface.o
                                                  build/mcp.o
MCI_ExecBufferedCommands                          build/mc_interface.o
                                                  build/mc_tasks_foc.o
MCI_ExecSpeedRamp                                 build/mc_interface.o
                                                  build/register_interface.o
                                                  build/mc_api.o
MCI_ExecSpeedRamp_F                               build/mc_interface.o
                                                  build/mc_api.o
MCI_ExecTorqueRamp                                build/mc_interface.o
                                                  build/register_interface.o
                                                  build/mc_tasks_foc.o
                                                  build/mc_api.o
MCI_ExecTorqueRamp_F                              build/mc_interface.o
                                                  build/mc_api.o
MCI_FaultAcknowledged                             build/mc_interface.o
                                                  MCSDK_v6.3.2-Full/MotorControl/libMP/libmp-G4-MDK-ARM_ARMv7-M.a(mp_self_com_ctrl.o)
                                                  build/mcp.o
                                                  build/mc_api.o
MCI_FaultProcessing                               build/mc_interface.o
                                                  MCSDK_v6.3.2-Full/MotorControl/libMP/libmp-G4-MDK-ARM_ARMv7-M.a(mp_self_com_ctrl.o)
                                                  build/mc_tasks_foc.o
                                                  build/mc_tasks.o
MCI_GetAvrgMecSpeedUnit                           build/mc_interface.o
                                                  build/register_interface.o
                                                  build/mc_api.o
MCI_GetAvrgMecSpeed_F                             build/mc_interface.o
                                                  build/mc_api.o
MCI_GetCalibratedOffsetsMotor                     build/mc_interface.o
                                                  build/mc_api.o
MCI_GetControlMode                                build/mc_interface.o
                                                  build/register_interface.o
                                                  build/mc_api.o
MCI_GetCurrentFaults                              build/mc_interface.o
                                                  build/mc_tasks_foc.o
                                                  build/mc_api.o
MCI_GetElAngledpp                                 build/mc_interface.o
                                                  build/mc_api.o
MCI_GetFaultState                                 build/mc_interface.o
                                                  build/register_interface.o
                                                  build/mc_tasks.o
MCI_GetIab                                        build/mc_interface.o
                                                  build/mc_api.o
MCI_GetIab_F                                      build/mc_interface.o
                                                  build/mc_api.o
MCI_GetIalphabeta                                 build/mc_interface.o
                                                  build/mc_api.o
MCI_GetImposedMotorDirection                      build/mc_interface.o
                                                  build/mc_tasks_foc.o
                                                  build/mc_api.o
MCI_GetIqd                                        build/mc_interface.o
                                                  build/mc_api.o
MCI_GetIqdHF                                      build/mc_interface.o
MCI_GetIqd_F                                      build/mc_interface.o
                                                  build/mc_api.o
MCI_GetIqdref                                     build/mc_interface.o
                                                  build/mc_api.o
MCI_GetIqdref_F                                   build/mc_interface.o
                                                  build/mc_api.o
MCI_GetLastRampFinalDuration                      build/mc_interface.o
                                                  build/register_interface.o
MCI_GetLastRampFinalSpeed                         build/mc_interface.o
                                                  build/register_interface.o
                                                  build/mc_api.o
MCI_GetLastRampFinalSpeed_F                       build/mc_interface.o
                                                  build/mc_api.o
MCI_GetLastRampFinalTorque                        build/mc_interface.o
                                                  build/mc_api.o
MCI_GetLastRampFinalTorque_F                      build/mc_interface.o
                                                  build/mc_api.o
MCI_GetMecSpeedRefUnit                            build/mc_interface.o
                                                  build/register_interface.o
                                                  build/mc_api.o
MCI_GetMecSpeedRef_F                              build/mc_interface.o
                                                  build/mc_api.o
MCI_GetOccurredFaults                             build/mc_interface.o
                                                  build/mc_tasks_foc.o
                                                  build/mc_api.o
MCI_GetPhaseCurrentAmplitude                      build/mc_interface.o
                                                  build/mc_api.o
MCI_GetPhaseVoltageAmplitude                      build/mc_interface.o
                                                  build/mc_api.o
MCI_GetSTMState                                   build/mc_interface.o
                                                  MCSDK_v6.3.2-Full/MotorControl/libMP/libmp-G4-MDK-ARM_ARMv7-M.a(mp_self_com_ctrl.o)
                                                  build/mcp.o
                                                  build/register_interface.o
                                                  build/mc_api.o
MCI_GetSpdSensorReliability                       build/mc_interface.o
                                                  build/mc_api.o
MCI_GetTeref                                      build/mc_interface.o
                                                  build/register_interface.o
                                                  build/mc_api.o
MCI_GetTeref_F                                    build/mc_interface.o
                                                  build/mc_api.o
MCI_GetValphabeta                                 build/mc_interface.o
                                                  build/register_interface.o
                                                  build/mc_api.o
MCI_GetVqd                                        build/mc_interface.o
                                                  build/register_interface.o
                                                  build/mc_api.o
MCI_IsCommandAcknowledged                         build/mc_interface.o
                                                  build/mc_api.o
MCI_RampCompleted                                 build/mc_interface.o
                                                  build/mc_api.o
MCI_SetCalibratedOffsetsMotor                     build/mc_interface.o
                                                  build/mc_api.o
MCI_SetCurrentReferences                          build/mc_interface.o
                                                  build/mc_api.o
MCI_SetCurrentReferences_F                        build/mc_interface.o
                                                  build/mc_api.o
MCI_StartMotor                                    build/mc_interface.o
                                                  MCSDK_v6.3.2-Full/MotorControl/libMP/libmp-G4-MDK-ARM_ARMv7-M.a(mp_self_com_ctrl.o)
                                                  build/mcp.o
                                                  build/mc_api.o
MCI_StartOffsetMeasurments                        build/mc_interface.o
                                                  build/mc_api.o
MCI_StartWithPolarizationMotor                    build/mc_interface.o
MCI_StopMotor                                     build/mc_interface.o
                                                  build/mcp.o
                                                  build/mc_api.o
MCI_StopRamp                                      build/mc_interface.o
                                                  build/mcp.o
                                                  build/mc_api.o
MCI_StopSpeedRamp                                 build/mc_interface.o
                                                  build/mc_api.o
MCM_Clarke                                        build/mc_math.o
                                                  MCSDK_v6.3.2-Full/MotorControl/libMP/libmp-G4-MDK-ARM_ARMv7-M.a(mp_self_com_ctrl.o)
MCM_Park                                          build/mc_math.o
                                                  MCSDK_v6.3.2-Full/MotorControl/libMP/libmp-G4-MDK-ARM_ARMv7-M.a(mp_self_com_ctrl.o)
                                                  build/mc_tasks_foc.o
MCM_Rev_Park                                      build/mc_math.o
                                                  MCSDK_v6.3.2-Full/MotorControl/libMP/libmp-G4-MDK-ARM_ARMv7-M.a(mp_self_com_ctrl.o)
                                                  build/pwm_curr_fdbk.o
MCM_Sqrt                                          build/mc_math.o
                                                  build/circle_limitation.o
                                                  build/mc_interface.o
MCM_Trig_Functions                                build/mc_math.o
                                                  build/sto_pll_speed_pos_fdbk.o
MCM_floatToIntBit                                 build/mc_math.o
                                                  MCSDK_v6.3.2-Full/MotorControl/libMP/libmp-G4-MDK-ARM_ARMv7-M.a(mp_self_com_ctrl.o)
                                                  build/register_interface.o
MCPA_UART_A                                       build/mcp_config.o
                                                  build/mc_tasks.o
MCPA_cfgLog                                       build/mcpa.o
MCPA_dataLog                                      build/mcpa.o
                                                  build/mc_tasks.o
MCPA_flushDataLog                                 build/mcpa.o
                                                  build/mc_tasks.o
MCP_Over_UartA                                    build/mcp_config.o
                                                  build/mc_tasks.o
MCP_ReceivedPacket                                build/mcp.o
                                                  build/mc_tasks.o
MCP_RegisterCallBack                              build/mcp.o
MCP_UserCallBack                                  build/mcp_config.o
                                                  build/mcp.o
MC_APP_BootHook                                   build/mc_app_hooks.o
                                                  build/mc_tasks.o
MC_APP_PostMediumFrequencyHook_M1                 build/mc_app_hooks.o
                                                  build/mc_tasks.o
MC_AcknowledgeFaultMotor1                         build/mc_api.o
                                                  MCSDK_v6.3.2-Full/MotorControl/libMP/libmp-G4-MDK-ARM_ARMv7-M.a(mp_self_com_ctrl.o)
MC_BG_Perf_Measure_Start                          build/mc_perf.o
                                                  build/mc_tasks.o
MC_BG_Perf_Measure_Stop                           build/mc_perf.o
                                                  build/mc_tasks.o
MC_Clear_IqdrefMotor1                             build/mc_api.o
MC_GetAverageMecSpeedMotor1_F                     build/mc_api.o
MC_GetAveragePowerMotor1_F                        build/mc_api.o
MC_GetCommandStateMotor1                          build/mc_api.o
MC_GetControlModeMotor1                           build/mc_api.o
MC_GetCurrentFaultsMotor1                         build/mc_api.o
MC_GetElAngledppMotor1                            build/mc_api.o
MC_GetFinalTorqueReferenceMotor1                  build/mc_api.o
MC_GetFinalTorqueReferenceMotor1_F                build/mc_api.o
MC_GetIabMotor1                                   build/mc_api.o
MC_GetIabMotor1_F                                 build/mc_api.o
MC_GetIalphabetaMotor1                            build/mc_api.o
MC_GetImposedDirectionMotor1                      build/mc_api.o
MC_GetIqdMotor1                                   build/mc_api.o
MC_GetIqdMotor1_F                                 build/mc_api.o
MC_GetIqdrefMotor1                                build/mc_api.o
MC_GetIqdrefMotor1_F                              build/mc_api.o
MC_GetLastRampFinalSpeedM1_F                      build/mc_api.o
MC_GetLastRampFinalSpeedMotor1                    build/mc_api.o
MC_GetMecSpeedAverageMotor1                       build/mc_api.o
MC_GetMecSpeedReferenceMotor1                     build/mc_api.o
MC_GetMecSpeedReferenceMotor1_F                   build/mc_api.o
MC_GetOccurredFaultsMotor1                        build/mc_api.o
MC_GetPhaseCurrentAmplitudeMotor1                 build/mc_api.o
MC_GetPhaseVoltageAmplitudeMotor1                 build/mc_api.o
MC_GetPolarizationOffsetsMotor1                   build/mc_api.o
MC_GetSTMStateMotor1                              build/mc_api.o
                                                  build/mc_tasks.o
MC_GetSpeedSensorReliabilityMotor1                build/mc_api.o
MC_GetTerefMotor1                                 build/mc_api.o
MC_GetTerefMotor1_F                               build/mc_api.o
MC_GetValphabetaMotor1                            build/mc_api.o
MC_GetVqdMotor1                                   build/mc_api.o
MC_HasRampCompletedMotor1                         build/mc_api.o
MC_Perf_Clear                                     build/mc_perf.o
                                                  build/mc_interface.o
                                                  build/mc_tasks_foc.o
MC_Perf_GetCPU_Load                               build/mc_perf.o
                                                  build/register_interface.o
MC_Perf_GetMaxCPU_Load                            build/mc_perf.o
                                                  build/register_interface.o
MC_Perf_GetMinCPU_Load                            build/mc_perf.o
                                                  build/register_interface.o
MC_Perf_Measure_Init                              build/mc_perf.o
                                                  build/mc_tasks.o
MC_Perf_Measure_Stop                              build/mc_perf.o
                                                  build/mc_tasks.o
MC_ProfilerCommand                                build/mc_api.o
                                                  build/mcp.o
MC_ProgramSpeedRampMotor1                         build/mc_api.o
MC_ProgramSpeedRampMotor1_F                       build/mc_api.o
MC_ProgramTorqueRampMotor1                        build/mc_api.o
MC_ProgramTorqueRampMotor1_F                      build/mc_api.o
MC_RunMotorControlTasks                           build/mc_tasks.o
                                                  build/stm32g4xx_mc_it.o
MC_SetCurrentReferenceMotor1                      build/mc_api.o
MC_SetCurrentReferenceMotor1_F                    build/mc_api.o
MC_SetPolarizationOffsetsMotor1                   build/mc_api.o
MC_StartMotor1                                    build/mc_api.o
                                                  MCSDK_v6.3.2-Full/MotorControl/libMP/libmp-G4-MDK-ARM_ARMv7-M.a(mp_self_com_ctrl.o)
                                                  build/mc_tasks.o
MC_StartPolarizationOffsetsMeasurementMotor1      build/mc_api.o
MC_StopMotor1                                     build/mc_api.o
                                                  MCSDK_v6.3.2-Full/MotorControl/libMP/libmp-G4-MDK-ARM_ARMv7-M.a(mp_self_com_ctrl.o)
                                                  build/mc_tasks.o
MC_StopRampMotor1                                 build/mc_api.o
MC_StopSpeedRampMotor1                            build/mc_api.o
MCboot                                            build/mc_tasks.o
                                                  build/motorcontrol.o
MX_MotorControl_Init                              build/motorcontrol.o
                                                  build/main.o
Mci                                               build/mc_config.o
                                                  MCSDK_v6.3.2-Full/MotorControl/libMP/libmp-G4-MDK-ARM_ARMv7-M.a(mp_self_com_ctrl.o)
                                                  build/mcp.o
                                                  build/register_interface.o
                                                  build/mc_tasks_foc.o
                                                  build/mc_tasks.o
MemManage_Handler                                 build/startup_stm32g431xx.o
MotorConfig_reg                                   build/mc_configuration_registers.o
NMI_Handler                                       build/startup_stm32g431xx.o
NTC_CalcAvTemp                                    build/ntc_temperature_sensor.o
                                                  build/mc_tasks.o
NTC_CheckTemp                                     build/ntc_temperature_sensor.o
NTC_GetAvTemp_C                                   build/ntc_temperature_sensor.o
                                                  build/register_interface.o
NTC_GetAvTemp_d                                   build/ntc_temperature_sensor.o
NTC_Init                                          build/ntc_temperature_sensor.o
                                                  build/mc_tasks.o
NTC_SetFaultState                                 build/ntc_temperature_sensor.o
OL_Calc                                           build/open_loop.o
OL_Init                                           build/open_loop.o
OL_VF                                             build/open_loop.o
OL_VqdConditioning                                build/open_loop.o
OTT                                               build/mc_config.o
                                                  build/register_interface.o
                                                  build/mc_tasks_foc.o
                                                  build/mc_tasks.o
OTT_Clear                                         MCSDK_v6.3.2-Full/MotorControl/libMP/libmp-G4-MDK-ARM_ARMv7-M.a(mp_one_touch_tuning.o)
                                                  build/mc_tasks_foc.o
OTT_ForceTuning                                   MCSDK_v6.3.2-Full/MotorControl/libMP/libmp-G4-MDK-ARM_ARMv7-M.a(mp_one_touch_tuning.o)
                                                  MCSDK_v6.3.2-Full/MotorControl/libMP/libmp-G4-MDK-ARM_ARMv7-M.a(mp_self_com_ctrl.o)
OTT_Init                                          MCSDK_v6.3.2-Full/MotorControl/libMP/libmp-G4-MDK-ARM_ARMv7-M.a(mp_one_touch_tuning.o)
                                                  build/mc_tasks_foc.o
OTT_MF                                            MCSDK_v6.3.2-Full/MotorControl/libMP/libmp-G4-MDK-ARM_ARMv7-M.a(mp_one_touch_tuning.o)
                                                  build/mc_tasks_foc.o
OTT_Params                                        build/mc_parameters.o
                                                  build/mc_config.o
OTT_SR                                            MCSDK_v6.3.2-Full/MotorControl/libMP/libmp-G4-MDK-ARM_ARMv7-M.a(mp_one_touch_tuning.o)
                                                  build/mc_tasks_foc.o
OTT_Stop                                          MCSDK_v6.3.2-Full/MotorControl/libMP/libmp-G4-MDK-ARM_ARMv7-M.a(mp_one_touch_tuning.o)
                                                  build/mc_tasks_foc.o
                                                  build/mc_tasks.o
OTT_fGetNominalSpeedRPM                           MCSDK_v6.3.2-Full/MotorControl/libMP/libmp-G4-MDK-ARM_ARMv7-M.a(mp_one_touch_tuning.o)
PIDIdHandle_M1                                    build/mc_config.o
                                                  build/mc_tasks_foc.o
PIDIqHandle_M1                                    build/mc_config.o
                                                  build/mc_tasks_foc.o
PIDSpeedHandle_M1                                 build/mc_config.o
                                                  build/register_interface.o
                                                  build/mc_tasks_foc.o
                                                  build/mc_tasks.o
PID_Controller                                    build/pid_regulator.o
PID_GetDefaultKI                                  build/pid_regulator.o
PID_GetDefaultKP                                  build/pid_regulator.o
PID_GetKD                                         build/pid_regulator.o
                                                  build/register_interface.o
PID_GetKDDivisor                                  build/pid_regulator.o
PID_GetKDDivisorPOW2                              build/pid_regulator.o
PID_GetKI                                         build/pid_regulator.o
                                                  build/sto_pll_speed_pos_fdbk.o
                                                  build/register_interface.o
PID_GetKIDivisor                                  build/pid_regulator.o
                                                  MCSDK_v6.3.2-Full/MotorControl/libMP/libmp-G4-MDK-ARM_ARMv7-M.a(mp_self_com_ctrl.o)
                                                  MCSDK_v6.3.2-Full/MotorControl/libMP/libmp-G4-MDK-ARM_ARMv7-M.a(mp_one_touch_tuning.o)
                                                  build/mc_tasks_foc.o
PID_GetKIDivisorPOW2                              build/pid_regulator.o
PID_GetKP                                         build/pid_regulator.o
                                                  build/sto_pll_speed_pos_fdbk.o
                                                  build/register_interface.o
PID_GetKPDivisor                                  build/pid_regulator.o
PID_GetKPDivisorPOW2                              build/pid_regulator.o
PID_HandleInit                                    build/pid_regulator.o
                                                  build/sto_pll_speed_pos_fdbk.o
                                                  build/mc_tasks_foc.o
                                                  build/mc_tasks.o
PID_SetIntegralTerm                               build/pid_regulator.o
                                                  MCSDK_v6.3.2-Full/MotorControl/libMP/libmp-G4-MDK-ARM_ARMv7-M.a(mp_self_com_ctrl.o)
                                                  build/sto_pll_speed_pos_fdbk.o
                                                  build/speed_torq_ctrl.o
                                                  build/feed_forward_ctrl.o
                                                  build/mc_tasks_foc.o
PID_SetKD                                         build/pid_regulator.o
                                                  build/register_interface.o
PID_SetKDDivisorPOW2                              build/pid_regulator.o
PID_SetKI                                         build/pid_regulator.o
                                                  MCSDK_v6.3.2-Full/MotorControl/libMP/libmp-G4-MDK-ARM_ARMv7-M.a(mp_self_com_ctrl.o)
                                                  MCSDK_v6.3.2-Full/MotorControl/libMP/libmp-G4-MDK-ARM_ARMv7-M.a(mp_one_touch_tuning.o)
                                                  build/register_interface.o
PID_SetKIDivisorPOW2                              build/pid_regulator.o
                                                  MCSDK_v6.3.2-Full/MotorControl/libMP/libmp-G4-MDK-ARM_ARMv7-M.a(mp_self_com_ctrl.o)
                                                  MCSDK_v6.3.2-Full/MotorControl/libMP/libmp-G4-MDK-ARM_ARMv7-M.a(mp_one_touch_tuning.o)
PID_SetKP                                         build/pid_regulator.o
                                                  MCSDK_v6.3.2-Full/MotorControl/libMP/libmp-G4-MDK-ARM_ARMv7-M.a(mp_self_com_ctrl.o)
                                                  MCSDK_v6.3.2-Full/MotorControl/libMP/libmp-G4-MDK-ARM_ARMv7-M.a(mp_one_touch_tuning.o)
                                                  build/register_interface.o
PID_SetKPDivisorPOW2                              build/pid_regulator.o
                                                  MCSDK_v6.3.2-Full/MotorControl/libMP/libmp-G4-MDK-ARM_ARMv7-M.a(mp_self_com_ctrl.o)
                                                  MCSDK_v6.3.2-Full/MotorControl/libMP/libmp-G4-MDK-ARM_ARMv7-M.a(mp_one_touch_tuning.o)
PID_SetLowerIntegralTermLimit                     build/pid_regulator.o
                                                  MCSDK_v6.3.2-Full/MotorControl/libMP/libmp-G4-MDK-ARM_ARMv7-M.a(mp_one_touch_tuning.o)
PID_SetPrevError                                  build/pid_regulator.o
PID_SetUpperIntegralTermLimit                     build/pid_regulator.o
                                                  MCSDK_v6.3.2-Full/MotorControl/libMP/libmp-G4-MDK-ARM_ARMv7-M.a(mp_one_touch_tuning.o)
PI_Controller                                     build/pid_regulator.o
                                                  MCSDK_v6.3.2-Full/MotorControl/libMP/libmp-G4-MDK-ARM_ARMv7-M.a(mp_self_com_ctrl.o)
                                                  build/sto_pll_speed_pos_fdbk.o
                                                  build/speed_torq_ctrl.o
PQD_CalcElMotorPower                              build/pqd_motor_power_measurement.o
                                                  build/mc_tasks_foc.o
PQD_Clear                                         build/pqd_motor_power_measurement.o
PQD_GetAvrgElMotorPowerW                          build/pqd_motor_power_measurement.o
                                                  build/register_interface.o
                                                  build/mc_api.o
PQD_MotorPowMeasM1                                build/mc_config.o
PVD_PVM_IRQHandler                                build/startup_stm32g431xx.o
PWMC_CalcPhaseCurrentsEst                         build/pwm_curr_fdbk.o
PWMC_Clear                                        build/pwm_curr_fdbk.o
                                                  build/mc_tasks_foc.o
PWMC_CurrentReadingCalibr                         build/pwm_curr_fdbk.o
                                                  build/mc_tasks_foc.o
PWMC_DPWM_ModeDisable                             build/pwm_curr_fdbk.o
PWMC_DPWM_ModeEnable                              build/pwm_curr_fdbk.o
PWMC_DP_Handler                                   build/pwm_curr_fdbk.o
PWMC_GetDPWM_Mode                                 build/pwm_curr_fdbk.o
PWMC_GetOffsetCalib                               build/pwm_curr_fdbk.o
                                                  build/mc_interface.o
PWMC_IsFaultOccurred                              build/pwm_curr_fdbk.o
                                                  MCSDK_v6.3.2-Full/MotorControl/libMP/libmp-G4-MDK-ARM_ARMv7-M.a(mp_self_com_ctrl.o)
                                                  build/mc_tasks.o
PWMC_OCPSetReferenceVoltage                       build/pwm_curr_fdbk.o
PWMC_OCP_Handler                                  build/pwm_curr_fdbk.o
                                                  build/stm32g4xx_mc_it.o
PWMC_OVP_Handler                                  build/pwm_curr_fdbk.o
                                                  build/stm32g4xx_mc_it.o
PWMC_RLDetectionModeDisable                       build/pwm_curr_fdbk.o
                                                  MCSDK_v6.3.2-Full/MotorControl/libMP/libmp-G4-MDK-ARM_ARMv7-M.a(mp_self_com_ctrl.o)
PWMC_RLDetectionModeEnable                        build/pwm_curr_fdbk.o
                                                  MCSDK_v6.3.2-Full/MotorControl/libMP/libmp-G4-MDK-ARM_ARMv7-M.a(mp_self_com_ctrl.o)
PWMC_RLDetectionModeSetDuty                       build/pwm_curr_fdbk.o
                                                  MCSDK_v6.3.2-Full/MotorControl/libMP/libmp-G4-MDK-ARM_ARMv7-M.a(mp_self_com_ctrl.o)
PWMC_RLTurnOnLowSidesAndStart                     build/pwm_curr_fdbk.o
                                                  MCSDK_v6.3.2-Full/MotorControl/libMP/libmp-G4-MDK-ARM_ARMv7-M.a(mp_self_com_ctrl.o)
PWMC_RegisterGetPhaseCurrentsCallBack             build/pwm_curr_fdbk.o
PWMC_RegisterOCPSetRefVoltageCallBack             build/pwm_curr_fdbk.o
PWMC_RegisterRLDetectionModeDisableCallBack       build/pwm_curr_fdbk.o
PWMC_RegisterRLDetectionModeEnableCallBack        build/pwm_curr_fdbk.o
PWMC_RegisterRLDetectionModeSetDutyCallBack       build/pwm_curr_fdbk.o
PWMC_RegisterReadingCalibrationCallBack           build/pwm_curr_fdbk.o
PWMC_RegisterSampPointSectXCallBack               build/pwm_curr_fdbk.o
PWMC_RegisterSwitchOffPwmCallBack                 build/pwm_curr_fdbk.o
PWMC_RegisterSwitchonPwmCallBack                  build/pwm_curr_fdbk.o
PWMC_RegisterTurnOnLowSidesCallBack               build/pwm_curr_fdbk.o
PWMC_SetOffsetCalib                               build/pwm_curr_fdbk.o
                                                  build/mc_interface.o
PWMC_SetPhaseVoltage                              build/pwm_curr_fdbk.o
                                                  MCSDK_v6.3.2-Full/MotorControl/libMP/libmp-G4-MDK-ARM_ARMv7-M.a(mp_self_com_ctrl.o)
PWMC_SetPhaseVoltage_OVM                          build/pwm_curr_fdbk_ovm.o
PWMC_SwitchOffPWM                                 build/pwm_curr_fdbk.o
                                                  MCSDK_v6.3.2-Full/MotorControl/libMP/libmp-G4-MDK-ARM_ARMv7-M.a(mp_self_com_ctrl.o)
                                                  build/revup_ctrl.o
                                                  build/mc_tasks_foc.o
                                                  build/mc_tasks.o
PWMC_SwitchOnPWM                                  build/pwm_curr_fdbk.o
                                                  build/revup_ctrl.o
                                                  build/mc_tasks_foc.o
PWMC_TurnOnLowSides                               build/pwm_curr_fdbk.o
                                                  build/revup_ctrl.o
PWM_Handle_M1                                     build/mc_config.o
                                                  build/stm32g4xx_mc_it.o
                                                  build/regular_conversion_manager.o
                                                  build/mc_tasks_foc.o
PWR_BOARD_NAME                                    build/mc_configuration_registers.o
PendSV_Handler                                    build/port.o
PerfTraces                                        build/mc_config_common.o
                                                  build/mc_tasks_foc.o
                                                  build/mc_tasks.o
R3_2_CurrentReadingPolarization                   build/r3_2_g4xx_pwm_curr_fdbk.o
                                                  build/mc_config.o
R3_2_GetOffsetCalib                               build/r3_2_g4xx_pwm_curr_fdbk.o
                                                  build/mc_config.o
R3_2_GetPhaseCurrents                             build/r3_2_g4xx_pwm_curr_fdbk.o
R3_2_GetPhaseCurrents_OVM                         build/r3_2_g4xx_pwm_curr_fdbk.o
                                                  build/mc_config.o
R3_2_Init                                         build/r3_2_g4xx_pwm_curr_fdbk.o
                                                  build/mc_tasks_foc.o
R3_2_ParamsM1                                     build/mc_parameters.o
                                                  build/mc_config.o
R3_2_RLDetectionModeDisable                       build/r3_2_g4xx_pwm_curr_fdbk.o
                                                  build/mc_config.o
R3_2_RLDetectionModeEnable                        build/r3_2_g4xx_pwm_curr_fdbk.o
                                                  build/mc_config.o
R3_2_RLDetectionModeSetDuty                       build/r3_2_g4xx_pwm_curr_fdbk.o
                                                  build/mc_config.o
R3_2_RLTurnOnLowSidesAndStart                     build/r3_2_g4xx_pwm_curr_fdbk.o
                                                  build/mc_config.o
R3_2_SetADCSampPointPolarization                  build/r3_2_g4xx_pwm_curr_fdbk.o
R3_2_SetADCSampPointSectX                         build/r3_2_g4xx_pwm_curr_fdbk.o
R3_2_SetADCSampPointSectX_OVM                     build/r3_2_g4xx_pwm_curr_fdbk.o
                                                  build/mc_config.o
R3_2_SetOffsetCalib                               build/r3_2_g4xx_pwm_curr_fdbk.o
                                                  build/mc_config.o
R3_2_SwitchOffPWM                                 build/r3_2_g4xx_pwm_curr_fdbk.o
                                                  build/mc_tasks_foc.o
                                                  build/mc_config.o
R3_2_SwitchOnPWM                                  build/r3_2_g4xx_pwm_curr_fdbk.o
                                                  build/mc_config.o
R3_2_TIMx_UP_IRQHandler                           build/r3_2_g4xx_pwm_curr_fdbk.o
                                                  build/stm32g4xx_mc_it.o
R3_2_TurnOnLowSides                               build/r3_2_g4xx_pwm_curr_fdbk.o
                                                  build/mc_tasks_foc.o
                                                  build/mc_config.o
R3_3_OPAMPParamsM1                                build/mc_parameters.o
RCC_IRQHandler                                    build/startup_stm32g431xx.o
RCM_ExecNextConv                                  build/regular_conversion_manager.o
                                                  build/mc_tasks_foc.o
RCM_ExecRegularConv                               build/regular_conversion_manager.o
                                                  build/mc_tasks.o
RCM_ExecUserConv                                  build/regular_conversion_manager.o
                                                  build/mc_tasks.o
RCM_GetUserConv                                   build/regular_conversion_manager.o
RCM_GetUserConvState                              build/regular_conversion_manager.o
RCM_PauseRegularConv                              build/regular_conversion_manager.o
RCM_ReadOngoingConv                               build/regular_conversion_manager.o
                                                  build/mc_tasks_foc.o
RCM_RegisterRegConv                               build/regular_conversion_manager.o
                                                  build/mc_tasks.o
RCM_RegisterRegConv_WithCB                        build/regular_conversion_manager.o
RCM_RequestUserConv                               build/regular_conversion_manager.o
REMNG_Calc                                        build/ramp_ext_mngr.o
                                                  MCSDK_v6.3.2-Full/MotorControl/libMP/libmp-G4-MDK-ARM_ARMv7-M.a(mp_self_com_ctrl.o)
                                                  MCSDK_v6.3.2-Full/MotorControl/libMP/libmp-G4-MDK-ARM_ARMv7-M.a(mp_one_touch_tuning.o)
                                                  build/mc_tasks_foc.o
REMNG_ExecRamp                                    build/ramp_ext_mngr.o
                                                  MCSDK_v6.3.2-Full/MotorControl/libMP/libmp-G4-MDK-ARM_ARMv7-M.a(mp_self_com_ctrl.o)
                                                  MCSDK_v6.3.2-Full/MotorControl/libMP/libmp-G4-MDK-ARM_ARMv7-M.a(mp_one_touch_tuning.o)
                                                  build/mc_tasks_foc.o
REMNG_GetValue                                    build/ramp_ext_mngr.o
REMNG_Init                                        build/ramp_ext_mngr.o
                                                  MCSDK_v6.3.2-Full/MotorControl/libMP/libmp-G4-MDK-ARM_ARMv7-M.a(mp_self_com_ctrl.o)
                                                  MCSDK_v6.3.2-Full/MotorControl/libMP/libmp-G4-MDK-ARM_ARMv7-M.a(mp_one_touch_tuning.o)
                                                  build/mc_tasks_foc.o
REMNG_RampCompleted                               build/ramp_ext_mngr.o
                                                  MCSDK_v6.3.2-Full/MotorControl/libMP/libmp-G4-MDK-ARM_ARMv7-M.a(mp_self_com_ctrl.o)
                                                  MCSDK_v6.3.2-Full/MotorControl/libMP/libmp-G4-MDK-ARM_ARMv7-M.a(mp_one_touch_tuning.o)
                                                  build/mc_tasks_foc.o
REMNG_StopRamp                                    build/ramp_ext_mngr.o
                                                  MCSDK_v6.3.2-Full/MotorControl/libMP/libmp-G4-MDK-ARM_ARMv7-M.a(mp_self_com_ctrl.o)
RI_GetIDSize                                      build/register_interface.o
                                                  build/mcpa.o
RI_GetPtrReg                                      build/register_interface.o
                                                  build/mcpa.o
RI_GetRegCommandParser                            build/mcp.o
RI_GetRegisterGlobal                              build/register_interface.o
                                                  build/mcp.o
RI_GetRegisterMotor1                              build/register_interface.o
                                                  build/mcp.o
RI_SetRegCommandParser                            build/mcp.o
RI_SetRegisterGlobal                              build/register_interface.o
                                                  build/mcp.o
RI_SetRegisterMotor1                              build/register_interface.o
                                                  build/mcp.o
RNG_IRQHandler                                    build/startup_stm32g431xx.o
RTC_Alarm_IRQHandler                              build/startup_stm32g431xx.o
RTC_TAMP_LSECSS_IRQHandler                        build/startup_stm32g431xx.o
RTC_WKUP_IRQHandler                               build/startup_stm32g431xx.o
RUC_Clear                                         build/revup_ctrl.o
                                                  build/mc_tasks_foc.o
RUC_Exec                                          build/revup_ctrl.o
                                                  build/mc_tasks_foc.o
RUC_FirstAccelerationStageReached                 build/revup_ctrl.o
                                                  MCSDK_v6.3.2-Full/MotorControl/libMP/libmp-G4-MDK-ARM_ARMv7-M.a(mp_self_com_ctrl.o)
RUC_GetPhaseDurationms                            build/revup_ctrl.o
RUC_GetPhaseFinalMecSpeedUnit                     build/revup_ctrl.o
RUC_GetPhaseFinalTorque                           build/revup_ctrl.o
RUC_Init                                          build/revup_ctrl.o
                                                  build/mc_tasks_foc.o
RUC_IsAlignStageNow                               build/revup_ctrl.o
RUC_OTF_Exec                                      build/revup_ctrl.o
RUC_SetPhaseDurationms                            build/revup_ctrl.o
                                                  MCSDK_v6.3.2-Full/MotorControl/libMP/libmp-G4-MDK-ARM_ARMv7-M.a(mp_self_com_ctrl.o)
RUC_SetPhaseFinalMecSpeedUnit                     build/revup_ctrl.o
                                                  MCSDK_v6.3.2-Full/MotorControl/libMP/libmp-G4-MDK-ARM_ARMv7-M.a(mp_self_com_ctrl.o)
RUC_SetPhaseFinalTorque                           build/revup_ctrl.o
                                                  MCSDK_v6.3.2-Full/MotorControl/libMP/libmp-G4-MDK-ARM_ARMv7-M.a(mp_self_com_ctrl.o)
RVBS_CalcAvVbus                                   build/r_divider_bus_voltage_sensor.o
                                                  build/mc_tasks.o
RVBS_CheckFaultState                              build/r_divider_bus_voltage_sensor.o
RVBS_Clear                                        build/r_divider_bus_voltage_sensor.o
RVBS_Init                                         build/r_divider_bus_voltage_sensor.o
                                                  build/mc_tasks.o
RampExtMngrHFParamsM1                             build/mc_config.o
                                                  build/mc_tasks_foc.o
RampExtMngrParamsOTT                              build/mc_config.o
                                                  MCSDK_v6.3.2-Full/MotorControl/libMP/libmp-G4-MDK-ARM_ARMv7-M.a(mp_one_touch_tuning.o)
RampExtMngrParamsSCC                              build/mc_config.o
                                                  MCSDK_v6.3.2-Full/MotorControl/libMP/libmp-G4-MDK-ARM_ARMv7-M.a(mp_self_com_ctrl.o)
Reset_Handler                                     build/startup_stm32g431xx.o
RevUpControlM1                                    build/mc_config.o
                                                  build/register_interface.o
                                                  build/mc_tasks_foc.o
SAI1_IRQHandler                                   build/startup_stm32g431xx.o
SCC                                               build/mc_config.o
                                                  MCSDK_v6.3.2-Full/MotorControl/libMP/libmp-G4-MDK-ARM_ARMv7-M.a(mp_self_com_ctrl.o)
                                                  build/register_interface.o
                                                  build/mc_tasks_foc.o
                                                  build/mc_tasks.o
                                                  build/mc_api.o
SCC_CMD                                           MCSDK_v6.3.2-Full/MotorControl/libMP/libmp-G4-MDK-ARM_ARMv7-M.a(mp_self_com_ctrl.o)
                                                  build/mc_api.o
SCC_CheckBemf                                     MCSDK_v6.3.2-Full/MotorControl/libMP/libmp-G4-MDK-ARM_ARMv7-M.a(mp_self_com_ctrl.o)
SCC_CheckOC_RL                                    MCSDK_v6.3.2-Full/MotorControl/libMP/libmp-G4-MDK-ARM_ARMv7-M.a(mp_self_com_ctrl.o)
                                                  build/mc_tasks.o
SCC_DetectBemf                                    MCSDK_v6.3.2-Full/MotorControl/libMP/libmp-G4-MDK-ARM_ARMv7-M.a(mp_self_com_ctrl.o)
                                                  build/mc_tasks_foc.o
SCC_ForceProfile                                  MCSDK_v6.3.2-Full/MotorControl/libMP/libmp-G4-MDK-ARM_ARMv7-M.a(mp_self_com_ctrl.o)
SCC_GetEstNominalSpeed                            MCSDK_v6.3.2-Full/MotorControl/libMP/libmp-G4-MDK-ARM_ARMv7-M.a(mp_self_com_ctrl.o)
SCC_GetResistorOffset                             MCSDK_v6.3.2-Full/MotorControl/libMP/libmp-G4-MDK-ARM_ARMv7-M.a(mp_self_com_ctrl.o)
                                                  build/register_interface.o
SCC_GetStartupCurrentS16                          MCSDK_v6.3.2-Full/MotorControl/libMP/libmp-G4-MDK-ARM_ARMv7-M.a(mp_self_com_ctrl.o)
SCC_GetState                                      MCSDK_v6.3.2-Full/MotorControl/libMP/libmp-G4-MDK-ARM_ARMv7-M.a(mp_self_com_ctrl.o)
                                                  build/register_interface.o
SCC_Init                                          MCSDK_v6.3.2-Full/MotorControl/libMP/libmp-G4-MDK-ARM_ARMv7-M.a(mp_self_com_ctrl.o)
                                                  build/mc_tasks_foc.o
SCC_InitKeDetRevup                                MCSDK_v6.3.2-Full/MotorControl/libMP/libmp-G4-MDK-ARM_ARMv7-M.a(mp_self_com_ctrl.o)
SCC_KeDetection                                   MCSDK_v6.3.2-Full/MotorControl/libMP/libmp-G4-MDK-ARM_ARMv7-M.a(mp_self_com_ctrl.o)
SCC_MF                                            MCSDK_v6.3.2-Full/MotorControl/libMP/libmp-G4-MDK-ARM_ARMv7-M.a(mp_self_com_ctrl.o)
                                                  build/mc_tasks_foc.o
SCC_Params                                        build/mc_parameters.o
                                                  build/mc_config.o
SCC_SetNominalCurrent                             MCSDK_v6.3.2-Full/MotorControl/libMP/libmp-G4-MDK-ARM_ARMv7-M.a(mp_self_com_ctrl.o)
                                                  build/register_interface.o
SCC_SetNominalSpeed                               MCSDK_v6.3.2-Full/MotorControl/libMP/libmp-G4-MDK-ARM_ARMv7-M.a(mp_self_com_ctrl.o)
                                                  build/register_interface.o
SCC_SetPBCharacterization                         MCSDK_v6.3.2-Full/MotorControl/libMP/libmp-G4-MDK-ARM_ARMv7-M.a(mp_self_com_ctrl.o)
                                                  build/register_interface.o
SCC_SetPhaseVoltage                               MCSDK_v6.3.2-Full/MotorControl/libMP/libmp-G4-MDK-ARM_ARMv7-M.a(mp_self_com_ctrl.o)
                                                  build/mc_tasks_foc.o
SCC_SetResistorOffset                             MCSDK_v6.3.2-Full/MotorControl/libMP/libmp-G4-MDK-ARM_ARMv7-M.a(mp_self_com_ctrl.o)
                                                  build/register_interface.o
SCC_Start                                         MCSDK_v6.3.2-Full/MotorControl/libMP/libmp-G4-MDK-ARM_ARMv7-M.a(mp_self_com_ctrl.o)
                                                  build/mc_tasks_foc.o
SCC_Stop                                          MCSDK_v6.3.2-Full/MotorControl/libMP/libmp-G4-MDK-ARM_ARMv7-M.a(mp_self_com_ctrl.o)
                                                  build/mc_tasks_foc.o
                                                  build/mc_tasks.o
SCC_StopProfile                                   MCSDK_v6.3.2-Full/MotorControl/libMP/libmp-G4-MDK-ARM_ARMv7-M.a(mp_self_com_ctrl.o)
SCC_UpdateRevup                                   MCSDK_v6.3.2-Full/MotorControl/libMP/libmp-G4-MDK-ARM_ARMv7-M.a(mp_self_com_ctrl.o)
SPD_GetAvrgMecSpeedUnit                           build/speed_pos_fdbk.o
                                                  MCSDK_v6.3.2-Full/MotorControl/libMP/libmp-G4-MDK-ARM_ARMv7-M.a(mp_self_com_ctrl.o)
                                                  MCSDK_v6.3.2-Full/MotorControl/libMP/libmp-G4-MDK-ARM_ARMv7-M.a(mp_one_touch_tuning.o)
                                                  build/speed_torq_ctrl.o
                                                  build/revup_ctrl.o
                                                  build/mc_interface.o
SPD_GetElSpeedDpp                                 build/speed_pos_fdbk.o
                                                  MCSDK_v6.3.2-Full/MotorControl/libMP/libmp-G4-MDK-ARM_ARMv7-M.a(mp_self_com_ctrl.o)
                                                  build/feed_forward_ctrl.o
SPD_GetElToMecRatio                               build/speed_pos_fdbk.o
                                                  MCSDK_v6.3.2-Full/MotorControl/libMP/libmp-G4-MDK-ARM_ARMv7-M.a(mp_self_com_ctrl.o)
                                                  build/register_interface.o
SPD_GetMecAngle                                   build/speed_pos_fdbk.o
SPD_GetS16Speed                                   build/speed_pos_fdbk.o
                                                  build/register_interface.o
SPD_IsMecSpeedReliable                            build/speed_pos_fdbk.o
                                                  build/virtual_speed_sensor.o
                                                  build/sto_pll_speed_pos_fdbk.o
SPD_SetElToMecRatio                               build/speed_pos_fdbk.o
                                                  build/register_interface.o
SPI1_IRQHandler                                   build/startup_stm32g431xx.o
SPI2_IRQHandler                                   build/startup_stm32g431xx.o
SPI3_IRQHandler                                   build/startup_stm32g431xx.o
STC_CalcTorqueReference                           build/speed_torq_ctrl.o
                                                  build/mc_tasks_foc.o
STC_Clear                                         build/speed_torq_ctrl.o
                                                  build/mc_tasks_foc.o
STC_ExecRamp                                      build/speed_torq_ctrl.o
                                                  MCSDK_v6.3.2-Full/MotorControl/libMP/libmp-G4-MDK-ARM_ARMv7-M.a(mp_one_touch_tuning.o)
                                                  build/revup_ctrl.o
                                                  build/mc_interface.o
STC_ForceSpeedReferenceToCurrentSpeed             build/speed_torq_ctrl.o
                                                  build/mc_tasks_foc.o
STC_GetDefaultIqdref                              build/speed_torq_ctrl.o
                                                  build/mc_interface.o
                                                  build/mc_tasks_foc.o
STC_GetMaxAppPositiveMecSpeedUnit                 build/speed_torq_ctrl.o
STC_GetMecSpeedRefUnit                            build/speed_torq_ctrl.o
                                                  build/mc_interface.o
STC_GetMecSpeedRefUnitDefault                     build/speed_torq_ctrl.o
STC_GetMinAppNegativeMecSpeedUnit                 build/speed_torq_ctrl.o
STC_Init                                          build/speed_torq_ctrl.o
                                                  build/mc_tasks_foc.o
STC_SetControlMode                                build/speed_torq_ctrl.o
                                                  MCSDK_v6.3.2-Full/MotorControl/libMP/libmp-G4-MDK-ARM_ARMv7-M.a(mp_one_touch_tuning.o)
                                                  build/revup_ctrl.o
                                                  build/mc_interface.o
STC_SetSpeedSensor                                build/speed_torq_ctrl.o
                                                  build/mc_tasks_foc.o
STC_StopSpeedRamp                                 build/speed_torq_ctrl.o
                                                  build/mc_interface.o
STO_GetPLLGains                                   build/sto_pll_speed_pos_fdbk.o
STO_M1                                            build/mc_config.o
                                                  build/mc_tasks_foc.o
STO_OTF_ResetPLL                                  build/sto_pll_speed_pos_fdbk.o
                                                  build/mc_config.o
STO_PLL_BemfConsistencyCheckSwitch                build/sto_pll_speed_pos_fdbk.o
STO_PLL_CalcAvrgElSpeedDpp                        build/sto_pll_speed_pos_fdbk.o
                                                  MCSDK_v6.3.2-Full/MotorControl/libMP/libmp-G4-MDK-ARM_ARMv7-M.a(mp_self_com_ctrl.o)
STO_PLL_CalcAvrgMecSpeedUnit                      build/sto_pll_speed_pos_fdbk.o
                                                  build/mc_tasks_foc.o
STO_PLL_CalcElAngle                               build/sto_pll_speed_pos_fdbk.o
                                                  MCSDK_v6.3.2-Full/MotorControl/libMP/libmp-G4-MDK-ARM_ARMv7-M.a(mp_self_com_ctrl.o)
STO_PLL_Clear                                     build/sto_pll_speed_pos_fdbk.o
                                                  build/mc_tasks_foc.o
STO_PLL_ForceConvergency1                         build/sto_pll_speed_pos_fdbk.o
                                                  build/mc_config.o
STO_PLL_ForceConvergency2                         build/sto_pll_speed_pos_fdbk.o
                                                  build/mc_config.o
STO_PLL_GetEstimatedBemf                          build/sto_pll_speed_pos_fdbk.o
                                                  build/register_interface.o
STO_PLL_GetEstimatedCurrent                       build/sto_pll_speed_pos_fdbk.o
STO_PLL_GetObserverGains                          build/sto_pll_speed_pos_fdbk.o
                                                  build/register_interface.o
STO_PLL_Init                                      build/sto_pll_speed_pos_fdbk.o
                                                  build/mc_tasks_foc.o
STO_PLL_IsBemfConsistent                          build/sto_pll_speed_pos_fdbk.o
STO_PLL_IsObserverConverged                       build/sto_pll_speed_pos_fdbk.o
                                                  build/mc_tasks_foc.o
STO_PLL_IsVarianceTight                           build/sto_pll_speed_pos_fdbk.o
                                                  build/mc_config.o
STO_PLL_M1                                        build/mc_config.o
                                                  build/register_interface.o
                                                  build/mc_tasks_foc.o
STO_PLL_Return                                    build/sto_pll_speed_pos_fdbk.o
STO_PLL_SetMecAngle                               build/sto_pll_speed_pos_fdbk.o
STO_PLL_SetObserverGains                          build/sto_pll_speed_pos_fdbk.o
                                                  build/register_interface.o
STO_ReInit                                        MCSDK_v6.3.2-Full/MotorControl/libMP/libmp-G4-MDK-ARM_ARMv7-M.a(mp_self_com_ctrl.o)
STO_SetDirection                                  build/sto_pll_speed_pos_fdbk.o
                                                  build/mc_tasks_foc.o
STSPIN32G4_clearFaults                            build/stspin32g4.o
                                                  build/mc_tasks.o
STSPIN32G4_deInit                                 build/stspin32g4.o
STSPIN32G4_get3V3                                 build/stspin32g4.o
STSPIN32G4_getInterlocking                        build/stspin32g4.o
STSPIN32G4_getMinimumDeadTime                     build/stspin32g4.o
STSPIN32G4_getStatus                              build/stspin32g4.o
STSPIN32G4_getTHSD                                build/stspin32g4.o
STSPIN32G4_getVCC                                 build/stspin32g4.o
STSPIN32G4_getVDSP                                build/stspin32g4.o
STSPIN32G4_init                                   build/stspin32g4.o
                                                  build/mc_tasks.o
STSPIN32G4_lockReg                                build/stspin32g4.o
STSPIN32G4_readReg                                build/stspin32g4.o
STSPIN32G4_reset                                  build/stspin32g4.o
                                                  build/mc_tasks.o
STSPIN32G4_set3V3                                 build/stspin32g4.o
STSPIN32G4_setInterlocking                        build/stspin32g4.o
STSPIN32G4_setMinimumDeadTime                     build/stspin32g4.o
STSPIN32G4_setTHSD                                build/stspin32g4.o
STSPIN32G4_setVCC                                 build/stspin32g4.o
                                                  build/mc_tasks.o
STSPIN32G4_setVDSP                                build/stspin32g4.o
                                                  build/mc_tasks.o
STSPIN32G4_standby                                build/stspin32g4.o
STSPIN32G4_unlockReg                              build/stspin32g4.o
STSPIN32G4_wakeup                                 build/stspin32g4.o
STSPIN32G4_writeReg                               build/stspin32g4.o
STSPIN32G4_writeVerifyReg                         build/stspin32g4.o
SVC_Handler                                       build/port.o
SpeednTorqCtrlM1                                  build/mc_config.o
                                                  build/mc_tasks_foc.o
StartSafetyTask                                   build/mc_tasks.o
                                                  build/main.o
SysTick_Handler                                   build/port.o
                                                  build/cmsis_os.o
SystemClock_Config                                build/main.o
                                                  build/stspin32g4.o
SystemCoreClock                                   build/system_stm32g4xx.o
                                                  build/r3_2_g4xx_pwm_curr_fdbk.o
                                                  build/port.o
                                                  build/stm32g4xx_hal_pwr_ex.o
                                                  build/stm32g4xx_hal_rcc.o
                                                  build/stm32g4xx_hal.o
                                                  build/stm32g4xx_ll_utils.o
                                                  build/main.o
SystemCoreClockUpdate                             build/system_stm32g4xx.o
SystemInit                                        build/system_stm32g4xx.o
                                                  build/startup_stm32g431xx.o
TIM1_BRK_TIM15_IRQHandler                         build/stm32g4xx_mc_it.o
TIM1_CC_IRQHandler                                build/startup_stm32g431xx.o
TIM1_TRG_COM_TIM17_IRQHandler                     build/startup_stm32g431xx.o
TIM1_UP_TIM16_IRQHandler                          build/stm32g4xx_mc_it.o
TIM2_IRQHandler                                   build/startup_stm32g431xx.o
TIM3_IRQHandler                                   build/startup_stm32g431xx.o
TIM4_IRQHandler                                   build/startup_stm32g431xx.o
TIM6_DAC_IRQHandler                               build/stm32g4xx_it.o
TIM7_IRQHandler                                   build/startup_stm32g431xx.o
TIM8_BRK_IRQHandler                               build/startup_stm32g431xx.o
TIM8_CC_IRQHandler                                build/startup_stm32g431xx.o
TIM8_TRG_COM_IRQHandler                           build/startup_stm32g431xx.o
TIM8_UP_IRQHandler                                build/startup_stm32g431xx.o
TIMEx_DMACommutationCplt                          build/stm32g4xx_hal_tim_ex.o
                                                  build/stm32g4xx_hal_tim.o
TIMEx_DMACommutationHalfCplt                      build/stm32g4xx_hal_tim_ex.o
                                                  build/stm32g4xx_hal_tim.o
TIM_Base_SetConfig                                build/stm32g4xx_hal_tim.o
                                                  build/stm32g4xx_hal_tim_ex.o
TIM_CCxChannelCmd                                 build/stm32g4xx_hal_tim.o
                                                  build/stm32g4xx_hal_tim_ex.o
TIM_DMACaptureCplt                                build/stm32g4xx_hal_tim.o
                                                  build/stm32g4xx_hal_tim_ex.o
TIM_DMACaptureHalfCplt                            build/stm32g4xx_hal_tim.o
                                                  build/stm32g4xx_hal_tim_ex.o
TIM_DMADelayPulseHalfCplt                         build/stm32g4xx_hal_tim.o
                                                  build/stm32g4xx_hal_tim_ex.o
TIM_DMAError                                      build/stm32g4xx_hal_tim.o
                                                  build/stm32g4xx_hal_tim_ex.o
TIM_ETR_SetConfig                                 build/stm32g4xx_hal_tim.o
                                                  build/stm32g4xx_hal_tim_ex.o
TIM_OC2_SetConfig                                 build/stm32g4xx_hal_tim.o
                                                  build/stm32g4xx_hal_tim_ex.o
TIM_TI1_SetConfig                                 build/stm32g4xx_hal_tim.o
                                                  build/stm32g4xx_hal_tim_ex.o
TSK_ChargeBootCapDelayHasElapsedM1                build/mc_tasks.o
                                                  build/mc_tasks_foc.o
TSK_HardwareFaultTask                             build/mc_tasks.o
                                                  build/stm32_mc_common_it.o
TSK_HighFrequencyTask                             build/mc_tasks.o
                                                  build/stm32g4xx_mc_it.o
TSK_MF_StopProcessing                             build/mc_tasks_foc.o
TSK_MediumFrequencyTaskM1                         build/mc_tasks_foc.o
                                                  build/mc_tasks.o
TSK_SafetyTask                                    build/mc_tasks.o
TSK_SafetyTask_PWMOFF                             build/mc_tasks.o
TSK_SetChargeBootCapDelayM1                       build/mc_tasks.o
                                                  build/mc_tasks_foc.o
TSK_SetStopPermanencyTimeM1                       build/mc_tasks.o
                                                  build/mc_tasks_foc.o
TSK_StopPermanencyTimeHasElapsedM1                build/mc_tasks.o
                                                  build/mc_tasks_foc.o
TempRegConv_M1                                    build/mc_config_common.o
                                                  build/mc_tasks.o
TempSensor_M1                                     build/mc_config_common.o
                                                  build/register_interface.o
                                                  build/mc_tasks.o
                                                  build/mc_config.o
UART4_IRQHandler                                  build/startup_stm32g431xx.o
UASPEP_CFG_RECEPTION                              build/usart_aspep_driver.o
                                                  build/mcp_config.o
UASPEP_CFG_TRANSMISSION                           build/usart_aspep_driver.o
                                                  build/mcp_config.o
UASPEP_IDLE_ENABLE                                build/usart_aspep_driver.o
                                                  build/mcp_config.o
UASPEP_INIT                                       build/usart_aspep_driver.o
                                                  build/mcp_config.o
UASPEP_RX_INIT                                    build/usart_aspep_driver.o
UASPEP_TX_INIT                                    build/usart_aspep_driver.o
UCPD1_IRQHandler                                  build/startup_stm32g431xx.o
UI_HandleStartStopButton_cb                       build/mc_tasks.o
                                                  build/stm32_mc_common_it.o
USART1_IRQHandler                                 build/stm32g4xx_mc_it.o
USART2_IRQHandler                                 build/startup_stm32g431xx.o
USART3_IRQHandler                                 build/startup_stm32g431xx.o
USBWakeUp_IRQHandler                              build/startup_stm32g431xx.o
USB_HP_IRQHandler                                 build/startup_stm32g431xx.o
USB_LP_IRQHandler                                 build/startup_stm32g431xx.o
UsageFault_Handler                                build/startup_stm32g431xx.o
VBS_GetAvBusVoltage_V                             build/bus_voltage_sensor.o
                                                  build/pqd_motor_power_measurement.o
                                                  build/register_interface.o
VBS_GetBusVoltage_d                               build/bus_voltage_sensor.o
VESC_ExecuteCommand                               build/vesc_commands.o
                                                  build/vesc_uart.o
VESC_ProcessPacket                                build/vesc_uart.o
VESC_SendPacket                                   build/vesc_uart.o
                                                  build/vesc_commands.o
VESC_UART_IRQHandler                              build/vesc_uart.o
                                                  build/stm32g4xx_mc_it.o
VESC_UART_Init                                    build/vesc_uart.o
                                                  build/main.o
VSS_CalcAvrgMecSpeedUnit                          build/virtual_speed_sensor.o
                                                  build/mc_tasks_foc.o
VSS_CalcElAngle                                   build/virtual_speed_sensor.o
                                                  MCSDK_v6.3.2-Full/MotorControl/libMP/libmp-G4-MDK-ARM_ARMv7-M.a(mp_self_com_ctrl.o)
VSS_Clear                                         build/virtual_speed_sensor.o
                                                  build/revup_ctrl.o
                                                  build/mc_tasks_foc.o
VSS_GetLastRampFinalSpeed                         build/virtual_speed_sensor.o
VSS_Init                                          build/virtual_speed_sensor.o
                                                  build/mc_tasks.o
VSS_IsTransitionOngoing                           build/virtual_speed_sensor.o
VSS_RampCompleted                                 build/virtual_speed_sensor.o
VSS_SetElAngle                                    build/virtual_speed_sensor.o
VSS_SetMecAcceleration                            build/virtual_speed_sensor.o
                                                  MCSDK_v6.3.2-Full/MotorControl/libMP/libmp-G4-MDK-ARM_ARMv7-M.a(mp_self_com_ctrl.o)
                                                  build/revup_ctrl.o
VSS_SetStartTransition                            build/virtual_speed_sensor.o
                                                  build/mc_tasks_foc.o
VSS_TransitionEnded                               build/virtual_speed_sensor.o
                                                  build/mc_tasks_foc.o
VbusRegConv_M1                                    build/mc_config_common.o
                                                  build/mc_tasks.o
VirtualSpeedSensorM1                              build/mc_config_common.o
                                                  build/register_interface.o
                                                  build/mc_tasks_foc.o
                                                  build/mc_tasks.o
WWDG_IRQHandler                                   build/startup_stm32g431xx.o
_Min_Stack_Size                                   build/sysmem.o
__adddf3                                          /usr/share/gcc-arm-none-eabi-10-2020-q4-major/bin/../lib/gcc/arm-none-eabi/10.2.1/thumb/v7e-m+fp/hard/libgcc.a(_arm_addsubdf3.o)
__aeabi_d2iz                                      /usr/share/gcc-arm-none-eabi-10-2020-q4-major/bin/../lib/gcc/arm-none-eabi/10.2.1/thumb/v7e-m+fp/hard/libgcc.a(_arm_fixdfsi.o)
                                                  MCSDK_v6.3.2-Full/MotorControl/libMP/libmp-G4-MDK-ARM_ARMv7-M.a(mp_self_com_ctrl.o)
__aeabi_dadd                                      /usr/share/gcc-arm-none-eabi-10-2020-q4-major/bin/../lib/gcc/arm-none-eabi/10.2.1/thumb/v7e-m+fp/hard/libgcc.a(_arm_addsubdf3.o)
__aeabi_dmul                                      /usr/share/gcc-arm-none-eabi-10-2020-q4-major/bin/../lib/gcc/arm-none-eabi/10.2.1/thumb/v7e-m+fp/hard/libgcc.a(_arm_muldf3.o)
                                                  MCSDK_v6.3.2-Full/MotorControl/libMP/libmp-G4-MDK-ARM_ARMv7-M.a(mp_self_com_ctrl.o)
__aeabi_drsub                                     /usr/share/gcc-arm-none-eabi-10-2020-q4-major/bin/../lib/gcc/arm-none-eabi/10.2.1/thumb/v7e-m+fp/hard/libgcc.a(_arm_addsubdf3.o)
__aeabi_dsub                                      /usr/share/gcc-arm-none-eabi-10-2020-q4-major/bin/../lib/gcc/arm-none-eabi/10.2.1/thumb/v7e-m+fp/hard/libgcc.a(_arm_addsubdf3.o)
__aeabi_f2d                                       /usr/share/gcc-arm-none-eabi-10-2020-q4-major/bin/../lib/gcc/arm-none-eabi/10.2.1/thumb/v7e-m+fp/hard/libgcc.a(_arm_addsubdf3.o)
__aeabi_i2d                                       /usr/share/gcc-arm-none-eabi-10-2020-q4-major/bin/../lib/gcc/arm-none-eabi/10.2.1/thumb/v7e-m+fp/hard/libgcc.a(_arm_addsubdf3.o)
                                                  MCSDK_v6.3.2-Full/MotorControl/libMP/libmp-G4-MDK-ARM_ARMv7-M.a(mp_self_com_ctrl.o)
__aeabi_idiv0                                     /usr/share/gcc-arm-none-eabi-10-2020-q4-major/bin/../lib/gcc/arm-none-eabi/10.2.1/thumb/v7e-m+fp/hard/libgcc.a(_dvmd_tls.o)
__aeabi_l2d                                       /usr/share/gcc-arm-none-eabi-10-2020-q4-major/bin/../lib/gcc/arm-none-eabi/10.2.1/thumb/v7e-m+fp/hard/libgcc.a(_arm_addsubdf3.o)
__aeabi_ldiv0                                     /usr/share/gcc-arm-none-eabi-10-2020-q4-major/bin/../lib/gcc/arm-none-eabi/10.2.1/thumb/v7e-m+fp/hard/libgcc.a(_dvmd_tls.o)
                                                  /usr/share/gcc-arm-none-eabi-10-2020-q4-major/bin/../lib/gcc/arm-none-eabi/10.2.1/thumb/v7e-m+fp/hard/libgcc.a(_aeabi_uldivmod.o)
                                                  /usr/share/gcc-arm-none-eabi-10-2020-q4-major/bin/../lib/gcc/arm-none-eabi/10.2.1/thumb/v7e-m+fp/hard/libgcc.a(_aeabi_ldivmod.o)
__aeabi_ldivmod                                   /usr/share/gcc-arm-none-eabi-10-2020-q4-major/bin/../lib/gcc/arm-none-eabi/10.2.1/thumb/v7e-m+fp/hard/libgcc.a(_aeabi_ldivmod.o)
                                                  build/div.o
__aeabi_memclr                                    /usr/share/gcc-arm-none-eabi-10-2020-q4-major/bin/../lib/gcc/arm-none-eabi/10.2.1/../../../../arm-none-eabi/lib/thumb/v7e-m+fp/hard/libc_nano.a(lib_a-aeabi_memclr.o)
__aeabi_memclr4                                   /usr/share/gcc-arm-none-eabi-10-2020-q4-major/bin/../lib/gcc/arm-none-eabi/10.2.1/../../../../arm-none-eabi/lib/thumb/v7e-m+fp/hard/libc_nano.a(lib_a-aeabi_memclr.o)
                                                  MCSDK_v6.3.2-Full/MotorControl/libMP/libmp-G4-MDK-ARM_ARMv7-M.a(mp_self_com_ctrl.o)
__aeabi_memclr8                                   /usr/share/gcc-arm-none-eabi-10-2020-q4-major/bin/../lib/gcc/arm-none-eabi/10.2.1/../../../../arm-none-eabi/lib/thumb/v7e-m+fp/hard/libc_nano.a(lib_a-aeabi_memclr.o)
__aeabi_memset                                    /usr/share/gcc-arm-none-eabi-10-2020-q4-major/bin/../lib/gcc/arm-none-eabi/10.2.1/../../../../arm-none-eabi/lib/thumb/v7e-m+fp/hard/libc_nano.a(lib_a-aeabi_memset-soft.o)
                                                  /usr/share/gcc-arm-none-eabi-10-2020-q4-major/bin/../lib/gcc/arm-none-eabi/10.2.1/../../../../arm-none-eabi/lib/thumb/v7e-m+fp/hard/libc_nano.a(lib_a-aeabi_memclr.o)
__aeabi_memset4                                   /usr/share/gcc-arm-none-eabi-10-2020-q4-major/bin/../lib/gcc/arm-none-eabi/10.2.1/../../../../arm-none-eabi/lib/thumb/v7e-m+fp/hard/libc_nano.a(lib_a-aeabi_memset-soft.o)
__aeabi_memset8                                   /usr/share/gcc-arm-none-eabi-10-2020-q4-major/bin/../lib/gcc/arm-none-eabi/10.2.1/../../../../arm-none-eabi/lib/thumb/v7e-m+fp/hard/libc_nano.a(lib_a-aeabi_memset-soft.o)
__aeabi_ui2d                                      /usr/share/gcc-arm-none-eabi-10-2020-q4-major/bin/../lib/gcc/arm-none-eabi/10.2.1/thumb/v7e-m+fp/hard/libgcc.a(_arm_addsubdf3.o)
__aeabi_ul2d                                      /usr/share/gcc-arm-none-eabi-10-2020-q4-major/bin/../lib/gcc/arm-none-eabi/10.2.1/thumb/v7e-m+fp/hard/libgcc.a(_arm_addsubdf3.o)
__aeabi_uldivmod                                  /usr/share/gcc-arm-none-eabi-10-2020-q4-major/bin/../lib/gcc/arm-none-eabi/10.2.1/thumb/v7e-m+fp/hard/libgcc.a(_aeabi_uldivmod.o)
                                                  build/div.o
__bss_end__                                       /usr/share/gcc-arm-none-eabi-10-2020-q4-major/bin/../lib/gcc/arm-none-eabi/10.2.1/../../../../arm-none-eabi/lib/thumb/v7e-m+fp/hard/crt0.o
__bss_start__                                     /usr/share/gcc-arm-none-eabi-10-2020-q4-major/bin/../lib/gcc/arm-none-eabi/10.2.1/../../../../arm-none-eabi/lib/thumb/v7e-m+fp/hard/crt0.o
__call_exitprocs                                  /usr/share/gcc-arm-none-eabi-10-2020-q4-major/bin/../lib/gcc/arm-none-eabi/10.2.1/../../../../arm-none-eabi/lib/thumb/v7e-m+fp/hard/libc_nano.a(lib_a-exit.o)
__deregister_frame_info                           /usr/share/gcc-arm-none-eabi-10-2020-q4-major/bin/../lib/gcc/arm-none-eabi/10.2.1/thumb/v7e-m+fp/hard/crtbegin.o
__dso_handle                                      /usr/share/gcc-arm-none-eabi-10-2020-q4-major/bin/../lib/gcc/arm-none-eabi/10.2.1/thumb/v7e-m+fp/hard/crtbegin.o
__env                                             build/syscalls.o
__errno                                           /usr/share/gcc-arm-none-eabi-10-2020-q4-major/bin/../lib/gcc/arm-none-eabi/10.2.1/../../../../arm-none-eabi/lib/thumb/v7e-m+fp/hard/libc_nano.a(lib_a-errno.o)
                                                  build/syscalls.o
                                                  build/sysmem.o
__extendsfdf2                                     /usr/share/gcc-arm-none-eabi-10-2020-q4-major/bin/../lib/gcc/arm-none-eabi/10.2.1/thumb/v7e-m+fp/hard/libgcc.a(_arm_addsubdf3.o)
__fixdfsi                                         /usr/share/gcc-arm-none-eabi-10-2020-q4-major/bin/../lib/gcc/arm-none-eabi/10.2.1/thumb/v7e-m+fp/hard/libgcc.a(_arm_fixdfsi.o)
__floatdidf                                       /usr/share/gcc-arm-none-eabi-10-2020-q4-major/bin/../lib/gcc/arm-none-eabi/10.2.1/thumb/v7e-m+fp/hard/libgcc.a(_arm_addsubdf3.o)
__floatsidf                                       /usr/share/gcc-arm-none-eabi-10-2020-q4-major/bin/../lib/gcc/arm-none-eabi/10.2.1/thumb/v7e-m+fp/hard/libgcc.a(_arm_addsubdf3.o)
__floatundidf                                     /usr/share/gcc-arm-none-eabi-10-2020-q4-major/bin/../lib/gcc/arm-none-eabi/10.2.1/thumb/v7e-m+fp/hard/libgcc.a(_arm_addsubdf3.o)
__floatunsidf                                     /usr/share/gcc-arm-none-eabi-10-2020-q4-major/bin/../lib/gcc/arm-none-eabi/10.2.1/thumb/v7e-m+fp/hard/libgcc.a(_arm_addsubdf3.o)
__init_array_end                                  /usr/share/gcc-arm-none-eabi-10-2020-q4-major/bin/../lib/gcc/arm-none-eabi/10.2.1/../../../../arm-none-eabi/lib/thumb/v7e-m+fp/hard/libc_nano.a(lib_a-init.o)
__init_array_start                                /usr/share/gcc-arm-none-eabi-10-2020-q4-major/bin/../lib/gcc/arm-none-eabi/10.2.1/../../../../arm-none-eabi/lib/thumb/v7e-m+fp/hard/libc_nano.a(lib_a-init.o)
__io_getchar                                      build/syscalls.o
__io_putchar                                      build/syscalls.o
__libc_fini_array                                 /usr/share/gcc-arm-none-eabi-10-2020-q4-major/bin/../lib/gcc/arm-none-eabi/10.2.1/../../../../arm-none-eabi/lib/thumb/v7e-m+fp/hard/crt0.o
__libc_init_array                                 /usr/share/gcc-arm-none-eabi-10-2020-q4-major/bin/../lib/gcc/arm-none-eabi/10.2.1/../../../../arm-none-eabi/lib/thumb/v7e-m+fp/hard/libc_nano.a(lib_a-init.o)
                                                  build/startup_stm32g431xx.o
                                                  /usr/share/gcc-arm-none-eabi-10-2020-q4-major/bin/../lib/gcc/arm-none-eabi/10.2.1/../../../../arm-none-eabi/lib/thumb/v7e-m+fp/hard/crt0.o
__muldf3                                          /usr/share/gcc-arm-none-eabi-10-2020-q4-major/bin/../lib/gcc/arm-none-eabi/10.2.1/thumb/v7e-m+fp/hard/libgcc.a(_arm_muldf3.o)
__preinit_array_end                               /usr/share/gcc-arm-none-eabi-10-2020-q4-major/bin/../lib/gcc/arm-none-eabi/10.2.1/../../../../arm-none-eabi/lib/thumb/v7e-m+fp/hard/libc_nano.a(lib_a-init.o)
__preinit_array_start                             /usr/share/gcc-arm-none-eabi-10-2020-q4-major/bin/../lib/gcc/arm-none-eabi/10.2.1/../../../../arm-none-eabi/lib/thumb/v7e-m+fp/hard/libc_nano.a(lib_a-init.o)
__register_frame_info                             /usr/share/gcc-arm-none-eabi-10-2020-q4-major/bin/../lib/gcc/arm-none-eabi/10.2.1/thumb/v7e-m+fp/hard/crtbegin.o
__sf_fake_stderr                                  /usr/share/gcc-arm-none-eabi-10-2020-q4-major/bin/../lib/gcc/arm-none-eabi/10.2.1/../../../../arm-none-eabi/lib/thumb/v7e-m+fp/hard/libc_nano.a(lib_a-impure.o)
__sf_fake_stdin                                   /usr/share/gcc-arm-none-eabi-10-2020-q4-major/bin/../lib/gcc/arm-none-eabi/10.2.1/../../../../arm-none-eabi/lib/thumb/v7e-m+fp/hard/libc_nano.a(lib_a-impure.o)
__sf_fake_stdout                                  /usr/share/gcc-arm-none-eabi-10-2020-q4-major/bin/../lib/gcc/arm-none-eabi/10.2.1/../../../../arm-none-eabi/lib/thumb/v7e-m+fp/hard/libc_nano.a(lib_a-impure.o)
__stack                                           /usr/share/gcc-arm-none-eabi-10-2020-q4-major/bin/../lib/gcc/arm-none-eabi/10.2.1/../../../../arm-none-eabi/lib/thumb/v7e-m+fp/hard/crt0.o
__subdf3                                          /usr/share/gcc-arm-none-eabi-10-2020-q4-major/bin/../lib/gcc/arm-none-eabi/10.2.1/thumb/v7e-m+fp/hard/libgcc.a(_arm_addsubdf3.o)
__udivmoddi4                                      /usr/share/gcc-arm-none-eabi-10-2020-q4-major/bin/../lib/gcc/arm-none-eabi/10.2.1/thumb/v7e-m+fp/hard/libgcc.a(_udivmoddi4.o)
                                                  /usr/share/gcc-arm-none-eabi-10-2020-q4-major/bin/../lib/gcc/arm-none-eabi/10.2.1/thumb/v7e-m+fp/hard/libgcc.a(_aeabi_uldivmod.o)
                                                  /usr/share/gcc-arm-none-eabi-10-2020-q4-major/bin/../lib/gcc/arm-none-eabi/10.2.1/thumb/v7e-m+fp/hard/libgcc.a(_aeabi_ldivmod.o)
_close                                            build/syscalls.o
_ebss                                             build/startup_stm32g431xx.o
_edata                                            build/startup_stm32g431xx.o
_end                                              build/sysmem.o
_estack                                           build/startup_stm32g431xx.o
                                                  build/sysmem.o
_execve                                           build/syscalls.o
_exit                                             build/syscalls.o
                                                  /usr/share/gcc-arm-none-eabi-10-2020-q4-major/bin/../lib/gcc/arm-none-eabi/10.2.1/../../../../arm-none-eabi/lib/thumb/v7e-m+fp/hard/libc_nano.a(lib_a-exit.o)
_fini                                             /usr/share/gcc-arm-none-eabi-10-2020-q4-major/bin/../lib/gcc/arm-none-eabi/10.2.1/thumb/v7e-m+fp/hard/crti.o
_fork                                             build/syscalls.o
_fstat                                            build/syscalls.o
_getpid                                           build/syscalls.o
_global_impure_ptr                                /usr/share/gcc-arm-none-eabi-10-2020-q4-major/bin/../lib/gcc/arm-none-eabi/10.2.1/../../../../arm-none-eabi/lib/thumb/v7e-m+fp/hard/libc_nano.a(lib_a-impure.o)
                                                  /usr/share/gcc-arm-none-eabi-10-2020-q4-major/bin/../lib/gcc/arm-none-eabi/10.2.1/../../../../arm-none-eabi/lib/thumb/v7e-m+fp/hard/libc_nano.a(lib_a-exit.o)
_impure_ptr                                       /usr/share/gcc-arm-none-eabi-10-2020-q4-major/bin/../lib/gcc/arm-none-eabi/10.2.1/../../../../arm-none-eabi/lib/thumb/v7e-m+fp/hard/libc_nano.a(lib_a-impure.o)
                                                  /usr/share/gcc-arm-none-eabi-10-2020-q4-major/bin/../lib/gcc/arm-none-eabi/10.2.1/../../../../arm-none-eabi/lib/thumb/v7e-m+fp/hard/libc_nano.a(lib_a-errno.o)
_init                                             /usr/share/gcc-arm-none-eabi-10-2020-q4-major/bin/../lib/gcc/arm-none-eabi/10.2.1/thumb/v7e-m+fp/hard/crti.o
                                                  /usr/share/gcc-arm-none-eabi-10-2020-q4-major/bin/../lib/gcc/arm-none-eabi/10.2.1/../../../../arm-none-eabi/lib/thumb/v7e-m+fp/hard/libc_nano.a(lib_a-init.o)
_isatty                                           build/syscalls.o
_kill                                             build/syscalls.o
_link                                             build/syscalls.o
_lseek                                            build/syscalls.o
_mainCRTStartup                                   /usr/share/gcc-arm-none-eabi-10-2020-q4-major/bin/../lib/gcc/arm-none-eabi/10.2.1/../../../../arm-none-eabi/lib/thumb/v7e-m+fp/hard/crt0.o
_open                                             build/syscalls.o
_read                                             build/syscalls.o
_sbrk                                             build/sysmem.o
_sbss                                             build/startup_stm32g431xx.o
_sdata                                            build/startup_stm32g431xx.o
_sidata                                           build/startup_stm32g431xx.o
_stack_init                                       /usr/share/gcc-arm-none-eabi-10-2020-q4-major/bin/../lib/gcc/arm-none-eabi/10.2.1/../../../../arm-none-eabi/lib/thumb/v7e-m+fp/hard/crt0.o
_start                                            /usr/share/gcc-arm-none-eabi-10-2020-q4-major/bin/../lib/gcc/arm-none-eabi/10.2.1/../../../../arm-none-eabi/lib/thumb/v7e-m+fp/hard/crt0.o
_stat                                             build/syscalls.o
_times                                            build/syscalls.o
_unlink                                           build/syscalls.o
_wait                                             build/syscalls.o
_write                                            build/syscalls.o
aspepOverUartA                                    build/mcp_config.o
                                                  build/mc_tasks.o
atexit                                            /usr/share/gcc-arm-none-eabi-10-2020-q4-major/bin/../lib/gcc/arm-none-eabi/10.2.1/../../../../arm-none-eabi/lib/thumb/v7e-m+fp/hard/crt0.o
bdmaActivTc                                       build/stm32_mc_common_it.o
environ                                           build/syscalls.o
exit                                              /usr/share/gcc-arm-none-eabi-10-2020-q4-major/bin/../lib/gcc/arm-none-eabi/10.2.1/../../../../arm-none-eabi/lib/thumb/v7e-m+fp/hard/libc_nano.a(lib_a-exit.o)
                                                  /usr/share/gcc-arm-none-eabi-10-2020-q4-major/bin/../lib/gcc/arm-none-eabi/10.2.1/../../../../arm-none-eabi/lib/thumb/v7e-m+fp/hard/crt0.o
g_pfnVectors                                      build/startup_stm32g431xx.o
getScalingFactor                                  build/ramp_ext_mngr.o
globalConfig_reg                                  build/mc_configuration_registers.o
                                                  build/register_interface.o
hardware_init_hook                                /usr/share/gcc-arm-none-eabi-10-2020-q4-major/bin/../lib/gcc/arm-none-eabi/10.2.1/../../../../arm-none-eabi/lib/thumb/v7e-m+fp/hard/crt0.o
htim6                                             build/stm32g4xx_hal_timebase_tim.o
                                                  build/stm32g4xx_it.o
initialise_monitor_handles                        build/syscalls.o
loseControlEvent                                  MCSDK_v6.3.2-Full/MotorControl/libMP/libmp-G4-MDK-ARM_ARMv7-M.a(mp_self_com_ctrl.o)
main                                              build/main.o
                                                  build/startup_stm32g431xx.o
                                                  /usr/share/gcc-arm-none-eabi-10-2020-q4-major/bin/../lib/gcc/arm-none-eabi/10.2.1/../../../../arm-none-eabi/lib/thumb/v7e-m+fp/hard/crt0.o
mc_lock_pins                                      build/mc_tasks.o
                                                  build/motorcontrol.o
mediumFrequencyHandle                             build/main.o
memcpy                                            /usr/share/gcc-arm-none-eabi-10-2020-q4-major/bin/../lib/gcc/arm-none-eabi/10.2.1/../../../../arm-none-eabi/lib/thumb/v7e-m+fp/hard/libc_nano.a(lib_a-memcpy-stub.o)
                                                  build/mcpa.o
                                                  build/stream_buffer.o
                                                  build/queue.o
                                                  build/vesc_uart.o
memset                                            /usr/share/gcc-arm-none-eabi-10-2020-q4-major/bin/../lib/gcc/arm-none-eabi/10.2.1/../../../../arm-none-eabi/lib/thumb/v7e-m+fp/hard/libc_nano.a(lib_a-memset.o)
                                                  build/sto_pll_speed_pos_fdbk.o
                                                  build/stream_buffer.o
                                                  build/main.o
                                                  /usr/share/gcc-arm-none-eabi-10-2020-q4-major/bin/../lib/gcc/arm-none-eabi/10.2.1/../../../../arm-none-eabi/lib/thumb/v7e-m+fp/hard/crt0.o
ocEvent                                           MCSDK_v6.3.2-Full/MotorControl/libMP/libmp-G4-MDK-ARM_ARMv7-M.a(mp_self_com_ctrl.o)
osAbortDelay                                      build/cmsis_os.o
osDelay                                           build/cmsis_os.o
                                                  build/main.o
osDelayUntil                                      build/cmsis_os.o
osKernelRunning                                   build/cmsis_os.o
osKernelStart                                     build/cmsis_os.o
                                                  build/main.o
osKernelSysTick                                   build/cmsis_os.o
osMailAlloc                                       build/cmsis_os.o
osMailCAlloc                                      build/cmsis_os.o
osMailCreate                                      build/cmsis_os.o
osMailFree                                        build/cmsis_os.o
osMailGet                                         build/cmsis_os.o
osMailPut                                         build/cmsis_os.o
osMessageAvailableSpace                           build/cmsis_os.o
osMessageCreate                                   build/cmsis_os.o
osMessageDelete                                   build/cmsis_os.o
osMessageGet                                      build/cmsis_os.o
osMessagePeek                                     build/cmsis_os.o
osMessagePut                                      build/cmsis_os.o
osMessageWaiting                                  build/cmsis_os.o
osMutexCreate                                     build/cmsis_os.o
osMutexDelete                                     build/cmsis_os.o
osMutexRelease                                    build/cmsis_os.o
osMutexWait                                       build/cmsis_os.o
osPoolAlloc                                       build/cmsis_os.o
osPoolCAlloc                                      build/cmsis_os.o
osPoolCreate                                      build/cmsis_os.o
osPoolFree                                        build/cmsis_os.o
osRecursiveMutexCreate                            build/cmsis_os.o
osRecursiveMutexRelease                           build/cmsis_os.o
osRecursiveMutexWait                              build/cmsis_os.o
osSemaphoreCreate                                 build/cmsis_os.o
osSemaphoreDelete                                 build/cmsis_os.o
osSemaphoreGetCount                               build/cmsis_os.o
osSemaphoreRelease                                build/cmsis_os.o
osSemaphoreWait                                   build/cmsis_os.o
osSignalSet                                       build/cmsis_os.o
osSignalWait                                      build/cmsis_os.o
osSystickHandler                                  build/cmsis_os.o
osThreadCreate                                    build/cmsis_os.o
                                                  build/main.o
osThreadGetId                                     build/cmsis_os.o
osThreadGetPriority                               build/cmsis_os.o
osThreadList                                      build/cmsis_os.o
osThreadResume                                    build/cmsis_os.o
osThreadResumeAll                                 build/cmsis_os.o
osThreadSetPriority                               build/cmsis_os.o
osThreadSuspend                                   build/cmsis_os.o
osThreadSuspendAll                                build/cmsis_os.o
osThreadTerminate                                 build/cmsis_os.o
osThreadYield                                     build/cmsis_os.o
osTimerCreate                                     build/cmsis_os.o
osTimerDelete                                     build/cmsis_os.o
osTimerStart                                      build/cmsis_os.o
osTimerStop                                       build/cmsis_os.o
pFF                                               build/mc_config.o
                                                  build/mc_tasks_foc.o
pFlash                                            build/stm32g4xx_hal_flash.o
                                                  build/stm32g4xx_hal_flash_ex.o
pMCI                                              build/motorcontrol.o
                                                  build/mc_api.o
pMPM                                              build/mc_config.o
                                                  build/register_interface.o
                                                  build/mc_tasks_foc.o
                                                  build/mc_api.o
pPIDId                                            build/mc_config.o
                                                  build/mc_tasks_foc.o
pPIDIq                                            build/mc_config.o
                                                  build/mc_tasks_foc.o
pREMNG                                            build/mc_config.o
                                                  build/mc_tasks_foc.o
pSTC                                              build/mc_config.o
                                                  build/mc_tasks_foc.o
pTemperatureSensor                                build/mc_config.o
pcQueueGetName                                    build/queue.o
pcTaskGetName                                     build/tasks.o
pvPortMalloc                                      build/heap_4.o
                                                  build/cmsis_os.o
                                                  build/tasks.o
                                                  build/stream_buffer.o
                                                  build/queue.o
                                                  build/event_groups.o
pvTaskIncrementMutexHeldCount                     build/tasks.o
                                                  build/queue.o
pwmcHandle                                        build/mc_config_common.o
                                                  MCSDK_v6.3.2-Full/MotorControl/libMP/libmp-G4-MDK-ARM_ARMv7-M.a(mp_self_com_ctrl.o)
                                                  build/mc_tasks_foc.o
                                                  build/mc_tasks.o
pxCurrentTCB                                      build/tasks.o
                                                  build/port.o
pxPortInitialiseStack                             build/port.o
                                                  build/tasks.o
safetyHandle                                      build/main.o
scaleParams_M1                                    build/mc_parameters.o
                                                  build/register_interface.o
                                                  build/mc_config.o
software_init_hook                                /usr/share/gcc-arm-none-eabi-10-2020-q4-major/bin/../lib/gcc/arm-none-eabi/10.2.1/../../../../arm-none-eabi/lib/thumb/v7e-m+fp/hard/crt0.o
startMediumFrequencyTask                          build/mc_tasks.o
                                                  build/main.o
startTimers                                       build/pwm_common.o
                                                  build/mc_tasks_foc.o
stillEvent                                        MCSDK_v6.3.2-Full/MotorControl/libMP/libmp-G4-MDK-ARM_ARMv7-M.a(mp_self_com_ctrl.o)
test_div64                                        build/div.o
test_udiv64                                       build/div.o
tx_in_progress                                    build/vesc_uart.o
                                                  build/stm32g4xx_mc_it.o
ulTaskNotifyTake                                  build/tasks.o
ulTaskNotifyValueClear                            build/tasks.o
uwTick                                            build/stm32g4xx_hal.o
uwTickFreq                                        build/stm32g4xx_hal.o
uwTickPrio                                        build/stm32g4xx_hal.o
                                                  build/stm32g4xx_hal_rcc.o
                                                  build/stm32g4xx_hal_timebase_tim.o
uxListRemove                                      build/list.o
                                                  build/tasks.o
uxQueueMessagesWaiting                            build/queue.o
                                                  build/cmsis_os.o
uxQueueMessagesWaitingFromISR                     build/queue.o
                                                  build/cmsis_os.o
uxQueueSpacesAvailable                            build/queue.o
                                                  build/cmsis_os.o
uxTaskGetNumberOfTasks                            build/tasks.o
uxTaskPriorityGet                                 build/tasks.o
                                                  build/cmsis_os.o
uxTaskPriorityGetFromISR                          build/tasks.o
                                                  build/cmsis_os.o
uxTaskResetEventItemValue                         build/tasks.o
                                                  build/event_groups.o
vEventGroupClearBitsCallback                      build/event_groups.o
vEventGroupDelete                                 build/event_groups.o
vEventGroupSetBitsCallback                        build/event_groups.o
vListInitialise                                   build/list.o
                                                  build/tasks.o
                                                  build/queue.o
                                                  build/event_groups.o
vListInitialiseItem                               build/list.o
                                                  build/tasks.o
vListInsert                                       build/list.o
                                                  build/tasks.o
vListInsertEnd                                    build/list.o
                                                  build/tasks.o
vPortEndScheduler                                 build/port.o
                                                  build/tasks.o
vPortEnterCritical                                build/port.o
                                                  build/heap_4.o
                                                  build/cmsis_os.o
                                                  build/tasks.o
                                                  build/stream_buffer.o
                                                  build/queue.o
                                                  build/event_groups.o
vPortExitCritical                                 build/port.o
                                                  build/heap_4.o
                                                  build/cmsis_os.o
                                                  build/tasks.o
                                                  build/stream_buffer.o
                                                  build/queue.o
                                                  build/event_groups.o
vPortFree                                         build/heap_4.o
                                                  build/cmsis_os.o
                                                  build/tasks.o
                                                  build/stream_buffer.o
                                                  build/queue.o
                                                  build/event_groups.o
vPortGetHeapStats                                 build/heap_4.o
vPortInitialiseBlocks                             build/heap_4.o
vPortSetupTimerInterrupt                          build/motorcontrol.o
vPortValidateInterruptPriority                    build/port.o
                                                  build/tasks.o
                                                  build/queue.o
vQueueAddToRegistry                               build/queue.o
vQueueDelete                                      build/queue.o
                                                  build/cmsis_os.o
vQueueUnregisterQueue                             build/queue.o
vStreamBufferDelete                               build/stream_buffer.o
vTaskDelay                                        build/tasks.o
                                                  build/cmsis_os.o
                                                  build/mc_tasks.o
vTaskDelete                                       build/tasks.o
                                                  build/cmsis_os.o
vTaskEndScheduler                                 build/tasks.o
vTaskInternalSetTimeOutState                      build/tasks.o
                                                  build/queue.o
vTaskMissedYield                                  build/tasks.o
                                                  build/queue.o
vTaskNotifyGiveFromISR                            build/tasks.o
vTaskPlaceOnEventList                             build/tasks.o
                                                  build/queue.o
vTaskPlaceOnUnorderedEventList                    build/tasks.o
                                                  build/event_groups.o
vTaskPriorityDisinheritAfterTimeout               build/tasks.o
                                                  build/queue.o
vTaskPrioritySet                                  build/tasks.o
                                                  build/cmsis_os.o
vTaskRemoveFromUnorderedEventList                 build/tasks.o
                                                  build/event_groups.o
vTaskResume                                       build/tasks.o
                                                  build/cmsis_os.o
vTaskSetTimeOutState                              build/tasks.o
                                                  build/stream_buffer.o
vTaskStartScheduler                               build/tasks.o
                                                  build/cmsis_os.o
vTaskSuspend                                      build/tasks.o
                                                  build/cmsis_os.o
vTaskSuspendAll                                   build/tasks.o
                                                  build/heap_4.o
                                                  build/cmsis_os.o
                                                  build/stream_buffer.o
                                                  build/queue.o
                                                  build/event_groups.o
vTaskSwitchContext                                build/tasks.o
                                                  build/port.o
waitForPolarizationEnd                            build/pwm_common.o
                                                  build/r3_2_g4xx_pwm_curr_fdbk.o
xEventGroupClearBits                              build/event_groups.o
xEventGroupCreate                                 build/event_groups.o
xEventGroupGetBitsFromISR                         build/event_groups.o
xEventGroupSetBits                                build/event_groups.o
xEventGroupSync                                   build/event_groups.o
xEventGroupWaitBits                               build/event_groups.o
xPortGetFreeHeapSize                              build/heap_4.o
xPortGetMinimumEverFreeHeapSize                   build/heap_4.o
xPortStartScheduler                               build/port.o
                                                  build/tasks.o
xQueueCreateMutex                                 build/queue.o
                                                  build/cmsis_os.o
xQueueGenericCreate                               build/queue.o
                                                  build/cmsis_os.o
xQueueGenericReset                                build/queue.o
xQueueGenericSend                                 build/queue.o
                                                  build/cmsis_os.o
xQueueGenericSendFromISR                          build/queue.o
                                                  build/cmsis_os.o
xQueueGiveFromISR                                 build/queue.o
                                                  build/cmsis_os.o
xQueueIsQueueEmptyFromISR                         build/queue.o
xQueueIsQueueFullFromISR                          build/queue.o
xQueuePeek                                        build/queue.o
                                                  build/cmsis_os.o
xQueuePeekFromISR                                 build/queue.o
xQueueReceive                                     build/queue.o
                                                  build/cmsis_os.o
xQueueReceiveFromISR                              build/queue.o
                                                  build/cmsis_os.o
xQueueRegistry                                    build/queue.o
xQueueSemaphoreTake                               build/queue.o
                                                  build/cmsis_os.o
xStreamBufferBytesAvailable                       build/stream_buffer.o
xStreamBufferGenericCreate                        build/stream_buffer.o
xStreamBufferIsEmpty                              build/stream_buffer.o
xStreamBufferIsFull                               build/stream_buffer.o
xStreamBufferNextMessageLengthBytes               build/stream_buffer.o
xStreamBufferReceive                              build/stream_buffer.o
xStreamBufferReceiveCompletedFromISR              build/stream_buffer.o
xStreamBufferReceiveFromISR                       build/stream_buffer.o
xStreamBufferReset                                build/stream_buffer.o
xStreamBufferSend                                 build/stream_buffer.o
xStreamBufferSendCompletedFromISR                 build/stream_buffer.o
xStreamBufferSendFromISR                          build/stream_buffer.o
xStreamBufferSetTriggerLevel                      build/stream_buffer.o
xStreamBufferSpacesAvailable                      build/stream_buffer.o
xTaskCatchUpTicks                                 build/tasks.o
xTaskCheckForTimeOut                              build/tasks.o
                                                  build/stream_buffer.o
                                                  build/queue.o
xTaskCreate                                       build/tasks.o
                                                  build/cmsis_os.o
xTaskGenericNotify                                build/tasks.o
                                                  build/cmsis_os.o
                                                  build/stream_buffer.o
xTaskGenericNotifyFromISR                         build/tasks.o
                                                  build/cmsis_os.o
                                                  build/stream_buffer.o
xTaskGetCurrentTaskHandle                         build/tasks.o
                                                  build/cmsis_os.o
                                                  build/stream_buffer.o
xTaskGetSchedulerState                            build/tasks.o
                                                  build/cmsis_os.o
                                                  build/queue.o
                                                  build/event_groups.o
xTaskGetTickCount                                 build/tasks.o
                                                  build/cmsis_os.o
xTaskGetTickCountFromISR                          build/tasks.o
                                                  build/cmsis_os.o
xTaskIncrementTick                                build/tasks.o
                                                  build/port.o
xTaskNotifyStateClear                             build/tasks.o
                                                  build/stream_buffer.o
xTaskNotifyWait                                   build/tasks.o
                                                  build/cmsis_os.o
                                                  build/stream_buffer.o
xTaskPriorityDisinherit                           build/tasks.o
                                                  build/queue.o
xTaskPriorityInherit                              build/tasks.o
                                                  build/queue.o
xTaskRemoveFromEventList                          build/tasks.o
                                                  build/queue.o
xTaskResumeAll                                    build/tasks.o
                                                  build/heap_4.o
                                                  build/cmsis_os.o
                                                  build/stream_buffer.o
                                                  build/queue.o
                                                  build/event_groups.o
xTaskResumeFromISR                                build/tasks.o
                                                  build/cmsis_os.o
