ARM GAS  /tmp/cc6nzUni.s 			page 1


   1              		.cpu cortex-m4
   2              		.eabi_attribute 27, 1
   3              		.eabi_attribute 28, 1
   4              		.eabi_attribute 20, 1
   5              		.eabi_attribute 21, 1
   6              		.eabi_attribute 23, 3
   7              		.eabi_attribute 24, 1
   8              		.eabi_attribute 25, 1
   9              		.eabi_attribute 26, 1
  10              		.eabi_attribute 30, 1
  11              		.eabi_attribute 34, 1
  12              		.eabi_attribute 18, 2
  13              		.file	"feed_forward_ctrl.c"
  14              		.text
  15              	.Ltext0:
  16              		.cfi_sections	.debug_frame
  17              		.section	.text.FF_Init,"ax",%progbits
  18              		.align	1
  19              		.weak	FF_Init
  20              		.arch armv7e-m
  21              		.syntax unified
  22              		.thumb
  23              		.thumb_func
  24              		.fpu fpv4-sp-d16
  26              	FF_Init:
  27              	.LVL0:
  28              	.LFB1447:
  29              		.file 1 "MCSDK_v6.3.2-Full/MotorControl/MCSDK/MCLib/Any/Src/feed_forward_ctrl.c"
   1:MCSDK_v6.3.2-Full/MotorControl/MCSDK/MCLib/Any/Src/feed_forward_ctrl.c **** /**
   2:MCSDK_v6.3.2-Full/MotorControl/MCSDK/MCLib/Any/Src/feed_forward_ctrl.c ****   ******************************************************************************
   3:MCSDK_v6.3.2-Full/MotorControl/MCSDK/MCLib/Any/Src/feed_forward_ctrl.c ****   * @file    feed_forward_ctrl.c
   4:MCSDK_v6.3.2-Full/MotorControl/MCSDK/MCLib/Any/Src/feed_forward_ctrl.c ****   * @author  Motor Control SDK Team, ST Microelectronics
   5:MCSDK_v6.3.2-Full/MotorControl/MCSDK/MCLib/Any/Src/feed_forward_ctrl.c ****   * @brief   This file provides firmware functions that implement the Feed-forward
   6:MCSDK_v6.3.2-Full/MotorControl/MCSDK/MCLib/Any/Src/feed_forward_ctrl.c ****   *          Control component of the Motor Control SDK.
   7:MCSDK_v6.3.2-Full/MotorControl/MCSDK/MCLib/Any/Src/feed_forward_ctrl.c ****   *
   8:MCSDK_v6.3.2-Full/MotorControl/MCSDK/MCLib/Any/Src/feed_forward_ctrl.c ****   ******************************************************************************
   9:MCSDK_v6.3.2-Full/MotorControl/MCSDK/MCLib/Any/Src/feed_forward_ctrl.c ****   * @attention
  10:MCSDK_v6.3.2-Full/MotorControl/MCSDK/MCLib/Any/Src/feed_forward_ctrl.c ****   *
  11:MCSDK_v6.3.2-Full/MotorControl/MCSDK/MCLib/Any/Src/feed_forward_ctrl.c ****   * <h2><center>&copy; Copyright (c) 2024 STMicroelectronics International N.V.
  12:MCSDK_v6.3.2-Full/MotorControl/MCSDK/MCLib/Any/Src/feed_forward_ctrl.c ****   * All rights reserved.</center></h2>
  13:MCSDK_v6.3.2-Full/MotorControl/MCSDK/MCLib/Any/Src/feed_forward_ctrl.c ****   *
  14:MCSDK_v6.3.2-Full/MotorControl/MCSDK/MCLib/Any/Src/feed_forward_ctrl.c ****   * Redistribution and use in source and binary forms, with or without
  15:MCSDK_v6.3.2-Full/MotorControl/MCSDK/MCLib/Any/Src/feed_forward_ctrl.c ****   * modification, are permitted, provided that the following conditions are met:
  16:MCSDK_v6.3.2-Full/MotorControl/MCSDK/MCLib/Any/Src/feed_forward_ctrl.c ****   *
  17:MCSDK_v6.3.2-Full/MotorControl/MCSDK/MCLib/Any/Src/feed_forward_ctrl.c ****   * 1. Redistribution of source code must retain the above copyright notice,
  18:MCSDK_v6.3.2-Full/MotorControl/MCSDK/MCLib/Any/Src/feed_forward_ctrl.c ****   *    this list of conditions and the following disclaimer.
  19:MCSDK_v6.3.2-Full/MotorControl/MCSDK/MCLib/Any/Src/feed_forward_ctrl.c ****   * 2. Redistributions in binary form must reproduce the above copyright notice,
  20:MCSDK_v6.3.2-Full/MotorControl/MCSDK/MCLib/Any/Src/feed_forward_ctrl.c ****   *    this list of conditions and the following disclaimer in the documentation
  21:MCSDK_v6.3.2-Full/MotorControl/MCSDK/MCLib/Any/Src/feed_forward_ctrl.c ****   *    and/or other materials provided with the distribution.
  22:MCSDK_v6.3.2-Full/MotorControl/MCSDK/MCLib/Any/Src/feed_forward_ctrl.c ****   * 3. Neither the name of STMicroelectronics nor the names of other
  23:MCSDK_v6.3.2-Full/MotorControl/MCSDK/MCLib/Any/Src/feed_forward_ctrl.c ****   *    contributors to this software may be used to endorse or promote products
  24:MCSDK_v6.3.2-Full/MotorControl/MCSDK/MCLib/Any/Src/feed_forward_ctrl.c ****   *    derived from this software without specific written permission.
  25:MCSDK_v6.3.2-Full/MotorControl/MCSDK/MCLib/Any/Src/feed_forward_ctrl.c ****   * 4. This software, including modifications and/or derivative works of this
  26:MCSDK_v6.3.2-Full/MotorControl/MCSDK/MCLib/Any/Src/feed_forward_ctrl.c ****   *    software, must execute solely and exclusively on microcontroller or
  27:MCSDK_v6.3.2-Full/MotorControl/MCSDK/MCLib/Any/Src/feed_forward_ctrl.c ****   *    microprocessor devices manufactured by or for STMicroelectronics.
  28:MCSDK_v6.3.2-Full/MotorControl/MCSDK/MCLib/Any/Src/feed_forward_ctrl.c ****   * 5. Redistribution and use of this software other than as permitted under
  29:MCSDK_v6.3.2-Full/MotorControl/MCSDK/MCLib/Any/Src/feed_forward_ctrl.c ****   *    this license is void and will automatically terminate your rights under
ARM GAS  /tmp/cc6nzUni.s 			page 2


  30:MCSDK_v6.3.2-Full/MotorControl/MCSDK/MCLib/Any/Src/feed_forward_ctrl.c ****   *    this license.
  31:MCSDK_v6.3.2-Full/MotorControl/MCSDK/MCLib/Any/Src/feed_forward_ctrl.c ****   *
  32:MCSDK_v6.3.2-Full/MotorControl/MCSDK/MCLib/Any/Src/feed_forward_ctrl.c ****   * THIS SOFTWARE IS PROVIDED BY STMICROELECTRONICS AND CONTRIBUTORS "AS IS"
  33:MCSDK_v6.3.2-Full/MotorControl/MCSDK/MCLib/Any/Src/feed_forward_ctrl.c ****   * AND ANY EXPRESS, IMPLIED OR STATUTORY WARRANTIES, INCLUDING, BUT NOT
  34:MCSDK_v6.3.2-Full/MotorControl/MCSDK/MCLib/Any/Src/feed_forward_ctrl.c ****   * LIMITED TO, THE IMPLIED WARRANTIES OF MERCHANTABILITY, FITNESS FOR A
  35:MCSDK_v6.3.2-Full/MotorControl/MCSDK/MCLib/Any/Src/feed_forward_ctrl.c ****   * PARTICULAR PURPOSE AND NON-INFRINGEMENT OF THIRD PARTY INTELLECTUAL PROPERTY
  36:MCSDK_v6.3.2-Full/MotorControl/MCSDK/MCLib/Any/Src/feed_forward_ctrl.c ****   * RIGHTS ARE DISCLAIMED TO THE FULLEST EXTENT PERMITTED BY LAW. IN NO EVENT
  37:MCSDK_v6.3.2-Full/MotorControl/MCSDK/MCLib/Any/Src/feed_forward_ctrl.c ****   * SHALL STMICROELECTRONICS OR CONTRIBUTORS BE LIABLE FOR ANY DIRECT, INDIRECT,
  38:MCSDK_v6.3.2-Full/MotorControl/MCSDK/MCLib/Any/Src/feed_forward_ctrl.c ****   * INCIDENTAL, SPECIAL, EXEMPLARY, OR CONSEQUENTIAL DAMAGES (INCLUDING, BUT NOT
  39:MCSDK_v6.3.2-Full/MotorControl/MCSDK/MCLib/Any/Src/feed_forward_ctrl.c ****   * LIMITED TO, PROCUREMENT OF SUBSTITUTE GOODS OR SERVICES; LOSS OF USE, DATA,
  40:MCSDK_v6.3.2-Full/MotorControl/MCSDK/MCLib/Any/Src/feed_forward_ctrl.c ****   * OR PROFITS; OR BUSINESS INTERRUPTION) HOWEVER CAUSED AND ON ANY THEORY OF
  41:MCSDK_v6.3.2-Full/MotorControl/MCSDK/MCLib/Any/Src/feed_forward_ctrl.c ****   * LIABILITY, WHETHER IN CONTRACT, STRICT LIABILITY, OR TORT (INCLUDING
  42:MCSDK_v6.3.2-Full/MotorControl/MCSDK/MCLib/Any/Src/feed_forward_ctrl.c ****   * NEGLIGENCE OR OTHERWISE) ARISING IN ANY WAY OUT OF THE USE OF THIS SOFTWARE,
  43:MCSDK_v6.3.2-Full/MotorControl/MCSDK/MCLib/Any/Src/feed_forward_ctrl.c ****   * EVEN IF ADVISED OF THE POSSIBILITY OF SUCH DAMAGE.
  44:MCSDK_v6.3.2-Full/MotorControl/MCSDK/MCLib/Any/Src/feed_forward_ctrl.c ****   *
  45:MCSDK_v6.3.2-Full/MotorControl/MCSDK/MCLib/Any/Src/feed_forward_ctrl.c ****   ******************************************************************************
  46:MCSDK_v6.3.2-Full/MotorControl/MCSDK/MCLib/Any/Src/feed_forward_ctrl.c ****   * @ingroup FeedForwardCtrl
  47:MCSDK_v6.3.2-Full/MotorControl/MCSDK/MCLib/Any/Src/feed_forward_ctrl.c ****   */
  48:MCSDK_v6.3.2-Full/MotorControl/MCSDK/MCLib/Any/Src/feed_forward_ctrl.c **** 
  49:MCSDK_v6.3.2-Full/MotorControl/MCSDK/MCLib/Any/Src/feed_forward_ctrl.c **** /* Includes ------------------------------------------------------------------*/
  50:MCSDK_v6.3.2-Full/MotorControl/MCSDK/MCLib/Any/Src/feed_forward_ctrl.c **** #include "feed_forward_ctrl.h"
  51:MCSDK_v6.3.2-Full/MotorControl/MCSDK/MCLib/Any/Src/feed_forward_ctrl.c **** #include <stddef.h>
  52:MCSDK_v6.3.2-Full/MotorControl/MCSDK/MCLib/Any/Src/feed_forward_ctrl.c **** 
  53:MCSDK_v6.3.2-Full/MotorControl/MCSDK/MCLib/Any/Src/feed_forward_ctrl.c **** #include "mc_type.h"
  54:MCSDK_v6.3.2-Full/MotorControl/MCSDK/MCLib/Any/Src/feed_forward_ctrl.c **** #include "bus_voltage_sensor.h"
  55:MCSDK_v6.3.2-Full/MotorControl/MCSDK/MCLib/Any/Src/feed_forward_ctrl.c **** #include "speed_pos_fdbk.h"
  56:MCSDK_v6.3.2-Full/MotorControl/MCSDK/MCLib/Any/Src/feed_forward_ctrl.c **** #include "speed_torq_ctrl.h"
  57:MCSDK_v6.3.2-Full/MotorControl/MCSDK/MCLib/Any/Src/feed_forward_ctrl.c **** #include "r_divider_bus_voltage_sensor.h"
  58:MCSDK_v6.3.2-Full/MotorControl/MCSDK/MCLib/Any/Src/feed_forward_ctrl.c **** 
  59:MCSDK_v6.3.2-Full/MotorControl/MCSDK/MCLib/Any/Src/feed_forward_ctrl.c **** /** @addtogroup MCSDK
  60:MCSDK_v6.3.2-Full/MotorControl/MCSDK/MCLib/Any/Src/feed_forward_ctrl.c ****   * @{
  61:MCSDK_v6.3.2-Full/MotorControl/MCSDK/MCLib/Any/Src/feed_forward_ctrl.c ****   */
  62:MCSDK_v6.3.2-Full/MotorControl/MCSDK/MCLib/Any/Src/feed_forward_ctrl.c **** 
  63:MCSDK_v6.3.2-Full/MotorControl/MCSDK/MCLib/Any/Src/feed_forward_ctrl.c **** /** @defgroup FeedForwardCtrl Feed-forward Control
  64:MCSDK_v6.3.2-Full/MotorControl/MCSDK/MCLib/Any/Src/feed_forward_ctrl.c ****   * @brief Feed-forward Control component of the Motor Control SDK
  65:MCSDK_v6.3.2-Full/MotorControl/MCSDK/MCLib/Any/Src/feed_forward_ctrl.c ****   *
  66:MCSDK_v6.3.2-Full/MotorControl/MCSDK/MCLib/Any/Src/feed_forward_ctrl.c ****   * See the [Feed-forward chapter of the User Manual](feed_forward_current_regulation.md) for more 
  67:MCSDK_v6.3.2-Full/MotorControl/MCSDK/MCLib/Any/Src/feed_forward_ctrl.c ****   * background of this regulator.
  68:MCSDK_v6.3.2-Full/MotorControl/MCSDK/MCLib/Any/Src/feed_forward_ctrl.c ****   * @{
  69:MCSDK_v6.3.2-Full/MotorControl/MCSDK/MCLib/Any/Src/feed_forward_ctrl.c ****   */
  70:MCSDK_v6.3.2-Full/MotorControl/MCSDK/MCLib/Any/Src/feed_forward_ctrl.c **** 
  71:MCSDK_v6.3.2-Full/MotorControl/MCSDK/MCLib/Any/Src/feed_forward_ctrl.c **** /* Private macros ------------------------------------------------------------*/
  72:MCSDK_v6.3.2-Full/MotorControl/MCSDK/MCLib/Any/Src/feed_forward_ctrl.c **** #define SEGMNUM (uint8_t)7 /* coeff no. -1 */
  73:MCSDK_v6.3.2-Full/MotorControl/MCSDK/MCLib/Any/Src/feed_forward_ctrl.c **** #define SATURATION_TO_S16(a)    if ((a) > 32767)                \
  74:MCSDK_v6.3.2-Full/MotorControl/MCSDK/MCLib/Any/Src/feed_forward_ctrl.c ****   {                               \
  75:MCSDK_v6.3.2-Full/MotorControl/MCSDK/MCLib/Any/Src/feed_forward_ctrl.c ****     (a) = 32767;                  \
  76:MCSDK_v6.3.2-Full/MotorControl/MCSDK/MCLib/Any/Src/feed_forward_ctrl.c ****   }                               \
  77:MCSDK_v6.3.2-Full/MotorControl/MCSDK/MCLib/Any/Src/feed_forward_ctrl.c ****   else if ((a) < -32767)          \
  78:MCSDK_v6.3.2-Full/MotorControl/MCSDK/MCLib/Any/Src/feed_forward_ctrl.c ****   {                               \
  79:MCSDK_v6.3.2-Full/MotorControl/MCSDK/MCLib/Any/Src/feed_forward_ctrl.c ****     (a) = -32767;                 \
  80:MCSDK_v6.3.2-Full/MotorControl/MCSDK/MCLib/Any/Src/feed_forward_ctrl.c ****   }                               \
  81:MCSDK_v6.3.2-Full/MotorControl/MCSDK/MCLib/Any/Src/feed_forward_ctrl.c ****   else                            \
  82:MCSDK_v6.3.2-Full/MotorControl/MCSDK/MCLib/Any/Src/feed_forward_ctrl.c ****   {}                              \
  83:MCSDK_v6.3.2-Full/MotorControl/MCSDK/MCLib/Any/Src/feed_forward_ctrl.c **** 
  84:MCSDK_v6.3.2-Full/MotorControl/MCSDK/MCLib/Any/Src/feed_forward_ctrl.c **** 
  85:MCSDK_v6.3.2-Full/MotorControl/MCSDK/MCLib/Any/Src/feed_forward_ctrl.c **** 
  86:MCSDK_v6.3.2-Full/MotorControl/MCSDK/MCLib/Any/Src/feed_forward_ctrl.c **** 
ARM GAS  /tmp/cc6nzUni.s 			page 3


  87:MCSDK_v6.3.2-Full/MotorControl/MCSDK/MCLib/Any/Src/feed_forward_ctrl.c **** /**
  88:MCSDK_v6.3.2-Full/MotorControl/MCSDK/MCLib/Any/Src/feed_forward_ctrl.c ****   * @brief  Initializes all the component variables
  89:MCSDK_v6.3.2-Full/MotorControl/MCSDK/MCLib/Any/Src/feed_forward_ctrl.c ****   * @param  pHandle Feed-forward init structure.
  90:MCSDK_v6.3.2-Full/MotorControl/MCSDK/MCLib/Any/Src/feed_forward_ctrl.c ****   * @param  pBusSensor VBus Sensor.
  91:MCSDK_v6.3.2-Full/MotorControl/MCSDK/MCLib/Any/Src/feed_forward_ctrl.c ****   * @param  pPIDId Id PID structure.
  92:MCSDK_v6.3.2-Full/MotorControl/MCSDK/MCLib/Any/Src/feed_forward_ctrl.c ****   * @param  pPIDIq Iq PID structure.
  93:MCSDK_v6.3.2-Full/MotorControl/MCSDK/MCLib/Any/Src/feed_forward_ctrl.c ****   */
  94:MCSDK_v6.3.2-Full/MotorControl/MCSDK/MCLib/Any/Src/feed_forward_ctrl.c **** __weak void FF_Init(FF_Handle_t *pHandle, BusVoltageSensor_Handle_t *pBusSensor, PID_Handle_t *pPID
  95:MCSDK_v6.3.2-Full/MotorControl/MCSDK/MCLib/Any/Src/feed_forward_ctrl.c ****                     PID_Handle_t *pPIDIq)
  96:MCSDK_v6.3.2-Full/MotorControl/MCSDK/MCLib/Any/Src/feed_forward_ctrl.c **** {
  30              		.loc 1 96 1 view -0
  31              		.cfi_startproc
  32              		@ args = 0, pretend = 0, frame = 0
  33              		@ frame_needed = 0, uses_anonymous_args = 0
  34              		@ link register save eliminated.
  35              		.loc 1 96 1 is_stmt 0 view .LVU1
  36 0000 10B4     		push	{r4}
  37              	.LCFI0:
  38              		.cfi_def_cfa_offset 4
  39              		.cfi_offset 4, -4
  97:MCSDK_v6.3.2-Full/MotorControl/MCSDK/MCLib/Any/Src/feed_forward_ctrl.c **** #ifdef NULL_PTR_CHECK_FEED_FWD_CTRL
  98:MCSDK_v6.3.2-Full/MotorControl/MCSDK/MCLib/Any/Src/feed_forward_ctrl.c ****   if (NULL == pHandle)
  99:MCSDK_v6.3.2-Full/MotorControl/MCSDK/MCLib/Any/Src/feed_forward_ctrl.c ****   {
 100:MCSDK_v6.3.2-Full/MotorControl/MCSDK/MCLib/Any/Src/feed_forward_ctrl.c ****     /* Nothing to do */
 101:MCSDK_v6.3.2-Full/MotorControl/MCSDK/MCLib/Any/Src/feed_forward_ctrl.c ****   }
 102:MCSDK_v6.3.2-Full/MotorControl/MCSDK/MCLib/Any/Src/feed_forward_ctrl.c ****   else
 103:MCSDK_v6.3.2-Full/MotorControl/MCSDK/MCLib/Any/Src/feed_forward_ctrl.c ****   {
 104:MCSDK_v6.3.2-Full/MotorControl/MCSDK/MCLib/Any/Src/feed_forward_ctrl.c **** #endif
 105:MCSDK_v6.3.2-Full/MotorControl/MCSDK/MCLib/Any/Src/feed_forward_ctrl.c ****     pHandle->wConstant_1D = pHandle->wDefConstant_1D;
  40              		.loc 1 105 5 is_stmt 1 view .LVU2
  41              		.loc 1 105 27 is_stmt 0 view .LVU3
  42 0002 846A     		ldr	r4, [r0, #40]
  43 0004 C460     		str	r4, [r0, #12]
 106:MCSDK_v6.3.2-Full/MotorControl/MCSDK/MCLib/Any/Src/feed_forward_ctrl.c ****     pHandle->wConstant_1Q = pHandle->wDefConstant_1Q;
  44              		.loc 1 106 5 is_stmt 1 view .LVU4
  45              		.loc 1 106 27 is_stmt 0 view .LVU5
  46 0006 C46A     		ldr	r4, [r0, #44]
  47 0008 0461     		str	r4, [r0, #16]
 107:MCSDK_v6.3.2-Full/MotorControl/MCSDK/MCLib/Any/Src/feed_forward_ctrl.c ****     pHandle->wConstant_2  = pHandle->wDefConstant_2;
  48              		.loc 1 107 5 is_stmt 1 view .LVU6
  49              		.loc 1 107 27 is_stmt 0 view .LVU7
  50 000a 046B     		ldr	r4, [r0, #48]
  51 000c 4461     		str	r4, [r0, #20]
 108:MCSDK_v6.3.2-Full/MotorControl/MCSDK/MCLib/Any/Src/feed_forward_ctrl.c **** 
 109:MCSDK_v6.3.2-Full/MotorControl/MCSDK/MCLib/Any/Src/feed_forward_ctrl.c ****     pHandle->pBus_Sensor = pBusSensor;
  52              		.loc 1 109 5 is_stmt 1 view .LVU8
  53              		.loc 1 109 26 is_stmt 0 view .LVU9
  54 000e 8161     		str	r1, [r0, #24]
 110:MCSDK_v6.3.2-Full/MotorControl/MCSDK/MCLib/Any/Src/feed_forward_ctrl.c **** 
 111:MCSDK_v6.3.2-Full/MotorControl/MCSDK/MCLib/Any/Src/feed_forward_ctrl.c ****     pHandle->pPID_d = pPIDId;
  55              		.loc 1 111 5 is_stmt 1 view .LVU10
  56              		.loc 1 111 21 is_stmt 0 view .LVU11
  57 0010 0262     		str	r2, [r0, #32]
 112:MCSDK_v6.3.2-Full/MotorControl/MCSDK/MCLib/Any/Src/feed_forward_ctrl.c **** 
 113:MCSDK_v6.3.2-Full/MotorControl/MCSDK/MCLib/Any/Src/feed_forward_ctrl.c ****     pHandle->pPID_q = pPIDIq;
  58              		.loc 1 113 5 is_stmt 1 view .LVU12
  59              		.loc 1 113 21 is_stmt 0 view .LVU13
ARM GAS  /tmp/cc6nzUni.s 			page 4


  60 0012 C361     		str	r3, [r0, #28]
 114:MCSDK_v6.3.2-Full/MotorControl/MCSDK/MCLib/Any/Src/feed_forward_ctrl.c **** #ifdef NULL_PTR_CHECK_FEED_FWD_CTRL
 115:MCSDK_v6.3.2-Full/MotorControl/MCSDK/MCLib/Any/Src/feed_forward_ctrl.c ****   }
 116:MCSDK_v6.3.2-Full/MotorControl/MCSDK/MCLib/Any/Src/feed_forward_ctrl.c **** #endif
 117:MCSDK_v6.3.2-Full/MotorControl/MCSDK/MCLib/Any/Src/feed_forward_ctrl.c **** }
  61              		.loc 1 117 1 view .LVU14
  62 0014 5DF8044B 		ldr	r4, [sp], #4
  63              	.LCFI1:
  64              		.cfi_restore 4
  65              		.cfi_def_cfa_offset 0
  66 0018 7047     		bx	lr
  67              		.cfi_endproc
  68              	.LFE1447:
  70              		.section	.text.FF_Clear,"ax",%progbits
  71              		.align	1
  72              		.weak	FF_Clear
  73              		.syntax unified
  74              		.thumb
  75              		.thumb_func
  76              		.fpu fpv4-sp-d16
  78              	FF_Clear:
  79              	.LVL1:
  80              	.LFB1448:
 118:MCSDK_v6.3.2-Full/MotorControl/MCSDK/MCLib/Any/Src/feed_forward_ctrl.c **** 
 119:MCSDK_v6.3.2-Full/MotorControl/MCSDK/MCLib/Any/Src/feed_forward_ctrl.c **** /**
 120:MCSDK_v6.3.2-Full/MotorControl/MCSDK/MCLib/Any/Src/feed_forward_ctrl.c ****   * @brief  It should be called before each motor start and clears the Feed-forward
 121:MCSDK_v6.3.2-Full/MotorControl/MCSDK/MCLib/Any/Src/feed_forward_ctrl.c ****   *         internal variables.
 122:MCSDK_v6.3.2-Full/MotorControl/MCSDK/MCLib/Any/Src/feed_forward_ctrl.c ****   * @param  pHandle Feed-forward structure.
 123:MCSDK_v6.3.2-Full/MotorControl/MCSDK/MCLib/Any/Src/feed_forward_ctrl.c ****   */
 124:MCSDK_v6.3.2-Full/MotorControl/MCSDK/MCLib/Any/Src/feed_forward_ctrl.c **** __weak void FF_Clear(FF_Handle_t *pHandle)
 125:MCSDK_v6.3.2-Full/MotorControl/MCSDK/MCLib/Any/Src/feed_forward_ctrl.c **** {
  81              		.loc 1 125 1 is_stmt 1 view -0
  82              		.cfi_startproc
  83              		@ args = 0, pretend = 0, frame = 0
  84              		@ frame_needed = 0, uses_anonymous_args = 0
  85              		@ link register save eliminated.
 126:MCSDK_v6.3.2-Full/MotorControl/MCSDK/MCLib/Any/Src/feed_forward_ctrl.c **** #ifdef NULL_PTR_CHECK_FEED_FWD_CTRL
 127:MCSDK_v6.3.2-Full/MotorControl/MCSDK/MCLib/Any/Src/feed_forward_ctrl.c ****   if (NULL == pHandle)
 128:MCSDK_v6.3.2-Full/MotorControl/MCSDK/MCLib/Any/Src/feed_forward_ctrl.c ****   {
 129:MCSDK_v6.3.2-Full/MotorControl/MCSDK/MCLib/Any/Src/feed_forward_ctrl.c ****     /* Nothing to do */
 130:MCSDK_v6.3.2-Full/MotorControl/MCSDK/MCLib/Any/Src/feed_forward_ctrl.c ****   }
 131:MCSDK_v6.3.2-Full/MotorControl/MCSDK/MCLib/Any/Src/feed_forward_ctrl.c ****   else
 132:MCSDK_v6.3.2-Full/MotorControl/MCSDK/MCLib/Any/Src/feed_forward_ctrl.c ****   {
 133:MCSDK_v6.3.2-Full/MotorControl/MCSDK/MCLib/Any/Src/feed_forward_ctrl.c **** #endif
 134:MCSDK_v6.3.2-Full/MotorControl/MCSDK/MCLib/Any/Src/feed_forward_ctrl.c ****     pHandle->Vqdff.q = (int16_t)0;
  86              		.loc 1 134 5 view .LVU16
  87              		.loc 1 134 22 is_stmt 0 view .LVU17
  88 0000 0023     		movs	r3, #0
  89 0002 0380     		strh	r3, [r0]	@ movhi
 135:MCSDK_v6.3.2-Full/MotorControl/MCSDK/MCLib/Any/Src/feed_forward_ctrl.c ****     pHandle->Vqdff.d = (int16_t)0;
  90              		.loc 1 135 5 is_stmt 1 view .LVU18
  91              		.loc 1 135 22 is_stmt 0 view .LVU19
  92 0004 4380     		strh	r3, [r0, #2]	@ movhi
 136:MCSDK_v6.3.2-Full/MotorControl/MCSDK/MCLib/Any/Src/feed_forward_ctrl.c **** #ifdef NULL_PTR_CHECK_FEED_FWD_CTRL
 137:MCSDK_v6.3.2-Full/MotorControl/MCSDK/MCLib/Any/Src/feed_forward_ctrl.c ****   }
 138:MCSDK_v6.3.2-Full/MotorControl/MCSDK/MCLib/Any/Src/feed_forward_ctrl.c **** #endif
 139:MCSDK_v6.3.2-Full/MotorControl/MCSDK/MCLib/Any/Src/feed_forward_ctrl.c **** }
ARM GAS  /tmp/cc6nzUni.s 			page 5


  93              		.loc 1 139 1 view .LVU20
  94 0006 7047     		bx	lr
  95              		.cfi_endproc
  96              	.LFE1448:
  98              		.section	.text.FF_VqdffComputation,"ax",%progbits
  99              		.align	1
 100              		.weak	FF_VqdffComputation
 101              		.syntax unified
 102              		.thumb
 103              		.thumb_func
 104              		.fpu fpv4-sp-d16
 106              	FF_VqdffComputation:
 107              	.LVL2:
 108              	.LFB1449:
 140:MCSDK_v6.3.2-Full/MotorControl/MCSDK/MCLib/Any/Src/feed_forward_ctrl.c **** 
 141:MCSDK_v6.3.2-Full/MotorControl/MCSDK/MCLib/Any/Src/feed_forward_ctrl.c **** /**
 142:MCSDK_v6.3.2-Full/MotorControl/MCSDK/MCLib/Any/Src/feed_forward_ctrl.c ****   * @brief  It implements Feed-forward controller by computing new Vqdff value.
 143:MCSDK_v6.3.2-Full/MotorControl/MCSDK/MCLib/Any/Src/feed_forward_ctrl.c ****   *         This will be then summed up to PI output in FF_VqdConditioning
 144:MCSDK_v6.3.2-Full/MotorControl/MCSDK/MCLib/Any/Src/feed_forward_ctrl.c ****   *         method.
 145:MCSDK_v6.3.2-Full/MotorControl/MCSDK/MCLib/Any/Src/feed_forward_ctrl.c ****   * @param  pHandle Feed-forward structure.
 146:MCSDK_v6.3.2-Full/MotorControl/MCSDK/MCLib/Any/Src/feed_forward_ctrl.c ****   * @param  Iqdref Iqd reference components used to calculate the Feed-forward
 147:MCSDK_v6.3.2-Full/MotorControl/MCSDK/MCLib/Any/Src/feed_forward_ctrl.c ****   *         action.
 148:MCSDK_v6.3.2-Full/MotorControl/MCSDK/MCLib/Any/Src/feed_forward_ctrl.c ****   * @param  pSTC Pointer on speed and torque controller structure.
 149:MCSDK_v6.3.2-Full/MotorControl/MCSDK/MCLib/Any/Src/feed_forward_ctrl.c ****   */
 150:MCSDK_v6.3.2-Full/MotorControl/MCSDK/MCLib/Any/Src/feed_forward_ctrl.c **** __weak void FF_VqdffComputation(FF_Handle_t *pHandle, qd_t Iqdref, SpeednTorqCtrl_Handle_t *pSTC)
 151:MCSDK_v6.3.2-Full/MotorControl/MCSDK/MCLib/Any/Src/feed_forward_ctrl.c **** {
 109              		.loc 1 151 1 is_stmt 1 view -0
 110              		.cfi_startproc
 111              		@ args = 0, pretend = 0, frame = 8
 112              		@ frame_needed = 0, uses_anonymous_args = 0
 113              		.loc 1 151 1 is_stmt 0 view .LVU22
 114 0000 10B5     		push	{r4, lr}
 115              	.LCFI2:
 116              		.cfi_def_cfa_offset 8
 117              		.cfi_offset 4, -8
 118              		.cfi_offset 14, -4
 119 0002 82B0     		sub	sp, sp, #8
 120              	.LCFI3:
 121              		.cfi_def_cfa_offset 16
 122 0004 0446     		mov	r4, r0
 123 0006 0191     		str	r1, [sp, #4]
 152:MCSDK_v6.3.2-Full/MotorControl/MCSDK/MCLib/Any/Src/feed_forward_ctrl.c **** #ifdef NULL_PTR_CHECK_FEED_FWD_CTRL
 153:MCSDK_v6.3.2-Full/MotorControl/MCSDK/MCLib/Any/Src/feed_forward_ctrl.c ****   if (NULL == pHandle)
 154:MCSDK_v6.3.2-Full/MotorControl/MCSDK/MCLib/Any/Src/feed_forward_ctrl.c ****   {
 155:MCSDK_v6.3.2-Full/MotorControl/MCSDK/MCLib/Any/Src/feed_forward_ctrl.c ****     /* Nothing to do */
 156:MCSDK_v6.3.2-Full/MotorControl/MCSDK/MCLib/Any/Src/feed_forward_ctrl.c ****   }
 157:MCSDK_v6.3.2-Full/MotorControl/MCSDK/MCLib/Any/Src/feed_forward_ctrl.c ****   else
 158:MCSDK_v6.3.2-Full/MotorControl/MCSDK/MCLib/Any/Src/feed_forward_ctrl.c ****   {
 159:MCSDK_v6.3.2-Full/MotorControl/MCSDK/MCLib/Any/Src/feed_forward_ctrl.c **** #endif
 160:MCSDK_v6.3.2-Full/MotorControl/MCSDK/MCLib/Any/Src/feed_forward_ctrl.c ****     int32_t wtemp1, wtemp2;
 124              		.loc 1 160 5 is_stmt 1 view .LVU23
 161:MCSDK_v6.3.2-Full/MotorControl/MCSDK/MCLib/Any/Src/feed_forward_ctrl.c ****     int16_t hSpeed_dpp;
 125              		.loc 1 161 5 view .LVU24
 162:MCSDK_v6.3.2-Full/MotorControl/MCSDK/MCLib/Any/Src/feed_forward_ctrl.c ****     uint16_t hAvBusVoltage_d;
 126              		.loc 1 162 5 view .LVU25
 163:MCSDK_v6.3.2-Full/MotorControl/MCSDK/MCLib/Any/Src/feed_forward_ctrl.c ****     SpeednPosFdbk_Handle_t *SpeedSensor;
 127              		.loc 1 163 5 view .LVU26
ARM GAS  /tmp/cc6nzUni.s 			page 6


 164:MCSDK_v6.3.2-Full/MotorControl/MCSDK/MCLib/Any/Src/feed_forward_ctrl.c **** 
 165:MCSDK_v6.3.2-Full/MotorControl/MCSDK/MCLib/Any/Src/feed_forward_ctrl.c ****     SpeedSensor = STC_GetSpeedSensor(pSTC);
 128              		.loc 1 165 5 view .LVU27
 129              	.LVL3:
 130              	.LBB6:
 131              	.LBI6:
 132              		.file 2 "MCSDK_v6.3.2-Full/MotorControl/MCSDK/MCLib/Any/Inc/speed_torq_ctrl.h"
   1:MCSDK_v6.3.2-Full/MotorControl/MCSDK/MCLib/Any/Inc/speed_torq_ctrl.h **** /**
   2:MCSDK_v6.3.2-Full/MotorControl/MCSDK/MCLib/Any/Inc/speed_torq_ctrl.h ****   ******************************************************************************
   3:MCSDK_v6.3.2-Full/MotorControl/MCSDK/MCLib/Any/Inc/speed_torq_ctrl.h ****   * @file    speed_torq_ctrl.h
   4:MCSDK_v6.3.2-Full/MotorControl/MCSDK/MCLib/Any/Inc/speed_torq_ctrl.h ****   * @author  Motor Control SDK Team, ST Microelectronics
   5:MCSDK_v6.3.2-Full/MotorControl/MCSDK/MCLib/Any/Inc/speed_torq_ctrl.h ****   * @brief   This file contains all definitions and functions prototypes for the
   6:MCSDK_v6.3.2-Full/MotorControl/MCSDK/MCLib/Any/Inc/speed_torq_ctrl.h ****   *          Speed & Torque Control component of the Motor Control SDK.
   7:MCSDK_v6.3.2-Full/MotorControl/MCSDK/MCLib/Any/Inc/speed_torq_ctrl.h ****   ******************************************************************************
   8:MCSDK_v6.3.2-Full/MotorControl/MCSDK/MCLib/Any/Inc/speed_torq_ctrl.h ****   * @attention
   9:MCSDK_v6.3.2-Full/MotorControl/MCSDK/MCLib/Any/Inc/speed_torq_ctrl.h ****   *
  10:MCSDK_v6.3.2-Full/MotorControl/MCSDK/MCLib/Any/Inc/speed_torq_ctrl.h ****   * <h2><center>&copy; Copyright (c) 2024 STMicroelectronics.
  11:MCSDK_v6.3.2-Full/MotorControl/MCSDK/MCLib/Any/Inc/speed_torq_ctrl.h ****   * All rights reserved.</center></h2>
  12:MCSDK_v6.3.2-Full/MotorControl/MCSDK/MCLib/Any/Inc/speed_torq_ctrl.h ****   *
  13:MCSDK_v6.3.2-Full/MotorControl/MCSDK/MCLib/Any/Inc/speed_torq_ctrl.h ****   * This software component is licensed by ST under Ultimate Liberty license
  14:MCSDK_v6.3.2-Full/MotorControl/MCSDK/MCLib/Any/Inc/speed_torq_ctrl.h ****   * SLA0044, the "License"; You may not use this file except in compliance with
  15:MCSDK_v6.3.2-Full/MotorControl/MCSDK/MCLib/Any/Inc/speed_torq_ctrl.h ****   * the License. You may obtain a copy of the License at:
  16:MCSDK_v6.3.2-Full/MotorControl/MCSDK/MCLib/Any/Inc/speed_torq_ctrl.h ****   *                             www.st.com/SLA0044
  17:MCSDK_v6.3.2-Full/MotorControl/MCSDK/MCLib/Any/Inc/speed_torq_ctrl.h ****   *
  18:MCSDK_v6.3.2-Full/MotorControl/MCSDK/MCLib/Any/Inc/speed_torq_ctrl.h ****   ******************************************************************************
  19:MCSDK_v6.3.2-Full/MotorControl/MCSDK/MCLib/Any/Inc/speed_torq_ctrl.h ****   * @ingroup SpeednTorqCtrlClassic
  20:MCSDK_v6.3.2-Full/MotorControl/MCSDK/MCLib/Any/Inc/speed_torq_ctrl.h ****   */
  21:MCSDK_v6.3.2-Full/MotorControl/MCSDK/MCLib/Any/Inc/speed_torq_ctrl.h **** 
  22:MCSDK_v6.3.2-Full/MotorControl/MCSDK/MCLib/Any/Inc/speed_torq_ctrl.h **** /* Define to prevent recursive inclusion -------------------------------------*/
  23:MCSDK_v6.3.2-Full/MotorControl/MCSDK/MCLib/Any/Inc/speed_torq_ctrl.h **** #ifndef SPEEDNTORQCTRLCLASS_H
  24:MCSDK_v6.3.2-Full/MotorControl/MCSDK/MCLib/Any/Inc/speed_torq_ctrl.h **** #define SPEEDNTORQCTRLCLASS_H
  25:MCSDK_v6.3.2-Full/MotorControl/MCSDK/MCLib/Any/Inc/speed_torq_ctrl.h **** 
  26:MCSDK_v6.3.2-Full/MotorControl/MCSDK/MCLib/Any/Inc/speed_torq_ctrl.h **** #ifdef __cplusplus
  27:MCSDK_v6.3.2-Full/MotorControl/MCSDK/MCLib/Any/Inc/speed_torq_ctrl.h **** extern "C" {
  28:MCSDK_v6.3.2-Full/MotorControl/MCSDK/MCLib/Any/Inc/speed_torq_ctrl.h **** #endif /* __cplusplus */
  29:MCSDK_v6.3.2-Full/MotorControl/MCSDK/MCLib/Any/Inc/speed_torq_ctrl.h **** 
  30:MCSDK_v6.3.2-Full/MotorControl/MCSDK/MCLib/Any/Inc/speed_torq_ctrl.h **** /* Includes ------------------------------------------------------------------*/
  31:MCSDK_v6.3.2-Full/MotorControl/MCSDK/MCLib/Any/Inc/speed_torq_ctrl.h **** #include "mc_type.h"
  32:MCSDK_v6.3.2-Full/MotorControl/MCSDK/MCLib/Any/Inc/speed_torq_ctrl.h **** #include "pid_regulator.h"
  33:MCSDK_v6.3.2-Full/MotorControl/MCSDK/MCLib/Any/Inc/speed_torq_ctrl.h **** #include "speed_pos_fdbk.h"
  34:MCSDK_v6.3.2-Full/MotorControl/MCSDK/MCLib/Any/Inc/speed_torq_ctrl.h **** 
  35:MCSDK_v6.3.2-Full/MotorControl/MCSDK/MCLib/Any/Inc/speed_torq_ctrl.h **** /** @addtogroup MCSDK
  36:MCSDK_v6.3.2-Full/MotorControl/MCSDK/MCLib/Any/Inc/speed_torq_ctrl.h ****   * @{
  37:MCSDK_v6.3.2-Full/MotorControl/MCSDK/MCLib/Any/Inc/speed_torq_ctrl.h ****   */
  38:MCSDK_v6.3.2-Full/MotorControl/MCSDK/MCLib/Any/Inc/speed_torq_ctrl.h **** 
  39:MCSDK_v6.3.2-Full/MotorControl/MCSDK/MCLib/Any/Inc/speed_torq_ctrl.h **** /** @addtogroup SpeednTorqCtrl
  40:MCSDK_v6.3.2-Full/MotorControl/MCSDK/MCLib/Any/Inc/speed_torq_ctrl.h ****   * @{
  41:MCSDK_v6.3.2-Full/MotorControl/MCSDK/MCLib/Any/Inc/speed_torq_ctrl.h ****   */
  42:MCSDK_v6.3.2-Full/MotorControl/MCSDK/MCLib/Any/Inc/speed_torq_ctrl.h **** 
  43:MCSDK_v6.3.2-Full/MotorControl/MCSDK/MCLib/Any/Inc/speed_torq_ctrl.h **** /** @addtogroup SpeednTorqCtrlClassic
  44:MCSDK_v6.3.2-Full/MotorControl/MCSDK/MCLib/Any/Inc/speed_torq_ctrl.h ****   * @{
  45:MCSDK_v6.3.2-Full/MotorControl/MCSDK/MCLib/Any/Inc/speed_torq_ctrl.h ****   */
  46:MCSDK_v6.3.2-Full/MotorControl/MCSDK/MCLib/Any/Inc/speed_torq_ctrl.h **** 
  47:MCSDK_v6.3.2-Full/MotorControl/MCSDK/MCLib/Any/Inc/speed_torq_ctrl.h **** /* Exported types ------------------------------------------------------------*/
  48:MCSDK_v6.3.2-Full/MotorControl/MCSDK/MCLib/Any/Inc/speed_torq_ctrl.h **** 
  49:MCSDK_v6.3.2-Full/MotorControl/MCSDK/MCLib/Any/Inc/speed_torq_ctrl.h **** /**
  50:MCSDK_v6.3.2-Full/MotorControl/MCSDK/MCLib/Any/Inc/speed_torq_ctrl.h ****   * @brief  Speed & Torque Control parameters definition
ARM GAS  /tmp/cc6nzUni.s 			page 7


  51:MCSDK_v6.3.2-Full/MotorControl/MCSDK/MCLib/Any/Inc/speed_torq_ctrl.h ****   */
  52:MCSDK_v6.3.2-Full/MotorControl/MCSDK/MCLib/Any/Inc/speed_torq_ctrl.h **** typedef struct
  53:MCSDK_v6.3.2-Full/MotorControl/MCSDK/MCLib/Any/Inc/speed_torq_ctrl.h **** {
  54:MCSDK_v6.3.2-Full/MotorControl/MCSDK/MCLib/Any/Inc/speed_torq_ctrl.h ****   MC_ControlMode_t Mode;               /*!< Modality of STC. It can be one of these two settings:
  55:MCSDK_v6.3.2-Full/MotorControl/MCSDK/MCLib/Any/Inc/speed_torq_ctrl.h ****                                            MCM_TORQUE_MODE to enable the Torque mode or
  56:MCSDK_v6.3.2-Full/MotorControl/MCSDK/MCLib/Any/Inc/speed_torq_ctrl.h ****                                            MCM_SPEED_MODE to enable the Speed mode. */
  57:MCSDK_v6.3.2-Full/MotorControl/MCSDK/MCLib/Any/Inc/speed_torq_ctrl.h ****   int16_t TargetFinal;                 /*!< Backup of #hTargetFinal to be applied in the last step.
  58:MCSDK_v6.3.2-Full/MotorControl/MCSDK/MCLib/Any/Inc/speed_torq_ctrl.h ****   int32_t SpeedRefUnitExt;             /*!< Current mechanical rotor speed reference expressed in
  59:MCSDK_v6.3.2-Full/MotorControl/MCSDK/MCLib/Any/Inc/speed_torq_ctrl.h ****                                             [SPEED_UNIT](measurement_units.md) multiplied by 65536.
  60:MCSDK_v6.3.2-Full/MotorControl/MCSDK/MCLib/Any/Inc/speed_torq_ctrl.h ****   int32_t TorqueRef;                   /*!< Current motor torque reference. This value represents a
  61:MCSDK_v6.3.2-Full/MotorControl/MCSDK/MCLib/Any/Inc/speed_torq_ctrl.h ****                                             the Iq current expressed in digit multiplied by 65536. 
  62:MCSDK_v6.3.2-Full/MotorControl/MCSDK/MCLib/Any/Inc/speed_torq_ctrl.h ****   uint32_t RampRemainingStep;          /*!< Number of steps remaining to complete the ramp. */
  63:MCSDK_v6.3.2-Full/MotorControl/MCSDK/MCLib/Any/Inc/speed_torq_ctrl.h ****   PID_Handle_t *PISpeed;               /*!< The regulator used to perform the speed control loop. *
  64:MCSDK_v6.3.2-Full/MotorControl/MCSDK/MCLib/Any/Inc/speed_torq_ctrl.h ****   SpeednPosFdbk_Handle_t *SPD;         /*!< The speed sensor used to perform the speed regulation. 
  65:MCSDK_v6.3.2-Full/MotorControl/MCSDK/MCLib/Any/Inc/speed_torq_ctrl.h ****   int32_t IncDecAmount;                /*!< Increment/decrement amount to be applied to the referen
  66:MCSDK_v6.3.2-Full/MotorControl/MCSDK/MCLib/Any/Inc/speed_torq_ctrl.h ****                                             #CalcTorqueReference. */
  67:MCSDK_v6.3.2-Full/MotorControl/MCSDK/MCLib/Any/Inc/speed_torq_ctrl.h ****   uint16_t STCFrequencyHz;             /*!< Frequency on which the user updates the torque referenc
  68:MCSDK_v6.3.2-Full/MotorControl/MCSDK/MCLib/Any/Inc/speed_torq_ctrl.h ****                                             #STC_CalcTorqueReference method expressed in Hz */
  69:MCSDK_v6.3.2-Full/MotorControl/MCSDK/MCLib/Any/Inc/speed_torq_ctrl.h ****   uint16_t MaxAppPositiveMecSpeedUnit; /*!< Application maximum positive value of the rotor mechani
  70:MCSDK_v6.3.2-Full/MotorControl/MCSDK/MCLib/Any/Inc/speed_torq_ctrl.h ****                                             Expressed in the unit defined by [SPEED_UNIT](measureme
  71:MCSDK_v6.3.2-Full/MotorControl/MCSDK/MCLib/Any/Inc/speed_torq_ctrl.h ****   uint16_t MinAppPositiveMecSpeedUnit; /*!< Application minimum positive value of the rotor mechani
  72:MCSDK_v6.3.2-Full/MotorControl/MCSDK/MCLib/Any/Inc/speed_torq_ctrl.h ****                                             Expressed in the unit defined by [SPEED_UNIT](measureme
  73:MCSDK_v6.3.2-Full/MotorControl/MCSDK/MCLib/Any/Inc/speed_torq_ctrl.h ****   int16_t MaxAppNegativeMecSpeedUnit;  /*!< Application maximum negative value of the rotor mechani
  74:MCSDK_v6.3.2-Full/MotorControl/MCSDK/MCLib/Any/Inc/speed_torq_ctrl.h ****                                             Expressed in the unit defined by [SPEED_UNIT](measureme
  75:MCSDK_v6.3.2-Full/MotorControl/MCSDK/MCLib/Any/Inc/speed_torq_ctrl.h ****   int16_t MinAppNegativeMecSpeedUnit;  /*!< Application minimum negative value of the rotor mechani
  76:MCSDK_v6.3.2-Full/MotorControl/MCSDK/MCLib/Any/Inc/speed_torq_ctrl.h ****                                             Expressed in the unit defined by [SPEED_UNIT](measureme
  77:MCSDK_v6.3.2-Full/MotorControl/MCSDK/MCLib/Any/Inc/speed_torq_ctrl.h ****   uint16_t MaxPositiveTorque;          /*!< Maximum positive value of motor torque. This value repr
  78:MCSDK_v6.3.2-Full/MotorControl/MCSDK/MCLib/Any/Inc/speed_torq_ctrl.h ****                                             the maximum Iq current expressed in digit. */
  79:MCSDK_v6.3.2-Full/MotorControl/MCSDK/MCLib/Any/Inc/speed_torq_ctrl.h ****   int16_t MinNegativeTorque;           /*!< Minimum negative value of motor torque. This value repr
  80:MCSDK_v6.3.2-Full/MotorControl/MCSDK/MCLib/Any/Inc/speed_torq_ctrl.h ****                                             the maximum Iq current expressed in digit. */
  81:MCSDK_v6.3.2-Full/MotorControl/MCSDK/MCLib/Any/Inc/speed_torq_ctrl.h ****   MC_ControlMode_t ModeDefault;        /*!< Default STC modality. */
  82:MCSDK_v6.3.2-Full/MotorControl/MCSDK/MCLib/Any/Inc/speed_torq_ctrl.h ****   int16_t MecSpeedRefUnitDefault;      /*!< Default mechanical rotor speed reference expressed in t
  83:MCSDK_v6.3.2-Full/MotorControl/MCSDK/MCLib/Any/Inc/speed_torq_ctrl.h ****                                             [SPEED_UNIT](measurement_units.md). */
  84:MCSDK_v6.3.2-Full/MotorControl/MCSDK/MCLib/Any/Inc/speed_torq_ctrl.h ****   int16_t TorqueRefDefault;            /*!< Default motor torque reference. This value represents a
  85:MCSDK_v6.3.2-Full/MotorControl/MCSDK/MCLib/Any/Inc/speed_torq_ctrl.h ****                                             current reference expressed in digit. */
  86:MCSDK_v6.3.2-Full/MotorControl/MCSDK/MCLib/Any/Inc/speed_torq_ctrl.h ****   int16_t IdrefDefault;                /*!< Default Id current reference expressed in digit. */
  87:MCSDK_v6.3.2-Full/MotorControl/MCSDK/MCLib/Any/Inc/speed_torq_ctrl.h **** } SpeednTorqCtrl_Handle_t;
  88:MCSDK_v6.3.2-Full/MotorControl/MCSDK/MCLib/Any/Inc/speed_torq_ctrl.h **** 
  89:MCSDK_v6.3.2-Full/MotorControl/MCSDK/MCLib/Any/Inc/speed_torq_ctrl.h **** 
  90:MCSDK_v6.3.2-Full/MotorControl/MCSDK/MCLib/Any/Inc/speed_torq_ctrl.h **** 
  91:MCSDK_v6.3.2-Full/MotorControl/MCSDK/MCLib/Any/Inc/speed_torq_ctrl.h **** /* Initializes all the object variables */
  92:MCSDK_v6.3.2-Full/MotorControl/MCSDK/MCLib/Any/Inc/speed_torq_ctrl.h **** void STC_Init(SpeednTorqCtrl_Handle_t *pHandle, PID_Handle_t *pPI, SpeednPosFdbk_Handle_t *SPD_Hand
  93:MCSDK_v6.3.2-Full/MotorControl/MCSDK/MCLib/Any/Inc/speed_torq_ctrl.h **** 
  94:MCSDK_v6.3.2-Full/MotorControl/MCSDK/MCLib/Any/Inc/speed_torq_ctrl.h **** /* Resets the integral term of speed regulator */
  95:MCSDK_v6.3.2-Full/MotorControl/MCSDK/MCLib/Any/Inc/speed_torq_ctrl.h **** void STC_Clear(SpeednTorqCtrl_Handle_t *pHandle);
  96:MCSDK_v6.3.2-Full/MotorControl/MCSDK/MCLib/Any/Inc/speed_torq_ctrl.h **** 
  97:MCSDK_v6.3.2-Full/MotorControl/MCSDK/MCLib/Any/Inc/speed_torq_ctrl.h **** /* Gets the current mechanical rotor speed reference */
  98:MCSDK_v6.3.2-Full/MotorControl/MCSDK/MCLib/Any/Inc/speed_torq_ctrl.h **** int16_t STC_GetMecSpeedRefUnit(SpeednTorqCtrl_Handle_t *pHandle);
  99:MCSDK_v6.3.2-Full/MotorControl/MCSDK/MCLib/Any/Inc/speed_torq_ctrl.h **** 
 100:MCSDK_v6.3.2-Full/MotorControl/MCSDK/MCLib/Any/Inc/speed_torq_ctrl.h **** /* Sets the mode of the speed and torque controller (Torque mode or Speed mode) */
 101:MCSDK_v6.3.2-Full/MotorControl/MCSDK/MCLib/Any/Inc/speed_torq_ctrl.h **** void STC_SetControlMode(SpeednTorqCtrl_Handle_t *pHandle, MC_ControlMode_t bMode);
 102:MCSDK_v6.3.2-Full/MotorControl/MCSDK/MCLib/Any/Inc/speed_torq_ctrl.h **** 
 103:MCSDK_v6.3.2-Full/MotorControl/MCSDK/MCLib/Any/Inc/speed_torq_ctrl.h **** /* Starts the execution of a ramp using new target and duration */
 104:MCSDK_v6.3.2-Full/MotorControl/MCSDK/MCLib/Any/Inc/speed_torq_ctrl.h **** bool STC_ExecRamp(SpeednTorqCtrl_Handle_t *pHandle, int16_t hTargetFinal, uint32_t hDurationms);
 105:MCSDK_v6.3.2-Full/MotorControl/MCSDK/MCLib/Any/Inc/speed_torq_ctrl.h **** 
 106:MCSDK_v6.3.2-Full/MotorControl/MCSDK/MCLib/Any/Inc/speed_torq_ctrl.h **** /* Computes the new value of motor torque reference */
 107:MCSDK_v6.3.2-Full/MotorControl/MCSDK/MCLib/Any/Inc/speed_torq_ctrl.h **** int16_t STC_CalcTorqueReference(SpeednTorqCtrl_Handle_t *pHandle);
ARM GAS  /tmp/cc6nzUni.s 			page 8


 108:MCSDK_v6.3.2-Full/MotorControl/MCSDK/MCLib/Any/Inc/speed_torq_ctrl.h **** 
 109:MCSDK_v6.3.2-Full/MotorControl/MCSDK/MCLib/Any/Inc/speed_torq_ctrl.h **** /* Gets the Default mechanical rotor speed reference */
 110:MCSDK_v6.3.2-Full/MotorControl/MCSDK/MCLib/Any/Inc/speed_torq_ctrl.h **** int16_t STC_GetMecSpeedRefUnitDefault(SpeednTorqCtrl_Handle_t *pHandle);
 111:MCSDK_v6.3.2-Full/MotorControl/MCSDK/MCLib/Any/Inc/speed_torq_ctrl.h **** 
 112:MCSDK_v6.3.2-Full/MotorControl/MCSDK/MCLib/Any/Inc/speed_torq_ctrl.h **** /* Returns the Application maximum positive rotor mechanical speed */
 113:MCSDK_v6.3.2-Full/MotorControl/MCSDK/MCLib/Any/Inc/speed_torq_ctrl.h **** uint16_t STC_GetMaxAppPositiveMecSpeedUnit(SpeednTorqCtrl_Handle_t *pHandle);
 114:MCSDK_v6.3.2-Full/MotorControl/MCSDK/MCLib/Any/Inc/speed_torq_ctrl.h **** 
 115:MCSDK_v6.3.2-Full/MotorControl/MCSDK/MCLib/Any/Inc/speed_torq_ctrl.h **** /* Returns the Application minimum negative rotor mechanical speed */
 116:MCSDK_v6.3.2-Full/MotorControl/MCSDK/MCLib/Any/Inc/speed_torq_ctrl.h **** int16_t STC_GetMinAppNegativeMecSpeedUnit(SpeednTorqCtrl_Handle_t *pHandle);
 117:MCSDK_v6.3.2-Full/MotorControl/MCSDK/MCLib/Any/Inc/speed_torq_ctrl.h **** 
 118:MCSDK_v6.3.2-Full/MotorControl/MCSDK/MCLib/Any/Inc/speed_torq_ctrl.h **** /* Stops the execution of speed ramp */
 119:MCSDK_v6.3.2-Full/MotorControl/MCSDK/MCLib/Any/Inc/speed_torq_ctrl.h **** bool STC_StopSpeedRamp(SpeednTorqCtrl_Handle_t *pHandle);
 120:MCSDK_v6.3.2-Full/MotorControl/MCSDK/MCLib/Any/Inc/speed_torq_ctrl.h **** 
 121:MCSDK_v6.3.2-Full/MotorControl/MCSDK/MCLib/Any/Inc/speed_torq_ctrl.h **** /* Sets in real time the speed sensor utilized by the FOC */
 122:MCSDK_v6.3.2-Full/MotorControl/MCSDK/MCLib/Any/Inc/speed_torq_ctrl.h **** void STC_SetSpeedSensor(SpeednTorqCtrl_Handle_t *pHandle, SpeednPosFdbk_Handle_t *SPD_Handle);
 123:MCSDK_v6.3.2-Full/MotorControl/MCSDK/MCLib/Any/Inc/speed_torq_ctrl.h **** 
 124:MCSDK_v6.3.2-Full/MotorControl/MCSDK/MCLib/Any/Inc/speed_torq_ctrl.h **** /* It returns the default values of Iqdref */
 125:MCSDK_v6.3.2-Full/MotorControl/MCSDK/MCLib/Any/Inc/speed_torq_ctrl.h **** qd_t STC_GetDefaultIqdref(SpeednTorqCtrl_Handle_t *pHandle);
 126:MCSDK_v6.3.2-Full/MotorControl/MCSDK/MCLib/Any/Inc/speed_torq_ctrl.h **** 
 127:MCSDK_v6.3.2-Full/MotorControl/MCSDK/MCLib/Any/Inc/speed_torq_ctrl.h **** /* Forces the speed reference to the current speed */
 128:MCSDK_v6.3.2-Full/MotorControl/MCSDK/MCLib/Any/Inc/speed_torq_ctrl.h **** void STC_ForceSpeedReferenceToCurrentSpeed(SpeednTorqCtrl_Handle_t *pHandle);
 129:MCSDK_v6.3.2-Full/MotorControl/MCSDK/MCLib/Any/Inc/speed_torq_ctrl.h **** 
 130:MCSDK_v6.3.2-Full/MotorControl/MCSDK/MCLib/Any/Inc/speed_torq_ctrl.h **** /**
 131:MCSDK_v6.3.2-Full/MotorControl/MCSDK/MCLib/Any/Inc/speed_torq_ctrl.h ****   * @brief  Gets the modality of the speed and torque controller
 132:MCSDK_v6.3.2-Full/MotorControl/MCSDK/MCLib/Any/Inc/speed_torq_ctrl.h ****   *           @ref SpeednTorqCtrl_Handle_t::Mode "Mode".
 133:MCSDK_v6.3.2-Full/MotorControl/MCSDK/MCLib/Any/Inc/speed_torq_ctrl.h ****   * @param  pHandle: handler of the current instance of the SpeednTorqCtrl component.
 134:MCSDK_v6.3.2-Full/MotorControl/MCSDK/MCLib/Any/Inc/speed_torq_ctrl.h ****   * @retval MC_ControlMode_t  modality of STC. It can be one of
 135:MCSDK_v6.3.2-Full/MotorControl/MCSDK/MCLib/Any/Inc/speed_torq_ctrl.h ****   *         these two values: MCM_TORQUE_MODE or MCM_SPEED_MODE.
 136:MCSDK_v6.3.2-Full/MotorControl/MCSDK/MCLib/Any/Inc/speed_torq_ctrl.h ****   *
 137:MCSDK_v6.3.2-Full/MotorControl/MCSDK/MCLib/Any/Inc/speed_torq_ctrl.h ****   * - Called by @ref SpeedRegulatorPotentiometer Speed potentiometer component to manage new speed 
 138:MCSDK_v6.3.2-Full/MotorControl/MCSDK/MCLib/Any/Inc/speed_torq_ctrl.h ****   */
 139:MCSDK_v6.3.2-Full/MotorControl/MCSDK/MCLib/Any/Inc/speed_torq_ctrl.h **** static inline MC_ControlMode_t STC_GetControlMode(SpeednTorqCtrl_Handle_t *pHandle)
 140:MCSDK_v6.3.2-Full/MotorControl/MCSDK/MCLib/Any/Inc/speed_torq_ctrl.h **** {
 141:MCSDK_v6.3.2-Full/MotorControl/MCSDK/MCLib/Any/Inc/speed_torq_ctrl.h **** #ifdef NULL_PTR_CHECK_SPD_TRQ_CTL
 142:MCSDK_v6.3.2-Full/MotorControl/MCSDK/MCLib/Any/Inc/speed_torq_ctrl.h ****   return ((MC_NULL == pHandle) ? MCM_TORQUE_MODE : pHandle->Mode);
 143:MCSDK_v6.3.2-Full/MotorControl/MCSDK/MCLib/Any/Inc/speed_torq_ctrl.h **** #else
 144:MCSDK_v6.3.2-Full/MotorControl/MCSDK/MCLib/Any/Inc/speed_torq_ctrl.h ****   return (pHandle->Mode);
 145:MCSDK_v6.3.2-Full/MotorControl/MCSDK/MCLib/Any/Inc/speed_torq_ctrl.h **** #endif
 146:MCSDK_v6.3.2-Full/MotorControl/MCSDK/MCLib/Any/Inc/speed_torq_ctrl.h **** }
 147:MCSDK_v6.3.2-Full/MotorControl/MCSDK/MCLib/Any/Inc/speed_torq_ctrl.h **** 
 148:MCSDK_v6.3.2-Full/MotorControl/MCSDK/MCLib/Any/Inc/speed_torq_ctrl.h **** /**
 149:MCSDK_v6.3.2-Full/MotorControl/MCSDK/MCLib/Any/Inc/speed_torq_ctrl.h ****   * @brief  Interrupts the execution of any previous ramp command in particular by clearing
 150:MCSDK_v6.3.2-Full/MotorControl/MCSDK/MCLib/Any/Inc/speed_torq_ctrl.h ****   *         the number of steps remaining to complete the ramp
 151:MCSDK_v6.3.2-Full/MotorControl/MCSDK/MCLib/Any/Inc/speed_torq_ctrl.h ****   *         @ref SpeednTorqCtrl_Handle_t::RampRemainingStep "RampRemainingStep".
 152:MCSDK_v6.3.2-Full/MotorControl/MCSDK/MCLib/Any/Inc/speed_torq_ctrl.h ****   * @param  pHandle: handler of the current instance of the SpeednTorqCtrl component.
 153:MCSDK_v6.3.2-Full/MotorControl/MCSDK/MCLib/Any/Inc/speed_torq_ctrl.h ****   * @retval none
 154:MCSDK_v6.3.2-Full/MotorControl/MCSDK/MCLib/Any/Inc/speed_torq_ctrl.h ****   *
 155:MCSDK_v6.3.2-Full/MotorControl/MCSDK/MCLib/Any/Inc/speed_torq_ctrl.h ****   * - If STC has been set in Torque mode the last value of Iq is maintained.\n
 156:MCSDK_v6.3.2-Full/MotorControl/MCSDK/MCLib/Any/Inc/speed_torq_ctrl.h ****   * - If STC has been set in Speed mode the last value of mechanical
 157:MCSDK_v6.3.2-Full/MotorControl/MCSDK/MCLib/Any/Inc/speed_torq_ctrl.h ****   * rotor speed reference is maintained.
 158:MCSDK_v6.3.2-Full/MotorControl/MCSDK/MCLib/Any/Inc/speed_torq_ctrl.h ****   * - Called by MCI_StopSpeedRamp execution command.
 159:MCSDK_v6.3.2-Full/MotorControl/MCSDK/MCLib/Any/Inc/speed_torq_ctrl.h ****   */
 160:MCSDK_v6.3.2-Full/MotorControl/MCSDK/MCLib/Any/Inc/speed_torq_ctrl.h **** static inline void STC_StopRamp(SpeednTorqCtrl_Handle_t *pHandle)
 161:MCSDK_v6.3.2-Full/MotorControl/MCSDK/MCLib/Any/Inc/speed_torq_ctrl.h **** {
 162:MCSDK_v6.3.2-Full/MotorControl/MCSDK/MCLib/Any/Inc/speed_torq_ctrl.h **** #ifdef NULL_PTR_CHECK_SPD_TRQ_CTL
 163:MCSDK_v6.3.2-Full/MotorControl/MCSDK/MCLib/Any/Inc/speed_torq_ctrl.h ****   if (MC_NULL == pHandle)
 164:MCSDK_v6.3.2-Full/MotorControl/MCSDK/MCLib/Any/Inc/speed_torq_ctrl.h ****   {
ARM GAS  /tmp/cc6nzUni.s 			page 9


 165:MCSDK_v6.3.2-Full/MotorControl/MCSDK/MCLib/Any/Inc/speed_torq_ctrl.h ****     /* Nothing to do */
 166:MCSDK_v6.3.2-Full/MotorControl/MCSDK/MCLib/Any/Inc/speed_torq_ctrl.h ****   }
 167:MCSDK_v6.3.2-Full/MotorControl/MCSDK/MCLib/Any/Inc/speed_torq_ctrl.h ****   else
 168:MCSDK_v6.3.2-Full/MotorControl/MCSDK/MCLib/Any/Inc/speed_torq_ctrl.h ****   {
 169:MCSDK_v6.3.2-Full/MotorControl/MCSDK/MCLib/Any/Inc/speed_torq_ctrl.h **** #endif
 170:MCSDK_v6.3.2-Full/MotorControl/MCSDK/MCLib/Any/Inc/speed_torq_ctrl.h ****     pHandle->RampRemainingStep = 0U;
 171:MCSDK_v6.3.2-Full/MotorControl/MCSDK/MCLib/Any/Inc/speed_torq_ctrl.h ****     pHandle->IncDecAmount = 0;
 172:MCSDK_v6.3.2-Full/MotorControl/MCSDK/MCLib/Any/Inc/speed_torq_ctrl.h **** #ifdef NULL_PTR_CHECK_SPD_TRQ_CTL
 173:MCSDK_v6.3.2-Full/MotorControl/MCSDK/MCLib/Any/Inc/speed_torq_ctrl.h ****   }
 174:MCSDK_v6.3.2-Full/MotorControl/MCSDK/MCLib/Any/Inc/speed_torq_ctrl.h **** #endif
 175:MCSDK_v6.3.2-Full/MotorControl/MCSDK/MCLib/Any/Inc/speed_torq_ctrl.h **** }
 176:MCSDK_v6.3.2-Full/MotorControl/MCSDK/MCLib/Any/Inc/speed_torq_ctrl.h **** 
 177:MCSDK_v6.3.2-Full/MotorControl/MCSDK/MCLib/Any/Inc/speed_torq_ctrl.h **** /**
 178:MCSDK_v6.3.2-Full/MotorControl/MCSDK/MCLib/Any/Inc/speed_torq_ctrl.h ****   * @brief  Checks if the settled speed or torque ramp has been completed by checking zero value of
 179:MCSDK_v6.3.2-Full/MotorControl/MCSDK/MCLib/Any/Inc/speed_torq_ctrl.h ****   *           @ref SpeednTorqCtrl_Handle_t::RampRemainingStep "RampRemainingStep".
 180:MCSDK_v6.3.2-Full/MotorControl/MCSDK/MCLib/Any/Inc/speed_torq_ctrl.h ****   * @param  pHandle: handler of the current instance of the SpeednTorqCtrl component.
 181:MCSDK_v6.3.2-Full/MotorControl/MCSDK/MCLib/Any/Inc/speed_torq_ctrl.h ****   * @retval bool returning true if the ramp is completed, false otherwise.
 182:MCSDK_v6.3.2-Full/MotorControl/MCSDK/MCLib/Any/Inc/speed_torq_ctrl.h ****   *
 183:MCSDK_v6.3.2-Full/MotorControl/MCSDK/MCLib/Any/Inc/speed_torq_ctrl.h ****   * - Called during motor profiler tuning of HALL sensor.
 184:MCSDK_v6.3.2-Full/MotorControl/MCSDK/MCLib/Any/Inc/speed_torq_ctrl.h ****   */
 185:MCSDK_v6.3.2-Full/MotorControl/MCSDK/MCLib/Any/Inc/speed_torq_ctrl.h **** static inline bool STC_RampCompleted(SpeednTorqCtrl_Handle_t *pHandle)
 186:MCSDK_v6.3.2-Full/MotorControl/MCSDK/MCLib/Any/Inc/speed_torq_ctrl.h **** {
 187:MCSDK_v6.3.2-Full/MotorControl/MCSDK/MCLib/Any/Inc/speed_torq_ctrl.h ****   bool retVal = false;
 188:MCSDK_v6.3.2-Full/MotorControl/MCSDK/MCLib/Any/Inc/speed_torq_ctrl.h **** #ifdef NULL_PTR_CHECK_SPD_TRQ_CTL
 189:MCSDK_v6.3.2-Full/MotorControl/MCSDK/MCLib/Any/Inc/speed_torq_ctrl.h ****   if (MC_NULL == pHandle)
 190:MCSDK_v6.3.2-Full/MotorControl/MCSDK/MCLib/Any/Inc/speed_torq_ctrl.h ****   {
 191:MCSDK_v6.3.2-Full/MotorControl/MCSDK/MCLib/Any/Inc/speed_torq_ctrl.h ****     /* Nothing to do */
 192:MCSDK_v6.3.2-Full/MotorControl/MCSDK/MCLib/Any/Inc/speed_torq_ctrl.h ****   }
 193:MCSDK_v6.3.2-Full/MotorControl/MCSDK/MCLib/Any/Inc/speed_torq_ctrl.h ****   else
 194:MCSDK_v6.3.2-Full/MotorControl/MCSDK/MCLib/Any/Inc/speed_torq_ctrl.h ****   {
 195:MCSDK_v6.3.2-Full/MotorControl/MCSDK/MCLib/Any/Inc/speed_torq_ctrl.h **** #endif
 196:MCSDK_v6.3.2-Full/MotorControl/MCSDK/MCLib/Any/Inc/speed_torq_ctrl.h ****     if (0U == pHandle->RampRemainingStep)
 197:MCSDK_v6.3.2-Full/MotorControl/MCSDK/MCLib/Any/Inc/speed_torq_ctrl.h ****     {
 198:MCSDK_v6.3.2-Full/MotorControl/MCSDK/MCLib/Any/Inc/speed_torq_ctrl.h ****       retVal = true;
 199:MCSDK_v6.3.2-Full/MotorControl/MCSDK/MCLib/Any/Inc/speed_torq_ctrl.h ****     }
 200:MCSDK_v6.3.2-Full/MotorControl/MCSDK/MCLib/Any/Inc/speed_torq_ctrl.h **** #ifdef NULL_PTR_CHECK_SPD_TRQ_CTL
 201:MCSDK_v6.3.2-Full/MotorControl/MCSDK/MCLib/Any/Inc/speed_torq_ctrl.h ****   }
 202:MCSDK_v6.3.2-Full/MotorControl/MCSDK/MCLib/Any/Inc/speed_torq_ctrl.h **** #endif
 203:MCSDK_v6.3.2-Full/MotorControl/MCSDK/MCLib/Any/Inc/speed_torq_ctrl.h ****   return (retVal);
 204:MCSDK_v6.3.2-Full/MotorControl/MCSDK/MCLib/Any/Inc/speed_torq_ctrl.h **** }
 205:MCSDK_v6.3.2-Full/MotorControl/MCSDK/MCLib/Any/Inc/speed_torq_ctrl.h **** 
 206:MCSDK_v6.3.2-Full/MotorControl/MCSDK/MCLib/Any/Inc/speed_torq_ctrl.h **** /**
 207:MCSDK_v6.3.2-Full/MotorControl/MCSDK/MCLib/Any/Inc/speed_torq_ctrl.h ****   * @brief  Changes the nominal current by setting new values of
 208:MCSDK_v6.3.2-Full/MotorControl/MCSDK/MCLib/Any/Inc/speed_torq_ctrl.h ****   *         @ref SpeednTorqCtrl_Handle_t::MaxPositiveTorque "MaxPositiveTorque" and
 209:MCSDK_v6.3.2-Full/MotorControl/MCSDK/MCLib/Any/Inc/speed_torq_ctrl.h ****   *         @ref SpeednTorqCtrl_Handle_t::MinNegativeTorque "MinNegativeTorque".
 210:MCSDK_v6.3.2-Full/MotorControl/MCSDK/MCLib/Any/Inc/speed_torq_ctrl.h ****   * @param  pHandle: handler of the current instance of the SpeednTorqCtrl component.
 211:MCSDK_v6.3.2-Full/MotorControl/MCSDK/MCLib/Any/Inc/speed_torq_ctrl.h ****   * @param  hNominalCurrent: represents actually the maximum Iq current expressed in digit.
 212:MCSDK_v6.3.2-Full/MotorControl/MCSDK/MCLib/Any/Inc/speed_torq_ctrl.h ****   * @retval none
 213:MCSDK_v6.3.2-Full/MotorControl/MCSDK/MCLib/Any/Inc/speed_torq_ctrl.h ****   *
 214:MCSDK_v6.3.2-Full/MotorControl/MCSDK/MCLib/Any/Inc/speed_torq_ctrl.h ****   * - Not used into current implementation.
 215:MCSDK_v6.3.2-Full/MotorControl/MCSDK/MCLib/Any/Inc/speed_torq_ctrl.h ****   */
 216:MCSDK_v6.3.2-Full/MotorControl/MCSDK/MCLib/Any/Inc/speed_torq_ctrl.h **** static inline void STC_SetNominalCurrent(SpeednTorqCtrl_Handle_t *pHandle, uint16_t hNominalCurrent
 217:MCSDK_v6.3.2-Full/MotorControl/MCSDK/MCLib/Any/Inc/speed_torq_ctrl.h **** {
 218:MCSDK_v6.3.2-Full/MotorControl/MCSDK/MCLib/Any/Inc/speed_torq_ctrl.h **** #ifdef NULL_PTR_CHECK_SPD_TRQ_CTL
 219:MCSDK_v6.3.2-Full/MotorControl/MCSDK/MCLib/Any/Inc/speed_torq_ctrl.h ****   if (MC_NULL == pHandle)
 220:MCSDK_v6.3.2-Full/MotorControl/MCSDK/MCLib/Any/Inc/speed_torq_ctrl.h ****   {
 221:MCSDK_v6.3.2-Full/MotorControl/MCSDK/MCLib/Any/Inc/speed_torq_ctrl.h ****     /* Nothing to do */
ARM GAS  /tmp/cc6nzUni.s 			page 10


 222:MCSDK_v6.3.2-Full/MotorControl/MCSDK/MCLib/Any/Inc/speed_torq_ctrl.h ****   }
 223:MCSDK_v6.3.2-Full/MotorControl/MCSDK/MCLib/Any/Inc/speed_torq_ctrl.h ****   else
 224:MCSDK_v6.3.2-Full/MotorControl/MCSDK/MCLib/Any/Inc/speed_torq_ctrl.h ****   {
 225:MCSDK_v6.3.2-Full/MotorControl/MCSDK/MCLib/Any/Inc/speed_torq_ctrl.h **** #endif
 226:MCSDK_v6.3.2-Full/MotorControl/MCSDK/MCLib/Any/Inc/speed_torq_ctrl.h ****     pHandle->MaxPositiveTorque = hNominalCurrent;
 227:MCSDK_v6.3.2-Full/MotorControl/MCSDK/MCLib/Any/Inc/speed_torq_ctrl.h ****     pHandle->MinNegativeTorque = -(int16_t)hNominalCurrent;
 228:MCSDK_v6.3.2-Full/MotorControl/MCSDK/MCLib/Any/Inc/speed_torq_ctrl.h **** #ifdef NULL_PTR_CHECK_SPD_TRQ_CTL
 229:MCSDK_v6.3.2-Full/MotorControl/MCSDK/MCLib/Any/Inc/speed_torq_ctrl.h ****   }
 230:MCSDK_v6.3.2-Full/MotorControl/MCSDK/MCLib/Any/Inc/speed_torq_ctrl.h **** #endif
 231:MCSDK_v6.3.2-Full/MotorControl/MCSDK/MCLib/Any/Inc/speed_torq_ctrl.h **** }
 232:MCSDK_v6.3.2-Full/MotorControl/MCSDK/MCLib/Any/Inc/speed_torq_ctrl.h **** 
 233:MCSDK_v6.3.2-Full/MotorControl/MCSDK/MCLib/Any/Inc/speed_torq_ctrl.h **** /**
 234:MCSDK_v6.3.2-Full/MotorControl/MCSDK/MCLib/Any/Inc/speed_torq_ctrl.h ****   * @brief Returns the speed sensor utilized by the FOC.
 235:MCSDK_v6.3.2-Full/MotorControl/MCSDK/MCLib/Any/Inc/speed_torq_ctrl.h ****   * @param pHandle: handler of the current instance of the SpeednTorqCtrl component.
 236:MCSDK_v6.3.2-Full/MotorControl/MCSDK/MCLib/Any/Inc/speed_torq_ctrl.h ****   * @retval SpeednPosFdbk_Handle_t speed sensor utilized by the FOC.
 237:MCSDK_v6.3.2-Full/MotorControl/MCSDK/MCLib/Any/Inc/speed_torq_ctrl.h ****   *
 238:MCSDK_v6.3.2-Full/MotorControl/MCSDK/MCLib/Any/Inc/speed_torq_ctrl.h ****   * - Called as soon as component parameters are required by MC FW.
 239:MCSDK_v6.3.2-Full/MotorControl/MCSDK/MCLib/Any/Inc/speed_torq_ctrl.h ****   */
 240:MCSDK_v6.3.2-Full/MotorControl/MCSDK/MCLib/Any/Inc/speed_torq_ctrl.h **** static inline SpeednPosFdbk_Handle_t *STC_GetSpeedSensor(SpeednTorqCtrl_Handle_t *pHandle)
 133              		.loc 2 240 39 view .LVU28
 134              	.LBB7:
 241:MCSDK_v6.3.2-Full/MotorControl/MCSDK/MCLib/Any/Inc/speed_torq_ctrl.h **** {
 242:MCSDK_v6.3.2-Full/MotorControl/MCSDK/MCLib/Any/Inc/speed_torq_ctrl.h **** #ifdef NULL_PTR_CHECK_SPD_TRQ_CTL
 243:MCSDK_v6.3.2-Full/MotorControl/MCSDK/MCLib/Any/Inc/speed_torq_ctrl.h ****   return ((MC_NULL ==  pHandle) ? MC_NULL : pHandle->SPD);
 244:MCSDK_v6.3.2-Full/MotorControl/MCSDK/MCLib/Any/Inc/speed_torq_ctrl.h **** #else
 245:MCSDK_v6.3.2-Full/MotorControl/MCSDK/MCLib/Any/Inc/speed_torq_ctrl.h ****   return (pHandle->SPD);
 135              		.loc 2 245 3 view .LVU29
 136              		.loc 2 245 3 is_stmt 0 view .LVU30
 137              	.LBE7:
 138              	.LBE6:
 166:MCSDK_v6.3.2-Full/MotorControl/MCSDK/MCLib/Any/Src/feed_forward_ctrl.c ****     hSpeed_dpp = SPD_GetElSpeedDpp(SpeedSensor);
 139              		.loc 1 166 5 is_stmt 1 view .LVU31
 140              		.loc 1 166 18 is_stmt 0 view .LVU32
 141 0008 5069     		ldr	r0, [r2, #20]
 142              	.LVL4:
 143              		.loc 1 166 18 view .LVU33
 144 000a FFF7FEFF 		bl	SPD_GetElSpeedDpp
 145              	.LVL5:
 167:MCSDK_v6.3.2-Full/MotorControl/MCSDK/MCLib/Any/Src/feed_forward_ctrl.c ****     hAvBusVoltage_d = VBS_GetAvBusVoltage_d(pHandle->pBus_Sensor) / 2U;
 146              		.loc 1 167 5 is_stmt 1 view .LVU34
 147              	.LBB8:
 148              	.LBI8:
 149              		.file 3 "MCSDK_v6.3.2-Full/MotorControl/MCSDK/MCLib/Any/Inc/bus_voltage_sensor.h"
   1:MCSDK_v6.3.2-Full/MotorControl/MCSDK/MCLib/Any/Inc/bus_voltage_sensor.h **** /**
   2:MCSDK_v6.3.2-Full/MotorControl/MCSDK/MCLib/Any/Inc/bus_voltage_sensor.h ****   ******************************************************************************
   3:MCSDK_v6.3.2-Full/MotorControl/MCSDK/MCLib/Any/Inc/bus_voltage_sensor.h ****   * @file    bus_voltage_sensor.h
   4:MCSDK_v6.3.2-Full/MotorControl/MCSDK/MCLib/Any/Inc/bus_voltage_sensor.h ****   * @author  Motor Control SDK Team, ST Microelectronics
   5:MCSDK_v6.3.2-Full/MotorControl/MCSDK/MCLib/Any/Inc/bus_voltage_sensor.h ****   * @brief   This file contains all definitions and functions prototypes for the
   6:MCSDK_v6.3.2-Full/MotorControl/MCSDK/MCLib/Any/Inc/bus_voltage_sensor.h ****   *          BusVoltageSensor component of the Motor Control SDK.
   7:MCSDK_v6.3.2-Full/MotorControl/MCSDK/MCLib/Any/Inc/bus_voltage_sensor.h ****   ******************************************************************************
   8:MCSDK_v6.3.2-Full/MotorControl/MCSDK/MCLib/Any/Inc/bus_voltage_sensor.h ****   * @attention
   9:MCSDK_v6.3.2-Full/MotorControl/MCSDK/MCLib/Any/Inc/bus_voltage_sensor.h ****   *
  10:MCSDK_v6.3.2-Full/MotorControl/MCSDK/MCLib/Any/Inc/bus_voltage_sensor.h ****   * <h2><center>&copy; Copyright (c) 2024 STMicroelectronics.
  11:MCSDK_v6.3.2-Full/MotorControl/MCSDK/MCLib/Any/Inc/bus_voltage_sensor.h ****   * All rights reserved.</center></h2>
  12:MCSDK_v6.3.2-Full/MotorControl/MCSDK/MCLib/Any/Inc/bus_voltage_sensor.h ****   *
  13:MCSDK_v6.3.2-Full/MotorControl/MCSDK/MCLib/Any/Inc/bus_voltage_sensor.h ****   * This software component is licensed by ST under Ultimate Liberty license
  14:MCSDK_v6.3.2-Full/MotorControl/MCSDK/MCLib/Any/Inc/bus_voltage_sensor.h ****   * SLA0044, the "License"; You may not use this file except in compliance with
ARM GAS  /tmp/cc6nzUni.s 			page 11


  15:MCSDK_v6.3.2-Full/MotorControl/MCSDK/MCLib/Any/Inc/bus_voltage_sensor.h ****   * the License. You may obtain a copy of the License at:
  16:MCSDK_v6.3.2-Full/MotorControl/MCSDK/MCLib/Any/Inc/bus_voltage_sensor.h ****   *                             www.st.com/SLA0044
  17:MCSDK_v6.3.2-Full/MotorControl/MCSDK/MCLib/Any/Inc/bus_voltage_sensor.h ****   *
  18:MCSDK_v6.3.2-Full/MotorControl/MCSDK/MCLib/Any/Inc/bus_voltage_sensor.h ****   ******************************************************************************
  19:MCSDK_v6.3.2-Full/MotorControl/MCSDK/MCLib/Any/Inc/bus_voltage_sensor.h ****   * @ingroup BusVoltageSensor
  20:MCSDK_v6.3.2-Full/MotorControl/MCSDK/MCLib/Any/Inc/bus_voltage_sensor.h ****   */
  21:MCSDK_v6.3.2-Full/MotorControl/MCSDK/MCLib/Any/Inc/bus_voltage_sensor.h **** 
  22:MCSDK_v6.3.2-Full/MotorControl/MCSDK/MCLib/Any/Inc/bus_voltage_sensor.h **** /* Define to prevent recursive inclusion -------------------------------------*/
  23:MCSDK_v6.3.2-Full/MotorControl/MCSDK/MCLib/Any/Inc/bus_voltage_sensor.h **** #ifndef BUSVOLTAGESENSOR_H
  24:MCSDK_v6.3.2-Full/MotorControl/MCSDK/MCLib/Any/Inc/bus_voltage_sensor.h **** #define BUSVOLTAGESENSOR_H
  25:MCSDK_v6.3.2-Full/MotorControl/MCSDK/MCLib/Any/Inc/bus_voltage_sensor.h **** 
  26:MCSDK_v6.3.2-Full/MotorControl/MCSDK/MCLib/Any/Inc/bus_voltage_sensor.h **** #ifdef __cplusplus
  27:MCSDK_v6.3.2-Full/MotorControl/MCSDK/MCLib/Any/Inc/bus_voltage_sensor.h **** extern "C" {
  28:MCSDK_v6.3.2-Full/MotorControl/MCSDK/MCLib/Any/Inc/bus_voltage_sensor.h **** #endif /* __cplusplus */
  29:MCSDK_v6.3.2-Full/MotorControl/MCSDK/MCLib/Any/Inc/bus_voltage_sensor.h **** 
  30:MCSDK_v6.3.2-Full/MotorControl/MCSDK/MCLib/Any/Inc/bus_voltage_sensor.h **** /* Includes ------------------------------------------------------------------*/
  31:MCSDK_v6.3.2-Full/MotorControl/MCSDK/MCLib/Any/Inc/bus_voltage_sensor.h **** #include "mc_type.h"
  32:MCSDK_v6.3.2-Full/MotorControl/MCSDK/MCLib/Any/Inc/bus_voltage_sensor.h **** 
  33:MCSDK_v6.3.2-Full/MotorControl/MCSDK/MCLib/Any/Inc/bus_voltage_sensor.h **** /** @addtogroup MCSDK
  34:MCSDK_v6.3.2-Full/MotorControl/MCSDK/MCLib/Any/Inc/bus_voltage_sensor.h ****   * @{
  35:MCSDK_v6.3.2-Full/MotorControl/MCSDK/MCLib/Any/Inc/bus_voltage_sensor.h ****   */
  36:MCSDK_v6.3.2-Full/MotorControl/MCSDK/MCLib/Any/Inc/bus_voltage_sensor.h **** 
  37:MCSDK_v6.3.2-Full/MotorControl/MCSDK/MCLib/Any/Inc/bus_voltage_sensor.h **** /** @addtogroup BusVoltageSensor
  38:MCSDK_v6.3.2-Full/MotorControl/MCSDK/MCLib/Any/Inc/bus_voltage_sensor.h ****   * @{
  39:MCSDK_v6.3.2-Full/MotorControl/MCSDK/MCLib/Any/Inc/bus_voltage_sensor.h ****   */
  40:MCSDK_v6.3.2-Full/MotorControl/MCSDK/MCLib/Any/Inc/bus_voltage_sensor.h **** 
  41:MCSDK_v6.3.2-Full/MotorControl/MCSDK/MCLib/Any/Inc/bus_voltage_sensor.h **** /**
  42:MCSDK_v6.3.2-Full/MotorControl/MCSDK/MCLib/Any/Inc/bus_voltage_sensor.h ****   * @brief  BusVoltageSensor handle definition
  43:MCSDK_v6.3.2-Full/MotorControl/MCSDK/MCLib/Any/Inc/bus_voltage_sensor.h ****   */
  44:MCSDK_v6.3.2-Full/MotorControl/MCSDK/MCLib/Any/Inc/bus_voltage_sensor.h **** typedef struct
  45:MCSDK_v6.3.2-Full/MotorControl/MCSDK/MCLib/Any/Inc/bus_voltage_sensor.h **** {
  46:MCSDK_v6.3.2-Full/MotorControl/MCSDK/MCLib/Any/Inc/bus_voltage_sensor.h ****   SensorType_t SensorType;    /*!< It contains the information about the type
  47:MCSDK_v6.3.2-Full/MotorControl/MCSDK/MCLib/Any/Inc/bus_voltage_sensor.h ****                                    of instanced bus voltage sensor object.
  48:MCSDK_v6.3.2-Full/MotorControl/MCSDK/MCLib/Any/Inc/bus_voltage_sensor.h ****                                    It can be equal to REAL_SENSOR or
  49:MCSDK_v6.3.2-Full/MotorControl/MCSDK/MCLib/Any/Inc/bus_voltage_sensor.h ****                                    VIRTUAL_SENSOR */
  50:MCSDK_v6.3.2-Full/MotorControl/MCSDK/MCLib/Any/Inc/bus_voltage_sensor.h ****   uint16_t ConversionFactor;  /*!< It is used to convert bus voltage from
  51:MCSDK_v6.3.2-Full/MotorControl/MCSDK/MCLib/Any/Inc/bus_voltage_sensor.h ****                                    u16Volts into real Volts (V).
  52:MCSDK_v6.3.2-Full/MotorControl/MCSDK/MCLib/Any/Inc/bus_voltage_sensor.h ****                                    1 u16Volt = 65536/ConversionFactor Volts
  53:MCSDK_v6.3.2-Full/MotorControl/MCSDK/MCLib/Any/Inc/bus_voltage_sensor.h ****                                    For real sensors ConversionFactor it is
  54:MCSDK_v6.3.2-Full/MotorControl/MCSDK/MCLib/Any/Inc/bus_voltage_sensor.h ****                                    equal to the product between the expected MCU
  55:MCSDK_v6.3.2-Full/MotorControl/MCSDK/MCLib/Any/Inc/bus_voltage_sensor.h ****                                    voltage and the voltage sensing network
  56:MCSDK_v6.3.2-Full/MotorControl/MCSDK/MCLib/Any/Inc/bus_voltage_sensor.h ****                                    attenuation. For virtual sensors it must
  57:MCSDK_v6.3.2-Full/MotorControl/MCSDK/MCLib/Any/Inc/bus_voltage_sensor.h ****                                    be equal to 500 */
  58:MCSDK_v6.3.2-Full/MotorControl/MCSDK/MCLib/Any/Inc/bus_voltage_sensor.h **** 
  59:MCSDK_v6.3.2-Full/MotorControl/MCSDK/MCLib/Any/Inc/bus_voltage_sensor.h ****   uint16_t LatestConv;        /*!< It contains latest Vbus converted value
  60:MCSDK_v6.3.2-Full/MotorControl/MCSDK/MCLib/Any/Inc/bus_voltage_sensor.h ****                                    expressed in u16Volt format */
  61:MCSDK_v6.3.2-Full/MotorControl/MCSDK/MCLib/Any/Inc/bus_voltage_sensor.h ****   uint16_t AvBusVoltage_d;    /*!< It contains latest available average Vbus
  62:MCSDK_v6.3.2-Full/MotorControl/MCSDK/MCLib/Any/Inc/bus_voltage_sensor.h ****                                    expressed in u16Volt format */
  63:MCSDK_v6.3.2-Full/MotorControl/MCSDK/MCLib/Any/Inc/bus_voltage_sensor.h ****   uint16_t FaultState;        /*!< It contains latest Fault code (#MC_NO_ERROR,
  64:MCSDK_v6.3.2-Full/MotorControl/MCSDK/MCLib/Any/Inc/bus_voltage_sensor.h ****                                    #MC_OVER_VOLT or #MC_UNDER_VOLT) */
  65:MCSDK_v6.3.2-Full/MotorControl/MCSDK/MCLib/Any/Inc/bus_voltage_sensor.h **** } BusVoltageSensor_Handle_t;
  66:MCSDK_v6.3.2-Full/MotorControl/MCSDK/MCLib/Any/Inc/bus_voltage_sensor.h **** 
  67:MCSDK_v6.3.2-Full/MotorControl/MCSDK/MCLib/Any/Inc/bus_voltage_sensor.h **** 
  68:MCSDK_v6.3.2-Full/MotorControl/MCSDK/MCLib/Any/Inc/bus_voltage_sensor.h **** /* Exported functions ------------------------------------------------------- */
  69:MCSDK_v6.3.2-Full/MotorControl/MCSDK/MCLib/Any/Inc/bus_voltage_sensor.h **** uint16_t VBS_GetBusVoltage_d(const BusVoltageSensor_Handle_t *pHandle);
  70:MCSDK_v6.3.2-Full/MotorControl/MCSDK/MCLib/Any/Inc/bus_voltage_sensor.h **** uint16_t VBS_GetAvBusVoltage_V(const BusVoltageSensor_Handle_t *pHandle);
  71:MCSDK_v6.3.2-Full/MotorControl/MCSDK/MCLib/Any/Inc/bus_voltage_sensor.h **** 
ARM GAS  /tmp/cc6nzUni.s 			page 12


  72:MCSDK_v6.3.2-Full/MotorControl/MCSDK/MCLib/Any/Inc/bus_voltage_sensor.h **** /**
  73:MCSDK_v6.3.2-Full/MotorControl/MCSDK/MCLib/Any/Inc/bus_voltage_sensor.h ****   * @brief  It return latest averaged Vbus measurement expressed in u16Volt format
  74:MCSDK_v6.3.2-Full/MotorControl/MCSDK/MCLib/Any/Inc/bus_voltage_sensor.h ****   * @param  pHandle related Handle of BusVoltageSensor_Handle_t
  75:MCSDK_v6.3.2-Full/MotorControl/MCSDK/MCLib/Any/Inc/bus_voltage_sensor.h ****   * @retval uint16_t Latest averaged Vbus measurement in u16Volt format
  76:MCSDK_v6.3.2-Full/MotorControl/MCSDK/MCLib/Any/Inc/bus_voltage_sensor.h ****   */
  77:MCSDK_v6.3.2-Full/MotorControl/MCSDK/MCLib/Any/Inc/bus_voltage_sensor.h **** static inline uint16_t VBS_GetAvBusVoltage_d(const BusVoltageSensor_Handle_t *pHandle)
 150              		.loc 3 77 24 view .LVU35
 151              	.LBB9:
  78:MCSDK_v6.3.2-Full/MotorControl/MCSDK/MCLib/Any/Inc/bus_voltage_sensor.h **** {
  79:MCSDK_v6.3.2-Full/MotorControl/MCSDK/MCLib/Any/Inc/bus_voltage_sensor.h **** #ifdef NULL_PTR_CHECK_BUS_VOLT
  80:MCSDK_v6.3.2-Full/MotorControl/MCSDK/MCLib/Any/Inc/bus_voltage_sensor.h ****   uint16_t temp_avBusVoltage_d;
  81:MCSDK_v6.3.2-Full/MotorControl/MCSDK/MCLib/Any/Inc/bus_voltage_sensor.h **** 
  82:MCSDK_v6.3.2-Full/MotorControl/MCSDK/MCLib/Any/Inc/bus_voltage_sensor.h ****   if (MC_NULL == pHandle)
  83:MCSDK_v6.3.2-Full/MotorControl/MCSDK/MCLib/Any/Inc/bus_voltage_sensor.h ****   {
  84:MCSDK_v6.3.2-Full/MotorControl/MCSDK/MCLib/Any/Inc/bus_voltage_sensor.h ****     temp_avBusVoltage_d = 0U;
  85:MCSDK_v6.3.2-Full/MotorControl/MCSDK/MCLib/Any/Inc/bus_voltage_sensor.h ****   }
  86:MCSDK_v6.3.2-Full/MotorControl/MCSDK/MCLib/Any/Inc/bus_voltage_sensor.h ****   else
  87:MCSDK_v6.3.2-Full/MotorControl/MCSDK/MCLib/Any/Inc/bus_voltage_sensor.h ****   {
  88:MCSDK_v6.3.2-Full/MotorControl/MCSDK/MCLib/Any/Inc/bus_voltage_sensor.h ****     temp_avBusVoltage_d = pHandle->AvBusVoltage_d;
  89:MCSDK_v6.3.2-Full/MotorControl/MCSDK/MCLib/Any/Inc/bus_voltage_sensor.h ****   }
  90:MCSDK_v6.3.2-Full/MotorControl/MCSDK/MCLib/Any/Inc/bus_voltage_sensor.h ****   return (temp_avBusVoltage_d);
  91:MCSDK_v6.3.2-Full/MotorControl/MCSDK/MCLib/Any/Inc/bus_voltage_sensor.h **** #else
  92:MCSDK_v6.3.2-Full/MotorControl/MCSDK/MCLib/Any/Inc/bus_voltage_sensor.h ****   return (pHandle->AvBusVoltage_d);
 152              		.loc 3 92 3 view .LVU36
 153              		.loc 3 92 18 is_stmt 0 view .LVU37
 154 000e A369     		ldr	r3, [r4, #24]
 155 0010 DB88     		ldrh	r3, [r3, #6]
 156              	.LVL6:
 157              		.loc 3 92 18 view .LVU38
 158              	.LBE9:
 159              	.LBE8:
 168:MCSDK_v6.3.2-Full/MotorControl/MCSDK/MCLib/Any/Src/feed_forward_ctrl.c **** 
 169:MCSDK_v6.3.2-Full/MotorControl/MCSDK/MCLib/Any/Src/feed_forward_ctrl.c ****     if (hAvBusVoltage_d != (uint16_t)0)
 160              		.loc 1 169 5 is_stmt 1 view .LVU39
 161              		.loc 1 169 8 is_stmt 0 view .LVU40
 162 0012 012B     		cmp	r3, #1
 163 0014 40D9     		bls	.L5
 170:MCSDK_v6.3.2-Full/MotorControl/MCSDK/MCLib/Any/Src/feed_forward_ctrl.c ****     {
 171:MCSDK_v6.3.2-Full/MotorControl/MCSDK/MCLib/Any/Src/feed_forward_ctrl.c ****       /*q-axes ff voltage calculation */
 172:MCSDK_v6.3.2-Full/MotorControl/MCSDK/MCLib/Any/Src/feed_forward_ctrl.c ****       wtemp1 = (((int32_t)(hSpeed_dpp) * Iqdref.d) / (int32_t)32768);
 164              		.loc 1 172 7 is_stmt 1 view .LVU41
 165              	.LVL7:
 173:MCSDK_v6.3.2-Full/MotorControl/MCSDK/MCLib/Any/Src/feed_forward_ctrl.c ****       wtemp2 = (wtemp1 * pHandle->wConstant_1D) / (int32_t)(hAvBusVoltage_d);
 166              		.loc 1 173 7 view .LVU42
 167              		.loc 1 173 51 is_stmt 0 view .LVU43
 168 0016 4FEA530E 		lsr	lr, r3, #1
 172:MCSDK_v6.3.2-Full/MotorControl/MCSDK/MCLib/Any/Src/feed_forward_ctrl.c ****       wtemp2 = (wtemp1 * pHandle->wConstant_1D) / (int32_t)(hAvBusVoltage_d);
 169              		.loc 1 172 48 view .LVU44
 170 001a BDF90620 		ldrsh	r2, [sp, #6]
 172:MCSDK_v6.3.2-Full/MotorControl/MCSDK/MCLib/Any/Src/feed_forward_ctrl.c ****       wtemp2 = (wtemp1 * pHandle->wConstant_1D) / (int32_t)(hAvBusVoltage_d);
 171              		.loc 1 172 40 view .LVU45
 172 001e 00FB02F2 		mul	r2, r0, r2
 172:MCSDK_v6.3.2-Full/MotorControl/MCSDK/MCLib/Any/Src/feed_forward_ctrl.c ****       wtemp2 = (wtemp1 * pHandle->wConstant_1D) / (int32_t)(hAvBusVoltage_d);
 173              		.loc 1 172 14 view .LVU46
 174 0022 002A     		cmp	r2, #0
 175 0024 BCBF     		itt	lt
 176 0026 02F5FF42 		addlt	r2, r2, #32640
ARM GAS  /tmp/cc6nzUni.s 			page 13


 177 002a 7F32     		addlt	r2, r2, #127
 178 002c D213     		asrs	r2, r2, #15
 179              		.loc 1 173 24 view .LVU47
 180 002e E368     		ldr	r3, [r4, #12]
 181              	.LVL8:
 182              		.loc 1 173 24 view .LVU48
 183 0030 03FB02F2 		mul	r2, r3, r2
 184              		.loc 1 173 14 view .LVU49
 185 0034 92FBFEFC 		sdiv	ip, r2, lr
 186              	.LVL9:
 174:MCSDK_v6.3.2-Full/MotorControl/MCSDK/MCLib/Any/Src/feed_forward_ctrl.c ****       wtemp2 *= (int32_t)2;
 187              		.loc 1 174 7 is_stmt 1 view .LVU50
 175:MCSDK_v6.3.2-Full/MotorControl/MCSDK/MCLib/Any/Src/feed_forward_ctrl.c **** 
 176:MCSDK_v6.3.2-Full/MotorControl/MCSDK/MCLib/Any/Src/feed_forward_ctrl.c ****       wtemp1 = ((pHandle->wConstant_2 * hSpeed_dpp) / (int32_t)hAvBusVoltage_d) * (int32_t)16;
 188              		.loc 1 176 7 view .LVU51
 177:MCSDK_v6.3.2-Full/MotorControl/MCSDK/MCLib/Any/Src/feed_forward_ctrl.c **** 
 178:MCSDK_v6.3.2-Full/MotorControl/MCSDK/MCLib/Any/Src/feed_forward_ctrl.c ****       wtemp2 = wtemp1 + wtemp2;
 189              		.loc 1 178 7 view .LVU52
 179:MCSDK_v6.3.2-Full/MotorControl/MCSDK/MCLib/Any/Src/feed_forward_ctrl.c **** 
 180:MCSDK_v6.3.2-Full/MotorControl/MCSDK/MCLib/Any/Src/feed_forward_ctrl.c ****       SATURATION_TO_S16(wtemp2)
 190              		.loc 1 180 7 view .LVU53
 176:MCSDK_v6.3.2-Full/MotorControl/MCSDK/MCLib/Any/Src/feed_forward_ctrl.c **** 
 191              		.loc 1 176 39 is_stmt 0 view .LVU54
 192 0038 6169     		ldr	r1, [r4, #20]
 193 003a 01FB00F2 		mul	r2, r1, r0
 176:MCSDK_v6.3.2-Full/MotorControl/MCSDK/MCLib/Any/Src/feed_forward_ctrl.c **** 
 194              		.loc 1 176 53 view .LVU55
 195 003e 92FBFEF2 		sdiv	r2, r2, lr
 176:MCSDK_v6.3.2-Full/MotorControl/MCSDK/MCLib/Any/Src/feed_forward_ctrl.c **** 
 196              		.loc 1 176 14 view .LVU56
 197 0042 1201     		lsls	r2, r2, #4
 178:MCSDK_v6.3.2-Full/MotorControl/MCSDK/MCLib/Any/Src/feed_forward_ctrl.c **** 
 198              		.loc 1 178 14 view .LVU57
 199 0044 02EB4C02 		add	r2, r2, ip, lsl #1
 200 0048 154B     		ldr	r3, .L10
 201 004a 9A42     		cmp	r2, r3
 202 004c B8BF     		it	lt
 203 004e 1A46     		movlt	r2, r3
 204              	.LVL10:
 205              		.loc 1 180 7 is_stmt 1 view .LVU58
 181:MCSDK_v6.3.2-Full/MotorControl/MCSDK/MCLib/Any/Src/feed_forward_ctrl.c **** 
 182:MCSDK_v6.3.2-Full/MotorControl/MCSDK/MCLib/Any/Src/feed_forward_ctrl.c ****       pHandle->Vqdff.q = (int16_t)(wtemp2);
 206              		.loc 1 182 7 view .LVU59
 207              		.loc 1 182 26 is_stmt 0 view .LVU60
 208 0050 47F6FF73 		movw	r3, #32767
 209 0054 9A42     		cmp	r2, r3
 210 0056 A8BF     		it	ge
 211 0058 1A46     		movge	r2, r3
 212              	.LVL11:
 213              		.loc 1 182 26 view .LVU61
 214 005a 2280     		strh	r2, [r4]	@ movhi
 215              	.LVL12:
 183:MCSDK_v6.3.2-Full/MotorControl/MCSDK/MCLib/Any/Src/feed_forward_ctrl.c **** 
 184:MCSDK_v6.3.2-Full/MotorControl/MCSDK/MCLib/Any/Src/feed_forward_ctrl.c ****       /* d-axes ff voltage calculation */
 185:MCSDK_v6.3.2-Full/MotorControl/MCSDK/MCLib/Any/Src/feed_forward_ctrl.c ****       wtemp1 = (((int32_t)(hSpeed_dpp) * Iqdref.q) / (int32_t)32768);
 216              		.loc 1 185 7 is_stmt 1 view .LVU62
 186:MCSDK_v6.3.2-Full/MotorControl/MCSDK/MCLib/Any/Src/feed_forward_ctrl.c ****       wtemp2 = (wtemp1 * pHandle->wConstant_1Q) / (int32_t)(hAvBusVoltage_d);
ARM GAS  /tmp/cc6nzUni.s 			page 14


 217              		.loc 1 186 7 view .LVU63
 185:MCSDK_v6.3.2-Full/MotorControl/MCSDK/MCLib/Any/Src/feed_forward_ctrl.c ****       wtemp2 = (wtemp1 * pHandle->wConstant_1Q) / (int32_t)(hAvBusVoltage_d);
 218              		.loc 1 185 48 is_stmt 0 view .LVU64
 219 005c BDF90430 		ldrsh	r3, [sp, #4]
 185:MCSDK_v6.3.2-Full/MotorControl/MCSDK/MCLib/Any/Src/feed_forward_ctrl.c ****       wtemp2 = (wtemp1 * pHandle->wConstant_1Q) / (int32_t)(hAvBusVoltage_d);
 220              		.loc 1 185 40 view .LVU65
 221 0060 00FB03F3 		mul	r3, r0, r3
 185:MCSDK_v6.3.2-Full/MotorControl/MCSDK/MCLib/Any/Src/feed_forward_ctrl.c ****       wtemp2 = (wtemp1 * pHandle->wConstant_1Q) / (int32_t)(hAvBusVoltage_d);
 222              		.loc 1 185 14 view .LVU66
 223 0064 002B     		cmp	r3, #0
 224 0066 BCBF     		itt	lt
 225 0068 03F5FF43 		addlt	r3, r3, #32640
 226 006c 7F33     		addlt	r3, r3, #127
 227 006e DB13     		asrs	r3, r3, #15
 228              		.loc 1 186 24 view .LVU67
 229 0070 2269     		ldr	r2, [r4, #16]
 230 0072 02FB03F3 		mul	r3, r2, r3
 231              		.loc 1 186 14 view .LVU68
 232 0076 93FBFEF3 		sdiv	r3, r3, lr
 233              	.LVL13:
 187:MCSDK_v6.3.2-Full/MotorControl/MCSDK/MCLib/Any/Src/feed_forward_ctrl.c ****       wtemp2 *= (int32_t)(-2);
 234              		.loc 1 187 7 is_stmt 1 view .LVU69
 188:MCSDK_v6.3.2-Full/MotorControl/MCSDK/MCLib/Any/Src/feed_forward_ctrl.c **** 
 189:MCSDK_v6.3.2-Full/MotorControl/MCSDK/MCLib/Any/Src/feed_forward_ctrl.c ****       SATURATION_TO_S16(wtemp2)
 235              		.loc 1 189 7 view .LVU70
 187:MCSDK_v6.3.2-Full/MotorControl/MCSDK/MCLib/Any/Src/feed_forward_ctrl.c ****       wtemp2 *= (int32_t)(-2);
 236              		.loc 1 187 14 is_stmt 0 view .LVU71
 237 007a C3EBC373 		rsb	r3, r3, r3, lsl #31
 238              	.LVL14:
 187:MCSDK_v6.3.2-Full/MotorControl/MCSDK/MCLib/Any/Src/feed_forward_ctrl.c ****       wtemp2 *= (int32_t)(-2);
 239              		.loc 1 187 14 view .LVU72
 240 007e 5B00     		lsls	r3, r3, #1
 241 0080 074A     		ldr	r2, .L10
 242              	.LVL15:
 187:MCSDK_v6.3.2-Full/MotorControl/MCSDK/MCLib/Any/Src/feed_forward_ctrl.c ****       wtemp2 *= (int32_t)(-2);
 243              		.loc 1 187 14 view .LVU73
 244 0082 9342     		cmp	r3, r2
 245              	.LVL16:
 187:MCSDK_v6.3.2-Full/MotorControl/MCSDK/MCLib/Any/Src/feed_forward_ctrl.c ****       wtemp2 *= (int32_t)(-2);
 246              		.loc 1 187 14 view .LVU74
 247 0084 B8BF     		it	lt
 248 0086 1346     		movlt	r3, r2
 249              	.LVL17:
 250              		.loc 1 189 7 is_stmt 1 view .LVU75
 190:MCSDK_v6.3.2-Full/MotorControl/MCSDK/MCLib/Any/Src/feed_forward_ctrl.c **** 
 191:MCSDK_v6.3.2-Full/MotorControl/MCSDK/MCLib/Any/Src/feed_forward_ctrl.c ****       pHandle->Vqdff.d = (int16_t)(wtemp2);
 251              		.loc 1 191 7 view .LVU76
 252              		.loc 1 191 26 is_stmt 0 view .LVU77
 253 0088 47F6FF72 		movw	r2, #32767
 254 008c 9342     		cmp	r3, r2
 255 008e A8BF     		it	ge
 256 0090 1346     		movge	r3, r2
 257              	.LVL18:
 258              		.loc 1 191 26 view .LVU78
 259 0092 6380     		strh	r3, [r4, #2]	@ movhi
 260              	.LVL19:
 261              	.L4:
ARM GAS  /tmp/cc6nzUni.s 			page 15


 192:MCSDK_v6.3.2-Full/MotorControl/MCSDK/MCLib/Any/Src/feed_forward_ctrl.c ****     }
 193:MCSDK_v6.3.2-Full/MotorControl/MCSDK/MCLib/Any/Src/feed_forward_ctrl.c ****     else
 194:MCSDK_v6.3.2-Full/MotorControl/MCSDK/MCLib/Any/Src/feed_forward_ctrl.c ****     {
 195:MCSDK_v6.3.2-Full/MotorControl/MCSDK/MCLib/Any/Src/feed_forward_ctrl.c ****       pHandle->Vqdff.q = (int16_t)0;
 196:MCSDK_v6.3.2-Full/MotorControl/MCSDK/MCLib/Any/Src/feed_forward_ctrl.c ****       pHandle->Vqdff.d = (int16_t)0;
 197:MCSDK_v6.3.2-Full/MotorControl/MCSDK/MCLib/Any/Src/feed_forward_ctrl.c ****     }
 198:MCSDK_v6.3.2-Full/MotorControl/MCSDK/MCLib/Any/Src/feed_forward_ctrl.c **** #ifdef NULL_PTR_CHECK_FEED_FWD_CTRL
 199:MCSDK_v6.3.2-Full/MotorControl/MCSDK/MCLib/Any/Src/feed_forward_ctrl.c ****   }
 200:MCSDK_v6.3.2-Full/MotorControl/MCSDK/MCLib/Any/Src/feed_forward_ctrl.c **** #endif
 201:MCSDK_v6.3.2-Full/MotorControl/MCSDK/MCLib/Any/Src/feed_forward_ctrl.c **** }
 262              		.loc 1 201 1 view .LVU79
 263 0094 02B0     		add	sp, sp, #8
 264              	.LCFI4:
 265              		.cfi_remember_state
 266              		.cfi_def_cfa_offset 8
 267              		@ sp needed
 268 0096 10BD     		pop	{r4, pc}
 269              	.LVL20:
 270              	.L5:
 271              	.LCFI5:
 272              		.cfi_restore_state
 195:MCSDK_v6.3.2-Full/MotorControl/MCSDK/MCLib/Any/Src/feed_forward_ctrl.c ****       pHandle->Vqdff.d = (int16_t)0;
 273              		.loc 1 195 7 is_stmt 1 view .LVU80
 195:MCSDK_v6.3.2-Full/MotorControl/MCSDK/MCLib/Any/Src/feed_forward_ctrl.c ****       pHandle->Vqdff.d = (int16_t)0;
 274              		.loc 1 195 24 is_stmt 0 view .LVU81
 275 0098 0023     		movs	r3, #0
 276              	.LVL21:
 195:MCSDK_v6.3.2-Full/MotorControl/MCSDK/MCLib/Any/Src/feed_forward_ctrl.c ****       pHandle->Vqdff.d = (int16_t)0;
 277              		.loc 1 195 24 view .LVU82
 278 009a 2380     		strh	r3, [r4]	@ movhi
 279              	.LVL22:
 196:MCSDK_v6.3.2-Full/MotorControl/MCSDK/MCLib/Any/Src/feed_forward_ctrl.c ****     }
 280              		.loc 1 196 7 is_stmt 1 view .LVU83
 196:MCSDK_v6.3.2-Full/MotorControl/MCSDK/MCLib/Any/Src/feed_forward_ctrl.c ****     }
 281              		.loc 1 196 24 is_stmt 0 view .LVU84
 282 009c 6380     		strh	r3, [r4, #2]	@ movhi
 283              		.loc 1 201 1 view .LVU85
 284 009e F9E7     		b	.L4
 285              	.L11:
 286              		.align	2
 287              	.L10:
 288 00a0 0180FFFF 		.word	-32767
 289              		.cfi_endproc
 290              	.LFE1449:
 292              		.section	.text.FF_VqdConditioning,"ax",%progbits
 293              		.align	1
 294              		.weak	FF_VqdConditioning
 295              		.syntax unified
 296              		.thumb
 297              		.thumb_func
 298              		.fpu fpv4-sp-d16
 300              	FF_VqdConditioning:
 301              	.LVL23:
 302              	.LFB1450:
 202:MCSDK_v6.3.2-Full/MotorControl/MCSDK/MCLib/Any/Src/feed_forward_ctrl.c **** 
 203:MCSDK_v6.3.2-Full/MotorControl/MCSDK/MCLib/Any/Src/feed_forward_ctrl.c **** //cstat #MISRAC2012-Rule-2.2_b
 204:MCSDK_v6.3.2-Full/MotorControl/MCSDK/MCLib/Any/Src/feed_forward_ctrl.c **** /* False positive  */
ARM GAS  /tmp/cc6nzUni.s 			page 16


 205:MCSDK_v6.3.2-Full/MotorControl/MCSDK/MCLib/Any/Src/feed_forward_ctrl.c **** #if defined (CCMRAM)
 206:MCSDK_v6.3.2-Full/MotorControl/MCSDK/MCLib/Any/Src/feed_forward_ctrl.c **** #if defined (__ICCARM__)
 207:MCSDK_v6.3.2-Full/MotorControl/MCSDK/MCLib/Any/Src/feed_forward_ctrl.c **** #pragma location = ".ccmram"
 208:MCSDK_v6.3.2-Full/MotorControl/MCSDK/MCLib/Any/Src/feed_forward_ctrl.c **** #elif defined (__CC_ARM) || defined(__GNUC__)
 209:MCSDK_v6.3.2-Full/MotorControl/MCSDK/MCLib/Any/Src/feed_forward_ctrl.c **** __attribute__((section(".ccmram")))
 210:MCSDK_v6.3.2-Full/MotorControl/MCSDK/MCLib/Any/Src/feed_forward_ctrl.c **** #endif
 211:MCSDK_v6.3.2-Full/MotorControl/MCSDK/MCLib/Any/Src/feed_forward_ctrl.c **** #endif
 212:MCSDK_v6.3.2-Full/MotorControl/MCSDK/MCLib/Any/Src/feed_forward_ctrl.c **** /**
 213:MCSDK_v6.3.2-Full/MotorControl/MCSDK/MCLib/Any/Src/feed_forward_ctrl.c ****   * @brief  It returns the Vqd components computed by input plus the Feed-forward
 214:MCSDK_v6.3.2-Full/MotorControl/MCSDK/MCLib/Any/Src/feed_forward_ctrl.c ****   *         action and store the last Vqd values in the internal variable.
 215:MCSDK_v6.3.2-Full/MotorControl/MCSDK/MCLib/Any/Src/feed_forward_ctrl.c ****   * @param  pHandle Feed-forward structure.
 216:MCSDK_v6.3.2-Full/MotorControl/MCSDK/MCLib/Any/Src/feed_forward_ctrl.c ****   * @param  Vqd Initial value of Vqd to be manipulated by Feed-forward action .
 217:MCSDK_v6.3.2-Full/MotorControl/MCSDK/MCLib/Any/Src/feed_forward_ctrl.c ****   * @retval qd_t Vqd conditioned values.
 218:MCSDK_v6.3.2-Full/MotorControl/MCSDK/MCLib/Any/Src/feed_forward_ctrl.c ****   */
 219:MCSDK_v6.3.2-Full/MotorControl/MCSDK/MCLib/Any/Src/feed_forward_ctrl.c **** __weak qd_t FF_VqdConditioning(FF_Handle_t *pHandle, qd_t Vqd)
 220:MCSDK_v6.3.2-Full/MotorControl/MCSDK/MCLib/Any/Src/feed_forward_ctrl.c **** {
 303              		.loc 1 220 1 is_stmt 1 view -0
 304              		.cfi_startproc
 305              		@ args = 0, pretend = 0, frame = 16
 306              		@ frame_needed = 0, uses_anonymous_args = 0
 307              		@ link register save eliminated.
 308              		.loc 1 220 1 is_stmt 0 view .LVU87
 309 0000 10B4     		push	{r4}
 310              	.LCFI6:
 311              		.cfi_def_cfa_offset 4
 312              		.cfi_offset 4, -4
 313 0002 85B0     		sub	sp, sp, #20
 314              	.LCFI7:
 315              		.cfi_def_cfa_offset 24
 316 0004 0A46     		mov	r2, r1	@ movhi
 317 0006 8C46     		mov	ip, r1
 221:MCSDK_v6.3.2-Full/MotorControl/MCSDK/MCLib/Any/Src/feed_forward_ctrl.c ****   qd_t lVqd;
 318              		.loc 1 221 3 is_stmt 1 view .LVU88
 222:MCSDK_v6.3.2-Full/MotorControl/MCSDK/MCLib/Any/Src/feed_forward_ctrl.c **** #ifdef NULL_PTR_CHECK_FEED_FWD_CTRL
 223:MCSDK_v6.3.2-Full/MotorControl/MCSDK/MCLib/Any/Src/feed_forward_ctrl.c ****   if (NULL == pHandle)
 224:MCSDK_v6.3.2-Full/MotorControl/MCSDK/MCLib/Any/Src/feed_forward_ctrl.c ****   {
 225:MCSDK_v6.3.2-Full/MotorControl/MCSDK/MCLib/Any/Src/feed_forward_ctrl.c ****     lVqd.q = 0;
 226:MCSDK_v6.3.2-Full/MotorControl/MCSDK/MCLib/Any/Src/feed_forward_ctrl.c ****     lVqd.d = 0;
 227:MCSDK_v6.3.2-Full/MotorControl/MCSDK/MCLib/Any/Src/feed_forward_ctrl.c ****   }
 228:MCSDK_v6.3.2-Full/MotorControl/MCSDK/MCLib/Any/Src/feed_forward_ctrl.c ****   else
 229:MCSDK_v6.3.2-Full/MotorControl/MCSDK/MCLib/Any/Src/feed_forward_ctrl.c ****   {
 230:MCSDK_v6.3.2-Full/MotorControl/MCSDK/MCLib/Any/Src/feed_forward_ctrl.c **** #endif
 231:MCSDK_v6.3.2-Full/MotorControl/MCSDK/MCLib/Any/Src/feed_forward_ctrl.c ****     int32_t wtemp;
 319              		.loc 1 231 5 view .LVU89
 232:MCSDK_v6.3.2-Full/MotorControl/MCSDK/MCLib/Any/Src/feed_forward_ctrl.c **** 
 233:MCSDK_v6.3.2-Full/MotorControl/MCSDK/MCLib/Any/Src/feed_forward_ctrl.c ****     pHandle->VqdPIout = Vqd;
 320              		.loc 1 233 5 view .LVU90
 321              		.loc 1 233 23 is_stmt 0 view .LVU91
 322 0008 4160     		str	r1, [r0, #4]
 234:MCSDK_v6.3.2-Full/MotorControl/MCSDK/MCLib/Any/Src/feed_forward_ctrl.c **** 
 235:MCSDK_v6.3.2-Full/MotorControl/MCSDK/MCLib/Any/Src/feed_forward_ctrl.c ****     wtemp = (int32_t)(Vqd.q) + pHandle->Vqdff.q;
 323              		.loc 1 235 5 is_stmt 1 view .LVU92
 324              	.LVL24:
 236:MCSDK_v6.3.2-Full/MotorControl/MCSDK/MCLib/Any/Src/feed_forward_ctrl.c **** 
 237:MCSDK_v6.3.2-Full/MotorControl/MCSDK/MCLib/Any/Src/feed_forward_ctrl.c ****     SATURATION_TO_S16(wtemp)
 325              		.loc 1 237 5 view .LVU93
 235:MCSDK_v6.3.2-Full/MotorControl/MCSDK/MCLib/Any/Src/feed_forward_ctrl.c **** 
ARM GAS  /tmp/cc6nzUni.s 			page 17


 326              		.loc 1 235 46 is_stmt 0 view .LVU94
 327 000a B0F90010 		ldrsh	r1, [r0]
 235:MCSDK_v6.3.2-Full/MotorControl/MCSDK/MCLib/Any/Src/feed_forward_ctrl.c **** 
 328              		.loc 1 235 11 view .LVU95
 329 000e 01FA82F2 		sxtah	r2, r1, r2
 330 0012 0F4C     		ldr	r4, .L14
 331 0014 A242     		cmp	r2, r4
 332 0016 B8BF     		it	lt
 333 0018 2246     		movlt	r2, r4
 334              	.LVL25:
 335              		.loc 1 237 5 is_stmt 1 view .LVU96
 238:MCSDK_v6.3.2-Full/MotorControl/MCSDK/MCLib/Any/Src/feed_forward_ctrl.c **** 
 239:MCSDK_v6.3.2-Full/MotorControl/MCSDK/MCLib/Any/Src/feed_forward_ctrl.c ****     lVqd.q = (int16_t)wtemp;
 336              		.loc 1 239 5 view .LVU97
 240:MCSDK_v6.3.2-Full/MotorControl/MCSDK/MCLib/Any/Src/feed_forward_ctrl.c **** 
 241:MCSDK_v6.3.2-Full/MotorControl/MCSDK/MCLib/Any/Src/feed_forward_ctrl.c ****     wtemp = (int32_t)(Vqd.d) + pHandle->Vqdff.d;
 337              		.loc 1 241 5 view .LVU98
 242:MCSDK_v6.3.2-Full/MotorControl/MCSDK/MCLib/Any/Src/feed_forward_ctrl.c **** 
 243:MCSDK_v6.3.2-Full/MotorControl/MCSDK/MCLib/Any/Src/feed_forward_ctrl.c ****     SATURATION_TO_S16(wtemp)
 338              		.loc 1 243 5 view .LVU99
 241:MCSDK_v6.3.2-Full/MotorControl/MCSDK/MCLib/Any/Src/feed_forward_ctrl.c **** 
 339              		.loc 1 241 46 is_stmt 0 view .LVU100
 340 001a B0F90230 		ldrsh	r3, [r0, #2]
 241:MCSDK_v6.3.2-Full/MotorControl/MCSDK/MCLib/Any/Src/feed_forward_ctrl.c **** 
 341              		.loc 1 241 11 view .LVU101
 342 001e 03EB2C41 		add	r1, r3, ip, asr #16
 343 0022 A142     		cmp	r1, r4
 344 0024 B8BF     		it	lt
 345 0026 2146     		movlt	r1, r4
 346              	.LVL26:
 347              		.loc 1 243 5 is_stmt 1 view .LVU102
 244:MCSDK_v6.3.2-Full/MotorControl/MCSDK/MCLib/Any/Src/feed_forward_ctrl.c **** 
 245:MCSDK_v6.3.2-Full/MotorControl/MCSDK/MCLib/Any/Src/feed_forward_ctrl.c ****     lVqd.d = (int16_t)wtemp;
 348              		.loc 1 245 5 view .LVU103
 246:MCSDK_v6.3.2-Full/MotorControl/MCSDK/MCLib/Any/Src/feed_forward_ctrl.c **** #ifdef NULL_PTR_CHECK_FEED_FWD_CTRL
 247:MCSDK_v6.3.2-Full/MotorControl/MCSDK/MCLib/Any/Src/feed_forward_ctrl.c ****   }
 248:MCSDK_v6.3.2-Full/MotorControl/MCSDK/MCLib/Any/Src/feed_forward_ctrl.c **** #endif
 249:MCSDK_v6.3.2-Full/MotorControl/MCSDK/MCLib/Any/Src/feed_forward_ctrl.c ****   return (lVqd);
 349              		.loc 1 249 3 view .LVU104
 239:MCSDK_v6.3.2-Full/MotorControl/MCSDK/MCLib/Any/Src/feed_forward_ctrl.c **** 
 350              		.loc 1 239 14 is_stmt 0 view .LVU105
 351 0028 47F6FF73 		movw	r3, #32767
 352 002c 9A42     		cmp	r2, r3
 353 002e A8BF     		it	ge
 354 0030 1A46     		movge	r2, r3
 355              	.LVL27:
 245:MCSDK_v6.3.2-Full/MotorControl/MCSDK/MCLib/Any/Src/feed_forward_ctrl.c **** #ifdef NULL_PTR_CHECK_FEED_FWD_CTRL
 356              		.loc 1 245 14 view .LVU106
 357 0032 9942     		cmp	r1, r3
 358 0034 A8BF     		it	ge
 359 0036 1946     		movge	r1, r3
 360              	.LVL28:
 361              		.loc 1 249 10 view .LVU107
 362 0038 0020     		movs	r0, #0
 363              	.LVL29:
 364              		.loc 1 249 10 view .LVU108
 365 003a 92B2     		uxth	r2, r2
ARM GAS  /tmp/cc6nzUni.s 			page 18


 366 003c 62F30F00 		bfi	r0, r2, #0, #16
 367 0040 89B2     		uxth	r1, r1
 368 0042 61F31F40 		bfi	r0, r1, #16, #16
 250:MCSDK_v6.3.2-Full/MotorControl/MCSDK/MCLib/Any/Src/feed_forward_ctrl.c **** }
 369              		.loc 1 250 1 view .LVU109
 370 0046 05B0     		add	sp, sp, #20
 371              	.LCFI8:
 372              		.cfi_def_cfa_offset 4
 373              		@ sp needed
 374 0048 5DF8044B 		ldr	r4, [sp], #4
 375              	.LCFI9:
 376              		.cfi_restore 4
 377              		.cfi_def_cfa_offset 0
 378              	.LVL30:
 379              		.loc 1 250 1 view .LVU110
 380 004c 7047     		bx	lr
 381              	.L15:
 382 004e 00BF     		.align	2
 383              	.L14:
 384 0050 0180FFFF 		.word	-32767
 385              		.cfi_endproc
 386              	.LFE1450:
 388              		.section	.text.FF_DataProcess,"ax",%progbits
 389              		.align	1
 390              		.weak	FF_DataProcess
 391              		.syntax unified
 392              		.thumb
 393              		.thumb_func
 394              		.fpu fpv4-sp-d16
 396              	FF_DataProcess:
 397              	.LVL31:
 398              	.LFB1451:
 251:MCSDK_v6.3.2-Full/MotorControl/MCSDK/MCLib/Any/Src/feed_forward_ctrl.c **** 
 252:MCSDK_v6.3.2-Full/MotorControl/MCSDK/MCLib/Any/Src/feed_forward_ctrl.c **** #if defined (CCMRAM)
 253:MCSDK_v6.3.2-Full/MotorControl/MCSDK/MCLib/Any/Src/feed_forward_ctrl.c **** #if defined (__ICCARM__)
 254:MCSDK_v6.3.2-Full/MotorControl/MCSDK/MCLib/Any/Src/feed_forward_ctrl.c **** #pragma location = ".ccmram"
 255:MCSDK_v6.3.2-Full/MotorControl/MCSDK/MCLib/Any/Src/feed_forward_ctrl.c **** #elif defined (__CC_ARM) || defined(__GNUC__)
 256:MCSDK_v6.3.2-Full/MotorControl/MCSDK/MCLib/Any/Src/feed_forward_ctrl.c **** __attribute__((section(".ccmram")))
 257:MCSDK_v6.3.2-Full/MotorControl/MCSDK/MCLib/Any/Src/feed_forward_ctrl.c **** #endif
 258:MCSDK_v6.3.2-Full/MotorControl/MCSDK/MCLib/Any/Src/feed_forward_ctrl.c **** #endif
 259:MCSDK_v6.3.2-Full/MotorControl/MCSDK/MCLib/Any/Src/feed_forward_ctrl.c **** /**
 260:MCSDK_v6.3.2-Full/MotorControl/MCSDK/MCLib/Any/Src/feed_forward_ctrl.c ****   * @brief  It low-pass filters the Vqd voltage coming from the speed PI. Filter
 261:MCSDK_v6.3.2-Full/MotorControl/MCSDK/MCLib/Any/Src/feed_forward_ctrl.c ****   *         bandwidth depends on hVqdLowPassFilterBW parameter.
 262:MCSDK_v6.3.2-Full/MotorControl/MCSDK/MCLib/Any/Src/feed_forward_ctrl.c ****   * @param  pHandle Feed-forward structure.
 263:MCSDK_v6.3.2-Full/MotorControl/MCSDK/MCLib/Any/Src/feed_forward_ctrl.c ****   */
 264:MCSDK_v6.3.2-Full/MotorControl/MCSDK/MCLib/Any/Src/feed_forward_ctrl.c **** __weak void FF_DataProcess(FF_Handle_t *pHandle)
 265:MCSDK_v6.3.2-Full/MotorControl/MCSDK/MCLib/Any/Src/feed_forward_ctrl.c **** {
 399              		.loc 1 265 1 is_stmt 1 view -0
 400              		.cfi_startproc
 401              		@ args = 0, pretend = 0, frame = 0
 402              		@ frame_needed = 0, uses_anonymous_args = 0
 403              		@ link register save eliminated.
 266:MCSDK_v6.3.2-Full/MotorControl/MCSDK/MCLib/Any/Src/feed_forward_ctrl.c **** #ifdef NULL_PTR_CHECK_FEED_FWD_CTRL
 267:MCSDK_v6.3.2-Full/MotorControl/MCSDK/MCLib/Any/Src/feed_forward_ctrl.c ****   if (NULL == pHandle)
 268:MCSDK_v6.3.2-Full/MotorControl/MCSDK/MCLib/Any/Src/feed_forward_ctrl.c ****   {
 269:MCSDK_v6.3.2-Full/MotorControl/MCSDK/MCLib/Any/Src/feed_forward_ctrl.c ****     /* Nothing to do */
 270:MCSDK_v6.3.2-Full/MotorControl/MCSDK/MCLib/Any/Src/feed_forward_ctrl.c ****   }
ARM GAS  /tmp/cc6nzUni.s 			page 19


 271:MCSDK_v6.3.2-Full/MotorControl/MCSDK/MCLib/Any/Src/feed_forward_ctrl.c ****   else
 272:MCSDK_v6.3.2-Full/MotorControl/MCSDK/MCLib/Any/Src/feed_forward_ctrl.c ****   {
 273:MCSDK_v6.3.2-Full/MotorControl/MCSDK/MCLib/Any/Src/feed_forward_ctrl.c **** #endif
 274:MCSDK_v6.3.2-Full/MotorControl/MCSDK/MCLib/Any/Src/feed_forward_ctrl.c ****     int32_t wAux;
 404              		.loc 1 274 5 view .LVU112
 275:MCSDK_v6.3.2-Full/MotorControl/MCSDK/MCLib/Any/Src/feed_forward_ctrl.c ****     int32_t lowPassFilterBW = (int32_t) pHandle->hVqdLowPassFilterBW - (int32_t)1;
 405              		.loc 1 275 5 view .LVU113
 406              		.loc 1 275 31 is_stmt 0 view .LVU114
 407 0000 838C     		ldrh	r3, [r0, #36]
 408              		.loc 1 275 13 view .LVU115
 409 0002 591E     		subs	r1, r3, #1
 410              	.LVL32:
 276:MCSDK_v6.3.2-Full/MotorControl/MCSDK/MCLib/Any/Src/feed_forward_ctrl.c **** 
 277:MCSDK_v6.3.2-Full/MotorControl/MCSDK/MCLib/Any/Src/feed_forward_ctrl.c **** #ifndef FULL_MISRA_C_COMPLIANCY_FWD_FDB
 278:MCSDK_v6.3.2-Full/MotorControl/MCSDK/MCLib/Any/Src/feed_forward_ctrl.c ****     /* Computation of average Vqd as output by PI(D) current controllers, used by
 279:MCSDK_v6.3.2-Full/MotorControl/MCSDK/MCLib/Any/Src/feed_forward_ctrl.c ****        Feed-forward controller algorithm */
 280:MCSDK_v6.3.2-Full/MotorControl/MCSDK/MCLib/Any/Src/feed_forward_ctrl.c ****     wAux = (int32_t)(pHandle->VqdAvPIout.q) * lowPassFilterBW;
 411              		.loc 1 280 5 is_stmt 1 view .LVU116
 412              		.loc 1 280 12 is_stmt 0 view .LVU117
 413 0004 B0F90830 		ldrsh	r3, [r0, #8]
 414              	.LVL33:
 281:MCSDK_v6.3.2-Full/MotorControl/MCSDK/MCLib/Any/Src/feed_forward_ctrl.c ****     wAux += pHandle->VqdPIout.q;
 415              		.loc 1 281 5 is_stmt 1 view .LVU118
 282:MCSDK_v6.3.2-Full/MotorControl/MCSDK/MCLib/Any/Src/feed_forward_ctrl.c ****     //cstat !MISRAC2012-Rule-1.3_n !ATH-shift-neg !MISRAC2012-Rule-10.1_R6
 283:MCSDK_v6.3.2-Full/MotorControl/MCSDK/MCLib/Any/Src/feed_forward_ctrl.c ****     pHandle->VqdAvPIout.q = (int16_t)(wAux >> pHandle->hVqdLowPassFilterBWLOG);
 416              		.loc 1 283 5 view .LVU119
 417              		.loc 1 283 54 is_stmt 0 view .LVU120
 418 0008 B0F834C0 		ldrh	ip, [r0, #52]
 281:MCSDK_v6.3.2-Full/MotorControl/MCSDK/MCLib/Any/Src/feed_forward_ctrl.c ****     wAux += pHandle->VqdPIout.q;
 419              		.loc 1 281 30 view .LVU121
 420 000c B0F90420 		ldrsh	r2, [r0, #4]
 281:MCSDK_v6.3.2-Full/MotorControl/MCSDK/MCLib/Any/Src/feed_forward_ctrl.c ****     wAux += pHandle->VqdPIout.q;
 421              		.loc 1 281 10 view .LVU122
 422 0010 01FB0322 		mla	r2, r1, r3, r2
 423              		.loc 1 283 44 view .LVU123
 424 0014 42FA0CF2 		asr	r2, r2, ip
 425              		.loc 1 283 29 view .LVU124
 426 0018 0281     		strh	r2, [r0, #8]	@ movhi
 284:MCSDK_v6.3.2-Full/MotorControl/MCSDK/MCLib/Any/Src/feed_forward_ctrl.c **** 
 285:MCSDK_v6.3.2-Full/MotorControl/MCSDK/MCLib/Any/Src/feed_forward_ctrl.c ****     wAux = (int32_t)(pHandle->VqdAvPIout.d) * lowPassFilterBW;
 427              		.loc 1 285 5 is_stmt 1 view .LVU125
 428              		.loc 1 285 12 is_stmt 0 view .LVU126
 429 001a B0F90A20 		ldrsh	r2, [r0, #10]
 430              	.LVL34:
 286:MCSDK_v6.3.2-Full/MotorControl/MCSDK/MCLib/Any/Src/feed_forward_ctrl.c ****     wAux += pHandle->VqdPIout.d;
 431              		.loc 1 286 5 is_stmt 1 view .LVU127
 287:MCSDK_v6.3.2-Full/MotorControl/MCSDK/MCLib/Any/Src/feed_forward_ctrl.c ****     //cstat !MISRAC2012-Rule-1.3_n !ATH-shift-neg !MISRAC2012-Rule-10.1_R6
 288:MCSDK_v6.3.2-Full/MotorControl/MCSDK/MCLib/Any/Src/feed_forward_ctrl.c ****     pHandle->VqdAvPIout.d = (int16_t)(wAux >> pHandle->hVqdLowPassFilterBWLOG);
 432              		.loc 1 288 5 view .LVU128
 286:MCSDK_v6.3.2-Full/MotorControl/MCSDK/MCLib/Any/Src/feed_forward_ctrl.c ****     wAux += pHandle->VqdPIout.d;
 433              		.loc 1 286 30 is_stmt 0 view .LVU129
 434 001e B0F90630 		ldrsh	r3, [r0, #6]
 286:MCSDK_v6.3.2-Full/MotorControl/MCSDK/MCLib/Any/Src/feed_forward_ctrl.c ****     wAux += pHandle->VqdPIout.d;
 435              		.loc 1 286 10 view .LVU130
 436 0022 01FB0233 		mla	r3, r1, r2, r3
 437              		.loc 1 288 44 view .LVU131
 438 0026 43FA0CF3 		asr	r3, r3, ip
ARM GAS  /tmp/cc6nzUni.s 			page 20


 439              		.loc 1 288 29 view .LVU132
 440 002a 4381     		strh	r3, [r0, #10]	@ movhi
 289:MCSDK_v6.3.2-Full/MotorControl/MCSDK/MCLib/Any/Src/feed_forward_ctrl.c **** 
 290:MCSDK_v6.3.2-Full/MotorControl/MCSDK/MCLib/Any/Src/feed_forward_ctrl.c **** #else
 291:MCSDK_v6.3.2-Full/MotorControl/MCSDK/MCLib/Any/Src/feed_forward_ctrl.c ****     /* Computation of average Vqd as output by PI(D) current controllers, used by
 292:MCSDK_v6.3.2-Full/MotorControl/MCSDK/MCLib/Any/Src/feed_forward_ctrl.c ****        Feed-forward controller algorithm */
 293:MCSDK_v6.3.2-Full/MotorControl/MCSDK/MCLib/Any/Src/feed_forward_ctrl.c ****     wAux = (int32_t)(pHandle->VqdAvPIout.q) * lowPassFilterBW;
 294:MCSDK_v6.3.2-Full/MotorControl/MCSDK/MCLib/Any/Src/feed_forward_ctrl.c ****     wAux += pHandle->VqdPIout.q;
 295:MCSDK_v6.3.2-Full/MotorControl/MCSDK/MCLib/Any/Src/feed_forward_ctrl.c **** 
 296:MCSDK_v6.3.2-Full/MotorControl/MCSDK/MCLib/Any/Src/feed_forward_ctrl.c ****     pHandle->VqdAvPIout.q = (int16_t)(wAux / (int32_t)(pHandle->hVqdLowPassFilterBW));
 297:MCSDK_v6.3.2-Full/MotorControl/MCSDK/MCLib/Any/Src/feed_forward_ctrl.c **** 
 298:MCSDK_v6.3.2-Full/MotorControl/MCSDK/MCLib/Any/Src/feed_forward_ctrl.c ****     wAux = (int32_t)(pHandle->VqdAvPIout.d) * lowPassFilterBW;
 299:MCSDK_v6.3.2-Full/MotorControl/MCSDK/MCLib/Any/Src/feed_forward_ctrl.c ****     wAux += pHandle->VqdPIout.d;
 300:MCSDK_v6.3.2-Full/MotorControl/MCSDK/MCLib/Any/Src/feed_forward_ctrl.c **** 
 301:MCSDK_v6.3.2-Full/MotorControl/MCSDK/MCLib/Any/Src/feed_forward_ctrl.c ****     pHandle->VqdAvPIout.d = (int16_t)(wAux / (int32_t)(pHandle->hVqdLowPassFilterBW));
 302:MCSDK_v6.3.2-Full/MotorControl/MCSDK/MCLib/Any/Src/feed_forward_ctrl.c **** #endif
 303:MCSDK_v6.3.2-Full/MotorControl/MCSDK/MCLib/Any/Src/feed_forward_ctrl.c **** #ifdef NULL_PTR_CHECK_FEED_FWD_CTRL
 304:MCSDK_v6.3.2-Full/MotorControl/MCSDK/MCLib/Any/Src/feed_forward_ctrl.c ****   }
 305:MCSDK_v6.3.2-Full/MotorControl/MCSDK/MCLib/Any/Src/feed_forward_ctrl.c **** #endif
 306:MCSDK_v6.3.2-Full/MotorControl/MCSDK/MCLib/Any/Src/feed_forward_ctrl.c **** }
 441              		.loc 1 306 1 view .LVU133
 442 002c 7047     		bx	lr
 443              		.cfi_endproc
 444              	.LFE1451:
 446              		.section	.text.FF_InitFOCAdditionalMethods,"ax",%progbits
 447              		.align	1
 448              		.weak	FF_InitFOCAdditionalMethods
 449              		.syntax unified
 450              		.thumb
 451              		.thumb_func
 452              		.fpu fpv4-sp-d16
 454              	FF_InitFOCAdditionalMethods:
 455              	.LVL35:
 456              	.LFB1452:
 307:MCSDK_v6.3.2-Full/MotorControl/MCSDK/MCLib/Any/Src/feed_forward_ctrl.c **** 
 308:MCSDK_v6.3.2-Full/MotorControl/MCSDK/MCLib/Any/Src/feed_forward_ctrl.c **** /**
 309:MCSDK_v6.3.2-Full/MotorControl/MCSDK/MCLib/Any/Src/feed_forward_ctrl.c ****   * @brief  Use this method to initialize FF variables in START_TO_RUN state.
 310:MCSDK_v6.3.2-Full/MotorControl/MCSDK/MCLib/Any/Src/feed_forward_ctrl.c ****   * @param  pHandle Feed-forward structure.
 311:MCSDK_v6.3.2-Full/MotorControl/MCSDK/MCLib/Any/Src/feed_forward_ctrl.c ****   */
 312:MCSDK_v6.3.2-Full/MotorControl/MCSDK/MCLib/Any/Src/feed_forward_ctrl.c **** __weak void FF_InitFOCAdditionalMethods(FF_Handle_t *pHandle)
 313:MCSDK_v6.3.2-Full/MotorControl/MCSDK/MCLib/Any/Src/feed_forward_ctrl.c **** {
 457              		.loc 1 313 1 is_stmt 1 view -0
 458              		.cfi_startproc
 459              		@ args = 0, pretend = 0, frame = 0
 460              		@ frame_needed = 0, uses_anonymous_args = 0
 461              		.loc 1 313 1 is_stmt 0 view .LVU135
 462 0000 38B5     		push	{r3, r4, r5, lr}
 463              	.LCFI10:
 464              		.cfi_def_cfa_offset 16
 465              		.cfi_offset 3, -16
 466              		.cfi_offset 4, -12
 467              		.cfi_offset 5, -8
 468              		.cfi_offset 14, -4
 469 0002 0446     		mov	r4, r0
 314:MCSDK_v6.3.2-Full/MotorControl/MCSDK/MCLib/Any/Src/feed_forward_ctrl.c **** #ifdef NULL_PTR_CHECK_FEED_FWD_CTRL
 315:MCSDK_v6.3.2-Full/MotorControl/MCSDK/MCLib/Any/Src/feed_forward_ctrl.c ****   if (NULL == pHandle)
 316:MCSDK_v6.3.2-Full/MotorControl/MCSDK/MCLib/Any/Src/feed_forward_ctrl.c ****   {
ARM GAS  /tmp/cc6nzUni.s 			page 21


 317:MCSDK_v6.3.2-Full/MotorControl/MCSDK/MCLib/Any/Src/feed_forward_ctrl.c ****     /* Nothing to do */
 318:MCSDK_v6.3.2-Full/MotorControl/MCSDK/MCLib/Any/Src/feed_forward_ctrl.c ****   }
 319:MCSDK_v6.3.2-Full/MotorControl/MCSDK/MCLib/Any/Src/feed_forward_ctrl.c ****   else
 320:MCSDK_v6.3.2-Full/MotorControl/MCSDK/MCLib/Any/Src/feed_forward_ctrl.c ****   {
 321:MCSDK_v6.3.2-Full/MotorControl/MCSDK/MCLib/Any/Src/feed_forward_ctrl.c **** #endif
 322:MCSDK_v6.3.2-Full/MotorControl/MCSDK/MCLib/Any/Src/feed_forward_ctrl.c ****     pHandle->VqdAvPIout.q = 0;
 470              		.loc 1 322 5 is_stmt 1 view .LVU136
 471              		.loc 1 322 27 is_stmt 0 view .LVU137
 472 0004 0025     		movs	r5, #0
 473 0006 0581     		strh	r5, [r0, #8]	@ movhi
 323:MCSDK_v6.3.2-Full/MotorControl/MCSDK/MCLib/Any/Src/feed_forward_ctrl.c ****     pHandle->VqdAvPIout.d = 0;
 474              		.loc 1 323 5 is_stmt 1 view .LVU138
 475              		.loc 1 323 27 is_stmt 0 view .LVU139
 476 0008 4581     		strh	r5, [r0, #10]	@ movhi
 324:MCSDK_v6.3.2-Full/MotorControl/MCSDK/MCLib/Any/Src/feed_forward_ctrl.c ****     PID_SetIntegralTerm(pHandle->pPID_q, 0);
 477              		.loc 1 324 5 is_stmt 1 view .LVU140
 478 000a 2946     		mov	r1, r5
 479 000c C069     		ldr	r0, [r0, #28]
 480              	.LVL36:
 481              		.loc 1 324 5 is_stmt 0 view .LVU141
 482 000e FFF7FEFF 		bl	PID_SetIntegralTerm
 483              	.LVL37:
 325:MCSDK_v6.3.2-Full/MotorControl/MCSDK/MCLib/Any/Src/feed_forward_ctrl.c ****     PID_SetIntegralTerm(pHandle->pPID_d, 0);
 484              		.loc 1 325 5 is_stmt 1 view .LVU142
 485 0012 2946     		mov	r1, r5
 486 0014 206A     		ldr	r0, [r4, #32]
 487 0016 FFF7FEFF 		bl	PID_SetIntegralTerm
 488              	.LVL38:
 326:MCSDK_v6.3.2-Full/MotorControl/MCSDK/MCLib/Any/Src/feed_forward_ctrl.c **** #ifdef NULL_PTR_CHECK_FEED_FWD_CTRL
 327:MCSDK_v6.3.2-Full/MotorControl/MCSDK/MCLib/Any/Src/feed_forward_ctrl.c ****   }
 328:MCSDK_v6.3.2-Full/MotorControl/MCSDK/MCLib/Any/Src/feed_forward_ctrl.c **** #endif
 329:MCSDK_v6.3.2-Full/MotorControl/MCSDK/MCLib/Any/Src/feed_forward_ctrl.c **** }
 489              		.loc 1 329 1 is_stmt 0 view .LVU143
 490 001a 38BD     		pop	{r3, r4, r5, pc}
 491              		.loc 1 329 1 view .LVU144
 492              		.cfi_endproc
 493              	.LFE1452:
 495              		.section	.text.FF_SetFFConstants,"ax",%progbits
 496              		.align	1
 497              		.weak	FF_SetFFConstants
 498              		.syntax unified
 499              		.thumb
 500              		.thumb_func
 501              		.fpu fpv4-sp-d16
 503              	FF_SetFFConstants:
 504              	.LVL39:
 505              	.LFB1453:
 330:MCSDK_v6.3.2-Full/MotorControl/MCSDK/MCLib/Any/Src/feed_forward_ctrl.c **** 
 331:MCSDK_v6.3.2-Full/MotorControl/MCSDK/MCLib/Any/Src/feed_forward_ctrl.c **** /**
 332:MCSDK_v6.3.2-Full/MotorControl/MCSDK/MCLib/Any/Src/feed_forward_ctrl.c ****   * @brief  Use this method to set new constants values used by
 333:MCSDK_v6.3.2-Full/MotorControl/MCSDK/MCLib/Any/Src/feed_forward_ctrl.c ****   *         Feed-forward algorithm.
 334:MCSDK_v6.3.2-Full/MotorControl/MCSDK/MCLib/Any/Src/feed_forward_ctrl.c ****   * @param  pHandle Feed-forward structure.
 335:MCSDK_v6.3.2-Full/MotorControl/MCSDK/MCLib/Any/Src/feed_forward_ctrl.c ****   * @param  sNewConstants The FF_TuningStruct_t containing constants used by
 336:MCSDK_v6.3.2-Full/MotorControl/MCSDK/MCLib/Any/Src/feed_forward_ctrl.c ****   *         Feed-forward algorithm.
 337:MCSDK_v6.3.2-Full/MotorControl/MCSDK/MCLib/Any/Src/feed_forward_ctrl.c ****   */
 338:MCSDK_v6.3.2-Full/MotorControl/MCSDK/MCLib/Any/Src/feed_forward_ctrl.c **** __weak void FF_SetFFConstants(FF_Handle_t *pHandle, FF_TuningStruct_t sNewConstants)
 339:MCSDK_v6.3.2-Full/MotorControl/MCSDK/MCLib/Any/Src/feed_forward_ctrl.c **** {
ARM GAS  /tmp/cc6nzUni.s 			page 22


 506              		.loc 1 339 1 is_stmt 1 view -0
 507              		.cfi_startproc
 508              		@ args = 0, pretend = 0, frame = 16
 509              		@ frame_needed = 0, uses_anonymous_args = 0
 510              		@ link register save eliminated.
 511              		.loc 1 339 1 is_stmt 0 view .LVU146
 512 0000 84B0     		sub	sp, sp, #16
 513              	.LCFI11:
 514              		.cfi_def_cfa_offset 16
 515 0002 0DF1100C 		add	ip, sp, #16
 516 0006 0CE90E00 		stmdb	ip, {r1, r2, r3}
 340:MCSDK_v6.3.2-Full/MotorControl/MCSDK/MCLib/Any/Src/feed_forward_ctrl.c **** #ifdef NULL_PTR_CHECK_FEED_FWD_CTRL
 341:MCSDK_v6.3.2-Full/MotorControl/MCSDK/MCLib/Any/Src/feed_forward_ctrl.c ****   if (NULL == pHandle)
 342:MCSDK_v6.3.2-Full/MotorControl/MCSDK/MCLib/Any/Src/feed_forward_ctrl.c ****   {
 343:MCSDK_v6.3.2-Full/MotorControl/MCSDK/MCLib/Any/Src/feed_forward_ctrl.c ****     /* Nothing to do */
 344:MCSDK_v6.3.2-Full/MotorControl/MCSDK/MCLib/Any/Src/feed_forward_ctrl.c ****   }
 345:MCSDK_v6.3.2-Full/MotorControl/MCSDK/MCLib/Any/Src/feed_forward_ctrl.c ****   else
 346:MCSDK_v6.3.2-Full/MotorControl/MCSDK/MCLib/Any/Src/feed_forward_ctrl.c ****   {
 347:MCSDK_v6.3.2-Full/MotorControl/MCSDK/MCLib/Any/Src/feed_forward_ctrl.c **** #endif
 348:MCSDK_v6.3.2-Full/MotorControl/MCSDK/MCLib/Any/Src/feed_forward_ctrl.c ****     pHandle->wConstant_1D = sNewConstants.wConst_1D;
 517              		.loc 1 348 5 is_stmt 1 view .LVU147
 518              		.loc 1 348 27 is_stmt 0 view .LVU148
 519 000a C160     		str	r1, [r0, #12]
 349:MCSDK_v6.3.2-Full/MotorControl/MCSDK/MCLib/Any/Src/feed_forward_ctrl.c ****     pHandle->wConstant_1Q = sNewConstants.wConst_1Q;
 520              		.loc 1 349 5 is_stmt 1 view .LVU149
 521              		.loc 1 349 27 is_stmt 0 view .LVU150
 522 000c 0261     		str	r2, [r0, #16]
 350:MCSDK_v6.3.2-Full/MotorControl/MCSDK/MCLib/Any/Src/feed_forward_ctrl.c ****     pHandle->wConstant_2  = sNewConstants.wConst_2;
 523              		.loc 1 350 5 is_stmt 1 view .LVU151
 524              		.loc 1 350 27 is_stmt 0 view .LVU152
 525 000e 039B     		ldr	r3, [sp, #12]
 526 0010 4361     		str	r3, [r0, #20]
 351:MCSDK_v6.3.2-Full/MotorControl/MCSDK/MCLib/Any/Src/feed_forward_ctrl.c **** #ifdef NULL_PTR_CHECK_FEED_FWD_CTRL
 352:MCSDK_v6.3.2-Full/MotorControl/MCSDK/MCLib/Any/Src/feed_forward_ctrl.c ****   }
 353:MCSDK_v6.3.2-Full/MotorControl/MCSDK/MCLib/Any/Src/feed_forward_ctrl.c **** #endif
 354:MCSDK_v6.3.2-Full/MotorControl/MCSDK/MCLib/Any/Src/feed_forward_ctrl.c **** }
 527              		.loc 1 354 1 view .LVU153
 528 0012 04B0     		add	sp, sp, #16
 529              	.LCFI12:
 530              		.cfi_def_cfa_offset 0
 531              		@ sp needed
 532 0014 7047     		bx	lr
 533              		.cfi_endproc
 534              	.LFE1453:
 536              		.section	.text.FF_GetFFConstants,"ax",%progbits
 537              		.align	1
 538              		.weak	FF_GetFFConstants
 539              		.syntax unified
 540              		.thumb
 541              		.thumb_func
 542              		.fpu fpv4-sp-d16
 544              	FF_GetFFConstants:
 545              	.LVL40:
 546              	.LFB1454:
 355:MCSDK_v6.3.2-Full/MotorControl/MCSDK/MCLib/Any/Src/feed_forward_ctrl.c **** 
 356:MCSDK_v6.3.2-Full/MotorControl/MCSDK/MCLib/Any/Src/feed_forward_ctrl.c **** 
 357:MCSDK_v6.3.2-Full/MotorControl/MCSDK/MCLib/Any/Src/feed_forward_ctrl.c **** //cstat #MISRAC2012-Rule-2.2_b
ARM GAS  /tmp/cc6nzUni.s 			page 23


 358:MCSDK_v6.3.2-Full/MotorControl/MCSDK/MCLib/Any/Src/feed_forward_ctrl.c **** /* False positive  */
 359:MCSDK_v6.3.2-Full/MotorControl/MCSDK/MCLib/Any/Src/feed_forward_ctrl.c **** /**
 360:MCSDK_v6.3.2-Full/MotorControl/MCSDK/MCLib/Any/Src/feed_forward_ctrl.c ****   * @brief  Use this method to get current constants values used by
 361:MCSDK_v6.3.2-Full/MotorControl/MCSDK/MCLib/Any/Src/feed_forward_ctrl.c ****   *         Feed-forward algorithm.
 362:MCSDK_v6.3.2-Full/MotorControl/MCSDK/MCLib/Any/Src/feed_forward_ctrl.c ****   * @param  pHandle Feed-forward structure.
 363:MCSDK_v6.3.2-Full/MotorControl/MCSDK/MCLib/Any/Src/feed_forward_ctrl.c ****   * @retval FF_TuningStruct_t Values of the constants used by
 364:MCSDK_v6.3.2-Full/MotorControl/MCSDK/MCLib/Any/Src/feed_forward_ctrl.c ****   *         Feed-forward algorithm.
 365:MCSDK_v6.3.2-Full/MotorControl/MCSDK/MCLib/Any/Src/feed_forward_ctrl.c ****   */
 366:MCSDK_v6.3.2-Full/MotorControl/MCSDK/MCLib/Any/Src/feed_forward_ctrl.c **** //cstat !MISRAC2012-Rule-8.13
 367:MCSDK_v6.3.2-Full/MotorControl/MCSDK/MCLib/Any/Src/feed_forward_ctrl.c **** __weak FF_TuningStruct_t FF_GetFFConstants(FF_Handle_t *pHandle)
 368:MCSDK_v6.3.2-Full/MotorControl/MCSDK/MCLib/Any/Src/feed_forward_ctrl.c **** {
 547              		.loc 1 368 1 is_stmt 1 view -0
 548              		.cfi_startproc
 549              		@ args = 0, pretend = 0, frame = 0
 550              		@ frame_needed = 0, uses_anonymous_args = 0
 551              		@ link register save eliminated.
 552              		.loc 1 368 1 is_stmt 0 view .LVU155
 553 0000 10B4     		push	{r4}
 554              	.LCFI13:
 555              		.cfi_def_cfa_offset 4
 556              		.cfi_offset 4, -4
 369:MCSDK_v6.3.2-Full/MotorControl/MCSDK/MCLib/Any/Src/feed_forward_ctrl.c ****   FF_TuningStruct_t LocalConstants;
 557              		.loc 1 369 3 is_stmt 1 view .LVU156
 370:MCSDK_v6.3.2-Full/MotorControl/MCSDK/MCLib/Any/Src/feed_forward_ctrl.c **** #ifdef NULL_PTR_CHECK_FEED_FWD_CTRL
 371:MCSDK_v6.3.2-Full/MotorControl/MCSDK/MCLib/Any/Src/feed_forward_ctrl.c ****   if (NULL == pHandle)
 372:MCSDK_v6.3.2-Full/MotorControl/MCSDK/MCLib/Any/Src/feed_forward_ctrl.c ****   {
 373:MCSDK_v6.3.2-Full/MotorControl/MCSDK/MCLib/Any/Src/feed_forward_ctrl.c ****     LocalConstants.wConst_1D = 0;
 374:MCSDK_v6.3.2-Full/MotorControl/MCSDK/MCLib/Any/Src/feed_forward_ctrl.c ****     LocalConstants.wConst_1Q = 0;
 375:MCSDK_v6.3.2-Full/MotorControl/MCSDK/MCLib/Any/Src/feed_forward_ctrl.c ****     LocalConstants.wConst_2 = 0;
 376:MCSDK_v6.3.2-Full/MotorControl/MCSDK/MCLib/Any/Src/feed_forward_ctrl.c ****   }
 377:MCSDK_v6.3.2-Full/MotorControl/MCSDK/MCLib/Any/Src/feed_forward_ctrl.c ****   else
 378:MCSDK_v6.3.2-Full/MotorControl/MCSDK/MCLib/Any/Src/feed_forward_ctrl.c ****   {
 379:MCSDK_v6.3.2-Full/MotorControl/MCSDK/MCLib/Any/Src/feed_forward_ctrl.c **** #endif
 380:MCSDK_v6.3.2-Full/MotorControl/MCSDK/MCLib/Any/Src/feed_forward_ctrl.c ****     LocalConstants.wConst_1D = pHandle->wConstant_1D;
 558              		.loc 1 380 5 view .LVU157
 559              	.LVL41:
 381:MCSDK_v6.3.2-Full/MotorControl/MCSDK/MCLib/Any/Src/feed_forward_ctrl.c ****     LocalConstants.wConst_1Q = pHandle->wConstant_1Q;
 560              		.loc 1 381 5 view .LVU158
 561              		.loc 1 381 39 is_stmt 0 view .LVU159
 562 0002 0C69     		ldr	r4, [r1, #16]
 563              	.LVL42:
 382:MCSDK_v6.3.2-Full/MotorControl/MCSDK/MCLib/Any/Src/feed_forward_ctrl.c ****     LocalConstants.wConst_2 =  pHandle->wConstant_2;
 564              		.loc 1 382 5 is_stmt 1 view .LVU160
 565              		.loc 1 382 39 is_stmt 0 view .LVU161
 566 0004 4A69     		ldr	r2, [r1, #20]
 567              	.LVL43:
 383:MCSDK_v6.3.2-Full/MotorControl/MCSDK/MCLib/Any/Src/feed_forward_ctrl.c **** #ifdef NULL_PTR_CHECK_FEED_FWD_CTRL
 384:MCSDK_v6.3.2-Full/MotorControl/MCSDK/MCLib/Any/Src/feed_forward_ctrl.c ****   }
 385:MCSDK_v6.3.2-Full/MotorControl/MCSDK/MCLib/Any/Src/feed_forward_ctrl.c **** #endif
 386:MCSDK_v6.3.2-Full/MotorControl/MCSDK/MCLib/Any/Src/feed_forward_ctrl.c ****   return (LocalConstants);
 568              		.loc 1 386 3 is_stmt 1 view .LVU162
 569              		.loc 1 386 10 is_stmt 0 view .LVU163
 570 0006 C968     		ldr	r1, [r1, #12]
 571              	.LVL44:
 572              		.loc 1 386 10 view .LVU164
 573 0008 0160     		str	r1, [r0]
 574 000a 4460     		str	r4, [r0, #4]
ARM GAS  /tmp/cc6nzUni.s 			page 24


 575 000c 8260     		str	r2, [r0, #8]
 576              	.LVL45:
 387:MCSDK_v6.3.2-Full/MotorControl/MCSDK/MCLib/Any/Src/feed_forward_ctrl.c **** }
 577              		.loc 1 387 1 view .LVU165
 578 000e 5DF8044B 		ldr	r4, [sp], #4
 579              	.LCFI14:
 580              		.cfi_restore 4
 581              		.cfi_def_cfa_offset 0
 582 0012 7047     		bx	lr
 583              		.cfi_endproc
 584              	.LFE1454:
 586              		.section	.text.FF_GetVqdff,"ax",%progbits
 587              		.align	1
 588              		.weak	FF_GetVqdff
 589              		.syntax unified
 590              		.thumb
 591              		.thumb_func
 592              		.fpu fpv4-sp-d16
 594              	FF_GetVqdff:
 595              	.LVL46:
 596              	.LFB1455:
 388:MCSDK_v6.3.2-Full/MotorControl/MCSDK/MCLib/Any/Src/feed_forward_ctrl.c **** 
 389:MCSDK_v6.3.2-Full/MotorControl/MCSDK/MCLib/Any/Src/feed_forward_ctrl.c **** 
 390:MCSDK_v6.3.2-Full/MotorControl/MCSDK/MCLib/Any/Src/feed_forward_ctrl.c **** /**
 391:MCSDK_v6.3.2-Full/MotorControl/MCSDK/MCLib/Any/Src/feed_forward_ctrl.c ****   * @brief  Use this method to get present values for the Vqd Feed-forward
 392:MCSDK_v6.3.2-Full/MotorControl/MCSDK/MCLib/Any/Src/feed_forward_ctrl.c ****   *         components.
 393:MCSDK_v6.3.2-Full/MotorControl/MCSDK/MCLib/Any/Src/feed_forward_ctrl.c ****   * @param  pHandle Feed-forward structure.
 394:MCSDK_v6.3.2-Full/MotorControl/MCSDK/MCLib/Any/Src/feed_forward_ctrl.c ****   * @retval qd_t Vqd Feed-forward components.
 395:MCSDK_v6.3.2-Full/MotorControl/MCSDK/MCLib/Any/Src/feed_forward_ctrl.c ****   */
 396:MCSDK_v6.3.2-Full/MotorControl/MCSDK/MCLib/Any/Src/feed_forward_ctrl.c **** __weak qd_t FF_GetVqdff(const FF_Handle_t *pHandle)
 397:MCSDK_v6.3.2-Full/MotorControl/MCSDK/MCLib/Any/Src/feed_forward_ctrl.c **** {
 597              		.loc 1 397 1 is_stmt 1 view -0
 598              		.cfi_startproc
 599              		@ args = 0, pretend = 0, frame = 8
 600              		@ frame_needed = 0, uses_anonymous_args = 0
 601              		@ link register save eliminated.
 602              		.loc 1 397 1 is_stmt 0 view .LVU167
 603 0000 82B0     		sub	sp, sp, #8
 604              	.LCFI15:
 605              		.cfi_def_cfa_offset 8
 398:MCSDK_v6.3.2-Full/MotorControl/MCSDK/MCLib/Any/Src/feed_forward_ctrl.c **** #ifdef NULL_PTR_CHECK_FEED_FWD_CTRL
 399:MCSDK_v6.3.2-Full/MotorControl/MCSDK/MCLib/Any/Src/feed_forward_ctrl.c ****   qd_t retqt;
 400:MCSDK_v6.3.2-Full/MotorControl/MCSDK/MCLib/Any/Src/feed_forward_ctrl.c ****   if (NULL == pHandle)
 401:MCSDK_v6.3.2-Full/MotorControl/MCSDK/MCLib/Any/Src/feed_forward_ctrl.c ****   {
 402:MCSDK_v6.3.2-Full/MotorControl/MCSDK/MCLib/Any/Src/feed_forward_ctrl.c ****     retqt.q = 0;
 403:MCSDK_v6.3.2-Full/MotorControl/MCSDK/MCLib/Any/Src/feed_forward_ctrl.c ****     retqt.d = 0;
 404:MCSDK_v6.3.2-Full/MotorControl/MCSDK/MCLib/Any/Src/feed_forward_ctrl.c ****   }
 405:MCSDK_v6.3.2-Full/MotorControl/MCSDK/MCLib/Any/Src/feed_forward_ctrl.c ****   else
 406:MCSDK_v6.3.2-Full/MotorControl/MCSDK/MCLib/Any/Src/feed_forward_ctrl.c ****   {
 407:MCSDK_v6.3.2-Full/MotorControl/MCSDK/MCLib/Any/Src/feed_forward_ctrl.c ****     retqt = pHandle->Vqdff;
 408:MCSDK_v6.3.2-Full/MotorControl/MCSDK/MCLib/Any/Src/feed_forward_ctrl.c ****   }
 409:MCSDK_v6.3.2-Full/MotorControl/MCSDK/MCLib/Any/Src/feed_forward_ctrl.c ****   return (retqt);
 410:MCSDK_v6.3.2-Full/MotorControl/MCSDK/MCLib/Any/Src/feed_forward_ctrl.c **** #else
 411:MCSDK_v6.3.2-Full/MotorControl/MCSDK/MCLib/Any/Src/feed_forward_ctrl.c ****   return (pHandle->Vqdff);
 606              		.loc 1 411 3 is_stmt 1 view .LVU168
 607              		.loc 1 411 18 is_stmt 0 view .LVU169
 608 0002 0368     		ldr	r3, [r0]
ARM GAS  /tmp/cc6nzUni.s 			page 25


 609 0004 0020     		movs	r0, #0
 610              	.LVL47:
 611              		.loc 1 411 18 view .LVU170
 612 0006 9AB2     		uxth	r2, r3
 613 0008 62F30F00 		bfi	r0, r2, #0, #16
 614 000c 1B0C     		lsrs	r3, r3, #16
 615 000e 63F31F40 		bfi	r0, r3, #16, #16
 412:MCSDK_v6.3.2-Full/MotorControl/MCSDK/MCLib/Any/Src/feed_forward_ctrl.c **** #endif
 413:MCSDK_v6.3.2-Full/MotorControl/MCSDK/MCLib/Any/Src/feed_forward_ctrl.c **** }
 616              		.loc 1 413 1 view .LVU171
 617 0012 02B0     		add	sp, sp, #8
 618              	.LCFI16:
 619              		.cfi_def_cfa_offset 0
 620              		@ sp needed
 621 0014 7047     		bx	lr
 622              		.cfi_endproc
 623              	.LFE1455:
 625              		.section	.text.FF_GetVqdAvPIout,"ax",%progbits
 626              		.align	1
 627              		.weak	FF_GetVqdAvPIout
 628              		.syntax unified
 629              		.thumb
 630              		.thumb_func
 631              		.fpu fpv4-sp-d16
 633              	FF_GetVqdAvPIout:
 634              	.LVL48:
 635              	.LFB1456:
 414:MCSDK_v6.3.2-Full/MotorControl/MCSDK/MCLib/Any/Src/feed_forward_ctrl.c **** 
 415:MCSDK_v6.3.2-Full/MotorControl/MCSDK/MCLib/Any/Src/feed_forward_ctrl.c **** /**
 416:MCSDK_v6.3.2-Full/MotorControl/MCSDK/MCLib/Any/Src/feed_forward_ctrl.c ****   * @brief  Use this method to get the averaged output values of qd axes
 417:MCSDK_v6.3.2-Full/MotorControl/MCSDK/MCLib/Any/Src/feed_forward_ctrl.c ****   *         currents PI regulators.
 418:MCSDK_v6.3.2-Full/MotorControl/MCSDK/MCLib/Any/Src/feed_forward_ctrl.c ****   * @param  pHandle Feed-forward structure.
 419:MCSDK_v6.3.2-Full/MotorControl/MCSDK/MCLib/Any/Src/feed_forward_ctrl.c ****   * @retval qd_t Averaged output of qd axes currents PI regulators.
 420:MCSDK_v6.3.2-Full/MotorControl/MCSDK/MCLib/Any/Src/feed_forward_ctrl.c ****   */
 421:MCSDK_v6.3.2-Full/MotorControl/MCSDK/MCLib/Any/Src/feed_forward_ctrl.c **** __weak qd_t FF_GetVqdAvPIout(const FF_Handle_t *pHandle)
 422:MCSDK_v6.3.2-Full/MotorControl/MCSDK/MCLib/Any/Src/feed_forward_ctrl.c **** {
 636              		.loc 1 422 1 is_stmt 1 view -0
 637              		.cfi_startproc
 638              		@ args = 0, pretend = 0, frame = 8
 639              		@ frame_needed = 0, uses_anonymous_args = 0
 640              		@ link register save eliminated.
 641              		.loc 1 422 1 is_stmt 0 view .LVU173
 642 0000 82B0     		sub	sp, sp, #8
 643              	.LCFI17:
 644              		.cfi_def_cfa_offset 8
 423:MCSDK_v6.3.2-Full/MotorControl/MCSDK/MCLib/Any/Src/feed_forward_ctrl.c **** #ifdef NULL_PTR_CHECK_FEED_FWD_CTRL
 424:MCSDK_v6.3.2-Full/MotorControl/MCSDK/MCLib/Any/Src/feed_forward_ctrl.c ****   qd_t retqt;
 425:MCSDK_v6.3.2-Full/MotorControl/MCSDK/MCLib/Any/Src/feed_forward_ctrl.c ****   if (NULL == pHandle)
 426:MCSDK_v6.3.2-Full/MotorControl/MCSDK/MCLib/Any/Src/feed_forward_ctrl.c ****   {
 427:MCSDK_v6.3.2-Full/MotorControl/MCSDK/MCLib/Any/Src/feed_forward_ctrl.c ****     retqt.q = 0;
 428:MCSDK_v6.3.2-Full/MotorControl/MCSDK/MCLib/Any/Src/feed_forward_ctrl.c ****     retqt.d = 0;
 429:MCSDK_v6.3.2-Full/MotorControl/MCSDK/MCLib/Any/Src/feed_forward_ctrl.c ****   }
 430:MCSDK_v6.3.2-Full/MotorControl/MCSDK/MCLib/Any/Src/feed_forward_ctrl.c ****   else
 431:MCSDK_v6.3.2-Full/MotorControl/MCSDK/MCLib/Any/Src/feed_forward_ctrl.c ****   {
 432:MCSDK_v6.3.2-Full/MotorControl/MCSDK/MCLib/Any/Src/feed_forward_ctrl.c ****     retqt = pHandle->VqdAvPIout;
 433:MCSDK_v6.3.2-Full/MotorControl/MCSDK/MCLib/Any/Src/feed_forward_ctrl.c ****   }
 434:MCSDK_v6.3.2-Full/MotorControl/MCSDK/MCLib/Any/Src/feed_forward_ctrl.c ****   return (retqt);
ARM GAS  /tmp/cc6nzUni.s 			page 26


 435:MCSDK_v6.3.2-Full/MotorControl/MCSDK/MCLib/Any/Src/feed_forward_ctrl.c **** #else
 436:MCSDK_v6.3.2-Full/MotorControl/MCSDK/MCLib/Any/Src/feed_forward_ctrl.c ****   return (pHandle->VqdAvPIout);
 645              		.loc 1 436 3 is_stmt 1 view .LVU174
 646              		.loc 1 436 18 is_stmt 0 view .LVU175
 647 0002 8368     		ldr	r3, [r0, #8]
 648 0004 0020     		movs	r0, #0
 649              	.LVL49:
 650              		.loc 1 436 18 view .LVU176
 651 0006 9AB2     		uxth	r2, r3
 652 0008 62F30F00 		bfi	r0, r2, #0, #16
 653 000c 1B0C     		lsrs	r3, r3, #16
 654 000e 63F31F40 		bfi	r0, r3, #16, #16
 437:MCSDK_v6.3.2-Full/MotorControl/MCSDK/MCLib/Any/Src/feed_forward_ctrl.c **** #endif
 438:MCSDK_v6.3.2-Full/MotorControl/MCSDK/MCLib/Any/Src/feed_forward_ctrl.c **** }
 655              		.loc 1 438 1 view .LVU177
 656 0012 02B0     		add	sp, sp, #8
 657              	.LCFI18:
 658              		.cfi_def_cfa_offset 0
 659              		@ sp needed
 660 0014 7047     		bx	lr
 661              		.cfi_endproc
 662              	.LFE1456:
 664              		.text
 665              	.Letext0:
 666              		.file 4 "/usr/share/gcc-arm-none-eabi-10-2020-q4-major/arm-none-eabi/include/machine/_default_type
 667              		.file 5 "/usr/share/gcc-arm-none-eabi-10-2020-q4-major/arm-none-eabi/include/sys/_stdint.h"
 668              		.file 6 "Drivers/STM32G4xx_HAL_Driver/Inc/stm32g4xx_ll_tim.h"
 669              		.file 7 "Drivers/STM32G4xx_HAL_Driver/Inc/stm32g4xx_ll_usart.h"
 670              		.file 8 "Drivers/STM32G4xx_HAL_Driver/Inc/stm32g4xx_ll_dma.h"
 671              		.file 9 "Inc/mc_type.h"
 672              		.file 10 "MCSDK_v6.3.2-Full/MotorControl/MCSDK/MCLib/Any/Inc/speed_pos_fdbk.h"
 673              		.file 11 "MCSDK_v6.3.2-Full/MotorControl/MCSDK/MCLib/Any/Inc/pid_regulator.h"
 674              		.file 12 "MCSDK_v6.3.2-Full/MotorControl/MCSDK/MCLib/Any/Inc/feed_forward_ctrl.h"
ARM GAS  /tmp/cc6nzUni.s 			page 27

