ARM GAS  /tmp/cc4nYBwt.s 			page 1


   1              		.cpu cortex-m4
   2              		.eabi_attribute 27, 1
   3              		.eabi_attribute 28, 1
   4              		.eabi_attribute 20, 1
   5              		.eabi_attribute 21, 1
   6              		.eabi_attribute 23, 3
   7              		.eabi_attribute 24, 1
   8              		.eabi_attribute 25, 1
   9              		.eabi_attribute 26, 1
  10              		.eabi_attribute 30, 1
  11              		.eabi_attribute 34, 1
  12              		.eabi_attribute 18, 2
  13              		.file	"low_level.cpp"
  14              		.section	.rodata.str1.4,"aMS",%progbits,1
  15              		.align	2
  16              	.LC0:
  17 0000 74687265 		.ascii	"thread_def\000"
  17      61645F64 
  17      656600
  18              		.text
  19              	.Ltext0:
  20              		.cfi_sections	.debug_frame
  21              		.section	.text._ZL21analog_polling_threadPKv,"ax",%progbits
  22              		.align	1
  23              		.arch armv7e-m
  24              		.syntax unified
  25              		.thumb
  26              		.thumb_func
  27              		.fpu fpv4-sp-d16
  29              	_ZL21analog_polling_threadPKv:
  30              	.LVL0:
  31              	.LFB5787:
  32              		.file 1 "Src/low_level.cpp"
   1:Src/low_level.cpp **** /* Includes ------------------------------------------------------------------*/
   2:Src/low_level.cpp **** 
   3:Src/low_level.cpp **** // Because of broken cmsis_os.h, we need to include arm_math first,
   4:Src/low_level.cpp **** // otherwise chip specific defines are ommited
   5:Src/low_level.cpp **** 
   6:Src/low_level.cpp **** 
   7:Src/low_level.cpp **** #include "main.h"
   8:Src/low_level.cpp **** #define ARM_MATH_CM4
   9:Src/low_level.cpp **** #include <arm_math.h>
  10:Src/low_level.cpp **** 
  11:Src/low_level.cpp **** #include <cmsis_os.h>
  12:Src/low_level.cpp **** #include <math.h>
  13:Src/low_level.cpp **** #include <stdint.h>
  14:Src/low_level.cpp **** #include <stdlib.h>
  15:Src/low_level.cpp **** 
  16:Src/low_level.cpp **** 
  17:Src/low_level.cpp **** #include <gpio.h>
  18:Src/low_level.cpp **** #include <main.h>
  19:Src/low_level.cpp **** 
  20:Src/low_level.cpp **** #include <tim.h>
  21:Src/low_level.cpp **** #include <utils.hpp>
  22:Src/low_level.cpp **** #include "stm32g4xx_hal.h"
  23:Src/low_level.cpp **** #include "motor.hpp"  // Add this for Motor class
  24:Src/low_level.cpp **** #include "axis.hpp"   // Add this for Axis class
ARM GAS  /tmp/cc4nYBwt.s 			page 2


  25:Src/low_level.cpp **** 
  26:Src/low_level.cpp **** #include "main_.hpp"
  27:Src/low_level.cpp **** #include "encoder.hpp"
  28:Src/low_level.cpp **** #include "stm32g4xx_hal_adc.h"
  29:Src/low_level.cpp **** 
  30:Src/low_level.cpp **** 
  31:Src/low_level.cpp **** ADC_HandleTypeDef hadc1;
  32:Src/low_level.cpp **** ADC_HandleTypeDef hadc2;
  33:Src/low_level.cpp **** /* Private defines -----------------------------------------------------------*/
  34:Src/low_level.cpp **** 
  35:Src/low_level.cpp **** // #define DEBUG_PRINT
  36:Src/low_level.cpp **** 
  37:Src/low_level.cpp **** /* Private macros ------------------------------------------------------------*/
  38:Src/low_level.cpp **** /* Private typedef -----------------------------------------------------------*/
  39:Src/low_level.cpp **** /* Global constant data ------------------------------------------------------*/
  40:Src/low_level.cpp **** constexpr float adc_full_scale = static_cast<float>(1UL << 12UL);
  41:Src/low_level.cpp **** constexpr float adc_ref_voltage = 3.3f;
  42:Src/low_level.cpp **** /* Global variables ----------------------------------------------------------*/
  43:Src/low_level.cpp **** 
  44:Src/low_level.cpp **** // This value is updated by the DC-bus reading ADC.
  45:Src/low_level.cpp **** // Arbitrary non-zero inital value to avoid division by zero if ADC reading is late
  46:Src/low_level.cpp **** float vbus_voltage = 12.0f;
  47:Src/low_level.cpp **** float ibus_ = 0.0f; // exposed for monitoring only
  48:Src/low_level.cpp **** bool brake_resistor_armed = false;
  49:Src/low_level.cpp **** bool brake_resistor_saturated = false;
  50:Src/low_level.cpp **** /* Private constant data -----------------------------------------------------*/
  51:Src/low_level.cpp **** static const GPIO_TypeDef* GPIOs_to_samp[] = { GPIOA, GPIOB, GPIOC };
  52:Src/low_level.cpp **** static const int num_GPIO = sizeof(GPIOs_to_samp) / sizeof(GPIOs_to_samp[0]); 
  53:Src/low_level.cpp **** /* Private variables ---------------------------------------------------------*/
  54:Src/low_level.cpp **** 
  55:Src/low_level.cpp **** // Two motors, sampling port A,B,C (coherent with current meas timing)
  56:Src/low_level.cpp **** static uint16_t GPIO_port_samples [2][num_GPIO];
  57:Src/low_level.cpp **** /* CPU critical section helpers ----------------------------------------------*/
  58:Src/low_level.cpp **** 
  59:Src/low_level.cpp **** /* Safety critical functions -------------------------------------------------*/
  60:Src/low_level.cpp **** 
  61:Src/low_level.cpp **** /*
  62:Src/low_level.cpp **** * This section contains all accesses to safety critical hardware registers.
  63:Src/low_level.cpp **** * Specifically, these registers:
  64:Src/low_level.cpp **** *   Motor0 PWMs:
  65:Src/low_level.cpp **** *     Timer1.MOE (master output enabled)
  66:Src/low_level.cpp **** *     Timer1.CCR1 (counter compare register 1)
  67:Src/low_level.cpp **** *     Timer1.CCR2 (counter compare register 2)
  68:Src/low_level.cpp **** *     Timer1.CCR3 (counter compare register 3)
  69:Src/low_level.cpp **** *   Motor1 PWMs:
  70:Src/low_level.cpp **** *     Timer8.MOE (master output enabled)
  71:Src/low_level.cpp **** *     Timer8.CCR1 (counter compare register 1)
  72:Src/low_level.cpp **** *     Timer8.CCR2 (counter compare register 2)
  73:Src/low_level.cpp **** *     Timer8.CCR3 (counter compare register 3)
  74:Src/low_level.cpp **** *   Brake resistor PWM:
  75:Src/low_level.cpp **** *     Timer2.CCR3 (counter compare register 3)
  76:Src/low_level.cpp **** *     Timer2.CCR4 (counter compare register 4)
  77:Src/low_level.cpp **** * 
  78:Src/low_level.cpp **** * The following assumptions are made:
  79:Src/low_level.cpp **** *   - The hardware operates as described in the datasheet:
  80:Src/low_level.cpp **** *     http://www.st.com/content/ccc/resource/technical/document/reference_manual/3d/6d/5a/66/b4/99/
  81:Src/low_level.cpp **** *     This assumption also requires for instance that there are no radiation
ARM GAS  /tmp/cc4nYBwt.s 			page 3


  82:Src/low_level.cpp **** *     caused hardware errors.
  83:Src/low_level.cpp **** *   - After startup, all variables used in this section are exclusively modified
  84:Src/low_level.cpp **** *     by the code in this section (this excludes function parameters)
  85:Src/low_level.cpp **** *     This assumption also requires that there is no memory corruption.
  86:Src/low_level.cpp **** *   - This code is compiled by a C standard compliant compiler.
  87:Src/low_level.cpp **** *
  88:Src/low_level.cpp **** * Furthermore:
  89:Src/low_level.cpp **** *   - Between calls to safety_critical_arm_motor_pwm and
  90:Src/low_level.cpp **** *     safety_critical_disarm_motor_pwm the motor's Ibus current is
  91:Src/low_level.cpp **** *     set to the correct value and update_brake_resistor is called
  92:Src/low_level.cpp **** *     at a high rate.
  93:Src/low_level.cpp **** */
  94:Src/low_level.cpp **** 
  95:Src/low_level.cpp **** // @brief Floats ALL phases immediately and disarms both motors and the brake resistor.
  96:Src/low_level.cpp **** void low_level_fault(Motor::Error error) {
  97:Src/low_level.cpp ****     // Disable all motors NOW!
  98:Src/low_level.cpp **** 
  99:Src/low_level.cpp ****     safety_critical_disarm_motor_pwm(axes->motor_);
 100:Src/low_level.cpp ****     axes->motor_.error_ = error;
 101:Src/low_level.cpp **** 
 102:Src/low_level.cpp ****     safety_critical_disarm_brake_resistor();
 103:Src/low_level.cpp **** }
 104:Src/low_level.cpp **** 
 105:Src/low_level.cpp **** // @brief Kicks off the arming process of the motor.
 106:Src/low_level.cpp **** // All calls to this function must clearly originate
 107:Src/low_level.cpp **** // from user input.
 108:Src/low_level.cpp **** void safety_critical_arm_motor_pwm(Motor& motor) {
 109:Src/low_level.cpp ****     uint32_t mask = cpu_enter_critical();
 110:Src/low_level.cpp ****     if (brake_resistor_armed) {
 111:Src/low_level.cpp ****         motor.armed_state_ = Motor::ARMED_STATE_WAITING_FOR_TIMINGS;
 112:Src/low_level.cpp ****     }
 113:Src/low_level.cpp ****     cpu_exit_critical(mask);
 114:Src/low_level.cpp **** }
 115:Src/low_level.cpp **** 
 116:Src/low_level.cpp **** // @brief Disarms the motor PWM.
 117:Src/low_level.cpp **** // After calling this function, it is guaranteed that all three
 118:Src/low_level.cpp **** // motor phases are floating and will not be enabled again until
 119:Src/low_level.cpp **** // safety_critical_arm_motor_phases is called.
 120:Src/low_level.cpp **** // @returns true if the motor was in a state other than disarmed before
 121:Src/low_level.cpp **** bool safety_critical_disarm_motor_pwm(Motor& motor) {
 122:Src/low_level.cpp ****     uint32_t mask = cpu_enter_critical();
 123:Src/low_level.cpp ****     bool was_armed = motor.armed_state_ != Motor::ARMED_STATE_DISARMED;
 124:Src/low_level.cpp ****     motor.armed_state_ = Motor::ARMED_STATE_DISARMED;
 125:Src/low_level.cpp ****     __HAL_TIM_MOE_DISABLE_UNCONDITIONALLY(motor.hw_config_.timer); //进入刹车模式 2024-10-11
 126:Src/low_level.cpp ****     cpu_exit_critical(mask);
 127:Src/low_level.cpp ****     return was_armed;
 128:Src/low_level.cpp **** }
 129:Src/low_level.cpp **** 
 130:Src/low_level.cpp **** // @brief Updates the phase timings unless the motor is disarmed.
 131:Src/low_level.cpp **** //
 132:Src/low_level.cpp **** // If this is called at a rate higher than the motor's timer period,
 133:Src/low_level.cpp **** // the actual PMW timings on the pins can be undefined for up to one
 134:Src/low_level.cpp **** // timer period.
 135:Src/low_level.cpp **** void safety_critical_apply_motor_pwm_timings(Motor& motor, uint16_t timings[3]) {
 136:Src/low_level.cpp ****     uint32_t mask = cpu_enter_critical();
 137:Src/low_level.cpp ****     if (!brake_resistor_armed) {
 138:Src/low_level.cpp ****         motor.armed_state_ = Motor::ARMED_STATE_DISARMED;
ARM GAS  /tmp/cc4nYBwt.s 			page 4


 139:Src/low_level.cpp ****     }
 140:Src/low_level.cpp **** 
 141:Src/low_level.cpp ****     motor.hw_config_.timer->Instance->CCR1 = timings[0];
 142:Src/low_level.cpp ****     motor.hw_config_.timer->Instance->CCR2 = timings[1];
 143:Src/low_level.cpp ****     motor.hw_config_.timer->Instance->CCR3 = timings[2];
 144:Src/low_level.cpp **** 
 145:Src/low_level.cpp ****     if (motor.armed_state_ == Motor::ARMED_STATE_WAITING_FOR_TIMINGS) {
 146:Src/low_level.cpp ****         // timings were just loaded into the timer registers
 147:Src/low_level.cpp ****         // the timer register are buffered, so they won't have an effect
 148:Src/low_level.cpp ****         // on the output just yet so we need to wait until the next
 149:Src/low_level.cpp ****         // interrupt before we actually enable the output
 150:Src/low_level.cpp ****         motor.armed_state_ = Motor::ARMED_STATE_WAITING_FOR_UPDATE;
 151:Src/low_level.cpp ****     } else if (motor.armed_state_ == Motor::ARMED_STATE_WAITING_FOR_UPDATE) {
 152:Src/low_level.cpp ****         // now we waited long enough. Enter armed state and
 153:Src/low_level.cpp ****         // enable the actual PWM outputs.
 154:Src/low_level.cpp ****         motor.armed_state_ = Motor::ARMED_STATE_ARMED;
 155:Src/low_level.cpp ****         __HAL_TIM_MOE_ENABLE(motor.hw_config_.timer);  // enable pwm outputs
 156:Src/low_level.cpp ****     } else if (motor.armed_state_ == Motor::ARMED_STATE_ARMED) {
 157:Src/low_level.cpp ****         // nothing to do, PWM is running, all good
 158:Src/low_level.cpp ****     } else {
 159:Src/low_level.cpp ****         // unknown state oh no
 160:Src/low_level.cpp ****         safety_critical_disarm_motor_pwm(motor);
 161:Src/low_level.cpp ****     }
 162:Src/low_level.cpp ****     cpu_exit_critical(mask);
 163:Src/low_level.cpp **** }
 164:Src/low_level.cpp **** 
 165:Src/low_level.cpp **** // @brief Arms the brake resistor
 166:Src/low_level.cpp **** void safety_critical_arm_brake_resistor() {
 167:Src/low_level.cpp ****     uint32_t mask = cpu_enter_critical();
 168:Src/low_level.cpp ****     brake_resistor_armed = true;
 169:Src/low_level.cpp ****     htim2.Instance->CCR3 = 0;
 170:Src/low_level.cpp ****     htim2.Instance->CCR4 = TIM_APB1_PERIOD_CLOCKS + 1;
 171:Src/low_level.cpp ****     cpu_exit_critical(mask);
 172:Src/low_level.cpp **** }
 173:Src/low_level.cpp **** 
 174:Src/low_level.cpp **** // @brief Disarms the brake resistor and by extension
 175:Src/low_level.cpp **** // all motor PWM outputs.
 176:Src/low_level.cpp **** // After calling this, the brake resistor can only be armed again
 177:Src/low_level.cpp **** // by calling safety_critical_arm_brake_resistor().
 178:Src/low_level.cpp **** void safety_critical_disarm_brake_resistor() {
 179:Src/low_level.cpp ****     uint32_t mask = cpu_enter_critical();
 180:Src/low_level.cpp ****     brake_resistor_armed = false;
 181:Src/low_level.cpp ****     htim2.Instance->CCR3 = 0;
 182:Src/low_level.cpp ****     htim2.Instance->CCR4 = TIM_APB1_PERIOD_CLOCKS + 1;
 183:Src/low_level.cpp ****     for (size_t i = 0; i < AXIS_COUNT; ++i) {
 184:Src/low_level.cpp ****         safety_critical_disarm_motor_pwm(axes->motor_);
 185:Src/low_level.cpp ****     }
 186:Src/low_level.cpp ****     cpu_exit_critical(mask);
 187:Src/low_level.cpp **** }
 188:Src/low_level.cpp **** 
 189:Src/low_level.cpp **** // @brief Updates the brake resistor PWM timings unless
 190:Src/low_level.cpp **** // the brake resistor is disarmed.
 191:Src/low_level.cpp **** void safety_critical_apply_brake_resistor_timings(uint32_t low_off, uint32_t high_on) {
 192:Src/low_level.cpp ****     if (high_on - low_off < TIM_APB1_DEADTIME_CLOCKS)
 193:Src/low_level.cpp ****         low_level_fault(Motor::ERROR_BRAKE_DEADTIME_VIOLATION);
 194:Src/low_level.cpp ****     uint32_t mask = cpu_enter_critical();
 195:Src/low_level.cpp ****     if (brake_resistor_armed) {
ARM GAS  /tmp/cc4nYBwt.s 			page 5


 196:Src/low_level.cpp ****         // Safe update of low and high side timings
 197:Src/low_level.cpp ****         // To avoid race condition, first reset timings to safe state
 198:Src/low_level.cpp ****         // ch3 is low side, ch4 is high side
 199:Src/low_level.cpp ****         htim2.Instance->CCR3 = 0;
 200:Src/low_level.cpp ****         htim2.Instance->CCR4 = TIM_APB1_PERIOD_CLOCKS + 1;
 201:Src/low_level.cpp ****         htim2.Instance->CCR3 = low_off;
 202:Src/low_level.cpp ****         htim2.Instance->CCR4 = high_on;
 203:Src/low_level.cpp ****     }
 204:Src/low_level.cpp ****     cpu_exit_critical(mask);
 205:Src/low_level.cpp **** }
 206:Src/low_level.cpp **** 
 207:Src/low_level.cpp **** /* Function implementations --------------------------------------------------*/
 208:Src/low_level.cpp **** 
 209:Src/low_level.cpp **** void start_adc_pwm() {
 210:Src/low_level.cpp ****     // Enable ADC and interrupts
 211:Src/low_level.cpp ****     LL_ADC_Enable(ADC1);
 212:Src/low_level.cpp ****     LL_ADC_Enable(ADC2);
 213:Src/low_level.cpp **** 
 214:Src/low_level.cpp ****     // Wait for ADC ready
 215:Src/low_level.cpp ****     while (!LL_ADC_IsActiveFlag_ADRDY(ADC1)) {}
 216:Src/low_level.cpp ****     while (!LL_ADC_IsActiveFlag_ADRDY(ADC2)) {}
 217:Src/low_level.cpp ****     // Warp field stabilize.
 218:Src/low_level.cpp ****     osDelay(2);
 219:Src/low_level.cpp ****    // __HAL_ADC_ENABLE_IT(&hadc1, ADC_IT_JEOC);
 220:Src/low_level.cpp ****   //  __HAL_ADC_ENABLE_IT(&hadc2, ADC_IT_JEOC);
 221:Src/low_level.cpp ****     __HAL_ADC_ENABLE_IT(&hadc2, ADC_IT_JEOC);
 222:Src/low_level.cpp ****   //  __HAL_ADC_ENABLE_IT(&hadc2, ADC_IT_EOC);
 223:Src/low_level.cpp ****   //  __HAL_ADC_ENABLE_IT(&hadc3, ADC_IT_EOC);
 224:Src/low_level.cpp **** 
 225:Src/low_level.cpp ****     // Ensure that debug halting of the core doesn't leave the motor PWM running
 226:Src/low_level.cpp ****     __HAL_DBGMCU_FREEZE_TIM1();
 227:Src/low_level.cpp ****     __HAL_DBGMCU_FREEZE_TIM8();
 228:Src/low_level.cpp ****     __HAL_DBGMCU_FREEZE_TIM15();
 229:Src/low_level.cpp **** 
 230:Src/low_level.cpp ****     start_pwm(&htim1);
 231:Src/low_level.cpp ****     start_pwm(&htim8);
 232:Src/low_level.cpp ****     // TODO: explain why this offset
 233:Src/low_level.cpp ****     sync_timers(&htim1, &htim8, TIM_CLOCKSOURCE_ITR0, TIM_1_8_PERIOD_CLOCKS,
 234:Src/low_level.cpp ****             &htim15);
 235:Src/low_level.cpp **** 
 236:Src/low_level.cpp **** 
 237:Src/low_level.cpp ****     // Motor output starts in the disabled state
 238:Src/low_level.cpp ****     __HAL_TIM_MOE_DISABLE_UNCONDITIONALLY(&htim1);
 239:Src/low_level.cpp ****     __HAL_TIM_MOE_DISABLE_UNCONDITIONALLY(&htim8);
 240:Src/low_level.cpp ****     // Enable the update interrupt (used to coherently sample GPIO)
 241:Src/low_level.cpp ****     __HAL_TIM_ENABLE_IT(&htim1, TIM_IT_UPDATE);
 242:Src/low_level.cpp ****     __HAL_TIM_ENABLE_IT(&htim8, TIM_IT_UPDATE);
 243:Src/low_level.cpp **** 
 244:Src/low_level.cpp ****     // Start brake resistor PWM in floating output configuration
 245:Src/low_level.cpp ****     htim2.Instance->CCR3 = 0;
 246:Src/low_level.cpp ****     htim2.Instance->CCR4 = TIM_APB1_PERIOD_CLOCKS + 1;
 247:Src/low_level.cpp ****     HAL_TIM_PWM_Start(&htim2, TIM_CHANNEL_3);
 248:Src/low_level.cpp ****     HAL_TIM_PWM_Start(&htim2, TIM_CHANNEL_4);
 249:Src/low_level.cpp **** 
 250:Src/low_level.cpp ****     // Disarm motors and arm brake resistor
 251:Src/low_level.cpp **** 
 252:Src/low_level.cpp ****     safety_critical_disarm_motor_pwm(axes->motor_);
ARM GAS  /tmp/cc4nYBwt.s 			page 6


 253:Src/low_level.cpp ****     safety_critical_disarm_motor_pwm(axes->motor_);
 254:Src/low_level.cpp ****     safety_critical_arm_brake_resistor();
 255:Src/low_level.cpp **** }
 256:Src/low_level.cpp **** 
 257:Src/low_level.cpp **** void start_pwm(TIM_HandleTypeDef* htim) {
 258:Src/low_level.cpp ****     // Init PWM
 259:Src/low_level.cpp ****     int half_load = TIM_1_8_PERIOD_CLOCKS / 2;
 260:Src/low_level.cpp ****     htim->Instance->CCR1 = half_load-0;
 261:Src/low_level.cpp ****     htim->Instance->CCR2 = half_load+0;
 262:Src/low_level.cpp ****     htim->Instance->CCR3 = half_load+0;
 263:Src/low_level.cpp ****     if(htim == &htim1) {
 264:Src/low_level.cpp ****             // This hardware obfustication layer really is getting on my nerves
 265:Src/low_level.cpp ****         HAL_TIM_PWM_Start(htim, TIM_CHANNEL_1);
 266:Src/low_level.cpp ****         HAL_TIMEx_PWMN_Start(htim, TIM_CHANNEL_1);
 267:Src/low_level.cpp ****         HAL_TIM_PWM_Start(htim, TIM_CHANNEL_2);
 268:Src/low_level.cpp ****         HAL_TIMEx_PWMN_Start(htim, TIM_CHANNEL_2);
 269:Src/low_level.cpp ****         HAL_TIM_PWM_Start(htim, TIM_CHANNEL_3);
 270:Src/low_level.cpp ****         HAL_TIMEx_PWMN_Start(htim, TIM_CHANNEL_3);
 271:Src/low_level.cpp ****         
 272:Src/low_level.cpp ****     } else {
 273:Src/low_level.cpp ****        HAL_TIM_PWM_Start(htim, TIM_CHANNEL_1);
 274:Src/low_level.cpp ****     }
 275:Src/low_level.cpp **** 
 276:Src/low_level.cpp **** 
 277:Src/low_level.cpp ****     htim->Instance->CCR4 = 1;
 278:Src/low_level.cpp ****     HAL_TIM_PWM_Start_IT(htim, TIM_CHANNEL_4);
 279:Src/low_level.cpp **** }
 280:Src/low_level.cpp **** 
 281:Src/low_level.cpp **** /*
 282:Src/low_level.cpp ****  * Initial intention of this function:
 283:Src/low_level.cpp ****  * Synchronize TIM1, TIM8 and TIM13 such that:
 284:Src/low_level.cpp ****  *  1. The triangle waveform of TIM1 leads the triangle waveform of TIM8 by a
 285:Src/low_level.cpp ****  *     90° phase shift.
 286:Src/low_level.cpp ****  *  2. The timer update events of TIM1 and TIM8 are symmetrically interleaved.
 287:Src/low_level.cpp ****  *  3. Each TIM13 reload coincides with a TIM1 lower update event.
 288:Src/low_level.cpp ****  * 
 289:Src/low_level.cpp ****  * However right now this function only ensures point (1) and (3) but because
 290:Src/low_level.cpp ****  * TIM1 and TIM3 only trigger an update on every third reload, this does not
 291:Src/low_level.cpp ****  * imply (or even allow for) (2).
 292:Src/low_level.cpp ****  * 
 293:Src/low_level.cpp ****  * TODO: revisit the timing topic in general.
 294:Src/low_level.cpp ****  */
 295:Src/low_level.cpp **** void sync_timers(TIM_HandleTypeDef* htim_a, TIM_HandleTypeDef* htim_b,
 296:Src/low_level.cpp ****                  uint16_t TIM_CLOCKSOURCE_ITRx, uint16_t count_offset,
 297:Src/low_level.cpp ****                  TIM_HandleTypeDef* htim_refbase) {
 298:Src/low_level.cpp ****     // Store intial timer configs
 299:Src/low_level.cpp ****     uint16_t MOE_store_a = htim_a->Instance->BDTR & (TIM_BDTR_MOE);
 300:Src/low_level.cpp ****     uint16_t MOE_store_b = htim_b->Instance->BDTR & (TIM_BDTR_MOE);
 301:Src/low_level.cpp ****     uint16_t CR2_store = htim_a->Instance->CR2;
 302:Src/low_level.cpp ****     uint16_t SMCR_store = htim_b->Instance->SMCR;
 303:Src/low_level.cpp ****     // Turn off output
 304:Src/low_level.cpp ****     htim_a->Instance->BDTR &= ~(TIM_BDTR_MOE);
 305:Src/low_level.cpp ****     htim_b->Instance->BDTR &= ~(TIM_BDTR_MOE);
 306:Src/low_level.cpp ****     // Disable both timer counters
 307:Src/low_level.cpp ****     htim_a->Instance->CR1 &= ~TIM_CR1_CEN;
 308:Src/low_level.cpp ****     htim_b->Instance->CR1 &= ~TIM_CR1_CEN;
 309:Src/low_level.cpp ****     // Set first timer to send TRGO on counter enable
ARM GAS  /tmp/cc4nYBwt.s 			page 7


 310:Src/low_level.cpp ****     htim_a->Instance->CR2 &= ~TIM_CR2_MMS;
 311:Src/low_level.cpp ****     htim_a->Instance->CR2 |= TIM_TRGO_ENABLE;
 312:Src/low_level.cpp ****     // Set Trigger Source of second timer to the TRGO of the first timer
 313:Src/low_level.cpp ****     htim_b->Instance->SMCR &= ~TIM_SMCR_TS;
 314:Src/low_level.cpp ****     htim_b->Instance->SMCR |= TIM_CLOCKSOURCE_ITRx;
 315:Src/low_level.cpp ****     // Set 2nd timer to start on trigger
 316:Src/low_level.cpp ****     htim_b->Instance->SMCR &= ~TIM_SMCR_SMS;
 317:Src/low_level.cpp ****     htim_b->Instance->SMCR |= TIM_SLAVEMODE_TRIGGER;
 318:Src/low_level.cpp ****     // Dir bit is read only in center aligned mode, so we clear the mode for now
 319:Src/low_level.cpp ****     uint16_t CMS_store_a = htim_a->Instance->CR1 & TIM_CR1_CMS;
 320:Src/low_level.cpp ****     uint16_t CMS_store_b = htim_b->Instance->CR1 & TIM_CR1_CMS;
 321:Src/low_level.cpp ****     htim_a->Instance->CR1 &= ~TIM_CR1_CMS;
 322:Src/low_level.cpp ****     htim_b->Instance->CR1 &= ~TIM_CR1_CMS;
 323:Src/low_level.cpp ****     // Set both timers to up-counting state
 324:Src/low_level.cpp ****     htim_a->Instance->CR1 &= ~TIM_CR1_DIR;
 325:Src/low_level.cpp ****     htim_b->Instance->CR1 &= ~TIM_CR1_DIR;
 326:Src/low_level.cpp ****     // Restore center aligned mode
 327:Src/low_level.cpp ****     htim_a->Instance->CR1 |= CMS_store_a;
 328:Src/low_level.cpp ****     htim_b->Instance->CR1 |= CMS_store_b;
 329:Src/low_level.cpp ****     // set counter offset
 330:Src/low_level.cpp ****     htim_a->Instance->CNT = count_offset;
 331:Src/low_level.cpp ****     htim_b->Instance->CNT = count_offset/2;
 332:Src/low_level.cpp ****     // Set and start reference timebase timer (if used)
 333:Src/low_level.cpp ****     if (htim_refbase) {
 334:Src/low_level.cpp ****         htim_refbase->Instance->CNT = count_offset;
 335:Src/low_level.cpp ****         htim_refbase->Instance->CR1 |= (TIM_CR1_CEN); // start
 336:Src/low_level.cpp ****     }
 337:Src/low_level.cpp ****     // Start Timer a
 338:Src/low_level.cpp ****     htim_a->Instance->CR1 |= (TIM_CR1_CEN);
 339:Src/low_level.cpp ****     // Restore timer configs
 340:Src/low_level.cpp ****     htim_a->Instance->CR2 = CR2_store;
 341:Src/low_level.cpp ****     htim_b->Instance->SMCR = SMCR_store;
 342:Src/low_level.cpp ****     // restore output
 343:Src/low_level.cpp ****     htim_a->Instance->BDTR |= MOE_store_a;
 344:Src/low_level.cpp ****     htim_b->Instance->BDTR |= MOE_store_b;
 345:Src/low_level.cpp **** }
 346:Src/low_level.cpp **** 
 347:Src/low_level.cpp **** // @brief ADC1 measurements are written to this buffer by DMA
 348:Src/low_level.cpp **** uint16_t adc_measurements_[ADC_CHANNEL_COUNT] = { 0 };
 349:Src/low_level.cpp **** 
 350:Src/low_level.cpp **** // @brief Starts the general purpose ADC on the ADC1 peripheral.
 351:Src/low_level.cpp **** // The measured ADC voltages can be read with get_adc_voltage().
 352:Src/low_level.cpp **** //
 353:Src/low_level.cpp **** // ADC1 is set up to continuously sample all channels 0 to 15 in a
 354:Src/low_level.cpp **** // round-robin fashion.
 355:Src/low_level.cpp **** // DMA is used to copy the measured 12-bit values to adc_measurements_.
 356:Src/low_level.cpp **** //
 357:Src/low_level.cpp **** // The injected (high priority) channel of ADC1 is used to sample vbus_voltage.
 358:Src/low_level.cpp **** // This conversion is triggered by TIM1 at the frequency of the motor control loop.
 359:Src/low_level.cpp **** void start_general_purpose_adc() {
 360:Src/low_level.cpp ****     ADC_ChannelConfTypeDef sConfig;
 361:Src/low_level.cpp **** 
 362:Src/low_level.cpp ****     // Configure the global features of the ADC (Clock, Resolution, Data Alignment and number of co
 363:Src/low_level.cpp ****     hadc1.Instance = ADC1;
 364:Src/low_level.cpp ****     hadc1.Init.ClockPrescaler = ADC_CLOCK_SYNC_PCLK_DIV4;
 365:Src/low_level.cpp ****     hadc1.Init.Resolution = ADC_RESOLUTION_12B;
 366:Src/low_level.cpp ****     hadc1.Init.ScanConvMode = ENABLE;
ARM GAS  /tmp/cc4nYBwt.s 			page 8


 367:Src/low_level.cpp ****     hadc1.Init.ContinuousConvMode = ENABLE;
 368:Src/low_level.cpp ****     hadc1.Init.DiscontinuousConvMode = DISABLE;
 369:Src/low_level.cpp ****     hadc1.Init.ExternalTrigConvEdge = ADC_EXTERNALTRIGCONVEDGE_NONE;
 370:Src/low_level.cpp ****     hadc1.Init.ExternalTrigConv = ADC_SOFTWARE_START;
 371:Src/low_level.cpp ****     hadc1.Init.DataAlign = ADC_DATAALIGN_RIGHT;
 372:Src/low_level.cpp ****     hadc1.Init.NbrOfConversion = ADC_CHANNEL_COUNT;
 373:Src/low_level.cpp ****     hadc1.Init.DMAContinuousRequests = ENABLE;
 374:Src/low_level.cpp ****     hadc1.Init.EOCSelection = ADC_EOC_SINGLE_CONV;
 375:Src/low_level.cpp **** 
 376:Src/low_level.cpp **** 
 377:Src/low_level.cpp ****     // Set up sampling sequence (channel 0 ... channel 15)
 378:Src/low_level.cpp ****     sConfig.SamplingTime = ADC_SAMPLETIME_12CYCLES_5;
 379:Src/low_level.cpp ****     for (uint32_t channel = 0; channel < ADC_CHANNEL_COUNT; ++channel) {
 380:Src/low_level.cpp ****         sConfig.Channel = channel;
 381:Src/low_level.cpp ****         sConfig.Rank = channel + 1; // rank numbering starts at 1
 382:Src/low_level.cpp ****     }
 383:Src/low_level.cpp **** 
 384:Src/low_level.cpp **** 
 385:Src/low_level.cpp **** }
 386:Src/low_level.cpp **** 
 387:Src/low_level.cpp **** // @brief Returns the ADC voltage associated with the specified pin.
 388:Src/low_level.cpp **** // GPIO_set_to_analog() must be called first to put the Pin into
 389:Src/low_level.cpp **** // analog mode.
 390:Src/low_level.cpp **** // Returns NaN if the pin has no associated ADC1 channel.
 391:Src/low_level.cpp **** //
 392:Src/low_level.cpp **** // On ODrive 3.3 and 3.4 the following pins can be used with this function:
 393:Src/low_level.cpp **** //  GPIO_1, GPIO_2, GPIO_3, GPIO_4 and some pins that are connected to
 394:Src/low_level.cpp **** //  on-board sensors (M0_TEMP, M1_TEMP, AUX_TEMP)
 395:Src/low_level.cpp **** //
 396:Src/low_level.cpp **** // The ADC values are sampled in background at ~30kHz without
 397:Src/low_level.cpp **** // any CPU involvement.
 398:Src/low_level.cpp **** //
 399:Src/low_level.cpp **** // Details: each of the 16 conversion takes (15+26) ADC clock
 400:Src/low_level.cpp **** // cycles and the ADC, so the update rate of the entire sequence is:
 401:Src/low_level.cpp **** //  21000kHz / (15+26) / 16 = 32kHz
 402:Src/low_level.cpp **** // The true frequency is slightly lower because of the injected vbus
 403:Src/low_level.cpp **** // measurements
 404:Src/low_level.cpp **** float get_adc_voltage(const GPIO_TypeDef* const GPIO_port, uint16_t GPIO_pin) {
 405:Src/low_level.cpp ****     const uint16_t channel = channel_from_gpio(GPIO_port, GPIO_pin);
 406:Src/low_level.cpp ****     return get_adc_voltage_channel(channel);
 407:Src/low_level.cpp **** }
 408:Src/low_level.cpp **** 
 409:Src/low_level.cpp **** // @brief Given a GPIO_port and pin return the associated adc_channel.
 410:Src/low_level.cpp **** // returns UINT16_MAX if there is no adc_channel;
 411:Src/low_level.cpp **** uint16_t channel_from_gpio(const GPIO_TypeDef* const GPIO_port, uint16_t GPIO_pin)
 412:Src/low_level.cpp **** {
 413:Src/low_level.cpp ****     uint16_t channel = UINT16_MAX;
 414:Src/low_level.cpp ****     if (GPIO_port == GPIOA) {
 415:Src/low_level.cpp ****         if (GPIO_pin == GPIO_PIN_0)
 416:Src/low_level.cpp ****             channel = 0;
 417:Src/low_level.cpp ****         else if (GPIO_pin == GPIO_PIN_1)
 418:Src/low_level.cpp ****             channel = 1;
 419:Src/low_level.cpp ****         else if (GPIO_pin == GPIO_PIN_2)
 420:Src/low_level.cpp ****             channel = 2;
 421:Src/low_level.cpp ****         else if (GPIO_pin == GPIO_PIN_3)
 422:Src/low_level.cpp ****             channel = 3;
 423:Src/low_level.cpp ****         else if (GPIO_pin == GPIO_PIN_4)
ARM GAS  /tmp/cc4nYBwt.s 			page 9


 424:Src/low_level.cpp ****             channel = 4;
 425:Src/low_level.cpp ****         else if (GPIO_pin == GPIO_PIN_5)
 426:Src/low_level.cpp ****             channel = 5;
 427:Src/low_level.cpp ****         else if (GPIO_pin == GPIO_PIN_6)
 428:Src/low_level.cpp ****             channel = 6;
 429:Src/low_level.cpp ****         else if (GPIO_pin == GPIO_PIN_7)
 430:Src/low_level.cpp ****             channel = 7;
 431:Src/low_level.cpp ****     } else if (GPIO_port == GPIOB) {
 432:Src/low_level.cpp ****         if (GPIO_pin == GPIO_PIN_0)
 433:Src/low_level.cpp ****             channel = 8;
 434:Src/low_level.cpp ****         else if (GPIO_pin == GPIO_PIN_1)
 435:Src/low_level.cpp ****             channel = 9;
 436:Src/low_level.cpp ****     } else if (GPIO_port == GPIOC) {
 437:Src/low_level.cpp ****         if (GPIO_pin == GPIO_PIN_0)
 438:Src/low_level.cpp ****             channel = 10;
 439:Src/low_level.cpp ****         else if (GPIO_pin == GPIO_PIN_1)
 440:Src/low_level.cpp ****             channel = 11;
 441:Src/low_level.cpp ****         else if (GPIO_pin == GPIO_PIN_2)
 442:Src/low_level.cpp ****             channel = 12;
 443:Src/low_level.cpp ****         else if (GPIO_pin == GPIO_PIN_3)
 444:Src/low_level.cpp ****             channel = 13;
 445:Src/low_level.cpp ****         else if (GPIO_pin == GPIO_PIN_4)
 446:Src/low_level.cpp ****             channel = 14;
 447:Src/low_level.cpp ****         else if (GPIO_pin == GPIO_PIN_5)
 448:Src/low_level.cpp ****             channel = 15;
 449:Src/low_level.cpp ****     }
 450:Src/low_level.cpp ****     return channel;
 451:Src/low_level.cpp **** }
 452:Src/low_level.cpp **** 
 453:Src/low_level.cpp **** // @brief Given an adc channel return the measured voltage.
 454:Src/low_level.cpp **** // returns NaN if the channel is not valid.
 455:Src/low_level.cpp **** float get_adc_voltage_channel(uint16_t channel)
 456:Src/low_level.cpp **** {
 457:Src/low_level.cpp ****     if (channel < ADC_CHANNEL_COUNT)
 458:Src/low_level.cpp ****         return ((float)adc_measurements_[channel]) * (adc_ref_voltage / adc_full_scale);
 459:Src/low_level.cpp ****     else
 460:Src/low_level.cpp ****         return 0.0f / 0.0f; // NaN
 461:Src/low_level.cpp **** }
 462:Src/low_level.cpp **** 
 463:Src/low_level.cpp **** //--------------------------------
 464:Src/low_level.cpp **** // IRQ Callbacks
 465:Src/low_level.cpp **** //--------------------------------
 466:Src/low_level.cpp **** #define FILTER_SIZE 32
 467:Src/low_level.cpp **** struct filter_st {
 468:Src/low_level.cpp ****     int32_t filter_data[FILTER_SIZE];
 469:Src/low_level.cpp ****     int32_t filter_index; // 索引不需要初始化，因为它将在函数中初始化
 470:Src/low_level.cpp ****     int32_t filtered_value; // 滤波值不需要初始化
 471:Src/low_level.cpp ****     int32_t sum; // 总和不需要初始化
 472:Src/low_level.cpp **** };
 473:Src/low_level.cpp **** 
 474:Src/low_level.cpp **** struct filter_st dc_current_a, dc_current_c,vbus_voltage_filter; // 两个滤波器实例
 475:Src/low_level.cpp **** 
 476:Src/low_level.cpp **** 
 477:Src/low_level.cpp **** void smooth_filter(uint32_t new_sample, struct filter_st *dc_current) {
 478:Src/low_level.cpp ****     // 从结构体中获取当前的总和和索引
 479:Src/low_level.cpp ****     int32_t sum = dc_current->sum;
 480:Src/low_level.cpp ****     int32_t *filter_data = dc_current->filter_data;
ARM GAS  /tmp/cc4nYBwt.s 			page 10


 481:Src/low_level.cpp ****     int32_t filter_index = dc_current->filter_index;
 482:Src/low_level.cpp **** 
 483:Src/low_level.cpp ****     // 移除最老的样本，并添加新的样本
 484:Src/low_level.cpp ****     sum -= filter_data[filter_index]; // 减去最老的样本
 485:Src/low_level.cpp ****     sum += new_sample; // 加上新的样本
 486:Src/low_level.cpp ****     filter_data[filter_index] = new_sample; // 更新数组
 487:Src/low_level.cpp **** 
 488:Src/low_level.cpp ****     // 计算索引以循环使用数组
 489:Src/low_level.cpp ****     filter_index = (filter_index + 1) % FILTER_SIZE;
 490:Src/low_level.cpp ****     dc_current->filter_index = filter_index; // 修复了遗漏的分号
 491:Src/low_level.cpp **** 
 492:Src/low_level.cpp ****     // 计算平均值作为滤波结果
 493:Src/low_level.cpp ****     dc_current->filtered_value = sum / FILTER_SIZE;
 494:Src/low_level.cpp **** 
 495:Src/low_level.cpp ****     // 更新总和
 496:Src/low_level.cpp ****     dc_current->sum = sum;
 497:Src/low_level.cpp **** }
 498:Src/low_level.cpp **** 
 499:Src/low_level.cpp **** void vbus_sense_adc_cb(ADC_TypeDef *adc, bool injected) {
 500:Src/low_level.cpp ****     constexpr float voltage_scale = adc_ref_voltage * VBUS_S_DIVIDER_RATIO / adc_full_scale;
 501:Src/low_level.cpp ****     // Only one conversion in sequence, so only rank1
 502:Src/low_level.cpp ****     uint32_t ADCValue = LL_ADC_INJ_ReadConversionData12(adc, LL_ADC_INJ_RANK_1);
 503:Src/low_level.cpp ****     smooth_filter(ADCValue , &vbus_voltage_filter);
 504:Src/low_level.cpp ****     vbus_voltage = vbus_voltage_filter.filtered_value * voltage_scale;
 505:Src/low_level.cpp **** }
 506:Src/low_level.cpp **** 
 507:Src/low_level.cpp **** 
 508:Src/low_level.cpp **** 
 509:Src/low_level.cpp **** volatile uint32_t timestamp_ = 0;
 510:Src/low_level.cpp **** 
 511:Src/low_level.cpp **** 
 512:Src/low_level.cpp **** // Sets up the correct chip specifc defines required by arm_math
 513:Src/low_level.cpp **** // This is the callback from the ADC that we expect after the PWM has triggered an ADC conversion.
 514:Src/low_level.cpp **** // Timing diagram: Firmware/timing_diagram_v3.png
 515:Src/low_level.cpp **** 
 516:Src/low_level.cpp **** void pwm_trig_adc_cb(ADC_TypeDef *adc, bool injected) {
 517:Src/low_level.cpp **** 
 518:Src/low_level.cpp ****     Axis& axis = *axes;
 519:Src/low_level.cpp ****     
 520:Src/low_level.cpp ****   //  axis.motor_.log_timing(TIMING_LOG_ADC_CB_I);
 521:Src/low_level.cpp **** 
 522:Src/low_level.cpp ****     timestamp_ += TIM_1_8_PERIOD_CLOCKS * (TIM_1_8_RCR + 1 + 1);
 523:Src/low_level.cpp ****     uint32_t timestamp = timestamp_;
 524:Src/low_level.cpp **** 
 525:Src/low_level.cpp ****     axis.encoder_.set_cs_high();
 526:Src/low_level.cpp **** #define calib_tau 0.2f  //@TOTO make more easily configurable
 527:Src/low_level.cpp ****     constexpr float calib_filter_k = CURRENT_MEAS_PERIOD / calib_tau;
 528:Src/low_level.cpp ****     (void)calib_filter_k;
 529:Src/low_level.cpp **** 
 530:Src/low_level.cpp **** 
 531:Src/low_level.cpp ****    // current_meas_period = CURRENT_MEAS_PERIOD * (8400.f+this_sample_time - last_sample_time)/8400
 532:Src/low_level.cpp ****     
 533:Src/low_level.cpp ****     // Ensure ADCs are expected ones to simplify the logic below
 534:Src/low_level.cpp ****     if (!(adc == ADC1 || adc == ADC2)) {
 535:Src/low_level.cpp ****         low_level_fault(Motor::ERROR_ADC_FAILED);
 536:Src/low_level.cpp ****         return;
 537:Src/low_level.cpp ****     };
ARM GAS  /tmp/cc4nYBwt.s 			page 11


 538:Src/low_level.cpp **** 
 539:Src/low_level.cpp ****     // Motor 0 is on Timer 1, which triggers ADC 2 and 3 on an injected conversion
 540:Src/low_level.cpp ****     // Motor 1 is on Timer 8, which triggers ADC 2 and 3 on a regular conversion
 541:Src/low_level.cpp ****     // If the corresponding timer is counting up, we just sampled in SVM vector 0, i.e. real curren
 542:Src/low_level.cpp ****     // If we are counting down, we just sampled in SVM vector 7, with zero current
 543:Src/low_level.cpp ****     
 544:Src/low_level.cpp **** 
 545:Src/low_level.cpp ****     axis.encoder_.abs_start_transaction();
 546:Src/low_level.cpp **** 
 547:Src/low_level.cpp ****     
 548:Src/low_level.cpp ****     // Check the timing of the sequencing
 549:Src/low_level.cpp ****      
 550:Src/low_level.cpp ****     
 551:Src/low_level.cpp **** 
 552:Src/low_level.cpp **** 
 553:Src/low_level.cpp ****     // update_brake_current(); todo
 554:Src/low_level.cpp ****     
 555:Src/low_level.cpp ****     int32_t ADCValue_dc_a = LL_ADC_INJ_ReadConversionData12(ADC1, LL_ADC_INJ_RANK_1);
 556:Src/low_level.cpp ****     int32_t ADCValue_dc_c = LL_ADC_INJ_ReadConversionData12(ADC1, LL_ADC_INJ_RANK_1);
 557:Src/low_level.cpp ****     int32_t ADCValue_a = LL_ADC_INJ_ReadConversionData12(ADC2, LL_ADC_INJ_RANK_2);
 558:Src/low_level.cpp ****     int32_t ADCValue_c = LL_ADC_INJ_ReadConversionData12(ADC2, LL_ADC_INJ_RANK_2);
 559:Src/low_level.cpp **** 
 560:Src/low_level.cpp ****     axis.motor_.check_for_current_saturation(ADCValue_dc_a);
 561:Src/low_level.cpp ****     axis.motor_.check_for_current_saturation(ADCValue_dc_c);
 562:Src/low_level.cpp ****     axis.motor_.check_for_current_saturation(ADCValue_a);
 563:Src/low_level.cpp ****     axis.motor_.check_for_current_saturation(ADCValue_c);
 564:Src/low_level.cpp **** 
 565:Src/low_level.cpp **** 
 566:Src/low_level.cpp ****     smooth_filter(ADCValue_dc_a, &dc_current_a);
 567:Src/low_level.cpp ****     smooth_filter(ADCValue_dc_c, &dc_current_c);
 568:Src/low_level.cpp **** 
 569:Src/low_level.cpp ****   //  float current_a = axis.motor_.phase_current_from_adcval(ADCValue_a,0.94f);
 570:Src/low_level.cpp ****    // float current_c = axis.motor_.phase_current_from_adcval(ADCValue_c,0.74f);//0.718
 571:Src/low_level.cpp ****   //  axis.motor_.DC_calib_.phA = axis.motor_.phase_current_from_adcval(ADCValue_dc_a,0.94f);
 572:Src/low_level.cpp ****   //  axis.motor_.DC_calib_.phC = axis.motor_.phase_current_from_adcval(ADCValue_dc_c,0.74f);
 573:Src/low_level.cpp **** 
 574:Src/low_level.cpp ****     axis.motor_.current_meas_.phA = axis.motor_.phase_current_from_adcval((ADCValue_a - dc_current_
 575:Src/low_level.cpp ****     axis.motor_.current_meas_.phC = axis.motor_.phase_current_from_adcval((ADCValue_c - dc_current_
 576:Src/low_level.cpp **** 
 577:Src/low_level.cpp ****  //   axis.motor_.current_meas_.phA = current_a - axis.motor_.DC_calib_.phA;
 578:Src/low_level.cpp ****  //   axis.motor_.current_meas_.phC = current_c - axis.motor_.DC_calib_.phC;
 579:Src/low_level.cpp ****     axis.motor_.current_meas_.phB =  1.06f*(0 - axis.motor_.current_meas_.phA - axis.motor_.current
 580:Src/low_level.cpp **** 
 581:Src/low_level.cpp ****     axis.motor_.current_meas_cb(timestamp);
 582:Src/low_level.cpp **** 
 583:Src/low_level.cpp ****     axis.control_loop_cb(timestamp);
 584:Src/low_level.cpp **** 
 585:Src/low_level.cpp ****     axis.motor_.pwm_update_cb(timestamp + TIM_1_8_PERIOD_CLOCKS * (TIM_1_8_RCR + 1));
 586:Src/low_level.cpp **** 
 587:Src/low_level.cpp ****     axis.signal_current_meas(); 
 588:Src/low_level.cpp ****  //   axis.motor_.log_timing(TIMING_LOG_ADC_CB_DC);
 589:Src/low_level.cpp ****     
 590:Src/low_level.cpp **** }
 591:Src/low_level.cpp **** 
 592:Src/low_level.cpp **** 
 593:Src/low_level.cpp **** 
 594:Src/low_level.cpp **** 
ARM GAS  /tmp/cc4nYBwt.s 			page 12


 595:Src/low_level.cpp **** 
 596:Src/low_level.cpp **** void tim_update_cb(TIM_HandleTypeDef* htim) {
 597:Src/low_level.cpp ****     
 598:Src/low_level.cpp **** }
 599:Src/low_level.cpp **** 
 600:Src/low_level.cpp **** // @brief Sums up the Ibus contribution of each motor and updates the
 601:Src/low_level.cpp **** // brake resistor PWM accordingly.
 602:Src/low_level.cpp **** void update_brake_current() {
 603:Src/low_level.cpp **** }
 604:Src/low_level.cpp **** 
 605:Src/low_level.cpp **** 
 606:Src/low_level.cpp **** /* RC PWM input --------------------------------------------------------------*/
 607:Src/low_level.cpp **** 
 608:Src/low_level.cpp **** // @brief Returns the ODrive GPIO number for a given
 609:Src/low_level.cpp **** // TIM2 or TIM5 input capture channel number.
 610:Src/low_level.cpp **** int tim_2_5_channel_num_to_gpio_num(int channel) {
 611:Src/low_level.cpp **** #if HW_VERSION_MAJOR == 3 && HW_VERSION_MINOR >= 3
 612:Src/low_level.cpp ****     if (channel >= 1 && channel <= 4) {
 613:Src/low_level.cpp ****         // the channel numbers just happen to coincide with
 614:Src/low_level.cpp ****         // the GPIO numbers
 615:Src/low_level.cpp ****         return channel;
 616:Src/low_level.cpp ****     } else {
 617:Src/low_level.cpp ****         return -1;
 618:Src/low_level.cpp ****     }
 619:Src/low_level.cpp **** #else
 620:Src/low_level.cpp ****     // Only ch4 is available on v3.2
 621:Src/low_level.cpp ****     if (channel == 4) {
 622:Src/low_level.cpp ****         return 4;
 623:Src/low_level.cpp ****     } else {
 624:Src/low_level.cpp ****         return -1;
 625:Src/low_level.cpp ****     }
 626:Src/low_level.cpp **** #endif
 627:Src/low_level.cpp **** }
 628:Src/low_level.cpp **** // @brief Returns the TIM2 or TIM5 channel number
 629:Src/low_level.cpp **** // for a given GPIO number.
 630:Src/low_level.cpp **** uint32_t gpio_num_to_tim_2_5_channel(int gpio_num) {
 631:Src/low_level.cpp **** #if HW_VERSION_MAJOR == 3 && HW_VERSION_MINOR >= 3
 632:Src/low_level.cpp ****     switch (gpio_num) {
 633:Src/low_level.cpp ****         case 1: return TIM_CHANNEL_1;
 634:Src/low_level.cpp ****         case 2: return TIM_CHANNEL_2;
 635:Src/low_level.cpp ****         case 3: return TIM_CHANNEL_3;
 636:Src/low_level.cpp ****         case 4: return TIM_CHANNEL_4;
 637:Src/low_level.cpp ****         default: return 0;
 638:Src/low_level.cpp ****     }
 639:Src/low_level.cpp **** #else
 640:Src/low_level.cpp ****     // Only ch4 is available on v3.2
 641:Src/low_level.cpp ****     if (gpio_num == 4) {
 642:Src/low_level.cpp ****         return TIM_CHANNEL_4;
 643:Src/low_level.cpp ****     } else {
 644:Src/low_level.cpp ****         return 0;
 645:Src/low_level.cpp ****     }
 646:Src/low_level.cpp **** #endif
 647:Src/low_level.cpp **** }
 648:Src/low_level.cpp **** 
 649:Src/low_level.cpp **** void pwm_in_init() {
 650:Src/low_level.cpp **** 
 651:Src/low_level.cpp **** }
ARM GAS  /tmp/cc4nYBwt.s 			page 13


 652:Src/low_level.cpp **** 
 653:Src/low_level.cpp **** //TODO: These expressions have integer division by 1MHz, so it will be incorrect for clock speeds o
 654:Src/low_level.cpp **** #define TIM_2_5_CLOCK_HZ        TIM_APB1_CLOCK_HZ
 655:Src/low_level.cpp **** #define PWM_MIN_HIGH_TIME          ((TIM_2_5_CLOCK_HZ / 1000000UL) * 1000UL) // 1ms high is conside
 656:Src/low_level.cpp **** #define PWM_MAX_HIGH_TIME          ((TIM_2_5_CLOCK_HZ / 1000000UL) * 2000UL) // 2ms high is conside
 657:Src/low_level.cpp **** #define PWM_MIN_LEGAL_HIGH_TIME    ((TIM_2_5_CLOCK_HZ / 1000000UL) * 500UL) // ignore high periods 
 658:Src/low_level.cpp **** #define PWM_MAX_LEGAL_HIGH_TIME    ((TIM_2_5_CLOCK_HZ / 1000000UL) * 2500UL) // ignore high periods
 659:Src/low_level.cpp **** #define PWM_INVERT_INPUT        false
 660:Src/low_level.cpp **** 
 661:Src/low_level.cpp **** void handle_pulse(int gpio_num, uint32_t high_time) {
 662:Src/low_level.cpp **** }
 663:Src/low_level.cpp **** 
 664:Src/low_level.cpp **** void pwm_in_cb(int channel, uint32_t timestamp) {
 665:Src/low_level.cpp **** 
 666:Src/low_level.cpp **** }
 667:Src/low_level.cpp **** 
 668:Src/low_level.cpp **** 
 669:Src/low_level.cpp **** /* Analog speed control input */
 670:Src/low_level.cpp **** 
 671:Src/low_level.cpp **** static void update_analog_endpoint(const struct PWMMapping_t *map, int gpio)
 672:Src/low_level.cpp **** {
 673:Src/low_level.cpp ****     //float fraction = get_adc_voltage(get_gpio_port_by_pin(gpio), get_gpio_pin_by_pin(gpio)) / 3.3
 674:Src/low_level.cpp ****     
 675:Src/low_level.cpp **** }
 676:Src/low_level.cpp **** // Change function signature to match os_pthread type
 677:Src/low_level.cpp **** static void analog_polling_thread(const void* argument) {
  33              		.loc 1 677 57 view -0
  34              		.cfi_startproc
  35              		@ Volatile: function does not return.
  36              		@ args = 0, pretend = 0, frame = 0
  37              		@ frame_needed = 0, uses_anonymous_args = 0
  38              		.loc 1 677 57 is_stmt 0 view .LVU1
  39 0000 08B5     		push	{r3, lr}
  40              	.LCFI0:
  41              		.cfi_def_cfa_offset 8
  42              		.cfi_offset 3, -8
  43              		.cfi_offset 14, -4
 678:Src/low_level.cpp ****     while (true) {
 679:Src/low_level.cpp ****         osDelay(10);
  44              		.loc 1 679 16 view .LVU2
  45 0002 0A24     		movs	r4, #10
  46              	.LVL1:
  47              	.L2:
 678:Src/low_level.cpp ****     while (true) {
  48              		.loc 1 678 5 is_stmt 1 discriminator 1 view .LVU3
  49              		.loc 1 679 9 discriminator 1 view .LVU4
  50              		.loc 1 679 16 is_stmt 0 discriminator 1 view .LVU5
  51 0004 2046     		mov	r0, r4
  52 0006 FFF7FEFF 		bl	osDelay
  53              	.LVL2:
 678:Src/low_level.cpp ****     while (true) {
  54              		.loc 1 678 5 is_stmt 1 discriminator 1 view .LVU6
  55 000a FBE7     		b	.L2
  56              		.cfi_endproc
  57              	.LFE5787:
  59              		.section	.text.safety_critical_arm_motor_pwm,"ax",%progbits
  60              		.align	1
ARM GAS  /tmp/cc4nYBwt.s 			page 14


  61              		.global	safety_critical_arm_motor_pwm
  62              		.syntax unified
  63              		.thumb
  64              		.thumb_func
  65              		.fpu fpv4-sp-d16
  67              	safety_critical_arm_motor_pwm:
  68              	.LVL3:
  69              	.LFB5763:
 108:Src/low_level.cpp ****     uint32_t mask = cpu_enter_critical();
  70              		.loc 1 108 50 view -0
  71              		.cfi_startproc
  72              		@ args = 0, pretend = 0, frame = 0
  73              		@ frame_needed = 0, uses_anonymous_args = 0
  74              		@ link register save eliminated.
 109:Src/low_level.cpp ****     if (brake_resistor_armed) {
  75              		.loc 1 109 5 view .LVU8
  76              	.LBB87:
  77              	.LBI87:
  78              		.file 2 "Inc/low_level.h"
   1:Inc/low_level.h **** /* Define to prevent recursive inclusion -------------------------------------*/
   2:Inc/low_level.h **** #ifndef __LOW_LEVEL_H
   3:Inc/low_level.h **** #define __LOW_LEVEL_H
   4:Inc/low_level.h **** 
   5:Inc/low_level.h **** 
   6:Inc/low_level.h **** #ifdef __cplusplus
   7:Inc/low_level.h **** // Forward declare Motor class before extern "C" block
   8:Inc/low_level.h **** class Motor;
   9:Inc/low_level.h **** 
  10:Inc/low_level.h **** extern "C" {
  11:Inc/low_level.h **** #endif
  12:Inc/low_level.h **** 
  13:Inc/low_level.h **** /* Includes ------------------------------------------------------------------*/
  14:Inc/low_level.h **** #include <cmsis_os.h>
  15:Inc/low_level.h **** #include <stdbool.h>
  16:Inc/low_level.h **** #include "stm32g4xx_hal.h"  // Add this for ADC_HandleTypeDef and TIM_HandleTypeDef
  17:Inc/low_level.h **** #include "stm32g4xx_hal_adc.h" // Add this for TIM_HandleTypeDef
  18:Inc/low_level.h **** 
  19:Inc/low_level.h **** 
  20:Inc/low_level.h **** /* Exported types ------------------------------------------------------------*/
  21:Inc/low_level.h **** /* Exported constants --------------------------------------------------------*/
  22:Inc/low_level.h **** #define ADC_CHANNEL_COUNT 16
  23:Inc/low_level.h **** extern const float adc_full_scale;
  24:Inc/low_level.h **** extern const float adc_ref_voltage;
  25:Inc/low_level.h **** /* Exported variables --------------------------------------------------------*/
  26:Inc/low_level.h **** extern float vbus_voltage;
  27:Inc/low_level.h **** extern float ibus_;
  28:Inc/low_level.h **** extern bool brake_resistor_armed;
  29:Inc/low_level.h **** extern bool brake_resistor_saturated;
  30:Inc/low_level.h **** extern uint16_t adc_measurements_[ADC_CHANNEL_COUNT];
  31:Inc/low_level.h **** /* Exported macro ------------------------------------------------------------*/
  32:Inc/low_level.h **** /* Exported functions --------------------------------------------------------*/
  33:Inc/low_level.h **** 
  34:Inc/low_level.h **** void safety_critical_arm_motor_pwm(Motor& motor);
  35:Inc/low_level.h **** bool safety_critical_disarm_motor_pwm(Motor& motor);
  36:Inc/low_level.h **** void safety_critical_apply_motor_pwm_timings(Motor& motor, uint16_t timings[3]);
  37:Inc/low_level.h **** void safety_critical_arm_brake_resistor();
  38:Inc/low_level.h **** void safety_critical_disarm_brake_resistor();
ARM GAS  /tmp/cc4nYBwt.s 			page 15


  39:Inc/low_level.h **** void safety_critical_apply_brake_resistor_timings(uint32_t low_off, uint32_t high_on);
  40:Inc/low_level.h **** 
  41:Inc/low_level.h **** // called from STM platform code
  42:Inc/low_level.h **** extern "C" {
  43:Inc/low_level.h **** void pwm_trig_adc_cb(ADC_TypeDef* hadc, bool injected);
  44:Inc/low_level.h **** void vbus_sense_adc_cb(ADC_HandleTypeDef* hadc, bool injected);
  45:Inc/low_level.h **** void tim_update_cb(TIM_HandleTypeDef* htim);
  46:Inc/low_level.h **** void pwm_in_cb(int channel, uint32_t timestamp);
  47:Inc/low_level.h **** void send_notification(void);
  48:Inc/low_level.h **** void axis_loop(void);
  49:Inc/low_level.h **** }
  50:Inc/low_level.h **** 
  51:Inc/low_level.h **** // Initalisation
  52:Inc/low_level.h **** void start_adc_pwm();
  53:Inc/low_level.h **** void start_pwm(TIM_HandleTypeDef* htim);
  54:Inc/low_level.h **** void sync_timers(TIM_HandleTypeDef* htim_a, TIM_HandleTypeDef* htim_b,
  55:Inc/low_level.h ****                  uint16_t TIM_CLOCKSOURCE_ITRx, uint16_t count_offset,
  56:Inc/low_level.h ****                  TIM_HandleTypeDef* htim_refbase = nullptr);
  57:Inc/low_level.h **** void start_general_purpose_adc();
  58:Inc/low_level.h **** float get_adc_voltage(const GPIO_TypeDef* const GPIO_port, uint16_t GPIO_pin);
  59:Inc/low_level.h **** uint16_t channel_from_gpio(const GPIO_TypeDef* const GPIO_port, uint16_t GPIO_pin);
  60:Inc/low_level.h **** float get_adc_voltage_channel(uint16_t channel);
  61:Inc/low_level.h **** void pwm_in_init();
  62:Inc/low_level.h **** void start_analog_thread();
  63:Inc/low_level.h **** 
  64:Inc/low_level.h **** void update_brake_current();
  65:Inc/low_level.h **** 
  66:Inc/low_level.h **** inline uint32_t cpu_enter_critical() {
  79              		.loc 2 66 17 view .LVU9
  80              	.LBB88:
  67:Inc/low_level.h ****     uint32_t primask = __get_PRIMASK();
  81              		.loc 2 67 5 view .LVU10
  82              	.LBB89:
  83              	.LBI89:
  84              		.file 3 "Drivers/CMSIS/Include/cmsis_gcc.h"
   1:Drivers/CMSIS/Include/cmsis_gcc.h **** /**************************************************************************//**
   2:Drivers/CMSIS/Include/cmsis_gcc.h ****  * @file     cmsis_gcc.h
   3:Drivers/CMSIS/Include/cmsis_gcc.h ****  * @brief    CMSIS compiler GCC header file
   4:Drivers/CMSIS/Include/cmsis_gcc.h ****  * @version  V5.2.0
   5:Drivers/CMSIS/Include/cmsis_gcc.h ****  * @date     08. May 2019
   6:Drivers/CMSIS/Include/cmsis_gcc.h ****  ******************************************************************************/
   7:Drivers/CMSIS/Include/cmsis_gcc.h **** /*
   8:Drivers/CMSIS/Include/cmsis_gcc.h ****  * Copyright (c) 2009-2019 Arm Limited. All rights reserved.
   9:Drivers/CMSIS/Include/cmsis_gcc.h ****  *
  10:Drivers/CMSIS/Include/cmsis_gcc.h ****  * SPDX-License-Identifier: Apache-2.0
  11:Drivers/CMSIS/Include/cmsis_gcc.h ****  *
  12:Drivers/CMSIS/Include/cmsis_gcc.h ****  * Licensed under the Apache License, Version 2.0 (the License); you may
  13:Drivers/CMSIS/Include/cmsis_gcc.h ****  * not use this file except in compliance with the License.
  14:Drivers/CMSIS/Include/cmsis_gcc.h ****  * You may obtain a copy of the License at
  15:Drivers/CMSIS/Include/cmsis_gcc.h ****  *
  16:Drivers/CMSIS/Include/cmsis_gcc.h ****  * www.apache.org/licenses/LICENSE-2.0
  17:Drivers/CMSIS/Include/cmsis_gcc.h ****  *
  18:Drivers/CMSIS/Include/cmsis_gcc.h ****  * Unless required by applicable law or agreed to in writing, software
  19:Drivers/CMSIS/Include/cmsis_gcc.h ****  * distributed under the License is distributed on an AS IS BASIS, WITHOUT
  20:Drivers/CMSIS/Include/cmsis_gcc.h ****  * WARRANTIES OR CONDITIONS OF ANY KIND, either express or implied.
  21:Drivers/CMSIS/Include/cmsis_gcc.h ****  * See the License for the specific language governing permissions and
  22:Drivers/CMSIS/Include/cmsis_gcc.h ****  * limitations under the License.
ARM GAS  /tmp/cc4nYBwt.s 			page 16


  23:Drivers/CMSIS/Include/cmsis_gcc.h ****  */
  24:Drivers/CMSIS/Include/cmsis_gcc.h **** 
  25:Drivers/CMSIS/Include/cmsis_gcc.h **** #ifndef __CMSIS_GCC_H
  26:Drivers/CMSIS/Include/cmsis_gcc.h **** #define __CMSIS_GCC_H
  27:Drivers/CMSIS/Include/cmsis_gcc.h **** 
  28:Drivers/CMSIS/Include/cmsis_gcc.h **** /* ignore some GCC warnings */
  29:Drivers/CMSIS/Include/cmsis_gcc.h **** #pragma GCC diagnostic push
  30:Drivers/CMSIS/Include/cmsis_gcc.h **** #pragma GCC diagnostic ignored "-Wsign-conversion"
  31:Drivers/CMSIS/Include/cmsis_gcc.h **** #pragma GCC diagnostic ignored "-Wconversion"
  32:Drivers/CMSIS/Include/cmsis_gcc.h **** #pragma GCC diagnostic ignored "-Wunused-parameter"
  33:Drivers/CMSIS/Include/cmsis_gcc.h **** 
  34:Drivers/CMSIS/Include/cmsis_gcc.h **** /* Fallback for __has_builtin */
  35:Drivers/CMSIS/Include/cmsis_gcc.h **** #ifndef __has_builtin
  36:Drivers/CMSIS/Include/cmsis_gcc.h ****   #define __has_builtin(x) (0)
  37:Drivers/CMSIS/Include/cmsis_gcc.h **** #endif
  38:Drivers/CMSIS/Include/cmsis_gcc.h **** 
  39:Drivers/CMSIS/Include/cmsis_gcc.h **** /* CMSIS compiler specific defines */
  40:Drivers/CMSIS/Include/cmsis_gcc.h **** #ifndef   __ASM
  41:Drivers/CMSIS/Include/cmsis_gcc.h ****   #define __ASM                                  __asm
  42:Drivers/CMSIS/Include/cmsis_gcc.h **** #endif
  43:Drivers/CMSIS/Include/cmsis_gcc.h **** #ifndef   __INLINE
  44:Drivers/CMSIS/Include/cmsis_gcc.h ****   #define __INLINE                               inline
  45:Drivers/CMSIS/Include/cmsis_gcc.h **** #endif
  46:Drivers/CMSIS/Include/cmsis_gcc.h **** #ifndef   __STATIC_INLINE
  47:Drivers/CMSIS/Include/cmsis_gcc.h ****   #define __STATIC_INLINE                        static inline
  48:Drivers/CMSIS/Include/cmsis_gcc.h **** #endif
  49:Drivers/CMSIS/Include/cmsis_gcc.h **** #ifndef   __STATIC_FORCEINLINE                 
  50:Drivers/CMSIS/Include/cmsis_gcc.h ****   #define __STATIC_FORCEINLINE                   __attribute__((always_inline)) static inline
  51:Drivers/CMSIS/Include/cmsis_gcc.h **** #endif                                           
  52:Drivers/CMSIS/Include/cmsis_gcc.h **** #ifndef   __NO_RETURN
  53:Drivers/CMSIS/Include/cmsis_gcc.h ****   #define __NO_RETURN                            __attribute__((__noreturn__))
  54:Drivers/CMSIS/Include/cmsis_gcc.h **** #endif
  55:Drivers/CMSIS/Include/cmsis_gcc.h **** #ifndef   __USED
  56:Drivers/CMSIS/Include/cmsis_gcc.h ****   #define __USED                                 __attribute__((used))
  57:Drivers/CMSIS/Include/cmsis_gcc.h **** #endif
  58:Drivers/CMSIS/Include/cmsis_gcc.h **** #ifndef   __WEAK
  59:Drivers/CMSIS/Include/cmsis_gcc.h ****   #define __WEAK                                 __attribute__((weak))
  60:Drivers/CMSIS/Include/cmsis_gcc.h **** #endif
  61:Drivers/CMSIS/Include/cmsis_gcc.h **** #ifndef   __PACKED
  62:Drivers/CMSIS/Include/cmsis_gcc.h ****   #define __PACKED                               __attribute__((packed, aligned(1)))
  63:Drivers/CMSIS/Include/cmsis_gcc.h **** #endif
  64:Drivers/CMSIS/Include/cmsis_gcc.h **** #ifndef   __PACKED_STRUCT
  65:Drivers/CMSIS/Include/cmsis_gcc.h ****   #define __PACKED_STRUCT                        struct __attribute__((packed, aligned(1)))
  66:Drivers/CMSIS/Include/cmsis_gcc.h **** #endif
  67:Drivers/CMSIS/Include/cmsis_gcc.h **** #ifndef   __PACKED_UNION
  68:Drivers/CMSIS/Include/cmsis_gcc.h ****   #define __PACKED_UNION                         union __attribute__((packed, aligned(1)))
  69:Drivers/CMSIS/Include/cmsis_gcc.h **** #endif
  70:Drivers/CMSIS/Include/cmsis_gcc.h **** #ifndef   __UNALIGNED_UINT32        /* deprecated */
  71:Drivers/CMSIS/Include/cmsis_gcc.h ****   #pragma GCC diagnostic push
  72:Drivers/CMSIS/Include/cmsis_gcc.h ****   #pragma GCC diagnostic ignored "-Wpacked"
  73:Drivers/CMSIS/Include/cmsis_gcc.h ****   #pragma GCC diagnostic ignored "-Wattributes"
  74:Drivers/CMSIS/Include/cmsis_gcc.h ****   struct __attribute__((packed)) T_UINT32 { uint32_t v; };
  75:Drivers/CMSIS/Include/cmsis_gcc.h ****   #pragma GCC diagnostic pop
  76:Drivers/CMSIS/Include/cmsis_gcc.h ****   #define __UNALIGNED_UINT32(x)                  (((struct T_UINT32 *)(x))->v)
  77:Drivers/CMSIS/Include/cmsis_gcc.h **** #endif
  78:Drivers/CMSIS/Include/cmsis_gcc.h **** #ifndef   __UNALIGNED_UINT16_WRITE
  79:Drivers/CMSIS/Include/cmsis_gcc.h ****   #pragma GCC diagnostic push
ARM GAS  /tmp/cc4nYBwt.s 			page 17


  80:Drivers/CMSIS/Include/cmsis_gcc.h ****   #pragma GCC diagnostic ignored "-Wpacked"
  81:Drivers/CMSIS/Include/cmsis_gcc.h ****   #pragma GCC diagnostic ignored "-Wattributes"
  82:Drivers/CMSIS/Include/cmsis_gcc.h ****   __PACKED_STRUCT T_UINT16_WRITE { uint16_t v; };
  83:Drivers/CMSIS/Include/cmsis_gcc.h ****   #pragma GCC diagnostic pop
  84:Drivers/CMSIS/Include/cmsis_gcc.h ****   #define __UNALIGNED_UINT16_WRITE(addr, val)    (void)((((struct T_UINT16_WRITE *)(void *)(addr))-
  85:Drivers/CMSIS/Include/cmsis_gcc.h **** #endif
  86:Drivers/CMSIS/Include/cmsis_gcc.h **** #ifndef   __UNALIGNED_UINT16_READ
  87:Drivers/CMSIS/Include/cmsis_gcc.h ****   #pragma GCC diagnostic push
  88:Drivers/CMSIS/Include/cmsis_gcc.h ****   #pragma GCC diagnostic ignored "-Wpacked"
  89:Drivers/CMSIS/Include/cmsis_gcc.h ****   #pragma GCC diagnostic ignored "-Wattributes"
  90:Drivers/CMSIS/Include/cmsis_gcc.h ****   __PACKED_STRUCT T_UINT16_READ { uint16_t v; };
  91:Drivers/CMSIS/Include/cmsis_gcc.h ****   #pragma GCC diagnostic pop
  92:Drivers/CMSIS/Include/cmsis_gcc.h ****   #define __UNALIGNED_UINT16_READ(addr)          (((const struct T_UINT16_READ *)(const void *)(add
  93:Drivers/CMSIS/Include/cmsis_gcc.h **** #endif
  94:Drivers/CMSIS/Include/cmsis_gcc.h **** #ifndef   __UNALIGNED_UINT32_WRITE
  95:Drivers/CMSIS/Include/cmsis_gcc.h ****   #pragma GCC diagnostic push
  96:Drivers/CMSIS/Include/cmsis_gcc.h ****   #pragma GCC diagnostic ignored "-Wpacked"
  97:Drivers/CMSIS/Include/cmsis_gcc.h ****   #pragma GCC diagnostic ignored "-Wattributes"
  98:Drivers/CMSIS/Include/cmsis_gcc.h ****   __PACKED_STRUCT T_UINT32_WRITE { uint32_t v; };
  99:Drivers/CMSIS/Include/cmsis_gcc.h ****   #pragma GCC diagnostic pop
 100:Drivers/CMSIS/Include/cmsis_gcc.h ****   #define __UNALIGNED_UINT32_WRITE(addr, val)    (void)((((struct T_UINT32_WRITE *)(void *)(addr))-
 101:Drivers/CMSIS/Include/cmsis_gcc.h **** #endif
 102:Drivers/CMSIS/Include/cmsis_gcc.h **** #ifndef   __UNALIGNED_UINT32_READ
 103:Drivers/CMSIS/Include/cmsis_gcc.h ****   #pragma GCC diagnostic push
 104:Drivers/CMSIS/Include/cmsis_gcc.h ****   #pragma GCC diagnostic ignored "-Wpacked"
 105:Drivers/CMSIS/Include/cmsis_gcc.h ****   #pragma GCC diagnostic ignored "-Wattributes"
 106:Drivers/CMSIS/Include/cmsis_gcc.h ****   __PACKED_STRUCT T_UINT32_READ { uint32_t v; };
 107:Drivers/CMSIS/Include/cmsis_gcc.h ****   #pragma GCC diagnostic pop
 108:Drivers/CMSIS/Include/cmsis_gcc.h ****   #define __UNALIGNED_UINT32_READ(addr)          (((const struct T_UINT32_READ *)(const void *)(add
 109:Drivers/CMSIS/Include/cmsis_gcc.h **** #endif
 110:Drivers/CMSIS/Include/cmsis_gcc.h **** #ifndef   __ALIGNED
 111:Drivers/CMSIS/Include/cmsis_gcc.h ****   #define __ALIGNED(x)                           __attribute__((aligned(x)))
 112:Drivers/CMSIS/Include/cmsis_gcc.h **** #endif
 113:Drivers/CMSIS/Include/cmsis_gcc.h **** #ifndef   __RESTRICT
 114:Drivers/CMSIS/Include/cmsis_gcc.h ****   #define __RESTRICT                             __restrict
 115:Drivers/CMSIS/Include/cmsis_gcc.h **** #endif
 116:Drivers/CMSIS/Include/cmsis_gcc.h **** #ifndef   __COMPILER_BARRIER
 117:Drivers/CMSIS/Include/cmsis_gcc.h ****   #define __COMPILER_BARRIER()                   __ASM volatile("":::"memory")
 118:Drivers/CMSIS/Include/cmsis_gcc.h **** #endif
 119:Drivers/CMSIS/Include/cmsis_gcc.h **** 
 120:Drivers/CMSIS/Include/cmsis_gcc.h **** /* #########################  Startup and Lowlevel Init  ######################## */
 121:Drivers/CMSIS/Include/cmsis_gcc.h **** 
 122:Drivers/CMSIS/Include/cmsis_gcc.h **** #ifndef __PROGRAM_START
 123:Drivers/CMSIS/Include/cmsis_gcc.h **** 
 124:Drivers/CMSIS/Include/cmsis_gcc.h **** /**
 125:Drivers/CMSIS/Include/cmsis_gcc.h ****   \brief   Initializes data and bss sections
 126:Drivers/CMSIS/Include/cmsis_gcc.h ****   \details This default implementations initialized all data and additional bss
 127:Drivers/CMSIS/Include/cmsis_gcc.h ****            sections relying on .copy.table and .zero.table specified properly
 128:Drivers/CMSIS/Include/cmsis_gcc.h ****            in the used linker script.
 129:Drivers/CMSIS/Include/cmsis_gcc.h ****   
 130:Drivers/CMSIS/Include/cmsis_gcc.h ****  */
 131:Drivers/CMSIS/Include/cmsis_gcc.h **** __STATIC_FORCEINLINE __NO_RETURN void __cmsis_start(void)
 132:Drivers/CMSIS/Include/cmsis_gcc.h **** {
 133:Drivers/CMSIS/Include/cmsis_gcc.h ****   extern void _start(void) __NO_RETURN;
 134:Drivers/CMSIS/Include/cmsis_gcc.h ****   
 135:Drivers/CMSIS/Include/cmsis_gcc.h ****   typedef struct {
 136:Drivers/CMSIS/Include/cmsis_gcc.h ****     uint32_t const* src;
ARM GAS  /tmp/cc4nYBwt.s 			page 18


 137:Drivers/CMSIS/Include/cmsis_gcc.h ****     uint32_t* dest;
 138:Drivers/CMSIS/Include/cmsis_gcc.h ****     uint32_t  wlen;
 139:Drivers/CMSIS/Include/cmsis_gcc.h ****   } __copy_table_t;
 140:Drivers/CMSIS/Include/cmsis_gcc.h ****   
 141:Drivers/CMSIS/Include/cmsis_gcc.h ****   typedef struct {
 142:Drivers/CMSIS/Include/cmsis_gcc.h ****     uint32_t* dest;
 143:Drivers/CMSIS/Include/cmsis_gcc.h ****     uint32_t  wlen;
 144:Drivers/CMSIS/Include/cmsis_gcc.h ****   } __zero_table_t;
 145:Drivers/CMSIS/Include/cmsis_gcc.h ****   
 146:Drivers/CMSIS/Include/cmsis_gcc.h ****   extern const __copy_table_t __copy_table_start__;
 147:Drivers/CMSIS/Include/cmsis_gcc.h ****   extern const __copy_table_t __copy_table_end__;
 148:Drivers/CMSIS/Include/cmsis_gcc.h ****   extern const __zero_table_t __zero_table_start__;
 149:Drivers/CMSIS/Include/cmsis_gcc.h ****   extern const __zero_table_t __zero_table_end__;
 150:Drivers/CMSIS/Include/cmsis_gcc.h **** 
 151:Drivers/CMSIS/Include/cmsis_gcc.h ****   for (__copy_table_t const* pTable = &__copy_table_start__; pTable < &__copy_table_end__; ++pTable
 152:Drivers/CMSIS/Include/cmsis_gcc.h ****     for(uint32_t i=0u; i<pTable->wlen; ++i) {
 153:Drivers/CMSIS/Include/cmsis_gcc.h ****       pTable->dest[i] = pTable->src[i];
 154:Drivers/CMSIS/Include/cmsis_gcc.h ****     }
 155:Drivers/CMSIS/Include/cmsis_gcc.h ****   }
 156:Drivers/CMSIS/Include/cmsis_gcc.h ****  
 157:Drivers/CMSIS/Include/cmsis_gcc.h ****   for (__zero_table_t const* pTable = &__zero_table_start__; pTable < &__zero_table_end__; ++pTable
 158:Drivers/CMSIS/Include/cmsis_gcc.h ****     for(uint32_t i=0u; i<pTable->wlen; ++i) {
 159:Drivers/CMSIS/Include/cmsis_gcc.h ****       pTable->dest[i] = 0u;
 160:Drivers/CMSIS/Include/cmsis_gcc.h ****     }
 161:Drivers/CMSIS/Include/cmsis_gcc.h ****   }
 162:Drivers/CMSIS/Include/cmsis_gcc.h ****  
 163:Drivers/CMSIS/Include/cmsis_gcc.h ****   _start();
 164:Drivers/CMSIS/Include/cmsis_gcc.h **** }
 165:Drivers/CMSIS/Include/cmsis_gcc.h ****   
 166:Drivers/CMSIS/Include/cmsis_gcc.h **** #define __PROGRAM_START           __cmsis_start
 167:Drivers/CMSIS/Include/cmsis_gcc.h **** #endif
 168:Drivers/CMSIS/Include/cmsis_gcc.h **** 
 169:Drivers/CMSIS/Include/cmsis_gcc.h **** #ifndef __INITIAL_SP
 170:Drivers/CMSIS/Include/cmsis_gcc.h **** #define __INITIAL_SP              __StackTop
 171:Drivers/CMSIS/Include/cmsis_gcc.h **** #endif
 172:Drivers/CMSIS/Include/cmsis_gcc.h **** 
 173:Drivers/CMSIS/Include/cmsis_gcc.h **** #ifndef __STACK_LIMIT
 174:Drivers/CMSIS/Include/cmsis_gcc.h **** #define __STACK_LIMIT             __StackLimit
 175:Drivers/CMSIS/Include/cmsis_gcc.h **** #endif
 176:Drivers/CMSIS/Include/cmsis_gcc.h **** 
 177:Drivers/CMSIS/Include/cmsis_gcc.h **** #ifndef __VECTOR_TABLE
 178:Drivers/CMSIS/Include/cmsis_gcc.h **** #define __VECTOR_TABLE            __Vectors
 179:Drivers/CMSIS/Include/cmsis_gcc.h **** #endif
 180:Drivers/CMSIS/Include/cmsis_gcc.h **** 
 181:Drivers/CMSIS/Include/cmsis_gcc.h **** #ifndef __VECTOR_TABLE_ATTRIBUTE
 182:Drivers/CMSIS/Include/cmsis_gcc.h **** #define __VECTOR_TABLE_ATTRIBUTE  __attribute((used, section(".vectors")))
 183:Drivers/CMSIS/Include/cmsis_gcc.h **** #endif
 184:Drivers/CMSIS/Include/cmsis_gcc.h **** 
 185:Drivers/CMSIS/Include/cmsis_gcc.h **** /* ###########################  Core Function Access  ########################### */
 186:Drivers/CMSIS/Include/cmsis_gcc.h **** /** \ingroup  CMSIS_Core_FunctionInterface
 187:Drivers/CMSIS/Include/cmsis_gcc.h ****     \defgroup CMSIS_Core_RegAccFunctions CMSIS Core Register Access Functions
 188:Drivers/CMSIS/Include/cmsis_gcc.h ****   @{
 189:Drivers/CMSIS/Include/cmsis_gcc.h ****  */
 190:Drivers/CMSIS/Include/cmsis_gcc.h **** 
 191:Drivers/CMSIS/Include/cmsis_gcc.h **** /**
 192:Drivers/CMSIS/Include/cmsis_gcc.h ****   \brief   Enable IRQ Interrupts
 193:Drivers/CMSIS/Include/cmsis_gcc.h ****   \details Enables IRQ interrupts by clearing the I-bit in the CPSR.
ARM GAS  /tmp/cc4nYBwt.s 			page 19


 194:Drivers/CMSIS/Include/cmsis_gcc.h ****            Can only be executed in Privileged modes.
 195:Drivers/CMSIS/Include/cmsis_gcc.h ****  */
 196:Drivers/CMSIS/Include/cmsis_gcc.h **** __STATIC_FORCEINLINE void __enable_irq(void)
 197:Drivers/CMSIS/Include/cmsis_gcc.h **** {
 198:Drivers/CMSIS/Include/cmsis_gcc.h ****   __ASM volatile ("cpsie i" : : : "memory");
 199:Drivers/CMSIS/Include/cmsis_gcc.h **** }
 200:Drivers/CMSIS/Include/cmsis_gcc.h **** 
 201:Drivers/CMSIS/Include/cmsis_gcc.h **** 
 202:Drivers/CMSIS/Include/cmsis_gcc.h **** /**
 203:Drivers/CMSIS/Include/cmsis_gcc.h ****   \brief   Disable IRQ Interrupts
 204:Drivers/CMSIS/Include/cmsis_gcc.h ****   \details Disables IRQ interrupts by setting the I-bit in the CPSR.
 205:Drivers/CMSIS/Include/cmsis_gcc.h ****            Can only be executed in Privileged modes.
 206:Drivers/CMSIS/Include/cmsis_gcc.h ****  */
 207:Drivers/CMSIS/Include/cmsis_gcc.h **** __STATIC_FORCEINLINE void __disable_irq(void)
 208:Drivers/CMSIS/Include/cmsis_gcc.h **** {
 209:Drivers/CMSIS/Include/cmsis_gcc.h ****   __ASM volatile ("cpsid i" : : : "memory");
 210:Drivers/CMSIS/Include/cmsis_gcc.h **** }
 211:Drivers/CMSIS/Include/cmsis_gcc.h **** 
 212:Drivers/CMSIS/Include/cmsis_gcc.h **** 
 213:Drivers/CMSIS/Include/cmsis_gcc.h **** /**
 214:Drivers/CMSIS/Include/cmsis_gcc.h ****   \brief   Get Control Register
 215:Drivers/CMSIS/Include/cmsis_gcc.h ****   \details Returns the content of the Control Register.
 216:Drivers/CMSIS/Include/cmsis_gcc.h ****   \return               Control Register value
 217:Drivers/CMSIS/Include/cmsis_gcc.h ****  */
 218:Drivers/CMSIS/Include/cmsis_gcc.h **** __STATIC_FORCEINLINE uint32_t __get_CONTROL(void)
 219:Drivers/CMSIS/Include/cmsis_gcc.h **** {
 220:Drivers/CMSIS/Include/cmsis_gcc.h ****   uint32_t result;
 221:Drivers/CMSIS/Include/cmsis_gcc.h **** 
 222:Drivers/CMSIS/Include/cmsis_gcc.h ****   __ASM volatile ("MRS %0, control" : "=r" (result) );
 223:Drivers/CMSIS/Include/cmsis_gcc.h ****   return(result);
 224:Drivers/CMSIS/Include/cmsis_gcc.h **** }
 225:Drivers/CMSIS/Include/cmsis_gcc.h **** 
 226:Drivers/CMSIS/Include/cmsis_gcc.h **** 
 227:Drivers/CMSIS/Include/cmsis_gcc.h **** #if (defined (__ARM_FEATURE_CMSE ) && (__ARM_FEATURE_CMSE == 3))
 228:Drivers/CMSIS/Include/cmsis_gcc.h **** /**
 229:Drivers/CMSIS/Include/cmsis_gcc.h ****   \brief   Get Control Register (non-secure)
 230:Drivers/CMSIS/Include/cmsis_gcc.h ****   \details Returns the content of the non-secure Control Register when in secure mode.
 231:Drivers/CMSIS/Include/cmsis_gcc.h ****   \return               non-secure Control Register value
 232:Drivers/CMSIS/Include/cmsis_gcc.h ****  */
 233:Drivers/CMSIS/Include/cmsis_gcc.h **** __STATIC_FORCEINLINE uint32_t __TZ_get_CONTROL_NS(void)
 234:Drivers/CMSIS/Include/cmsis_gcc.h **** {
 235:Drivers/CMSIS/Include/cmsis_gcc.h ****   uint32_t result;
 236:Drivers/CMSIS/Include/cmsis_gcc.h **** 
 237:Drivers/CMSIS/Include/cmsis_gcc.h ****   __ASM volatile ("MRS %0, control_ns" : "=r" (result) );
 238:Drivers/CMSIS/Include/cmsis_gcc.h ****   return(result);
 239:Drivers/CMSIS/Include/cmsis_gcc.h **** }
 240:Drivers/CMSIS/Include/cmsis_gcc.h **** #endif
 241:Drivers/CMSIS/Include/cmsis_gcc.h **** 
 242:Drivers/CMSIS/Include/cmsis_gcc.h **** 
 243:Drivers/CMSIS/Include/cmsis_gcc.h **** /**
 244:Drivers/CMSIS/Include/cmsis_gcc.h ****   \brief   Set Control Register
 245:Drivers/CMSIS/Include/cmsis_gcc.h ****   \details Writes the given value to the Control Register.
 246:Drivers/CMSIS/Include/cmsis_gcc.h ****   \param [in]    control  Control Register value to set
 247:Drivers/CMSIS/Include/cmsis_gcc.h ****  */
 248:Drivers/CMSIS/Include/cmsis_gcc.h **** __STATIC_FORCEINLINE void __set_CONTROL(uint32_t control)
 249:Drivers/CMSIS/Include/cmsis_gcc.h **** {
 250:Drivers/CMSIS/Include/cmsis_gcc.h ****   __ASM volatile ("MSR control, %0" : : "r" (control) : "memory");
ARM GAS  /tmp/cc4nYBwt.s 			page 20


 251:Drivers/CMSIS/Include/cmsis_gcc.h **** }
 252:Drivers/CMSIS/Include/cmsis_gcc.h **** 
 253:Drivers/CMSIS/Include/cmsis_gcc.h **** 
 254:Drivers/CMSIS/Include/cmsis_gcc.h **** #if (defined (__ARM_FEATURE_CMSE ) && (__ARM_FEATURE_CMSE == 3))
 255:Drivers/CMSIS/Include/cmsis_gcc.h **** /**
 256:Drivers/CMSIS/Include/cmsis_gcc.h ****   \brief   Set Control Register (non-secure)
 257:Drivers/CMSIS/Include/cmsis_gcc.h ****   \details Writes the given value to the non-secure Control Register when in secure state.
 258:Drivers/CMSIS/Include/cmsis_gcc.h ****   \param [in]    control  Control Register value to set
 259:Drivers/CMSIS/Include/cmsis_gcc.h ****  */
 260:Drivers/CMSIS/Include/cmsis_gcc.h **** __STATIC_FORCEINLINE void __TZ_set_CONTROL_NS(uint32_t control)
 261:Drivers/CMSIS/Include/cmsis_gcc.h **** {
 262:Drivers/CMSIS/Include/cmsis_gcc.h ****   __ASM volatile ("MSR control_ns, %0" : : "r" (control) : "memory");
 263:Drivers/CMSIS/Include/cmsis_gcc.h **** }
 264:Drivers/CMSIS/Include/cmsis_gcc.h **** #endif
 265:Drivers/CMSIS/Include/cmsis_gcc.h **** 
 266:Drivers/CMSIS/Include/cmsis_gcc.h **** 
 267:Drivers/CMSIS/Include/cmsis_gcc.h **** /**
 268:Drivers/CMSIS/Include/cmsis_gcc.h ****   \brief   Get IPSR Register
 269:Drivers/CMSIS/Include/cmsis_gcc.h ****   \details Returns the content of the IPSR Register.
 270:Drivers/CMSIS/Include/cmsis_gcc.h ****   \return               IPSR Register value
 271:Drivers/CMSIS/Include/cmsis_gcc.h ****  */
 272:Drivers/CMSIS/Include/cmsis_gcc.h **** __STATIC_FORCEINLINE uint32_t __get_IPSR(void)
 273:Drivers/CMSIS/Include/cmsis_gcc.h **** {
 274:Drivers/CMSIS/Include/cmsis_gcc.h ****   uint32_t result;
 275:Drivers/CMSIS/Include/cmsis_gcc.h **** 
 276:Drivers/CMSIS/Include/cmsis_gcc.h ****   __ASM volatile ("MRS %0, ipsr" : "=r" (result) );
 277:Drivers/CMSIS/Include/cmsis_gcc.h ****   return(result);
 278:Drivers/CMSIS/Include/cmsis_gcc.h **** }
 279:Drivers/CMSIS/Include/cmsis_gcc.h **** 
 280:Drivers/CMSIS/Include/cmsis_gcc.h **** 
 281:Drivers/CMSIS/Include/cmsis_gcc.h **** /**
 282:Drivers/CMSIS/Include/cmsis_gcc.h ****   \brief   Get APSR Register
 283:Drivers/CMSIS/Include/cmsis_gcc.h ****   \details Returns the content of the APSR Register.
 284:Drivers/CMSIS/Include/cmsis_gcc.h ****   \return               APSR Register value
 285:Drivers/CMSIS/Include/cmsis_gcc.h ****  */
 286:Drivers/CMSIS/Include/cmsis_gcc.h **** __STATIC_FORCEINLINE uint32_t __get_APSR(void)
 287:Drivers/CMSIS/Include/cmsis_gcc.h **** {
 288:Drivers/CMSIS/Include/cmsis_gcc.h ****   uint32_t result;
 289:Drivers/CMSIS/Include/cmsis_gcc.h **** 
 290:Drivers/CMSIS/Include/cmsis_gcc.h ****   __ASM volatile ("MRS %0, apsr" : "=r" (result) );
 291:Drivers/CMSIS/Include/cmsis_gcc.h ****   return(result);
 292:Drivers/CMSIS/Include/cmsis_gcc.h **** }
 293:Drivers/CMSIS/Include/cmsis_gcc.h **** 
 294:Drivers/CMSIS/Include/cmsis_gcc.h **** 
 295:Drivers/CMSIS/Include/cmsis_gcc.h **** /**
 296:Drivers/CMSIS/Include/cmsis_gcc.h ****   \brief   Get xPSR Register
 297:Drivers/CMSIS/Include/cmsis_gcc.h ****   \details Returns the content of the xPSR Register.
 298:Drivers/CMSIS/Include/cmsis_gcc.h ****   \return               xPSR Register value
 299:Drivers/CMSIS/Include/cmsis_gcc.h ****  */
 300:Drivers/CMSIS/Include/cmsis_gcc.h **** __STATIC_FORCEINLINE uint32_t __get_xPSR(void)
 301:Drivers/CMSIS/Include/cmsis_gcc.h **** {
 302:Drivers/CMSIS/Include/cmsis_gcc.h ****   uint32_t result;
 303:Drivers/CMSIS/Include/cmsis_gcc.h **** 
 304:Drivers/CMSIS/Include/cmsis_gcc.h ****   __ASM volatile ("MRS %0, xpsr" : "=r" (result) );
 305:Drivers/CMSIS/Include/cmsis_gcc.h ****   return(result);
 306:Drivers/CMSIS/Include/cmsis_gcc.h **** }
 307:Drivers/CMSIS/Include/cmsis_gcc.h **** 
ARM GAS  /tmp/cc4nYBwt.s 			page 21


 308:Drivers/CMSIS/Include/cmsis_gcc.h **** 
 309:Drivers/CMSIS/Include/cmsis_gcc.h **** /**
 310:Drivers/CMSIS/Include/cmsis_gcc.h ****   \brief   Get Process Stack Pointer
 311:Drivers/CMSIS/Include/cmsis_gcc.h ****   \details Returns the current value of the Process Stack Pointer (PSP).
 312:Drivers/CMSIS/Include/cmsis_gcc.h ****   \return               PSP Register value
 313:Drivers/CMSIS/Include/cmsis_gcc.h ****  */
 314:Drivers/CMSIS/Include/cmsis_gcc.h **** __STATIC_FORCEINLINE uint32_t __get_PSP(void)
 315:Drivers/CMSIS/Include/cmsis_gcc.h **** {
 316:Drivers/CMSIS/Include/cmsis_gcc.h ****   uint32_t result;
 317:Drivers/CMSIS/Include/cmsis_gcc.h **** 
 318:Drivers/CMSIS/Include/cmsis_gcc.h ****   __ASM volatile ("MRS %0, psp"  : "=r" (result) );
 319:Drivers/CMSIS/Include/cmsis_gcc.h ****   return(result);
 320:Drivers/CMSIS/Include/cmsis_gcc.h **** }
 321:Drivers/CMSIS/Include/cmsis_gcc.h **** 
 322:Drivers/CMSIS/Include/cmsis_gcc.h **** 
 323:Drivers/CMSIS/Include/cmsis_gcc.h **** #if (defined (__ARM_FEATURE_CMSE ) && (__ARM_FEATURE_CMSE == 3))
 324:Drivers/CMSIS/Include/cmsis_gcc.h **** /**
 325:Drivers/CMSIS/Include/cmsis_gcc.h ****   \brief   Get Process Stack Pointer (non-secure)
 326:Drivers/CMSIS/Include/cmsis_gcc.h ****   \details Returns the current value of the non-secure Process Stack Pointer (PSP) when in secure s
 327:Drivers/CMSIS/Include/cmsis_gcc.h ****   \return               PSP Register value
 328:Drivers/CMSIS/Include/cmsis_gcc.h ****  */
 329:Drivers/CMSIS/Include/cmsis_gcc.h **** __STATIC_FORCEINLINE uint32_t __TZ_get_PSP_NS(void)
 330:Drivers/CMSIS/Include/cmsis_gcc.h **** {
 331:Drivers/CMSIS/Include/cmsis_gcc.h ****   uint32_t result;
 332:Drivers/CMSIS/Include/cmsis_gcc.h **** 
 333:Drivers/CMSIS/Include/cmsis_gcc.h ****   __ASM volatile ("MRS %0, psp_ns"  : "=r" (result) );
 334:Drivers/CMSIS/Include/cmsis_gcc.h ****   return(result);
 335:Drivers/CMSIS/Include/cmsis_gcc.h **** }
 336:Drivers/CMSIS/Include/cmsis_gcc.h **** #endif
 337:Drivers/CMSIS/Include/cmsis_gcc.h **** 
 338:Drivers/CMSIS/Include/cmsis_gcc.h **** 
 339:Drivers/CMSIS/Include/cmsis_gcc.h **** /**
 340:Drivers/CMSIS/Include/cmsis_gcc.h ****   \brief   Set Process Stack Pointer
 341:Drivers/CMSIS/Include/cmsis_gcc.h ****   \details Assigns the given value to the Process Stack Pointer (PSP).
 342:Drivers/CMSIS/Include/cmsis_gcc.h ****   \param [in]    topOfProcStack  Process Stack Pointer value to set
 343:Drivers/CMSIS/Include/cmsis_gcc.h ****  */
 344:Drivers/CMSIS/Include/cmsis_gcc.h **** __STATIC_FORCEINLINE void __set_PSP(uint32_t topOfProcStack)
 345:Drivers/CMSIS/Include/cmsis_gcc.h **** {
 346:Drivers/CMSIS/Include/cmsis_gcc.h ****   __ASM volatile ("MSR psp, %0" : : "r" (topOfProcStack) : );
 347:Drivers/CMSIS/Include/cmsis_gcc.h **** }
 348:Drivers/CMSIS/Include/cmsis_gcc.h **** 
 349:Drivers/CMSIS/Include/cmsis_gcc.h **** 
 350:Drivers/CMSIS/Include/cmsis_gcc.h **** #if (defined (__ARM_FEATURE_CMSE ) && (__ARM_FEATURE_CMSE == 3))
 351:Drivers/CMSIS/Include/cmsis_gcc.h **** /**
 352:Drivers/CMSIS/Include/cmsis_gcc.h ****   \brief   Set Process Stack Pointer (non-secure)
 353:Drivers/CMSIS/Include/cmsis_gcc.h ****   \details Assigns the given value to the non-secure Process Stack Pointer (PSP) when in secure sta
 354:Drivers/CMSIS/Include/cmsis_gcc.h ****   \param [in]    topOfProcStack  Process Stack Pointer value to set
 355:Drivers/CMSIS/Include/cmsis_gcc.h ****  */
 356:Drivers/CMSIS/Include/cmsis_gcc.h **** __STATIC_FORCEINLINE void __TZ_set_PSP_NS(uint32_t topOfProcStack)
 357:Drivers/CMSIS/Include/cmsis_gcc.h **** {
 358:Drivers/CMSIS/Include/cmsis_gcc.h ****   __ASM volatile ("MSR psp_ns, %0" : : "r" (topOfProcStack) : );
 359:Drivers/CMSIS/Include/cmsis_gcc.h **** }
 360:Drivers/CMSIS/Include/cmsis_gcc.h **** #endif
 361:Drivers/CMSIS/Include/cmsis_gcc.h **** 
 362:Drivers/CMSIS/Include/cmsis_gcc.h **** 
 363:Drivers/CMSIS/Include/cmsis_gcc.h **** /**
 364:Drivers/CMSIS/Include/cmsis_gcc.h ****   \brief   Get Main Stack Pointer
ARM GAS  /tmp/cc4nYBwt.s 			page 22


 365:Drivers/CMSIS/Include/cmsis_gcc.h ****   \details Returns the current value of the Main Stack Pointer (MSP).
 366:Drivers/CMSIS/Include/cmsis_gcc.h ****   \return               MSP Register value
 367:Drivers/CMSIS/Include/cmsis_gcc.h ****  */
 368:Drivers/CMSIS/Include/cmsis_gcc.h **** __STATIC_FORCEINLINE uint32_t __get_MSP(void)
 369:Drivers/CMSIS/Include/cmsis_gcc.h **** {
 370:Drivers/CMSIS/Include/cmsis_gcc.h ****   uint32_t result;
 371:Drivers/CMSIS/Include/cmsis_gcc.h **** 
 372:Drivers/CMSIS/Include/cmsis_gcc.h ****   __ASM volatile ("MRS %0, msp" : "=r" (result) );
 373:Drivers/CMSIS/Include/cmsis_gcc.h ****   return(result);
 374:Drivers/CMSIS/Include/cmsis_gcc.h **** }
 375:Drivers/CMSIS/Include/cmsis_gcc.h **** 
 376:Drivers/CMSIS/Include/cmsis_gcc.h **** 
 377:Drivers/CMSIS/Include/cmsis_gcc.h **** #if (defined (__ARM_FEATURE_CMSE ) && (__ARM_FEATURE_CMSE == 3))
 378:Drivers/CMSIS/Include/cmsis_gcc.h **** /**
 379:Drivers/CMSIS/Include/cmsis_gcc.h ****   \brief   Get Main Stack Pointer (non-secure)
 380:Drivers/CMSIS/Include/cmsis_gcc.h ****   \details Returns the current value of the non-secure Main Stack Pointer (MSP) when in secure stat
 381:Drivers/CMSIS/Include/cmsis_gcc.h ****   \return               MSP Register value
 382:Drivers/CMSIS/Include/cmsis_gcc.h ****  */
 383:Drivers/CMSIS/Include/cmsis_gcc.h **** __STATIC_FORCEINLINE uint32_t __TZ_get_MSP_NS(void)
 384:Drivers/CMSIS/Include/cmsis_gcc.h **** {
 385:Drivers/CMSIS/Include/cmsis_gcc.h ****   uint32_t result;
 386:Drivers/CMSIS/Include/cmsis_gcc.h **** 
 387:Drivers/CMSIS/Include/cmsis_gcc.h ****   __ASM volatile ("MRS %0, msp_ns" : "=r" (result) );
 388:Drivers/CMSIS/Include/cmsis_gcc.h ****   return(result);
 389:Drivers/CMSIS/Include/cmsis_gcc.h **** }
 390:Drivers/CMSIS/Include/cmsis_gcc.h **** #endif
 391:Drivers/CMSIS/Include/cmsis_gcc.h **** 
 392:Drivers/CMSIS/Include/cmsis_gcc.h **** 
 393:Drivers/CMSIS/Include/cmsis_gcc.h **** /**
 394:Drivers/CMSIS/Include/cmsis_gcc.h ****   \brief   Set Main Stack Pointer
 395:Drivers/CMSIS/Include/cmsis_gcc.h ****   \details Assigns the given value to the Main Stack Pointer (MSP).
 396:Drivers/CMSIS/Include/cmsis_gcc.h ****   \param [in]    topOfMainStack  Main Stack Pointer value to set
 397:Drivers/CMSIS/Include/cmsis_gcc.h ****  */
 398:Drivers/CMSIS/Include/cmsis_gcc.h **** __STATIC_FORCEINLINE void __set_MSP(uint32_t topOfMainStack)
 399:Drivers/CMSIS/Include/cmsis_gcc.h **** {
 400:Drivers/CMSIS/Include/cmsis_gcc.h ****   __ASM volatile ("MSR msp, %0" : : "r" (topOfMainStack) : );
 401:Drivers/CMSIS/Include/cmsis_gcc.h **** }
 402:Drivers/CMSIS/Include/cmsis_gcc.h **** 
 403:Drivers/CMSIS/Include/cmsis_gcc.h **** 
 404:Drivers/CMSIS/Include/cmsis_gcc.h **** #if (defined (__ARM_FEATURE_CMSE ) && (__ARM_FEATURE_CMSE == 3))
 405:Drivers/CMSIS/Include/cmsis_gcc.h **** /**
 406:Drivers/CMSIS/Include/cmsis_gcc.h ****   \brief   Set Main Stack Pointer (non-secure)
 407:Drivers/CMSIS/Include/cmsis_gcc.h ****   \details Assigns the given value to the non-secure Main Stack Pointer (MSP) when in secure state.
 408:Drivers/CMSIS/Include/cmsis_gcc.h ****   \param [in]    topOfMainStack  Main Stack Pointer value to set
 409:Drivers/CMSIS/Include/cmsis_gcc.h ****  */
 410:Drivers/CMSIS/Include/cmsis_gcc.h **** __STATIC_FORCEINLINE void __TZ_set_MSP_NS(uint32_t topOfMainStack)
 411:Drivers/CMSIS/Include/cmsis_gcc.h **** {
 412:Drivers/CMSIS/Include/cmsis_gcc.h ****   __ASM volatile ("MSR msp_ns, %0" : : "r" (topOfMainStack) : );
 413:Drivers/CMSIS/Include/cmsis_gcc.h **** }
 414:Drivers/CMSIS/Include/cmsis_gcc.h **** #endif
 415:Drivers/CMSIS/Include/cmsis_gcc.h **** 
 416:Drivers/CMSIS/Include/cmsis_gcc.h **** 
 417:Drivers/CMSIS/Include/cmsis_gcc.h **** #if (defined (__ARM_FEATURE_CMSE ) && (__ARM_FEATURE_CMSE == 3))
 418:Drivers/CMSIS/Include/cmsis_gcc.h **** /**
 419:Drivers/CMSIS/Include/cmsis_gcc.h ****   \brief   Get Stack Pointer (non-secure)
 420:Drivers/CMSIS/Include/cmsis_gcc.h ****   \details Returns the current value of the non-secure Stack Pointer (SP) when in secure state.
 421:Drivers/CMSIS/Include/cmsis_gcc.h ****   \return               SP Register value
ARM GAS  /tmp/cc4nYBwt.s 			page 23


 422:Drivers/CMSIS/Include/cmsis_gcc.h ****  */
 423:Drivers/CMSIS/Include/cmsis_gcc.h **** __STATIC_FORCEINLINE uint32_t __TZ_get_SP_NS(void)
 424:Drivers/CMSIS/Include/cmsis_gcc.h **** {
 425:Drivers/CMSIS/Include/cmsis_gcc.h ****   uint32_t result;
 426:Drivers/CMSIS/Include/cmsis_gcc.h **** 
 427:Drivers/CMSIS/Include/cmsis_gcc.h ****   __ASM volatile ("MRS %0, sp_ns" : "=r" (result) );
 428:Drivers/CMSIS/Include/cmsis_gcc.h ****   return(result);
 429:Drivers/CMSIS/Include/cmsis_gcc.h **** }
 430:Drivers/CMSIS/Include/cmsis_gcc.h **** 
 431:Drivers/CMSIS/Include/cmsis_gcc.h **** 
 432:Drivers/CMSIS/Include/cmsis_gcc.h **** /**
 433:Drivers/CMSIS/Include/cmsis_gcc.h ****   \brief   Set Stack Pointer (non-secure)
 434:Drivers/CMSIS/Include/cmsis_gcc.h ****   \details Assigns the given value to the non-secure Stack Pointer (SP) when in secure state.
 435:Drivers/CMSIS/Include/cmsis_gcc.h ****   \param [in]    topOfStack  Stack Pointer value to set
 436:Drivers/CMSIS/Include/cmsis_gcc.h ****  */
 437:Drivers/CMSIS/Include/cmsis_gcc.h **** __STATIC_FORCEINLINE void __TZ_set_SP_NS(uint32_t topOfStack)
 438:Drivers/CMSIS/Include/cmsis_gcc.h **** {
 439:Drivers/CMSIS/Include/cmsis_gcc.h ****   __ASM volatile ("MSR sp_ns, %0" : : "r" (topOfStack) : );
 440:Drivers/CMSIS/Include/cmsis_gcc.h **** }
 441:Drivers/CMSIS/Include/cmsis_gcc.h **** #endif
 442:Drivers/CMSIS/Include/cmsis_gcc.h **** 
 443:Drivers/CMSIS/Include/cmsis_gcc.h **** 
 444:Drivers/CMSIS/Include/cmsis_gcc.h **** /**
 445:Drivers/CMSIS/Include/cmsis_gcc.h ****   \brief   Get Priority Mask
 446:Drivers/CMSIS/Include/cmsis_gcc.h ****   \details Returns the current state of the priority mask bit from the Priority Mask Register.
 447:Drivers/CMSIS/Include/cmsis_gcc.h ****   \return               Priority Mask value
 448:Drivers/CMSIS/Include/cmsis_gcc.h ****  */
 449:Drivers/CMSIS/Include/cmsis_gcc.h **** __STATIC_FORCEINLINE uint32_t __get_PRIMASK(void)
  85              		.loc 3 449 31 view .LVU11
  86              	.LBB90:
 450:Drivers/CMSIS/Include/cmsis_gcc.h **** {
 451:Drivers/CMSIS/Include/cmsis_gcc.h ****   uint32_t result;
  87              		.loc 3 451 3 view .LVU12
 452:Drivers/CMSIS/Include/cmsis_gcc.h **** 
 453:Drivers/CMSIS/Include/cmsis_gcc.h ****   __ASM volatile ("MRS %0, primask" : "=r" (result) :: "memory");
  88              		.loc 3 453 3 view .LVU13
  89              		.syntax unified
  90              	@ 453 "Drivers/CMSIS/Include/cmsis_gcc.h" 1
  91 0000 EFF31083 		MRS r3, primask
  92              	@ 0 "" 2
  93              	.LVL4:
 454:Drivers/CMSIS/Include/cmsis_gcc.h ****   return(result);
  94              		.loc 3 454 3 view .LVU14
  95              		.loc 3 454 3 is_stmt 0 view .LVU15
  96              		.thumb
  97              		.syntax unified
  98              	.LBE90:
  99              	.LBE89:
  68:Inc/low_level.h ****     __disable_irq();
 100              		.loc 2 68 5 is_stmt 1 view .LVU16
 101              	.LBB91:
 102              	.LBI91:
 207:Drivers/CMSIS/Include/cmsis_gcc.h **** {
 103              		.loc 3 207 27 view .LVU17
 104              	.LBB92:
 209:Drivers/CMSIS/Include/cmsis_gcc.h **** }
 105              		.loc 3 209 3 view .LVU18
ARM GAS  /tmp/cc4nYBwt.s 			page 24


 106              		.syntax unified
 107              	@ 209 "Drivers/CMSIS/Include/cmsis_gcc.h" 1
 108 0004 72B6     		cpsid i
 109              	@ 0 "" 2
 110              		.thumb
 111              		.syntax unified
 112              	.LBE92:
 113              	.LBE91:
  69:Inc/low_level.h ****     return primask;
 114              		.loc 2 69 5 view .LVU19
 115              	.LVL5:
 116              		.loc 2 69 5 is_stmt 0 view .LVU20
 117              	.LBE88:
 118              	.LBE87:
 110:Src/low_level.cpp ****         motor.armed_state_ = Motor::ARMED_STATE_WAITING_FOR_TIMINGS;
 119              		.loc 1 110 5 is_stmt 1 view .LVU21
 120 0006 044A     		ldr	r2, .L6
 121 0008 1278     		ldrb	r2, [r2]	@ zero_extendqisi2
 122 000a 12B1     		cbz	r2, .L5
 111:Src/low_level.cpp ****     }
 123              		.loc 1 111 9 view .LVU22
 111:Src/low_level.cpp ****     }
 124              		.loc 1 111 28 is_stmt 0 view .LVU23
 125 000c 0122     		movs	r2, #1
 126 000e 80F83920 		strb	r2, [r0, #57]
 127              	.L5:
 113:Src/low_level.cpp **** }
 128              		.loc 1 113 5 is_stmt 1 view .LVU24
 129              	.LVL6:
 130              	.LBB93:
 131              	.LBI93:
  70:Inc/low_level.h **** }
  71:Inc/low_level.h **** 
  72:Inc/low_level.h **** inline void cpu_exit_critical(uint32_t priority_mask) {
 132              		.loc 2 72 13 view .LVU25
 133              	.LBE93:
  73:Inc/low_level.h ****     __set_PRIMASK(priority_mask);
 134              		.loc 2 73 5 view .LVU26
 135              	.LBB96:
 136              	.LBB94:
 137              	.LBI94:
 455:Drivers/CMSIS/Include/cmsis_gcc.h **** }
 456:Drivers/CMSIS/Include/cmsis_gcc.h **** 
 457:Drivers/CMSIS/Include/cmsis_gcc.h **** 
 458:Drivers/CMSIS/Include/cmsis_gcc.h **** #if (defined (__ARM_FEATURE_CMSE ) && (__ARM_FEATURE_CMSE == 3))
 459:Drivers/CMSIS/Include/cmsis_gcc.h **** /**
 460:Drivers/CMSIS/Include/cmsis_gcc.h ****   \brief   Get Priority Mask (non-secure)
 461:Drivers/CMSIS/Include/cmsis_gcc.h ****   \details Returns the current state of the non-secure priority mask bit from the Priority Mask Reg
 462:Drivers/CMSIS/Include/cmsis_gcc.h ****   \return               Priority Mask value
 463:Drivers/CMSIS/Include/cmsis_gcc.h ****  */
 464:Drivers/CMSIS/Include/cmsis_gcc.h **** __STATIC_FORCEINLINE uint32_t __TZ_get_PRIMASK_NS(void)
 465:Drivers/CMSIS/Include/cmsis_gcc.h **** {
 466:Drivers/CMSIS/Include/cmsis_gcc.h ****   uint32_t result;
 467:Drivers/CMSIS/Include/cmsis_gcc.h **** 
 468:Drivers/CMSIS/Include/cmsis_gcc.h ****   __ASM volatile ("MRS %0, primask_ns" : "=r" (result) :: "memory");
 469:Drivers/CMSIS/Include/cmsis_gcc.h ****   return(result);
 470:Drivers/CMSIS/Include/cmsis_gcc.h **** }
ARM GAS  /tmp/cc4nYBwt.s 			page 25


 471:Drivers/CMSIS/Include/cmsis_gcc.h **** #endif
 472:Drivers/CMSIS/Include/cmsis_gcc.h **** 
 473:Drivers/CMSIS/Include/cmsis_gcc.h **** 
 474:Drivers/CMSIS/Include/cmsis_gcc.h **** /**
 475:Drivers/CMSIS/Include/cmsis_gcc.h ****   \brief   Set Priority Mask
 476:Drivers/CMSIS/Include/cmsis_gcc.h ****   \details Assigns the given value to the Priority Mask Register.
 477:Drivers/CMSIS/Include/cmsis_gcc.h ****   \param [in]    priMask  Priority Mask
 478:Drivers/CMSIS/Include/cmsis_gcc.h ****  */
 479:Drivers/CMSIS/Include/cmsis_gcc.h **** __STATIC_FORCEINLINE void __set_PRIMASK(uint32_t priMask)
 138              		.loc 3 479 27 view .LVU27
 139              	.LBB95:
 480:Drivers/CMSIS/Include/cmsis_gcc.h **** {
 481:Drivers/CMSIS/Include/cmsis_gcc.h ****   __ASM volatile ("MSR primask, %0" : : "r" (priMask) : "memory");
 140              		.loc 3 481 3 view .LVU28
 141              		.syntax unified
 142              	@ 481 "Drivers/CMSIS/Include/cmsis_gcc.h" 1
 143 0012 83F31088 		MSR primask, r3
 144              	@ 0 "" 2
 145              	.LVL7:
 146              		.loc 3 481 3 is_stmt 0 view .LVU29
 147              		.thumb
 148              		.syntax unified
 149              	.LBE95:
 150              	.LBE94:
 151              	.LBE96:
 114:Src/low_level.cpp **** 
 152              		.loc 1 114 1 view .LVU30
 153 0016 7047     		bx	lr
 154              	.L7:
 155              		.align	2
 156              	.L6:
 157 0018 00000000 		.word	.LANCHOR0
 158              		.cfi_endproc
 159              	.LFE5763:
 161              		.section	.text.safety_critical_disarm_motor_pwm,"ax",%progbits
 162              		.align	1
 163              		.global	safety_critical_disarm_motor_pwm
 164              		.syntax unified
 165              		.thumb
 166              		.thumb_func
 167              		.fpu fpv4-sp-d16
 169              	safety_critical_disarm_motor_pwm:
 170              	.LVL8:
 171              	.LFB5764:
 121:Src/low_level.cpp ****     uint32_t mask = cpu_enter_critical();
 172              		.loc 1 121 53 is_stmt 1 view -0
 173              		.cfi_startproc
 174              		@ args = 0, pretend = 0, frame = 0
 175              		@ frame_needed = 0, uses_anonymous_args = 0
 176              		@ link register save eliminated.
 121:Src/low_level.cpp ****     uint32_t mask = cpu_enter_critical();
 177              		.loc 1 121 53 is_stmt 0 view .LVU32
 178 0000 0346     		mov	r3, r0
 122:Src/low_level.cpp ****     bool was_armed = motor.armed_state_ != Motor::ARMED_STATE_DISARMED;
 179              		.loc 1 122 5 is_stmt 1 view .LVU33
 180              	.LBB97:
 181              	.LBI97:
ARM GAS  /tmp/cc4nYBwt.s 			page 26


  66:Inc/low_level.h ****     uint32_t primask = __get_PRIMASK();
 182              		.loc 2 66 17 view .LVU34
 183              	.LBB98:
  67:Inc/low_level.h ****     __disable_irq();
 184              		.loc 2 67 5 view .LVU35
 185              	.LBB99:
 186              	.LBI99:
 449:Drivers/CMSIS/Include/cmsis_gcc.h **** {
 187              		.loc 3 449 31 view .LVU36
 188              	.LBB100:
 451:Drivers/CMSIS/Include/cmsis_gcc.h **** 
 189              		.loc 3 451 3 view .LVU37
 453:Drivers/CMSIS/Include/cmsis_gcc.h ****   return(result);
 190              		.loc 3 453 3 view .LVU38
 191              		.syntax unified
 192              	@ 453 "Drivers/CMSIS/Include/cmsis_gcc.h" 1
 193 0002 EFF31081 		MRS r1, primask
 194              	@ 0 "" 2
 195              	.LVL9:
 454:Drivers/CMSIS/Include/cmsis_gcc.h **** }
 196              		.loc 3 454 3 view .LVU39
 454:Drivers/CMSIS/Include/cmsis_gcc.h **** }
 197              		.loc 3 454 3 is_stmt 0 view .LVU40
 198              		.thumb
 199              		.syntax unified
 200              	.LBE100:
 201              	.LBE99:
  68:Inc/low_level.h ****     return primask;
 202              		.loc 2 68 5 is_stmt 1 view .LVU41
 203              	.LBB101:
 204              	.LBI101:
 207:Drivers/CMSIS/Include/cmsis_gcc.h **** {
 205              		.loc 3 207 27 view .LVU42
 206              	.LBB102:
 209:Drivers/CMSIS/Include/cmsis_gcc.h **** }
 207              		.loc 3 209 3 view .LVU43
 208              		.syntax unified
 209              	@ 209 "Drivers/CMSIS/Include/cmsis_gcc.h" 1
 210 0006 72B6     		cpsid i
 211              	@ 0 "" 2
 212              		.thumb
 213              		.syntax unified
 214              	.LBE102:
 215              	.LBE101:
  69:Inc/low_level.h **** }
 216              		.loc 2 69 5 view .LVU44
 217              	.LVL10:
  69:Inc/low_level.h **** }
 218              		.loc 2 69 5 is_stmt 0 view .LVU45
 219              	.LBE98:
 220              	.LBE97:
 123:Src/low_level.cpp ****     motor.armed_state_ = Motor::ARMED_STATE_DISARMED;
 221              		.loc 1 123 5 is_stmt 1 view .LVU46
 123:Src/low_level.cpp ****     motor.armed_state_ = Motor::ARMED_STATE_DISARMED;
 222              		.loc 1 123 10 is_stmt 0 view .LVU47
 223 0008 90F83900 		ldrb	r0, [r0, #57]	@ zero_extendqisi2
 224              	.LVL11:
ARM GAS  /tmp/cc4nYBwt.s 			page 27


 123:Src/low_level.cpp ****     motor.armed_state_ = Motor::ARMED_STATE_DISARMED;
 225              		.loc 1 123 10 view .LVU48
 226 000c 0038     		subs	r0, r0, #0
 227 000e 18BF     		it	ne
 228 0010 0120     		movne	r0, #1
 229              	.LVL12:
 124:Src/low_level.cpp ****     __HAL_TIM_MOE_DISABLE_UNCONDITIONALLY(motor.hw_config_.timer); //进入刹车模式 2024-10-11
 230              		.loc 1 124 5 is_stmt 1 view .LVU49
 124:Src/low_level.cpp ****     __HAL_TIM_MOE_DISABLE_UNCONDITIONALLY(motor.hw_config_.timer); //进入刹车模式 2024-10-11
 231              		.loc 1 124 24 is_stmt 0 view .LVU50
 232 0012 0022     		movs	r2, #0
 233 0014 83F83920 		strb	r2, [r3, #57]
 125:Src/low_level.cpp ****     cpu_exit_critical(mask);
 234              		.loc 1 125 5 is_stmt 1 view .LVU51
 235 0018 1B68     		ldr	r3, [r3]
 236              	.LVL13:
 125:Src/low_level.cpp ****     cpu_exit_critical(mask);
 237              		.loc 1 125 5 is_stmt 0 view .LVU52
 238 001a 1B68     		ldr	r3, [r3]
 239 001c 1A68     		ldr	r2, [r3]
 240 001e 536C     		ldr	r3, [r2, #68]
 241 0020 23F40043 		bic	r3, r3, #32768
 242 0024 5364     		str	r3, [r2, #68]
 126:Src/low_level.cpp ****     return was_armed;
 243              		.loc 1 126 5 is_stmt 1 view .LVU53
 244              	.LVL14:
 245              	.LBB103:
 246              	.LBI103:
  72:Inc/low_level.h ****     __set_PRIMASK(priority_mask);
 247              		.loc 2 72 13 view .LVU54
 248              	.LBE103:
 249              		.loc 2 73 5 view .LVU55
 250              	.LBB106:
 251              	.LBB104:
 252              	.LBI104:
 479:Drivers/CMSIS/Include/cmsis_gcc.h **** {
 253              		.loc 3 479 27 view .LVU56
 254              	.LBB105:
 255              		.loc 3 481 3 view .LVU57
 256              		.syntax unified
 257              	@ 481 "Drivers/CMSIS/Include/cmsis_gcc.h" 1
 258 0026 81F31088 		MSR primask, r1
 259              	@ 0 "" 2
 260              	.LVL15:
 261              		.loc 3 481 3 is_stmt 0 view .LVU58
 262              		.thumb
 263              		.syntax unified
 264              	.LBE105:
 265              	.LBE104:
 266              	.LBE106:
 127:Src/low_level.cpp **** }
 267              		.loc 1 127 5 is_stmt 1 view .LVU59
 128:Src/low_level.cpp **** 
 268              		.loc 1 128 1 is_stmt 0 view .LVU60
 269 002a 7047     		bx	lr
 270              		.cfi_endproc
 271              	.LFE5764:
ARM GAS  /tmp/cc4nYBwt.s 			page 28


 273              		.section	.text.safety_critical_apply_motor_pwm_timings,"ax",%progbits
 274              		.align	1
 275              		.global	safety_critical_apply_motor_pwm_timings
 276              		.syntax unified
 277              		.thumb
 278              		.thumb_func
 279              		.fpu fpv4-sp-d16
 281              	safety_critical_apply_motor_pwm_timings:
 282              	.LVL16:
 283              	.LFB5765:
 135:Src/low_level.cpp ****     uint32_t mask = cpu_enter_critical();
 284              		.loc 1 135 81 is_stmt 1 view -0
 285              		.cfi_startproc
 286              		@ args = 0, pretend = 0, frame = 0
 287              		@ frame_needed = 0, uses_anonymous_args = 0
 135:Src/low_level.cpp ****     uint32_t mask = cpu_enter_critical();
 288              		.loc 1 135 81 is_stmt 0 view .LVU62
 289 0000 10B5     		push	{r4, lr}
 290              	.LCFI1:
 291              		.cfi_def_cfa_offset 8
 292              		.cfi_offset 4, -8
 293              		.cfi_offset 14, -4
 136:Src/low_level.cpp ****     if (!brake_resistor_armed) {
 294              		.loc 1 136 5 is_stmt 1 view .LVU63
 295              	.LBB107:
 296              	.LBI107:
  66:Inc/low_level.h ****     uint32_t primask = __get_PRIMASK();
 297              		.loc 2 66 17 view .LVU64
 298              	.LBB108:
  67:Inc/low_level.h ****     __disable_irq();
 299              		.loc 2 67 5 view .LVU65
 300              	.LBB109:
 301              	.LBI109:
 449:Drivers/CMSIS/Include/cmsis_gcc.h **** {
 302              		.loc 3 449 31 view .LVU66
 303              	.LBB110:
 451:Drivers/CMSIS/Include/cmsis_gcc.h **** 
 304              		.loc 3 451 3 view .LVU67
 453:Drivers/CMSIS/Include/cmsis_gcc.h ****   return(result);
 305              		.loc 3 453 3 view .LVU68
 306              		.syntax unified
 307              	@ 453 "Drivers/CMSIS/Include/cmsis_gcc.h" 1
 308 0002 EFF31084 		MRS r4, primask
 309              	@ 0 "" 2
 310              	.LVL17:
 454:Drivers/CMSIS/Include/cmsis_gcc.h **** }
 311              		.loc 3 454 3 view .LVU69
 454:Drivers/CMSIS/Include/cmsis_gcc.h **** }
 312              		.loc 3 454 3 is_stmt 0 view .LVU70
 313              		.thumb
 314              		.syntax unified
 315              	.LBE110:
 316              	.LBE109:
  68:Inc/low_level.h ****     return primask;
 317              		.loc 2 68 5 is_stmt 1 view .LVU71
 318              	.LBB111:
 319              	.LBI111:
ARM GAS  /tmp/cc4nYBwt.s 			page 29


 207:Drivers/CMSIS/Include/cmsis_gcc.h **** {
 320              		.loc 3 207 27 view .LVU72
 321              	.LBB112:
 209:Drivers/CMSIS/Include/cmsis_gcc.h **** }
 322              		.loc 3 209 3 view .LVU73
 323              		.syntax unified
 324              	@ 209 "Drivers/CMSIS/Include/cmsis_gcc.h" 1
 325 0006 72B6     		cpsid i
 326              	@ 0 "" 2
 327              		.thumb
 328              		.syntax unified
 329              	.LBE112:
 330              	.LBE111:
  69:Inc/low_level.h **** }
 331              		.loc 2 69 5 view .LVU74
 332              	.LVL18:
  69:Inc/low_level.h **** }
 333              		.loc 2 69 5 is_stmt 0 view .LVU75
 334              	.LBE108:
 335              	.LBE107:
 137:Src/low_level.cpp ****         motor.armed_state_ = Motor::ARMED_STATE_DISARMED;
 336              		.loc 1 137 5 is_stmt 1 view .LVU76
 137:Src/low_level.cpp ****         motor.armed_state_ = Motor::ARMED_STATE_DISARMED;
 337              		.loc 1 137 9 is_stmt 0 view .LVU77
 338 0008 174B     		ldr	r3, .L17
 137:Src/low_level.cpp ****         motor.armed_state_ = Motor::ARMED_STATE_DISARMED;
 339              		.loc 1 137 5 view .LVU78
 340 000a 1B78     		ldrb	r3, [r3]	@ zero_extendqisi2
 341 000c 0BB9     		cbnz	r3, .L10
 138:Src/low_level.cpp ****     }
 342              		.loc 1 138 9 is_stmt 1 view .LVU79
 138:Src/low_level.cpp ****     }
 343              		.loc 1 138 28 is_stmt 0 view .LVU80
 344 000e 80F83930 		strb	r3, [r0, #57]
 345              	.L10:
 141:Src/low_level.cpp ****     motor.hw_config_.timer->Instance->CCR2 = timings[1];
 346              		.loc 1 141 5 is_stmt 1 view .LVU81
 141:Src/low_level.cpp ****     motor.hw_config_.timer->Instance->CCR2 = timings[1];
 347              		.loc 1 141 22 is_stmt 0 view .LVU82
 348 0012 0368     		ldr	r3, [r0]
 141:Src/low_level.cpp ****     motor.hw_config_.timer->Instance->CCR2 = timings[1];
 349              		.loc 1 141 29 view .LVU83
 350 0014 1B68     		ldr	r3, [r3]
 351 0016 1B68     		ldr	r3, [r3]
 141:Src/low_level.cpp ****     motor.hw_config_.timer->Instance->CCR2 = timings[1];
 352              		.loc 1 141 55 view .LVU84
 353 0018 0A88     		ldrh	r2, [r1]
 141:Src/low_level.cpp ****     motor.hw_config_.timer->Instance->CCR2 = timings[1];
 354              		.loc 1 141 44 view .LVU85
 355 001a 5A63     		str	r2, [r3, #52]
 142:Src/low_level.cpp ****     motor.hw_config_.timer->Instance->CCR3 = timings[2];
 356              		.loc 1 142 5 is_stmt 1 view .LVU86
 142:Src/low_level.cpp ****     motor.hw_config_.timer->Instance->CCR3 = timings[2];
 357              		.loc 1 142 22 is_stmt 0 view .LVU87
 358 001c 0368     		ldr	r3, [r0]
 142:Src/low_level.cpp ****     motor.hw_config_.timer->Instance->CCR3 = timings[2];
 359              		.loc 1 142 29 view .LVU88
ARM GAS  /tmp/cc4nYBwt.s 			page 30


 360 001e 1B68     		ldr	r3, [r3]
 361 0020 1B68     		ldr	r3, [r3]
 142:Src/low_level.cpp ****     motor.hw_config_.timer->Instance->CCR3 = timings[2];
 362              		.loc 1 142 55 view .LVU89
 363 0022 4A88     		ldrh	r2, [r1, #2]
 142:Src/low_level.cpp ****     motor.hw_config_.timer->Instance->CCR3 = timings[2];
 364              		.loc 1 142 44 view .LVU90
 365 0024 9A63     		str	r2, [r3, #56]
 143:Src/low_level.cpp **** 
 366              		.loc 1 143 5 is_stmt 1 view .LVU91
 143:Src/low_level.cpp **** 
 367              		.loc 1 143 22 is_stmt 0 view .LVU92
 368 0026 0368     		ldr	r3, [r0]
 143:Src/low_level.cpp **** 
 369              		.loc 1 143 29 view .LVU93
 370 0028 1B68     		ldr	r3, [r3]
 371 002a 1B68     		ldr	r3, [r3]
 143:Src/low_level.cpp **** 
 372              		.loc 1 143 55 view .LVU94
 373 002c 8A88     		ldrh	r2, [r1, #4]
 143:Src/low_level.cpp **** 
 374              		.loc 1 143 44 view .LVU95
 375 002e DA63     		str	r2, [r3, #60]
 145:Src/low_level.cpp ****         // timings were just loaded into the timer registers
 376              		.loc 1 145 5 is_stmt 1 view .LVU96
 145:Src/low_level.cpp ****         // timings were just loaded into the timer registers
 377              		.loc 1 145 15 is_stmt 0 view .LVU97
 378 0030 90F83930 		ldrb	r3, [r0, #57]	@ zero_extendqisi2
 145:Src/low_level.cpp ****         // timings were just loaded into the timer registers
 379              		.loc 1 145 5 view .LVU98
 380 0034 012B     		cmp	r3, #1
 381 0036 06D0     		beq	.L15
 151:Src/low_level.cpp ****         // now we waited long enough. Enter armed state and
 382              		.loc 1 151 12 is_stmt 1 view .LVU99
 383 0038 022B     		cmp	r3, #2
 384 003a 0AD0     		beq	.L16
 156:Src/low_level.cpp ****         // nothing to do, PWM is running, all good
 385              		.loc 1 156 12 view .LVU100
 386 003c 032B     		cmp	r3, #3
 387 003e 05D0     		beq	.L12
 160:Src/low_level.cpp ****     }
 388              		.loc 1 160 9 view .LVU101
 160:Src/low_level.cpp ****     }
 389              		.loc 1 160 41 is_stmt 0 view .LVU102
 390 0040 FFF7FEFF 		bl	safety_critical_disarm_motor_pwm
 391              	.LVL19:
 160:Src/low_level.cpp ****     }
 392              		.loc 1 160 41 view .LVU103
 393 0044 02E0     		b	.L12
 394              	.LVL20:
 395              	.L15:
 150:Src/low_level.cpp ****     } else if (motor.armed_state_ == Motor::ARMED_STATE_WAITING_FOR_UPDATE) {
 396              		.loc 1 150 9 is_stmt 1 view .LVU104
 150:Src/low_level.cpp ****     } else if (motor.armed_state_ == Motor::ARMED_STATE_WAITING_FOR_UPDATE) {
 397              		.loc 1 150 28 is_stmt 0 view .LVU105
 398 0046 0223     		movs	r3, #2
 399 0048 80F83930 		strb	r3, [r0, #57]
ARM GAS  /tmp/cc4nYBwt.s 			page 31


 400              	.LVL21:
 401              	.L12:
 162:Src/low_level.cpp **** }
 402              		.loc 1 162 5 is_stmt 1 view .LVU106
 403              	.LBB113:
 404              	.LBI113:
  72:Inc/low_level.h ****     __set_PRIMASK(priority_mask);
 405              		.loc 2 72 13 view .LVU107
 406              	.LBE113:
 407              		.loc 2 73 5 view .LVU108
 408              	.LBB116:
 409              	.LBB114:
 410              	.LBI114:
 479:Drivers/CMSIS/Include/cmsis_gcc.h **** {
 411              		.loc 3 479 27 view .LVU109
 412              	.LBB115:
 413              		.loc 3 481 3 view .LVU110
 414              		.syntax unified
 415              	@ 481 "Drivers/CMSIS/Include/cmsis_gcc.h" 1
 416 004c 84F31088 		MSR primask, r4
 417              	@ 0 "" 2
 418              	.LVL22:
 419              		.loc 3 481 3 is_stmt 0 view .LVU111
 420              		.thumb
 421              		.syntax unified
 422              	.LBE115:
 423              	.LBE114:
 424              	.LBE116:
 163:Src/low_level.cpp **** 
 425              		.loc 1 163 1 view .LVU112
 426 0050 10BD     		pop	{r4, pc}
 427              	.LVL23:
 428              	.L16:
 154:Src/low_level.cpp ****         __HAL_TIM_MOE_ENABLE(motor.hw_config_.timer);  // enable pwm outputs
 429              		.loc 1 154 9 is_stmt 1 view .LVU113
 154:Src/low_level.cpp ****         __HAL_TIM_MOE_ENABLE(motor.hw_config_.timer);  // enable pwm outputs
 430              		.loc 1 154 28 is_stmt 0 view .LVU114
 431 0052 0323     		movs	r3, #3
 432 0054 80F83930 		strb	r3, [r0, #57]
 155:Src/low_level.cpp ****     } else if (motor.armed_state_ == Motor::ARMED_STATE_ARMED) {
 433              		.loc 1 155 9 is_stmt 1 view .LVU115
 434 0058 0368     		ldr	r3, [r0]
 435 005a 1B68     		ldr	r3, [r3]
 436 005c 1A68     		ldr	r2, [r3]
 437 005e 536C     		ldr	r3, [r2, #68]
 438 0060 43F40043 		orr	r3, r3, #32768
 439 0064 5364     		str	r3, [r2, #68]
 440 0066 F1E7     		b	.L12
 441              	.L18:
 442              		.align	2
 443              	.L17:
 444 0068 00000000 		.word	.LANCHOR0
 445              		.cfi_endproc
 446              	.LFE5765:
 448              		.section	.text.safety_critical_arm_brake_resistor,"ax",%progbits
 449              		.align	1
 450              		.global	safety_critical_arm_brake_resistor
ARM GAS  /tmp/cc4nYBwt.s 			page 32


 451              		.syntax unified
 452              		.thumb
 453              		.thumb_func
 454              		.fpu fpv4-sp-d16
 456              	safety_critical_arm_brake_resistor:
 457              	.LFB5766:
 166:Src/low_level.cpp ****     uint32_t mask = cpu_enter_critical();
 458              		.loc 1 166 43 view -0
 459              		.cfi_startproc
 460              		@ args = 0, pretend = 0, frame = 0
 461              		@ frame_needed = 0, uses_anonymous_args = 0
 462              		@ link register save eliminated.
 167:Src/low_level.cpp ****     brake_resistor_armed = true;
 463              		.loc 1 167 5 view .LVU117
 464              	.LBB117:
 465              	.LBI117:
  66:Inc/low_level.h ****     uint32_t primask = __get_PRIMASK();
 466              		.loc 2 66 17 view .LVU118
 467              	.LBB118:
  67:Inc/low_level.h ****     __disable_irq();
 468              		.loc 2 67 5 view .LVU119
 469              	.LBB119:
 470              	.LBI119:
 449:Drivers/CMSIS/Include/cmsis_gcc.h **** {
 471              		.loc 3 449 31 view .LVU120
 472              	.LBB120:
 451:Drivers/CMSIS/Include/cmsis_gcc.h **** 
 473              		.loc 3 451 3 view .LVU121
 453:Drivers/CMSIS/Include/cmsis_gcc.h ****   return(result);
 474              		.loc 3 453 3 view .LVU122
 475              		.syntax unified
 476              	@ 453 "Drivers/CMSIS/Include/cmsis_gcc.h" 1
 477 0000 EFF31082 		MRS r2, primask
 478              	@ 0 "" 2
 479              	.LVL24:
 454:Drivers/CMSIS/Include/cmsis_gcc.h **** }
 480              		.loc 3 454 3 view .LVU123
 454:Drivers/CMSIS/Include/cmsis_gcc.h **** }
 481              		.loc 3 454 3 is_stmt 0 view .LVU124
 482              		.thumb
 483              		.syntax unified
 484              	.LBE120:
 485              	.LBE119:
  68:Inc/low_level.h ****     return primask;
 486              		.loc 2 68 5 is_stmt 1 view .LVU125
 487              	.LBB121:
 488              	.LBI121:
 207:Drivers/CMSIS/Include/cmsis_gcc.h **** {
 489              		.loc 3 207 27 view .LVU126
 490              	.LBB122:
 209:Drivers/CMSIS/Include/cmsis_gcc.h **** }
 491              		.loc 3 209 3 view .LVU127
 492              		.syntax unified
 493              	@ 209 "Drivers/CMSIS/Include/cmsis_gcc.h" 1
 494 0004 72B6     		cpsid i
 495              	@ 0 "" 2
 496              		.thumb
ARM GAS  /tmp/cc4nYBwt.s 			page 33


 497              		.syntax unified
 498              	.LBE122:
 499              	.LBE121:
  69:Inc/low_level.h **** }
 500              		.loc 2 69 5 view .LVU128
 501              	.LVL25:
  69:Inc/low_level.h **** }
 502              		.loc 2 69 5 is_stmt 0 view .LVU129
 503              	.LBE118:
 504              	.LBE117:
 168:Src/low_level.cpp ****     htim2.Instance->CCR3 = 0;
 505              		.loc 1 168 5 is_stmt 1 view .LVU130
 168:Src/low_level.cpp ****     htim2.Instance->CCR3 = 0;
 506              		.loc 1 168 26 is_stmt 0 view .LVU131
 507 0006 064B     		ldr	r3, .L20
 508 0008 0121     		movs	r1, #1
 509 000a 1970     		strb	r1, [r3]
 169:Src/low_level.cpp ****     htim2.Instance->CCR4 = TIM_APB1_PERIOD_CLOCKS + 1;
 510              		.loc 1 169 5 is_stmt 1 view .LVU132
 169:Src/low_level.cpp ****     htim2.Instance->CCR4 = TIM_APB1_PERIOD_CLOCKS + 1;
 511              		.loc 1 169 11 is_stmt 0 view .LVU133
 512 000c 054B     		ldr	r3, .L20+4
 513 000e 1B68     		ldr	r3, [r3]
 169:Src/low_level.cpp ****     htim2.Instance->CCR4 = TIM_APB1_PERIOD_CLOCKS + 1;
 514              		.loc 1 169 26 view .LVU134
 515 0010 0021     		movs	r1, #0
 516 0012 D963     		str	r1, [r3, #60]
 170:Src/low_level.cpp ****     cpu_exit_critical(mask);
 517              		.loc 1 170 5 is_stmt 1 view .LVU135
 170:Src/low_level.cpp ****     cpu_exit_critical(mask);
 518              		.loc 1 170 26 is_stmt 0 view .LVU136
 519 0014 41F20101 		movw	r1, #4097
 520 0018 1964     		str	r1, [r3, #64]
 171:Src/low_level.cpp **** }
 521              		.loc 1 171 5 is_stmt 1 view .LVU137
 522              	.LVL26:
 523              	.LBB123:
 524              	.LBI123:
  72:Inc/low_level.h ****     __set_PRIMASK(priority_mask);
 525              		.loc 2 72 13 view .LVU138
 526              	.LBE123:
 527              		.loc 2 73 5 view .LVU139
 528              	.LBB126:
 529              	.LBB124:
 530              	.LBI124:
 479:Drivers/CMSIS/Include/cmsis_gcc.h **** {
 531              		.loc 3 479 27 view .LVU140
 532              	.LBB125:
 533              		.loc 3 481 3 view .LVU141
 534              		.syntax unified
 535              	@ 481 "Drivers/CMSIS/Include/cmsis_gcc.h" 1
 536 001a 82F31088 		MSR primask, r2
 537              	@ 0 "" 2
 538              	.LVL27:
 539              		.loc 3 481 3 is_stmt 0 view .LVU142
 540              		.thumb
 541              		.syntax unified
ARM GAS  /tmp/cc4nYBwt.s 			page 34


 542              	.LBE125:
 543              	.LBE124:
 544              	.LBE126:
 172:Src/low_level.cpp **** 
 545              		.loc 1 172 1 view .LVU143
 546 001e 7047     		bx	lr
 547              	.L21:
 548              		.align	2
 549              	.L20:
 550 0020 00000000 		.word	.LANCHOR0
 551 0024 00000000 		.word	htim2
 552              		.cfi_endproc
 553              	.LFE5766:
 555              		.section	.text.safety_critical_disarm_brake_resistor,"ax",%progbits
 556              		.align	1
 557              		.global	safety_critical_disarm_brake_resistor
 558              		.syntax unified
 559              		.thumb
 560              		.thumb_func
 561              		.fpu fpv4-sp-d16
 563              	safety_critical_disarm_brake_resistor:
 564              	.LFB5767:
 178:Src/low_level.cpp ****     uint32_t mask = cpu_enter_critical();
 565              		.loc 1 178 46 is_stmt 1 view -0
 566              		.cfi_startproc
 567              		@ args = 0, pretend = 0, frame = 0
 568              		@ frame_needed = 0, uses_anonymous_args = 0
 569 0000 10B5     		push	{r4, lr}
 570              	.LCFI2:
 571              		.cfi_def_cfa_offset 8
 572              		.cfi_offset 4, -8
 573              		.cfi_offset 14, -4
 179:Src/low_level.cpp ****     brake_resistor_armed = false;
 574              		.loc 1 179 5 view .LVU145
 575              	.LBB127:
 576              	.LBI127:
  66:Inc/low_level.h ****     uint32_t primask = __get_PRIMASK();
 577              		.loc 2 66 17 view .LVU146
 578              	.LBB128:
  67:Inc/low_level.h ****     __disable_irq();
 579              		.loc 2 67 5 view .LVU147
 580              	.LBB129:
 581              	.LBI129:
 449:Drivers/CMSIS/Include/cmsis_gcc.h **** {
 582              		.loc 3 449 31 view .LVU148
 583              	.LBB130:
 451:Drivers/CMSIS/Include/cmsis_gcc.h **** 
 584              		.loc 3 451 3 view .LVU149
 453:Drivers/CMSIS/Include/cmsis_gcc.h ****   return(result);
 585              		.loc 3 453 3 view .LVU150
 586              		.syntax unified
 587              	@ 453 "Drivers/CMSIS/Include/cmsis_gcc.h" 1
 588 0002 EFF31084 		MRS r4, primask
 589              	@ 0 "" 2
 590              	.LVL28:
 454:Drivers/CMSIS/Include/cmsis_gcc.h **** }
 591              		.loc 3 454 3 view .LVU151
ARM GAS  /tmp/cc4nYBwt.s 			page 35


 454:Drivers/CMSIS/Include/cmsis_gcc.h **** }
 592              		.loc 3 454 3 is_stmt 0 view .LVU152
 593              		.thumb
 594              		.syntax unified
 595              	.LBE130:
 596              	.LBE129:
  68:Inc/low_level.h ****     return primask;
 597              		.loc 2 68 5 is_stmt 1 view .LVU153
 598              	.LBB131:
 599              	.LBI131:
 207:Drivers/CMSIS/Include/cmsis_gcc.h **** {
 600              		.loc 3 207 27 view .LVU154
 601              	.LBB132:
 209:Drivers/CMSIS/Include/cmsis_gcc.h **** }
 602              		.loc 3 209 3 view .LVU155
 603              		.syntax unified
 604              	@ 209 "Drivers/CMSIS/Include/cmsis_gcc.h" 1
 605 0006 72B6     		cpsid i
 606              	@ 0 "" 2
 607              		.thumb
 608              		.syntax unified
 609              	.LBE132:
 610              	.LBE131:
  69:Inc/low_level.h **** }
 611              		.loc 2 69 5 view .LVU156
 612              	.LVL29:
  69:Inc/low_level.h **** }
 613              		.loc 2 69 5 is_stmt 0 view .LVU157
 614              	.LBE128:
 615              	.LBE127:
 180:Src/low_level.cpp ****     htim2.Instance->CCR3 = 0;
 616              		.loc 1 180 5 is_stmt 1 view .LVU158
 180:Src/low_level.cpp ****     htim2.Instance->CCR3 = 0;
 617              		.loc 1 180 26 is_stmt 0 view .LVU159
 618 0008 0022     		movs	r2, #0
 619 000a 084B     		ldr	r3, .L24
 620 000c 1A70     		strb	r2, [r3]
 181:Src/low_level.cpp ****     htim2.Instance->CCR4 = TIM_APB1_PERIOD_CLOCKS + 1;
 621              		.loc 1 181 5 is_stmt 1 view .LVU160
 181:Src/low_level.cpp ****     htim2.Instance->CCR4 = TIM_APB1_PERIOD_CLOCKS + 1;
 622              		.loc 1 181 11 is_stmt 0 view .LVU161
 623 000e 084B     		ldr	r3, .L24+4
 624 0010 1B68     		ldr	r3, [r3]
 181:Src/low_level.cpp ****     htim2.Instance->CCR4 = TIM_APB1_PERIOD_CLOCKS + 1;
 625              		.loc 1 181 26 view .LVU162
 626 0012 DA63     		str	r2, [r3, #60]
 182:Src/low_level.cpp ****     for (size_t i = 0; i < AXIS_COUNT; ++i) {
 627              		.loc 1 182 5 is_stmt 1 view .LVU163
 182:Src/low_level.cpp ****     for (size_t i = 0; i < AXIS_COUNT; ++i) {
 628              		.loc 1 182 26 is_stmt 0 view .LVU164
 629 0014 41F20102 		movw	r2, #4097
 630 0018 1A64     		str	r2, [r3, #64]
 183:Src/low_level.cpp ****         safety_critical_disarm_motor_pwm(axes->motor_);
 631              		.loc 1 183 5 is_stmt 1 view .LVU165
 632              	.LVL30:
 633              	.LBB133:
 183:Src/low_level.cpp ****         safety_critical_disarm_motor_pwm(axes->motor_);
ARM GAS  /tmp/cc4nYBwt.s 			page 36


 634              		.loc 1 183 26 view .LVU166
 184:Src/low_level.cpp ****     }
 635              		.loc 1 184 9 view .LVU167
 184:Src/low_level.cpp ****     }
 636              		.loc 1 184 41 is_stmt 0 view .LVU168
 637 001a 064B     		ldr	r3, .L24+8
 638 001c 1B68     		ldr	r3, [r3]
 639 001e D86E     		ldr	r0, [r3, #108]
 640 0020 FFF7FEFF 		bl	safety_critical_disarm_motor_pwm
 641              	.LVL31:
 183:Src/low_level.cpp ****         safety_critical_disarm_motor_pwm(axes->motor_);
 642              		.loc 1 183 5 is_stmt 1 view .LVU169
 183:Src/low_level.cpp ****         safety_critical_disarm_motor_pwm(axes->motor_);
 643              		.loc 1 183 26 view .LVU170
 183:Src/low_level.cpp ****         safety_critical_disarm_motor_pwm(axes->motor_);
 644              		.loc 1 183 26 is_stmt 0 view .LVU171
 645              	.LBE133:
 186:Src/low_level.cpp **** }
 646              		.loc 1 186 5 is_stmt 1 view .LVU172
 647              	.LBB134:
 648              	.LBI134:
  72:Inc/low_level.h ****     __set_PRIMASK(priority_mask);
 649              		.loc 2 72 13 view .LVU173
 650              	.LBE134:
 651              		.loc 2 73 5 view .LVU174
 652              	.LBB137:
 653              	.LBB135:
 654              	.LBI135:
 479:Drivers/CMSIS/Include/cmsis_gcc.h **** {
 655              		.loc 3 479 27 view .LVU175
 656              	.LBB136:
 657              		.loc 3 481 3 view .LVU176
 658              		.syntax unified
 659              	@ 481 "Drivers/CMSIS/Include/cmsis_gcc.h" 1
 660 0024 84F31088 		MSR primask, r4
 661              	@ 0 "" 2
 662              	.LVL32:
 663              		.loc 3 481 3 is_stmt 0 view .LVU177
 664              		.thumb
 665              		.syntax unified
 666              	.LBE136:
 667              	.LBE135:
 668              	.LBE137:
 187:Src/low_level.cpp **** 
 669              		.loc 1 187 1 view .LVU178
 670 0028 10BD     		pop	{r4, pc}
 671              	.LVL33:
 672              	.L25:
 187:Src/low_level.cpp **** 
 673              		.loc 1 187 1 view .LVU179
 674 002a 00BF     		.align	2
 675              	.L24:
 676 002c 00000000 		.word	.LANCHOR0
 677 0030 00000000 		.word	htim2
 678 0034 00000000 		.word	axes
 679              		.cfi_endproc
 680              	.LFE5767:
ARM GAS  /tmp/cc4nYBwt.s 			page 37


 682              		.section	.text._Z15low_level_faultN10ODriveIntf9MotorIntf5ErrorE,"ax",%progbits
 683              		.align	1
 684              		.global	_Z15low_level_faultN10ODriveIntf9MotorIntf5ErrorE
 685              		.syntax unified
 686              		.thumb
 687              		.thumb_func
 688              		.fpu fpv4-sp-d16
 690              	_Z15low_level_faultN10ODriveIntf9MotorIntf5ErrorE:
 691              	.LVL34:
 692              	.LFB5762:
  96:Src/low_level.cpp ****     // Disable all motors NOW!
 693              		.loc 1 96 42 is_stmt 1 view -0
 694              		.cfi_startproc
 695              		@ args = 0, pretend = 0, frame = 0
 696              		@ frame_needed = 0, uses_anonymous_args = 0
  96:Src/low_level.cpp ****     // Disable all motors NOW!
 697              		.loc 1 96 42 is_stmt 0 view .LVU181
 698 0000 38B5     		push	{r3, r4, r5, lr}
 699              	.LCFI3:
 700              		.cfi_def_cfa_offset 16
 701              		.cfi_offset 3, -16
 702              		.cfi_offset 4, -12
 703              		.cfi_offset 5, -8
 704              		.cfi_offset 14, -4
 705 0002 0446     		mov	r4, r0
  99:Src/low_level.cpp ****     axes->motor_.error_ = error;
 706              		.loc 1 99 5 is_stmt 1 view .LVU182
  99:Src/low_level.cpp ****     axes->motor_.error_ = error;
 707              		.loc 1 99 37 is_stmt 0 view .LVU183
 708 0004 054D     		ldr	r5, .L28
 709 0006 2B68     		ldr	r3, [r5]
 710 0008 D86E     		ldr	r0, [r3, #108]
 711              	.LVL35:
  99:Src/low_level.cpp ****     axes->motor_.error_ = error;
 712              		.loc 1 99 37 view .LVU184
 713 000a FFF7FEFF 		bl	safety_critical_disarm_motor_pwm
 714              	.LVL36:
 100:Src/low_level.cpp **** 
 715              		.loc 1 100 5 is_stmt 1 view .LVU185
 100:Src/low_level.cpp **** 
 716              		.loc 1 100 11 is_stmt 0 view .LVU186
 717 000e 2B68     		ldr	r3, [r5]
 718 0010 DB6E     		ldr	r3, [r3, #108]
 100:Src/low_level.cpp **** 
 719              		.loc 1 100 25 view .LVU187
 720 0012 5C63     		str	r4, [r3, #52]
 102:Src/low_level.cpp **** }
 721              		.loc 1 102 5 is_stmt 1 view .LVU188
 102:Src/low_level.cpp **** }
 722              		.loc 1 102 42 is_stmt 0 view .LVU189
 723 0014 FFF7FEFF 		bl	safety_critical_disarm_brake_resistor
 724              	.LVL37:
 103:Src/low_level.cpp **** 
 725              		.loc 1 103 1 view .LVU190
 726 0018 38BD     		pop	{r3, r4, r5, pc}
 727              	.LVL38:
 728              	.L29:
ARM GAS  /tmp/cc4nYBwt.s 			page 38


 103:Src/low_level.cpp **** 
 729              		.loc 1 103 1 view .LVU191
 730 001a 00BF     		.align	2
 731              	.L28:
 732 001c 00000000 		.word	axes
 733              		.cfi_endproc
 734              	.LFE5762:
 736              		.section	.text.safety_critical_apply_brake_resistor_timings,"ax",%progbits
 737              		.align	1
 738              		.global	safety_critical_apply_brake_resistor_timings
 739              		.syntax unified
 740              		.thumb
 741              		.thumb_func
 742              		.fpu fpv4-sp-d16
 744              	safety_critical_apply_brake_resistor_timings:
 745              	.LVL39:
 746              	.LFB5768:
 191:Src/low_level.cpp ****     if (high_on - low_off < TIM_APB1_DEADTIME_CLOCKS)
 747              		.loc 1 191 87 is_stmt 1 view -0
 748              		.cfi_startproc
 749              		@ args = 0, pretend = 0, frame = 0
 750              		@ frame_needed = 0, uses_anonymous_args = 0
 191:Src/low_level.cpp ****     if (high_on - low_off < TIM_APB1_DEADTIME_CLOCKS)
 751              		.loc 1 191 87 is_stmt 0 view .LVU193
 752 0000 38B5     		push	{r3, r4, r5, lr}
 753              	.LCFI4:
 754              		.cfi_def_cfa_offset 16
 755              		.cfi_offset 3, -16
 756              		.cfi_offset 4, -12
 757              		.cfi_offset 5, -8
 758              		.cfi_offset 14, -4
 759 0002 0546     		mov	r5, r0
 760 0004 0C46     		mov	r4, r1
 192:Src/low_level.cpp ****         low_level_fault(Motor::ERROR_BRAKE_DEADTIME_VIOLATION);
 761              		.loc 1 192 5 is_stmt 1 view .LVU194
 192:Src/low_level.cpp ****         low_level_fault(Motor::ERROR_BRAKE_DEADTIME_VIOLATION);
 762              		.loc 1 192 17 is_stmt 0 view .LVU195
 763 0006 0B1A     		subs	r3, r1, r0
 192:Src/low_level.cpp ****         low_level_fault(Motor::ERROR_BRAKE_DEADTIME_VIOLATION);
 764              		.loc 1 192 5 view .LVU196
 765 0008 272B     		cmp	r3, #39
 766 000a 11D9     		bls	.L34
 767              	.LVL40:
 768              	.L31:
 194:Src/low_level.cpp ****     if (brake_resistor_armed) {
 769              		.loc 1 194 5 is_stmt 1 view .LVU197
 770              	.LBB138:
 771              	.LBI138:
  66:Inc/low_level.h ****     uint32_t primask = __get_PRIMASK();
 772              		.loc 2 66 17 view .LVU198
 773              	.LBB139:
  67:Inc/low_level.h ****     __disable_irq();
 774              		.loc 2 67 5 view .LVU199
 775              	.LBB140:
 776              	.LBI140:
 449:Drivers/CMSIS/Include/cmsis_gcc.h **** {
 777              		.loc 3 449 31 view .LVU200
ARM GAS  /tmp/cc4nYBwt.s 			page 39


 778              	.LBB141:
 451:Drivers/CMSIS/Include/cmsis_gcc.h **** 
 779              		.loc 3 451 3 view .LVU201
 453:Drivers/CMSIS/Include/cmsis_gcc.h ****   return(result);
 780              		.loc 3 453 3 view .LVU202
 781              		.syntax unified
 782              	@ 453 "Drivers/CMSIS/Include/cmsis_gcc.h" 1
 783 000c EFF31082 		MRS r2, primask
 784              	@ 0 "" 2
 785              	.LVL41:
 454:Drivers/CMSIS/Include/cmsis_gcc.h **** }
 786              		.loc 3 454 3 view .LVU203
 454:Drivers/CMSIS/Include/cmsis_gcc.h **** }
 787              		.loc 3 454 3 is_stmt 0 view .LVU204
 788              		.thumb
 789              		.syntax unified
 790              	.LBE141:
 791              	.LBE140:
  68:Inc/low_level.h ****     return primask;
 792              		.loc 2 68 5 is_stmt 1 view .LVU205
 793              	.LBB142:
 794              	.LBI142:
 207:Drivers/CMSIS/Include/cmsis_gcc.h **** {
 795              		.loc 3 207 27 view .LVU206
 796              	.LBB143:
 209:Drivers/CMSIS/Include/cmsis_gcc.h **** }
 797              		.loc 3 209 3 view .LVU207
 798              		.syntax unified
 799              	@ 209 "Drivers/CMSIS/Include/cmsis_gcc.h" 1
 800 0010 72B6     		cpsid i
 801              	@ 0 "" 2
 802              		.thumb
 803              		.syntax unified
 804              	.LBE143:
 805              	.LBE142:
  69:Inc/low_level.h **** }
 806              		.loc 2 69 5 view .LVU208
 807              	.LVL42:
  69:Inc/low_level.h **** }
 808              		.loc 2 69 5 is_stmt 0 view .LVU209
 809              	.LBE139:
 810              	.LBE138:
 195:Src/low_level.cpp ****         // Safe update of low and high side timings
 811              		.loc 1 195 5 is_stmt 1 view .LVU210
 812 0012 0A4B     		ldr	r3, .L35
 813 0014 1B78     		ldrb	r3, [r3]	@ zero_extendqisi2
 814 0016 43B1     		cbz	r3, .L32
 199:Src/low_level.cpp ****         htim2.Instance->CCR4 = TIM_APB1_PERIOD_CLOCKS + 1;
 815              		.loc 1 199 9 view .LVU211
 199:Src/low_level.cpp ****         htim2.Instance->CCR4 = TIM_APB1_PERIOD_CLOCKS + 1;
 816              		.loc 1 199 15 is_stmt 0 view .LVU212
 817 0018 094B     		ldr	r3, .L35+4
 818 001a 1B68     		ldr	r3, [r3]
 199:Src/low_level.cpp ****         htim2.Instance->CCR4 = TIM_APB1_PERIOD_CLOCKS + 1;
 819              		.loc 1 199 30 view .LVU213
 820 001c 0021     		movs	r1, #0
 821 001e D963     		str	r1, [r3, #60]
ARM GAS  /tmp/cc4nYBwt.s 			page 40


 200:Src/low_level.cpp ****         htim2.Instance->CCR3 = low_off;
 822              		.loc 1 200 9 is_stmt 1 view .LVU214
 200:Src/low_level.cpp ****         htim2.Instance->CCR3 = low_off;
 823              		.loc 1 200 30 is_stmt 0 view .LVU215
 824 0020 41F20101 		movw	r1, #4097
 825 0024 1964     		str	r1, [r3, #64]
 201:Src/low_level.cpp ****         htim2.Instance->CCR4 = high_on;
 826              		.loc 1 201 9 is_stmt 1 view .LVU216
 201:Src/low_level.cpp ****         htim2.Instance->CCR4 = high_on;
 827              		.loc 1 201 30 is_stmt 0 view .LVU217
 828 0026 DD63     		str	r5, [r3, #60]
 202:Src/low_level.cpp ****     }
 829              		.loc 1 202 9 is_stmt 1 view .LVU218
 202:Src/low_level.cpp ****     }
 830              		.loc 1 202 30 is_stmt 0 view .LVU219
 831 0028 1C64     		str	r4, [r3, #64]
 832              	.L32:
 204:Src/low_level.cpp **** }
 833              		.loc 1 204 5 is_stmt 1 view .LVU220
 834              	.LVL43:
 835              	.LBB144:
 836              	.LBI144:
  72:Inc/low_level.h ****     __set_PRIMASK(priority_mask);
 837              		.loc 2 72 13 view .LVU221
 838              	.LBE144:
 839              		.loc 2 73 5 view .LVU222
 840              	.LBB147:
 841              	.LBB145:
 842              	.LBI145:
 479:Drivers/CMSIS/Include/cmsis_gcc.h **** {
 843              		.loc 3 479 27 view .LVU223
 844              	.LBB146:
 845              		.loc 3 481 3 view .LVU224
 846              		.syntax unified
 847              	@ 481 "Drivers/CMSIS/Include/cmsis_gcc.h" 1
 848 002a 82F31088 		MSR primask, r2
 849              	@ 0 "" 2
 850              	.LVL44:
 851              		.loc 3 481 3 is_stmt 0 view .LVU225
 852              		.thumb
 853              		.syntax unified
 854              	.LBE146:
 855              	.LBE145:
 856              	.LBE147:
 205:Src/low_level.cpp **** 
 857              		.loc 1 205 1 view .LVU226
 858 002e 38BD     		pop	{r3, r4, r5, pc}
 859              	.LVL45:
 860              	.L34:
 193:Src/low_level.cpp ****     uint32_t mask = cpu_enter_critical();
 861              		.loc 1 193 9 is_stmt 1 view .LVU227
 193:Src/low_level.cpp ****     uint32_t mask = cpu_enter_critical();
 862              		.loc 1 193 24 is_stmt 0 view .LVU228
 863 0030 4FF48070 		mov	r0, #256
 864              	.LVL46:
 193:Src/low_level.cpp ****     uint32_t mask = cpu_enter_critical();
 865              		.loc 1 193 24 view .LVU229
ARM GAS  /tmp/cc4nYBwt.s 			page 41


 866 0034 FFF7FEFF 		bl	_Z15low_level_faultN10ODriveIntf9MotorIntf5ErrorE
 867              	.LVL47:
 193:Src/low_level.cpp ****     uint32_t mask = cpu_enter_critical();
 868              		.loc 1 193 24 view .LVU230
 869 0038 E8E7     		b	.L31
 870              	.L36:
 871 003a 00BF     		.align	2
 872              	.L35:
 873 003c 00000000 		.word	.LANCHOR0
 874 0040 00000000 		.word	htim2
 875              		.cfi_endproc
 876              	.LFE5768:
 878              		.section	.text.start_pwm,"ax",%progbits
 879              		.align	1
 880              		.global	start_pwm
 881              		.syntax unified
 882              		.thumb
 883              		.thumb_func
 884              		.fpu fpv4-sp-d16
 886              	start_pwm:
 887              	.LVL48:
 888              	.LFB5770:
 257:Src/low_level.cpp ****     // Init PWM
 889              		.loc 1 257 41 is_stmt 1 view -0
 890              		.cfi_startproc
 891              		@ args = 0, pretend = 0, frame = 0
 892              		@ frame_needed = 0, uses_anonymous_args = 0
 257:Src/low_level.cpp ****     // Init PWM
 893              		.loc 1 257 41 is_stmt 0 view .LVU232
 894 0000 38B5     		push	{r3, r4, r5, lr}
 895              	.LCFI5:
 896              		.cfi_def_cfa_offset 16
 897              		.cfi_offset 3, -16
 898              		.cfi_offset 4, -12
 899              		.cfi_offset 5, -8
 900              		.cfi_offset 14, -4
 901 0002 0446     		mov	r4, r0
 259:Src/low_level.cpp ****     htim->Instance->CCR1 = half_load-0;
 902              		.loc 1 259 5 is_stmt 1 view .LVU233
 903              	.LVL49:
 260:Src/low_level.cpp ****     htim->Instance->CCR2 = half_load+0;
 904              		.loc 1 260 5 view .LVU234
 260:Src/low_level.cpp ****     htim->Instance->CCR2 = half_load+0;
 905              		.loc 1 260 11 is_stmt 0 view .LVU235
 906 0004 0268     		ldr	r2, [r0]
 260:Src/low_level.cpp ****     htim->Instance->CCR2 = half_load+0;
 907              		.loc 1 260 26 view .LVU236
 908 0006 40F64D03 		movw	r3, #2125
 909 000a 5363     		str	r3, [r2, #52]
 261:Src/low_level.cpp ****     htim->Instance->CCR3 = half_load+0;
 910              		.loc 1 261 5 is_stmt 1 view .LVU237
 261:Src/low_level.cpp ****     htim->Instance->CCR3 = half_load+0;
 911              		.loc 1 261 11 is_stmt 0 view .LVU238
 912 000c 0268     		ldr	r2, [r0]
 261:Src/low_level.cpp ****     htim->Instance->CCR3 = half_load+0;
 913              		.loc 1 261 26 view .LVU239
 914 000e 9363     		str	r3, [r2, #56]
ARM GAS  /tmp/cc4nYBwt.s 			page 42


 262:Src/low_level.cpp ****     if(htim == &htim1) {
 915              		.loc 1 262 5 is_stmt 1 view .LVU240
 262:Src/low_level.cpp ****     if(htim == &htim1) {
 916              		.loc 1 262 11 is_stmt 0 view .LVU241
 917 0010 0268     		ldr	r2, [r0]
 262:Src/low_level.cpp ****     if(htim == &htim1) {
 918              		.loc 1 262 26 view .LVU242
 919 0012 D363     		str	r3, [r2, #60]
 263:Src/low_level.cpp ****             // This hardware obfustication layer really is getting on my nerves
 920              		.loc 1 263 5 is_stmt 1 view .LVU243
 921 0014 134B     		ldr	r3, .L42
 922 0016 9842     		cmp	r0, r3
 923 0018 0AD0     		beq	.L41
 273:Src/low_level.cpp ****     }
 924              		.loc 1 273 8 view .LVU244
 273:Src/low_level.cpp ****     }
 925              		.loc 1 273 25 is_stmt 0 view .LVU245
 926 001a 0021     		movs	r1, #0
 927 001c FFF7FEFF 		bl	HAL_TIM_PWM_Start
 928              	.LVL50:
 929              	.L39:
 277:Src/low_level.cpp ****     HAL_TIM_PWM_Start_IT(htim, TIM_CHANNEL_4);
 930              		.loc 1 277 5 is_stmt 1 view .LVU246
 277:Src/low_level.cpp ****     HAL_TIM_PWM_Start_IT(htim, TIM_CHANNEL_4);
 931              		.loc 1 277 11 is_stmt 0 view .LVU247
 932 0020 2368     		ldr	r3, [r4]
 277:Src/low_level.cpp ****     HAL_TIM_PWM_Start_IT(htim, TIM_CHANNEL_4);
 933              		.loc 1 277 26 view .LVU248
 934 0022 0122     		movs	r2, #1
 935 0024 1A64     		str	r2, [r3, #64]
 278:Src/low_level.cpp **** }
 936              		.loc 1 278 5 is_stmt 1 view .LVU249
 278:Src/low_level.cpp **** }
 937              		.loc 1 278 25 is_stmt 0 view .LVU250
 938 0026 0C21     		movs	r1, #12
 939 0028 2046     		mov	r0, r4
 940 002a FFF7FEFF 		bl	HAL_TIM_PWM_Start_IT
 941              	.LVL51:
 279:Src/low_level.cpp **** 
 942              		.loc 1 279 1 view .LVU251
 943 002e 38BD     		pop	{r3, r4, r5, pc}
 944              	.LVL52:
 945              	.L41:
 265:Src/low_level.cpp ****         HAL_TIMEx_PWMN_Start(htim, TIM_CHANNEL_1);
 946              		.loc 1 265 9 is_stmt 1 view .LVU252
 265:Src/low_level.cpp ****         HAL_TIMEx_PWMN_Start(htim, TIM_CHANNEL_1);
 947              		.loc 1 265 26 is_stmt 0 view .LVU253
 948 0030 1D46     		mov	r5, r3
 949 0032 0021     		movs	r1, #0
 950 0034 1846     		mov	r0, r3
 951              	.LVL53:
 265:Src/low_level.cpp ****         HAL_TIMEx_PWMN_Start(htim, TIM_CHANNEL_1);
 952              		.loc 1 265 26 view .LVU254
 953 0036 FFF7FEFF 		bl	HAL_TIM_PWM_Start
 954              	.LVL54:
 266:Src/low_level.cpp ****         HAL_TIM_PWM_Start(htim, TIM_CHANNEL_2);
 955              		.loc 1 266 9 is_stmt 1 view .LVU255
ARM GAS  /tmp/cc4nYBwt.s 			page 43


 266:Src/low_level.cpp ****         HAL_TIM_PWM_Start(htim, TIM_CHANNEL_2);
 956              		.loc 1 266 29 is_stmt 0 view .LVU256
 957 003a 0021     		movs	r1, #0
 958 003c 2846     		mov	r0, r5
 959 003e FFF7FEFF 		bl	HAL_TIMEx_PWMN_Start
 960              	.LVL55:
 267:Src/low_level.cpp ****         HAL_TIMEx_PWMN_Start(htim, TIM_CHANNEL_2);
 961              		.loc 1 267 9 is_stmt 1 view .LVU257
 267:Src/low_level.cpp ****         HAL_TIMEx_PWMN_Start(htim, TIM_CHANNEL_2);
 962              		.loc 1 267 26 is_stmt 0 view .LVU258
 963 0042 0421     		movs	r1, #4
 964 0044 2846     		mov	r0, r5
 965 0046 FFF7FEFF 		bl	HAL_TIM_PWM_Start
 966              	.LVL56:
 268:Src/low_level.cpp ****         HAL_TIM_PWM_Start(htim, TIM_CHANNEL_3);
 967              		.loc 1 268 9 is_stmt 1 view .LVU259
 268:Src/low_level.cpp ****         HAL_TIM_PWM_Start(htim, TIM_CHANNEL_3);
 968              		.loc 1 268 29 is_stmt 0 view .LVU260
 969 004a 0421     		movs	r1, #4
 970 004c 2846     		mov	r0, r5
 971 004e FFF7FEFF 		bl	HAL_TIMEx_PWMN_Start
 972              	.LVL57:
 269:Src/low_level.cpp ****         HAL_TIMEx_PWMN_Start(htim, TIM_CHANNEL_3);
 973              		.loc 1 269 9 is_stmt 1 view .LVU261
 269:Src/low_level.cpp ****         HAL_TIMEx_PWMN_Start(htim, TIM_CHANNEL_3);
 974              		.loc 1 269 26 is_stmt 0 view .LVU262
 975 0052 0821     		movs	r1, #8
 976 0054 2846     		mov	r0, r5
 977 0056 FFF7FEFF 		bl	HAL_TIM_PWM_Start
 978              	.LVL58:
 270:Src/low_level.cpp ****         
 979              		.loc 1 270 9 is_stmt 1 view .LVU263
 270:Src/low_level.cpp ****         
 980              		.loc 1 270 29 is_stmt 0 view .LVU264
 981 005a 0821     		movs	r1, #8
 982 005c 2846     		mov	r0, r5
 983 005e FFF7FEFF 		bl	HAL_TIMEx_PWMN_Start
 984              	.LVL59:
 985 0062 DDE7     		b	.L39
 986              	.L43:
 987              		.align	2
 988              	.L42:
 989 0064 00000000 		.word	htim1
 990              		.cfi_endproc
 991              	.LFE5770:
 993              		.section	.text.sync_timers,"ax",%progbits
 994              		.align	1
 995              		.global	sync_timers
 996              		.syntax unified
 997              		.thumb
 998              		.thumb_func
 999              		.fpu fpv4-sp-d16
 1001              	sync_timers:
 1002              	.LVL60:
 1003              	.LFB5771:
 297:Src/low_level.cpp ****     // Store intial timer configs
 1004              		.loc 1 297 51 is_stmt 1 view -0
ARM GAS  /tmp/cc4nYBwt.s 			page 44


 1005              		.cfi_startproc
 1006              		@ args = 4, pretend = 0, frame = 0
 1007              		@ frame_needed = 0, uses_anonymous_args = 0
 297:Src/low_level.cpp ****     // Store intial timer configs
 1008              		.loc 1 297 51 is_stmt 0 view .LVU266
 1009 0000 2DE9F043 		push	{r4, r5, r6, r7, r8, r9, lr}
 1010              	.LCFI6:
 1011              		.cfi_def_cfa_offset 28
 1012              		.cfi_offset 4, -28
 1013              		.cfi_offset 5, -24
 1014              		.cfi_offset 6, -20
 1015              		.cfi_offset 7, -16
 1016              		.cfi_offset 8, -12
 1017              		.cfi_offset 9, -8
 1018              		.cfi_offset 14, -4
 1019 0004 079E     		ldr	r6, [sp, #28]
 299:Src/low_level.cpp ****     uint16_t MOE_store_b = htim_b->Instance->BDTR & (TIM_BDTR_MOE);
 1020              		.loc 1 299 5 is_stmt 1 view .LVU267
 299:Src/low_level.cpp ****     uint16_t MOE_store_b = htim_b->Instance->BDTR & (TIM_BDTR_MOE);
 1021              		.loc 1 299 36 is_stmt 0 view .LVU268
 1022 0006 0768     		ldr	r7, [r0]
 299:Src/low_level.cpp ****     uint16_t MOE_store_b = htim_b->Instance->BDTR & (TIM_BDTR_MOE);
 1023              		.loc 1 299 46 view .LVU269
 1024 0008 7C6C     		ldr	r4, [r7, #68]
 299:Src/low_level.cpp ****     uint16_t MOE_store_b = htim_b->Instance->BDTR & (TIM_BDTR_MOE);
 1025              		.loc 1 299 66 view .LVU270
 1026 000a 04F4004E 		and	lr, r4, #32768
 1027              	.LVL61:
 300:Src/low_level.cpp ****     uint16_t CR2_store = htim_a->Instance->CR2;
 1028              		.loc 1 300 5 is_stmt 1 view .LVU271
 300:Src/low_level.cpp ****     uint16_t CR2_store = htim_a->Instance->CR2;
 1029              		.loc 1 300 36 is_stmt 0 view .LVU272
 1030 000e 0C68     		ldr	r4, [r1]
 300:Src/low_level.cpp ****     uint16_t CR2_store = htim_a->Instance->CR2;
 1031              		.loc 1 300 46 view .LVU273
 1032 0010 656C     		ldr	r5, [r4, #68]
 300:Src/low_level.cpp ****     uint16_t CR2_store = htim_a->Instance->CR2;
 1033              		.loc 1 300 66 view .LVU274
 1034 0012 05F4004C 		and	ip, r5, #32768
 1035              	.LVL62:
 301:Src/low_level.cpp ****     uint16_t SMCR_store = htim_b->Instance->SMCR;
 1036              		.loc 1 301 5 is_stmt 1 view .LVU275
 301:Src/low_level.cpp ****     uint16_t SMCR_store = htim_b->Instance->SMCR;
 1037              		.loc 1 301 44 is_stmt 0 view .LVU276
 1038 0016 7D68     		ldr	r5, [r7, #4]
 1039              	.LVL63:
 302:Src/low_level.cpp ****     // Turn off output
 1040              		.loc 1 302 5 is_stmt 1 view .LVU277
 302:Src/low_level.cpp ****     // Turn off output
 1041              		.loc 1 302 45 is_stmt 0 view .LVU278
 1042 0018 A468     		ldr	r4, [r4, #8]
 1043              	.LVL64:
 304:Src/low_level.cpp ****     htim_b->Instance->BDTR &= ~(TIM_BDTR_MOE);
 1044              		.loc 1 304 5 is_stmt 1 view .LVU279
 304:Src/low_level.cpp ****     htim_b->Instance->BDTR &= ~(TIM_BDTR_MOE);
 1045              		.loc 1 304 28 is_stmt 0 view .LVU280
 1046 001a D7F84480 		ldr	r8, [r7, #68]
ARM GAS  /tmp/cc4nYBwt.s 			page 45


 1047 001e 28F40048 		bic	r8, r8, #32768
 1048 0022 C7F84480 		str	r8, [r7, #68]
 305:Src/low_level.cpp ****     // Disable both timer counters
 1049              		.loc 1 305 5 is_stmt 1 view .LVU281
 305:Src/low_level.cpp ****     // Disable both timer counters
 1050              		.loc 1 305 13 is_stmt 0 view .LVU282
 1051 0026 D1F80080 		ldr	r8, [r1]
 305:Src/low_level.cpp ****     // Disable both timer counters
 1052              		.loc 1 305 28 view .LVU283
 1053 002a D8F84470 		ldr	r7, [r8, #68]
 1054 002e 27F40047 		bic	r7, r7, #32768
 1055 0032 C8F84470 		str	r7, [r8, #68]
 307:Src/low_level.cpp ****     htim_b->Instance->CR1 &= ~TIM_CR1_CEN;
 1056              		.loc 1 307 5 is_stmt 1 view .LVU284
 307:Src/low_level.cpp ****     htim_b->Instance->CR1 &= ~TIM_CR1_CEN;
 1057              		.loc 1 307 13 is_stmt 0 view .LVU285
 1058 0036 D0F80080 		ldr	r8, [r0]
 307:Src/low_level.cpp ****     htim_b->Instance->CR1 &= ~TIM_CR1_CEN;
 1059              		.loc 1 307 27 view .LVU286
 1060 003a D8F80070 		ldr	r7, [r8]
 1061 003e 27F00107 		bic	r7, r7, #1
 1062 0042 C8F80070 		str	r7, [r8]
 308:Src/low_level.cpp ****     // Set first timer to send TRGO on counter enable
 1063              		.loc 1 308 5 is_stmt 1 view .LVU287
 308:Src/low_level.cpp ****     // Set first timer to send TRGO on counter enable
 1064              		.loc 1 308 13 is_stmt 0 view .LVU288
 1065 0046 D1F80080 		ldr	r8, [r1]
 308:Src/low_level.cpp ****     // Set first timer to send TRGO on counter enable
 1066              		.loc 1 308 27 view .LVU289
 1067 004a D8F80070 		ldr	r7, [r8]
 1068 004e 27F00107 		bic	r7, r7, #1
 1069 0052 C8F80070 		str	r7, [r8]
 310:Src/low_level.cpp ****     htim_a->Instance->CR2 |= TIM_TRGO_ENABLE;
 1070              		.loc 1 310 5 is_stmt 1 view .LVU290
 310:Src/low_level.cpp ****     htim_a->Instance->CR2 |= TIM_TRGO_ENABLE;
 1071              		.loc 1 310 13 is_stmt 0 view .LVU291
 1072 0056 D0F80080 		ldr	r8, [r0]
 310:Src/low_level.cpp ****     htim_a->Instance->CR2 |= TIM_TRGO_ENABLE;
 1073              		.loc 1 310 27 view .LVU292
 1074 005a D8F80470 		ldr	r7, [r8, #4]
 1075 005e 27F00077 		bic	r7, r7, #33554432
 1076 0062 27F07007 		bic	r7, r7, #112
 1077 0066 C8F80470 		str	r7, [r8, #4]
 311:Src/low_level.cpp ****     // Set Trigger Source of second timer to the TRGO of the first timer
 1078              		.loc 1 311 5 is_stmt 1 view .LVU293
 311:Src/low_level.cpp ****     // Set Trigger Source of second timer to the TRGO of the first timer
 1079              		.loc 1 311 13 is_stmt 0 view .LVU294
 1080 006a D0F80080 		ldr	r8, [r0]
 311:Src/low_level.cpp ****     // Set Trigger Source of second timer to the TRGO of the first timer
 1081              		.loc 1 311 27 view .LVU295
 1082 006e D8F80470 		ldr	r7, [r8, #4]
 1083 0072 47F01007 		orr	r7, r7, #16
 1084 0076 C8F80470 		str	r7, [r8, #4]
 313:Src/low_level.cpp ****     htim_b->Instance->SMCR |= TIM_CLOCKSOURCE_ITRx;
 1085              		.loc 1 313 5 is_stmt 1 view .LVU296
 313:Src/low_level.cpp ****     htim_b->Instance->SMCR |= TIM_CLOCKSOURCE_ITRx;
 1086              		.loc 1 313 13 is_stmt 0 view .LVU297
ARM GAS  /tmp/cc4nYBwt.s 			page 46


 1087 007a D1F80080 		ldr	r8, [r1]
 313:Src/low_level.cpp ****     htim_b->Instance->SMCR |= TIM_CLOCKSOURCE_ITRx;
 1088              		.loc 1 313 28 view .LVU298
 1089 007e D8F80870 		ldr	r7, [r8, #8]
 1090 0082 27F44017 		bic	r7, r7, #3145728
 1091 0086 27F07007 		bic	r7, r7, #112
 1092 008a C8F80870 		str	r7, [r8, #8]
 314:Src/low_level.cpp ****     // Set 2nd timer to start on trigger
 1093              		.loc 1 314 5 is_stmt 1 view .LVU299
 314:Src/low_level.cpp ****     // Set 2nd timer to start on trigger
 1094              		.loc 1 314 13 is_stmt 0 view .LVU300
 1095 008e 0F68     		ldr	r7, [r1]
 314:Src/low_level.cpp ****     // Set 2nd timer to start on trigger
 1096              		.loc 1 314 28 view .LVU301
 1097 0090 D7F80880 		ldr	r8, [r7, #8]
 1098 0094 42EA0802 		orr	r2, r2, r8
 1099              	.LVL65:
 314:Src/low_level.cpp ****     // Set 2nd timer to start on trigger
 1100              		.loc 1 314 28 view .LVU302
 1101 0098 BA60     		str	r2, [r7, #8]
 316:Src/low_level.cpp ****     htim_b->Instance->SMCR |= TIM_SLAVEMODE_TRIGGER;
 1102              		.loc 1 316 5 is_stmt 1 view .LVU303
 316:Src/low_level.cpp ****     htim_b->Instance->SMCR |= TIM_SLAVEMODE_TRIGGER;
 1103              		.loc 1 316 13 is_stmt 0 view .LVU304
 1104 009a 0F68     		ldr	r7, [r1]
 316:Src/low_level.cpp ****     htim_b->Instance->SMCR |= TIM_SLAVEMODE_TRIGGER;
 1105              		.loc 1 316 28 view .LVU305
 1106 009c BA68     		ldr	r2, [r7, #8]
 1107 009e 22F48032 		bic	r2, r2, #65536
 1108 00a2 22F00702 		bic	r2, r2, #7
 1109 00a6 BA60     		str	r2, [r7, #8]
 317:Src/low_level.cpp ****     // Dir bit is read only in center aligned mode, so we clear the mode for now
 1110              		.loc 1 317 5 is_stmt 1 view .LVU306
 317:Src/low_level.cpp ****     // Dir bit is read only in center aligned mode, so we clear the mode for now
 1111              		.loc 1 317 13 is_stmt 0 view .LVU307
 1112 00a8 0F68     		ldr	r7, [r1]
 317:Src/low_level.cpp ****     // Dir bit is read only in center aligned mode, so we clear the mode for now
 1113              		.loc 1 317 28 view .LVU308
 1114 00aa BA68     		ldr	r2, [r7, #8]
 1115 00ac 42F00602 		orr	r2, r2, #6
 1116 00b0 BA60     		str	r2, [r7, #8]
 319:Src/low_level.cpp ****     uint16_t CMS_store_b = htim_b->Instance->CR1 & TIM_CR1_CMS;
 1117              		.loc 1 319 5 is_stmt 1 view .LVU309
 319:Src/low_level.cpp ****     uint16_t CMS_store_b = htim_b->Instance->CR1 & TIM_CR1_CMS;
 1118              		.loc 1 319 36 is_stmt 0 view .LVU310
 1119 00b2 D0F80080 		ldr	r8, [r0]
 319:Src/low_level.cpp ****     uint16_t CMS_store_b = htim_b->Instance->CR1 & TIM_CR1_CMS;
 1120              		.loc 1 319 46 view .LVU311
 1121 00b6 D8F80070 		ldr	r7, [r8]
 1122              	.LVL66:
 320:Src/low_level.cpp ****     htim_a->Instance->CR1 &= ~TIM_CR1_CMS;
 1123              		.loc 1 320 5 is_stmt 1 view .LVU312
 320:Src/low_level.cpp ****     htim_a->Instance->CR1 &= ~TIM_CR1_CMS;
 1124              		.loc 1 320 36 is_stmt 0 view .LVU313
 1125 00ba 0A68     		ldr	r2, [r1]
 320:Src/low_level.cpp ****     htim_a->Instance->CR1 &= ~TIM_CR1_CMS;
 1126              		.loc 1 320 46 view .LVU314
ARM GAS  /tmp/cc4nYBwt.s 			page 47


 1127 00bc 1268     		ldr	r2, [r2]
 1128              	.LVL67:
 321:Src/low_level.cpp ****     htim_b->Instance->CR1 &= ~TIM_CR1_CMS;
 1129              		.loc 1 321 5 is_stmt 1 view .LVU315
 321:Src/low_level.cpp ****     htim_b->Instance->CR1 &= ~TIM_CR1_CMS;
 1130              		.loc 1 321 27 is_stmt 0 view .LVU316
 1131 00be D8F80090 		ldr	r9, [r8]
 1132 00c2 29F06009 		bic	r9, r9, #96
 1133 00c6 C8F80090 		str	r9, [r8]
 322:Src/low_level.cpp ****     // Set both timers to up-counting state
 1134              		.loc 1 322 5 is_stmt 1 view .LVU317
 322:Src/low_level.cpp ****     // Set both timers to up-counting state
 1135              		.loc 1 322 13 is_stmt 0 view .LVU318
 1136 00ca D1F80090 		ldr	r9, [r1]
 322:Src/low_level.cpp ****     // Set both timers to up-counting state
 1137              		.loc 1 322 27 view .LVU319
 1138 00ce D9F80080 		ldr	r8, [r9]
 1139 00d2 28F06008 		bic	r8, r8, #96
 1140 00d6 C9F80080 		str	r8, [r9]
 324:Src/low_level.cpp ****     htim_b->Instance->CR1 &= ~TIM_CR1_DIR;
 1141              		.loc 1 324 5 is_stmt 1 view .LVU320
 324:Src/low_level.cpp ****     htim_b->Instance->CR1 &= ~TIM_CR1_DIR;
 1142              		.loc 1 324 13 is_stmt 0 view .LVU321
 1143 00da D0F80090 		ldr	r9, [r0]
 324:Src/low_level.cpp ****     htim_b->Instance->CR1 &= ~TIM_CR1_DIR;
 1144              		.loc 1 324 27 view .LVU322
 1145 00de D9F80080 		ldr	r8, [r9]
 1146 00e2 28F01008 		bic	r8, r8, #16
 1147 00e6 C9F80080 		str	r8, [r9]
 325:Src/low_level.cpp ****     // Restore center aligned mode
 1148              		.loc 1 325 5 is_stmt 1 view .LVU323
 325:Src/low_level.cpp ****     // Restore center aligned mode
 1149              		.loc 1 325 13 is_stmt 0 view .LVU324
 1150 00ea D1F80090 		ldr	r9, [r1]
 325:Src/low_level.cpp ****     // Restore center aligned mode
 1151              		.loc 1 325 27 view .LVU325
 1152 00ee D9F80080 		ldr	r8, [r9]
 1153 00f2 28F01008 		bic	r8, r8, #16
 1154 00f6 C9F80080 		str	r8, [r9]
 327:Src/low_level.cpp ****     htim_b->Instance->CR1 |= CMS_store_b;
 1155              		.loc 1 327 5 is_stmt 1 view .LVU326
 327:Src/low_level.cpp ****     htim_b->Instance->CR1 |= CMS_store_b;
 1156              		.loc 1 327 13 is_stmt 0 view .LVU327
 1157 00fa D0F80080 		ldr	r8, [r0]
 327:Src/low_level.cpp ****     htim_b->Instance->CR1 |= CMS_store_b;
 1158              		.loc 1 327 27 view .LVU328
 1159 00fe D8F80090 		ldr	r9, [r8]
 327:Src/low_level.cpp ****     htim_b->Instance->CR1 |= CMS_store_b;
 1160              		.loc 1 327 30 view .LVU329
 1161 0102 07F06007 		and	r7, r7, #96
 1162              	.LVL68:
 327:Src/low_level.cpp ****     htim_b->Instance->CR1 |= CMS_store_b;
 1163              		.loc 1 327 27 view .LVU330
 1164 0106 47EA0907 		orr	r7, r7, r9
 1165 010a C8F80070 		str	r7, [r8]
 328:Src/low_level.cpp ****     // set counter offset
 1166              		.loc 1 328 5 is_stmt 1 view .LVU331
ARM GAS  /tmp/cc4nYBwt.s 			page 48


 328:Src/low_level.cpp ****     // set counter offset
 1167              		.loc 1 328 13 is_stmt 0 view .LVU332
 1168 010e 0F68     		ldr	r7, [r1]
 328:Src/low_level.cpp ****     // set counter offset
 1169              		.loc 1 328 27 view .LVU333
 1170 0110 D7F80080 		ldr	r8, [r7]
 328:Src/low_level.cpp ****     // set counter offset
 1171              		.loc 1 328 30 view .LVU334
 1172 0114 02F06002 		and	r2, r2, #96
 1173              	.LVL69:
 328:Src/low_level.cpp ****     // set counter offset
 1174              		.loc 1 328 27 view .LVU335
 1175 0118 42EA0802 		orr	r2, r2, r8
 1176 011c 3A60     		str	r2, [r7]
 330:Src/low_level.cpp ****     htim_b->Instance->CNT = count_offset/2;
 1177              		.loc 1 330 5 is_stmt 1 view .LVU336
 330:Src/low_level.cpp ****     htim_b->Instance->CNT = count_offset/2;
 1178              		.loc 1 330 13 is_stmt 0 view .LVU337
 1179 011e 0268     		ldr	r2, [r0]
 330:Src/low_level.cpp ****     htim_b->Instance->CNT = count_offset/2;
 1180              		.loc 1 330 27 view .LVU338
 1181 0120 5362     		str	r3, [r2, #36]
 331:Src/low_level.cpp ****     // Set and start reference timebase timer (if used)
 1182              		.loc 1 331 5 is_stmt 1 view .LVU339
 331:Src/low_level.cpp ****     // Set and start reference timebase timer (if used)
 1183              		.loc 1 331 13 is_stmt 0 view .LVU340
 1184 0122 0A68     		ldr	r2, [r1]
 331:Src/low_level.cpp ****     // Set and start reference timebase timer (if used)
 1185              		.loc 1 331 41 view .LVU341
 1186 0124 5F08     		lsrs	r7, r3, #1
 331:Src/low_level.cpp ****     // Set and start reference timebase timer (if used)
 1187              		.loc 1 331 27 view .LVU342
 1188 0126 5762     		str	r7, [r2, #36]
 333:Src/low_level.cpp ****         htim_refbase->Instance->CNT = count_offset;
 1189              		.loc 1 333 5 is_stmt 1 view .LVU343
 1190 0128 36B1     		cbz	r6, .L45
 334:Src/low_level.cpp ****         htim_refbase->Instance->CR1 |= (TIM_CR1_CEN); // start
 1191              		.loc 1 334 9 view .LVU344
 334:Src/low_level.cpp ****         htim_refbase->Instance->CR1 |= (TIM_CR1_CEN); // start
 1192              		.loc 1 334 23 is_stmt 0 view .LVU345
 1193 012a 3268     		ldr	r2, [r6]
 334:Src/low_level.cpp ****         htim_refbase->Instance->CR1 |= (TIM_CR1_CEN); // start
 1194              		.loc 1 334 37 view .LVU346
 1195 012c 5362     		str	r3, [r2, #36]
 335:Src/low_level.cpp ****     }
 1196              		.loc 1 335 9 is_stmt 1 view .LVU347
 335:Src/low_level.cpp ****     }
 1197              		.loc 1 335 23 is_stmt 0 view .LVU348
 1198 012e 3268     		ldr	r2, [r6]
 335:Src/low_level.cpp ****     }
 1199              		.loc 1 335 37 view .LVU349
 1200 0130 1368     		ldr	r3, [r2]
 1201              	.LVL70:
 335:Src/low_level.cpp ****     }
 1202              		.loc 1 335 37 view .LVU350
 1203 0132 43F00103 		orr	r3, r3, #1
 1204 0136 1360     		str	r3, [r2]
ARM GAS  /tmp/cc4nYBwt.s 			page 49


 1205              	.L45:
 338:Src/low_level.cpp ****     // Restore timer configs
 1206              		.loc 1 338 5 is_stmt 1 view .LVU351
 338:Src/low_level.cpp ****     // Restore timer configs
 1207              		.loc 1 338 13 is_stmt 0 view .LVU352
 1208 0138 0268     		ldr	r2, [r0]
 338:Src/low_level.cpp ****     // Restore timer configs
 1209              		.loc 1 338 27 view .LVU353
 1210 013a 1368     		ldr	r3, [r2]
 1211 013c 43F00103 		orr	r3, r3, #1
 1212 0140 1360     		str	r3, [r2]
 340:Src/low_level.cpp ****     htim_b->Instance->SMCR = SMCR_store;
 1213              		.loc 1 340 5 is_stmt 1 view .LVU354
 340:Src/low_level.cpp ****     htim_b->Instance->SMCR = SMCR_store;
 1214              		.loc 1 340 13 is_stmt 0 view .LVU355
 1215 0142 0368     		ldr	r3, [r0]
 1216 0144 ADB2     		uxth	r5, r5
 340:Src/low_level.cpp ****     htim_b->Instance->SMCR = SMCR_store;
 1217              		.loc 1 340 27 view .LVU356
 1218 0146 5D60     		str	r5, [r3, #4]
 341:Src/low_level.cpp ****     // restore output
 1219              		.loc 1 341 5 is_stmt 1 view .LVU357
 341:Src/low_level.cpp ****     // restore output
 1220              		.loc 1 341 13 is_stmt 0 view .LVU358
 1221 0148 0B68     		ldr	r3, [r1]
 1222 014a A4B2     		uxth	r4, r4
 341:Src/low_level.cpp ****     // restore output
 1223              		.loc 1 341 28 view .LVU359
 1224 014c 9C60     		str	r4, [r3, #8]
 343:Src/low_level.cpp ****     htim_b->Instance->BDTR |= MOE_store_b;
 1225              		.loc 1 343 5 is_stmt 1 view .LVU360
 343:Src/low_level.cpp ****     htim_b->Instance->BDTR |= MOE_store_b;
 1226              		.loc 1 343 13 is_stmt 0 view .LVU361
 1227 014e 0268     		ldr	r2, [r0]
 343:Src/low_level.cpp ****     htim_b->Instance->BDTR |= MOE_store_b;
 1228              		.loc 1 343 28 view .LVU362
 1229 0150 536C     		ldr	r3, [r2, #68]
 1230 0152 4EEA0303 		orr	r3, lr, r3
 1231 0156 5364     		str	r3, [r2, #68]
 344:Src/low_level.cpp **** }
 1232              		.loc 1 344 5 is_stmt 1 view .LVU363
 344:Src/low_level.cpp **** }
 1233              		.loc 1 344 13 is_stmt 0 view .LVU364
 1234 0158 0A68     		ldr	r2, [r1]
 344:Src/low_level.cpp **** }
 1235              		.loc 1 344 28 view .LVU365
 1236 015a 536C     		ldr	r3, [r2, #68]
 1237 015c 4CEA0303 		orr	r3, ip, r3
 1238 0160 5364     		str	r3, [r2, #68]
 345:Src/low_level.cpp **** 
 1239              		.loc 1 345 1 view .LVU366
 1240 0162 BDE8F083 		pop	{r4, r5, r6, r7, r8, r9, pc}
 345:Src/low_level.cpp **** 
 1241              		.loc 1 345 1 view .LVU367
 1242              		.cfi_endproc
 1243              	.LFE5771:
 1245              		.section	.text.start_adc_pwm,"ax",%progbits
ARM GAS  /tmp/cc4nYBwt.s 			page 50


 1246              		.align	1
 1247              		.global	start_adc_pwm
 1248              		.syntax unified
 1249              		.thumb
 1250              		.thumb_func
 1251              		.fpu fpv4-sp-d16
 1253              	start_adc_pwm:
 1254              	.LFB5769:
 209:Src/low_level.cpp ****     // Enable ADC and interrupts
 1255              		.loc 1 209 22 is_stmt 1 view -0
 1256              		.cfi_startproc
 1257              		@ args = 0, pretend = 0, frame = 0
 1258              		@ frame_needed = 0, uses_anonymous_args = 0
 1259 0000 30B5     		push	{r4, r5, lr}
 1260              	.LCFI7:
 1261              		.cfi_def_cfa_offset 12
 1262              		.cfi_offset 4, -12
 1263              		.cfi_offset 5, -8
 1264              		.cfi_offset 14, -4
 1265 0002 83B0     		sub	sp, sp, #12
 1266              	.LCFI8:
 1267              		.cfi_def_cfa_offset 24
 211:Src/low_level.cpp ****     LL_ADC_Enable(ADC2);
 1268              		.loc 1 211 5 view .LVU369
 1269              	.LVL71:
 1270              	.LBB148:
 1271              	.LBI148:
 1272              		.file 4 "Drivers/STM32G4xx_HAL_Driver/Inc/stm32g4xx_ll_adc.h"
   1:Drivers/STM32G4xx_HAL_Driver/Inc/stm32g4xx_ll_adc.h **** /**
   2:Drivers/STM32G4xx_HAL_Driver/Inc/stm32g4xx_ll_adc.h ****   ******************************************************************************
   3:Drivers/STM32G4xx_HAL_Driver/Inc/stm32g4xx_ll_adc.h ****   * @file    stm32g4xx_ll_adc.h
   4:Drivers/STM32G4xx_HAL_Driver/Inc/stm32g4xx_ll_adc.h ****   * @author  MCD Application Team
   5:Drivers/STM32G4xx_HAL_Driver/Inc/stm32g4xx_ll_adc.h ****   * @brief   Header file of ADC LL module.
   6:Drivers/STM32G4xx_HAL_Driver/Inc/stm32g4xx_ll_adc.h ****   ******************************************************************************
   7:Drivers/STM32G4xx_HAL_Driver/Inc/stm32g4xx_ll_adc.h ****   * @attention
   8:Drivers/STM32G4xx_HAL_Driver/Inc/stm32g4xx_ll_adc.h ****   *
   9:Drivers/STM32G4xx_HAL_Driver/Inc/stm32g4xx_ll_adc.h ****   * Copyright (c) 2019 STMicroelectronics.
  10:Drivers/STM32G4xx_HAL_Driver/Inc/stm32g4xx_ll_adc.h ****   * All rights reserved.
  11:Drivers/STM32G4xx_HAL_Driver/Inc/stm32g4xx_ll_adc.h ****   *
  12:Drivers/STM32G4xx_HAL_Driver/Inc/stm32g4xx_ll_adc.h ****   * This software is licensed under terms that can be found in the LICENSE file
  13:Drivers/STM32G4xx_HAL_Driver/Inc/stm32g4xx_ll_adc.h ****   * in the root directory of this software component.
  14:Drivers/STM32G4xx_HAL_Driver/Inc/stm32g4xx_ll_adc.h ****   * If no LICENSE file comes with this software, it is provided AS-IS.
  15:Drivers/STM32G4xx_HAL_Driver/Inc/stm32g4xx_ll_adc.h ****   *
  16:Drivers/STM32G4xx_HAL_Driver/Inc/stm32g4xx_ll_adc.h ****   ******************************************************************************
  17:Drivers/STM32G4xx_HAL_Driver/Inc/stm32g4xx_ll_adc.h ****   */
  18:Drivers/STM32G4xx_HAL_Driver/Inc/stm32g4xx_ll_adc.h **** 
  19:Drivers/STM32G4xx_HAL_Driver/Inc/stm32g4xx_ll_adc.h **** /* Define to prevent recursive inclusion -------------------------------------*/
  20:Drivers/STM32G4xx_HAL_Driver/Inc/stm32g4xx_ll_adc.h **** #ifndef STM32G4xx_LL_ADC_H
  21:Drivers/STM32G4xx_HAL_Driver/Inc/stm32g4xx_ll_adc.h **** #define STM32G4xx_LL_ADC_H
  22:Drivers/STM32G4xx_HAL_Driver/Inc/stm32g4xx_ll_adc.h **** 
  23:Drivers/STM32G4xx_HAL_Driver/Inc/stm32g4xx_ll_adc.h **** #ifdef __cplusplus
  24:Drivers/STM32G4xx_HAL_Driver/Inc/stm32g4xx_ll_adc.h **** extern "C" {
  25:Drivers/STM32G4xx_HAL_Driver/Inc/stm32g4xx_ll_adc.h **** #endif
  26:Drivers/STM32G4xx_HAL_Driver/Inc/stm32g4xx_ll_adc.h **** 
  27:Drivers/STM32G4xx_HAL_Driver/Inc/stm32g4xx_ll_adc.h **** /* Includes ------------------------------------------------------------------*/
  28:Drivers/STM32G4xx_HAL_Driver/Inc/stm32g4xx_ll_adc.h **** #include "stm32g4xx.h"
  29:Drivers/STM32G4xx_HAL_Driver/Inc/stm32g4xx_ll_adc.h **** 
ARM GAS  /tmp/cc4nYBwt.s 			page 51


  30:Drivers/STM32G4xx_HAL_Driver/Inc/stm32g4xx_ll_adc.h **** /** @addtogroup STM32G4xx_LL_Driver
  31:Drivers/STM32G4xx_HAL_Driver/Inc/stm32g4xx_ll_adc.h ****   * @{
  32:Drivers/STM32G4xx_HAL_Driver/Inc/stm32g4xx_ll_adc.h ****   */
  33:Drivers/STM32G4xx_HAL_Driver/Inc/stm32g4xx_ll_adc.h **** 
  34:Drivers/STM32G4xx_HAL_Driver/Inc/stm32g4xx_ll_adc.h **** #if defined (ADC1) || defined (ADC2) || defined (ADC3) || defined (ADC4) || defined (ADC5)
  35:Drivers/STM32G4xx_HAL_Driver/Inc/stm32g4xx_ll_adc.h **** 
  36:Drivers/STM32G4xx_HAL_Driver/Inc/stm32g4xx_ll_adc.h **** /** @defgroup ADC_LL ADC
  37:Drivers/STM32G4xx_HAL_Driver/Inc/stm32g4xx_ll_adc.h ****   * @{
  38:Drivers/STM32G4xx_HAL_Driver/Inc/stm32g4xx_ll_adc.h ****   */
  39:Drivers/STM32G4xx_HAL_Driver/Inc/stm32g4xx_ll_adc.h **** 
  40:Drivers/STM32G4xx_HAL_Driver/Inc/stm32g4xx_ll_adc.h **** /* Private types -------------------------------------------------------------*/
  41:Drivers/STM32G4xx_HAL_Driver/Inc/stm32g4xx_ll_adc.h **** /* Private variables ---------------------------------------------------------*/
  42:Drivers/STM32G4xx_HAL_Driver/Inc/stm32g4xx_ll_adc.h **** 
  43:Drivers/STM32G4xx_HAL_Driver/Inc/stm32g4xx_ll_adc.h **** /* Private constants ---------------------------------------------------------*/
  44:Drivers/STM32G4xx_HAL_Driver/Inc/stm32g4xx_ll_adc.h **** /** @defgroup ADC_LL_Private_Constants ADC Private Constants
  45:Drivers/STM32G4xx_HAL_Driver/Inc/stm32g4xx_ll_adc.h ****   * @{
  46:Drivers/STM32G4xx_HAL_Driver/Inc/stm32g4xx_ll_adc.h ****   */
  47:Drivers/STM32G4xx_HAL_Driver/Inc/stm32g4xx_ll_adc.h **** 
  48:Drivers/STM32G4xx_HAL_Driver/Inc/stm32g4xx_ll_adc.h **** /* Internal mask for ADC group regular sequencer:                             */
  49:Drivers/STM32G4xx_HAL_Driver/Inc/stm32g4xx_ll_adc.h **** /* To select into literal LL_ADC_REG_RANK_x the relevant bits for:            */
  50:Drivers/STM32G4xx_HAL_Driver/Inc/stm32g4xx_ll_adc.h **** /* - sequencer register offset                                                */
  51:Drivers/STM32G4xx_HAL_Driver/Inc/stm32g4xx_ll_adc.h **** /* - sequencer rank bits position into the selected register                  */
  52:Drivers/STM32G4xx_HAL_Driver/Inc/stm32g4xx_ll_adc.h **** 
  53:Drivers/STM32G4xx_HAL_Driver/Inc/stm32g4xx_ll_adc.h **** /* Internal register offset for ADC group regular sequencer configuration */
  54:Drivers/STM32G4xx_HAL_Driver/Inc/stm32g4xx_ll_adc.h **** /* (offset placed into a spare area of literal definition) */
  55:Drivers/STM32G4xx_HAL_Driver/Inc/stm32g4xx_ll_adc.h **** #define ADC_SQR1_REGOFFSET                 (0x00000000UL)
  56:Drivers/STM32G4xx_HAL_Driver/Inc/stm32g4xx_ll_adc.h **** #define ADC_SQR2_REGOFFSET                 (0x00000100UL)
  57:Drivers/STM32G4xx_HAL_Driver/Inc/stm32g4xx_ll_adc.h **** #define ADC_SQR3_REGOFFSET                 (0x00000200UL)
  58:Drivers/STM32G4xx_HAL_Driver/Inc/stm32g4xx_ll_adc.h **** #define ADC_SQR4_REGOFFSET                 (0x00000300UL)
  59:Drivers/STM32G4xx_HAL_Driver/Inc/stm32g4xx_ll_adc.h **** 
  60:Drivers/STM32G4xx_HAL_Driver/Inc/stm32g4xx_ll_adc.h **** #define ADC_REG_SQRX_REGOFFSET_MASK        (ADC_SQR1_REGOFFSET | ADC_SQR2_REGOFFSET \
  61:Drivers/STM32G4xx_HAL_Driver/Inc/stm32g4xx_ll_adc.h ****                                             | ADC_SQR3_REGOFFSET | ADC_SQR4_REGOFFSET)
  62:Drivers/STM32G4xx_HAL_Driver/Inc/stm32g4xx_ll_adc.h **** #define ADC_SQRX_REGOFFSET_POS             (8UL) /* Position of bits ADC_SQRx_REGOFFSET in ADC_REG_
  63:Drivers/STM32G4xx_HAL_Driver/Inc/stm32g4xx_ll_adc.h **** #define ADC_REG_RANK_ID_SQRX_MASK          (ADC_CHANNEL_ID_NUMBER_MASK_POSBIT0)
  64:Drivers/STM32G4xx_HAL_Driver/Inc/stm32g4xx_ll_adc.h **** 
  65:Drivers/STM32G4xx_HAL_Driver/Inc/stm32g4xx_ll_adc.h **** /* Definition of ADC group regular sequencer bits information to be inserted  */
  66:Drivers/STM32G4xx_HAL_Driver/Inc/stm32g4xx_ll_adc.h **** /* into ADC group regular sequencer ranks literals definition.                */
  67:Drivers/STM32G4xx_HAL_Driver/Inc/stm32g4xx_ll_adc.h **** #define ADC_REG_RANK_1_SQRX_BITOFFSET_POS  (ADC_SQR1_SQ1_Pos)
  68:Drivers/STM32G4xx_HAL_Driver/Inc/stm32g4xx_ll_adc.h **** #define ADC_REG_RANK_2_SQRX_BITOFFSET_POS  (ADC_SQR1_SQ2_Pos)
  69:Drivers/STM32G4xx_HAL_Driver/Inc/stm32g4xx_ll_adc.h **** #define ADC_REG_RANK_3_SQRX_BITOFFSET_POS  (ADC_SQR1_SQ3_Pos)
  70:Drivers/STM32G4xx_HAL_Driver/Inc/stm32g4xx_ll_adc.h **** #define ADC_REG_RANK_4_SQRX_BITOFFSET_POS  (ADC_SQR1_SQ4_Pos)
  71:Drivers/STM32G4xx_HAL_Driver/Inc/stm32g4xx_ll_adc.h **** #define ADC_REG_RANK_5_SQRX_BITOFFSET_POS  (ADC_SQR2_SQ5_Pos)
  72:Drivers/STM32G4xx_HAL_Driver/Inc/stm32g4xx_ll_adc.h **** #define ADC_REG_RANK_6_SQRX_BITOFFSET_POS  (ADC_SQR2_SQ6_Pos)
  73:Drivers/STM32G4xx_HAL_Driver/Inc/stm32g4xx_ll_adc.h **** #define ADC_REG_RANK_7_SQRX_BITOFFSET_POS  (ADC_SQR2_SQ7_Pos)
  74:Drivers/STM32G4xx_HAL_Driver/Inc/stm32g4xx_ll_adc.h **** #define ADC_REG_RANK_8_SQRX_BITOFFSET_POS  (ADC_SQR2_SQ8_Pos)
  75:Drivers/STM32G4xx_HAL_Driver/Inc/stm32g4xx_ll_adc.h **** #define ADC_REG_RANK_9_SQRX_BITOFFSET_POS  (ADC_SQR2_SQ9_Pos)
  76:Drivers/STM32G4xx_HAL_Driver/Inc/stm32g4xx_ll_adc.h **** #define ADC_REG_RANK_10_SQRX_BITOFFSET_POS (ADC_SQR3_SQ10_Pos)
  77:Drivers/STM32G4xx_HAL_Driver/Inc/stm32g4xx_ll_adc.h **** #define ADC_REG_RANK_11_SQRX_BITOFFSET_POS (ADC_SQR3_SQ11_Pos)
  78:Drivers/STM32G4xx_HAL_Driver/Inc/stm32g4xx_ll_adc.h **** #define ADC_REG_RANK_12_SQRX_BITOFFSET_POS (ADC_SQR3_SQ12_Pos)
  79:Drivers/STM32G4xx_HAL_Driver/Inc/stm32g4xx_ll_adc.h **** #define ADC_REG_RANK_13_SQRX_BITOFFSET_POS (ADC_SQR3_SQ13_Pos)
  80:Drivers/STM32G4xx_HAL_Driver/Inc/stm32g4xx_ll_adc.h **** #define ADC_REG_RANK_14_SQRX_BITOFFSET_POS (ADC_SQR3_SQ14_Pos)
  81:Drivers/STM32G4xx_HAL_Driver/Inc/stm32g4xx_ll_adc.h **** #define ADC_REG_RANK_15_SQRX_BITOFFSET_POS (ADC_SQR4_SQ15_Pos)
  82:Drivers/STM32G4xx_HAL_Driver/Inc/stm32g4xx_ll_adc.h **** #define ADC_REG_RANK_16_SQRX_BITOFFSET_POS (ADC_SQR4_SQ16_Pos)
  83:Drivers/STM32G4xx_HAL_Driver/Inc/stm32g4xx_ll_adc.h **** 
  84:Drivers/STM32G4xx_HAL_Driver/Inc/stm32g4xx_ll_adc.h **** 
  85:Drivers/STM32G4xx_HAL_Driver/Inc/stm32g4xx_ll_adc.h **** 
  86:Drivers/STM32G4xx_HAL_Driver/Inc/stm32g4xx_ll_adc.h **** /* Internal mask for ADC group injected sequencer:                            */
ARM GAS  /tmp/cc4nYBwt.s 			page 52


  87:Drivers/STM32G4xx_HAL_Driver/Inc/stm32g4xx_ll_adc.h **** /* To select into literal LL_ADC_INJ_RANK_x the relevant bits for:            */
  88:Drivers/STM32G4xx_HAL_Driver/Inc/stm32g4xx_ll_adc.h **** /* - data register offset                                                     */
  89:Drivers/STM32G4xx_HAL_Driver/Inc/stm32g4xx_ll_adc.h **** /* - sequencer rank bits position into the selected register                  */
  90:Drivers/STM32G4xx_HAL_Driver/Inc/stm32g4xx_ll_adc.h **** 
  91:Drivers/STM32G4xx_HAL_Driver/Inc/stm32g4xx_ll_adc.h **** /* Internal register offset for ADC group injected data register */
  92:Drivers/STM32G4xx_HAL_Driver/Inc/stm32g4xx_ll_adc.h **** /* (offset placed into a spare area of literal definition) */
  93:Drivers/STM32G4xx_HAL_Driver/Inc/stm32g4xx_ll_adc.h **** #define ADC_JDR1_REGOFFSET                 (0x00000000UL)
  94:Drivers/STM32G4xx_HAL_Driver/Inc/stm32g4xx_ll_adc.h **** #define ADC_JDR2_REGOFFSET                 (0x00000100UL)
  95:Drivers/STM32G4xx_HAL_Driver/Inc/stm32g4xx_ll_adc.h **** #define ADC_JDR3_REGOFFSET                 (0x00000200UL)
  96:Drivers/STM32G4xx_HAL_Driver/Inc/stm32g4xx_ll_adc.h **** #define ADC_JDR4_REGOFFSET                 (0x00000300UL)
  97:Drivers/STM32G4xx_HAL_Driver/Inc/stm32g4xx_ll_adc.h **** 
  98:Drivers/STM32G4xx_HAL_Driver/Inc/stm32g4xx_ll_adc.h **** #define ADC_INJ_JDRX_REGOFFSET_MASK        (ADC_JDR1_REGOFFSET | ADC_JDR2_REGOFFSET \
  99:Drivers/STM32G4xx_HAL_Driver/Inc/stm32g4xx_ll_adc.h ****                                             | ADC_JDR3_REGOFFSET | ADC_JDR4_REGOFFSET)
 100:Drivers/STM32G4xx_HAL_Driver/Inc/stm32g4xx_ll_adc.h **** #define ADC_INJ_RANK_ID_JSQR_MASK          (ADC_CHANNEL_ID_NUMBER_MASK_POSBIT0)
 101:Drivers/STM32G4xx_HAL_Driver/Inc/stm32g4xx_ll_adc.h **** #define ADC_JDRX_REGOFFSET_POS             (8UL) /* Position of bits ADC_JDRx_REGOFFSET in ADC_INJ_
 102:Drivers/STM32G4xx_HAL_Driver/Inc/stm32g4xx_ll_adc.h **** 
 103:Drivers/STM32G4xx_HAL_Driver/Inc/stm32g4xx_ll_adc.h **** /* Definition of ADC group injected sequencer bits information to be inserted */
 104:Drivers/STM32G4xx_HAL_Driver/Inc/stm32g4xx_ll_adc.h **** /* into ADC group injected sequencer ranks literals definition.               */
 105:Drivers/STM32G4xx_HAL_Driver/Inc/stm32g4xx_ll_adc.h **** #define ADC_INJ_RANK_1_JSQR_BITOFFSET_POS  (ADC_JSQR_JSQ1_Pos)
 106:Drivers/STM32G4xx_HAL_Driver/Inc/stm32g4xx_ll_adc.h **** #define ADC_INJ_RANK_2_JSQR_BITOFFSET_POS  (ADC_JSQR_JSQ2_Pos)
 107:Drivers/STM32G4xx_HAL_Driver/Inc/stm32g4xx_ll_adc.h **** #define ADC_INJ_RANK_3_JSQR_BITOFFSET_POS  (ADC_JSQR_JSQ3_Pos)
 108:Drivers/STM32G4xx_HAL_Driver/Inc/stm32g4xx_ll_adc.h **** #define ADC_INJ_RANK_4_JSQR_BITOFFSET_POS  (ADC_JSQR_JSQ4_Pos)
 109:Drivers/STM32G4xx_HAL_Driver/Inc/stm32g4xx_ll_adc.h **** 
 110:Drivers/STM32G4xx_HAL_Driver/Inc/stm32g4xx_ll_adc.h **** 
 111:Drivers/STM32G4xx_HAL_Driver/Inc/stm32g4xx_ll_adc.h **** 
 112:Drivers/STM32G4xx_HAL_Driver/Inc/stm32g4xx_ll_adc.h **** /* Internal mask for ADC group regular trigger:                               */
 113:Drivers/STM32G4xx_HAL_Driver/Inc/stm32g4xx_ll_adc.h **** /* To select into literal LL_ADC_REG_TRIG_x the relevant bits for:            */
 114:Drivers/STM32G4xx_HAL_Driver/Inc/stm32g4xx_ll_adc.h **** /* - regular trigger source                                                   */
 115:Drivers/STM32G4xx_HAL_Driver/Inc/stm32g4xx_ll_adc.h **** /* - regular trigger edge                                                     */
 116:Drivers/STM32G4xx_HAL_Driver/Inc/stm32g4xx_ll_adc.h **** #define ADC_REG_TRIG_EXT_EDGE_DEFAULT      (ADC_CFGR_EXTEN_0) /* Trigger edge set to rising edge (d
 117:Drivers/STM32G4xx_HAL_Driver/Inc/stm32g4xx_ll_adc.h ****                                                                  compatibility with some ADC on oth
 118:Drivers/STM32G4xx_HAL_Driver/Inc/stm32g4xx_ll_adc.h ****                                                                  having this setting set by HW defa
 119:Drivers/STM32G4xx_HAL_Driver/Inc/stm32g4xx_ll_adc.h **** 
 120:Drivers/STM32G4xx_HAL_Driver/Inc/stm32g4xx_ll_adc.h **** /* Mask containing trigger source masks for each of possible                  */
 121:Drivers/STM32G4xx_HAL_Driver/Inc/stm32g4xx_ll_adc.h **** /* trigger edge selection duplicated with shifts [0; 4; 8; 12]                */
 122:Drivers/STM32G4xx_HAL_Driver/Inc/stm32g4xx_ll_adc.h **** /* corresponding to {SW start; ext trigger; ext trigger; ext trigger}.        */
 123:Drivers/STM32G4xx_HAL_Driver/Inc/stm32g4xx_ll_adc.h **** #define ADC_REG_TRIG_SOURCE_MASK           (((LL_ADC_REG_TRIG_SOFTWARE & ADC_CFGR_EXTSEL) << (4U * 
 124:Drivers/STM32G4xx_HAL_Driver/Inc/stm32g4xx_ll_adc.h ****                                             ((ADC_CFGR_EXTSEL)                            << (4U * 
 125:Drivers/STM32G4xx_HAL_Driver/Inc/stm32g4xx_ll_adc.h ****                                             ((ADC_CFGR_EXTSEL)                            << (4U * 
 126:Drivers/STM32G4xx_HAL_Driver/Inc/stm32g4xx_ll_adc.h ****                                             ((ADC_CFGR_EXTSEL)                            << (4U * 
 127:Drivers/STM32G4xx_HAL_Driver/Inc/stm32g4xx_ll_adc.h **** 
 128:Drivers/STM32G4xx_HAL_Driver/Inc/stm32g4xx_ll_adc.h **** /* Mask containing trigger edge masks for each of possible                    */
 129:Drivers/STM32G4xx_HAL_Driver/Inc/stm32g4xx_ll_adc.h **** /* trigger edge selection duplicated with shifts [0; 4; 8; 12]                */
 130:Drivers/STM32G4xx_HAL_Driver/Inc/stm32g4xx_ll_adc.h **** /* corresponding to {SW start; ext trigger; ext trigger; ext trigger}.        */
 131:Drivers/STM32G4xx_HAL_Driver/Inc/stm32g4xx_ll_adc.h **** #define ADC_REG_TRIG_EDGE_MASK             (((LL_ADC_REG_TRIG_SOFTWARE & ADC_CFGR_EXTEN) << (4U * 0
 132:Drivers/STM32G4xx_HAL_Driver/Inc/stm32g4xx_ll_adc.h ****                                             ((ADC_REG_TRIG_EXT_EDGE_DEFAULT)             << (4U * 1
 133:Drivers/STM32G4xx_HAL_Driver/Inc/stm32g4xx_ll_adc.h ****                                             ((ADC_REG_TRIG_EXT_EDGE_DEFAULT)             << (4U * 2
 134:Drivers/STM32G4xx_HAL_Driver/Inc/stm32g4xx_ll_adc.h ****                                             ((ADC_REG_TRIG_EXT_EDGE_DEFAULT)             << (4U * 3
 135:Drivers/STM32G4xx_HAL_Driver/Inc/stm32g4xx_ll_adc.h **** 
 136:Drivers/STM32G4xx_HAL_Driver/Inc/stm32g4xx_ll_adc.h **** /* Definition of ADC group regular trigger bits information.                  */
 137:Drivers/STM32G4xx_HAL_Driver/Inc/stm32g4xx_ll_adc.h **** #define ADC_REG_TRIG_EXTSEL_BITOFFSET_POS  (ADC_CFGR_EXTSEL_Pos)
 138:Drivers/STM32G4xx_HAL_Driver/Inc/stm32g4xx_ll_adc.h **** #define ADC_REG_TRIG_EXTEN_BITOFFSET_POS   (ADC_CFGR_EXTEN_Pos)
 139:Drivers/STM32G4xx_HAL_Driver/Inc/stm32g4xx_ll_adc.h **** 
 140:Drivers/STM32G4xx_HAL_Driver/Inc/stm32g4xx_ll_adc.h **** 
 141:Drivers/STM32G4xx_HAL_Driver/Inc/stm32g4xx_ll_adc.h **** 
 142:Drivers/STM32G4xx_HAL_Driver/Inc/stm32g4xx_ll_adc.h **** /* Internal mask for ADC group injected trigger:                              */
 143:Drivers/STM32G4xx_HAL_Driver/Inc/stm32g4xx_ll_adc.h **** /* To select into literal LL_ADC_INJ_TRIG_x the relevant bits for:            */
ARM GAS  /tmp/cc4nYBwt.s 			page 53


 144:Drivers/STM32G4xx_HAL_Driver/Inc/stm32g4xx_ll_adc.h **** /* - injected trigger source                                                  */
 145:Drivers/STM32G4xx_HAL_Driver/Inc/stm32g4xx_ll_adc.h **** /* - injected trigger edge                                                    */
 146:Drivers/STM32G4xx_HAL_Driver/Inc/stm32g4xx_ll_adc.h **** #define ADC_INJ_TRIG_EXT_EDGE_DEFAULT      (ADC_JSQR_JEXTEN_0) /* Trigger edge set to rising edge (
 147:Drivers/STM32G4xx_HAL_Driver/Inc/stm32g4xx_ll_adc.h ****                                                                   compatibility with some ADC on ot
 148:Drivers/STM32G4xx_HAL_Driver/Inc/stm32g4xx_ll_adc.h ****                                                                   having this setting set by HW def
 149:Drivers/STM32G4xx_HAL_Driver/Inc/stm32g4xx_ll_adc.h **** 
 150:Drivers/STM32G4xx_HAL_Driver/Inc/stm32g4xx_ll_adc.h **** /* Mask containing trigger source masks for each of possible                  */
 151:Drivers/STM32G4xx_HAL_Driver/Inc/stm32g4xx_ll_adc.h **** /* trigger edge selection duplicated with shifts [0; 4; 8; 12]                */
 152:Drivers/STM32G4xx_HAL_Driver/Inc/stm32g4xx_ll_adc.h **** /* corresponding to {SW start; ext trigger; ext trigger; ext trigger}.        */
 153:Drivers/STM32G4xx_HAL_Driver/Inc/stm32g4xx_ll_adc.h **** #define ADC_INJ_TRIG_SOURCE_MASK           (((LL_ADC_INJ_TRIG_SOFTWARE & ADC_JSQR_JEXTSEL)  << (4U 
 154:Drivers/STM32G4xx_HAL_Driver/Inc/stm32g4xx_ll_adc.h ****                                             ((ADC_JSQR_JEXTSEL)                             << (4U 
 155:Drivers/STM32G4xx_HAL_Driver/Inc/stm32g4xx_ll_adc.h ****                                             ((ADC_JSQR_JEXTSEL)                             << (4U 
 156:Drivers/STM32G4xx_HAL_Driver/Inc/stm32g4xx_ll_adc.h ****                                             ((ADC_JSQR_JEXTSEL)                             << (4U 
 157:Drivers/STM32G4xx_HAL_Driver/Inc/stm32g4xx_ll_adc.h **** 
 158:Drivers/STM32G4xx_HAL_Driver/Inc/stm32g4xx_ll_adc.h **** /* Mask containing trigger edge masks for each of possible                    */
 159:Drivers/STM32G4xx_HAL_Driver/Inc/stm32g4xx_ll_adc.h **** /* trigger edge selection duplicated with shifts [0; 4; 8; 12]                */
 160:Drivers/STM32G4xx_HAL_Driver/Inc/stm32g4xx_ll_adc.h **** /* corresponding to {SW start; ext trigger; ext trigger; ext trigger}.        */
 161:Drivers/STM32G4xx_HAL_Driver/Inc/stm32g4xx_ll_adc.h **** #define ADC_INJ_TRIG_EDGE_MASK             (((LL_ADC_INJ_TRIG_SOFTWARE & ADC_JSQR_JEXTEN) << (4U * 
 162:Drivers/STM32G4xx_HAL_Driver/Inc/stm32g4xx_ll_adc.h ****                                             ((ADC_INJ_TRIG_EXT_EDGE_DEFAULT)              << (4U * 
 163:Drivers/STM32G4xx_HAL_Driver/Inc/stm32g4xx_ll_adc.h ****                                             ((ADC_INJ_TRIG_EXT_EDGE_DEFAULT)              << (4U * 
 164:Drivers/STM32G4xx_HAL_Driver/Inc/stm32g4xx_ll_adc.h ****                                             ((ADC_INJ_TRIG_EXT_EDGE_DEFAULT)              << (4U * 
 165:Drivers/STM32G4xx_HAL_Driver/Inc/stm32g4xx_ll_adc.h **** 
 166:Drivers/STM32G4xx_HAL_Driver/Inc/stm32g4xx_ll_adc.h **** /* Definition of ADC group injected trigger bits information.                 */
 167:Drivers/STM32G4xx_HAL_Driver/Inc/stm32g4xx_ll_adc.h **** #define ADC_INJ_TRIG_EXTSEL_BITOFFSET_POS  (ADC_JSQR_JEXTSEL_Pos)
 168:Drivers/STM32G4xx_HAL_Driver/Inc/stm32g4xx_ll_adc.h **** #define ADC_INJ_TRIG_EXTEN_BITOFFSET_POS   (ADC_JSQR_JEXTEN_Pos)
 169:Drivers/STM32G4xx_HAL_Driver/Inc/stm32g4xx_ll_adc.h **** 
 170:Drivers/STM32G4xx_HAL_Driver/Inc/stm32g4xx_ll_adc.h **** 
 171:Drivers/STM32G4xx_HAL_Driver/Inc/stm32g4xx_ll_adc.h **** 
 172:Drivers/STM32G4xx_HAL_Driver/Inc/stm32g4xx_ll_adc.h **** 
 173:Drivers/STM32G4xx_HAL_Driver/Inc/stm32g4xx_ll_adc.h **** 
 174:Drivers/STM32G4xx_HAL_Driver/Inc/stm32g4xx_ll_adc.h **** 
 175:Drivers/STM32G4xx_HAL_Driver/Inc/stm32g4xx_ll_adc.h **** /* Internal mask for ADC channel:                                             */
 176:Drivers/STM32G4xx_HAL_Driver/Inc/stm32g4xx_ll_adc.h **** /* To select into literal LL_ADC_CHANNEL_x the relevant bits for:             */
 177:Drivers/STM32G4xx_HAL_Driver/Inc/stm32g4xx_ll_adc.h **** /* - channel identifier defined by number                                     */
 178:Drivers/STM32G4xx_HAL_Driver/Inc/stm32g4xx_ll_adc.h **** /* - channel identifier defined by bitfield                                   */
 179:Drivers/STM32G4xx_HAL_Driver/Inc/stm32g4xx_ll_adc.h **** /* - channel differentiation between external channels (connected to          */
 180:Drivers/STM32G4xx_HAL_Driver/Inc/stm32g4xx_ll_adc.h **** /*   GPIO pins) and internal channels (connected to internal paths)           */
 181:Drivers/STM32G4xx_HAL_Driver/Inc/stm32g4xx_ll_adc.h **** /* - channel sampling time defined by SMPRx register offset                   */
 182:Drivers/STM32G4xx_HAL_Driver/Inc/stm32g4xx_ll_adc.h **** /*   and SMPx bits positions into SMPRx register                              */
 183:Drivers/STM32G4xx_HAL_Driver/Inc/stm32g4xx_ll_adc.h **** #define ADC_CHANNEL_ID_NUMBER_MASK         (ADC_CFGR_AWD1CH)
 184:Drivers/STM32G4xx_HAL_Driver/Inc/stm32g4xx_ll_adc.h **** #define ADC_CHANNEL_ID_BITFIELD_MASK       (ADC_AWD2CR_AWD2CH)
 185:Drivers/STM32G4xx_HAL_Driver/Inc/stm32g4xx_ll_adc.h **** #define ADC_CHANNEL_ID_NUMBER_BITOFFSET_POS (ADC_CFGR_AWD1CH_Pos)
 186:Drivers/STM32G4xx_HAL_Driver/Inc/stm32g4xx_ll_adc.h **** #define ADC_CHANNEL_ID_MASK                (ADC_CHANNEL_ID_NUMBER_MASK | ADC_CHANNEL_ID_BITFIELD_MA
 187:Drivers/STM32G4xx_HAL_Driver/Inc/stm32g4xx_ll_adc.h ****                                             | ADC_CHANNEL_ID_INTERNAL_CH_MASK)
 188:Drivers/STM32G4xx_HAL_Driver/Inc/stm32g4xx_ll_adc.h **** /* Equivalent mask of ADC_CHANNEL_NUMBER_MASK aligned on register LSB (bit 0) */
 189:Drivers/STM32G4xx_HAL_Driver/Inc/stm32g4xx_ll_adc.h **** #define ADC_CHANNEL_ID_NUMBER_MASK_POSBIT0 (ADC_SQR2_SQ5) /* Equivalent to shift: (ADC_CHANNEL_NUMB
 190:Drivers/STM32G4xx_HAL_Driver/Inc/stm32g4xx_ll_adc.h ****   >> [Position of bitfield "ADC_CHANNEL_NUMBER_MASK" in register]) */
 191:Drivers/STM32G4xx_HAL_Driver/Inc/stm32g4xx_ll_adc.h **** 
 192:Drivers/STM32G4xx_HAL_Driver/Inc/stm32g4xx_ll_adc.h **** /* Channel differentiation between external and internal channels */
 193:Drivers/STM32G4xx_HAL_Driver/Inc/stm32g4xx_ll_adc.h **** #define ADC_CHANNEL_ID_INTERNAL_CH         (0x80000000UL) /* Marker of internal channel */
 194:Drivers/STM32G4xx_HAL_Driver/Inc/stm32g4xx_ll_adc.h **** #define ADC_CHANNEL_ID_INTERNAL_CH_2       (0x00080000UL) /* Marker of internal channel for other A
 195:Drivers/STM32G4xx_HAL_Driver/Inc/stm32g4xx_ll_adc.h ****                                                              of different ADC internal channels map
 196:Drivers/STM32G4xx_HAL_Driver/Inc/stm32g4xx_ll_adc.h ****                                                              number on different ADC instances */
 197:Drivers/STM32G4xx_HAL_Driver/Inc/stm32g4xx_ll_adc.h **** #define ADC_CHANNEL_ID_INTERNAL_CH_MASK    (ADC_CHANNEL_ID_INTERNAL_CH | ADC_CHANNEL_ID_INTERNAL_CH
 198:Drivers/STM32G4xx_HAL_Driver/Inc/stm32g4xx_ll_adc.h **** 
 199:Drivers/STM32G4xx_HAL_Driver/Inc/stm32g4xx_ll_adc.h **** /* Internal register offset for ADC channel sampling time configuration */
 200:Drivers/STM32G4xx_HAL_Driver/Inc/stm32g4xx_ll_adc.h **** /* (offset placed into a spare area of literal definition) */
ARM GAS  /tmp/cc4nYBwt.s 			page 54


 201:Drivers/STM32G4xx_HAL_Driver/Inc/stm32g4xx_ll_adc.h **** #define ADC_SMPR1_REGOFFSET                (0x00000000UL)
 202:Drivers/STM32G4xx_HAL_Driver/Inc/stm32g4xx_ll_adc.h **** #define ADC_SMPR2_REGOFFSET                (0x02000000UL)
 203:Drivers/STM32G4xx_HAL_Driver/Inc/stm32g4xx_ll_adc.h **** #define ADC_CHANNEL_SMPRX_REGOFFSET_MASK   (ADC_SMPR1_REGOFFSET | ADC_SMPR2_REGOFFSET)
 204:Drivers/STM32G4xx_HAL_Driver/Inc/stm32g4xx_ll_adc.h **** #define ADC_SMPRX_REGOFFSET_POS            (25UL)           /* Position of bits ADC_SMPRx_REGOFFSET
 205:Drivers/STM32G4xx_HAL_Driver/Inc/stm32g4xx_ll_adc.h ****                                                                in ADC_CHANNEL_SMPRX_REGOFFSET_MASK 
 206:Drivers/STM32G4xx_HAL_Driver/Inc/stm32g4xx_ll_adc.h **** 
 207:Drivers/STM32G4xx_HAL_Driver/Inc/stm32g4xx_ll_adc.h **** #define ADC_CHANNEL_SMPx_BITOFFSET_MASK    (0x01F00000UL)
 208:Drivers/STM32G4xx_HAL_Driver/Inc/stm32g4xx_ll_adc.h **** #define ADC_CHANNEL_SMPx_BITOFFSET_POS     (20UL)           /* Equivalent to bitfield "ADC_CHANNEL_
 209:Drivers/STM32G4xx_HAL_Driver/Inc/stm32g4xx_ll_adc.h ****                                                                position in register */
 210:Drivers/STM32G4xx_HAL_Driver/Inc/stm32g4xx_ll_adc.h **** 
 211:Drivers/STM32G4xx_HAL_Driver/Inc/stm32g4xx_ll_adc.h **** /* Definition of channels ID number information to be inserted into           */
 212:Drivers/STM32G4xx_HAL_Driver/Inc/stm32g4xx_ll_adc.h **** /* channels literals definition.                                              */
 213:Drivers/STM32G4xx_HAL_Driver/Inc/stm32g4xx_ll_adc.h **** #define ADC_CHANNEL_0_NUMBER               (0x00000000UL)
 214:Drivers/STM32G4xx_HAL_Driver/Inc/stm32g4xx_ll_adc.h **** #define ADC_CHANNEL_1_NUMBER               (ADC_CFGR_AWD1CH_0)
 215:Drivers/STM32G4xx_HAL_Driver/Inc/stm32g4xx_ll_adc.h **** #define ADC_CHANNEL_2_NUMBER               (ADC_CFGR_AWD1CH_1)
 216:Drivers/STM32G4xx_HAL_Driver/Inc/stm32g4xx_ll_adc.h **** #define ADC_CHANNEL_3_NUMBER               (ADC_CFGR_AWD1CH_1 | ADC_CFGR_AWD1CH_0)
 217:Drivers/STM32G4xx_HAL_Driver/Inc/stm32g4xx_ll_adc.h **** #define ADC_CHANNEL_4_NUMBER               (ADC_CFGR_AWD1CH_2)
 218:Drivers/STM32G4xx_HAL_Driver/Inc/stm32g4xx_ll_adc.h **** #define ADC_CHANNEL_5_NUMBER               (ADC_CFGR_AWD1CH_2 | ADC_CFGR_AWD1CH_0)
 219:Drivers/STM32G4xx_HAL_Driver/Inc/stm32g4xx_ll_adc.h **** #define ADC_CHANNEL_6_NUMBER               (ADC_CFGR_AWD1CH_2 | ADC_CFGR_AWD1CH_1)
 220:Drivers/STM32G4xx_HAL_Driver/Inc/stm32g4xx_ll_adc.h **** #define ADC_CHANNEL_7_NUMBER               (ADC_CFGR_AWD1CH_2 | ADC_CFGR_AWD1CH_1 | ADC_CFGR_AWD1CH
 221:Drivers/STM32G4xx_HAL_Driver/Inc/stm32g4xx_ll_adc.h **** #define ADC_CHANNEL_8_NUMBER               (ADC_CFGR_AWD1CH_3)
 222:Drivers/STM32G4xx_HAL_Driver/Inc/stm32g4xx_ll_adc.h **** #define ADC_CHANNEL_9_NUMBER               (ADC_CFGR_AWD1CH_3 | ADC_CFGR_AWD1CH_0)
 223:Drivers/STM32G4xx_HAL_Driver/Inc/stm32g4xx_ll_adc.h **** #define ADC_CHANNEL_10_NUMBER              (ADC_CFGR_AWD1CH_3 | ADC_CFGR_AWD1CH_1)
 224:Drivers/STM32G4xx_HAL_Driver/Inc/stm32g4xx_ll_adc.h **** #define ADC_CHANNEL_11_NUMBER              (ADC_CFGR_AWD1CH_3 | ADC_CFGR_AWD1CH_1 | ADC_CFGR_AWD1CH
 225:Drivers/STM32G4xx_HAL_Driver/Inc/stm32g4xx_ll_adc.h **** #define ADC_CHANNEL_12_NUMBER              (ADC_CFGR_AWD1CH_3 | ADC_CFGR_AWD1CH_2)
 226:Drivers/STM32G4xx_HAL_Driver/Inc/stm32g4xx_ll_adc.h **** #define ADC_CHANNEL_13_NUMBER              (ADC_CFGR_AWD1CH_3 | ADC_CFGR_AWD1CH_2 | ADC_CFGR_AWD1CH
 227:Drivers/STM32G4xx_HAL_Driver/Inc/stm32g4xx_ll_adc.h **** #define ADC_CHANNEL_14_NUMBER              (ADC_CFGR_AWD1CH_3 | ADC_CFGR_AWD1CH_2 | ADC_CFGR_AWD1CH
 228:Drivers/STM32G4xx_HAL_Driver/Inc/stm32g4xx_ll_adc.h **** #define ADC_CHANNEL_15_NUMBER              (ADC_CFGR_AWD1CH_3 | ADC_CFGR_AWD1CH_2 | \
 229:Drivers/STM32G4xx_HAL_Driver/Inc/stm32g4xx_ll_adc.h ****                                             ADC_CFGR_AWD1CH_1 | ADC_CFGR_AWD1CH_0)
 230:Drivers/STM32G4xx_HAL_Driver/Inc/stm32g4xx_ll_adc.h **** #define ADC_CHANNEL_16_NUMBER              (ADC_CFGR_AWD1CH_4)
 231:Drivers/STM32G4xx_HAL_Driver/Inc/stm32g4xx_ll_adc.h **** #define ADC_CHANNEL_17_NUMBER              (ADC_CFGR_AWD1CH_4 | ADC_CFGR_AWD1CH_0)
 232:Drivers/STM32G4xx_HAL_Driver/Inc/stm32g4xx_ll_adc.h **** #define ADC_CHANNEL_18_NUMBER              (ADC_CFGR_AWD1CH_4 | ADC_CFGR_AWD1CH_1)
 233:Drivers/STM32G4xx_HAL_Driver/Inc/stm32g4xx_ll_adc.h **** 
 234:Drivers/STM32G4xx_HAL_Driver/Inc/stm32g4xx_ll_adc.h **** /* Definition of channels ID bitfield information to be inserted into         */
 235:Drivers/STM32G4xx_HAL_Driver/Inc/stm32g4xx_ll_adc.h **** /* channels literals definition.                                              */
 236:Drivers/STM32G4xx_HAL_Driver/Inc/stm32g4xx_ll_adc.h **** #define ADC_CHANNEL_0_BITFIELD             (ADC_AWD2CR_AWD2CH_0)
 237:Drivers/STM32G4xx_HAL_Driver/Inc/stm32g4xx_ll_adc.h **** #define ADC_CHANNEL_1_BITFIELD             (ADC_AWD2CR_AWD2CH_1)
 238:Drivers/STM32G4xx_HAL_Driver/Inc/stm32g4xx_ll_adc.h **** #define ADC_CHANNEL_2_BITFIELD             (ADC_AWD2CR_AWD2CH_2)
 239:Drivers/STM32G4xx_HAL_Driver/Inc/stm32g4xx_ll_adc.h **** #define ADC_CHANNEL_3_BITFIELD             (ADC_AWD2CR_AWD2CH_3)
 240:Drivers/STM32G4xx_HAL_Driver/Inc/stm32g4xx_ll_adc.h **** #define ADC_CHANNEL_4_BITFIELD             (ADC_AWD2CR_AWD2CH_4)
 241:Drivers/STM32G4xx_HAL_Driver/Inc/stm32g4xx_ll_adc.h **** #define ADC_CHANNEL_5_BITFIELD             (ADC_AWD2CR_AWD2CH_5)
 242:Drivers/STM32G4xx_HAL_Driver/Inc/stm32g4xx_ll_adc.h **** #define ADC_CHANNEL_6_BITFIELD             (ADC_AWD2CR_AWD2CH_6)
 243:Drivers/STM32G4xx_HAL_Driver/Inc/stm32g4xx_ll_adc.h **** #define ADC_CHANNEL_7_BITFIELD             (ADC_AWD2CR_AWD2CH_7)
 244:Drivers/STM32G4xx_HAL_Driver/Inc/stm32g4xx_ll_adc.h **** #define ADC_CHANNEL_8_BITFIELD             (ADC_AWD2CR_AWD2CH_8)
 245:Drivers/STM32G4xx_HAL_Driver/Inc/stm32g4xx_ll_adc.h **** #define ADC_CHANNEL_9_BITFIELD             (ADC_AWD2CR_AWD2CH_9)
 246:Drivers/STM32G4xx_HAL_Driver/Inc/stm32g4xx_ll_adc.h **** #define ADC_CHANNEL_10_BITFIELD            (ADC_AWD2CR_AWD2CH_10)
 247:Drivers/STM32G4xx_HAL_Driver/Inc/stm32g4xx_ll_adc.h **** #define ADC_CHANNEL_11_BITFIELD            (ADC_AWD2CR_AWD2CH_11)
 248:Drivers/STM32G4xx_HAL_Driver/Inc/stm32g4xx_ll_adc.h **** #define ADC_CHANNEL_12_BITFIELD            (ADC_AWD2CR_AWD2CH_12)
 249:Drivers/STM32G4xx_HAL_Driver/Inc/stm32g4xx_ll_adc.h **** #define ADC_CHANNEL_13_BITFIELD            (ADC_AWD2CR_AWD2CH_13)
 250:Drivers/STM32G4xx_HAL_Driver/Inc/stm32g4xx_ll_adc.h **** #define ADC_CHANNEL_14_BITFIELD            (ADC_AWD2CR_AWD2CH_14)
 251:Drivers/STM32G4xx_HAL_Driver/Inc/stm32g4xx_ll_adc.h **** #define ADC_CHANNEL_15_BITFIELD            (ADC_AWD2CR_AWD2CH_15)
 252:Drivers/STM32G4xx_HAL_Driver/Inc/stm32g4xx_ll_adc.h **** #define ADC_CHANNEL_16_BITFIELD            (ADC_AWD2CR_AWD2CH_16)
 253:Drivers/STM32G4xx_HAL_Driver/Inc/stm32g4xx_ll_adc.h **** #define ADC_CHANNEL_17_BITFIELD            (ADC_AWD2CR_AWD2CH_17)
 254:Drivers/STM32G4xx_HAL_Driver/Inc/stm32g4xx_ll_adc.h **** #define ADC_CHANNEL_18_BITFIELD            (ADC_AWD2CR_AWD2CH_18)
 255:Drivers/STM32G4xx_HAL_Driver/Inc/stm32g4xx_ll_adc.h **** 
 256:Drivers/STM32G4xx_HAL_Driver/Inc/stm32g4xx_ll_adc.h **** /* Definition of channels sampling time information to be inserted into       */
 257:Drivers/STM32G4xx_HAL_Driver/Inc/stm32g4xx_ll_adc.h **** /* channels literals definition.                                              */
ARM GAS  /tmp/cc4nYBwt.s 			page 55


 258:Drivers/STM32G4xx_HAL_Driver/Inc/stm32g4xx_ll_adc.h **** /* Value shifted are equivalent to bitfield "ADC_SMPRx_SMPy" position         */
 259:Drivers/STM32G4xx_HAL_Driver/Inc/stm32g4xx_ll_adc.h **** /* in register.                                                               */
 260:Drivers/STM32G4xx_HAL_Driver/Inc/stm32g4xx_ll_adc.h **** #define ADC_CHANNEL_0_SMP                  (ADC_SMPR1_REGOFFSET | (( 0UL) << ADC_CHANNEL_SMPx_BITOF
 261:Drivers/STM32G4xx_HAL_Driver/Inc/stm32g4xx_ll_adc.h **** #define ADC_CHANNEL_1_SMP                  (ADC_SMPR1_REGOFFSET | (( 3UL) << ADC_CHANNEL_SMPx_BITOF
 262:Drivers/STM32G4xx_HAL_Driver/Inc/stm32g4xx_ll_adc.h **** #define ADC_CHANNEL_2_SMP                  (ADC_SMPR1_REGOFFSET | (( 6UL) << ADC_CHANNEL_SMPx_BITOF
 263:Drivers/STM32G4xx_HAL_Driver/Inc/stm32g4xx_ll_adc.h **** #define ADC_CHANNEL_3_SMP                  (ADC_SMPR1_REGOFFSET | (( 9UL) << ADC_CHANNEL_SMPx_BITOF
 264:Drivers/STM32G4xx_HAL_Driver/Inc/stm32g4xx_ll_adc.h **** #define ADC_CHANNEL_4_SMP                  (ADC_SMPR1_REGOFFSET | ((12UL) << ADC_CHANNEL_SMPx_BITOF
 265:Drivers/STM32G4xx_HAL_Driver/Inc/stm32g4xx_ll_adc.h **** #define ADC_CHANNEL_5_SMP                  (ADC_SMPR1_REGOFFSET | ((15UL) << ADC_CHANNEL_SMPx_BITOF
 266:Drivers/STM32G4xx_HAL_Driver/Inc/stm32g4xx_ll_adc.h **** #define ADC_CHANNEL_6_SMP                  (ADC_SMPR1_REGOFFSET | ((18UL) << ADC_CHANNEL_SMPx_BITOF
 267:Drivers/STM32G4xx_HAL_Driver/Inc/stm32g4xx_ll_adc.h **** #define ADC_CHANNEL_7_SMP                  (ADC_SMPR1_REGOFFSET | ((21UL) << ADC_CHANNEL_SMPx_BITOF
 268:Drivers/STM32G4xx_HAL_Driver/Inc/stm32g4xx_ll_adc.h **** #define ADC_CHANNEL_8_SMP                  (ADC_SMPR1_REGOFFSET | ((24UL) << ADC_CHANNEL_SMPx_BITOF
 269:Drivers/STM32G4xx_HAL_Driver/Inc/stm32g4xx_ll_adc.h **** #define ADC_CHANNEL_9_SMP                  (ADC_SMPR1_REGOFFSET | ((27UL) << ADC_CHANNEL_SMPx_BITOF
 270:Drivers/STM32G4xx_HAL_Driver/Inc/stm32g4xx_ll_adc.h **** #define ADC_CHANNEL_10_SMP                 (ADC_SMPR2_REGOFFSET | (( 0UL) << ADC_CHANNEL_SMPx_BITOF
 271:Drivers/STM32G4xx_HAL_Driver/Inc/stm32g4xx_ll_adc.h **** #define ADC_CHANNEL_11_SMP                 (ADC_SMPR2_REGOFFSET | (( 3UL) << ADC_CHANNEL_SMPx_BITOF
 272:Drivers/STM32G4xx_HAL_Driver/Inc/stm32g4xx_ll_adc.h **** #define ADC_CHANNEL_12_SMP                 (ADC_SMPR2_REGOFFSET | (( 6UL) << ADC_CHANNEL_SMPx_BITOF
 273:Drivers/STM32G4xx_HAL_Driver/Inc/stm32g4xx_ll_adc.h **** #define ADC_CHANNEL_13_SMP                 (ADC_SMPR2_REGOFFSET | (( 9UL) << ADC_CHANNEL_SMPx_BITOF
 274:Drivers/STM32G4xx_HAL_Driver/Inc/stm32g4xx_ll_adc.h **** #define ADC_CHANNEL_14_SMP                 (ADC_SMPR2_REGOFFSET | ((12UL) << ADC_CHANNEL_SMPx_BITOF
 275:Drivers/STM32G4xx_HAL_Driver/Inc/stm32g4xx_ll_adc.h **** #define ADC_CHANNEL_15_SMP                 (ADC_SMPR2_REGOFFSET | ((15UL) << ADC_CHANNEL_SMPx_BITOF
 276:Drivers/STM32G4xx_HAL_Driver/Inc/stm32g4xx_ll_adc.h **** #define ADC_CHANNEL_16_SMP                 (ADC_SMPR2_REGOFFSET | ((18UL) << ADC_CHANNEL_SMPx_BITOF
 277:Drivers/STM32G4xx_HAL_Driver/Inc/stm32g4xx_ll_adc.h **** #define ADC_CHANNEL_17_SMP                 (ADC_SMPR2_REGOFFSET | ((21UL) << ADC_CHANNEL_SMPx_BITOF
 278:Drivers/STM32G4xx_HAL_Driver/Inc/stm32g4xx_ll_adc.h **** #define ADC_CHANNEL_18_SMP                 (ADC_SMPR2_REGOFFSET | ((24UL) << ADC_CHANNEL_SMPx_BITOF
 279:Drivers/STM32G4xx_HAL_Driver/Inc/stm32g4xx_ll_adc.h **** 
 280:Drivers/STM32G4xx_HAL_Driver/Inc/stm32g4xx_ll_adc.h **** 
 281:Drivers/STM32G4xx_HAL_Driver/Inc/stm32g4xx_ll_adc.h **** /* Internal mask for ADC mode single or differential ended:                   */
 282:Drivers/STM32G4xx_HAL_Driver/Inc/stm32g4xx_ll_adc.h **** /* To select into literals LL_ADC_SINGLE_ENDED or LL_ADC_SINGLE_DIFFERENTIAL  */
 283:Drivers/STM32G4xx_HAL_Driver/Inc/stm32g4xx_ll_adc.h **** /* the relevant bits for:                                                     */
 284:Drivers/STM32G4xx_HAL_Driver/Inc/stm32g4xx_ll_adc.h **** /* (concatenation of multiple bits used in different registers)               */
 285:Drivers/STM32G4xx_HAL_Driver/Inc/stm32g4xx_ll_adc.h **** /* - ADC calibration: calibration start, calibration factor get or set        */
 286:Drivers/STM32G4xx_HAL_Driver/Inc/stm32g4xx_ll_adc.h **** /* - ADC channels: set each ADC channel ending mode                           */
 287:Drivers/STM32G4xx_HAL_Driver/Inc/stm32g4xx_ll_adc.h **** #define ADC_SINGLEDIFF_CALIB_START_MASK    (ADC_CR_ADCALDIF)
 288:Drivers/STM32G4xx_HAL_Driver/Inc/stm32g4xx_ll_adc.h **** #define ADC_SINGLEDIFF_CALIB_FACTOR_MASK   (ADC_CALFACT_CALFACT_D | ADC_CALFACT_CALFACT_S)
 289:Drivers/STM32G4xx_HAL_Driver/Inc/stm32g4xx_ll_adc.h **** #define ADC_SINGLEDIFF_CHANNEL_MASK        (ADC_CHANNEL_ID_BITFIELD_MASK) /* Equivalent to ADC_DIFS
 290:Drivers/STM32G4xx_HAL_Driver/Inc/stm32g4xx_ll_adc.h **** #define ADC_SINGLEDIFF_CHANNEL_SHIFT_MASK  (ADC_CALFACT_CALFACT_S_4 | ADC_CALFACT_CALFACT_S_3) /* B
 291:Drivers/STM32G4xx_HAL_Driver/Inc/stm32g4xx_ll_adc.h ****                                            to perform of shift when single mode is selected, shift 
 292:Drivers/STM32G4xx_HAL_Driver/Inc/stm32g4xx_ll_adc.h ****                                            channels bits range. */
 293:Drivers/STM32G4xx_HAL_Driver/Inc/stm32g4xx_ll_adc.h **** #define ADC_SINGLEDIFF_CALIB_F_BIT_D_MASK   (0x00010000UL) /* Selection of 1 bit to discriminate di
 294:Drivers/STM32G4xx_HAL_Driver/Inc/stm32g4xx_ll_adc.h ****                                            mask of bit */
 295:Drivers/STM32G4xx_HAL_Driver/Inc/stm32g4xx_ll_adc.h **** #define ADC_SINGLEDIFF_CALIB_F_BIT_D_POS    (16UL)         /* Selection of 1 bit to discriminate di
 296:Drivers/STM32G4xx_HAL_Driver/Inc/stm32g4xx_ll_adc.h ****                                            position of bit */
 297:Drivers/STM32G4xx_HAL_Driver/Inc/stm32g4xx_ll_adc.h **** #define ADC_SINGLEDIFF_CALIB_F_BIT_D_SHIFT4 (ADC_SINGLEDIFF_CALIB_F_BIT_D_POS - 4UL) /* Shift of bi
 298:Drivers/STM32G4xx_HAL_Driver/Inc/stm32g4xx_ll_adc.h ****                                            ADC_SINGLEDIFF_CALIB_F_BIT_D to perform a shift of 4 ran
 299:Drivers/STM32G4xx_HAL_Driver/Inc/stm32g4xx_ll_adc.h **** 
 300:Drivers/STM32G4xx_HAL_Driver/Inc/stm32g4xx_ll_adc.h **** /* Internal mask for ADC analog watchdog:                                     */
 301:Drivers/STM32G4xx_HAL_Driver/Inc/stm32g4xx_ll_adc.h **** /* To select into literals LL_ADC_AWD_CHANNELx_xxx the relevant bits for:     */
 302:Drivers/STM32G4xx_HAL_Driver/Inc/stm32g4xx_ll_adc.h **** /* (concatenation of multiple bits used in different analog watchdogs,        */
 303:Drivers/STM32G4xx_HAL_Driver/Inc/stm32g4xx_ll_adc.h **** /* (feature of several watchdogs not available on all STM32 series)).         */
 304:Drivers/STM32G4xx_HAL_Driver/Inc/stm32g4xx_ll_adc.h **** /* - analog watchdog 1: monitored channel defined by number,                  */
 305:Drivers/STM32G4xx_HAL_Driver/Inc/stm32g4xx_ll_adc.h **** /*   selection of ADC group (ADC groups regular and-or injected).             */
 306:Drivers/STM32G4xx_HAL_Driver/Inc/stm32g4xx_ll_adc.h **** /* - analog watchdog 2 and 3: monitored channel defined by bitfield, no       */
 307:Drivers/STM32G4xx_HAL_Driver/Inc/stm32g4xx_ll_adc.h **** /*   selection on groups.                                                     */
 308:Drivers/STM32G4xx_HAL_Driver/Inc/stm32g4xx_ll_adc.h **** 
 309:Drivers/STM32G4xx_HAL_Driver/Inc/stm32g4xx_ll_adc.h **** /* Internal register offset for ADC analog watchdog channel configuration */
 310:Drivers/STM32G4xx_HAL_Driver/Inc/stm32g4xx_ll_adc.h **** #define ADC_AWD_CR1_REGOFFSET              (0x00000000UL)
 311:Drivers/STM32G4xx_HAL_Driver/Inc/stm32g4xx_ll_adc.h **** #define ADC_AWD_CR2_REGOFFSET              (0x00100000UL)
 312:Drivers/STM32G4xx_HAL_Driver/Inc/stm32g4xx_ll_adc.h **** #define ADC_AWD_CR3_REGOFFSET              (0x00200000UL)
 313:Drivers/STM32G4xx_HAL_Driver/Inc/stm32g4xx_ll_adc.h **** 
 314:Drivers/STM32G4xx_HAL_Driver/Inc/stm32g4xx_ll_adc.h **** /* Register offset gap between AWD1 and AWD2-AWD3 configuration registers */
ARM GAS  /tmp/cc4nYBwt.s 			page 56


 315:Drivers/STM32G4xx_HAL_Driver/Inc/stm32g4xx_ll_adc.h **** /* (Set separately as ADC_AWD_CRX_REGOFFSET to spare 32 bits space */
 316:Drivers/STM32G4xx_HAL_Driver/Inc/stm32g4xx_ll_adc.h **** #define ADC_AWD_CR12_REGOFFSETGAP_MASK     (ADC_AWD2CR_AWD2CH_0)
 317:Drivers/STM32G4xx_HAL_Driver/Inc/stm32g4xx_ll_adc.h **** #define ADC_AWD_CR12_REGOFFSETGAP_VAL      (0x00000024UL)
 318:Drivers/STM32G4xx_HAL_Driver/Inc/stm32g4xx_ll_adc.h **** 
 319:Drivers/STM32G4xx_HAL_Driver/Inc/stm32g4xx_ll_adc.h **** #define ADC_AWD_CRX_REGOFFSET_MASK         (ADC_AWD_CR1_REGOFFSET | ADC_AWD_CR2_REGOFFSET | ADC_AWD
 320:Drivers/STM32G4xx_HAL_Driver/Inc/stm32g4xx_ll_adc.h **** 
 321:Drivers/STM32G4xx_HAL_Driver/Inc/stm32g4xx_ll_adc.h **** #define ADC_AWD_CR1_CHANNEL_MASK           (ADC_CFGR_AWD1CH | ADC_CFGR_JAWD1EN | ADC_CFGR_AWD1EN | 
 322:Drivers/STM32G4xx_HAL_Driver/Inc/stm32g4xx_ll_adc.h **** #define ADC_AWD_CR23_CHANNEL_MASK          (ADC_AWD2CR_AWD2CH)
 323:Drivers/STM32G4xx_HAL_Driver/Inc/stm32g4xx_ll_adc.h **** #define ADC_AWD_CR_ALL_CHANNEL_MASK        (ADC_AWD_CR1_CHANNEL_MASK | ADC_AWD_CR23_CHANNEL_MASK)
 324:Drivers/STM32G4xx_HAL_Driver/Inc/stm32g4xx_ll_adc.h **** 
 325:Drivers/STM32G4xx_HAL_Driver/Inc/stm32g4xx_ll_adc.h **** #define ADC_AWD_CRX_REGOFFSET_POS          (20UL)                      /* Position of bits ADC_AWD_
 326:Drivers/STM32G4xx_HAL_Driver/Inc/stm32g4xx_ll_adc.h ****                                                                           in ADC_AWD_CRX_REGOFFSET_
 327:Drivers/STM32G4xx_HAL_Driver/Inc/stm32g4xx_ll_adc.h **** 
 328:Drivers/STM32G4xx_HAL_Driver/Inc/stm32g4xx_ll_adc.h **** /* Internal register offset for ADC analog watchdog threshold configuration */
 329:Drivers/STM32G4xx_HAL_Driver/Inc/stm32g4xx_ll_adc.h **** #define ADC_AWD_TR1_REGOFFSET              (ADC_AWD_CR1_REGOFFSET)
 330:Drivers/STM32G4xx_HAL_Driver/Inc/stm32g4xx_ll_adc.h **** #define ADC_AWD_TR2_REGOFFSET              (ADC_AWD_CR2_REGOFFSET)
 331:Drivers/STM32G4xx_HAL_Driver/Inc/stm32g4xx_ll_adc.h **** #define ADC_AWD_TR3_REGOFFSET              (ADC_AWD_CR3_REGOFFSET)
 332:Drivers/STM32G4xx_HAL_Driver/Inc/stm32g4xx_ll_adc.h **** #define ADC_AWD_TRX_REGOFFSET_MASK         (ADC_AWD_TR1_REGOFFSET | ADC_AWD_TR2_REGOFFSET | ADC_AWD
 333:Drivers/STM32G4xx_HAL_Driver/Inc/stm32g4xx_ll_adc.h **** #define ADC_AWD_TRX_REGOFFSET_POS          (ADC_AWD_CRX_REGOFFSET_POS)      /* Position of bits ADC
 334:Drivers/STM32G4xx_HAL_Driver/Inc/stm32g4xx_ll_adc.h ****                                                                                in ADC_AWD_TRX_REGOF
 335:Drivers/STM32G4xx_HAL_Driver/Inc/stm32g4xx_ll_adc.h **** #define ADC_AWD_TRX_BIT_HIGH_MASK          (0x00010000UL)                   /* Selection of 1 bit t
 336:Drivers/STM32G4xx_HAL_Driver/Inc/stm32g4xx_ll_adc.h ****                                                                                threshold high: mask
 337:Drivers/STM32G4xx_HAL_Driver/Inc/stm32g4xx_ll_adc.h **** #define ADC_AWD_TRX_BIT_HIGH_POS           (16UL)                           /* Selection of 1 bit t
 338:Drivers/STM32G4xx_HAL_Driver/Inc/stm32g4xx_ll_adc.h ****                                                                                threshold high: posi
 339:Drivers/STM32G4xx_HAL_Driver/Inc/stm32g4xx_ll_adc.h **** #define ADC_AWD_TRX_BIT_HIGH_SHIFT4        (ADC_AWD_TRX_BIT_HIGH_POS - 4UL) /* Shift of bit ADC_AWD
 340:Drivers/STM32G4xx_HAL_Driver/Inc/stm32g4xx_ll_adc.h ****                                                                                position to perform 
 341:Drivers/STM32G4xx_HAL_Driver/Inc/stm32g4xx_ll_adc.h **** 
 342:Drivers/STM32G4xx_HAL_Driver/Inc/stm32g4xx_ll_adc.h **** /* Internal mask for ADC offset:                                              */
 343:Drivers/STM32G4xx_HAL_Driver/Inc/stm32g4xx_ll_adc.h **** /* Internal register offset for ADC offset instance configuration */
 344:Drivers/STM32G4xx_HAL_Driver/Inc/stm32g4xx_ll_adc.h **** #define ADC_OFR1_REGOFFSET                 (0x00000000UL)
 345:Drivers/STM32G4xx_HAL_Driver/Inc/stm32g4xx_ll_adc.h **** #define ADC_OFR2_REGOFFSET                 (0x00000001UL)
 346:Drivers/STM32G4xx_HAL_Driver/Inc/stm32g4xx_ll_adc.h **** #define ADC_OFR3_REGOFFSET                 (0x00000002UL)
 347:Drivers/STM32G4xx_HAL_Driver/Inc/stm32g4xx_ll_adc.h **** #define ADC_OFR4_REGOFFSET                 (0x00000003UL)
 348:Drivers/STM32G4xx_HAL_Driver/Inc/stm32g4xx_ll_adc.h **** #define ADC_OFRx_REGOFFSET_MASK            (ADC_OFR1_REGOFFSET | ADC_OFR2_REGOFFSET \
 349:Drivers/STM32G4xx_HAL_Driver/Inc/stm32g4xx_ll_adc.h ****                                             | ADC_OFR3_REGOFFSET | ADC_OFR4_REGOFFSET)
 350:Drivers/STM32G4xx_HAL_Driver/Inc/stm32g4xx_ll_adc.h **** 
 351:Drivers/STM32G4xx_HAL_Driver/Inc/stm32g4xx_ll_adc.h **** 
 352:Drivers/STM32G4xx_HAL_Driver/Inc/stm32g4xx_ll_adc.h **** /* ADC registers bits positions */
 353:Drivers/STM32G4xx_HAL_Driver/Inc/stm32g4xx_ll_adc.h **** #define ADC_CFGR_RES_BITOFFSET_POS         (ADC_CFGR_RES_Pos)
 354:Drivers/STM32G4xx_HAL_Driver/Inc/stm32g4xx_ll_adc.h **** #define ADC_CFGR_AWD1SGL_BITOFFSET_POS     (ADC_CFGR_AWD1SGL_Pos)
 355:Drivers/STM32G4xx_HAL_Driver/Inc/stm32g4xx_ll_adc.h **** #define ADC_CFGR_AWD1EN_BITOFFSET_POS      (ADC_CFGR_AWD1EN_Pos)
 356:Drivers/STM32G4xx_HAL_Driver/Inc/stm32g4xx_ll_adc.h **** #define ADC_CFGR_JAWD1EN_BITOFFSET_POS     (ADC_CFGR_JAWD1EN_Pos)
 357:Drivers/STM32G4xx_HAL_Driver/Inc/stm32g4xx_ll_adc.h **** #define ADC_TR1_HT1_BITOFFSET_POS          (ADC_TR1_HT1_Pos)
 358:Drivers/STM32G4xx_HAL_Driver/Inc/stm32g4xx_ll_adc.h **** 
 359:Drivers/STM32G4xx_HAL_Driver/Inc/stm32g4xx_ll_adc.h **** 
 360:Drivers/STM32G4xx_HAL_Driver/Inc/stm32g4xx_ll_adc.h **** /* ADC registers bits groups */
 361:Drivers/STM32G4xx_HAL_Driver/Inc/stm32g4xx_ll_adc.h **** #define ADC_CR_BITS_PROPERTY_RS            (ADC_CR_ADCAL | ADC_CR_ADEN | ADC_CR_ADDIS \
 362:Drivers/STM32G4xx_HAL_Driver/Inc/stm32g4xx_ll_adc.h ****                                             | ADC_CR_JADSTART | ADC_CR_JADSTP \
 363:Drivers/STM32G4xx_HAL_Driver/Inc/stm32g4xx_ll_adc.h ****                                             | ADC_CR_ADSTART | ADC_CR_ADSTP)            /* ADC regi
 364:Drivers/STM32G4xx_HAL_Driver/Inc/stm32g4xx_ll_adc.h ****                                            HW property "rs": Software can read as well as set this 
 365:Drivers/STM32G4xx_HAL_Driver/Inc/stm32g4xx_ll_adc.h ****                                            Writing '0' has no effect on the bit value. */
 366:Drivers/STM32G4xx_HAL_Driver/Inc/stm32g4xx_ll_adc.h **** 
 367:Drivers/STM32G4xx_HAL_Driver/Inc/stm32g4xx_ll_adc.h **** 
 368:Drivers/STM32G4xx_HAL_Driver/Inc/stm32g4xx_ll_adc.h **** /* ADC internal channels related definitions */
 369:Drivers/STM32G4xx_HAL_Driver/Inc/stm32g4xx_ll_adc.h **** /* Internal voltage reference VrefInt */
 370:Drivers/STM32G4xx_HAL_Driver/Inc/stm32g4xx_ll_adc.h **** #define VREFINT_CAL_ADDR                   ((uint16_t*) (0x1FFF75AAUL)) /* Internal voltage referen
 371:Drivers/STM32G4xx_HAL_Driver/Inc/stm32g4xx_ll_adc.h ****                                            parameter VREFINT_CAL: VrefInt ADC raw data acquired at 
ARM GAS  /tmp/cc4nYBwt.s 			page 57


 372:Drivers/STM32G4xx_HAL_Driver/Inc/stm32g4xx_ll_adc.h ****                                            (tolerance: +-5 DegC), Vref+ = 3.0 V (tolerance: +-10 mV
 373:Drivers/STM32G4xx_HAL_Driver/Inc/stm32g4xx_ll_adc.h **** #define VREFINT_CAL_VREF                   (3000UL)                     /* Analog voltage reference
 374:Drivers/STM32G4xx_HAL_Driver/Inc/stm32g4xx_ll_adc.h ****                                            with which VrefInt has been calibrated in production
 375:Drivers/STM32G4xx_HAL_Driver/Inc/stm32g4xx_ll_adc.h ****                                            (tolerance: +-10 mV) (unit: mV). */
 376:Drivers/STM32G4xx_HAL_Driver/Inc/stm32g4xx_ll_adc.h **** /* Temperature sensor */
 377:Drivers/STM32G4xx_HAL_Driver/Inc/stm32g4xx_ll_adc.h **** #define TEMPSENSOR_CAL1_ADDR               ((uint16_t*) (0x1FFF75A8UL)) /* Address of parameter TS_
 378:Drivers/STM32G4xx_HAL_Driver/Inc/stm32g4xx_ll_adc.h ****                                            temperature sensor ADC raw data acquired at temperature 
 379:Drivers/STM32G4xx_HAL_Driver/Inc/stm32g4xx_ll_adc.h ****                                            (tolerance: +-5 DegC), Vref+ = 3.0 V (tolerance: +-10 mV
 380:Drivers/STM32G4xx_HAL_Driver/Inc/stm32g4xx_ll_adc.h **** #define TEMPSENSOR_CAL2_ADDR               ((uint16_t*) (0x1FFF75CAUL)) /* Address of parameter TS_
 381:Drivers/STM32G4xx_HAL_Driver/Inc/stm32g4xx_ll_adc.h ****                                            temperature sensor ADC raw data acquired at temperature 
 382:Drivers/STM32G4xx_HAL_Driver/Inc/stm32g4xx_ll_adc.h ****                                            (tolerance: +-5 DegC), Vref+ = 3.0 V (tolerance: +-10 mV
 383:Drivers/STM32G4xx_HAL_Driver/Inc/stm32g4xx_ll_adc.h **** #define TEMPSENSOR_CAL1_TEMP               (30L)                        /* Temperature at which tem
 384:Drivers/STM32G4xx_HAL_Driver/Inc/stm32g4xx_ll_adc.h ****                                            has been calibrated in production for data into TEMPSENS
 385:Drivers/STM32G4xx_HAL_Driver/Inc/stm32g4xx_ll_adc.h ****                                            (tolerance: +-5 DegC) (unit: DegC). */
 386:Drivers/STM32G4xx_HAL_Driver/Inc/stm32g4xx_ll_adc.h **** #define TEMPSENSOR_CAL2_TEMP               (110L)                       /* Temperature at which tem
 387:Drivers/STM32G4xx_HAL_Driver/Inc/stm32g4xx_ll_adc.h ****                                            has been calibrated in production for data into TEMPSENS
 388:Drivers/STM32G4xx_HAL_Driver/Inc/stm32g4xx_ll_adc.h ****                                            (tolerance: +-5 DegC) (unit: DegC). */
 389:Drivers/STM32G4xx_HAL_Driver/Inc/stm32g4xx_ll_adc.h **** #define TEMPSENSOR_CAL_VREFANALOG          (3000UL)                     /* Analog voltage reference
 390:Drivers/STM32G4xx_HAL_Driver/Inc/stm32g4xx_ll_adc.h ****                                            with which temperature sensor has been calibrated in pro
 391:Drivers/STM32G4xx_HAL_Driver/Inc/stm32g4xx_ll_adc.h ****                                            (tolerance +-10 mV) (unit: mV). */
 392:Drivers/STM32G4xx_HAL_Driver/Inc/stm32g4xx_ll_adc.h **** 
 393:Drivers/STM32G4xx_HAL_Driver/Inc/stm32g4xx_ll_adc.h **** /**
 394:Drivers/STM32G4xx_HAL_Driver/Inc/stm32g4xx_ll_adc.h ****   * @}
 395:Drivers/STM32G4xx_HAL_Driver/Inc/stm32g4xx_ll_adc.h ****   */
 396:Drivers/STM32G4xx_HAL_Driver/Inc/stm32g4xx_ll_adc.h **** 
 397:Drivers/STM32G4xx_HAL_Driver/Inc/stm32g4xx_ll_adc.h **** 
 398:Drivers/STM32G4xx_HAL_Driver/Inc/stm32g4xx_ll_adc.h **** /* Private macros ------------------------------------------------------------*/
 399:Drivers/STM32G4xx_HAL_Driver/Inc/stm32g4xx_ll_adc.h **** /** @defgroup ADC_LL_Private_Macros ADC Private Macros
 400:Drivers/STM32G4xx_HAL_Driver/Inc/stm32g4xx_ll_adc.h ****   * @{
 401:Drivers/STM32G4xx_HAL_Driver/Inc/stm32g4xx_ll_adc.h ****   */
 402:Drivers/STM32G4xx_HAL_Driver/Inc/stm32g4xx_ll_adc.h **** 
 403:Drivers/STM32G4xx_HAL_Driver/Inc/stm32g4xx_ll_adc.h **** /**
 404:Drivers/STM32G4xx_HAL_Driver/Inc/stm32g4xx_ll_adc.h ****   * @brief  Driver macro reserved for internal use: set a pointer to
 405:Drivers/STM32G4xx_HAL_Driver/Inc/stm32g4xx_ll_adc.h ****   *         a register from a register basis from which an offset
 406:Drivers/STM32G4xx_HAL_Driver/Inc/stm32g4xx_ll_adc.h ****   *         is applied.
 407:Drivers/STM32G4xx_HAL_Driver/Inc/stm32g4xx_ll_adc.h ****   * @param  __REG__ Register basis from which the offset is applied.
 408:Drivers/STM32G4xx_HAL_Driver/Inc/stm32g4xx_ll_adc.h ****   * @param  __REG_OFFFSET__ Offset to be applied (unit: number of registers).
 409:Drivers/STM32G4xx_HAL_Driver/Inc/stm32g4xx_ll_adc.h ****   * @retval Pointer to register address
 410:Drivers/STM32G4xx_HAL_Driver/Inc/stm32g4xx_ll_adc.h ****   */
 411:Drivers/STM32G4xx_HAL_Driver/Inc/stm32g4xx_ll_adc.h **** #define __ADC_PTR_REG_OFFSET(__REG__, __REG_OFFFSET__)                         \
 412:Drivers/STM32G4xx_HAL_Driver/Inc/stm32g4xx_ll_adc.h ****   ((__IO uint32_t *)((uint32_t) ((uint32_t)(&(__REG__)) + ((__REG_OFFFSET__) << 2UL))))
 413:Drivers/STM32G4xx_HAL_Driver/Inc/stm32g4xx_ll_adc.h **** 
 414:Drivers/STM32G4xx_HAL_Driver/Inc/stm32g4xx_ll_adc.h **** /**
 415:Drivers/STM32G4xx_HAL_Driver/Inc/stm32g4xx_ll_adc.h ****   * @}
 416:Drivers/STM32G4xx_HAL_Driver/Inc/stm32g4xx_ll_adc.h ****   */
 417:Drivers/STM32G4xx_HAL_Driver/Inc/stm32g4xx_ll_adc.h **** 
 418:Drivers/STM32G4xx_HAL_Driver/Inc/stm32g4xx_ll_adc.h **** 
 419:Drivers/STM32G4xx_HAL_Driver/Inc/stm32g4xx_ll_adc.h **** /* Exported types ------------------------------------------------------------*/
 420:Drivers/STM32G4xx_HAL_Driver/Inc/stm32g4xx_ll_adc.h **** #if defined(USE_FULL_LL_DRIVER)
 421:Drivers/STM32G4xx_HAL_Driver/Inc/stm32g4xx_ll_adc.h **** /** @defgroup ADC_LL_ES_INIT ADC Exported Init structure
 422:Drivers/STM32G4xx_HAL_Driver/Inc/stm32g4xx_ll_adc.h ****   * @{
 423:Drivers/STM32G4xx_HAL_Driver/Inc/stm32g4xx_ll_adc.h ****   */
 424:Drivers/STM32G4xx_HAL_Driver/Inc/stm32g4xx_ll_adc.h **** 
 425:Drivers/STM32G4xx_HAL_Driver/Inc/stm32g4xx_ll_adc.h **** /**
 426:Drivers/STM32G4xx_HAL_Driver/Inc/stm32g4xx_ll_adc.h ****   * @brief  Structure definition of some features of ADC common parameters
 427:Drivers/STM32G4xx_HAL_Driver/Inc/stm32g4xx_ll_adc.h ****   *         and multimode
 428:Drivers/STM32G4xx_HAL_Driver/Inc/stm32g4xx_ll_adc.h ****   *         (all ADC instances belonging to the same ADC common instance).
ARM GAS  /tmp/cc4nYBwt.s 			page 58


 429:Drivers/STM32G4xx_HAL_Driver/Inc/stm32g4xx_ll_adc.h ****   * @note   The setting of these parameters by function @ref LL_ADC_CommonInit()
 430:Drivers/STM32G4xx_HAL_Driver/Inc/stm32g4xx_ll_adc.h ****   *         is conditioned to ADC instances state (all ADC instances
 431:Drivers/STM32G4xx_HAL_Driver/Inc/stm32g4xx_ll_adc.h ****   *         sharing the same ADC common instance):
 432:Drivers/STM32G4xx_HAL_Driver/Inc/stm32g4xx_ll_adc.h ****   *         All ADC instances sharing the same ADC common instance must be
 433:Drivers/STM32G4xx_HAL_Driver/Inc/stm32g4xx_ll_adc.h ****   *         disabled.
 434:Drivers/STM32G4xx_HAL_Driver/Inc/stm32g4xx_ll_adc.h ****   */
 435:Drivers/STM32G4xx_HAL_Driver/Inc/stm32g4xx_ll_adc.h **** typedef struct
 436:Drivers/STM32G4xx_HAL_Driver/Inc/stm32g4xx_ll_adc.h **** {
 437:Drivers/STM32G4xx_HAL_Driver/Inc/stm32g4xx_ll_adc.h ****   uint32_t CommonClock;                 /*!< Set parameter common to several ADC: Clock source and 
 438:Drivers/STM32G4xx_HAL_Driver/Inc/stm32g4xx_ll_adc.h ****                                              This parameter can be a value of @ref ADC_LL_EC_COMMON
 439:Drivers/STM32G4xx_HAL_Driver/Inc/stm32g4xx_ll_adc.h ****                                              @note On this STM32 series, if ADC group injected is u
 440:Drivers/STM32G4xx_HAL_Driver/Inc/stm32g4xx_ll_adc.h ****                                                    constraints between ADC clock and AHB clock must
 441:Drivers/STM32G4xx_HAL_Driver/Inc/stm32g4xx_ll_adc.h ****                                                    Refer to reference manual.
 442:Drivers/STM32G4xx_HAL_Driver/Inc/stm32g4xx_ll_adc.h ****                                              This feature can be modified afterwards using unitary 
 443:Drivers/STM32G4xx_HAL_Driver/Inc/stm32g4xx_ll_adc.h ****                                              @ref LL_ADC_SetCommonClock(). */
 444:Drivers/STM32G4xx_HAL_Driver/Inc/stm32g4xx_ll_adc.h **** 
 445:Drivers/STM32G4xx_HAL_Driver/Inc/stm32g4xx_ll_adc.h **** #if defined(ADC_MULTIMODE_SUPPORT)
 446:Drivers/STM32G4xx_HAL_Driver/Inc/stm32g4xx_ll_adc.h ****   uint32_t Multimode;                   /*!< Set ADC multimode configuration to operate in independ
 447:Drivers/STM32G4xx_HAL_Driver/Inc/stm32g4xx_ll_adc.h ****                                              (for devices with several ADC instances).
 448:Drivers/STM32G4xx_HAL_Driver/Inc/stm32g4xx_ll_adc.h ****                                              This parameter can be a value of @ref ADC_LL_EC_MULTI_
 449:Drivers/STM32G4xx_HAL_Driver/Inc/stm32g4xx_ll_adc.h ****                                              This feature can be modified afterwards using unitary 
 450:Drivers/STM32G4xx_HAL_Driver/Inc/stm32g4xx_ll_adc.h ****                                              @ref LL_ADC_SetMultimode(). */
 451:Drivers/STM32G4xx_HAL_Driver/Inc/stm32g4xx_ll_adc.h **** 
 452:Drivers/STM32G4xx_HAL_Driver/Inc/stm32g4xx_ll_adc.h ****   uint32_t MultiDMATransfer;            /*!< Set ADC multimode conversion data transfer: no transfe
 453:Drivers/STM32G4xx_HAL_Driver/Inc/stm32g4xx_ll_adc.h ****                                              This parameter can be a value of @ref ADC_LL_EC_MULTI_
 454:Drivers/STM32G4xx_HAL_Driver/Inc/stm32g4xx_ll_adc.h ****                                              This feature can be modified afterwards using unitary 
 455:Drivers/STM32G4xx_HAL_Driver/Inc/stm32g4xx_ll_adc.h ****                                              @ref LL_ADC_SetMultiDMATransfer(). */
 456:Drivers/STM32G4xx_HAL_Driver/Inc/stm32g4xx_ll_adc.h **** 
 457:Drivers/STM32G4xx_HAL_Driver/Inc/stm32g4xx_ll_adc.h ****   uint32_t MultiTwoSamplingDelay;       /*!< Set ADC multimode delay between 2 sampling phases.
 458:Drivers/STM32G4xx_HAL_Driver/Inc/stm32g4xx_ll_adc.h ****                                              This parameter can be a value of @ref ADC_LL_EC_MULTI_
 459:Drivers/STM32G4xx_HAL_Driver/Inc/stm32g4xx_ll_adc.h ****                                              This feature can be modified afterwards using unitary 
 460:Drivers/STM32G4xx_HAL_Driver/Inc/stm32g4xx_ll_adc.h ****                                              @ref LL_ADC_SetMultiTwoSamplingDelay(). */
 461:Drivers/STM32G4xx_HAL_Driver/Inc/stm32g4xx_ll_adc.h **** #endif /* ADC_MULTIMODE_SUPPORT */
 462:Drivers/STM32G4xx_HAL_Driver/Inc/stm32g4xx_ll_adc.h **** 
 463:Drivers/STM32G4xx_HAL_Driver/Inc/stm32g4xx_ll_adc.h **** } LL_ADC_CommonInitTypeDef;
 464:Drivers/STM32G4xx_HAL_Driver/Inc/stm32g4xx_ll_adc.h **** 
 465:Drivers/STM32G4xx_HAL_Driver/Inc/stm32g4xx_ll_adc.h **** /**
 466:Drivers/STM32G4xx_HAL_Driver/Inc/stm32g4xx_ll_adc.h ****   * @brief  Structure definition of some features of ADC instance.
 467:Drivers/STM32G4xx_HAL_Driver/Inc/stm32g4xx_ll_adc.h ****   * @note   These parameters have an impact on ADC scope: ADC instance.
 468:Drivers/STM32G4xx_HAL_Driver/Inc/stm32g4xx_ll_adc.h ****   *         Affects both group regular and group injected (availability
 469:Drivers/STM32G4xx_HAL_Driver/Inc/stm32g4xx_ll_adc.h ****   *         of ADC group injected depends on STM32 series).
 470:Drivers/STM32G4xx_HAL_Driver/Inc/stm32g4xx_ll_adc.h ****   *         Refer to corresponding unitary functions into
 471:Drivers/STM32G4xx_HAL_Driver/Inc/stm32g4xx_ll_adc.h ****   *         @ref ADC_LL_EF_Configuration_ADC_Instance .
 472:Drivers/STM32G4xx_HAL_Driver/Inc/stm32g4xx_ll_adc.h ****   * @note   The setting of these parameters by function @ref LL_ADC_Init()
 473:Drivers/STM32G4xx_HAL_Driver/Inc/stm32g4xx_ll_adc.h ****   *         is conditioned to ADC state:
 474:Drivers/STM32G4xx_HAL_Driver/Inc/stm32g4xx_ll_adc.h ****   *         ADC instance must be disabled.
 475:Drivers/STM32G4xx_HAL_Driver/Inc/stm32g4xx_ll_adc.h ****   *         This condition is applied to all ADC features, for efficiency
 476:Drivers/STM32G4xx_HAL_Driver/Inc/stm32g4xx_ll_adc.h ****   *         and compatibility over all STM32 series. However, the different
 477:Drivers/STM32G4xx_HAL_Driver/Inc/stm32g4xx_ll_adc.h ****   *         features can be set under different ADC state conditions
 478:Drivers/STM32G4xx_HAL_Driver/Inc/stm32g4xx_ll_adc.h ****   *         (setting possible with ADC enabled without conversion on going,
 479:Drivers/STM32G4xx_HAL_Driver/Inc/stm32g4xx_ll_adc.h ****   *         ADC enabled with conversion on going, ...)
 480:Drivers/STM32G4xx_HAL_Driver/Inc/stm32g4xx_ll_adc.h ****   *         Each feature can be updated afterwards with a unitary function
 481:Drivers/STM32G4xx_HAL_Driver/Inc/stm32g4xx_ll_adc.h ****   *         and potentially with ADC in a different state than disabled,
 482:Drivers/STM32G4xx_HAL_Driver/Inc/stm32g4xx_ll_adc.h ****   *         refer to description of each function for setting
 483:Drivers/STM32G4xx_HAL_Driver/Inc/stm32g4xx_ll_adc.h ****   *         conditioned to ADC state.
 484:Drivers/STM32G4xx_HAL_Driver/Inc/stm32g4xx_ll_adc.h ****   */
 485:Drivers/STM32G4xx_HAL_Driver/Inc/stm32g4xx_ll_adc.h **** typedef struct
ARM GAS  /tmp/cc4nYBwt.s 			page 59


 486:Drivers/STM32G4xx_HAL_Driver/Inc/stm32g4xx_ll_adc.h **** {
 487:Drivers/STM32G4xx_HAL_Driver/Inc/stm32g4xx_ll_adc.h ****   uint32_t Resolution;                  /*!< Set ADC resolution.
 488:Drivers/STM32G4xx_HAL_Driver/Inc/stm32g4xx_ll_adc.h ****                                              This parameter can be a value of @ref ADC_LL_EC_RESOLU
 489:Drivers/STM32G4xx_HAL_Driver/Inc/stm32g4xx_ll_adc.h ****                                              This feature can be modified afterwards using unitary 
 490:Drivers/STM32G4xx_HAL_Driver/Inc/stm32g4xx_ll_adc.h ****                                              @ref LL_ADC_SetResolution(). */
 491:Drivers/STM32G4xx_HAL_Driver/Inc/stm32g4xx_ll_adc.h **** 
 492:Drivers/STM32G4xx_HAL_Driver/Inc/stm32g4xx_ll_adc.h ****   uint32_t DataAlignment;               /*!< Set ADC conversion data alignment.
 493:Drivers/STM32G4xx_HAL_Driver/Inc/stm32g4xx_ll_adc.h ****                                              This parameter can be a value of @ref ADC_LL_EC_DATA_A
 494:Drivers/STM32G4xx_HAL_Driver/Inc/stm32g4xx_ll_adc.h ****                                              This feature can be modified afterwards using unitary 
 495:Drivers/STM32G4xx_HAL_Driver/Inc/stm32g4xx_ll_adc.h ****                                              @ref LL_ADC_SetDataAlignment(). */
 496:Drivers/STM32G4xx_HAL_Driver/Inc/stm32g4xx_ll_adc.h **** 
 497:Drivers/STM32G4xx_HAL_Driver/Inc/stm32g4xx_ll_adc.h ****   uint32_t LowPowerMode;                /*!< Set ADC low power mode.
 498:Drivers/STM32G4xx_HAL_Driver/Inc/stm32g4xx_ll_adc.h ****                                              This parameter can be a value of @ref ADC_LL_EC_LP_MOD
 499:Drivers/STM32G4xx_HAL_Driver/Inc/stm32g4xx_ll_adc.h ****                                              This feature can be modified afterwards using unitary 
 500:Drivers/STM32G4xx_HAL_Driver/Inc/stm32g4xx_ll_adc.h ****                                              @ref LL_ADC_SetLowPowerMode(). */
 501:Drivers/STM32G4xx_HAL_Driver/Inc/stm32g4xx_ll_adc.h **** 
 502:Drivers/STM32G4xx_HAL_Driver/Inc/stm32g4xx_ll_adc.h **** } LL_ADC_InitTypeDef;
 503:Drivers/STM32G4xx_HAL_Driver/Inc/stm32g4xx_ll_adc.h **** 
 504:Drivers/STM32G4xx_HAL_Driver/Inc/stm32g4xx_ll_adc.h **** /**
 505:Drivers/STM32G4xx_HAL_Driver/Inc/stm32g4xx_ll_adc.h ****   * @brief  Structure definition of some features of ADC group regular.
 506:Drivers/STM32G4xx_HAL_Driver/Inc/stm32g4xx_ll_adc.h ****   * @note   These parameters have an impact on ADC scope: ADC group regular.
 507:Drivers/STM32G4xx_HAL_Driver/Inc/stm32g4xx_ll_adc.h ****   *         Refer to corresponding unitary functions into
 508:Drivers/STM32G4xx_HAL_Driver/Inc/stm32g4xx_ll_adc.h ****   *         @ref ADC_LL_EF_Configuration_ADC_Group_Regular
 509:Drivers/STM32G4xx_HAL_Driver/Inc/stm32g4xx_ll_adc.h ****   *         (functions with prefix "REG").
 510:Drivers/STM32G4xx_HAL_Driver/Inc/stm32g4xx_ll_adc.h ****   * @note   The setting of these parameters by function @ref LL_ADC_REG_Init()
 511:Drivers/STM32G4xx_HAL_Driver/Inc/stm32g4xx_ll_adc.h ****   *         is conditioned to ADC state:
 512:Drivers/STM32G4xx_HAL_Driver/Inc/stm32g4xx_ll_adc.h ****   *         ADC instance must be disabled.
 513:Drivers/STM32G4xx_HAL_Driver/Inc/stm32g4xx_ll_adc.h ****   *         This condition is applied to all ADC features, for efficiency
 514:Drivers/STM32G4xx_HAL_Driver/Inc/stm32g4xx_ll_adc.h ****   *         and compatibility over all STM32 series. However, the different
 515:Drivers/STM32G4xx_HAL_Driver/Inc/stm32g4xx_ll_adc.h ****   *         features can be set under different ADC state conditions
 516:Drivers/STM32G4xx_HAL_Driver/Inc/stm32g4xx_ll_adc.h ****   *         (setting possible with ADC enabled without conversion on going,
 517:Drivers/STM32G4xx_HAL_Driver/Inc/stm32g4xx_ll_adc.h ****   *         ADC enabled with conversion on going, ...)
 518:Drivers/STM32G4xx_HAL_Driver/Inc/stm32g4xx_ll_adc.h ****   *         Each feature can be updated afterwards with a unitary function
 519:Drivers/STM32G4xx_HAL_Driver/Inc/stm32g4xx_ll_adc.h ****   *         and potentially with ADC in a different state than disabled,
 520:Drivers/STM32G4xx_HAL_Driver/Inc/stm32g4xx_ll_adc.h ****   *         refer to description of each function for setting
 521:Drivers/STM32G4xx_HAL_Driver/Inc/stm32g4xx_ll_adc.h ****   *         conditioned to ADC state.
 522:Drivers/STM32G4xx_HAL_Driver/Inc/stm32g4xx_ll_adc.h ****   */
 523:Drivers/STM32G4xx_HAL_Driver/Inc/stm32g4xx_ll_adc.h **** typedef struct
 524:Drivers/STM32G4xx_HAL_Driver/Inc/stm32g4xx_ll_adc.h **** {
 525:Drivers/STM32G4xx_HAL_Driver/Inc/stm32g4xx_ll_adc.h ****   uint32_t TriggerSource;               /*!< Set ADC group regular conversion trigger source: inter
 526:Drivers/STM32G4xx_HAL_Driver/Inc/stm32g4xx_ll_adc.h ****                                              from external peripheral (timer event, external interr
 527:Drivers/STM32G4xx_HAL_Driver/Inc/stm32g4xx_ll_adc.h ****                                              This parameter can be a value of @ref ADC_LL_EC_REG_TR
 528:Drivers/STM32G4xx_HAL_Driver/Inc/stm32g4xx_ll_adc.h ****                                              @note On this STM32 series, setting trigger source to 
 529:Drivers/STM32G4xx_HAL_Driver/Inc/stm32g4xx_ll_adc.h ****                                                    set trigger polarity to rising edge(default sett
 530:Drivers/STM32G4xx_HAL_Driver/Inc/stm32g4xx_ll_adc.h ****                                                    with some ADC on other STM32 series having this 
 531:Drivers/STM32G4xx_HAL_Driver/Inc/stm32g4xx_ll_adc.h ****                                                    default value).
 532:Drivers/STM32G4xx_HAL_Driver/Inc/stm32g4xx_ll_adc.h ****                                                    In case of need to modify trigger edge, use func
 533:Drivers/STM32G4xx_HAL_Driver/Inc/stm32g4xx_ll_adc.h ****                                                    @ref LL_ADC_REG_SetTriggerEdge().
 534:Drivers/STM32G4xx_HAL_Driver/Inc/stm32g4xx_ll_adc.h ****                                              This feature can be modified afterwards using unitary 
 535:Drivers/STM32G4xx_HAL_Driver/Inc/stm32g4xx_ll_adc.h ****                                              @ref LL_ADC_REG_SetTriggerSource(). */
 536:Drivers/STM32G4xx_HAL_Driver/Inc/stm32g4xx_ll_adc.h **** 
 537:Drivers/STM32G4xx_HAL_Driver/Inc/stm32g4xx_ll_adc.h ****   uint32_t SequencerLength;             /*!< Set ADC group regular sequencer length.
 538:Drivers/STM32G4xx_HAL_Driver/Inc/stm32g4xx_ll_adc.h ****                                              This parameter can be a value of @ref ADC_LL_EC_REG_SE
 539:Drivers/STM32G4xx_HAL_Driver/Inc/stm32g4xx_ll_adc.h ****                                              This feature can be modified afterwards using unitary 
 540:Drivers/STM32G4xx_HAL_Driver/Inc/stm32g4xx_ll_adc.h ****                                              @ref LL_ADC_REG_SetSequencerLength(). */
 541:Drivers/STM32G4xx_HAL_Driver/Inc/stm32g4xx_ll_adc.h **** 
 542:Drivers/STM32G4xx_HAL_Driver/Inc/stm32g4xx_ll_adc.h ****   uint32_t SequencerDiscont;            /*!< Set ADC group regular sequencer discontinuous mode: se
ARM GAS  /tmp/cc4nYBwt.s 			page 60


 543:Drivers/STM32G4xx_HAL_Driver/Inc/stm32g4xx_ll_adc.h ****                                              and scan conversions interrupted every selected number
 544:Drivers/STM32G4xx_HAL_Driver/Inc/stm32g4xx_ll_adc.h ****                                              This parameter can be a value of @ref ADC_LL_EC_REG_SE
 545:Drivers/STM32G4xx_HAL_Driver/Inc/stm32g4xx_ll_adc.h ****                                              @note This parameter has an effect only if group regul
 546:Drivers/STM32G4xx_HAL_Driver/Inc/stm32g4xx_ll_adc.h ****                                                     enabled (scan length of 2 ranks or more).
 547:Drivers/STM32G4xx_HAL_Driver/Inc/stm32g4xx_ll_adc.h ****                                              This feature can be modified afterwards using unitary 
 548:Drivers/STM32G4xx_HAL_Driver/Inc/stm32g4xx_ll_adc.h ****                                              @ref LL_ADC_REG_SetSequencerDiscont(). */
 549:Drivers/STM32G4xx_HAL_Driver/Inc/stm32g4xx_ll_adc.h **** 
 550:Drivers/STM32G4xx_HAL_Driver/Inc/stm32g4xx_ll_adc.h ****   uint32_t ContinuousMode;              /*!< Set ADC continuous conversion mode on ADC group regula
 551:Drivers/STM32G4xx_HAL_Driver/Inc/stm32g4xx_ll_adc.h ****                                              conversions are performed in single mode (one conversi
 552:Drivers/STM32G4xx_HAL_Driver/Inc/stm32g4xx_ll_adc.h ****                                              continuous mode (after the first trigger, following co
 553:Drivers/STM32G4xx_HAL_Driver/Inc/stm32g4xx_ll_adc.h ****                                              successively automatically).
 554:Drivers/STM32G4xx_HAL_Driver/Inc/stm32g4xx_ll_adc.h ****                                              This parameter can be a value of @ref ADC_LL_EC_REG_CO
 555:Drivers/STM32G4xx_HAL_Driver/Inc/stm32g4xx_ll_adc.h ****                                              Note: It is not possible to enable both ADC group regu
 556:Drivers/STM32G4xx_HAL_Driver/Inc/stm32g4xx_ll_adc.h ****                                                    and discontinuous mode.
 557:Drivers/STM32G4xx_HAL_Driver/Inc/stm32g4xx_ll_adc.h ****                                              This feature can be modified afterwards using unitary 
 558:Drivers/STM32G4xx_HAL_Driver/Inc/stm32g4xx_ll_adc.h ****                                              @ref LL_ADC_REG_SetContinuousMode(). */
 559:Drivers/STM32G4xx_HAL_Driver/Inc/stm32g4xx_ll_adc.h **** 
 560:Drivers/STM32G4xx_HAL_Driver/Inc/stm32g4xx_ll_adc.h ****   uint32_t DMATransfer;                 /*!< Set ADC group regular conversion data transfer: no tra
 561:Drivers/STM32G4xx_HAL_Driver/Inc/stm32g4xx_ll_adc.h ****                                              by DMA, and DMA requests mode.
 562:Drivers/STM32G4xx_HAL_Driver/Inc/stm32g4xx_ll_adc.h ****                                              This parameter can be a value of @ref ADC_LL_EC_REG_DM
 563:Drivers/STM32G4xx_HAL_Driver/Inc/stm32g4xx_ll_adc.h ****                                              This feature can be modified afterwards using unitary 
 564:Drivers/STM32G4xx_HAL_Driver/Inc/stm32g4xx_ll_adc.h ****                                              @ref LL_ADC_REG_SetDMATransfer(). */
 565:Drivers/STM32G4xx_HAL_Driver/Inc/stm32g4xx_ll_adc.h **** 
 566:Drivers/STM32G4xx_HAL_Driver/Inc/stm32g4xx_ll_adc.h ****   uint32_t Overrun;                     /*!< Set ADC group regular behavior in case of overrun:
 567:Drivers/STM32G4xx_HAL_Driver/Inc/stm32g4xx_ll_adc.h ****                                              data preserved or overwritten.
 568:Drivers/STM32G4xx_HAL_Driver/Inc/stm32g4xx_ll_adc.h ****                                              This parameter can be a value of @ref ADC_LL_EC_REG_OV
 569:Drivers/STM32G4xx_HAL_Driver/Inc/stm32g4xx_ll_adc.h ****                                              This feature can be modified afterwards using unitary 
 570:Drivers/STM32G4xx_HAL_Driver/Inc/stm32g4xx_ll_adc.h ****                                              @ref LL_ADC_REG_SetOverrun(). */
 571:Drivers/STM32G4xx_HAL_Driver/Inc/stm32g4xx_ll_adc.h **** 
 572:Drivers/STM32G4xx_HAL_Driver/Inc/stm32g4xx_ll_adc.h **** } LL_ADC_REG_InitTypeDef;
 573:Drivers/STM32G4xx_HAL_Driver/Inc/stm32g4xx_ll_adc.h **** 
 574:Drivers/STM32G4xx_HAL_Driver/Inc/stm32g4xx_ll_adc.h **** /**
 575:Drivers/STM32G4xx_HAL_Driver/Inc/stm32g4xx_ll_adc.h ****   * @brief  Structure definition of some features of ADC group injected.
 576:Drivers/STM32G4xx_HAL_Driver/Inc/stm32g4xx_ll_adc.h ****   * @note   These parameters have an impact on ADC scope: ADC group injected.
 577:Drivers/STM32G4xx_HAL_Driver/Inc/stm32g4xx_ll_adc.h ****   *         Refer to corresponding unitary functions into
 578:Drivers/STM32G4xx_HAL_Driver/Inc/stm32g4xx_ll_adc.h ****   *         @ref ADC_LL_EF_Configuration_ADC_Group_Regular
 579:Drivers/STM32G4xx_HAL_Driver/Inc/stm32g4xx_ll_adc.h ****   *         (functions with prefix "INJ").
 580:Drivers/STM32G4xx_HAL_Driver/Inc/stm32g4xx_ll_adc.h ****   * @note   The setting of these parameters by function @ref LL_ADC_INJ_Init()
 581:Drivers/STM32G4xx_HAL_Driver/Inc/stm32g4xx_ll_adc.h ****   *         is conditioned to ADC state:
 582:Drivers/STM32G4xx_HAL_Driver/Inc/stm32g4xx_ll_adc.h ****   *         ADC instance must be disabled.
 583:Drivers/STM32G4xx_HAL_Driver/Inc/stm32g4xx_ll_adc.h ****   *         This condition is applied to all ADC features, for efficiency
 584:Drivers/STM32G4xx_HAL_Driver/Inc/stm32g4xx_ll_adc.h ****   *         and compatibility over all STM32 series. However, the different
 585:Drivers/STM32G4xx_HAL_Driver/Inc/stm32g4xx_ll_adc.h ****   *         features can be set under different ADC state conditions
 586:Drivers/STM32G4xx_HAL_Driver/Inc/stm32g4xx_ll_adc.h ****   *         (setting possible with ADC enabled without conversion on going,
 587:Drivers/STM32G4xx_HAL_Driver/Inc/stm32g4xx_ll_adc.h ****   *         ADC enabled with conversion on going, ...)
 588:Drivers/STM32G4xx_HAL_Driver/Inc/stm32g4xx_ll_adc.h ****   *         Each feature can be updated afterwards with a unitary function
 589:Drivers/STM32G4xx_HAL_Driver/Inc/stm32g4xx_ll_adc.h ****   *         and potentially with ADC in a different state than disabled,
 590:Drivers/STM32G4xx_HAL_Driver/Inc/stm32g4xx_ll_adc.h ****   *         refer to description of each function for setting
 591:Drivers/STM32G4xx_HAL_Driver/Inc/stm32g4xx_ll_adc.h ****   *         conditioned to ADC state.
 592:Drivers/STM32G4xx_HAL_Driver/Inc/stm32g4xx_ll_adc.h ****   */
 593:Drivers/STM32G4xx_HAL_Driver/Inc/stm32g4xx_ll_adc.h **** typedef struct
 594:Drivers/STM32G4xx_HAL_Driver/Inc/stm32g4xx_ll_adc.h **** {
 595:Drivers/STM32G4xx_HAL_Driver/Inc/stm32g4xx_ll_adc.h ****   uint32_t TriggerSource;               /*!< Set ADC group injected conversion trigger source: inte
 596:Drivers/STM32G4xx_HAL_Driver/Inc/stm32g4xx_ll_adc.h ****                                              or from external peripheral (timer event, external int
 597:Drivers/STM32G4xx_HAL_Driver/Inc/stm32g4xx_ll_adc.h ****                                              This parameter can be a value of @ref ADC_LL_EC_INJ_TR
 598:Drivers/STM32G4xx_HAL_Driver/Inc/stm32g4xx_ll_adc.h ****                                              @note On this STM32 series, setting trigger source to 
 599:Drivers/STM32G4xx_HAL_Driver/Inc/stm32g4xx_ll_adc.h ****                                                    set trigger polarity to rising edge (default set
ARM GAS  /tmp/cc4nYBwt.s 			page 61


 600:Drivers/STM32G4xx_HAL_Driver/Inc/stm32g4xx_ll_adc.h ****                                                    compatibility with some ADC on other STM32 serie
 601:Drivers/STM32G4xx_HAL_Driver/Inc/stm32g4xx_ll_adc.h ****                                                    setting set by HW default value).
 602:Drivers/STM32G4xx_HAL_Driver/Inc/stm32g4xx_ll_adc.h ****                                                    In case of need to modify trigger edge, use func
 603:Drivers/STM32G4xx_HAL_Driver/Inc/stm32g4xx_ll_adc.h ****                                                    @ref LL_ADC_INJ_SetTriggerEdge().
 604:Drivers/STM32G4xx_HAL_Driver/Inc/stm32g4xx_ll_adc.h ****                                              This feature can be modified afterwards using unitary 
 605:Drivers/STM32G4xx_HAL_Driver/Inc/stm32g4xx_ll_adc.h ****                                              @ref LL_ADC_INJ_SetTriggerSource(). */
 606:Drivers/STM32G4xx_HAL_Driver/Inc/stm32g4xx_ll_adc.h **** 
 607:Drivers/STM32G4xx_HAL_Driver/Inc/stm32g4xx_ll_adc.h ****   uint32_t SequencerLength;             /*!< Set ADC group injected sequencer length.
 608:Drivers/STM32G4xx_HAL_Driver/Inc/stm32g4xx_ll_adc.h ****                                              This parameter can be a value of @ref ADC_LL_EC_INJ_SE
 609:Drivers/STM32G4xx_HAL_Driver/Inc/stm32g4xx_ll_adc.h ****                                              This feature can be modified afterwards using unitary 
 610:Drivers/STM32G4xx_HAL_Driver/Inc/stm32g4xx_ll_adc.h ****                                              @ref LL_ADC_INJ_SetSequencerLength(). */
 611:Drivers/STM32G4xx_HAL_Driver/Inc/stm32g4xx_ll_adc.h **** 
 612:Drivers/STM32G4xx_HAL_Driver/Inc/stm32g4xx_ll_adc.h ****   uint32_t SequencerDiscont;            /*!< Set ADC group injected sequencer discontinuous mode: s
 613:Drivers/STM32G4xx_HAL_Driver/Inc/stm32g4xx_ll_adc.h ****                                              and scan conversions interrupted every selected number
 614:Drivers/STM32G4xx_HAL_Driver/Inc/stm32g4xx_ll_adc.h ****                                              This parameter can be a value of @ref ADC_LL_EC_INJ_SE
 615:Drivers/STM32G4xx_HAL_Driver/Inc/stm32g4xx_ll_adc.h ****                                              @note This parameter has an effect only if group injec
 616:Drivers/STM32G4xx_HAL_Driver/Inc/stm32g4xx_ll_adc.h ****                                                    enabled (scan length of 2 ranks or more).
 617:Drivers/STM32G4xx_HAL_Driver/Inc/stm32g4xx_ll_adc.h ****                                              This feature can be modified afterwards using unitary 
 618:Drivers/STM32G4xx_HAL_Driver/Inc/stm32g4xx_ll_adc.h ****                                              @ref LL_ADC_INJ_SetSequencerDiscont(). */
 619:Drivers/STM32G4xx_HAL_Driver/Inc/stm32g4xx_ll_adc.h **** 
 620:Drivers/STM32G4xx_HAL_Driver/Inc/stm32g4xx_ll_adc.h ****   uint32_t TrigAuto;                    /*!< Set ADC group injected conversion trigger: independent
 621:Drivers/STM32G4xx_HAL_Driver/Inc/stm32g4xx_ll_adc.h ****                                              regular.
 622:Drivers/STM32G4xx_HAL_Driver/Inc/stm32g4xx_ll_adc.h ****                                              This parameter can be a value of @ref ADC_LL_EC_INJ_TR
 623:Drivers/STM32G4xx_HAL_Driver/Inc/stm32g4xx_ll_adc.h ****                                              Note: This parameter must be set to set to independent
 624:Drivers/STM32G4xx_HAL_Driver/Inc/stm32g4xx_ll_adc.h ****                                                    trigger source is set to an external trigger.
 625:Drivers/STM32G4xx_HAL_Driver/Inc/stm32g4xx_ll_adc.h ****                                              This feature can be modified afterwards using unitary 
 626:Drivers/STM32G4xx_HAL_Driver/Inc/stm32g4xx_ll_adc.h ****                                              @ref LL_ADC_INJ_SetTrigAuto(). */
 627:Drivers/STM32G4xx_HAL_Driver/Inc/stm32g4xx_ll_adc.h **** 
 628:Drivers/STM32G4xx_HAL_Driver/Inc/stm32g4xx_ll_adc.h **** } LL_ADC_INJ_InitTypeDef;
 629:Drivers/STM32G4xx_HAL_Driver/Inc/stm32g4xx_ll_adc.h **** 
 630:Drivers/STM32G4xx_HAL_Driver/Inc/stm32g4xx_ll_adc.h **** /**
 631:Drivers/STM32G4xx_HAL_Driver/Inc/stm32g4xx_ll_adc.h ****   * @}
 632:Drivers/STM32G4xx_HAL_Driver/Inc/stm32g4xx_ll_adc.h ****   */
 633:Drivers/STM32G4xx_HAL_Driver/Inc/stm32g4xx_ll_adc.h **** #endif /* USE_FULL_LL_DRIVER */
 634:Drivers/STM32G4xx_HAL_Driver/Inc/stm32g4xx_ll_adc.h **** 
 635:Drivers/STM32G4xx_HAL_Driver/Inc/stm32g4xx_ll_adc.h **** /* Exported constants --------------------------------------------------------*/
 636:Drivers/STM32G4xx_HAL_Driver/Inc/stm32g4xx_ll_adc.h **** /** @defgroup ADC_LL_Exported_Constants ADC Exported Constants
 637:Drivers/STM32G4xx_HAL_Driver/Inc/stm32g4xx_ll_adc.h ****   * @{
 638:Drivers/STM32G4xx_HAL_Driver/Inc/stm32g4xx_ll_adc.h ****   */
 639:Drivers/STM32G4xx_HAL_Driver/Inc/stm32g4xx_ll_adc.h **** 
 640:Drivers/STM32G4xx_HAL_Driver/Inc/stm32g4xx_ll_adc.h **** /** @defgroup ADC_LL_EC_FLAG ADC flags
 641:Drivers/STM32G4xx_HAL_Driver/Inc/stm32g4xx_ll_adc.h ****   * @brief    Flags defines which can be used with LL_ADC_ReadReg function
 642:Drivers/STM32G4xx_HAL_Driver/Inc/stm32g4xx_ll_adc.h ****   * @{
 643:Drivers/STM32G4xx_HAL_Driver/Inc/stm32g4xx_ll_adc.h ****   */
 644:Drivers/STM32G4xx_HAL_Driver/Inc/stm32g4xx_ll_adc.h **** #define LL_ADC_FLAG_ADRDY                  ADC_ISR_ADRDY      /*!< ADC flag ADC instance ready */
 645:Drivers/STM32G4xx_HAL_Driver/Inc/stm32g4xx_ll_adc.h **** #define LL_ADC_FLAG_EOC                    ADC_ISR_EOC        /*!< ADC flag ADC group regular end o
 646:Drivers/STM32G4xx_HAL_Driver/Inc/stm32g4xx_ll_adc.h ****                                            conversion */
 647:Drivers/STM32G4xx_HAL_Driver/Inc/stm32g4xx_ll_adc.h **** #define LL_ADC_FLAG_EOS                    ADC_ISR_EOS        /*!< ADC flag ADC group regular end o
 648:Drivers/STM32G4xx_HAL_Driver/Inc/stm32g4xx_ll_adc.h ****                                            conversions */
 649:Drivers/STM32G4xx_HAL_Driver/Inc/stm32g4xx_ll_adc.h **** #define LL_ADC_FLAG_OVR                    ADC_ISR_OVR        /*!< ADC flag ADC group regular overr
 650:Drivers/STM32G4xx_HAL_Driver/Inc/stm32g4xx_ll_adc.h **** #define LL_ADC_FLAG_EOSMP                  ADC_ISR_EOSMP      /*!< ADC flag ADC group regular end o
 651:Drivers/STM32G4xx_HAL_Driver/Inc/stm32g4xx_ll_adc.h **** #define LL_ADC_FLAG_JEOC                   ADC_ISR_JEOC       /*!< ADC flag ADC group injected end 
 652:Drivers/STM32G4xx_HAL_Driver/Inc/stm32g4xx_ll_adc.h ****                                                                    conversion */
 653:Drivers/STM32G4xx_HAL_Driver/Inc/stm32g4xx_ll_adc.h **** #define LL_ADC_FLAG_JEOS                   ADC_ISR_JEOS       /*!< ADC flag ADC group injected end 
 654:Drivers/STM32G4xx_HAL_Driver/Inc/stm32g4xx_ll_adc.h ****                                                                    conversions */
 655:Drivers/STM32G4xx_HAL_Driver/Inc/stm32g4xx_ll_adc.h **** #define LL_ADC_FLAG_JQOVF                  ADC_ISR_JQOVF      /*!< ADC flag ADC group injected cont
 656:Drivers/STM32G4xx_HAL_Driver/Inc/stm32g4xx_ll_adc.h ****                                                                    overflow */
ARM GAS  /tmp/cc4nYBwt.s 			page 62


 657:Drivers/STM32G4xx_HAL_Driver/Inc/stm32g4xx_ll_adc.h **** #define LL_ADC_FLAG_AWD1                   ADC_ISR_AWD1       /*!< ADC flag ADC analog watchdog 1 *
 658:Drivers/STM32G4xx_HAL_Driver/Inc/stm32g4xx_ll_adc.h **** #define LL_ADC_FLAG_AWD2                   ADC_ISR_AWD2       /*!< ADC flag ADC analog watchdog 2 *
 659:Drivers/STM32G4xx_HAL_Driver/Inc/stm32g4xx_ll_adc.h **** #define LL_ADC_FLAG_AWD3                   ADC_ISR_AWD3       /*!< ADC flag ADC analog watchdog 3 *
 660:Drivers/STM32G4xx_HAL_Driver/Inc/stm32g4xx_ll_adc.h **** #if defined(ADC_MULTIMODE_SUPPORT)
 661:Drivers/STM32G4xx_HAL_Driver/Inc/stm32g4xx_ll_adc.h **** #define LL_ADC_FLAG_ADRDY_MST              ADC_CSR_ADRDY_MST  /*!< ADC flag ADC multimode master in
 662:Drivers/STM32G4xx_HAL_Driver/Inc/stm32g4xx_ll_adc.h **** #define LL_ADC_FLAG_ADRDY_SLV              ADC_CSR_ADRDY_SLV  /*!< ADC flag ADC multimode slave ins
 663:Drivers/STM32G4xx_HAL_Driver/Inc/stm32g4xx_ll_adc.h **** #define LL_ADC_FLAG_EOC_MST                ADC_CSR_EOC_MST    /*!< ADC flag ADC multimode master gr
 664:Drivers/STM32G4xx_HAL_Driver/Inc/stm32g4xx_ll_adc.h ****                                                                    unitary conversion */
 665:Drivers/STM32G4xx_HAL_Driver/Inc/stm32g4xx_ll_adc.h **** #define LL_ADC_FLAG_EOC_SLV                ADC_CSR_EOC_SLV    /*!< ADC flag ADC multimode slave gro
 666:Drivers/STM32G4xx_HAL_Driver/Inc/stm32g4xx_ll_adc.h ****                                                                    unitary conversion */
 667:Drivers/STM32G4xx_HAL_Driver/Inc/stm32g4xx_ll_adc.h **** #define LL_ADC_FLAG_EOS_MST                ADC_CSR_EOS_MST    /*!< ADC flag ADC multimode master gr
 668:Drivers/STM32G4xx_HAL_Driver/Inc/stm32g4xx_ll_adc.h ****                                                                    sequence conversions */
 669:Drivers/STM32G4xx_HAL_Driver/Inc/stm32g4xx_ll_adc.h **** #define LL_ADC_FLAG_EOS_SLV                ADC_CSR_EOS_SLV    /*!< ADC flag ADC multimode slave gro
 670:Drivers/STM32G4xx_HAL_Driver/Inc/stm32g4xx_ll_adc.h ****                                                                    sequence conversions */
 671:Drivers/STM32G4xx_HAL_Driver/Inc/stm32g4xx_ll_adc.h **** #define LL_ADC_FLAG_OVR_MST                ADC_CSR_OVR_MST    /*!< ADC flag ADC multimode master gr
 672:Drivers/STM32G4xx_HAL_Driver/Inc/stm32g4xx_ll_adc.h ****                                                                    overrun */
 673:Drivers/STM32G4xx_HAL_Driver/Inc/stm32g4xx_ll_adc.h **** #define LL_ADC_FLAG_OVR_SLV                ADC_CSR_OVR_SLV    /*!< ADC flag ADC multimode slave gro
 674:Drivers/STM32G4xx_HAL_Driver/Inc/stm32g4xx_ll_adc.h ****                                                                    overrun */
 675:Drivers/STM32G4xx_HAL_Driver/Inc/stm32g4xx_ll_adc.h **** #define LL_ADC_FLAG_EOSMP_MST              ADC_CSR_EOSMP_MST  /*!< ADC flag ADC multimode master gr
 676:Drivers/STM32G4xx_HAL_Driver/Inc/stm32g4xx_ll_adc.h ****                                                                    sampling phase */
 677:Drivers/STM32G4xx_HAL_Driver/Inc/stm32g4xx_ll_adc.h **** #define LL_ADC_FLAG_EOSMP_SLV              ADC_CSR_EOSMP_SLV  /*!< ADC flag ADC multimode slave gro
 678:Drivers/STM32G4xx_HAL_Driver/Inc/stm32g4xx_ll_adc.h ****                                                                    sampling phase */
 679:Drivers/STM32G4xx_HAL_Driver/Inc/stm32g4xx_ll_adc.h **** #define LL_ADC_FLAG_JEOC_MST               ADC_CSR_JEOC_MST   /*!< ADC flag ADC multimode master gr
 680:Drivers/STM32G4xx_HAL_Driver/Inc/stm32g4xx_ll_adc.h ****                                                                    unitary conversion */
 681:Drivers/STM32G4xx_HAL_Driver/Inc/stm32g4xx_ll_adc.h **** #define LL_ADC_FLAG_JEOC_SLV               ADC_CSR_JEOC_SLV   /*!< ADC flag ADC multimode slave gro
 682:Drivers/STM32G4xx_HAL_Driver/Inc/stm32g4xx_ll_adc.h ****                                                                    unitary conversion */
 683:Drivers/STM32G4xx_HAL_Driver/Inc/stm32g4xx_ll_adc.h **** #define LL_ADC_FLAG_JEOS_MST               ADC_CSR_JEOS_MST   /*!< ADC flag ADC multimode master gr
 684:Drivers/STM32G4xx_HAL_Driver/Inc/stm32g4xx_ll_adc.h ****                                                                    sequence conversions */
 685:Drivers/STM32G4xx_HAL_Driver/Inc/stm32g4xx_ll_adc.h **** #define LL_ADC_FLAG_JEOS_SLV               ADC_CSR_JEOS_SLV   /*!< ADC flag ADC multimode slave gro
 686:Drivers/STM32G4xx_HAL_Driver/Inc/stm32g4xx_ll_adc.h ****                                                                    sequence conversions */
 687:Drivers/STM32G4xx_HAL_Driver/Inc/stm32g4xx_ll_adc.h **** #define LL_ADC_FLAG_JQOVF_MST              ADC_CSR_JQOVF_MST  /*!< ADC flag ADC multimode master gr
 688:Drivers/STM32G4xx_HAL_Driver/Inc/stm32g4xx_ll_adc.h ****                                                                    contexts queue overflow */
 689:Drivers/STM32G4xx_HAL_Driver/Inc/stm32g4xx_ll_adc.h **** #define LL_ADC_FLAG_JQOVF_SLV              ADC_CSR_JQOVF_SLV  /*!< ADC flag ADC multimode slave gro
 690:Drivers/STM32G4xx_HAL_Driver/Inc/stm32g4xx_ll_adc.h ****                                                                    contexts queue overflow */
 691:Drivers/STM32G4xx_HAL_Driver/Inc/stm32g4xx_ll_adc.h **** #define LL_ADC_FLAG_AWD1_MST               ADC_CSR_AWD1_MST   /*!< ADC flag ADC multimode master an
 692:Drivers/STM32G4xx_HAL_Driver/Inc/stm32g4xx_ll_adc.h ****                                                                    of the ADC master */
 693:Drivers/STM32G4xx_HAL_Driver/Inc/stm32g4xx_ll_adc.h **** #define LL_ADC_FLAG_AWD1_SLV               ADC_CSR_AWD1_SLV   /*!< ADC flag ADC multimode slave ana
 694:Drivers/STM32G4xx_HAL_Driver/Inc/stm32g4xx_ll_adc.h ****                                                                    of the ADC slave */
 695:Drivers/STM32G4xx_HAL_Driver/Inc/stm32g4xx_ll_adc.h **** #define LL_ADC_FLAG_AWD2_MST               ADC_CSR_AWD2_MST   /*!< ADC flag ADC multimode master an
 696:Drivers/STM32G4xx_HAL_Driver/Inc/stm32g4xx_ll_adc.h ****                                                                    of the ADC master */
 697:Drivers/STM32G4xx_HAL_Driver/Inc/stm32g4xx_ll_adc.h **** #define LL_ADC_FLAG_AWD2_SLV               ADC_CSR_AWD2_SLV   /*!< ADC flag ADC multimode slave ana
 698:Drivers/STM32G4xx_HAL_Driver/Inc/stm32g4xx_ll_adc.h ****                                                                    of the ADC slave */
 699:Drivers/STM32G4xx_HAL_Driver/Inc/stm32g4xx_ll_adc.h **** #define LL_ADC_FLAG_AWD3_MST               ADC_CSR_AWD3_MST   /*!< ADC flag ADC multimode master an
 700:Drivers/STM32G4xx_HAL_Driver/Inc/stm32g4xx_ll_adc.h ****                                                                    of the ADC master */
 701:Drivers/STM32G4xx_HAL_Driver/Inc/stm32g4xx_ll_adc.h **** #define LL_ADC_FLAG_AWD3_SLV               ADC_CSR_AWD3_SLV   /*!< ADC flag ADC multimode slave ana
 702:Drivers/STM32G4xx_HAL_Driver/Inc/stm32g4xx_ll_adc.h ****                                                                    of the ADC slave */
 703:Drivers/STM32G4xx_HAL_Driver/Inc/stm32g4xx_ll_adc.h **** #endif /* ADC_MULTIMODE_SUPPORT */
 704:Drivers/STM32G4xx_HAL_Driver/Inc/stm32g4xx_ll_adc.h **** /**
 705:Drivers/STM32G4xx_HAL_Driver/Inc/stm32g4xx_ll_adc.h ****   * @}
 706:Drivers/STM32G4xx_HAL_Driver/Inc/stm32g4xx_ll_adc.h ****   */
 707:Drivers/STM32G4xx_HAL_Driver/Inc/stm32g4xx_ll_adc.h **** 
 708:Drivers/STM32G4xx_HAL_Driver/Inc/stm32g4xx_ll_adc.h **** /** @defgroup ADC_LL_EC_IT ADC interruptions for configuration (interruption enable or disable)
 709:Drivers/STM32G4xx_HAL_Driver/Inc/stm32g4xx_ll_adc.h ****   * @brief    IT defines which can be used with LL_ADC_ReadReg and  LL_ADC_WriteReg functions
 710:Drivers/STM32G4xx_HAL_Driver/Inc/stm32g4xx_ll_adc.h ****   * @{
 711:Drivers/STM32G4xx_HAL_Driver/Inc/stm32g4xx_ll_adc.h ****   */
 712:Drivers/STM32G4xx_HAL_Driver/Inc/stm32g4xx_ll_adc.h **** #define LL_ADC_IT_ADRDY                    ADC_IER_ADRDYIE    /*!< ADC interruption ADC instance re
 713:Drivers/STM32G4xx_HAL_Driver/Inc/stm32g4xx_ll_adc.h **** #define LL_ADC_IT_EOC                      ADC_IER_EOCIE      /*!< ADC interruption ADC group regul
ARM GAS  /tmp/cc4nYBwt.s 			page 63


 714:Drivers/STM32G4xx_HAL_Driver/Inc/stm32g4xx_ll_adc.h ****                                                                    conversion */
 715:Drivers/STM32G4xx_HAL_Driver/Inc/stm32g4xx_ll_adc.h **** #define LL_ADC_IT_EOS                      ADC_IER_EOSIE      /*!< ADC interruption ADC group regul
 716:Drivers/STM32G4xx_HAL_Driver/Inc/stm32g4xx_ll_adc.h ****                                                                    conversions */
 717:Drivers/STM32G4xx_HAL_Driver/Inc/stm32g4xx_ll_adc.h **** #define LL_ADC_IT_OVR                      ADC_IER_OVRIE      /*!< ADC interruption ADC group regul
 718:Drivers/STM32G4xx_HAL_Driver/Inc/stm32g4xx_ll_adc.h **** #define LL_ADC_IT_EOSMP                    ADC_IER_EOSMPIE    /*!< ADC interruption ADC group regul
 719:Drivers/STM32G4xx_HAL_Driver/Inc/stm32g4xx_ll_adc.h ****                                                                    phase */
 720:Drivers/STM32G4xx_HAL_Driver/Inc/stm32g4xx_ll_adc.h **** #define LL_ADC_IT_JEOC                     ADC_IER_JEOCIE     /*!< ADC interruption ADC group injec
 721:Drivers/STM32G4xx_HAL_Driver/Inc/stm32g4xx_ll_adc.h ****                                                                    conversion */
 722:Drivers/STM32G4xx_HAL_Driver/Inc/stm32g4xx_ll_adc.h **** #define LL_ADC_IT_JEOS                     ADC_IER_JEOSIE     /*!< ADC interruption ADC group injec
 723:Drivers/STM32G4xx_HAL_Driver/Inc/stm32g4xx_ll_adc.h ****                                                                    conversions */
 724:Drivers/STM32G4xx_HAL_Driver/Inc/stm32g4xx_ll_adc.h **** #define LL_ADC_IT_JQOVF                    ADC_IER_JQOVFIE    /*!< ADC interruption ADC group injec
 725:Drivers/STM32G4xx_HAL_Driver/Inc/stm32g4xx_ll_adc.h ****                                                                    overflow */
 726:Drivers/STM32G4xx_HAL_Driver/Inc/stm32g4xx_ll_adc.h **** #define LL_ADC_IT_AWD1                     ADC_IER_AWD1IE     /*!< ADC interruption ADC analog watc
 727:Drivers/STM32G4xx_HAL_Driver/Inc/stm32g4xx_ll_adc.h **** #define LL_ADC_IT_AWD2                     ADC_IER_AWD2IE     /*!< ADC interruption ADC analog watc
 728:Drivers/STM32G4xx_HAL_Driver/Inc/stm32g4xx_ll_adc.h **** #define LL_ADC_IT_AWD3                     ADC_IER_AWD3IE     /*!< ADC interruption ADC analog watc
 729:Drivers/STM32G4xx_HAL_Driver/Inc/stm32g4xx_ll_adc.h **** /**
 730:Drivers/STM32G4xx_HAL_Driver/Inc/stm32g4xx_ll_adc.h ****   * @}
 731:Drivers/STM32G4xx_HAL_Driver/Inc/stm32g4xx_ll_adc.h ****   */
 732:Drivers/STM32G4xx_HAL_Driver/Inc/stm32g4xx_ll_adc.h **** 
