ARM GAS  /tmp/cc4AM3Me.s 			page 1


   1              		.cpu cortex-m4
   2              		.eabi_attribute 27, 1
   3              		.eabi_attribute 28, 1
   4              		.eabi_attribute 20, 1
   5              		.eabi_attribute 21, 1
   6              		.eabi_attribute 23, 3
   7              		.eabi_attribute 24, 1
   8              		.eabi_attribute 25, 1
   9              		.eabi_attribute 26, 1
  10              		.eabi_attribute 30, 1
  11              		.eabi_attribute 34, 1
  12              		.eabi_attribute 18, 2
  13              		.file	"mc_perf.c"
  14              		.text
  15              	.Ltext0:
  16              		.cfi_sections	.debug_frame
  17              		.section	.text.MC_Perf_Measure_Init,"ax",%progbits
  18              		.align	1
  19              		.global	MC_Perf_Measure_Init
  20              		.arch armv7e-m
  21              		.syntax unified
  22              		.thumb
  23              		.thumb_func
  24              		.fpu fpv4-sp-d16
  26              	MC_Perf_Measure_Init:
  27              	.LVL0:
  28              	.LFB1438:
  29              		.file 1 "Src/mc_perf.c"
   1:Src/mc_perf.c **** /**
   2:Src/mc_perf.c ****   ******************************************************************************
   3:Src/mc_perf.c ****   * @file    mc_perf.c
   4:Src/mc_perf.c ****   * @author  Motor Control SDK Team, ST Microelectronics
   5:Src/mc_perf.c ****   * @brief   Execution time measurement
   6:Src/mc_perf.c ****   ******************************************************************************
   7:Src/mc_perf.c ****   * @attention
   8:Src/mc_perf.c ****   *
   9:Src/mc_perf.c ****   * <h2><center>&copy; Copyright (c) 2024 STMicroelectronics.
  10:Src/mc_perf.c ****   * All rights reserved.</center></h2>
  11:Src/mc_perf.c ****   *
  12:Src/mc_perf.c ****   * This software component is licensed by ST under Ultimate Liberty license
  13:Src/mc_perf.c ****   * SLA0044, the "License"; You may not use this file except in compliance with
  14:Src/mc_perf.c ****   * the License. You may obtain a copy of the License at:
  15:Src/mc_perf.c ****   *                             www.st.com/SLA0044
  16:Src/mc_perf.c ****   *
  17:Src/mc_perf.c ****   ******************************************************************************
  18:Src/mc_perf.c ****   */
  19:Src/mc_perf.c **** 
  20:Src/mc_perf.c **** #include "parameters_conversion.h"
  21:Src/mc_perf.c **** #include "mc_perf.h"
  22:Src/mc_perf.c **** 
  23:Src/mc_perf.c **** void MC_Perf_Measure_Init(MC_Perf_Handle_t *pHandle)
  24:Src/mc_perf.c **** {
  30              		.loc 1 24 1 view -0
  31              		.cfi_startproc
  32              		@ args = 0, pretend = 0, frame = 0
  33              		@ frame_needed = 0, uses_anonymous_args = 0
  34              		@ link register save eliminated.
ARM GAS  /tmp/cc4AM3Me.s 			page 2


  25:Src/mc_perf.c **** #ifdef NULL_PTR_CHECK_MC_PERF
  26:Src/mc_perf.c ****   if (MC_NULL == pHandle)
  27:Src/mc_perf.c ****   {
  28:Src/mc_perf.c ****     /* Nothing to do */
  29:Src/mc_perf.c ****   }
  30:Src/mc_perf.c ****   else
  31:Src/mc_perf.c ****   {
  32:Src/mc_perf.c **** #endif
  33:Src/mc_perf.c ****   uint8_t  i;
  35              		.loc 1 33 3 view .LVU1
  34:Src/mc_perf.c ****   Perf_Handle_t  *pHdl;
  36              		.loc 1 34 3 view .LVU2
  35:Src/mc_perf.c **** 
  36:Src/mc_perf.c ****   /* Set Debug mod for DWT IP Enabling */
  37:Src/mc_perf.c ****   CoreDebug->DEMCR |= CoreDebug_DEMCR_TRCENA_Msk;
  37              		.loc 1 37 3 view .LVU3
  38              		.loc 1 37 20 is_stmt 0 view .LVU4
  39 0000 0F4A     		ldr	r2, .L3
  40 0002 D2F8FC30 		ldr	r3, [r2, #252]
  41 0006 43F08073 		orr	r3, r3, #16777216
  42 000a C2F8FC30 		str	r3, [r2, #252]
  38:Src/mc_perf.c **** 
  39:Src/mc_perf.c ****   if (DWT->CTRL != 0U)
  43              		.loc 1 39 3 is_stmt 1 view .LVU5
  44              		.loc 1 39 10 is_stmt 0 view .LVU6
  45 000e 0D4B     		ldr	r3, .L3+4
  46 0010 1B68     		ldr	r3, [r3]
  47              		.loc 1 39 6 view .LVU7
  48 0012 33B1     		cbz	r3, .L2
  40:Src/mc_perf.c ****   {                                        /* Check if DWT is present. */
  41:Src/mc_perf.c ****     DWT->CYCCNT  = 0;
  49              		.loc 1 41 5 is_stmt 1 view .LVU8
  50              		.loc 1 41 18 is_stmt 0 view .LVU9
  51 0014 0B4B     		ldr	r3, .L3+4
  52 0016 0022     		movs	r2, #0
  53 0018 5A60     		str	r2, [r3, #4]
  42:Src/mc_perf.c ****     DWT->CTRL   |= DWT_CTRL_CYCCNTENA_Msk; /* Enable Cycle Counter. */
  54              		.loc 1 42 5 is_stmt 1 view .LVU10
  55              		.loc 1 42 17 is_stmt 0 view .LVU11
  56 001a 1A68     		ldr	r2, [r3]
  57 001c 42F00102 		orr	r2, r2, #1
  58 0020 1A60     		str	r2, [r3]
  59              	.L2:
  60              	.LVL1:
  43:Src/mc_perf.c ****   }
  44:Src/mc_perf.c ****   else
  45:Src/mc_perf.c ****   {
  46:Src/mc_perf.c ****     /* Nothing to do */
  47:Src/mc_perf.c ****   }
  48:Src/mc_perf.c **** 
  49:Src/mc_perf.c ****     for (i = 0U; i < MC_PERF_NB_TRACES; i++)
  61              		.loc 1 49 18 is_stmt 1 discriminator 1 view .LVU12
  50:Src/mc_perf.c ****     {
  51:Src/mc_perf.c ****       pHdl = &pHandle->MC_Perf_TraceLog[i];
  62              		.loc 1 51 7 discriminator 1 view .LVU13
  52:Src/mc_perf.c ****       pHdl->StartMeasure = 0;
  63              		.loc 1 52 7 discriminator 1 view .LVU14
ARM GAS  /tmp/cc4AM3Me.s 			page 3


  64              		.loc 1 52 26 is_stmt 0 discriminator 1 view .LVU15
  65 0022 0023     		movs	r3, #0
  66 0024 8360     		str	r3, [r0, #8]
  53:Src/mc_perf.c ****       pHdl->DeltaTimeInCycle = 0;
  67              		.loc 1 53 7 is_stmt 1 discriminator 1 view .LVU16
  68              		.loc 1 53 30 is_stmt 0 discriminator 1 view .LVU17
  69 0026 C360     		str	r3, [r0, #12]
  54:Src/mc_perf.c ****       pHdl->min = UINT32_MAX;
  70              		.loc 1 54 7 is_stmt 1 discriminator 1 view .LVU18
  71              		.loc 1 54 17 is_stmt 0 discriminator 1 view .LVU19
  72 0028 4FF0FF32 		mov	r2, #-1
  73 002c 0261     		str	r2, [r0, #16]
  55:Src/mc_perf.c ****       pHdl->max = 0;
  74              		.loc 1 55 7 is_stmt 1 discriminator 1 view .LVU20
  75              		.loc 1 55 17 is_stmt 0 discriminator 1 view .LVU21
  76 002e 4361     		str	r3, [r0, #20]
  49:Src/mc_perf.c ****     {
  77              		.loc 1 49 41 is_stmt 1 discriminator 1 view .LVU22
  78              	.LVL2:
  49:Src/mc_perf.c ****     {
  79              		.loc 1 49 18 discriminator 1 view .LVU23
  51:Src/mc_perf.c ****       pHdl->StartMeasure = 0;
  80              		.loc 1 51 7 discriminator 1 view .LVU24
  52:Src/mc_perf.c ****       pHdl->DeltaTimeInCycle = 0;
  81              		.loc 1 52 7 discriminator 1 view .LVU25
  52:Src/mc_perf.c ****       pHdl->DeltaTimeInCycle = 0;
  82              		.loc 1 52 26 is_stmt 0 discriminator 1 view .LVU26
  83 0030 8361     		str	r3, [r0, #24]
  53:Src/mc_perf.c ****       pHdl->min = UINT32_MAX;
  84              		.loc 1 53 7 is_stmt 1 discriminator 1 view .LVU27
  53:Src/mc_perf.c ****       pHdl->min = UINT32_MAX;
  85              		.loc 1 53 30 is_stmt 0 discriminator 1 view .LVU28
  86 0032 C361     		str	r3, [r0, #28]
  54:Src/mc_perf.c ****       pHdl->max = 0;
  87              		.loc 1 54 7 is_stmt 1 discriminator 1 view .LVU29
  54:Src/mc_perf.c ****       pHdl->max = 0;
  88              		.loc 1 54 17 is_stmt 0 discriminator 1 view .LVU30
  89 0034 0262     		str	r2, [r0, #32]
  90              		.loc 1 55 7 is_stmt 1 discriminator 1 view .LVU31
  91              		.loc 1 55 17 is_stmt 0 discriminator 1 view .LVU32
  92 0036 4362     		str	r3, [r0, #36]
  49:Src/mc_perf.c ****     {
  93              		.loc 1 49 41 is_stmt 1 discriminator 1 view .LVU33
  94              	.LVL3:
  49:Src/mc_perf.c ****     {
  95              		.loc 1 49 18 discriminator 1 view .LVU34
  56:Src/mc_perf.c ****     }
  57:Src/mc_perf.c ****     pHandle->BG_Task_OnGoing = false;
  96              		.loc 1 57 5 discriminator 1 view .LVU35
  97              		.loc 1 57 30 is_stmt 0 discriminator 1 view .LVU36
  98 0038 0370     		strb	r3, [r0]
  58:Src/mc_perf.c ****     pHandle->AccHighFreqTasksCnt = 0;
  99              		.loc 1 58 5 is_stmt 1 discriminator 1 view .LVU37
 100              		.loc 1 58 34 is_stmt 0 discriminator 1 view .LVU38
 101 003a 4360     		str	r3, [r0, #4]
  59:Src/mc_perf.c **** #ifdef NULL_PTR_CHECK_MC_PERF
  60:Src/mc_perf.c ****   }
ARM GAS  /tmp/cc4AM3Me.s 			page 4


  61:Src/mc_perf.c **** #endif
  62:Src/mc_perf.c **** }
 102              		.loc 1 62 1 discriminator 1 view .LVU39
 103 003c 7047     		bx	lr
 104              	.L4:
 105 003e 00BF     		.align	2
 106              	.L3:
 107 0040 00ED00E0 		.word	-536810240
 108 0044 001000E0 		.word	-536866816
 109              		.cfi_endproc
 110              	.LFE1438:
 112              		.section	.text.MC_Perf_Clear,"ax",%progbits
 113              		.align	1
 114              		.global	MC_Perf_Clear
 115              		.syntax unified
 116              		.thumb
 117              		.thumb_func
 118              		.fpu fpv4-sp-d16
 120              	MC_Perf_Clear:
 121              	.LVL4:
 122              	.LFB1439:
  63:Src/mc_perf.c **** 
  64:Src/mc_perf.c **** void MC_Perf_Clear(MC_Perf_Handle_t *pHandle,uint8_t bMotor)
  65:Src/mc_perf.c **** {
 123              		.loc 1 65 1 is_stmt 1 view -0
 124              		.cfi_startproc
 125              		@ args = 0, pretend = 0, frame = 0
 126              		@ frame_needed = 0, uses_anonymous_args = 0
 127              		@ link register save eliminated.
 128              		.loc 1 65 1 is_stmt 0 view .LVU41
 129 0000 10B4     		push	{r4}
 130              	.LCFI0:
 131              		.cfi_def_cfa_offset 4
 132              		.cfi_offset 4, -4
  66:Src/mc_perf.c **** #ifdef NULL_PTR_CHECK_MC_PERF
  67:Src/mc_perf.c ****   if (MC_NULL == pHandle)
  68:Src/mc_perf.c ****   {
  69:Src/mc_perf.c ****     /* Nothing to do */
  70:Src/mc_perf.c ****   }
  71:Src/mc_perf.c ****   else
  72:Src/mc_perf.c ****   {
  73:Src/mc_perf.c **** #endif
  74:Src/mc_perf.c ****     uint8_t  i;
 133              		.loc 1 74 5 is_stmt 1 view .LVU42
  75:Src/mc_perf.c ****     Perf_Handle_t  *pHdl;
 134              		.loc 1 75 5 view .LVU43
  76:Src/mc_perf.c **** 
  77:Src/mc_perf.c ****     for (i = 0U; i < 2; i++)
 135              		.loc 1 77 5 view .LVU44
 136              	.LVL5:
 137              		.loc 1 77 18 view .LVU45
  78:Src/mc_perf.c ****     {
  79:Src/mc_perf.c ****       pHdl = &pHandle->MC_Perf_TraceLog[2*bMotor+i];
 138              		.loc 1 79 7 view .LVU46
  80:Src/mc_perf.c ****       pHdl->DeltaTimeInCycle = 0;
 139              		.loc 1 80 7 view .LVU47
 140              		.loc 1 80 30 is_stmt 0 view .LVU48
ARM GAS  /tmp/cc4AM3Me.s 			page 5


 141 0002 00EB4112 		add	r2, r0, r1, lsl #5
 142 0006 0023     		movs	r3, #0
 143 0008 D360     		str	r3, [r2, #12]
  81:Src/mc_perf.c ****       pHdl->min = UINT32_MAX;
 144              		.loc 1 81 7 is_stmt 1 view .LVU49
 145              		.loc 1 81 17 is_stmt 0 view .LVU50
 146 000a 4FF0FF34 		mov	r4, #-1
 147 000e 1461     		str	r4, [r2, #16]
  82:Src/mc_perf.c ****       pHdl->max = 0;
 148              		.loc 1 82 7 is_stmt 1 view .LVU51
 149              		.loc 1 82 17 is_stmt 0 view .LVU52
 150 0010 5361     		str	r3, [r2, #20]
  77:Src/mc_perf.c ****     {
 151              		.loc 1 77 25 is_stmt 1 view .LVU53
 152              	.LVL6:
  77:Src/mc_perf.c ****     {
 153              		.loc 1 77 18 view .LVU54
  79:Src/mc_perf.c ****       pHdl->DeltaTimeInCycle = 0;
 154              		.loc 1 79 7 view .LVU55
  80:Src/mc_perf.c ****       pHdl->min = UINT32_MAX;
 155              		.loc 1 80 7 view .LVU56
  80:Src/mc_perf.c ****       pHdl->min = UINT32_MAX;
 156              		.loc 1 80 30 is_stmt 0 view .LVU57
 157 0012 D361     		str	r3, [r2, #28]
  81:Src/mc_perf.c ****       pHdl->max = 0;
 158              		.loc 1 81 7 is_stmt 1 view .LVU58
  81:Src/mc_perf.c ****       pHdl->max = 0;
 159              		.loc 1 81 17 is_stmt 0 view .LVU59
 160 0014 1462     		str	r4, [r2, #32]
 161              		.loc 1 82 7 is_stmt 1 view .LVU60
 162              		.loc 1 82 17 is_stmt 0 view .LVU61
 163 0016 5362     		str	r3, [r2, #36]
  77:Src/mc_perf.c ****     {
 164              		.loc 1 77 25 is_stmt 1 view .LVU62
 165              	.LVL7:
  77:Src/mc_perf.c ****     {
 166              		.loc 1 77 18 view .LVU63
  83:Src/mc_perf.c ****     }
  84:Src/mc_perf.c **** #ifdef NULL_PTR_CHECK_MC_PERF
  85:Src/mc_perf.c ****   }
  86:Src/mc_perf.c **** #endif
  87:Src/mc_perf.c **** }
 167              		.loc 1 87 1 is_stmt 0 view .LVU64
 168 0018 5DF8044B 		ldr	r4, [sp], #4
 169              	.LCFI1:
 170              		.cfi_restore 4
 171              		.cfi_def_cfa_offset 0
 172 001c 7047     		bx	lr
 173              		.cfi_endproc
 174              	.LFE1439:
 176              		.section	.text.MC_BG_Perf_Measure_Start,"ax",%progbits
 177              		.align	1
 178              		.global	MC_BG_Perf_Measure_Start
 179              		.syntax unified
 180              		.thumb
 181              		.thumb_func
 182              		.fpu fpv4-sp-d16
ARM GAS  /tmp/cc4AM3Me.s 			page 6


 184              	MC_BG_Perf_Measure_Start:
 185              	.LVL8:
 186              	.LFB1440:
  88:Src/mc_perf.c **** 
  89:Src/mc_perf.c **** /**
  90:Src/mc_perf.c ****  * @brief  Start the measure of a code section called in background.
  91:Src/mc_perf.c ****  * @param  pHandle: handler of the performance measurement component.
  92:Src/mc_perf.c ****  * @param  CodeSection: code section to measure.
  93:Src/mc_perf.c ****  */
  94:Src/mc_perf.c **** void MC_BG_Perf_Measure_Start(MC_Perf_Handle_t *pHandle, uint8_t  CodeSection)
  95:Src/mc_perf.c **** {
 187              		.loc 1 95 1 is_stmt 1 view -0
 188              		.cfi_startproc
 189              		@ args = 0, pretend = 0, frame = 0
 190              		@ frame_needed = 0, uses_anonymous_args = 0
 191              		@ link register save eliminated.
  96:Src/mc_perf.c **** #ifdef NULL_PTR_CHECK_MC_PERF
  97:Src/mc_perf.c ****   if (MC_NULL == pHandle)
  98:Src/mc_perf.c ****   {
  99:Src/mc_perf.c ****     /* Nothing to do */
 100:Src/mc_perf.c ****   }
 101:Src/mc_perf.c ****   else
 102:Src/mc_perf.c ****   {
 103:Src/mc_perf.c **** #endif
 104:Src/mc_perf.c ****     pHandle->BG_Task_OnGoing = true;
 192              		.loc 1 104 5 view .LVU66
 193              		.loc 1 104 30 is_stmt 0 view .LVU67
 194 0000 0123     		movs	r3, #1
 195 0002 0370     		strb	r3, [r0]
 105:Src/mc_perf.c ****     pHandle->AccHighFreqTasksCnt = 0;
 196              		.loc 1 105 5 is_stmt 1 view .LVU68
 197              		.loc 1 105 34 is_stmt 0 view .LVU69
 198 0004 0023     		movs	r3, #0
 199 0006 4360     		str	r3, [r0, #4]
 106:Src/mc_perf.c ****     uint32_t StartMeasure = DWT->CYCCNT;
 200              		.loc 1 106 5 is_stmt 1 view .LVU70
 201              		.loc 1 106 14 is_stmt 0 view .LVU71
 202 0008 024B     		ldr	r3, .L8
 203 000a 5B68     		ldr	r3, [r3, #4]
 204              	.LVL9:
 107:Src/mc_perf.c ****     pHandle->MC_Perf_TraceLog[CodeSection].StartMeasure = StartMeasure;
 205              		.loc 1 107 5 is_stmt 1 view .LVU72
 206              		.loc 1 107 57 is_stmt 0 view .LVU73
 207 000c 00EB0110 		add	r0, r0, r1, lsl #4
 208              	.LVL10:
 209              		.loc 1 107 57 view .LVU74
 210 0010 8360     		str	r3, [r0, #8]
 108:Src/mc_perf.c **** #ifdef NULL_PTR_CHECK_MC_PERF
 109:Src/mc_perf.c ****   }
 110:Src/mc_perf.c **** #endif
 111:Src/mc_perf.c **** }
 211              		.loc 1 111 1 view .LVU75
 212 0012 7047     		bx	lr
 213              	.L9:
 214              		.align	2
 215              	.L8:
 216 0014 001000E0 		.word	-536866816
ARM GAS  /tmp/cc4AM3Me.s 			page 7


 217              		.cfi_endproc
 218              	.LFE1440:
 220              		.section	.text.MC_Perf_Measure_Stop,"ax",%progbits
 221              		.align	1
 222              		.global	MC_Perf_Measure_Stop
 223              		.syntax unified
 224              		.thumb
 225              		.thumb_func
 226              		.fpu fpv4-sp-d16
 228              	MC_Perf_Measure_Stop:
 229              	.LVL11:
 230              	.LFB1441:
 112:Src/mc_perf.c **** 
 113:Src/mc_perf.c **** /**
 114:Src/mc_perf.c ****  * @brief  Stop the measurement of a code section and compute elapse time.
 115:Src/mc_perf.c ****  * @param  pHandle: handler of the performance measurement component.
 116:Src/mc_perf.c ****  * @param  CodeSection: code section to measure.
 117:Src/mc_perf.c ****  */
 118:Src/mc_perf.c **** void MC_Perf_Measure_Stop(MC_Perf_Handle_t *pHandle, uint8_t  CodeSection)
 119:Src/mc_perf.c **** {
 231              		.loc 1 119 1 is_stmt 1 view -0
 232              		.cfi_startproc
 233              		@ args = 0, pretend = 0, frame = 0
 234              		@ frame_needed = 0, uses_anonymous_args = 0
 235              		@ link register save eliminated.
 120:Src/mc_perf.c **** #ifdef NULL_PTR_CHECK_MC_PERF
 121:Src/mc_perf.c ****   if (MC_NULL == pHandle)
 122:Src/mc_perf.c ****   {
 123:Src/mc_perf.c ****     /* Nothing to do */
 124:Src/mc_perf.c ****   }
 125:Src/mc_perf.c ****   else
 126:Src/mc_perf.c ****   {
 127:Src/mc_perf.c **** #endif
 128:Src/mc_perf.c ****     uint32_t StopMeasure;
 236              		.loc 1 128 5 view .LVU77
 129:Src/mc_perf.c ****     Perf_Handle_t *pHdl;
 237              		.loc 1 129 5 view .LVU78
 130:Src/mc_perf.c **** 
 131:Src/mc_perf.c ****     StopMeasure = DWT->CYCCNT;
 238              		.loc 1 131 5 view .LVU79
 239              		.loc 1 131 17 is_stmt 0 view .LVU80
 240 0000 0E4B     		ldr	r3, .L16
 241 0002 5A68     		ldr	r2, [r3, #4]
 242              	.LVL12:
 132:Src/mc_perf.c ****     pHdl = &pHandle->MC_Perf_TraceLog[CodeSection];
 243              		.loc 1 132 5 is_stmt 1 view .LVU81
 133:Src/mc_perf.c **** 
 134:Src/mc_perf.c ****     /* Check Overflow cases */
 135:Src/mc_perf.c ****     if (StopMeasure < pHdl->StartMeasure)
 244              		.loc 1 135 5 view .LVU82
 245              		.loc 1 135 27 is_stmt 0 view .LVU83
 246 0004 00EB0113 		add	r3, r0, r1, lsl #4
 247 0008 9B68     		ldr	r3, [r3, #8]
 248              		.loc 1 135 8 view .LVU84
 249 000a 9342     		cmp	r3, r2
 136:Src/mc_perf.c ****     {
 137:Src/mc_perf.c ****       pHdl->DeltaTimeInCycle = (UINT32_MAX - pHdl->StartMeasure) + StopMeasure;
ARM GAS  /tmp/cc4AM3Me.s 			page 8


 250              		.loc 1 137 7 is_stmt 1 view .LVU85
 251              		.loc 1 137 66 is_stmt 0 view .LVU86
 252 000c 88BF     		it	hi
 253 000e 02F1FF32 		addhi	r2, r2, #-1
 254              	.LVL13:
 138:Src/mc_perf.c ****     }
 139:Src/mc_perf.c ****     else
 140:Src/mc_perf.c ****     {
 141:Src/mc_perf.c ****       pHdl->DeltaTimeInCycle = StopMeasure - pHdl->StartMeasure;
 255              		.loc 1 141 7 is_stmt 1 view .LVU87
 256              		.loc 1 141 44 is_stmt 0 view .LVU88
 257 0012 D31A     		subs	r3, r2, r3
 258 0014 00EB0112 		add	r2, r0, r1, lsl #4
 259 0018 D360     		str	r3, [r2, #12]
 142:Src/mc_perf.c ****     }
 143:Src/mc_perf.c **** 
 144:Src/mc_perf.c ****     if(pHandle->BG_Task_OnGoing)
 260              		.loc 1 144 5 is_stmt 1 view .LVU89
 261              		.loc 1 144 7 is_stmt 0 view .LVU90
 262 001a 0278     		ldrb	r2, [r0]	@ zero_extendqisi2
 263 001c 12B1     		cbz	r2, .L13
 145:Src/mc_perf.c ****     {
 146:Src/mc_perf.c ****       pHandle->AccHighFreqTasksCnt += pHdl->DeltaTimeInCycle;
 264              		.loc 1 146 7 is_stmt 1 view .LVU91
 265              		.loc 1 146 36 is_stmt 0 view .LVU92
 266 001e 4268     		ldr	r2, [r0, #4]
 267 0020 1A44     		add	r2, r2, r3
 268 0022 4260     		str	r2, [r0, #4]
 269              	.L13:
 147:Src/mc_perf.c ****     }
 148:Src/mc_perf.c ****     else
 149:Src/mc_perf.c ****     {
 150:Src/mc_perf.c ****       /* Nothing to do */
 151:Src/mc_perf.c ****     }
 270              		.loc 1 151 5 is_stmt 1 view .LVU93
 152:Src/mc_perf.c **** 
 153:Src/mc_perf.c ****     if (pHdl->max < pHdl->DeltaTimeInCycle)
 271              		.loc 1 153 5 view .LVU94
 272 0024 00EB0110 		add	r0, r0, r1, lsl #4
 273              	.LVL14:
 274              		.loc 1 153 8 is_stmt 0 view .LVU95
 275 0028 4269     		ldr	r2, [r0, #20]
 276 002a 9A42     		cmp	r2, r3
 154:Src/mc_perf.c ****     {
 155:Src/mc_perf.c ****       pHdl->max = pHdl->DeltaTimeInCycle;
 277              		.loc 1 155 7 is_stmt 1 view .LVU96
 278              		.loc 1 155 17 is_stmt 0 view .LVU97
 279 002c 38BF     		it	cc
 280 002e 4361     		strcc	r3, [r0, #20]
 156:Src/mc_perf.c ****     }
 157:Src/mc_perf.c ****     else
 158:Src/mc_perf.c ****     {
 159:Src/mc_perf.c ****       /* Nothing to do */
 160:Src/mc_perf.c ****     }
 281              		.loc 1 160 5 is_stmt 1 view .LVU98
 161:Src/mc_perf.c **** 
 162:Src/mc_perf.c ****     if (pHdl->min > pHdl->DeltaTimeInCycle)
ARM GAS  /tmp/cc4AM3Me.s 			page 9


 282              		.loc 1 162 5 view .LVU99
 283              		.loc 1 162 8 is_stmt 0 view .LVU100
 284 0030 0269     		ldr	r2, [r0, #16]
 285 0032 9A42     		cmp	r2, r3
 163:Src/mc_perf.c ****     {
 164:Src/mc_perf.c ****       pHdl->min = pHdl->DeltaTimeInCycle;
 286              		.loc 1 164 7 is_stmt 1 view .LVU101
 287              		.loc 1 164 17 is_stmt 0 view .LVU102
 288 0034 88BF     		it	hi
 289 0036 0361     		strhi	r3, [r0, #16]
 165:Src/mc_perf.c ****     }
 166:Src/mc_perf.c ****     else
 167:Src/mc_perf.c ****     {
 168:Src/mc_perf.c ****       /* Nothing to do */
 169:Src/mc_perf.c ****     }
 290              		.loc 1 169 5 is_stmt 1 view .LVU103
 170:Src/mc_perf.c **** #ifdef NULL_PTR_CHECK_MC_PERF
 171:Src/mc_perf.c ****   }
 172:Src/mc_perf.c **** #endif
 173:Src/mc_perf.c **** }
 291              		.loc 1 173 1 is_stmt 0 view .LVU104
 292 0038 7047     		bx	lr
 293              	.L17:
 294 003a 00BF     		.align	2
 295              	.L16:
 296 003c 001000E0 		.word	-536866816
 297              		.cfi_endproc
 298              	.LFE1441:
 300              		.section	.text.MC_BG_Perf_Measure_Stop,"ax",%progbits
 301              		.align	1
 302              		.global	MC_BG_Perf_Measure_Stop
 303              		.syntax unified
 304              		.thumb
 305              		.thumb_func
 306              		.fpu fpv4-sp-d16
 308              	MC_BG_Perf_Measure_Stop:
 309              	.LVL15:
 310              	.LFB1442:
 174:Src/mc_perf.c **** 
 175:Src/mc_perf.c **** /**
 176:Src/mc_perf.c ****  * @brief  Stop the measurement of a code section in BG and compute elapse time.
 177:Src/mc_perf.c ****  * @param  pHandle: handler of the performance measurement component.
 178:Src/mc_perf.c ****  * @param  CodeSection: code section to measure.
 179:Src/mc_perf.c ****  */
 180:Src/mc_perf.c **** void MC_BG_Perf_Measure_Stop(MC_Perf_Handle_t *pHandle, uint8_t CodeSection)
 181:Src/mc_perf.c **** {
 311              		.loc 1 181 1 is_stmt 1 view -0
 312              		.cfi_startproc
 313              		@ args = 0, pretend = 0, frame = 0
 314              		@ frame_needed = 0, uses_anonymous_args = 0
 315              		@ link register save eliminated.
 182:Src/mc_perf.c **** #ifdef NULL_PTR_CHECK_MC_PERF
 183:Src/mc_perf.c ****   if (MC_NULL == pHandle)
 184:Src/mc_perf.c ****   {
 185:Src/mc_perf.c ****     /* Nothing to do */
 186:Src/mc_perf.c ****   }
 187:Src/mc_perf.c ****   else
ARM GAS  /tmp/cc4AM3Me.s 			page 10


 188:Src/mc_perf.c ****   {
 189:Src/mc_perf.c **** #endif
 190:Src/mc_perf.c ****     Perf_Handle_t *pHdl;
 316              		.loc 1 190 5 view .LVU106
 191:Src/mc_perf.c ****     uint32_t StopMeasure = DWT->CYCCNT;
 317              		.loc 1 191 5 view .LVU107
 318              		.loc 1 191 14 is_stmt 0 view .LVU108
 319 0000 114B     		ldr	r3, .L24
 320 0002 5A68     		ldr	r2, [r3, #4]
 321              	.LVL16:
 192:Src/mc_perf.c ****     pHandle->BG_Task_OnGoing = false;
 322              		.loc 1 192 5 is_stmt 1 view .LVU109
 323              		.loc 1 192 30 is_stmt 0 view .LVU110
 324 0004 0023     		movs	r3, #0
 325 0006 0370     		strb	r3, [r0]
 193:Src/mc_perf.c **** 
 194:Src/mc_perf.c ****     pHdl  = &pHandle->MC_Perf_TraceLog[CodeSection];
 326              		.loc 1 194 5 is_stmt 1 view .LVU111
 327              	.LVL17:
 195:Src/mc_perf.c **** 
 196:Src/mc_perf.c ****     /* Check Overflow cases */
 197:Src/mc_perf.c ****     if (StopMeasure < pHdl->StartMeasure)
 328              		.loc 1 197 5 view .LVU112
 329              		.loc 1 197 27 is_stmt 0 view .LVU113
 330 0008 00EB0113 		add	r3, r0, r1, lsl #4
 331 000c 9B68     		ldr	r3, [r3, #8]
 332              		.loc 1 197 8 view .LVU114
 333 000e 9342     		cmp	r3, r2
 198:Src/mc_perf.c ****     {
 199:Src/mc_perf.c ****       pHdl->DeltaTimeInCycle = (UINT32_MAX - pHdl->StartMeasure) + StopMeasure;
 334              		.loc 1 199 7 is_stmt 1 view .LVU115
 335              		.loc 1 199 66 is_stmt 0 view .LVU116
 336 0010 88BF     		it	hi
 337 0012 02F1FF32 		addhi	r2, r2, #-1
 338              	.LVL18:
 200:Src/mc_perf.c ****     }
 201:Src/mc_perf.c ****     else
 202:Src/mc_perf.c ****     {
 203:Src/mc_perf.c ****       pHdl->DeltaTimeInCycle = StopMeasure - pHdl->StartMeasure;
 339              		.loc 1 203 7 is_stmt 1 view .LVU117
 340              		.loc 1 203 44 is_stmt 0 view .LVU118
 341 0016 D31A     		subs	r3, r2, r3
 342 0018 00EB0112 		add	r2, r0, r1, lsl #4
 343 001c D360     		str	r3, [r2, #12]
 204:Src/mc_perf.c ****     }
 205:Src/mc_perf.c **** 
 206:Src/mc_perf.c ****     if (pHdl->DeltaTimeInCycle > pHandle->AccHighFreqTasksCnt)
 344              		.loc 1 206 5 is_stmt 1 view .LVU119
 345              		.loc 1 206 41 is_stmt 0 view .LVU120
 346 001e 4268     		ldr	r2, [r0, #4]
 347              		.loc 1 206 8 view .LVU121
 348 0020 9A42     		cmp	r2, r3
 349 0022 04D2     		bcs	.L21
 207:Src/mc_perf.c ****     {
 208:Src/mc_perf.c ****       pHdl->DeltaTimeInCycle -= pHandle->AccHighFreqTasksCnt;
 350              		.loc 1 208 7 is_stmt 1 view .LVU122
 351              		.loc 1 208 30 is_stmt 0 view .LVU123
ARM GAS  /tmp/cc4AM3Me.s 			page 11


 352 0024 00EB011C 		add	ip, r0, r1, lsl #4
 353 0028 9B1A     		subs	r3, r3, r2
 354 002a CCF80C30 		str	r3, [ip, #12]
 355              	.L21:
 209:Src/mc_perf.c ****     }
 210:Src/mc_perf.c ****     else
 211:Src/mc_perf.c ****     {
 212:Src/mc_perf.c ****       /* Nothing to do */
 213:Src/mc_perf.c ****     }
 356              		.loc 1 213 5 is_stmt 1 view .LVU124
 214:Src/mc_perf.c ****     if (pHdl->max < pHdl->DeltaTimeInCycle)
 357              		.loc 1 214 5 view .LVU125
 358 002e 00EB0113 		add	r3, r0, r1, lsl #4
 359              		.loc 1 214 25 is_stmt 0 view .LVU126
 360 0032 DA68     		ldr	r2, [r3, #12]
 361              		.loc 1 214 8 view .LVU127
 362 0034 5969     		ldr	r1, [r3, #20]
 363              	.LVL19:
 364              		.loc 1 214 8 view .LVU128
 365 0036 9142     		cmp	r1, r2
 215:Src/mc_perf.c ****     {
 216:Src/mc_perf.c ****       pHdl->max = pHdl->DeltaTimeInCycle;
 366              		.loc 1 216 7 is_stmt 1 view .LVU129
 367              		.loc 1 216 17 is_stmt 0 view .LVU130
 368 0038 38BF     		it	cc
 369 003a 5A61     		strcc	r2, [r3, #20]
 217:Src/mc_perf.c ****     }
 218:Src/mc_perf.c ****     else
 219:Src/mc_perf.c ****     {
 220:Src/mc_perf.c ****       /* Nothing to do */
 221:Src/mc_perf.c ****     }
 370              		.loc 1 221 5 is_stmt 1 view .LVU131
 222:Src/mc_perf.c **** 
 223:Src/mc_perf.c ****     if (pHdl->min > pHdl->DeltaTimeInCycle)
 371              		.loc 1 223 5 view .LVU132
 372              		.loc 1 223 8 is_stmt 0 view .LVU133
 373 003c 1969     		ldr	r1, [r3, #16]
 374 003e 8A42     		cmp	r2, r1
 224:Src/mc_perf.c ****     {
 225:Src/mc_perf.c ****       pHdl->min = pHdl->DeltaTimeInCycle;
 375              		.loc 1 225 7 is_stmt 1 view .LVU134
 376              		.loc 1 225 17 is_stmt 0 view .LVU135
 377 0040 38BF     		it	cc
 378 0042 1A61     		strcc	r2, [r3, #16]
 226:Src/mc_perf.c ****     }
 227:Src/mc_perf.c ****     else
 228:Src/mc_perf.c ****     {
 229:Src/mc_perf.c ****       /* Nothing to do */
 230:Src/mc_perf.c ****     }
 379              		.loc 1 230 5 is_stmt 1 view .LVU136
 231:Src/mc_perf.c **** #ifdef NULL_PTR_CHECK_MC_PERF
 232:Src/mc_perf.c ****   }
 233:Src/mc_perf.c **** #endif
 234:Src/mc_perf.c **** }
 380              		.loc 1 234 1 is_stmt 0 view .LVU137
 381 0044 7047     		bx	lr
 382              	.L25:
ARM GAS  /tmp/cc4AM3Me.s 			page 12


 383 0046 00BF     		.align	2
 384              	.L24:
 385 0048 001000E0 		.word	-536866816
 386              		.cfi_endproc
 387              	.LFE1442:
 389              		.section	.text.MC_Perf_GetCPU_Load,"ax",%progbits
 390              		.align	1
 391              		.global	MC_Perf_GetCPU_Load
 392              		.syntax unified
 393              		.thumb
 394              		.thumb_func
 395              		.fpu fpv4-sp-d16
 397              	MC_Perf_GetCPU_Load:
 398              	.LVL20:
 399              	.LFB1443:
 235:Src/mc_perf.c **** 
 236:Src/mc_perf.c **** /**
 237:Src/mc_perf.c ****  * @brief  It returns the current CPU load of both High and Medium frequency tasks.
 238:Src/mc_perf.c ****  * @param  pHandle: handler of the performance measurement component.
 239:Src/mc_perf.c ****  * @retval CPU load.
 240:Src/mc_perf.c ****  */
 241:Src/mc_perf.c **** float_t MC_Perf_GetCPU_Load(const MC_Perf_Handle_t *pHandle)
 242:Src/mc_perf.c **** {
 400              		.loc 1 242 1 is_stmt 1 view -0
 401              		.cfi_startproc
 402              		@ args = 0, pretend = 0, frame = 0
 403              		@ frame_needed = 0, uses_anonymous_args = 0
 404              		@ link register save eliminated.
 243:Src/mc_perf.c ****   float_t cpuLoad = 0.0f;
 405              		.loc 1 243 3 view .LVU139
 244:Src/mc_perf.c **** #ifdef NULL_PTR_CHECK_MC_PERF
 245:Src/mc_perf.c ****   if (MC_NULL == pHandle)
 246:Src/mc_perf.c ****   {
 247:Src/mc_perf.c ****     /* Nothing to do */
 248:Src/mc_perf.c ****   }
 249:Src/mc_perf.c ****   else
 250:Src/mc_perf.c ****   {
 251:Src/mc_perf.c **** #endif
 252:Src/mc_perf.c ****     float_t MFT_cpu_loadM1;
 406              		.loc 1 252 5 view .LVU140
 253:Src/mc_perf.c ****     float_t HFT_cpu_loadM1;
 407              		.loc 1 253 5 view .LVU141
 254:Src/mc_perf.c **** 
 255:Src/mc_perf.c ****     MFT_cpu_loadM1 = (((float_t)pHandle->MC_Perf_TraceLog[MEASURE_TSK_MediumFrequencyTaskM1].DeltaT
 408              		.loc 1 255 5 view .LVU142
 256:Src/mc_perf.c ****                    / (float_t)SYSCLK_FREQ ) * (float_t)MEDIUM_FREQUENCY_TASK_RATE);
 257:Src/mc_perf.c ****     HFT_cpu_loadM1 = (((float_t)pHandle->MC_Perf_TraceLog[MEASURE_TSK_HighFrequencyTaskM1].DeltaTim
 409              		.loc 1 257 5 view .LVU143
 258:Src/mc_perf.c ****                    / (float_t)SYSCLK_FREQ ) * (float_t)(PWM_FREQUENCY/REGULATION_EXECUTION_RATE));
 259:Src/mc_perf.c **** 
 260:Src/mc_perf.c ****     cpuLoad = MFT_cpu_loadM1 + HFT_cpu_loadM1;
 410              		.loc 1 260 5 view .LVU144
 255:Src/mc_perf.c ****                    / (float_t)SYSCLK_FREQ ) * (float_t)MEDIUM_FREQUENCY_TASK_RATE);
 411              		.loc 1 255 24 is_stmt 0 view .LVU145
 412 0000 D0ED077A 		vldr.32	s15, [r0, #28]	@ int
 413 0004 B8EE677A 		vcvt.f32.u32	s14, s15
 256:Src/mc_perf.c ****                    / (float_t)SYSCLK_FREQ ) * (float_t)MEDIUM_FREQUENCY_TASK_RATE);
ARM GAS  /tmp/cc4AM3Me.s 			page 13


 414              		.loc 1 256 20 view .LVU146
 415 0008 DFED106A 		vldr.32	s13, .L29
 416 000c C7EE267A 		vdiv.f32	s15, s14, s13
 255:Src/mc_perf.c ****                    / (float_t)SYSCLK_FREQ ) * (float_t)MEDIUM_FREQUENCY_TASK_RATE);
 417              		.loc 1 255 20 view .LVU147
 418 0010 9FED0F0A 		vldr.32	s0, .L29+4
 419 0014 67EE807A 		vmul.f32	s15, s15, s0
 257:Src/mc_perf.c ****                    / (float_t)SYSCLK_FREQ ) * (float_t)(PWM_FREQUENCY/REGULATION_EXECUTION_RATE));
 420              		.loc 1 257 24 view .LVU148
 421 0018 90ED037A 		vldr.32	s14, [r0, #12]	@ int
 422 001c B8EE477A 		vcvt.f32.u32	s14, s14
 258:Src/mc_perf.c ****                    / (float_t)SYSCLK_FREQ ) * (float_t)(PWM_FREQUENCY/REGULATION_EXECUTION_RATE));
 423              		.loc 1 258 20 view .LVU149
 424 0020 87EE260A 		vdiv.f32	s0, s14, s13
 257:Src/mc_perf.c ****                    / (float_t)SYSCLK_FREQ ) * (float_t)(PWM_FREQUENCY/REGULATION_EXECUTION_RATE));
 425              		.loc 1 257 20 view .LVU150
 426 0024 9FED0B7A 		vldr.32	s14, .L29+8
 427 0028 20EE070A 		vmul.f32	s0, s0, s14
 428              		.loc 1 260 13 view .LVU151
 429 002c 77EE807A 		vadd.f32	s15, s15, s0
 430              	.LVL21:
 261:Src/mc_perf.c **** 
 262:Src/mc_perf.c ****     cpuLoad = (cpuLoad > 1.0f) ? 1.0f : cpuLoad;
 431              		.loc 1 262 5 is_stmt 1 view .LVU152
 432              		.loc 1 262 39 is_stmt 0 view .LVU153
 433 0030 B7EE007A 		vmov.f32	s14, #1.0e+0
 434 0034 F4EE477A 		vcmp.f32	s15, s14
 435 0038 F1EE10FA 		vmrs	APSR_nzcv, FPSCR
 436 003c C8BF     		it	gt
 437 003e F0EE477A 		vmovgt.f32	s15, s14
 438              	.LVL22:
 263:Src/mc_perf.c ****     cpuLoad *= 100.0f;
 439              		.loc 1 263 5 is_stmt 1 view .LVU154
 264:Src/mc_perf.c **** #ifdef NULL_PTR_CHECK_MC_PERF
 265:Src/mc_perf.c ****   }
 266:Src/mc_perf.c **** #endif
 267:Src/mc_perf.c ****   return (cpuLoad);
 440              		.loc 1 267 3 view .LVU155
 268:Src/mc_perf.c **** }
 441              		.loc 1 268 1 is_stmt 0 view .LVU156
 442 0042 9FED050A 		vldr.32	s0, .L29+12
 443 0046 27EE800A 		vmul.f32	s0, s15, s0
 444              	.LVL23:
 445              		.loc 1 268 1 view .LVU157
 446 004a 7047     		bx	lr
 447              	.L30:
 448              		.align	2
 449              	.L29:
 450 004c E81F224D 		.word	1294082024
 451 0050 00007A44 		.word	1148846080
 452 0054 00409C46 		.word	1184645120
 453 0058 0000C842 		.word	1120403456
 454              		.cfi_endproc
 455              	.LFE1443:
 457              		.section	.text.MC_Perf_GetMaxCPU_Load,"ax",%progbits
 458              		.align	1
 459              		.global	MC_Perf_GetMaxCPU_Load
ARM GAS  /tmp/cc4AM3Me.s 			page 14


 460              		.syntax unified
 461              		.thumb
 462              		.thumb_func
 463              		.fpu fpv4-sp-d16
 465              	MC_Perf_GetMaxCPU_Load:
 466              	.LVL24:
 467              	.LFB1444:
 269:Src/mc_perf.c **** 
 270:Src/mc_perf.c **** /**
 271:Src/mc_perf.c ****  * @brief  It returns the maximum CPU load of both High and Medium frequency tasks.
 272:Src/mc_perf.c ****  * @param  pHandle: handler of the performance measurement component.
 273:Src/mc_perf.c ****  * @retval Max CPU load measured.
 274:Src/mc_perf.c ****  */
 275:Src/mc_perf.c **** float_t MC_Perf_GetMaxCPU_Load(const MC_Perf_Handle_t *pHandle)
 276:Src/mc_perf.c **** {
 468              		.loc 1 276 1 is_stmt 1 view -0
 469              		.cfi_startproc
 470              		@ args = 0, pretend = 0, frame = 0
 471              		@ frame_needed = 0, uses_anonymous_args = 0
 472              		@ link register save eliminated.
 277:Src/mc_perf.c ****   float_t cpuLoad = 0.0f;
 473              		.loc 1 277 3 view .LVU159
 278:Src/mc_perf.c **** #ifdef NULL_PTR_CHECK_MC_PERF
 279:Src/mc_perf.c ****   if (MC_NULL == pHandle)
 280:Src/mc_perf.c ****   {
 281:Src/mc_perf.c ****     /* Nothing to do */
 282:Src/mc_perf.c ****   }
 283:Src/mc_perf.c ****   else
 284:Src/mc_perf.c ****   {
 285:Src/mc_perf.c **** #endif
 286:Src/mc_perf.c ****     cpuLoad += (((float_t)pHandle->MC_Perf_TraceLog[MEASURE_TSK_MediumFrequencyTaskM1].max / (float
 474              		.loc 1 286 5 view .LVU160
 475              		.loc 1 286 18 is_stmt 0 view .LVU161
 476 0000 D0ED097A 		vldr.32	s15, [r0, #36]	@ int
 477 0004 F8EE677A 		vcvt.f32.u32	s15, s15
 478              		.loc 1 286 92 view .LVU162
 479 0008 DFED126A 		vldr.32	s13, .L34
 480 000c 87EEA60A 		vdiv.f32	s0, s15, s13
 287:Src/mc_perf.c ****                    * (float_t)MEDIUM_FREQUENCY_TASK_RATE);
 481              		.loc 1 287 20 view .LVU163
 482 0010 DFED117A 		vldr.32	s15, .L34+4
 483 0014 20EE270A 		vmul.f32	s0, s0, s15
 286:Src/mc_perf.c ****                    * (float_t)MEDIUM_FREQUENCY_TASK_RATE);
 484              		.loc 1 286 13 view .LVU164
 485 0018 DFED107A 		vldr.32	s15, .L34+8
 486 001c 30EE270A 		vadd.f32	s0, s0, s15
 487              	.LVL25:
 288:Src/mc_perf.c ****     cpuLoad += (((float_t)pHandle->MC_Perf_TraceLog[MEASURE_TSK_HighFrequencyTaskM1].max / (float_t
 488              		.loc 1 288 5 is_stmt 1 view .LVU165
 489              		.loc 1 288 18 is_stmt 0 view .LVU166
 490 0020 90ED057A 		vldr.32	s14, [r0, #20]	@ int
 491 0024 B8EE477A 		vcvt.f32.u32	s14, s14
 492              		.loc 1 288 90 view .LVU167
 493 0028 C7EE267A 		vdiv.f32	s15, s14, s13
 289:Src/mc_perf.c ****                    * (float_t)(PWM_FREQUENCY/REGULATION_EXECUTION_RATE));
 494              		.loc 1 289 20 view .LVU168
 495 002c 9FED0C7A 		vldr.32	s14, .L34+12
ARM GAS  /tmp/cc4AM3Me.s 			page 15


 496 0030 67EE877A 		vmul.f32	s15, s15, s14
 288:Src/mc_perf.c ****     cpuLoad += (((float_t)pHandle->MC_Perf_TraceLog[MEASURE_TSK_HighFrequencyTaskM1].max / (float_t
 497              		.loc 1 288 13 view .LVU169
 498 0034 77EE807A 		vadd.f32	s15, s15, s0
 499              	.LVL26:
 290:Src/mc_perf.c **** 
 291:Src/mc_perf.c ****     cpuLoad = (cpuLoad > 1.0f) ? 1.0f : cpuLoad;
 500              		.loc 1 291 5 is_stmt 1 view .LVU170
 501              		.loc 1 291 39 is_stmt 0 view .LVU171
 502 0038 B7EE007A 		vmov.f32	s14, #1.0e+0
 503 003c F4EE477A 		vcmp.f32	s15, s14
 504 0040 F1EE10FA 		vmrs	APSR_nzcv, FPSCR
 505 0044 C8BF     		it	gt
 506 0046 F0EE477A 		vmovgt.f32	s15, s14
 507              	.LVL27:
 292:Src/mc_perf.c ****     cpuLoad *= 100.0f;
 508              		.loc 1 292 5 is_stmt 1 view .LVU172
 293:Src/mc_perf.c **** #ifdef NULL_PTR_CHECK_MC_PERF
 294:Src/mc_perf.c ****   }
 295:Src/mc_perf.c **** #endif
 296:Src/mc_perf.c ****   return (cpuLoad);
 509              		.loc 1 296 3 view .LVU173
 297:Src/mc_perf.c **** }
 510              		.loc 1 297 1 is_stmt 0 view .LVU174
 511 004a 9FED060A 		vldr.32	s0, .L34+16
 512 004e 27EE800A 		vmul.f32	s0, s15, s0
 513              	.LVL28:
 514              		.loc 1 297 1 view .LVU175
 515 0052 7047     		bx	lr
 516              	.L35:
 517              		.align	2
 518              	.L34:
 519 0054 E81F224D 		.word	1294082024
 520 0058 00007A44 		.word	1148846080
 521 005c 00000000 		.word	0
 522 0060 00409C46 		.word	1184645120
 523 0064 0000C842 		.word	1120403456
 524              		.cfi_endproc
 525              	.LFE1444:
 527              		.section	.text.MC_Perf_GetMinCPU_Load,"ax",%progbits
 528              		.align	1
 529              		.global	MC_Perf_GetMinCPU_Load
 530              		.syntax unified
 531              		.thumb
 532              		.thumb_func
 533              		.fpu fpv4-sp-d16
 535              	MC_Perf_GetMinCPU_Load:
 536              	.LVL29:
 537              	.LFB1445:
 298:Src/mc_perf.c **** 
 299:Src/mc_perf.c **** /**
 300:Src/mc_perf.c ****  * @brief  It returns the minimum CPU load of both High and Medium frequency tasks.
 301:Src/mc_perf.c ****  * @param  pHandle: handler of the performance measurement component.
 302:Src/mc_perf.c ****  * @retval Min CPU load measured.
 303:Src/mc_perf.c ****  */
 304:Src/mc_perf.c **** float_t MC_Perf_GetMinCPU_Load(const MC_Perf_Handle_t *pHandle)
 305:Src/mc_perf.c **** {
ARM GAS  /tmp/cc4AM3Me.s 			page 16


 538              		.loc 1 305 1 is_stmt 1 view -0
 539              		.cfi_startproc
 540              		@ args = 0, pretend = 0, frame = 0
 541              		@ frame_needed = 0, uses_anonymous_args = 0
 542              		@ link register save eliminated.
 306:Src/mc_perf.c ****   float_t cpu_load_acc = 0.0f;
 543              		.loc 1 306 3 view .LVU177
 307:Src/mc_perf.c **** #ifdef NULL_PTR_CHECK_MC_PERF
 308:Src/mc_perf.c ****   if (MC_NULL == pHandle)
 309:Src/mc_perf.c ****   {
 310:Src/mc_perf.c ****     /* Nothing to do */
 311:Src/mc_perf.c ****   }
 312:Src/mc_perf.c ****   else
 313:Src/mc_perf.c ****   {
 314:Src/mc_perf.c **** #endif
 315:Src/mc_perf.c ****     if (pHandle->MC_Perf_TraceLog[MEASURE_TSK_MediumFrequencyTaskM1].min != UINT32_MAX)
 544              		.loc 1 315 5 view .LVU178
 545              		.loc 1 315 69 is_stmt 0 view .LVU179
 546 0000 036A     		ldr	r3, [r0, #32]
 547              		.loc 1 315 8 view .LVU180
 548 0002 B3F1FF3F 		cmp	r3, #-1
 549 0006 2FD0     		beq	.L37
 316:Src/mc_perf.c ****     {
 317:Src/mc_perf.c ****       cpu_load_acc += (((float_t)pHandle->MC_Perf_TraceLog[MEASURE_TSK_MediumFrequencyTaskM1].min /
 550              		.loc 1 317 7 is_stmt 1 view .LVU181
 551              		.loc 1 317 25 is_stmt 0 view .LVU182
 552 0008 07EE903A 		vmov	s15, r3	@ int
 553 000c F8EE677A 		vcvt.f32.u32	s15, s15
 554              		.loc 1 317 99 view .LVU183
 555 0010 9FED1A7A 		vldr.32	s14, .L45
 556 0014 87EE870A 		vdiv.f32	s0, s15, s14
 318:Src/mc_perf.c ****                      * (float_t)MEDIUM_FREQUENCY_TASK_RATE);
 557              		.loc 1 318 22 view .LVU184
 558 0018 DFED197A 		vldr.32	s15, .L45+4
 559 001c 20EE270A 		vmul.f32	s0, s0, s15
 317:Src/mc_perf.c ****                      * (float_t)MEDIUM_FREQUENCY_TASK_RATE);
 560              		.loc 1 317 20 view .LVU185
 561 0020 DFED187A 		vldr.32	s15, .L45+8
 562 0024 30EE270A 		vadd.f32	s0, s0, s15
 563              	.LVL30:
 319:Src/mc_perf.c ****     }
 320:Src/mc_perf.c ****     if (pHandle->MC_Perf_TraceLog[MEASURE_TSK_HighFrequencyTaskM1].min != UINT32_MAX)
 564              		.loc 1 320 5 is_stmt 1 view .LVU186
 565              		.loc 1 320 67 is_stmt 0 view .LVU187
 566 0028 0369     		ldr	r3, [r0, #16]
 567              		.loc 1 320 8 view .LVU188
 568 002a B3F1FF3F 		cmp	r3, #-1
 569 002e 0DD0     		beq	.L38
 570              	.LVL31:
 571              	.L40:
 321:Src/mc_perf.c ****     {
 322:Src/mc_perf.c ****       cpu_load_acc += (((float_t)pHandle->MC_Perf_TraceLog[MEASURE_TSK_HighFrequencyTaskM1].min / (
 572              		.loc 1 322 7 is_stmt 1 view .LVU189
 573              		.loc 1 322 25 is_stmt 0 view .LVU190
 574 0030 07EE903A 		vmov	s15, r3	@ int
 575 0034 F8EE677A 		vcvt.f32.u32	s15, s15
 576              		.loc 1 322 97 view .LVU191
ARM GAS  /tmp/cc4AM3Me.s 			page 17


 577 0038 DFED106A 		vldr.32	s13, .L45
 578 003c 87EEA67A 		vdiv.f32	s14, s15, s13
 323:Src/mc_perf.c ****                    * (float_t)(PWM_FREQUENCY/REGULATION_EXECUTION_RATE));
 579              		.loc 1 323 20 view .LVU192
 580 0040 DFED117A 		vldr.32	s15, .L45+12
 581 0044 67EE277A 		vmul.f32	s15, s14, s15
 322:Src/mc_perf.c ****                    * (float_t)(PWM_FREQUENCY/REGULATION_EXECUTION_RATE));
 582              		.loc 1 322 20 view .LVU193
 583 0048 30EE270A 		vadd.f32	s0, s0, s15
 584              	.LVL32:
 585              	.L38:
 324:Src/mc_perf.c ****     }
 325:Src/mc_perf.c ****     cpu_load_acc = (cpu_load_acc > 1.0f) ? 1.0f : cpu_load_acc;
 586              		.loc 1 325 5 is_stmt 1 view .LVU194
 587              		.loc 1 325 49 is_stmt 0 view .LVU195
 588 004c F7EE007A 		vmov.f32	s15, #1.0e+0
 589 0050 B4EE670A 		vcmp.f32	s0, s15
 590 0054 F1EE10FA 		vmrs	APSR_nzcv, FPSCR
 591 0058 C8BF     		it	gt
 592 005a B0EE670A 		vmovgt.f32	s0, s15
 593              	.LVL33:
 594              	.L39:
 326:Src/mc_perf.c ****     cpu_load_acc *= 100.0f;
 595              		.loc 1 326 5 is_stmt 1 discriminator 4 view .LVU196
 327:Src/mc_perf.c **** #ifdef NULL_PTR_CHECK_MC_PERF
 328:Src/mc_perf.c ****   }
 329:Src/mc_perf.c **** #endif
 330:Src/mc_perf.c ****   return (cpu_load_acc);
 596              		.loc 1 330 3 discriminator 4 view .LVU197
 326:Src/mc_perf.c ****     cpu_load_acc *= 100.0f;
 597              		.loc 1 326 18 is_stmt 0 discriminator 4 view .LVU198
 598 005e DFED0B7A 		vldr.32	s15, .L45+16
 599 0062 20EE270A 		vmul.f32	s0, s0, s15
 600              	.LVL34:
 331:Src/mc_perf.c **** }
 601              		.loc 1 331 1 discriminator 4 view .LVU199
 602 0066 7047     		bx	lr
 603              	.LVL35:
 604              	.L37:
 320:Src/mc_perf.c ****     {
 605              		.loc 1 320 5 is_stmt 1 view .LVU200
 320:Src/mc_perf.c ****     {
 606              		.loc 1 320 67 is_stmt 0 view .LVU201
 607 0068 0369     		ldr	r3, [r0, #16]
 320:Src/mc_perf.c ****     {
 608              		.loc 1 320 8 view .LVU202
 609 006a B3F1FF3F 		cmp	r3, #-1
 610 006e 02D0     		beq	.L44
 306:Src/mc_perf.c **** #ifdef NULL_PTR_CHECK_MC_PERF
 611              		.loc 1 306 11 view .LVU203
 612 0070 9FED040A 		vldr.32	s0, .L45+8
 613 0074 DCE7     		b	.L40
 614              	.L44:
 615 0076 9FED030A 		vldr.32	s0, .L45+8
 616 007a F0E7     		b	.L39
 617              	.L46:
 618              		.align	2
ARM GAS  /tmp/cc4AM3Me.s 			page 18


 619              	.L45:
 620 007c E81F224D 		.word	1294082024
 621 0080 00007A44 		.word	1148846080
 622 0084 00000000 		.word	0
 623 0088 00409C46 		.word	1184645120
 624 008c 0000C842 		.word	1120403456
 625              		.cfi_endproc
 626              	.LFE1445:
 628              		.text
 629              	.Letext0:
 630              		.file 2 "/usr/share/gcc-arm-none-eabi-10-2020-q4-major/arm-none-eabi/include/machine/_default_type
 631              		.file 3 "/usr/share/gcc-arm-none-eabi-10-2020-q4-major/arm-none-eabi/include/sys/_stdint.h"
 632              		.file 4 "Drivers/CMSIS/Include/core_cm4.h"
 633              		.file 5 "Drivers/STM32G4xx_HAL_Driver/Inc/stm32g4xx_ll_tim.h"
 634              		.file 6 "Drivers/STM32G4xx_HAL_Driver/Inc/stm32g4xx_ll_usart.h"
 635              		.file 7 "Drivers/STM32G4xx_HAL_Driver/Inc/stm32g4xx_ll_dma.h"
 636              		.file 8 "Inc/mc_type.h"
 637              		.file 9 "Inc/mc_perf.h"
ARM GAS  /tmp/cc4AM3Me.s 			page 19

