ARM GAS  /tmp/ccW8kGEt.s 			page 1


   1              		.cpu cortex-m4
   2              		.eabi_attribute 27, 1
   3              		.eabi_attribute 28, 1
   4              		.eabi_attribute 20, 1
   5              		.eabi_attribute 21, 1
   6              		.eabi_attribute 23, 3
   7              		.eabi_attribute 24, 1
   8              		.eabi_attribute 25, 1
   9              		.eabi_attribute 26, 1
  10              		.eabi_attribute 30, 1
  11              		.eabi_attribute 34, 1
  12              		.eabi_attribute 18, 2
  13              		.file	"mc_tasks.c"
  14              		.text
  15              	.Ltext0:
  16              		.cfi_sections	.debug_frame
  17              		.section	.text.MCboot,"ax",%progbits
  18              		.align	1
  19              		.weak	MCboot
  20              		.arch armv7e-m
  21              		.syntax unified
  22              		.thumb
  23              		.thumb_func
  24              		.fpu fpv4-sp-d16
  26              	MCboot:
  27              	.LVL0:
  28              	.LFB1872:
  29              		.file 1 "Src/mc_tasks.c"
   1:Src/mc_tasks.c **** 
   2:Src/mc_tasks.c **** /**
   3:Src/mc_tasks.c ****   ******************************************************************************
   4:Src/mc_tasks.c ****   * @file    mc_tasks.c
   5:Src/mc_tasks.c ****   * @author  Motor Control SDK Team, ST Microelectronics
   6:Src/mc_tasks.c ****   * @brief   This file implements tasks definition
   7:Src/mc_tasks.c ****   *
   8:Src/mc_tasks.c ****   ******************************************************************************
   9:Src/mc_tasks.c ****   * @attention
  10:Src/mc_tasks.c ****   *
  11:Src/mc_tasks.c ****   * <h2><center>&copy; Copyright (c) 2024 STMicroelectronics.
  12:Src/mc_tasks.c ****   * All rights reserved.</center></h2>
  13:Src/mc_tasks.c ****   *
  14:Src/mc_tasks.c ****   * This software component is licensed by ST under Ultimate Liberty license
  15:Src/mc_tasks.c ****   * SLA0044, the "License"; You may not use this file except in compliance with
  16:Src/mc_tasks.c ****   * the License. You may obtain a copy of the License at:
  17:Src/mc_tasks.c ****   *                             www.st.com/SLA0044
  18:Src/mc_tasks.c ****   *
  19:Src/mc_tasks.c ****   ******************************************************************************
  20:Src/mc_tasks.c ****   */
  21:Src/mc_tasks.c **** 
  22:Src/mc_tasks.c **** /* Includes ------------------------------------------------------------------*/
  23:Src/mc_tasks.c **** //cstat -MISRAC2012-Rule-21.1
  24:Src/mc_tasks.c **** #include "main.h"
  25:Src/mc_tasks.c **** //cstat +MISRAC2012-Rule-21.1
  26:Src/mc_tasks.c **** #include "mc_type.h"
  27:Src/mc_tasks.c **** #include "mc_math.h"
  28:Src/mc_tasks.c **** #include "motorcontrol.h"
  29:Src/mc_tasks.c **** #include "regular_conversion_manager.h"
ARM GAS  /tmp/ccW8kGEt.s 			page 2


  30:Src/mc_tasks.c **** #include "cmsis_os.h"
  31:Src/mc_tasks.c **** #include "mc_interface.h"
  32:Src/mc_tasks.c **** #include "digital_output.h"
  33:Src/mc_tasks.c **** #include "pwm_common.h"
  34:Src/mc_tasks.c **** #include "mc_tasks.h"
  35:Src/mc_tasks.c **** #include "parameters_conversion.h"
  36:Src/mc_tasks.c **** #include "mcp_config.h"
  37:Src/mc_tasks.c **** #include "mc_app_hooks.h"
  38:Src/mc_tasks.c **** 
  39:Src/mc_tasks.c **** /* USER CODE BEGIN Includes */
  40:Src/mc_tasks.c **** 
  41:Src/mc_tasks.c **** /* USER CODE END Includes */
  42:Src/mc_tasks.c **** 
  43:Src/mc_tasks.c **** /* USER CODE BEGIN Private define */
  44:Src/mc_tasks.c **** /* Private define ------------------------------------------------------------*/
  45:Src/mc_tasks.c **** /* Un-Comment this macro define in order to activate the smooth
  46:Src/mc_tasks.c ****    braking action on over voltage */
  47:Src/mc_tasks.c **** /* #define  MC.SMOOTH_BRAKING_ACTION_ON_OVERVOLTAGE */
  48:Src/mc_tasks.c **** 
  49:Src/mc_tasks.c **** /* USER CODE END Private define */
  50:Src/mc_tasks.c **** 
  51:Src/mc_tasks.c **** #define VBUS_TEMP_ERR_MASK (MC_OVER_VOLT| MC_UNDER_VOLT| MC_OVER_TEMP)
  52:Src/mc_tasks.c **** /* Private variables----------------------------------------------------------*/
  53:Src/mc_tasks.c **** 
  54:Src/mc_tasks.c **** static uint16_t hMFTaskCounterM1 = 0; //cstat !MISRAC2012-Rule-8.9_a
  55:Src/mc_tasks.c **** static volatile uint16_t hBootCapDelayCounterM1 = ((uint16_t)0);
  56:Src/mc_tasks.c **** static volatile uint16_t hStopPermanencyCounterM1 = ((uint16_t)0);
  57:Src/mc_tasks.c **** static volatile uint8_t bMCBootCompleted = ((uint8_t)0);
  58:Src/mc_tasks.c **** 
  59:Src/mc_tasks.c **** #define M1_CHARGE_BOOT_CAP_TICKS          (((uint16_t)SYS_TICK_FREQUENCY * (uint16_t)10) / 1000U)
  60:Src/mc_tasks.c **** #define M1_CHARGE_BOOT_CAP_DUTY_CYCLES ((uint32_t)0.000\
  61:Src/mc_tasks.c ****                                       * ((uint32_t)PWM_PERIOD_CYCLES / 2U))
  62:Src/mc_tasks.c **** #define M2_CHARGE_BOOT_CAP_TICKS         (((uint16_t)SYS_TICK_FREQUENCY * (uint16_t)10) / 1000U)
  63:Src/mc_tasks.c **** #define M2_CHARGE_BOOT_CAP_DUTY_CYCLES ((uint32_t)0\
  64:Src/mc_tasks.c ****                                       * ((uint32_t)PWM_PERIOD_CYCLES2 / 2U))
  65:Src/mc_tasks.c **** 
  66:Src/mc_tasks.c **** /* USER CODE BEGIN Private Variables */
  67:Src/mc_tasks.c **** 
  68:Src/mc_tasks.c **** /* USER CODE END Private Variables */
  69:Src/mc_tasks.c **** 
  70:Src/mc_tasks.c **** /* Private functions ---------------------------------------------------------*/
  71:Src/mc_tasks.c **** void TSK_MediumFrequencyTaskM1(void);
  72:Src/mc_tasks.c **** void TSK_MF_StopProcessing(uint8_t motor);
  73:Src/mc_tasks.c **** MCI_Handle_t *GetMCI(uint8_t bMotor);
  74:Src/mc_tasks.c **** void TSK_SetChargeBootCapDelayM1(uint16_t hTickCount);
  75:Src/mc_tasks.c **** bool TSK_ChargeBootCapDelayHasElapsedM1(void);
  76:Src/mc_tasks.c **** void TSK_SetStopPermanencyTimeM1(uint16_t hTickCount);
  77:Src/mc_tasks.c **** bool TSK_StopPermanencyTimeHasElapsedM1(void);
  78:Src/mc_tasks.c **** void TSK_SafetyTask_PWMOFF(uint8_t motor);
  79:Src/mc_tasks.c **** 
  80:Src/mc_tasks.c **** /* USER CODE BEGIN Private Functions */
  81:Src/mc_tasks.c **** 
  82:Src/mc_tasks.c **** /* USER CODE END Private Functions */
  83:Src/mc_tasks.c **** /**
  84:Src/mc_tasks.c ****   * @brief  It initializes the whole MC core according to user defined
  85:Src/mc_tasks.c ****   *         parameters.
  86:Src/mc_tasks.c ****   * @param  pMCIList pointer to the vector of MCInterface objects that will be
ARM GAS  /tmp/ccW8kGEt.s 			page 3


  87:Src/mc_tasks.c ****   *         created and initialized. The vector must have length equal to the
  88:Src/mc_tasks.c ****   *         number of motor drives.
  89:Src/mc_tasks.c ****   */
  90:Src/mc_tasks.c **** __weak void MCboot( MCI_Handle_t* pMCIList[NBR_OF_MOTORS] )
  91:Src/mc_tasks.c **** {
  30              		.loc 1 91 1 view -0
  31              		.cfi_startproc
  32              		@ args = 0, pretend = 0, frame = 8
  33              		@ frame_needed = 0, uses_anonymous_args = 0
  92:Src/mc_tasks.c ****   /* USER CODE BEGIN MCboot 0 */
  93:Src/mc_tasks.c **** 
  94:Src/mc_tasks.c ****   /* USER CODE END MCboot 0 */
  95:Src/mc_tasks.c **** 
  96:Src/mc_tasks.c ****   if (MC_NULL == pMCIList)
  34              		.loc 1 96 3 view .LVU1
  35              		.loc 1 96 6 is_stmt 0 view .LVU2
  36 0000 0028     		cmp	r0, #0
  37 0002 44D0     		beq	.L4
  91:Src/mc_tasks.c ****   /* USER CODE BEGIN MCboot 0 */
  38              		.loc 1 91 1 view .LVU3
  39 0004 F0B5     		push	{r4, r5, r6, r7, lr}
  40              	.LCFI0:
  41              		.cfi_def_cfa_offset 20
  42              		.cfi_offset 4, -20
  43              		.cfi_offset 5, -16
  44              		.cfi_offset 6, -12
  45              		.cfi_offset 7, -8
  46              		.cfi_offset 14, -4
  47 0006 83B0     		sub	sp, sp, #12
  48              	.LCFI1:
  49              		.cfi_def_cfa_offset 32
  50              	.LBB34:
  97:Src/mc_tasks.c ****   {
  98:Src/mc_tasks.c ****     /* Nothing to do */
  99:Src/mc_tasks.c ****   }
 100:Src/mc_tasks.c ****   else
 101:Src/mc_tasks.c ****   {
 102:Src/mc_tasks.c **** 
 103:Src/mc_tasks.c ****     bMCBootCompleted = (uint8_t )0;
  51              		.loc 1 103 5 is_stmt 1 view .LVU4
  52              		.loc 1 103 22 is_stmt 0 view .LVU5
  53 0008 214E     		ldr	r6, .L7
  54 000a 0027     		movs	r7, #0
  55 000c 3770     		strb	r7, [r6]
 104:Src/mc_tasks.c **** 
 105:Src/mc_tasks.c ****     /*************************************************/
 106:Src/mc_tasks.c ****     /*    FOC initialization         */
 107:Src/mc_tasks.c ****     /*************************************************/
 108:Src/mc_tasks.c ****     pMCIList[M1] = &Mci[M1];
  56              		.loc 1 108 5 is_stmt 1 view .LVU6
  57              		.loc 1 108 18 is_stmt 0 view .LVU7
  58 000e 214C     		ldr	r4, .L7+4
  59 0010 0460     		str	r4, [r0]
 109:Src/mc_tasks.c ****     FOC_Init();
  60              		.loc 1 109 5 is_stmt 1 view .LVU8
  61 0012 FFF7FEFF 		bl	FOC_Init
  62              	.LVL1:
ARM GAS  /tmp/ccW8kGEt.s 			page 4


 110:Src/mc_tasks.c **** 
 111:Src/mc_tasks.c ****     ASPEP_start(&aspepOverUartA);
  63              		.loc 1 111 5 view .LVU9
  64 0016 2048     		ldr	r0, .L7+8
  65 0018 FFF7FEFF 		bl	ASPEP_start
  66              	.LVL2:
 112:Src/mc_tasks.c ****     /* USER CODE BEGIN MCboot 1 */
 113:Src/mc_tasks.c **** 
 114:Src/mc_tasks.c ****     /* USER CODE END MCboot 1 */
 115:Src/mc_tasks.c **** 
 116:Src/mc_tasks.c ****     /******************************************************/
 117:Src/mc_tasks.c ****     /*   PID component initialization: speed regulation   */
 118:Src/mc_tasks.c ****     /******************************************************/
 119:Src/mc_tasks.c ****     PID_HandleInit(&PIDSpeedHandle_M1);
  67              		.loc 1 119 5 view .LVU10
  68 001c 1F48     		ldr	r0, .L7+12
  69 001e FFF7FEFF 		bl	PID_HandleInit
  70              	.LVL3:
 120:Src/mc_tasks.c **** 
 121:Src/mc_tasks.c ****     /****************************************************/
 122:Src/mc_tasks.c ****     /*   Virtual speed sensor component initialization  */
 123:Src/mc_tasks.c ****     /****************************************************/
 124:Src/mc_tasks.c ****     VSS_Init(&VirtualSpeedSensorM1);
  71              		.loc 1 124 5 view .LVU11
  72 0022 1F48     		ldr	r0, .L7+16
  73 0024 FFF7FEFF 		bl	VSS_Init
  74              	.LVL4:
 125:Src/mc_tasks.c **** 
 126:Src/mc_tasks.c ****     /********************************************************/
 127:Src/mc_tasks.c ****     /*   Bus voltage sensor component initialization        */
 128:Src/mc_tasks.c ****     /********************************************************/
 129:Src/mc_tasks.c ****     (void)RCM_RegisterRegConv(&VbusRegConv_M1);
  75              		.loc 1 129 5 view .LVU12
  76 0028 1E48     		ldr	r0, .L7+20
  77 002a FFF7FEFF 		bl	RCM_RegisterRegConv
  78              	.LVL5:
 130:Src/mc_tasks.c ****     RVBS_Init(&BusVoltageSensor_M1);
  79              		.loc 1 130 5 view .LVU13
  80 002e 1E48     		ldr	r0, .L7+24
  81 0030 FFF7FEFF 		bl	RVBS_Init
  82              	.LVL6:
 131:Src/mc_tasks.c **** 
 132:Src/mc_tasks.c ****     /*******************************************************/
 133:Src/mc_tasks.c ****     /*   Temperature measurement component initialization  */
 134:Src/mc_tasks.c ****     /*******************************************************/
 135:Src/mc_tasks.c ****     (void)RCM_RegisterRegConv(&TempRegConv_M1);
  83              		.loc 1 135 5 view .LVU14
  84 0034 1D48     		ldr	r0, .L7+28
  85 0036 FFF7FEFF 		bl	RCM_RegisterRegConv
  86              	.LVL7:
 136:Src/mc_tasks.c ****     NTC_Init(&TempSensor_M1);
  87              		.loc 1 136 5 view .LVU15
  88 003a 1D48     		ldr	r0, .L7+32
  89 003c FFF7FEFF 		bl	NTC_Init
  90              	.LVL8:
 137:Src/mc_tasks.c **** 
 138:Src/mc_tasks.c ****     Mci[M1].pPerfMeasure = &PerfTraces;
ARM GAS  /tmp/ccW8kGEt.s 			page 5


  91              		.loc 1 138 5 view .LVU16
  92              		.loc 1 138 26 is_stmt 0 view .LVU17
  93 0040 1C48     		ldr	r0, .L7+36
  94 0042 A062     		str	r0, [r4, #40]
 139:Src/mc_tasks.c ****     MC_Perf_Measure_Init(&PerfTraces);
  95              		.loc 1 139 5 is_stmt 1 view .LVU18
  96 0044 FFF7FEFF 		bl	MC_Perf_Measure_Init
  97              	.LVL9:
 140:Src/mc_tasks.c **** 
 141:Src/mc_tasks.c ****     /*************************************************/
 142:Src/mc_tasks.c ****     /*   STSPIN32G4 driver component initialization  */
 143:Src/mc_tasks.c ****     /*************************************************/
 144:Src/mc_tasks.c ****     STSPIN32G4_init(&HdlSTSPING4);
  98              		.loc 1 144 5 view .LVU19
  99 0048 1B4C     		ldr	r4, .L7+40
 100 004a 2046     		mov	r0, r4
 101 004c FFF7FEFF 		bl	STSPIN32G4_init
 102              	.LVL10:
 145:Src/mc_tasks.c ****     STSPIN32G4_reset(&HdlSTSPING4);
 103              		.loc 1 145 5 view .LVU20
 104 0050 2046     		mov	r0, r4
 105 0052 FFF7FEFF 		bl	STSPIN32G4_reset
 106              	.LVL11:
 146:Src/mc_tasks.c ****     STSPIN32G4_setVCC(&HdlSTSPING4, (STSPIN32G4_confVCC){.voltage = _12V,
 107              		.loc 1 146 5 view .LVU21
 108              		.loc 1 146 57 is_stmt 0 view .LVU22
 109 0056 0323     		movs	r3, #3
 110 0058 8DF80030 		strb	r3, [sp]
 111 005c 0125     		movs	r5, #1
 112 005e 8DF80150 		strb	r5, [sp, #1]
 113 0062 8DF80270 		strb	r7, [sp, #2]
 114              		.loc 1 146 5 view .LVU23
 115 0066 0099     		ldr	r1, [sp]
 116 0068 2046     		mov	r0, r4
 117 006a FFF7FEFF 		bl	STSPIN32G4_setVCC
 118              	.LVL12:
 147:Src/mc_tasks.c ****                                                          .useNFAULT = true,
 148:Src/mc_tasks.c ****                                                          .useREADY = false });
 149:Src/mc_tasks.c ****     STSPIN32G4_setVDSP(&HdlSTSPING4, (STSPIN32G4_confVDSP){.deglitchTime = _4us,
 119              		.loc 1 149 5 is_stmt 1 view .LVU24
 120              		.loc 1 149 59 is_stmt 0 view .LVU25
 121 006e 8DF80450 		strb	r5, [sp, #4]
 122 0072 8DF80550 		strb	r5, [sp, #5]
 123              		.loc 1 149 5 view .LVU26
 124 0076 0199     		ldr	r1, [sp, #4]
 125 0078 2046     		mov	r0, r4
 126 007a FFF7FEFF 		bl	STSPIN32G4_setVDSP
 127              	.LVL13:
 150:Src/mc_tasks.c ****                                                            .useNFAULT = true });
 151:Src/mc_tasks.c ****     STSPIN32G4_clearFaults(&HdlSTSPING4);
 128              		.loc 1 151 5 is_stmt 1 view .LVU27
 129 007e 2046     		mov	r0, r4
 130 0080 FFF7FEFF 		bl	STSPIN32G4_clearFaults
 131              	.LVL14:
 152:Src/mc_tasks.c **** 
 153:Src/mc_tasks.c ****     /* Applicative hook in MCBoot() */
 154:Src/mc_tasks.c ****     MC_APP_BootHook();
ARM GAS  /tmp/ccW8kGEt.s 			page 6


 132              		.loc 1 154 5 view .LVU28
 133 0084 FFF7FEFF 		bl	MC_APP_BootHook
 134              	.LVL15:
 155:Src/mc_tasks.c **** 
 156:Src/mc_tasks.c ****     /* USER CODE BEGIN MCboot 2 */
 157:Src/mc_tasks.c **** 
 158:Src/mc_tasks.c ****     /* USER CODE END MCboot 2 */
 159:Src/mc_tasks.c **** 
 160:Src/mc_tasks.c ****     bMCBootCompleted = 1U;
 135              		.loc 1 160 5 view .LVU29
 136              		.loc 1 160 22 is_stmt 0 view .LVU30
 137 0088 3570     		strb	r5, [r6]
 138              	.LBE34:
 161:Src/mc_tasks.c ****   }
 162:Src/mc_tasks.c **** }
 139              		.loc 1 162 1 view .LVU31
 140 008a 03B0     		add	sp, sp, #12
 141              	.LCFI2:
 142              		.cfi_def_cfa_offset 20
 143              		@ sp needed
 144 008c F0BD     		pop	{r4, r5, r6, r7, pc}
 145              	.LVL16:
 146              	.L4:
 147              	.LCFI3:
 148              		.cfi_def_cfa_offset 0
 149              		.cfi_restore 4
 150              		.cfi_restore 5
 151              		.cfi_restore 6
 152              		.cfi_restore 7
 153              		.cfi_restore 14
 154              		.loc 1 162 1 view .LVU32
 155 008e 7047     		bx	lr
 156              	.L8:
 157              		.align	2
 158              	.L7:
 159 0090 00000000 		.word	.LANCHOR0
 160 0094 00000000 		.word	Mci
 161 0098 00000000 		.word	aspepOverUartA
 162 009c 00000000 		.word	PIDSpeedHandle_M1
 163 00a0 00000000 		.word	VirtualSpeedSensorM1
 164 00a4 00000000 		.word	VbusRegConv_M1
 165 00a8 00000000 		.word	BusVoltageSensor_M1
 166 00ac 00000000 		.word	TempRegConv_M1
 167 00b0 00000000 		.word	TempSensor_M1
 168 00b4 00000000 		.word	PerfTraces
 169 00b8 00000000 		.word	HdlSTSPING4
 170              		.cfi_endproc
 171              	.LFE1872:
 173              		.section	.text.MC_StartMotorOpenLoop,"ax",%progbits
 174              		.align	1
 175              		.global	MC_StartMotorOpenLoop
 176              		.syntax unified
 177              		.thumb
 178              		.thumb_func
 179              		.fpu fpv4-sp-d16
 181              	MC_StartMotorOpenLoop:
 182              	.LVL17:
ARM GAS  /tmp/ccW8kGEt.s 			page 7


 183              	.LFB1873:
 163:Src/mc_tasks.c **** 
 164:Src/mc_tasks.c **** 
 165:Src/mc_tasks.c **** 
 166:Src/mc_tasks.c **** 
 167:Src/mc_tasks.c **** 
 168:Src/mc_tasks.c **** 
 169:Src/mc_tasks.c **** /**
 170:Src/mc_tasks.c ****  * @brief  Starts motor in open-loop mode with specified voltage
 171:Src/mc_tasks.c ****  * @param  voltage_q Q-axis voltage (0-16000, typical start ~5000)
 172:Src/mc_tasks.c ****  * @param  voltage_d D-axis voltage (normally 0)
 173:Src/mc_tasks.c ****  * @param  frequency_hz Electrical frequency in Hz
 174:Src/mc_tasks.c ****  * @retval true if command accepted, false otherwise
 175:Src/mc_tasks.c ****  */
 176:Src/mc_tasks.c **** bool MC_StartMotorOpenLoop(int16_t voltage_q, int16_t voltage_d, uint16_t frequency_hz)
 177:Src/mc_tasks.c **** {
 184              		.loc 1 177 1 is_stmt 1 view -0
 185              		.cfi_startproc
 186              		@ args = 0, pretend = 0, frame = 0
 187              		@ frame_needed = 0, uses_anonymous_args = 0
 188              		.loc 1 177 1 is_stmt 0 view .LVU34
 189 0000 38B5     		push	{r3, r4, r5, lr}
 190              	.LCFI4:
 191              		.cfi_def_cfa_offset 16
 192              		.cfi_offset 3, -16
 193              		.cfi_offset 4, -12
 194              		.cfi_offset 5, -8
 195              		.cfi_offset 14, -4
 196 0002 0546     		mov	r5, r0
 197 0004 0C46     		mov	r4, r1
 178:Src/mc_tasks.c ****   MCI_Handle_t *pMCI = &Mci[M1];
 198              		.loc 1 178 3 is_stmt 1 view .LVU35
 199              	.LVL18:
 179:Src/mc_tasks.c ****   bool ret = false;
 200              		.loc 1 179 3 view .LVU36
 180:Src/mc_tasks.c ****   PWMC_Handle_t *pHandle =  pwmcHandle[M1];
 201              		.loc 1 180 3 view .LVU37
 181:Src/mc_tasks.c **** 
 182:Src/mc_tasks.c **** 
 183:Src/mc_tasks.c ****   if (IDLE == MCI_GetSTMState(pMCI))
 202              		.loc 1 183 3 view .LVU38
 203              		.loc 1 183 15 is_stmt 0 view .LVU39
 204 0006 0748     		ldr	r0, .L14
 205              	.LVL19:
 206              		.loc 1 183 15 view .LVU40
 207 0008 FFF7FEFF 		bl	MCI_GetSTMState
 208              	.LVL20:
 209              		.loc 1 183 6 view .LVU41
 210 000c 08B1     		cbz	r0, .L13
 179:Src/mc_tasks.c ****   PWMC_Handle_t *pHandle =  pwmcHandle[M1];
 211              		.loc 1 179 8 view .LVU42
 212 000e 0020     		movs	r0, #0
 213              	.LVL21:
 214              	.L10:
 184:Src/mc_tasks.c ****   {
 185:Src/mc_tasks.c ****     
 186:Src/mc_tasks.c ****     // Start motor (triggers state transitions)
ARM GAS  /tmp/ccW8kGEt.s 			page 8


 187:Src/mc_tasks.c ****     ret = MCI_StartMotor(pMCI);
 188:Src/mc_tasks.c ****     
 189:Src/mc_tasks.c ****     if (ret)
 190:Src/mc_tasks.c ****     {
 191:Src/mc_tasks.c **** 
 192:Src/mc_tasks.c ****       FOCVars[M1].Vqd.q = voltage_q;
 193:Src/mc_tasks.c ****       FOCVars[M1].Vqd.d = voltage_d;
 194:Src/mc_tasks.c **** 
 195:Src/mc_tasks.c ****     }
 196:Src/mc_tasks.c ****   }
 197:Src/mc_tasks.c ****   
 198:Src/mc_tasks.c ****   return ret;
 215              		.loc 1 198 3 is_stmt 1 view .LVU43
 199:Src/mc_tasks.c **** }
 216              		.loc 1 199 1 is_stmt 0 view .LVU44
 217 0010 38BD     		pop	{r3, r4, r5, pc}
 218              	.LVL22:
 219              	.L13:
 187:Src/mc_tasks.c ****     
 220              		.loc 1 187 5 is_stmt 1 view .LVU45
 187:Src/mc_tasks.c ****     
 221              		.loc 1 187 11 is_stmt 0 view .LVU46
 222 0012 0448     		ldr	r0, .L14
 223 0014 FFF7FEFF 		bl	MCI_StartMotor
 224              	.LVL23:
 189:Src/mc_tasks.c ****     {
 225              		.loc 1 189 5 is_stmt 1 view .LVU47
 189:Src/mc_tasks.c ****     {
 226              		.loc 1 189 8 is_stmt 0 view .LVU48
 227 0018 0028     		cmp	r0, #0
 228 001a F9D0     		beq	.L10
 192:Src/mc_tasks.c ****       FOCVars[M1].Vqd.d = voltage_d;
 229              		.loc 1 192 7 is_stmt 1 view .LVU49
 192:Src/mc_tasks.c ****       FOCVars[M1].Vqd.d = voltage_d;
 230              		.loc 1 192 25 is_stmt 0 view .LVU50
 231 001c 024B     		ldr	r3, .L14+4
 232 001e DD82     		strh	r5, [r3, #22]	@ movhi
 193:Src/mc_tasks.c **** 
 233              		.loc 1 193 7 is_stmt 1 view .LVU51
 193:Src/mc_tasks.c **** 
 234              		.loc 1 193 25 is_stmt 0 view .LVU52
 235 0020 1C83     		strh	r4, [r3, #24]	@ movhi
 236 0022 F5E7     		b	.L10
 237              	.L15:
 238              		.align	2
 239              	.L14:
 240 0024 00000000 		.word	Mci
 241 0028 00000000 		.word	FOCVars
 242              		.cfi_endproc
 243              	.LFE1873:
 245              		.section	.text.MC_RunMotorControlTasks,"ax",%progbits
 246              		.align	1
 247              		.weak	MC_RunMotorControlTasks
 248              		.syntax unified
 249              		.thumb
 250              		.thumb_func
 251              		.fpu fpv4-sp-d16
ARM GAS  /tmp/ccW8kGEt.s 			page 9


 253              	MC_RunMotorControlTasks:
 254              	.LFB1874:
 200:Src/mc_tasks.c **** 
 201:Src/mc_tasks.c **** 
 202:Src/mc_tasks.c **** 
 203:Src/mc_tasks.c **** 
 204:Src/mc_tasks.c **** 
 205:Src/mc_tasks.c **** /**
 206:Src/mc_tasks.c ****  * @brief Runs all the Tasks of the Motor Control cockpit
 207:Src/mc_tasks.c ****  *
 208:Src/mc_tasks.c ****  * This function is to be called periodically at least at the Medium Frequency task
 209:Src/mc_tasks.c ****  * rate (It is typically called on the Systick interrupt). Exact invokation rate is
 210:Src/mc_tasks.c ****  * the Speed regulator execution rate set in the Motor Contorl Workbench.
 211:Src/mc_tasks.c ****  *
 212:Src/mc_tasks.c ****  * The following tasks are executed in this order:
 213:Src/mc_tasks.c ****  *
 214:Src/mc_tasks.c ****  * - Medium Frequency Tasks of each motors.
 215:Src/mc_tasks.c ****  * - Safety Task.
 216:Src/mc_tasks.c ****  * - Power Factor Correction Task (if enabled).
 217:Src/mc_tasks.c ****  * - User Interface task.
 218:Src/mc_tasks.c ****  */
 219:Src/mc_tasks.c **** __weak void MC_RunMotorControlTasks(void)
 220:Src/mc_tasks.c **** {
 255              		.loc 1 220 1 is_stmt 1 view -0
 256              		.cfi_startproc
 257              		@ args = 0, pretend = 0, frame = 0
 258              		@ frame_needed = 0, uses_anonymous_args = 0
 259 0000 38B5     		push	{r3, r4, r5, lr}
 260              	.LCFI5:
 261              		.cfi_def_cfa_offset 16
 262              		.cfi_offset 3, -16
 263              		.cfi_offset 4, -12
 264              		.cfi_offset 5, -8
 265              		.cfi_offset 14, -4
 221:Src/mc_tasks.c ****   if (0U == bMCBootCompleted)
 266              		.loc 1 221 3 view .LVU54
 267              		.loc 1 221 10 is_stmt 0 view .LVU55
 268 0002 234B     		ldr	r3, .L24
 269 0004 1B78     		ldrb	r3, [r3]	@ zero_extendqisi2
 270              		.loc 1 221 6 view .LVU56
 271 0006 BBB1     		cbz	r3, .L16
 222:Src/mc_tasks.c ****   {
 223:Src/mc_tasks.c ****     /* Nothing to do */
 224:Src/mc_tasks.c ****   }
 225:Src/mc_tasks.c ****   else
 226:Src/mc_tasks.c ****   {
 227:Src/mc_tasks.c ****     /* ** Medium Frequency Tasks ** */
 228:Src/mc_tasks.c **** /* USER CODE BEGIN MC_Scheduler 0 */
 229:Src/mc_tasks.c **** 
 230:Src/mc_tasks.c **** /* USER CODE END MC_Scheduler 0 */
 231:Src/mc_tasks.c **** 
 232:Src/mc_tasks.c ****     if(hMFTaskCounterM1 > 0u)
 272              		.loc 1 232 5 is_stmt 1 view .LVU57
 273              		.loc 1 232 25 is_stmt 0 view .LVU58
 274 0008 224B     		ldr	r3, .L24+4
 275 000a 1B88     		ldrh	r3, [r3]
 276              		.loc 1 232 7 view .LVU59
ARM GAS  /tmp/ccW8kGEt.s 			page 10


 277 000c ABB1     		cbz	r3, .L18
 233:Src/mc_tasks.c ****     {
 234:Src/mc_tasks.c ****       hMFTaskCounterM1--;
 278              		.loc 1 234 7 is_stmt 1 view .LVU60
 279              		.loc 1 234 23 is_stmt 0 view .LVU61
 280 000e 013B     		subs	r3, r3, #1
 281 0010 204A     		ldr	r2, .L24+4
 282 0012 1380     		strh	r3, [r2]	@ movhi
 283              	.L19:
 235:Src/mc_tasks.c ****     }
 236:Src/mc_tasks.c ****     else
 237:Src/mc_tasks.c ****     {
 238:Src/mc_tasks.c **** 
 239:Src/mc_tasks.c ****       MC_BG_Perf_Measure_Start(&PerfTraces, MEASURE_TSK_MediumFrequencyTaskM1);
 240:Src/mc_tasks.c ****       TSK_MediumFrequencyTaskM1();
 241:Src/mc_tasks.c **** 
 242:Src/mc_tasks.c ****   MC_BG_Perf_Measure_Stop(&PerfTraces, MEASURE_TSK_MediumFrequencyTaskM1);
 243:Src/mc_tasks.c ****       /* Applicative hook at end of Medium Frequency for Motor 1 */
 244:Src/mc_tasks.c ****       MC_APP_PostMediumFrequencyHook_M1();
 245:Src/mc_tasks.c **** 
 246:Src/mc_tasks.c ****       MCP_Over_UartA.rxBuffer = MCP_Over_UartA.pTransportLayer->fRXPacketProcess(MCP_Over_UartA.pTr
 247:Src/mc_tasks.c ****                                                                                 &MCP_Over_UartA.rxL
 248:Src/mc_tasks.c ****       if ( 0U == MCP_Over_UartA.rxBuffer)
 249:Src/mc_tasks.c ****       {
 250:Src/mc_tasks.c ****         /* Nothing to do */
 251:Src/mc_tasks.c ****       }
 252:Src/mc_tasks.c ****       else
 253:Src/mc_tasks.c ****       {
 254:Src/mc_tasks.c ****         /* Synchronous answer */
 255:Src/mc_tasks.c ****         if (0U == MCP_Over_UartA.pTransportLayer->fGetBuffer(MCP_Over_UartA.pTransportLayer,
 256:Src/mc_tasks.c ****                                                      (void **) &MCP_Over_UartA.txBuffer, //cstat !M
 257:Src/mc_tasks.c ****                                                      MCTL_SYNC))
 258:Src/mc_tasks.c ****         {
 259:Src/mc_tasks.c ****           /* No buffer available to build the answer ... should not occur */
 260:Src/mc_tasks.c ****         }
 261:Src/mc_tasks.c ****         else
 262:Src/mc_tasks.c ****         {
 263:Src/mc_tasks.c ****           MCP_ReceivedPacket(&MCP_Over_UartA);
 264:Src/mc_tasks.c ****           MCP_Over_UartA.pTransportLayer->fSendPacket(MCP_Over_UartA.pTransportLayer, MCP_Over_Uart
 265:Src/mc_tasks.c ****                                                       MCP_Over_UartA.txLength, MCTL_SYNC);
 266:Src/mc_tasks.c ****           /* No buffer available to build the answer ... should not occur */
 267:Src/mc_tasks.c ****         }
 268:Src/mc_tasks.c ****       }
 269:Src/mc_tasks.c **** 
 270:Src/mc_tasks.c ****       /* USER CODE BEGIN MC_Scheduler 1 */
 271:Src/mc_tasks.c **** 
 272:Src/mc_tasks.c ****       /* USER CODE END MC_Scheduler 1 */
 273:Src/mc_tasks.c **** 
 274:Src/mc_tasks.c ****       hMFTaskCounterM1 = (uint16_t)MF_TASK_OCCURENCE_TICKS;
 275:Src/mc_tasks.c ****     }
 276:Src/mc_tasks.c ****     if(hBootCapDelayCounterM1 > 0U)
 284              		.loc 1 276 5 is_stmt 1 view .LVU62
 285              		.loc 1 276 31 is_stmt 0 view .LVU63
 286 0014 204B     		ldr	r3, .L24+8
 287 0016 1B88     		ldrh	r3, [r3]
 288 0018 9BB2     		uxth	r3, r3
 289              		.loc 1 276 7 view .LVU64
ARM GAS  /tmp/ccW8kGEt.s 			page 11


 290 001a 23B1     		cbz	r3, .L21
 277:Src/mc_tasks.c ****     {
 278:Src/mc_tasks.c ****       hBootCapDelayCounterM1--;
 291              		.loc 1 278 7 is_stmt 1 view .LVU65
 292              		.loc 1 278 29 is_stmt 0 view .LVU66
 293 001c 1E4A     		ldr	r2, .L24+8
 294 001e 1388     		ldrh	r3, [r2]
 295 0020 013B     		subs	r3, r3, #1
 296 0022 9BB2     		uxth	r3, r3
 297 0024 1380     		strh	r3, [r2]	@ movhi
 298              	.L21:
 279:Src/mc_tasks.c ****     }
 280:Src/mc_tasks.c ****     else
 281:Src/mc_tasks.c ****     {
 282:Src/mc_tasks.c ****       /* Nothing to do */
 283:Src/mc_tasks.c ****     }
 299              		.loc 1 283 5 is_stmt 1 view .LVU67
 284:Src/mc_tasks.c ****     if(hStopPermanencyCounterM1 > 0U)
 300              		.loc 1 284 5 view .LVU68
 301              		.loc 1 284 33 is_stmt 0 view .LVU69
 302 0026 1D4B     		ldr	r3, .L24+12
 303 0028 1B88     		ldrh	r3, [r3]
 304 002a 9BB2     		uxth	r3, r3
 305              		.loc 1 284 7 view .LVU70
 306 002c 23B1     		cbz	r3, .L16
 285:Src/mc_tasks.c ****     {
 286:Src/mc_tasks.c ****       hStopPermanencyCounterM1--;
 307              		.loc 1 286 7 is_stmt 1 view .LVU71
 308              		.loc 1 286 31 is_stmt 0 view .LVU72
 309 002e 1B4A     		ldr	r2, .L24+12
 310 0030 1388     		ldrh	r3, [r2]
 311 0032 013B     		subs	r3, r3, #1
 312 0034 9BB2     		uxth	r3, r3
 313 0036 1380     		strh	r3, [r2]	@ movhi
 287:Src/mc_tasks.c ****     }
 288:Src/mc_tasks.c ****     else
 289:Src/mc_tasks.c ****     {
 290:Src/mc_tasks.c ****       /* Nothing to do */
 291:Src/mc_tasks.c ****     }
 314              		.loc 1 291 5 is_stmt 1 view .LVU73
 315              	.L16:
 292:Src/mc_tasks.c **** 
 293:Src/mc_tasks.c ****   /* USER CODE BEGIN MC_Scheduler 2 */
 294:Src/mc_tasks.c **** 
 295:Src/mc_tasks.c ****   /* USER CODE END MC_Scheduler 2 */
 296:Src/mc_tasks.c ****   }
 297:Src/mc_tasks.c **** }
 316              		.loc 1 297 1 is_stmt 0 view .LVU74
 317 0038 38BD     		pop	{r3, r4, r5, pc}
 318              	.L18:
 239:Src/mc_tasks.c ****       TSK_MediumFrequencyTaskM1();
 319              		.loc 1 239 7 is_stmt 1 view .LVU75
 320 003a 194C     		ldr	r4, .L24+16
 321 003c 0121     		movs	r1, #1
 322 003e 2046     		mov	r0, r4
 323 0040 FFF7FEFF 		bl	MC_BG_Perf_Measure_Start
 324              	.LVL24:
ARM GAS  /tmp/ccW8kGEt.s 			page 12


 240:Src/mc_tasks.c **** 
 325              		.loc 1 240 7 view .LVU76
 326 0044 FFF7FEFF 		bl	TSK_MediumFrequencyTaskM1
 327              	.LVL25:
 242:Src/mc_tasks.c ****       /* Applicative hook at end of Medium Frequency for Motor 1 */
 328              		.loc 1 242 3 view .LVU77
 329 0048 0121     		movs	r1, #1
 330 004a 2046     		mov	r0, r4
 331 004c FFF7FEFF 		bl	MC_BG_Perf_Measure_Stop
 332              	.LVL26:
 244:Src/mc_tasks.c **** 
 333              		.loc 1 244 7 view .LVU78
 334 0050 FFF7FEFF 		bl	MC_APP_PostMediumFrequencyHook_M1
 335              	.LVL27:
 246:Src/mc_tasks.c ****                                                                                 &MCP_Over_UartA.rxL
 336              		.loc 1 246 7 view .LVU79
 246:Src/mc_tasks.c ****                                                                                 &MCP_Over_UartA.rxL
 337              		.loc 1 246 47 is_stmt 0 view .LVU80
 338 0054 134C     		ldr	r4, .L24+20
 339 0056 2146     		mov	r1, r4
 340 0058 51F80C0B 		ldr	r0, [r1], #12
 246:Src/mc_tasks.c ****                                                                                 &MCP_Over_UartA.rxL
 341              		.loc 1 246 33 view .LVU81
 342 005c 8368     		ldr	r3, [r0, #8]
 343 005e 9847     		blx	r3
 344              	.LVL28:
 246:Src/mc_tasks.c ****                                                                                 &MCP_Over_UartA.rxL
 345              		.loc 1 246 31 view .LVU82
 346 0060 6060     		str	r0, [r4, #4]
 248:Src/mc_tasks.c ****       {
 347              		.loc 1 248 7 is_stmt 1 view .LVU83
 248:Src/mc_tasks.c ****       {
 348              		.loc 1 248 10 is_stmt 0 view .LVU84
 349 0062 30B1     		cbz	r0, .L20
 255:Src/mc_tasks.c ****                                                      (void **) &MCP_Over_UartA.txBuffer, //cstat !M
 350              		.loc 1 255 9 is_stmt 1 view .LVU85
 255:Src/mc_tasks.c ****                                                      (void **) &MCP_Over_UartA.txBuffer, //cstat !M
 351              		.loc 1 255 33 is_stmt 0 view .LVU86
 352 0064 2146     		mov	r1, r4
 353 0066 51F8080B 		ldr	r0, [r1], #8
 255:Src/mc_tasks.c ****                                                      (void **) &MCP_Over_UartA.txBuffer, //cstat !M
 354              		.loc 1 255 19 view .LVU87
 355 006a 0368     		ldr	r3, [r0]
 356 006c 0A22     		movs	r2, #10
 357 006e 9847     		blx	r3
 358              	.LVL29:
 255:Src/mc_tasks.c ****                                                      (void **) &MCP_Over_UartA.txBuffer, //cstat !M
 359              		.loc 1 255 12 view .LVU88
 360 0070 18B9     		cbnz	r0, .L23
 361              	.L20:
 274:Src/mc_tasks.c ****     }
 362              		.loc 1 274 7 is_stmt 1 view .LVU89
 274:Src/mc_tasks.c ****     }
 363              		.loc 1 274 24 is_stmt 0 view .LVU90
 364 0072 084B     		ldr	r3, .L24+4
 365 0074 0122     		movs	r2, #1
 366 0076 1A80     		strh	r2, [r3]	@ movhi
ARM GAS  /tmp/ccW8kGEt.s 			page 13


 367 0078 CCE7     		b	.L19
 368              	.L23:
 263:Src/mc_tasks.c ****           MCP_Over_UartA.pTransportLayer->fSendPacket(MCP_Over_UartA.pTransportLayer, MCP_Over_Uart
 369              		.loc 1 263 11 is_stmt 1 view .LVU91
 370 007a 2046     		mov	r0, r4
 371 007c FFF7FEFF 		bl	MCP_ReceivedPacket
 372              	.LVL30:
 264:Src/mc_tasks.c ****                                                       MCP_Over_UartA.txLength, MCTL_SYNC);
 373              		.loc 1 264 11 view .LVU92
 264:Src/mc_tasks.c ****                                                       MCP_Over_UartA.txLength, MCTL_SYNC);
 374              		.loc 1 264 25 is_stmt 0 view .LVU93
 375 0080 2068     		ldr	r0, [r4]
 264:Src/mc_tasks.c ****                                                       MCP_Over_UartA.txLength, MCTL_SYNC);
 376              		.loc 1 264 11 view .LVU94
 377 0082 4568     		ldr	r5, [r0, #4]
 378 0084 0A23     		movs	r3, #10
 379 0086 E289     		ldrh	r2, [r4, #14]
 380 0088 A168     		ldr	r1, [r4, #8]
 381 008a A847     		blx	r5
 382              	.LVL31:
 383 008c F1E7     		b	.L20
 384              	.L25:
 385 008e 00BF     		.align	2
 386              	.L24:
 387 0090 00000000 		.word	.LANCHOR0
 388 0094 00000000 		.word	.LANCHOR1
 389 0098 00000000 		.word	.LANCHOR2
 390 009c 00000000 		.word	.LANCHOR3
 391 00a0 00000000 		.word	PerfTraces
 392 00a4 00000000 		.word	MCP_Over_UartA
 393              		.cfi_endproc
 394              	.LFE1874:
 396              		.section	.text.TSK_SetChargeBootCapDelayM1,"ax",%progbits
 397              		.align	1
 398              		.weak	TSK_SetChargeBootCapDelayM1
 399              		.syntax unified
 400              		.thumb
 401              		.thumb_func
 402              		.fpu fpv4-sp-d16
 404              	TSK_SetChargeBootCapDelayM1:
 405              	.LVL32:
 406              	.LFB1875:
 298:Src/mc_tasks.c **** 
 299:Src/mc_tasks.c **** /**
 300:Src/mc_tasks.c ****   * @brief  It set a counter intended to be used for counting the delay required
 301:Src/mc_tasks.c ****   *         for drivers boot capacitors charging of motor 1.
 302:Src/mc_tasks.c ****   * @param  hTickCount number of ticks to be counted.
 303:Src/mc_tasks.c ****   * @retval void
 304:Src/mc_tasks.c ****   */
 305:Src/mc_tasks.c **** __weak void TSK_SetChargeBootCapDelayM1(uint16_t hTickCount)
 306:Src/mc_tasks.c **** {
 407              		.loc 1 306 1 is_stmt 1 view -0
 408              		.cfi_startproc
 409              		@ args = 0, pretend = 0, frame = 0
 410              		@ frame_needed = 0, uses_anonymous_args = 0
 411              		@ link register save eliminated.
 307:Src/mc_tasks.c ****    hBootCapDelayCounterM1 = hTickCount;
ARM GAS  /tmp/ccW8kGEt.s 			page 14


 412              		.loc 1 307 4 view .LVU96
 413              		.loc 1 307 27 is_stmt 0 view .LVU97
 414 0000 014B     		ldr	r3, .L27
 415 0002 1880     		strh	r0, [r3]	@ movhi
 308:Src/mc_tasks.c **** }
 416              		.loc 1 308 1 view .LVU98
 417 0004 7047     		bx	lr
 418              	.L28:
 419 0006 00BF     		.align	2
 420              	.L27:
 421 0008 00000000 		.word	.LANCHOR2
 422              		.cfi_endproc
 423              	.LFE1875:
 425              		.section	.text.TSK_ChargeBootCapDelayHasElapsedM1,"ax",%progbits
 426              		.align	1
 427              		.weak	TSK_ChargeBootCapDelayHasElapsedM1
 428              		.syntax unified
 429              		.thumb
 430              		.thumb_func
 431              		.fpu fpv4-sp-d16
 433              	TSK_ChargeBootCapDelayHasElapsedM1:
 434              	.LFB1876:
 309:Src/mc_tasks.c **** 
 310:Src/mc_tasks.c **** /**
 311:Src/mc_tasks.c ****   * @brief  Use this function to know whether the time required to charge boot
 312:Src/mc_tasks.c ****   *         capacitors of motor 1 has elapsed.
 313:Src/mc_tasks.c ****   * @param  none
 314:Src/mc_tasks.c ****   * @retval bool true if time has elapsed, false otherwise.
 315:Src/mc_tasks.c ****   */
 316:Src/mc_tasks.c **** __weak bool TSK_ChargeBootCapDelayHasElapsedM1(void)
 317:Src/mc_tasks.c **** {
 435              		.loc 1 317 1 is_stmt 1 view -0
 436              		.cfi_startproc
 437              		@ args = 0, pretend = 0, frame = 0
 438              		@ frame_needed = 0, uses_anonymous_args = 0
 439              		@ link register save eliminated.
 318:Src/mc_tasks.c ****   bool retVal = false;
 440              		.loc 1 318 3 view .LVU100
 441              	.LVL33:
 319:Src/mc_tasks.c ****   if (((uint16_t)0) == hBootCapDelayCounterM1)
 442              		.loc 1 319 3 view .LVU101
 443              		.loc 1 319 21 is_stmt 0 view .LVU102
 444 0000 034B     		ldr	r3, .L30
 445 0002 1888     		ldrh	r0, [r3]
 446 0004 80B2     		uxth	r0, r0
 447              	.LVL34:
 320:Src/mc_tasks.c ****   {
 321:Src/mc_tasks.c ****     retVal = true;
 322:Src/mc_tasks.c ****   }
 323:Src/mc_tasks.c ****   return (retVal);
 448              		.loc 1 323 3 is_stmt 1 view .LVU103
 324:Src/mc_tasks.c **** }
 449              		.loc 1 324 1 is_stmt 0 view .LVU104
 450 0006 B0FA80F0 		clz	r0, r0
 451              	.LVL35:
 452              		.loc 1 324 1 view .LVU105
 453 000a 4009     		lsrs	r0, r0, #5
ARM GAS  /tmp/ccW8kGEt.s 			page 15


 454 000c 7047     		bx	lr
 455              	.L31:
 456 000e 00BF     		.align	2
 457              	.L30:
 458 0010 00000000 		.word	.LANCHOR2
 459              		.cfi_endproc
 460              	.LFE1876:
 462              		.section	.text.TSK_SetStopPermanencyTimeM1,"ax",%progbits
 463              		.align	1
 464              		.weak	TSK_SetStopPermanencyTimeM1
 465              		.syntax unified
 466              		.thumb
 467              		.thumb_func
 468              		.fpu fpv4-sp-d16
 470              	TSK_SetStopPermanencyTimeM1:
 471              	.LVL36:
 472              	.LFB1877:
 325:Src/mc_tasks.c **** 
 326:Src/mc_tasks.c **** /**
 327:Src/mc_tasks.c ****   * @brief  It set a counter intended to be used for counting the permanency
 328:Src/mc_tasks.c ****   *         time in STOP state of motor 1.
 329:Src/mc_tasks.c ****   * @param  hTickCount number of ticks to be counted.
 330:Src/mc_tasks.c ****   * @retval void
 331:Src/mc_tasks.c ****   */
 332:Src/mc_tasks.c **** __weak void TSK_SetStopPermanencyTimeM1(uint16_t hTickCount)
 333:Src/mc_tasks.c **** {
 473              		.loc 1 333 1 is_stmt 1 view -0
 474              		.cfi_startproc
 475              		@ args = 0, pretend = 0, frame = 0
 476              		@ frame_needed = 0, uses_anonymous_args = 0
 477              		@ link register save eliminated.
 334:Src/mc_tasks.c ****   hStopPermanencyCounterM1 = hTickCount;
 478              		.loc 1 334 3 view .LVU107
 479              		.loc 1 334 28 is_stmt 0 view .LVU108
 480 0000 014B     		ldr	r3, .L33
 481 0002 1880     		strh	r0, [r3]	@ movhi
 335:Src/mc_tasks.c **** }
 482              		.loc 1 335 1 view .LVU109
 483 0004 7047     		bx	lr
 484              	.L34:
 485 0006 00BF     		.align	2
 486              	.L33:
 487 0008 00000000 		.word	.LANCHOR3
 488              		.cfi_endproc
 489              	.LFE1877:
 491              		.section	.text.TSK_StopPermanencyTimeHasElapsedM1,"ax",%progbits
 492              		.align	1
 493              		.weak	TSK_StopPermanencyTimeHasElapsedM1
 494              		.syntax unified
 495              		.thumb
 496              		.thumb_func
 497              		.fpu fpv4-sp-d16
 499              	TSK_StopPermanencyTimeHasElapsedM1:
 500              	.LFB1878:
 336:Src/mc_tasks.c **** 
 337:Src/mc_tasks.c **** /**
 338:Src/mc_tasks.c ****   * @brief  Use this function to know whether the permanency time in STOP state
ARM GAS  /tmp/ccW8kGEt.s 			page 16


 339:Src/mc_tasks.c ****   *         of motor 1 has elapsed.
 340:Src/mc_tasks.c ****   * @param  none
 341:Src/mc_tasks.c ****   * @retval bool true if time is elapsed, false otherwise.
 342:Src/mc_tasks.c ****   */
 343:Src/mc_tasks.c **** __weak bool TSK_StopPermanencyTimeHasElapsedM1(void)
 344:Src/mc_tasks.c **** {
 501              		.loc 1 344 1 is_stmt 1 view -0
 502              		.cfi_startproc
 503              		@ args = 0, pretend = 0, frame = 0
 504              		@ frame_needed = 0, uses_anonymous_args = 0
 505              		@ link register save eliminated.
 345:Src/mc_tasks.c ****   bool retVal = false;
 506              		.loc 1 345 3 view .LVU111
 507              	.LVL37:
 346:Src/mc_tasks.c ****   if (((uint16_t)0) == hStopPermanencyCounterM1)
 508              		.loc 1 346 3 view .LVU112
 509              		.loc 1 346 21 is_stmt 0 view .LVU113
 510 0000 034B     		ldr	r3, .L36
 511 0002 1888     		ldrh	r0, [r3]
 512 0004 80B2     		uxth	r0, r0
 513              	.LVL38:
 347:Src/mc_tasks.c ****   {
 348:Src/mc_tasks.c ****     retVal = true;
 349:Src/mc_tasks.c ****   }
 350:Src/mc_tasks.c ****   return (retVal);
 514              		.loc 1 350 3 is_stmt 1 view .LVU114
 351:Src/mc_tasks.c **** }
 515              		.loc 1 351 1 is_stmt 0 view .LVU115
 516 0006 B0FA80F0 		clz	r0, r0
 517              	.LVL39:
 518              		.loc 1 351 1 view .LVU116
 519 000a 4009     		lsrs	r0, r0, #5
 520 000c 7047     		bx	lr
 521              	.L37:
 522 000e 00BF     		.align	2
 523              	.L36:
 524 0010 00000000 		.word	.LANCHOR3
 525              		.cfi_endproc
 526              	.LFE1878:
 528              		.section	.text.TSK_HighFrequencyTask,"ax",%progbits
 529              		.align	1
 530              		.weak	TSK_HighFrequencyTask
 531              		.syntax unified
 532              		.thumb
 533              		.thumb_func
 534              		.fpu fpv4-sp-d16
 536              	TSK_HighFrequencyTask:
 537              	.LFB1879:
 352:Src/mc_tasks.c **** 
 353:Src/mc_tasks.c **** #if defined (CCMRAM)
 354:Src/mc_tasks.c **** #if defined (__ICCARM__)
 355:Src/mc_tasks.c **** #pragma location = ".ccmram"
 356:Src/mc_tasks.c **** #elif defined (__CC_ARM) || defined(__GNUC__)
 357:Src/mc_tasks.c **** __attribute__((section (".ccmram")))
 358:Src/mc_tasks.c **** #endif
 359:Src/mc_tasks.c **** #endif
 360:Src/mc_tasks.c **** 
ARM GAS  /tmp/ccW8kGEt.s 			page 17


 361:Src/mc_tasks.c **** /**
 362:Src/mc_tasks.c ****   * @brief  Executes the Motor Control duties that require a high frequency rate and a precise timi
 363:Src/mc_tasks.c ****   *
 364:Src/mc_tasks.c ****   *  This is mainly the FOC current control loop. It is executed depending on the state of the Moto
 365:Src/mc_tasks.c ****   * subsystem (see the state machine(s)).
 366:Src/mc_tasks.c ****   *
 367:Src/mc_tasks.c ****   * @retval Number of the  motor instance which FOC loop was executed.
 368:Src/mc_tasks.c ****   */
 369:Src/mc_tasks.c **** __weak uint8_t TSK_HighFrequencyTask(void)
 370:Src/mc_tasks.c **** {
 538              		.loc 1 370 1 is_stmt 1 view -0
 539              		.cfi_startproc
 540              		@ args = 0, pretend = 0, frame = 0
 541              		@ frame_needed = 0, uses_anonymous_args = 0
 542 0000 08B5     		push	{r3, lr}
 543              	.LCFI6:
 544              		.cfi_def_cfa_offset 8
 545              		.cfi_offset 3, -8
 546              		.cfi_offset 14, -4
 371:Src/mc_tasks.c ****   uint8_t bMotorNbr;
 547              		.loc 1 371 3 view .LVU118
 372:Src/mc_tasks.c ****   bMotorNbr = 0;
 548              		.loc 1 372 3 view .LVU119
 549              	.LVL40:
 373:Src/mc_tasks.c **** 
 374:Src/mc_tasks.c ****   MC_Perf_Measure_Start(&PerfTraces, MEASURE_TSK_HighFrequencyTaskM1);
 550              		.loc 1 374 3 view .LVU120
 551              	.LBB35:
 552              	.LBI35:
 553              		.file 2 "Inc/mc_perf.h"
   1:Inc/mc_perf.h **** /**
   2:Inc/mc_perf.h ****   ******************************************************************************
   3:Inc/mc_perf.h ****   * @file    mc_perf.h
   4:Inc/mc_perf.h ****   * @author  Motor Control SDK Team, ST Microelectronics
   5:Inc/mc_perf.h ****   * @brief   Execution time measurement definitions
   6:Inc/mc_perf.h ****   ******************************************************************************
   7:Inc/mc_perf.h ****   * @attention
   8:Inc/mc_perf.h ****   *
   9:Inc/mc_perf.h ****   * <h2><center>&copy; Copyright (c) 2024 STMicroelectronics.
  10:Inc/mc_perf.h ****   * All rights reserved.</center></h2>
  11:Inc/mc_perf.h ****   *
  12:Inc/mc_perf.h ****   * This software component is licensed by ST under Ultimate Liberty license
  13:Inc/mc_perf.h ****   * SLA0044, the "License"; You may not use this file except in compliance with
  14:Inc/mc_perf.h ****   * the License. You may obtain a copy of the License at:
  15:Inc/mc_perf.h ****   *                             www.st.com/SLA0044
  16:Inc/mc_perf.h ****   *
  17:Inc/mc_perf.h ****   ******************************************************************************
  18:Inc/mc_perf.h ****   */
  19:Inc/mc_perf.h **** #ifndef MC_PERF_H
  20:Inc/mc_perf.h **** #define MC_PERF_H
  21:Inc/mc_perf.h **** 
  22:Inc/mc_perf.h **** typedef enum
  23:Inc/mc_perf.h **** {
  24:Inc/mc_perf.h ****   MEASURE_TSK_HighFrequencyTaskM1,
  25:Inc/mc_perf.h ****   MEASURE_TSK_MediumFrequencyTaskM1,
  26:Inc/mc_perf.h **** /*  Others functions to measure to be added here. */
  27:Inc/mc_perf.h **** } MC_PERF_FUNCTIONS_LIST_t;
ARM GAS  /tmp/ccW8kGEt.s 			page 18


  28:Inc/mc_perf.h **** 
  29:Inc/mc_perf.h **** /* Define max number of traces according to the list defined in MC_PERF_FUNCTIONS_LIST_t */
  30:Inc/mc_perf.h **** #define  MC_PERF_NB_TRACES  2U
  31:Inc/mc_perf.h **** 
  32:Inc/mc_perf.h **** /* DWT (Data Watchpoint and Trace) registers, only exists on ARM Cortex with a DWT unit */
  33:Inc/mc_perf.h **** /* The DWT is usually implemented in Cortex-M3 or higher, but not on Cortex-M0(+) (ie not present o
  34:Inc/mc_perf.h **** 
  35:Inc/mc_perf.h **** typedef struct
  36:Inc/mc_perf.h **** {
  37:Inc/mc_perf.h ****     uint32_t  StartMeasure;
  38:Inc/mc_perf.h ****     uint32_t  DeltaTimeInCycle;
  39:Inc/mc_perf.h ****     uint32_t  min;
  40:Inc/mc_perf.h ****     uint32_t  max;
  41:Inc/mc_perf.h **** } Perf_Handle_t;
  42:Inc/mc_perf.h **** 
  43:Inc/mc_perf.h **** typedef struct
  44:Inc/mc_perf.h **** {
  45:Inc/mc_perf.h ****     bool   BG_Task_OnGoing;
  46:Inc/mc_perf.h ****     uint32_t  AccHighFreqTasksCnt;
  47:Inc/mc_perf.h ****     Perf_Handle_t MC_Perf_TraceLog[MC_PERF_NB_TRACES];
  48:Inc/mc_perf.h **** } MC_Perf_Handle_t;
  49:Inc/mc_perf.h **** 
  50:Inc/mc_perf.h **** void MC_Perf_Measure_Init(MC_Perf_Handle_t *pHandle);
  51:Inc/mc_perf.h **** void MC_Perf_Clear(MC_Perf_Handle_t *pHandle,uint8_t bMotor);
  52:Inc/mc_perf.h **** void MC_BG_Perf_Measure_Start(MC_Perf_Handle_t *pHandle, uint8_t i);
  53:Inc/mc_perf.h **** void MC_Perf_Measure_Stop(MC_Perf_Handle_t *pHandle, uint8_t i);
  54:Inc/mc_perf.h **** void MC_BG_Perf_Measure_Stop(MC_Perf_Handle_t *pHandle, uint8_t i);
  55:Inc/mc_perf.h **** 
  56:Inc/mc_perf.h **** float_t MC_Perf_GetCPU_Load(const MC_Perf_Handle_t *pHandle);
  57:Inc/mc_perf.h **** float_t MC_Perf_GetMaxCPU_Load(const MC_Perf_Handle_t *pHandle);
  58:Inc/mc_perf.h **** float_t MC_Perf_GetMinCPU_Load(const MC_Perf_Handle_t *pHandle);
  59:Inc/mc_perf.h **** 
  60:Inc/mc_perf.h **** /**
  61:Inc/mc_perf.h ****  * @brief  Start the measure of a code section called in foreground.
  62:Inc/mc_perf.h ****  * @param  pHandle: handler of the performance measurement component.
  63:Inc/mc_perf.h ****  * @param  CodeSection: code section to measure.
  64:Inc/mc_perf.h ****  */
  65:Inc/mc_perf.h **** static inline void MC_Perf_Measure_Start(MC_Perf_Handle_t *pHandle, uint8_t CodeSection)
 554              		.loc 2 65 20 view .LVU121
 555              	.LBB36:
  66:Inc/mc_perf.h **** {
  67:Inc/mc_perf.h **** #ifdef NULL_PTR_CHECK_MC_PERF
  68:Inc/mc_perf.h ****   if (MC_NULL == pHandle)
  69:Inc/mc_perf.h ****   {
  70:Inc/mc_perf.h ****     /* Nothing to do */
  71:Inc/mc_perf.h ****   }
  72:Inc/mc_perf.h ****   else
  73:Inc/mc_perf.h ****   {
  74:Inc/mc_perf.h **** #endif
  75:Inc/mc_perf.h ****     uint32_t StartMeasure = DWT->CYCCNT;
 556              		.loc 2 75 5 view .LVU122
 557              		.loc 2 75 14 is_stmt 0 view .LVU123
 558 0002 0C4B     		ldr	r3, .L42
 559 0004 5A68     		ldr	r2, [r3, #4]
 560              	.LVL41:
  76:Inc/mc_perf.h ****     pHandle->MC_Perf_TraceLog[CodeSection].StartMeasure = StartMeasure;
 561              		.loc 2 76 5 is_stmt 1 view .LVU124
ARM GAS  /tmp/ccW8kGEt.s 			page 19


 562              		.loc 2 76 57 is_stmt 0 view .LVU125
 563 0006 0C4B     		ldr	r3, .L42+4
 564 0008 9A60     		str	r2, [r3, #8]
 565              	.LVL42:
 566              		.loc 2 76 57 view .LVU126
 567              	.LBE36:
 568              	.LBE35:
 375:Src/mc_tasks.c ****   /* USER CODE BEGIN HighFrequencyTask 0 */
 376:Src/mc_tasks.c **** 
 377:Src/mc_tasks.c ****   /* USER CODE END HighFrequencyTask 0 */
 378:Src/mc_tasks.c ****   FOC_HighFrequencyTask(bMotorNbr);
 569              		.loc 1 378 3 is_stmt 1 view .LVU127
 570 000a 0020     		movs	r0, #0
 571 000c FFF7FEFF 		bl	FOC_HighFrequencyTask
 572              	.LVL43:
 379:Src/mc_tasks.c **** 
 380:Src/mc_tasks.c ****   /* USER CODE BEGIN HighFrequencyTask 1 */
 381:Src/mc_tasks.c **** 
 382:Src/mc_tasks.c ****   /* USER CODE END HighFrequencyTask 1 */
 383:Src/mc_tasks.c **** 
 384:Src/mc_tasks.c ****   GLOBAL_TIMESTAMP++;
 573              		.loc 1 384 3 view .LVU128
 574              		.loc 1 384 19 is_stmt 0 view .LVU129
 575 0010 0A4A     		ldr	r2, .L42+8
 576 0012 1368     		ldr	r3, [r2]
 577 0014 0133     		adds	r3, r3, #1
 578 0016 1360     		str	r3, [r2]
 385:Src/mc_tasks.c ****   if (0U == MCPA_UART_A.Mark)
 579              		.loc 1 385 3 is_stmt 1 view .LVU130
 580              		.loc 1 385 24 is_stmt 0 view .LVU131
 581 0018 094B     		ldr	r3, .L42+12
 582              		.loc 1 385 6 view .LVU132
 583 001a 93F82930 		ldrb	r3, [r3, #41]	@ zero_extendqisi2
 584 001e 2BB9     		cbnz	r3, .L41
 585              	.L39:
 386:Src/mc_tasks.c ****   {
 387:Src/mc_tasks.c ****     /* Nothing to do */
 388:Src/mc_tasks.c ****   }
 389:Src/mc_tasks.c ****   else
 390:Src/mc_tasks.c ****   {
 391:Src/mc_tasks.c ****     MCPA_dataLog (&MCPA_UART_A);
 392:Src/mc_tasks.c ****   }
 393:Src/mc_tasks.c **** 
 394:Src/mc_tasks.c ****   MC_Perf_Measure_Stop(&PerfTraces, MEASURE_TSK_HighFrequencyTaskM1);
 586              		.loc 1 394 3 is_stmt 1 view .LVU133
 587 0020 0021     		movs	r1, #0
 588 0022 0548     		ldr	r0, .L42+4
 589 0024 FFF7FEFF 		bl	MC_Perf_Measure_Stop
 590              	.LVL44:
 395:Src/mc_tasks.c ****   return (bMotorNbr);
 591              		.loc 1 395 3 view .LVU134
 396:Src/mc_tasks.c **** 
 397:Src/mc_tasks.c **** }
 592              		.loc 1 397 1 is_stmt 0 view .LVU135
 593 0028 0020     		movs	r0, #0
 594 002a 08BD     		pop	{r3, pc}
 595              	.L41:
ARM GAS  /tmp/ccW8kGEt.s 			page 20


 391:Src/mc_tasks.c ****   }
 596              		.loc 1 391 5 is_stmt 1 view .LVU136
 597 002c 0448     		ldr	r0, .L42+12
 598 002e FFF7FEFF 		bl	MCPA_dataLog
 599              	.LVL45:
 600 0032 F5E7     		b	.L39
 601              	.L43:
 602              		.align	2
 603              	.L42:
 604 0034 001000E0 		.word	-536866816
 605 0038 00000000 		.word	PerfTraces
 606 003c 00000000 		.word	GLOBAL_TIMESTAMP
 607 0040 00000000 		.word	MCPA_UART_A
 608              		.cfi_endproc
 609              	.LFE1879:
 611              		.section	.text.TSK_SafetyTask_PWMOFF,"ax",%progbits
 612              		.align	1
 613              		.weak	TSK_SafetyTask_PWMOFF
 614              		.syntax unified
 615              		.thumb
 616              		.thumb_func
 617              		.fpu fpv4-sp-d16
 619              	TSK_SafetyTask_PWMOFF:
 620              	.LVL46:
 621              	.LFB1881:
 398:Src/mc_tasks.c **** 
 399:Src/mc_tasks.c **** /**
 400:Src/mc_tasks.c ****   * @brief  Executes safety checks (e.g. bus voltage and temperature) for all drive instances.
 401:Src/mc_tasks.c ****   *
 402:Src/mc_tasks.c ****   * Faults flags are updated here.
 403:Src/mc_tasks.c ****   */
 404:Src/mc_tasks.c **** __weak void TSK_SafetyTask(void)
 405:Src/mc_tasks.c **** {
 406:Src/mc_tasks.c ****   /* USER CODE BEGIN TSK_SafetyTask 0 */
 407:Src/mc_tasks.c **** 
 408:Src/mc_tasks.c ****   /* USER CODE END TSK_SafetyTask 0 */
 409:Src/mc_tasks.c ****   if (1U == bMCBootCompleted)
 410:Src/mc_tasks.c ****   {
 411:Src/mc_tasks.c ****     SCC_CheckOC_RL(&SCC);
 412:Src/mc_tasks.c ****     TSK_SafetyTask_PWMOFF(M1);
 413:Src/mc_tasks.c ****     /* User conversion execution */
 414:Src/mc_tasks.c ****     RCM_ExecUserConv();
 415:Src/mc_tasks.c ****   /* USER CODE BEGIN TSK_SafetyTask 1 */
 416:Src/mc_tasks.c **** 
 417:Src/mc_tasks.c ****   /* USER CODE END TSK_SafetyTask 1 */
 418:Src/mc_tasks.c ****   }
 419:Src/mc_tasks.c ****   else
 420:Src/mc_tasks.c ****   {
 421:Src/mc_tasks.c ****     /* Nothing to do */
 422:Src/mc_tasks.c ****   }
 423:Src/mc_tasks.c **** }
 424:Src/mc_tasks.c **** 
 425:Src/mc_tasks.c **** /**
 426:Src/mc_tasks.c ****   * @brief  Safety task implementation if  MC.M1_ON_OVER_VOLTAGE == TURN_OFF_PWM.
 427:Src/mc_tasks.c ****   * @param  bMotor Motor reference number defined
 428:Src/mc_tasks.c ****   *         \link Motors_reference_number here \endlink.
 429:Src/mc_tasks.c ****   */
ARM GAS  /tmp/ccW8kGEt.s 			page 21


 430:Src/mc_tasks.c **** __weak void TSK_SafetyTask_PWMOFF(uint8_t bMotor)
 431:Src/mc_tasks.c **** {
 622              		.loc 1 431 1 view -0
 623              		.cfi_startproc
 624              		@ args = 0, pretend = 0, frame = 0
 625              		@ frame_needed = 0, uses_anonymous_args = 0
 626              		.loc 1 431 1 is_stmt 0 view .LVU138
 627 0000 38B5     		push	{r3, r4, r5, lr}
 628              	.LCFI7:
 629              		.cfi_def_cfa_offset 16
 630              		.cfi_offset 3, -16
 631              		.cfi_offset 4, -12
 632              		.cfi_offset 5, -8
 633              		.cfi_offset 14, -4
 432:Src/mc_tasks.c ****   /* USER CODE BEGIN TSK_SafetyTask_PWMOFF 0 */
 433:Src/mc_tasks.c **** 
 434:Src/mc_tasks.c ****   /* USER CODE END TSK_SafetyTask_PWMOFF 0 */
 435:Src/mc_tasks.c ****   uint16_t CodeReturn = MC_NO_ERROR;
 634              		.loc 1 435 3 is_stmt 1 view .LVU139
 635              	.LVL47:
 436:Src/mc_tasks.c ****   uint8_t lbmotor = M1;
 636              		.loc 1 436 3 view .LVU140
 437:Src/mc_tasks.c ****   const uint16_t errMask[NBR_OF_MOTORS] = {VBUS_TEMP_ERR_MASK};
 637              		.loc 1 437 3 view .LVU141
 438:Src/mc_tasks.c ****   /* Check for fault if FW protection is activated. It returns MC_OVER_TEMP or MC_NO_ERROR */
 439:Src/mc_tasks.c ****   if (M1 == bMotor)
 638              		.loc 1 439 3 view .LVU142
 639              		.loc 1 439 6 is_stmt 0 view .LVU143
 640 0002 0546     		mov	r5, r0
 641 0004 90B1     		cbz	r0, .L50
 440:Src/mc_tasks.c ****   {
 441:Src/mc_tasks.c ****     uint16_t rawValueM1 = RCM_ExecRegularConv(&TempRegConv_M1);
 442:Src/mc_tasks.c ****     CodeReturn |= errMask[bMotor] & NTC_CalcAvTemp(&TempSensor_M1, rawValueM1);
 443:Src/mc_tasks.c ****   }
 444:Src/mc_tasks.c ****   else
 445:Src/mc_tasks.c ****   {
 446:Src/mc_tasks.c ****     /* Nothing to do */
 447:Src/mc_tasks.c ****   }
 642              		.loc 1 447 3 is_stmt 1 view .LVU144
 448:Src/mc_tasks.c **** 
 449:Src/mc_tasks.c **** /* Due to warning array subscript 1 is above array bounds of PWMC_Handle_t *[1] [-Warray-bounds] */
 450:Src/mc_tasks.c ****    CodeReturn |= PWMC_IsFaultOccurred(pwmcHandle[lbmotor]);     /* check for fault. It return MC_OV
 643              		.loc 1 450 4 view .LVU145
 644              		.loc 1 450 18 is_stmt 0 view .LVU146
 645 0006 234B     		ldr	r3, .L53
 646 0008 1868     		ldr	r0, [r3]
 647              	.LVL48:
 648              		.loc 1 450 18 view .LVU147
 649 000a FFF7FEFF 		bl	PWMC_IsFaultOccurred
 650              	.LVL49:
 651 000e 0146     		mov	r1, r0
 652              	.LVL50:
 451:Src/mc_tasks.c ****                                                      (for STM32F30x can return MC_OVER_VOLT in case
 452:Src/mc_tasks.c **** 
 453:Src/mc_tasks.c ****   if (M1 == bMotor)
 653              		.loc 1 453 3 is_stmt 1 view .LVU148
 654              	.L48:
ARM GAS  /tmp/ccW8kGEt.s 			page 22


 454:Src/mc_tasks.c ****   {
 455:Src/mc_tasks.c ****     uint16_t rawValueM1 =  RCM_ExecRegularConv(&VbusRegConv_M1);
 456:Src/mc_tasks.c ****     CodeReturn |= errMask[bMotor] & RVBS_CalcAvVbus(&BusVoltageSensor_M1, rawValueM1);
 457:Src/mc_tasks.c ****   }
 458:Src/mc_tasks.c ****   else
 459:Src/mc_tasks.c ****   {
 460:Src/mc_tasks.c ****     /* Nothing to do */
 461:Src/mc_tasks.c ****   }
 655              		.loc 1 461 3 view .LVU149
 462:Src/mc_tasks.c ****   MCI_FaultProcessing(&Mci[bMotor], CodeReturn, ~CodeReturn); /* Process faults */
 656              		.loc 1 462 3 view .LVU150
 657 0010 2C23     		movs	r3, #44
 658 0012 214C     		ldr	r4, .L53+4
 659 0014 03FB0544 		mla	r4, r3, r5, r4
 660 0018 CA43     		mvns	r2, r1
 661 001a 92B2     		uxth	r2, r2
 662 001c 2046     		mov	r0, r4
 663 001e FFF7FEFF 		bl	MCI_FaultProcessing
 664              	.LVL51:
 463:Src/mc_tasks.c **** 
 464:Src/mc_tasks.c ****   if (MCI_GetFaultState(&Mci[bMotor]) != (uint32_t)MC_NO_FAULTS)
 665              		.loc 1 464 3 view .LVU151
 666              		.loc 1 464 7 is_stmt 0 view .LVU152
 667 0022 2046     		mov	r0, r4
 668 0024 FFF7FEFF 		bl	MCI_GetFaultState
 669              	.LVL52:
 670              		.loc 1 464 6 view .LVU153
 671 0028 E0B9     		cbnz	r0, .L51
 672              	.LVL53:
 673              	.L44:
 465:Src/mc_tasks.c ****   {
 466:Src/mc_tasks.c ****       SCC_Stop(&SCC);
 467:Src/mc_tasks.c ****       OTT_Stop(&OTT);
 468:Src/mc_tasks.c ****     PWMC_SwitchOffPWM(pwmcHandle[bMotor]);
 469:Src/mc_tasks.c ****     if (MCPA_UART_A.Mark != 0U)
 470:Src/mc_tasks.c ****     {
 471:Src/mc_tasks.c ****       MCPA_flushDataLog (&MCPA_UART_A);
 472:Src/mc_tasks.c ****     }
 473:Src/mc_tasks.c ****     else
 474:Src/mc_tasks.c ****     {
 475:Src/mc_tasks.c ****       /* Nothing to do */
 476:Src/mc_tasks.c ****     }
 477:Src/mc_tasks.c ****     FOC_Clear(bMotor);
 478:Src/mc_tasks.c ****     /* USER CODE BEGIN TSK_SafetyTask_PWMOFF 1 */
 479:Src/mc_tasks.c **** 
 480:Src/mc_tasks.c ****     /* USER CODE END TSK_SafetyTask_PWMOFF 1 */
 481:Src/mc_tasks.c ****   }
 482:Src/mc_tasks.c ****   else
 483:Src/mc_tasks.c ****   {
 484:Src/mc_tasks.c ****     /* No errors */
 485:Src/mc_tasks.c ****   }
 486:Src/mc_tasks.c ****   /* USER CODE BEGIN TSK_SafetyTask_PWMOFF 3 */
 487:Src/mc_tasks.c **** 
 488:Src/mc_tasks.c ****   /* USER CODE END TSK_SafetyTask_PWMOFF 3 */
 489:Src/mc_tasks.c **** }
 674              		.loc 1 489 1 view .LVU154
 675 002a 38BD     		pop	{r3, r4, r5, pc}
ARM GAS  /tmp/ccW8kGEt.s 			page 23


 676              	.LVL54:
 677              	.L50:
 678              	.LBB37:
 441:Src/mc_tasks.c ****     CodeReturn |= errMask[bMotor] & NTC_CalcAvTemp(&TempSensor_M1, rawValueM1);
 679              		.loc 1 441 5 is_stmt 1 view .LVU155
 441:Src/mc_tasks.c ****     CodeReturn |= errMask[bMotor] & NTC_CalcAvTemp(&TempSensor_M1, rawValueM1);
 680              		.loc 1 441 27 is_stmt 0 view .LVU156
 681 002c 1B48     		ldr	r0, .L53+8
 682              	.LVL55:
 441:Src/mc_tasks.c ****     CodeReturn |= errMask[bMotor] & NTC_CalcAvTemp(&TempSensor_M1, rawValueM1);
 683              		.loc 1 441 27 view .LVU157
 684 002e FFF7FEFF 		bl	RCM_ExecRegularConv
 685              	.LVL56:
 686 0032 0146     		mov	r1, r0
 687              	.LVL57:
 442:Src/mc_tasks.c ****   }
 688              		.loc 1 442 5 is_stmt 1 view .LVU158
 442:Src/mc_tasks.c ****   }
 689              		.loc 1 442 37 is_stmt 0 view .LVU159
 690 0034 1A48     		ldr	r0, .L53+12
 691 0036 FFF7FEFF 		bl	NTC_CalcAvTemp
 692              	.LVL58:
 442:Src/mc_tasks.c ****   }
 693              		.loc 1 442 37 view .LVU160
 694 003a 0446     		mov	r4, r0
 695              	.LVL59:
 442:Src/mc_tasks.c ****   }
 696              		.loc 1 442 37 view .LVU161
 697              	.LBE37:
 447:Src/mc_tasks.c **** 
 698              		.loc 1 447 3 is_stmt 1 view .LVU162
 450:Src/mc_tasks.c ****                                                      (for STM32F30x can return MC_OVER_VOLT in case
 699              		.loc 1 450 4 view .LVU163
 450:Src/mc_tasks.c ****                                                      (for STM32F30x can return MC_OVER_VOLT in case
 700              		.loc 1 450 18 is_stmt 0 view .LVU164
 701 003c 154B     		ldr	r3, .L53
 702 003e 1868     		ldr	r0, [r3]
 703 0040 FFF7FEFF 		bl	PWMC_IsFaultOccurred
 704              	.LVL60:
 705              	.LBB38:
 442:Src/mc_tasks.c ****   }
 706              		.loc 1 442 35 view .LVU165
 707 0044 04F00E04 		and	r4, r4, #14
 708              	.LVL61:
 442:Src/mc_tasks.c ****   }
 709              		.loc 1 442 35 view .LVU166
 710              	.LBE38:
 450:Src/mc_tasks.c ****                                                      (for STM32F30x can return MC_OVER_VOLT in case
 711              		.loc 1 450 15 view .LVU167
 712 0048 40EA0401 		orr	r1, r0, r4
 713 004c 8CB2     		uxth	r4, r1
 714              	.LVL62:
 453:Src/mc_tasks.c ****   {
 715              		.loc 1 453 3 is_stmt 1 view .LVU168
 716              	.LBB39:
 455:Src/mc_tasks.c ****     CodeReturn |= errMask[bMotor] & RVBS_CalcAvVbus(&BusVoltageSensor_M1, rawValueM1);
 717              		.loc 1 455 5 view .LVU169
ARM GAS  /tmp/ccW8kGEt.s 			page 24


 455:Src/mc_tasks.c ****     CodeReturn |= errMask[bMotor] & RVBS_CalcAvVbus(&BusVoltageSensor_M1, rawValueM1);
 718              		.loc 1 455 28 is_stmt 0 view .LVU170
 719 004e 1548     		ldr	r0, .L53+16
 720 0050 FFF7FEFF 		bl	RCM_ExecRegularConv
 721              	.LVL63:
 722 0054 0146     		mov	r1, r0
 723              	.LVL64:
 456:Src/mc_tasks.c ****   }
 724              		.loc 1 456 5 is_stmt 1 view .LVU171
 456:Src/mc_tasks.c ****   }
 725              		.loc 1 456 37 is_stmt 0 view .LVU172
 726 0056 1448     		ldr	r0, .L53+20
 727 0058 FFF7FEFF 		bl	RVBS_CalcAvVbus
 728              	.LVL65:
 456:Src/mc_tasks.c ****   }
 729              		.loc 1 456 35 view .LVU173
 730 005c 00F00E01 		and	r1, r0, #14
 456:Src/mc_tasks.c ****   }
 731              		.loc 1 456 16 view .LVU174
 732 0060 2143     		orrs	r1, r1, r4
 733              	.LVL66:
 456:Src/mc_tasks.c ****   }
 734              		.loc 1 456 16 view .LVU175
 735              	.LBE39:
 736 0062 D5E7     		b	.L48
 737              	.LVL67:
 738              	.L51:
 466:Src/mc_tasks.c ****       OTT_Stop(&OTT);
 739              		.loc 1 466 7 is_stmt 1 view .LVU176
 740 0064 1148     		ldr	r0, .L53+24
 741 0066 FFF7FEFF 		bl	SCC_Stop
 742              	.LVL68:
 467:Src/mc_tasks.c ****     PWMC_SwitchOffPWM(pwmcHandle[bMotor]);
 743              		.loc 1 467 7 view .LVU177
 744 006a 1148     		ldr	r0, .L53+28
 745 006c FFF7FEFF 		bl	OTT_Stop
 746              	.LVL69:
 468:Src/mc_tasks.c ****     if (MCPA_UART_A.Mark != 0U)
 747              		.loc 1 468 5 view .LVU178
 748 0070 084B     		ldr	r3, .L53
 749 0072 53F82500 		ldr	r0, [r3, r5, lsl #2]
 750 0076 FFF7FEFF 		bl	PWMC_SwitchOffPWM
 751              	.LVL70:
 469:Src/mc_tasks.c ****     {
 752              		.loc 1 469 5 view .LVU179
 469:Src/mc_tasks.c ****     {
 753              		.loc 1 469 20 is_stmt 0 view .LVU180
 754 007a 0E4B     		ldr	r3, .L53+32
 469:Src/mc_tasks.c ****     {
 755              		.loc 1 469 8 view .LVU181
 756 007c 93F82930 		ldrb	r3, [r3, #41]	@ zero_extendqisi2
 757 0080 1BB9     		cbnz	r3, .L52
 758              	.L47:
 476:Src/mc_tasks.c ****     FOC_Clear(bMotor);
 759              		.loc 1 476 5 is_stmt 1 view .LVU182
 477:Src/mc_tasks.c ****     /* USER CODE BEGIN TSK_SafetyTask_PWMOFF 1 */
 760              		.loc 1 477 5 view .LVU183
ARM GAS  /tmp/ccW8kGEt.s 			page 25


 761 0082 2846     		mov	r0, r5
 762 0084 FFF7FEFF 		bl	FOC_Clear
 763              	.LVL71:
 485:Src/mc_tasks.c ****   /* USER CODE BEGIN TSK_SafetyTask_PWMOFF 3 */
 764              		.loc 1 485 3 view .LVU184
 765              		.loc 1 489 1 is_stmt 0 view .LVU185
 766 0088 CFE7     		b	.L44
 767              	.LVL72:
 768              	.L52:
 471:Src/mc_tasks.c ****     }
 769              		.loc 1 471 7 is_stmt 1 view .LVU186
 770 008a 0A48     		ldr	r0, .L53+32
 771 008c FFF7FEFF 		bl	MCPA_flushDataLog
 772              	.LVL73:
 773 0090 F7E7     		b	.L47
 774              	.L54:
 775 0092 00BF     		.align	2
 776              	.L53:
 777 0094 00000000 		.word	pwmcHandle
 778 0098 00000000 		.word	Mci
 779 009c 00000000 		.word	TempRegConv_M1
 780 00a0 00000000 		.word	TempSensor_M1
 781 00a4 00000000 		.word	VbusRegConv_M1
 782 00a8 00000000 		.word	BusVoltageSensor_M1
 783 00ac 00000000 		.word	SCC
 784 00b0 00000000 		.word	OTT
 785 00b4 00000000 		.word	MCPA_UART_A
 786              		.cfi_endproc
 787              	.LFE1881:
 789              		.section	.text.TSK_SafetyTask,"ax",%progbits
 790              		.align	1
 791              		.weak	TSK_SafetyTask
 792              		.syntax unified
 793              		.thumb
 794              		.thumb_func
 795              		.fpu fpv4-sp-d16
 797              	TSK_SafetyTask:
 798              	.LFB1880:
 405:Src/mc_tasks.c ****   /* USER CODE BEGIN TSK_SafetyTask 0 */
 799              		.loc 1 405 1 view -0
 800              		.cfi_startproc
 801              		@ args = 0, pretend = 0, frame = 0
 802              		@ frame_needed = 0, uses_anonymous_args = 0
 803 0000 08B5     		push	{r3, lr}
 804              	.LCFI8:
 805              		.cfi_def_cfa_offset 8
 806              		.cfi_offset 3, -8
 807              		.cfi_offset 14, -4
 409:Src/mc_tasks.c ****   {
 808              		.loc 1 409 3 view .LVU188
 409:Src/mc_tasks.c ****   {
 809              		.loc 1 409 10 is_stmt 0 view .LVU189
 810 0002 074B     		ldr	r3, .L59
 811 0004 1B78     		ldrb	r3, [r3]	@ zero_extendqisi2
 812 0006 DBB2     		uxtb	r3, r3
 409:Src/mc_tasks.c ****   {
 813              		.loc 1 409 6 view .LVU190
ARM GAS  /tmp/ccW8kGEt.s 			page 26


 814 0008 012B     		cmp	r3, #1
 815 000a 00D0     		beq	.L58
 816              	.L55:
 423:Src/mc_tasks.c **** 
 817              		.loc 1 423 1 view .LVU191
 818 000c 08BD     		pop	{r3, pc}
 819              	.L58:
 411:Src/mc_tasks.c ****     TSK_SafetyTask_PWMOFF(M1);
 820              		.loc 1 411 5 is_stmt 1 view .LVU192
 821 000e 0548     		ldr	r0, .L59+4
 822 0010 FFF7FEFF 		bl	SCC_CheckOC_RL
 823              	.LVL74:
 412:Src/mc_tasks.c ****     /* User conversion execution */
 824              		.loc 1 412 5 view .LVU193
 825 0014 0020     		movs	r0, #0
 826 0016 FFF7FEFF 		bl	TSK_SafetyTask_PWMOFF
 827              	.LVL75:
 414:Src/mc_tasks.c ****   /* USER CODE BEGIN TSK_SafetyTask 1 */
 828              		.loc 1 414 5 view .LVU194
 829 001a FFF7FEFF 		bl	RCM_ExecUserConv
 830              	.LVL76:
 422:Src/mc_tasks.c **** }
 831              		.loc 1 422 3 view .LVU195
 423:Src/mc_tasks.c **** 
 832              		.loc 1 423 1 is_stmt 0 view .LVU196
 833 001e F5E7     		b	.L55
 834              	.L60:
 835              		.align	2
 836              	.L59:
 837 0020 00000000 		.word	.LANCHOR0
 838 0024 00000000 		.word	SCC
 839              		.cfi_endproc
 840              	.LFE1880:
 842              		.section	.text.TSK_HardwareFaultTask,"ax",%progbits
 843              		.align	1
 844              		.weak	TSK_HardwareFaultTask
 845              		.syntax unified
 846              		.thumb
 847              		.thumb_func
 848              		.fpu fpv4-sp-d16
 850              	TSK_HardwareFaultTask:
 851              	.LFB1882:
 490:Src/mc_tasks.c **** 
 491:Src/mc_tasks.c **** /**
 492:Src/mc_tasks.c ****   * @brief  Puts the Motor Control subsystem in in safety conditions on a Hard Fault
 493:Src/mc_tasks.c ****   *
 494:Src/mc_tasks.c ****   *  This function is to be executed when a general hardware failure has been detected
 495:Src/mc_tasks.c ****   * by the microcontroller and is used to put the system in safety condition.
 496:Src/mc_tasks.c ****   */
 497:Src/mc_tasks.c **** __weak void TSK_HardwareFaultTask(void)
 498:Src/mc_tasks.c **** {
 852              		.loc 1 498 1 is_stmt 1 view -0
 853              		.cfi_startproc
 854              		@ args = 0, pretend = 0, frame = 0
 855              		@ frame_needed = 0, uses_anonymous_args = 0
 856 0000 08B5     		push	{r3, lr}
 857              	.LCFI9:
ARM GAS  /tmp/ccW8kGEt.s 			page 27


 858              		.cfi_def_cfa_offset 8
 859              		.cfi_offset 3, -8
 860              		.cfi_offset 14, -4
 499:Src/mc_tasks.c ****   /* USER CODE BEGIN TSK_HardwareFaultTask 0 */
 500:Src/mc_tasks.c **** 
 501:Src/mc_tasks.c ****   /* USER CODE END TSK_HardwareFaultTask 0 */
 502:Src/mc_tasks.c ****   SCC_Stop(&SCC);
 861              		.loc 1 502 3 view .LVU198
 862 0002 0748     		ldr	r0, .L63
 863 0004 FFF7FEFF 		bl	SCC_Stop
 864              	.LVL77:
 503:Src/mc_tasks.c ****   OTT_Stop(&OTT);
 865              		.loc 1 503 3 view .LVU199
 866 0008 0648     		ldr	r0, .L63+4
 867 000a FFF7FEFF 		bl	OTT_Stop
 868              	.LVL78:
 504:Src/mc_tasks.c ****    FOC_Clear(M1);
 869              		.loc 1 504 4 view .LVU200
 870 000e 0020     		movs	r0, #0
 871 0010 FFF7FEFF 		bl	FOC_Clear
 872              	.LVL79:
 505:Src/mc_tasks.c ****   MCI_FaultProcessing(&Mci[M1], MC_SW_ERROR, 0);
 873              		.loc 1 505 3 view .LVU201
 874 0014 0022     		movs	r2, #0
 875 0016 8021     		movs	r1, #128
 876 0018 0348     		ldr	r0, .L63+8
 877 001a FFF7FEFF 		bl	MCI_FaultProcessing
 878              	.LVL80:
 506:Src/mc_tasks.c **** 
 507:Src/mc_tasks.c ****   /* USER CODE BEGIN TSK_HardwareFaultTask 1 */
 508:Src/mc_tasks.c **** 
 509:Src/mc_tasks.c ****   /* USER CODE END TSK_HardwareFaultTask 1 */
 510:Src/mc_tasks.c **** }
 879              		.loc 1 510 1 is_stmt 0 view .LVU202
 880 001e 08BD     		pop	{r3, pc}
 881              	.L64:
 882              		.align	2
 883              	.L63:
 884 0020 00000000 		.word	SCC
 885 0024 00000000 		.word	OTT
 886 0028 00000000 		.word	Mci
 887              		.cfi_endproc
 888              	.LFE1882:
 890              		.section	.text.startMediumFrequencyTask,"ax",%progbits
 891              		.align	1
 892              		.global	startMediumFrequencyTask
 893              		.syntax unified
 894              		.thumb
 895              		.thumb_func
 896              		.fpu fpv4-sp-d16
 898              	startMediumFrequencyTask:
 899              	.LVL81:
 900              	.LFB1883:
 511:Src/mc_tasks.c **** 
 512:Src/mc_tasks.c **** /* startMediumFrequencyTask function */
 513:Src/mc_tasks.c **** void startMediumFrequencyTask(void const * argument)
 514:Src/mc_tasks.c **** {
ARM GAS  /tmp/ccW8kGEt.s 			page 28


 901              		.loc 1 514 1 is_stmt 1 view -0
 902              		.cfi_startproc
 903              		@ Volatile: function does not return.
 904              		@ args = 0, pretend = 0, frame = 0
 905              		@ frame_needed = 0, uses_anonymous_args = 0
 906              		.loc 1 514 1 is_stmt 0 view .LVU204
 907 0000 08B5     		push	{r3, lr}
 908              	.LCFI10:
 909              		.cfi_def_cfa_offset 8
 910              		.cfi_offset 3, -8
 911              		.cfi_offset 14, -4
 515:Src/mc_tasks.c ****   /* USER CODE BEGIN MF task 1 */
 516:Src/mc_tasks.c **** 
 517:Src/mc_tasks.c ****   vTaskDelay(100);
 912              		.loc 1 517 3 is_stmt 1 view .LVU205
 913 0002 6420     		movs	r0, #100
 914              	.LVL82:
 915              		.loc 1 517 3 is_stmt 0 view .LVU206
 916 0004 FFF7FEFF 		bl	vTaskDelay
 917              	.LVL83:
 518:Src/mc_tasks.c ****   MC_StartMotorOpenLoop(5000, 0, 30); // Higher voltage and frequency for reliable start
 918              		.loc 1 518 3 is_stmt 1 view .LVU207
 919 0008 1E22     		movs	r2, #30
 920 000a 0021     		movs	r1, #0
 921 000c 41F28830 		movw	r0, #5000
 922 0010 FFF7FEFF 		bl	MC_StartMotorOpenLoop
 923              	.LVL84:
 519:Src/mc_tasks.c **** 
 520:Src/mc_tasks.c ****   /* Infinite loop */
 521:Src/mc_tasks.c ****   for(;;)
 522:Src/mc_tasks.c ****   {
 523:Src/mc_tasks.c ****     /* Delay of 500us */
 524:Src/mc_tasks.c ****     vTaskDelay(1);
 924              		.loc 1 524 5 is_stmt 0 view .LVU208
 925 0014 0124     		movs	r4, #1
 926              	.L66:
 521:Src/mc_tasks.c ****   {
 927              		.loc 1 521 3 is_stmt 1 discriminator 1 view .LVU209
 928              		.loc 1 524 5 discriminator 1 view .LVU210
 929 0016 2046     		mov	r0, r4
 930 0018 FFF7FEFF 		bl	vTaskDelay
 931              	.LVL85:
 525:Src/mc_tasks.c **** 
 526:Src/mc_tasks.c ****     /* Buffer is ready by the HW layer to be processed */
 527:Src/mc_tasks.c ****     /* NO DMA interrupt */
 528:Src/mc_tasks.c ****     // if (LL_DMA_IsActiveFlag_TC(DMA_RX_A, DMACH_RX_A))
 529:Src/mc_tasks.c ****     // {
 530:Src/mc_tasks.c ****     //   LL_DMA_ClearFlag_TC(DMA_RX_A, DMACH_RX_A);
 531:Src/mc_tasks.c ****     //   ASPEP_HWDataReceivedIT(&aspepOverUartA);
 532:Src/mc_tasks.c ****     // }
 533:Src/mc_tasks.c ****     // else
 534:Src/mc_tasks.c ****     // {
 535:Src/mc_tasks.c ****     //   /* Nothing to do */
 536:Src/mc_tasks.c ****     // }
 537:Src/mc_tasks.c **** 
 538:Src/mc_tasks.c **** 
 539:Src/mc_tasks.c ****                 /* Process packet */
ARM GAS  /tmp/ccW8kGEt.s 			page 29


 540:Src/mc_tasks.c ****     
 541:Src/mc_tasks.c ****     MC_RunMotorControlTasks();
 932              		.loc 1 541 5 discriminator 1 view .LVU211
 933 001c FFF7FEFF 		bl	MC_RunMotorControlTasks
 934              	.LVL86:
 521:Src/mc_tasks.c ****   {
 935              		.loc 1 521 8 discriminator 1 view .LVU212
 936 0020 F9E7     		b	.L66
 937              		.cfi_endproc
 938              	.LFE1883:
 940              		.section	.text.StartSafetyTask,"ax",%progbits
 941              		.align	1
 942              		.global	StartSafetyTask
 943              		.syntax unified
 944              		.thumb
 945              		.thumb_func
 946              		.fpu fpv4-sp-d16
 948              	StartSafetyTask:
 949              	.LVL87:
 950              	.LFB1884:
 542:Src/mc_tasks.c ****   }
 543:Src/mc_tasks.c ****   /* USER CODE END MF task 1 */
 544:Src/mc_tasks.c **** }
 545:Src/mc_tasks.c **** 
 546:Src/mc_tasks.c **** /* startSafetyTask function */
 547:Src/mc_tasks.c **** void StartSafetyTask(void const * argument)
 548:Src/mc_tasks.c **** {
 951              		.loc 1 548 1 view -0
 952              		.cfi_startproc
 953              		@ Volatile: function does not return.
 954              		@ args = 0, pretend = 0, frame = 0
 955              		@ frame_needed = 0, uses_anonymous_args = 0
 956              		.loc 1 548 1 is_stmt 0 view .LVU214
 957 0000 08B5     		push	{r3, lr}
 958              	.LCFI11:
 959              		.cfi_def_cfa_offset 8
 960              		.cfi_offset 3, -8
 961              		.cfi_offset 14, -4
 549:Src/mc_tasks.c ****   /* USER CODE BEGIN SF task 1 */
 550:Src/mc_tasks.c ****   /* Infinite loop */
 551:Src/mc_tasks.c ****   for(;;)
 552:Src/mc_tasks.c ****   {
 553:Src/mc_tasks.c ****     /* Delay of 500us */
 554:Src/mc_tasks.c ****     vTaskDelay(1);
 962              		.loc 1 554 5 view .LVU215
 963 0002 0124     		movs	r4, #1
 964              	.LVL88:
 965              	.L69:
 551:Src/mc_tasks.c ****   {
 966              		.loc 1 551 3 is_stmt 1 discriminator 1 view .LVU216
 967              		.loc 1 554 5 discriminator 1 view .LVU217
 968 0004 2046     		mov	r0, r4
 969 0006 FFF7FEFF 		bl	vTaskDelay
 970              	.LVL89:
 555:Src/mc_tasks.c ****     TSK_SafetyTask();
 971              		.loc 1 555 5 discriminator 1 view .LVU218
 972 000a FFF7FEFF 		bl	TSK_SafetyTask
ARM GAS  /tmp/ccW8kGEt.s 			page 30


 973              	.LVL90:
 551:Src/mc_tasks.c ****   {
 974              		.loc 1 551 8 discriminator 1 view .LVU219
 975 000e F9E7     		b	.L69
 976              		.cfi_endproc
 977              	.LFE1884:
 979              		.section	.text.UI_HandleStartStopButton_cb,"ax",%progbits
 980              		.align	1
 981              		.weak	UI_HandleStartStopButton_cb
 982              		.syntax unified
 983              		.thumb
 984              		.thumb_func
 985              		.fpu fpv4-sp-d16
 987              	UI_HandleStartStopButton_cb:
 988              	.LFB1885:
 556:Src/mc_tasks.c ****   }
 557:Src/mc_tasks.c ****   /* USER CODE END SF task 1 */
 558:Src/mc_tasks.c **** }
 559:Src/mc_tasks.c **** 
 560:Src/mc_tasks.c **** __weak void UI_HandleStartStopButton_cb (void)
 561:Src/mc_tasks.c **** {
 989              		.loc 1 561 1 view -0
 990              		.cfi_startproc
 991              		@ args = 0, pretend = 0, frame = 0
 992              		@ frame_needed = 0, uses_anonymous_args = 0
 993 0000 08B5     		push	{r3, lr}
 994              	.LCFI12:
 995              		.cfi_def_cfa_offset 8
 996              		.cfi_offset 3, -8
 997              		.cfi_offset 14, -4
 562:Src/mc_tasks.c **** /* USER CODE BEGIN START_STOP_BTN */
 563:Src/mc_tasks.c ****   if (IDLE == MC_GetSTMStateMotor1())
 998              		.loc 1 563 3 view .LVU221
 999              		.loc 1 563 15 is_stmt 0 view .LVU222
 1000 0002 FFF7FEFF 		bl	MC_GetSTMStateMotor1
 1001              	.LVL91:
 1002              		.loc 1 563 6 view .LVU223
 1003 0006 10B9     		cbnz	r0, .L72
 564:Src/mc_tasks.c ****   {
 565:Src/mc_tasks.c ****     /* Ramp parameters should be tuned for the actual motor */
 566:Src/mc_tasks.c ****     (void)MC_StartMotor1();
 1004              		.loc 1 566 5 is_stmt 1 view .LVU224
 1005              		.loc 1 566 11 is_stmt 0 view .LVU225
 1006 0008 FFF7FEFF 		bl	MC_StartMotor1
 1007              	.LVL92:
 1008              	.L71:
 567:Src/mc_tasks.c ****   }
 568:Src/mc_tasks.c ****   else
 569:Src/mc_tasks.c ****   {
 570:Src/mc_tasks.c ****     (void)MC_StopMotor1();
 571:Src/mc_tasks.c ****   }
 572:Src/mc_tasks.c **** /* USER CODE END START_STOP_BTN */
 573:Src/mc_tasks.c **** }
 1009              		.loc 1 573 1 view .LVU226
 1010 000c 08BD     		pop	{r3, pc}
 1011              	.L72:
 570:Src/mc_tasks.c ****   }
ARM GAS  /tmp/ccW8kGEt.s 			page 31


 1012              		.loc 1 570 5 is_stmt 1 view .LVU227
 570:Src/mc_tasks.c ****   }
 1013              		.loc 1 570 11 is_stmt 0 view .LVU228
 1014 000e FFF7FEFF 		bl	MC_StopMotor1
 1015              	.LVL93:
 1016              		.loc 1 573 1 view .LVU229
 1017 0012 FBE7     		b	.L71
 1018              		.cfi_endproc
 1019              	.LFE1885:
 1021              		.section	.text.mc_lock_pins,"ax",%progbits
 1022              		.align	1
 1023              		.weak	mc_lock_pins
 1024              		.syntax unified
 1025              		.thumb
 1026              		.thumb_func
 1027              		.fpu fpv4-sp-d16
 1029              	mc_lock_pins:
 1030              	.LFB1886:
 574:Src/mc_tasks.c **** 
 575:Src/mc_tasks.c ****  /**
 576:Src/mc_tasks.c ****   * @brief  Locks GPIO pins used for Motor Control to prevent accidental reconfiguration.
 577:Src/mc_tasks.c ****   */
 578:Src/mc_tasks.c **** __weak void mc_lock_pins (void)
 579:Src/mc_tasks.c **** {
 1031              		.loc 1 579 1 is_stmt 1 view -0
 1032              		.cfi_startproc
 1033              		@ args = 0, pretend = 0, frame = 64
 1034              		@ frame_needed = 0, uses_anonymous_args = 0
 1035              		@ link register save eliminated.
 1036 0000 30B4     		push	{r4, r5}
 1037              	.LCFI13:
 1038              		.cfi_def_cfa_offset 8
 1039              		.cfi_offset 4, -8
 1040              		.cfi_offset 5, -4
 1041 0002 90B0     		sub	sp, sp, #64
 1042              	.LCFI14:
 1043              		.cfi_def_cfa_offset 72
 580:Src/mc_tasks.c **** LL_GPIO_LockPin(M1_TEMPERATURE_GPIO_Port, M1_TEMPERATURE_Pin);
 1044              		.loc 1 580 1 view .LVU231
 1045              	.LVL94:
 1046              	.LBB40:
 1047              	.LBI40:
 1048              		.file 3 "Drivers/STM32G4xx_HAL_Driver/Inc/stm32g4xx_ll_gpio.h"
   1:Drivers/STM32G4xx_HAL_Driver/Inc/stm32g4xx_ll_gpio.h **** /**
   2:Drivers/STM32G4xx_HAL_Driver/Inc/stm32g4xx_ll_gpio.h ****   ******************************************************************************
   3:Drivers/STM32G4xx_HAL_Driver/Inc/stm32g4xx_ll_gpio.h ****   * @file    stm32g4xx_ll_gpio.h
   4:Drivers/STM32G4xx_HAL_Driver/Inc/stm32g4xx_ll_gpio.h ****   * @author  MCD Application Team
   5:Drivers/STM32G4xx_HAL_Driver/Inc/stm32g4xx_ll_gpio.h ****   * @brief   Header file of GPIO LL module.
   6:Drivers/STM32G4xx_HAL_Driver/Inc/stm32g4xx_ll_gpio.h ****   ******************************************************************************
   7:Drivers/STM32G4xx_HAL_Driver/Inc/stm32g4xx_ll_gpio.h ****   * @attention
   8:Drivers/STM32G4xx_HAL_Driver/Inc/stm32g4xx_ll_gpio.h ****   *
   9:Drivers/STM32G4xx_HAL_Driver/Inc/stm32g4xx_ll_gpio.h ****   * Copyright (c) 2019 STMicroelectronics.
  10:Drivers/STM32G4xx_HAL_Driver/Inc/stm32g4xx_ll_gpio.h ****   * All rights reserved.
  11:Drivers/STM32G4xx_HAL_Driver/Inc/stm32g4xx_ll_gpio.h ****   *
  12:Drivers/STM32G4xx_HAL_Driver/Inc/stm32g4xx_ll_gpio.h ****   * This software is licensed under terms that can be found in the LICENSE file
  13:Drivers/STM32G4xx_HAL_Driver/Inc/stm32g4xx_ll_gpio.h ****   * in the root directory of this software component.
  14:Drivers/STM32G4xx_HAL_Driver/Inc/stm32g4xx_ll_gpio.h ****   * If no LICENSE file comes with this software, it is provided AS-IS.
ARM GAS  /tmp/ccW8kGEt.s 			page 32


  15:Drivers/STM32G4xx_HAL_Driver/Inc/stm32g4xx_ll_gpio.h ****   *
  16:Drivers/STM32G4xx_HAL_Driver/Inc/stm32g4xx_ll_gpio.h ****   ******************************************************************************
  17:Drivers/STM32G4xx_HAL_Driver/Inc/stm32g4xx_ll_gpio.h ****   */
  18:Drivers/STM32G4xx_HAL_Driver/Inc/stm32g4xx_ll_gpio.h **** 
  19:Drivers/STM32G4xx_HAL_Driver/Inc/stm32g4xx_ll_gpio.h **** /* Define to prevent recursive inclusion -------------------------------------*/
  20:Drivers/STM32G4xx_HAL_Driver/Inc/stm32g4xx_ll_gpio.h **** #ifndef STM32G4xx_LL_GPIO_H
  21:Drivers/STM32G4xx_HAL_Driver/Inc/stm32g4xx_ll_gpio.h **** #define STM32G4xx_LL_GPIO_H
  22:Drivers/STM32G4xx_HAL_Driver/Inc/stm32g4xx_ll_gpio.h **** 
  23:Drivers/STM32G4xx_HAL_Driver/Inc/stm32g4xx_ll_gpio.h **** #ifdef __cplusplus
  24:Drivers/STM32G4xx_HAL_Driver/Inc/stm32g4xx_ll_gpio.h **** extern "C" {
  25:Drivers/STM32G4xx_HAL_Driver/Inc/stm32g4xx_ll_gpio.h **** #endif
  26:Drivers/STM32G4xx_HAL_Driver/Inc/stm32g4xx_ll_gpio.h **** 
  27:Drivers/STM32G4xx_HAL_Driver/Inc/stm32g4xx_ll_gpio.h **** /* Includes ------------------------------------------------------------------*/
  28:Drivers/STM32G4xx_HAL_Driver/Inc/stm32g4xx_ll_gpio.h **** #include "stm32g4xx.h"
  29:Drivers/STM32G4xx_HAL_Driver/Inc/stm32g4xx_ll_gpio.h **** 
  30:Drivers/STM32G4xx_HAL_Driver/Inc/stm32g4xx_ll_gpio.h **** /** @addtogroup STM32G4xx_LL_Driver
  31:Drivers/STM32G4xx_HAL_Driver/Inc/stm32g4xx_ll_gpio.h ****   * @{
  32:Drivers/STM32G4xx_HAL_Driver/Inc/stm32g4xx_ll_gpio.h ****   */
  33:Drivers/STM32G4xx_HAL_Driver/Inc/stm32g4xx_ll_gpio.h **** 
  34:Drivers/STM32G4xx_HAL_Driver/Inc/stm32g4xx_ll_gpio.h **** #if defined (GPIOA) || defined (GPIOB) || defined (GPIOC) || defined (GPIOD) || defined (GPIOE) || 
  35:Drivers/STM32G4xx_HAL_Driver/Inc/stm32g4xx_ll_gpio.h **** 
  36:Drivers/STM32G4xx_HAL_Driver/Inc/stm32g4xx_ll_gpio.h **** /** @defgroup GPIO_LL GPIO
  37:Drivers/STM32G4xx_HAL_Driver/Inc/stm32g4xx_ll_gpio.h ****   * @{
  38:Drivers/STM32G4xx_HAL_Driver/Inc/stm32g4xx_ll_gpio.h ****   */
  39:Drivers/STM32G4xx_HAL_Driver/Inc/stm32g4xx_ll_gpio.h **** /** MISRA C:2012 deviation rule has been granted for following rules:
  40:Drivers/STM32G4xx_HAL_Driver/Inc/stm32g4xx_ll_gpio.h ****   * Rule-18.1_d - Medium: Array pointer `GPIOx' is accessed with index [..,..]
  41:Drivers/STM32G4xx_HAL_Driver/Inc/stm32g4xx_ll_gpio.h ****   * which may be out of array bounds [..,UNKNOWN] in following APIs:
  42:Drivers/STM32G4xx_HAL_Driver/Inc/stm32g4xx_ll_gpio.h ****   * LL_GPIO_GetAFPin_0_7
  43:Drivers/STM32G4xx_HAL_Driver/Inc/stm32g4xx_ll_gpio.h ****   * LL_GPIO_SetAFPin_0_7
  44:Drivers/STM32G4xx_HAL_Driver/Inc/stm32g4xx_ll_gpio.h ****   * LL_GPIO_SetAFPin_8_15
  45:Drivers/STM32G4xx_HAL_Driver/Inc/stm32g4xx_ll_gpio.h ****   * LL_GPIO_GetAFPin_8_15
  46:Drivers/STM32G4xx_HAL_Driver/Inc/stm32g4xx_ll_gpio.h ****   */
  47:Drivers/STM32G4xx_HAL_Driver/Inc/stm32g4xx_ll_gpio.h **** 
  48:Drivers/STM32G4xx_HAL_Driver/Inc/stm32g4xx_ll_gpio.h **** /* Private types -------------------------------------------------------------*/
  49:Drivers/STM32G4xx_HAL_Driver/Inc/stm32g4xx_ll_gpio.h **** /* Private variables ---------------------------------------------------------*/
  50:Drivers/STM32G4xx_HAL_Driver/Inc/stm32g4xx_ll_gpio.h **** /* Private constants ---------------------------------------------------------*/
  51:Drivers/STM32G4xx_HAL_Driver/Inc/stm32g4xx_ll_gpio.h **** /* Private macros ------------------------------------------------------------*/
  52:Drivers/STM32G4xx_HAL_Driver/Inc/stm32g4xx_ll_gpio.h **** #if defined(USE_FULL_LL_DRIVER)
  53:Drivers/STM32G4xx_HAL_Driver/Inc/stm32g4xx_ll_gpio.h **** /** @defgroup GPIO_LL_Private_Macros GPIO Private Macros
  54:Drivers/STM32G4xx_HAL_Driver/Inc/stm32g4xx_ll_gpio.h ****   * @{
  55:Drivers/STM32G4xx_HAL_Driver/Inc/stm32g4xx_ll_gpio.h ****   */
  56:Drivers/STM32G4xx_HAL_Driver/Inc/stm32g4xx_ll_gpio.h **** 
  57:Drivers/STM32G4xx_HAL_Driver/Inc/stm32g4xx_ll_gpio.h **** /**
  58:Drivers/STM32G4xx_HAL_Driver/Inc/stm32g4xx_ll_gpio.h ****   * @}
  59:Drivers/STM32G4xx_HAL_Driver/Inc/stm32g4xx_ll_gpio.h ****   */
  60:Drivers/STM32G4xx_HAL_Driver/Inc/stm32g4xx_ll_gpio.h **** #endif /*USE_FULL_LL_DRIVER*/
  61:Drivers/STM32G4xx_HAL_Driver/Inc/stm32g4xx_ll_gpio.h **** 
  62:Drivers/STM32G4xx_HAL_Driver/Inc/stm32g4xx_ll_gpio.h **** /* Exported types ------------------------------------------------------------*/
  63:Drivers/STM32G4xx_HAL_Driver/Inc/stm32g4xx_ll_gpio.h **** #if defined(USE_FULL_LL_DRIVER)
  64:Drivers/STM32G4xx_HAL_Driver/Inc/stm32g4xx_ll_gpio.h **** /** @defgroup GPIO_LL_ES_INIT GPIO Exported Init structures
  65:Drivers/STM32G4xx_HAL_Driver/Inc/stm32g4xx_ll_gpio.h ****   * @{
  66:Drivers/STM32G4xx_HAL_Driver/Inc/stm32g4xx_ll_gpio.h ****   */
  67:Drivers/STM32G4xx_HAL_Driver/Inc/stm32g4xx_ll_gpio.h **** 
  68:Drivers/STM32G4xx_HAL_Driver/Inc/stm32g4xx_ll_gpio.h **** /**
  69:Drivers/STM32G4xx_HAL_Driver/Inc/stm32g4xx_ll_gpio.h ****   * @brief LL GPIO Init Structure definition
  70:Drivers/STM32G4xx_HAL_Driver/Inc/stm32g4xx_ll_gpio.h ****   */
  71:Drivers/STM32G4xx_HAL_Driver/Inc/stm32g4xx_ll_gpio.h **** typedef struct
ARM GAS  /tmp/ccW8kGEt.s 			page 33


  72:Drivers/STM32G4xx_HAL_Driver/Inc/stm32g4xx_ll_gpio.h **** {
  73:Drivers/STM32G4xx_HAL_Driver/Inc/stm32g4xx_ll_gpio.h ****   uint32_t Pin;          /*!< Specifies the GPIO pins to be configured.
  74:Drivers/STM32G4xx_HAL_Driver/Inc/stm32g4xx_ll_gpio.h ****                               This parameter can be any value of @ref GPIO_LL_EC_PIN */
  75:Drivers/STM32G4xx_HAL_Driver/Inc/stm32g4xx_ll_gpio.h **** 
  76:Drivers/STM32G4xx_HAL_Driver/Inc/stm32g4xx_ll_gpio.h ****   uint32_t Mode;         /*!< Specifies the operating mode for the selected pins.
  77:Drivers/STM32G4xx_HAL_Driver/Inc/stm32g4xx_ll_gpio.h ****                               This parameter can be a value of @ref GPIO_LL_EC_MODE.
  78:Drivers/STM32G4xx_HAL_Driver/Inc/stm32g4xx_ll_gpio.h **** 
  79:Drivers/STM32G4xx_HAL_Driver/Inc/stm32g4xx_ll_gpio.h ****                               GPIO HW configuration can be modified afterwards using unitary functi
  80:Drivers/STM32G4xx_HAL_Driver/Inc/stm32g4xx_ll_gpio.h **** 
  81:Drivers/STM32G4xx_HAL_Driver/Inc/stm32g4xx_ll_gpio.h ****   uint32_t Speed;        /*!< Specifies the speed for the selected pins.
  82:Drivers/STM32G4xx_HAL_Driver/Inc/stm32g4xx_ll_gpio.h ****                               This parameter can be a value of @ref GPIO_LL_EC_SPEED.
  83:Drivers/STM32G4xx_HAL_Driver/Inc/stm32g4xx_ll_gpio.h **** 
  84:Drivers/STM32G4xx_HAL_Driver/Inc/stm32g4xx_ll_gpio.h ****                               GPIO HW configuration can be modified afterwards using unitary functi
  85:Drivers/STM32G4xx_HAL_Driver/Inc/stm32g4xx_ll_gpio.h **** 
  86:Drivers/STM32G4xx_HAL_Driver/Inc/stm32g4xx_ll_gpio.h ****   uint32_t OutputType;   /*!< Specifies the operating output type for the selected pins.
  87:Drivers/STM32G4xx_HAL_Driver/Inc/stm32g4xx_ll_gpio.h ****                               This parameter can be a value of @ref GPIO_LL_EC_OUTPUT.
  88:Drivers/STM32G4xx_HAL_Driver/Inc/stm32g4xx_ll_gpio.h **** 
  89:Drivers/STM32G4xx_HAL_Driver/Inc/stm32g4xx_ll_gpio.h ****                               GPIO HW configuration can be modified afterwards using unitary functi
  90:Drivers/STM32G4xx_HAL_Driver/Inc/stm32g4xx_ll_gpio.h **** 
  91:Drivers/STM32G4xx_HAL_Driver/Inc/stm32g4xx_ll_gpio.h ****   uint32_t Pull;         /*!< Specifies the operating Pull-up/Pull down for the selected pins.
  92:Drivers/STM32G4xx_HAL_Driver/Inc/stm32g4xx_ll_gpio.h ****                               This parameter can be a value of @ref GPIO_LL_EC_PULL.
  93:Drivers/STM32G4xx_HAL_Driver/Inc/stm32g4xx_ll_gpio.h **** 
  94:Drivers/STM32G4xx_HAL_Driver/Inc/stm32g4xx_ll_gpio.h ****                               GPIO HW configuration can be modified afterwards using unitary functi
  95:Drivers/STM32G4xx_HAL_Driver/Inc/stm32g4xx_ll_gpio.h **** 
  96:Drivers/STM32G4xx_HAL_Driver/Inc/stm32g4xx_ll_gpio.h ****   uint32_t Alternate;    /*!< Specifies the Peripheral to be connected to the selected pins.
  97:Drivers/STM32G4xx_HAL_Driver/Inc/stm32g4xx_ll_gpio.h ****                               This parameter can be a value of @ref GPIO_LL_EC_AF.
  98:Drivers/STM32G4xx_HAL_Driver/Inc/stm32g4xx_ll_gpio.h **** 
  99:Drivers/STM32G4xx_HAL_Driver/Inc/stm32g4xx_ll_gpio.h ****                               GPIO HW configuration can be modified afterwards using unitary functi
 100:Drivers/STM32G4xx_HAL_Driver/Inc/stm32g4xx_ll_gpio.h **** } LL_GPIO_InitTypeDef;
 101:Drivers/STM32G4xx_HAL_Driver/Inc/stm32g4xx_ll_gpio.h **** 
 102:Drivers/STM32G4xx_HAL_Driver/Inc/stm32g4xx_ll_gpio.h **** /**
 103:Drivers/STM32G4xx_HAL_Driver/Inc/stm32g4xx_ll_gpio.h ****   * @}
 104:Drivers/STM32G4xx_HAL_Driver/Inc/stm32g4xx_ll_gpio.h ****   */
 105:Drivers/STM32G4xx_HAL_Driver/Inc/stm32g4xx_ll_gpio.h **** #endif /* USE_FULL_LL_DRIVER */
 106:Drivers/STM32G4xx_HAL_Driver/Inc/stm32g4xx_ll_gpio.h **** 
 107:Drivers/STM32G4xx_HAL_Driver/Inc/stm32g4xx_ll_gpio.h **** /* Exported constants --------------------------------------------------------*/
 108:Drivers/STM32G4xx_HAL_Driver/Inc/stm32g4xx_ll_gpio.h **** /** @defgroup GPIO_LL_Exported_Constants GPIO Exported Constants
 109:Drivers/STM32G4xx_HAL_Driver/Inc/stm32g4xx_ll_gpio.h ****   * @{
 110:Drivers/STM32G4xx_HAL_Driver/Inc/stm32g4xx_ll_gpio.h ****   */
 111:Drivers/STM32G4xx_HAL_Driver/Inc/stm32g4xx_ll_gpio.h **** 
 112:Drivers/STM32G4xx_HAL_Driver/Inc/stm32g4xx_ll_gpio.h **** /** @defgroup GPIO_LL_EC_PIN PIN
 113:Drivers/STM32G4xx_HAL_Driver/Inc/stm32g4xx_ll_gpio.h ****   * @{
 114:Drivers/STM32G4xx_HAL_Driver/Inc/stm32g4xx_ll_gpio.h ****   */
 115:Drivers/STM32G4xx_HAL_Driver/Inc/stm32g4xx_ll_gpio.h **** #define LL_GPIO_PIN_0                      GPIO_BSRR_BS0 /*!< Select pin 0 */
 116:Drivers/STM32G4xx_HAL_Driver/Inc/stm32g4xx_ll_gpio.h **** #define LL_GPIO_PIN_1                      GPIO_BSRR_BS1 /*!< Select pin 1 */
 117:Drivers/STM32G4xx_HAL_Driver/Inc/stm32g4xx_ll_gpio.h **** #define LL_GPIO_PIN_2                      GPIO_BSRR_BS2 /*!< Select pin 2 */
 118:Drivers/STM32G4xx_HAL_Driver/Inc/stm32g4xx_ll_gpio.h **** #define LL_GPIO_PIN_3                      GPIO_BSRR_BS3 /*!< Select pin 3 */
 119:Drivers/STM32G4xx_HAL_Driver/Inc/stm32g4xx_ll_gpio.h **** #define LL_GPIO_PIN_4                      GPIO_BSRR_BS4 /*!< Select pin 4 */
 120:Drivers/STM32G4xx_HAL_Driver/Inc/stm32g4xx_ll_gpio.h **** #define LL_GPIO_PIN_5                      GPIO_BSRR_BS5 /*!< Select pin 5 */
 121:Drivers/STM32G4xx_HAL_Driver/Inc/stm32g4xx_ll_gpio.h **** #define LL_GPIO_PIN_6                      GPIO_BSRR_BS6 /*!< Select pin 6 */
 122:Drivers/STM32G4xx_HAL_Driver/Inc/stm32g4xx_ll_gpio.h **** #define LL_GPIO_PIN_7                      GPIO_BSRR_BS7 /*!< Select pin 7 */
 123:Drivers/STM32G4xx_HAL_Driver/Inc/stm32g4xx_ll_gpio.h **** #define LL_GPIO_PIN_8                      GPIO_BSRR_BS8 /*!< Select pin 8 */
 124:Drivers/STM32G4xx_HAL_Driver/Inc/stm32g4xx_ll_gpio.h **** #define LL_GPIO_PIN_9                      GPIO_BSRR_BS9 /*!< Select pin 9 */
 125:Drivers/STM32G4xx_HAL_Driver/Inc/stm32g4xx_ll_gpio.h **** #define LL_GPIO_PIN_10                     GPIO_BSRR_BS10 /*!< Select pin 10 */
 126:Drivers/STM32G4xx_HAL_Driver/Inc/stm32g4xx_ll_gpio.h **** #define LL_GPIO_PIN_11                     GPIO_BSRR_BS11 /*!< Select pin 11 */
 127:Drivers/STM32G4xx_HAL_Driver/Inc/stm32g4xx_ll_gpio.h **** #define LL_GPIO_PIN_12                     GPIO_BSRR_BS12 /*!< Select pin 12 */
 128:Drivers/STM32G4xx_HAL_Driver/Inc/stm32g4xx_ll_gpio.h **** #define LL_GPIO_PIN_13                     GPIO_BSRR_BS13 /*!< Select pin 13 */
ARM GAS  /tmp/ccW8kGEt.s 			page 34


 129:Drivers/STM32G4xx_HAL_Driver/Inc/stm32g4xx_ll_gpio.h **** #define LL_GPIO_PIN_14                     GPIO_BSRR_BS14 /*!< Select pin 14 */
 130:Drivers/STM32G4xx_HAL_Driver/Inc/stm32g4xx_ll_gpio.h **** #define LL_GPIO_PIN_15                     GPIO_BSRR_BS15 /*!< Select pin 15 */
 131:Drivers/STM32G4xx_HAL_Driver/Inc/stm32g4xx_ll_gpio.h **** #define LL_GPIO_PIN_ALL                    (GPIO_BSRR_BS0 | GPIO_BSRR_BS1  | GPIO_BSRR_BS2  | \
 132:Drivers/STM32G4xx_HAL_Driver/Inc/stm32g4xx_ll_gpio.h ****                                            GPIO_BSRR_BS3  | GPIO_BSRR_BS4  | GPIO_BSRR_BS5  | \
 133:Drivers/STM32G4xx_HAL_Driver/Inc/stm32g4xx_ll_gpio.h ****                                            GPIO_BSRR_BS6  | GPIO_BSRR_BS7  | GPIO_BSRR_BS8  | \
 134:Drivers/STM32G4xx_HAL_Driver/Inc/stm32g4xx_ll_gpio.h ****                                            GPIO_BSRR_BS9  | GPIO_BSRR_BS10 | GPIO_BSRR_BS11 | \
 135:Drivers/STM32G4xx_HAL_Driver/Inc/stm32g4xx_ll_gpio.h ****                                            GPIO_BSRR_BS12 | GPIO_BSRR_BS13 | GPIO_BSRR_BS14 | \
 136:Drivers/STM32G4xx_HAL_Driver/Inc/stm32g4xx_ll_gpio.h ****                                            GPIO_BSRR_BS15) /*!< Select all pins */
 137:Drivers/STM32G4xx_HAL_Driver/Inc/stm32g4xx_ll_gpio.h **** /**
 138:Drivers/STM32G4xx_HAL_Driver/Inc/stm32g4xx_ll_gpio.h ****   * @}
 139:Drivers/STM32G4xx_HAL_Driver/Inc/stm32g4xx_ll_gpio.h ****   */
 140:Drivers/STM32G4xx_HAL_Driver/Inc/stm32g4xx_ll_gpio.h **** 
 141:Drivers/STM32G4xx_HAL_Driver/Inc/stm32g4xx_ll_gpio.h **** /** @defgroup GPIO_LL_EC_MODE Mode
 142:Drivers/STM32G4xx_HAL_Driver/Inc/stm32g4xx_ll_gpio.h ****   * @{
 143:Drivers/STM32G4xx_HAL_Driver/Inc/stm32g4xx_ll_gpio.h ****   */
 144:Drivers/STM32G4xx_HAL_Driver/Inc/stm32g4xx_ll_gpio.h **** #define LL_GPIO_MODE_INPUT                 (0x00000000U) /*!< Select input mode */
 145:Drivers/STM32G4xx_HAL_Driver/Inc/stm32g4xx_ll_gpio.h **** #define LL_GPIO_MODE_OUTPUT                GPIO_MODER_MODE0_0  /*!< Select output mode */
 146:Drivers/STM32G4xx_HAL_Driver/Inc/stm32g4xx_ll_gpio.h **** #define LL_GPIO_MODE_ALTERNATE             GPIO_MODER_MODE0_1  /*!< Select alternate function mode 
 147:Drivers/STM32G4xx_HAL_Driver/Inc/stm32g4xx_ll_gpio.h **** #define LL_GPIO_MODE_ANALOG                GPIO_MODER_MODE0    /*!< Select analog mode */
 148:Drivers/STM32G4xx_HAL_Driver/Inc/stm32g4xx_ll_gpio.h **** /**
 149:Drivers/STM32G4xx_HAL_Driver/Inc/stm32g4xx_ll_gpio.h ****   * @}
 150:Drivers/STM32G4xx_HAL_Driver/Inc/stm32g4xx_ll_gpio.h ****   */
 151:Drivers/STM32G4xx_HAL_Driver/Inc/stm32g4xx_ll_gpio.h **** 
 152:Drivers/STM32G4xx_HAL_Driver/Inc/stm32g4xx_ll_gpio.h **** /** @defgroup GPIO_LL_EC_OUTPUT Output Type
 153:Drivers/STM32G4xx_HAL_Driver/Inc/stm32g4xx_ll_gpio.h ****   * @{
 154:Drivers/STM32G4xx_HAL_Driver/Inc/stm32g4xx_ll_gpio.h ****   */
 155:Drivers/STM32G4xx_HAL_Driver/Inc/stm32g4xx_ll_gpio.h **** #define LL_GPIO_OUTPUT_PUSHPULL            (0x00000000U) /*!< Select push-pull as output type */
 156:Drivers/STM32G4xx_HAL_Driver/Inc/stm32g4xx_ll_gpio.h **** #define LL_GPIO_OUTPUT_OPENDRAIN           GPIO_OTYPER_OT0 /*!< Select open-drain as output type */
 157:Drivers/STM32G4xx_HAL_Driver/Inc/stm32g4xx_ll_gpio.h **** /**
 158:Drivers/STM32G4xx_HAL_Driver/Inc/stm32g4xx_ll_gpio.h ****   * @}
 159:Drivers/STM32G4xx_HAL_Driver/Inc/stm32g4xx_ll_gpio.h ****   */
 160:Drivers/STM32G4xx_HAL_Driver/Inc/stm32g4xx_ll_gpio.h **** 
 161:Drivers/STM32G4xx_HAL_Driver/Inc/stm32g4xx_ll_gpio.h **** /** @defgroup GPIO_LL_EC_SPEED Output Speed
 162:Drivers/STM32G4xx_HAL_Driver/Inc/stm32g4xx_ll_gpio.h ****   * @{
 163:Drivers/STM32G4xx_HAL_Driver/Inc/stm32g4xx_ll_gpio.h ****   */
 164:Drivers/STM32G4xx_HAL_Driver/Inc/stm32g4xx_ll_gpio.h **** #define LL_GPIO_SPEED_FREQ_LOW             (0x00000000U) /*!< Select I/O low output speed    */
 165:Drivers/STM32G4xx_HAL_Driver/Inc/stm32g4xx_ll_gpio.h **** #define LL_GPIO_SPEED_FREQ_MEDIUM          GPIO_OSPEEDR_OSPEED0_0 /*!< Select I/O medium output spe
 166:Drivers/STM32G4xx_HAL_Driver/Inc/stm32g4xx_ll_gpio.h **** #define LL_GPIO_SPEED_FREQ_HIGH            GPIO_OSPEEDR_OSPEED0_1 /*!< Select I/O fast output speed
 167:Drivers/STM32G4xx_HAL_Driver/Inc/stm32g4xx_ll_gpio.h **** #define LL_GPIO_SPEED_FREQ_VERY_HIGH       GPIO_OSPEEDR_OSPEED0   /*!< Select I/O high output speed
 168:Drivers/STM32G4xx_HAL_Driver/Inc/stm32g4xx_ll_gpio.h **** /**
 169:Drivers/STM32G4xx_HAL_Driver/Inc/stm32g4xx_ll_gpio.h ****   * @}
 170:Drivers/STM32G4xx_HAL_Driver/Inc/stm32g4xx_ll_gpio.h ****   */
 171:Drivers/STM32G4xx_HAL_Driver/Inc/stm32g4xx_ll_gpio.h **** #define LL_GPIO_SPEED_LOW                  LL_GPIO_SPEED_FREQ_LOW
 172:Drivers/STM32G4xx_HAL_Driver/Inc/stm32g4xx_ll_gpio.h **** #define LL_GPIO_SPEED_MEDIUM               LL_GPIO_SPEED_FREQ_MEDIUM
 173:Drivers/STM32G4xx_HAL_Driver/Inc/stm32g4xx_ll_gpio.h **** #define LL_GPIO_SPEED_FAST                 LL_GPIO_SPEED_FREQ_HIGH
 174:Drivers/STM32G4xx_HAL_Driver/Inc/stm32g4xx_ll_gpio.h **** #define LL_GPIO_SPEED_HIGH                 LL_GPIO_SPEED_FREQ_VERY_HIGH
 175:Drivers/STM32G4xx_HAL_Driver/Inc/stm32g4xx_ll_gpio.h **** 
 176:Drivers/STM32G4xx_HAL_Driver/Inc/stm32g4xx_ll_gpio.h **** /** @defgroup GPIO_LL_EC_PULL Pull Up Pull Down
 177:Drivers/STM32G4xx_HAL_Driver/Inc/stm32g4xx_ll_gpio.h ****   * @{
 178:Drivers/STM32G4xx_HAL_Driver/Inc/stm32g4xx_ll_gpio.h ****   */
 179:Drivers/STM32G4xx_HAL_Driver/Inc/stm32g4xx_ll_gpio.h **** #define LL_GPIO_PULL_NO                    (0x00000000U) /*!< Select I/O no pull */
 180:Drivers/STM32G4xx_HAL_Driver/Inc/stm32g4xx_ll_gpio.h **** #define LL_GPIO_PULL_UP                    GPIO_PUPDR_PUPD0_0 /*!< Select I/O pull up */
 181:Drivers/STM32G4xx_HAL_Driver/Inc/stm32g4xx_ll_gpio.h **** #define LL_GPIO_PULL_DOWN                  GPIO_PUPDR_PUPD0_1 /*!< Select I/O pull down */
 182:Drivers/STM32G4xx_HAL_Driver/Inc/stm32g4xx_ll_gpio.h **** /**
 183:Drivers/STM32G4xx_HAL_Driver/Inc/stm32g4xx_ll_gpio.h ****   * @}
 184:Drivers/STM32G4xx_HAL_Driver/Inc/stm32g4xx_ll_gpio.h ****   */
 185:Drivers/STM32G4xx_HAL_Driver/Inc/stm32g4xx_ll_gpio.h **** 
ARM GAS  /tmp/ccW8kGEt.s 			page 35


 186:Drivers/STM32G4xx_HAL_Driver/Inc/stm32g4xx_ll_gpio.h **** /** @defgroup GPIO_LL_EC_AF Alternate Function
 187:Drivers/STM32G4xx_HAL_Driver/Inc/stm32g4xx_ll_gpio.h ****   * @{
 188:Drivers/STM32G4xx_HAL_Driver/Inc/stm32g4xx_ll_gpio.h ****   */
 189:Drivers/STM32G4xx_HAL_Driver/Inc/stm32g4xx_ll_gpio.h **** #define LL_GPIO_AF_0                       (0x0000000U) /*!< Select alternate function 0 */
 190:Drivers/STM32G4xx_HAL_Driver/Inc/stm32g4xx_ll_gpio.h **** #define LL_GPIO_AF_1                       (0x0000001U) /*!< Select alternate function 1 */
 191:Drivers/STM32G4xx_HAL_Driver/Inc/stm32g4xx_ll_gpio.h **** #define LL_GPIO_AF_2                       (0x0000002U) /*!< Select alternate function 2 */
 192:Drivers/STM32G4xx_HAL_Driver/Inc/stm32g4xx_ll_gpio.h **** #define LL_GPIO_AF_3                       (0x0000003U) /*!< Select alternate function 3 */
 193:Drivers/STM32G4xx_HAL_Driver/Inc/stm32g4xx_ll_gpio.h **** #define LL_GPIO_AF_4                       (0x0000004U) /*!< Select alternate function 4 */
 194:Drivers/STM32G4xx_HAL_Driver/Inc/stm32g4xx_ll_gpio.h **** #define LL_GPIO_AF_5                       (0x0000005U) /*!< Select alternate function 5 */
 195:Drivers/STM32G4xx_HAL_Driver/Inc/stm32g4xx_ll_gpio.h **** #define LL_GPIO_AF_6                       (0x0000006U) /*!< Select alternate function 6 */
 196:Drivers/STM32G4xx_HAL_Driver/Inc/stm32g4xx_ll_gpio.h **** #define LL_GPIO_AF_7                       (0x0000007U) /*!< Select alternate function 7 */
 197:Drivers/STM32G4xx_HAL_Driver/Inc/stm32g4xx_ll_gpio.h **** #define LL_GPIO_AF_8                       (0x0000008U) /*!< Select alternate function 8 */
 198:Drivers/STM32G4xx_HAL_Driver/Inc/stm32g4xx_ll_gpio.h **** #define LL_GPIO_AF_9                       (0x0000009U) /*!< Select alternate function 9 */
 199:Drivers/STM32G4xx_HAL_Driver/Inc/stm32g4xx_ll_gpio.h **** #define LL_GPIO_AF_10                      (0x000000AU) /*!< Select alternate function 10 */
 200:Drivers/STM32G4xx_HAL_Driver/Inc/stm32g4xx_ll_gpio.h **** #define LL_GPIO_AF_11                      (0x000000BU) /*!< Select alternate function 11 */
 201:Drivers/STM32G4xx_HAL_Driver/Inc/stm32g4xx_ll_gpio.h **** #define LL_GPIO_AF_12                      (0x000000CU) /*!< Select alternate function 12 */
 202:Drivers/STM32G4xx_HAL_Driver/Inc/stm32g4xx_ll_gpio.h **** #define LL_GPIO_AF_13                      (0x000000DU) /*!< Select alternate function 13 */
 203:Drivers/STM32G4xx_HAL_Driver/Inc/stm32g4xx_ll_gpio.h **** #define LL_GPIO_AF_14                      (0x000000EU) /*!< Select alternate function 14 */
 204:Drivers/STM32G4xx_HAL_Driver/Inc/stm32g4xx_ll_gpio.h **** #define LL_GPIO_AF_15                      (0x000000FU) /*!< Select alternate function 15 */
 205:Drivers/STM32G4xx_HAL_Driver/Inc/stm32g4xx_ll_gpio.h **** /**
 206:Drivers/STM32G4xx_HAL_Driver/Inc/stm32g4xx_ll_gpio.h ****   * @}
 207:Drivers/STM32G4xx_HAL_Driver/Inc/stm32g4xx_ll_gpio.h ****   */
 208:Drivers/STM32G4xx_HAL_Driver/Inc/stm32g4xx_ll_gpio.h **** 
 209:Drivers/STM32G4xx_HAL_Driver/Inc/stm32g4xx_ll_gpio.h **** /**
 210:Drivers/STM32G4xx_HAL_Driver/Inc/stm32g4xx_ll_gpio.h ****   * @}
 211:Drivers/STM32G4xx_HAL_Driver/Inc/stm32g4xx_ll_gpio.h ****   */
 212:Drivers/STM32G4xx_HAL_Driver/Inc/stm32g4xx_ll_gpio.h **** 
 213:Drivers/STM32G4xx_HAL_Driver/Inc/stm32g4xx_ll_gpio.h **** /* Exported macro ------------------------------------------------------------*/
 214:Drivers/STM32G4xx_HAL_Driver/Inc/stm32g4xx_ll_gpio.h **** /** @defgroup GPIO_LL_Exported_Macros GPIO Exported Macros
 215:Drivers/STM32G4xx_HAL_Driver/Inc/stm32g4xx_ll_gpio.h ****   * @{
 216:Drivers/STM32G4xx_HAL_Driver/Inc/stm32g4xx_ll_gpio.h ****   */
 217:Drivers/STM32G4xx_HAL_Driver/Inc/stm32g4xx_ll_gpio.h **** 
 218:Drivers/STM32G4xx_HAL_Driver/Inc/stm32g4xx_ll_gpio.h **** /** @defgroup GPIO_LL_EM_WRITE_READ Common Write and read registers Macros
 219:Drivers/STM32G4xx_HAL_Driver/Inc/stm32g4xx_ll_gpio.h ****   * @{
 220:Drivers/STM32G4xx_HAL_Driver/Inc/stm32g4xx_ll_gpio.h ****   */
 221:Drivers/STM32G4xx_HAL_Driver/Inc/stm32g4xx_ll_gpio.h **** 
 222:Drivers/STM32G4xx_HAL_Driver/Inc/stm32g4xx_ll_gpio.h **** /**
 223:Drivers/STM32G4xx_HAL_Driver/Inc/stm32g4xx_ll_gpio.h ****   * @brief  Write a value in GPIO register
 224:Drivers/STM32G4xx_HAL_Driver/Inc/stm32g4xx_ll_gpio.h ****   * @param  __INSTANCE__ GPIO Instance
 225:Drivers/STM32G4xx_HAL_Driver/Inc/stm32g4xx_ll_gpio.h ****   * @param  __REG__ Register to be written
 226:Drivers/STM32G4xx_HAL_Driver/Inc/stm32g4xx_ll_gpio.h ****   * @param  __VALUE__ Value to be written in the register
 227:Drivers/STM32G4xx_HAL_Driver/Inc/stm32g4xx_ll_gpio.h ****   * @retval None
 228:Drivers/STM32G4xx_HAL_Driver/Inc/stm32g4xx_ll_gpio.h ****   */
 229:Drivers/STM32G4xx_HAL_Driver/Inc/stm32g4xx_ll_gpio.h **** #define LL_GPIO_WriteReg(__INSTANCE__, __REG__, __VALUE__) WRITE_REG(__INSTANCE__->__REG__, (__VALU
 230:Drivers/STM32G4xx_HAL_Driver/Inc/stm32g4xx_ll_gpio.h **** 
 231:Drivers/STM32G4xx_HAL_Driver/Inc/stm32g4xx_ll_gpio.h **** /**
 232:Drivers/STM32G4xx_HAL_Driver/Inc/stm32g4xx_ll_gpio.h ****   * @brief  Read a value in GPIO register
 233:Drivers/STM32G4xx_HAL_Driver/Inc/stm32g4xx_ll_gpio.h ****   * @param  __INSTANCE__ GPIO Instance
 234:Drivers/STM32G4xx_HAL_Driver/Inc/stm32g4xx_ll_gpio.h ****   * @param  __REG__ Register to be read
 235:Drivers/STM32G4xx_HAL_Driver/Inc/stm32g4xx_ll_gpio.h ****   * @retval Register value
 236:Drivers/STM32G4xx_HAL_Driver/Inc/stm32g4xx_ll_gpio.h ****   */
 237:Drivers/STM32G4xx_HAL_Driver/Inc/stm32g4xx_ll_gpio.h **** #define LL_GPIO_ReadReg(__INSTANCE__, __REG__) READ_REG(__INSTANCE__->__REG__)
 238:Drivers/STM32G4xx_HAL_Driver/Inc/stm32g4xx_ll_gpio.h **** /**
 239:Drivers/STM32G4xx_HAL_Driver/Inc/stm32g4xx_ll_gpio.h ****   * @}
 240:Drivers/STM32G4xx_HAL_Driver/Inc/stm32g4xx_ll_gpio.h ****   */
 241:Drivers/STM32G4xx_HAL_Driver/Inc/stm32g4xx_ll_gpio.h **** 
 242:Drivers/STM32G4xx_HAL_Driver/Inc/stm32g4xx_ll_gpio.h **** /**
ARM GAS  /tmp/ccW8kGEt.s 			page 36


 243:Drivers/STM32G4xx_HAL_Driver/Inc/stm32g4xx_ll_gpio.h ****   * @}
 244:Drivers/STM32G4xx_HAL_Driver/Inc/stm32g4xx_ll_gpio.h ****   */
 245:Drivers/STM32G4xx_HAL_Driver/Inc/stm32g4xx_ll_gpio.h **** 
 246:Drivers/STM32G4xx_HAL_Driver/Inc/stm32g4xx_ll_gpio.h **** /* Exported functions --------------------------------------------------------*/
 247:Drivers/STM32G4xx_HAL_Driver/Inc/stm32g4xx_ll_gpio.h **** /** @defgroup GPIO_LL_Exported_Functions GPIO Exported Functions
 248:Drivers/STM32G4xx_HAL_Driver/Inc/stm32g4xx_ll_gpio.h ****   * @{
 249:Drivers/STM32G4xx_HAL_Driver/Inc/stm32g4xx_ll_gpio.h ****   */
 250:Drivers/STM32G4xx_HAL_Driver/Inc/stm32g4xx_ll_gpio.h **** 
 251:Drivers/STM32G4xx_HAL_Driver/Inc/stm32g4xx_ll_gpio.h **** /** @defgroup GPIO_LL_EF_Port_Configuration Port Configuration
 252:Drivers/STM32G4xx_HAL_Driver/Inc/stm32g4xx_ll_gpio.h ****   * @{
 253:Drivers/STM32G4xx_HAL_Driver/Inc/stm32g4xx_ll_gpio.h ****   */
 254:Drivers/STM32G4xx_HAL_Driver/Inc/stm32g4xx_ll_gpio.h **** 
 255:Drivers/STM32G4xx_HAL_Driver/Inc/stm32g4xx_ll_gpio.h **** /**
 256:Drivers/STM32G4xx_HAL_Driver/Inc/stm32g4xx_ll_gpio.h ****   * @brief  Configure gpio mode for a dedicated pin on dedicated port.
 257:Drivers/STM32G4xx_HAL_Driver/Inc/stm32g4xx_ll_gpio.h ****   * @note   I/O mode can be Input mode, General purpose output, Alternate function mode or Analog.
 258:Drivers/STM32G4xx_HAL_Driver/Inc/stm32g4xx_ll_gpio.h ****   * @note   Warning: only one pin can be passed as parameter.
 259:Drivers/STM32G4xx_HAL_Driver/Inc/stm32g4xx_ll_gpio.h ****   * @rmtoll MODER        MODEy         LL_GPIO_SetPinMode
 260:Drivers/STM32G4xx_HAL_Driver/Inc/stm32g4xx_ll_gpio.h ****   * @param  GPIOx GPIO Port
 261:Drivers/STM32G4xx_HAL_Driver/Inc/stm32g4xx_ll_gpio.h ****   * @param  Pin This parameter can be one of the following values:
 262:Drivers/STM32G4xx_HAL_Driver/Inc/stm32g4xx_ll_gpio.h ****   *         @arg @ref LL_GPIO_PIN_0
 263:Drivers/STM32G4xx_HAL_Driver/Inc/stm32g4xx_ll_gpio.h ****   *         @arg @ref LL_GPIO_PIN_1
 264:Drivers/STM32G4xx_HAL_Driver/Inc/stm32g4xx_ll_gpio.h ****   *         @arg @ref LL_GPIO_PIN_2
 265:Drivers/STM32G4xx_HAL_Driver/Inc/stm32g4xx_ll_gpio.h ****   *         @arg @ref LL_GPIO_PIN_3
 266:Drivers/STM32G4xx_HAL_Driver/Inc/stm32g4xx_ll_gpio.h ****   *         @arg @ref LL_GPIO_PIN_4
 267:Drivers/STM32G4xx_HAL_Driver/Inc/stm32g4xx_ll_gpio.h ****   *         @arg @ref LL_GPIO_PIN_5
 268:Drivers/STM32G4xx_HAL_Driver/Inc/stm32g4xx_ll_gpio.h ****   *         @arg @ref LL_GPIO_PIN_6
 269:Drivers/STM32G4xx_HAL_Driver/Inc/stm32g4xx_ll_gpio.h ****   *         @arg @ref LL_GPIO_PIN_7
 270:Drivers/STM32G4xx_HAL_Driver/Inc/stm32g4xx_ll_gpio.h ****   *         @arg @ref LL_GPIO_PIN_8
 271:Drivers/STM32G4xx_HAL_Driver/Inc/stm32g4xx_ll_gpio.h ****   *         @arg @ref LL_GPIO_PIN_9
 272:Drivers/STM32G4xx_HAL_Driver/Inc/stm32g4xx_ll_gpio.h ****   *         @arg @ref LL_GPIO_PIN_10
 273:Drivers/STM32G4xx_HAL_Driver/Inc/stm32g4xx_ll_gpio.h ****   *         @arg @ref LL_GPIO_PIN_11
 274:Drivers/STM32G4xx_HAL_Driver/Inc/stm32g4xx_ll_gpio.h ****   *         @arg @ref LL_GPIO_PIN_12
 275:Drivers/STM32G4xx_HAL_Driver/Inc/stm32g4xx_ll_gpio.h ****   *         @arg @ref LL_GPIO_PIN_13
 276:Drivers/STM32G4xx_HAL_Driver/Inc/stm32g4xx_ll_gpio.h ****   *         @arg @ref LL_GPIO_PIN_14
 277:Drivers/STM32G4xx_HAL_Driver/Inc/stm32g4xx_ll_gpio.h ****   *         @arg @ref LL_GPIO_PIN_15
 278:Drivers/STM32G4xx_HAL_Driver/Inc/stm32g4xx_ll_gpio.h ****   * @param  Mode This parameter can be one of the following values:
 279:Drivers/STM32G4xx_HAL_Driver/Inc/stm32g4xx_ll_gpio.h ****   *         @arg @ref LL_GPIO_MODE_INPUT
 280:Drivers/STM32G4xx_HAL_Driver/Inc/stm32g4xx_ll_gpio.h ****   *         @arg @ref LL_GPIO_MODE_OUTPUT
 281:Drivers/STM32G4xx_HAL_Driver/Inc/stm32g4xx_ll_gpio.h ****   *         @arg @ref LL_GPIO_MODE_ALTERNATE
 282:Drivers/STM32G4xx_HAL_Driver/Inc/stm32g4xx_ll_gpio.h ****   *         @arg @ref LL_GPIO_MODE_ANALOG
 283:Drivers/STM32G4xx_HAL_Driver/Inc/stm32g4xx_ll_gpio.h ****   * @retval None
 284:Drivers/STM32G4xx_HAL_Driver/Inc/stm32g4xx_ll_gpio.h ****   */
 285:Drivers/STM32G4xx_HAL_Driver/Inc/stm32g4xx_ll_gpio.h **** __STATIC_INLINE void LL_GPIO_SetPinMode(GPIO_TypeDef *GPIOx, uint32_t Pin, uint32_t Mode)
 286:Drivers/STM32G4xx_HAL_Driver/Inc/stm32g4xx_ll_gpio.h **** {
 287:Drivers/STM32G4xx_HAL_Driver/Inc/stm32g4xx_ll_gpio.h ****   MODIFY_REG(GPIOx->MODER, (GPIO_MODER_MODE0 << (POSITION_VAL(Pin) * 2U)), (Mode << (POSITION_VAL(P
 288:Drivers/STM32G4xx_HAL_Driver/Inc/stm32g4xx_ll_gpio.h **** }
 289:Drivers/STM32G4xx_HAL_Driver/Inc/stm32g4xx_ll_gpio.h **** 
 290:Drivers/STM32G4xx_HAL_Driver/Inc/stm32g4xx_ll_gpio.h **** /**
 291:Drivers/STM32G4xx_HAL_Driver/Inc/stm32g4xx_ll_gpio.h ****   * @brief  Return gpio mode for a dedicated pin on dedicated port.
 292:Drivers/STM32G4xx_HAL_Driver/Inc/stm32g4xx_ll_gpio.h ****   * @note   I/O mode can be Input mode, General purpose output, Alternate function mode or Analog.
 293:Drivers/STM32G4xx_HAL_Driver/Inc/stm32g4xx_ll_gpio.h ****   * @note   Warning: only one pin can be passed as parameter.
 294:Drivers/STM32G4xx_HAL_Driver/Inc/stm32g4xx_ll_gpio.h ****   * @rmtoll MODER        MODEy         LL_GPIO_GetPinMode
 295:Drivers/STM32G4xx_HAL_Driver/Inc/stm32g4xx_ll_gpio.h ****   * @param  GPIOx GPIO Port
 296:Drivers/STM32G4xx_HAL_Driver/Inc/stm32g4xx_ll_gpio.h ****   * @param  Pin This parameter can be one of the following values:
 297:Drivers/STM32G4xx_HAL_Driver/Inc/stm32g4xx_ll_gpio.h ****   *         @arg @ref LL_GPIO_PIN_0
 298:Drivers/STM32G4xx_HAL_Driver/Inc/stm32g4xx_ll_gpio.h ****   *         @arg @ref LL_GPIO_PIN_1
 299:Drivers/STM32G4xx_HAL_Driver/Inc/stm32g4xx_ll_gpio.h ****   *         @arg @ref LL_GPIO_PIN_2
ARM GAS  /tmp/ccW8kGEt.s 			page 37


 300:Drivers/STM32G4xx_HAL_Driver/Inc/stm32g4xx_ll_gpio.h ****   *         @arg @ref LL_GPIO_PIN_3
 301:Drivers/STM32G4xx_HAL_Driver/Inc/stm32g4xx_ll_gpio.h ****   *         @arg @ref LL_GPIO_PIN_4
 302:Drivers/STM32G4xx_HAL_Driver/Inc/stm32g4xx_ll_gpio.h ****   *         @arg @ref LL_GPIO_PIN_5
 303:Drivers/STM32G4xx_HAL_Driver/Inc/stm32g4xx_ll_gpio.h ****   *         @arg @ref LL_GPIO_PIN_6
 304:Drivers/STM32G4xx_HAL_Driver/Inc/stm32g4xx_ll_gpio.h ****   *         @arg @ref LL_GPIO_PIN_7
 305:Drivers/STM32G4xx_HAL_Driver/Inc/stm32g4xx_ll_gpio.h ****   *         @arg @ref LL_GPIO_PIN_8
 306:Drivers/STM32G4xx_HAL_Driver/Inc/stm32g4xx_ll_gpio.h ****   *         @arg @ref LL_GPIO_PIN_9
 307:Drivers/STM32G4xx_HAL_Driver/Inc/stm32g4xx_ll_gpio.h ****   *         @arg @ref LL_GPIO_PIN_10
 308:Drivers/STM32G4xx_HAL_Driver/Inc/stm32g4xx_ll_gpio.h ****   *         @arg @ref LL_GPIO_PIN_11
 309:Drivers/STM32G4xx_HAL_Driver/Inc/stm32g4xx_ll_gpio.h ****   *         @arg @ref LL_GPIO_PIN_12
 310:Drivers/STM32G4xx_HAL_Driver/Inc/stm32g4xx_ll_gpio.h ****   *         @arg @ref LL_GPIO_PIN_13
 311:Drivers/STM32G4xx_HAL_Driver/Inc/stm32g4xx_ll_gpio.h ****   *         @arg @ref LL_GPIO_PIN_14
 312:Drivers/STM32G4xx_HAL_Driver/Inc/stm32g4xx_ll_gpio.h ****   *         @arg @ref LL_GPIO_PIN_15
 313:Drivers/STM32G4xx_HAL_Driver/Inc/stm32g4xx_ll_gpio.h ****   * @retval Returned value can be one of the following values:
 314:Drivers/STM32G4xx_HAL_Driver/Inc/stm32g4xx_ll_gpio.h ****   *         @arg @ref LL_GPIO_MODE_INPUT
 315:Drivers/STM32G4xx_HAL_Driver/Inc/stm32g4xx_ll_gpio.h ****   *         @arg @ref LL_GPIO_MODE_OUTPUT
 316:Drivers/STM32G4xx_HAL_Driver/Inc/stm32g4xx_ll_gpio.h ****   *         @arg @ref LL_GPIO_MODE_ALTERNATE
 317:Drivers/STM32G4xx_HAL_Driver/Inc/stm32g4xx_ll_gpio.h ****   *         @arg @ref LL_GPIO_MODE_ANALOG
 318:Drivers/STM32G4xx_HAL_Driver/Inc/stm32g4xx_ll_gpio.h ****   */
 319:Drivers/STM32G4xx_HAL_Driver/Inc/stm32g4xx_ll_gpio.h **** __STATIC_INLINE uint32_t LL_GPIO_GetPinMode(GPIO_TypeDef *GPIOx, uint32_t Pin)
 320:Drivers/STM32G4xx_HAL_Driver/Inc/stm32g4xx_ll_gpio.h **** {
 321:Drivers/STM32G4xx_HAL_Driver/Inc/stm32g4xx_ll_gpio.h ****   return (uint32_t)(READ_BIT(GPIOx->MODER,
 322:Drivers/STM32G4xx_HAL_Driver/Inc/stm32g4xx_ll_gpio.h ****                              (GPIO_MODER_MODE0 << (POSITION_VAL(Pin) * 2U))) >> (POSITION_VAL(Pin) 
 323:Drivers/STM32G4xx_HAL_Driver/Inc/stm32g4xx_ll_gpio.h **** }
 324:Drivers/STM32G4xx_HAL_Driver/Inc/stm32g4xx_ll_gpio.h **** 
 325:Drivers/STM32G4xx_HAL_Driver/Inc/stm32g4xx_ll_gpio.h **** /**
 326:Drivers/STM32G4xx_HAL_Driver/Inc/stm32g4xx_ll_gpio.h ****   * @brief  Configure gpio output type for several pins on dedicated port.
 327:Drivers/STM32G4xx_HAL_Driver/Inc/stm32g4xx_ll_gpio.h ****   * @note   Output type as to be set when gpio pin is in output or
 328:Drivers/STM32G4xx_HAL_Driver/Inc/stm32g4xx_ll_gpio.h ****   *         alternate modes. Possible type are Push-pull or Open-drain.
 329:Drivers/STM32G4xx_HAL_Driver/Inc/stm32g4xx_ll_gpio.h ****   * @rmtoll OTYPER       OTy           LL_GPIO_SetPinOutputType
 330:Drivers/STM32G4xx_HAL_Driver/Inc/stm32g4xx_ll_gpio.h ****   * @param  GPIOx GPIO Port
 331:Drivers/STM32G4xx_HAL_Driver/Inc/stm32g4xx_ll_gpio.h ****   * @param  PinMask This parameter can be a combination of the following values:
 332:Drivers/STM32G4xx_HAL_Driver/Inc/stm32g4xx_ll_gpio.h ****   *         @arg @ref LL_GPIO_PIN_0
 333:Drivers/STM32G4xx_HAL_Driver/Inc/stm32g4xx_ll_gpio.h ****   *         @arg @ref LL_GPIO_PIN_1
 334:Drivers/STM32G4xx_HAL_Driver/Inc/stm32g4xx_ll_gpio.h ****   *         @arg @ref LL_GPIO_PIN_2
 335:Drivers/STM32G4xx_HAL_Driver/Inc/stm32g4xx_ll_gpio.h ****   *         @arg @ref LL_GPIO_PIN_3
 336:Drivers/STM32G4xx_HAL_Driver/Inc/stm32g4xx_ll_gpio.h ****   *         @arg @ref LL_GPIO_PIN_4
 337:Drivers/STM32G4xx_HAL_Driver/Inc/stm32g4xx_ll_gpio.h ****   *         @arg @ref LL_GPIO_PIN_5
 338:Drivers/STM32G4xx_HAL_Driver/Inc/stm32g4xx_ll_gpio.h ****   *         @arg @ref LL_GPIO_PIN_6
 339:Drivers/STM32G4xx_HAL_Driver/Inc/stm32g4xx_ll_gpio.h ****   *         @arg @ref LL_GPIO_PIN_7
 340:Drivers/STM32G4xx_HAL_Driver/Inc/stm32g4xx_ll_gpio.h ****   *         @arg @ref LL_GPIO_PIN_8
 341:Drivers/STM32G4xx_HAL_Driver/Inc/stm32g4xx_ll_gpio.h ****   *         @arg @ref LL_GPIO_PIN_9
 342:Drivers/STM32G4xx_HAL_Driver/Inc/stm32g4xx_ll_gpio.h ****   *         @arg @ref LL_GPIO_PIN_10
 343:Drivers/STM32G4xx_HAL_Driver/Inc/stm32g4xx_ll_gpio.h ****   *         @arg @ref LL_GPIO_PIN_11
 344:Drivers/STM32G4xx_HAL_Driver/Inc/stm32g4xx_ll_gpio.h ****   *         @arg @ref LL_GPIO_PIN_12
 345:Drivers/STM32G4xx_HAL_Driver/Inc/stm32g4xx_ll_gpio.h ****   *         @arg @ref LL_GPIO_PIN_13
 346:Drivers/STM32G4xx_HAL_Driver/Inc/stm32g4xx_ll_gpio.h ****   *         @arg @ref LL_GPIO_PIN_14
 347:Drivers/STM32G4xx_HAL_Driver/Inc/stm32g4xx_ll_gpio.h ****   *         @arg @ref LL_GPIO_PIN_15
 348:Drivers/STM32G4xx_HAL_Driver/Inc/stm32g4xx_ll_gpio.h ****   *         @arg @ref LL_GPIO_PIN_ALL
 349:Drivers/STM32G4xx_HAL_Driver/Inc/stm32g4xx_ll_gpio.h ****   * @param  OutputType This parameter can be one of the following values:
 350:Drivers/STM32G4xx_HAL_Driver/Inc/stm32g4xx_ll_gpio.h ****   *         @arg @ref LL_GPIO_OUTPUT_PUSHPULL
 351:Drivers/STM32G4xx_HAL_Driver/Inc/stm32g4xx_ll_gpio.h ****   *         @arg @ref LL_GPIO_OUTPUT_OPENDRAIN
 352:Drivers/STM32G4xx_HAL_Driver/Inc/stm32g4xx_ll_gpio.h ****   * @retval None
 353:Drivers/STM32G4xx_HAL_Driver/Inc/stm32g4xx_ll_gpio.h ****   */
 354:Drivers/STM32G4xx_HAL_Driver/Inc/stm32g4xx_ll_gpio.h **** __STATIC_INLINE void LL_GPIO_SetPinOutputType(GPIO_TypeDef *GPIOx, uint32_t PinMask, uint32_t Outpu
 355:Drivers/STM32G4xx_HAL_Driver/Inc/stm32g4xx_ll_gpio.h **** {
 356:Drivers/STM32G4xx_HAL_Driver/Inc/stm32g4xx_ll_gpio.h ****   MODIFY_REG(GPIOx->OTYPER, PinMask, (PinMask * OutputType));
ARM GAS  /tmp/ccW8kGEt.s 			page 38


 357:Drivers/STM32G4xx_HAL_Driver/Inc/stm32g4xx_ll_gpio.h **** }
 358:Drivers/STM32G4xx_HAL_Driver/Inc/stm32g4xx_ll_gpio.h **** 
 359:Drivers/STM32G4xx_HAL_Driver/Inc/stm32g4xx_ll_gpio.h **** /**
 360:Drivers/STM32G4xx_HAL_Driver/Inc/stm32g4xx_ll_gpio.h ****   * @brief  Return gpio output type for several pins on dedicated port.
 361:Drivers/STM32G4xx_HAL_Driver/Inc/stm32g4xx_ll_gpio.h ****   * @note   Output type as to be set when gpio pin is in output or
 362:Drivers/STM32G4xx_HAL_Driver/Inc/stm32g4xx_ll_gpio.h ****   *         alternate modes. Possible type are Push-pull or Open-drain.
 363:Drivers/STM32G4xx_HAL_Driver/Inc/stm32g4xx_ll_gpio.h ****   * @note   Warning: only one pin can be passed as parameter.
 364:Drivers/STM32G4xx_HAL_Driver/Inc/stm32g4xx_ll_gpio.h ****   * @rmtoll OTYPER       OTy           LL_GPIO_GetPinOutputType
 365:Drivers/STM32G4xx_HAL_Driver/Inc/stm32g4xx_ll_gpio.h ****   * @param  GPIOx GPIO Port
 366:Drivers/STM32G4xx_HAL_Driver/Inc/stm32g4xx_ll_gpio.h ****   * @param  Pin This parameter can be one of the following values:
 367:Drivers/STM32G4xx_HAL_Driver/Inc/stm32g4xx_ll_gpio.h ****   *         @arg @ref LL_GPIO_PIN_0
 368:Drivers/STM32G4xx_HAL_Driver/Inc/stm32g4xx_ll_gpio.h ****   *         @arg @ref LL_GPIO_PIN_1
 369:Drivers/STM32G4xx_HAL_Driver/Inc/stm32g4xx_ll_gpio.h ****   *         @arg @ref LL_GPIO_PIN_2
 370:Drivers/STM32G4xx_HAL_Driver/Inc/stm32g4xx_ll_gpio.h ****   *         @arg @ref LL_GPIO_PIN_3
 371:Drivers/STM32G4xx_HAL_Driver/Inc/stm32g4xx_ll_gpio.h ****   *         @arg @ref LL_GPIO_PIN_4
 372:Drivers/STM32G4xx_HAL_Driver/Inc/stm32g4xx_ll_gpio.h ****   *         @arg @ref LL_GPIO_PIN_5
 373:Drivers/STM32G4xx_HAL_Driver/Inc/stm32g4xx_ll_gpio.h ****   *         @arg @ref LL_GPIO_PIN_6
 374:Drivers/STM32G4xx_HAL_Driver/Inc/stm32g4xx_ll_gpio.h ****   *         @arg @ref LL_GPIO_PIN_7
 375:Drivers/STM32G4xx_HAL_Driver/Inc/stm32g4xx_ll_gpio.h ****   *         @arg @ref LL_GPIO_PIN_8
 376:Drivers/STM32G4xx_HAL_Driver/Inc/stm32g4xx_ll_gpio.h ****   *         @arg @ref LL_GPIO_PIN_9
 377:Drivers/STM32G4xx_HAL_Driver/Inc/stm32g4xx_ll_gpio.h ****   *         @arg @ref LL_GPIO_PIN_10
 378:Drivers/STM32G4xx_HAL_Driver/Inc/stm32g4xx_ll_gpio.h ****   *         @arg @ref LL_GPIO_PIN_11
 379:Drivers/STM32G4xx_HAL_Driver/Inc/stm32g4xx_ll_gpio.h ****   *         @arg @ref LL_GPIO_PIN_12
 380:Drivers/STM32G4xx_HAL_Driver/Inc/stm32g4xx_ll_gpio.h ****   *         @arg @ref LL_GPIO_PIN_13
 381:Drivers/STM32G4xx_HAL_Driver/Inc/stm32g4xx_ll_gpio.h ****   *         @arg @ref LL_GPIO_PIN_14
 382:Drivers/STM32G4xx_HAL_Driver/Inc/stm32g4xx_ll_gpio.h ****   *         @arg @ref LL_GPIO_PIN_15
 383:Drivers/STM32G4xx_HAL_Driver/Inc/stm32g4xx_ll_gpio.h ****   *         @arg @ref LL_GPIO_PIN_ALL
 384:Drivers/STM32G4xx_HAL_Driver/Inc/stm32g4xx_ll_gpio.h ****   * @retval Returned value can be one of the following values:
 385:Drivers/STM32G4xx_HAL_Driver/Inc/stm32g4xx_ll_gpio.h ****   *         @arg @ref LL_GPIO_OUTPUT_PUSHPULL
 386:Drivers/STM32G4xx_HAL_Driver/Inc/stm32g4xx_ll_gpio.h ****   *         @arg @ref LL_GPIO_OUTPUT_OPENDRAIN
 387:Drivers/STM32G4xx_HAL_Driver/Inc/stm32g4xx_ll_gpio.h ****   */
 388:Drivers/STM32G4xx_HAL_Driver/Inc/stm32g4xx_ll_gpio.h **** __STATIC_INLINE uint32_t LL_GPIO_GetPinOutputType(GPIO_TypeDef *GPIOx, uint32_t Pin)
 389:Drivers/STM32G4xx_HAL_Driver/Inc/stm32g4xx_ll_gpio.h **** {
 390:Drivers/STM32G4xx_HAL_Driver/Inc/stm32g4xx_ll_gpio.h ****   return (uint32_t)(READ_BIT(GPIOx->OTYPER, Pin) >> POSITION_VAL(Pin));
 391:Drivers/STM32G4xx_HAL_Driver/Inc/stm32g4xx_ll_gpio.h **** }
 392:Drivers/STM32G4xx_HAL_Driver/Inc/stm32g4xx_ll_gpio.h **** 
 393:Drivers/STM32G4xx_HAL_Driver/Inc/stm32g4xx_ll_gpio.h **** /**
 394:Drivers/STM32G4xx_HAL_Driver/Inc/stm32g4xx_ll_gpio.h ****   * @brief  Configure gpio speed for a dedicated pin on dedicated port.
 395:Drivers/STM32G4xx_HAL_Driver/Inc/stm32g4xx_ll_gpio.h ****   * @note   I/O speed can be Low, Medium, Fast or High speed.
 396:Drivers/STM32G4xx_HAL_Driver/Inc/stm32g4xx_ll_gpio.h ****   * @note   Warning: only one pin can be passed as parameter.
 397:Drivers/STM32G4xx_HAL_Driver/Inc/stm32g4xx_ll_gpio.h ****   * @note   Refer to datasheet for frequency specifications and the power
 398:Drivers/STM32G4xx_HAL_Driver/Inc/stm32g4xx_ll_gpio.h ****   *         supply and load conditions for each speed.
 399:Drivers/STM32G4xx_HAL_Driver/Inc/stm32g4xx_ll_gpio.h ****   * @rmtoll OSPEEDR      OSPEEDy       LL_GPIO_SetPinSpeed
 400:Drivers/STM32G4xx_HAL_Driver/Inc/stm32g4xx_ll_gpio.h ****   * @param  GPIOx GPIO Port
 401:Drivers/STM32G4xx_HAL_Driver/Inc/stm32g4xx_ll_gpio.h ****   * @param  Pin This parameter can be one of the following values:
 402:Drivers/STM32G4xx_HAL_Driver/Inc/stm32g4xx_ll_gpio.h ****   *         @arg @ref LL_GPIO_PIN_0
 403:Drivers/STM32G4xx_HAL_Driver/Inc/stm32g4xx_ll_gpio.h ****   *         @arg @ref LL_GPIO_PIN_1
 404:Drivers/STM32G4xx_HAL_Driver/Inc/stm32g4xx_ll_gpio.h ****   *         @arg @ref LL_GPIO_PIN_2
 405:Drivers/STM32G4xx_HAL_Driver/Inc/stm32g4xx_ll_gpio.h ****   *         @arg @ref LL_GPIO_PIN_3
 406:Drivers/STM32G4xx_HAL_Driver/Inc/stm32g4xx_ll_gpio.h ****   *         @arg @ref LL_GPIO_PIN_4
 407:Drivers/STM32G4xx_HAL_Driver/Inc/stm32g4xx_ll_gpio.h ****   *         @arg @ref LL_GPIO_PIN_5
 408:Drivers/STM32G4xx_HAL_Driver/Inc/stm32g4xx_ll_gpio.h ****   *         @arg @ref LL_GPIO_PIN_6
 409:Drivers/STM32G4xx_HAL_Driver/Inc/stm32g4xx_ll_gpio.h ****   *         @arg @ref LL_GPIO_PIN_7
 410:Drivers/STM32G4xx_HAL_Driver/Inc/stm32g4xx_ll_gpio.h ****   *         @arg @ref LL_GPIO_PIN_8
 411:Drivers/STM32G4xx_HAL_Driver/Inc/stm32g4xx_ll_gpio.h ****   *         @arg @ref LL_GPIO_PIN_9
 412:Drivers/STM32G4xx_HAL_Driver/Inc/stm32g4xx_ll_gpio.h ****   *         @arg @ref LL_GPIO_PIN_10
 413:Drivers/STM32G4xx_HAL_Driver/Inc/stm32g4xx_ll_gpio.h ****   *         @arg @ref LL_GPIO_PIN_11
ARM GAS  /tmp/ccW8kGEt.s 			page 39


 414:Drivers/STM32G4xx_HAL_Driver/Inc/stm32g4xx_ll_gpio.h ****   *         @arg @ref LL_GPIO_PIN_12
 415:Drivers/STM32G4xx_HAL_Driver/Inc/stm32g4xx_ll_gpio.h ****   *         @arg @ref LL_GPIO_PIN_13
 416:Drivers/STM32G4xx_HAL_Driver/Inc/stm32g4xx_ll_gpio.h ****   *         @arg @ref LL_GPIO_PIN_14
 417:Drivers/STM32G4xx_HAL_Driver/Inc/stm32g4xx_ll_gpio.h ****   *         @arg @ref LL_GPIO_PIN_15
 418:Drivers/STM32G4xx_HAL_Driver/Inc/stm32g4xx_ll_gpio.h ****   * @param  Speed This parameter can be one of the following values:
 419:Drivers/STM32G4xx_HAL_Driver/Inc/stm32g4xx_ll_gpio.h ****   *         @arg @ref LL_GPIO_SPEED_FREQ_LOW
 420:Drivers/STM32G4xx_HAL_Driver/Inc/stm32g4xx_ll_gpio.h ****   *         @arg @ref LL_GPIO_SPEED_FREQ_MEDIUM
 421:Drivers/STM32G4xx_HAL_Driver/Inc/stm32g4xx_ll_gpio.h ****   *         @arg @ref LL_GPIO_SPEED_FREQ_HIGH
 422:Drivers/STM32G4xx_HAL_Driver/Inc/stm32g4xx_ll_gpio.h ****   *         @arg @ref LL_GPIO_SPEED_FREQ_VERY_HIGH
 423:Drivers/STM32G4xx_HAL_Driver/Inc/stm32g4xx_ll_gpio.h ****   * @retval None
 424:Drivers/STM32G4xx_HAL_Driver/Inc/stm32g4xx_ll_gpio.h ****   */
 425:Drivers/STM32G4xx_HAL_Driver/Inc/stm32g4xx_ll_gpio.h **** __STATIC_INLINE void LL_GPIO_SetPinSpeed(GPIO_TypeDef *GPIOx, uint32_t Pin, uint32_t  Speed)
 426:Drivers/STM32G4xx_HAL_Driver/Inc/stm32g4xx_ll_gpio.h **** {
 427:Drivers/STM32G4xx_HAL_Driver/Inc/stm32g4xx_ll_gpio.h ****   MODIFY_REG(GPIOx->OSPEEDR, (GPIO_OSPEEDR_OSPEED0 << (POSITION_VAL(Pin) * 2U)),
 428:Drivers/STM32G4xx_HAL_Driver/Inc/stm32g4xx_ll_gpio.h ****              (Speed << (POSITION_VAL(Pin) * 2U)));
 429:Drivers/STM32G4xx_HAL_Driver/Inc/stm32g4xx_ll_gpio.h **** }
 430:Drivers/STM32G4xx_HAL_Driver/Inc/stm32g4xx_ll_gpio.h **** 
 431:Drivers/STM32G4xx_HAL_Driver/Inc/stm32g4xx_ll_gpio.h **** /**
 432:Drivers/STM32G4xx_HAL_Driver/Inc/stm32g4xx_ll_gpio.h ****   * @brief  Return gpio speed for a dedicated pin on dedicated port.
 433:Drivers/STM32G4xx_HAL_Driver/Inc/stm32g4xx_ll_gpio.h ****   * @note   I/O speed can be Low, Medium, Fast or High speed.
 434:Drivers/STM32G4xx_HAL_Driver/Inc/stm32g4xx_ll_gpio.h ****   * @note   Warning: only one pin can be passed as parameter.
 435:Drivers/STM32G4xx_HAL_Driver/Inc/stm32g4xx_ll_gpio.h ****   * @note   Refer to datasheet for frequency specifications and the power
 436:Drivers/STM32G4xx_HAL_Driver/Inc/stm32g4xx_ll_gpio.h ****   *         supply and load conditions for each speed.
 437:Drivers/STM32G4xx_HAL_Driver/Inc/stm32g4xx_ll_gpio.h ****   * @rmtoll OSPEEDR      OSPEEDy       LL_GPIO_GetPinSpeed
 438:Drivers/STM32G4xx_HAL_Driver/Inc/stm32g4xx_ll_gpio.h ****   * @param  GPIOx GPIO Port
 439:Drivers/STM32G4xx_HAL_Driver/Inc/stm32g4xx_ll_gpio.h ****   * @param  Pin This parameter can be one of the following values:
 440:Drivers/STM32G4xx_HAL_Driver/Inc/stm32g4xx_ll_gpio.h ****   *         @arg @ref LL_GPIO_PIN_0
 441:Drivers/STM32G4xx_HAL_Driver/Inc/stm32g4xx_ll_gpio.h ****   *         @arg @ref LL_GPIO_PIN_1
 442:Drivers/STM32G4xx_HAL_Driver/Inc/stm32g4xx_ll_gpio.h ****   *         @arg @ref LL_GPIO_PIN_2
 443:Drivers/STM32G4xx_HAL_Driver/Inc/stm32g4xx_ll_gpio.h ****   *         @arg @ref LL_GPIO_PIN_3
 444:Drivers/STM32G4xx_HAL_Driver/Inc/stm32g4xx_ll_gpio.h ****   *         @arg @ref LL_GPIO_PIN_4
 445:Drivers/STM32G4xx_HAL_Driver/Inc/stm32g4xx_ll_gpio.h ****   *         @arg @ref LL_GPIO_PIN_5
 446:Drivers/STM32G4xx_HAL_Driver/Inc/stm32g4xx_ll_gpio.h ****   *         @arg @ref LL_GPIO_PIN_6
 447:Drivers/STM32G4xx_HAL_Driver/Inc/stm32g4xx_ll_gpio.h ****   *         @arg @ref LL_GPIO_PIN_7
 448:Drivers/STM32G4xx_HAL_Driver/Inc/stm32g4xx_ll_gpio.h ****   *         @arg @ref LL_GPIO_PIN_8
 449:Drivers/STM32G4xx_HAL_Driver/Inc/stm32g4xx_ll_gpio.h ****   *         @arg @ref LL_GPIO_PIN_9
 450:Drivers/STM32G4xx_HAL_Driver/Inc/stm32g4xx_ll_gpio.h ****   *         @arg @ref LL_GPIO_PIN_10
 451:Drivers/STM32G4xx_HAL_Driver/Inc/stm32g4xx_ll_gpio.h ****   *         @arg @ref LL_GPIO_PIN_11
 452:Drivers/STM32G4xx_HAL_Driver/Inc/stm32g4xx_ll_gpio.h ****   *         @arg @ref LL_GPIO_PIN_12
 453:Drivers/STM32G4xx_HAL_Driver/Inc/stm32g4xx_ll_gpio.h ****   *         @arg @ref LL_GPIO_PIN_13
 454:Drivers/STM32G4xx_HAL_Driver/Inc/stm32g4xx_ll_gpio.h ****   *         @arg @ref LL_GPIO_PIN_14
 455:Drivers/STM32G4xx_HAL_Driver/Inc/stm32g4xx_ll_gpio.h ****   *         @arg @ref LL_GPIO_PIN_15
 456:Drivers/STM32G4xx_HAL_Driver/Inc/stm32g4xx_ll_gpio.h ****   * @retval Returned value can be one of the following values:
 457:Drivers/STM32G4xx_HAL_Driver/Inc/stm32g4xx_ll_gpio.h ****   *         @arg @ref LL_GPIO_SPEED_FREQ_LOW
 458:Drivers/STM32G4xx_HAL_Driver/Inc/stm32g4xx_ll_gpio.h ****   *         @arg @ref LL_GPIO_SPEED_FREQ_MEDIUM
 459:Drivers/STM32G4xx_HAL_Driver/Inc/stm32g4xx_ll_gpio.h ****   *         @arg @ref LL_GPIO_SPEED_FREQ_HIGH
 460:Drivers/STM32G4xx_HAL_Driver/Inc/stm32g4xx_ll_gpio.h ****   *         @arg @ref LL_GPIO_SPEED_FREQ_VERY_HIGH
 461:Drivers/STM32G4xx_HAL_Driver/Inc/stm32g4xx_ll_gpio.h ****   */
 462:Drivers/STM32G4xx_HAL_Driver/Inc/stm32g4xx_ll_gpio.h **** __STATIC_INLINE uint32_t LL_GPIO_GetPinSpeed(GPIO_TypeDef *GPIOx, uint32_t Pin)
 463:Drivers/STM32G4xx_HAL_Driver/Inc/stm32g4xx_ll_gpio.h **** {
 464:Drivers/STM32G4xx_HAL_Driver/Inc/stm32g4xx_ll_gpio.h ****   return (uint32_t)(READ_BIT(GPIOx->OSPEEDR,
 465:Drivers/STM32G4xx_HAL_Driver/Inc/stm32g4xx_ll_gpio.h ****                              (GPIO_OSPEEDR_OSPEED0 << (POSITION_VAL(Pin) * 2U))) >> (POSITION_VAL(P
 466:Drivers/STM32G4xx_HAL_Driver/Inc/stm32g4xx_ll_gpio.h **** }
 467:Drivers/STM32G4xx_HAL_Driver/Inc/stm32g4xx_ll_gpio.h **** 
 468:Drivers/STM32G4xx_HAL_Driver/Inc/stm32g4xx_ll_gpio.h **** /**
 469:Drivers/STM32G4xx_HAL_Driver/Inc/stm32g4xx_ll_gpio.h ****   * @brief  Configure gpio pull-up or pull-down for a dedicated pin on a dedicated port.
 470:Drivers/STM32G4xx_HAL_Driver/Inc/stm32g4xx_ll_gpio.h ****   * @note   Warning: only one pin can be passed as parameter.
ARM GAS  /tmp/ccW8kGEt.s 			page 40


 471:Drivers/STM32G4xx_HAL_Driver/Inc/stm32g4xx_ll_gpio.h ****   * @rmtoll PUPDR        PUPDy         LL_GPIO_SetPinPull
 472:Drivers/STM32G4xx_HAL_Driver/Inc/stm32g4xx_ll_gpio.h ****   * @param  GPIOx GPIO Port
 473:Drivers/STM32G4xx_HAL_Driver/Inc/stm32g4xx_ll_gpio.h ****   * @param  Pin This parameter can be one of the following values:
 474:Drivers/STM32G4xx_HAL_Driver/Inc/stm32g4xx_ll_gpio.h ****   *         @arg @ref LL_GPIO_PIN_0
 475:Drivers/STM32G4xx_HAL_Driver/Inc/stm32g4xx_ll_gpio.h ****   *         @arg @ref LL_GPIO_PIN_1
 476:Drivers/STM32G4xx_HAL_Driver/Inc/stm32g4xx_ll_gpio.h ****   *         @arg @ref LL_GPIO_PIN_2
 477:Drivers/STM32G4xx_HAL_Driver/Inc/stm32g4xx_ll_gpio.h ****   *         @arg @ref LL_GPIO_PIN_3
 478:Drivers/STM32G4xx_HAL_Driver/Inc/stm32g4xx_ll_gpio.h ****   *         @arg @ref LL_GPIO_PIN_4
 479:Drivers/STM32G4xx_HAL_Driver/Inc/stm32g4xx_ll_gpio.h ****   *         @arg @ref LL_GPIO_PIN_5
 480:Drivers/STM32G4xx_HAL_Driver/Inc/stm32g4xx_ll_gpio.h ****   *         @arg @ref LL_GPIO_PIN_6
 481:Drivers/STM32G4xx_HAL_Driver/Inc/stm32g4xx_ll_gpio.h ****   *         @arg @ref LL_GPIO_PIN_7
 482:Drivers/STM32G4xx_HAL_Driver/Inc/stm32g4xx_ll_gpio.h ****   *         @arg @ref LL_GPIO_PIN_8
 483:Drivers/STM32G4xx_HAL_Driver/Inc/stm32g4xx_ll_gpio.h ****   *         @arg @ref LL_GPIO_PIN_9
 484:Drivers/STM32G4xx_HAL_Driver/Inc/stm32g4xx_ll_gpio.h ****   *         @arg @ref LL_GPIO_PIN_10
 485:Drivers/STM32G4xx_HAL_Driver/Inc/stm32g4xx_ll_gpio.h ****   *         @arg @ref LL_GPIO_PIN_11
 486:Drivers/STM32G4xx_HAL_Driver/Inc/stm32g4xx_ll_gpio.h ****   *         @arg @ref LL_GPIO_PIN_12
 487:Drivers/STM32G4xx_HAL_Driver/Inc/stm32g4xx_ll_gpio.h ****   *         @arg @ref LL_GPIO_PIN_13
 488:Drivers/STM32G4xx_HAL_Driver/Inc/stm32g4xx_ll_gpio.h ****   *         @arg @ref LL_GPIO_PIN_14
 489:Drivers/STM32G4xx_HAL_Driver/Inc/stm32g4xx_ll_gpio.h ****   *         @arg @ref LL_GPIO_PIN_15
 490:Drivers/STM32G4xx_HAL_Driver/Inc/stm32g4xx_ll_gpio.h ****   * @param  Pull This parameter can be one of the following values:
 491:Drivers/STM32G4xx_HAL_Driver/Inc/stm32g4xx_ll_gpio.h ****   *         @arg @ref LL_GPIO_PULL_NO
 492:Drivers/STM32G4xx_HAL_Driver/Inc/stm32g4xx_ll_gpio.h ****   *         @arg @ref LL_GPIO_PULL_UP
 493:Drivers/STM32G4xx_HAL_Driver/Inc/stm32g4xx_ll_gpio.h ****   *         @arg @ref LL_GPIO_PULL_DOWN
 494:Drivers/STM32G4xx_HAL_Driver/Inc/stm32g4xx_ll_gpio.h ****   * @retval None
 495:Drivers/STM32G4xx_HAL_Driver/Inc/stm32g4xx_ll_gpio.h ****   */
 496:Drivers/STM32G4xx_HAL_Driver/Inc/stm32g4xx_ll_gpio.h **** __STATIC_INLINE void LL_GPIO_SetPinPull(GPIO_TypeDef *GPIOx, uint32_t Pin, uint32_t Pull)
 497:Drivers/STM32G4xx_HAL_Driver/Inc/stm32g4xx_ll_gpio.h **** {
 498:Drivers/STM32G4xx_HAL_Driver/Inc/stm32g4xx_ll_gpio.h ****   MODIFY_REG(GPIOx->PUPDR, (GPIO_PUPDR_PUPD0 << (POSITION_VAL(Pin) * 2U)), (Pull << (POSITION_VAL(P
 499:Drivers/STM32G4xx_HAL_Driver/Inc/stm32g4xx_ll_gpio.h **** }
 500:Drivers/STM32G4xx_HAL_Driver/Inc/stm32g4xx_ll_gpio.h **** 
 501:Drivers/STM32G4xx_HAL_Driver/Inc/stm32g4xx_ll_gpio.h **** /**
 502:Drivers/STM32G4xx_HAL_Driver/Inc/stm32g4xx_ll_gpio.h ****   * @brief  Return gpio pull-up or pull-down for a dedicated pin on a dedicated port
 503:Drivers/STM32G4xx_HAL_Driver/Inc/stm32g4xx_ll_gpio.h ****   * @note   Warning: only one pin can be passed as parameter.
 504:Drivers/STM32G4xx_HAL_Driver/Inc/stm32g4xx_ll_gpio.h ****   * @rmtoll PUPDR        PUPDy         LL_GPIO_GetPinPull
 505:Drivers/STM32G4xx_HAL_Driver/Inc/stm32g4xx_ll_gpio.h ****   * @param  GPIOx GPIO Port
 506:Drivers/STM32G4xx_HAL_Driver/Inc/stm32g4xx_ll_gpio.h ****   * @param  Pin This parameter can be one of the following values:
 507:Drivers/STM32G4xx_HAL_Driver/Inc/stm32g4xx_ll_gpio.h ****   *         @arg @ref LL_GPIO_PIN_0
 508:Drivers/STM32G4xx_HAL_Driver/Inc/stm32g4xx_ll_gpio.h ****   *         @arg @ref LL_GPIO_PIN_1
 509:Drivers/STM32G4xx_HAL_Driver/Inc/stm32g4xx_ll_gpio.h ****   *         @arg @ref LL_GPIO_PIN_2
 510:Drivers/STM32G4xx_HAL_Driver/Inc/stm32g4xx_ll_gpio.h ****   *         @arg @ref LL_GPIO_PIN_3
 511:Drivers/STM32G4xx_HAL_Driver/Inc/stm32g4xx_ll_gpio.h ****   *         @arg @ref LL_GPIO_PIN_4
 512:Drivers/STM32G4xx_HAL_Driver/Inc/stm32g4xx_ll_gpio.h ****   *         @arg @ref LL_GPIO_PIN_5
 513:Drivers/STM32G4xx_HAL_Driver/Inc/stm32g4xx_ll_gpio.h ****   *         @arg @ref LL_GPIO_PIN_6
 514:Drivers/STM32G4xx_HAL_Driver/Inc/stm32g4xx_ll_gpio.h ****   *         @arg @ref LL_GPIO_PIN_7
 515:Drivers/STM32G4xx_HAL_Driver/Inc/stm32g4xx_ll_gpio.h ****   *         @arg @ref LL_GPIO_PIN_8
 516:Drivers/STM32G4xx_HAL_Driver/Inc/stm32g4xx_ll_gpio.h ****   *         @arg @ref LL_GPIO_PIN_9
 517:Drivers/STM32G4xx_HAL_Driver/Inc/stm32g4xx_ll_gpio.h ****   *         @arg @ref LL_GPIO_PIN_10
 518:Drivers/STM32G4xx_HAL_Driver/Inc/stm32g4xx_ll_gpio.h ****   *         @arg @ref LL_GPIO_PIN_11
 519:Drivers/STM32G4xx_HAL_Driver/Inc/stm32g4xx_ll_gpio.h ****   *         @arg @ref LL_GPIO_PIN_12
 520:Drivers/STM32G4xx_HAL_Driver/Inc/stm32g4xx_ll_gpio.h ****   *         @arg @ref LL_GPIO_PIN_13
 521:Drivers/STM32G4xx_HAL_Driver/Inc/stm32g4xx_ll_gpio.h ****   *         @arg @ref LL_GPIO_PIN_14
 522:Drivers/STM32G4xx_HAL_Driver/Inc/stm32g4xx_ll_gpio.h ****   *         @arg @ref LL_GPIO_PIN_15
 523:Drivers/STM32G4xx_HAL_Driver/Inc/stm32g4xx_ll_gpio.h ****   * @retval Returned value can be one of the following values:
 524:Drivers/STM32G4xx_HAL_Driver/Inc/stm32g4xx_ll_gpio.h ****   *         @arg @ref LL_GPIO_PULL_NO
 525:Drivers/STM32G4xx_HAL_Driver/Inc/stm32g4xx_ll_gpio.h ****   *         @arg @ref LL_GPIO_PULL_UP
 526:Drivers/STM32G4xx_HAL_Driver/Inc/stm32g4xx_ll_gpio.h ****   *         @arg @ref LL_GPIO_PULL_DOWN
 527:Drivers/STM32G4xx_HAL_Driver/Inc/stm32g4xx_ll_gpio.h ****   */
ARM GAS  /tmp/ccW8kGEt.s 			page 41


 528:Drivers/STM32G4xx_HAL_Driver/Inc/stm32g4xx_ll_gpio.h **** __STATIC_INLINE uint32_t LL_GPIO_GetPinPull(GPIO_TypeDef *GPIOx, uint32_t Pin)
 529:Drivers/STM32G4xx_HAL_Driver/Inc/stm32g4xx_ll_gpio.h **** {
 530:Drivers/STM32G4xx_HAL_Driver/Inc/stm32g4xx_ll_gpio.h ****   return (uint32_t)(READ_BIT(GPIOx->PUPDR,
 531:Drivers/STM32G4xx_HAL_Driver/Inc/stm32g4xx_ll_gpio.h ****                              (GPIO_PUPDR_PUPD0 << (POSITION_VAL(Pin) * 2U))) >> (POSITION_VAL(Pin) 
 532:Drivers/STM32G4xx_HAL_Driver/Inc/stm32g4xx_ll_gpio.h **** }
 533:Drivers/STM32G4xx_HAL_Driver/Inc/stm32g4xx_ll_gpio.h **** 
 534:Drivers/STM32G4xx_HAL_Driver/Inc/stm32g4xx_ll_gpio.h **** /**
 535:Drivers/STM32G4xx_HAL_Driver/Inc/stm32g4xx_ll_gpio.h ****   * @brief  Configure gpio alternate function of a dedicated pin from 0 to 7 for a dedicated port.
 536:Drivers/STM32G4xx_HAL_Driver/Inc/stm32g4xx_ll_gpio.h ****   * @note   Possible values are from AF0 to AF15 depending on target.
 537:Drivers/STM32G4xx_HAL_Driver/Inc/stm32g4xx_ll_gpio.h ****   * @note   Warning: only one pin can be passed as parameter.
 538:Drivers/STM32G4xx_HAL_Driver/Inc/stm32g4xx_ll_gpio.h ****   * @rmtoll AFRL         AFSELy        LL_GPIO_SetAFPin_0_7
 539:Drivers/STM32G4xx_HAL_Driver/Inc/stm32g4xx_ll_gpio.h ****   * @param  GPIOx GPIO Port
 540:Drivers/STM32G4xx_HAL_Driver/Inc/stm32g4xx_ll_gpio.h ****   * @param  Pin This parameter can be one of the following values:
 541:Drivers/STM32G4xx_HAL_Driver/Inc/stm32g4xx_ll_gpio.h ****   *         @arg @ref LL_GPIO_PIN_0
 542:Drivers/STM32G4xx_HAL_Driver/Inc/stm32g4xx_ll_gpio.h ****   *         @arg @ref LL_GPIO_PIN_1
 543:Drivers/STM32G4xx_HAL_Driver/Inc/stm32g4xx_ll_gpio.h ****   *         @arg @ref LL_GPIO_PIN_2
 544:Drivers/STM32G4xx_HAL_Driver/Inc/stm32g4xx_ll_gpio.h ****   *         @arg @ref LL_GPIO_PIN_3
 545:Drivers/STM32G4xx_HAL_Driver/Inc/stm32g4xx_ll_gpio.h ****   *         @arg @ref LL_GPIO_PIN_4
 546:Drivers/STM32G4xx_HAL_Driver/Inc/stm32g4xx_ll_gpio.h ****   *         @arg @ref LL_GPIO_PIN_5
 547:Drivers/STM32G4xx_HAL_Driver/Inc/stm32g4xx_ll_gpio.h ****   *         @arg @ref LL_GPIO_PIN_6
 548:Drivers/STM32G4xx_HAL_Driver/Inc/stm32g4xx_ll_gpio.h ****   *         @arg @ref LL_GPIO_PIN_7
 549:Drivers/STM32G4xx_HAL_Driver/Inc/stm32g4xx_ll_gpio.h ****   * @param  Alternate This parameter can be one of the following values:
 550:Drivers/STM32G4xx_HAL_Driver/Inc/stm32g4xx_ll_gpio.h ****   *         @arg @ref LL_GPIO_AF_0
 551:Drivers/STM32G4xx_HAL_Driver/Inc/stm32g4xx_ll_gpio.h ****   *         @arg @ref LL_GPIO_AF_1
 552:Drivers/STM32G4xx_HAL_Driver/Inc/stm32g4xx_ll_gpio.h ****   *         @arg @ref LL_GPIO_AF_2
 553:Drivers/STM32G4xx_HAL_Driver/Inc/stm32g4xx_ll_gpio.h ****   *         @arg @ref LL_GPIO_AF_3
 554:Drivers/STM32G4xx_HAL_Driver/Inc/stm32g4xx_ll_gpio.h ****   *         @arg @ref LL_GPIO_AF_4
 555:Drivers/STM32G4xx_HAL_Driver/Inc/stm32g4xx_ll_gpio.h ****   *         @arg @ref LL_GPIO_AF_5
 556:Drivers/STM32G4xx_HAL_Driver/Inc/stm32g4xx_ll_gpio.h ****   *         @arg @ref LL_GPIO_AF_6
 557:Drivers/STM32G4xx_HAL_Driver/Inc/stm32g4xx_ll_gpio.h ****   *         @arg @ref LL_GPIO_AF_7
 558:Drivers/STM32G4xx_HAL_Driver/Inc/stm32g4xx_ll_gpio.h ****   *         @arg @ref LL_GPIO_AF_8
 559:Drivers/STM32G4xx_HAL_Driver/Inc/stm32g4xx_ll_gpio.h ****   *         @arg @ref LL_GPIO_AF_9
 560:Drivers/STM32G4xx_HAL_Driver/Inc/stm32g4xx_ll_gpio.h ****   *         @arg @ref LL_GPIO_AF_10
 561:Drivers/STM32G4xx_HAL_Driver/Inc/stm32g4xx_ll_gpio.h ****   *         @arg @ref LL_GPIO_AF_11
 562:Drivers/STM32G4xx_HAL_Driver/Inc/stm32g4xx_ll_gpio.h ****   *         @arg @ref LL_GPIO_AF_12
 563:Drivers/STM32G4xx_HAL_Driver/Inc/stm32g4xx_ll_gpio.h ****   *         @arg @ref LL_GPIO_AF_13
 564:Drivers/STM32G4xx_HAL_Driver/Inc/stm32g4xx_ll_gpio.h ****   *         @arg @ref LL_GPIO_AF_14
 565:Drivers/STM32G4xx_HAL_Driver/Inc/stm32g4xx_ll_gpio.h ****   *         @arg @ref LL_GPIO_AF_15
 566:Drivers/STM32G4xx_HAL_Driver/Inc/stm32g4xx_ll_gpio.h ****   * @retval None
 567:Drivers/STM32G4xx_HAL_Driver/Inc/stm32g4xx_ll_gpio.h ****   */
 568:Drivers/STM32G4xx_HAL_Driver/Inc/stm32g4xx_ll_gpio.h **** __STATIC_INLINE void LL_GPIO_SetAFPin_0_7(GPIO_TypeDef *GPIOx, uint32_t Pin, uint32_t Alternate)
 569:Drivers/STM32G4xx_HAL_Driver/Inc/stm32g4xx_ll_gpio.h **** {
 570:Drivers/STM32G4xx_HAL_Driver/Inc/stm32g4xx_ll_gpio.h ****   MODIFY_REG(GPIOx->AFR[0], (GPIO_AFRL_AFSEL0 << (POSITION_VAL(Pin) * 4U)),
 571:Drivers/STM32G4xx_HAL_Driver/Inc/stm32g4xx_ll_gpio.h ****              (Alternate << (POSITION_VAL(Pin) * 4U)));
 572:Drivers/STM32G4xx_HAL_Driver/Inc/stm32g4xx_ll_gpio.h **** }
 573:Drivers/STM32G4xx_HAL_Driver/Inc/stm32g4xx_ll_gpio.h **** 
 574:Drivers/STM32G4xx_HAL_Driver/Inc/stm32g4xx_ll_gpio.h **** /**
 575:Drivers/STM32G4xx_HAL_Driver/Inc/stm32g4xx_ll_gpio.h ****   * @brief  Return gpio alternate function of a dedicated pin from 0 to 7 for a dedicated port.
 576:Drivers/STM32G4xx_HAL_Driver/Inc/stm32g4xx_ll_gpio.h ****   * @rmtoll AFRL         AFSELy        LL_GPIO_GetAFPin_0_7
 577:Drivers/STM32G4xx_HAL_Driver/Inc/stm32g4xx_ll_gpio.h ****   * @param  GPIOx GPIO Port
 578:Drivers/STM32G4xx_HAL_Driver/Inc/stm32g4xx_ll_gpio.h ****   * @param  Pin This parameter can be one of the following values:
 579:Drivers/STM32G4xx_HAL_Driver/Inc/stm32g4xx_ll_gpio.h ****   *         @arg @ref LL_GPIO_PIN_0
 580:Drivers/STM32G4xx_HAL_Driver/Inc/stm32g4xx_ll_gpio.h ****   *         @arg @ref LL_GPIO_PIN_1
 581:Drivers/STM32G4xx_HAL_Driver/Inc/stm32g4xx_ll_gpio.h ****   *         @arg @ref LL_GPIO_PIN_2
 582:Drivers/STM32G4xx_HAL_Driver/Inc/stm32g4xx_ll_gpio.h ****   *         @arg @ref LL_GPIO_PIN_3
 583:Drivers/STM32G4xx_HAL_Driver/Inc/stm32g4xx_ll_gpio.h ****   *         @arg @ref LL_GPIO_PIN_4
 584:Drivers/STM32G4xx_HAL_Driver/Inc/stm32g4xx_ll_gpio.h ****   *         @arg @ref LL_GPIO_PIN_5
ARM GAS  /tmp/ccW8kGEt.s 			page 42


 585:Drivers/STM32G4xx_HAL_Driver/Inc/stm32g4xx_ll_gpio.h ****   *         @arg @ref LL_GPIO_PIN_6
 586:Drivers/STM32G4xx_HAL_Driver/Inc/stm32g4xx_ll_gpio.h ****   *         @arg @ref LL_GPIO_PIN_7
 587:Drivers/STM32G4xx_HAL_Driver/Inc/stm32g4xx_ll_gpio.h ****   * @retval Returned value can be one of the following values:
 588:Drivers/STM32G4xx_HAL_Driver/Inc/stm32g4xx_ll_gpio.h ****   *         @arg @ref LL_GPIO_AF_0
 589:Drivers/STM32G4xx_HAL_Driver/Inc/stm32g4xx_ll_gpio.h ****   *         @arg @ref LL_GPIO_AF_1
 590:Drivers/STM32G4xx_HAL_Driver/Inc/stm32g4xx_ll_gpio.h ****   *         @arg @ref LL_GPIO_AF_2
 591:Drivers/STM32G4xx_HAL_Driver/Inc/stm32g4xx_ll_gpio.h ****   *         @arg @ref LL_GPIO_AF_3
 592:Drivers/STM32G4xx_HAL_Driver/Inc/stm32g4xx_ll_gpio.h ****   *         @arg @ref LL_GPIO_AF_4
 593:Drivers/STM32G4xx_HAL_Driver/Inc/stm32g4xx_ll_gpio.h ****   *         @arg @ref LL_GPIO_AF_5
 594:Drivers/STM32G4xx_HAL_Driver/Inc/stm32g4xx_ll_gpio.h ****   *         @arg @ref LL_GPIO_AF_6
 595:Drivers/STM32G4xx_HAL_Driver/Inc/stm32g4xx_ll_gpio.h ****   *         @arg @ref LL_GPIO_AF_7
 596:Drivers/STM32G4xx_HAL_Driver/Inc/stm32g4xx_ll_gpio.h ****   *         @arg @ref LL_GPIO_AF_8
 597:Drivers/STM32G4xx_HAL_Driver/Inc/stm32g4xx_ll_gpio.h ****   *         @arg @ref LL_GPIO_AF_9
 598:Drivers/STM32G4xx_HAL_Driver/Inc/stm32g4xx_ll_gpio.h ****   *         @arg @ref LL_GPIO_AF_10
 599:Drivers/STM32G4xx_HAL_Driver/Inc/stm32g4xx_ll_gpio.h ****   *         @arg @ref LL_GPIO_AF_11
 600:Drivers/STM32G4xx_HAL_Driver/Inc/stm32g4xx_ll_gpio.h ****   *         @arg @ref LL_GPIO_AF_12
 601:Drivers/STM32G4xx_HAL_Driver/Inc/stm32g4xx_ll_gpio.h ****   *         @arg @ref LL_GPIO_AF_13
 602:Drivers/STM32G4xx_HAL_Driver/Inc/stm32g4xx_ll_gpio.h ****   *         @arg @ref LL_GPIO_AF_14
 603:Drivers/STM32G4xx_HAL_Driver/Inc/stm32g4xx_ll_gpio.h ****   *         @arg @ref LL_GPIO_AF_15
 604:Drivers/STM32G4xx_HAL_Driver/Inc/stm32g4xx_ll_gpio.h ****   */
 605:Drivers/STM32G4xx_HAL_Driver/Inc/stm32g4xx_ll_gpio.h **** __STATIC_INLINE uint32_t LL_GPIO_GetAFPin_0_7(GPIO_TypeDef *GPIOx, uint32_t Pin)
 606:Drivers/STM32G4xx_HAL_Driver/Inc/stm32g4xx_ll_gpio.h **** {
 607:Drivers/STM32G4xx_HAL_Driver/Inc/stm32g4xx_ll_gpio.h ****   return (uint32_t)(READ_BIT(GPIOx->AFR[0],
 608:Drivers/STM32G4xx_HAL_Driver/Inc/stm32g4xx_ll_gpio.h ****                              (GPIO_AFRL_AFSEL0 << (POSITION_VAL(Pin) * 4U))) >> (POSITION_VAL(Pin) 
 609:Drivers/STM32G4xx_HAL_Driver/Inc/stm32g4xx_ll_gpio.h **** }
 610:Drivers/STM32G4xx_HAL_Driver/Inc/stm32g4xx_ll_gpio.h **** 
 611:Drivers/STM32G4xx_HAL_Driver/Inc/stm32g4xx_ll_gpio.h **** /**
 612:Drivers/STM32G4xx_HAL_Driver/Inc/stm32g4xx_ll_gpio.h ****   * @brief  Configure gpio alternate function of a dedicated pin from 8 to 15 for a dedicated port.
 613:Drivers/STM32G4xx_HAL_Driver/Inc/stm32g4xx_ll_gpio.h ****   * @note   Possible values are from AF0 to AF15 depending on target.
 614:Drivers/STM32G4xx_HAL_Driver/Inc/stm32g4xx_ll_gpio.h ****   * @note   Warning: only one pin can be passed as parameter.
 615:Drivers/STM32G4xx_HAL_Driver/Inc/stm32g4xx_ll_gpio.h ****   * @rmtoll AFRH         AFSELy        LL_GPIO_SetAFPin_8_15
 616:Drivers/STM32G4xx_HAL_Driver/Inc/stm32g4xx_ll_gpio.h ****   * @param  GPIOx GPIO Port
 617:Drivers/STM32G4xx_HAL_Driver/Inc/stm32g4xx_ll_gpio.h ****   * @param  Pin This parameter can be one of the following values:
 618:Drivers/STM32G4xx_HAL_Driver/Inc/stm32g4xx_ll_gpio.h ****   *         @arg @ref LL_GPIO_PIN_8
 619:Drivers/STM32G4xx_HAL_Driver/Inc/stm32g4xx_ll_gpio.h ****   *         @arg @ref LL_GPIO_PIN_9
 620:Drivers/STM32G4xx_HAL_Driver/Inc/stm32g4xx_ll_gpio.h ****   *         @arg @ref LL_GPIO_PIN_10
 621:Drivers/STM32G4xx_HAL_Driver/Inc/stm32g4xx_ll_gpio.h ****   *         @arg @ref LL_GPIO_PIN_11
 622:Drivers/STM32G4xx_HAL_Driver/Inc/stm32g4xx_ll_gpio.h ****   *         @arg @ref LL_GPIO_PIN_12
 623:Drivers/STM32G4xx_HAL_Driver/Inc/stm32g4xx_ll_gpio.h ****   *         @arg @ref LL_GPIO_PIN_13
 624:Drivers/STM32G4xx_HAL_Driver/Inc/stm32g4xx_ll_gpio.h ****   *         @arg @ref LL_GPIO_PIN_14
 625:Drivers/STM32G4xx_HAL_Driver/Inc/stm32g4xx_ll_gpio.h ****   *         @arg @ref LL_GPIO_PIN_15
 626:Drivers/STM32G4xx_HAL_Driver/Inc/stm32g4xx_ll_gpio.h ****   * @param  Alternate This parameter can be one of the following values:
 627:Drivers/STM32G4xx_HAL_Driver/Inc/stm32g4xx_ll_gpio.h ****   *         @arg @ref LL_GPIO_AF_0
 628:Drivers/STM32G4xx_HAL_Driver/Inc/stm32g4xx_ll_gpio.h ****   *         @arg @ref LL_GPIO_AF_1
 629:Drivers/STM32G4xx_HAL_Driver/Inc/stm32g4xx_ll_gpio.h ****   *         @arg @ref LL_GPIO_AF_2
 630:Drivers/STM32G4xx_HAL_Driver/Inc/stm32g4xx_ll_gpio.h ****   *         @arg @ref LL_GPIO_AF_3
 631:Drivers/STM32G4xx_HAL_Driver/Inc/stm32g4xx_ll_gpio.h ****   *         @arg @ref LL_GPIO_AF_4
 632:Drivers/STM32G4xx_HAL_Driver/Inc/stm32g4xx_ll_gpio.h ****   *         @arg @ref LL_GPIO_AF_5
 633:Drivers/STM32G4xx_HAL_Driver/Inc/stm32g4xx_ll_gpio.h ****   *         @arg @ref LL_GPIO_AF_6
 634:Drivers/STM32G4xx_HAL_Driver/Inc/stm32g4xx_ll_gpio.h ****   *         @arg @ref LL_GPIO_AF_7
 635:Drivers/STM32G4xx_HAL_Driver/Inc/stm32g4xx_ll_gpio.h ****   *         @arg @ref LL_GPIO_AF_8
 636:Drivers/STM32G4xx_HAL_Driver/Inc/stm32g4xx_ll_gpio.h ****   *         @arg @ref LL_GPIO_AF_9
 637:Drivers/STM32G4xx_HAL_Driver/Inc/stm32g4xx_ll_gpio.h ****   *         @arg @ref LL_GPIO_AF_10
 638:Drivers/STM32G4xx_HAL_Driver/Inc/stm32g4xx_ll_gpio.h ****   *         @arg @ref LL_GPIO_AF_11
 639:Drivers/STM32G4xx_HAL_Driver/Inc/stm32g4xx_ll_gpio.h ****   *         @arg @ref LL_GPIO_AF_12
 640:Drivers/STM32G4xx_HAL_Driver/Inc/stm32g4xx_ll_gpio.h ****   *         @arg @ref LL_GPIO_AF_13
 641:Drivers/STM32G4xx_HAL_Driver/Inc/stm32g4xx_ll_gpio.h ****   *         @arg @ref LL_GPIO_AF_14
ARM GAS  /tmp/ccW8kGEt.s 			page 43


 642:Drivers/STM32G4xx_HAL_Driver/Inc/stm32g4xx_ll_gpio.h ****   *         @arg @ref LL_GPIO_AF_15
 643:Drivers/STM32G4xx_HAL_Driver/Inc/stm32g4xx_ll_gpio.h ****   * @retval None
 644:Drivers/STM32G4xx_HAL_Driver/Inc/stm32g4xx_ll_gpio.h ****   */
 645:Drivers/STM32G4xx_HAL_Driver/Inc/stm32g4xx_ll_gpio.h **** __STATIC_INLINE void LL_GPIO_SetAFPin_8_15(GPIO_TypeDef *GPIOx, uint32_t Pin, uint32_t Alternate)
 646:Drivers/STM32G4xx_HAL_Driver/Inc/stm32g4xx_ll_gpio.h **** {
 647:Drivers/STM32G4xx_HAL_Driver/Inc/stm32g4xx_ll_gpio.h ****   MODIFY_REG(GPIOx->AFR[1], (GPIO_AFRH_AFSEL8 << (POSITION_VAL(Pin >> 8U) * 4U)),
 648:Drivers/STM32G4xx_HAL_Driver/Inc/stm32g4xx_ll_gpio.h ****              (Alternate << (POSITION_VAL(Pin >> 8U) * 4U)));
 649:Drivers/STM32G4xx_HAL_Driver/Inc/stm32g4xx_ll_gpio.h **** }
 650:Drivers/STM32G4xx_HAL_Driver/Inc/stm32g4xx_ll_gpio.h **** 
 651:Drivers/STM32G4xx_HAL_Driver/Inc/stm32g4xx_ll_gpio.h **** /**
 652:Drivers/STM32G4xx_HAL_Driver/Inc/stm32g4xx_ll_gpio.h ****   * @brief  Return gpio alternate function of a dedicated pin from 8 to 15 for a dedicated port.
 653:Drivers/STM32G4xx_HAL_Driver/Inc/stm32g4xx_ll_gpio.h ****   * @note   Possible values are from AF0 to AF15 depending on target.
 654:Drivers/STM32G4xx_HAL_Driver/Inc/stm32g4xx_ll_gpio.h ****   * @rmtoll AFRH         AFSELy        LL_GPIO_GetAFPin_8_15
 655:Drivers/STM32G4xx_HAL_Driver/Inc/stm32g4xx_ll_gpio.h ****   * @param  GPIOx GPIO Port
 656:Drivers/STM32G4xx_HAL_Driver/Inc/stm32g4xx_ll_gpio.h ****   * @param  Pin This parameter can be one of the following values:
 657:Drivers/STM32G4xx_HAL_Driver/Inc/stm32g4xx_ll_gpio.h ****   *         @arg @ref LL_GPIO_PIN_8
 658:Drivers/STM32G4xx_HAL_Driver/Inc/stm32g4xx_ll_gpio.h ****   *         @arg @ref LL_GPIO_PIN_9
 659:Drivers/STM32G4xx_HAL_Driver/Inc/stm32g4xx_ll_gpio.h ****   *         @arg @ref LL_GPIO_PIN_10
 660:Drivers/STM32G4xx_HAL_Driver/Inc/stm32g4xx_ll_gpio.h ****   *         @arg @ref LL_GPIO_PIN_11
 661:Drivers/STM32G4xx_HAL_Driver/Inc/stm32g4xx_ll_gpio.h ****   *         @arg @ref LL_GPIO_PIN_12
 662:Drivers/STM32G4xx_HAL_Driver/Inc/stm32g4xx_ll_gpio.h ****   *         @arg @ref LL_GPIO_PIN_13
 663:Drivers/STM32G4xx_HAL_Driver/Inc/stm32g4xx_ll_gpio.h ****   *         @arg @ref LL_GPIO_PIN_14
 664:Drivers/STM32G4xx_HAL_Driver/Inc/stm32g4xx_ll_gpio.h ****   *         @arg @ref LL_GPIO_PIN_15
 665:Drivers/STM32G4xx_HAL_Driver/Inc/stm32g4xx_ll_gpio.h ****   * @retval Returned value can be one of the following values:
 666:Drivers/STM32G4xx_HAL_Driver/Inc/stm32g4xx_ll_gpio.h ****   *         @arg @ref LL_GPIO_AF_0
 667:Drivers/STM32G4xx_HAL_Driver/Inc/stm32g4xx_ll_gpio.h ****   *         @arg @ref LL_GPIO_AF_1
 668:Drivers/STM32G4xx_HAL_Driver/Inc/stm32g4xx_ll_gpio.h ****   *         @arg @ref LL_GPIO_AF_2
 669:Drivers/STM32G4xx_HAL_Driver/Inc/stm32g4xx_ll_gpio.h ****   *         @arg @ref LL_GPIO_AF_3
 670:Drivers/STM32G4xx_HAL_Driver/Inc/stm32g4xx_ll_gpio.h ****   *         @arg @ref LL_GPIO_AF_4
 671:Drivers/STM32G4xx_HAL_Driver/Inc/stm32g4xx_ll_gpio.h ****   *         @arg @ref LL_GPIO_AF_5
 672:Drivers/STM32G4xx_HAL_Driver/Inc/stm32g4xx_ll_gpio.h ****   *         @arg @ref LL_GPIO_AF_6
 673:Drivers/STM32G4xx_HAL_Driver/Inc/stm32g4xx_ll_gpio.h ****   *         @arg @ref LL_GPIO_AF_7
 674:Drivers/STM32G4xx_HAL_Driver/Inc/stm32g4xx_ll_gpio.h ****   *         @arg @ref LL_GPIO_AF_8
 675:Drivers/STM32G4xx_HAL_Driver/Inc/stm32g4xx_ll_gpio.h ****   *         @arg @ref LL_GPIO_AF_9
 676:Drivers/STM32G4xx_HAL_Driver/Inc/stm32g4xx_ll_gpio.h ****   *         @arg @ref LL_GPIO_AF_10
 677:Drivers/STM32G4xx_HAL_Driver/Inc/stm32g4xx_ll_gpio.h ****   *         @arg @ref LL_GPIO_AF_11
 678:Drivers/STM32G4xx_HAL_Driver/Inc/stm32g4xx_ll_gpio.h ****   *         @arg @ref LL_GPIO_AF_12
 679:Drivers/STM32G4xx_HAL_Driver/Inc/stm32g4xx_ll_gpio.h ****   *         @arg @ref LL_GPIO_AF_13
 680:Drivers/STM32G4xx_HAL_Driver/Inc/stm32g4xx_ll_gpio.h ****   *         @arg @ref LL_GPIO_AF_14
 681:Drivers/STM32G4xx_HAL_Driver/Inc/stm32g4xx_ll_gpio.h ****   *         @arg @ref LL_GPIO_AF_15
 682:Drivers/STM32G4xx_HAL_Driver/Inc/stm32g4xx_ll_gpio.h ****   */
 683:Drivers/STM32G4xx_HAL_Driver/Inc/stm32g4xx_ll_gpio.h **** __STATIC_INLINE uint32_t LL_GPIO_GetAFPin_8_15(GPIO_TypeDef *GPIOx, uint32_t Pin)
 684:Drivers/STM32G4xx_HAL_Driver/Inc/stm32g4xx_ll_gpio.h **** {
 685:Drivers/STM32G4xx_HAL_Driver/Inc/stm32g4xx_ll_gpio.h ****   return (uint32_t)(READ_BIT(GPIOx->AFR[1],
 686:Drivers/STM32G4xx_HAL_Driver/Inc/stm32g4xx_ll_gpio.h ****                              (GPIO_AFRH_AFSEL8 << (POSITION_VAL(Pin >> 8U) * 4U))) >> (POSITION_VAL
 687:Drivers/STM32G4xx_HAL_Driver/Inc/stm32g4xx_ll_gpio.h **** }
 688:Drivers/STM32G4xx_HAL_Driver/Inc/stm32g4xx_ll_gpio.h **** 
 689:Drivers/STM32G4xx_HAL_Driver/Inc/stm32g4xx_ll_gpio.h **** 
 690:Drivers/STM32G4xx_HAL_Driver/Inc/stm32g4xx_ll_gpio.h **** /**
 691:Drivers/STM32G4xx_HAL_Driver/Inc/stm32g4xx_ll_gpio.h ****   * @brief  Lock configuration of several pins for a dedicated port.
 692:Drivers/STM32G4xx_HAL_Driver/Inc/stm32g4xx_ll_gpio.h ****   * @note   When the lock sequence has been applied on a port bit, the
 693:Drivers/STM32G4xx_HAL_Driver/Inc/stm32g4xx_ll_gpio.h ****   *         value of this port bit can no longer be modified until the
 694:Drivers/STM32G4xx_HAL_Driver/Inc/stm32g4xx_ll_gpio.h ****   *         next reset.
 695:Drivers/STM32G4xx_HAL_Driver/Inc/stm32g4xx_ll_gpio.h ****   * @note   Each lock bit freezes a specific configuration register
 696:Drivers/STM32G4xx_HAL_Driver/Inc/stm32g4xx_ll_gpio.h ****   *         (control and alternate function registers).
 697:Drivers/STM32G4xx_HAL_Driver/Inc/stm32g4xx_ll_gpio.h ****   * @rmtoll LCKR         LCKK          LL_GPIO_LockPin
 698:Drivers/STM32G4xx_HAL_Driver/Inc/stm32g4xx_ll_gpio.h ****   * @param  GPIOx GPIO Port
ARM GAS  /tmp/ccW8kGEt.s 			page 44


 699:Drivers/STM32G4xx_HAL_Driver/Inc/stm32g4xx_ll_gpio.h ****   * @param  PinMask This parameter can be a combination of the following values:
 700:Drivers/STM32G4xx_HAL_Driver/Inc/stm32g4xx_ll_gpio.h ****   *         @arg @ref LL_GPIO_PIN_0
 701:Drivers/STM32G4xx_HAL_Driver/Inc/stm32g4xx_ll_gpio.h ****   *         @arg @ref LL_GPIO_PIN_1
 702:Drivers/STM32G4xx_HAL_Driver/Inc/stm32g4xx_ll_gpio.h ****   *         @arg @ref LL_GPIO_PIN_2
 703:Drivers/STM32G4xx_HAL_Driver/Inc/stm32g4xx_ll_gpio.h ****   *         @arg @ref LL_GPIO_PIN_3
 704:Drivers/STM32G4xx_HAL_Driver/Inc/stm32g4xx_ll_gpio.h ****   *         @arg @ref LL_GPIO_PIN_4
 705:Drivers/STM32G4xx_HAL_Driver/Inc/stm32g4xx_ll_gpio.h ****   *         @arg @ref LL_GPIO_PIN_5
 706:Drivers/STM32G4xx_HAL_Driver/Inc/stm32g4xx_ll_gpio.h ****   *         @arg @ref LL_GPIO_PIN_6
 707:Drivers/STM32G4xx_HAL_Driver/Inc/stm32g4xx_ll_gpio.h ****   *         @arg @ref LL_GPIO_PIN_7
 708:Drivers/STM32G4xx_HAL_Driver/Inc/stm32g4xx_ll_gpio.h ****   *         @arg @ref LL_GPIO_PIN_8
 709:Drivers/STM32G4xx_HAL_Driver/Inc/stm32g4xx_ll_gpio.h ****   *         @arg @ref LL_GPIO_PIN_9
 710:Drivers/STM32G4xx_HAL_Driver/Inc/stm32g4xx_ll_gpio.h ****   *         @arg @ref LL_GPIO_PIN_10
 711:Drivers/STM32G4xx_HAL_Driver/Inc/stm32g4xx_ll_gpio.h ****   *         @arg @ref LL_GPIO_PIN_11
 712:Drivers/STM32G4xx_HAL_Driver/Inc/stm32g4xx_ll_gpio.h ****   *         @arg @ref LL_GPIO_PIN_12
 713:Drivers/STM32G4xx_HAL_Driver/Inc/stm32g4xx_ll_gpio.h ****   *         @arg @ref LL_GPIO_PIN_13
 714:Drivers/STM32G4xx_HAL_Driver/Inc/stm32g4xx_ll_gpio.h ****   *         @arg @ref LL_GPIO_PIN_14
 715:Drivers/STM32G4xx_HAL_Driver/Inc/stm32g4xx_ll_gpio.h ****   *         @arg @ref LL_GPIO_PIN_15
 716:Drivers/STM32G4xx_HAL_Driver/Inc/stm32g4xx_ll_gpio.h ****   *         @arg @ref LL_GPIO_PIN_ALL
 717:Drivers/STM32G4xx_HAL_Driver/Inc/stm32g4xx_ll_gpio.h ****   * @retval None
 718:Drivers/STM32G4xx_HAL_Driver/Inc/stm32g4xx_ll_gpio.h ****   */
 719:Drivers/STM32G4xx_HAL_Driver/Inc/stm32g4xx_ll_gpio.h **** __STATIC_INLINE void LL_GPIO_LockPin(GPIO_TypeDef *GPIOx, uint32_t PinMask)
 1049              		.loc 3 719 22 view .LVU232
 1050              	.LBB41:
 720:Drivers/STM32G4xx_HAL_Driver/Inc/stm32g4xx_ll_gpio.h **** {
 721:Drivers/STM32G4xx_HAL_Driver/Inc/stm32g4xx_ll_gpio.h ****   __IO uint32_t temp;
 1051              		.loc 3 721 3 view .LVU233
 722:Drivers/STM32G4xx_HAL_Driver/Inc/stm32g4xx_ll_gpio.h ****   WRITE_REG(GPIOx->LCKR, GPIO_LCKR_LCKK | PinMask);
 1052              		.loc 3 722 3 view .LVU234
 1053 0004 444A     		ldr	r2, .L77
 1054 0006 454B     		ldr	r3, .L77+4
 1055 0008 D361     		str	r3, [r2, #28]
 723:Drivers/STM32G4xx_HAL_Driver/Inc/stm32g4xx_ll_gpio.h ****   WRITE_REG(GPIOx->LCKR, PinMask);
 1056              		.loc 3 723 3 view .LVU235
 1057 000a 1021     		movs	r1, #16
 1058 000c D161     		str	r1, [r2, #28]
 724:Drivers/STM32G4xx_HAL_Driver/Inc/stm32g4xx_ll_gpio.h ****   WRITE_REG(GPIOx->LCKR, GPIO_LCKR_LCKK | PinMask);
 1059              		.loc 3 724 3 view .LVU236
 1060 000e D361     		str	r3, [r2, #28]
 725:Drivers/STM32G4xx_HAL_Driver/Inc/stm32g4xx_ll_gpio.h ****   /* Read LCKR register. This read is mandatory to complete key lock sequence */
 726:Drivers/STM32G4xx_HAL_Driver/Inc/stm32g4xx_ll_gpio.h ****   temp = READ_REG(GPIOx->LCKR);
 1061              		.loc 3 726 3 view .LVU237
 1062              		.loc 3 726 10 is_stmt 0 view .LVU238
 1063 0010 D369     		ldr	r3, [r2, #28]
 1064              		.loc 3 726 8 view .LVU239
 1065 0012 0F93     		str	r3, [sp, #60]
 727:Drivers/STM32G4xx_HAL_Driver/Inc/stm32g4xx_ll_gpio.h ****   (void) temp;
 1066              		.loc 3 727 3 is_stmt 1 view .LVU240
 1067 0014 0F9B     		ldr	r3, [sp, #60]
 1068              	.LVL95:
 1069              		.loc 3 727 3 is_stmt 0 view .LVU241
 1070              	.LBE41:
 1071              	.LBE40:
 581:Src/mc_tasks.c **** LL_GPIO_LockPin(M1_BUS_VOLTAGE_GPIO_Port, M1_BUS_VOLTAGE_Pin);
 1072              		.loc 1 581 1 is_stmt 1 view .LVU242
 1073              	.LBB42:
 1074              	.LBI42:
 719:Drivers/STM32G4xx_HAL_Driver/Inc/stm32g4xx_ll_gpio.h **** {
ARM GAS  /tmp/ccW8kGEt.s 			page 45


 1075              		.loc 3 719 22 view .LVU243
 1076              	.LBB43:
 721:Drivers/STM32G4xx_HAL_Driver/Inc/stm32g4xx_ll_gpio.h ****   WRITE_REG(GPIOx->LCKR, GPIO_LCKR_LCKK | PinMask);
 1077              		.loc 3 721 3 view .LVU244
 722:Drivers/STM32G4xx_HAL_Driver/Inc/stm32g4xx_ll_gpio.h ****   WRITE_REG(GPIOx->LCKR, PinMask);
 1078              		.loc 3 722 3 view .LVU245
 1079 0016 4FF09043 		mov	r3, #1207959552
 1080 001a 4FF00111 		mov	r1, #65537
 1081 001e D961     		str	r1, [r3, #28]
 723:Drivers/STM32G4xx_HAL_Driver/Inc/stm32g4xx_ll_gpio.h ****   WRITE_REG(GPIOx->LCKR, GPIO_LCKR_LCKK | PinMask);
 1082              		.loc 3 723 3 view .LVU246
 1083 0020 0120     		movs	r0, #1
 1084 0022 D861     		str	r0, [r3, #28]
 724:Drivers/STM32G4xx_HAL_Driver/Inc/stm32g4xx_ll_gpio.h ****   /* Read LCKR register. This read is mandatory to complete key lock sequence */
 1085              		.loc 3 724 3 view .LVU247
 1086 0024 D961     		str	r1, [r3, #28]
 726:Drivers/STM32G4xx_HAL_Driver/Inc/stm32g4xx_ll_gpio.h ****   (void) temp;
 1087              		.loc 3 726 3 view .LVU248
 726:Drivers/STM32G4xx_HAL_Driver/Inc/stm32g4xx_ll_gpio.h ****   (void) temp;
 1088              		.loc 3 726 10 is_stmt 0 view .LVU249
 1089 0026 DC69     		ldr	r4, [r3, #28]
 726:Drivers/STM32G4xx_HAL_Driver/Inc/stm32g4xx_ll_gpio.h ****   (void) temp;
 1090              		.loc 3 726 8 view .LVU250
 1091 0028 0E94     		str	r4, [sp, #56]
 1092              		.loc 3 727 3 is_stmt 1 view .LVU251
 1093 002a 0E9C     		ldr	r4, [sp, #56]
 1094              	.LVL96:
 1095              		.loc 3 727 3 is_stmt 0 view .LVU252
 1096              	.LBE43:
 1097              	.LBE42:
 582:Src/mc_tasks.c **** LL_GPIO_LockPin(M1_CURR_SHUNT_V_GPIO_Port, M1_CURR_SHUNT_V_Pin);
 1098              		.loc 1 582 1 is_stmt 1 view .LVU253
 1099              	.LBB44:
 1100              	.LBI44:
 719:Drivers/STM32G4xx_HAL_Driver/Inc/stm32g4xx_ll_gpio.h **** {
 1101              		.loc 3 719 22 view .LVU254
 1102              	.LBB45:
 721:Drivers/STM32G4xx_HAL_Driver/Inc/stm32g4xx_ll_gpio.h ****   WRITE_REG(GPIOx->LCKR, GPIO_LCKR_LCKK | PinMask);
 1103              		.loc 3 721 3 view .LVU255
 722:Drivers/STM32G4xx_HAL_Driver/Inc/stm32g4xx_ll_gpio.h ****   WRITE_REG(GPIOx->LCKR, PinMask);
 1104              		.loc 3 722 3 view .LVU256
 1105 002c 3C4C     		ldr	r4, .L77+8
 1106 002e DC61     		str	r4, [r3, #28]
 723:Drivers/STM32G4xx_HAL_Driver/Inc/stm32g4xx_ll_gpio.h ****   WRITE_REG(GPIOx->LCKR, GPIO_LCKR_LCKK | PinMask);
 1107              		.loc 3 723 3 view .LVU257
 1108 0030 8025     		movs	r5, #128
 1109 0032 DD61     		str	r5, [r3, #28]
 724:Drivers/STM32G4xx_HAL_Driver/Inc/stm32g4xx_ll_gpio.h ****   /* Read LCKR register. This read is mandatory to complete key lock sequence */
 1110              		.loc 3 724 3 view .LVU258
 1111 0034 DC61     		str	r4, [r3, #28]
 726:Drivers/STM32G4xx_HAL_Driver/Inc/stm32g4xx_ll_gpio.h ****   (void) temp;
 1112              		.loc 3 726 3 view .LVU259
 726:Drivers/STM32G4xx_HAL_Driver/Inc/stm32g4xx_ll_gpio.h ****   (void) temp;
 1113              		.loc 3 726 10 is_stmt 0 view .LVU260
 1114 0036 DC69     		ldr	r4, [r3, #28]
 726:Drivers/STM32G4xx_HAL_Driver/Inc/stm32g4xx_ll_gpio.h ****   (void) temp;
 1115              		.loc 3 726 8 view .LVU261
ARM GAS  /tmp/ccW8kGEt.s 			page 46


 1116 0038 0D94     		str	r4, [sp, #52]
 1117              		.loc 3 727 3 is_stmt 1 view .LVU262
 1118 003a 0D9C     		ldr	r4, [sp, #52]
 1119              	.LVL97:
 1120              		.loc 3 727 3 is_stmt 0 view .LVU263
 1121              	.LBE45:
 1122              	.LBE44:
 583:Src/mc_tasks.c **** LL_GPIO_LockPin(M1_CURR_SHUNT_U_GPIO_Port, M1_CURR_SHUNT_U_Pin);
 1123              		.loc 1 583 1 is_stmt 1 view .LVU264
 1124              	.LBB46:
 1125              	.LBI46:
 719:Drivers/STM32G4xx_HAL_Driver/Inc/stm32g4xx_ll_gpio.h **** {
 1126              		.loc 3 719 22 view .LVU265
 1127              	.LBB47:
 721:Drivers/STM32G4xx_HAL_Driver/Inc/stm32g4xx_ll_gpio.h ****   WRITE_REG(GPIOx->LCKR, GPIO_LCKR_LCKK | PinMask);
 1128              		.loc 3 721 3 view .LVU266
 722:Drivers/STM32G4xx_HAL_Driver/Inc/stm32g4xx_ll_gpio.h ****   WRITE_REG(GPIOx->LCKR, PinMask);
 1129              		.loc 3 722 3 view .LVU267
 1130 003c 394C     		ldr	r4, .L77+12
 1131 003e DC61     		str	r4, [r3, #28]
 723:Drivers/STM32G4xx_HAL_Driver/Inc/stm32g4xx_ll_gpio.h ****   WRITE_REG(GPIOx->LCKR, GPIO_LCKR_LCKK | PinMask);
 1132              		.loc 3 723 3 view .LVU268
 1133 0040 0225     		movs	r5, #2
 1134 0042 DD61     		str	r5, [r3, #28]
 724:Drivers/STM32G4xx_HAL_Driver/Inc/stm32g4xx_ll_gpio.h ****   /* Read LCKR register. This read is mandatory to complete key lock sequence */
 1135              		.loc 3 724 3 view .LVU269
 1136 0044 DC61     		str	r4, [r3, #28]
 726:Drivers/STM32G4xx_HAL_Driver/Inc/stm32g4xx_ll_gpio.h ****   (void) temp;
 1137              		.loc 3 726 3 view .LVU270
 726:Drivers/STM32G4xx_HAL_Driver/Inc/stm32g4xx_ll_gpio.h ****   (void) temp;
 1138              		.loc 3 726 10 is_stmt 0 view .LVU271
 1139 0046 DC69     		ldr	r4, [r3, #28]
 726:Drivers/STM32G4xx_HAL_Driver/Inc/stm32g4xx_ll_gpio.h ****   (void) temp;
 1140              		.loc 3 726 8 view .LVU272
 1141 0048 0C94     		str	r4, [sp, #48]
 1142              		.loc 3 727 3 is_stmt 1 view .LVU273
 1143 004a 0C9C     		ldr	r4, [sp, #48]
 1144              	.LVL98:
 1145              		.loc 3 727 3 is_stmt 0 view .LVU274
 1146              	.LBE47:
 1147              	.LBE46:
 584:Src/mc_tasks.c **** LL_GPIO_LockPin(M1_OPAMP1_EXT_GAIN_GPIO_Port, M1_OPAMP1_EXT_GAIN_Pin);
 1148              		.loc 1 584 1 is_stmt 1 view .LVU275
 1149              	.LBB48:
 1150              	.LBI48:
 719:Drivers/STM32G4xx_HAL_Driver/Inc/stm32g4xx_ll_gpio.h **** {
 1151              		.loc 3 719 22 view .LVU276
 1152              	.LBB49:
 721:Drivers/STM32G4xx_HAL_Driver/Inc/stm32g4xx_ll_gpio.h ****   WRITE_REG(GPIOx->LCKR, GPIO_LCKR_LCKK | PinMask);
 1153              		.loc 3 721 3 view .LVU277
 722:Drivers/STM32G4xx_HAL_Driver/Inc/stm32g4xx_ll_gpio.h ****   WRITE_REG(GPIOx->LCKR, PinMask);
 1154              		.loc 3 722 3 view .LVU278
 1155 004c 364C     		ldr	r4, .L77+16
 1156 004e DC61     		str	r4, [r3, #28]
 723:Drivers/STM32G4xx_HAL_Driver/Inc/stm32g4xx_ll_gpio.h ****   WRITE_REG(GPIOx->LCKR, GPIO_LCKR_LCKK | PinMask);
 1157              		.loc 3 723 3 view .LVU279
 1158 0050 0825     		movs	r5, #8
ARM GAS  /tmp/ccW8kGEt.s 			page 47


 1159 0052 DD61     		str	r5, [r3, #28]
 724:Drivers/STM32G4xx_HAL_Driver/Inc/stm32g4xx_ll_gpio.h ****   /* Read LCKR register. This read is mandatory to complete key lock sequence */
 1160              		.loc 3 724 3 view .LVU280
 1161 0054 DC61     		str	r4, [r3, #28]
 726:Drivers/STM32G4xx_HAL_Driver/Inc/stm32g4xx_ll_gpio.h ****   (void) temp;
 1162              		.loc 3 726 3 view .LVU281
 726:Drivers/STM32G4xx_HAL_Driver/Inc/stm32g4xx_ll_gpio.h ****   (void) temp;
 1163              		.loc 3 726 10 is_stmt 0 view .LVU282
 1164 0056 DC69     		ldr	r4, [r3, #28]
 726:Drivers/STM32G4xx_HAL_Driver/Inc/stm32g4xx_ll_gpio.h ****   (void) temp;
 1165              		.loc 3 726 8 view .LVU283
 1166 0058 0B94     		str	r4, [sp, #44]
 1167              		.loc 3 727 3 is_stmt 1 view .LVU284
 1168 005a 0B9C     		ldr	r4, [sp, #44]
 1169              	.LVL99:
 1170              		.loc 3 727 3 is_stmt 0 view .LVU285
 1171              	.LBE49:
 1172              	.LBE48:
 585:Src/mc_tasks.c **** LL_GPIO_LockPin(M1_OPAMP1_OUT_GPIO_Port, M1_OPAMP1_OUT_Pin);
 1173              		.loc 1 585 1 is_stmt 1 view .LVU286
 1174              	.LBB50:
 1175              	.LBI50:
 719:Drivers/STM32G4xx_HAL_Driver/Inc/stm32g4xx_ll_gpio.h **** {
 1176              		.loc 3 719 22 view .LVU287
 1177              	.LBB51:
 721:Drivers/STM32G4xx_HAL_Driver/Inc/stm32g4xx_ll_gpio.h ****   WRITE_REG(GPIOx->LCKR, GPIO_LCKR_LCKK | PinMask);
 1178              		.loc 3 721 3 view .LVU288
 722:Drivers/STM32G4xx_HAL_Driver/Inc/stm32g4xx_ll_gpio.h ****   WRITE_REG(GPIOx->LCKR, PinMask);
 1179              		.loc 3 722 3 view .LVU289
 1180 005c 334C     		ldr	r4, .L77+20
 1181 005e DC61     		str	r4, [r3, #28]
 723:Drivers/STM32G4xx_HAL_Driver/Inc/stm32g4xx_ll_gpio.h ****   WRITE_REG(GPIOx->LCKR, GPIO_LCKR_LCKK | PinMask);
 1182              		.loc 3 723 3 view .LVU290
 1183 0060 0425     		movs	r5, #4
 1184 0062 DD61     		str	r5, [r3, #28]
 724:Drivers/STM32G4xx_HAL_Driver/Inc/stm32g4xx_ll_gpio.h ****   /* Read LCKR register. This read is mandatory to complete key lock sequence */
 1185              		.loc 3 724 3 view .LVU291
 1186 0064 DC61     		str	r4, [r3, #28]
 726:Drivers/STM32G4xx_HAL_Driver/Inc/stm32g4xx_ll_gpio.h ****   (void) temp;
 1187              		.loc 3 726 3 view .LVU292
 726:Drivers/STM32G4xx_HAL_Driver/Inc/stm32g4xx_ll_gpio.h ****   (void) temp;
 1188              		.loc 3 726 10 is_stmt 0 view .LVU293
 1189 0066 DC69     		ldr	r4, [r3, #28]
 726:Drivers/STM32G4xx_HAL_Driver/Inc/stm32g4xx_ll_gpio.h ****   (void) temp;
 1190              		.loc 3 726 8 view .LVU294
 1191 0068 0A94     		str	r4, [sp, #40]
 1192              		.loc 3 727 3 is_stmt 1 view .LVU295
 1193 006a 0A9C     		ldr	r4, [sp, #40]
 1194              	.LVL100:
 1195              		.loc 3 727 3 is_stmt 0 view .LVU296
 1196              	.LBE51:
 1197              	.LBE50:
 586:Src/mc_tasks.c **** LL_GPIO_LockPin(M1_OPAMP2_OUT_GPIO_Port, M1_OPAMP2_OUT_Pin);
 1198              		.loc 1 586 1 is_stmt 1 view .LVU297
 1199              	.LBB52:
 1200              	.LBI52:
 719:Drivers/STM32G4xx_HAL_Driver/Inc/stm32g4xx_ll_gpio.h **** {
ARM GAS  /tmp/ccW8kGEt.s 			page 48


 1201              		.loc 3 719 22 view .LVU298
 1202              	.LBB53:
 721:Drivers/STM32G4xx_HAL_Driver/Inc/stm32g4xx_ll_gpio.h ****   WRITE_REG(GPIOx->LCKR, GPIO_LCKR_LCKK | PinMask);
 1203              		.loc 3 721 3 view .LVU299
 722:Drivers/STM32G4xx_HAL_Driver/Inc/stm32g4xx_ll_gpio.h ****   WRITE_REG(GPIOx->LCKR, PinMask);
 1204              		.loc 3 722 3 view .LVU300
 1205 006c 304C     		ldr	r4, .L77+24
 1206 006e DC61     		str	r4, [r3, #28]
 723:Drivers/STM32G4xx_HAL_Driver/Inc/stm32g4xx_ll_gpio.h ****   WRITE_REG(GPIOx->LCKR, GPIO_LCKR_LCKK | PinMask);
 1207              		.loc 3 723 3 view .LVU301
 1208 0070 4025     		movs	r5, #64
 1209 0072 DD61     		str	r5, [r3, #28]
 724:Drivers/STM32G4xx_HAL_Driver/Inc/stm32g4xx_ll_gpio.h ****   /* Read LCKR register. This read is mandatory to complete key lock sequence */
 1210              		.loc 3 724 3 view .LVU302
 1211 0074 DC61     		str	r4, [r3, #28]
 726:Drivers/STM32G4xx_HAL_Driver/Inc/stm32g4xx_ll_gpio.h ****   (void) temp;
 1212              		.loc 3 726 3 view .LVU303
 726:Drivers/STM32G4xx_HAL_Driver/Inc/stm32g4xx_ll_gpio.h ****   (void) temp;
 1213              		.loc 3 726 10 is_stmt 0 view .LVU304
 1214 0076 DB69     		ldr	r3, [r3, #28]
 726:Drivers/STM32G4xx_HAL_Driver/Inc/stm32g4xx_ll_gpio.h ****   (void) temp;
 1215              		.loc 3 726 8 view .LVU305
 1216 0078 0993     		str	r3, [sp, #36]
 1217              		.loc 3 727 3 is_stmt 1 view .LVU306
 1218 007a 099B     		ldr	r3, [sp, #36]
 1219              	.LVL101:
 1220              		.loc 3 727 3 is_stmt 0 view .LVU307
 1221              	.LBE53:
 1222              	.LBE52:
 587:Src/mc_tasks.c **** LL_GPIO_LockPin(M1_OPAMP2_EXT_GAIN_GPIO_Port, M1_OPAMP2_EXT_GAIN_Pin);
 1223              		.loc 1 587 1 is_stmt 1 view .LVU308
 1224              	.LBB54:
 1225              	.LBI54:
 719:Drivers/STM32G4xx_HAL_Driver/Inc/stm32g4xx_ll_gpio.h **** {
 1226              		.loc 3 719 22 view .LVU309
 1227              	.LBB55:
 721:Drivers/STM32G4xx_HAL_Driver/Inc/stm32g4xx_ll_gpio.h ****   WRITE_REG(GPIOx->LCKR, GPIO_LCKR_LCKK | PinMask);
 1228              		.loc 3 721 3 view .LVU310
 722:Drivers/STM32G4xx_HAL_Driver/Inc/stm32g4xx_ll_gpio.h ****   WRITE_REG(GPIOx->LCKR, PinMask);
 1229              		.loc 3 722 3 view .LVU311
 1230 007c 2D4B     		ldr	r3, .L77+28
 1231 007e D361     		str	r3, [r2, #28]
 723:Drivers/STM32G4xx_HAL_Driver/Inc/stm32g4xx_ll_gpio.h ****   WRITE_REG(GPIOx->LCKR, GPIO_LCKR_LCKK | PinMask);
 1232              		.loc 3 723 3 view .LVU312
 1233 0080 2024     		movs	r4, #32
 1234 0082 D461     		str	r4, [r2, #28]
 724:Drivers/STM32G4xx_HAL_Driver/Inc/stm32g4xx_ll_gpio.h ****   /* Read LCKR register. This read is mandatory to complete key lock sequence */
 1235              		.loc 3 724 3 view .LVU313
 1236 0084 D361     		str	r3, [r2, #28]
 726:Drivers/STM32G4xx_HAL_Driver/Inc/stm32g4xx_ll_gpio.h ****   (void) temp;
 1237              		.loc 3 726 3 view .LVU314
 726:Drivers/STM32G4xx_HAL_Driver/Inc/stm32g4xx_ll_gpio.h ****   (void) temp;
 1238              		.loc 3 726 10 is_stmt 0 view .LVU315
 1239 0086 D369     		ldr	r3, [r2, #28]
 726:Drivers/STM32G4xx_HAL_Driver/Inc/stm32g4xx_ll_gpio.h ****   (void) temp;
 1240              		.loc 3 726 8 view .LVU316
 1241 0088 0893     		str	r3, [sp, #32]
ARM GAS  /tmp/ccW8kGEt.s 			page 49


 1242              		.loc 3 727 3 is_stmt 1 view .LVU317
 1243 008a 089B     		ldr	r3, [sp, #32]
 1244              	.LVL102:
 1245              		.loc 3 727 3 is_stmt 0 view .LVU318
 1246              	.LBE55:
 1247              	.LBE54:
 588:Src/mc_tasks.c **** LL_GPIO_LockPin(M1_CURR_SHUNT_W_GPIO_Port, M1_CURR_SHUNT_W_Pin);
 1248              		.loc 1 588 1 is_stmt 1 view .LVU319
 1249              	.LBB56:
 1250              	.LBI56:
 719:Drivers/STM32G4xx_HAL_Driver/Inc/stm32g4xx_ll_gpio.h **** {
 1251              		.loc 3 719 22 view .LVU320
 1252              	.LBB57:
 721:Drivers/STM32G4xx_HAL_Driver/Inc/stm32g4xx_ll_gpio.h ****   WRITE_REG(GPIOx->LCKR, GPIO_LCKR_LCKK | PinMask);
 1253              		.loc 3 721 3 view .LVU321
 722:Drivers/STM32G4xx_HAL_Driver/Inc/stm32g4xx_ll_gpio.h ****   WRITE_REG(GPIOx->LCKR, PinMask);
 1254              		.loc 3 722 3 view .LVU322
 1255 008c 2A4B     		ldr	r3, .L77+32
 1256 008e D961     		str	r1, [r3, #28]
 723:Drivers/STM32G4xx_HAL_Driver/Inc/stm32g4xx_ll_gpio.h ****   WRITE_REG(GPIOx->LCKR, GPIO_LCKR_LCKK | PinMask);
 1257              		.loc 3 723 3 view .LVU323
 1258 0090 D861     		str	r0, [r3, #28]
 724:Drivers/STM32G4xx_HAL_Driver/Inc/stm32g4xx_ll_gpio.h ****   /* Read LCKR register. This read is mandatory to complete key lock sequence */
 1259              		.loc 3 724 3 view .LVU324
 1260 0092 D961     		str	r1, [r3, #28]
 726:Drivers/STM32G4xx_HAL_Driver/Inc/stm32g4xx_ll_gpio.h ****   (void) temp;
 1261              		.loc 3 726 3 view .LVU325
 726:Drivers/STM32G4xx_HAL_Driver/Inc/stm32g4xx_ll_gpio.h ****   (void) temp;
 1262              		.loc 3 726 10 is_stmt 0 view .LVU326
 1263 0094 DB69     		ldr	r3, [r3, #28]
 726:Drivers/STM32G4xx_HAL_Driver/Inc/stm32g4xx_ll_gpio.h ****   (void) temp;
 1264              		.loc 3 726 8 view .LVU327
 1265 0096 0793     		str	r3, [sp, #28]
 1266              		.loc 3 727 3 is_stmt 1 view .LVU328
 1267 0098 079B     		ldr	r3, [sp, #28]
 1268              	.LVL103:
 1269              		.loc 3 727 3 is_stmt 0 view .LVU329
 1270              	.LBE57:
 1271              	.LBE56:
 589:Src/mc_tasks.c **** LL_GPIO_LockPin(M1_PWM_UH_GPIO_Port, M1_PWM_UH_Pin);
 1272              		.loc 1 589 1 is_stmt 1 view .LVU330
 1273              	.LBB58:
 1274              	.LBI58:
 719:Drivers/STM32G4xx_HAL_Driver/Inc/stm32g4xx_ll_gpio.h **** {
 1275              		.loc 3 719 22 view .LVU331
 1276              	.LBB59:
 721:Drivers/STM32G4xx_HAL_Driver/Inc/stm32g4xx_ll_gpio.h ****   WRITE_REG(GPIOx->LCKR, GPIO_LCKR_LCKK | PinMask);
 1277              		.loc 3 721 3 view .LVU332
 722:Drivers/STM32G4xx_HAL_Driver/Inc/stm32g4xx_ll_gpio.h ****   WRITE_REG(GPIOx->LCKR, PinMask);
 1278              		.loc 3 722 3 view .LVU333
 1279 009a 284B     		ldr	r3, .L77+36
 1280 009c 4FF48132 		mov	r2, #66048
 1281 00a0 DA61     		str	r2, [r3, #28]
 723:Drivers/STM32G4xx_HAL_Driver/Inc/stm32g4xx_ll_gpio.h ****   WRITE_REG(GPIOx->LCKR, GPIO_LCKR_LCKK | PinMask);
 1282              		.loc 3 723 3 view .LVU334
 1283 00a2 4FF40071 		mov	r1, #512
 1284 00a6 D961     		str	r1, [r3, #28]
ARM GAS  /tmp/ccW8kGEt.s 			page 50


 724:Drivers/STM32G4xx_HAL_Driver/Inc/stm32g4xx_ll_gpio.h ****   /* Read LCKR register. This read is mandatory to complete key lock sequence */
 1285              		.loc 3 724 3 view .LVU335
 1286 00a8 DA61     		str	r2, [r3, #28]
 726:Drivers/STM32G4xx_HAL_Driver/Inc/stm32g4xx_ll_gpio.h ****   (void) temp;
 1287              		.loc 3 726 3 view .LVU336
 726:Drivers/STM32G4xx_HAL_Driver/Inc/stm32g4xx_ll_gpio.h ****   (void) temp;
 1288              		.loc 3 726 10 is_stmt 0 view .LVU337
 1289 00aa DA69     		ldr	r2, [r3, #28]
 726:Drivers/STM32G4xx_HAL_Driver/Inc/stm32g4xx_ll_gpio.h ****   (void) temp;
 1290              		.loc 3 726 8 view .LVU338
 1291 00ac 0692     		str	r2, [sp, #24]
 1292              		.loc 3 727 3 is_stmt 1 view .LVU339
 1293 00ae 069A     		ldr	r2, [sp, #24]
 1294              	.LVL104:
 1295              		.loc 3 727 3 is_stmt 0 view .LVU340
 1296              	.LBE59:
 1297              	.LBE58:
 590:Src/mc_tasks.c **** LL_GPIO_LockPin(M1_PWM_VH_GPIO_Port, M1_PWM_VH_Pin);
 1298              		.loc 1 590 1 is_stmt 1 view .LVU341
 1299              	.LBB60:
 1300              	.LBI60:
 719:Drivers/STM32G4xx_HAL_Driver/Inc/stm32g4xx_ll_gpio.h **** {
 1301              		.loc 3 719 22 view .LVU342
 1302              	.LBB61:
 721:Drivers/STM32G4xx_HAL_Driver/Inc/stm32g4xx_ll_gpio.h ****   WRITE_REG(GPIOx->LCKR, GPIO_LCKR_LCKK | PinMask);
 1303              		.loc 3 721 3 view .LVU343
 722:Drivers/STM32G4xx_HAL_Driver/Inc/stm32g4xx_ll_gpio.h ****   WRITE_REG(GPIOx->LCKR, PinMask);
 1304              		.loc 3 722 3 view .LVU344
 1305 00b0 4FF48432 		mov	r2, #67584
 1306 00b4 DA61     		str	r2, [r3, #28]
 723:Drivers/STM32G4xx_HAL_Driver/Inc/stm32g4xx_ll_gpio.h ****   WRITE_REG(GPIOx->LCKR, GPIO_LCKR_LCKK | PinMask);
 1307              		.loc 3 723 3 view .LVU345
 1308 00b6 4FF40061 		mov	r1, #2048
 1309 00ba D961     		str	r1, [r3, #28]
 724:Drivers/STM32G4xx_HAL_Driver/Inc/stm32g4xx_ll_gpio.h ****   /* Read LCKR register. This read is mandatory to complete key lock sequence */
 1310              		.loc 3 724 3 view .LVU346
 1311 00bc DA61     		str	r2, [r3, #28]
 726:Drivers/STM32G4xx_HAL_Driver/Inc/stm32g4xx_ll_gpio.h ****   (void) temp;
 1312              		.loc 3 726 3 view .LVU347
 726:Drivers/STM32G4xx_HAL_Driver/Inc/stm32g4xx_ll_gpio.h ****   (void) temp;
 1313              		.loc 3 726 10 is_stmt 0 view .LVU348
 1314 00be DA69     		ldr	r2, [r3, #28]
 726:Drivers/STM32G4xx_HAL_Driver/Inc/stm32g4xx_ll_gpio.h ****   (void) temp;
 1315              		.loc 3 726 8 view .LVU349
 1316 00c0 0592     		str	r2, [sp, #20]
 1317              		.loc 3 727 3 is_stmt 1 view .LVU350
 1318 00c2 059A     		ldr	r2, [sp, #20]
 1319              	.LVL105:
 1320              		.loc 3 727 3 is_stmt 0 view .LVU351
 1321              	.LBE61:
 1322              	.LBE60:
 591:Src/mc_tasks.c **** LL_GPIO_LockPin(M1_PWM_VL_GPIO_Port, M1_PWM_VL_Pin);
 1323              		.loc 1 591 1 is_stmt 1 view .LVU352
 1324              	.LBB62:
 1325              	.LBI62:
 719:Drivers/STM32G4xx_HAL_Driver/Inc/stm32g4xx_ll_gpio.h **** {
 1326              		.loc 3 719 22 view .LVU353
ARM GAS  /tmp/ccW8kGEt.s 			page 51


 1327              	.LBB63:
 721:Drivers/STM32G4xx_HAL_Driver/Inc/stm32g4xx_ll_gpio.h ****   WRITE_REG(GPIOx->LCKR, GPIO_LCKR_LCKK | PinMask);
 1328              		.loc 3 721 3 view .LVU354
 722:Drivers/STM32G4xx_HAL_Driver/Inc/stm32g4xx_ll_gpio.h ****   WRITE_REG(GPIOx->LCKR, PinMask);
 1329              		.loc 3 722 3 view .LVU355
 1330 00c4 4FF48232 		mov	r2, #66560
 1331 00c8 DA61     		str	r2, [r3, #28]
 723:Drivers/STM32G4xx_HAL_Driver/Inc/stm32g4xx_ll_gpio.h ****   WRITE_REG(GPIOx->LCKR, GPIO_LCKR_LCKK | PinMask);
 1332              		.loc 3 723 3 view .LVU356
 1333 00ca 4FF48061 		mov	r1, #1024
 1334 00ce D961     		str	r1, [r3, #28]
 724:Drivers/STM32G4xx_HAL_Driver/Inc/stm32g4xx_ll_gpio.h ****   /* Read LCKR register. This read is mandatory to complete key lock sequence */
 1335              		.loc 3 724 3 view .LVU357
 1336 00d0 DA61     		str	r2, [r3, #28]
 726:Drivers/STM32G4xx_HAL_Driver/Inc/stm32g4xx_ll_gpio.h ****   (void) temp;
 1337              		.loc 3 726 3 view .LVU358
 726:Drivers/STM32G4xx_HAL_Driver/Inc/stm32g4xx_ll_gpio.h ****   (void) temp;
 1338              		.loc 3 726 10 is_stmt 0 view .LVU359
 1339 00d2 DA69     		ldr	r2, [r3, #28]
 726:Drivers/STM32G4xx_HAL_Driver/Inc/stm32g4xx_ll_gpio.h ****   (void) temp;
 1340              		.loc 3 726 8 view .LVU360
 1341 00d4 0492     		str	r2, [sp, #16]
 1342              		.loc 3 727 3 is_stmt 1 view .LVU361
 1343 00d6 049A     		ldr	r2, [sp, #16]
 1344              	.LVL106:
 1345              		.loc 3 727 3 is_stmt 0 view .LVU362
 1346              	.LBE63:
 1347              	.LBE62:
 592:Src/mc_tasks.c **** LL_GPIO_LockPin(M1_PWM_WH_GPIO_Port, M1_PWM_WH_Pin);
 1348              		.loc 1 592 1 is_stmt 1 view .LVU363
 1349              	.LBB64:
 1350              	.LBI64:
 719:Drivers/STM32G4xx_HAL_Driver/Inc/stm32g4xx_ll_gpio.h **** {
 1351              		.loc 3 719 22 view .LVU364
 1352              	.LBB65:
 721:Drivers/STM32G4xx_HAL_Driver/Inc/stm32g4xx_ll_gpio.h ****   WRITE_REG(GPIOx->LCKR, GPIO_LCKR_LCKK | PinMask);
 1353              		.loc 3 721 3 view .LVU365
 722:Drivers/STM32G4xx_HAL_Driver/Inc/stm32g4xx_ll_gpio.h ****   WRITE_REG(GPIOx->LCKR, PinMask);
 1354              		.loc 3 722 3 view .LVU366
 1355 00d8 4FF49032 		mov	r2, #73728
 1356 00dc DA61     		str	r2, [r3, #28]
 723:Drivers/STM32G4xx_HAL_Driver/Inc/stm32g4xx_ll_gpio.h ****   WRITE_REG(GPIOx->LCKR, GPIO_LCKR_LCKK | PinMask);
 1357              		.loc 3 723 3 view .LVU367
 1358 00de 4FF40051 		mov	r1, #8192
 1359 00e2 D961     		str	r1, [r3, #28]
 724:Drivers/STM32G4xx_HAL_Driver/Inc/stm32g4xx_ll_gpio.h ****   /* Read LCKR register. This read is mandatory to complete key lock sequence */
 1360              		.loc 3 724 3 view .LVU368
 1361 00e4 DA61     		str	r2, [r3, #28]
 726:Drivers/STM32G4xx_HAL_Driver/Inc/stm32g4xx_ll_gpio.h ****   (void) temp;
 1362              		.loc 3 726 3 view .LVU369
 726:Drivers/STM32G4xx_HAL_Driver/Inc/stm32g4xx_ll_gpio.h ****   (void) temp;
 1363              		.loc 3 726 10 is_stmt 0 view .LVU370
 1364 00e6 DA69     		ldr	r2, [r3, #28]
 726:Drivers/STM32G4xx_HAL_Driver/Inc/stm32g4xx_ll_gpio.h ****   (void) temp;
 1365              		.loc 3 726 8 view .LVU371
 1366 00e8 0392     		str	r2, [sp, #12]
 1367              		.loc 3 727 3 is_stmt 1 view .LVU372
ARM GAS  /tmp/ccW8kGEt.s 			page 52


 1368 00ea 039A     		ldr	r2, [sp, #12]
 1369              	.LVL107:
 1370              		.loc 3 727 3 is_stmt 0 view .LVU373
 1371              	.LBE65:
 1372              	.LBE64:
 593:Src/mc_tasks.c **** LL_GPIO_LockPin(M1_PWM_WL_GPIO_Port, M1_PWM_WL_Pin);
 1373              		.loc 1 593 1 is_stmt 1 view .LVU374
 1374              	.LBB66:
 1375              	.LBI66:
 719:Drivers/STM32G4xx_HAL_Driver/Inc/stm32g4xx_ll_gpio.h **** {
 1376              		.loc 3 719 22 view .LVU375
 1377              	.LBB67:
 721:Drivers/STM32G4xx_HAL_Driver/Inc/stm32g4xx_ll_gpio.h ****   WRITE_REG(GPIOx->LCKR, GPIO_LCKR_LCKK | PinMask);
 1378              		.loc 3 721 3 view .LVU376
 722:Drivers/STM32G4xx_HAL_Driver/Inc/stm32g4xx_ll_gpio.h ****   WRITE_REG(GPIOx->LCKR, PinMask);
 1379              		.loc 3 722 3 view .LVU377
 1380 00ec 4FF48832 		mov	r2, #69632
 1381 00f0 DA61     		str	r2, [r3, #28]
 723:Drivers/STM32G4xx_HAL_Driver/Inc/stm32g4xx_ll_gpio.h ****   WRITE_REG(GPIOx->LCKR, GPIO_LCKR_LCKK | PinMask);
 1382              		.loc 3 723 3 view .LVU378
 1383 00f2 4FF48051 		mov	r1, #4096
 1384 00f6 D961     		str	r1, [r3, #28]
 724:Drivers/STM32G4xx_HAL_Driver/Inc/stm32g4xx_ll_gpio.h ****   /* Read LCKR register. This read is mandatory to complete key lock sequence */
 1385              		.loc 3 724 3 view .LVU379
 1386 00f8 DA61     		str	r2, [r3, #28]
 726:Drivers/STM32G4xx_HAL_Driver/Inc/stm32g4xx_ll_gpio.h ****   (void) temp;
 1387              		.loc 3 726 3 view .LVU380
 726:Drivers/STM32G4xx_HAL_Driver/Inc/stm32g4xx_ll_gpio.h ****   (void) temp;
 1388              		.loc 3 726 10 is_stmt 0 view .LVU381
 1389 00fa DA69     		ldr	r2, [r3, #28]
 726:Drivers/STM32G4xx_HAL_Driver/Inc/stm32g4xx_ll_gpio.h ****   (void) temp;
 1390              		.loc 3 726 8 view .LVU382
 1391 00fc 0292     		str	r2, [sp, #8]
 1392              		.loc 3 727 3 is_stmt 1 view .LVU383
 1393 00fe 029A     		ldr	r2, [sp, #8]
 1394              	.LVL108:
 1395              		.loc 3 727 3 is_stmt 0 view .LVU384
 1396              	.LBE67:
 1397              	.LBE66:
 594:Src/mc_tasks.c **** LL_GPIO_LockPin(M1_PWM_UL_GPIO_Port, M1_PWM_UL_Pin);
 1398              		.loc 1 594 1 is_stmt 1 view .LVU385
 1399              	.LBB68:
 1400              	.LBI68:
 719:Drivers/STM32G4xx_HAL_Driver/Inc/stm32g4xx_ll_gpio.h **** {
 1401              		.loc 3 719 22 view .LVU386
 1402              	.LBB69:
 721:Drivers/STM32G4xx_HAL_Driver/Inc/stm32g4xx_ll_gpio.h ****   WRITE_REG(GPIOx->LCKR, GPIO_LCKR_LCKK | PinMask);
 1403              		.loc 3 721 3 view .LVU387
 722:Drivers/STM32G4xx_HAL_Driver/Inc/stm32g4xx_ll_gpio.h ****   WRITE_REG(GPIOx->LCKR, PinMask);
 1404              		.loc 3 722 3 view .LVU388
 1405 0100 0F4A     		ldr	r2, .L77+40
 1406 0102 DA61     		str	r2, [r3, #28]
 723:Drivers/STM32G4xx_HAL_Driver/Inc/stm32g4xx_ll_gpio.h ****   WRITE_REG(GPIOx->LCKR, GPIO_LCKR_LCKK | PinMask);
 1407              		.loc 3 723 3 view .LVU389
 1408 0104 4FF48071 		mov	r1, #256
 1409 0108 D961     		str	r1, [r3, #28]
 724:Drivers/STM32G4xx_HAL_Driver/Inc/stm32g4xx_ll_gpio.h ****   /* Read LCKR register. This read is mandatory to complete key lock sequence */
ARM GAS  /tmp/ccW8kGEt.s 			page 53


 1410              		.loc 3 724 3 view .LVU390
 1411 010a DA61     		str	r2, [r3, #28]
 726:Drivers/STM32G4xx_HAL_Driver/Inc/stm32g4xx_ll_gpio.h ****   (void) temp;
 1412              		.loc 3 726 3 view .LVU391
 726:Drivers/STM32G4xx_HAL_Driver/Inc/stm32g4xx_ll_gpio.h ****   (void) temp;
 1413              		.loc 3 726 10 is_stmt 0 view .LVU392
 1414 010c DB69     		ldr	r3, [r3, #28]
 726:Drivers/STM32G4xx_HAL_Driver/Inc/stm32g4xx_ll_gpio.h ****   (void) temp;
 1415              		.loc 3 726 8 view .LVU393
 1416 010e 0193     		str	r3, [sp, #4]
 1417              		.loc 3 727 3 is_stmt 1 view .LVU394
 1418 0110 019B     		ldr	r3, [sp, #4]
 1419              	.LVL109:
 1420              		.loc 3 727 3 is_stmt 0 view .LVU395
 1421              	.LBE69:
 1422              	.LBE68:
 595:Src/mc_tasks.c **** }
 1423              		.loc 1 595 1 view .LVU396
 1424 0112 10B0     		add	sp, sp, #64
 1425              	.LCFI15:
 1426              		.cfi_def_cfa_offset 8
 1427              		@ sp needed
 1428 0114 30BC     		pop	{r4, r5}
 1429              	.LCFI16:
 1430              		.cfi_restore 5
 1431              		.cfi_restore 4
 1432              		.cfi_def_cfa_offset 0
 1433 0116 7047     		bx	lr
 1434              	.L78:
 1435              		.align	2
 1436              	.L77:
 1437 0118 00080048 		.word	1207961600
 1438 011c 10000100 		.word	65552
 1439 0120 80000100 		.word	65664
 1440 0124 02000100 		.word	65538
 1441 0128 08000100 		.word	65544
 1442 012c 04000100 		.word	65540
 1443 0130 40000100 		.word	65600
 1444 0134 20000100 		.word	65568
 1445 0138 00040048 		.word	1207960576
 1446 013c 00100048 		.word	1207963648
 1447 0140 00010100 		.word	65792
 1448              		.cfi_endproc
 1449              	.LFE1886:
 1451              		.section	.bss.bMCBootCompleted,"aw",%nobits
 1452              		.set	.LANCHOR0,. + 0
 1455              	bMCBootCompleted:
 1456 0000 00       		.space	1
 1457              		.section	.bss.hBootCapDelayCounterM1,"aw",%nobits
 1458              		.align	1
 1459              		.set	.LANCHOR2,. + 0
 1462              	hBootCapDelayCounterM1:
 1463 0000 0000     		.space	2
 1464              		.section	.bss.hMFTaskCounterM1,"aw",%nobits
 1465              		.align	1
 1466              		.set	.LANCHOR1,. + 0
 1469              	hMFTaskCounterM1:
ARM GAS  /tmp/ccW8kGEt.s 			page 54


 1470 0000 0000     		.space	2
 1471              		.section	.bss.hStopPermanencyCounterM1,"aw",%nobits
 1472              		.align	1
 1473              		.set	.LANCHOR3,. + 0
 1476              	hStopPermanencyCounterM1:
 1477 0000 0000     		.space	2
 1478              		.text
 1479              	.Letext0:
 1480              		.file 4 "/usr/share/gcc-arm-none-eabi-10-2020-q4-major/arm-none-eabi/include/machine/_default_type
 1481              		.file 5 "/usr/share/gcc-arm-none-eabi-10-2020-q4-major/arm-none-eabi/include/sys/_stdint.h"
 1482              		.file 6 "Drivers/CMSIS/Include/core_cm4.h"
 1483              		.file 7 "Drivers/CMSIS/Device/ST/STM32G4xx/Include/stm32g431xx.h"
 1484              		.file 8 "Drivers/STM32G4xx_HAL_Driver/Inc/stm32g4xx_ll_tim.h"
 1485              		.file 9 "Drivers/STM32G4xx_HAL_Driver/Inc/stm32g4xx_ll_usart.h"
 1486              		.file 10 "Drivers/STM32G4xx_HAL_Driver/Inc/stm32g4xx_ll_dma.h"
 1487              		.file 11 "Inc/mc_type.h"
 1488              		.file 12 "MCSDK_v6.3.2-Full/MotorControl/MCSDK/MCLib/Any/Inc/pid_regulator.h"
 1489              		.file 13 "MCSDK_v6.3.2-Full/MotorControl/MCSDK/MCLib/Any/Inc/speed_pos_fdbk.h"
 1490              		.file 14 "MCSDK_v6.3.2-Full/MotorControl/MCSDK/MCLib/Any/Inc/speed_torq_ctrl.h"
 1491              		.file 15 "MCSDK_v6.3.2-Full/MotorControl/MCSDK/MCLib/Any/Inc/virtual_speed_sensor.h"
 1492              		.file 16 "MCSDK_v6.3.2-Full/MotorControl/MCSDK/MCLib/Any/Inc/sto_speed_pos_fdbk.h"
 1493              		.file 17 "Inc/pwm_curr_fdbk.h"
 1494              		.file 18 "MCSDK_v6.3.2-Full/MotorControl/MCSDK/MCLib/Any/Inc/revup_ctrl.h"
 1495              		.file 19 "MCSDK_v6.3.2-Full/MotorControl/MCSDK/MCLib/Any/Inc/ntc_temperature_sensor.h"
 1496              		.file 20 "Inc/mc_interface.h"
 1497              		.file 21 "Inc/regular_conversion_manager.h"
 1498              		.file 22 "MCSDK_v6.3.2-Full/MotorControl/MCSDK/MCLib/Any/Inc/bus_voltage_sensor.h"
 1499              		.file 23 "MCSDK_v6.3.2-Full/MotorControl/MCSDK/MCLib/Any/Inc/r_divider_bus_voltage_sensor.h"
 1500              		.file 24 "MCSDK_v6.3.2-Full/MotorControl/MCSDK/MCLib/G4xx/Inc/stspin32g4.h"
 1501              		.file 25 "MCSDK_v6.3.2-Full/MotorControl/MCSDK/MCLib/Any/Inc/sto_pll_speed_pos_fdbk.h"
 1502              		.file 26 "MCSDK_v6.3.2-Full/MotorControl/MCSDK/MCLib/Any/Inc/ramp_ext_mngr.h"
 1503              		.file 27 "MCSDK_v6.3.2-Full/MotorControl/MCSDK/MCLib/Any/Inc/mp_one_touch_tuning.h"
 1504              		.file 28 "MCSDK_v6.3.2-Full/MotorControl/MCSDK/MCLib/Any/Inc/circle_limitation.h"
 1505              		.file 29 "Inc/hall_speed_pos_fdbk.h"
 1506              		.file 30 "MCSDK_v6.3.2-Full/MotorControl/MCSDK/MCLib/Any/Inc/mp_hall_tuning.h"
 1507              		.file 31 "MCSDK_v6.3.2-Full/MotorControl/MCSDK/MCLib/Any/Inc/mp_self_com_ctrl.h"
 1508              		.file 32 "Inc/mc_config_common.h"
 1509              		.file 33 "Inc/mc_config.h"
 1510              		.file 34 "MCSDK_v6.3.2-Full/MotorControl/MCSDK/MCLib/Any/Inc/mcptl.h"
 1511              		.file 35 "MCSDK_v6.3.2-Full/MotorControl/MCSDK/MCLib/Any/Inc/mcp.h"
 1512              		.file 36 "Inc/aspep.h"
 1513              		.file 37 "MCSDK_v6.3.2-Full/MotorControl/MCSDK/MCLib/Any/Inc/mcpa.h"
 1514              		.file 38 "Inc/mcp_config.h"
 1515              		.file 39 "Inc/mc_api.h"
 1516              		.file 40 "Middlewares/Third_Party/FreeRTOS/Source/include/task.h"
 1517              		.file 41 "Inc/mc_tasks.h"
 1518              		.file 42 "Inc/mc_app_hooks.h"
ARM GAS  /tmp/ccW8kGEt.s 			page 55


DEFINED SYMBOLS
                            *ABS*:0000000000000000 mc_tasks.c
     /tmp/ccW8kGEt.s:18     .text.MCboot:0000000000000000 $t
     /tmp/ccW8kGEt.s:26     .text.MCboot:0000000000000000 MCboot
     /tmp/ccW8kGEt.s:159    .text.MCboot:0000000000000090 $d
     /tmp/ccW8kGEt.s:174    .text.MC_StartMotorOpenLoop:0000000000000000 $t
     /tmp/ccW8kGEt.s:181    .text.MC_StartMotorOpenLoop:0000000000000000 MC_StartMotorOpenLoop
     /tmp/ccW8kGEt.s:240    .text.MC_StartMotorOpenLoop:0000000000000024 $d
     /tmp/ccW8kGEt.s:246    .text.MC_RunMotorControlTasks:0000000000000000 $t
     /tmp/ccW8kGEt.s:253    .text.MC_RunMotorControlTasks:0000000000000000 MC_RunMotorControlTasks
     /tmp/ccW8kGEt.s:387    .text.MC_RunMotorControlTasks:0000000000000090 $d
     /tmp/ccW8kGEt.s:397    .text.TSK_SetChargeBootCapDelayM1:0000000000000000 $t
     /tmp/ccW8kGEt.s:404    .text.TSK_SetChargeBootCapDelayM1:0000000000000000 TSK_SetChargeBootCapDelayM1
     /tmp/ccW8kGEt.s:421    .text.TSK_SetChargeBootCapDelayM1:0000000000000008 $d
     /tmp/ccW8kGEt.s:426    .text.TSK_ChargeBootCapDelayHasElapsedM1:0000000000000000 $t
     /tmp/ccW8kGEt.s:433    .text.TSK_ChargeBootCapDelayHasElapsedM1:0000000000000000 TSK_ChargeBootCapDelayHasElapsedM1
     /tmp/ccW8kGEt.s:458    .text.TSK_ChargeBootCapDelayHasElapsedM1:0000000000000010 $d
     /tmp/ccW8kGEt.s:463    .text.TSK_SetStopPermanencyTimeM1:0000000000000000 $t
     /tmp/ccW8kGEt.s:470    .text.TSK_SetStopPermanencyTimeM1:0000000000000000 TSK_SetStopPermanencyTimeM1
     /tmp/ccW8kGEt.s:487    .text.TSK_SetStopPermanencyTimeM1:0000000000000008 $d
     /tmp/ccW8kGEt.s:492    .text.TSK_StopPermanencyTimeHasElapsedM1:0000000000000000 $t
     /tmp/ccW8kGEt.s:499    .text.TSK_StopPermanencyTimeHasElapsedM1:0000000000000000 TSK_StopPermanencyTimeHasElapsedM1
     /tmp/ccW8kGEt.s:524    .text.TSK_StopPermanencyTimeHasElapsedM1:0000000000000010 $d
     /tmp/ccW8kGEt.s:529    .text.TSK_HighFrequencyTask:0000000000000000 $t
     /tmp/ccW8kGEt.s:536    .text.TSK_HighFrequencyTask:0000000000000000 TSK_HighFrequencyTask
     /tmp/ccW8kGEt.s:604    .text.TSK_HighFrequencyTask:0000000000000034 $d
     /tmp/ccW8kGEt.s:612    .text.TSK_SafetyTask_PWMOFF:0000000000000000 $t
     /tmp/ccW8kGEt.s:619    .text.TSK_SafetyTask_PWMOFF:0000000000000000 TSK_SafetyTask_PWMOFF
     /tmp/ccW8kGEt.s:777    .text.TSK_SafetyTask_PWMOFF:0000000000000094 $d
     /tmp/ccW8kGEt.s:790    .text.TSK_SafetyTask:0000000000000000 $t
     /tmp/ccW8kGEt.s:797    .text.TSK_SafetyTask:0000000000000000 TSK_SafetyTask
     /tmp/ccW8kGEt.s:837    .text.TSK_SafetyTask:0000000000000020 $d
     /tmp/ccW8kGEt.s:843    .text.TSK_HardwareFaultTask:0000000000000000 $t
     /tmp/ccW8kGEt.s:850    .text.TSK_HardwareFaultTask:0000000000000000 TSK_HardwareFaultTask
     /tmp/ccW8kGEt.s:884    .text.TSK_HardwareFaultTask:0000000000000020 $d
     /tmp/ccW8kGEt.s:891    .text.startMediumFrequencyTask:0000000000000000 $t
     /tmp/ccW8kGEt.s:898    .text.startMediumFrequencyTask:0000000000000000 startMediumFrequencyTask
     /tmp/ccW8kGEt.s:941    .text.StartSafetyTask:0000000000000000 $t
     /tmp/ccW8kGEt.s:948    .text.StartSafetyTask:0000000000000000 StartSafetyTask
     /tmp/ccW8kGEt.s:980    .text.UI_HandleStartStopButton_cb:0000000000000000 $t
     /tmp/ccW8kGEt.s:987    .text.UI_HandleStartStopButton_cb:0000000000000000 UI_HandleStartStopButton_cb
     /tmp/ccW8kGEt.s:1022   .text.mc_lock_pins:0000000000000000 $t
     /tmp/ccW8kGEt.s:1029   .text.mc_lock_pins:0000000000000000 mc_lock_pins
     /tmp/ccW8kGEt.s:1437   .text.mc_lock_pins:0000000000000118 $d
     /tmp/ccW8kGEt.s:1455   .bss.bMCBootCompleted:0000000000000000 bMCBootCompleted
     /tmp/ccW8kGEt.s:1456   .bss.bMCBootCompleted:0000000000000000 $d
     /tmp/ccW8kGEt.s:1458   .bss.hBootCapDelayCounterM1:0000000000000000 $d
     /tmp/ccW8kGEt.s:1462   .bss.hBootCapDelayCounterM1:0000000000000000 hBootCapDelayCounterM1
     /tmp/ccW8kGEt.s:1465   .bss.hMFTaskCounterM1:0000000000000000 $d
     /tmp/ccW8kGEt.s:1469   .bss.hMFTaskCounterM1:0000000000000000 hMFTaskCounterM1
     /tmp/ccW8kGEt.s:1472   .bss.hStopPermanencyCounterM1:0000000000000000 $d
     /tmp/ccW8kGEt.s:1476   .bss.hStopPermanencyCounterM1:0000000000000000 hStopPermanencyCounterM1

UNDEFINED SYMBOLS
FOC_Init
ASPEP_start
PID_HandleInit
ARM GAS  /tmp/ccW8kGEt.s 			page 56


VSS_Init
RCM_RegisterRegConv
RVBS_Init
NTC_Init
MC_Perf_Measure_Init
STSPIN32G4_init
STSPIN32G4_reset
STSPIN32G4_setVCC
STSPIN32G4_setVDSP
STSPIN32G4_clearFaults
MC_APP_BootHook
Mci
aspepOverUartA
PIDSpeedHandle_M1
VirtualSpeedSensorM1
VbusRegConv_M1
BusVoltageSensor_M1
TempRegConv_M1
TempSensor_M1
PerfTraces
HdlSTSPING4
MCI_GetSTMState
MCI_StartMotor
FOCVars
MC_BG_Perf_Measure_Start
TSK_MediumFrequencyTaskM1
MC_BG_Perf_Measure_Stop
MC_APP_PostMediumFrequencyHook_M1
MCP_ReceivedPacket
MCP_Over_UartA
FOC_HighFrequencyTask
MC_Perf_Measure_Stop
MCPA_dataLog
GLOBAL_TIMESTAMP
MCPA_UART_A
PWMC_IsFaultOccurred
MCI_FaultProcessing
MCI_GetFaultState
RCM_ExecRegularConv
NTC_CalcAvTemp
RVBS_CalcAvVbus
SCC_Stop
OTT_Stop
PWMC_SwitchOffPWM
FOC_Clear
MCPA_flushDataLog
pwmcHandle
SCC
OTT
SCC_CheckOC_RL
RCM_ExecUserConv
vTaskDelay
MC_GetSTMStateMotor1
MC_StartMotor1
MC_StopMotor1
