ARM GAS  /tmp/ccF6ITrB.s 			page 1


   1              		.cpu cortex-m4
   2              		.eabi_attribute 27, 1
   3              		.eabi_attribute 28, 1
   4              		.eabi_attribute 20, 1
   5              		.eabi_attribute 21, 1
   6              		.eabi_attribute 23, 3
   7              		.eabi_attribute 24, 1
   8              		.eabi_attribute 25, 1
   9              		.eabi_attribute 26, 1
  10              		.eabi_attribute 30, 2
  11              		.eabi_attribute 34, 1
  12              		.eabi_attribute 18, 2
  13              		.file	"mc_tasks_foc.c"
  14              		.text
  15              	.Ltext0:
  16              		.cfi_sections	.debug_frame
  17              		.section	.text.FOC_Clear,"ax",%progbits
  18              		.align	1
  19              		.p2align 2,,3
  20              		.weak	FOC_Clear
  21              		.arch armv7e-m
  22              		.syntax unified
  23              		.thumb
  24              		.thumb_func
  25              		.fpu fpv4-sp-d16
  27              	FOC_Clear:
  28              	.LVL0:
  29              	.LFB1870:
  30              		.file 1 "Src/mc_tasks_foc.c"
   1:Src/mc_tasks_foc.c **** 
   2:Src/mc_tasks_foc.c **** /**
   3:Src/mc_tasks_foc.c ****   ******************************************************************************
   4:Src/mc_tasks_foc.c ****   * @file    mc_tasks_foc.c
   5:Src/mc_tasks_foc.c ****   * @author  Motor Control SDK Team, ST Microelectronics
   6:Src/mc_tasks_foc.c ****   * @brief   This file implements tasks definition
   7:Src/mc_tasks_foc.c ****   *
   8:Src/mc_tasks_foc.c ****   ******************************************************************************
   9:Src/mc_tasks_foc.c ****   * @attention
  10:Src/mc_tasks_foc.c ****   *
  11:Src/mc_tasks_foc.c ****   * <h2><center>&copy; Copyright (c) 2024 STMicroelectronics.
  12:Src/mc_tasks_foc.c ****   * All rights reserved.</center></h2>
  13:Src/mc_tasks_foc.c ****   *
  14:Src/mc_tasks_foc.c ****   * This software component is licensed by ST under Ultimate Liberty license
  15:Src/mc_tasks_foc.c ****   * SLA0044, the "License"; You may not use this file except in compliance with
  16:Src/mc_tasks_foc.c ****   * the License. You may obtain a copy of the License at:
  17:Src/mc_tasks_foc.c ****   *                             www.st.com/SLA0044
  18:Src/mc_tasks_foc.c ****   *
  19:Src/mc_tasks_foc.c ****   ******************************************************************************
  20:Src/mc_tasks_foc.c ****   */
  21:Src/mc_tasks_foc.c **** 
  22:Src/mc_tasks_foc.c **** /* Includes ------------------------------------------------------------------*/
  23:Src/mc_tasks_foc.c **** //cstat -MISRAC2012-Rule-21.1
  24:Src/mc_tasks_foc.c **** #include "main.h"
  25:Src/mc_tasks_foc.c **** //cstat +MISRAC2012-Rule-21.1
  26:Src/mc_tasks_foc.c **** #include "mc_type.h"
  27:Src/mc_tasks_foc.c **** #include "mc_math.h"
  28:Src/mc_tasks_foc.c **** #include "motorcontrol.h"
ARM GAS  /tmp/ccF6ITrB.s 			page 2


  29:Src/mc_tasks_foc.c **** #include "regular_conversion_manager.h"
  30:Src/mc_tasks_foc.c **** #include "mc_interface.h"
  31:Src/mc_tasks_foc.c **** #include "digital_output.h"
  32:Src/mc_tasks_foc.c **** #include "pwm_common.h"
  33:Src/mc_tasks_foc.c **** #include "mc_tasks.h"
  34:Src/mc_tasks_foc.c **** #include "parameters_conversion.h"
  35:Src/mc_tasks_foc.c **** #include "mcp_config.h"
  36:Src/mc_tasks_foc.c **** #include "mc_app_hooks.h"
  37:Src/mc_tasks_foc.c **** 
  38:Src/mc_tasks_foc.c **** /* USER CODE BEGIN Includes */
  39:Src/mc_tasks_foc.c **** 
  40:Src/mc_tasks_foc.c **** /* USER CODE END Includes */
  41:Src/mc_tasks_foc.c **** 
  42:Src/mc_tasks_foc.c **** /* USER CODE BEGIN Private define */
  43:Src/mc_tasks_foc.c **** /* Private define ------------------------------------------------------------*/
  44:Src/mc_tasks_foc.c **** 
  45:Src/mc_tasks_foc.c **** /* USER CODE END Private define */
  46:Src/mc_tasks_foc.c **** 
  47:Src/mc_tasks_foc.c **** /* Private variables----------------------------------------------------------*/
  48:Src/mc_tasks_foc.c **** 
  49:Src/mc_tasks_foc.c **** static volatile uint16_t hBootCapDelayCounterM1 = ((uint16_t)0);
  50:Src/mc_tasks_foc.c **** static volatile uint16_t hStopPermanencyCounterM1 = ((uint16_t)0);
  51:Src/mc_tasks_foc.c **** 
  52:Src/mc_tasks_foc.c **** #define M1_CHARGE_BOOT_CAP_TICKS          (((uint16_t)SYS_TICK_FREQUENCY * (uint16_t)10) / 1000U)
  53:Src/mc_tasks_foc.c **** #define M1_CHARGE_BOOT_CAP_DUTY_CYCLES ((uint32_t)0.000\
  54:Src/mc_tasks_foc.c ****                                       * ((uint32_t)PWM_PERIOD_CYCLES / 2U))
  55:Src/mc_tasks_foc.c **** #define M2_CHARGE_BOOT_CAP_TICKS         (((uint16_t)SYS_TICK_FREQUENCY * (uint16_t)10) / 1000U)
  56:Src/mc_tasks_foc.c **** #define M2_CHARGE_BOOT_CAP_DUTY_CYCLES ((uint32_t)0\
  57:Src/mc_tasks_foc.c ****                                       * ((uint32_t)PWM_PERIOD_CYCLES2 / 2U))
  58:Src/mc_tasks_foc.c **** 
  59:Src/mc_tasks_foc.c **** /* USER CODE BEGIN Private Variables */
  60:Src/mc_tasks_foc.c **** 
  61:Src/mc_tasks_foc.c **** /* USER CODE END Private Variables */
  62:Src/mc_tasks_foc.c **** 
  63:Src/mc_tasks_foc.c **** /* Private functions ---------------------------------------------------------*/
  64:Src/mc_tasks_foc.c **** void TSK_MediumFrequencyTaskM1(void);
  65:Src/mc_tasks_foc.c **** void FOC_InitAdditionalMethods(uint8_t bMotor);
  66:Src/mc_tasks_foc.c **** void FOC_CalcCurrRef(uint8_t bMotor);
  67:Src/mc_tasks_foc.c **** void TSK_MF_StopProcessing(uint8_t motor);
  68:Src/mc_tasks_foc.c **** 
  69:Src/mc_tasks_foc.c **** MCI_Handle_t *GetMCI(uint8_t bMotor);
  70:Src/mc_tasks_foc.c **** bool SCC_DetectBemf( SCC_Handle_t * pHandle );
  71:Src/mc_tasks_foc.c **** 
  72:Src/mc_tasks_foc.c **** void TSK_SafetyTask_PWMOFF(uint8_t motor);
  73:Src/mc_tasks_foc.c **** 
  74:Src/mc_tasks_foc.c **** /* USER CODE BEGIN Private Functions */
  75:Src/mc_tasks_foc.c **** 
  76:Src/mc_tasks_foc.c **** /* USER CODE END Private Functions */
  77:Src/mc_tasks_foc.c **** /**
  78:Src/mc_tasks_foc.c ****   * @brief  It initializes the whole MC core according to user defined
  79:Src/mc_tasks_foc.c ****   *         parameters.
  80:Src/mc_tasks_foc.c ****   */
  81:Src/mc_tasks_foc.c **** __weak void FOC_Init(void)
  82:Src/mc_tasks_foc.c **** {
  83:Src/mc_tasks_foc.c **** 
  84:Src/mc_tasks_foc.c ****   /* USER CODE BEGIN MCboot 0 */
  85:Src/mc_tasks_foc.c **** 
ARM GAS  /tmp/ccF6ITrB.s 			page 3


  86:Src/mc_tasks_foc.c ****   /* USER CODE END MCboot 0 */
  87:Src/mc_tasks_foc.c **** 
  88:Src/mc_tasks_foc.c ****     /**********************************************************/
  89:Src/mc_tasks_foc.c ****     /*    PWM and current sensing component initialization    */
  90:Src/mc_tasks_foc.c ****     /**********************************************************/
  91:Src/mc_tasks_foc.c ****     pwmcHandle[M1] = &PWM_Handle_M1._Super;
  92:Src/mc_tasks_foc.c ****     R3_2_Init(&PWM_Handle_M1);
  93:Src/mc_tasks_foc.c **** 
  94:Src/mc_tasks_foc.c ****     /* USER CODE BEGIN MCboot 1 */
  95:Src/mc_tasks_foc.c **** 
  96:Src/mc_tasks_foc.c ****     /* USER CODE END MCboot 1 */
  97:Src/mc_tasks_foc.c **** 
  98:Src/mc_tasks_foc.c ****     /**************************************/
  99:Src/mc_tasks_foc.c ****     /*    Start timers synchronously      */
 100:Src/mc_tasks_foc.c ****     /**************************************/
 101:Src/mc_tasks_foc.c ****     startTimers();
 102:Src/mc_tasks_foc.c **** 
 103:Src/mc_tasks_foc.c ****     /******************************************************/
 104:Src/mc_tasks_foc.c ****     /*   PID component initialization: speed regulation   */
 105:Src/mc_tasks_foc.c ****     /******************************************************/
 106:Src/mc_tasks_foc.c ****     PID_HandleInit(&PIDSpeedHandle_M1);
 107:Src/mc_tasks_foc.c **** 
 108:Src/mc_tasks_foc.c ****     /******************************************************/
 109:Src/mc_tasks_foc.c ****     /*   Main speed sensor component initialization       */
 110:Src/mc_tasks_foc.c ****     /******************************************************/
 111:Src/mc_tasks_foc.c ****     STO_PLL_Init (&STO_PLL_M1);
 112:Src/mc_tasks_foc.c **** 
 113:Src/mc_tasks_foc.c ****     /******************************************************/
 114:Src/mc_tasks_foc.c ****     /*   Speed & torque component initialization          */
 115:Src/mc_tasks_foc.c ****     /******************************************************/
 116:Src/mc_tasks_foc.c ****     STC_Init(pSTC[M1],&PIDSpeedHandle_M1, &STO_PLL_M1._Super);
 117:Src/mc_tasks_foc.c **** 
 118:Src/mc_tasks_foc.c ****     /**************************************/
 119:Src/mc_tasks_foc.c ****     /*   Rev-up component initialization  */
 120:Src/mc_tasks_foc.c ****     /**************************************/
 121:Src/mc_tasks_foc.c ****     RUC_Init(&RevUpControlM1, pSTC[M1], &VirtualSpeedSensorM1, &STO_M1, pwmcHandle[M1]);
 122:Src/mc_tasks_foc.c **** 
 123:Src/mc_tasks_foc.c ****     /********************************************************/
 124:Src/mc_tasks_foc.c ****     /*   PID component initialization: current regulation   */
 125:Src/mc_tasks_foc.c ****     /********************************************************/
 126:Src/mc_tasks_foc.c ****     PID_HandleInit(&PIDIqHandle_M1);
 127:Src/mc_tasks_foc.c ****     PID_HandleInit(&PIDIdHandle_M1);
 128:Src/mc_tasks_foc.c **** 
 129:Src/mc_tasks_foc.c ****     /*************************************************/
 130:Src/mc_tasks_foc.c ****     /*   Power measurement component initialization  */
 131:Src/mc_tasks_foc.c ****     /*************************************************/
 132:Src/mc_tasks_foc.c ****     pMPM[M1]->pVBS = &(BusVoltageSensor_M1._Super);
 133:Src/mc_tasks_foc.c ****     pMPM[M1]->pFOCVars = &FOCVars[M1];
 134:Src/mc_tasks_foc.c **** 
 135:Src/mc_tasks_foc.c ****     /*******************************************************/
 136:Src/mc_tasks_foc.c ****     /*   Feed forward component initialization             */
 137:Src/mc_tasks_foc.c ****     /*******************************************************/
 138:Src/mc_tasks_foc.c ****     FF_Init(pFF[M1],&(BusVoltageSensor_M1._Super),pPIDId[M1],pPIDIq[M1]);
 139:Src/mc_tasks_foc.c **** 
 140:Src/mc_tasks_foc.c ****     pREMNG[M1] = &RampExtMngrHFParamsM1;
 141:Src/mc_tasks_foc.c ****     REMNG_Init(pREMNG[M1]);
 142:Src/mc_tasks_foc.c **** 
ARM GAS  /tmp/ccF6ITrB.s 			page 4


 143:Src/mc_tasks_foc.c ****     SCC.pPWMC = pwmcHandle[M1];
 144:Src/mc_tasks_foc.c ****     SCC.pVBS = &BusVoltageSensor_M1;
 145:Src/mc_tasks_foc.c ****     SCC.pFOCVars = &FOCVars[M1];
 146:Src/mc_tasks_foc.c ****     SCC.pMCI = &Mci[M1];
 147:Src/mc_tasks_foc.c ****     SCC.pVSS = &VirtualSpeedSensorM1;
 148:Src/mc_tasks_foc.c ****     SCC.pCLM = &CircleLimitationM1;
 149:Src/mc_tasks_foc.c ****     SCC.pPIDIq = pPIDIq[M1];
 150:Src/mc_tasks_foc.c ****     SCC.pPIDId = pPIDId[M1];
 151:Src/mc_tasks_foc.c ****     SCC.pRevupCtrl = &RevUpControlM1;
 152:Src/mc_tasks_foc.c ****     SCC.pSTO = &STO_PLL_M1;
 153:Src/mc_tasks_foc.c ****     SCC.pSTC = &SpeednTorqCtrlM1;
 154:Src/mc_tasks_foc.c ****     SCC.pOTT = &OTT;
 155:Src/mc_tasks_foc.c ****     SCC.pHT = MC_NULL;
 156:Src/mc_tasks_foc.c ****     SCC_Init(&SCC);
 157:Src/mc_tasks_foc.c **** 
 158:Src/mc_tasks_foc.c ****     OTT.pSpeedSensor = &STO_PLL_M1._Super;
 159:Src/mc_tasks_foc.c ****     OTT.pFOCVars = &FOCVars[M1];
 160:Src/mc_tasks_foc.c ****     OTT.pPIDSpeed = &PIDSpeedHandle_M1;
 161:Src/mc_tasks_foc.c ****     OTT.pSTC = &SpeednTorqCtrlM1;
 162:Src/mc_tasks_foc.c ****     OTT_Init(&OTT);
 163:Src/mc_tasks_foc.c **** 
 164:Src/mc_tasks_foc.c ****     FOC_Clear(M1);
 165:Src/mc_tasks_foc.c ****     FOCVars[M1].bDriveInput = EXTERNAL;
 166:Src/mc_tasks_foc.c ****     FOCVars[M1].Iqdref = STC_GetDefaultIqdref(pSTC[M1]);
 167:Src/mc_tasks_foc.c ****     FOCVars[M1].UserIdref = STC_GetDefaultIqdref(pSTC[M1]).d;
 168:Src/mc_tasks_foc.c **** 
 169:Src/mc_tasks_foc.c ****     MCI_ExecTorqueRamp(&Mci[M1], STC_GetDefaultIqdref(pSTC[M1]).q, 0);
 170:Src/mc_tasks_foc.c **** 
 171:Src/mc_tasks_foc.c ****     /* USER CODE BEGIN MCboot 2 */
 172:Src/mc_tasks_foc.c **** 
 173:Src/mc_tasks_foc.c ****     /* USER CODE END MCboot 2 */
 174:Src/mc_tasks_foc.c **** }
 175:Src/mc_tasks_foc.c **** 
 176:Src/mc_tasks_foc.c **** /**
 177:Src/mc_tasks_foc.c ****  * @brief Performs stop process and update the state machine.This function
 178:Src/mc_tasks_foc.c ****  *        shall be called only during medium frequency task.
 179:Src/mc_tasks_foc.c ****  */
 180:Src/mc_tasks_foc.c **** void TSK_MF_StopProcessing(uint8_t motor)
 181:Src/mc_tasks_foc.c **** {
 182:Src/mc_tasks_foc.c ****     R3_2_SwitchOffPWM(pwmcHandle[motor]);
 183:Src/mc_tasks_foc.c **** 
 184:Src/mc_tasks_foc.c ****   SCC_Stop(&SCC);
 185:Src/mc_tasks_foc.c ****   OTT_Stop(&OTT);
 186:Src/mc_tasks_foc.c ****   FOC_Clear(motor);
 187:Src/mc_tasks_foc.c **** 
 188:Src/mc_tasks_foc.c ****   TSK_SetStopPermanencyTimeM1(STOPPERMANENCY_TICKS);
 189:Src/mc_tasks_foc.c ****   Mci[motor].State = STOP;
 190:Src/mc_tasks_foc.c **** }
 191:Src/mc_tasks_foc.c **** int32_t  task_run = 0;
 192:Src/mc_tasks_foc.c ****  float  theta_ =0.0f;
 193:Src/mc_tasks_foc.c **** void test_svm(float mod_q, float mod_d, float *theta, float *ta, float *tb, float *tc) ;
 194:Src/mc_tasks_foc.c **** /**
 195:Src/mc_tasks_foc.c ****   * @brief Executes medium frequency periodic Motor Control tasks
 196:Src/mc_tasks_foc.c ****   *
 197:Src/mc_tasks_foc.c ****   * This function performs some of the control duties on Motor 1 according to the
 198:Src/mc_tasks_foc.c ****   * present state of its state machine. In particular, duties requiring a periodic
 199:Src/mc_tasks_foc.c ****   * execution at a medium frequency rate (such as the speed controller for instance)
ARM GAS  /tmp/ccF6ITrB.s 			page 5


 200:Src/mc_tasks_foc.c ****   * are executed here.
 201:Src/mc_tasks_foc.c ****   */
 202:Src/mc_tasks_foc.c **** __weak void TSK_MediumFrequencyTaskM1(void)
 203:Src/mc_tasks_foc.c **** {
 204:Src/mc_tasks_foc.c ****   /* USER CODE BEGIN MediumFrequencyTask M1 0 */
 205:Src/mc_tasks_foc.c **** 
 206:Src/mc_tasks_foc.c ****   /* USER CODE END MediumFrequencyTask M1 0 */
 207:Src/mc_tasks_foc.c **** 
 208:Src/mc_tasks_foc.c ****   int16_t wAux = 0;
 209:Src/mc_tasks_foc.c ****   bool IsSpeedReliable = 0;//STO_PLL_CalcAvrgMecSpeedUnit(&STO_PLL_M1, &wAux);
 210:Src/mc_tasks_foc.c ****   //PQD_CalcElMotorPower(pMPM[M1]);
 211:Src/mc_tasks_foc.c **** 
 212:Src/mc_tasks_foc.c ****   if (MCI_GetCurrentFaults(&Mci[M1]) == MC_NO_FAULTS)
 213:Src/mc_tasks_foc.c ****   {
 214:Src/mc_tasks_foc.c ****     if (1)//MCI_GetOccurredFaults(&Mci[M1]) == MC_NO_FAULTS)
 215:Src/mc_tasks_foc.c ****     {
 216:Src/mc_tasks_foc.c ****       switch (Mci[M1].State)
 217:Src/mc_tasks_foc.c ****       {
 218:Src/mc_tasks_foc.c **** 
 219:Src/mc_tasks_foc.c ****         case IDLE:
 220:Src/mc_tasks_foc.c ****         {
 221:Src/mc_tasks_foc.c ****           if ((MCI_START == Mci[M1].DirectCommand) || (MCI_MEASURE_OFFSETS == Mci[M1].DirectCommand
 222:Src/mc_tasks_foc.c ****           {
 223:Src/mc_tasks_foc.c ****               RUC_Clear(&RevUpControlM1, MCI_GetImposedMotorDirection(&Mci[M1]));
 224:Src/mc_tasks_foc.c ****             if (0)//pwmcHandle[M1]->offsetCalibStatus == false)
 225:Src/mc_tasks_foc.c ****             {
 226:Src/mc_tasks_foc.c ****               (void)PWMC_CurrentReadingCalibr(pwmcHandle[M1], CRC_START);
 227:Src/mc_tasks_foc.c ****               Mci[M1].State = OFFSET_CALIB;
 228:Src/mc_tasks_foc.c ****             }
 229:Src/mc_tasks_foc.c ****             else
 230:Src/mc_tasks_foc.c ****             {
 231:Src/mc_tasks_foc.c ****               STSPIN32G4_clearFaults(&HdlSTSPING4);
 232:Src/mc_tasks_foc.c ****               STSPIN32G4_wakeup(&HdlSTSPING4, 4);
 233:Src/mc_tasks_foc.c ****               vTaskDelay(100);
 234:Src/mc_tasks_foc.c **** 
 235:Src/mc_tasks_foc.c ****               /* Calibration already done. Enables only TIM channels */
 236:Src/mc_tasks_foc.c ****               pwmcHandle[M1]->OffCalibrWaitTimeCounter = 1u;
 237:Src/mc_tasks_foc.c ****               //(void)PWMC_CurrentReadingCalibr(pwmcHandle[M1], CRC_EXEC);
 238:Src/mc_tasks_foc.c ****               (void)PWMC_CurrentReadingCalibr(pwmcHandle[M1], CRC_START);
 239:Src/mc_tasks_foc.c ****               R3_2_SwitchOnPWM(pwmcHandle[M1]);
 240:Src/mc_tasks_foc.c ****       //        R3_2_TurnOnLowSides(pwmcHandle[M1],M1_CHARGE_BOOT_CAP_DUTY_CYCLES);
 241:Src/mc_tasks_foc.c ****               TSK_SetChargeBootCapDelayM1(M1_CHARGE_BOOT_CAP_TICKS);
 242:Src/mc_tasks_foc.c **** 
 243:Src/mc_tasks_foc.c ****              
 244:Src/mc_tasks_foc.c **** 
 245:Src/mc_tasks_foc.c **** 
 246:Src/mc_tasks_foc.c ****               RUC_Clear(&RevUpControlM1, MCI_GetImposedMotorDirection(&Mci[M1]));
 247:Src/mc_tasks_foc.c ****         
 248:Src/mc_tasks_foc.c ****               /* PWM Configuration */
 249:Src/mc_tasks_foc.c ****               // 1. 配置所有PWM通道
 250:Src/mc_tasks_foc.c ****               LL_TIM_CC_EnableChannel(TIM1, LL_TIM_CHANNEL_CH1 | LL_TIM_CHANNEL_CH1N |
 251:Src/mc_tasks_foc.c ****                                           LL_TIM_CHANNEL_CH2 | LL_TIM_CHANNEL_CH2N |
 252:Src/mc_tasks_foc.c ****                                           LL_TIM_CHANNEL_CH3 | LL_TIM_CHANNEL_CH3N);
 253:Src/mc_tasks_foc.c ****               
 254:Src/mc_tasks_foc.c ****               // 2. 配置PWM模式
 255:Src/mc_tasks_foc.c ****               LL_TIM_OC_SetMode(TIM1, LL_TIM_CHANNEL_CH1, LL_TIM_OCMODE_PWM1);
 256:Src/mc_tasks_foc.c ****               LL_TIM_OC_SetMode(TIM1, LL_TIM_CHANNEL_CH2, LL_TIM_OCMODE_PWM1);
ARM GAS  /tmp/ccF6ITrB.s 			page 6


 257:Src/mc_tasks_foc.c ****               LL_TIM_OC_SetMode(TIM1, LL_TIM_CHANNEL_CH3, LL_TIM_OCMODE_PWM1);
 258:Src/mc_tasks_foc.c ****               
 259:Src/mc_tasks_foc.c ****               // 3. 设置死区时间
 260:Src/mc_tasks_foc.c ****               LL_TIM_OC_SetDeadTime(TIM1, 50); // 根据实际需求调整死区时间
 261:Src/mc_tasks_foc.c ****               
 262:Src/mc_tasks_foc.c ****               // 4. 使能预加载
 263:Src/mc_tasks_foc.c ****               LL_TIM_OC_EnablePreload(TIM1, LL_TIM_CHANNEL_CH1);
 264:Src/mc_tasks_foc.c ****               LL_TIM_OC_EnablePreload(TIM1, LL_TIM_CHANNEL_CH2);
 265:Src/mc_tasks_foc.c ****               LL_TIM_OC_EnablePreload(TIM1, LL_TIM_CHANNEL_CH3);
 266:Src/mc_tasks_foc.c ****               LL_TIM_OC_SetCompareCH1(TIM1, 100);
 267:Src/mc_tasks_foc.c ****               LL_TIM_OC_SetCompareCH2(TIM1, 100);
 268:Src/mc_tasks_foc.c ****               LL_TIM_OC_SetCompareCH3(TIM1, 100);
 269:Src/mc_tasks_foc.c ****               vTaskDelay(1000);
 270:Src/mc_tasks_foc.c **** 
 271:Src/mc_tasks_foc.c ****               // 5. 启用 Break 功能
 272:Src/mc_tasks_foc.c ****               TIM1->BDTR |= LL_TIM_OSSI_ENABLE;
 273:Src/mc_tasks_foc.c ****               LL_TIM_EnableAllOutputs(TIM1);
 274:Src/mc_tasks_foc.c ****               STSPIN32G4_clearFaults(&HdlSTSPING4);
 275:Src/mc_tasks_foc.c ****               
 276:Src/mc_tasks_foc.c ****               while(1)
 277:Src/mc_tasks_foc.c ****               {
 278:Src/mc_tasks_foc.c ****                 task_run = 1;
 279:Src/mc_tasks_foc.c **** 
 280:Src/mc_tasks_foc.c ****                 vTaskDelay(30);
 281:Src/mc_tasks_foc.c ****               }
 282:Src/mc_tasks_foc.c ****               Mci[M1].State = CHARGE_BOOT_CAP;
 283:Src/mc_tasks_foc.c ****             }
 284:Src/mc_tasks_foc.c ****             OTT_Clear(&OTT);
 285:Src/mc_tasks_foc.c ****           }
 286:Src/mc_tasks_foc.c ****           else
 287:Src/mc_tasks_foc.c ****           {
 288:Src/mc_tasks_foc.c ****             /* Nothing to be done, FW stays in IDLE state */
 289:Src/mc_tasks_foc.c ****           }
 290:Src/mc_tasks_foc.c ****           break;
 291:Src/mc_tasks_foc.c ****         }
 292:Src/mc_tasks_foc.c **** 
 293:Src/mc_tasks_foc.c ****         case OFFSET_CALIB:
 294:Src/mc_tasks_foc.c ****         {
 295:Src/mc_tasks_foc.c ****           if (MCI_STOP == Mci[M1].DirectCommand)
 296:Src/mc_tasks_foc.c ****           {
 297:Src/mc_tasks_foc.c ****             TSK_MF_StopProcessing(M1);
 298:Src/mc_tasks_foc.c ****           }
 299:Src/mc_tasks_foc.c ****           else
 300:Src/mc_tasks_foc.c ****           {
 301:Src/mc_tasks_foc.c ****             if (PWMC_CurrentReadingCalibr(pwmcHandle[M1], CRC_EXEC))
 302:Src/mc_tasks_foc.c ****             {
 303:Src/mc_tasks_foc.c ****               if (MCI_MEASURE_OFFSETS == Mci[M1].DirectCommand)
 304:Src/mc_tasks_foc.c ****               {
 305:Src/mc_tasks_foc.c ****                 FOC_Clear(M1);
 306:Src/mc_tasks_foc.c ****                 Mci[M1].DirectCommand = MCI_NO_COMMAND;
 307:Src/mc_tasks_foc.c ****                 Mci[M1].State = IDLE;
 308:Src/mc_tasks_foc.c ****               }
 309:Src/mc_tasks_foc.c ****               else
 310:Src/mc_tasks_foc.c ****               {
 311:Src/mc_tasks_foc.c ****                 Mci[M1].State = WAIT_STOP_MOTOR;
 312:Src/mc_tasks_foc.c ****               }
 313:Src/mc_tasks_foc.c ****             }
ARM GAS  /tmp/ccF6ITrB.s 			page 7


 314:Src/mc_tasks_foc.c ****             else
 315:Src/mc_tasks_foc.c ****             {
 316:Src/mc_tasks_foc.c ****               /* Nothing to be done, FW waits for offset calibration to finish */
 317:Src/mc_tasks_foc.c ****             }
 318:Src/mc_tasks_foc.c ****           }
 319:Src/mc_tasks_foc.c ****           break;
 320:Src/mc_tasks_foc.c ****         }
 321:Src/mc_tasks_foc.c **** 
 322:Src/mc_tasks_foc.c ****         case CHARGE_BOOT_CAP:
 323:Src/mc_tasks_foc.c ****         {
 324:Src/mc_tasks_foc.c ****           if (MCI_STOP == Mci[M1].DirectCommand)
 325:Src/mc_tasks_foc.c ****           {
 326:Src/mc_tasks_foc.c ****             TSK_MF_StopProcessing(M1);
 327:Src/mc_tasks_foc.c ****           }
 328:Src/mc_tasks_foc.c ****           else
 329:Src/mc_tasks_foc.c ****           {
 330:Src/mc_tasks_foc.c ****             if (TSK_ChargeBootCapDelayHasElapsedM1())
 331:Src/mc_tasks_foc.c ****             {
 332:Src/mc_tasks_foc.c ****               R3_2_SwitchOffPWM(pwmcHandle[M1]);
 333:Src/mc_tasks_foc.c ****               FOCVars[M1].bDriveInput = EXTERNAL;
 334:Src/mc_tasks_foc.c ****               STC_SetSpeedSensor( pSTC[M1], &VirtualSpeedSensorM1._Super );
 335:Src/mc_tasks_foc.c **** 
 336:Src/mc_tasks_foc.c ****               STO_PLL_Clear(&STO_PLL_M1);
 337:Src/mc_tasks_foc.c ****               PWMC_Clear(pwmcHandle[M1]);
 338:Src/mc_tasks_foc.c **** 
 339:Src/mc_tasks_foc.c ****               FOC_Clear( M1 );
 340:Src/mc_tasks_foc.c **** 
 341:Src/mc_tasks_foc.c ****         SCC_Start(&SCC);
 342:Src/mc_tasks_foc.c ****               /* The generic function needs to be called here as the undelying
 343:Src/mc_tasks_foc.c ****                * implementation changes in time depending on the Profiler's state
 344:Src/mc_tasks_foc.c ****                * machine. Calling the generic function ensures that the correct
 345:Src/mc_tasks_foc.c ****                * implementation is invoked */
 346:Src/mc_tasks_foc.c ****               PWMC_SwitchOnPWM(pwmcHandle[M1]);
 347:Src/mc_tasks_foc.c ****               Mci[M1].State = START;
 348:Src/mc_tasks_foc.c ****               PWMC_SwitchOnPWM(pwmcHandle[M1]);
 349:Src/mc_tasks_foc.c ****             }
 350:Src/mc_tasks_foc.c ****             else
 351:Src/mc_tasks_foc.c ****             {
 352:Src/mc_tasks_foc.c ****               /* Nothing to be done, FW waits for bootstrap capacitor to charge */
 353:Src/mc_tasks_foc.c ****             }
 354:Src/mc_tasks_foc.c ****           }
 355:Src/mc_tasks_foc.c ****           break;
 356:Src/mc_tasks_foc.c ****         }
 357:Src/mc_tasks_foc.c **** 
 358:Src/mc_tasks_foc.c ****         case START:
 359:Src/mc_tasks_foc.c ****         {
 360:Src/mc_tasks_foc.c ****           if (MCI_STOP == Mci[M1].DirectCommand)
 361:Src/mc_tasks_foc.c ****           {
 362:Src/mc_tasks_foc.c ****             TSK_MF_StopProcessing(M1);
 363:Src/mc_tasks_foc.c ****           }
 364:Src/mc_tasks_foc.c ****           else
 365:Src/mc_tasks_foc.c ****           {
 366:Src/mc_tasks_foc.c ****             /* Mechanical speed as imposed by the Virtual Speed Sensor during the Rev Up phase. */
 367:Src/mc_tasks_foc.c ****             int16_t hForcedMecSpeedUnit;
 368:Src/mc_tasks_foc.c ****             qd_t IqdRef;
 369:Src/mc_tasks_foc.c ****             bool ObserverConverged;
 370:Src/mc_tasks_foc.c **** 
ARM GAS  /tmp/ccF6ITrB.s 			page 8


 371:Src/mc_tasks_foc.c ****             /* Execute the Rev Up procedure */
 372:Src/mc_tasks_foc.c ****             if(! RUC_Exec(&RevUpControlM1))
 373:Src/mc_tasks_foc.c ****             {
 374:Src/mc_tasks_foc.c ****             /* The time allowed for the startup sequence has expired */
 375:Src/mc_tasks_foc.c ****               /* However, no error is generated when OPEN LOOP is enabled
 376:Src/mc_tasks_foc.c ****                * since then the system does not try to close the loop... */
 377:Src/mc_tasks_foc.c ****             }
 378:Src/mc_tasks_foc.c ****             else
 379:Src/mc_tasks_foc.c ****             {
 380:Src/mc_tasks_foc.c ****               /* Execute the torque open loop current start-up ramp:
 381:Src/mc_tasks_foc.c ****                * Compute the Iq reference current as configured in the Rev Up sequence */
 382:Src/mc_tasks_foc.c ****               IqdRef.q = STC_CalcTorqueReference(pSTC[M1]);
 383:Src/mc_tasks_foc.c ****               IqdRef.d = FOCVars[M1].UserIdref;
 384:Src/mc_tasks_foc.c ****               /* Iqd reference current used by the High Frequency Loop to generate the PWM output *
 385:Src/mc_tasks_foc.c ****               FOCVars[M1].Iqdref = IqdRef;
 386:Src/mc_tasks_foc.c ****            }
 387:Src/mc_tasks_foc.c **** 
 388:Src/mc_tasks_foc.c ****             (void)VSS_CalcAvrgMecSpeedUnit(&VirtualSpeedSensorM1, &hForcedMecSpeedUnit);
 389:Src/mc_tasks_foc.c **** 
 390:Src/mc_tasks_foc.c ****               ObserverConverged = STO_PLL_IsObserverConverged(&STO_PLL_M1, &hForcedMecSpeedUnit);
 391:Src/mc_tasks_foc.c ****               STO_SetDirection(&STO_PLL_M1, (int8_t)MCI_GetImposedMotorDirection(&Mci[M1]));
 392:Src/mc_tasks_foc.c **** 
 393:Src/mc_tasks_foc.c ****               (void)VSS_SetStartTransition(&VirtualSpeedSensorM1, ObserverConverged);
 394:Src/mc_tasks_foc.c ****             if (ObserverConverged)
 395:Src/mc_tasks_foc.c ****             {
 396:Src/mc_tasks_foc.c ****               qd_t StatorCurrent = MCM_Park(FOCVars[M1].Ialphabeta, SPD_GetElAngle(&STO_PLL_M1._Sup
 397:Src/mc_tasks_foc.c **** 
 398:Src/mc_tasks_foc.c ****               /* Start switch over ramp. This ramp will transition from the revup to the closed loo
 399:Src/mc_tasks_foc.c ****               REMNG_Init(pREMNG[M1]);
 400:Src/mc_tasks_foc.c ****               (void)REMNG_ExecRamp(pREMNG[M1], FOCVars[M1].Iqdref.q, 0);
 401:Src/mc_tasks_foc.c ****               (void)REMNG_ExecRamp(pREMNG[M1], StatorCurrent.q, TRANSITION_DURATION);
 402:Src/mc_tasks_foc.c **** 
 403:Src/mc_tasks_foc.c ****               Mci[M1].State = SWITCH_OVER;
 404:Src/mc_tasks_foc.c ****             }
 405:Src/mc_tasks_foc.c ****           }
 406:Src/mc_tasks_foc.c ****           break;
 407:Src/mc_tasks_foc.c ****         }
 408:Src/mc_tasks_foc.c **** 
 409:Src/mc_tasks_foc.c ****         case SWITCH_OVER:
 410:Src/mc_tasks_foc.c ****         {
 411:Src/mc_tasks_foc.c ****           if (MCI_STOP == Mci[M1].DirectCommand)
 412:Src/mc_tasks_foc.c ****           {
 413:Src/mc_tasks_foc.c ****             TSK_MF_StopProcessing(M1);
 414:Src/mc_tasks_foc.c ****           }
 415:Src/mc_tasks_foc.c ****           else
 416:Src/mc_tasks_foc.c ****           {
 417:Src/mc_tasks_foc.c ****             bool LoopClosed;
 418:Src/mc_tasks_foc.c ****             int16_t hForcedMecSpeedUnit;
 419:Src/mc_tasks_foc.c **** 
 420:Src/mc_tasks_foc.c ****               /* Compute the virtual speed and positions of the rotor.
 421:Src/mc_tasks_foc.c ****                  The function returns true if the virtual speed is in the reliability range */
 422:Src/mc_tasks_foc.c ****               LoopClosed = VSS_CalcAvrgMecSpeedUnit(&VirtualSpeedSensorM1, &hForcedMecSpeedUnit);
 423:Src/mc_tasks_foc.c ****               /* Check if the transition ramp has completed. */
 424:Src/mc_tasks_foc.c ****               bool tempBool;
 425:Src/mc_tasks_foc.c ****               tempBool = VSS_TransitionEnded(&VirtualSpeedSensorM1);
 426:Src/mc_tasks_foc.c ****               LoopClosed = LoopClosed || tempBool;
 427:Src/mc_tasks_foc.c **** 
ARM GAS  /tmp/ccF6ITrB.s 			page 9


 428:Src/mc_tasks_foc.c ****               /* If any of the above conditions is true, the loop is considered closed.
 429:Src/mc_tasks_foc.c ****                  The state machine transitions to the RUN state */
 430:Src/mc_tasks_foc.c ****               if (true ==  LoopClosed)
 431:Src/mc_tasks_foc.c ****               {
 432:Src/mc_tasks_foc.c **** #if PID_SPEED_INTEGRAL_INIT_DIV == 0
 433:Src/mc_tasks_foc.c ****                 PID_SetIntegralTerm(&PIDSpeedHandle_M1, 0);
 434:Src/mc_tasks_foc.c **** #else
 435:Src/mc_tasks_foc.c ****                 PID_SetIntegralTerm(&PIDSpeedHandle_M1,
 436:Src/mc_tasks_foc.c ****                                     (((int32_t)FOCVars[M1].Iqdref.q * (int16_t)PID_GetKIDivisor(&PI
 437:Src/mc_tasks_foc.c ****                                     / PID_SPEED_INTEGRAL_INIT_DIV));
 438:Src/mc_tasks_foc.c **** #endif
 439:Src/mc_tasks_foc.c ****                 OTT_SR(&OTT);
 440:Src/mc_tasks_foc.c ****                 /* USER CODE BEGIN MediumFrequencyTask M1 1 */
 441:Src/mc_tasks_foc.c **** 
 442:Src/mc_tasks_foc.c ****                 /* USER CODE END MediumFrequencyTask M1 1 */
 443:Src/mc_tasks_foc.c ****                 STC_SetSpeedSensor(pSTC[M1], &STO_PLL_M1._Super); /* Observer has converged */
 444:Src/mc_tasks_foc.c ****                 FOC_InitAdditionalMethods(M1);
 445:Src/mc_tasks_foc.c ****                 FOC_CalcCurrRef(M1);
 446:Src/mc_tasks_foc.c ****                 STC_ForceSpeedReferenceToCurrentSpeed(pSTC[M1]); /* Init the reference speed to cur
 447:Src/mc_tasks_foc.c ****                 MCI_ExecBufferedCommands(&Mci[M1]); /* Exec the speed ramp after changing of the sp
 448:Src/mc_tasks_foc.c ****                 Mci[M1].State = RUN;
 449:Src/mc_tasks_foc.c ****               }
 450:Src/mc_tasks_foc.c ****           }
 451:Src/mc_tasks_foc.c ****           break;
 452:Src/mc_tasks_foc.c ****         }
 453:Src/mc_tasks_foc.c **** 
 454:Src/mc_tasks_foc.c ****         case RUN:
 455:Src/mc_tasks_foc.c ****         {
 456:Src/mc_tasks_foc.c ****           if (MCI_STOP == Mci[M1].DirectCommand)
 457:Src/mc_tasks_foc.c ****           {
 458:Src/mc_tasks_foc.c ****             TSK_MF_StopProcessing(M1);
 459:Src/mc_tasks_foc.c ****           }
 460:Src/mc_tasks_foc.c ****           else
 461:Src/mc_tasks_foc.c ****           {
 462:Src/mc_tasks_foc.c ****             /* USER CODE BEGIN MediumFrequencyTask M1 2 */
 463:Src/mc_tasks_foc.c **** 
 464:Src/mc_tasks_foc.c ****             /* USER CODE END MediumFrequencyTask M1 2 */
 465:Src/mc_tasks_foc.c **** 
 466:Src/mc_tasks_foc.c ****             MCI_ExecBufferedCommands(&Mci[M1]);
 467:Src/mc_tasks_foc.c **** 
 468:Src/mc_tasks_foc.c ****               FOC_CalcCurrRef(M1);
 469:Src/mc_tasks_foc.c ****               if(!IsSpeedReliable)
 470:Src/mc_tasks_foc.c ****               {
 471:Src/mc_tasks_foc.c ****                 MCI_FaultProcessing(&Mci[M1], MC_SPEED_FDBK, 0);
 472:Src/mc_tasks_foc.c ****               }
 473:Src/mc_tasks_foc.c ****               else
 474:Src/mc_tasks_foc.c ****               {
 475:Src/mc_tasks_foc.c ****                 /* Nothing to do */
 476:Src/mc_tasks_foc.c ****               }
 477:Src/mc_tasks_foc.c ****             OTT_MF(&OTT);
 478:Src/mc_tasks_foc.c ****           }
 479:Src/mc_tasks_foc.c ****           break;
 480:Src/mc_tasks_foc.c ****         }
 481:Src/mc_tasks_foc.c **** 
 482:Src/mc_tasks_foc.c ****         case STOP:
 483:Src/mc_tasks_foc.c ****         {
 484:Src/mc_tasks_foc.c ****           if (TSK_StopPermanencyTimeHasElapsedM1())
ARM GAS  /tmp/ccF6ITrB.s 			page 10


 485:Src/mc_tasks_foc.c ****           {
 486:Src/mc_tasks_foc.c **** 
 487:Src/mc_tasks_foc.c ****             STC_SetSpeedSensor(pSTC[M1], &VirtualSpeedSensorM1._Super);    /* Sensor-less */
 488:Src/mc_tasks_foc.c ****             VSS_Clear(&VirtualSpeedSensorM1); /* Reset measured speed in IDLE */
 489:Src/mc_tasks_foc.c ****             /* USER CODE BEGIN MediumFrequencyTask M1 5 */
 490:Src/mc_tasks_foc.c **** 
 491:Src/mc_tasks_foc.c ****             /* USER CODE END MediumFrequencyTask M1 5 */
 492:Src/mc_tasks_foc.c ****             Mci[M1].DirectCommand = MCI_NO_COMMAND;
 493:Src/mc_tasks_foc.c ****             Mci[M1].State = IDLE;
 494:Src/mc_tasks_foc.c ****           }
 495:Src/mc_tasks_foc.c ****           else
 496:Src/mc_tasks_foc.c ****           {
 497:Src/mc_tasks_foc.c ****             /* Nothing to do, FW waits for to stop */
 498:Src/mc_tasks_foc.c ****           }
 499:Src/mc_tasks_foc.c ****           break;
 500:Src/mc_tasks_foc.c ****         }
 501:Src/mc_tasks_foc.c **** 
 502:Src/mc_tasks_foc.c ****         case FAULT_OVER:
 503:Src/mc_tasks_foc.c ****         {
 504:Src/mc_tasks_foc.c ****           if (MCI_ACK_FAULTS == Mci[M1].DirectCommand)
 505:Src/mc_tasks_foc.c ****           {
 506:Src/mc_tasks_foc.c ****             Mci[M1].DirectCommand = MCI_NO_COMMAND;
 507:Src/mc_tasks_foc.c ****             Mci[M1].State = IDLE;
 508:Src/mc_tasks_foc.c ****           }
 509:Src/mc_tasks_foc.c ****           else
 510:Src/mc_tasks_foc.c ****           {
 511:Src/mc_tasks_foc.c ****             /* Nothing to do, FW stays in FAULT_OVER state until acknowledgement */
 512:Src/mc_tasks_foc.c ****           }
 513:Src/mc_tasks_foc.c ****           break;
 514:Src/mc_tasks_foc.c ****         }
 515:Src/mc_tasks_foc.c **** 
 516:Src/mc_tasks_foc.c ****         case FAULT_NOW:
 517:Src/mc_tasks_foc.c ****         {
 518:Src/mc_tasks_foc.c ****           Mci[M1].State = FAULT_OVER;
 519:Src/mc_tasks_foc.c ****           break;
 520:Src/mc_tasks_foc.c ****         }
 521:Src/mc_tasks_foc.c **** 
 522:Src/mc_tasks_foc.c ****         case WAIT_STOP_MOTOR:
 523:Src/mc_tasks_foc.c ****         {
 524:Src/mc_tasks_foc.c ****           if (MCI_STOP == Mci[M1].DirectCommand)
 525:Src/mc_tasks_foc.c ****           {
 526:Src/mc_tasks_foc.c ****             TSK_MF_StopProcessing(M1);
 527:Src/mc_tasks_foc.c ****           }
 528:Src/mc_tasks_foc.c ****           else
 529:Src/mc_tasks_foc.c ****           {
 530:Src/mc_tasks_foc.c ****             if (0 == SCC_DetectBemf(&SCC))
 531:Src/mc_tasks_foc.c ****             {
 532:Src/mc_tasks_foc.c ****               /* In a sensorless configuration. Initiate the Revup procedure */
 533:Src/mc_tasks_foc.c ****               FOCVars[M1].bDriveInput = EXTERNAL;
 534:Src/mc_tasks_foc.c ****               STC_SetSpeedSensor(pSTC[M1], &VirtualSpeedSensorM1._Super);
 535:Src/mc_tasks_foc.c ****                STO_PLL_Clear(&STO_PLL_M1);
 536:Src/mc_tasks_foc.c ****               FOC_Clear(M1);
 537:Src/mc_tasks_foc.c ****               SCC_Start(&SCC);
 538:Src/mc_tasks_foc.c ****               /* The generic function needs to be called here as the undelying
 539:Src/mc_tasks_foc.c ****                * implementation changes in time depending on the Profiler's state
 540:Src/mc_tasks_foc.c ****                * machine. Calling the generic function ensures that the correct
 541:Src/mc_tasks_foc.c ****                * implementation is invoked */
ARM GAS  /tmp/ccF6ITrB.s 			page 11


 542:Src/mc_tasks_foc.c ****               PWMC_SwitchOnPWM(pwmcHandle[M1]);
 543:Src/mc_tasks_foc.c ****               Mci[M1].State = START;
 544:Src/mc_tasks_foc.c ****             }
 545:Src/mc_tasks_foc.c ****             else
 546:Src/mc_tasks_foc.c ****             {
 547:Src/mc_tasks_foc.c ****               /* Nothing to do */
 548:Src/mc_tasks_foc.c ****             }
 549:Src/mc_tasks_foc.c ****           }
 550:Src/mc_tasks_foc.c ****           break;
 551:Src/mc_tasks_foc.c ****         }
 552:Src/mc_tasks_foc.c **** 
 553:Src/mc_tasks_foc.c ****         default:
 554:Src/mc_tasks_foc.c ****           break;
 555:Src/mc_tasks_foc.c ****        }
 556:Src/mc_tasks_foc.c ****     }
 557:Src/mc_tasks_foc.c ****     else
 558:Src/mc_tasks_foc.c ****     {
 559:Src/mc_tasks_foc.c ****       Mci[M1].State = FAULT_OVER;
 560:Src/mc_tasks_foc.c ****     }
 561:Src/mc_tasks_foc.c ****   }
 562:Src/mc_tasks_foc.c ****   else
 563:Src/mc_tasks_foc.c ****   {
 564:Src/mc_tasks_foc.c ****     Mci[M1].State = FAULT_NOW;
 565:Src/mc_tasks_foc.c ****   }
 566:Src/mc_tasks_foc.c ****   SCC_MF(&SCC);
 567:Src/mc_tasks_foc.c ****   /* USER CODE BEGIN MediumFrequencyTask M1 6 */
 568:Src/mc_tasks_foc.c **** 
 569:Src/mc_tasks_foc.c ****   /* USER CODE END MediumFrequencyTask M1 6 */
 570:Src/mc_tasks_foc.c **** }
 571:Src/mc_tasks_foc.c **** 
 572:Src/mc_tasks_foc.c **** /**
 573:Src/mc_tasks_foc.c ****   * @brief  It re-initializes the current and voltage variables. Moreover
 574:Src/mc_tasks_foc.c ****   *         it clears qd currents PI controllers, voltage sensor and SpeednTorque
 575:Src/mc_tasks_foc.c ****   *         controller. It must be called before each motor restart.
 576:Src/mc_tasks_foc.c ****   *         It does not clear speed sensor.
 577:Src/mc_tasks_foc.c ****   * @param  bMotor related motor it can be M1 or M2.
 578:Src/mc_tasks_foc.c ****   */
 579:Src/mc_tasks_foc.c **** __weak void FOC_Clear(uint8_t bMotor)
 580:Src/mc_tasks_foc.c **** {
  31              		.loc 1 580 1 view -0
  32              		.cfi_startproc
  33              		@ args = 0, pretend = 0, frame = 0
  34              		@ frame_needed = 0, uses_anonymous_args = 0
 581:Src/mc_tasks_foc.c ****   /* USER CODE BEGIN FOC_Clear 0 */
 582:Src/mc_tasks_foc.c **** 
 583:Src/mc_tasks_foc.c ****   /* USER CODE END FOC_Clear 0 */
 584:Src/mc_tasks_foc.c **** 
 585:Src/mc_tasks_foc.c ****   ab_t NULL_ab = {((int16_t)0), ((int16_t)0)};
  35              		.loc 1 585 3 view .LVU1
 586:Src/mc_tasks_foc.c ****   qd_t NULL_qd = {((int16_t)0), ((int16_t)0)};
  36              		.loc 1 586 3 view .LVU2
 587:Src/mc_tasks_foc.c ****   alphabeta_t NULL_alphabeta = {((int16_t)0), ((int16_t)0)};
  37              		.loc 1 587 3 view .LVU3
 588:Src/mc_tasks_foc.c **** 
 589:Src/mc_tasks_foc.c ****   FOCVars[bMotor].Iab = NULL_ab;
  38              		.loc 1 589 3 view .LVU4
 590:Src/mc_tasks_foc.c ****   FOCVars[bMotor].Ialphabeta = NULL_alphabeta;
ARM GAS  /tmp/ccF6ITrB.s 			page 12


  39              		.loc 1 590 3 view .LVU5
 580:Src/mc_tasks_foc.c ****   /* USER CODE BEGIN FOC_Clear 0 */
  40              		.loc 1 580 1 is_stmt 0 view .LVU6
  41 0000 38B5     		push	{r3, r4, r5, lr}
  42              	.LCFI0:
  43              		.cfi_def_cfa_offset 16
  44              		.cfi_offset 3, -16
  45              		.cfi_offset 4, -12
  46              		.cfi_offset 5, -8
  47              		.cfi_offset 14, -4
  48 0002 2623     		movs	r3, #38
  49 0004 1B49     		ldr	r1, .L8
  50 0006 00FB03F3 		mul	r3, r0, r3
 589:Src/mc_tasks_foc.c ****   FOCVars[bMotor].Ialphabeta = NULL_alphabeta;
  51              		.loc 1 589 23 view .LVU7
  52 000a 0025     		movs	r5, #0
  53 000c 5D50     		str	r5, [r3, r1]	@ unaligned
 580:Src/mc_tasks_foc.c ****   /* USER CODE BEGIN FOC_Clear 0 */
  54              		.loc 1 580 1 view .LVU8
  55 000e 0446     		mov	r4, r0
  56 0010 03F10802 		add	r2, r3, #8
  57 0014 5818     		adds	r0, r3, r1
  58              	.LVL1:
 580:Src/mc_tasks_foc.c ****   /* USER CODE BEGIN FOC_Clear 0 */
  59              		.loc 1 580 1 view .LVU9
  60 0016 1033     		adds	r3, r3, #16
  61 0018 0A44     		add	r2, r2, r1
  62 001a 0B44     		add	r3, r3, r1
 591:Src/mc_tasks_foc.c ****   FOCVars[bMotor].Iqd = NULL_qd;
 592:Src/mc_tasks_foc.c ****     FOCVars[bMotor].Iqdref = NULL_qd;
 593:Src/mc_tasks_foc.c ****   FOCVars[bMotor].hTeref = (int16_t)0;
 594:Src/mc_tasks_foc.c ****   FOCVars[bMotor].Vqd = NULL_qd;
 595:Src/mc_tasks_foc.c ****   FOCVars[bMotor].Valphabeta = NULL_alphabeta;
 596:Src/mc_tasks_foc.c ****   FOCVars[bMotor].hElAngle = (int16_t)0;
 597:Src/mc_tasks_foc.c **** 
 598:Src/mc_tasks_foc.c ****   PID_SetIntegralTerm(pPIDIq[bMotor], ((int32_t)0));
  63              		.loc 1 598 3 view .LVU10
  64 001c 1649     		ldr	r1, .L8+4
 589:Src/mc_tasks_foc.c ****   FOCVars[bMotor].Ialphabeta = NULL_alphabeta;
  65              		.loc 1 589 23 view .LVU11
  66 001e 4560     		str	r5, [r0, #4]	@ unaligned
 591:Src/mc_tasks_foc.c ****   FOCVars[bMotor].Iqd = NULL_qd;
  67              		.loc 1 591 3 is_stmt 1 view .LVU12
 592:Src/mc_tasks_foc.c ****   FOCVars[bMotor].hTeref = (int16_t)0;
  68              		.loc 1 592 5 view .LVU13
 591:Src/mc_tasks_foc.c ****   FOCVars[bMotor].Iqd = NULL_qd;
  69              		.loc 1 591 23 is_stmt 0 view .LVU14
  70 0020 5560     		str	r5, [r2, #4]	@ unaligned
  71 0022 9560     		str	r5, [r2, #8]	@ unaligned
 593:Src/mc_tasks_foc.c ****   FOCVars[bMotor].Vqd = NULL_qd;
  72              		.loc 1 593 3 is_stmt 1 view .LVU15
 594:Src/mc_tasks_foc.c ****   FOCVars[bMotor].Valphabeta = NULL_alphabeta;
  73              		.loc 1 594 3 view .LVU16
 595:Src/mc_tasks_foc.c ****   FOCVars[bMotor].hElAngle = (int16_t)0;
  74              		.loc 1 595 3 view .LVU17
 596:Src/mc_tasks_foc.c **** 
  75              		.loc 1 596 3 view .LVU18
ARM GAS  /tmp/ccF6ITrB.s 			page 13


  76              		.loc 1 598 3 is_stmt 0 view .LVU19
  77 0024 51F82400 		ldr	r0, [r1, r4, lsl #2]
 594:Src/mc_tasks_foc.c ****   FOCVars[bMotor].Valphabeta = NULL_alphabeta;
  78              		.loc 1 594 23 view .LVU20
  79 0028 C3F80650 		str	r5, [r3, #6]	@ unaligned
  80 002c C3F80A50 		str	r5, [r3, #10]	@ unaligned
  81 0030 C3F80E50 		str	r5, [r3, #14]	@ unaligned
  82              		.loc 1 598 3 is_stmt 1 view .LVU21
  83 0034 2946     		mov	r1, r5
  84 0036 FFF7FEFF 		bl	PID_SetIntegralTerm
  85              	.LVL2:
 599:Src/mc_tasks_foc.c ****   PID_SetIntegralTerm(pPIDId[bMotor], ((int32_t)0));
  86              		.loc 1 599 3 view .LVU22
  87 003a 104B     		ldr	r3, .L8+8
  88 003c 2946     		mov	r1, r5
  89 003e 53F82400 		ldr	r0, [r3, r4, lsl #2]
  90 0042 FFF7FEFF 		bl	PID_SetIntegralTerm
  91              	.LVL3:
 600:Src/mc_tasks_foc.c **** 
 601:Src/mc_tasks_foc.c ****   STC_Clear(pSTC[bMotor]);
  92              		.loc 1 601 3 view .LVU23
  93 0046 0E4B     		ldr	r3, .L8+12
  94 0048 53F82400 		ldr	r0, [r3, r4, lsl #2]
  95 004c FFF7FEFF 		bl	STC_Clear
  96              	.LVL4:
 602:Src/mc_tasks_foc.c **** 
 603:Src/mc_tasks_foc.c ****   PWMC_SwitchOffPWM(pwmcHandle[bMotor]);
  97              		.loc 1 603 3 view .LVU24
  98 0050 0C4B     		ldr	r3, .L8+16
  99 0052 53F82400 		ldr	r0, [r3, r4, lsl #2]
 100 0056 FFF7FEFF 		bl	PWMC_SwitchOffPWM
 101              	.LVL5:
 604:Src/mc_tasks_foc.c **** 
 605:Src/mc_tasks_foc.c ****   if (NULL == pFF[bMotor])
 102              		.loc 1 605 3 view .LVU25
 103              		.loc 1 605 18 is_stmt 0 view .LVU26
 104 005a 0B4B     		ldr	r3, .L8+20
 105 005c 53F82400 		ldr	r0, [r3, r4, lsl #2]
 106              		.loc 1 605 6 view .LVU27
 107 0060 08B1     		cbz	r0, .L2
 606:Src/mc_tasks_foc.c ****   {
 607:Src/mc_tasks_foc.c ****     /* Nothing to do */
 608:Src/mc_tasks_foc.c ****   }
 609:Src/mc_tasks_foc.c ****   else
 610:Src/mc_tasks_foc.c ****   {
 611:Src/mc_tasks_foc.c ****     FF_Clear(pFF[bMotor]);
 108              		.loc 1 611 5 is_stmt 1 view .LVU28
 109 0062 FFF7FEFF 		bl	FF_Clear
 110              	.LVL6:
 111              	.L2:
 612:Src/mc_tasks_foc.c ****   }
 613:Src/mc_tasks_foc.c **** 
 614:Src/mc_tasks_foc.c ****   MC_Perf_Clear(&PerfTraces,bMotor);
 112              		.loc 1 614 3 view .LVU29
 113 0066 2146     		mov	r1, r4
 114 0068 0848     		ldr	r0, .L8+24
 615:Src/mc_tasks_foc.c ****   /* USER CODE BEGIN FOC_Clear 1 */
ARM GAS  /tmp/ccF6ITrB.s 			page 14


 616:Src/mc_tasks_foc.c **** 
 617:Src/mc_tasks_foc.c ****   /* USER CODE END FOC_Clear 1 */
 618:Src/mc_tasks_foc.c **** }
 115              		.loc 1 618 1 is_stmt 0 view .LVU30
 116 006a BDE83840 		pop	{r3, r4, r5, lr}
 117              	.LCFI1:
 118              		.cfi_restore 14
 119              		.cfi_restore 5
 120              		.cfi_restore 4
 121              		.cfi_restore 3
 122              		.cfi_def_cfa_offset 0
 614:Src/mc_tasks_foc.c ****   /* USER CODE BEGIN FOC_Clear 1 */
 123              		.loc 1 614 3 view .LVU31
 124 006e FFF7FEBF 		b	MC_Perf_Clear
 125              	.LVL7:
 126              	.L9:
 127 0072 00BF     		.align	2
 128              	.L8:
 129 0074 00000000 		.word	FOCVars
 130 0078 00000000 		.word	pPIDIq
 131 007c 00000000 		.word	pPIDId
 132 0080 00000000 		.word	pSTC
 133 0084 00000000 		.word	pwmcHandle
 134 0088 00000000 		.word	pFF
 135 008c 00000000 		.word	PerfTraces
 136              		.cfi_endproc
 137              	.LFE1870:
 139              		.section	.text.FOC_Init,"ax",%progbits
 140              		.align	1
 141              		.p2align 2,,3
 142              		.weak	FOC_Init
 143              		.syntax unified
 144              		.thumb
 145              		.thumb_func
 146              		.fpu fpv4-sp-d16
 148              	FOC_Init:
 149              	.LFB1867:
  82:Src/mc_tasks_foc.c **** 
 150              		.loc 1 82 1 is_stmt 1 view -0
 151              		.cfi_startproc
 152              		@ args = 0, pretend = 0, frame = 8
 153              		@ frame_needed = 0, uses_anonymous_args = 0
  91:Src/mc_tasks_foc.c ****     R3_2_Init(&PWM_Handle_M1);
 154              		.loc 1 91 5 view .LVU33
  82:Src/mc_tasks_foc.c **** 
 155              		.loc 1 82 1 is_stmt 0 view .LVU34
 156 0000 2DE9F04F 		push	{r4, r5, r6, r7, r8, r9, r10, fp, lr}
 157              	.LCFI2:
 158              		.cfi_def_cfa_offset 36
 159              		.cfi_offset 4, -36
 160              		.cfi_offset 5, -32
 161              		.cfi_offset 6, -28
 162              		.cfi_offset 7, -24
 163              		.cfi_offset 8, -20
 164              		.cfi_offset 9, -16
 165              		.cfi_offset 10, -12
 166              		.cfi_offset 11, -8
ARM GAS  /tmp/ccF6ITrB.s 			page 15


 167              		.cfi_offset 14, -4
  91:Src/mc_tasks_foc.c ****     R3_2_Init(&PWM_Handle_M1);
 168              		.loc 1 91 20 view .LVU35
 169 0004 DFF85881 		ldr	r8, .L12+64
 170 0008 4548     		ldr	r0, .L12
 106:Src/mc_tasks_foc.c **** 
 171              		.loc 1 106 5 view .LVU36
 172 000a 464F     		ldr	r7, .L12+4
 111:Src/mc_tasks_foc.c **** 
 173              		.loc 1 111 5 view .LVU37
 174 000c 464E     		ldr	r6, .L12+8
  91:Src/mc_tasks_foc.c ****     R3_2_Init(&PWM_Handle_M1);
 175              		.loc 1 91 20 view .LVU38
 176 000e C8F80000 		str	r0, [r8]
  92:Src/mc_tasks_foc.c **** 
 177              		.loc 1 92 5 is_stmt 1 view .LVU39
  82:Src/mc_tasks_foc.c **** 
 178              		.loc 1 82 1 is_stmt 0 view .LVU40
 179 0012 85B0     		sub	sp, sp, #20
 180              	.LCFI3:
 181              		.cfi_def_cfa_offset 56
  92:Src/mc_tasks_foc.c **** 
 182              		.loc 1 92 5 view .LVU41
 183 0014 FFF7FEFF 		bl	R3_2_Init
 184              	.LVL8:
 101:Src/mc_tasks_foc.c **** 
 185              		.loc 1 101 5 is_stmt 1 view .LVU42
 116:Src/mc_tasks_foc.c **** 
 186              		.loc 1 116 5 is_stmt 0 view .LVU43
 187 0018 444D     		ldr	r5, .L12+12
 121:Src/mc_tasks_foc.c **** 
 188              		.loc 1 121 5 view .LVU44
 189 001a DFF848A1 		ldr	r10, .L12+68
 190 001e DFF84891 		ldr	r9, .L12+72
 138:Src/mc_tasks_foc.c **** 
 191              		.loc 1 138 5 view .LVU45
 192 0022 DFF848B1 		ldr	fp, .L12+76
 133:Src/mc_tasks_foc.c **** 
 193              		.loc 1 133 24 view .LVU46
 194 0026 424C     		ldr	r4, .L12+16
 101:Src/mc_tasks_foc.c **** 
 195              		.loc 1 101 5 view .LVU47
 196 0028 FFF7FEFF 		bl	startTimers
 197              	.LVL9:
 106:Src/mc_tasks_foc.c **** 
 198              		.loc 1 106 5 is_stmt 1 view .LVU48
 199 002c 3846     		mov	r0, r7
 200 002e FFF7FEFF 		bl	PID_HandleInit
 201              	.LVL10:
 111:Src/mc_tasks_foc.c **** 
 202              		.loc 1 111 5 view .LVU49
 203 0032 3046     		mov	r0, r6
 204 0034 FFF7FEFF 		bl	STO_PLL_Init
 205              	.LVL11:
 116:Src/mc_tasks_foc.c **** 
 206              		.loc 1 116 5 view .LVU50
 207 0038 2868     		ldr	r0, [r5]
ARM GAS  /tmp/ccF6ITrB.s 			page 16


 208 003a 3246     		mov	r2, r6
 209 003c 3946     		mov	r1, r7
 210 003e FFF7FEFF 		bl	STC_Init
 211              	.LVL12:
 121:Src/mc_tasks_foc.c **** 
 212              		.loc 1 121 5 view .LVU51
 213 0042 D8F80030 		ldr	r3, [r8]
 214 0046 2968     		ldr	r1, [r5]
 215 0048 0093     		str	r3, [sp]
 216 004a 5246     		mov	r2, r10
 217 004c 394B     		ldr	r3, .L12+20
 218 004e 4846     		mov	r0, r9
 219 0050 FFF7FEFF 		bl	RUC_Init
 220              	.LVL13:
 126:Src/mc_tasks_foc.c ****     PID_HandleInit(&PIDIdHandle_M1);
 221              		.loc 1 126 5 view .LVU52
 222 0054 3848     		ldr	r0, .L12+24
 223 0056 FFF7FEFF 		bl	PID_HandleInit
 224              	.LVL14:
 127:Src/mc_tasks_foc.c **** 
 225              		.loc 1 127 5 view .LVU53
 226 005a 3848     		ldr	r0, .L12+28
 227 005c FFF7FEFF 		bl	PID_HandleInit
 228              	.LVL15:
 132:Src/mc_tasks_foc.c ****     pMPM[M1]->pFOCVars = &FOCVars[M1];
 229              		.loc 1 132 5 view .LVU54
 138:Src/mc_tasks_foc.c **** 
 230              		.loc 1 138 5 is_stmt 0 view .LVU55
 231 0060 374A     		ldr	r2, .L12+32
 132:Src/mc_tasks_foc.c ****     pMPM[M1]->pFOCVars = &FOCVars[M1];
 232              		.loc 1 132 9 view .LVU56
 233 0062 384B     		ldr	r3, .L12+36
 138:Src/mc_tasks_foc.c **** 
 234              		.loc 1 138 5 view .LVU57
 235 0064 1068     		ldr	r0, [r2]
 132:Src/mc_tasks_foc.c ****     pMPM[M1]->pFOCVars = &FOCVars[M1];
 236              		.loc 1 132 9 view .LVU58
 237 0066 1B68     		ldr	r3, [r3]
 138:Src/mc_tasks_foc.c **** 
 238              		.loc 1 138 5 view .LVU59
 239 0068 374A     		ldr	r2, .L12+40
 132:Src/mc_tasks_foc.c ****     pMPM[M1]->pFOCVars = &FOCVars[M1];
 240              		.loc 1 132 20 view .LVU60
 241 006a 3849     		ldr	r1, .L12+44
 242 006c D960     		str	r1, [r3, #12]
 133:Src/mc_tasks_foc.c **** 
 243              		.loc 1 133 5 is_stmt 1 view .LVU61
 138:Src/mc_tasks_foc.c **** 
 244              		.loc 1 138 5 is_stmt 0 view .LVU62
 245 006e 1268     		ldr	r2, [r2]
 133:Src/mc_tasks_foc.c **** 
 246              		.loc 1 133 24 view .LVU63
 247 0070 9C60     		str	r4, [r3, #8]
 138:Src/mc_tasks_foc.c **** 
 248              		.loc 1 138 5 is_stmt 1 view .LVU64
 249 0072 DBF80030 		ldr	r3, [fp]
 250 0076 FFF7FEFF 		bl	FF_Init
ARM GAS  /tmp/ccF6ITrB.s 			page 17


 251              	.LVL16:
 140:Src/mc_tasks_foc.c ****     REMNG_Init(pREMNG[M1]);
 252              		.loc 1 140 5 view .LVU65
 140:Src/mc_tasks_foc.c ****     REMNG_Init(pREMNG[M1]);
 253              		.loc 1 140 16 is_stmt 0 view .LVU66
 254 007a 354B     		ldr	r3, .L12+48
 255 007c 3548     		ldr	r0, .L12+52
 256 007e 1860     		str	r0, [r3]
 141:Src/mc_tasks_foc.c **** 
 257              		.loc 1 141 5 is_stmt 1 view .LVU67
 258 0080 FFF7FEFF 		bl	REMNG_Init
 259              	.LVL17:
 143:Src/mc_tasks_foc.c ****     SCC.pVBS = &BusVoltageSensor_M1;
 260              		.loc 1 143 5 view .LVU68
 150:Src/mc_tasks_foc.c ****     SCC.pRevupCtrl = &RevUpControlM1;
 261              		.loc 1 150 16 is_stmt 0 view .LVU69
 262 0084 304B     		ldr	r3, .L12+40
 143:Src/mc_tasks_foc.c ****     SCC.pVBS = &BusVoltageSensor_M1;
 263              		.loc 1 143 15 view .LVU70
 264 0086 3448     		ldr	r0, .L12+56
 149:Src/mc_tasks_foc.c ****     SCC.pPIDId = pPIDId[M1];
 265              		.loc 1 149 16 view .LVU71
 266 0088 DBF80020 		ldr	r2, [fp]
 150:Src/mc_tasks_foc.c ****     SCC.pRevupCtrl = &RevUpControlM1;
 267              		.loc 1 150 16 view .LVU72
 268 008c 1B68     		ldr	r3, [r3]
 151:Src/mc_tasks_foc.c ****     SCC.pSTO = &STO_PLL_M1;
 269              		.loc 1 151 20 view .LVU73
 270 008e C0F82090 		str	r9, [r0, #32]
 154:Src/mc_tasks_foc.c ****     SCC.pHT = MC_NULL;
 271              		.loc 1 154 14 view .LVU74
 272 0092 DFF8DC90 		ldr	r9, .L12+80
 143:Src/mc_tasks_foc.c ****     SCC.pVBS = &BusVoltageSensor_M1;
 273              		.loc 1 143 15 view .LVU75
 274 0096 D8F800C0 		ldr	ip, [r8]
 144:Src/mc_tasks_foc.c ****     SCC.pFOCVars = &FOCVars[M1];
 275              		.loc 1 144 14 view .LVU76
 276 009a 2C49     		ldr	r1, .L12+44
 146:Src/mc_tasks_foc.c ****     SCC.pVSS = &VirtualSpeedSensorM1;
 277              		.loc 1 146 14 view .LVU77
 278 009c DFF8D480 		ldr	r8, .L12+84
 153:Src/mc_tasks_foc.c ****     SCC.pOTT = &OTT;
 279              		.loc 1 153 14 view .LVU78
 280 00a0 DFF8D4B0 		ldr	fp, .L12+88
 147:Src/mc_tasks_foc.c ****     SCC.pCLM = &CircleLimitationM1;
 281              		.loc 1 147 14 view .LVU79
 282 00a4 C0F810A0 		str	r10, [r0, #16]
 150:Src/mc_tasks_foc.c ****     SCC.pRevupCtrl = &RevUpControlM1;
 283              		.loc 1 150 16 view .LVU80
 284 00a8 C0E90623 		strd	r2, r3, [r0, #24]
 155:Src/mc_tasks_foc.c ****     SCC_Init(&SCC);
 285              		.loc 1 155 13 view .LVU81
 286 00ac 4FF0000A 		mov	r10, #0
 148:Src/mc_tasks_foc.c ****     SCC.pPIDIq = pPIDIq[M1];
 287              		.loc 1 148 14 view .LVU82
 288 00b0 2A4B     		ldr	r3, .L12+60
 143:Src/mc_tasks_foc.c ****     SCC.pVBS = &BusVoltageSensor_M1;
ARM GAS  /tmp/ccF6ITrB.s 			page 18


 289              		.loc 1 143 15 view .LVU83
 290 00b2 C0F800C0 		str	ip, [r0]
 144:Src/mc_tasks_foc.c ****     SCC.pFOCVars = &FOCVars[M1];
 291              		.loc 1 144 5 is_stmt 1 view .LVU84
 144:Src/mc_tasks_foc.c ****     SCC.pFOCVars = &FOCVars[M1];
 292              		.loc 1 144 14 is_stmt 0 view .LVU85
 293 00b6 4160     		str	r1, [r0, #4]
 145:Src/mc_tasks_foc.c ****     SCC.pMCI = &Mci[M1];
 294              		.loc 1 145 5 is_stmt 1 view .LVU86
 148:Src/mc_tasks_foc.c ****     SCC.pPIDIq = pPIDIq[M1];
 295              		.loc 1 148 14 is_stmt 0 view .LVU87
 296 00b8 4361     		str	r3, [r0, #20]
 145:Src/mc_tasks_foc.c ****     SCC.pMCI = &Mci[M1];
 297              		.loc 1 145 18 view .LVU88
 298 00ba 8460     		str	r4, [r0, #8]
 146:Src/mc_tasks_foc.c ****     SCC.pVSS = &VirtualSpeedSensorM1;
 299              		.loc 1 146 5 is_stmt 1 view .LVU89
 152:Src/mc_tasks_foc.c ****     SCC.pSTC = &SpeednTorqCtrlM1;
 300              		.loc 1 152 14 is_stmt 0 view .LVU90
 301 00bc 4662     		str	r6, [r0, #36]
 154:Src/mc_tasks_foc.c ****     SCC.pHT = MC_NULL;
 302              		.loc 1 154 14 view .LVU91
 303 00be C0F82C90 		str	r9, [r0, #44]
 155:Src/mc_tasks_foc.c ****     SCC_Init(&SCC);
 304              		.loc 1 155 13 view .LVU92
 305 00c2 C0F830A0 		str	r10, [r0, #48]
 146:Src/mc_tasks_foc.c ****     SCC.pVSS = &VirtualSpeedSensorM1;
 306              		.loc 1 146 14 view .LVU93
 307 00c6 C0F80C80 		str	r8, [r0, #12]
 147:Src/mc_tasks_foc.c ****     SCC.pCLM = &CircleLimitationM1;
 308              		.loc 1 147 5 is_stmt 1 view .LVU94
 148:Src/mc_tasks_foc.c ****     SCC.pPIDIq = pPIDIq[M1];
 309              		.loc 1 148 5 view .LVU95
 149:Src/mc_tasks_foc.c ****     SCC.pPIDId = pPIDId[M1];
 310              		.loc 1 149 5 view .LVU96
 150:Src/mc_tasks_foc.c ****     SCC.pRevupCtrl = &RevUpControlM1;
 311              		.loc 1 150 5 view .LVU97
 151:Src/mc_tasks_foc.c ****     SCC.pSTO = &STO_PLL_M1;
 312              		.loc 1 151 5 view .LVU98
 152:Src/mc_tasks_foc.c ****     SCC.pSTC = &SpeednTorqCtrlM1;
 313              		.loc 1 152 5 view .LVU99
 153:Src/mc_tasks_foc.c ****     SCC.pOTT = &OTT;
 314              		.loc 1 153 5 view .LVU100
 154:Src/mc_tasks_foc.c ****     SCC.pHT = MC_NULL;
 315              		.loc 1 154 5 view .LVU101
 155:Src/mc_tasks_foc.c ****     SCC_Init(&SCC);
 316              		.loc 1 155 5 view .LVU102
 156:Src/mc_tasks_foc.c **** 
 317              		.loc 1 156 5 view .LVU103
 153:Src/mc_tasks_foc.c ****     SCC.pOTT = &OTT;
 318              		.loc 1 153 14 is_stmt 0 view .LVU104
 319 00ca C0F828B0 		str	fp, [r0, #40]
 156:Src/mc_tasks_foc.c **** 
 320              		.loc 1 156 5 view .LVU105
 321 00ce FFF7FEFF 		bl	SCC_Init
 322              	.LVL18:
 158:Src/mc_tasks_foc.c ****     OTT.pFOCVars = &FOCVars[M1];
ARM GAS  /tmp/ccF6ITrB.s 			page 19


 323              		.loc 1 158 5 is_stmt 1 view .LVU106
 162:Src/mc_tasks_foc.c **** 
 324              		.loc 1 162 5 is_stmt 0 view .LVU107
 325 00d2 4846     		mov	r0, r9
 161:Src/mc_tasks_foc.c ****     OTT_Init(&OTT);
 326              		.loc 1 161 14 view .LVU108
 327 00d4 C9E9027B 		strd	r7, fp, [r9, #8]
 158:Src/mc_tasks_foc.c ****     OTT.pFOCVars = &FOCVars[M1];
 328              		.loc 1 158 22 view .LVU109
 329 00d8 C9F80060 		str	r6, [r9]
 159:Src/mc_tasks_foc.c ****     OTT.pPIDSpeed = &PIDSpeedHandle_M1;
 330              		.loc 1 159 5 is_stmt 1 view .LVU110
 159:Src/mc_tasks_foc.c ****     OTT.pPIDSpeed = &PIDSpeedHandle_M1;
 331              		.loc 1 159 18 is_stmt 0 view .LVU111
 332 00dc C9F80440 		str	r4, [r9, #4]
 160:Src/mc_tasks_foc.c ****     OTT.pSTC = &SpeednTorqCtrlM1;
 333              		.loc 1 160 5 is_stmt 1 view .LVU112
 161:Src/mc_tasks_foc.c ****     OTT_Init(&OTT);
 334              		.loc 1 161 5 view .LVU113
 162:Src/mc_tasks_foc.c **** 
 335              		.loc 1 162 5 view .LVU114
 336 00e0 FFF7FEFF 		bl	OTT_Init
 337              	.LVL19:
 164:Src/mc_tasks_foc.c ****     FOCVars[M1].bDriveInput = EXTERNAL;
 338              		.loc 1 164 5 view .LVU115
 339 00e4 5046     		mov	r0, r10
 340 00e6 FFF7FEFF 		bl	FOC_Clear
 341              	.LVL20:
 165:Src/mc_tasks_foc.c ****     FOCVars[M1].Iqdref = STC_GetDefaultIqdref(pSTC[M1]);
 342              		.loc 1 165 5 view .LVU116
 165:Src/mc_tasks_foc.c ****     FOCVars[M1].Iqdref = STC_GetDefaultIqdref(pSTC[M1]);
 343              		.loc 1 165 29 is_stmt 0 view .LVU117
 344 00ea 0123     		movs	r3, #1
 166:Src/mc_tasks_foc.c ****     FOCVars[M1].UserIdref = STC_GetDefaultIqdref(pSTC[M1]).d;
 345              		.loc 1 166 26 view .LVU118
 346 00ec 2868     		ldr	r0, [r5]
 165:Src/mc_tasks_foc.c ****     FOCVars[M1].Iqdref = STC_GetDefaultIqdref(pSTC[M1]);
 347              		.loc 1 165 29 view .LVU119
 348 00ee 84F82430 		strb	r3, [r4, #36]
 166:Src/mc_tasks_foc.c ****     FOCVars[M1].UserIdref = STC_GetDefaultIqdref(pSTC[M1]).d;
 349              		.loc 1 166 5 is_stmt 1 view .LVU120
 166:Src/mc_tasks_foc.c ****     FOCVars[M1].UserIdref = STC_GetDefaultIqdref(pSTC[M1]).d;
 350              		.loc 1 166 26 is_stmt 0 view .LVU121
 351 00f2 FFF7FEFF 		bl	STC_GetDefaultIqdref
 352              	.LVL21:
 353 00f6 2082     		strh	r0, [r4, #16]	@ movhi
 354 00f8 C0F30F40 		ubfx	r0, r0, #16, #16
 355 00fc 6082     		strh	r0, [r4, #18]	@ movhi
 167:Src/mc_tasks_foc.c **** 
 356              		.loc 1 167 5 is_stmt 1 view .LVU122
 167:Src/mc_tasks_foc.c **** 
 357              		.loc 1 167 29 is_stmt 0 view .LVU123
 358 00fe 2868     		ldr	r0, [r5]
 359 0100 FFF7FEFF 		bl	STC_GetDefaultIqdref
 360              	.LVL22:
 361 0104 C0F30F43 		ubfx	r3, r0, #16, #16
 169:Src/mc_tasks_foc.c **** 
ARM GAS  /tmp/ccF6ITrB.s 			page 20


 362              		.loc 1 169 34 view .LVU124
 363 0108 2868     		ldr	r0, [r5]
 167:Src/mc_tasks_foc.c **** 
 364              		.loc 1 167 27 view .LVU125
 365 010a A382     		strh	r3, [r4, #20]	@ movhi
 169:Src/mc_tasks_foc.c **** 
 366              		.loc 1 169 5 is_stmt 1 view .LVU126
 169:Src/mc_tasks_foc.c **** 
 367              		.loc 1 169 34 is_stmt 0 view .LVU127
 368 010c FFF7FEFF 		bl	STC_GetDefaultIqdref
 369              	.LVL23:
 169:Src/mc_tasks_foc.c **** 
 370              		.loc 1 169 5 view .LVU128
 371 0110 5246     		mov	r2, r10
 372 0112 01B2     		sxth	r1, r0
 373 0114 4046     		mov	r0, r8
 174:Src/mc_tasks_foc.c **** 
 374              		.loc 1 174 1 view .LVU129
 375 0116 05B0     		add	sp, sp, #20
 376              	.LCFI4:
 377              		.cfi_def_cfa_offset 36
 378              		@ sp needed
 379 0118 BDE8F04F 		pop	{r4, r5, r6, r7, r8, r9, r10, fp, lr}
 380              	.LCFI5:
 381              		.cfi_restore 14
 382              		.cfi_restore 11
 383              		.cfi_restore 10
 384              		.cfi_restore 9
 385              		.cfi_restore 8
 386              		.cfi_restore 7
 387              		.cfi_restore 6
 388              		.cfi_restore 5
 389              		.cfi_restore 4
 390              		.cfi_def_cfa_offset 0
 169:Src/mc_tasks_foc.c **** 
 391              		.loc 1 169 5 view .LVU130
 392 011c FFF7FEBF 		b	MCI_ExecTorqueRamp
 393              	.LVL24:
 394              	.L13:
 395              		.align	2
 396              	.L12:
 397 0120 00000000 		.word	PWM_Handle_M1
 398 0124 00000000 		.word	PIDSpeedHandle_M1
 399 0128 00000000 		.word	STO_PLL_M1
 400 012c 00000000 		.word	pSTC
 401 0130 00000000 		.word	FOCVars
 402 0134 00000000 		.word	STO_M1
 403 0138 00000000 		.word	PIDIqHandle_M1
 404 013c 00000000 		.word	PIDIdHandle_M1
 405 0140 00000000 		.word	pFF
 406 0144 00000000 		.word	pMPM
 407 0148 00000000 		.word	pPIDId
 408 014c 00000000 		.word	BusVoltageSensor_M1
 409 0150 00000000 		.word	pREMNG
 410 0154 00000000 		.word	RampExtMngrHFParamsM1
 411 0158 00000000 		.word	SCC
 412 015c 00000000 		.word	CircleLimitationM1
ARM GAS  /tmp/ccF6ITrB.s 			page 21


 413 0160 00000000 		.word	pwmcHandle
 414 0164 00000000 		.word	VirtualSpeedSensorM1
 415 0168 00000000 		.word	RevUpControlM1
 416 016c 00000000 		.word	pPIDIq
 417 0170 00000000 		.word	OTT
 418 0174 00000000 		.word	Mci
 419 0178 00000000 		.word	SpeednTorqCtrlM1
 420              		.cfi_endproc
 421              	.LFE1867:
 423              		.section	.text.TSK_MF_StopProcessing,"ax",%progbits
 424              		.align	1
 425              		.p2align 2,,3
 426              		.global	TSK_MF_StopProcessing
 427              		.syntax unified
 428              		.thumb
 429              		.thumb_func
 430              		.fpu fpv4-sp-d16
 432              	TSK_MF_StopProcessing:
 433              	.LVL25:
 434              	.LFB1868:
 181:Src/mc_tasks_foc.c ****     R3_2_SwitchOffPWM(pwmcHandle[motor]);
 435              		.loc 1 181 1 is_stmt 1 view -0
 436              		.cfi_startproc
 437              		@ args = 0, pretend = 0, frame = 0
 438              		@ frame_needed = 0, uses_anonymous_args = 0
 182:Src/mc_tasks_foc.c **** 
 439              		.loc 1 182 5 view .LVU132
 440 0000 0D4B     		ldr	r3, .L16
 181:Src/mc_tasks_foc.c ****     R3_2_SwitchOffPWM(pwmcHandle[motor]);
 441              		.loc 1 181 1 is_stmt 0 view .LVU133
 442 0002 10B5     		push	{r4, lr}
 443              	.LCFI6:
 444              		.cfi_def_cfa_offset 8
 445              		.cfi_offset 4, -8
 446              		.cfi_offset 14, -4
 181:Src/mc_tasks_foc.c ****     R3_2_SwitchOffPWM(pwmcHandle[motor]);
 447              		.loc 1 181 1 view .LVU134
 448 0004 0446     		mov	r4, r0
 182:Src/mc_tasks_foc.c **** 
 449              		.loc 1 182 5 view .LVU135
 450 0006 53F82000 		ldr	r0, [r3, r0, lsl #2]
 451              	.LVL26:
 182:Src/mc_tasks_foc.c **** 
 452              		.loc 1 182 5 view .LVU136
 453 000a FFF7FEFF 		bl	R3_2_SwitchOffPWM
 454              	.LVL27:
 184:Src/mc_tasks_foc.c ****   OTT_Stop(&OTT);
 455              		.loc 1 184 3 is_stmt 1 view .LVU137
 456 000e 0B48     		ldr	r0, .L16+4
 457 0010 FFF7FEFF 		bl	SCC_Stop
 458              	.LVL28:
 185:Src/mc_tasks_foc.c ****   FOC_Clear(motor);
 459              		.loc 1 185 3 view .LVU138
 460 0014 0A48     		ldr	r0, .L16+8
 461 0016 FFF7FEFF 		bl	OTT_Stop
 462              	.LVL29:
 186:Src/mc_tasks_foc.c **** 
ARM GAS  /tmp/ccF6ITrB.s 			page 22


 463              		.loc 1 186 3 view .LVU139
 464 001a 2046     		mov	r0, r4
 465 001c FFF7FEFF 		bl	FOC_Clear
 466              	.LVL30:
 188:Src/mc_tasks_foc.c ****   Mci[motor].State = STOP;
 467              		.loc 1 188 3 view .LVU140
 468 0020 4FF44870 		mov	r0, #800
 469 0024 FFF7FEFF 		bl	TSK_SetStopPermanencyTimeM1
 470              	.LVL31:
 189:Src/mc_tasks_foc.c **** }
 471              		.loc 1 189 3 view .LVU141
 189:Src/mc_tasks_foc.c **** }
 472              		.loc 1 189 20 is_stmt 0 view .LVU142
 473 0028 0648     		ldr	r0, .L16+12
 474 002a 2C23     		movs	r3, #44
 475 002c 03FB0404 		mla	r4, r3, r4, r0
 476 0030 0823     		movs	r3, #8
 477 0032 E377     		strb	r3, [r4, #31]
 190:Src/mc_tasks_foc.c **** int32_t  task_run = 0;
 478              		.loc 1 190 1 view .LVU143
 479 0034 10BD     		pop	{r4, pc}
 480              	.L17:
 481 0036 00BF     		.align	2
 482              	.L16:
 483 0038 00000000 		.word	pwmcHandle
 484 003c 00000000 		.word	SCC
 485 0040 00000000 		.word	OTT
 486 0044 00000000 		.word	Mci
 487              		.cfi_endproc
 488              	.LFE1868:
 490              		.section	.text.FOC_InitAdditionalMethods,"ax",%progbits
 491              		.align	1
 492              		.p2align 2,,3
 493              		.weak	FOC_InitAdditionalMethods
 494              		.syntax unified
 495              		.thumb
 496              		.thumb_func
 497              		.fpu fpv4-sp-d16
 499              	FOC_InitAdditionalMethods:
 500              	.LVL32:
 501              	.LFB1871:
 619:Src/mc_tasks_foc.c **** 
 620:Src/mc_tasks_foc.c **** /**
 621:Src/mc_tasks_foc.c ****   * @brief  Use this method to initialize additional methods (if any) in
 622:Src/mc_tasks_foc.c ****   *         START_TO_RUN state.
 623:Src/mc_tasks_foc.c ****   * @param  bMotor related motor it can be M1 or M2.
 624:Src/mc_tasks_foc.c ****   */
 625:Src/mc_tasks_foc.c **** __weak void FOC_InitAdditionalMethods(uint8_t bMotor) //cstat !RED-func-no-effect
 626:Src/mc_tasks_foc.c **** {
 502              		.loc 1 626 1 is_stmt 1 view -0
 503              		.cfi_startproc
 504              		@ args = 0, pretend = 0, frame = 0
 505              		@ frame_needed = 0, uses_anonymous_args = 0
 506              		@ link register save eliminated.
 627:Src/mc_tasks_foc.c ****     if (M_NONE == bMotor)
 507              		.loc 1 627 5 view .LVU145
 508              		.loc 1 627 8 is_stmt 0 view .LVU146
ARM GAS  /tmp/ccF6ITrB.s 			page 23


 509 0000 FF28     		cmp	r0, #255
 510 0002 05D0     		beq	.L18
 511              	.LVL33:
 512              	.LBB52:
 513              	.LBI52:
 625:Src/mc_tasks_foc.c **** {
 514              		.loc 1 625 13 is_stmt 1 view .LVU147
 515              	.LBB53:
 628:Src/mc_tasks_foc.c ****     {
 629:Src/mc_tasks_foc.c ****       /* Nothing to do */
 630:Src/mc_tasks_foc.c ****     }
 631:Src/mc_tasks_foc.c ****     else
 632:Src/mc_tasks_foc.c ****     {
 633:Src/mc_tasks_foc.c ****       if (NULL == pFF[bMotor])
 516              		.loc 1 633 7 view .LVU148
 517              		.loc 1 633 22 is_stmt 0 view .LVU149
 518 0004 034B     		ldr	r3, .L26
 519 0006 53F82000 		ldr	r0, [r3, r0, lsl #2]
 520              	.LVL34:
 521              		.loc 1 633 10 view .LVU150
 522 000a 08B1     		cbz	r0, .L18
 634:Src/mc_tasks_foc.c ****       {
 635:Src/mc_tasks_foc.c ****         /* Nothing to do */
 636:Src/mc_tasks_foc.c ****       }
 637:Src/mc_tasks_foc.c ****       else
 638:Src/mc_tasks_foc.c ****       {
 639:Src/mc_tasks_foc.c ****         FF_InitFOCAdditionalMethods(pFF[bMotor]);
 523              		.loc 1 639 9 is_stmt 1 view .LVU151
 524 000c FFF7FEBF 		b	FF_InitFOCAdditionalMethods
 525              	.LVL35:
 526              	.L18:
 527              		.loc 1 639 9 is_stmt 0 view .LVU152
 528              	.LBE53:
 529              	.LBE52:
 640:Src/mc_tasks_foc.c ****       }
 641:Src/mc_tasks_foc.c ****   /* USER CODE BEGIN FOC_InitAdditionalMethods 0 */
 642:Src/mc_tasks_foc.c **** 
 643:Src/mc_tasks_foc.c ****   /* USER CODE END FOC_InitAdditionalMethods 0 */
 644:Src/mc_tasks_foc.c ****     }
 645:Src/mc_tasks_foc.c **** }
 530              		.loc 1 645 1 view .LVU153
 531 0010 7047     		bx	lr
 532              	.L27:
 533 0012 00BF     		.align	2
 534              	.L26:
 535 0014 00000000 		.word	pFF
 536              		.cfi_endproc
 537              	.LFE1871:
 539              		.section	.text.FOC_CalcCurrRef,"ax",%progbits
 540              		.align	1
 541              		.p2align 2,,3
 542              		.weak	FOC_CalcCurrRef
 543              		.syntax unified
 544              		.thumb
 545              		.thumb_func
 546              		.fpu fpv4-sp-d16
 548              	FOC_CalcCurrRef:
ARM GAS  /tmp/ccF6ITrB.s 			page 24


 549              	.LVL36:
 550              	.LFB1872:
 646:Src/mc_tasks_foc.c **** 
 647:Src/mc_tasks_foc.c **** /**
 648:Src/mc_tasks_foc.c ****   * @brief  It computes the new values of Iqdref (current references on qd
 649:Src/mc_tasks_foc.c ****   *         reference frame) based on the required electrical torque information
 650:Src/mc_tasks_foc.c ****   *         provided by oTSC object (internally clocked).
 651:Src/mc_tasks_foc.c ****   *         If implemented in the derived class it executes flux weakening and/or
 652:Src/mc_tasks_foc.c ****   *         MTPA algorithm(s). It must be called with the periodicity specified
 653:Src/mc_tasks_foc.c ****   *         in oTSC parameters.
 654:Src/mc_tasks_foc.c ****   * @param  bMotor related motor it can be M1 or M2.
 655:Src/mc_tasks_foc.c ****   */
 656:Src/mc_tasks_foc.c **** __weak void FOC_CalcCurrRef(uint8_t bMotor)
 657:Src/mc_tasks_foc.c **** {
 551              		.loc 1 657 1 is_stmt 1 view -0
 552              		.cfi_startproc
 553              		@ args = 0, pretend = 0, frame = 8
 554              		@ frame_needed = 0, uses_anonymous_args = 0
 658:Src/mc_tasks_foc.c ****   qd_t IqdTmp;
 555              		.loc 1 658 3 view .LVU155
 659:Src/mc_tasks_foc.c **** 
 660:Src/mc_tasks_foc.c ****   /* Enter critical section */
 661:Src/mc_tasks_foc.c ****   /* Disable interrupts to avoid any interruption during Iqd reference latching */
 662:Src/mc_tasks_foc.c ****   /* to avoid MF task writing them while HF task reading them */
 663:Src/mc_tasks_foc.c ****   __disable_irq();
 556              		.loc 1 663 3 view .LVU156
 557              	.LBB54:
 558              	.LBI54:
 559              		.file 2 "Drivers/CMSIS/Include/cmsis_gcc.h"
   1:Drivers/CMSIS/Include/cmsis_gcc.h **** /**************************************************************************//**
   2:Drivers/CMSIS/Include/cmsis_gcc.h ****  * @file     cmsis_gcc.h
   3:Drivers/CMSIS/Include/cmsis_gcc.h ****  * @brief    CMSIS compiler GCC header file
   4:Drivers/CMSIS/Include/cmsis_gcc.h ****  * @version  V5.2.0
   5:Drivers/CMSIS/Include/cmsis_gcc.h ****  * @date     08. May 2019
   6:Drivers/CMSIS/Include/cmsis_gcc.h ****  ******************************************************************************/
   7:Drivers/CMSIS/Include/cmsis_gcc.h **** /*
   8:Drivers/CMSIS/Include/cmsis_gcc.h ****  * Copyright (c) 2009-2019 Arm Limited. All rights reserved.
   9:Drivers/CMSIS/Include/cmsis_gcc.h ****  *
  10:Drivers/CMSIS/Include/cmsis_gcc.h ****  * SPDX-License-Identifier: Apache-2.0
  11:Drivers/CMSIS/Include/cmsis_gcc.h ****  *
  12:Drivers/CMSIS/Include/cmsis_gcc.h ****  * Licensed under the Apache License, Version 2.0 (the License); you may
  13:Drivers/CMSIS/Include/cmsis_gcc.h ****  * not use this file except in compliance with the License.
  14:Drivers/CMSIS/Include/cmsis_gcc.h ****  * You may obtain a copy of the License at
  15:Drivers/CMSIS/Include/cmsis_gcc.h ****  *
  16:Drivers/CMSIS/Include/cmsis_gcc.h ****  * www.apache.org/licenses/LICENSE-2.0
  17:Drivers/CMSIS/Include/cmsis_gcc.h ****  *
  18:Drivers/CMSIS/Include/cmsis_gcc.h ****  * Unless required by applicable law or agreed to in writing, software
  19:Drivers/CMSIS/Include/cmsis_gcc.h ****  * distributed under the License is distributed on an AS IS BASIS, WITHOUT
  20:Drivers/CMSIS/Include/cmsis_gcc.h ****  * WARRANTIES OR CONDITIONS OF ANY KIND, either express or implied.
  21:Drivers/CMSIS/Include/cmsis_gcc.h ****  * See the License for the specific language governing permissions and
  22:Drivers/CMSIS/Include/cmsis_gcc.h ****  * limitations under the License.
  23:Drivers/CMSIS/Include/cmsis_gcc.h ****  */
  24:Drivers/CMSIS/Include/cmsis_gcc.h **** 
  25:Drivers/CMSIS/Include/cmsis_gcc.h **** #ifndef __CMSIS_GCC_H
  26:Drivers/CMSIS/Include/cmsis_gcc.h **** #define __CMSIS_GCC_H
  27:Drivers/CMSIS/Include/cmsis_gcc.h **** 
  28:Drivers/CMSIS/Include/cmsis_gcc.h **** /* ignore some GCC warnings */
ARM GAS  /tmp/ccF6ITrB.s 			page 25


  29:Drivers/CMSIS/Include/cmsis_gcc.h **** #pragma GCC diagnostic push
  30:Drivers/CMSIS/Include/cmsis_gcc.h **** #pragma GCC diagnostic ignored "-Wsign-conversion"
  31:Drivers/CMSIS/Include/cmsis_gcc.h **** #pragma GCC diagnostic ignored "-Wconversion"
  32:Drivers/CMSIS/Include/cmsis_gcc.h **** #pragma GCC diagnostic ignored "-Wunused-parameter"
  33:Drivers/CMSIS/Include/cmsis_gcc.h **** 
  34:Drivers/CMSIS/Include/cmsis_gcc.h **** /* Fallback for __has_builtin */
  35:Drivers/CMSIS/Include/cmsis_gcc.h **** #ifndef __has_builtin
  36:Drivers/CMSIS/Include/cmsis_gcc.h ****   #define __has_builtin(x) (0)
  37:Drivers/CMSIS/Include/cmsis_gcc.h **** #endif
  38:Drivers/CMSIS/Include/cmsis_gcc.h **** 
  39:Drivers/CMSIS/Include/cmsis_gcc.h **** /* CMSIS compiler specific defines */
  40:Drivers/CMSIS/Include/cmsis_gcc.h **** #ifndef   __ASM
  41:Drivers/CMSIS/Include/cmsis_gcc.h ****   #define __ASM                                  __asm
  42:Drivers/CMSIS/Include/cmsis_gcc.h **** #endif
  43:Drivers/CMSIS/Include/cmsis_gcc.h **** #ifndef   __INLINE
  44:Drivers/CMSIS/Include/cmsis_gcc.h ****   #define __INLINE                               inline
  45:Drivers/CMSIS/Include/cmsis_gcc.h **** #endif
  46:Drivers/CMSIS/Include/cmsis_gcc.h **** #ifndef   __STATIC_INLINE
  47:Drivers/CMSIS/Include/cmsis_gcc.h ****   #define __STATIC_INLINE                        static inline
  48:Drivers/CMSIS/Include/cmsis_gcc.h **** #endif
  49:Drivers/CMSIS/Include/cmsis_gcc.h **** #ifndef   __STATIC_FORCEINLINE                 
  50:Drivers/CMSIS/Include/cmsis_gcc.h ****   #define __STATIC_FORCEINLINE                   __attribute__((always_inline)) static inline
  51:Drivers/CMSIS/Include/cmsis_gcc.h **** #endif                                           
  52:Drivers/CMSIS/Include/cmsis_gcc.h **** #ifndef   __NO_RETURN
  53:Drivers/CMSIS/Include/cmsis_gcc.h ****   #define __NO_RETURN                            __attribute__((__noreturn__))
  54:Drivers/CMSIS/Include/cmsis_gcc.h **** #endif
  55:Drivers/CMSIS/Include/cmsis_gcc.h **** #ifndef   __USED
  56:Drivers/CMSIS/Include/cmsis_gcc.h ****   #define __USED                                 __attribute__((used))
  57:Drivers/CMSIS/Include/cmsis_gcc.h **** #endif
  58:Drivers/CMSIS/Include/cmsis_gcc.h **** #ifndef   __WEAK
  59:Drivers/CMSIS/Include/cmsis_gcc.h ****   #define __WEAK                                 __attribute__((weak))
  60:Drivers/CMSIS/Include/cmsis_gcc.h **** #endif
  61:Drivers/CMSIS/Include/cmsis_gcc.h **** #ifndef   __PACKED
  62:Drivers/CMSIS/Include/cmsis_gcc.h ****   #define __PACKED                               __attribute__((packed, aligned(1)))
  63:Drivers/CMSIS/Include/cmsis_gcc.h **** #endif
  64:Drivers/CMSIS/Include/cmsis_gcc.h **** #ifndef   __PACKED_STRUCT
  65:Drivers/CMSIS/Include/cmsis_gcc.h ****   #define __PACKED_STRUCT                        struct __attribute__((packed, aligned(1)))
  66:Drivers/CMSIS/Include/cmsis_gcc.h **** #endif
  67:Drivers/CMSIS/Include/cmsis_gcc.h **** #ifndef   __PACKED_UNION
  68:Drivers/CMSIS/Include/cmsis_gcc.h ****   #define __PACKED_UNION                         union __attribute__((packed, aligned(1)))
  69:Drivers/CMSIS/Include/cmsis_gcc.h **** #endif
  70:Drivers/CMSIS/Include/cmsis_gcc.h **** #ifndef   __UNALIGNED_UINT32        /* deprecated */
  71:Drivers/CMSIS/Include/cmsis_gcc.h ****   #pragma GCC diagnostic push
  72:Drivers/CMSIS/Include/cmsis_gcc.h ****   #pragma GCC diagnostic ignored "-Wpacked"
  73:Drivers/CMSIS/Include/cmsis_gcc.h ****   #pragma GCC diagnostic ignored "-Wattributes"
  74:Drivers/CMSIS/Include/cmsis_gcc.h ****   struct __attribute__((packed)) T_UINT32 { uint32_t v; };
  75:Drivers/CMSIS/Include/cmsis_gcc.h ****   #pragma GCC diagnostic pop
  76:Drivers/CMSIS/Include/cmsis_gcc.h ****   #define __UNALIGNED_UINT32(x)                  (((struct T_UINT32 *)(x))->v)
  77:Drivers/CMSIS/Include/cmsis_gcc.h **** #endif
  78:Drivers/CMSIS/Include/cmsis_gcc.h **** #ifndef   __UNALIGNED_UINT16_WRITE
  79:Drivers/CMSIS/Include/cmsis_gcc.h ****   #pragma GCC diagnostic push
  80:Drivers/CMSIS/Include/cmsis_gcc.h ****   #pragma GCC diagnostic ignored "-Wpacked"
  81:Drivers/CMSIS/Include/cmsis_gcc.h ****   #pragma GCC diagnostic ignored "-Wattributes"
  82:Drivers/CMSIS/Include/cmsis_gcc.h ****   __PACKED_STRUCT T_UINT16_WRITE { uint16_t v; };
  83:Drivers/CMSIS/Include/cmsis_gcc.h ****   #pragma GCC diagnostic pop
  84:Drivers/CMSIS/Include/cmsis_gcc.h ****   #define __UNALIGNED_UINT16_WRITE(addr, val)    (void)((((struct T_UINT16_WRITE *)(void *)(addr))-
  85:Drivers/CMSIS/Include/cmsis_gcc.h **** #endif
ARM GAS  /tmp/ccF6ITrB.s 			page 26


  86:Drivers/CMSIS/Include/cmsis_gcc.h **** #ifndef   __UNALIGNED_UINT16_READ
  87:Drivers/CMSIS/Include/cmsis_gcc.h ****   #pragma GCC diagnostic push
  88:Drivers/CMSIS/Include/cmsis_gcc.h ****   #pragma GCC diagnostic ignored "-Wpacked"
  89:Drivers/CMSIS/Include/cmsis_gcc.h ****   #pragma GCC diagnostic ignored "-Wattributes"
  90:Drivers/CMSIS/Include/cmsis_gcc.h ****   __PACKED_STRUCT T_UINT16_READ { uint16_t v; };
  91:Drivers/CMSIS/Include/cmsis_gcc.h ****   #pragma GCC diagnostic pop
  92:Drivers/CMSIS/Include/cmsis_gcc.h ****   #define __UNALIGNED_UINT16_READ(addr)          (((const struct T_UINT16_READ *)(const void *)(add
  93:Drivers/CMSIS/Include/cmsis_gcc.h **** #endif
  94:Drivers/CMSIS/Include/cmsis_gcc.h **** #ifndef   __UNALIGNED_UINT32_WRITE
  95:Drivers/CMSIS/Include/cmsis_gcc.h ****   #pragma GCC diagnostic push
  96:Drivers/CMSIS/Include/cmsis_gcc.h ****   #pragma GCC diagnostic ignored "-Wpacked"
  97:Drivers/CMSIS/Include/cmsis_gcc.h ****   #pragma GCC diagnostic ignored "-Wattributes"
  98:Drivers/CMSIS/Include/cmsis_gcc.h ****   __PACKED_STRUCT T_UINT32_WRITE { uint32_t v; };
  99:Drivers/CMSIS/Include/cmsis_gcc.h ****   #pragma GCC diagnostic pop
 100:Drivers/CMSIS/Include/cmsis_gcc.h ****   #define __UNALIGNED_UINT32_WRITE(addr, val)    (void)((((struct T_UINT32_WRITE *)(void *)(addr))-
 101:Drivers/CMSIS/Include/cmsis_gcc.h **** #endif
 102:Drivers/CMSIS/Include/cmsis_gcc.h **** #ifndef   __UNALIGNED_UINT32_READ
 103:Drivers/CMSIS/Include/cmsis_gcc.h ****   #pragma GCC diagnostic push
 104:Drivers/CMSIS/Include/cmsis_gcc.h ****   #pragma GCC diagnostic ignored "-Wpacked"
 105:Drivers/CMSIS/Include/cmsis_gcc.h ****   #pragma GCC diagnostic ignored "-Wattributes"
 106:Drivers/CMSIS/Include/cmsis_gcc.h ****   __PACKED_STRUCT T_UINT32_READ { uint32_t v; };
 107:Drivers/CMSIS/Include/cmsis_gcc.h ****   #pragma GCC diagnostic pop
 108:Drivers/CMSIS/Include/cmsis_gcc.h ****   #define __UNALIGNED_UINT32_READ(addr)          (((const struct T_UINT32_READ *)(const void *)(add
 109:Drivers/CMSIS/Include/cmsis_gcc.h **** #endif
 110:Drivers/CMSIS/Include/cmsis_gcc.h **** #ifndef   __ALIGNED
 111:Drivers/CMSIS/Include/cmsis_gcc.h ****   #define __ALIGNED(x)                           __attribute__((aligned(x)))
 112:Drivers/CMSIS/Include/cmsis_gcc.h **** #endif
 113:Drivers/CMSIS/Include/cmsis_gcc.h **** #ifndef   __RESTRICT
 114:Drivers/CMSIS/Include/cmsis_gcc.h ****   #define __RESTRICT                             __restrict
 115:Drivers/CMSIS/Include/cmsis_gcc.h **** #endif
 116:Drivers/CMSIS/Include/cmsis_gcc.h **** #ifndef   __COMPILER_BARRIER
 117:Drivers/CMSIS/Include/cmsis_gcc.h ****   #define __COMPILER_BARRIER()                   __ASM volatile("":::"memory")
 118:Drivers/CMSIS/Include/cmsis_gcc.h **** #endif
 119:Drivers/CMSIS/Include/cmsis_gcc.h **** 
 120:Drivers/CMSIS/Include/cmsis_gcc.h **** /* #########################  Startup and Lowlevel Init  ######################## */
 121:Drivers/CMSIS/Include/cmsis_gcc.h **** 
 122:Drivers/CMSIS/Include/cmsis_gcc.h **** #ifndef __PROGRAM_START
 123:Drivers/CMSIS/Include/cmsis_gcc.h **** 
 124:Drivers/CMSIS/Include/cmsis_gcc.h **** /**
 125:Drivers/CMSIS/Include/cmsis_gcc.h ****   \brief   Initializes data and bss sections
 126:Drivers/CMSIS/Include/cmsis_gcc.h ****   \details This default implementations initialized all data and additional bss
 127:Drivers/CMSIS/Include/cmsis_gcc.h ****            sections relying on .copy.table and .zero.table specified properly
 128:Drivers/CMSIS/Include/cmsis_gcc.h ****            in the used linker script.
 129:Drivers/CMSIS/Include/cmsis_gcc.h ****   
 130:Drivers/CMSIS/Include/cmsis_gcc.h ****  */
 131:Drivers/CMSIS/Include/cmsis_gcc.h **** __STATIC_FORCEINLINE __NO_RETURN void __cmsis_start(void)
 132:Drivers/CMSIS/Include/cmsis_gcc.h **** {
 133:Drivers/CMSIS/Include/cmsis_gcc.h ****   extern void _start(void) __NO_RETURN;
 134:Drivers/CMSIS/Include/cmsis_gcc.h ****   
 135:Drivers/CMSIS/Include/cmsis_gcc.h ****   typedef struct {
 136:Drivers/CMSIS/Include/cmsis_gcc.h ****     uint32_t const* src;
 137:Drivers/CMSIS/Include/cmsis_gcc.h ****     uint32_t* dest;
 138:Drivers/CMSIS/Include/cmsis_gcc.h ****     uint32_t  wlen;
 139:Drivers/CMSIS/Include/cmsis_gcc.h ****   } __copy_table_t;
 140:Drivers/CMSIS/Include/cmsis_gcc.h ****   
 141:Drivers/CMSIS/Include/cmsis_gcc.h ****   typedef struct {
 142:Drivers/CMSIS/Include/cmsis_gcc.h ****     uint32_t* dest;
ARM GAS  /tmp/ccF6ITrB.s 			page 27


 143:Drivers/CMSIS/Include/cmsis_gcc.h ****     uint32_t  wlen;
 144:Drivers/CMSIS/Include/cmsis_gcc.h ****   } __zero_table_t;
 145:Drivers/CMSIS/Include/cmsis_gcc.h ****   
 146:Drivers/CMSIS/Include/cmsis_gcc.h ****   extern const __copy_table_t __copy_table_start__;
 147:Drivers/CMSIS/Include/cmsis_gcc.h ****   extern const __copy_table_t __copy_table_end__;
 148:Drivers/CMSIS/Include/cmsis_gcc.h ****   extern const __zero_table_t __zero_table_start__;
 149:Drivers/CMSIS/Include/cmsis_gcc.h ****   extern const __zero_table_t __zero_table_end__;
 150:Drivers/CMSIS/Include/cmsis_gcc.h **** 
 151:Drivers/CMSIS/Include/cmsis_gcc.h ****   for (__copy_table_t const* pTable = &__copy_table_start__; pTable < &__copy_table_end__; ++pTable
 152:Drivers/CMSIS/Include/cmsis_gcc.h ****     for(uint32_t i=0u; i<pTable->wlen; ++i) {
 153:Drivers/CMSIS/Include/cmsis_gcc.h ****       pTable->dest[i] = pTable->src[i];
 154:Drivers/CMSIS/Include/cmsis_gcc.h ****     }
 155:Drivers/CMSIS/Include/cmsis_gcc.h ****   }
 156:Drivers/CMSIS/Include/cmsis_gcc.h ****  
 157:Drivers/CMSIS/Include/cmsis_gcc.h ****   for (__zero_table_t const* pTable = &__zero_table_start__; pTable < &__zero_table_end__; ++pTable
 158:Drivers/CMSIS/Include/cmsis_gcc.h ****     for(uint32_t i=0u; i<pTable->wlen; ++i) {
 159:Drivers/CMSIS/Include/cmsis_gcc.h ****       pTable->dest[i] = 0u;
 160:Drivers/CMSIS/Include/cmsis_gcc.h ****     }
 161:Drivers/CMSIS/Include/cmsis_gcc.h ****   }
 162:Drivers/CMSIS/Include/cmsis_gcc.h ****  
 163:Drivers/CMSIS/Include/cmsis_gcc.h ****   _start();
 164:Drivers/CMSIS/Include/cmsis_gcc.h **** }
 165:Drivers/CMSIS/Include/cmsis_gcc.h ****   
 166:Drivers/CMSIS/Include/cmsis_gcc.h **** #define __PROGRAM_START           __cmsis_start
 167:Drivers/CMSIS/Include/cmsis_gcc.h **** #endif
 168:Drivers/CMSIS/Include/cmsis_gcc.h **** 
 169:Drivers/CMSIS/Include/cmsis_gcc.h **** #ifndef __INITIAL_SP
 170:Drivers/CMSIS/Include/cmsis_gcc.h **** #define __INITIAL_SP              __StackTop
 171:Drivers/CMSIS/Include/cmsis_gcc.h **** #endif
 172:Drivers/CMSIS/Include/cmsis_gcc.h **** 
 173:Drivers/CMSIS/Include/cmsis_gcc.h **** #ifndef __STACK_LIMIT
 174:Drivers/CMSIS/Include/cmsis_gcc.h **** #define __STACK_LIMIT             __StackLimit
 175:Drivers/CMSIS/Include/cmsis_gcc.h **** #endif
 176:Drivers/CMSIS/Include/cmsis_gcc.h **** 
 177:Drivers/CMSIS/Include/cmsis_gcc.h **** #ifndef __VECTOR_TABLE
 178:Drivers/CMSIS/Include/cmsis_gcc.h **** #define __VECTOR_TABLE            __Vectors
 179:Drivers/CMSIS/Include/cmsis_gcc.h **** #endif
 180:Drivers/CMSIS/Include/cmsis_gcc.h **** 
 181:Drivers/CMSIS/Include/cmsis_gcc.h **** #ifndef __VECTOR_TABLE_ATTRIBUTE
 182:Drivers/CMSIS/Include/cmsis_gcc.h **** #define __VECTOR_TABLE_ATTRIBUTE  __attribute((used, section(".vectors")))
 183:Drivers/CMSIS/Include/cmsis_gcc.h **** #endif
 184:Drivers/CMSIS/Include/cmsis_gcc.h **** 
 185:Drivers/CMSIS/Include/cmsis_gcc.h **** /* ###########################  Core Function Access  ########################### */
 186:Drivers/CMSIS/Include/cmsis_gcc.h **** /** \ingroup  CMSIS_Core_FunctionInterface
 187:Drivers/CMSIS/Include/cmsis_gcc.h ****     \defgroup CMSIS_Core_RegAccFunctions CMSIS Core Register Access Functions
 188:Drivers/CMSIS/Include/cmsis_gcc.h ****   @{
 189:Drivers/CMSIS/Include/cmsis_gcc.h ****  */
 190:Drivers/CMSIS/Include/cmsis_gcc.h **** 
 191:Drivers/CMSIS/Include/cmsis_gcc.h **** /**
 192:Drivers/CMSIS/Include/cmsis_gcc.h ****   \brief   Enable IRQ Interrupts
 193:Drivers/CMSIS/Include/cmsis_gcc.h ****   \details Enables IRQ interrupts by clearing the I-bit in the CPSR.
 194:Drivers/CMSIS/Include/cmsis_gcc.h ****            Can only be executed in Privileged modes.
 195:Drivers/CMSIS/Include/cmsis_gcc.h ****  */
 196:Drivers/CMSIS/Include/cmsis_gcc.h **** __STATIC_FORCEINLINE void __enable_irq(void)
 197:Drivers/CMSIS/Include/cmsis_gcc.h **** {
 198:Drivers/CMSIS/Include/cmsis_gcc.h ****   __ASM volatile ("cpsie i" : : : "memory");
 199:Drivers/CMSIS/Include/cmsis_gcc.h **** }
ARM GAS  /tmp/ccF6ITrB.s 			page 28


 200:Drivers/CMSIS/Include/cmsis_gcc.h **** 
 201:Drivers/CMSIS/Include/cmsis_gcc.h **** 
 202:Drivers/CMSIS/Include/cmsis_gcc.h **** /**
 203:Drivers/CMSIS/Include/cmsis_gcc.h ****   \brief   Disable IRQ Interrupts
 204:Drivers/CMSIS/Include/cmsis_gcc.h ****   \details Disables IRQ interrupts by setting the I-bit in the CPSR.
 205:Drivers/CMSIS/Include/cmsis_gcc.h ****            Can only be executed in Privileged modes.
 206:Drivers/CMSIS/Include/cmsis_gcc.h ****  */
 207:Drivers/CMSIS/Include/cmsis_gcc.h **** __STATIC_FORCEINLINE void __disable_irq(void)
 560              		.loc 2 207 27 view .LVU157
 561              	.LBB55:
 208:Drivers/CMSIS/Include/cmsis_gcc.h **** {
 209:Drivers/CMSIS/Include/cmsis_gcc.h ****   __ASM volatile ("cpsid i" : : : "memory");
 562              		.loc 2 209 3 view .LVU158
 563              	.LBE55:
 564              	.LBE54:
 657:Src/mc_tasks_foc.c ****   qd_t IqdTmp;
 565              		.loc 1 657 1 is_stmt 0 view .LVU159
 566 0000 2DE9F041 		push	{r4, r5, r6, r7, r8, lr}
 567              	.LCFI7:
 568              		.cfi_def_cfa_offset 24
 569              		.cfi_offset 4, -24
 570              		.cfi_offset 5, -20
 571              		.cfi_offset 6, -16
 572              		.cfi_offset 7, -12
 573              		.cfi_offset 8, -8
 574              		.cfi_offset 14, -4
 575 0004 0546     		mov	r5, r0
 576 0006 82B0     		sub	sp, sp, #8
 577              	.LCFI8:
 578              		.cfi_def_cfa_offset 32
 579              	.LBB57:
 580              	.LBB56:
 581              		.loc 2 209 3 view .LVU160
 582              		.syntax unified
 583              	@ 209 "Drivers/CMSIS/Include/cmsis_gcc.h" 1
 584 0008 72B6     		cpsid i
 585              	@ 0 "" 2
 586              		.thumb
 587              		.syntax unified
 588              	.LBE56:
 589              	.LBE57:
 664:Src/mc_tasks_foc.c ****   IqdTmp = FOCVars[bMotor].Iqdref;
 590              		.loc 1 664 3 is_stmt 1 view .LVU161
 591              		.loc 1 664 10 is_stmt 0 view .LVU162
 592 000a 164E     		ldr	r6, .L35
 593 000c 2624     		movs	r4, #38
 594 000e 04FB0064 		mla	r4, r4, r0, r6
 595 0012 2069     		ldr	r0, [r4, #16]	@ unaligned
 596              	.LVL37:
 597              		.loc 1 664 10 view .LVU163
 598 0014 B4F91070 		ldrsh	r7, [r4, #16]
 599              	.LVL38:
 665:Src/mc_tasks_foc.c **** 
 666:Src/mc_tasks_foc.c ****   /* Exit critical section */
 667:Src/mc_tasks_foc.c ****   __enable_irq();
 600              		.loc 1 667 3 is_stmt 1 view .LVU164
 601              	.LBB58:
ARM GAS  /tmp/ccF6ITrB.s 			page 29


 602              	.LBI58:
 196:Drivers/CMSIS/Include/cmsis_gcc.h **** {
 603              		.loc 2 196 27 view .LVU165
 604              	.LBB59:
 198:Drivers/CMSIS/Include/cmsis_gcc.h **** }
 605              		.loc 2 198 3 view .LVU166
 606              	.LBE59:
 607              	.LBE58:
 664:Src/mc_tasks_foc.c **** 
 608              		.loc 1 664 10 is_stmt 0 view .LVU167
 609 0018 0190     		str	r0, [sp, #4]
 610              	.LBB61:
 611              	.LBB60:
 198:Drivers/CMSIS/Include/cmsis_gcc.h **** }
 612              		.loc 2 198 3 view .LVU168
 613              		.syntax unified
 614              	@ 198 "Drivers/CMSIS/Include/cmsis_gcc.h" 1
 615 001a 62B6     		cpsie i
 616              	@ 0 "" 2
 617              		.thumb
 618              		.syntax unified
 619              	.LBE60:
 620              	.LBE61:
 668:Src/mc_tasks_foc.c **** 
 669:Src/mc_tasks_foc.c ****   /* USER CODE BEGIN FOC_CalcCurrRef 0 */
 670:Src/mc_tasks_foc.c **** 
 671:Src/mc_tasks_foc.c ****   /* USER CODE END FOC_CalcCurrRef 0 */
 672:Src/mc_tasks_foc.c ****   if (INTERNAL == FOCVars[bMotor].bDriveInput)
 621              		.loc 1 672 3 is_stmt 1 view .LVU169
 622              		.loc 1 672 6 is_stmt 0 view .LVU170
 623 001c 94F82430 		ldrb	r3, [r4, #36]	@ zero_extendqisi2
 624 0020 5BB1     		cbz	r3, .L34
 625              	.LVL39:
 626              	.L29:
 673:Src/mc_tasks_foc.c ****   {
 674:Src/mc_tasks_foc.c ****     FOCVars[bMotor].hTeref = STC_CalcTorqueReference(pSTC[bMotor]);
 675:Src/mc_tasks_foc.c ****     IqdTmp.q = FOCVars[bMotor].hTeref;
 676:Src/mc_tasks_foc.c **** 
 677:Src/mc_tasks_foc.c ****     if (NULL == pFF[bMotor])
 678:Src/mc_tasks_foc.c ****     {
 679:Src/mc_tasks_foc.c ****       /* Nothing to do */
 680:Src/mc_tasks_foc.c ****     }
 681:Src/mc_tasks_foc.c ****     else
 682:Src/mc_tasks_foc.c ****     {
 683:Src/mc_tasks_foc.c ****       FF_VqdffComputation(pFF[bMotor], IqdTmp, pSTC[bMotor]);
 684:Src/mc_tasks_foc.c ****     }
 685:Src/mc_tasks_foc.c ****   }
 686:Src/mc_tasks_foc.c ****   else
 687:Src/mc_tasks_foc.c ****   {
 688:Src/mc_tasks_foc.c ****     /* Nothing to do */
 689:Src/mc_tasks_foc.c ****   }
 627              		.loc 1 689 3 is_stmt 1 view .LVU171
 690:Src/mc_tasks_foc.c **** 
 691:Src/mc_tasks_foc.c ****   /* Enter critical section */
 692:Src/mc_tasks_foc.c ****   /* Disable interrupts to avoid any interruption during Iqd reference restoring */
 693:Src/mc_tasks_foc.c ****   __disable_irq();
 628              		.loc 1 693 3 view .LVU172
ARM GAS  /tmp/ccF6ITrB.s 			page 30


 629              	.LBB62:
 630              	.LBI62:
 207:Drivers/CMSIS/Include/cmsis_gcc.h **** {
 631              		.loc 2 207 27 view .LVU173
 632              	.LBB63:
 633              		.loc 2 209 3 view .LVU174
 634              		.syntax unified
 635              	@ 209 "Drivers/CMSIS/Include/cmsis_gcc.h" 1
 636 0022 72B6     		cpsid i
 637              	@ 0 "" 2
 638              		.thumb
 639              		.syntax unified
 640              	.LBE63:
 641              	.LBE62:
 694:Src/mc_tasks_foc.c ****   FOCVars[bMotor].Iqdref = IqdTmp;
 642              		.loc 1 694 3 view .LVU175
 643              		.loc 1 694 26 is_stmt 0 view .LVU176
 644 0024 2620     		movs	r0, #38
 645 0026 00FB0565 		mla	r5, r0, r5, r6
 646 002a ADF80470 		strh	r7, [sp, #4]	@ movhi
 647 002e 0198     		ldr	r0, [sp, #4]
 648 0030 2861     		str	r0, [r5, #16]	@ unaligned
 695:Src/mc_tasks_foc.c **** 
 696:Src/mc_tasks_foc.c ****   /* Exit critical section */
 697:Src/mc_tasks_foc.c ****   __enable_irq();
 649              		.loc 1 697 3 is_stmt 1 view .LVU177
 650              	.LBB64:
 651              	.LBI64:
 196:Drivers/CMSIS/Include/cmsis_gcc.h **** {
 652              		.loc 2 196 27 view .LVU178
 653              	.LBB65:
 198:Drivers/CMSIS/Include/cmsis_gcc.h **** }
 654              		.loc 2 198 3 view .LVU179
 655              		.syntax unified
 656              	@ 198 "Drivers/CMSIS/Include/cmsis_gcc.h" 1
 657 0032 62B6     		cpsie i
 658              	@ 0 "" 2
 659              	.LVL40:
 198:Drivers/CMSIS/Include/cmsis_gcc.h **** }
 660              		.loc 2 198 3 is_stmt 0 view .LVU180
 661              		.thumb
 662              		.syntax unified
 663              	.LBE65:
 664              	.LBE64:
 698:Src/mc_tasks_foc.c ****   /* USER CODE BEGIN FOC_CalcCurrRef 1 */
 699:Src/mc_tasks_foc.c **** 
 700:Src/mc_tasks_foc.c ****   /* USER CODE END FOC_CalcCurrRef 1 */
 701:Src/mc_tasks_foc.c **** }
 665              		.loc 1 701 1 view .LVU181
 666 0034 02B0     		add	sp, sp, #8
 667              	.LCFI9:
 668              		.cfi_remember_state
 669              		.cfi_def_cfa_offset 24
 670              		@ sp needed
 671 0036 BDE8F081 		pop	{r4, r5, r6, r7, r8, pc}
 672              	.LVL41:
 673              	.L34:
ARM GAS  /tmp/ccF6ITrB.s 			page 31


 674              	.LCFI10:
 675              		.cfi_restore_state
 674:Src/mc_tasks_foc.c ****     IqdTmp.q = FOCVars[bMotor].hTeref;
 676              		.loc 1 674 5 is_stmt 1 view .LVU182
 674:Src/mc_tasks_foc.c ****     IqdTmp.q = FOCVars[bMotor].hTeref;
 677              		.loc 1 674 30 is_stmt 0 view .LVU183
 678 003a DFF83080 		ldr	r8, .L35+8
 679 003e 58F82500 		ldr	r0, [r8, r5, lsl #2]
 680 0042 FFF7FEFF 		bl	STC_CalcTorqueReference
 681              	.LVL42:
 677:Src/mc_tasks_foc.c ****     {
 682              		.loc 1 677 20 view .LVU184
 683 0046 084B     		ldr	r3, .L35+4
 674:Src/mc_tasks_foc.c ****     IqdTmp.q = FOCVars[bMotor].hTeref;
 684              		.loc 1 674 28 view .LVU185
 685 0048 E083     		strh	r0, [r4, #30]	@ movhi
 675:Src/mc_tasks_foc.c **** 
 686              		.loc 1 675 5 is_stmt 1 view .LVU186
 674:Src/mc_tasks_foc.c ****     IqdTmp.q = FOCVars[bMotor].hTeref;
 687              		.loc 1 674 30 is_stmt 0 view .LVU187
 688 004a 0746     		mov	r7, r0
 689              	.LVL43:
 677:Src/mc_tasks_foc.c ****     {
 690              		.loc 1 677 5 is_stmt 1 view .LVU188
 677:Src/mc_tasks_foc.c ****     {
 691              		.loc 1 677 20 is_stmt 0 view .LVU189
 692 004c 53F82500 		ldr	r0, [r3, r5, lsl #2]
 677:Src/mc_tasks_foc.c ****     {
 693              		.loc 1 677 8 view .LVU190
 694 0050 0028     		cmp	r0, #0
 695 0052 E6D0     		beq	.L29
 683:Src/mc_tasks_foc.c ****     }
 696              		.loc 1 683 7 is_stmt 1 view .LVU191
 683:Src/mc_tasks_foc.c ****     }
 697              		.loc 1 683 7 is_stmt 0 view .LVU192
 698 0054 ADF80470 		strh	r7, [sp, #4]	@ movhi
 699 0058 58F82520 		ldr	r2, [r8, r5, lsl #2]
 700 005c 0199     		ldr	r1, [sp, #4]
 701 005e FFF7FEFF 		bl	FF_VqdffComputation
 702              	.LVL44:
 703 0062 DEE7     		b	.L29
 704              	.L36:
 705              		.align	2
 706              	.L35:
 707 0064 00000000 		.word	FOCVars
 708 0068 00000000 		.word	pFF
 709 006c 00000000 		.word	pSTC
 710              		.cfi_endproc
 711              	.LFE1872:
 713              		.section	.text.TSK_MediumFrequencyTaskM1,"ax",%progbits
 714              		.align	1
 715              		.p2align 2,,3
 716              		.weak	TSK_MediumFrequencyTaskM1
 717              		.syntax unified
 718              		.thumb
 719              		.thumb_func
 720              		.fpu fpv4-sp-d16
ARM GAS  /tmp/ccF6ITrB.s 			page 32


 722              	TSK_MediumFrequencyTaskM1:
 723              	.LFB1869:
 203:Src/mc_tasks_foc.c ****   /* USER CODE BEGIN MediumFrequencyTask M1 0 */
 724              		.loc 1 203 1 is_stmt 1 view -0
 725              		.cfi_startproc
 726              		@ args = 0, pretend = 0, frame = 8
 727              		@ frame_needed = 0, uses_anonymous_args = 0
 208:Src/mc_tasks_foc.c ****   bool IsSpeedReliable = 0;//STO_PLL_CalcAvrgMecSpeedUnit(&STO_PLL_M1, &wAux);
 728              		.loc 1 208 3 view .LVU194
 729              	.LVL45:
 209:Src/mc_tasks_foc.c ****   //PQD_CalcElMotorPower(pMPM[M1]);
 730              		.loc 1 209 3 view .LVU195
 212:Src/mc_tasks_foc.c ****   {
 731              		.loc 1 212 3 view .LVU196
 203:Src/mc_tasks_foc.c ****   /* USER CODE BEGIN MediumFrequencyTask M1 0 */
 732              		.loc 1 203 1 is_stmt 0 view .LVU197
 733 0000 F0B5     		push	{r4, r5, r6, r7, lr}
 734              	.LCFI11:
 735              		.cfi_def_cfa_offset 20
 736              		.cfi_offset 4, -20
 737              		.cfi_offset 5, -16
 738              		.cfi_offset 6, -12
 739              		.cfi_offset 7, -8
 740              		.cfi_offset 14, -4
 212:Src/mc_tasks_foc.c ****   {
 741              		.loc 1 212 7 view .LVU198
 742 0002 884C     		ldr	r4, .L95
 203:Src/mc_tasks_foc.c ****   /* USER CODE BEGIN MediumFrequencyTask M1 0 */
 743              		.loc 1 203 1 view .LVU199
 744 0004 83B0     		sub	sp, sp, #12
 745              	.LCFI12:
 746              		.cfi_def_cfa_offset 32
 212:Src/mc_tasks_foc.c ****   {
 747              		.loc 1 212 7 view .LVU200
 748 0006 2046     		mov	r0, r4
 749 0008 FFF7FEFF 		bl	MCI_GetCurrentFaults
 750              	.LVL46:
 212:Src/mc_tasks_foc.c ****   {
 751              		.loc 1 212 6 view .LVU201
 752 000c C8B9     		cbnz	r0, .L38
 214:Src/mc_tasks_foc.c ****     {
 753              		.loc 1 214 5 is_stmt 1 view .LVU202
 216:Src/mc_tasks_foc.c ****       {
 754              		.loc 1 216 7 view .LVU203
 755 000e E37F     		ldrb	r3, [r4, #31]	@ zero_extendqisi2
 756 0010 142B     		cmp	r3, #20
 757 0012 18D8     		bhi	.L39
 758 0014 DFE813F0 		tbh	[pc, r3, lsl #1]
 759              	.L41:
 760 0018 1C01     		.2byte	(.L50-.L41)/2
 761 001a 1700     		.2byte	(.L39-.L41)/2
 762 001c 1700     		.2byte	(.L39-.L41)/2
 763 001e 1700     		.2byte	(.L39-.L41)/2
 764 0020 C700     		.2byte	(.L49-.L41)/2
 765 0022 1700     		.2byte	(.L39-.L41)/2
 766 0024 9601     		.2byte	(.L48-.L41)/2
 767 0026 1700     		.2byte	(.L39-.L41)/2
ARM GAS  /tmp/ccF6ITrB.s 			page 33


 768 0028 8400     		.2byte	(.L47-.L41)/2
 769 002a 1700     		.2byte	(.L39-.L41)/2
 770 002c 9900     		.2byte	(.L46-.L41)/2
 771 002e 9300     		.2byte	(.L45-.L41)/2
 772 0030 1700     		.2byte	(.L39-.L41)/2
 773 0032 1700     		.2byte	(.L39-.L41)/2
 774 0034 1700     		.2byte	(.L39-.L41)/2
 775 0036 1700     		.2byte	(.L39-.L41)/2
 776 0038 9C00     		.2byte	(.L44-.L41)/2
 777 003a 7200     		.2byte	(.L43-.L41)/2
 778 003c 1700     		.2byte	(.L39-.L41)/2
 779 003e 4000     		.2byte	(.L42-.L41)/2
 780 0040 1D00     		.2byte	(.L40-.L41)/2
 781              		.p2align 1
 782              	.L38:
 564:Src/mc_tasks_foc.c ****   }
 783              		.loc 1 564 5 view .LVU204
 564:Src/mc_tasks_foc.c ****   }
 784              		.loc 1 564 19 is_stmt 0 view .LVU205
 785 0042 0A23     		movs	r3, #10
 786 0044 E377     		strb	r3, [r4, #31]
 787              	.L39:
 566:Src/mc_tasks_foc.c ****   /* USER CODE BEGIN MediumFrequencyTask M1 6 */
 788              		.loc 1 566 3 is_stmt 1 view .LVU206
 789 0046 7848     		ldr	r0, .L95+4
 570:Src/mc_tasks_foc.c **** 
 790              		.loc 1 570 1 is_stmt 0 view .LVU207
 791 0048 03B0     		add	sp, sp, #12
 792              	.LCFI13:
 793              		.cfi_remember_state
 794              		.cfi_def_cfa_offset 20
 795              		@ sp needed
 796 004a BDE8F040 		pop	{r4, r5, r6, r7, lr}
 797              	.LCFI14:
 798              		.cfi_restore 14
 799              		.cfi_restore 7
 800              		.cfi_restore 6
 801              		.cfi_restore 5
 802              		.cfi_restore 4
 803              		.cfi_def_cfa_offset 0
 566:Src/mc_tasks_foc.c ****   /* USER CODE BEGIN MediumFrequencyTask M1 6 */
 804              		.loc 1 566 3 view .LVU208
 805 004e FFF7FEBF 		b	SCC_MF
 806              	.LVL47:
 807              	.L40:
 808              	.LCFI15:
 809              		.cfi_restore_state
 524:Src/mc_tasks_foc.c ****           {
 810              		.loc 1 524 11 is_stmt 1 view .LVU209
 524:Src/mc_tasks_foc.c ****           {
 811              		.loc 1 524 14 is_stmt 0 view .LVU210
 812 0052 A37F     		ldrb	r3, [r4, #30]	@ zero_extendqisi2
 813 0054 052B     		cmp	r3, #5
 814 0056 00F08781 		beq	.L56
 530:Src/mc_tasks_foc.c ****             {
 815              		.loc 1 530 13 is_stmt 1 view .LVU211
 530:Src/mc_tasks_foc.c ****             {
ARM GAS  /tmp/ccF6ITrB.s 			page 34


 816              		.loc 1 530 22 is_stmt 0 view .LVU212
 817 005a 7348     		ldr	r0, .L95+4
 818 005c FFF7FEFF 		bl	SCC_DetectBemf
 819              	.LVL48:
 530:Src/mc_tasks_foc.c ****             {
 820              		.loc 1 530 16 view .LVU213
 821 0060 0546     		mov	r5, r0
 822 0062 0028     		cmp	r0, #0
 823 0064 EFD1     		bne	.L39
 533:Src/mc_tasks_foc.c ****               STC_SetSpeedSensor(pSTC[M1], &VirtualSpeedSensorM1._Super);
 824              		.loc 1 533 15 is_stmt 1 view .LVU214
 534:Src/mc_tasks_foc.c ****                STO_PLL_Clear(&STO_PLL_M1);
 825              		.loc 1 534 15 is_stmt 0 view .LVU215
 826 0066 714A     		ldr	r2, .L95+8
 533:Src/mc_tasks_foc.c ****               STC_SetSpeedSensor(pSTC[M1], &VirtualSpeedSensorM1._Super);
 827              		.loc 1 533 39 view .LVU216
 828 0068 714B     		ldr	r3, .L95+12
 534:Src/mc_tasks_foc.c ****                STO_PLL_Clear(&STO_PLL_M1);
 829              		.loc 1 534 15 view .LVU217
 830 006a 1068     		ldr	r0, [r2]
 831 006c 7149     		ldr	r1, .L95+16
 533:Src/mc_tasks_foc.c ****               STC_SetSpeedSensor(pSTC[M1], &VirtualSpeedSensorM1._Super);
 832              		.loc 1 533 39 view .LVU218
 833 006e 0122     		movs	r2, #1
 834 0070 83F82420 		strb	r2, [r3, #36]
 534:Src/mc_tasks_foc.c ****                STO_PLL_Clear(&STO_PLL_M1);
 835              		.loc 1 534 15 is_stmt 1 view .LVU219
 836 0074 FFF7FEFF 		bl	STC_SetSpeedSensor
 837              	.LVL49:
 535:Src/mc_tasks_foc.c ****               FOC_Clear(M1);
 838              		.loc 1 535 16 view .LVU220
 839 0078 6F48     		ldr	r0, .L95+20
 840 007a FFF7FEFF 		bl	STO_PLL_Clear
 841              	.LVL50:
 536:Src/mc_tasks_foc.c ****               SCC_Start(&SCC);
 842              		.loc 1 536 15 view .LVU221
 843 007e 2846     		mov	r0, r5
 844 0080 FFF7FEFF 		bl	FOC_Clear
 845              	.LVL51:
 537:Src/mc_tasks_foc.c ****               /* The generic function needs to be called here as the undelying
 846              		.loc 1 537 15 view .LVU222
 847 0084 6848     		ldr	r0, .L95+4
 848 0086 FFF7FEFF 		bl	SCC_Start
 849              	.LVL52:
 542:Src/mc_tasks_foc.c ****               Mci[M1].State = START;
 850              		.loc 1 542 15 view .LVU223
 851 008a 6C4B     		ldr	r3, .L95+24
 852 008c 1868     		ldr	r0, [r3]
 853 008e FFF7FEFF 		bl	PWMC_SwitchOnPWM
 854              	.LVL53:
 543:Src/mc_tasks_foc.c ****             }
 855              		.loc 1 543 15 view .LVU224
 543:Src/mc_tasks_foc.c ****             }
 856              		.loc 1 543 29 is_stmt 0 view .LVU225
 857 0092 0423     		movs	r3, #4
 858 0094 E377     		strb	r3, [r4, #31]
 859 0096 D6E7     		b	.L39
ARM GAS  /tmp/ccF6ITrB.s 			page 35


 860              	.L42:
 411:Src/mc_tasks_foc.c ****           {
 861              		.loc 1 411 11 is_stmt 1 view .LVU226
 411:Src/mc_tasks_foc.c ****           {
 862              		.loc 1 411 14 is_stmt 0 view .LVU227
 863 0098 A37F     		ldrb	r3, [r4, #30]	@ zero_extendqisi2
 864 009a 052B     		cmp	r3, #5
 865 009c 00F06481 		beq	.L56
 866              	.LBB108:
 417:Src/mc_tasks_foc.c ****             int16_t hForcedMecSpeedUnit;
 867              		.loc 1 417 13 is_stmt 1 view .LVU228
 418:Src/mc_tasks_foc.c **** 
 868              		.loc 1 418 13 view .LVU229
 422:Src/mc_tasks_foc.c ****               /* Check if the transition ramp has completed. */
 869              		.loc 1 422 15 view .LVU230
 422:Src/mc_tasks_foc.c ****               /* Check if the transition ramp has completed. */
 870              		.loc 1 422 28 is_stmt 0 view .LVU231
 871 00a0 6448     		ldr	r0, .L95+16
 872 00a2 01A9     		add	r1, sp, #4
 873 00a4 FFF7FEFF 		bl	VSS_CalcAvrgMecSpeedUnit
 874              	.LVL54:
 875 00a8 0546     		mov	r5, r0
 425:Src/mc_tasks_foc.c ****               LoopClosed = LoopClosed || tempBool;
 876              		.loc 1 425 26 view .LVU232
 877 00aa 6248     		ldr	r0, .L95+16
 878              	.LVL55:
 424:Src/mc_tasks_foc.c ****               tempBool = VSS_TransitionEnded(&VirtualSpeedSensorM1);
 879              		.loc 1 424 15 is_stmt 1 view .LVU233
 425:Src/mc_tasks_foc.c ****               LoopClosed = LoopClosed || tempBool;
 880              		.loc 1 425 15 view .LVU234
 425:Src/mc_tasks_foc.c ****               LoopClosed = LoopClosed || tempBool;
 881              		.loc 1 425 26 is_stmt 0 view .LVU235
 882 00ac FFF7FEFF 		bl	VSS_TransitionEnded
 883              	.LVL56:
 426:Src/mc_tasks_foc.c **** 
 884              		.loc 1 426 15 is_stmt 1 view .LVU236
 426:Src/mc_tasks_foc.c **** 
 885              		.loc 1 426 39 is_stmt 0 view .LVU237
 886 00b0 002D     		cmp	r5, #0
 887 00b2 00F06D81 		beq	.L92
 888              	.L59:
 889              	.LVL57:
 430:Src/mc_tasks_foc.c ****               {
 890              		.loc 1 430 15 is_stmt 1 view .LVU238
 435:Src/mc_tasks_foc.c ****                                     (((int32_t)FOCVars[M1].Iqdref.q * (int16_t)PID_GetKIDivisor(&PI
 891              		.loc 1 435 17 view .LVU239
 436:Src/mc_tasks_foc.c ****                                     / PID_SPEED_INTEGRAL_INIT_DIV));
 892              		.loc 1 436 66 is_stmt 0 view .LVU240
 893 00b6 5E4B     		ldr	r3, .L95+12
 436:Src/mc_tasks_foc.c ****                                     / PID_SPEED_INTEGRAL_INIT_DIV));
 894              		.loc 1 436 80 view .LVU241
 895 00b8 6148     		ldr	r0, .L95+28
 896              	.LVL58:
 436:Src/mc_tasks_foc.c ****                                     / PID_SPEED_INTEGRAL_INIT_DIV));
 897              		.loc 1 436 66 view .LVU242
 898 00ba B3F91050 		ldrsh	r5, [r3, #16]
 436:Src/mc_tasks_foc.c ****                                     / PID_SPEED_INTEGRAL_INIT_DIV));
ARM GAS  /tmp/ccF6ITrB.s 			page 36


 899              		.loc 1 436 80 view .LVU243
 900 00be FFF7FEFF 		bl	PID_GetKIDivisor
 901              	.LVL59:
 435:Src/mc_tasks_foc.c ****                                     (((int32_t)FOCVars[M1].Iqdref.q * (int16_t)PID_GetKIDivisor(&PI
 902              		.loc 1 435 17 view .LVU244
 903 00c2 00B2     		sxth	r0, r0
 904 00c4 00FB05F1 		mul	r1, r0, r5
 905 00c8 5D48     		ldr	r0, .L95+28
 443:Src/mc_tasks_foc.c ****                 FOC_InitAdditionalMethods(M1);
 906              		.loc 1 443 17 view .LVU245
 907 00ca 584D     		ldr	r5, .L95+8
 435:Src/mc_tasks_foc.c ****                                     (((int32_t)FOCVars[M1].Iqdref.q * (int16_t)PID_GetKIDivisor(&PI
 908              		.loc 1 435 17 view .LVU246
 909 00cc FFF7FEFF 		bl	PID_SetIntegralTerm
 910              	.LVL60:
 439:Src/mc_tasks_foc.c ****                 /* USER CODE BEGIN MediumFrequencyTask M1 1 */
 911              		.loc 1 439 17 is_stmt 1 view .LVU247
 912 00d0 5C48     		ldr	r0, .L95+32
 913 00d2 FFF7FEFF 		bl	OTT_SR
 914              	.LVL61:
 443:Src/mc_tasks_foc.c ****                 FOC_InitAdditionalMethods(M1);
 915              		.loc 1 443 17 view .LVU248
 916 00d6 5849     		ldr	r1, .L95+20
 917 00d8 2868     		ldr	r0, [r5]
 918 00da FFF7FEFF 		bl	STC_SetSpeedSensor
 919              	.LVL62:
 444:Src/mc_tasks_foc.c ****                 FOC_CalcCurrRef(M1);
 920              		.loc 1 444 17 view .LVU249
 921 00de 0020     		movs	r0, #0
 922 00e0 FFF7FEFF 		bl	FOC_InitAdditionalMethods
 923              	.LVL63:
 445:Src/mc_tasks_foc.c ****                 STC_ForceSpeedReferenceToCurrentSpeed(pSTC[M1]); /* Init the reference speed to cur
 924              		.loc 1 445 17 view .LVU250
 925 00e4 0020     		movs	r0, #0
 926 00e6 FFF7FEFF 		bl	FOC_CalcCurrRef
 927              	.LVL64:
 446:Src/mc_tasks_foc.c ****                 MCI_ExecBufferedCommands(&Mci[M1]); /* Exec the speed ramp after changing of the sp
 928              		.loc 1 446 17 view .LVU251
 929 00ea 2868     		ldr	r0, [r5]
 930 00ec FFF7FEFF 		bl	STC_ForceSpeedReferenceToCurrentSpeed
 931              	.LVL65:
 447:Src/mc_tasks_foc.c ****                 Mci[M1].State = RUN;
 932              		.loc 1 447 17 view .LVU252
 933 00f0 4C48     		ldr	r0, .L95
 934 00f2 FFF7FEFF 		bl	MCI_ExecBufferedCommands
 935              	.LVL66:
 448:Src/mc_tasks_foc.c ****               }
 936              		.loc 1 448 17 view .LVU253
 448:Src/mc_tasks_foc.c ****               }
 937              		.loc 1 448 31 is_stmt 0 view .LVU254
 938 00f6 0623     		movs	r3, #6
 939 00f8 E377     		strb	r3, [r4, #31]
 940 00fa A4E7     		b	.L39
 941              	.LVL67:
 942              	.L43:
 448:Src/mc_tasks_foc.c ****               }
 943              		.loc 1 448 31 view .LVU255
ARM GAS  /tmp/ccF6ITrB.s 			page 37


 944              	.LBE108:
 295:Src/mc_tasks_foc.c ****           {
 945              		.loc 1 295 11 is_stmt 1 view .LVU256
 295:Src/mc_tasks_foc.c ****           {
 946              		.loc 1 295 14 is_stmt 0 view .LVU257
 947 00fc A37F     		ldrb	r3, [r4, #30]	@ zero_extendqisi2
 948 00fe 052B     		cmp	r3, #5
 949 0100 00F03281 		beq	.L56
 301:Src/mc_tasks_foc.c ****             {
 950              		.loc 1 301 13 is_stmt 1 view .LVU258
 301:Src/mc_tasks_foc.c ****             {
 951              		.loc 1 301 17 is_stmt 0 view .LVU259
 952 0104 4D4B     		ldr	r3, .L95+24
 953 0106 0121     		movs	r1, #1
 954 0108 1868     		ldr	r0, [r3]
 955 010a FFF7FEFF 		bl	PWMC_CurrentReadingCalibr
 956              	.LVL68:
 301:Src/mc_tasks_foc.c ****             {
 957              		.loc 1 301 16 view .LVU260
 958 010e 0028     		cmp	r0, #0
 959 0110 99D0     		beq	.L39
 303:Src/mc_tasks_foc.c ****               {
 960              		.loc 1 303 15 is_stmt 1 view .LVU261
 303:Src/mc_tasks_foc.c ****               {
 961              		.loc 1 303 18 is_stmt 0 view .LVU262
 962 0112 A37F     		ldrb	r3, [r4, #30]	@ zero_extendqisi2
 963 0114 032B     		cmp	r3, #3
 964 0116 00F04981 		beq	.L93
 311:Src/mc_tasks_foc.c ****               }
 965              		.loc 1 311 17 is_stmt 1 view .LVU263
 311:Src/mc_tasks_foc.c ****               }
 966              		.loc 1 311 31 is_stmt 0 view .LVU264
 967 011a 1423     		movs	r3, #20
 968 011c E377     		strb	r3, [r4, #31]
 969 011e 92E7     		b	.L39
 970              	.L47:
 484:Src/mc_tasks_foc.c ****           {
 971              		.loc 1 484 11 is_stmt 1 view .LVU265
 484:Src/mc_tasks_foc.c ****           {
 972              		.loc 1 484 15 is_stmt 0 view .LVU266
 973 0120 FFF7FEFF 		bl	TSK_StopPermanencyTimeHasElapsedM1
 974              	.LVL69:
 484:Src/mc_tasks_foc.c ****           {
 975              		.loc 1 484 14 view .LVU267
 976 0124 0028     		cmp	r0, #0
 977 0126 8ED0     		beq	.L39
 487:Src/mc_tasks_foc.c ****             VSS_Clear(&VirtualSpeedSensorM1); /* Reset measured speed in IDLE */
 978              		.loc 1 487 13 is_stmt 1 view .LVU268
 979 0128 404B     		ldr	r3, .L95+8
 980 012a 4249     		ldr	r1, .L95+16
 981 012c 1868     		ldr	r0, [r3]
 982 012e FFF7FEFF 		bl	STC_SetSpeedSensor
 983              	.LVL70:
 488:Src/mc_tasks_foc.c ****             /* USER CODE BEGIN MediumFrequencyTask M1 5 */
 984              		.loc 1 488 13 view .LVU269
 985 0132 4048     		ldr	r0, .L95+16
 986 0134 FFF7FEFF 		bl	VSS_Clear
ARM GAS  /tmp/ccF6ITrB.s 			page 38


 987              	.LVL71:
 492:Src/mc_tasks_foc.c ****             Mci[M1].State = IDLE;
 988              		.loc 1 492 13 view .LVU270
 493:Src/mc_tasks_foc.c ****           }
 989              		.loc 1 493 13 view .LVU271
 492:Src/mc_tasks_foc.c ****             Mci[M1].State = IDLE;
 990              		.loc 1 492 35 is_stmt 0 view .LVU272
 991 0138 0023     		movs	r3, #0
 992 013a E383     		strh	r3, [r4, #30]	@ movhi
 993 013c 83E7     		b	.L39
 994              	.L45:
 504:Src/mc_tasks_foc.c ****           {
 995              		.loc 1 504 11 is_stmt 1 view .LVU273
 504:Src/mc_tasks_foc.c ****           {
 996              		.loc 1 504 14 is_stmt 0 view .LVU274
 997 013e A37F     		ldrb	r3, [r4, #30]	@ zero_extendqisi2
 998 0140 022B     		cmp	r3, #2
 999 0142 80D1     		bne	.L39
 506:Src/mc_tasks_foc.c ****             Mci[M1].State = IDLE;
 1000              		.loc 1 506 13 is_stmt 1 view .LVU275
 507:Src/mc_tasks_foc.c ****           }
 1001              		.loc 1 507 13 view .LVU276
 506:Src/mc_tasks_foc.c ****             Mci[M1].State = IDLE;
 1002              		.loc 1 506 35 is_stmt 0 view .LVU277
 1003 0144 0023     		movs	r3, #0
 1004 0146 E383     		strh	r3, [r4, #30]	@ movhi
 1005 0148 7DE7     		b	.L39
 1006              	.L46:
 518:Src/mc_tasks_foc.c ****           break;
 1007              		.loc 1 518 11 is_stmt 1 view .LVU278
 518:Src/mc_tasks_foc.c ****           break;
 1008              		.loc 1 518 25 is_stmt 0 view .LVU279
 1009 014a 0B23     		movs	r3, #11
 1010 014c E377     		strb	r3, [r4, #31]
 519:Src/mc_tasks_foc.c ****         }
 1011              		.loc 1 519 11 is_stmt 1 view .LVU280
 1012 014e 7AE7     		b	.L39
 1013              	.L44:
 324:Src/mc_tasks_foc.c ****           {
 1014              		.loc 1 324 11 view .LVU281
 324:Src/mc_tasks_foc.c ****           {
 1015              		.loc 1 324 14 is_stmt 0 view .LVU282
 1016 0150 A37F     		ldrb	r3, [r4, #30]	@ zero_extendqisi2
 1017 0152 052B     		cmp	r3, #5
 1018 0154 00F00881 		beq	.L56
 330:Src/mc_tasks_foc.c ****             {
 1019              		.loc 1 330 13 is_stmt 1 view .LVU283
 330:Src/mc_tasks_foc.c ****             {
 1020              		.loc 1 330 17 is_stmt 0 view .LVU284
 1021 0158 FFF7FEFF 		bl	TSK_ChargeBootCapDelayHasElapsedM1
 1022              	.LVL72:
 330:Src/mc_tasks_foc.c ****             {
 1023              		.loc 1 330 16 view .LVU285
 1024 015c 0028     		cmp	r0, #0
 1025 015e 3FF472AF 		beq	.L39
 332:Src/mc_tasks_foc.c ****               FOCVars[M1].bDriveInput = EXTERNAL;
 1026              		.loc 1 332 15 is_stmt 1 view .LVU286
ARM GAS  /tmp/ccF6ITrB.s 			page 39


 1027 0162 364D     		ldr	r5, .L95+24
 1028 0164 2868     		ldr	r0, [r5]
 1029 0166 FFF7FEFF 		bl	R3_2_SwitchOffPWM
 1030              	.LVL73:
 333:Src/mc_tasks_foc.c ****               STC_SetSpeedSensor( pSTC[M1], &VirtualSpeedSensorM1._Super );
 1031              		.loc 1 333 15 view .LVU287
 334:Src/mc_tasks_foc.c **** 
 1032              		.loc 1 334 15 is_stmt 0 view .LVU288
 1033 016a 304A     		ldr	r2, .L95+8
 333:Src/mc_tasks_foc.c ****               STC_SetSpeedSensor( pSTC[M1], &VirtualSpeedSensorM1._Super );
 1034              		.loc 1 333 39 view .LVU289
 1035 016c 304B     		ldr	r3, .L95+12
 334:Src/mc_tasks_foc.c **** 
 1036              		.loc 1 334 15 view .LVU290
 1037 016e 1068     		ldr	r0, [r2]
 1038 0170 3049     		ldr	r1, .L95+16
 333:Src/mc_tasks_foc.c ****               STC_SetSpeedSensor( pSTC[M1], &VirtualSpeedSensorM1._Super );
 1039              		.loc 1 333 39 view .LVU291
 1040 0172 0122     		movs	r2, #1
 1041 0174 83F82420 		strb	r2, [r3, #36]
 334:Src/mc_tasks_foc.c **** 
 1042              		.loc 1 334 15 is_stmt 1 view .LVU292
 1043 0178 FFF7FEFF 		bl	STC_SetSpeedSensor
 1044              	.LVL74:
 336:Src/mc_tasks_foc.c ****               PWMC_Clear(pwmcHandle[M1]);
 1045              		.loc 1 336 15 view .LVU293
 1046 017c 2E48     		ldr	r0, .L95+20
 1047 017e FFF7FEFF 		bl	STO_PLL_Clear
 1048              	.LVL75:
 337:Src/mc_tasks_foc.c **** 
 1049              		.loc 1 337 15 view .LVU294
 1050 0182 2868     		ldr	r0, [r5]
 1051 0184 FFF7FEFF 		bl	PWMC_Clear
 1052              	.LVL76:
 339:Src/mc_tasks_foc.c **** 
 1053              		.loc 1 339 15 view .LVU295
 1054 0188 0020     		movs	r0, #0
 1055 018a FFF7FEFF 		bl	FOC_Clear
 1056              	.LVL77:
 341:Src/mc_tasks_foc.c ****               /* The generic function needs to be called here as the undelying
 1057              		.loc 1 341 9 view .LVU296
 1058 018e 2648     		ldr	r0, .L95+4
 1059 0190 FFF7FEFF 		bl	SCC_Start
 1060              	.LVL78:
 346:Src/mc_tasks_foc.c ****               Mci[M1].State = START;
 1061              		.loc 1 346 15 view .LVU297
 1062 0194 2868     		ldr	r0, [r5]
 1063 0196 FFF7FEFF 		bl	PWMC_SwitchOnPWM
 1064              	.LVL79:
 347:Src/mc_tasks_foc.c ****               PWMC_SwitchOnPWM(pwmcHandle[M1]);
 1065              		.loc 1 347 15 view .LVU298
 347:Src/mc_tasks_foc.c ****               PWMC_SwitchOnPWM(pwmcHandle[M1]);
 1066              		.loc 1 347 29 is_stmt 0 view .LVU299
 1067 019a 0423     		movs	r3, #4
 348:Src/mc_tasks_foc.c ****             }
 1068              		.loc 1 348 15 view .LVU300
 1069 019c 2868     		ldr	r0, [r5]
ARM GAS  /tmp/ccF6ITrB.s 			page 40


 347:Src/mc_tasks_foc.c ****               PWMC_SwitchOnPWM(pwmcHandle[M1]);
 1070              		.loc 1 347 29 view .LVU301
 1071 019e E377     		strb	r3, [r4, #31]
 348:Src/mc_tasks_foc.c ****             }
 1072              		.loc 1 348 15 is_stmt 1 view .LVU302
 1073 01a0 FFF7FEFF 		bl	PWMC_SwitchOnPWM
 1074              	.LVL80:
 1075 01a4 4FE7     		b	.L39
 1076              	.L49:
 360:Src/mc_tasks_foc.c ****           {
 1077              		.loc 1 360 11 view .LVU303
 360:Src/mc_tasks_foc.c ****           {
 1078              		.loc 1 360 14 is_stmt 0 view .LVU304
 1079 01a6 A37F     		ldrb	r3, [r4, #30]	@ zero_extendqisi2
 1080 01a8 052B     		cmp	r3, #5
 1081 01aa 00F0DD80 		beq	.L56
 1082              	.LBB109:
 367:Src/mc_tasks_foc.c ****             qd_t IqdRef;
 1083              		.loc 1 367 13 is_stmt 1 view .LVU305
 368:Src/mc_tasks_foc.c ****             bool ObserverConverged;
 1084              		.loc 1 368 13 view .LVU306
 369:Src/mc_tasks_foc.c **** 
 1085              		.loc 1 369 13 view .LVU307
 372:Src/mc_tasks_foc.c ****             {
 1086              		.loc 1 372 13 view .LVU308
 372:Src/mc_tasks_foc.c ****             {
 1087              		.loc 1 372 18 is_stmt 0 view .LVU309
 1088 01ae 2648     		ldr	r0, .L95+36
 1089 01b0 FFF7FEFF 		bl	RUC_Exec
 1090              	.LVL81:
 372:Src/mc_tasks_foc.c ****             {
 1091              		.loc 1 372 15 view .LVU310
 1092 01b4 0028     		cmp	r0, #0
 1093 01b6 40F0EF80 		bne	.L94
 1094              	.L57:
 388:Src/mc_tasks_foc.c **** 
 1095              		.loc 1 388 13 is_stmt 1 view .LVU311
 390:Src/mc_tasks_foc.c ****               STO_SetDirection(&STO_PLL_M1, (int8_t)MCI_GetImposedMotorDirection(&Mci[M1]));
 1096              		.loc 1 390 35 is_stmt 0 view .LVU312
 1097 01ba 1F4E     		ldr	r6, .L95+20
 388:Src/mc_tasks_foc.c **** 
 1098              		.loc 1 388 19 view .LVU313
 1099 01bc 1D48     		ldr	r0, .L95+16
 1100 01be 0DF10201 		add	r1, sp, #2
 1101 01c2 FFF7FEFF 		bl	VSS_CalcAvrgMecSpeedUnit
 1102              	.LVL82:
 390:Src/mc_tasks_foc.c ****               STO_SetDirection(&STO_PLL_M1, (int8_t)MCI_GetImposedMotorDirection(&Mci[M1]));
 1103              		.loc 1 390 15 is_stmt 1 view .LVU314
 390:Src/mc_tasks_foc.c ****               STO_SetDirection(&STO_PLL_M1, (int8_t)MCI_GetImposedMotorDirection(&Mci[M1]));
 1104              		.loc 1 390 35 is_stmt 0 view .LVU315
 1105 01c6 0DF10201 		add	r1, sp, #2
 1106 01ca 3046     		mov	r0, r6
 1107 01cc FFF7FEFF 		bl	STO_PLL_IsObserverConverged
 1108              	.LVL83:
 1109 01d0 0546     		mov	r5, r0
 391:Src/mc_tasks_foc.c **** 
 1110              		.loc 1 391 53 view .LVU316
ARM GAS  /tmp/ccF6ITrB.s 			page 41


 1111 01d2 1448     		ldr	r0, .L95
 1112              	.LVL84:
 391:Src/mc_tasks_foc.c **** 
 1113              		.loc 1 391 15 is_stmt 1 view .LVU317
 391:Src/mc_tasks_foc.c **** 
 1114              		.loc 1 391 53 is_stmt 0 view .LVU318
 1115 01d4 FFF7FEFF 		bl	MCI_GetImposedMotorDirection
 1116              	.LVL85:
 391:Src/mc_tasks_foc.c **** 
 1117              		.loc 1 391 15 view .LVU319
 1118 01d8 41B2     		sxtb	r1, r0
 1119 01da 3046     		mov	r0, r6
 1120 01dc FFF7FEFF 		bl	STO_SetDirection
 1121              	.LVL86:
 393:Src/mc_tasks_foc.c ****             if (ObserverConverged)
 1122              		.loc 1 393 15 is_stmt 1 view .LVU320
 393:Src/mc_tasks_foc.c ****             if (ObserverConverged)
 1123              		.loc 1 393 21 is_stmt 0 view .LVU321
 1124 01e0 1448     		ldr	r0, .L95+16
 1125 01e2 2946     		mov	r1, r5
 1126 01e4 FFF7FEFF 		bl	VSS_SetStartTransition
 1127              	.LVL87:
 394:Src/mc_tasks_foc.c ****             {
 1128              		.loc 1 394 13 is_stmt 1 view .LVU322
 394:Src/mc_tasks_foc.c ****             {
 1129              		.loc 1 394 16 is_stmt 0 view .LVU323
 1130 01e8 002D     		cmp	r5, #0
 1131 01ea 3FF42CAF 		beq	.L39
 1132              	.LBB110:
 396:Src/mc_tasks_foc.c **** 
 1133              		.loc 1 396 15 is_stmt 1 view .LVU324
 1134              	.LVL88:
 1135              	.LBB111:
 1136              	.LBI111:
 1137              		.file 3 "MCSDK_v6.3.2-Full/MotorControl/MCSDK/MCLib/Any/Inc/speed_pos_fdbk.h"
   1:MCSDK_v6.3.2-Full/MotorControl/MCSDK/MCLib/Any/Inc/speed_pos_fdbk.h **** /**
   2:MCSDK_v6.3.2-Full/MotorControl/MCSDK/MCLib/Any/Inc/speed_pos_fdbk.h ****   ******************************************************************************
   3:MCSDK_v6.3.2-Full/MotorControl/MCSDK/MCLib/Any/Inc/speed_pos_fdbk.h ****   * @file    speed_pos_fdbk.h
   4:MCSDK_v6.3.2-Full/MotorControl/MCSDK/MCLib/Any/Inc/speed_pos_fdbk.h ****   * @author  Motor Control SDK Team, ST Microelectronics
   5:MCSDK_v6.3.2-Full/MotorControl/MCSDK/MCLib/Any/Inc/speed_pos_fdbk.h ****   * @brief   This file provides all definitions and functions prototypes
   6:MCSDK_v6.3.2-Full/MotorControl/MCSDK/MCLib/Any/Inc/speed_pos_fdbk.h ****   *          of the Speed & Position Feedback component of the Motor Control SDK.
   7:MCSDK_v6.3.2-Full/MotorControl/MCSDK/MCLib/Any/Inc/speed_pos_fdbk.h ****   *
   8:MCSDK_v6.3.2-Full/MotorControl/MCSDK/MCLib/Any/Inc/speed_pos_fdbk.h ****   ******************************************************************************
   9:MCSDK_v6.3.2-Full/MotorControl/MCSDK/MCLib/Any/Inc/speed_pos_fdbk.h ****   * @attention
  10:MCSDK_v6.3.2-Full/MotorControl/MCSDK/MCLib/Any/Inc/speed_pos_fdbk.h ****   *
  11:MCSDK_v6.3.2-Full/MotorControl/MCSDK/MCLib/Any/Inc/speed_pos_fdbk.h ****   * <h2><center>&copy; Copyright (c) 2024 STMicroelectronics.
  12:MCSDK_v6.3.2-Full/MotorControl/MCSDK/MCLib/Any/Inc/speed_pos_fdbk.h ****   * All rights reserved.</center></h2>
  13:MCSDK_v6.3.2-Full/MotorControl/MCSDK/MCLib/Any/Inc/speed_pos_fdbk.h ****   *
  14:MCSDK_v6.3.2-Full/MotorControl/MCSDK/MCLib/Any/Inc/speed_pos_fdbk.h ****   * This software component is licensed by ST under Ultimate Liberty license
  15:MCSDK_v6.3.2-Full/MotorControl/MCSDK/MCLib/Any/Inc/speed_pos_fdbk.h ****   * SLA0044, the "License"; You may not use this file except in compliance with
  16:MCSDK_v6.3.2-Full/MotorControl/MCSDK/MCLib/Any/Inc/speed_pos_fdbk.h ****   * the License. You may obtain a copy of the License at:
  17:MCSDK_v6.3.2-Full/MotorControl/MCSDK/MCLib/Any/Inc/speed_pos_fdbk.h ****   *                             www.st.com/SLA0044
  18:MCSDK_v6.3.2-Full/MotorControl/MCSDK/MCLib/Any/Inc/speed_pos_fdbk.h ****   *
  19:MCSDK_v6.3.2-Full/MotorControl/MCSDK/MCLib/Any/Inc/speed_pos_fdbk.h ****   ******************************************************************************
  20:MCSDK_v6.3.2-Full/MotorControl/MCSDK/MCLib/Any/Inc/speed_pos_fdbk.h ****   * @ingroup SpeednPosFdbk
  21:MCSDK_v6.3.2-Full/MotorControl/MCSDK/MCLib/Any/Inc/speed_pos_fdbk.h ****   */
  22:MCSDK_v6.3.2-Full/MotorControl/MCSDK/MCLib/Any/Inc/speed_pos_fdbk.h **** 
ARM GAS  /tmp/ccF6ITrB.s 			page 42


  23:MCSDK_v6.3.2-Full/MotorControl/MCSDK/MCLib/Any/Inc/speed_pos_fdbk.h **** /* Define to prevent recursive inclusion -------------------------------------*/
  24:MCSDK_v6.3.2-Full/MotorControl/MCSDK/MCLib/Any/Inc/speed_pos_fdbk.h **** #ifndef SPEEDNPOSFDBK_H
  25:MCSDK_v6.3.2-Full/MotorControl/MCSDK/MCLib/Any/Inc/speed_pos_fdbk.h **** #define SPEEDNPOSFDBK_H
  26:MCSDK_v6.3.2-Full/MotorControl/MCSDK/MCLib/Any/Inc/speed_pos_fdbk.h **** 
  27:MCSDK_v6.3.2-Full/MotorControl/MCSDK/MCLib/Any/Inc/speed_pos_fdbk.h **** #ifdef __cplusplus
  28:MCSDK_v6.3.2-Full/MotorControl/MCSDK/MCLib/Any/Inc/speed_pos_fdbk.h **** extern "C" {
  29:MCSDK_v6.3.2-Full/MotorControl/MCSDK/MCLib/Any/Inc/speed_pos_fdbk.h **** #endif /* __cplusplus */
  30:MCSDK_v6.3.2-Full/MotorControl/MCSDK/MCLib/Any/Inc/speed_pos_fdbk.h **** 
  31:MCSDK_v6.3.2-Full/MotorControl/MCSDK/MCLib/Any/Inc/speed_pos_fdbk.h **** /* Includes ------------------------------------------------------------------*/
  32:MCSDK_v6.3.2-Full/MotorControl/MCSDK/MCLib/Any/Inc/speed_pos_fdbk.h **** /* Already into mc_type.h */
  33:MCSDK_v6.3.2-Full/MotorControl/MCSDK/MCLib/Any/Inc/speed_pos_fdbk.h **** /* #include "stdint.h" */
  34:MCSDK_v6.3.2-Full/MotorControl/MCSDK/MCLib/Any/Inc/speed_pos_fdbk.h **** #include "mc_type.h"
  35:MCSDK_v6.3.2-Full/MotorControl/MCSDK/MCLib/Any/Inc/speed_pos_fdbk.h **** 
  36:MCSDK_v6.3.2-Full/MotorControl/MCSDK/MCLib/Any/Inc/speed_pos_fdbk.h **** /** @addtogroup MCSDK
  37:MCSDK_v6.3.2-Full/MotorControl/MCSDK/MCLib/Any/Inc/speed_pos_fdbk.h ****   * @{
  38:MCSDK_v6.3.2-Full/MotorControl/MCSDK/MCLib/Any/Inc/speed_pos_fdbk.h ****   */
  39:MCSDK_v6.3.2-Full/MotorControl/MCSDK/MCLib/Any/Inc/speed_pos_fdbk.h **** 
  40:MCSDK_v6.3.2-Full/MotorControl/MCSDK/MCLib/Any/Inc/speed_pos_fdbk.h **** /** @addtogroup SpeednPosFdbk
  41:MCSDK_v6.3.2-Full/MotorControl/MCSDK/MCLib/Any/Inc/speed_pos_fdbk.h ****   * @{
  42:MCSDK_v6.3.2-Full/MotorControl/MCSDK/MCLib/Any/Inc/speed_pos_fdbk.h ****   */
  43:MCSDK_v6.3.2-Full/MotorControl/MCSDK/MCLib/Any/Inc/speed_pos_fdbk.h **** 
  44:MCSDK_v6.3.2-Full/MotorControl/MCSDK/MCLib/Any/Inc/speed_pos_fdbk.h **** /* Exported types ------------------------------------------------------------*/
  45:MCSDK_v6.3.2-Full/MotorControl/MCSDK/MCLib/Any/Inc/speed_pos_fdbk.h **** /**
  46:MCSDK_v6.3.2-Full/MotorControl/MCSDK/MCLib/Any/Inc/speed_pos_fdbk.h ****   * @brief  SpeednPosFdbk  handles definitions of mechanical and electrical speed, mechanical accel
  47:MCSDK_v6.3.2-Full/MotorControl/MCSDK/MCLib/Any/Inc/speed_pos_fdbk.h ****   *                        and electrical angle and all constants and scale values for a reliable m
  48:MCSDK_v6.3.2-Full/MotorControl/MCSDK/MCLib/Any/Inc/speed_pos_fdbk.h ****   *                        computation in appropriated unit.
  49:MCSDK_v6.3.2-Full/MotorControl/MCSDK/MCLib/Any/Inc/speed_pos_fdbk.h ****   */
  50:MCSDK_v6.3.2-Full/MotorControl/MCSDK/MCLib/Any/Inc/speed_pos_fdbk.h **** typedef struct
  51:MCSDK_v6.3.2-Full/MotorControl/MCSDK/MCLib/Any/Inc/speed_pos_fdbk.h **** {
  52:MCSDK_v6.3.2-Full/MotorControl/MCSDK/MCLib/Any/Inc/speed_pos_fdbk.h **** 
  53:MCSDK_v6.3.2-Full/MotorControl/MCSDK/MCLib/Any/Inc/speed_pos_fdbk.h ****   uint8_t bSpeedErrorNumber;          /*!< Number of time the average mechanical speed is not valid
  54:MCSDK_v6.3.2-Full/MotorControl/MCSDK/MCLib/Any/Inc/speed_pos_fdbk.h ****   uint8_t bElToMecRatio;              /*!< Coefficient used to transform electrical to mechanical q
  55:MCSDK_v6.3.2-Full/MotorControl/MCSDK/MCLib/Any/Inc/speed_pos_fdbk.h ****                                            viceversa. It usually coincides with motor pole pairs nu
  56:MCSDK_v6.3.2-Full/MotorControl/MCSDK/MCLib/Any/Inc/speed_pos_fdbk.h ****   uint8_t SpeedUnit;                  /*!< The speed unit value is defined into mc_stm_types.h by
  57:MCSDK_v6.3.2-Full/MotorControl/MCSDK/MCLib/Any/Inc/speed_pos_fdbk.h ****                                            [SPEED_UNIT](measurement_units.md) in tenth of Hertz.*/
  58:MCSDK_v6.3.2-Full/MotorControl/MCSDK/MCLib/Any/Inc/speed_pos_fdbk.h ****   uint8_t bMaximumSpeedErrorsNumber;  /*!< Maximum value of not valid speed measurements before an 
  59:MCSDK_v6.3.2-Full/MotorControl/MCSDK/MCLib/Any/Inc/speed_pos_fdbk.h ****   int16_t hElAngle;                   /*!< Estimated electrical angle reported by the implemented s
  60:MCSDK_v6.3.2-Full/MotorControl/MCSDK/MCLib/Any/Inc/speed_pos_fdbk.h ****                                            method. */
  61:MCSDK_v6.3.2-Full/MotorControl/MCSDK/MCLib/Any/Inc/speed_pos_fdbk.h ****   int16_t hMecAngle;                  /*!< Instantaneous measure of rotor mechanical angle. */
  62:MCSDK_v6.3.2-Full/MotorControl/MCSDK/MCLib/Any/Inc/speed_pos_fdbk.h ****   int32_t wMecAngle;                  /*!< Mechanical angle frame based on coefficient #bElToMecRat
  63:MCSDK_v6.3.2-Full/MotorControl/MCSDK/MCLib/Any/Inc/speed_pos_fdbk.h ****   int16_t hAvrMecSpeedUnit;           /*!< Average mechanical speed expressed in the unit defined b
  64:MCSDK_v6.3.2-Full/MotorControl/MCSDK/MCLib/Any/Inc/speed_pos_fdbk.h ****                                            [SPEED_UNIT](measurement_units.md). */
  65:MCSDK_v6.3.2-Full/MotorControl/MCSDK/MCLib/Any/Inc/speed_pos_fdbk.h ****   int16_t hElSpeedDpp;                /*!< Instantaneous electrical speed expressed in Digit Per co
  66:MCSDK_v6.3.2-Full/MotorControl/MCSDK/MCLib/Any/Inc/speed_pos_fdbk.h ****                                            ([dpp](measurement_units.md)),
  67:MCSDK_v6.3.2-Full/MotorControl/MCSDK/MCLib/Any/Inc/speed_pos_fdbk.h ****                                            expresses the angular speed as the variation of the elec
  68:MCSDK_v6.3.2-Full/MotorControl/MCSDK/MCLib/Any/Inc/speed_pos_fdbk.h ****   int16_t InstantaneousElSpeedDpp;    /*!< Instantaneous computed electrical speed, expressed in
  69:MCSDK_v6.3.2-Full/MotorControl/MCSDK/MCLib/Any/Inc/speed_pos_fdbk.h ****                                            [dpp](measurement_units.md). */
  70:MCSDK_v6.3.2-Full/MotorControl/MCSDK/MCLib/Any/Inc/speed_pos_fdbk.h ****   int16_t hMecAccelUnitP;             /*!< Average mechanical acceleration expressed in the unit de
  71:MCSDK_v6.3.2-Full/MotorControl/MCSDK/MCLib/Any/Inc/speed_pos_fdbk.h ****                                            only reported with encoder implementation */
  72:MCSDK_v6.3.2-Full/MotorControl/MCSDK/MCLib/Any/Inc/speed_pos_fdbk.h ****   uint16_t hMaxReliableMecSpeedUnit;  /*!< Maximum value of measured mechanical speed that is consi
  73:MCSDK_v6.3.2-Full/MotorControl/MCSDK/MCLib/Any/Inc/speed_pos_fdbk.h ****                                            Expressed in the unit defined by [SPEED_UNIT](measuremen
  74:MCSDK_v6.3.2-Full/MotorControl/MCSDK/MCLib/Any/Inc/speed_pos_fdbk.h ****   uint16_t hMinReliableMecSpeedUnit;  /*!< Minimum value of measured mechanical speed that is consi
  75:MCSDK_v6.3.2-Full/MotorControl/MCSDK/MCLib/Any/Inc/speed_pos_fdbk.h ****                                            Expressed in the unit defined by [SPEED_UNIT](measuremen
  76:MCSDK_v6.3.2-Full/MotorControl/MCSDK/MCLib/Any/Inc/speed_pos_fdbk.h ****   uint16_t hMaxReliableMecAccelUnitP; /*!< Maximum value of measured acceleration that is considere
  77:MCSDK_v6.3.2-Full/MotorControl/MCSDK/MCLib/Any/Inc/speed_pos_fdbk.h ****                                            Constant value equal to 65535, expressed in the unit def
  78:MCSDK_v6.3.2-Full/MotorControl/MCSDK/MCLib/Any/Inc/speed_pos_fdbk.h ****                                            [SPEED_UNIT](measurement_units.md). */
  79:MCSDK_v6.3.2-Full/MotorControl/MCSDK/MCLib/Any/Inc/speed_pos_fdbk.h ****   uint16_t hMeasurementFrequency;     /*!< Frequency at which the user will request a measurement o
ARM GAS  /tmp/ccF6ITrB.s 			page 43


  80:MCSDK_v6.3.2-Full/MotorControl/MCSDK/MCLib/Any/Inc/speed_pos_fdbk.h ****                                            electrical angle. Expressed in PWM_FREQ_SCALING * Hz. */
  81:MCSDK_v6.3.2-Full/MotorControl/MCSDK/MCLib/Any/Inc/speed_pos_fdbk.h ****   uint32_t DPPConvFactor;             /*!< Conversion factor (65536/#PWM_FREQ_SCALING) used to conv
  82:MCSDK_v6.3.2-Full/MotorControl/MCSDK/MCLib/Any/Inc/speed_pos_fdbk.h ****                                            from the unit defined by [SPEED_UNIT](measurement_units.
  83:MCSDK_v6.3.2-Full/MotorControl/MCSDK/MCLib/Any/Inc/speed_pos_fdbk.h ****                                            [dpp](measurement_units.md). */
  84:MCSDK_v6.3.2-Full/MotorControl/MCSDK/MCLib/Any/Inc/speed_pos_fdbk.h **** 
  85:MCSDK_v6.3.2-Full/MotorControl/MCSDK/MCLib/Any/Inc/speed_pos_fdbk.h **** 
  86:MCSDK_v6.3.2-Full/MotorControl/MCSDK/MCLib/Any/Inc/speed_pos_fdbk.h **** } SpeednPosFdbk_Handle_t;
  87:MCSDK_v6.3.2-Full/MotorControl/MCSDK/MCLib/Any/Inc/speed_pos_fdbk.h **** 
  88:MCSDK_v6.3.2-Full/MotorControl/MCSDK/MCLib/Any/Inc/speed_pos_fdbk.h **** /**
  89:MCSDK_v6.3.2-Full/MotorControl/MCSDK/MCLib/Any/Inc/speed_pos_fdbk.h ****   * @brief input structure type definition for SPD_CalcAngle
  90:MCSDK_v6.3.2-Full/MotorControl/MCSDK/MCLib/Any/Inc/speed_pos_fdbk.h ****   */
  91:MCSDK_v6.3.2-Full/MotorControl/MCSDK/MCLib/Any/Inc/speed_pos_fdbk.h **** typedef struct
  92:MCSDK_v6.3.2-Full/MotorControl/MCSDK/MCLib/Any/Inc/speed_pos_fdbk.h **** {
  93:MCSDK_v6.3.2-Full/MotorControl/MCSDK/MCLib/Any/Inc/speed_pos_fdbk.h ****   alphabeta_t  Valfa_beta;            /*!< Voltage Components in alfa beta reference frame */
  94:MCSDK_v6.3.2-Full/MotorControl/MCSDK/MCLib/Any/Inc/speed_pos_fdbk.h ****   alphabeta_t  Ialfa_beta;            /*!< Current Components in alfa beta reference frame */
  95:MCSDK_v6.3.2-Full/MotorControl/MCSDK/MCLib/Any/Inc/speed_pos_fdbk.h ****   uint16_t     Vbus;                  /*!< Virtual Bus Voltage information */
  96:MCSDK_v6.3.2-Full/MotorControl/MCSDK/MCLib/Any/Inc/speed_pos_fdbk.h **** } Observer_Inputs_t;
  97:MCSDK_v6.3.2-Full/MotorControl/MCSDK/MCLib/Any/Inc/speed_pos_fdbk.h **** 
  98:MCSDK_v6.3.2-Full/MotorControl/MCSDK/MCLib/Any/Inc/speed_pos_fdbk.h **** 
  99:MCSDK_v6.3.2-Full/MotorControl/MCSDK/MCLib/Any/Inc/speed_pos_fdbk.h **** int32_t SPD_GetMecAngle(const SpeednPosFdbk_Handle_t *pHandle);
 100:MCSDK_v6.3.2-Full/MotorControl/MCSDK/MCLib/Any/Inc/speed_pos_fdbk.h **** 
 101:MCSDK_v6.3.2-Full/MotorControl/MCSDK/MCLib/Any/Inc/speed_pos_fdbk.h **** int16_t SPD_GetAvrgMecSpeedUnit(const SpeednPosFdbk_Handle_t *pHandle);
 102:MCSDK_v6.3.2-Full/MotorControl/MCSDK/MCLib/Any/Inc/speed_pos_fdbk.h **** 
 103:MCSDK_v6.3.2-Full/MotorControl/MCSDK/MCLib/Any/Inc/speed_pos_fdbk.h **** int16_t SPD_GetElSpeedDpp(const SpeednPosFdbk_Handle_t *pHandle);
 104:MCSDK_v6.3.2-Full/MotorControl/MCSDK/MCLib/Any/Inc/speed_pos_fdbk.h **** 
 105:MCSDK_v6.3.2-Full/MotorControl/MCSDK/MCLib/Any/Inc/speed_pos_fdbk.h **** bool SPD_IsMecSpeedReliable(SpeednPosFdbk_Handle_t *pHandle, const int16_t *pMecSpeedUnit);
 106:MCSDK_v6.3.2-Full/MotorControl/MCSDK/MCLib/Any/Inc/speed_pos_fdbk.h **** 
 107:MCSDK_v6.3.2-Full/MotorControl/MCSDK/MCLib/Any/Inc/speed_pos_fdbk.h **** int16_t SPD_GetS16Speed(const SpeednPosFdbk_Handle_t *pHandle);
 108:MCSDK_v6.3.2-Full/MotorControl/MCSDK/MCLib/Any/Inc/speed_pos_fdbk.h **** 
 109:MCSDK_v6.3.2-Full/MotorControl/MCSDK/MCLib/Any/Inc/speed_pos_fdbk.h **** uint8_t SPD_GetElToMecRatio(const SpeednPosFdbk_Handle_t *pHandle);
 110:MCSDK_v6.3.2-Full/MotorControl/MCSDK/MCLib/Any/Inc/speed_pos_fdbk.h **** 
 111:MCSDK_v6.3.2-Full/MotorControl/MCSDK/MCLib/Any/Inc/speed_pos_fdbk.h **** void SPD_SetElToMecRatio(SpeednPosFdbk_Handle_t *pHandle, uint8_t bPP);
 112:MCSDK_v6.3.2-Full/MotorControl/MCSDK/MCLib/Any/Inc/speed_pos_fdbk.h **** 
 113:MCSDK_v6.3.2-Full/MotorControl/MCSDK/MCLib/Any/Inc/speed_pos_fdbk.h **** /**
 114:MCSDK_v6.3.2-Full/MotorControl/MCSDK/MCLib/Any/Inc/speed_pos_fdbk.h ****   * @brief  Returns the last computed rotor electrical angle, expressed in [s16degrees](measurement
 115:MCSDK_v6.3.2-Full/MotorControl/MCSDK/MCLib/Any/Inc/speed_pos_fdbk.h ****   * @param  pHandle: handler of the current instance of the SpeednPosFdbk component.
 116:MCSDK_v6.3.2-Full/MotorControl/MCSDK/MCLib/Any/Inc/speed_pos_fdbk.h ****   * @retval int16_t rotor electrical angle.
 117:MCSDK_v6.3.2-Full/MotorControl/MCSDK/MCLib/Any/Inc/speed_pos_fdbk.h ****   */
 118:MCSDK_v6.3.2-Full/MotorControl/MCSDK/MCLib/Any/Inc/speed_pos_fdbk.h **** static inline int16_t SPD_GetElAngle(const SpeednPosFdbk_Handle_t *pHandle)
 1138              		.loc 3 118 23 view .LVU325
 1139              	.LBB112:
 119:MCSDK_v6.3.2-Full/MotorControl/MCSDK/MCLib/Any/Inc/speed_pos_fdbk.h **** {
 120:MCSDK_v6.3.2-Full/MotorControl/MCSDK/MCLib/Any/Inc/speed_pos_fdbk.h **** #ifdef NULL_PTR_CHECK_SPD_POS_FBK
 121:MCSDK_v6.3.2-Full/MotorControl/MCSDK/MCLib/Any/Inc/speed_pos_fdbk.h ****   return ((MC_NULL == pHandle) ? 0 : pHandle->hElAngle);
 122:MCSDK_v6.3.2-Full/MotorControl/MCSDK/MCLib/Any/Inc/speed_pos_fdbk.h **** #else
 123:MCSDK_v6.3.2-Full/MotorControl/MCSDK/MCLib/Any/Inc/speed_pos_fdbk.h ****   return (pHandle->hElAngle);
 1140              		.loc 3 123 3 view .LVU326
 1141              		.loc 3 123 3 is_stmt 0 view .LVU327
 1142              	.LBE112:
 1143              	.LBE111:
 396:Src/mc_tasks_foc.c **** 
 1144              		.loc 1 396 36 view .LVU328
 1145 01ee 104F     		ldr	r7, .L95+12
 1146 01f0 B6F90410 		ldrsh	r1, [r6, #4]
 1147 01f4 7868     		ldr	r0, [r7, #4]	@ unaligned
 399:Src/mc_tasks_foc.c ****               (void)REMNG_ExecRamp(pREMNG[M1], FOCVars[M1].Iqdref.q, 0);
 1148              		.loc 1 399 15 view .LVU329
ARM GAS  /tmp/ccF6ITrB.s 			page 44


 1149 01f6 154D     		ldr	r5, .L95+40
 1150              	.LVL89:
 396:Src/mc_tasks_foc.c **** 
 1151              		.loc 1 396 36 view .LVU330
 1152 01f8 FFF7FEFF 		bl	MCM_Park
 1153              	.LVL90:
 1154 01fc 0346     		mov	r3, r0
 399:Src/mc_tasks_foc.c ****               (void)REMNG_ExecRamp(pREMNG[M1], FOCVars[M1].Iqdref.q, 0);
 1155              		.loc 1 399 15 view .LVU331
 1156 01fe 2868     		ldr	r0, [r5]
 396:Src/mc_tasks_foc.c **** 
 1157              		.loc 1 396 36 view .LVU332
 1158 0200 0193     		str	r3, [sp, #4]
 399:Src/mc_tasks_foc.c ****               (void)REMNG_ExecRamp(pREMNG[M1], FOCVars[M1].Iqdref.q, 0);
 1159              		.loc 1 399 15 is_stmt 1 view .LVU333
 1160 0202 FFF7FEFF 		bl	REMNG_Init
 1161              	.LVL91:
 400:Src/mc_tasks_foc.c ****               (void)REMNG_ExecRamp(pREMNG[M1], StatorCurrent.q, TRANSITION_DURATION);
 1162              		.loc 1 400 15 view .LVU334
 400:Src/mc_tasks_foc.c ****               (void)REMNG_ExecRamp(pREMNG[M1], StatorCurrent.q, TRANSITION_DURATION);
 1163              		.loc 1 400 21 is_stmt 0 view .LVU335
 1164 0206 B7F91010 		ldrsh	r1, [r7, #16]
 1165 020a 2868     		ldr	r0, [r5]
 1166 020c 0022     		movs	r2, #0
 1167 020e FFF7FEFF 		bl	REMNG_ExecRamp
 1168              	.LVL92:
 401:Src/mc_tasks_foc.c **** 
 1169              		.loc 1 401 15 is_stmt 1 view .LVU336
 401:Src/mc_tasks_foc.c **** 
 1170              		.loc 1 401 21 is_stmt 0 view .LVU337
 1171 0212 BDF90410 		ldrsh	r1, [sp, #4]
 1172 0216 2868     		ldr	r0, [r5]
 1173 0218 1922     		movs	r2, #25
 1174 021a FFF7FEFF 		bl	REMNG_ExecRamp
 1175              	.LVL93:
 403:Src/mc_tasks_foc.c ****             }
 1176              		.loc 1 403 15 is_stmt 1 view .LVU338
 403:Src/mc_tasks_foc.c ****             }
 1177              		.loc 1 403 29 is_stmt 0 view .LVU339
 1178 021e 1323     		movs	r3, #19
 1179 0220 E377     		strb	r3, [r4, #31]
 1180 0222 10E7     		b	.L39
 1181              	.L96:
 1182              		.align	2
 1183              	.L95:
 1184 0224 00000000 		.word	Mci
 1185 0228 00000000 		.word	SCC
 1186 022c 00000000 		.word	pSTC
 1187 0230 00000000 		.word	FOCVars
 1188 0234 00000000 		.word	VirtualSpeedSensorM1
 1189 0238 00000000 		.word	STO_PLL_M1
 1190 023c 00000000 		.word	pwmcHandle
 1191 0240 00000000 		.word	PIDSpeedHandle_M1
 1192 0244 00000000 		.word	OTT
 1193 0248 00000000 		.word	RevUpControlM1
 1194 024c 00000000 		.word	pREMNG
 1195              	.L50:
ARM GAS  /tmp/ccF6ITrB.s 			page 45


 403:Src/mc_tasks_foc.c ****             }
 1196              		.loc 1 403 29 view .LVU340
 1197              	.LBE110:
 1198              	.LBE109:
 221:Src/mc_tasks_foc.c ****           {
 1199              		.loc 1 221 11 is_stmt 1 view .LVU341
 221:Src/mc_tasks_foc.c ****           {
 1200              		.loc 1 221 14 is_stmt 0 view .LVU342
 1201 0250 A47F     		ldrb	r4, [r4, #30]	@ zero_extendqisi2
 1202 0252 04F0FD04 		and	r4, r4, #253
 1203 0256 012C     		cmp	r4, #1
 1204 0258 7FF4F5AE 		bne	.L39
 223:Src/mc_tasks_foc.c ****             if (0)//pwmcHandle[M1]->offsetCalibStatus == false)
 1205              		.loc 1 223 15 is_stmt 1 view .LVU343
 1206 025c 5648     		ldr	r0, .L97
 1207              	.LBB113:
 236:Src/mc_tasks_foc.c ****               //(void)PWMC_CurrentReadingCalibr(pwmcHandle[M1], CRC_EXEC);
 1208              		.loc 1 236 25 is_stmt 0 view .LVU344
 1209 025e 574D     		ldr	r5, .L97+4
 1210              	.LBB114:
 1211              	.LBB115:
 1212              		.file 4 "Drivers/STM32G4xx_HAL_Driver/Inc/stm32g4xx_ll_tim.h"
   1:Drivers/STM32G4xx_HAL_Driver/Inc/stm32g4xx_ll_tim.h **** /**
   2:Drivers/STM32G4xx_HAL_Driver/Inc/stm32g4xx_ll_tim.h ****   ******************************************************************************
   3:Drivers/STM32G4xx_HAL_Driver/Inc/stm32g4xx_ll_tim.h ****   * @file    stm32g4xx_ll_tim.h
   4:Drivers/STM32G4xx_HAL_Driver/Inc/stm32g4xx_ll_tim.h ****   * @author  MCD Application Team
   5:Drivers/STM32G4xx_HAL_Driver/Inc/stm32g4xx_ll_tim.h ****   * @brief   Header file of TIM LL module.
   6:Drivers/STM32G4xx_HAL_Driver/Inc/stm32g4xx_ll_tim.h ****   ******************************************************************************
   7:Drivers/STM32G4xx_HAL_Driver/Inc/stm32g4xx_ll_tim.h ****   * @attention
   8:Drivers/STM32G4xx_HAL_Driver/Inc/stm32g4xx_ll_tim.h ****   *
   9:Drivers/STM32G4xx_HAL_Driver/Inc/stm32g4xx_ll_tim.h ****   * Copyright (c) 2019 STMicroelectronics.
  10:Drivers/STM32G4xx_HAL_Driver/Inc/stm32g4xx_ll_tim.h ****   * All rights reserved.
  11:Drivers/STM32G4xx_HAL_Driver/Inc/stm32g4xx_ll_tim.h ****   *
  12:Drivers/STM32G4xx_HAL_Driver/Inc/stm32g4xx_ll_tim.h ****   * This software is licensed under terms that can be found in the LICENSE file
  13:Drivers/STM32G4xx_HAL_Driver/Inc/stm32g4xx_ll_tim.h ****   * in the root directory of this software component.
  14:Drivers/STM32G4xx_HAL_Driver/Inc/stm32g4xx_ll_tim.h ****   * If no LICENSE file comes with this software, it is provided AS-IS.
  15:Drivers/STM32G4xx_HAL_Driver/Inc/stm32g4xx_ll_tim.h ****   *
  16:Drivers/STM32G4xx_HAL_Driver/Inc/stm32g4xx_ll_tim.h ****   ******************************************************************************
  17:Drivers/STM32G4xx_HAL_Driver/Inc/stm32g4xx_ll_tim.h ****   */
  18:Drivers/STM32G4xx_HAL_Driver/Inc/stm32g4xx_ll_tim.h **** 
  19:Drivers/STM32G4xx_HAL_Driver/Inc/stm32g4xx_ll_tim.h **** /* Define to prevent recursive inclusion -------------------------------------*/
  20:Drivers/STM32G4xx_HAL_Driver/Inc/stm32g4xx_ll_tim.h **** #ifndef __STM32G4xx_LL_TIM_H
  21:Drivers/STM32G4xx_HAL_Driver/Inc/stm32g4xx_ll_tim.h **** #define __STM32G4xx_LL_TIM_H
  22:Drivers/STM32G4xx_HAL_Driver/Inc/stm32g4xx_ll_tim.h **** 
  23:Drivers/STM32G4xx_HAL_Driver/Inc/stm32g4xx_ll_tim.h **** #ifdef __cplusplus
  24:Drivers/STM32G4xx_HAL_Driver/Inc/stm32g4xx_ll_tim.h **** extern "C" {
  25:Drivers/STM32G4xx_HAL_Driver/Inc/stm32g4xx_ll_tim.h **** #endif
  26:Drivers/STM32G4xx_HAL_Driver/Inc/stm32g4xx_ll_tim.h **** 
  27:Drivers/STM32G4xx_HAL_Driver/Inc/stm32g4xx_ll_tim.h **** /* Includes ------------------------------------------------------------------*/
  28:Drivers/STM32G4xx_HAL_Driver/Inc/stm32g4xx_ll_tim.h **** #include "stm32g4xx.h"
  29:Drivers/STM32G4xx_HAL_Driver/Inc/stm32g4xx_ll_tim.h **** 
  30:Drivers/STM32G4xx_HAL_Driver/Inc/stm32g4xx_ll_tim.h **** /** @addtogroup STM32G4xx_LL_Driver
  31:Drivers/STM32G4xx_HAL_Driver/Inc/stm32g4xx_ll_tim.h ****   * @{
  32:Drivers/STM32G4xx_HAL_Driver/Inc/stm32g4xx_ll_tim.h ****   */
  33:Drivers/STM32G4xx_HAL_Driver/Inc/stm32g4xx_ll_tim.h **** 
  34:Drivers/STM32G4xx_HAL_Driver/Inc/stm32g4xx_ll_tim.h **** #if defined (TIM1) || defined (TIM2) || defined (TIM3) || defined (TIM4) || defined (TIM5) || defin
  35:Drivers/STM32G4xx_HAL_Driver/Inc/stm32g4xx_ll_tim.h **** 
ARM GAS  /tmp/ccF6ITrB.s 			page 46


  36:Drivers/STM32G4xx_HAL_Driver/Inc/stm32g4xx_ll_tim.h **** /** @defgroup TIM_LL TIM
  37:Drivers/STM32G4xx_HAL_Driver/Inc/stm32g4xx_ll_tim.h ****   * @{
  38:Drivers/STM32G4xx_HAL_Driver/Inc/stm32g4xx_ll_tim.h ****   */
  39:Drivers/STM32G4xx_HAL_Driver/Inc/stm32g4xx_ll_tim.h **** 
  40:Drivers/STM32G4xx_HAL_Driver/Inc/stm32g4xx_ll_tim.h **** /* Private types -------------------------------------------------------------*/
  41:Drivers/STM32G4xx_HAL_Driver/Inc/stm32g4xx_ll_tim.h **** /* Private variables ---------------------------------------------------------*/
  42:Drivers/STM32G4xx_HAL_Driver/Inc/stm32g4xx_ll_tim.h **** /** @defgroup TIM_LL_Private_Variables TIM Private Variables
  43:Drivers/STM32G4xx_HAL_Driver/Inc/stm32g4xx_ll_tim.h ****   * @{
  44:Drivers/STM32G4xx_HAL_Driver/Inc/stm32g4xx_ll_tim.h ****   */
  45:Drivers/STM32G4xx_HAL_Driver/Inc/stm32g4xx_ll_tim.h **** static const uint8_t OFFSET_TAB_CCMRx[] =
  46:Drivers/STM32G4xx_HAL_Driver/Inc/stm32g4xx_ll_tim.h **** {
  47:Drivers/STM32G4xx_HAL_Driver/Inc/stm32g4xx_ll_tim.h ****   0x00U,   /* 0: TIMx_CH1  */
  48:Drivers/STM32G4xx_HAL_Driver/Inc/stm32g4xx_ll_tim.h ****   0x00U,   /* 1: TIMx_CH1N */
  49:Drivers/STM32G4xx_HAL_Driver/Inc/stm32g4xx_ll_tim.h ****   0x00U,   /* 2: TIMx_CH2  */
  50:Drivers/STM32G4xx_HAL_Driver/Inc/stm32g4xx_ll_tim.h ****   0x00U,   /* 3: TIMx_CH2N */
  51:Drivers/STM32G4xx_HAL_Driver/Inc/stm32g4xx_ll_tim.h ****   0x04U,   /* 4: TIMx_CH3  */
  52:Drivers/STM32G4xx_HAL_Driver/Inc/stm32g4xx_ll_tim.h ****   0x04U,   /* 5: TIMx_CH3N */
  53:Drivers/STM32G4xx_HAL_Driver/Inc/stm32g4xx_ll_tim.h ****   0x04U,   /* 6: TIMx_CH4  */
  54:Drivers/STM32G4xx_HAL_Driver/Inc/stm32g4xx_ll_tim.h ****   0x04U,   /* 7: TIMx_CH4N */
  55:Drivers/STM32G4xx_HAL_Driver/Inc/stm32g4xx_ll_tim.h ****   0x38U,   /* 8: TIMx_CH5  */
  56:Drivers/STM32G4xx_HAL_Driver/Inc/stm32g4xx_ll_tim.h ****   0x38U    /* 9: TIMx_CH6  */
  57:Drivers/STM32G4xx_HAL_Driver/Inc/stm32g4xx_ll_tim.h **** 
  58:Drivers/STM32G4xx_HAL_Driver/Inc/stm32g4xx_ll_tim.h **** };
  59:Drivers/STM32G4xx_HAL_Driver/Inc/stm32g4xx_ll_tim.h **** 
  60:Drivers/STM32G4xx_HAL_Driver/Inc/stm32g4xx_ll_tim.h **** static const uint8_t SHIFT_TAB_OCxx[] =
  61:Drivers/STM32G4xx_HAL_Driver/Inc/stm32g4xx_ll_tim.h **** {
  62:Drivers/STM32G4xx_HAL_Driver/Inc/stm32g4xx_ll_tim.h ****   0U,            /* 0: OC1M, OC1FE, OC1PE */
  63:Drivers/STM32G4xx_HAL_Driver/Inc/stm32g4xx_ll_tim.h ****   0U,            /* 1: - NA */
  64:Drivers/STM32G4xx_HAL_Driver/Inc/stm32g4xx_ll_tim.h ****   8U,            /* 2: OC2M, OC2FE, OC2PE */
  65:Drivers/STM32G4xx_HAL_Driver/Inc/stm32g4xx_ll_tim.h ****   0U,            /* 3: - NA */
  66:Drivers/STM32G4xx_HAL_Driver/Inc/stm32g4xx_ll_tim.h ****   0U,            /* 4: OC3M, OC3FE, OC3PE */
  67:Drivers/STM32G4xx_HAL_Driver/Inc/stm32g4xx_ll_tim.h ****   0U,            /* 5: - NA */
  68:Drivers/STM32G4xx_HAL_Driver/Inc/stm32g4xx_ll_tim.h ****   8U,            /* 6: OC4M, OC4FE, OC4PE */
  69:Drivers/STM32G4xx_HAL_Driver/Inc/stm32g4xx_ll_tim.h ****   0U,            /* 7: - NA */
  70:Drivers/STM32G4xx_HAL_Driver/Inc/stm32g4xx_ll_tim.h ****   0U,            /* 8: OC5M, OC5FE, OC5PE */
  71:Drivers/STM32G4xx_HAL_Driver/Inc/stm32g4xx_ll_tim.h ****   8U             /* 9: OC6M, OC6FE, OC6PE */
  72:Drivers/STM32G4xx_HAL_Driver/Inc/stm32g4xx_ll_tim.h **** };
  73:Drivers/STM32G4xx_HAL_Driver/Inc/stm32g4xx_ll_tim.h **** 
  74:Drivers/STM32G4xx_HAL_Driver/Inc/stm32g4xx_ll_tim.h **** static const uint8_t SHIFT_TAB_ICxx[] =
  75:Drivers/STM32G4xx_HAL_Driver/Inc/stm32g4xx_ll_tim.h **** {
  76:Drivers/STM32G4xx_HAL_Driver/Inc/stm32g4xx_ll_tim.h ****   0U,            /* 0: CC1S, IC1PSC, IC1F */
  77:Drivers/STM32G4xx_HAL_Driver/Inc/stm32g4xx_ll_tim.h ****   0U,            /* 1: - NA */
  78:Drivers/STM32G4xx_HAL_Driver/Inc/stm32g4xx_ll_tim.h ****   8U,            /* 2: CC2S, IC2PSC, IC2F */
  79:Drivers/STM32G4xx_HAL_Driver/Inc/stm32g4xx_ll_tim.h ****   0U,            /* 3: - NA */
  80:Drivers/STM32G4xx_HAL_Driver/Inc/stm32g4xx_ll_tim.h ****   0U,            /* 4: CC3S, IC3PSC, IC3F */
  81:Drivers/STM32G4xx_HAL_Driver/Inc/stm32g4xx_ll_tim.h ****   0U,            /* 5: - NA */
  82:Drivers/STM32G4xx_HAL_Driver/Inc/stm32g4xx_ll_tim.h ****   8U,            /* 6: CC4S, IC4PSC, IC4F */
  83:Drivers/STM32G4xx_HAL_Driver/Inc/stm32g4xx_ll_tim.h ****   0U,            /* 7: - NA */
  84:Drivers/STM32G4xx_HAL_Driver/Inc/stm32g4xx_ll_tim.h ****   0U,            /* 8: - NA */
  85:Drivers/STM32G4xx_HAL_Driver/Inc/stm32g4xx_ll_tim.h ****   0U             /* 9: - NA */
  86:Drivers/STM32G4xx_HAL_Driver/Inc/stm32g4xx_ll_tim.h **** };
  87:Drivers/STM32G4xx_HAL_Driver/Inc/stm32g4xx_ll_tim.h **** 
  88:Drivers/STM32G4xx_HAL_Driver/Inc/stm32g4xx_ll_tim.h **** static const uint8_t SHIFT_TAB_CCxP[] =
  89:Drivers/STM32G4xx_HAL_Driver/Inc/stm32g4xx_ll_tim.h **** {
  90:Drivers/STM32G4xx_HAL_Driver/Inc/stm32g4xx_ll_tim.h ****   0U,            /* 0: CC1P */
  91:Drivers/STM32G4xx_HAL_Driver/Inc/stm32g4xx_ll_tim.h ****   2U,            /* 1: CC1NP */
  92:Drivers/STM32G4xx_HAL_Driver/Inc/stm32g4xx_ll_tim.h ****   4U,            /* 2: CC2P */
ARM GAS  /tmp/ccF6ITrB.s 			page 47


  93:Drivers/STM32G4xx_HAL_Driver/Inc/stm32g4xx_ll_tim.h ****   6U,            /* 3: CC2NP */
  94:Drivers/STM32G4xx_HAL_Driver/Inc/stm32g4xx_ll_tim.h ****   8U,            /* 4: CC3P */
  95:Drivers/STM32G4xx_HAL_Driver/Inc/stm32g4xx_ll_tim.h ****   10U,           /* 5: CC3NP */
  96:Drivers/STM32G4xx_HAL_Driver/Inc/stm32g4xx_ll_tim.h ****   12U,           /* 6: CC4P */
  97:Drivers/STM32G4xx_HAL_Driver/Inc/stm32g4xx_ll_tim.h ****   14U,           /* 7: CC4NP */
  98:Drivers/STM32G4xx_HAL_Driver/Inc/stm32g4xx_ll_tim.h ****   16U,           /* 8: CC5P */
  99:Drivers/STM32G4xx_HAL_Driver/Inc/stm32g4xx_ll_tim.h ****   20U            /* 9: CC6P */
 100:Drivers/STM32G4xx_HAL_Driver/Inc/stm32g4xx_ll_tim.h **** };
 101:Drivers/STM32G4xx_HAL_Driver/Inc/stm32g4xx_ll_tim.h **** 
 102:Drivers/STM32G4xx_HAL_Driver/Inc/stm32g4xx_ll_tim.h **** static const uint8_t SHIFT_TAB_OISx[] =
 103:Drivers/STM32G4xx_HAL_Driver/Inc/stm32g4xx_ll_tim.h **** {
 104:Drivers/STM32G4xx_HAL_Driver/Inc/stm32g4xx_ll_tim.h ****   0U,            /* 0: OIS1 */
 105:Drivers/STM32G4xx_HAL_Driver/Inc/stm32g4xx_ll_tim.h ****   1U,            /* 1: OIS1N */
 106:Drivers/STM32G4xx_HAL_Driver/Inc/stm32g4xx_ll_tim.h ****   2U,            /* 2: OIS2 */
 107:Drivers/STM32G4xx_HAL_Driver/Inc/stm32g4xx_ll_tim.h ****   3U,            /* 3: OIS2N */
 108:Drivers/STM32G4xx_HAL_Driver/Inc/stm32g4xx_ll_tim.h ****   4U,            /* 4: OIS3 */
 109:Drivers/STM32G4xx_HAL_Driver/Inc/stm32g4xx_ll_tim.h ****   5U,            /* 5: OIS3N */
 110:Drivers/STM32G4xx_HAL_Driver/Inc/stm32g4xx_ll_tim.h ****   6U,            /* 6: OIS4 */
 111:Drivers/STM32G4xx_HAL_Driver/Inc/stm32g4xx_ll_tim.h ****   7U,            /* 7: OIS4N */
 112:Drivers/STM32G4xx_HAL_Driver/Inc/stm32g4xx_ll_tim.h ****   8U,            /* 8: OIS5 */
 113:Drivers/STM32G4xx_HAL_Driver/Inc/stm32g4xx_ll_tim.h ****   10U            /* 9: OIS6 */
 114:Drivers/STM32G4xx_HAL_Driver/Inc/stm32g4xx_ll_tim.h **** };
 115:Drivers/STM32G4xx_HAL_Driver/Inc/stm32g4xx_ll_tim.h **** /**
 116:Drivers/STM32G4xx_HAL_Driver/Inc/stm32g4xx_ll_tim.h ****   * @}
 117:Drivers/STM32G4xx_HAL_Driver/Inc/stm32g4xx_ll_tim.h ****   */
 118:Drivers/STM32G4xx_HAL_Driver/Inc/stm32g4xx_ll_tim.h **** 
 119:Drivers/STM32G4xx_HAL_Driver/Inc/stm32g4xx_ll_tim.h **** /* Private constants ---------------------------------------------------------*/
 120:Drivers/STM32G4xx_HAL_Driver/Inc/stm32g4xx_ll_tim.h **** /** @defgroup TIM_LL_Private_Constants TIM Private Constants
 121:Drivers/STM32G4xx_HAL_Driver/Inc/stm32g4xx_ll_tim.h ****   * @{
 122:Drivers/STM32G4xx_HAL_Driver/Inc/stm32g4xx_ll_tim.h ****   */
 123:Drivers/STM32G4xx_HAL_Driver/Inc/stm32g4xx_ll_tim.h **** 
 124:Drivers/STM32G4xx_HAL_Driver/Inc/stm32g4xx_ll_tim.h **** /* Defines used for the bit position in the register and perform offsets */
 125:Drivers/STM32G4xx_HAL_Driver/Inc/stm32g4xx_ll_tim.h **** #define TIM_POSITION_BRK_SOURCE            (POSITION_VAL(Source) & 0x1FUL)
 126:Drivers/STM32G4xx_HAL_Driver/Inc/stm32g4xx_ll_tim.h **** 
 127:Drivers/STM32G4xx_HAL_Driver/Inc/stm32g4xx_ll_tim.h **** /* Generic bit definitions for TIMx_AF1 register */
 128:Drivers/STM32G4xx_HAL_Driver/Inc/stm32g4xx_ll_tim.h **** #define TIMx_AF1_BKINP     TIM1_AF1_BKINP     /*!< BRK BKIN input polarity */
 129:Drivers/STM32G4xx_HAL_Driver/Inc/stm32g4xx_ll_tim.h **** #define TIMx_AF1_ETRSEL    TIM1_AF1_ETRSEL    /*!< TIMx ETR source selection */
 130:Drivers/STM32G4xx_HAL_Driver/Inc/stm32g4xx_ll_tim.h **** 
 131:Drivers/STM32G4xx_HAL_Driver/Inc/stm32g4xx_ll_tim.h **** 
 132:Drivers/STM32G4xx_HAL_Driver/Inc/stm32g4xx_ll_tim.h **** /* Mask used to set the TDG[x:0] of the DTG bits of the TIMx_BDTR register */
 133:Drivers/STM32G4xx_HAL_Driver/Inc/stm32g4xx_ll_tim.h **** #define DT_DELAY_1 ((uint8_t)0x7F)
 134:Drivers/STM32G4xx_HAL_Driver/Inc/stm32g4xx_ll_tim.h **** #define DT_DELAY_2 ((uint8_t)0x3F)
 135:Drivers/STM32G4xx_HAL_Driver/Inc/stm32g4xx_ll_tim.h **** #define DT_DELAY_3 ((uint8_t)0x1F)
 136:Drivers/STM32G4xx_HAL_Driver/Inc/stm32g4xx_ll_tim.h **** #define DT_DELAY_4 ((uint8_t)0x1F)
 137:Drivers/STM32G4xx_HAL_Driver/Inc/stm32g4xx_ll_tim.h **** 
 138:Drivers/STM32G4xx_HAL_Driver/Inc/stm32g4xx_ll_tim.h **** /* Mask used to set the DTG[7:5] bits of the DTG bits of the TIMx_BDTR register */
 139:Drivers/STM32G4xx_HAL_Driver/Inc/stm32g4xx_ll_tim.h **** #define DT_RANGE_1 ((uint8_t)0x00)
 140:Drivers/STM32G4xx_HAL_Driver/Inc/stm32g4xx_ll_tim.h **** #define DT_RANGE_2 ((uint8_t)0x80)
 141:Drivers/STM32G4xx_HAL_Driver/Inc/stm32g4xx_ll_tim.h **** #define DT_RANGE_3 ((uint8_t)0xC0)
 142:Drivers/STM32G4xx_HAL_Driver/Inc/stm32g4xx_ll_tim.h **** #define DT_RANGE_4 ((uint8_t)0xE0)
 143:Drivers/STM32G4xx_HAL_Driver/Inc/stm32g4xx_ll_tim.h **** 
 144:Drivers/STM32G4xx_HAL_Driver/Inc/stm32g4xx_ll_tim.h **** /** Legacy definitions for compatibility purpose
 145:Drivers/STM32G4xx_HAL_Driver/Inc/stm32g4xx_ll_tim.h **** @cond 0
 146:Drivers/STM32G4xx_HAL_Driver/Inc/stm32g4xx_ll_tim.h ****   */
 147:Drivers/STM32G4xx_HAL_Driver/Inc/stm32g4xx_ll_tim.h **** /**
 148:Drivers/STM32G4xx_HAL_Driver/Inc/stm32g4xx_ll_tim.h **** @endcond
 149:Drivers/STM32G4xx_HAL_Driver/Inc/stm32g4xx_ll_tim.h ****   */
ARM GAS  /tmp/ccF6ITrB.s 			page 48


 150:Drivers/STM32G4xx_HAL_Driver/Inc/stm32g4xx_ll_tim.h **** 
 151:Drivers/STM32G4xx_HAL_Driver/Inc/stm32g4xx_ll_tim.h **** #define OCREF_CLEAR_SELECT_Pos (28U)
 152:Drivers/STM32G4xx_HAL_Driver/Inc/stm32g4xx_ll_tim.h **** #define OCREF_CLEAR_SELECT_Msk (0x1U << OCREF_CLEAR_SELECT_Pos)                /*!< 0x10000000 */
 153:Drivers/STM32G4xx_HAL_Driver/Inc/stm32g4xx_ll_tim.h **** /**
 154:Drivers/STM32G4xx_HAL_Driver/Inc/stm32g4xx_ll_tim.h ****   * @}
 155:Drivers/STM32G4xx_HAL_Driver/Inc/stm32g4xx_ll_tim.h ****   */
 156:Drivers/STM32G4xx_HAL_Driver/Inc/stm32g4xx_ll_tim.h **** 
 157:Drivers/STM32G4xx_HAL_Driver/Inc/stm32g4xx_ll_tim.h **** /* Private macros ------------------------------------------------------------*/
 158:Drivers/STM32G4xx_HAL_Driver/Inc/stm32g4xx_ll_tim.h **** /** @defgroup TIM_LL_Private_Macros TIM Private Macros
 159:Drivers/STM32G4xx_HAL_Driver/Inc/stm32g4xx_ll_tim.h ****   * @{
 160:Drivers/STM32G4xx_HAL_Driver/Inc/stm32g4xx_ll_tim.h ****   */
 161:Drivers/STM32G4xx_HAL_Driver/Inc/stm32g4xx_ll_tim.h **** /** @brief  Convert channel id into channel index.
 162:Drivers/STM32G4xx_HAL_Driver/Inc/stm32g4xx_ll_tim.h ****   * @param  __CHANNEL__ This parameter can be one of the following values:
 163:Drivers/STM32G4xx_HAL_Driver/Inc/stm32g4xx_ll_tim.h ****   *         @arg @ref LL_TIM_CHANNEL_CH1
 164:Drivers/STM32G4xx_HAL_Driver/Inc/stm32g4xx_ll_tim.h ****   *         @arg @ref LL_TIM_CHANNEL_CH1N
 165:Drivers/STM32G4xx_HAL_Driver/Inc/stm32g4xx_ll_tim.h ****   *         @arg @ref LL_TIM_CHANNEL_CH2
 166:Drivers/STM32G4xx_HAL_Driver/Inc/stm32g4xx_ll_tim.h ****   *         @arg @ref LL_TIM_CHANNEL_CH2N
 167:Drivers/STM32G4xx_HAL_Driver/Inc/stm32g4xx_ll_tim.h ****   *         @arg @ref LL_TIM_CHANNEL_CH3
 168:Drivers/STM32G4xx_HAL_Driver/Inc/stm32g4xx_ll_tim.h ****   *         @arg @ref LL_TIM_CHANNEL_CH3N
 169:Drivers/STM32G4xx_HAL_Driver/Inc/stm32g4xx_ll_tim.h ****   *         @arg @ref LL_TIM_CHANNEL_CH4
 170:Drivers/STM32G4xx_HAL_Driver/Inc/stm32g4xx_ll_tim.h ****   *         @arg @ref LL_TIM_CHANNEL_CH4N
 171:Drivers/STM32G4xx_HAL_Driver/Inc/stm32g4xx_ll_tim.h ****   *         @arg @ref LL_TIM_CHANNEL_CH5
 172:Drivers/STM32G4xx_HAL_Driver/Inc/stm32g4xx_ll_tim.h ****   *         @arg @ref LL_TIM_CHANNEL_CH6
 173:Drivers/STM32G4xx_HAL_Driver/Inc/stm32g4xx_ll_tim.h ****   * @retval none
 174:Drivers/STM32G4xx_HAL_Driver/Inc/stm32g4xx_ll_tim.h ****   */
 175:Drivers/STM32G4xx_HAL_Driver/Inc/stm32g4xx_ll_tim.h **** #define TIM_GET_CHANNEL_INDEX( __CHANNEL__) \
 176:Drivers/STM32G4xx_HAL_Driver/Inc/stm32g4xx_ll_tim.h ****   (((__CHANNEL__) == LL_TIM_CHANNEL_CH1) ? 0U :\
 177:Drivers/STM32G4xx_HAL_Driver/Inc/stm32g4xx_ll_tim.h ****    ((__CHANNEL__) == LL_TIM_CHANNEL_CH1N) ? 1U :\
 178:Drivers/STM32G4xx_HAL_Driver/Inc/stm32g4xx_ll_tim.h ****    ((__CHANNEL__) == LL_TIM_CHANNEL_CH2) ? 2U :\
 179:Drivers/STM32G4xx_HAL_Driver/Inc/stm32g4xx_ll_tim.h ****    ((__CHANNEL__) == LL_TIM_CHANNEL_CH2N) ? 3U :\
 180:Drivers/STM32G4xx_HAL_Driver/Inc/stm32g4xx_ll_tim.h ****    ((__CHANNEL__) == LL_TIM_CHANNEL_CH3) ? 4U :\
 181:Drivers/STM32G4xx_HAL_Driver/Inc/stm32g4xx_ll_tim.h ****    ((__CHANNEL__) == LL_TIM_CHANNEL_CH3N) ? 5U :\
 182:Drivers/STM32G4xx_HAL_Driver/Inc/stm32g4xx_ll_tim.h ****    ((__CHANNEL__) == LL_TIM_CHANNEL_CH4) ? 6U :\
 183:Drivers/STM32G4xx_HAL_Driver/Inc/stm32g4xx_ll_tim.h ****    ((__CHANNEL__) == LL_TIM_CHANNEL_CH4N) ? 7U :\
 184:Drivers/STM32G4xx_HAL_Driver/Inc/stm32g4xx_ll_tim.h ****    ((__CHANNEL__) == LL_TIM_CHANNEL_CH5) ? 8U : 9U)
 185:Drivers/STM32G4xx_HAL_Driver/Inc/stm32g4xx_ll_tim.h **** 
 186:Drivers/STM32G4xx_HAL_Driver/Inc/stm32g4xx_ll_tim.h **** /** @brief  Calculate the deadtime sampling period(in ps).
 187:Drivers/STM32G4xx_HAL_Driver/Inc/stm32g4xx_ll_tim.h ****   * @param  __TIMCLK__ timer input clock frequency (in Hz).
 188:Drivers/STM32G4xx_HAL_Driver/Inc/stm32g4xx_ll_tim.h ****   * @param  __CKD__ This parameter can be one of the following values:
 189:Drivers/STM32G4xx_HAL_Driver/Inc/stm32g4xx_ll_tim.h ****   *         @arg @ref LL_TIM_CLOCKDIVISION_DIV1
 190:Drivers/STM32G4xx_HAL_Driver/Inc/stm32g4xx_ll_tim.h ****   *         @arg @ref LL_TIM_CLOCKDIVISION_DIV2
 191:Drivers/STM32G4xx_HAL_Driver/Inc/stm32g4xx_ll_tim.h ****   *         @arg @ref LL_TIM_CLOCKDIVISION_DIV4
 192:Drivers/STM32G4xx_HAL_Driver/Inc/stm32g4xx_ll_tim.h ****   * @retval none
 193:Drivers/STM32G4xx_HAL_Driver/Inc/stm32g4xx_ll_tim.h ****   */
 194:Drivers/STM32G4xx_HAL_Driver/Inc/stm32g4xx_ll_tim.h **** #define TIM_CALC_DTS(__TIMCLK__, __CKD__)                                                        \
 195:Drivers/STM32G4xx_HAL_Driver/Inc/stm32g4xx_ll_tim.h ****   (((__CKD__) == LL_TIM_CLOCKDIVISION_DIV1) ? ((uint64_t)1000000000000U/(__TIMCLK__))         : \
 196:Drivers/STM32G4xx_HAL_Driver/Inc/stm32g4xx_ll_tim.h ****    ((__CKD__) == LL_TIM_CLOCKDIVISION_DIV2) ? ((uint64_t)1000000000000U/((__TIMCLK__) >> 1U)) : \
 197:Drivers/STM32G4xx_HAL_Driver/Inc/stm32g4xx_ll_tim.h ****    ((uint64_t)1000000000000U/((__TIMCLK__) >> 2U)))
 198:Drivers/STM32G4xx_HAL_Driver/Inc/stm32g4xx_ll_tim.h **** /**
 199:Drivers/STM32G4xx_HAL_Driver/Inc/stm32g4xx_ll_tim.h ****   * @}
 200:Drivers/STM32G4xx_HAL_Driver/Inc/stm32g4xx_ll_tim.h ****   */
 201:Drivers/STM32G4xx_HAL_Driver/Inc/stm32g4xx_ll_tim.h **** 
 202:Drivers/STM32G4xx_HAL_Driver/Inc/stm32g4xx_ll_tim.h **** 
 203:Drivers/STM32G4xx_HAL_Driver/Inc/stm32g4xx_ll_tim.h **** /* Exported types ------------------------------------------------------------*/
 204:Drivers/STM32G4xx_HAL_Driver/Inc/stm32g4xx_ll_tim.h **** #if defined(USE_FULL_LL_DRIVER)
 205:Drivers/STM32G4xx_HAL_Driver/Inc/stm32g4xx_ll_tim.h **** /** @defgroup TIM_LL_ES_INIT TIM Exported Init structure
 206:Drivers/STM32G4xx_HAL_Driver/Inc/stm32g4xx_ll_tim.h ****   * @{
ARM GAS  /tmp/ccF6ITrB.s 			page 49


 207:Drivers/STM32G4xx_HAL_Driver/Inc/stm32g4xx_ll_tim.h ****   */
 208:Drivers/STM32G4xx_HAL_Driver/Inc/stm32g4xx_ll_tim.h **** 
 209:Drivers/STM32G4xx_HAL_Driver/Inc/stm32g4xx_ll_tim.h **** /**
 210:Drivers/STM32G4xx_HAL_Driver/Inc/stm32g4xx_ll_tim.h ****   * @brief  TIM Time Base configuration structure definition.
 211:Drivers/STM32G4xx_HAL_Driver/Inc/stm32g4xx_ll_tim.h ****   */
 212:Drivers/STM32G4xx_HAL_Driver/Inc/stm32g4xx_ll_tim.h **** typedef struct
 213:Drivers/STM32G4xx_HAL_Driver/Inc/stm32g4xx_ll_tim.h **** {
 214:Drivers/STM32G4xx_HAL_Driver/Inc/stm32g4xx_ll_tim.h ****   uint16_t Prescaler;         /*!< Specifies the prescaler value used to divide the TIM clock.
 215:Drivers/STM32G4xx_HAL_Driver/Inc/stm32g4xx_ll_tim.h ****                                    This parameter can be a number between Min_Data=0x0000 and Max_D
 216:Drivers/STM32G4xx_HAL_Driver/Inc/stm32g4xx_ll_tim.h **** 
 217:Drivers/STM32G4xx_HAL_Driver/Inc/stm32g4xx_ll_tim.h ****                                    This feature can be modified afterwards using unitary function
 218:Drivers/STM32G4xx_HAL_Driver/Inc/stm32g4xx_ll_tim.h ****                                    @ref LL_TIM_SetPrescaler().*/
 219:Drivers/STM32G4xx_HAL_Driver/Inc/stm32g4xx_ll_tim.h **** 
 220:Drivers/STM32G4xx_HAL_Driver/Inc/stm32g4xx_ll_tim.h ****   uint32_t CounterMode;       /*!< Specifies the counter mode.
 221:Drivers/STM32G4xx_HAL_Driver/Inc/stm32g4xx_ll_tim.h ****                                    This parameter can be a value of @ref TIM_LL_EC_COUNTERMODE.
 222:Drivers/STM32G4xx_HAL_Driver/Inc/stm32g4xx_ll_tim.h **** 
 223:Drivers/STM32G4xx_HAL_Driver/Inc/stm32g4xx_ll_tim.h ****                                    This feature can be modified afterwards using unitary function
 224:Drivers/STM32G4xx_HAL_Driver/Inc/stm32g4xx_ll_tim.h ****                                    @ref LL_TIM_SetCounterMode().*/
 225:Drivers/STM32G4xx_HAL_Driver/Inc/stm32g4xx_ll_tim.h **** 
 226:Drivers/STM32G4xx_HAL_Driver/Inc/stm32g4xx_ll_tim.h ****   uint32_t Autoreload;        /*!< Specifies the auto reload value to be loaded into the active
 227:Drivers/STM32G4xx_HAL_Driver/Inc/stm32g4xx_ll_tim.h ****                                    Auto-Reload Register at the next update event.
 228:Drivers/STM32G4xx_HAL_Driver/Inc/stm32g4xx_ll_tim.h ****                                    This parameter must be a number between Min_Data=0x0000 and Max_
 229:Drivers/STM32G4xx_HAL_Driver/Inc/stm32g4xx_ll_tim.h ****                                    Some timer instances may support 32 bits counters. In that case 
 230:Drivers/STM32G4xx_HAL_Driver/Inc/stm32g4xx_ll_tim.h ****                                    be a number between 0x0000 and 0xFFFFFFFF.
 231:Drivers/STM32G4xx_HAL_Driver/Inc/stm32g4xx_ll_tim.h **** 
 232:Drivers/STM32G4xx_HAL_Driver/Inc/stm32g4xx_ll_tim.h ****                                    This feature can be modified afterwards using unitary function
 233:Drivers/STM32G4xx_HAL_Driver/Inc/stm32g4xx_ll_tim.h ****                                    @ref LL_TIM_SetAutoReload().*/
 234:Drivers/STM32G4xx_HAL_Driver/Inc/stm32g4xx_ll_tim.h **** 
 235:Drivers/STM32G4xx_HAL_Driver/Inc/stm32g4xx_ll_tim.h ****   uint32_t ClockDivision;     /*!< Specifies the clock division.
 236:Drivers/STM32G4xx_HAL_Driver/Inc/stm32g4xx_ll_tim.h ****                                    This parameter can be a value of @ref TIM_LL_EC_CLOCKDIVISION.
 237:Drivers/STM32G4xx_HAL_Driver/Inc/stm32g4xx_ll_tim.h **** 
 238:Drivers/STM32G4xx_HAL_Driver/Inc/stm32g4xx_ll_tim.h ****                                    This feature can be modified afterwards using unitary function
 239:Drivers/STM32G4xx_HAL_Driver/Inc/stm32g4xx_ll_tim.h ****                                    @ref LL_TIM_SetClockDivision().*/
 240:Drivers/STM32G4xx_HAL_Driver/Inc/stm32g4xx_ll_tim.h **** 
 241:Drivers/STM32G4xx_HAL_Driver/Inc/stm32g4xx_ll_tim.h ****   uint32_t RepetitionCounter;  /*!< Specifies the repetition counter value. Each time the RCR downc
 242:Drivers/STM32G4xx_HAL_Driver/Inc/stm32g4xx_ll_tim.h ****                                    reaches zero, an update event is generated and counting restarts
 243:Drivers/STM32G4xx_HAL_Driver/Inc/stm32g4xx_ll_tim.h ****                                    from the RCR value (N).
 244:Drivers/STM32G4xx_HAL_Driver/Inc/stm32g4xx_ll_tim.h ****                                    This means in PWM mode that (N+1) corresponds to:
 245:Drivers/STM32G4xx_HAL_Driver/Inc/stm32g4xx_ll_tim.h ****                                       - the number of PWM periods in edge-aligned mode
 246:Drivers/STM32G4xx_HAL_Driver/Inc/stm32g4xx_ll_tim.h ****                                       - the number of half PWM period in center-aligned mode
 247:Drivers/STM32G4xx_HAL_Driver/Inc/stm32g4xx_ll_tim.h ****                                    GP timers: this parameter must be a number between Min_Data = 0x
 248:Drivers/STM32G4xx_HAL_Driver/Inc/stm32g4xx_ll_tim.h ****                                    Max_Data = 0xFF.
 249:Drivers/STM32G4xx_HAL_Driver/Inc/stm32g4xx_ll_tim.h ****                                    Advanced timers: this parameter must be a number between Min_Dat
 250:Drivers/STM32G4xx_HAL_Driver/Inc/stm32g4xx_ll_tim.h ****                                    Max_Data = 0xFFFF.
 251:Drivers/STM32G4xx_HAL_Driver/Inc/stm32g4xx_ll_tim.h **** 
 252:Drivers/STM32G4xx_HAL_Driver/Inc/stm32g4xx_ll_tim.h ****                                    This feature can be modified afterwards using unitary function
 253:Drivers/STM32G4xx_HAL_Driver/Inc/stm32g4xx_ll_tim.h ****                                    @ref LL_TIM_SetRepetitionCounter().*/
 254:Drivers/STM32G4xx_HAL_Driver/Inc/stm32g4xx_ll_tim.h **** } LL_TIM_InitTypeDef;
 255:Drivers/STM32G4xx_HAL_Driver/Inc/stm32g4xx_ll_tim.h **** 
 256:Drivers/STM32G4xx_HAL_Driver/Inc/stm32g4xx_ll_tim.h **** /**
 257:Drivers/STM32G4xx_HAL_Driver/Inc/stm32g4xx_ll_tim.h ****   * @brief  TIM Output Compare configuration structure definition.
 258:Drivers/STM32G4xx_HAL_Driver/Inc/stm32g4xx_ll_tim.h ****   */
 259:Drivers/STM32G4xx_HAL_Driver/Inc/stm32g4xx_ll_tim.h **** typedef struct
 260:Drivers/STM32G4xx_HAL_Driver/Inc/stm32g4xx_ll_tim.h **** {
 261:Drivers/STM32G4xx_HAL_Driver/Inc/stm32g4xx_ll_tim.h ****   uint32_t OCMode;        /*!< Specifies the output mode.
 262:Drivers/STM32G4xx_HAL_Driver/Inc/stm32g4xx_ll_tim.h ****                                This parameter can be a value of @ref TIM_LL_EC_OCMODE.
 263:Drivers/STM32G4xx_HAL_Driver/Inc/stm32g4xx_ll_tim.h **** 
ARM GAS  /tmp/ccF6ITrB.s 			page 50


 264:Drivers/STM32G4xx_HAL_Driver/Inc/stm32g4xx_ll_tim.h ****                                This feature can be modified afterwards using unitary function
 265:Drivers/STM32G4xx_HAL_Driver/Inc/stm32g4xx_ll_tim.h ****                                @ref LL_TIM_OC_SetMode().*/
 266:Drivers/STM32G4xx_HAL_Driver/Inc/stm32g4xx_ll_tim.h **** 
 267:Drivers/STM32G4xx_HAL_Driver/Inc/stm32g4xx_ll_tim.h ****   uint32_t OCState;       /*!< Specifies the TIM Output Compare state.
 268:Drivers/STM32G4xx_HAL_Driver/Inc/stm32g4xx_ll_tim.h ****                                This parameter can be a value of @ref TIM_LL_EC_OCSTATE.
 269:Drivers/STM32G4xx_HAL_Driver/Inc/stm32g4xx_ll_tim.h **** 
 270:Drivers/STM32G4xx_HAL_Driver/Inc/stm32g4xx_ll_tim.h ****                                This feature can be modified afterwards using unitary functions
 271:Drivers/STM32G4xx_HAL_Driver/Inc/stm32g4xx_ll_tim.h ****                                @ref LL_TIM_CC_EnableChannel() or @ref LL_TIM_CC_DisableChannel().*/
 272:Drivers/STM32G4xx_HAL_Driver/Inc/stm32g4xx_ll_tim.h **** 
 273:Drivers/STM32G4xx_HAL_Driver/Inc/stm32g4xx_ll_tim.h ****   uint32_t OCNState;      /*!< Specifies the TIM complementary Output Compare state.
 274:Drivers/STM32G4xx_HAL_Driver/Inc/stm32g4xx_ll_tim.h ****                                This parameter can be a value of @ref TIM_LL_EC_OCSTATE.
 275:Drivers/STM32G4xx_HAL_Driver/Inc/stm32g4xx_ll_tim.h **** 
 276:Drivers/STM32G4xx_HAL_Driver/Inc/stm32g4xx_ll_tim.h ****                                This feature can be modified afterwards using unitary functions
 277:Drivers/STM32G4xx_HAL_Driver/Inc/stm32g4xx_ll_tim.h ****                                @ref LL_TIM_CC_EnableChannel() or @ref LL_TIM_CC_DisableChannel().*/
 278:Drivers/STM32G4xx_HAL_Driver/Inc/stm32g4xx_ll_tim.h **** 
 279:Drivers/STM32G4xx_HAL_Driver/Inc/stm32g4xx_ll_tim.h ****   uint32_t CompareValue;  /*!< Specifies the Compare value to be loaded into the Capture Compare Re
 280:Drivers/STM32G4xx_HAL_Driver/Inc/stm32g4xx_ll_tim.h ****                                This parameter can be a number between Min_Data=0x0000 and Max_Data=
 281:Drivers/STM32G4xx_HAL_Driver/Inc/stm32g4xx_ll_tim.h **** 
 282:Drivers/STM32G4xx_HAL_Driver/Inc/stm32g4xx_ll_tim.h ****                                This feature can be modified afterwards using unitary function
 283:Drivers/STM32G4xx_HAL_Driver/Inc/stm32g4xx_ll_tim.h ****                                LL_TIM_OC_SetCompareCHx (x=1..6).*/
 284:Drivers/STM32G4xx_HAL_Driver/Inc/stm32g4xx_ll_tim.h **** 
 285:Drivers/STM32G4xx_HAL_Driver/Inc/stm32g4xx_ll_tim.h ****   uint32_t OCPolarity;    /*!< Specifies the output polarity.
 286:Drivers/STM32G4xx_HAL_Driver/Inc/stm32g4xx_ll_tim.h ****                                This parameter can be a value of @ref TIM_LL_EC_OCPOLARITY.
 287:Drivers/STM32G4xx_HAL_Driver/Inc/stm32g4xx_ll_tim.h **** 
 288:Drivers/STM32G4xx_HAL_Driver/Inc/stm32g4xx_ll_tim.h ****                                This feature can be modified afterwards using unitary function
 289:Drivers/STM32G4xx_HAL_Driver/Inc/stm32g4xx_ll_tim.h ****                                @ref LL_TIM_OC_SetPolarity().*/
 290:Drivers/STM32G4xx_HAL_Driver/Inc/stm32g4xx_ll_tim.h **** 
 291:Drivers/STM32G4xx_HAL_Driver/Inc/stm32g4xx_ll_tim.h ****   uint32_t OCNPolarity;   /*!< Specifies the complementary output polarity.
 292:Drivers/STM32G4xx_HAL_Driver/Inc/stm32g4xx_ll_tim.h ****                                This parameter can be a value of @ref TIM_LL_EC_OCPOLARITY.
 293:Drivers/STM32G4xx_HAL_Driver/Inc/stm32g4xx_ll_tim.h **** 
 294:Drivers/STM32G4xx_HAL_Driver/Inc/stm32g4xx_ll_tim.h ****                                This feature can be modified afterwards using unitary function
 295:Drivers/STM32G4xx_HAL_Driver/Inc/stm32g4xx_ll_tim.h ****                                @ref LL_TIM_OC_SetPolarity().*/
 296:Drivers/STM32G4xx_HAL_Driver/Inc/stm32g4xx_ll_tim.h **** 
 297:Drivers/STM32G4xx_HAL_Driver/Inc/stm32g4xx_ll_tim.h **** 
 298:Drivers/STM32G4xx_HAL_Driver/Inc/stm32g4xx_ll_tim.h ****   uint32_t OCIdleState;   /*!< Specifies the TIM Output Compare pin state during Idle state.
 299:Drivers/STM32G4xx_HAL_Driver/Inc/stm32g4xx_ll_tim.h ****                                This parameter can be a value of @ref TIM_LL_EC_OCIDLESTATE.
 300:Drivers/STM32G4xx_HAL_Driver/Inc/stm32g4xx_ll_tim.h **** 
 301:Drivers/STM32G4xx_HAL_Driver/Inc/stm32g4xx_ll_tim.h ****                                This feature can be modified afterwards using unitary function
 302:Drivers/STM32G4xx_HAL_Driver/Inc/stm32g4xx_ll_tim.h ****                                @ref LL_TIM_OC_SetIdleState().*/
 303:Drivers/STM32G4xx_HAL_Driver/Inc/stm32g4xx_ll_tim.h **** 
 304:Drivers/STM32G4xx_HAL_Driver/Inc/stm32g4xx_ll_tim.h ****   uint32_t OCNIdleState;  /*!< Specifies the TIM Output Compare pin state during Idle state.
 305:Drivers/STM32G4xx_HAL_Driver/Inc/stm32g4xx_ll_tim.h ****                                This parameter can be a value of @ref TIM_LL_EC_OCIDLESTATE.
 306:Drivers/STM32G4xx_HAL_Driver/Inc/stm32g4xx_ll_tim.h **** 
 307:Drivers/STM32G4xx_HAL_Driver/Inc/stm32g4xx_ll_tim.h ****                                This feature can be modified afterwards using unitary function
 308:Drivers/STM32G4xx_HAL_Driver/Inc/stm32g4xx_ll_tim.h ****                                @ref LL_TIM_OC_SetIdleState().*/
 309:Drivers/STM32G4xx_HAL_Driver/Inc/stm32g4xx_ll_tim.h **** } LL_TIM_OC_InitTypeDef;
 310:Drivers/STM32G4xx_HAL_Driver/Inc/stm32g4xx_ll_tim.h **** 
 311:Drivers/STM32G4xx_HAL_Driver/Inc/stm32g4xx_ll_tim.h **** /**
 312:Drivers/STM32G4xx_HAL_Driver/Inc/stm32g4xx_ll_tim.h ****   * @brief  TIM Input Capture configuration structure definition.
 313:Drivers/STM32G4xx_HAL_Driver/Inc/stm32g4xx_ll_tim.h ****   */
 314:Drivers/STM32G4xx_HAL_Driver/Inc/stm32g4xx_ll_tim.h **** 
 315:Drivers/STM32G4xx_HAL_Driver/Inc/stm32g4xx_ll_tim.h **** typedef struct
 316:Drivers/STM32G4xx_HAL_Driver/Inc/stm32g4xx_ll_tim.h **** {
 317:Drivers/STM32G4xx_HAL_Driver/Inc/stm32g4xx_ll_tim.h **** 
 318:Drivers/STM32G4xx_HAL_Driver/Inc/stm32g4xx_ll_tim.h ****   uint32_t ICPolarity;    /*!< Specifies the active edge of the input signal.
 319:Drivers/STM32G4xx_HAL_Driver/Inc/stm32g4xx_ll_tim.h ****                                This parameter can be a value of @ref TIM_LL_EC_IC_POLARITY.
 320:Drivers/STM32G4xx_HAL_Driver/Inc/stm32g4xx_ll_tim.h **** 
ARM GAS  /tmp/ccF6ITrB.s 			page 51


 321:Drivers/STM32G4xx_HAL_Driver/Inc/stm32g4xx_ll_tim.h ****                                This feature can be modified afterwards using unitary function
 322:Drivers/STM32G4xx_HAL_Driver/Inc/stm32g4xx_ll_tim.h ****                                @ref LL_TIM_IC_SetPolarity().*/
 323:Drivers/STM32G4xx_HAL_Driver/Inc/stm32g4xx_ll_tim.h **** 
 324:Drivers/STM32G4xx_HAL_Driver/Inc/stm32g4xx_ll_tim.h ****   uint32_t ICActiveInput; /*!< Specifies the input.
 325:Drivers/STM32G4xx_HAL_Driver/Inc/stm32g4xx_ll_tim.h ****                                This parameter can be a value of @ref TIM_LL_EC_ACTIVEINPUT.
 326:Drivers/STM32G4xx_HAL_Driver/Inc/stm32g4xx_ll_tim.h **** 
 327:Drivers/STM32G4xx_HAL_Driver/Inc/stm32g4xx_ll_tim.h ****                                This feature can be modified afterwards using unitary function
 328:Drivers/STM32G4xx_HAL_Driver/Inc/stm32g4xx_ll_tim.h ****                                @ref LL_TIM_IC_SetActiveInput().*/
 329:Drivers/STM32G4xx_HAL_Driver/Inc/stm32g4xx_ll_tim.h **** 
 330:Drivers/STM32G4xx_HAL_Driver/Inc/stm32g4xx_ll_tim.h ****   uint32_t ICPrescaler;   /*!< Specifies the Input Capture Prescaler.
 331:Drivers/STM32G4xx_HAL_Driver/Inc/stm32g4xx_ll_tim.h ****                                This parameter can be a value of @ref TIM_LL_EC_ICPSC.
 332:Drivers/STM32G4xx_HAL_Driver/Inc/stm32g4xx_ll_tim.h **** 
 333:Drivers/STM32G4xx_HAL_Driver/Inc/stm32g4xx_ll_tim.h ****                                This feature can be modified afterwards using unitary function
 334:Drivers/STM32G4xx_HAL_Driver/Inc/stm32g4xx_ll_tim.h ****                                @ref LL_TIM_IC_SetPrescaler().*/
 335:Drivers/STM32G4xx_HAL_Driver/Inc/stm32g4xx_ll_tim.h **** 
 336:Drivers/STM32G4xx_HAL_Driver/Inc/stm32g4xx_ll_tim.h ****   uint32_t ICFilter;      /*!< Specifies the input capture filter.
 337:Drivers/STM32G4xx_HAL_Driver/Inc/stm32g4xx_ll_tim.h ****                                This parameter can be a value of @ref TIM_LL_EC_IC_FILTER.
 338:Drivers/STM32G4xx_HAL_Driver/Inc/stm32g4xx_ll_tim.h **** 
 339:Drivers/STM32G4xx_HAL_Driver/Inc/stm32g4xx_ll_tim.h ****                                This feature can be modified afterwards using unitary function
 340:Drivers/STM32G4xx_HAL_Driver/Inc/stm32g4xx_ll_tim.h ****                                @ref LL_TIM_IC_SetFilter().*/
 341:Drivers/STM32G4xx_HAL_Driver/Inc/stm32g4xx_ll_tim.h **** } LL_TIM_IC_InitTypeDef;
 342:Drivers/STM32G4xx_HAL_Driver/Inc/stm32g4xx_ll_tim.h **** 
 343:Drivers/STM32G4xx_HAL_Driver/Inc/stm32g4xx_ll_tim.h **** 
 344:Drivers/STM32G4xx_HAL_Driver/Inc/stm32g4xx_ll_tim.h **** /**
 345:Drivers/STM32G4xx_HAL_Driver/Inc/stm32g4xx_ll_tim.h ****   * @brief  TIM Encoder interface configuration structure definition.
 346:Drivers/STM32G4xx_HAL_Driver/Inc/stm32g4xx_ll_tim.h ****   */
 347:Drivers/STM32G4xx_HAL_Driver/Inc/stm32g4xx_ll_tim.h **** typedef struct
 348:Drivers/STM32G4xx_HAL_Driver/Inc/stm32g4xx_ll_tim.h **** {
 349:Drivers/STM32G4xx_HAL_Driver/Inc/stm32g4xx_ll_tim.h ****   uint32_t EncoderMode;     /*!< Specifies the encoder resolution (x2 or x4).
 350:Drivers/STM32G4xx_HAL_Driver/Inc/stm32g4xx_ll_tim.h ****                                  This parameter can be a value of @ref TIM_LL_EC_ENCODERMODE.
 351:Drivers/STM32G4xx_HAL_Driver/Inc/stm32g4xx_ll_tim.h **** 
 352:Drivers/STM32G4xx_HAL_Driver/Inc/stm32g4xx_ll_tim.h ****                                  This feature can be modified afterwards using unitary function
 353:Drivers/STM32G4xx_HAL_Driver/Inc/stm32g4xx_ll_tim.h ****                                  @ref LL_TIM_SetEncoderMode().*/
 354:Drivers/STM32G4xx_HAL_Driver/Inc/stm32g4xx_ll_tim.h **** 
 355:Drivers/STM32G4xx_HAL_Driver/Inc/stm32g4xx_ll_tim.h ****   uint32_t IC1Polarity;     /*!< Specifies the active edge of TI1 input.
 356:Drivers/STM32G4xx_HAL_Driver/Inc/stm32g4xx_ll_tim.h ****                                  This parameter can be a value of @ref TIM_LL_EC_IC_POLARITY.
 357:Drivers/STM32G4xx_HAL_Driver/Inc/stm32g4xx_ll_tim.h **** 
 358:Drivers/STM32G4xx_HAL_Driver/Inc/stm32g4xx_ll_tim.h ****                                  This feature can be modified afterwards using unitary function
 359:Drivers/STM32G4xx_HAL_Driver/Inc/stm32g4xx_ll_tim.h ****                                  @ref LL_TIM_IC_SetPolarity().*/
 360:Drivers/STM32G4xx_HAL_Driver/Inc/stm32g4xx_ll_tim.h **** 
 361:Drivers/STM32G4xx_HAL_Driver/Inc/stm32g4xx_ll_tim.h ****   uint32_t IC1ActiveInput;  /*!< Specifies the TI1 input source
 362:Drivers/STM32G4xx_HAL_Driver/Inc/stm32g4xx_ll_tim.h ****                                  This parameter can be a value of @ref TIM_LL_EC_ACTIVEINPUT.
 363:Drivers/STM32G4xx_HAL_Driver/Inc/stm32g4xx_ll_tim.h **** 
 364:Drivers/STM32G4xx_HAL_Driver/Inc/stm32g4xx_ll_tim.h ****                                  This feature can be modified afterwards using unitary function
 365:Drivers/STM32G4xx_HAL_Driver/Inc/stm32g4xx_ll_tim.h ****                                  @ref LL_TIM_IC_SetActiveInput().*/
 366:Drivers/STM32G4xx_HAL_Driver/Inc/stm32g4xx_ll_tim.h **** 
 367:Drivers/STM32G4xx_HAL_Driver/Inc/stm32g4xx_ll_tim.h ****   uint32_t IC1Prescaler;    /*!< Specifies the TI1 input prescaler value.
 368:Drivers/STM32G4xx_HAL_Driver/Inc/stm32g4xx_ll_tim.h ****                                  This parameter can be a value of @ref TIM_LL_EC_ICPSC.
 369:Drivers/STM32G4xx_HAL_Driver/Inc/stm32g4xx_ll_tim.h **** 
 370:Drivers/STM32G4xx_HAL_Driver/Inc/stm32g4xx_ll_tim.h ****                                  This feature can be modified afterwards using unitary function
 371:Drivers/STM32G4xx_HAL_Driver/Inc/stm32g4xx_ll_tim.h ****                                  @ref LL_TIM_IC_SetPrescaler().*/
 372:Drivers/STM32G4xx_HAL_Driver/Inc/stm32g4xx_ll_tim.h **** 
 373:Drivers/STM32G4xx_HAL_Driver/Inc/stm32g4xx_ll_tim.h ****   uint32_t IC1Filter;       /*!< Specifies the TI1 input filter.
 374:Drivers/STM32G4xx_HAL_Driver/Inc/stm32g4xx_ll_tim.h ****                                  This parameter can be a value of @ref TIM_LL_EC_IC_FILTER.
 375:Drivers/STM32G4xx_HAL_Driver/Inc/stm32g4xx_ll_tim.h **** 
 376:Drivers/STM32G4xx_HAL_Driver/Inc/stm32g4xx_ll_tim.h ****                                  This feature can be modified afterwards using unitary function
 377:Drivers/STM32G4xx_HAL_Driver/Inc/stm32g4xx_ll_tim.h ****                                  @ref LL_TIM_IC_SetFilter().*/
ARM GAS  /tmp/ccF6ITrB.s 			page 52


 378:Drivers/STM32G4xx_HAL_Driver/Inc/stm32g4xx_ll_tim.h **** 
 379:Drivers/STM32G4xx_HAL_Driver/Inc/stm32g4xx_ll_tim.h ****   uint32_t IC2Polarity;      /*!< Specifies the active edge of TI2 input.
 380:Drivers/STM32G4xx_HAL_Driver/Inc/stm32g4xx_ll_tim.h ****                                  This parameter can be a value of @ref TIM_LL_EC_IC_POLARITY.
 381:Drivers/STM32G4xx_HAL_Driver/Inc/stm32g4xx_ll_tim.h **** 
 382:Drivers/STM32G4xx_HAL_Driver/Inc/stm32g4xx_ll_tim.h ****                                  This feature can be modified afterwards using unitary function
 383:Drivers/STM32G4xx_HAL_Driver/Inc/stm32g4xx_ll_tim.h ****                                  @ref LL_TIM_IC_SetPolarity().*/
 384:Drivers/STM32G4xx_HAL_Driver/Inc/stm32g4xx_ll_tim.h **** 
 385:Drivers/STM32G4xx_HAL_Driver/Inc/stm32g4xx_ll_tim.h ****   uint32_t IC2ActiveInput;  /*!< Specifies the TI2 input source
 386:Drivers/STM32G4xx_HAL_Driver/Inc/stm32g4xx_ll_tim.h ****                                  This parameter can be a value of @ref TIM_LL_EC_ACTIVEINPUT.
 387:Drivers/STM32G4xx_HAL_Driver/Inc/stm32g4xx_ll_tim.h **** 
 388:Drivers/STM32G4xx_HAL_Driver/Inc/stm32g4xx_ll_tim.h ****                                  This feature can be modified afterwards using unitary function
 389:Drivers/STM32G4xx_HAL_Driver/Inc/stm32g4xx_ll_tim.h ****                                  @ref LL_TIM_IC_SetActiveInput().*/
 390:Drivers/STM32G4xx_HAL_Driver/Inc/stm32g4xx_ll_tim.h **** 
 391:Drivers/STM32G4xx_HAL_Driver/Inc/stm32g4xx_ll_tim.h ****   uint32_t IC2Prescaler;    /*!< Specifies the TI2 input prescaler value.
 392:Drivers/STM32G4xx_HAL_Driver/Inc/stm32g4xx_ll_tim.h ****                                  This parameter can be a value of @ref TIM_LL_EC_ICPSC.
 393:Drivers/STM32G4xx_HAL_Driver/Inc/stm32g4xx_ll_tim.h **** 
 394:Drivers/STM32G4xx_HAL_Driver/Inc/stm32g4xx_ll_tim.h ****                                  This feature can be modified afterwards using unitary function
 395:Drivers/STM32G4xx_HAL_Driver/Inc/stm32g4xx_ll_tim.h ****                                  @ref LL_TIM_IC_SetPrescaler().*/
 396:Drivers/STM32G4xx_HAL_Driver/Inc/stm32g4xx_ll_tim.h **** 
 397:Drivers/STM32G4xx_HAL_Driver/Inc/stm32g4xx_ll_tim.h ****   uint32_t IC2Filter;       /*!< Specifies the TI2 input filter.
 398:Drivers/STM32G4xx_HAL_Driver/Inc/stm32g4xx_ll_tim.h ****                                  This parameter can be a value of @ref TIM_LL_EC_IC_FILTER.
 399:Drivers/STM32G4xx_HAL_Driver/Inc/stm32g4xx_ll_tim.h **** 
 400:Drivers/STM32G4xx_HAL_Driver/Inc/stm32g4xx_ll_tim.h ****                                  This feature can be modified afterwards using unitary function
 401:Drivers/STM32G4xx_HAL_Driver/Inc/stm32g4xx_ll_tim.h ****                                  @ref LL_TIM_IC_SetFilter().*/
 402:Drivers/STM32G4xx_HAL_Driver/Inc/stm32g4xx_ll_tim.h **** 
 403:Drivers/STM32G4xx_HAL_Driver/Inc/stm32g4xx_ll_tim.h **** } LL_TIM_ENCODER_InitTypeDef;
 404:Drivers/STM32G4xx_HAL_Driver/Inc/stm32g4xx_ll_tim.h **** 
 405:Drivers/STM32G4xx_HAL_Driver/Inc/stm32g4xx_ll_tim.h **** /**
 406:Drivers/STM32G4xx_HAL_Driver/Inc/stm32g4xx_ll_tim.h ****   * @brief  TIM Hall sensor interface configuration structure definition.
 407:Drivers/STM32G4xx_HAL_Driver/Inc/stm32g4xx_ll_tim.h ****   */
 408:Drivers/STM32G4xx_HAL_Driver/Inc/stm32g4xx_ll_tim.h **** typedef struct
 409:Drivers/STM32G4xx_HAL_Driver/Inc/stm32g4xx_ll_tim.h **** {
 410:Drivers/STM32G4xx_HAL_Driver/Inc/stm32g4xx_ll_tim.h **** 
 411:Drivers/STM32G4xx_HAL_Driver/Inc/stm32g4xx_ll_tim.h ****   uint32_t IC1Polarity;        /*!< Specifies the active edge of TI1 input.
 412:Drivers/STM32G4xx_HAL_Driver/Inc/stm32g4xx_ll_tim.h ****                                     This parameter can be a value of @ref TIM_LL_EC_IC_POLARITY.
 413:Drivers/STM32G4xx_HAL_Driver/Inc/stm32g4xx_ll_tim.h **** 
 414:Drivers/STM32G4xx_HAL_Driver/Inc/stm32g4xx_ll_tim.h ****                                     This feature can be modified afterwards using unitary function
 415:Drivers/STM32G4xx_HAL_Driver/Inc/stm32g4xx_ll_tim.h ****                                     @ref LL_TIM_IC_SetPolarity().*/
 416:Drivers/STM32G4xx_HAL_Driver/Inc/stm32g4xx_ll_tim.h **** 
 417:Drivers/STM32G4xx_HAL_Driver/Inc/stm32g4xx_ll_tim.h ****   uint32_t IC1Prescaler;       /*!< Specifies the TI1 input prescaler value.
 418:Drivers/STM32G4xx_HAL_Driver/Inc/stm32g4xx_ll_tim.h ****                                     Prescaler must be set to get a maximum counter period longer th
 419:Drivers/STM32G4xx_HAL_Driver/Inc/stm32g4xx_ll_tim.h ****                                     time interval between 2 consecutive changes on the Hall inputs.
 420:Drivers/STM32G4xx_HAL_Driver/Inc/stm32g4xx_ll_tim.h ****                                     This parameter can be a value of @ref TIM_LL_EC_ICPSC.
 421:Drivers/STM32G4xx_HAL_Driver/Inc/stm32g4xx_ll_tim.h **** 
 422:Drivers/STM32G4xx_HAL_Driver/Inc/stm32g4xx_ll_tim.h ****                                     This feature can be modified afterwards using unitary function
 423:Drivers/STM32G4xx_HAL_Driver/Inc/stm32g4xx_ll_tim.h ****                                     @ref LL_TIM_IC_SetPrescaler().*/
 424:Drivers/STM32G4xx_HAL_Driver/Inc/stm32g4xx_ll_tim.h **** 
 425:Drivers/STM32G4xx_HAL_Driver/Inc/stm32g4xx_ll_tim.h ****   uint32_t IC1Filter;          /*!< Specifies the TI1 input filter.
 426:Drivers/STM32G4xx_HAL_Driver/Inc/stm32g4xx_ll_tim.h ****                                     This parameter can be a value of
 427:Drivers/STM32G4xx_HAL_Driver/Inc/stm32g4xx_ll_tim.h ****                                     @ref TIM_LL_EC_IC_FILTER.
 428:Drivers/STM32G4xx_HAL_Driver/Inc/stm32g4xx_ll_tim.h **** 
 429:Drivers/STM32G4xx_HAL_Driver/Inc/stm32g4xx_ll_tim.h ****                                     This feature can be modified afterwards using unitary function
 430:Drivers/STM32G4xx_HAL_Driver/Inc/stm32g4xx_ll_tim.h ****                                     @ref LL_TIM_IC_SetFilter().*/
 431:Drivers/STM32G4xx_HAL_Driver/Inc/stm32g4xx_ll_tim.h **** 
 432:Drivers/STM32G4xx_HAL_Driver/Inc/stm32g4xx_ll_tim.h ****   uint32_t CommutationDelay;   /*!< Specifies the compare value to be loaded into the Capture Compa
 433:Drivers/STM32G4xx_HAL_Driver/Inc/stm32g4xx_ll_tim.h ****                                     A positive pulse (TRGO event) is generated with a programmable 
 434:Drivers/STM32G4xx_HAL_Driver/Inc/stm32g4xx_ll_tim.h ****                                     a change occurs on the Hall inputs.
ARM GAS  /tmp/ccF6ITrB.s 			page 53


 435:Drivers/STM32G4xx_HAL_Driver/Inc/stm32g4xx_ll_tim.h ****                                     This parameter can be a number between Min_Data = 0x0000 and Ma
 436:Drivers/STM32G4xx_HAL_Driver/Inc/stm32g4xx_ll_tim.h **** 
 437:Drivers/STM32G4xx_HAL_Driver/Inc/stm32g4xx_ll_tim.h ****                                     This feature can be modified afterwards using unitary function
 438:Drivers/STM32G4xx_HAL_Driver/Inc/stm32g4xx_ll_tim.h ****                                     @ref LL_TIM_OC_SetCompareCH2().*/
 439:Drivers/STM32G4xx_HAL_Driver/Inc/stm32g4xx_ll_tim.h **** } LL_TIM_HALLSENSOR_InitTypeDef;
 440:Drivers/STM32G4xx_HAL_Driver/Inc/stm32g4xx_ll_tim.h **** 
 441:Drivers/STM32G4xx_HAL_Driver/Inc/stm32g4xx_ll_tim.h **** /**
 442:Drivers/STM32G4xx_HAL_Driver/Inc/stm32g4xx_ll_tim.h ****   * @brief  BDTR (Break and Dead Time) structure definition
 443:Drivers/STM32G4xx_HAL_Driver/Inc/stm32g4xx_ll_tim.h ****   */
 444:Drivers/STM32G4xx_HAL_Driver/Inc/stm32g4xx_ll_tim.h **** typedef struct
 445:Drivers/STM32G4xx_HAL_Driver/Inc/stm32g4xx_ll_tim.h **** {
 446:Drivers/STM32G4xx_HAL_Driver/Inc/stm32g4xx_ll_tim.h ****   uint32_t OSSRState;            /*!< Specifies the Off-State selection used in Run mode.
 447:Drivers/STM32G4xx_HAL_Driver/Inc/stm32g4xx_ll_tim.h ****                                       This parameter can be a value of @ref TIM_LL_EC_OSSR
 448:Drivers/STM32G4xx_HAL_Driver/Inc/stm32g4xx_ll_tim.h **** 
 449:Drivers/STM32G4xx_HAL_Driver/Inc/stm32g4xx_ll_tim.h ****                                       This feature can be modified afterwards using unitary functio
 450:Drivers/STM32G4xx_HAL_Driver/Inc/stm32g4xx_ll_tim.h ****                                       @ref LL_TIM_SetOffStates()
 451:Drivers/STM32G4xx_HAL_Driver/Inc/stm32g4xx_ll_tim.h **** 
 452:Drivers/STM32G4xx_HAL_Driver/Inc/stm32g4xx_ll_tim.h ****                                       @note This bit-field cannot be modified as long as LOCK level
 453:Drivers/STM32G4xx_HAL_Driver/Inc/stm32g4xx_ll_tim.h ****                                        programmed. */
 454:Drivers/STM32G4xx_HAL_Driver/Inc/stm32g4xx_ll_tim.h **** 
 455:Drivers/STM32G4xx_HAL_Driver/Inc/stm32g4xx_ll_tim.h ****   uint32_t OSSIState;            /*!< Specifies the Off-State used in Idle state.
 456:Drivers/STM32G4xx_HAL_Driver/Inc/stm32g4xx_ll_tim.h ****                                       This parameter can be a value of @ref TIM_LL_EC_OSSI
 457:Drivers/STM32G4xx_HAL_Driver/Inc/stm32g4xx_ll_tim.h **** 
 458:Drivers/STM32G4xx_HAL_Driver/Inc/stm32g4xx_ll_tim.h ****                                       This feature can be modified afterwards using unitary functio
 459:Drivers/STM32G4xx_HAL_Driver/Inc/stm32g4xx_ll_tim.h ****                                       @ref LL_TIM_SetOffStates()
 460:Drivers/STM32G4xx_HAL_Driver/Inc/stm32g4xx_ll_tim.h **** 
 461:Drivers/STM32G4xx_HAL_Driver/Inc/stm32g4xx_ll_tim.h ****                                       @note This bit-field cannot be modified as long as LOCK level
 462:Drivers/STM32G4xx_HAL_Driver/Inc/stm32g4xx_ll_tim.h ****                                       programmed. */
 463:Drivers/STM32G4xx_HAL_Driver/Inc/stm32g4xx_ll_tim.h **** 
 464:Drivers/STM32G4xx_HAL_Driver/Inc/stm32g4xx_ll_tim.h ****   uint32_t LockLevel;            /*!< Specifies the LOCK level parameters.
 465:Drivers/STM32G4xx_HAL_Driver/Inc/stm32g4xx_ll_tim.h ****                                       This parameter can be a value of @ref TIM_LL_EC_LOCKLEVEL
 466:Drivers/STM32G4xx_HAL_Driver/Inc/stm32g4xx_ll_tim.h **** 
 467:Drivers/STM32G4xx_HAL_Driver/Inc/stm32g4xx_ll_tim.h ****                                       @note The LOCK bits can be written only once after the reset.
 468:Drivers/STM32G4xx_HAL_Driver/Inc/stm32g4xx_ll_tim.h ****                                       register has been written, their content is frozen until the 
 469:Drivers/STM32G4xx_HAL_Driver/Inc/stm32g4xx_ll_tim.h **** 
 470:Drivers/STM32G4xx_HAL_Driver/Inc/stm32g4xx_ll_tim.h ****   uint8_t DeadTime;              /*!< Specifies the delay time between the switching-off and the
 471:Drivers/STM32G4xx_HAL_Driver/Inc/stm32g4xx_ll_tim.h ****                                       switching-on of the outputs.
 472:Drivers/STM32G4xx_HAL_Driver/Inc/stm32g4xx_ll_tim.h ****                                       This parameter can be a number between Min_Data = 0x00 and Ma
 473:Drivers/STM32G4xx_HAL_Driver/Inc/stm32g4xx_ll_tim.h **** 
 474:Drivers/STM32G4xx_HAL_Driver/Inc/stm32g4xx_ll_tim.h ****                                       This feature can be modified afterwards using unitary functio
 475:Drivers/STM32G4xx_HAL_Driver/Inc/stm32g4xx_ll_tim.h ****                                       @ref LL_TIM_OC_SetDeadTime()
 476:Drivers/STM32G4xx_HAL_Driver/Inc/stm32g4xx_ll_tim.h **** 
 477:Drivers/STM32G4xx_HAL_Driver/Inc/stm32g4xx_ll_tim.h ****                                       @note This bit-field can not be modified as long as LOCK leve
 478:Drivers/STM32G4xx_HAL_Driver/Inc/stm32g4xx_ll_tim.h ****                                        programmed. */
 479:Drivers/STM32G4xx_HAL_Driver/Inc/stm32g4xx_ll_tim.h **** 
 480:Drivers/STM32G4xx_HAL_Driver/Inc/stm32g4xx_ll_tim.h ****   uint16_t BreakState;           /*!< Specifies whether the TIM Break input is enabled or not.
 481:Drivers/STM32G4xx_HAL_Driver/Inc/stm32g4xx_ll_tim.h ****                                       This parameter can be a value of @ref TIM_LL_EC_BREAK_ENABLE
 482:Drivers/STM32G4xx_HAL_Driver/Inc/stm32g4xx_ll_tim.h **** 
 483:Drivers/STM32G4xx_HAL_Driver/Inc/stm32g4xx_ll_tim.h ****                                       This feature can be modified afterwards using unitary functio
 484:Drivers/STM32G4xx_HAL_Driver/Inc/stm32g4xx_ll_tim.h ****                                       @ref LL_TIM_EnableBRK() or @ref LL_TIM_DisableBRK()
 485:Drivers/STM32G4xx_HAL_Driver/Inc/stm32g4xx_ll_tim.h **** 
 486:Drivers/STM32G4xx_HAL_Driver/Inc/stm32g4xx_ll_tim.h ****                                       @note This bit-field can not be modified as long as LOCK leve
 487:Drivers/STM32G4xx_HAL_Driver/Inc/stm32g4xx_ll_tim.h ****                                       programmed. */
 488:Drivers/STM32G4xx_HAL_Driver/Inc/stm32g4xx_ll_tim.h **** 
 489:Drivers/STM32G4xx_HAL_Driver/Inc/stm32g4xx_ll_tim.h ****   uint32_t BreakPolarity;        /*!< Specifies the TIM Break Input pin polarity.
 490:Drivers/STM32G4xx_HAL_Driver/Inc/stm32g4xx_ll_tim.h ****                                       This parameter can be a value of @ref TIM_LL_EC_BREAK_POLARIT
 491:Drivers/STM32G4xx_HAL_Driver/Inc/stm32g4xx_ll_tim.h **** 
ARM GAS  /tmp/ccF6ITrB.s 			page 54


 492:Drivers/STM32G4xx_HAL_Driver/Inc/stm32g4xx_ll_tim.h ****                                       This feature can be modified afterwards using unitary functio
 493:Drivers/STM32G4xx_HAL_Driver/Inc/stm32g4xx_ll_tim.h ****                                       @ref LL_TIM_ConfigBRK()
 494:Drivers/STM32G4xx_HAL_Driver/Inc/stm32g4xx_ll_tim.h **** 
 495:Drivers/STM32G4xx_HAL_Driver/Inc/stm32g4xx_ll_tim.h ****                                       @note This bit-field can not be modified as long as LOCK leve
 496:Drivers/STM32G4xx_HAL_Driver/Inc/stm32g4xx_ll_tim.h ****                                       programmed. */
 497:Drivers/STM32G4xx_HAL_Driver/Inc/stm32g4xx_ll_tim.h **** 
 498:Drivers/STM32G4xx_HAL_Driver/Inc/stm32g4xx_ll_tim.h ****   uint32_t BreakFilter;          /*!< Specifies the TIM Break Filter.
 499:Drivers/STM32G4xx_HAL_Driver/Inc/stm32g4xx_ll_tim.h ****                                       This parameter can be a value of @ref TIM_LL_EC_BREAK_FILTER
 500:Drivers/STM32G4xx_HAL_Driver/Inc/stm32g4xx_ll_tim.h **** 
 501:Drivers/STM32G4xx_HAL_Driver/Inc/stm32g4xx_ll_tim.h ****                                       This feature can be modified afterwards using unitary functio
 502:Drivers/STM32G4xx_HAL_Driver/Inc/stm32g4xx_ll_tim.h ****                                       @ref LL_TIM_ConfigBRK()
 503:Drivers/STM32G4xx_HAL_Driver/Inc/stm32g4xx_ll_tim.h **** 
 504:Drivers/STM32G4xx_HAL_Driver/Inc/stm32g4xx_ll_tim.h ****                                       @note This bit-field can not be modified as long as LOCK leve
 505:Drivers/STM32G4xx_HAL_Driver/Inc/stm32g4xx_ll_tim.h ****                                       programmed. */
 506:Drivers/STM32G4xx_HAL_Driver/Inc/stm32g4xx_ll_tim.h **** 
 507:Drivers/STM32G4xx_HAL_Driver/Inc/stm32g4xx_ll_tim.h ****   uint32_t BreakAFMode;           /*!< Specifies the alternate function mode of the break input.
 508:Drivers/STM32G4xx_HAL_Driver/Inc/stm32g4xx_ll_tim.h ****                                       This parameter can be a value of @ref TIM_LL_EC_BREAK_AFMODE
 509:Drivers/STM32G4xx_HAL_Driver/Inc/stm32g4xx_ll_tim.h **** 
 510:Drivers/STM32G4xx_HAL_Driver/Inc/stm32g4xx_ll_tim.h ****                                       This feature can be modified afterwards using unitary functio
 511:Drivers/STM32G4xx_HAL_Driver/Inc/stm32g4xx_ll_tim.h ****                                       @ref LL_TIM_ConfigBRK()
 512:Drivers/STM32G4xx_HAL_Driver/Inc/stm32g4xx_ll_tim.h **** 
 513:Drivers/STM32G4xx_HAL_Driver/Inc/stm32g4xx_ll_tim.h ****                                       @note Bidirectional break input is only supported by advanced
 514:Drivers/STM32G4xx_HAL_Driver/Inc/stm32g4xx_ll_tim.h **** 
 515:Drivers/STM32G4xx_HAL_Driver/Inc/stm32g4xx_ll_tim.h ****                                       @note This bit-field can not be modified as long as LOCK leve
 516:Drivers/STM32G4xx_HAL_Driver/Inc/stm32g4xx_ll_tim.h ****                                       programmed. */
 517:Drivers/STM32G4xx_HAL_Driver/Inc/stm32g4xx_ll_tim.h **** 
 518:Drivers/STM32G4xx_HAL_Driver/Inc/stm32g4xx_ll_tim.h ****   uint32_t Break2State;          /*!< Specifies whether the TIM Break2 input is enabled or not.
 519:Drivers/STM32G4xx_HAL_Driver/Inc/stm32g4xx_ll_tim.h ****                                       This parameter can be a value of @ref TIM_LL_EC_BREAK2_ENABLE
 520:Drivers/STM32G4xx_HAL_Driver/Inc/stm32g4xx_ll_tim.h **** 
 521:Drivers/STM32G4xx_HAL_Driver/Inc/stm32g4xx_ll_tim.h ****                                       This feature can be modified afterwards using unitary functio
 522:Drivers/STM32G4xx_HAL_Driver/Inc/stm32g4xx_ll_tim.h ****                                       @ref LL_TIM_EnableBRK2() or @ref LL_TIM_DisableBRK2()
 523:Drivers/STM32G4xx_HAL_Driver/Inc/stm32g4xx_ll_tim.h **** 
 524:Drivers/STM32G4xx_HAL_Driver/Inc/stm32g4xx_ll_tim.h ****                                       @note This bit-field can not be modified as long as LOCK leve
 525:Drivers/STM32G4xx_HAL_Driver/Inc/stm32g4xx_ll_tim.h ****                                       programmed. */
 526:Drivers/STM32G4xx_HAL_Driver/Inc/stm32g4xx_ll_tim.h **** 
 527:Drivers/STM32G4xx_HAL_Driver/Inc/stm32g4xx_ll_tim.h ****   uint32_t Break2Polarity;        /*!< Specifies the TIM Break2 Input pin polarity.
 528:Drivers/STM32G4xx_HAL_Driver/Inc/stm32g4xx_ll_tim.h ****                                       This parameter can be a value of @ref TIM_LL_EC_BREAK2_POLARI
 529:Drivers/STM32G4xx_HAL_Driver/Inc/stm32g4xx_ll_tim.h **** 
 530:Drivers/STM32G4xx_HAL_Driver/Inc/stm32g4xx_ll_tim.h ****                                       This feature can be modified afterwards using unitary functio
 531:Drivers/STM32G4xx_HAL_Driver/Inc/stm32g4xx_ll_tim.h ****                                       @ref LL_TIM_ConfigBRK2()
 532:Drivers/STM32G4xx_HAL_Driver/Inc/stm32g4xx_ll_tim.h **** 
 533:Drivers/STM32G4xx_HAL_Driver/Inc/stm32g4xx_ll_tim.h ****                                       @note This bit-field can not be modified as long as LOCK leve
 534:Drivers/STM32G4xx_HAL_Driver/Inc/stm32g4xx_ll_tim.h ****                                       programmed. */
 535:Drivers/STM32G4xx_HAL_Driver/Inc/stm32g4xx_ll_tim.h **** 
 536:Drivers/STM32G4xx_HAL_Driver/Inc/stm32g4xx_ll_tim.h ****   uint32_t Break2Filter;          /*!< Specifies the TIM Break2 Filter.
 537:Drivers/STM32G4xx_HAL_Driver/Inc/stm32g4xx_ll_tim.h ****                                       This parameter can be a value of @ref TIM_LL_EC_BREAK2_FILTER
 538:Drivers/STM32G4xx_HAL_Driver/Inc/stm32g4xx_ll_tim.h **** 
 539:Drivers/STM32G4xx_HAL_Driver/Inc/stm32g4xx_ll_tim.h ****                                       This feature can be modified afterwards using unitary functio
 540:Drivers/STM32G4xx_HAL_Driver/Inc/stm32g4xx_ll_tim.h ****                                       @ref LL_TIM_ConfigBRK2()
 541:Drivers/STM32G4xx_HAL_Driver/Inc/stm32g4xx_ll_tim.h **** 
 542:Drivers/STM32G4xx_HAL_Driver/Inc/stm32g4xx_ll_tim.h ****                                       @note This bit-field can not be modified as long as LOCK leve
 543:Drivers/STM32G4xx_HAL_Driver/Inc/stm32g4xx_ll_tim.h ****                                       programmed. */
 544:Drivers/STM32G4xx_HAL_Driver/Inc/stm32g4xx_ll_tim.h **** 
 545:Drivers/STM32G4xx_HAL_Driver/Inc/stm32g4xx_ll_tim.h ****   uint32_t Break2AFMode;          /*!< Specifies the alternate function mode of the break2 input.
 546:Drivers/STM32G4xx_HAL_Driver/Inc/stm32g4xx_ll_tim.h ****                                       This parameter can be a value of @ref TIM_LL_EC_BREAK2_AFMODE
 547:Drivers/STM32G4xx_HAL_Driver/Inc/stm32g4xx_ll_tim.h **** 
 548:Drivers/STM32G4xx_HAL_Driver/Inc/stm32g4xx_ll_tim.h ****                                       This feature can be modified afterwards using unitary functio
ARM GAS  /tmp/ccF6ITrB.s 			page 55


 549:Drivers/STM32G4xx_HAL_Driver/Inc/stm32g4xx_ll_tim.h ****                                       @ref LL_TIM_ConfigBRK2()
 550:Drivers/STM32G4xx_HAL_Driver/Inc/stm32g4xx_ll_tim.h **** 
 551:Drivers/STM32G4xx_HAL_Driver/Inc/stm32g4xx_ll_tim.h ****                                       @note Bidirectional break input is only supported by advanced
 552:Drivers/STM32G4xx_HAL_Driver/Inc/stm32g4xx_ll_tim.h **** 
 553:Drivers/STM32G4xx_HAL_Driver/Inc/stm32g4xx_ll_tim.h ****                                       @note This bit-field can not be modified as long as LOCK leve
 554:Drivers/STM32G4xx_HAL_Driver/Inc/stm32g4xx_ll_tim.h ****                                       programmed. */
 555:Drivers/STM32G4xx_HAL_Driver/Inc/stm32g4xx_ll_tim.h **** 
 556:Drivers/STM32G4xx_HAL_Driver/Inc/stm32g4xx_ll_tim.h ****   uint32_t AutomaticOutput;      /*!< Specifies whether the TIM Automatic Output feature is enabled
 557:Drivers/STM32G4xx_HAL_Driver/Inc/stm32g4xx_ll_tim.h ****                                       This parameter can be a value of @ref TIM_LL_EC_AUTOMATICOUTP
 558:Drivers/STM32G4xx_HAL_Driver/Inc/stm32g4xx_ll_tim.h **** 
 559:Drivers/STM32G4xx_HAL_Driver/Inc/stm32g4xx_ll_tim.h ****                                       This feature can be modified afterwards using unitary functio
 560:Drivers/STM32G4xx_HAL_Driver/Inc/stm32g4xx_ll_tim.h ****                                       @ref LL_TIM_EnableAutomaticOutput() or @ref LL_TIM_DisableAut
 561:Drivers/STM32G4xx_HAL_Driver/Inc/stm32g4xx_ll_tim.h **** 
 562:Drivers/STM32G4xx_HAL_Driver/Inc/stm32g4xx_ll_tim.h ****                                       @note This bit-field can not be modified as long as LOCK leve
 563:Drivers/STM32G4xx_HAL_Driver/Inc/stm32g4xx_ll_tim.h ****                                       programmed. */
 564:Drivers/STM32G4xx_HAL_Driver/Inc/stm32g4xx_ll_tim.h **** } LL_TIM_BDTR_InitTypeDef;
 565:Drivers/STM32G4xx_HAL_Driver/Inc/stm32g4xx_ll_tim.h **** 
 566:Drivers/STM32G4xx_HAL_Driver/Inc/stm32g4xx_ll_tim.h **** /**
 567:Drivers/STM32G4xx_HAL_Driver/Inc/stm32g4xx_ll_tim.h ****   * @}
 568:Drivers/STM32G4xx_HAL_Driver/Inc/stm32g4xx_ll_tim.h ****   */
 569:Drivers/STM32G4xx_HAL_Driver/Inc/stm32g4xx_ll_tim.h **** #endif /* USE_FULL_LL_DRIVER */
 570:Drivers/STM32G4xx_HAL_Driver/Inc/stm32g4xx_ll_tim.h **** 
 571:Drivers/STM32G4xx_HAL_Driver/Inc/stm32g4xx_ll_tim.h **** /* Exported constants --------------------------------------------------------*/
 572:Drivers/STM32G4xx_HAL_Driver/Inc/stm32g4xx_ll_tim.h **** /** @defgroup TIM_LL_Exported_Constants TIM Exported Constants
 573:Drivers/STM32G4xx_HAL_Driver/Inc/stm32g4xx_ll_tim.h ****   * @{
 574:Drivers/STM32G4xx_HAL_Driver/Inc/stm32g4xx_ll_tim.h ****   */
 575:Drivers/STM32G4xx_HAL_Driver/Inc/stm32g4xx_ll_tim.h **** 
 576:Drivers/STM32G4xx_HAL_Driver/Inc/stm32g4xx_ll_tim.h **** /** @defgroup TIM_LL_EC_GET_FLAG Get Flags Defines
 577:Drivers/STM32G4xx_HAL_Driver/Inc/stm32g4xx_ll_tim.h ****   * @brief    Flags defines which can be used with LL_TIM_ReadReg function.
 578:Drivers/STM32G4xx_HAL_Driver/Inc/stm32g4xx_ll_tim.h ****   * @{
 579:Drivers/STM32G4xx_HAL_Driver/Inc/stm32g4xx_ll_tim.h ****   */
 580:Drivers/STM32G4xx_HAL_Driver/Inc/stm32g4xx_ll_tim.h **** #define LL_TIM_SR_UIF                          TIM_SR_UIF           /*!< Update interrupt flag */
 581:Drivers/STM32G4xx_HAL_Driver/Inc/stm32g4xx_ll_tim.h **** #define LL_TIM_SR_CC1IF                        TIM_SR_CC1IF         /*!< Capture/compare 1 interrup
 582:Drivers/STM32G4xx_HAL_Driver/Inc/stm32g4xx_ll_tim.h **** #define LL_TIM_SR_CC2IF                        TIM_SR_CC2IF         /*!< Capture/compare 2 interrup
 583:Drivers/STM32G4xx_HAL_Driver/Inc/stm32g4xx_ll_tim.h **** #define LL_TIM_SR_CC3IF                        TIM_SR_CC3IF         /*!< Capture/compare 3 interrup
 584:Drivers/STM32G4xx_HAL_Driver/Inc/stm32g4xx_ll_tim.h **** #define LL_TIM_SR_CC4IF                        TIM_SR_CC4IF         /*!< Capture/compare 4 interrup
 585:Drivers/STM32G4xx_HAL_Driver/Inc/stm32g4xx_ll_tim.h **** #define LL_TIM_SR_CC5IF                        TIM_SR_CC5IF         /*!< Capture/compare 5 interrup
 586:Drivers/STM32G4xx_HAL_Driver/Inc/stm32g4xx_ll_tim.h **** #define LL_TIM_SR_CC6IF                        TIM_SR_CC6IF         /*!< Capture/compare 6 interrup
 587:Drivers/STM32G4xx_HAL_Driver/Inc/stm32g4xx_ll_tim.h **** #define LL_TIM_SR_COMIF                        TIM_SR_COMIF         /*!< COM interrupt flag */
 588:Drivers/STM32G4xx_HAL_Driver/Inc/stm32g4xx_ll_tim.h **** #define LL_TIM_SR_TIF                          TIM_SR_TIF           /*!< Trigger interrupt flag */
 589:Drivers/STM32G4xx_HAL_Driver/Inc/stm32g4xx_ll_tim.h **** #define LL_TIM_SR_BIF                          TIM_SR_BIF           /*!< Break interrupt flag */
 590:Drivers/STM32G4xx_HAL_Driver/Inc/stm32g4xx_ll_tim.h **** #define LL_TIM_SR_B2IF                         TIM_SR_B2IF          /*!< Second break interrupt fla
 591:Drivers/STM32G4xx_HAL_Driver/Inc/stm32g4xx_ll_tim.h **** #define LL_TIM_SR_CC1OF                        TIM_SR_CC1OF         /*!< Capture/Compare 1 overcapt
 592:Drivers/STM32G4xx_HAL_Driver/Inc/stm32g4xx_ll_tim.h **** #define LL_TIM_SR_CC2OF                        TIM_SR_CC2OF         /*!< Capture/Compare 2 overcapt
 593:Drivers/STM32G4xx_HAL_Driver/Inc/stm32g4xx_ll_tim.h **** #define LL_TIM_SR_CC3OF                        TIM_SR_CC3OF         /*!< Capture/Compare 3 overcapt
 594:Drivers/STM32G4xx_HAL_Driver/Inc/stm32g4xx_ll_tim.h **** #define LL_TIM_SR_CC4OF                        TIM_SR_CC4OF         /*!< Capture/Compare 4 overcapt
 595:Drivers/STM32G4xx_HAL_Driver/Inc/stm32g4xx_ll_tim.h **** #define LL_TIM_SR_SBIF                         TIM_SR_SBIF          /*!< System Break interrupt fla
 596:Drivers/STM32G4xx_HAL_Driver/Inc/stm32g4xx_ll_tim.h **** #define LL_TIM_SR_IDXF                         TIM_SR_IDXF          /*!< Index interrupt flag  */
 597:Drivers/STM32G4xx_HAL_Driver/Inc/stm32g4xx_ll_tim.h **** #define LL_TIM_SR_DIRF                         TIM_SR_DIRF          /*!< Direction Change interrupt
 598:Drivers/STM32G4xx_HAL_Driver/Inc/stm32g4xx_ll_tim.h **** #define LL_TIM_SR_IERRF                        TIM_SR_IERRF         /*!< Index Error flag  */
 599:Drivers/STM32G4xx_HAL_Driver/Inc/stm32g4xx_ll_tim.h **** #define LL_TIM_SR_TERRF                        TIM_SR_TERRF         /*!< Transition Error flag  */
 600:Drivers/STM32G4xx_HAL_Driver/Inc/stm32g4xx_ll_tim.h **** /**
 601:Drivers/STM32G4xx_HAL_Driver/Inc/stm32g4xx_ll_tim.h ****   * @}
 602:Drivers/STM32G4xx_HAL_Driver/Inc/stm32g4xx_ll_tim.h ****   */
 603:Drivers/STM32G4xx_HAL_Driver/Inc/stm32g4xx_ll_tim.h **** 
 604:Drivers/STM32G4xx_HAL_Driver/Inc/stm32g4xx_ll_tim.h **** #if defined(USE_FULL_LL_DRIVER)
 605:Drivers/STM32G4xx_HAL_Driver/Inc/stm32g4xx_ll_tim.h **** /** @defgroup TIM_LL_EC_BREAK_ENABLE Break Enable
ARM GAS  /tmp/ccF6ITrB.s 			page 56


 606:Drivers/STM32G4xx_HAL_Driver/Inc/stm32g4xx_ll_tim.h ****   * @{
 607:Drivers/STM32G4xx_HAL_Driver/Inc/stm32g4xx_ll_tim.h ****   */
 608:Drivers/STM32G4xx_HAL_Driver/Inc/stm32g4xx_ll_tim.h **** #define LL_TIM_BREAK_DISABLE            0x00000000U             /*!< Break function disabled */
 609:Drivers/STM32G4xx_HAL_Driver/Inc/stm32g4xx_ll_tim.h **** #define LL_TIM_BREAK_ENABLE             TIM_BDTR_BKE            /*!< Break function enabled */
 610:Drivers/STM32G4xx_HAL_Driver/Inc/stm32g4xx_ll_tim.h **** /**
 611:Drivers/STM32G4xx_HAL_Driver/Inc/stm32g4xx_ll_tim.h ****   * @}
 612:Drivers/STM32G4xx_HAL_Driver/Inc/stm32g4xx_ll_tim.h ****   */
 613:Drivers/STM32G4xx_HAL_Driver/Inc/stm32g4xx_ll_tim.h **** 
 614:Drivers/STM32G4xx_HAL_Driver/Inc/stm32g4xx_ll_tim.h **** /** @defgroup TIM_LL_EC_BREAK2_ENABLE Break2 Enable
 615:Drivers/STM32G4xx_HAL_Driver/Inc/stm32g4xx_ll_tim.h ****   * @{
 616:Drivers/STM32G4xx_HAL_Driver/Inc/stm32g4xx_ll_tim.h ****   */
 617:Drivers/STM32G4xx_HAL_Driver/Inc/stm32g4xx_ll_tim.h **** #define LL_TIM_BREAK2_DISABLE            0x00000000U              /*!< Break2 function disabled */
 618:Drivers/STM32G4xx_HAL_Driver/Inc/stm32g4xx_ll_tim.h **** #define LL_TIM_BREAK2_ENABLE             TIM_BDTR_BK2E            /*!< Break2 function enabled */
 619:Drivers/STM32G4xx_HAL_Driver/Inc/stm32g4xx_ll_tim.h **** /**
 620:Drivers/STM32G4xx_HAL_Driver/Inc/stm32g4xx_ll_tim.h ****   * @}
 621:Drivers/STM32G4xx_HAL_Driver/Inc/stm32g4xx_ll_tim.h ****   */
 622:Drivers/STM32G4xx_HAL_Driver/Inc/stm32g4xx_ll_tim.h **** 
 623:Drivers/STM32G4xx_HAL_Driver/Inc/stm32g4xx_ll_tim.h **** /** @defgroup TIM_LL_EC_AUTOMATICOUTPUT_ENABLE Automatic output enable
 624:Drivers/STM32G4xx_HAL_Driver/Inc/stm32g4xx_ll_tim.h ****   * @{
 625:Drivers/STM32G4xx_HAL_Driver/Inc/stm32g4xx_ll_tim.h ****   */
 626:Drivers/STM32G4xx_HAL_Driver/Inc/stm32g4xx_ll_tim.h **** #define LL_TIM_AUTOMATICOUTPUT_DISABLE         0x00000000U             /*!< MOE can be set only by 
 627:Drivers/STM32G4xx_HAL_Driver/Inc/stm32g4xx_ll_tim.h **** #define LL_TIM_AUTOMATICOUTPUT_ENABLE          TIM_BDTR_AOE            /*!< MOE can be set by softw
 628:Drivers/STM32G4xx_HAL_Driver/Inc/stm32g4xx_ll_tim.h **** /**
 629:Drivers/STM32G4xx_HAL_Driver/Inc/stm32g4xx_ll_tim.h ****   * @}
 630:Drivers/STM32G4xx_HAL_Driver/Inc/stm32g4xx_ll_tim.h ****   */
 631:Drivers/STM32G4xx_HAL_Driver/Inc/stm32g4xx_ll_tim.h **** #endif /* USE_FULL_LL_DRIVER */
 632:Drivers/STM32G4xx_HAL_Driver/Inc/stm32g4xx_ll_tim.h **** 
 633:Drivers/STM32G4xx_HAL_Driver/Inc/stm32g4xx_ll_tim.h **** /** @defgroup TIM_LL_EC_IT IT Defines
 634:Drivers/STM32G4xx_HAL_Driver/Inc/stm32g4xx_ll_tim.h ****   * @brief    IT defines which can be used with LL_TIM_ReadReg and  LL_TIM_WriteReg functions.
 635:Drivers/STM32G4xx_HAL_Driver/Inc/stm32g4xx_ll_tim.h ****   * @{
 636:Drivers/STM32G4xx_HAL_Driver/Inc/stm32g4xx_ll_tim.h ****   */
 637:Drivers/STM32G4xx_HAL_Driver/Inc/stm32g4xx_ll_tim.h **** #define LL_TIM_DIER_UIE                        TIM_DIER_UIE         /*!< Update interrupt enable */
 638:Drivers/STM32G4xx_HAL_Driver/Inc/stm32g4xx_ll_tim.h **** #define LL_TIM_DIER_CC1IE                      TIM_DIER_CC1IE       /*!< Capture/compare 1 interrup
 639:Drivers/STM32G4xx_HAL_Driver/Inc/stm32g4xx_ll_tim.h **** #define LL_TIM_DIER_CC2IE                      TIM_DIER_CC2IE       /*!< Capture/compare 2 interrup
 640:Drivers/STM32G4xx_HAL_Driver/Inc/stm32g4xx_ll_tim.h **** #define LL_TIM_DIER_CC3IE                      TIM_DIER_CC3IE       /*!< Capture/compare 3 interrup
 641:Drivers/STM32G4xx_HAL_Driver/Inc/stm32g4xx_ll_tim.h **** #define LL_TIM_DIER_CC4IE                      TIM_DIER_CC4IE       /*!< Capture/compare 4 interrup
 642:Drivers/STM32G4xx_HAL_Driver/Inc/stm32g4xx_ll_tim.h **** #define LL_TIM_DIER_COMIE                      TIM_DIER_COMIE       /*!< COM interrupt enable */
 643:Drivers/STM32G4xx_HAL_Driver/Inc/stm32g4xx_ll_tim.h **** #define LL_TIM_DIER_TIE                        TIM_DIER_TIE         /*!< Trigger interrupt enable *
 644:Drivers/STM32G4xx_HAL_Driver/Inc/stm32g4xx_ll_tim.h **** #define LL_TIM_DIER_BIE                        TIM_DIER_BIE         /*!< Break interrupt enable */
 645:Drivers/STM32G4xx_HAL_Driver/Inc/stm32g4xx_ll_tim.h **** #define LL_TIM_DIER_IDXIE                      TIM_DIER_IDXIE       /*!< Index interrupt enable */
 646:Drivers/STM32G4xx_HAL_Driver/Inc/stm32g4xx_ll_tim.h **** #define LL_TIM_DIER_DIRIE                      TIM_DIER_DIRIE       /*!< Direction Change interrupt
 647:Drivers/STM32G4xx_HAL_Driver/Inc/stm32g4xx_ll_tim.h **** #define LL_TIM_DIER_IERRIE                     TIM_DIER_IERRIE      /*!< Index Error interrupt enab
 648:Drivers/STM32G4xx_HAL_Driver/Inc/stm32g4xx_ll_tim.h **** #define LL_TIM_DIER_TERRIE                     TIM_DIER_TERRIE      /*!< Transition Error interrupt
 649:Drivers/STM32G4xx_HAL_Driver/Inc/stm32g4xx_ll_tim.h **** /**
 650:Drivers/STM32G4xx_HAL_Driver/Inc/stm32g4xx_ll_tim.h ****   * @}
 651:Drivers/STM32G4xx_HAL_Driver/Inc/stm32g4xx_ll_tim.h ****   */
 652:Drivers/STM32G4xx_HAL_Driver/Inc/stm32g4xx_ll_tim.h **** 
 653:Drivers/STM32G4xx_HAL_Driver/Inc/stm32g4xx_ll_tim.h **** /** @defgroup TIM_LL_EC_UPDATESOURCE Update Source
 654:Drivers/STM32G4xx_HAL_Driver/Inc/stm32g4xx_ll_tim.h ****   * @{
 655:Drivers/STM32G4xx_HAL_Driver/Inc/stm32g4xx_ll_tim.h ****   */
 656:Drivers/STM32G4xx_HAL_Driver/Inc/stm32g4xx_ll_tim.h **** #define LL_TIM_UPDATESOURCE_REGULAR            0x00000000U          /*!< Counter overflow/underflow
 657:Drivers/STM32G4xx_HAL_Driver/Inc/stm32g4xx_ll_tim.h **** #define LL_TIM_UPDATESOURCE_COUNTER            TIM_CR1_URS          /*!< Only counter overflow/unde
 658:Drivers/STM32G4xx_HAL_Driver/Inc/stm32g4xx_ll_tim.h **** /**
 659:Drivers/STM32G4xx_HAL_Driver/Inc/stm32g4xx_ll_tim.h ****   * @}
 660:Drivers/STM32G4xx_HAL_Driver/Inc/stm32g4xx_ll_tim.h ****   */
 661:Drivers/STM32G4xx_HAL_Driver/Inc/stm32g4xx_ll_tim.h **** 
 662:Drivers/STM32G4xx_HAL_Driver/Inc/stm32g4xx_ll_tim.h **** /** @defgroup TIM_LL_EC_ONEPULSEMODE One Pulse Mode
ARM GAS  /tmp/ccF6ITrB.s 			page 57


 663:Drivers/STM32G4xx_HAL_Driver/Inc/stm32g4xx_ll_tim.h ****   * @{
 664:Drivers/STM32G4xx_HAL_Driver/Inc/stm32g4xx_ll_tim.h ****   */
 665:Drivers/STM32G4xx_HAL_Driver/Inc/stm32g4xx_ll_tim.h **** #define LL_TIM_ONEPULSEMODE_SINGLE             TIM_CR1_OPM          /*!< Counter stops counting at 
 666:Drivers/STM32G4xx_HAL_Driver/Inc/stm32g4xx_ll_tim.h **** #define LL_TIM_ONEPULSEMODE_REPETITIVE         0x00000000U          /*!< Counter is not stopped at 
 667:Drivers/STM32G4xx_HAL_Driver/Inc/stm32g4xx_ll_tim.h **** /**
 668:Drivers/STM32G4xx_HAL_Driver/Inc/stm32g4xx_ll_tim.h ****   * @}
 669:Drivers/STM32G4xx_HAL_Driver/Inc/stm32g4xx_ll_tim.h ****   */
 670:Drivers/STM32G4xx_HAL_Driver/Inc/stm32g4xx_ll_tim.h **** 
 671:Drivers/STM32G4xx_HAL_Driver/Inc/stm32g4xx_ll_tim.h **** /** @defgroup TIM_LL_EC_COUNTERMODE Counter Mode
 672:Drivers/STM32G4xx_HAL_Driver/Inc/stm32g4xx_ll_tim.h ****   * @{
 673:Drivers/STM32G4xx_HAL_Driver/Inc/stm32g4xx_ll_tim.h ****   */
 674:Drivers/STM32G4xx_HAL_Driver/Inc/stm32g4xx_ll_tim.h **** #define LL_TIM_COUNTERMODE_UP                  0x00000000U          /*!< Counter used as upcounter 
 675:Drivers/STM32G4xx_HAL_Driver/Inc/stm32g4xx_ll_tim.h **** #define LL_TIM_COUNTERMODE_DOWN                TIM_CR1_DIR          /*!< Counter used as downcounte
 676:Drivers/STM32G4xx_HAL_Driver/Inc/stm32g4xx_ll_tim.h **** #define LL_TIM_COUNTERMODE_CENTER_DOWN         TIM_CR1_CMS_0        /*!< The counter counts up and 
 677:Drivers/STM32G4xx_HAL_Driver/Inc/stm32g4xx_ll_tim.h **** #define LL_TIM_COUNTERMODE_CENTER_UP           TIM_CR1_CMS_1        /*!< The counter counts up and 
 678:Drivers/STM32G4xx_HAL_Driver/Inc/stm32g4xx_ll_tim.h **** #define LL_TIM_COUNTERMODE_CENTER_UP_DOWN      TIM_CR1_CMS          /*!< The counter counts up and 
 679:Drivers/STM32G4xx_HAL_Driver/Inc/stm32g4xx_ll_tim.h **** /**
 680:Drivers/STM32G4xx_HAL_Driver/Inc/stm32g4xx_ll_tim.h ****   * @}
 681:Drivers/STM32G4xx_HAL_Driver/Inc/stm32g4xx_ll_tim.h ****   */
 682:Drivers/STM32G4xx_HAL_Driver/Inc/stm32g4xx_ll_tim.h **** 
 683:Drivers/STM32G4xx_HAL_Driver/Inc/stm32g4xx_ll_tim.h **** /** @defgroup TIM_LL_EC_CLOCKDIVISION Clock Division
 684:Drivers/STM32G4xx_HAL_Driver/Inc/stm32g4xx_ll_tim.h ****   * @{
 685:Drivers/STM32G4xx_HAL_Driver/Inc/stm32g4xx_ll_tim.h ****   */
 686:Drivers/STM32G4xx_HAL_Driver/Inc/stm32g4xx_ll_tim.h **** #define LL_TIM_CLOCKDIVISION_DIV1              0x00000000U          /*!< tDTS=tCK_INT */
 687:Drivers/STM32G4xx_HAL_Driver/Inc/stm32g4xx_ll_tim.h **** #define LL_TIM_CLOCKDIVISION_DIV2              TIM_CR1_CKD_0        /*!< tDTS=2*tCK_INT */
 688:Drivers/STM32G4xx_HAL_Driver/Inc/stm32g4xx_ll_tim.h **** #define LL_TIM_CLOCKDIVISION_DIV4              TIM_CR1_CKD_1        /*!< tDTS=4*tCK_INT */
 689:Drivers/STM32G4xx_HAL_Driver/Inc/stm32g4xx_ll_tim.h **** /**
 690:Drivers/STM32G4xx_HAL_Driver/Inc/stm32g4xx_ll_tim.h ****   * @}
 691:Drivers/STM32G4xx_HAL_Driver/Inc/stm32g4xx_ll_tim.h ****   */
 692:Drivers/STM32G4xx_HAL_Driver/Inc/stm32g4xx_ll_tim.h **** 
 693:Drivers/STM32G4xx_HAL_Driver/Inc/stm32g4xx_ll_tim.h **** /** @defgroup TIM_LL_EC_COUNTERDIRECTION Counter Direction
 694:Drivers/STM32G4xx_HAL_Driver/Inc/stm32g4xx_ll_tim.h ****   * @{
 695:Drivers/STM32G4xx_HAL_Driver/Inc/stm32g4xx_ll_tim.h ****   */
 696:Drivers/STM32G4xx_HAL_Driver/Inc/stm32g4xx_ll_tim.h **** #define LL_TIM_COUNTERDIRECTION_UP             0x00000000U          /*!< Timer counter counts up */
 697:Drivers/STM32G4xx_HAL_Driver/Inc/stm32g4xx_ll_tim.h **** #define LL_TIM_COUNTERDIRECTION_DOWN           TIM_CR1_DIR          /*!< Timer counter counts down 
 698:Drivers/STM32G4xx_HAL_Driver/Inc/stm32g4xx_ll_tim.h **** /**
 699:Drivers/STM32G4xx_HAL_Driver/Inc/stm32g4xx_ll_tim.h ****   * @}
 700:Drivers/STM32G4xx_HAL_Driver/Inc/stm32g4xx_ll_tim.h ****   */
 701:Drivers/STM32G4xx_HAL_Driver/Inc/stm32g4xx_ll_tim.h **** 
 702:Drivers/STM32G4xx_HAL_Driver/Inc/stm32g4xx_ll_tim.h **** /** @defgroup TIM_LL_EC_CCUPDATESOURCE Capture Compare  Update Source
 703:Drivers/STM32G4xx_HAL_Driver/Inc/stm32g4xx_ll_tim.h ****   * @{
 704:Drivers/STM32G4xx_HAL_Driver/Inc/stm32g4xx_ll_tim.h ****   */
 705:Drivers/STM32G4xx_HAL_Driver/Inc/stm32g4xx_ll_tim.h **** #define LL_TIM_CCUPDATESOURCE_COMG_ONLY        0x00000000U          /*!< Capture/compare control bi
 706:Drivers/STM32G4xx_HAL_Driver/Inc/stm32g4xx_ll_tim.h **** #define LL_TIM_CCUPDATESOURCE_COMG_AND_TRGI    TIM_CR2_CCUS         /*!< Capture/compare control bi
 707:Drivers/STM32G4xx_HAL_Driver/Inc/stm32g4xx_ll_tim.h **** /**
 708:Drivers/STM32G4xx_HAL_Driver/Inc/stm32g4xx_ll_tim.h ****   * @}
 709:Drivers/STM32G4xx_HAL_Driver/Inc/stm32g4xx_ll_tim.h ****   */
 710:Drivers/STM32G4xx_HAL_Driver/Inc/stm32g4xx_ll_tim.h **** 
 711:Drivers/STM32G4xx_HAL_Driver/Inc/stm32g4xx_ll_tim.h **** /** @defgroup TIM_LL_EC_CCDMAREQUEST Capture Compare DMA Request
 712:Drivers/STM32G4xx_HAL_Driver/Inc/stm32g4xx_ll_tim.h ****   * @{
 713:Drivers/STM32G4xx_HAL_Driver/Inc/stm32g4xx_ll_tim.h ****   */
 714:Drivers/STM32G4xx_HAL_Driver/Inc/stm32g4xx_ll_tim.h **** #define LL_TIM_CCDMAREQUEST_CC                 0x00000000U          /*!< CCx DMA request sent when 
 715:Drivers/STM32G4xx_HAL_Driver/Inc/stm32g4xx_ll_tim.h **** #define LL_TIM_CCDMAREQUEST_UPDATE             TIM_CR2_CCDS         /*!< CCx DMA requests sent when
 716:Drivers/STM32G4xx_HAL_Driver/Inc/stm32g4xx_ll_tim.h **** /**
 717:Drivers/STM32G4xx_HAL_Driver/Inc/stm32g4xx_ll_tim.h ****   * @}
 718:Drivers/STM32G4xx_HAL_Driver/Inc/stm32g4xx_ll_tim.h ****   */
 719:Drivers/STM32G4xx_HAL_Driver/Inc/stm32g4xx_ll_tim.h **** 
ARM GAS  /tmp/ccF6ITrB.s 			page 58


 720:Drivers/STM32G4xx_HAL_Driver/Inc/stm32g4xx_ll_tim.h **** /** @defgroup TIM_LL_EC_LOCKLEVEL Lock Level
 721:Drivers/STM32G4xx_HAL_Driver/Inc/stm32g4xx_ll_tim.h ****   * @{
 722:Drivers/STM32G4xx_HAL_Driver/Inc/stm32g4xx_ll_tim.h ****   */
 723:Drivers/STM32G4xx_HAL_Driver/Inc/stm32g4xx_ll_tim.h **** #define LL_TIM_LOCKLEVEL_OFF                   0x00000000U          /*!< LOCK OFF - No bit is write
 724:Drivers/STM32G4xx_HAL_Driver/Inc/stm32g4xx_ll_tim.h **** #define LL_TIM_LOCKLEVEL_1                     TIM_BDTR_LOCK_0      /*!< LOCK Level 1 */
 725:Drivers/STM32G4xx_HAL_Driver/Inc/stm32g4xx_ll_tim.h **** #define LL_TIM_LOCKLEVEL_2                     TIM_BDTR_LOCK_1      /*!< LOCK Level 2 */
 726:Drivers/STM32G4xx_HAL_Driver/Inc/stm32g4xx_ll_tim.h **** #define LL_TIM_LOCKLEVEL_3                     TIM_BDTR_LOCK        /*!< LOCK Level 3 */
 727:Drivers/STM32G4xx_HAL_Driver/Inc/stm32g4xx_ll_tim.h **** /**
 728:Drivers/STM32G4xx_HAL_Driver/Inc/stm32g4xx_ll_tim.h ****   * @}
 729:Drivers/STM32G4xx_HAL_Driver/Inc/stm32g4xx_ll_tim.h ****   */
 730:Drivers/STM32G4xx_HAL_Driver/Inc/stm32g4xx_ll_tim.h **** 
 731:Drivers/STM32G4xx_HAL_Driver/Inc/stm32g4xx_ll_tim.h **** /** @defgroup TIM_LL_EC_CHANNEL Channel
 732:Drivers/STM32G4xx_HAL_Driver/Inc/stm32g4xx_ll_tim.h ****   * @{
 733:Drivers/STM32G4xx_HAL_Driver/Inc/stm32g4xx_ll_tim.h ****   */
 734:Drivers/STM32G4xx_HAL_Driver/Inc/stm32g4xx_ll_tim.h **** #define LL_TIM_CHANNEL_CH1                     TIM_CCER_CC1E     /*!< Timer input/output channel 1 
 735:Drivers/STM32G4xx_HAL_Driver/Inc/stm32g4xx_ll_tim.h **** #define LL_TIM_CHANNEL_CH1N                    TIM_CCER_CC1NE    /*!< Timer complementary output ch
 736:Drivers/STM32G4xx_HAL_Driver/Inc/stm32g4xx_ll_tim.h **** #define LL_TIM_CHANNEL_CH2                     TIM_CCER_CC2E     /*!< Timer input/output channel 2 
 737:Drivers/STM32G4xx_HAL_Driver/Inc/stm32g4xx_ll_tim.h **** #define LL_TIM_CHANNEL_CH2N                    TIM_CCER_CC2NE    /*!< Timer complementary output ch
 738:Drivers/STM32G4xx_HAL_Driver/Inc/stm32g4xx_ll_tim.h **** #define LL_TIM_CHANNEL_CH3                     TIM_CCER_CC3E     /*!< Timer input/output channel 3 
 739:Drivers/STM32G4xx_HAL_Driver/Inc/stm32g4xx_ll_tim.h **** #define LL_TIM_CHANNEL_CH3N                    TIM_CCER_CC3NE    /*!< Timer complementary output ch
 740:Drivers/STM32G4xx_HAL_Driver/Inc/stm32g4xx_ll_tim.h **** #define LL_TIM_CHANNEL_CH4                     TIM_CCER_CC4E     /*!< Timer input/output channel 4 
 741:Drivers/STM32G4xx_HAL_Driver/Inc/stm32g4xx_ll_tim.h **** #define LL_TIM_CHANNEL_CH4N                    TIM_CCER_CC4NE     /*!< Timer complementary output c
 742:Drivers/STM32G4xx_HAL_Driver/Inc/stm32g4xx_ll_tim.h **** #define LL_TIM_CHANNEL_CH5                     TIM_CCER_CC5E     /*!< Timer output channel 5 */
 743:Drivers/STM32G4xx_HAL_Driver/Inc/stm32g4xx_ll_tim.h **** #define LL_TIM_CHANNEL_CH6                     TIM_CCER_CC6E     /*!< Timer output channel 6 */
 744:Drivers/STM32G4xx_HAL_Driver/Inc/stm32g4xx_ll_tim.h **** /**
 745:Drivers/STM32G4xx_HAL_Driver/Inc/stm32g4xx_ll_tim.h ****   * @}
 746:Drivers/STM32G4xx_HAL_Driver/Inc/stm32g4xx_ll_tim.h ****   */
 747:Drivers/STM32G4xx_HAL_Driver/Inc/stm32g4xx_ll_tim.h **** 
 748:Drivers/STM32G4xx_HAL_Driver/Inc/stm32g4xx_ll_tim.h **** #if defined(USE_FULL_LL_DRIVER)
 749:Drivers/STM32G4xx_HAL_Driver/Inc/stm32g4xx_ll_tim.h **** /** @defgroup TIM_LL_EC_OCSTATE Output Configuration State
 750:Drivers/STM32G4xx_HAL_Driver/Inc/stm32g4xx_ll_tim.h ****   * @{
 751:Drivers/STM32G4xx_HAL_Driver/Inc/stm32g4xx_ll_tim.h ****   */
 752:Drivers/STM32G4xx_HAL_Driver/Inc/stm32g4xx_ll_tim.h **** #define LL_TIM_OCSTATE_DISABLE                 0x00000000U             /*!< OCx is not active */
 753:Drivers/STM32G4xx_HAL_Driver/Inc/stm32g4xx_ll_tim.h **** #define LL_TIM_OCSTATE_ENABLE                  TIM_CCER_CC1E           /*!< OCx signal is output on
 754:Drivers/STM32G4xx_HAL_Driver/Inc/stm32g4xx_ll_tim.h **** /**
 755:Drivers/STM32G4xx_HAL_Driver/Inc/stm32g4xx_ll_tim.h ****   * @}
 756:Drivers/STM32G4xx_HAL_Driver/Inc/stm32g4xx_ll_tim.h ****   */
 757:Drivers/STM32G4xx_HAL_Driver/Inc/stm32g4xx_ll_tim.h **** #endif /* USE_FULL_LL_DRIVER */
 758:Drivers/STM32G4xx_HAL_Driver/Inc/stm32g4xx_ll_tim.h **** 
 759:Drivers/STM32G4xx_HAL_Driver/Inc/stm32g4xx_ll_tim.h **** /** Legacy definitions for compatibility purpose
 760:Drivers/STM32G4xx_HAL_Driver/Inc/stm32g4xx_ll_tim.h **** @cond 0
 761:Drivers/STM32G4xx_HAL_Driver/Inc/stm32g4xx_ll_tim.h ****   */
 762:Drivers/STM32G4xx_HAL_Driver/Inc/stm32g4xx_ll_tim.h **** #define LL_TIM_OCMODE_ASSYMETRIC_PWM1 LL_TIM_OCMODE_ASYMMETRIC_PWM1
 763:Drivers/STM32G4xx_HAL_Driver/Inc/stm32g4xx_ll_tim.h **** #define LL_TIM_OCMODE_ASSYMETRIC_PWM2 LL_TIM_OCMODE_ASYMMETRIC_PWM2
 764:Drivers/STM32G4xx_HAL_Driver/Inc/stm32g4xx_ll_tim.h **** /**
 765:Drivers/STM32G4xx_HAL_Driver/Inc/stm32g4xx_ll_tim.h **** @endcond
 766:Drivers/STM32G4xx_HAL_Driver/Inc/stm32g4xx_ll_tim.h ****   */
 767:Drivers/STM32G4xx_HAL_Driver/Inc/stm32g4xx_ll_tim.h **** 
 768:Drivers/STM32G4xx_HAL_Driver/Inc/stm32g4xx_ll_tim.h **** /** @defgroup TIM_LL_EC_OCMODE Output Configuration Mode
 769:Drivers/STM32G4xx_HAL_Driver/Inc/stm32g4xx_ll_tim.h ****   * @{
 770:Drivers/STM32G4xx_HAL_Driver/Inc/stm32g4xx_ll_tim.h ****   */
 771:Drivers/STM32G4xx_HAL_Driver/Inc/stm32g4xx_ll_tim.h **** #define LL_TIM_OCMODE_FROZEN                   0x00000000U                                         
 772:Drivers/STM32G4xx_HAL_Driver/Inc/stm32g4xx_ll_tim.h **** #define LL_TIM_OCMODE_ACTIVE                   TIM_CCMR1_OC1M_0                                    
 773:Drivers/STM32G4xx_HAL_Driver/Inc/stm32g4xx_ll_tim.h **** #define LL_TIM_OCMODE_INACTIVE                 TIM_CCMR1_OC1M_1                                    
 774:Drivers/STM32G4xx_HAL_Driver/Inc/stm32g4xx_ll_tim.h **** #define LL_TIM_OCMODE_TOGGLE                   (TIM_CCMR1_OC1M_1 | TIM_CCMR1_OC1M_0)               
 775:Drivers/STM32G4xx_HAL_Driver/Inc/stm32g4xx_ll_tim.h **** #define LL_TIM_OCMODE_FORCED_INACTIVE          TIM_CCMR1_OC1M_2                                    
 776:Drivers/STM32G4xx_HAL_Driver/Inc/stm32g4xx_ll_tim.h **** #define LL_TIM_OCMODE_FORCED_ACTIVE            (TIM_CCMR1_OC1M_2 | TIM_CCMR1_OC1M_0)               
ARM GAS  /tmp/ccF6ITrB.s 			page 59


 777:Drivers/STM32G4xx_HAL_Driver/Inc/stm32g4xx_ll_tim.h **** #define LL_TIM_OCMODE_PWM1                     (TIM_CCMR1_OC1M_2 | TIM_CCMR1_OC1M_1)               
 778:Drivers/STM32G4xx_HAL_Driver/Inc/stm32g4xx_ll_tim.h **** #define LL_TIM_OCMODE_PWM2                     (TIM_CCMR1_OC1M_2 | TIM_CCMR1_OC1M_1 | TIM_CCMR1_OC1
 779:Drivers/STM32G4xx_HAL_Driver/Inc/stm32g4xx_ll_tim.h **** #define LL_TIM_OCMODE_RETRIG_OPM1              TIM_CCMR1_OC1M_3                                    
 780:Drivers/STM32G4xx_HAL_Driver/Inc/stm32g4xx_ll_tim.h **** #define LL_TIM_OCMODE_RETRIG_OPM2              (TIM_CCMR1_OC1M_3 | TIM_CCMR1_OC1M_0)               
 781:Drivers/STM32G4xx_HAL_Driver/Inc/stm32g4xx_ll_tim.h **** #define LL_TIM_OCMODE_COMBINED_PWM1            (TIM_CCMR1_OC1M_3 | TIM_CCMR1_OC1M_2)               
 782:Drivers/STM32G4xx_HAL_Driver/Inc/stm32g4xx_ll_tim.h **** #define LL_TIM_OCMODE_COMBINED_PWM2            (TIM_CCMR1_OC1M_3 | TIM_CCMR1_OC1M_0 | TIM_CCMR1_OC1
 783:Drivers/STM32G4xx_HAL_Driver/Inc/stm32g4xx_ll_tim.h **** #define LL_TIM_OCMODE_ASYMMETRIC_PWM1          (TIM_CCMR1_OC1M_3 | TIM_CCMR1_OC1M_1 | TIM_CCMR1_OC1
 784:Drivers/STM32G4xx_HAL_Driver/Inc/stm32g4xx_ll_tim.h **** #define LL_TIM_OCMODE_ASYMMETRIC_PWM2          (TIM_CCMR1_OC1M_3 | TIM_CCMR1_OC1M)                 
 785:Drivers/STM32G4xx_HAL_Driver/Inc/stm32g4xx_ll_tim.h **** #define LL_TIM_OCMODE_PULSE_ON_COMPARE         (TIM_CCMR2_OC3M_3 | TIM_CCMR2_OC3M_1)               
 786:Drivers/STM32G4xx_HAL_Driver/Inc/stm32g4xx_ll_tim.h **** #define LL_TIM_OCMODE_DIRECTION_OUTPUT         (TIM_CCMR2_OC3M_3 | TIM_CCMR2_OC3M_1 | TIM_CCMR2_OC3
 787:Drivers/STM32G4xx_HAL_Driver/Inc/stm32g4xx_ll_tim.h **** /**
 788:Drivers/STM32G4xx_HAL_Driver/Inc/stm32g4xx_ll_tim.h ****   * @}
 789:Drivers/STM32G4xx_HAL_Driver/Inc/stm32g4xx_ll_tim.h ****   */
 790:Drivers/STM32G4xx_HAL_Driver/Inc/stm32g4xx_ll_tim.h **** 
 791:Drivers/STM32G4xx_HAL_Driver/Inc/stm32g4xx_ll_tim.h **** /** @defgroup TIM_LL_EC_OCPOLARITY Output Configuration Polarity
 792:Drivers/STM32G4xx_HAL_Driver/Inc/stm32g4xx_ll_tim.h ****   * @{
 793:Drivers/STM32G4xx_HAL_Driver/Inc/stm32g4xx_ll_tim.h ****   */
 794:Drivers/STM32G4xx_HAL_Driver/Inc/stm32g4xx_ll_tim.h **** #define LL_TIM_OCPOLARITY_HIGH                 0x00000000U                 /*!< OCxactive high*/
 795:Drivers/STM32G4xx_HAL_Driver/Inc/stm32g4xx_ll_tim.h **** #define LL_TIM_OCPOLARITY_LOW                  TIM_CCER_CC1P               /*!< OCxactive low*/
 796:Drivers/STM32G4xx_HAL_Driver/Inc/stm32g4xx_ll_tim.h **** /**
 797:Drivers/STM32G4xx_HAL_Driver/Inc/stm32g4xx_ll_tim.h ****   * @}
 798:Drivers/STM32G4xx_HAL_Driver/Inc/stm32g4xx_ll_tim.h ****   */
 799:Drivers/STM32G4xx_HAL_Driver/Inc/stm32g4xx_ll_tim.h **** 
 800:Drivers/STM32G4xx_HAL_Driver/Inc/stm32g4xx_ll_tim.h **** /** @defgroup TIM_LL_EC_OCIDLESTATE Output Configuration Idle State
 801:Drivers/STM32G4xx_HAL_Driver/Inc/stm32g4xx_ll_tim.h ****   * @{
 802:Drivers/STM32G4xx_HAL_Driver/Inc/stm32g4xx_ll_tim.h ****   */
 803:Drivers/STM32G4xx_HAL_Driver/Inc/stm32g4xx_ll_tim.h **** #define LL_TIM_OCIDLESTATE_LOW                 0x00000000U             /*!<OCx=0 (after a dead-time
 804:Drivers/STM32G4xx_HAL_Driver/Inc/stm32g4xx_ll_tim.h **** #define LL_TIM_OCIDLESTATE_HIGH                TIM_CR2_OIS1            /*!<OCx=1 (after a dead-time
 805:Drivers/STM32G4xx_HAL_Driver/Inc/stm32g4xx_ll_tim.h **** /**
 806:Drivers/STM32G4xx_HAL_Driver/Inc/stm32g4xx_ll_tim.h ****   * @}
 807:Drivers/STM32G4xx_HAL_Driver/Inc/stm32g4xx_ll_tim.h ****   */
 808:Drivers/STM32G4xx_HAL_Driver/Inc/stm32g4xx_ll_tim.h **** 
 809:Drivers/STM32G4xx_HAL_Driver/Inc/stm32g4xx_ll_tim.h **** /** @defgroup TIM_LL_EC_GROUPCH5 GROUPCH5
 810:Drivers/STM32G4xx_HAL_Driver/Inc/stm32g4xx_ll_tim.h ****   * @{
 811:Drivers/STM32G4xx_HAL_Driver/Inc/stm32g4xx_ll_tim.h ****   */
 812:Drivers/STM32G4xx_HAL_Driver/Inc/stm32g4xx_ll_tim.h **** #define LL_TIM_GROUPCH5_NONE                   0x00000000U           /*!< No effect of OC5REF on OC
 813:Drivers/STM32G4xx_HAL_Driver/Inc/stm32g4xx_ll_tim.h **** #define LL_TIM_GROUPCH5_OC1REFC                TIM_CCR5_GC5C1        /*!< OC1REFC is the logical AN
 814:Drivers/STM32G4xx_HAL_Driver/Inc/stm32g4xx_ll_tim.h **** #define LL_TIM_GROUPCH5_OC2REFC                TIM_CCR5_GC5C2        /*!< OC2REFC is the logical AN
 815:Drivers/STM32G4xx_HAL_Driver/Inc/stm32g4xx_ll_tim.h **** #define LL_TIM_GROUPCH5_OC3REFC                TIM_CCR5_GC5C3        /*!< OC3REFC is the logical AN
 816:Drivers/STM32G4xx_HAL_Driver/Inc/stm32g4xx_ll_tim.h **** /**
 817:Drivers/STM32G4xx_HAL_Driver/Inc/stm32g4xx_ll_tim.h ****   * @}
 818:Drivers/STM32G4xx_HAL_Driver/Inc/stm32g4xx_ll_tim.h ****   */
 819:Drivers/STM32G4xx_HAL_Driver/Inc/stm32g4xx_ll_tim.h **** 
 820:Drivers/STM32G4xx_HAL_Driver/Inc/stm32g4xx_ll_tim.h **** /** @defgroup TIM_LL_EC_ACTIVEINPUT Active Input Selection
 821:Drivers/STM32G4xx_HAL_Driver/Inc/stm32g4xx_ll_tim.h ****   * @{
 822:Drivers/STM32G4xx_HAL_Driver/Inc/stm32g4xx_ll_tim.h ****   */
 823:Drivers/STM32G4xx_HAL_Driver/Inc/stm32g4xx_ll_tim.h **** #define LL_TIM_ACTIVEINPUT_DIRECTTI            (TIM_CCMR1_CC1S_0 << 16U) /*!< ICx is mapped on TIx 
 824:Drivers/STM32G4xx_HAL_Driver/Inc/stm32g4xx_ll_tim.h **** #define LL_TIM_ACTIVEINPUT_INDIRECTTI          (TIM_CCMR1_CC1S_1 << 16U) /*!< ICx is mapped on TIy 
 825:Drivers/STM32G4xx_HAL_Driver/Inc/stm32g4xx_ll_tim.h **** #define LL_TIM_ACTIVEINPUT_TRC                 (TIM_CCMR1_CC1S << 16U)   /*!< ICx is mapped on TRC 
 826:Drivers/STM32G4xx_HAL_Driver/Inc/stm32g4xx_ll_tim.h **** /**
 827:Drivers/STM32G4xx_HAL_Driver/Inc/stm32g4xx_ll_tim.h ****   * @}
 828:Drivers/STM32G4xx_HAL_Driver/Inc/stm32g4xx_ll_tim.h ****   */
 829:Drivers/STM32G4xx_HAL_Driver/Inc/stm32g4xx_ll_tim.h **** 
 830:Drivers/STM32G4xx_HAL_Driver/Inc/stm32g4xx_ll_tim.h **** /** @defgroup TIM_LL_EC_ICPSC Input Configuration Prescaler
 831:Drivers/STM32G4xx_HAL_Driver/Inc/stm32g4xx_ll_tim.h ****   * @{
 832:Drivers/STM32G4xx_HAL_Driver/Inc/stm32g4xx_ll_tim.h ****   */
 833:Drivers/STM32G4xx_HAL_Driver/Inc/stm32g4xx_ll_tim.h **** #define LL_TIM_ICPSC_DIV1                      0x00000000U                    /*!< No prescaler, ca
ARM GAS  /tmp/ccF6ITrB.s 			page 60


 834:Drivers/STM32G4xx_HAL_Driver/Inc/stm32g4xx_ll_tim.h **** #define LL_TIM_ICPSC_DIV2                      (TIM_CCMR1_IC1PSC_0 << 16U)    /*!< Capture is done 
 835:Drivers/STM32G4xx_HAL_Driver/Inc/stm32g4xx_ll_tim.h **** #define LL_TIM_ICPSC_DIV4                      (TIM_CCMR1_IC1PSC_1 << 16U)    /*!< Capture is done 
 836:Drivers/STM32G4xx_HAL_Driver/Inc/stm32g4xx_ll_tim.h **** #define LL_TIM_ICPSC_DIV8                      (TIM_CCMR1_IC1PSC << 16U)      /*!< Capture is done 
 837:Drivers/STM32G4xx_HAL_Driver/Inc/stm32g4xx_ll_tim.h **** /**
 838:Drivers/STM32G4xx_HAL_Driver/Inc/stm32g4xx_ll_tim.h ****   * @}
 839:Drivers/STM32G4xx_HAL_Driver/Inc/stm32g4xx_ll_tim.h ****   */
 840:Drivers/STM32G4xx_HAL_Driver/Inc/stm32g4xx_ll_tim.h **** 
 841:Drivers/STM32G4xx_HAL_Driver/Inc/stm32g4xx_ll_tim.h **** /** @defgroup TIM_LL_EC_IC_FILTER Input Configuration Filter
 842:Drivers/STM32G4xx_HAL_Driver/Inc/stm32g4xx_ll_tim.h ****   * @{
 843:Drivers/STM32G4xx_HAL_Driver/Inc/stm32g4xx_ll_tim.h ****   */
 844:Drivers/STM32G4xx_HAL_Driver/Inc/stm32g4xx_ll_tim.h **** #define LL_TIM_IC_FILTER_FDIV1                 0x00000000U                                         
 845:Drivers/STM32G4xx_HAL_Driver/Inc/stm32g4xx_ll_tim.h **** #define LL_TIM_IC_FILTER_FDIV1_N2              (TIM_CCMR1_IC1F_0 << 16U)                           
 846:Drivers/STM32G4xx_HAL_Driver/Inc/stm32g4xx_ll_tim.h **** #define LL_TIM_IC_FILTER_FDIV1_N4              (TIM_CCMR1_IC1F_1 << 16U)                           
 847:Drivers/STM32G4xx_HAL_Driver/Inc/stm32g4xx_ll_tim.h **** #define LL_TIM_IC_FILTER_FDIV1_N8              ((TIM_CCMR1_IC1F_1 | TIM_CCMR1_IC1F_0) << 16U)      
 848:Drivers/STM32G4xx_HAL_Driver/Inc/stm32g4xx_ll_tim.h **** #define LL_TIM_IC_FILTER_FDIV2_N6              (TIM_CCMR1_IC1F_2 << 16U)                           
 849:Drivers/STM32G4xx_HAL_Driver/Inc/stm32g4xx_ll_tim.h **** #define LL_TIM_IC_FILTER_FDIV2_N8              ((TIM_CCMR1_IC1F_2 | TIM_CCMR1_IC1F_0) << 16U)      
 850:Drivers/STM32G4xx_HAL_Driver/Inc/stm32g4xx_ll_tim.h **** #define LL_TIM_IC_FILTER_FDIV4_N6              ((TIM_CCMR1_IC1F_2 | TIM_CCMR1_IC1F_1) << 16U)      
 851:Drivers/STM32G4xx_HAL_Driver/Inc/stm32g4xx_ll_tim.h **** #define LL_TIM_IC_FILTER_FDIV4_N8              ((TIM_CCMR1_IC1F_2 | TIM_CCMR1_IC1F_1 | TIM_CCMR1_IC
 852:Drivers/STM32G4xx_HAL_Driver/Inc/stm32g4xx_ll_tim.h **** #define LL_TIM_IC_FILTER_FDIV8_N6              (TIM_CCMR1_IC1F_3 << 16U)                           
 853:Drivers/STM32G4xx_HAL_Driver/Inc/stm32g4xx_ll_tim.h **** #define LL_TIM_IC_FILTER_FDIV8_N8              ((TIM_CCMR1_IC1F_3 | TIM_CCMR1_IC1F_0) << 16U)      
 854:Drivers/STM32G4xx_HAL_Driver/Inc/stm32g4xx_ll_tim.h **** #define LL_TIM_IC_FILTER_FDIV16_N5             ((TIM_CCMR1_IC1F_3 | TIM_CCMR1_IC1F_1) << 16U)      
 855:Drivers/STM32G4xx_HAL_Driver/Inc/stm32g4xx_ll_tim.h **** #define LL_TIM_IC_FILTER_FDIV16_N6             ((TIM_CCMR1_IC1F_3 | TIM_CCMR1_IC1F_1 | TIM_CCMR1_IC
 856:Drivers/STM32G4xx_HAL_Driver/Inc/stm32g4xx_ll_tim.h **** #define LL_TIM_IC_FILTER_FDIV16_N8             ((TIM_CCMR1_IC1F_3 | TIM_CCMR1_IC1F_2) << 16U)      
 857:Drivers/STM32G4xx_HAL_Driver/Inc/stm32g4xx_ll_tim.h **** #define LL_TIM_IC_FILTER_FDIV32_N5             ((TIM_CCMR1_IC1F_3 | TIM_CCMR1_IC1F_2 | TIM_CCMR1_IC
 858:Drivers/STM32G4xx_HAL_Driver/Inc/stm32g4xx_ll_tim.h **** #define LL_TIM_IC_FILTER_FDIV32_N6             ((TIM_CCMR1_IC1F_3 | TIM_CCMR1_IC1F_2 | TIM_CCMR1_IC
 859:Drivers/STM32G4xx_HAL_Driver/Inc/stm32g4xx_ll_tim.h **** #define LL_TIM_IC_FILTER_FDIV32_N8             (TIM_CCMR1_IC1F << 16U)                             
 860:Drivers/STM32G4xx_HAL_Driver/Inc/stm32g4xx_ll_tim.h **** /**
 861:Drivers/STM32G4xx_HAL_Driver/Inc/stm32g4xx_ll_tim.h ****   * @}
 862:Drivers/STM32G4xx_HAL_Driver/Inc/stm32g4xx_ll_tim.h ****   */
 863:Drivers/STM32G4xx_HAL_Driver/Inc/stm32g4xx_ll_tim.h **** 
 864:Drivers/STM32G4xx_HAL_Driver/Inc/stm32g4xx_ll_tim.h **** /** @defgroup TIM_LL_EC_IC_POLARITY Input Configuration Polarity
 865:Drivers/STM32G4xx_HAL_Driver/Inc/stm32g4xx_ll_tim.h ****   * @{
 866:Drivers/STM32G4xx_HAL_Driver/Inc/stm32g4xx_ll_tim.h ****   */
 867:Drivers/STM32G4xx_HAL_Driver/Inc/stm32g4xx_ll_tim.h **** #define LL_TIM_IC_POLARITY_RISING              0x00000000U                      /*!< The circuit is
 868:Drivers/STM32G4xx_HAL_Driver/Inc/stm32g4xx_ll_tim.h **** #define LL_TIM_IC_POLARITY_FALLING             TIM_CCER_CC1P                    /*!< The circuit is
 869:Drivers/STM32G4xx_HAL_Driver/Inc/stm32g4xx_ll_tim.h **** #define LL_TIM_IC_POLARITY_BOTHEDGE            (TIM_CCER_CC1P | TIM_CCER_CC1NP) /*!< The circuit is
 870:Drivers/STM32G4xx_HAL_Driver/Inc/stm32g4xx_ll_tim.h **** /**
 871:Drivers/STM32G4xx_HAL_Driver/Inc/stm32g4xx_ll_tim.h ****   * @}
 872:Drivers/STM32G4xx_HAL_Driver/Inc/stm32g4xx_ll_tim.h ****   */
 873:Drivers/STM32G4xx_HAL_Driver/Inc/stm32g4xx_ll_tim.h **** 
 874:Drivers/STM32G4xx_HAL_Driver/Inc/stm32g4xx_ll_tim.h **** /** @defgroup TIM_LL_EC_CLOCKSOURCE Clock Source
 875:Drivers/STM32G4xx_HAL_Driver/Inc/stm32g4xx_ll_tim.h ****   * @{
 876:Drivers/STM32G4xx_HAL_Driver/Inc/stm32g4xx_ll_tim.h ****   */
 877:Drivers/STM32G4xx_HAL_Driver/Inc/stm32g4xx_ll_tim.h **** #define LL_TIM_CLOCKSOURCE_INTERNAL            0x00000000U                                         
 878:Drivers/STM32G4xx_HAL_Driver/Inc/stm32g4xx_ll_tim.h **** #define LL_TIM_CLOCKSOURCE_EXT_MODE1           (TIM_SMCR_SMS_2 | TIM_SMCR_SMS_1 | TIM_SMCR_SMS_0)  
 879:Drivers/STM32G4xx_HAL_Driver/Inc/stm32g4xx_ll_tim.h **** #define LL_TIM_CLOCKSOURCE_EXT_MODE2           TIM_SMCR_ECE                                        
 880:Drivers/STM32G4xx_HAL_Driver/Inc/stm32g4xx_ll_tim.h **** /**
 881:Drivers/STM32G4xx_HAL_Driver/Inc/stm32g4xx_ll_tim.h ****   * @}
 882:Drivers/STM32G4xx_HAL_Driver/Inc/stm32g4xx_ll_tim.h ****   */
 883:Drivers/STM32G4xx_HAL_Driver/Inc/stm32g4xx_ll_tim.h **** 
 884:Drivers/STM32G4xx_HAL_Driver/Inc/stm32g4xx_ll_tim.h **** /** @defgroup TIM_LL_EC_ENCODERMODE Encoder Mode
 885:Drivers/STM32G4xx_HAL_Driver/Inc/stm32g4xx_ll_tim.h ****   * @{
 886:Drivers/STM32G4xx_HAL_Driver/Inc/stm32g4xx_ll_tim.h ****   */
 887:Drivers/STM32G4xx_HAL_Driver/Inc/stm32g4xx_ll_tim.h **** #define LL_TIM_ENCODERMODE_X2_TI1                     TIM_SMCR_SMS_0                               
 888:Drivers/STM32G4xx_HAL_Driver/Inc/stm32g4xx_ll_tim.h **** #define LL_TIM_ENCODERMODE_X2_TI2                     TIM_SMCR_SMS_1                               
 889:Drivers/STM32G4xx_HAL_Driver/Inc/stm32g4xx_ll_tim.h **** #define LL_TIM_ENCODERMODE_X4_TI12                   (TIM_SMCR_SMS_1 | TIM_SMCR_SMS_0)             
 890:Drivers/STM32G4xx_HAL_Driver/Inc/stm32g4xx_ll_tim.h **** #define LL_TIM_ENCODERMODE_CLOCKPLUSDIRECTION_X2     (TIM_SMCR_SMS_3 | TIM_SMCR_SMS_1)             
ARM GAS  /tmp/ccF6ITrB.s 			page 61


 891:Drivers/STM32G4xx_HAL_Driver/Inc/stm32g4xx_ll_tim.h **** #define LL_TIM_ENCODERMODE_CLOCKPLUSDIRECTION_X1     (TIM_SMCR_SMS_3 | TIM_SMCR_SMS_1 | TIM_SMCR_SM
 892:Drivers/STM32G4xx_HAL_Driver/Inc/stm32g4xx_ll_tim.h **** #define LL_TIM_ENCODERMODE_DIRECTIONALCLOCK_X2       (TIM_SMCR_SMS_3 | TIM_SMCR_SMS_2)             
 893:Drivers/STM32G4xx_HAL_Driver/Inc/stm32g4xx_ll_tim.h **** #define LL_TIM_ENCODERMODE_DIRECTIONALCLOCK_X1_TI12  (TIM_SMCR_SMS_3 | TIM_SMCR_SMS_2 | TIM_SMCR_SM
 894:Drivers/STM32G4xx_HAL_Driver/Inc/stm32g4xx_ll_tim.h **** #define LL_TIM_ENCODERMODE_X1_TI1                    (TIM_SMCR_SMS_3 | TIM_SMCR_SMS_2 | TIM_SMCR_SM
 895:Drivers/STM32G4xx_HAL_Driver/Inc/stm32g4xx_ll_tim.h **** #define LL_TIM_ENCODERMODE_X1_TI2                    (TIM_SMCR_SMS_3 | TIM_SMCR_SMS_2 | TIM_SMCR_SM
 896:Drivers/STM32G4xx_HAL_Driver/Inc/stm32g4xx_ll_tim.h **** /**
 897:Drivers/STM32G4xx_HAL_Driver/Inc/stm32g4xx_ll_tim.h ****   * @}
 898:Drivers/STM32G4xx_HAL_Driver/Inc/stm32g4xx_ll_tim.h ****   */
 899:Drivers/STM32G4xx_HAL_Driver/Inc/stm32g4xx_ll_tim.h **** 
 900:Drivers/STM32G4xx_HAL_Driver/Inc/stm32g4xx_ll_tim.h **** /** @defgroup TIM_LL_EC_TRGO Trigger Output
 901:Drivers/STM32G4xx_HAL_Driver/Inc/stm32g4xx_ll_tim.h ****   * @{
 902:Drivers/STM32G4xx_HAL_Driver/Inc/stm32g4xx_ll_tim.h ****   */
 903:Drivers/STM32G4xx_HAL_Driver/Inc/stm32g4xx_ll_tim.h **** #define LL_TIM_TRGO_RESET                      0x00000000U                                     /*!<
 904:Drivers/STM32G4xx_HAL_Driver/Inc/stm32g4xx_ll_tim.h **** #define LL_TIM_TRGO_ENABLE                     TIM_CR2_MMS_0                                   /*!<
 905:Drivers/STM32G4xx_HAL_Driver/Inc/stm32g4xx_ll_tim.h **** #define LL_TIM_TRGO_UPDATE                     TIM_CR2_MMS_1                                   /*!<
 906:Drivers/STM32G4xx_HAL_Driver/Inc/stm32g4xx_ll_tim.h **** #define LL_TIM_TRGO_CC1IF                      (TIM_CR2_MMS_1 | TIM_CR2_MMS_0)                 /*!<
 907:Drivers/STM32G4xx_HAL_Driver/Inc/stm32g4xx_ll_tim.h **** #define LL_TIM_TRGO_OC1REF                     TIM_CR2_MMS_2                                   /*!<
 908:Drivers/STM32G4xx_HAL_Driver/Inc/stm32g4xx_ll_tim.h **** #define LL_TIM_TRGO_OC2REF                     (TIM_CR2_MMS_2 | TIM_CR2_MMS_0)                 /*!<
 909:Drivers/STM32G4xx_HAL_Driver/Inc/stm32g4xx_ll_tim.h **** #define LL_TIM_TRGO_OC3REF                     (TIM_CR2_MMS_2 | TIM_CR2_MMS_1)                 /*!<
 910:Drivers/STM32G4xx_HAL_Driver/Inc/stm32g4xx_ll_tim.h **** #define LL_TIM_TRGO_OC4REF                     (TIM_CR2_MMS_2 | TIM_CR2_MMS_1 | TIM_CR2_MMS_0) /*!<
 911:Drivers/STM32G4xx_HAL_Driver/Inc/stm32g4xx_ll_tim.h **** #define LL_TIM_TRGO_ENCODERCLK                 TIM_CR2_MMS_3                                   /*!<
 912:Drivers/STM32G4xx_HAL_Driver/Inc/stm32g4xx_ll_tim.h **** /**
 913:Drivers/STM32G4xx_HAL_Driver/Inc/stm32g4xx_ll_tim.h ****   * @}
 914:Drivers/STM32G4xx_HAL_Driver/Inc/stm32g4xx_ll_tim.h ****   */
 915:Drivers/STM32G4xx_HAL_Driver/Inc/stm32g4xx_ll_tim.h **** 
 916:Drivers/STM32G4xx_HAL_Driver/Inc/stm32g4xx_ll_tim.h **** /** @defgroup TIM_LL_EC_TRGO2 Trigger Output 2
 917:Drivers/STM32G4xx_HAL_Driver/Inc/stm32g4xx_ll_tim.h ****   * @{
 918:Drivers/STM32G4xx_HAL_Driver/Inc/stm32g4xx_ll_tim.h ****   */
 919:Drivers/STM32G4xx_HAL_Driver/Inc/stm32g4xx_ll_tim.h **** #define LL_TIM_TRGO2_RESET                     0x00000000U                                         
 920:Drivers/STM32G4xx_HAL_Driver/Inc/stm32g4xx_ll_tim.h **** #define LL_TIM_TRGO2_ENABLE                    TIM_CR2_MMS2_0                                      
 921:Drivers/STM32G4xx_HAL_Driver/Inc/stm32g4xx_ll_tim.h **** #define LL_TIM_TRGO2_UPDATE                    TIM_CR2_MMS2_1                                      
 922:Drivers/STM32G4xx_HAL_Driver/Inc/stm32g4xx_ll_tim.h **** #define LL_TIM_TRGO2_CC1F                      (TIM_CR2_MMS2_1 | TIM_CR2_MMS2_0)                   
 923:Drivers/STM32G4xx_HAL_Driver/Inc/stm32g4xx_ll_tim.h **** #define LL_TIM_TRGO2_OC1                       TIM_CR2_MMS2_2                                      
 924:Drivers/STM32G4xx_HAL_Driver/Inc/stm32g4xx_ll_tim.h **** #define LL_TIM_TRGO2_OC2                       (TIM_CR2_MMS2_2 | TIM_CR2_MMS2_0)                   
 925:Drivers/STM32G4xx_HAL_Driver/Inc/stm32g4xx_ll_tim.h **** #define LL_TIM_TRGO2_OC3                       (TIM_CR2_MMS2_2 | TIM_CR2_MMS2_1)                   
 926:Drivers/STM32G4xx_HAL_Driver/Inc/stm32g4xx_ll_tim.h **** #define LL_TIM_TRGO2_OC4                       (TIM_CR2_MMS2_2 | TIM_CR2_MMS2_1 | TIM_CR2_MMS2_0)  
 927:Drivers/STM32G4xx_HAL_Driver/Inc/stm32g4xx_ll_tim.h **** #define LL_TIM_TRGO2_OC5                       TIM_CR2_MMS2_3                                      
 928:Drivers/STM32G4xx_HAL_Driver/Inc/stm32g4xx_ll_tim.h **** #define LL_TIM_TRGO2_OC6                       (TIM_CR2_MMS2_3 | TIM_CR2_MMS2_0)                   
 929:Drivers/STM32G4xx_HAL_Driver/Inc/stm32g4xx_ll_tim.h **** #define LL_TIM_TRGO2_OC4_RISINGFALLING         (TIM_CR2_MMS2_3 | TIM_CR2_MMS2_1)                   
 930:Drivers/STM32G4xx_HAL_Driver/Inc/stm32g4xx_ll_tim.h **** #define LL_TIM_TRGO2_OC6_RISINGFALLING         (TIM_CR2_MMS2_3 | TIM_CR2_MMS2_1 | TIM_CR2_MMS2_0)  
 931:Drivers/STM32G4xx_HAL_Driver/Inc/stm32g4xx_ll_tim.h **** #define LL_TIM_TRGO2_OC4_RISING_OC6_RISING     (TIM_CR2_MMS2_3 | TIM_CR2_MMS2_2)                   
 932:Drivers/STM32G4xx_HAL_Driver/Inc/stm32g4xx_ll_tim.h **** #define LL_TIM_TRGO2_OC4_RISING_OC6_FALLING    (TIM_CR2_MMS2_3 | TIM_CR2_MMS2_2 | TIM_CR2_MMS2_0)  
 933:Drivers/STM32G4xx_HAL_Driver/Inc/stm32g4xx_ll_tim.h **** #define LL_TIM_TRGO2_OC5_RISING_OC6_RISING     (TIM_CR2_MMS2_3 | TIM_CR2_MMS2_2 |TIM_CR2_MMS2_1)   
 934:Drivers/STM32G4xx_HAL_Driver/Inc/stm32g4xx_ll_tim.h **** #define LL_TIM_TRGO2_OC5_RISING_OC6_FALLING    (TIM_CR2_MMS2_3 | TIM_CR2_MMS2_2 | TIM_CR2_MMS2_1 | 
 935:Drivers/STM32G4xx_HAL_Driver/Inc/stm32g4xx_ll_tim.h **** /**
 936:Drivers/STM32G4xx_HAL_Driver/Inc/stm32g4xx_ll_tim.h ****   * @}
 937:Drivers/STM32G4xx_HAL_Driver/Inc/stm32g4xx_ll_tim.h ****   */
 938:Drivers/STM32G4xx_HAL_Driver/Inc/stm32g4xx_ll_tim.h **** 
 939:Drivers/STM32G4xx_HAL_Driver/Inc/stm32g4xx_ll_tim.h **** /** @defgroup TIM_LL_EC_SLAVEMODE Slave Mode
 940:Drivers/STM32G4xx_HAL_Driver/Inc/stm32g4xx_ll_tim.h ****   * @{
 941:Drivers/STM32G4xx_HAL_Driver/Inc/stm32g4xx_ll_tim.h ****   */
 942:Drivers/STM32G4xx_HAL_Driver/Inc/stm32g4xx_ll_tim.h **** #define LL_TIM_SLAVEMODE_DISABLED              0x00000000U                         /*!< Slave mode 
 943:Drivers/STM32G4xx_HAL_Driver/Inc/stm32g4xx_ll_tim.h **** #define LL_TIM_SLAVEMODE_RESET                 TIM_SMCR_SMS_2                      /*!< Reset Mode 
 944:Drivers/STM32G4xx_HAL_Driver/Inc/stm32g4xx_ll_tim.h **** #define LL_TIM_SLAVEMODE_GATED                 (TIM_SMCR_SMS_2 | TIM_SMCR_SMS_0)   /*!< Gated Mode 
 945:Drivers/STM32G4xx_HAL_Driver/Inc/stm32g4xx_ll_tim.h **** #define LL_TIM_SLAVEMODE_TRIGGER               (TIM_SMCR_SMS_2 | TIM_SMCR_SMS_1)   /*!< Trigger Mod
 946:Drivers/STM32G4xx_HAL_Driver/Inc/stm32g4xx_ll_tim.h **** #define LL_TIM_SLAVEMODE_COMBINED_RESETTRIGGER TIM_SMCR_SMS_3                      /*!< Combined re
 947:Drivers/STM32G4xx_HAL_Driver/Inc/stm32g4xx_ll_tim.h **** #define LL_TIM_SLAVEMODE_COMBINED_GATEDRESET   (TIM_SMCR_SMS_3 | TIM_SMCR_SMS_0)   /*!< Combined ga
ARM GAS  /tmp/ccF6ITrB.s 			page 62


 948:Drivers/STM32G4xx_HAL_Driver/Inc/stm32g4xx_ll_tim.h ****                                                                                         the counter
 949:Drivers/STM32G4xx_HAL_Driver/Inc/stm32g4xx_ll_tim.h **** /**
 950:Drivers/STM32G4xx_HAL_Driver/Inc/stm32g4xx_ll_tim.h ****   * @}
 951:Drivers/STM32G4xx_HAL_Driver/Inc/stm32g4xx_ll_tim.h ****   */
 952:Drivers/STM32G4xx_HAL_Driver/Inc/stm32g4xx_ll_tim.h **** 
 953:Drivers/STM32G4xx_HAL_Driver/Inc/stm32g4xx_ll_tim.h **** /** @defgroup TIM_LL_EC_SMS_PRELOAD_SOURCE SMS Preload Source
 954:Drivers/STM32G4xx_HAL_Driver/Inc/stm32g4xx_ll_tim.h ****   * @{
 955:Drivers/STM32G4xx_HAL_Driver/Inc/stm32g4xx_ll_tim.h ****   */
 956:Drivers/STM32G4xx_HAL_Driver/Inc/stm32g4xx_ll_tim.h **** #define LL_TIM_SMSPS_TIMUPDATE                 0x00000000U                         /*!< The SMS pre
 957:Drivers/STM32G4xx_HAL_Driver/Inc/stm32g4xx_ll_tim.h **** #define LL_TIM_SMSPS_INDEX                     TIM_SMCR_SMSPS                      /*!< The SMS pre
 958:Drivers/STM32G4xx_HAL_Driver/Inc/stm32g4xx_ll_tim.h **** /**
 959:Drivers/STM32G4xx_HAL_Driver/Inc/stm32g4xx_ll_tim.h ****   * @}
 960:Drivers/STM32G4xx_HAL_Driver/Inc/stm32g4xx_ll_tim.h ****   */
 961:Drivers/STM32G4xx_HAL_Driver/Inc/stm32g4xx_ll_tim.h **** 
 962:Drivers/STM32G4xx_HAL_Driver/Inc/stm32g4xx_ll_tim.h **** /** @defgroup TIM_LL_EC_TS Trigger Selection
 963:Drivers/STM32G4xx_HAL_Driver/Inc/stm32g4xx_ll_tim.h ****   * @{
 964:Drivers/STM32G4xx_HAL_Driver/Inc/stm32g4xx_ll_tim.h ****   */
 965:Drivers/STM32G4xx_HAL_Driver/Inc/stm32g4xx_ll_tim.h **** #define LL_TIM_TS_ITR0                         0x00000000U                                         
 966:Drivers/STM32G4xx_HAL_Driver/Inc/stm32g4xx_ll_tim.h **** #define LL_TIM_TS_ITR1                         TIM_SMCR_TS_0                                       
 967:Drivers/STM32G4xx_HAL_Driver/Inc/stm32g4xx_ll_tim.h **** #define LL_TIM_TS_ITR2                         TIM_SMCR_TS_1                                       
 968:Drivers/STM32G4xx_HAL_Driver/Inc/stm32g4xx_ll_tim.h **** #define LL_TIM_TS_ITR3                         (TIM_SMCR_TS_0 | TIM_SMCR_TS_1)                     
 969:Drivers/STM32G4xx_HAL_Driver/Inc/stm32g4xx_ll_tim.h **** #define LL_TIM_TS_ITR4                         TIM_SMCR_TS_3                                       
 970:Drivers/STM32G4xx_HAL_Driver/Inc/stm32g4xx_ll_tim.h **** #define LL_TIM_TS_ITR5                         (TIM_SMCR_TS_3 | TIM_SMCR_TS_0)                     
 971:Drivers/STM32G4xx_HAL_Driver/Inc/stm32g4xx_ll_tim.h **** #define LL_TIM_TS_ITR6                         (TIM_SMCR_TS_3 | TIM_SMCR_TS_1)                     
 972:Drivers/STM32G4xx_HAL_Driver/Inc/stm32g4xx_ll_tim.h **** #define LL_TIM_TS_ITR7                         (TIM_SMCR_TS_3 | TIM_SMCR_TS_1 | TIM_SMCR_TS_0)     
 973:Drivers/STM32G4xx_HAL_Driver/Inc/stm32g4xx_ll_tim.h **** #define LL_TIM_TS_ITR8                         (TIM_SMCR_TS_3 | TIM_SMCR_TS_2)                     
 974:Drivers/STM32G4xx_HAL_Driver/Inc/stm32g4xx_ll_tim.h **** #define LL_TIM_TS_ITR9                         (TIM_SMCR_TS_3 | TIM_SMCR_TS_2 | TIM_SMCR_TS_0)     
 975:Drivers/STM32G4xx_HAL_Driver/Inc/stm32g4xx_ll_tim.h **** #define LL_TIM_TS_ITR10                        (TIM_SMCR_TS_3 | TIM_SMCR_TS_2 | TIM_SMCR_TS_1)     
 976:Drivers/STM32G4xx_HAL_Driver/Inc/stm32g4xx_ll_tim.h **** #define LL_TIM_TS_ITR11                        (TIM_SMCR_TS_3 | TIM_SMCR_TS_2 | TIM_SMCR_TS_1 | TIM
 977:Drivers/STM32G4xx_HAL_Driver/Inc/stm32g4xx_ll_tim.h **** #define LL_TIM_TS_TI1F_ED                      TIM_SMCR_TS_2                                       
 978:Drivers/STM32G4xx_HAL_Driver/Inc/stm32g4xx_ll_tim.h **** #define LL_TIM_TS_TI1FP1                       (TIM_SMCR_TS_2 | TIM_SMCR_TS_0)                     
 979:Drivers/STM32G4xx_HAL_Driver/Inc/stm32g4xx_ll_tim.h **** #define LL_TIM_TS_TI2FP2                       (TIM_SMCR_TS_2 | TIM_SMCR_TS_1)                     
 980:Drivers/STM32G4xx_HAL_Driver/Inc/stm32g4xx_ll_tim.h **** #define LL_TIM_TS_ETRF                         (TIM_SMCR_TS_2 | TIM_SMCR_TS_1 | TIM_SMCR_TS_0)     
 981:Drivers/STM32G4xx_HAL_Driver/Inc/stm32g4xx_ll_tim.h **** /**
 982:Drivers/STM32G4xx_HAL_Driver/Inc/stm32g4xx_ll_tim.h ****   * @}
 983:Drivers/STM32G4xx_HAL_Driver/Inc/stm32g4xx_ll_tim.h ****   */
 984:Drivers/STM32G4xx_HAL_Driver/Inc/stm32g4xx_ll_tim.h **** 
 985:Drivers/STM32G4xx_HAL_Driver/Inc/stm32g4xx_ll_tim.h **** /** @defgroup TIM_LL_EC_ETR_POLARITY External Trigger Polarity
 986:Drivers/STM32G4xx_HAL_Driver/Inc/stm32g4xx_ll_tim.h ****   * @{
 987:Drivers/STM32G4xx_HAL_Driver/Inc/stm32g4xx_ll_tim.h ****   */
 988:Drivers/STM32G4xx_HAL_Driver/Inc/stm32g4xx_ll_tim.h **** #define LL_TIM_ETR_POLARITY_NONINVERTED        0x00000000U             /*!< ETR is non-inverted, ac
 989:Drivers/STM32G4xx_HAL_Driver/Inc/stm32g4xx_ll_tim.h **** #define LL_TIM_ETR_POLARITY_INVERTED           TIM_SMCR_ETP            /*!< ETR is inverted, active
 990:Drivers/STM32G4xx_HAL_Driver/Inc/stm32g4xx_ll_tim.h **** /**
 991:Drivers/STM32G4xx_HAL_Driver/Inc/stm32g4xx_ll_tim.h ****   * @}
 992:Drivers/STM32G4xx_HAL_Driver/Inc/stm32g4xx_ll_tim.h ****   */
 993:Drivers/STM32G4xx_HAL_Driver/Inc/stm32g4xx_ll_tim.h **** 
 994:Drivers/STM32G4xx_HAL_Driver/Inc/stm32g4xx_ll_tim.h **** /** @defgroup TIM_LL_EC_ETR_PRESCALER External Trigger Prescaler
 995:Drivers/STM32G4xx_HAL_Driver/Inc/stm32g4xx_ll_tim.h ****   * @{
 996:Drivers/STM32G4xx_HAL_Driver/Inc/stm32g4xx_ll_tim.h ****   */
 997:Drivers/STM32G4xx_HAL_Driver/Inc/stm32g4xx_ll_tim.h **** #define LL_TIM_ETR_PRESCALER_DIV1              0x00000000U             /*!< ETR prescaler OFF */
 998:Drivers/STM32G4xx_HAL_Driver/Inc/stm32g4xx_ll_tim.h **** #define LL_TIM_ETR_PRESCALER_DIV2              TIM_SMCR_ETPS_0         /*!< ETR frequency is divide
 999:Drivers/STM32G4xx_HAL_Driver/Inc/stm32g4xx_ll_tim.h **** #define LL_TIM_ETR_PRESCALER_DIV4              TIM_SMCR_ETPS_1         /*!< ETR frequency is divide
1000:Drivers/STM32G4xx_HAL_Driver/Inc/stm32g4xx_ll_tim.h **** #define LL_TIM_ETR_PRESCALER_DIV8              TIM_SMCR_ETPS           /*!< ETR frequency is divide
1001:Drivers/STM32G4xx_HAL_Driver/Inc/stm32g4xx_ll_tim.h **** /**
1002:Drivers/STM32G4xx_HAL_Driver/Inc/stm32g4xx_ll_tim.h ****   * @}
1003:Drivers/STM32G4xx_HAL_Driver/Inc/stm32g4xx_ll_tim.h ****   */
1004:Drivers/STM32G4xx_HAL_Driver/Inc/stm32g4xx_ll_tim.h **** 
ARM GAS  /tmp/ccF6ITrB.s 			page 63


1005:Drivers/STM32G4xx_HAL_Driver/Inc/stm32g4xx_ll_tim.h **** /** @defgroup TIM_LL_EC_ETR_FILTER External Trigger Filter
1006:Drivers/STM32G4xx_HAL_Driver/Inc/stm32g4xx_ll_tim.h ****   * @{
1007:Drivers/STM32G4xx_HAL_Driver/Inc/stm32g4xx_ll_tim.h ****   */
1008:Drivers/STM32G4xx_HAL_Driver/Inc/stm32g4xx_ll_tim.h **** #define LL_TIM_ETR_FILTER_FDIV1                0x00000000U                                         
1009:Drivers/STM32G4xx_HAL_Driver/Inc/stm32g4xx_ll_tim.h **** #define LL_TIM_ETR_FILTER_FDIV1_N2             TIM_SMCR_ETF_0                                      
1010:Drivers/STM32G4xx_HAL_Driver/Inc/stm32g4xx_ll_tim.h **** #define LL_TIM_ETR_FILTER_FDIV1_N4             TIM_SMCR_ETF_1                                      
1011:Drivers/STM32G4xx_HAL_Driver/Inc/stm32g4xx_ll_tim.h **** #define LL_TIM_ETR_FILTER_FDIV1_N8             (TIM_SMCR_ETF_1 | TIM_SMCR_ETF_0)                   
1012:Drivers/STM32G4xx_HAL_Driver/Inc/stm32g4xx_ll_tim.h **** #define LL_TIM_ETR_FILTER_FDIV2_N6             TIM_SMCR_ETF_2                                      
1013:Drivers/STM32G4xx_HAL_Driver/Inc/stm32g4xx_ll_tim.h **** #define LL_TIM_ETR_FILTER_FDIV2_N8             (TIM_SMCR_ETF_2 | TIM_SMCR_ETF_0)                   
1014:Drivers/STM32G4xx_HAL_Driver/Inc/stm32g4xx_ll_tim.h **** #define LL_TIM_ETR_FILTER_FDIV4_N6             (TIM_SMCR_ETF_2 | TIM_SMCR_ETF_1)                   
1015:Drivers/STM32G4xx_HAL_Driver/Inc/stm32g4xx_ll_tim.h **** #define LL_TIM_ETR_FILTER_FDIV4_N8             (TIM_SMCR_ETF_2 | TIM_SMCR_ETF_1 | TIM_SMCR_ETF_0)  
1016:Drivers/STM32G4xx_HAL_Driver/Inc/stm32g4xx_ll_tim.h **** #define LL_TIM_ETR_FILTER_FDIV8_N6             TIM_SMCR_ETF_3                                      
1017:Drivers/STM32G4xx_HAL_Driver/Inc/stm32g4xx_ll_tim.h **** #define LL_TIM_ETR_FILTER_FDIV8_N8             (TIM_SMCR_ETF_3 | TIM_SMCR_ETF_0)                   
1018:Drivers/STM32G4xx_HAL_Driver/Inc/stm32g4xx_ll_tim.h **** #define LL_TIM_ETR_FILTER_FDIV16_N5            (TIM_SMCR_ETF_3 | TIM_SMCR_ETF_1)                   
1019:Drivers/STM32G4xx_HAL_Driver/Inc/stm32g4xx_ll_tim.h **** #define LL_TIM_ETR_FILTER_FDIV16_N6            (TIM_SMCR_ETF_3 | TIM_SMCR_ETF_1 | TIM_SMCR_ETF_0)  
1020:Drivers/STM32G4xx_HAL_Driver/Inc/stm32g4xx_ll_tim.h **** #define LL_TIM_ETR_FILTER_FDIV16_N8            (TIM_SMCR_ETF_3 | TIM_SMCR_ETF_2)                   
1021:Drivers/STM32G4xx_HAL_Driver/Inc/stm32g4xx_ll_tim.h **** #define LL_TIM_ETR_FILTER_FDIV32_N5            (TIM_SMCR_ETF_3 | TIM_SMCR_ETF_2 | TIM_SMCR_ETF_0)  
1022:Drivers/STM32G4xx_HAL_Driver/Inc/stm32g4xx_ll_tim.h **** #define LL_TIM_ETR_FILTER_FDIV32_N6            (TIM_SMCR_ETF_3 | TIM_SMCR_ETF_2 | TIM_SMCR_ETF_1)  
1023:Drivers/STM32G4xx_HAL_Driver/Inc/stm32g4xx_ll_tim.h **** #define LL_TIM_ETR_FILTER_FDIV32_N8            TIM_SMCR_ETF                                        
1024:Drivers/STM32G4xx_HAL_Driver/Inc/stm32g4xx_ll_tim.h **** /**
1025:Drivers/STM32G4xx_HAL_Driver/Inc/stm32g4xx_ll_tim.h ****   * @}
1026:Drivers/STM32G4xx_HAL_Driver/Inc/stm32g4xx_ll_tim.h ****   */
1027:Drivers/STM32G4xx_HAL_Driver/Inc/stm32g4xx_ll_tim.h **** 
1028:Drivers/STM32G4xx_HAL_Driver/Inc/stm32g4xx_ll_tim.h **** /** @defgroup TIM_LL_EC_TIM1_ETRSOURCE External Trigger Source TIM1
1029:Drivers/STM32G4xx_HAL_Driver/Inc/stm32g4xx_ll_tim.h ****   * @{
1030:Drivers/STM32G4xx_HAL_Driver/Inc/stm32g4xx_ll_tim.h ****   */
1031:Drivers/STM32G4xx_HAL_Driver/Inc/stm32g4xx_ll_tim.h **** #define LL_TIM_TIM1_ETRSOURCE_GPIO        0x00000000U                                              
1032:Drivers/STM32G4xx_HAL_Driver/Inc/stm32g4xx_ll_tim.h **** #define LL_TIM_TIM1_ETRSOURCE_COMP1       TIM1_AF1_ETRSEL_0                                        
1033:Drivers/STM32G4xx_HAL_Driver/Inc/stm32g4xx_ll_tim.h **** #define LL_TIM_TIM1_ETRSOURCE_COMP2       TIM1_AF1_ETRSEL_1                                        
1034:Drivers/STM32G4xx_HAL_Driver/Inc/stm32g4xx_ll_tim.h **** #define LL_TIM_TIM1_ETRSOURCE_COMP3       (TIM1_AF1_ETRSEL_1 | TIM1_AF1_ETRSEL_0)                  
1035:Drivers/STM32G4xx_HAL_Driver/Inc/stm32g4xx_ll_tim.h **** #define LL_TIM_TIM1_ETRSOURCE_COMP4       TIM1_AF1_ETRSEL_2                                        
1036:Drivers/STM32G4xx_HAL_Driver/Inc/stm32g4xx_ll_tim.h **** #if defined(COMP5)
1037:Drivers/STM32G4xx_HAL_Driver/Inc/stm32g4xx_ll_tim.h **** #define LL_TIM_TIM1_ETRSOURCE_COMP5       (TIM1_AF1_ETRSEL_2 | TIM1_AF1_ETRSEL_0)                  
1038:Drivers/STM32G4xx_HAL_Driver/Inc/stm32g4xx_ll_tim.h **** #endif /* COMP5 */
1039:Drivers/STM32G4xx_HAL_Driver/Inc/stm32g4xx_ll_tim.h **** #if defined(COMP6)
1040:Drivers/STM32G4xx_HAL_Driver/Inc/stm32g4xx_ll_tim.h **** #define LL_TIM_TIM1_ETRSOURCE_COMP6       (TIM1_AF1_ETRSEL_2 | TIM1_AF1_ETRSEL_1)                  
1041:Drivers/STM32G4xx_HAL_Driver/Inc/stm32g4xx_ll_tim.h **** #endif /* COMP6 */
1042:Drivers/STM32G4xx_HAL_Driver/Inc/stm32g4xx_ll_tim.h **** #if defined(COMP7)
1043:Drivers/STM32G4xx_HAL_Driver/Inc/stm32g4xx_ll_tim.h **** #define LL_TIM_TIM1_ETRSOURCE_COMP7       (TIM1_AF1_ETRSEL_2 | TIM1_AF1_ETRSEL_1 | TIM1_AF1_ETRSEL_
1044:Drivers/STM32G4xx_HAL_Driver/Inc/stm32g4xx_ll_tim.h **** #endif /* COMP7 */
1045:Drivers/STM32G4xx_HAL_Driver/Inc/stm32g4xx_ll_tim.h **** #define LL_TIM_TIM1_ETRSOURCE_ADC1_AWD1   TIM1_AF1_ETRSEL_3                                        
1046:Drivers/STM32G4xx_HAL_Driver/Inc/stm32g4xx_ll_tim.h **** #define LL_TIM_TIM1_ETRSOURCE_ADC1_AWD2   (TIM1_AF1_ETRSEL_3 | TIM1_AF1_ETRSEL_0)                  
1047:Drivers/STM32G4xx_HAL_Driver/Inc/stm32g4xx_ll_tim.h **** #define LL_TIM_TIM1_ETRSOURCE_ADC1_AWD3   (TIM1_AF1_ETRSEL_3 | TIM1_AF1_ETRSEL_1)                  
1048:Drivers/STM32G4xx_HAL_Driver/Inc/stm32g4xx_ll_tim.h **** #if defined(ADC4)
1049:Drivers/STM32G4xx_HAL_Driver/Inc/stm32g4xx_ll_tim.h **** #define LL_TIM_TIM1_ETRSOURCE_ADC4_AWD1   (TIM1_AF1_ETRSEL_3 | TIM1_AF1_ETRSEL_1 | TIM1_AF1_ETRSEL_
1050:Drivers/STM32G4xx_HAL_Driver/Inc/stm32g4xx_ll_tim.h **** #define LL_TIM_TIM1_ETRSOURCE_ADC4_AWD2   (TIM1_AF1_ETRSEL_3 | TIM1_AF1_ETRSEL_2)                  
1051:Drivers/STM32G4xx_HAL_Driver/Inc/stm32g4xx_ll_tim.h **** #define LL_TIM_TIM1_ETRSOURCE_ADC4_AWD3   (TIM1_AF1_ETRSEL_3 | TIM1_AF1_ETRSEL_2 | TIM1_AF1_ETRSEL_
1052:Drivers/STM32G4xx_HAL_Driver/Inc/stm32g4xx_ll_tim.h **** #endif /* ADC4 */
1053:Drivers/STM32G4xx_HAL_Driver/Inc/stm32g4xx_ll_tim.h **** /**
1054:Drivers/STM32G4xx_HAL_Driver/Inc/stm32g4xx_ll_tim.h ****   * @}
1055:Drivers/STM32G4xx_HAL_Driver/Inc/stm32g4xx_ll_tim.h ****   */
1056:Drivers/STM32G4xx_HAL_Driver/Inc/stm32g4xx_ll_tim.h **** 
1057:Drivers/STM32G4xx_HAL_Driver/Inc/stm32g4xx_ll_tim.h **** /** @defgroup TIM_LL_EC_TIM2_ETRSOURCE External Trigger Source TIM2
1058:Drivers/STM32G4xx_HAL_Driver/Inc/stm32g4xx_ll_tim.h ****   * @{
1059:Drivers/STM32G4xx_HAL_Driver/Inc/stm32g4xx_ll_tim.h ****   */
1060:Drivers/STM32G4xx_HAL_Driver/Inc/stm32g4xx_ll_tim.h **** #define LL_TIM_TIM2_ETRSOURCE_GPIO         0x00000000U                                             
1061:Drivers/STM32G4xx_HAL_Driver/Inc/stm32g4xx_ll_tim.h **** #define LL_TIM_TIM2_ETRSOURCE_COMP1        TIM1_AF1_ETRSEL_0                                       
ARM GAS  /tmp/ccF6ITrB.s 			page 64


1062:Drivers/STM32G4xx_HAL_Driver/Inc/stm32g4xx_ll_tim.h **** #define LL_TIM_TIM2_ETRSOURCE_COMP2        TIM1_AF1_ETRSEL_1                                       
1063:Drivers/STM32G4xx_HAL_Driver/Inc/stm32g4xx_ll_tim.h **** #define LL_TIM_TIM2_ETRSOURCE_COMP3        (TIM1_AF1_ETRSEL_1 | TIM1_AF1_ETRSEL_0)                 
1064:Drivers/STM32G4xx_HAL_Driver/Inc/stm32g4xx_ll_tim.h **** #define LL_TIM_TIM2_ETRSOURCE_COMP4        TIM1_AF1_ETRSEL_2                                       
1065:Drivers/STM32G4xx_HAL_Driver/Inc/stm32g4xx_ll_tim.h **** #if defined(COMP5)
1066:Drivers/STM32G4xx_HAL_Driver/Inc/stm32g4xx_ll_tim.h **** #define LL_TIM_TIM2_ETRSOURCE_COMP5        (TIM1_AF1_ETRSEL_2 | TIM1_AF1_ETRSEL_0)                 
1067:Drivers/STM32G4xx_HAL_Driver/Inc/stm32g4xx_ll_tim.h **** #endif /* COMP5 */
1068:Drivers/STM32G4xx_HAL_Driver/Inc/stm32g4xx_ll_tim.h **** #if defined(COMP6)
1069:Drivers/STM32G4xx_HAL_Driver/Inc/stm32g4xx_ll_tim.h **** #define LL_TIM_TIM2_ETRSOURCE_COMP6        (TIM1_AF1_ETRSEL_2 | TIM1_AF1_ETRSEL_1)                 
1070:Drivers/STM32G4xx_HAL_Driver/Inc/stm32g4xx_ll_tim.h **** #endif /* COMP6 */
1071:Drivers/STM32G4xx_HAL_Driver/Inc/stm32g4xx_ll_tim.h **** #if defined(COMP7)
1072:Drivers/STM32G4xx_HAL_Driver/Inc/stm32g4xx_ll_tim.h **** #define LL_TIM_TIM2_ETRSOURCE_COMP7        (TIM1_AF1_ETRSEL_2 | TIM1_AF1_ETRSEL_1 | TIM1_AF1_ETRSEL
1073:Drivers/STM32G4xx_HAL_Driver/Inc/stm32g4xx_ll_tim.h **** #endif /* COMP7 */
1074:Drivers/STM32G4xx_HAL_Driver/Inc/stm32g4xx_ll_tim.h **** #define LL_TIM_TIM2_ETRSOURCE_TIM3_ETR     TIM1_AF1_ETRSEL_3                                       
1075:Drivers/STM32G4xx_HAL_Driver/Inc/stm32g4xx_ll_tim.h **** #define LL_TIM_TIM2_ETRSOURCE_TIM4_ETR     (TIM1_AF1_ETRSEL_3 | TIM1_AF1_ETRSEL_0)                 
1076:Drivers/STM32G4xx_HAL_Driver/Inc/stm32g4xx_ll_tim.h **** #if defined(TIM5)
1077:Drivers/STM32G4xx_HAL_Driver/Inc/stm32g4xx_ll_tim.h **** #define LL_TIM_TIM2_ETRSOURCE_TIM5_ETR     (TIM1_AF1_ETRSEL_3 | TIM1_AF1_ETRSEL_1)                 
1078:Drivers/STM32G4xx_HAL_Driver/Inc/stm32g4xx_ll_tim.h **** #endif /* TIM5 */
1079:Drivers/STM32G4xx_HAL_Driver/Inc/stm32g4xx_ll_tim.h **** #define LL_TIM_TIM2_ETRSOURCE_LSE          (TIM1_AF1_ETRSEL_3 | TIM1_AF1_ETRSEL_1 | TIM1_AF1_ETRSEL
1080:Drivers/STM32G4xx_HAL_Driver/Inc/stm32g4xx_ll_tim.h **** /**
1081:Drivers/STM32G4xx_HAL_Driver/Inc/stm32g4xx_ll_tim.h ****   * @}
1082:Drivers/STM32G4xx_HAL_Driver/Inc/stm32g4xx_ll_tim.h ****   */
1083:Drivers/STM32G4xx_HAL_Driver/Inc/stm32g4xx_ll_tim.h **** 
1084:Drivers/STM32G4xx_HAL_Driver/Inc/stm32g4xx_ll_tim.h **** /** @defgroup TIM_LL_EC_TIM3_ETRSOURCE External Trigger Source TIM3
1085:Drivers/STM32G4xx_HAL_Driver/Inc/stm32g4xx_ll_tim.h ****   * @{
1086:Drivers/STM32G4xx_HAL_Driver/Inc/stm32g4xx_ll_tim.h ****   */
1087:Drivers/STM32G4xx_HAL_Driver/Inc/stm32g4xx_ll_tim.h **** #define LL_TIM_TIM3_ETRSOURCE_GPIO         0x00000000U                                             
1088:Drivers/STM32G4xx_HAL_Driver/Inc/stm32g4xx_ll_tim.h **** #define LL_TIM_TIM3_ETRSOURCE_COMP1        TIM1_AF1_ETRSEL_0                                       
1089:Drivers/STM32G4xx_HAL_Driver/Inc/stm32g4xx_ll_tim.h **** #define LL_TIM_TIM3_ETRSOURCE_COMP2        TIM1_AF1_ETRSEL_1                                       
1090:Drivers/STM32G4xx_HAL_Driver/Inc/stm32g4xx_ll_tim.h **** #define LL_TIM_TIM3_ETRSOURCE_COMP3        (TIM1_AF1_ETRSEL_1 | TIM1_AF1_ETRSEL_0)                 
1091:Drivers/STM32G4xx_HAL_Driver/Inc/stm32g4xx_ll_tim.h **** #define LL_TIM_TIM3_ETRSOURCE_COMP4        TIM1_AF1_ETRSEL_2                                       
1092:Drivers/STM32G4xx_HAL_Driver/Inc/stm32g4xx_ll_tim.h **** #if defined(COMP5)
1093:Drivers/STM32G4xx_HAL_Driver/Inc/stm32g4xx_ll_tim.h **** #define LL_TIM_TIM3_ETRSOURCE_COMP5        (TIM1_AF1_ETRSEL_2 | TIM1_AF1_ETRSEL_0)                 
1094:Drivers/STM32G4xx_HAL_Driver/Inc/stm32g4xx_ll_tim.h **** #endif /* COMP5 */
1095:Drivers/STM32G4xx_HAL_Driver/Inc/stm32g4xx_ll_tim.h **** #if defined(COMP6)
1096:Drivers/STM32G4xx_HAL_Driver/Inc/stm32g4xx_ll_tim.h **** #define LL_TIM_TIM3_ETRSOURCE_COMP6        (TIM1_AF1_ETRSEL_2 | TIM1_AF1_ETRSEL_1)                 
1097:Drivers/STM32G4xx_HAL_Driver/Inc/stm32g4xx_ll_tim.h **** #endif /* COMP6 */
1098:Drivers/STM32G4xx_HAL_Driver/Inc/stm32g4xx_ll_tim.h **** #if defined(COMP7)
1099:Drivers/STM32G4xx_HAL_Driver/Inc/stm32g4xx_ll_tim.h **** #define LL_TIM_TIM3_ETRSOURCE_COMP7        (TIM1_AF1_ETRSEL_2 | TIM1_AF1_ETRSEL_1 | TIM1_AF1_ETRSEL
1100:Drivers/STM32G4xx_HAL_Driver/Inc/stm32g4xx_ll_tim.h **** #endif /* COMP7 */
1101:Drivers/STM32G4xx_HAL_Driver/Inc/stm32g4xx_ll_tim.h **** #define LL_TIM_TIM3_ETRSOURCE_TIM2_ETR     TIM1_AF1_ETRSEL_3                                       
1102:Drivers/STM32G4xx_HAL_Driver/Inc/stm32g4xx_ll_tim.h **** #define LL_TIM_TIM3_ETRSOURCE_TIM4_ETR     (TIM1_AF1_ETRSEL_3 | TIM1_AF1_ETRSEL_0)                 
1103:Drivers/STM32G4xx_HAL_Driver/Inc/stm32g4xx_ll_tim.h **** #define LL_TIM_TIM3_ETRSOURCE_ADC2_AWD1    (TIM1_AF1_ETRSEL_3 | TIM1_AF1_ETRSEL_1 | TIM1_AF1_ETRSEL
1104:Drivers/STM32G4xx_HAL_Driver/Inc/stm32g4xx_ll_tim.h **** #define LL_TIM_TIM3_ETRSOURCE_ADC2_AWD2    (TIM1_AF1_ETRSEL_3 | TIM1_AF1_ETRSEL_2)                 
1105:Drivers/STM32G4xx_HAL_Driver/Inc/stm32g4xx_ll_tim.h **** #define LL_TIM_TIM3_ETRSOURCE_ADC2_AWD3    (TIM1_AF1_ETRSEL_3 | TIM1_AF1_ETRSEL_2 | TIM1_AF1_ETRSEL
1106:Drivers/STM32G4xx_HAL_Driver/Inc/stm32g4xx_ll_tim.h **** /**
1107:Drivers/STM32G4xx_HAL_Driver/Inc/stm32g4xx_ll_tim.h ****   * @}
1108:Drivers/STM32G4xx_HAL_Driver/Inc/stm32g4xx_ll_tim.h ****   */
1109:Drivers/STM32G4xx_HAL_Driver/Inc/stm32g4xx_ll_tim.h **** 
1110:Drivers/STM32G4xx_HAL_Driver/Inc/stm32g4xx_ll_tim.h **** /** @defgroup TIM_LL_EC_TIM4_ETRSOURCE External Trigger Source TIM4
1111:Drivers/STM32G4xx_HAL_Driver/Inc/stm32g4xx_ll_tim.h ****   * @{
1112:Drivers/STM32G4xx_HAL_Driver/Inc/stm32g4xx_ll_tim.h ****   */
1113:Drivers/STM32G4xx_HAL_Driver/Inc/stm32g4xx_ll_tim.h **** #define LL_TIM_TIM4_ETRSOURCE_GPIO         0x00000000U                                             
1114:Drivers/STM32G4xx_HAL_Driver/Inc/stm32g4xx_ll_tim.h **** #define LL_TIM_TIM4_ETRSOURCE_COMP1        TIM1_AF1_ETRSEL_0                                       
1115:Drivers/STM32G4xx_HAL_Driver/Inc/stm32g4xx_ll_tim.h **** #define LL_TIM_TIM4_ETRSOURCE_COMP2        TIM1_AF1_ETRSEL_1                                       
1116:Drivers/STM32G4xx_HAL_Driver/Inc/stm32g4xx_ll_tim.h **** #define LL_TIM_TIM4_ETRSOURCE_COMP3        (TIM1_AF1_ETRSEL_1 | TIM1_AF1_ETRSEL_0)                 
1117:Drivers/STM32G4xx_HAL_Driver/Inc/stm32g4xx_ll_tim.h **** #define LL_TIM_TIM4_ETRSOURCE_COMP4        TIM1_AF1_ETRSEL_2                                       
1118:Drivers/STM32G4xx_HAL_Driver/Inc/stm32g4xx_ll_tim.h **** #if defined(COMP5)
ARM GAS  /tmp/ccF6ITrB.s 			page 65


1119:Drivers/STM32G4xx_HAL_Driver/Inc/stm32g4xx_ll_tim.h **** #define LL_TIM_TIM4_ETRSOURCE_COMP5        (TIM1_AF1_ETRSEL_2 | TIM1_AF1_ETRSEL_0)                 
1120:Drivers/STM32G4xx_HAL_Driver/Inc/stm32g4xx_ll_tim.h **** #endif /* COMP5 */
1121:Drivers/STM32G4xx_HAL_Driver/Inc/stm32g4xx_ll_tim.h **** #if defined(COMP6)
1122:Drivers/STM32G4xx_HAL_Driver/Inc/stm32g4xx_ll_tim.h **** #define LL_TIM_TIM4_ETRSOURCE_COMP6        (TIM1_AF1_ETRSEL_2 | TIM1_AF1_ETRSEL_1)                 
1123:Drivers/STM32G4xx_HAL_Driver/Inc/stm32g4xx_ll_tim.h **** #endif /* COMP6 */
1124:Drivers/STM32G4xx_HAL_Driver/Inc/stm32g4xx_ll_tim.h **** #if defined(COMP7)
1125:Drivers/STM32G4xx_HAL_Driver/Inc/stm32g4xx_ll_tim.h **** #define LL_TIM_TIM4_ETRSOURCE_COMP7        (TIM1_AF1_ETRSEL_2 | TIM1_AF1_ETRSEL_1 | TIM1_AF1_ETRSEL
1126:Drivers/STM32G4xx_HAL_Driver/Inc/stm32g4xx_ll_tim.h **** #endif /* COMP7 */
1127:Drivers/STM32G4xx_HAL_Driver/Inc/stm32g4xx_ll_tim.h **** #define LL_TIM_TIM4_ETRSOURCE_TIM3_ETR     TIM1_AF1_ETRSEL_3                                       
1128:Drivers/STM32G4xx_HAL_Driver/Inc/stm32g4xx_ll_tim.h **** #if defined(TIM5)
1129:Drivers/STM32G4xx_HAL_Driver/Inc/stm32g4xx_ll_tim.h **** #define LL_TIM_TIM4_ETRSOURCE_TIM5_ETR     (TIM1_AF1_ETRSEL_3 | TIM1_AF1_ETRSEL_0)                 
1130:Drivers/STM32G4xx_HAL_Driver/Inc/stm32g4xx_ll_tim.h **** #endif /* TIM5 */
1131:Drivers/STM32G4xx_HAL_Driver/Inc/stm32g4xx_ll_tim.h **** /**
1132:Drivers/STM32G4xx_HAL_Driver/Inc/stm32g4xx_ll_tim.h ****   * @}
1133:Drivers/STM32G4xx_HAL_Driver/Inc/stm32g4xx_ll_tim.h ****   */
1134:Drivers/STM32G4xx_HAL_Driver/Inc/stm32g4xx_ll_tim.h **** 
1135:Drivers/STM32G4xx_HAL_Driver/Inc/stm32g4xx_ll_tim.h **** #if defined(TIM5)
1136:Drivers/STM32G4xx_HAL_Driver/Inc/stm32g4xx_ll_tim.h **** /** @defgroup TIM_LL_EC_TIM5_ETRSOURCE External Trigger Source TIM5
1137:Drivers/STM32G4xx_HAL_Driver/Inc/stm32g4xx_ll_tim.h ****   * @{
1138:Drivers/STM32G4xx_HAL_Driver/Inc/stm32g4xx_ll_tim.h ****   */
1139:Drivers/STM32G4xx_HAL_Driver/Inc/stm32g4xx_ll_tim.h **** #define LL_TIM_TIM5_ETRSOURCE_GPIO         0x00000000U                                             
1140:Drivers/STM32G4xx_HAL_Driver/Inc/stm32g4xx_ll_tim.h **** #define LL_TIM_TIM5_ETRSOURCE_COMP1        TIM1_AF1_ETRSEL_0                                       
1141:Drivers/STM32G4xx_HAL_Driver/Inc/stm32g4xx_ll_tim.h **** #define LL_TIM_TIM5_ETRSOURCE_COMP2        TIM1_AF1_ETRSEL_1                                       
1142:Drivers/STM32G4xx_HAL_Driver/Inc/stm32g4xx_ll_tim.h **** #define LL_TIM_TIM5_ETRSOURCE_COMP3        (TIM1_AF1_ETRSEL_1 | TIM1_AF1_ETRSEL_0)                 
1143:Drivers/STM32G4xx_HAL_Driver/Inc/stm32g4xx_ll_tim.h **** #define LL_TIM_TIM5_ETRSOURCE_COMP4        TIM1_AF1_ETRSEL_2                                       
1144:Drivers/STM32G4xx_HAL_Driver/Inc/stm32g4xx_ll_tim.h **** #if defined(COMP5)
1145:Drivers/STM32G4xx_HAL_Driver/Inc/stm32g4xx_ll_tim.h **** #define LL_TIM_TIM5_ETRSOURCE_COMP5        (TIM1_AF1_ETRSEL_2 | TIM1_AF1_ETRSEL_0)                 
1146:Drivers/STM32G4xx_HAL_Driver/Inc/stm32g4xx_ll_tim.h **** #endif /* COMP5 */
1147:Drivers/STM32G4xx_HAL_Driver/Inc/stm32g4xx_ll_tim.h **** #if defined(COMP6)
1148:Drivers/STM32G4xx_HAL_Driver/Inc/stm32g4xx_ll_tim.h **** #define LL_TIM_TIM5_ETRSOURCE_COMP6        (TIM1_AF1_ETRSEL_2 | TIM1_AF1_ETRSEL_1)                 
1149:Drivers/STM32G4xx_HAL_Driver/Inc/stm32g4xx_ll_tim.h **** #endif /* COMP6 */
1150:Drivers/STM32G4xx_HAL_Driver/Inc/stm32g4xx_ll_tim.h **** #if defined(COMP7)
1151:Drivers/STM32G4xx_HAL_Driver/Inc/stm32g4xx_ll_tim.h **** #define LL_TIM_TIM5_ETRSOURCE_COMP7        (TIM1_AF1_ETRSEL_2 | TIM1_AF1_ETRSEL_1 | TIM1_AF1_ETRSEL
1152:Drivers/STM32G4xx_HAL_Driver/Inc/stm32g4xx_ll_tim.h **** #endif /* COMP7 */
1153:Drivers/STM32G4xx_HAL_Driver/Inc/stm32g4xx_ll_tim.h **** #define LL_TIM_TIM5_ETRSOURCE_TIM2_ETR     TIM1_AF1_ETRSEL_3                                       
1154:Drivers/STM32G4xx_HAL_Driver/Inc/stm32g4xx_ll_tim.h **** #define LL_TIM_TIM5_ETRSOURCE_TIM3_ETR     (TIM1_AF1_ETRSEL_3 | TIM1_AF1_ETRSEL_0)                 
1155:Drivers/STM32G4xx_HAL_Driver/Inc/stm32g4xx_ll_tim.h **** /**
1156:Drivers/STM32G4xx_HAL_Driver/Inc/stm32g4xx_ll_tim.h ****   * @}
1157:Drivers/STM32G4xx_HAL_Driver/Inc/stm32g4xx_ll_tim.h ****   */
1158:Drivers/STM32G4xx_HAL_Driver/Inc/stm32g4xx_ll_tim.h **** #endif /* TIM5 */
1159:Drivers/STM32G4xx_HAL_Driver/Inc/stm32g4xx_ll_tim.h **** 
1160:Drivers/STM32G4xx_HAL_Driver/Inc/stm32g4xx_ll_tim.h **** /** @defgroup TIM_LL_EC_TIM8_ETRSOURCE External Trigger Source TIM8
1161:Drivers/STM32G4xx_HAL_Driver/Inc/stm32g4xx_ll_tim.h ****   * @{
1162:Drivers/STM32G4xx_HAL_Driver/Inc/stm32g4xx_ll_tim.h ****   */
1163:Drivers/STM32G4xx_HAL_Driver/Inc/stm32g4xx_ll_tim.h **** #define LL_TIM_TIM8_ETRSOURCE_GPIO        0x00000000U                                              
1164:Drivers/STM32G4xx_HAL_Driver/Inc/stm32g4xx_ll_tim.h **** #define LL_TIM_TIM8_ETRSOURCE_COMP1       TIM1_AF1_ETRSEL_0                                        
1165:Drivers/STM32G4xx_HAL_Driver/Inc/stm32g4xx_ll_tim.h **** #define LL_TIM_TIM8_ETRSOURCE_COMP2       TIM1_AF1_ETRSEL_1                                        
1166:Drivers/STM32G4xx_HAL_Driver/Inc/stm32g4xx_ll_tim.h **** #define LL_TIM_TIM8_ETRSOURCE_COMP3       (TIM1_AF1_ETRSEL_1 | TIM1_AF1_ETRSEL_0)                  
1167:Drivers/STM32G4xx_HAL_Driver/Inc/stm32g4xx_ll_tim.h **** #define LL_TIM_TIM8_ETRSOURCE_COMP4       TIM1_AF1_ETRSEL_2                                        
1168:Drivers/STM32G4xx_HAL_Driver/Inc/stm32g4xx_ll_tim.h **** #if defined(COMP5)
1169:Drivers/STM32G4xx_HAL_Driver/Inc/stm32g4xx_ll_tim.h **** #define LL_TIM_TIM8_ETRSOURCE_COMP5       (TIM1_AF1_ETRSEL_2 | TIM1_AF1_ETRSEL_0)                  
1170:Drivers/STM32G4xx_HAL_Driver/Inc/stm32g4xx_ll_tim.h **** #endif /* COMP5 */
1171:Drivers/STM32G4xx_HAL_Driver/Inc/stm32g4xx_ll_tim.h **** #if defined(COMP6)
1172:Drivers/STM32G4xx_HAL_Driver/Inc/stm32g4xx_ll_tim.h **** #define LL_TIM_TIM8_ETRSOURCE_COMP6       (TIM1_AF1_ETRSEL_2 | TIM1_AF1_ETRSEL_1)                  
1173:Drivers/STM32G4xx_HAL_Driver/Inc/stm32g4xx_ll_tim.h **** #endif /* COMP6 */
1174:Drivers/STM32G4xx_HAL_Driver/Inc/stm32g4xx_ll_tim.h **** #if defined(COMP7)
1175:Drivers/STM32G4xx_HAL_Driver/Inc/stm32g4xx_ll_tim.h **** #define LL_TIM_TIM8_ETRSOURCE_COMP7       (TIM1_AF1_ETRSEL_2 | TIM1_AF1_ETRSEL_1 | TIM1_AF1_ETRSEL_
ARM GAS  /tmp/ccF6ITrB.s 			page 66


1176:Drivers/STM32G4xx_HAL_Driver/Inc/stm32g4xx_ll_tim.h **** #endif /* COMP7 */
1177:Drivers/STM32G4xx_HAL_Driver/Inc/stm32g4xx_ll_tim.h **** #define LL_TIM_TIM8_ETRSOURCE_ADC2_AWD1   TIM1_AF1_ETRSEL_3                                        
1178:Drivers/STM32G4xx_HAL_Driver/Inc/stm32g4xx_ll_tim.h **** #define LL_TIM_TIM8_ETRSOURCE_ADC2_AWD2   (TIM1_AF1_ETRSEL_3 | TIM1_AF1_ETRSEL_0)                  
1179:Drivers/STM32G4xx_HAL_Driver/Inc/stm32g4xx_ll_tim.h **** #define LL_TIM_TIM8_ETRSOURCE_ADC2_AWD3   (TIM1_AF1_ETRSEL_3 | TIM1_AF1_ETRSEL_1)                  
1180:Drivers/STM32G4xx_HAL_Driver/Inc/stm32g4xx_ll_tim.h **** #if defined(ADC3)
1181:Drivers/STM32G4xx_HAL_Driver/Inc/stm32g4xx_ll_tim.h **** #define LL_TIM_TIM8_ETRSOURCE_ADC3_AWD1   (TIM1_AF1_ETRSEL_3 | TIM1_AF1_ETRSEL_1 | TIM1_AF1_ETRSEL_
1182:Drivers/STM32G4xx_HAL_Driver/Inc/stm32g4xx_ll_tim.h **** #define LL_TIM_TIM8_ETRSOURCE_ADC3_AWD2   (TIM1_AF1_ETRSEL_3 | TIM1_AF1_ETRSEL_2)                  
1183:Drivers/STM32G4xx_HAL_Driver/Inc/stm32g4xx_ll_tim.h **** #define LL_TIM_TIM8_ETRSOURCE_ADC3_AWD3   (TIM1_AF1_ETRSEL_3 | TIM1_AF1_ETRSEL_2 | TIM1_AF1_ETRSEL_
1184:Drivers/STM32G4xx_HAL_Driver/Inc/stm32g4xx_ll_tim.h **** #endif /* ADC3 */
1185:Drivers/STM32G4xx_HAL_Driver/Inc/stm32g4xx_ll_tim.h **** /**
1186:Drivers/STM32G4xx_HAL_Driver/Inc/stm32g4xx_ll_tim.h ****   * @}
1187:Drivers/STM32G4xx_HAL_Driver/Inc/stm32g4xx_ll_tim.h ****   */
1188:Drivers/STM32G4xx_HAL_Driver/Inc/stm32g4xx_ll_tim.h **** 
1189:Drivers/STM32G4xx_HAL_Driver/Inc/stm32g4xx_ll_tim.h **** #if defined(TIM20)
1190:Drivers/STM32G4xx_HAL_Driver/Inc/stm32g4xx_ll_tim.h **** /** @defgroup TIM_LL_EC_TIM20_ETRSOURCE External Trigger Source TIM20
1191:Drivers/STM32G4xx_HAL_Driver/Inc/stm32g4xx_ll_tim.h ****   * @{
1192:Drivers/STM32G4xx_HAL_Driver/Inc/stm32g4xx_ll_tim.h ****   */
1193:Drivers/STM32G4xx_HAL_Driver/Inc/stm32g4xx_ll_tim.h **** #define LL_TIM_TIM20_ETRSOURCE_GPIO       0x00000000U                                              
1194:Drivers/STM32G4xx_HAL_Driver/Inc/stm32g4xx_ll_tim.h **** #define LL_TIM_TIM20_ETRSOURCE_COMP1      TIM1_AF1_ETRSEL_0                                        
1195:Drivers/STM32G4xx_HAL_Driver/Inc/stm32g4xx_ll_tim.h **** #define LL_TIM_TIM20_ETRSOURCE_COMP2      TIM1_AF1_ETRSEL_1                                        
1196:Drivers/STM32G4xx_HAL_Driver/Inc/stm32g4xx_ll_tim.h **** #define LL_TIM_TIM20_ETRSOURCE_COMP3      (TIM1_AF1_ETRSEL_1 | TIM1_AF1_ETRSEL_0)                  
1197:Drivers/STM32G4xx_HAL_Driver/Inc/stm32g4xx_ll_tim.h **** #define LL_TIM_TIM20_ETRSOURCE_COMP4      TIM1_AF1_ETRSEL_2                                        
1198:Drivers/STM32G4xx_HAL_Driver/Inc/stm32g4xx_ll_tim.h **** #if defined(COMP5)
1199:Drivers/STM32G4xx_HAL_Driver/Inc/stm32g4xx_ll_tim.h **** #define LL_TIM_TIM20_ETRSOURCE_COMP5      (TIM1_AF1_ETRSEL_2 | TIM1_AF1_ETRSEL_0)                  
1200:Drivers/STM32G4xx_HAL_Driver/Inc/stm32g4xx_ll_tim.h **** #endif /* COMP5 */
1201:Drivers/STM32G4xx_HAL_Driver/Inc/stm32g4xx_ll_tim.h **** #if defined(COMP6)
1202:Drivers/STM32G4xx_HAL_Driver/Inc/stm32g4xx_ll_tim.h **** #define LL_TIM_TIM20_ETRSOURCE_COMP6      (TIM1_AF1_ETRSEL_2 | TIM1_AF1_ETRSEL_1)                  
1203:Drivers/STM32G4xx_HAL_Driver/Inc/stm32g4xx_ll_tim.h **** #endif /* COMP6 */
1204:Drivers/STM32G4xx_HAL_Driver/Inc/stm32g4xx_ll_tim.h **** #if defined(COMP7)
1205:Drivers/STM32G4xx_HAL_Driver/Inc/stm32g4xx_ll_tim.h **** #define LL_TIM_TIM20_ETRSOURCE_COMP7      (TIM1_AF1_ETRSEL_2 | TIM1_AF1_ETRSEL_1 | TIM1_AF1_ETRSEL_
1206:Drivers/STM32G4xx_HAL_Driver/Inc/stm32g4xx_ll_tim.h **** #endif /* COMP7 */
1207:Drivers/STM32G4xx_HAL_Driver/Inc/stm32g4xx_ll_tim.h **** #if defined(ADC3)
1208:Drivers/STM32G4xx_HAL_Driver/Inc/stm32g4xx_ll_tim.h **** #define LL_TIM_TIM20_ETRSOURCE_ADC3_AWD1  TIM1_AF1_ETRSEL_3                                        
1209:Drivers/STM32G4xx_HAL_Driver/Inc/stm32g4xx_ll_tim.h **** #define LL_TIM_TIM20_ETRSOURCE_ADC3_AWD2  (TIM1_AF1_ETRSEL_3 | TIM1_AF1_ETRSEL_0)                  
1210:Drivers/STM32G4xx_HAL_Driver/Inc/stm32g4xx_ll_tim.h **** #define LL_TIM_TIM20_ETRSOURCE_ADC3_AWD3  (TIM1_AF1_ETRSEL_3 | TIM1_AF1_ETRSEL_1)                  
1211:Drivers/STM32G4xx_HAL_Driver/Inc/stm32g4xx_ll_tim.h **** #endif /* ADC3 */
1212:Drivers/STM32G4xx_HAL_Driver/Inc/stm32g4xx_ll_tim.h **** #if defined(ADC5)
1213:Drivers/STM32G4xx_HAL_Driver/Inc/stm32g4xx_ll_tim.h **** #define LL_TIM_TIM20_ETRSOURCE_ADC5_AWD1  (TIM1_AF1_ETRSEL_3 | TIM1_AF1_ETRSEL_1 | TIM1_AF1_ETRSEL_
1214:Drivers/STM32G4xx_HAL_Driver/Inc/stm32g4xx_ll_tim.h **** #define LL_TIM_TIM20_ETRSOURCE_ADC5_AWD2  (TIM1_AF1_ETRSEL_3 | TIM1_AF1_ETRSEL_2)                  
1215:Drivers/STM32G4xx_HAL_Driver/Inc/stm32g4xx_ll_tim.h **** #define LL_TIM_TIM20_ETRSOURCE_ADC5_AWD3  (TIM1_AF1_ETRSEL_3 | TIM1_AF1_ETRSEL_2 | TIM1_AF1_ETRSEL_
1216:Drivers/STM32G4xx_HAL_Driver/Inc/stm32g4xx_ll_tim.h **** #endif /* ADC5 */
1217:Drivers/STM32G4xx_HAL_Driver/Inc/stm32g4xx_ll_tim.h **** /**
1218:Drivers/STM32G4xx_HAL_Driver/Inc/stm32g4xx_ll_tim.h ****   * @}
1219:Drivers/STM32G4xx_HAL_Driver/Inc/stm32g4xx_ll_tim.h ****   */
1220:Drivers/STM32G4xx_HAL_Driver/Inc/stm32g4xx_ll_tim.h **** #endif /* TIM20 */
1221:Drivers/STM32G4xx_HAL_Driver/Inc/stm32g4xx_ll_tim.h **** 
1222:Drivers/STM32G4xx_HAL_Driver/Inc/stm32g4xx_ll_tim.h **** /** @defgroup TIM_LL_EC_BREAK_POLARITY break polarity
1223:Drivers/STM32G4xx_HAL_Driver/Inc/stm32g4xx_ll_tim.h ****   * @{
1224:Drivers/STM32G4xx_HAL_Driver/Inc/stm32g4xx_ll_tim.h ****   */
1225:Drivers/STM32G4xx_HAL_Driver/Inc/stm32g4xx_ll_tim.h **** #define LL_TIM_BREAK_POLARITY_LOW              0x00000000U               /*!< Break input BRK is ac
1226:Drivers/STM32G4xx_HAL_Driver/Inc/stm32g4xx_ll_tim.h **** #define LL_TIM_BREAK_POLARITY_HIGH             TIM_BDTR_BKP              /*!< Break input BRK is ac
1227:Drivers/STM32G4xx_HAL_Driver/Inc/stm32g4xx_ll_tim.h **** /**
1228:Drivers/STM32G4xx_HAL_Driver/Inc/stm32g4xx_ll_tim.h ****   * @}
1229:Drivers/STM32G4xx_HAL_Driver/Inc/stm32g4xx_ll_tim.h ****   */
1230:Drivers/STM32G4xx_HAL_Driver/Inc/stm32g4xx_ll_tim.h **** 
1231:Drivers/STM32G4xx_HAL_Driver/Inc/stm32g4xx_ll_tim.h **** /** @defgroup TIM_LL_EC_BREAK_FILTER break filter
1232:Drivers/STM32G4xx_HAL_Driver/Inc/stm32g4xx_ll_tim.h ****   * @{
ARM GAS  /tmp/ccF6ITrB.s 			page 67


1233:Drivers/STM32G4xx_HAL_Driver/Inc/stm32g4xx_ll_tim.h ****   */
1234:Drivers/STM32G4xx_HAL_Driver/Inc/stm32g4xx_ll_tim.h **** #define LL_TIM_BREAK_FILTER_FDIV1              0x00000000U   /*!< No filter, BRK acts asynchronousl
1235:Drivers/STM32G4xx_HAL_Driver/Inc/stm32g4xx_ll_tim.h **** #define LL_TIM_BREAK_FILTER_FDIV1_N2           0x00010000U   /*!< fSAMPLING=fCK_INT, N=2 */
1236:Drivers/STM32G4xx_HAL_Driver/Inc/stm32g4xx_ll_tim.h **** #define LL_TIM_BREAK_FILTER_FDIV1_N4           0x00020000U   /*!< fSAMPLING=fCK_INT, N=4 */
1237:Drivers/STM32G4xx_HAL_Driver/Inc/stm32g4xx_ll_tim.h **** #define LL_TIM_BREAK_FILTER_FDIV1_N8           0x00030000U   /*!< fSAMPLING=fCK_INT, N=8 */
1238:Drivers/STM32G4xx_HAL_Driver/Inc/stm32g4xx_ll_tim.h **** #define LL_TIM_BREAK_FILTER_FDIV2_N6           0x00040000U   /*!< fSAMPLING=fDTS/2, N=6 */
1239:Drivers/STM32G4xx_HAL_Driver/Inc/stm32g4xx_ll_tim.h **** #define LL_TIM_BREAK_FILTER_FDIV2_N8           0x00050000U   /*!< fSAMPLING=fDTS/2, N=8 */
1240:Drivers/STM32G4xx_HAL_Driver/Inc/stm32g4xx_ll_tim.h **** #define LL_TIM_BREAK_FILTER_FDIV4_N6           0x00060000U   /*!< fSAMPLING=fDTS/4, N=6 */
1241:Drivers/STM32G4xx_HAL_Driver/Inc/stm32g4xx_ll_tim.h **** #define LL_TIM_BREAK_FILTER_FDIV4_N8           0x00070000U   /*!< fSAMPLING=fDTS/4, N=8 */
1242:Drivers/STM32G4xx_HAL_Driver/Inc/stm32g4xx_ll_tim.h **** #define LL_TIM_BREAK_FILTER_FDIV8_N6           0x00080000U   /*!< fSAMPLING=fDTS/8, N=6 */
1243:Drivers/STM32G4xx_HAL_Driver/Inc/stm32g4xx_ll_tim.h **** #define LL_TIM_BREAK_FILTER_FDIV8_N8           0x00090000U   /*!< fSAMPLING=fDTS/8, N=8 */
1244:Drivers/STM32G4xx_HAL_Driver/Inc/stm32g4xx_ll_tim.h **** #define LL_TIM_BREAK_FILTER_FDIV16_N5          0x000A0000U   /*!< fSAMPLING=fDTS/16, N=5 */
1245:Drivers/STM32G4xx_HAL_Driver/Inc/stm32g4xx_ll_tim.h **** #define LL_TIM_BREAK_FILTER_FDIV16_N6          0x000B0000U   /*!< fSAMPLING=fDTS/16, N=6 */
1246:Drivers/STM32G4xx_HAL_Driver/Inc/stm32g4xx_ll_tim.h **** #define LL_TIM_BREAK_FILTER_FDIV16_N8          0x000C0000U   /*!< fSAMPLING=fDTS/16, N=8 */
1247:Drivers/STM32G4xx_HAL_Driver/Inc/stm32g4xx_ll_tim.h **** #define LL_TIM_BREAK_FILTER_FDIV32_N5          0x000D0000U   /*!< fSAMPLING=fDTS/32, N=5 */
1248:Drivers/STM32G4xx_HAL_Driver/Inc/stm32g4xx_ll_tim.h **** #define LL_TIM_BREAK_FILTER_FDIV32_N6          0x000E0000U   /*!< fSAMPLING=fDTS/32, N=6 */
1249:Drivers/STM32G4xx_HAL_Driver/Inc/stm32g4xx_ll_tim.h **** #define LL_TIM_BREAK_FILTER_FDIV32_N8          0x000F0000U   /*!< fSAMPLING=fDTS/32, N=8 */
1250:Drivers/STM32G4xx_HAL_Driver/Inc/stm32g4xx_ll_tim.h **** /**
1251:Drivers/STM32G4xx_HAL_Driver/Inc/stm32g4xx_ll_tim.h ****   * @}
1252:Drivers/STM32G4xx_HAL_Driver/Inc/stm32g4xx_ll_tim.h ****   */
1253:Drivers/STM32G4xx_HAL_Driver/Inc/stm32g4xx_ll_tim.h **** 
1254:Drivers/STM32G4xx_HAL_Driver/Inc/stm32g4xx_ll_tim.h **** /** @defgroup TIM_LL_EC_BREAK2_POLARITY BREAK2 POLARITY
1255:Drivers/STM32G4xx_HAL_Driver/Inc/stm32g4xx_ll_tim.h ****   * @{
1256:Drivers/STM32G4xx_HAL_Driver/Inc/stm32g4xx_ll_tim.h ****   */
1257:Drivers/STM32G4xx_HAL_Driver/Inc/stm32g4xx_ll_tim.h **** #define LL_TIM_BREAK2_POLARITY_LOW             0x00000000U             /*!< Break input BRK2 is act
1258:Drivers/STM32G4xx_HAL_Driver/Inc/stm32g4xx_ll_tim.h **** #define LL_TIM_BREAK2_POLARITY_HIGH            TIM_BDTR_BK2P           /*!< Break input BRK2 is act
1259:Drivers/STM32G4xx_HAL_Driver/Inc/stm32g4xx_ll_tim.h **** /**
1260:Drivers/STM32G4xx_HAL_Driver/Inc/stm32g4xx_ll_tim.h ****   * @}
1261:Drivers/STM32G4xx_HAL_Driver/Inc/stm32g4xx_ll_tim.h ****   */
1262:Drivers/STM32G4xx_HAL_Driver/Inc/stm32g4xx_ll_tim.h **** 
1263:Drivers/STM32G4xx_HAL_Driver/Inc/stm32g4xx_ll_tim.h **** /** @defgroup TIM_LL_EC_BREAK2_FILTER BREAK2 FILTER
1264:Drivers/STM32G4xx_HAL_Driver/Inc/stm32g4xx_ll_tim.h ****   * @{
1265:Drivers/STM32G4xx_HAL_Driver/Inc/stm32g4xx_ll_tim.h ****   */
1266:Drivers/STM32G4xx_HAL_Driver/Inc/stm32g4xx_ll_tim.h **** #define LL_TIM_BREAK2_FILTER_FDIV1             0x00000000U   /*!< No filter, BRK acts asynchronousl
1267:Drivers/STM32G4xx_HAL_Driver/Inc/stm32g4xx_ll_tim.h **** #define LL_TIM_BREAK2_FILTER_FDIV1_N2          0x00100000U   /*!< fSAMPLING=fCK_INT, N=2 */
1268:Drivers/STM32G4xx_HAL_Driver/Inc/stm32g4xx_ll_tim.h **** #define LL_TIM_BREAK2_FILTER_FDIV1_N4          0x00200000U   /*!< fSAMPLING=fCK_INT, N=4 */
1269:Drivers/STM32G4xx_HAL_Driver/Inc/stm32g4xx_ll_tim.h **** #define LL_TIM_BREAK2_FILTER_FDIV1_N8          0x00300000U   /*!< fSAMPLING=fCK_INT, N=8 */
1270:Drivers/STM32G4xx_HAL_Driver/Inc/stm32g4xx_ll_tim.h **** #define LL_TIM_BREAK2_FILTER_FDIV2_N6          0x00400000U   /*!< fSAMPLING=fDTS/2, N=6 */
1271:Drivers/STM32G4xx_HAL_Driver/Inc/stm32g4xx_ll_tim.h **** #define LL_TIM_BREAK2_FILTER_FDIV2_N8          0x00500000U   /*!< fSAMPLING=fDTS/2, N=8 */
1272:Drivers/STM32G4xx_HAL_Driver/Inc/stm32g4xx_ll_tim.h **** #define LL_TIM_BREAK2_FILTER_FDIV4_N6          0x00600000U   /*!< fSAMPLING=fDTS/4, N=6 */
1273:Drivers/STM32G4xx_HAL_Driver/Inc/stm32g4xx_ll_tim.h **** #define LL_TIM_BREAK2_FILTER_FDIV4_N8          0x00700000U   /*!< fSAMPLING=fDTS/4, N=8 */
1274:Drivers/STM32G4xx_HAL_Driver/Inc/stm32g4xx_ll_tim.h **** #define LL_TIM_BREAK2_FILTER_FDIV8_N6          0x00800000U   /*!< fSAMPLING=fDTS/8, N=6 */
1275:Drivers/STM32G4xx_HAL_Driver/Inc/stm32g4xx_ll_tim.h **** #define LL_TIM_BREAK2_FILTER_FDIV8_N8          0x00900000U   /*!< fSAMPLING=fDTS/8, N=8 */
1276:Drivers/STM32G4xx_HAL_Driver/Inc/stm32g4xx_ll_tim.h **** #define LL_TIM_BREAK2_FILTER_FDIV16_N5         0x00A00000U   /*!< fSAMPLING=fDTS/16, N=5 */
1277:Drivers/STM32G4xx_HAL_Driver/Inc/stm32g4xx_ll_tim.h **** #define LL_TIM_BREAK2_FILTER_FDIV16_N6         0x00B00000U   /*!< fSAMPLING=fDTS/16, N=6 */
1278:Drivers/STM32G4xx_HAL_Driver/Inc/stm32g4xx_ll_tim.h **** #define LL_TIM_BREAK2_FILTER_FDIV16_N8         0x00C00000U   /*!< fSAMPLING=fDTS/16, N=8 */
1279:Drivers/STM32G4xx_HAL_Driver/Inc/stm32g4xx_ll_tim.h **** #define LL_TIM_BREAK2_FILTER_FDIV32_N5         0x00D00000U   /*!< fSAMPLING=fDTS/32, N=5 */
1280:Drivers/STM32G4xx_HAL_Driver/Inc/stm32g4xx_ll_tim.h **** #define LL_TIM_BREAK2_FILTER_FDIV32_N6         0x00E00000U   /*!< fSAMPLING=fDTS/32, N=6 */
1281:Drivers/STM32G4xx_HAL_Driver/Inc/stm32g4xx_ll_tim.h **** #define LL_TIM_BREAK2_FILTER_FDIV32_N8         0x00F00000U   /*!< fSAMPLING=fDTS/32, N=8 */
1282:Drivers/STM32G4xx_HAL_Driver/Inc/stm32g4xx_ll_tim.h **** /**
1283:Drivers/STM32G4xx_HAL_Driver/Inc/stm32g4xx_ll_tim.h ****   * @}
1284:Drivers/STM32G4xx_HAL_Driver/Inc/stm32g4xx_ll_tim.h ****   */
1285:Drivers/STM32G4xx_HAL_Driver/Inc/stm32g4xx_ll_tim.h **** 
1286:Drivers/STM32G4xx_HAL_Driver/Inc/stm32g4xx_ll_tim.h **** /** @defgroup TIM_LL_EC_OSSI OSSI
1287:Drivers/STM32G4xx_HAL_Driver/Inc/stm32g4xx_ll_tim.h ****   * @{
1288:Drivers/STM32G4xx_HAL_Driver/Inc/stm32g4xx_ll_tim.h ****   */
1289:Drivers/STM32G4xx_HAL_Driver/Inc/stm32g4xx_ll_tim.h **** #define LL_TIM_OSSI_DISABLE                    0x00000000U             /*!< When inactive, OCx/OCxN
ARM GAS  /tmp/ccF6ITrB.s 			page 68


1290:Drivers/STM32G4xx_HAL_Driver/Inc/stm32g4xx_ll_tim.h **** #define LL_TIM_OSSI_ENABLE                     TIM_BDTR_OSSI           /*!< When inactive, OxC/OCxN
1291:Drivers/STM32G4xx_HAL_Driver/Inc/stm32g4xx_ll_tim.h **** /**
1292:Drivers/STM32G4xx_HAL_Driver/Inc/stm32g4xx_ll_tim.h ****   * @}
1293:Drivers/STM32G4xx_HAL_Driver/Inc/stm32g4xx_ll_tim.h ****   */
1294:Drivers/STM32G4xx_HAL_Driver/Inc/stm32g4xx_ll_tim.h **** 
1295:Drivers/STM32G4xx_HAL_Driver/Inc/stm32g4xx_ll_tim.h **** /** @defgroup TIM_LL_EC_OSSR OSSR
1296:Drivers/STM32G4xx_HAL_Driver/Inc/stm32g4xx_ll_tim.h ****   * @{
1297:Drivers/STM32G4xx_HAL_Driver/Inc/stm32g4xx_ll_tim.h ****   */
1298:Drivers/STM32G4xx_HAL_Driver/Inc/stm32g4xx_ll_tim.h **** #define LL_TIM_OSSR_DISABLE                    0x00000000U             /*!< When inactive, OCx/OCxN
1299:Drivers/STM32G4xx_HAL_Driver/Inc/stm32g4xx_ll_tim.h **** #define LL_TIM_OSSR_ENABLE                     TIM_BDTR_OSSR           /*!< When inactive, OC/OCN o
1300:Drivers/STM32G4xx_HAL_Driver/Inc/stm32g4xx_ll_tim.h **** /**
1301:Drivers/STM32G4xx_HAL_Driver/Inc/stm32g4xx_ll_tim.h ****   * @}
1302:Drivers/STM32G4xx_HAL_Driver/Inc/stm32g4xx_ll_tim.h ****   */
1303:Drivers/STM32G4xx_HAL_Driver/Inc/stm32g4xx_ll_tim.h **** 
1304:Drivers/STM32G4xx_HAL_Driver/Inc/stm32g4xx_ll_tim.h **** /** @defgroup TIM_LL_EC_BREAK_INPUT BREAK INPUT
1305:Drivers/STM32G4xx_HAL_Driver/Inc/stm32g4xx_ll_tim.h ****   * @{
1306:Drivers/STM32G4xx_HAL_Driver/Inc/stm32g4xx_ll_tim.h ****   */
1307:Drivers/STM32G4xx_HAL_Driver/Inc/stm32g4xx_ll_tim.h **** #define LL_TIM_BREAK_INPUT_BKIN                0x00000000U  /*!< TIMx_BKIN input */
1308:Drivers/STM32G4xx_HAL_Driver/Inc/stm32g4xx_ll_tim.h **** #define LL_TIM_BREAK_INPUT_BKIN2               0x00000004U  /*!< TIMx_BKIN2 input */
1309:Drivers/STM32G4xx_HAL_Driver/Inc/stm32g4xx_ll_tim.h **** /**
1310:Drivers/STM32G4xx_HAL_Driver/Inc/stm32g4xx_ll_tim.h ****   * @}
1311:Drivers/STM32G4xx_HAL_Driver/Inc/stm32g4xx_ll_tim.h ****   */
1312:Drivers/STM32G4xx_HAL_Driver/Inc/stm32g4xx_ll_tim.h **** 
1313:Drivers/STM32G4xx_HAL_Driver/Inc/stm32g4xx_ll_tim.h **** /** @defgroup TIM_LL_EC_BKIN_SOURCE BKIN SOURCE
1314:Drivers/STM32G4xx_HAL_Driver/Inc/stm32g4xx_ll_tim.h ****   * @{
1315:Drivers/STM32G4xx_HAL_Driver/Inc/stm32g4xx_ll_tim.h ****   */
1316:Drivers/STM32G4xx_HAL_Driver/Inc/stm32g4xx_ll_tim.h **** #define LL_TIM_BKIN_SOURCE_BKIN                TIM1_AF1_BKINE      /*!< BKIN input from AF controll
1317:Drivers/STM32G4xx_HAL_Driver/Inc/stm32g4xx_ll_tim.h **** #define LL_TIM_BKIN_SOURCE_BKCOMP1             TIM1_AF1_BKCMP1E    /*!< internal signal: COMP1 outp
1318:Drivers/STM32G4xx_HAL_Driver/Inc/stm32g4xx_ll_tim.h **** #define LL_TIM_BKIN_SOURCE_BKCOMP2             TIM1_AF1_BKCMP2E    /*!< internal signal: COMP2 outp
1319:Drivers/STM32G4xx_HAL_Driver/Inc/stm32g4xx_ll_tim.h **** #define LL_TIM_BKIN_SOURCE_BKCOMP3             TIM1_AF1_BKCMP3E    /*!< internal signal: COMP3 outp
1320:Drivers/STM32G4xx_HAL_Driver/Inc/stm32g4xx_ll_tim.h **** #define LL_TIM_BKIN_SOURCE_BKCOMP4             TIM1_AF1_BKCMP4E    /*!< internal signal: COMP4 outp
1321:Drivers/STM32G4xx_HAL_Driver/Inc/stm32g4xx_ll_tim.h **** #if defined(COMP5)
1322:Drivers/STM32G4xx_HAL_Driver/Inc/stm32g4xx_ll_tim.h **** #define LL_TIM_BKIN_SOURCE_BKCOMP5             TIM1_AF1_BKCMP5E    /*!< internal signal: COMP5 outp
1323:Drivers/STM32G4xx_HAL_Driver/Inc/stm32g4xx_ll_tim.h **** #endif /* COMP5 */
1324:Drivers/STM32G4xx_HAL_Driver/Inc/stm32g4xx_ll_tim.h **** #if defined(COMP6)
1325:Drivers/STM32G4xx_HAL_Driver/Inc/stm32g4xx_ll_tim.h **** #define LL_TIM_BKIN_SOURCE_BKCOMP6             TIM1_AF1_BKCMP6E    /*!< internal signal: COMP6 outp
1326:Drivers/STM32G4xx_HAL_Driver/Inc/stm32g4xx_ll_tim.h **** #endif /* COMP6 */
1327:Drivers/STM32G4xx_HAL_Driver/Inc/stm32g4xx_ll_tim.h **** #if defined(COMP7)
1328:Drivers/STM32G4xx_HAL_Driver/Inc/stm32g4xx_ll_tim.h **** #define LL_TIM_BKIN_SOURCE_BKCOMP7             TIM1_AF1_BKCMP7E    /*!< internal signal: COMP7 outp
1329:Drivers/STM32G4xx_HAL_Driver/Inc/stm32g4xx_ll_tim.h **** #endif /* COMP7 */
1330:Drivers/STM32G4xx_HAL_Driver/Inc/stm32g4xx_ll_tim.h **** /**
1331:Drivers/STM32G4xx_HAL_Driver/Inc/stm32g4xx_ll_tim.h ****   * @}
1332:Drivers/STM32G4xx_HAL_Driver/Inc/stm32g4xx_ll_tim.h ****   */
1333:Drivers/STM32G4xx_HAL_Driver/Inc/stm32g4xx_ll_tim.h **** 
1334:Drivers/STM32G4xx_HAL_Driver/Inc/stm32g4xx_ll_tim.h **** /** @defgroup TIM_LL_EC_BKIN_POLARITY BKIN POLARITY
1335:Drivers/STM32G4xx_HAL_Driver/Inc/stm32g4xx_ll_tim.h ****   * @{
1336:Drivers/STM32G4xx_HAL_Driver/Inc/stm32g4xx_ll_tim.h ****   */
1337:Drivers/STM32G4xx_HAL_Driver/Inc/stm32g4xx_ll_tim.h **** #define LL_TIM_BKIN_POLARITY_LOW               TIM1_AF1_BKINP           /*!< BRK BKIN input is acti
1338:Drivers/STM32G4xx_HAL_Driver/Inc/stm32g4xx_ll_tim.h **** #define LL_TIM_BKIN_POLARITY_HIGH              0x00000000U              /*!< BRK BKIN input is acti
1339:Drivers/STM32G4xx_HAL_Driver/Inc/stm32g4xx_ll_tim.h **** /**
1340:Drivers/STM32G4xx_HAL_Driver/Inc/stm32g4xx_ll_tim.h ****   * @}
1341:Drivers/STM32G4xx_HAL_Driver/Inc/stm32g4xx_ll_tim.h ****   */
1342:Drivers/STM32G4xx_HAL_Driver/Inc/stm32g4xx_ll_tim.h **** 
1343:Drivers/STM32G4xx_HAL_Driver/Inc/stm32g4xx_ll_tim.h **** /** @defgroup TIM_LL_EC_BREAK_AFMODE BREAK AF MODE
1344:Drivers/STM32G4xx_HAL_Driver/Inc/stm32g4xx_ll_tim.h ****   * @{
1345:Drivers/STM32G4xx_HAL_Driver/Inc/stm32g4xx_ll_tim.h ****   */
1346:Drivers/STM32G4xx_HAL_Driver/Inc/stm32g4xx_ll_tim.h **** #define LL_TIM_BREAK_AFMODE_INPUT              0x00000000U              /*!< Break input BRK in inp
ARM GAS  /tmp/ccF6ITrB.s 			page 69


1347:Drivers/STM32G4xx_HAL_Driver/Inc/stm32g4xx_ll_tim.h **** #define LL_TIM_BREAK_AFMODE_BIDIRECTIONAL      TIM_BDTR_BKBID           /*!< Break input BRK in bid
1348:Drivers/STM32G4xx_HAL_Driver/Inc/stm32g4xx_ll_tim.h **** /**
1349:Drivers/STM32G4xx_HAL_Driver/Inc/stm32g4xx_ll_tim.h ****   * @}
1350:Drivers/STM32G4xx_HAL_Driver/Inc/stm32g4xx_ll_tim.h ****   */
1351:Drivers/STM32G4xx_HAL_Driver/Inc/stm32g4xx_ll_tim.h **** 
1352:Drivers/STM32G4xx_HAL_Driver/Inc/stm32g4xx_ll_tim.h **** /** @defgroup TIM_LL_EC_BREAK2_AFMODE BREAK2 AF MODE
1353:Drivers/STM32G4xx_HAL_Driver/Inc/stm32g4xx_ll_tim.h ****   * @{
1354:Drivers/STM32G4xx_HAL_Driver/Inc/stm32g4xx_ll_tim.h ****   */
1355:Drivers/STM32G4xx_HAL_Driver/Inc/stm32g4xx_ll_tim.h **** #define LL_TIM_BREAK2_AFMODE_INPUT             0x00000000U             /*!< Break2 input BRK2 in in
1356:Drivers/STM32G4xx_HAL_Driver/Inc/stm32g4xx_ll_tim.h **** #define LL_TIM_BREAK2_AFMODE_BIDIRECTIONAL     TIM_BDTR_BK2BID         /*!< Break2 input BRK2 in bi
1357:Drivers/STM32G4xx_HAL_Driver/Inc/stm32g4xx_ll_tim.h **** /**
1358:Drivers/STM32G4xx_HAL_Driver/Inc/stm32g4xx_ll_tim.h ****   * @}
1359:Drivers/STM32G4xx_HAL_Driver/Inc/stm32g4xx_ll_tim.h ****   */
1360:Drivers/STM32G4xx_HAL_Driver/Inc/stm32g4xx_ll_tim.h **** 
1361:Drivers/STM32G4xx_HAL_Driver/Inc/stm32g4xx_ll_tim.h **** /** Legacy definitions for compatibility purpose
1362:Drivers/STM32G4xx_HAL_Driver/Inc/stm32g4xx_ll_tim.h **** @cond 0
1363:Drivers/STM32G4xx_HAL_Driver/Inc/stm32g4xx_ll_tim.h ****   */
1364:Drivers/STM32G4xx_HAL_Driver/Inc/stm32g4xx_ll_tim.h **** #define LL_TIM_ReArmBRK(_PARAM_)
1365:Drivers/STM32G4xx_HAL_Driver/Inc/stm32g4xx_ll_tim.h **** #define LL_TIM_ReArmBRK2(_PARAM_)
1366:Drivers/STM32G4xx_HAL_Driver/Inc/stm32g4xx_ll_tim.h **** /**
1367:Drivers/STM32G4xx_HAL_Driver/Inc/stm32g4xx_ll_tim.h **** @endcond
1368:Drivers/STM32G4xx_HAL_Driver/Inc/stm32g4xx_ll_tim.h ****   */
1369:Drivers/STM32G4xx_HAL_Driver/Inc/stm32g4xx_ll_tim.h **** 
1370:Drivers/STM32G4xx_HAL_Driver/Inc/stm32g4xx_ll_tim.h **** /** @defgroup TIM_LL_EC_DMABURST_BASEADDR DMA Burst Base Address
1371:Drivers/STM32G4xx_HAL_Driver/Inc/stm32g4xx_ll_tim.h ****   * @{
1372:Drivers/STM32G4xx_HAL_Driver/Inc/stm32g4xx_ll_tim.h ****   */
1373:Drivers/STM32G4xx_HAL_Driver/Inc/stm32g4xx_ll_tim.h **** #define LL_TIM_DMABURST_BASEADDR_CR1           0x00000000U                                         
1374:Drivers/STM32G4xx_HAL_Driver/Inc/stm32g4xx_ll_tim.h **** #define LL_TIM_DMABURST_BASEADDR_CR2           TIM_DCR_DBA_0                                       
1375:Drivers/STM32G4xx_HAL_Driver/Inc/stm32g4xx_ll_tim.h **** #define LL_TIM_DMABURST_BASEADDR_SMCR          TIM_DCR_DBA_1                                       
1376:Drivers/STM32G4xx_HAL_Driver/Inc/stm32g4xx_ll_tim.h **** #define LL_TIM_DMABURST_BASEADDR_DIER          (TIM_DCR_DBA_1 |  TIM_DCR_DBA_0)                    
1377:Drivers/STM32G4xx_HAL_Driver/Inc/stm32g4xx_ll_tim.h **** #define LL_TIM_DMABURST_BASEADDR_SR            TIM_DCR_DBA_2                                       
1378:Drivers/STM32G4xx_HAL_Driver/Inc/stm32g4xx_ll_tim.h **** #define LL_TIM_DMABURST_BASEADDR_EGR           (TIM_DCR_DBA_2 | TIM_DCR_DBA_0)                     
1379:Drivers/STM32G4xx_HAL_Driver/Inc/stm32g4xx_ll_tim.h **** #define LL_TIM_DMABURST_BASEADDR_CCMR1         (TIM_DCR_DBA_2 | TIM_DCR_DBA_1)                     
1380:Drivers/STM32G4xx_HAL_Driver/Inc/stm32g4xx_ll_tim.h **** #define LL_TIM_DMABURST_BASEADDR_CCMR2         (TIM_DCR_DBA_2 | TIM_DCR_DBA_1 | TIM_DCR_DBA_0)     
1381:Drivers/STM32G4xx_HAL_Driver/Inc/stm32g4xx_ll_tim.h **** #define LL_TIM_DMABURST_BASEADDR_CCER          TIM_DCR_DBA_3                                       
1382:Drivers/STM32G4xx_HAL_Driver/Inc/stm32g4xx_ll_tim.h **** #define LL_TIM_DMABURST_BASEADDR_CNT           (TIM_DCR_DBA_3 | TIM_DCR_DBA_0)                     
1383:Drivers/STM32G4xx_HAL_Driver/Inc/stm32g4xx_ll_tim.h **** #define LL_TIM_DMABURST_BASEADDR_PSC           (TIM_DCR_DBA_3 | TIM_DCR_DBA_1)                     
1384:Drivers/STM32G4xx_HAL_Driver/Inc/stm32g4xx_ll_tim.h **** #define LL_TIM_DMABURST_BASEADDR_ARR           (TIM_DCR_DBA_3 | TIM_DCR_DBA_1 | TIM_DCR_DBA_0)     
1385:Drivers/STM32G4xx_HAL_Driver/Inc/stm32g4xx_ll_tim.h **** #define LL_TIM_DMABURST_BASEADDR_RCR           (TIM_DCR_DBA_3 | TIM_DCR_DBA_2)                     
1386:Drivers/STM32G4xx_HAL_Driver/Inc/stm32g4xx_ll_tim.h **** #define LL_TIM_DMABURST_BASEADDR_CCR1          (TIM_DCR_DBA_3 | TIM_DCR_DBA_2 | TIM_DCR_DBA_0)     
1387:Drivers/STM32G4xx_HAL_Driver/Inc/stm32g4xx_ll_tim.h **** #define LL_TIM_DMABURST_BASEADDR_CCR2          (TIM_DCR_DBA_3 | TIM_DCR_DBA_2 | TIM_DCR_DBA_1)     
1388:Drivers/STM32G4xx_HAL_Driver/Inc/stm32g4xx_ll_tim.h **** #define LL_TIM_DMABURST_BASEADDR_CCR3          (TIM_DCR_DBA_3 | TIM_DCR_DBA_2 | TIM_DCR_DBA_1 | TIM
1389:Drivers/STM32G4xx_HAL_Driver/Inc/stm32g4xx_ll_tim.h **** #define LL_TIM_DMABURST_BASEADDR_CCR4          TIM_DCR_DBA_4                                       
1390:Drivers/STM32G4xx_HAL_Driver/Inc/stm32g4xx_ll_tim.h **** #define LL_TIM_DMABURST_BASEADDR_BDTR          (TIM_DCR_DBA_4 | TIM_DCR_DBA_0)                     
1391:Drivers/STM32G4xx_HAL_Driver/Inc/stm32g4xx_ll_tim.h **** #define LL_TIM_DMABURST_BASEADDR_CCR5          (TIM_DCR_DBA_4 | TIM_DCR_DBA_1)                     
1392:Drivers/STM32G4xx_HAL_Driver/Inc/stm32g4xx_ll_tim.h **** #define LL_TIM_DMABURST_BASEADDR_CCR6          (TIM_DCR_DBA_4 | TIM_DCR_DBA_1 | TIM_DCR_DBA_0)     
1393:Drivers/STM32G4xx_HAL_Driver/Inc/stm32g4xx_ll_tim.h **** #define LL_TIM_DMABURST_BASEADDR_CCMR3         (TIM_DCR_DBA_4 | TIM_DCR_DBA_2)                     
1394:Drivers/STM32G4xx_HAL_Driver/Inc/stm32g4xx_ll_tim.h **** #define LL_TIM_DMABURST_BASEADDR_DTR2          (TIM_DCR_DBA_4 | TIM_DCR_DBA_2 | TIM_DCR_DBA_0)     
1395:Drivers/STM32G4xx_HAL_Driver/Inc/stm32g4xx_ll_tim.h **** #define LL_TIM_DMABURST_BASEADDR_ECR           (TIM_DCR_DBA_4 | TIM_DCR_DBA_2 | TIM_DCR_DBA_1)     
1396:Drivers/STM32G4xx_HAL_Driver/Inc/stm32g4xx_ll_tim.h **** #define LL_TIM_DMABURST_BASEADDR_TISEL         (TIM_DCR_DBA_4 | TIM_DCR_DBA_2 | TIM_DCR_DBA_1 | TIM
1397:Drivers/STM32G4xx_HAL_Driver/Inc/stm32g4xx_ll_tim.h **** #define LL_TIM_DMABURST_BASEADDR_AF1           (TIM_DCR_DBA_4 | TIM_DCR_DBA_3)                     
1398:Drivers/STM32G4xx_HAL_Driver/Inc/stm32g4xx_ll_tim.h **** #define LL_TIM_DMABURST_BASEADDR_AF2           (TIM_DCR_DBA_4 | TIM_DCR_DBA_3 | TIM_DCR_DBA_0)     
1399:Drivers/STM32G4xx_HAL_Driver/Inc/stm32g4xx_ll_tim.h **** #define LL_TIM_DMABURST_BASEADDR_OR            (TIM_DCR_DBA_4 | TIM_DCR_DBA_3 | TIM_DCR_DBA_1)     
1400:Drivers/STM32G4xx_HAL_Driver/Inc/stm32g4xx_ll_tim.h **** /**
1401:Drivers/STM32G4xx_HAL_Driver/Inc/stm32g4xx_ll_tim.h ****   * @}
1402:Drivers/STM32G4xx_HAL_Driver/Inc/stm32g4xx_ll_tim.h ****   */
1403:Drivers/STM32G4xx_HAL_Driver/Inc/stm32g4xx_ll_tim.h **** 
ARM GAS  /tmp/ccF6ITrB.s 			page 70


1404:Drivers/STM32G4xx_HAL_Driver/Inc/stm32g4xx_ll_tim.h **** /** @defgroup TIM_LL_EC_DMABURST_LENGTH DMA Burst Length
1405:Drivers/STM32G4xx_HAL_Driver/Inc/stm32g4xx_ll_tim.h ****   * @{
1406:Drivers/STM32G4xx_HAL_Driver/Inc/stm32g4xx_ll_tim.h ****   */
1407:Drivers/STM32G4xx_HAL_Driver/Inc/stm32g4xx_ll_tim.h **** #define LL_TIM_DMABURST_LENGTH_1TRANSFER       0x00000000U                                         
1408:Drivers/STM32G4xx_HAL_Driver/Inc/stm32g4xx_ll_tim.h **** #define LL_TIM_DMABURST_LENGTH_2TRANSFERS      TIM_DCR_DBL_0                                       
1409:Drivers/STM32G4xx_HAL_Driver/Inc/stm32g4xx_ll_tim.h **** #define LL_TIM_DMABURST_LENGTH_3TRANSFERS      TIM_DCR_DBL_1                                       
1410:Drivers/STM32G4xx_HAL_Driver/Inc/stm32g4xx_ll_tim.h **** #define LL_TIM_DMABURST_LENGTH_4TRANSFERS      (TIM_DCR_DBL_1 |  TIM_DCR_DBL_0)                    
1411:Drivers/STM32G4xx_HAL_Driver/Inc/stm32g4xx_ll_tim.h **** #define LL_TIM_DMABURST_LENGTH_5TRANSFERS      TIM_DCR_DBL_2                                       
1412:Drivers/STM32G4xx_HAL_Driver/Inc/stm32g4xx_ll_tim.h **** #define LL_TIM_DMABURST_LENGTH_6TRANSFERS      (TIM_DCR_DBL_2 | TIM_DCR_DBL_0)                     
1413:Drivers/STM32G4xx_HAL_Driver/Inc/stm32g4xx_ll_tim.h **** #define LL_TIM_DMABURST_LENGTH_7TRANSFERS      (TIM_DCR_DBL_2 | TIM_DCR_DBL_1)                     
1414:Drivers/STM32G4xx_HAL_Driver/Inc/stm32g4xx_ll_tim.h **** #define LL_TIM_DMABURST_LENGTH_8TRANSFERS      (TIM_DCR_DBL_2 | TIM_DCR_DBL_1 | TIM_DCR_DBL_0)     
1415:Drivers/STM32G4xx_HAL_Driver/Inc/stm32g4xx_ll_tim.h **** #define LL_TIM_DMABURST_LENGTH_9TRANSFERS      TIM_DCR_DBL_3                                       
1416:Drivers/STM32G4xx_HAL_Driver/Inc/stm32g4xx_ll_tim.h **** #define LL_TIM_DMABURST_LENGTH_10TRANSFERS     (TIM_DCR_DBL_3 | TIM_DCR_DBL_0)                     
1417:Drivers/STM32G4xx_HAL_Driver/Inc/stm32g4xx_ll_tim.h **** #define LL_TIM_DMABURST_LENGTH_11TRANSFERS     (TIM_DCR_DBL_3 | TIM_DCR_DBL_1)                     
1418:Drivers/STM32G4xx_HAL_Driver/Inc/stm32g4xx_ll_tim.h **** #define LL_TIM_DMABURST_LENGTH_12TRANSFERS     (TIM_DCR_DBL_3 | TIM_DCR_DBL_1 | TIM_DCR_DBL_0)     
1419:Drivers/STM32G4xx_HAL_Driver/Inc/stm32g4xx_ll_tim.h **** #define LL_TIM_DMABURST_LENGTH_13TRANSFERS     (TIM_DCR_DBL_3 | TIM_DCR_DBL_2)                     
1420:Drivers/STM32G4xx_HAL_Driver/Inc/stm32g4xx_ll_tim.h **** #define LL_TIM_DMABURST_LENGTH_14TRANSFERS     (TIM_DCR_DBL_3 | TIM_DCR_DBL_2 | TIM_DCR_DBL_0)     
1421:Drivers/STM32G4xx_HAL_Driver/Inc/stm32g4xx_ll_tim.h **** #define LL_TIM_DMABURST_LENGTH_15TRANSFERS     (TIM_DCR_DBL_3 | TIM_DCR_DBL_2 | TIM_DCR_DBL_1)     
1422:Drivers/STM32G4xx_HAL_Driver/Inc/stm32g4xx_ll_tim.h **** #define LL_TIM_DMABURST_LENGTH_16TRANSFERS     (TIM_DCR_DBL_3 | TIM_DCR_DBL_2 | TIM_DCR_DBL_1 | TIM
1423:Drivers/STM32G4xx_HAL_Driver/Inc/stm32g4xx_ll_tim.h **** #define LL_TIM_DMABURST_LENGTH_17TRANSFERS     TIM_DCR_DBL_4                                       
1424:Drivers/STM32G4xx_HAL_Driver/Inc/stm32g4xx_ll_tim.h **** #define LL_TIM_DMABURST_LENGTH_18TRANSFERS     (TIM_DCR_DBL_4 |  TIM_DCR_DBL_0)                    
1425:Drivers/STM32G4xx_HAL_Driver/Inc/stm32g4xx_ll_tim.h **** #define LL_TIM_DMABURST_LENGTH_19TRANSFERS     (TIM_DCR_DBL_4 | TIM_DCR_DBL_1)                     
1426:Drivers/STM32G4xx_HAL_Driver/Inc/stm32g4xx_ll_tim.h **** #define LL_TIM_DMABURST_LENGTH_20TRANSFERS     (TIM_DCR_DBL_4 | TIM_DCR_DBL_1 | TIM_DCR_DBL_0)     
1427:Drivers/STM32G4xx_HAL_Driver/Inc/stm32g4xx_ll_tim.h **** #define LL_TIM_DMABURST_LENGTH_21TRANSFERS     (TIM_DCR_DBL_4 | TIM_DCR_DBL_2)                     
1428:Drivers/STM32G4xx_HAL_Driver/Inc/stm32g4xx_ll_tim.h **** #define LL_TIM_DMABURST_LENGTH_22TRANSFERS     (TIM_DCR_DBL_4 | TIM_DCR_DBL_2 | TIM_DCR_DBL_0)     
1429:Drivers/STM32G4xx_HAL_Driver/Inc/stm32g4xx_ll_tim.h **** #define LL_TIM_DMABURST_LENGTH_23TRANSFERS     (TIM_DCR_DBL_4 | TIM_DCR_DBL_2 | TIM_DCR_DBL_1)     
1430:Drivers/STM32G4xx_HAL_Driver/Inc/stm32g4xx_ll_tim.h **** #define LL_TIM_DMABURST_LENGTH_24TRANSFERS     (TIM_DCR_DBL_4 | TIM_DCR_DBL_2 | TIM_DCR_DBL_1 | TIM
1431:Drivers/STM32G4xx_HAL_Driver/Inc/stm32g4xx_ll_tim.h **** #define LL_TIM_DMABURST_LENGTH_25TRANSFERS     (TIM_DCR_DBL_4 | TIM_DCR_DBL_3)                     
1432:Drivers/STM32G4xx_HAL_Driver/Inc/stm32g4xx_ll_tim.h **** #define LL_TIM_DMABURST_LENGTH_26TRANSFERS     (TIM_DCR_DBL_4 | TIM_DCR_DBL_3 | TIM_DCR_DBL_0)     
1433:Drivers/STM32G4xx_HAL_Driver/Inc/stm32g4xx_ll_tim.h **** /**
1434:Drivers/STM32G4xx_HAL_Driver/Inc/stm32g4xx_ll_tim.h ****   * @}
1435:Drivers/STM32G4xx_HAL_Driver/Inc/stm32g4xx_ll_tim.h ****   */
1436:Drivers/STM32G4xx_HAL_Driver/Inc/stm32g4xx_ll_tim.h **** 
1437:Drivers/STM32G4xx_HAL_Driver/Inc/stm32g4xx_ll_tim.h **** /** @defgroup TIM_LL_EC_TIM1_TI1_RMP  TIM1 Timer Input Ch1 Remap
1438:Drivers/STM32G4xx_HAL_Driver/Inc/stm32g4xx_ll_tim.h ****   * @{
1439:Drivers/STM32G4xx_HAL_Driver/Inc/stm32g4xx_ll_tim.h ****   */
1440:Drivers/STM32G4xx_HAL_Driver/Inc/stm32g4xx_ll_tim.h **** #define LL_TIM_TIM1_TI1_RMP_GPIO   0x00000000U                                       /*!< TIM1 inpu
1441:Drivers/STM32G4xx_HAL_Driver/Inc/stm32g4xx_ll_tim.h **** #define LL_TIM_TIM1_TI1_RMP_COMP1  TIM_TISEL_TI1SEL_0                                /*!< TIM1 inpu
1442:Drivers/STM32G4xx_HAL_Driver/Inc/stm32g4xx_ll_tim.h **** #define LL_TIM_TIM1_TI1_RMP_COMP2  TIM_TISEL_TI1SEL_1                                /*!< TIM1 inpu
1443:Drivers/STM32G4xx_HAL_Driver/Inc/stm32g4xx_ll_tim.h **** #define LL_TIM_TIM1_TI1_RMP_COMP3  (TIM_TISEL_TI1SEL_1 | TIM_TISEL_TI1SEL_0)         /*!< TIM1 inpu
1444:Drivers/STM32G4xx_HAL_Driver/Inc/stm32g4xx_ll_tim.h **** #define LL_TIM_TIM1_TI1_RMP_COMP4  TIM_TISEL_TI1SEL_2                                /*!< TIM1 inpu
1445:Drivers/STM32G4xx_HAL_Driver/Inc/stm32g4xx_ll_tim.h **** /**
1446:Drivers/STM32G4xx_HAL_Driver/Inc/stm32g4xx_ll_tim.h ****   * @}
1447:Drivers/STM32G4xx_HAL_Driver/Inc/stm32g4xx_ll_tim.h ****   */
1448:Drivers/STM32G4xx_HAL_Driver/Inc/stm32g4xx_ll_tim.h **** 
1449:Drivers/STM32G4xx_HAL_Driver/Inc/stm32g4xx_ll_tim.h **** /** @defgroup TIM_LL_EC_TIM2_TI1_RMP  TIM2 Timer Input Ch1 Remap
1450:Drivers/STM32G4xx_HAL_Driver/Inc/stm32g4xx_ll_tim.h ****   * @{
1451:Drivers/STM32G4xx_HAL_Driver/Inc/stm32g4xx_ll_tim.h ****   */
1452:Drivers/STM32G4xx_HAL_Driver/Inc/stm32g4xx_ll_tim.h **** #define LL_TIM_TIM2_TI1_RMP_GPIO   0x00000000U                                       /*!< TIM2 inpu
1453:Drivers/STM32G4xx_HAL_Driver/Inc/stm32g4xx_ll_tim.h **** #define LL_TIM_TIM2_TI1_RMP_COMP1  TIM_TISEL_TI1SEL_0                                /*!< TIM2 inpu
1454:Drivers/STM32G4xx_HAL_Driver/Inc/stm32g4xx_ll_tim.h **** #define LL_TIM_TIM2_TI1_RMP_COMP2  TIM_TISEL_TI1SEL_1                                /*!< TIM2 inpu
1455:Drivers/STM32G4xx_HAL_Driver/Inc/stm32g4xx_ll_tim.h **** #define LL_TIM_TIM2_TI1_RMP_COMP3  (TIM_TISEL_TI1SEL_1 | TIM_TISEL_TI1SEL_0)         /*!< TIM2 inpu
1456:Drivers/STM32G4xx_HAL_Driver/Inc/stm32g4xx_ll_tim.h **** #define LL_TIM_TIM2_TI1_RMP_COMP4  TIM_TISEL_TI1SEL_2                                /*!< TIM2 inpu
1457:Drivers/STM32G4xx_HAL_Driver/Inc/stm32g4xx_ll_tim.h **** #if defined(COMP5)
1458:Drivers/STM32G4xx_HAL_Driver/Inc/stm32g4xx_ll_tim.h **** #define LL_TIM_TIM2_TI1_RMP_COMP5  (TIM_TISEL_TI1SEL_2 | TIM_TISEL_TI1SEL_0)         /*!< TIM2 inpu
1459:Drivers/STM32G4xx_HAL_Driver/Inc/stm32g4xx_ll_tim.h **** #endif /* COMP5 */
1460:Drivers/STM32G4xx_HAL_Driver/Inc/stm32g4xx_ll_tim.h **** /**
ARM GAS  /tmp/ccF6ITrB.s 			page 71


1461:Drivers/STM32G4xx_HAL_Driver/Inc/stm32g4xx_ll_tim.h ****   * @}
1462:Drivers/STM32G4xx_HAL_Driver/Inc/stm32g4xx_ll_tim.h ****   */
1463:Drivers/STM32G4xx_HAL_Driver/Inc/stm32g4xx_ll_tim.h **** 
1464:Drivers/STM32G4xx_HAL_Driver/Inc/stm32g4xx_ll_tim.h **** /** @defgroup TIM_LL_EC_TIM2_TI2_RMP  TIM2 Timer Input Ch2 Remap
1465:Drivers/STM32G4xx_HAL_Driver/Inc/stm32g4xx_ll_tim.h ****   * @{
1466:Drivers/STM32G4xx_HAL_Driver/Inc/stm32g4xx_ll_tim.h ****   */
1467:Drivers/STM32G4xx_HAL_Driver/Inc/stm32g4xx_ll_tim.h **** #define LL_TIM_TIM2_TI2_RMP_GPIO   0x00000000U                                       /*!< TIM2 inpu
1468:Drivers/STM32G4xx_HAL_Driver/Inc/stm32g4xx_ll_tim.h **** #define LL_TIM_TIM2_TI2_RMP_COMP1  TIM_TISEL_TI2SEL_0                                /*!< TIM2 inpu
1469:Drivers/STM32G4xx_HAL_Driver/Inc/stm32g4xx_ll_tim.h **** #define LL_TIM_TIM2_TI2_RMP_COMP2  TIM_TISEL_TI2SEL_1                                /*!< TIM2 inpu
1470:Drivers/STM32G4xx_HAL_Driver/Inc/stm32g4xx_ll_tim.h **** #define LL_TIM_TIM2_TI2_RMP_COMP3  (TIM_TISEL_TI2SEL_1 | TIM_TISEL_TI2SEL_0)         /*!< TIM2 inpu
1471:Drivers/STM32G4xx_HAL_Driver/Inc/stm32g4xx_ll_tim.h **** #define LL_TIM_TIM2_TI2_RMP_COMP4  TIM_TISEL_TI2SEL_2                                /*!< TIM2 inpu
1472:Drivers/STM32G4xx_HAL_Driver/Inc/stm32g4xx_ll_tim.h **** #if defined(COMP6)
1473:Drivers/STM32G4xx_HAL_Driver/Inc/stm32g4xx_ll_tim.h **** #define LL_TIM_TIM2_TI2_RMP_COMP6  (TIM_TISEL_TI2SEL_2 | TIM_TISEL_TI2SEL_0)         /*!< TIM2 inpu
1474:Drivers/STM32G4xx_HAL_Driver/Inc/stm32g4xx_ll_tim.h **** #endif /* COMP6 */
1475:Drivers/STM32G4xx_HAL_Driver/Inc/stm32g4xx_ll_tim.h **** /**
1476:Drivers/STM32G4xx_HAL_Driver/Inc/stm32g4xx_ll_tim.h ****   * @}
1477:Drivers/STM32G4xx_HAL_Driver/Inc/stm32g4xx_ll_tim.h ****   */
1478:Drivers/STM32G4xx_HAL_Driver/Inc/stm32g4xx_ll_tim.h **** 
1479:Drivers/STM32G4xx_HAL_Driver/Inc/stm32g4xx_ll_tim.h **** /** @defgroup TIM_LL_EC_TIM2_TI3_RMP  TIM2 Timer Input Ch3 Remap
1480:Drivers/STM32G4xx_HAL_Driver/Inc/stm32g4xx_ll_tim.h ****   * @{
1481:Drivers/STM32G4xx_HAL_Driver/Inc/stm32g4xx_ll_tim.h ****   */
1482:Drivers/STM32G4xx_HAL_Driver/Inc/stm32g4xx_ll_tim.h **** #define LL_TIM_TIM2_TI3_RMP_GPIO   0x00000000U                                       /*!< TIM2 inpu
1483:Drivers/STM32G4xx_HAL_Driver/Inc/stm32g4xx_ll_tim.h **** #define LL_TIM_TIM2_TI3_RMP_COMP4  TIM_TISEL_TI3SEL_0                                /*!< TIM2 inpu
1484:Drivers/STM32G4xx_HAL_Driver/Inc/stm32g4xx_ll_tim.h **** /**
1485:Drivers/STM32G4xx_HAL_Driver/Inc/stm32g4xx_ll_tim.h ****   * @}
1486:Drivers/STM32G4xx_HAL_Driver/Inc/stm32g4xx_ll_tim.h ****   */
1487:Drivers/STM32G4xx_HAL_Driver/Inc/stm32g4xx_ll_tim.h **** 
1488:Drivers/STM32G4xx_HAL_Driver/Inc/stm32g4xx_ll_tim.h **** /** @defgroup TIM_LL_EC_TIM2_TI4_RMP  TIM2 Timer Input Ch4 Remap
1489:Drivers/STM32G4xx_HAL_Driver/Inc/stm32g4xx_ll_tim.h ****   * @{
1490:Drivers/STM32G4xx_HAL_Driver/Inc/stm32g4xx_ll_tim.h ****   */
1491:Drivers/STM32G4xx_HAL_Driver/Inc/stm32g4xx_ll_tim.h **** #define LL_TIM_TIM2_TI4_RMP_GPIO   0x00000000U                                       /*!< TIM2 inpu
1492:Drivers/STM32G4xx_HAL_Driver/Inc/stm32g4xx_ll_tim.h **** #define LL_TIM_TIM2_TI4_RMP_COMP1  TIM_TISEL_TI4SEL_0                                /*!< TIM2 inpu
1493:Drivers/STM32G4xx_HAL_Driver/Inc/stm32g4xx_ll_tim.h **** #define LL_TIM_TIM2_TI4_RMP_COMP2  TIM_TISEL_TI4SEL_1                                /*!< TIM2 inpu
1494:Drivers/STM32G4xx_HAL_Driver/Inc/stm32g4xx_ll_tim.h **** /**
1495:Drivers/STM32G4xx_HAL_Driver/Inc/stm32g4xx_ll_tim.h ****   * @}
1496:Drivers/STM32G4xx_HAL_Driver/Inc/stm32g4xx_ll_tim.h ****   */
1497:Drivers/STM32G4xx_HAL_Driver/Inc/stm32g4xx_ll_tim.h **** 
1498:Drivers/STM32G4xx_HAL_Driver/Inc/stm32g4xx_ll_tim.h **** /** @defgroup TIM_LL_EC_TIM3_TI1_RMP  TIM3 Timer Input Ch1 Remap
1499:Drivers/STM32G4xx_HAL_Driver/Inc/stm32g4xx_ll_tim.h ****   * @{
1500:Drivers/STM32G4xx_HAL_Driver/Inc/stm32g4xx_ll_tim.h ****   */
1501:Drivers/STM32G4xx_HAL_Driver/Inc/stm32g4xx_ll_tim.h **** #define LL_TIM_TIM3_TI1_RMP_GPIO   0x00000000U                                       /*!< TIM3 inpu
1502:Drivers/STM32G4xx_HAL_Driver/Inc/stm32g4xx_ll_tim.h **** #define LL_TIM_TIM3_TI1_RMP_COMP1  TIM_TISEL_TI1SEL_0                                /*!< TIM3 inpu
1503:Drivers/STM32G4xx_HAL_Driver/Inc/stm32g4xx_ll_tim.h **** #define LL_TIM_TIM3_TI1_RMP_COMP2  TIM_TISEL_TI1SEL_1                                /*!< TIM3 inpu
1504:Drivers/STM32G4xx_HAL_Driver/Inc/stm32g4xx_ll_tim.h **** #define LL_TIM_TIM3_TI1_RMP_COMP3  (TIM_TISEL_TI1SEL_1 | TIM_TISEL_TI1SEL_0)         /*!< TIM3 inpu
1505:Drivers/STM32G4xx_HAL_Driver/Inc/stm32g4xx_ll_tim.h **** #define LL_TIM_TIM3_TI1_RMP_COMP4  TIM_TISEL_TI1SEL_2                                /*!< TIM3 inpu
1506:Drivers/STM32G4xx_HAL_Driver/Inc/stm32g4xx_ll_tim.h **** #if defined(COMP5)
1507:Drivers/STM32G4xx_HAL_Driver/Inc/stm32g4xx_ll_tim.h **** #define LL_TIM_TIM3_TI1_RMP_COMP5  (TIM_TISEL_TI1SEL_2 | TIM_TISEL_TI1SEL_0)         /*!< TIM3 inpu
1508:Drivers/STM32G4xx_HAL_Driver/Inc/stm32g4xx_ll_tim.h **** #endif /* COMP5 */
1509:Drivers/STM32G4xx_HAL_Driver/Inc/stm32g4xx_ll_tim.h **** #if defined(COMP6)
1510:Drivers/STM32G4xx_HAL_Driver/Inc/stm32g4xx_ll_tim.h **** #define LL_TIM_TIM3_TI1_RMP_COMP6  (TIM_TISEL_TI1SEL_2 | TIM_TISEL_TI1SEL_1)         /*!< TIM3 inpu
1511:Drivers/STM32G4xx_HAL_Driver/Inc/stm32g4xx_ll_tim.h **** #endif /* COMP6 */
1512:Drivers/STM32G4xx_HAL_Driver/Inc/stm32g4xx_ll_tim.h **** #if defined(COMP7)
1513:Drivers/STM32G4xx_HAL_Driver/Inc/stm32g4xx_ll_tim.h **** #define LL_TIM_TIM3_TI1_RMP_COMP7  (TIM_TISEL_TI1SEL_2 | TIM_TISEL_TI1SEL_1 | TIM_TISEL_TI1SEL_0)  
1514:Drivers/STM32G4xx_HAL_Driver/Inc/stm32g4xx_ll_tim.h **** #endif /* COMP7 */
1515:Drivers/STM32G4xx_HAL_Driver/Inc/stm32g4xx_ll_tim.h **** /**
1516:Drivers/STM32G4xx_HAL_Driver/Inc/stm32g4xx_ll_tim.h ****   * @}
1517:Drivers/STM32G4xx_HAL_Driver/Inc/stm32g4xx_ll_tim.h ****   */
ARM GAS  /tmp/ccF6ITrB.s 			page 72


1518:Drivers/STM32G4xx_HAL_Driver/Inc/stm32g4xx_ll_tim.h **** 
1519:Drivers/STM32G4xx_HAL_Driver/Inc/stm32g4xx_ll_tim.h **** /** @defgroup TIM_LL_EC_TIM3_TI2_RMP  TIM3 Timer Input Ch2 Remap
1520:Drivers/STM32G4xx_HAL_Driver/Inc/stm32g4xx_ll_tim.h ****   * @{
1521:Drivers/STM32G4xx_HAL_Driver/Inc/stm32g4xx_ll_tim.h ****   */
1522:Drivers/STM32G4xx_HAL_Driver/Inc/stm32g4xx_ll_tim.h **** #define LL_TIM_TIM3_TI2_RMP_GPIO   0x00000000U                                       /*!< TIM3 inpu
1523:Drivers/STM32G4xx_HAL_Driver/Inc/stm32g4xx_ll_tim.h **** #define LL_TIM_TIM3_TI2_RMP_COMP1  TIM_TISEL_TI2SEL_0                                /*!< TIM3 inpu
1524:Drivers/STM32G4xx_HAL_Driver/Inc/stm32g4xx_ll_tim.h **** #define LL_TIM_TIM3_TI2_RMP_COMP2  TIM_TISEL_TI2SEL_1                                /*!< TIM3 inpu
1525:Drivers/STM32G4xx_HAL_Driver/Inc/stm32g4xx_ll_tim.h **** #define LL_TIM_TIM3_TI2_RMP_COMP3  (TIM_TISEL_TI2SEL_1 | TIM_TISEL_TI2SEL_0)         /*!< TIM3 inpu
1526:Drivers/STM32G4xx_HAL_Driver/Inc/stm32g4xx_ll_tim.h **** #define LL_TIM_TIM3_TI2_RMP_COMP4  TIM_TISEL_TI2SEL_2                                /*!< TIM3 inpu
1527:Drivers/STM32G4xx_HAL_Driver/Inc/stm32g4xx_ll_tim.h **** #if defined(COMP5)
1528:Drivers/STM32G4xx_HAL_Driver/Inc/stm32g4xx_ll_tim.h **** #define LL_TIM_TIM3_TI2_RMP_COMP5  (TIM_TISEL_TI2SEL_2 | TIM_TISEL_TI2SEL_0)         /*!< TIM3 inpu
1529:Drivers/STM32G4xx_HAL_Driver/Inc/stm32g4xx_ll_tim.h **** #endif /* COMP5 */
1530:Drivers/STM32G4xx_HAL_Driver/Inc/stm32g4xx_ll_tim.h **** #if defined(COMP6)
1531:Drivers/STM32G4xx_HAL_Driver/Inc/stm32g4xx_ll_tim.h **** #define LL_TIM_TIM3_TI2_RMP_COMP6  (TIM_TISEL_TI2SEL_2 | TIM_TISEL_TI2SEL_1)         /*!< TIM3 inpu
1532:Drivers/STM32G4xx_HAL_Driver/Inc/stm32g4xx_ll_tim.h **** #endif /* COMP6 */
1533:Drivers/STM32G4xx_HAL_Driver/Inc/stm32g4xx_ll_tim.h **** #if defined(COMP7)
1534:Drivers/STM32G4xx_HAL_Driver/Inc/stm32g4xx_ll_tim.h **** #define LL_TIM_TIM3_TI2_RMP_COMP7  (TIM_TISEL_TI2SEL_2 | TIM_TISEL_TI2SEL_1 | TIM_TISEL_TI2SEL_0)  
1535:Drivers/STM32G4xx_HAL_Driver/Inc/stm32g4xx_ll_tim.h **** #endif /* COMP7 */
1536:Drivers/STM32G4xx_HAL_Driver/Inc/stm32g4xx_ll_tim.h **** /**
1537:Drivers/STM32G4xx_HAL_Driver/Inc/stm32g4xx_ll_tim.h ****   * @}
1538:Drivers/STM32G4xx_HAL_Driver/Inc/stm32g4xx_ll_tim.h ****   */
1539:Drivers/STM32G4xx_HAL_Driver/Inc/stm32g4xx_ll_tim.h **** 
1540:Drivers/STM32G4xx_HAL_Driver/Inc/stm32g4xx_ll_tim.h **** /** @defgroup TIM_LL_EC_TIM3_TI3_RMP  TIM3 Timer Input Ch3 Remap
1541:Drivers/STM32G4xx_HAL_Driver/Inc/stm32g4xx_ll_tim.h ****   * @{
1542:Drivers/STM32G4xx_HAL_Driver/Inc/stm32g4xx_ll_tim.h ****   */
1543:Drivers/STM32G4xx_HAL_Driver/Inc/stm32g4xx_ll_tim.h **** #define LL_TIM_TIM3_TI3_RMP_GPIO   0x00000000U                                       /*!< TIM3 inpu
1544:Drivers/STM32G4xx_HAL_Driver/Inc/stm32g4xx_ll_tim.h **** #define LL_TIM_TIM3_TI3_RMP_COMP3  TIM_TISEL_TI3SEL_0                                /*!< TIM3 inpu
1545:Drivers/STM32G4xx_HAL_Driver/Inc/stm32g4xx_ll_tim.h **** /**
1546:Drivers/STM32G4xx_HAL_Driver/Inc/stm32g4xx_ll_tim.h ****   * @}
1547:Drivers/STM32G4xx_HAL_Driver/Inc/stm32g4xx_ll_tim.h ****   */
1548:Drivers/STM32G4xx_HAL_Driver/Inc/stm32g4xx_ll_tim.h **** 
1549:Drivers/STM32G4xx_HAL_Driver/Inc/stm32g4xx_ll_tim.h **** /** @defgroup TIM_LL_EC_TIM4_TI1_RMP  TIM4 Timer Input Ch1 Remap
1550:Drivers/STM32G4xx_HAL_Driver/Inc/stm32g4xx_ll_tim.h ****   * @{
1551:Drivers/STM32G4xx_HAL_Driver/Inc/stm32g4xx_ll_tim.h ****   */
1552:Drivers/STM32G4xx_HAL_Driver/Inc/stm32g4xx_ll_tim.h **** #define LL_TIM_TIM4_TI1_RMP_GPIO   0x00000000U                                       /*!< TIM4 inpu
1553:Drivers/STM32G4xx_HAL_Driver/Inc/stm32g4xx_ll_tim.h **** #define LL_TIM_TIM4_TI1_RMP_COMP1  TIM_TISEL_TI1SEL_0                                /*!< TIM4 inpu
1554:Drivers/STM32G4xx_HAL_Driver/Inc/stm32g4xx_ll_tim.h **** #define LL_TIM_TIM4_TI1_RMP_COMP2  TIM_TISEL_TI1SEL_1                                /*!< TIM4 inpu
1555:Drivers/STM32G4xx_HAL_Driver/Inc/stm32g4xx_ll_tim.h **** #define LL_TIM_TIM4_TI1_RMP_COMP3  (TIM_TISEL_TI1SEL_1 | TIM_TISEL_TI1SEL_0)         /*!< TIM4 inpu
1556:Drivers/STM32G4xx_HAL_Driver/Inc/stm32g4xx_ll_tim.h **** #define LL_TIM_TIM4_TI1_RMP_COMP4  TIM_TISEL_TI1SEL_2                                /*!< TIM4 inpu
1557:Drivers/STM32G4xx_HAL_Driver/Inc/stm32g4xx_ll_tim.h **** #if defined(COMP5)
1558:Drivers/STM32G4xx_HAL_Driver/Inc/stm32g4xx_ll_tim.h **** #define LL_TIM_TIM4_TI1_RMP_COMP5  (TIM_TISEL_TI1SEL_2 | TIM_TISEL_TI1SEL_0)         /*!< TIM4 inpu
1559:Drivers/STM32G4xx_HAL_Driver/Inc/stm32g4xx_ll_tim.h **** #endif /* COMP5 */
1560:Drivers/STM32G4xx_HAL_Driver/Inc/stm32g4xx_ll_tim.h **** #if defined(COMP6)
1561:Drivers/STM32G4xx_HAL_Driver/Inc/stm32g4xx_ll_tim.h **** #define LL_TIM_TIM4_TI1_RMP_COMP6  (TIM_TISEL_TI1SEL_2 | TIM_TISEL_TI1SEL_1)         /*!< TIM4 inpu
1562:Drivers/STM32G4xx_HAL_Driver/Inc/stm32g4xx_ll_tim.h **** #endif /* COMP6 */
1563:Drivers/STM32G4xx_HAL_Driver/Inc/stm32g4xx_ll_tim.h **** #if defined(COMP7)
1564:Drivers/STM32G4xx_HAL_Driver/Inc/stm32g4xx_ll_tim.h **** #define LL_TIM_TIM4_TI1_RMP_COMP7  (TIM_TISEL_TI1SEL_2 | TIM_TISEL_TI1SEL_1 | TIM_TISEL_TI1SEL_0)  
1565:Drivers/STM32G4xx_HAL_Driver/Inc/stm32g4xx_ll_tim.h **** #endif /* COMP7 */
1566:Drivers/STM32G4xx_HAL_Driver/Inc/stm32g4xx_ll_tim.h **** /**
1567:Drivers/STM32G4xx_HAL_Driver/Inc/stm32g4xx_ll_tim.h ****   * @}
1568:Drivers/STM32G4xx_HAL_Driver/Inc/stm32g4xx_ll_tim.h ****   */
1569:Drivers/STM32G4xx_HAL_Driver/Inc/stm32g4xx_ll_tim.h **** 
1570:Drivers/STM32G4xx_HAL_Driver/Inc/stm32g4xx_ll_tim.h **** /** @defgroup TIM_LL_EC_TIM4_TI2_RMP  TIM4 Timer Input Ch2 Remap
1571:Drivers/STM32G4xx_HAL_Driver/Inc/stm32g4xx_ll_tim.h ****   * @{
1572:Drivers/STM32G4xx_HAL_Driver/Inc/stm32g4xx_ll_tim.h ****   */
1573:Drivers/STM32G4xx_HAL_Driver/Inc/stm32g4xx_ll_tim.h **** #define LL_TIM_TIM4_TI2_RMP_GPIO   0x00000000U                                       /*!< TIM4 inpu
1574:Drivers/STM32G4xx_HAL_Driver/Inc/stm32g4xx_ll_tim.h **** #define LL_TIM_TIM4_TI2_RMP_COMP1  TIM_TISEL_TI2SEL_0                                /*!< TIM4 inpu
ARM GAS  /tmp/ccF6ITrB.s 			page 73


1575:Drivers/STM32G4xx_HAL_Driver/Inc/stm32g4xx_ll_tim.h **** #define LL_TIM_TIM4_TI2_RMP_COMP2  TIM_TISEL_TI2SEL_1                                /*!< TIM4 inpu
1576:Drivers/STM32G4xx_HAL_Driver/Inc/stm32g4xx_ll_tim.h **** #define LL_TIM_TIM4_TI2_RMP_COMP3  (TIM_TISEL_TI2SEL_1 | TIM_TISEL_TI2SEL_0)         /*!< TIM4 inpu
1577:Drivers/STM32G4xx_HAL_Driver/Inc/stm32g4xx_ll_tim.h **** #define LL_TIM_TIM4_TI2_RMP_COMP4  TIM_TISEL_TI2SEL_2                                /*!< TIM4 inpu
1578:Drivers/STM32G4xx_HAL_Driver/Inc/stm32g4xx_ll_tim.h **** #if defined(COMP5)
1579:Drivers/STM32G4xx_HAL_Driver/Inc/stm32g4xx_ll_tim.h **** #define LL_TIM_TIM4_TI2_RMP_COMP5  (TIM_TISEL_TI2SEL_2 | TIM_TISEL_TI2SEL_0)         /*!< TIM4 inpu
1580:Drivers/STM32G4xx_HAL_Driver/Inc/stm32g4xx_ll_tim.h **** #endif /* COMP5 */
1581:Drivers/STM32G4xx_HAL_Driver/Inc/stm32g4xx_ll_tim.h **** #if defined(COMP6)
1582:Drivers/STM32G4xx_HAL_Driver/Inc/stm32g4xx_ll_tim.h **** #define LL_TIM_TIM4_TI2_RMP_COMP6  (TIM_TISEL_TI2SEL_2 | TIM_TISEL_TI2SEL_1)         /*!< TIM4 inpu
1583:Drivers/STM32G4xx_HAL_Driver/Inc/stm32g4xx_ll_tim.h **** #endif /* COMP6 */
1584:Drivers/STM32G4xx_HAL_Driver/Inc/stm32g4xx_ll_tim.h **** #if defined(COMP7)
1585:Drivers/STM32G4xx_HAL_Driver/Inc/stm32g4xx_ll_tim.h **** #define LL_TIM_TIM4_TI2_RMP_COMP7  (TIM_TISEL_TI2SEL_2 | TIM_TISEL_TI2SEL_1 | TIM_TISEL_TI2SEL_0)  
1586:Drivers/STM32G4xx_HAL_Driver/Inc/stm32g4xx_ll_tim.h **** #endif /* COMP7 */
1587:Drivers/STM32G4xx_HAL_Driver/Inc/stm32g4xx_ll_tim.h **** /**
1588:Drivers/STM32G4xx_HAL_Driver/Inc/stm32g4xx_ll_tim.h ****   * @}
1589:Drivers/STM32G4xx_HAL_Driver/Inc/stm32g4xx_ll_tim.h ****   */
1590:Drivers/STM32G4xx_HAL_Driver/Inc/stm32g4xx_ll_tim.h **** 
1591:Drivers/STM32G4xx_HAL_Driver/Inc/stm32g4xx_ll_tim.h **** /** @defgroup TIM_LL_EC_TIM4_TI3_RMP  TIM4 Timer Input Ch3 Remap
1592:Drivers/STM32G4xx_HAL_Driver/Inc/stm32g4xx_ll_tim.h ****   * @{
1593:Drivers/STM32G4xx_HAL_Driver/Inc/stm32g4xx_ll_tim.h ****   */
1594:Drivers/STM32G4xx_HAL_Driver/Inc/stm32g4xx_ll_tim.h **** #define LL_TIM_TIM4_TI3_RMP_GPIO   0x00000000U                                       /*!< TIM4 inpu
1595:Drivers/STM32G4xx_HAL_Driver/Inc/stm32g4xx_ll_tim.h **** #if defined(COMP5)
1596:Drivers/STM32G4xx_HAL_Driver/Inc/stm32g4xx_ll_tim.h **** #define LL_TIM_TIM4_TI3_RMP_COMP5  TIM_TISEL_TI3SEL_0                                /*!< TIM4 inpu
1597:Drivers/STM32G4xx_HAL_Driver/Inc/stm32g4xx_ll_tim.h **** #endif /* COMP5 */
1598:Drivers/STM32G4xx_HAL_Driver/Inc/stm32g4xx_ll_tim.h **** /**
1599:Drivers/STM32G4xx_HAL_Driver/Inc/stm32g4xx_ll_tim.h ****   * @}
1600:Drivers/STM32G4xx_HAL_Driver/Inc/stm32g4xx_ll_tim.h ****   */
1601:Drivers/STM32G4xx_HAL_Driver/Inc/stm32g4xx_ll_tim.h **** 
1602:Drivers/STM32G4xx_HAL_Driver/Inc/stm32g4xx_ll_tim.h **** /** @defgroup TIM_LL_EC_TIM4_TI4_RMP  TIM4 Timer Input Ch4 Remap
1603:Drivers/STM32G4xx_HAL_Driver/Inc/stm32g4xx_ll_tim.h ****   * @{
1604:Drivers/STM32G4xx_HAL_Driver/Inc/stm32g4xx_ll_tim.h ****   */
1605:Drivers/STM32G4xx_HAL_Driver/Inc/stm32g4xx_ll_tim.h **** #define LL_TIM_TIM4_TI4_RMP_GPIO   0x00000000U                                       /*!< TIM4 inpu
1606:Drivers/STM32G4xx_HAL_Driver/Inc/stm32g4xx_ll_tim.h **** #if defined(COMP6)
1607:Drivers/STM32G4xx_HAL_Driver/Inc/stm32g4xx_ll_tim.h **** #define LL_TIM_TIM4_TI4_RMP_COMP6  TIM_TISEL_TI4SEL_0                                /*!< TIM4 inpu
1608:Drivers/STM32G4xx_HAL_Driver/Inc/stm32g4xx_ll_tim.h **** #endif /* COMP6 */
1609:Drivers/STM32G4xx_HAL_Driver/Inc/stm32g4xx_ll_tim.h **** /**
1610:Drivers/STM32G4xx_HAL_Driver/Inc/stm32g4xx_ll_tim.h ****   * @}
1611:Drivers/STM32G4xx_HAL_Driver/Inc/stm32g4xx_ll_tim.h ****   */
1612:Drivers/STM32G4xx_HAL_Driver/Inc/stm32g4xx_ll_tim.h **** 
1613:Drivers/STM32G4xx_HAL_Driver/Inc/stm32g4xx_ll_tim.h **** #if defined(TIM5)
1614:Drivers/STM32G4xx_HAL_Driver/Inc/stm32g4xx_ll_tim.h **** /** @defgroup TIM_LL_EC_TIM5_TI1_RMP  TIM5 Timer Input Ch1 Remap
1615:Drivers/STM32G4xx_HAL_Driver/Inc/stm32g4xx_ll_tim.h ****   * @{
1616:Drivers/STM32G4xx_HAL_Driver/Inc/stm32g4xx_ll_tim.h ****   */
1617:Drivers/STM32G4xx_HAL_Driver/Inc/stm32g4xx_ll_tim.h **** #define LL_TIM_TIM5_TI1_RMP_GPIO   0x00000000U                                       /*!< TIM5 inpu
1618:Drivers/STM32G4xx_HAL_Driver/Inc/stm32g4xx_ll_tim.h **** #define LL_TIM_TIM5_TI1_RMP_LSI    TIM_TISEL_TI1SEL_0                                /*!< TIM5 inpu
1619:Drivers/STM32G4xx_HAL_Driver/Inc/stm32g4xx_ll_tim.h **** #define LL_TIM_TIM5_TI1_RMP_LSE    TIM_TISEL_TI1SEL_1                                /*!< TIM5 inpu
1620:Drivers/STM32G4xx_HAL_Driver/Inc/stm32g4xx_ll_tim.h **** #define LL_TIM_TIM5_TI1_RMP_RTC_WK (TIM_TISEL_TI1SEL_1 | TIM_TISEL_TI1SEL_0)         /*!< TIM5 inpu
1621:Drivers/STM32G4xx_HAL_Driver/Inc/stm32g4xx_ll_tim.h **** #define LL_TIM_TIM5_TI1_RMP_COMP1  TIM_TISEL_TI1SEL_2                                /*!< TIM5 inpu
1622:Drivers/STM32G4xx_HAL_Driver/Inc/stm32g4xx_ll_tim.h **** #define LL_TIM_TIM5_TI1_RMP_COMP2  (TIM_TISEL_TI1SEL_2 | TIM_TISEL_TI1SEL_0)         /*!< TIM5 inpu
1623:Drivers/STM32G4xx_HAL_Driver/Inc/stm32g4xx_ll_tim.h **** #define LL_TIM_TIM5_TI1_RMP_COMP3  (TIM_TISEL_TI1SEL_2 | TIM_TISEL_TI1SEL_1)         /*!< TIM5 inpu
1624:Drivers/STM32G4xx_HAL_Driver/Inc/stm32g4xx_ll_tim.h **** #define LL_TIM_TIM5_TI1_RMP_COMP4  (TIM_TISEL_TI1SEL_2 | TIM_TISEL_TI1SEL_1 | TIM_TISEL_TI1SEL_0)  
1625:Drivers/STM32G4xx_HAL_Driver/Inc/stm32g4xx_ll_tim.h **** #if defined(COMP5)
1626:Drivers/STM32G4xx_HAL_Driver/Inc/stm32g4xx_ll_tim.h **** #define LL_TIM_TIM5_TI1_RMP_COMP5  TIM_TISEL_TI1SEL_3                                /*!< TIM5 inpu
1627:Drivers/STM32G4xx_HAL_Driver/Inc/stm32g4xx_ll_tim.h **** #endif /* COMP5 */
1628:Drivers/STM32G4xx_HAL_Driver/Inc/stm32g4xx_ll_tim.h **** #if defined(COMP6)
1629:Drivers/STM32G4xx_HAL_Driver/Inc/stm32g4xx_ll_tim.h **** #define LL_TIM_TIM5_TI1_RMP_COMP6  (TIM_TISEL_TI1SEL_3 | TIM_TISEL_TI1SEL_0)         /*!< TIM5 inpu
1630:Drivers/STM32G4xx_HAL_Driver/Inc/stm32g4xx_ll_tim.h **** #endif /* COMP6 */
1631:Drivers/STM32G4xx_HAL_Driver/Inc/stm32g4xx_ll_tim.h **** #if defined(COMP7)
ARM GAS  /tmp/ccF6ITrB.s 			page 74


1632:Drivers/STM32G4xx_HAL_Driver/Inc/stm32g4xx_ll_tim.h **** #define LL_TIM_TIM5_TI1_RMP_COMP7  (TIM_TISEL_TI1SEL_3 | TIM_TISEL_TI1SEL_1)         /*!< TIM5 inpu
1633:Drivers/STM32G4xx_HAL_Driver/Inc/stm32g4xx_ll_tim.h **** #endif /* COMP7 */
1634:Drivers/STM32G4xx_HAL_Driver/Inc/stm32g4xx_ll_tim.h **** /**
1635:Drivers/STM32G4xx_HAL_Driver/Inc/stm32g4xx_ll_tim.h ****   * @}
1636:Drivers/STM32G4xx_HAL_Driver/Inc/stm32g4xx_ll_tim.h ****   */
1637:Drivers/STM32G4xx_HAL_Driver/Inc/stm32g4xx_ll_tim.h **** 
1638:Drivers/STM32G4xx_HAL_Driver/Inc/stm32g4xx_ll_tim.h **** /** @defgroup TIM_LL_EC_TIM5_TI2_RMP  TIM5 Timer Input Ch2 Remap
1639:Drivers/STM32G4xx_HAL_Driver/Inc/stm32g4xx_ll_tim.h ****   * @{
1640:Drivers/STM32G4xx_HAL_Driver/Inc/stm32g4xx_ll_tim.h ****   */
1641:Drivers/STM32G4xx_HAL_Driver/Inc/stm32g4xx_ll_tim.h **** #define LL_TIM_TIM5_TI2_RMP_GPIO   0x00000000U                                       /*!< TIM5 inpu
1642:Drivers/STM32G4xx_HAL_Driver/Inc/stm32g4xx_ll_tim.h **** #define LL_TIM_TIM5_TI2_RMP_COMP1  TIM_TISEL_TI2SEL_0                                /*!< TIM5 inpu
1643:Drivers/STM32G4xx_HAL_Driver/Inc/stm32g4xx_ll_tim.h **** #define LL_TIM_TIM5_TI2_RMP_COMP2  TIM_TISEL_TI2SEL_1                                /*!< TIM5 inpu
1644:Drivers/STM32G4xx_HAL_Driver/Inc/stm32g4xx_ll_tim.h **** #define LL_TIM_TIM5_TI2_RMP_COMP3  (TIM_TISEL_TI2SEL_1 | TIM_TISEL_TI2SEL_0)         /*!< TIM5 inpu
1645:Drivers/STM32G4xx_HAL_Driver/Inc/stm32g4xx_ll_tim.h **** #define LL_TIM_TIM5_TI2_RMP_COMP4  TIM_TISEL_TI2SEL_2                                /*!< TIM5 inpu
1646:Drivers/STM32G4xx_HAL_Driver/Inc/stm32g4xx_ll_tim.h **** #if defined(COMP5)
1647:Drivers/STM32G4xx_HAL_Driver/Inc/stm32g4xx_ll_tim.h **** #define LL_TIM_TIM5_TI2_RMP_COMP5  (TIM_TISEL_TI2SEL_2 | TIM_TISEL_TI2SEL_0)         /*!< TIM5 inpu
1648:Drivers/STM32G4xx_HAL_Driver/Inc/stm32g4xx_ll_tim.h **** #endif /* COMP5 */
1649:Drivers/STM32G4xx_HAL_Driver/Inc/stm32g4xx_ll_tim.h **** #if defined(COMP6)
1650:Drivers/STM32G4xx_HAL_Driver/Inc/stm32g4xx_ll_tim.h **** #define LL_TIM_TIM5_TI2_RMP_COMP6  (TIM_TISEL_TI2SEL_2 | TIM_TISEL_TI2SEL_1)         /*!< TIM5 inpu
1651:Drivers/STM32G4xx_HAL_Driver/Inc/stm32g4xx_ll_tim.h **** #endif /* COMP6 */
1652:Drivers/STM32G4xx_HAL_Driver/Inc/stm32g4xx_ll_tim.h **** #if defined(COMP7)
1653:Drivers/STM32G4xx_HAL_Driver/Inc/stm32g4xx_ll_tim.h **** #define LL_TIM_TIM5_TI2_RMP_COMP7  (TIM_TISEL_TI2SEL_2 | TIM_TISEL_TI2SEL_1 | TIM_TISEL_TI2SEL_0)  
1654:Drivers/STM32G4xx_HAL_Driver/Inc/stm32g4xx_ll_tim.h **** #endif /* COMP7 */
1655:Drivers/STM32G4xx_HAL_Driver/Inc/stm32g4xx_ll_tim.h **** /**
1656:Drivers/STM32G4xx_HAL_Driver/Inc/stm32g4xx_ll_tim.h ****   * @}
1657:Drivers/STM32G4xx_HAL_Driver/Inc/stm32g4xx_ll_tim.h ****   */
1658:Drivers/STM32G4xx_HAL_Driver/Inc/stm32g4xx_ll_tim.h **** #endif /* TIM5 */
1659:Drivers/STM32G4xx_HAL_Driver/Inc/stm32g4xx_ll_tim.h **** 
1660:Drivers/STM32G4xx_HAL_Driver/Inc/stm32g4xx_ll_tim.h **** /** @defgroup TIM_LL_EC_TIM8_TI1_RMP  TIM8 Timer Input Ch1 Remap
1661:Drivers/STM32G4xx_HAL_Driver/Inc/stm32g4xx_ll_tim.h ****   * @{
1662:Drivers/STM32G4xx_HAL_Driver/Inc/stm32g4xx_ll_tim.h ****   */
1663:Drivers/STM32G4xx_HAL_Driver/Inc/stm32g4xx_ll_tim.h **** #define LL_TIM_TIM8_TI1_RMP_GPIO   0x00000000U                                       /*!< TIM8 inpu
1664:Drivers/STM32G4xx_HAL_Driver/Inc/stm32g4xx_ll_tim.h **** #define LL_TIM_TIM8_TI1_RMP_COMP1  TIM_TISEL_TI1SEL_0                                /*!< TIM8 inpu
1665:Drivers/STM32G4xx_HAL_Driver/Inc/stm32g4xx_ll_tim.h **** #define LL_TIM_TIM8_TI1_RMP_COMP2  TIM_TISEL_TI1SEL_1                                /*!< TIM8 inpu
1666:Drivers/STM32G4xx_HAL_Driver/Inc/stm32g4xx_ll_tim.h **** #define LL_TIM_TIM8_TI1_RMP_COMP3  (TIM_TISEL_TI1SEL_1 | TIM_TISEL_TI1SEL_0)         /*!< TIM8 inpu
1667:Drivers/STM32G4xx_HAL_Driver/Inc/stm32g4xx_ll_tim.h **** #define LL_TIM_TIM8_TI1_RMP_COMP4  TIM_TISEL_TI1SEL_2                                /*!< TIM8 inpu
1668:Drivers/STM32G4xx_HAL_Driver/Inc/stm32g4xx_ll_tim.h **** /**
1669:Drivers/STM32G4xx_HAL_Driver/Inc/stm32g4xx_ll_tim.h ****   * @}
1670:Drivers/STM32G4xx_HAL_Driver/Inc/stm32g4xx_ll_tim.h ****   */
1671:Drivers/STM32G4xx_HAL_Driver/Inc/stm32g4xx_ll_tim.h **** 
1672:Drivers/STM32G4xx_HAL_Driver/Inc/stm32g4xx_ll_tim.h **** /** @defgroup TIM_LL_EC_TIM15_TI1_RMP  TIM15 Timer Input Ch1 Remap
1673:Drivers/STM32G4xx_HAL_Driver/Inc/stm32g4xx_ll_tim.h ****   * @{
1674:Drivers/STM32G4xx_HAL_Driver/Inc/stm32g4xx_ll_tim.h ****   */
1675:Drivers/STM32G4xx_HAL_Driver/Inc/stm32g4xx_ll_tim.h **** #define LL_TIM_TIM15_TI1_RMP_GPIO  0x00000000U                                       /*!< TIM15 inp
1676:Drivers/STM32G4xx_HAL_Driver/Inc/stm32g4xx_ll_tim.h **** #define LL_TIM_TIM15_TI1_RMP_LSE   TIM_TISEL_TI1SEL_0                                /*!< TIM15 inp
1677:Drivers/STM32G4xx_HAL_Driver/Inc/stm32g4xx_ll_tim.h **** #define LL_TIM_TIM15_TI1_RMP_COMP1 TIM_TISEL_TI1SEL_1                                /*!< TIM15 inp
1678:Drivers/STM32G4xx_HAL_Driver/Inc/stm32g4xx_ll_tim.h **** #define LL_TIM_TIM15_TI1_RMP_COMP2 (TIM_TISEL_TI1SEL_1 | TIM_TISEL_TI1SEL_0)         /*!< TIM15 inp
1679:Drivers/STM32G4xx_HAL_Driver/Inc/stm32g4xx_ll_tim.h **** #if defined(COMP5)
1680:Drivers/STM32G4xx_HAL_Driver/Inc/stm32g4xx_ll_tim.h **** #define LL_TIM_TIM15_TI1_RMP_COMP5 TIM_TISEL_TI1SEL_2                                /*!< TIM15 inp
1681:Drivers/STM32G4xx_HAL_Driver/Inc/stm32g4xx_ll_tim.h **** #endif /* COMP5 */
1682:Drivers/STM32G4xx_HAL_Driver/Inc/stm32g4xx_ll_tim.h **** #if defined(COMP7)
1683:Drivers/STM32G4xx_HAL_Driver/Inc/stm32g4xx_ll_tim.h **** #define LL_TIM_TIM15_TI1_RMP_COMP7 (TIM_TISEL_TI1SEL_2 | TIM_TISEL_TI1SEL_0)         /*!< TIM15 inp
1684:Drivers/STM32G4xx_HAL_Driver/Inc/stm32g4xx_ll_tim.h **** #endif /* COMP7 */
1685:Drivers/STM32G4xx_HAL_Driver/Inc/stm32g4xx_ll_tim.h **** /**
1686:Drivers/STM32G4xx_HAL_Driver/Inc/stm32g4xx_ll_tim.h ****   * @}
1687:Drivers/STM32G4xx_HAL_Driver/Inc/stm32g4xx_ll_tim.h ****   */
1688:Drivers/STM32G4xx_HAL_Driver/Inc/stm32g4xx_ll_tim.h **** 
ARM GAS  /tmp/ccF6ITrB.s 			page 75


1689:Drivers/STM32G4xx_HAL_Driver/Inc/stm32g4xx_ll_tim.h **** /** @defgroup TIM_LL_EC_TIM15_TI2_RMP  TIM15 Timer Input Ch2 Remap
1690:Drivers/STM32G4xx_HAL_Driver/Inc/stm32g4xx_ll_tim.h ****   * @{
1691:Drivers/STM32G4xx_HAL_Driver/Inc/stm32g4xx_ll_tim.h ****   */
1692:Drivers/STM32G4xx_HAL_Driver/Inc/stm32g4xx_ll_tim.h **** #define LL_TIM_TIM15_TI2_RMP_GPIO  0x00000000U                                       /*!< TIM15 inp
1693:Drivers/STM32G4xx_HAL_Driver/Inc/stm32g4xx_ll_tim.h **** #define LL_TIM_TIM15_TI2_RMP_COMP2 TIM_TISEL_TI2SEL_0                                /*!< TIM15 inp
1694:Drivers/STM32G4xx_HAL_Driver/Inc/stm32g4xx_ll_tim.h **** #define LL_TIM_TIM15_TI2_RMP_COMP3 TIM_TISEL_TI2SEL_1                                /*!< TIM15 inp
1695:Drivers/STM32G4xx_HAL_Driver/Inc/stm32g4xx_ll_tim.h **** #if defined(COMP6)
1696:Drivers/STM32G4xx_HAL_Driver/Inc/stm32g4xx_ll_tim.h **** #define LL_TIM_TIM15_TI2_RMP_COMP6 (TIM_TISEL_TI2SEL_1 | TIM_TISEL_TI2SEL_0)         /*!< TIM15 inp
1697:Drivers/STM32G4xx_HAL_Driver/Inc/stm32g4xx_ll_tim.h **** #endif /* COMP6 */
1698:Drivers/STM32G4xx_HAL_Driver/Inc/stm32g4xx_ll_tim.h **** #if defined(COMP7)
1699:Drivers/STM32G4xx_HAL_Driver/Inc/stm32g4xx_ll_tim.h **** #define LL_TIM_TIM15_TI2_RMP_COMP7 TIM_TISEL_TI2SEL_2                                /*!< TIM15 inp
1700:Drivers/STM32G4xx_HAL_Driver/Inc/stm32g4xx_ll_tim.h **** #endif /* COMP7 */
1701:Drivers/STM32G4xx_HAL_Driver/Inc/stm32g4xx_ll_tim.h **** /**
1702:Drivers/STM32G4xx_HAL_Driver/Inc/stm32g4xx_ll_tim.h ****   * @}
1703:Drivers/STM32G4xx_HAL_Driver/Inc/stm32g4xx_ll_tim.h ****   */
1704:Drivers/STM32G4xx_HAL_Driver/Inc/stm32g4xx_ll_tim.h **** 
1705:Drivers/STM32G4xx_HAL_Driver/Inc/stm32g4xx_ll_tim.h **** /** @defgroup TIM_LL_EC_TIM16_TI1_RMP  TIM16 Timer Input Ch1 Remap
1706:Drivers/STM32G4xx_HAL_Driver/Inc/stm32g4xx_ll_tim.h ****   * @{
1707:Drivers/STM32G4xx_HAL_Driver/Inc/stm32g4xx_ll_tim.h ****   */
1708:Drivers/STM32G4xx_HAL_Driver/Inc/stm32g4xx_ll_tim.h **** #define LL_TIM_TIM16_TI1_RMP_GPIO    0x00000000U                                     /*!< TIM16 inp
1709:Drivers/STM32G4xx_HAL_Driver/Inc/stm32g4xx_ll_tim.h **** #if defined(COMP6)
1710:Drivers/STM32G4xx_HAL_Driver/Inc/stm32g4xx_ll_tim.h **** #define LL_TIM_TIM16_TI1_RMP_COMP6   TIM_TISEL_TI1SEL_0                              /*!< TIM16 inp
1711:Drivers/STM32G4xx_HAL_Driver/Inc/stm32g4xx_ll_tim.h **** #endif /* COMP6 */
1712:Drivers/STM32G4xx_HAL_Driver/Inc/stm32g4xx_ll_tim.h **** #define LL_TIM_TIM16_TI1_RMP_MCO     TIM_TISEL_TI1SEL_1                              /*!< TIM16 inp
1713:Drivers/STM32G4xx_HAL_Driver/Inc/stm32g4xx_ll_tim.h **** #define LL_TIM_TIM16_TI1_RMP_HSE_32  (TIM_TISEL_TI1SEL_1 | TIM_TISEL_TI1SEL_0)       /*!< TIM16 inp
1714:Drivers/STM32G4xx_HAL_Driver/Inc/stm32g4xx_ll_tim.h **** #define LL_TIM_TIM16_TI1_RMP_RTC_WK  TIM_TISEL_TI1SEL_2                              /*!< TIM16 inp
1715:Drivers/STM32G4xx_HAL_Driver/Inc/stm32g4xx_ll_tim.h **** #define LL_TIM_TIM16_TI1_RMP_LSE     (TIM_TISEL_TI1SEL_2 | TIM_TISEL_TI1SEL_0)       /*!< TIM16 inp
1716:Drivers/STM32G4xx_HAL_Driver/Inc/stm32g4xx_ll_tim.h **** #define LL_TIM_TIM16_TI1_RMP_LSI     (TIM_TISEL_TI1SEL_2 | TIM_TISEL_TI1SEL_1)       /*!< TIM16 inp
1717:Drivers/STM32G4xx_HAL_Driver/Inc/stm32g4xx_ll_tim.h **** /**
1718:Drivers/STM32G4xx_HAL_Driver/Inc/stm32g4xx_ll_tim.h ****   * @}
1719:Drivers/STM32G4xx_HAL_Driver/Inc/stm32g4xx_ll_tim.h ****   */
1720:Drivers/STM32G4xx_HAL_Driver/Inc/stm32g4xx_ll_tim.h **** 
1721:Drivers/STM32G4xx_HAL_Driver/Inc/stm32g4xx_ll_tim.h **** /** @defgroup TIM_LL_EC_TIM17_TI1_RMP  TIM17 Timer Input Ch1 Remap
1722:Drivers/STM32G4xx_HAL_Driver/Inc/stm32g4xx_ll_tim.h ****   * @{
1723:Drivers/STM32G4xx_HAL_Driver/Inc/stm32g4xx_ll_tim.h ****   */
1724:Drivers/STM32G4xx_HAL_Driver/Inc/stm32g4xx_ll_tim.h **** #define LL_TIM_TIM17_TI1_RMP_GPIO    0x00000000U                                     /*!< TIM17 inp
1725:Drivers/STM32G4xx_HAL_Driver/Inc/stm32g4xx_ll_tim.h **** #if defined(COMP5)
1726:Drivers/STM32G4xx_HAL_Driver/Inc/stm32g4xx_ll_tim.h **** #define LL_TIM_TIM17_TI1_RMP_COMP5   TIM_TISEL_TI1SEL_0                              /*!< TIM17 inp
1727:Drivers/STM32G4xx_HAL_Driver/Inc/stm32g4xx_ll_tim.h **** #endif /* COMP5 */
1728:Drivers/STM32G4xx_HAL_Driver/Inc/stm32g4xx_ll_tim.h **** #define LL_TIM_TIM17_TI1_RMP_MCO     TIM_TISEL_TI1SEL_1                              /*!< TIM17 inp
1729:Drivers/STM32G4xx_HAL_Driver/Inc/stm32g4xx_ll_tim.h **** #define LL_TIM_TIM17_TI1_RMP_HSE_32  (TIM_TISEL_TI1SEL_1 | TIM_TISEL_TI1SEL_0)       /*!< TIM17 inp
1730:Drivers/STM32G4xx_HAL_Driver/Inc/stm32g4xx_ll_tim.h **** #define LL_TIM_TIM17_TI1_RMP_RTC_WK  TIM_TISEL_TI1SEL_2                              /*!< TIM17 inp
1731:Drivers/STM32G4xx_HAL_Driver/Inc/stm32g4xx_ll_tim.h **** #define LL_TIM_TIM17_TI1_RMP_LSE     (TIM_TISEL_TI1SEL_2 | TIM_TISEL_TI1SEL_0)       /*!< TIM17 inp
1732:Drivers/STM32G4xx_HAL_Driver/Inc/stm32g4xx_ll_tim.h **** #define LL_TIM_TIM17_TI1_RMP_LSI     (TIM_TISEL_TI1SEL_2 | TIM_TISEL_TI1SEL_1)       /*!< TIM17 inp
1733:Drivers/STM32G4xx_HAL_Driver/Inc/stm32g4xx_ll_tim.h **** /**
1734:Drivers/STM32G4xx_HAL_Driver/Inc/stm32g4xx_ll_tim.h ****   * @}
1735:Drivers/STM32G4xx_HAL_Driver/Inc/stm32g4xx_ll_tim.h ****   */
1736:Drivers/STM32G4xx_HAL_Driver/Inc/stm32g4xx_ll_tim.h **** 
1737:Drivers/STM32G4xx_HAL_Driver/Inc/stm32g4xx_ll_tim.h **** #if defined(TIM20)
1738:Drivers/STM32G4xx_HAL_Driver/Inc/stm32g4xx_ll_tim.h **** /** @defgroup TIM_LL_EC_TIM20_TI1_RMP  TIM20 Timer Input Ch1 Remap
1739:Drivers/STM32G4xx_HAL_Driver/Inc/stm32g4xx_ll_tim.h ****   * @{
1740:Drivers/STM32G4xx_HAL_Driver/Inc/stm32g4xx_ll_tim.h ****   */
1741:Drivers/STM32G4xx_HAL_Driver/Inc/stm32g4xx_ll_tim.h **** #define LL_TIM_TIM20_TI1_RMP_GPIO  0x00000000U                                      /*!< TIM20 inpu
1742:Drivers/STM32G4xx_HAL_Driver/Inc/stm32g4xx_ll_tim.h **** #define LL_TIM_TIM20_TI1_RMP_COMP1 TIM_TISEL_TI1SEL_0                               /*!< TIM20 inpu
1743:Drivers/STM32G4xx_HAL_Driver/Inc/stm32g4xx_ll_tim.h **** #define LL_TIM_TIM20_TI1_RMP_COMP2 TIM_TISEL_TI1SEL_1                               /*!< TIM20 inpu
1744:Drivers/STM32G4xx_HAL_Driver/Inc/stm32g4xx_ll_tim.h **** #define LL_TIM_TIM20_TI1_RMP_COMP3 (TIM_TISEL_TI1SEL_1 | TIM_TISEL_TI1SEL_0)        /*!< TIM20 inpu
1745:Drivers/STM32G4xx_HAL_Driver/Inc/stm32g4xx_ll_tim.h **** #define LL_TIM_TIM20_TI1_RMP_COMP4 TIM_TISEL_TI1SEL_2                               /*!< TIM20 inpu
ARM GAS  /tmp/ccF6ITrB.s 			page 76


1746:Drivers/STM32G4xx_HAL_Driver/Inc/stm32g4xx_ll_tim.h **** /**
1747:Drivers/STM32G4xx_HAL_Driver/Inc/stm32g4xx_ll_tim.h ****   * @}
1748:Drivers/STM32G4xx_HAL_Driver/Inc/stm32g4xx_ll_tim.h ****   */
1749:Drivers/STM32G4xx_HAL_Driver/Inc/stm32g4xx_ll_tim.h **** #endif /* TIM20 */
1750:Drivers/STM32G4xx_HAL_Driver/Inc/stm32g4xx_ll_tim.h **** 
1751:Drivers/STM32G4xx_HAL_Driver/Inc/stm32g4xx_ll_tim.h **** /** @defgroup TIM_LL_EC_OCREF_CLR_INT OCREF clear input selection
1752:Drivers/STM32G4xx_HAL_Driver/Inc/stm32g4xx_ll_tim.h ****   * @{
1753:Drivers/STM32G4xx_HAL_Driver/Inc/stm32g4xx_ll_tim.h ****   */
1754:Drivers/STM32G4xx_HAL_Driver/Inc/stm32g4xx_ll_tim.h **** #define LL_TIM_OCREF_CLR_INT_ETR         OCREF_CLEAR_SELECT_Msk                   /*!< OCREF_CLR_IN
1755:Drivers/STM32G4xx_HAL_Driver/Inc/stm32g4xx_ll_tim.h **** #define LL_TIM_OCREF_CLR_INT_COMP1       0x00000000U                              /*!< OCREF clear 
1756:Drivers/STM32G4xx_HAL_Driver/Inc/stm32g4xx_ll_tim.h **** #define LL_TIM_OCREF_CLR_INT_COMP2       TIM1_AF2_OCRSEL_0                        /*!< OCREF clear 
1757:Drivers/STM32G4xx_HAL_Driver/Inc/stm32g4xx_ll_tim.h **** #define LL_TIM_OCREF_CLR_INT_COMP3       TIM1_AF2_OCRSEL_1                        /*!< OCREF clear 
1758:Drivers/STM32G4xx_HAL_Driver/Inc/stm32g4xx_ll_tim.h **** #define LL_TIM_OCREF_CLR_INT_COMP4       (TIM1_AF2_OCRSEL_1 | TIM1_AF2_OCRSEL_0)  /*!< OCREF clear 
1759:Drivers/STM32G4xx_HAL_Driver/Inc/stm32g4xx_ll_tim.h **** #if defined(COMP5)
1760:Drivers/STM32G4xx_HAL_Driver/Inc/stm32g4xx_ll_tim.h **** #define LL_TIM_OCREF_CLR_INT_COMP5       TIM1_AF2_OCRSEL_2                        /*!< OCREF clear 
1761:Drivers/STM32G4xx_HAL_Driver/Inc/stm32g4xx_ll_tim.h **** #endif /* COMP5 */
1762:Drivers/STM32G4xx_HAL_Driver/Inc/stm32g4xx_ll_tim.h **** #if defined(COMP6)
1763:Drivers/STM32G4xx_HAL_Driver/Inc/stm32g4xx_ll_tim.h **** #define LL_TIM_OCREF_CLR_INT_COMP6       (TIM1_AF2_OCRSEL_2 | TIM1_AF2_OCRSEL_0)  /*!< OCREF clear 
1764:Drivers/STM32G4xx_HAL_Driver/Inc/stm32g4xx_ll_tim.h **** #endif /* COMP6 */
1765:Drivers/STM32G4xx_HAL_Driver/Inc/stm32g4xx_ll_tim.h **** #if defined(COMP7)
1766:Drivers/STM32G4xx_HAL_Driver/Inc/stm32g4xx_ll_tim.h **** #define LL_TIM_OCREF_CLR_INT_COMP7       (TIM1_AF2_OCRSEL_2 | TIM1_AF2_OCRSEL_1)  /*!< OCREF clear 
1767:Drivers/STM32G4xx_HAL_Driver/Inc/stm32g4xx_ll_tim.h **** #endif /* COMP7 */
1768:Drivers/STM32G4xx_HAL_Driver/Inc/stm32g4xx_ll_tim.h **** /**
1769:Drivers/STM32G4xx_HAL_Driver/Inc/stm32g4xx_ll_tim.h ****   * @}
1770:Drivers/STM32G4xx_HAL_Driver/Inc/stm32g4xx_ll_tim.h ****   */
1771:Drivers/STM32G4xx_HAL_Driver/Inc/stm32g4xx_ll_tim.h **** 
1772:Drivers/STM32G4xx_HAL_Driver/Inc/stm32g4xx_ll_tim.h **** /** @defgroup TIM_LL_EC_INDEX_DIR index direction selection
1773:Drivers/STM32G4xx_HAL_Driver/Inc/stm32g4xx_ll_tim.h ****   * @{
1774:Drivers/STM32G4xx_HAL_Driver/Inc/stm32g4xx_ll_tim.h ****   */
1775:Drivers/STM32G4xx_HAL_Driver/Inc/stm32g4xx_ll_tim.h **** #define LL_TIM_INDEX_UP_DOWN     0x00000000U         /*!< Index resets the counter whatever the dir
1776:Drivers/STM32G4xx_HAL_Driver/Inc/stm32g4xx_ll_tim.h **** #define LL_TIM_INDEX_UP          TIM_ECR_IDIR_0      /*!< Index resets the counter when up-counting
1777:Drivers/STM32G4xx_HAL_Driver/Inc/stm32g4xx_ll_tim.h **** #define LL_TIM_INDEX_DOWN        TIM_ECR_IDIR_1      /*!< Index resets the counter when down-counti
1778:Drivers/STM32G4xx_HAL_Driver/Inc/stm32g4xx_ll_tim.h **** /**
1779:Drivers/STM32G4xx_HAL_Driver/Inc/stm32g4xx_ll_tim.h ****   * @}
1780:Drivers/STM32G4xx_HAL_Driver/Inc/stm32g4xx_ll_tim.h ****   */
1781:Drivers/STM32G4xx_HAL_Driver/Inc/stm32g4xx_ll_tim.h **** 
1782:Drivers/STM32G4xx_HAL_Driver/Inc/stm32g4xx_ll_tim.h **** /** @defgroup TIM_LL_EC_INDEX_POSITION index positioning selection
1783:Drivers/STM32G4xx_HAL_Driver/Inc/stm32g4xx_ll_tim.h ****   * @{
1784:Drivers/STM32G4xx_HAL_Driver/Inc/stm32g4xx_ll_tim.h ****   */
1785:Drivers/STM32G4xx_HAL_Driver/Inc/stm32g4xx_ll_tim.h **** #define LL_TIM_INDEX_POSITION_DOWN_DOWN    0x00000000U                           /*!< Index resets 
1786:Drivers/STM32G4xx_HAL_Driver/Inc/stm32g4xx_ll_tim.h **** #define LL_TIM_INDEX_POSITION_DOWN_UP      TIM_ECR_IPOS_0                        /*!< Index resets 
1787:Drivers/STM32G4xx_HAL_Driver/Inc/stm32g4xx_ll_tim.h **** #define LL_TIM_INDEX_POSITION_UP_DOWN      TIM_ECR_IPOS_1                        /*!< Index resets 
1788:Drivers/STM32G4xx_HAL_Driver/Inc/stm32g4xx_ll_tim.h **** #define LL_TIM_INDEX_POSITION_UP_UP        (TIM_ECR_IPOS_1 | TIM_ECR_IPOS_0)     /*!< Index resets 
1789:Drivers/STM32G4xx_HAL_Driver/Inc/stm32g4xx_ll_tim.h **** #define LL_TIM_INDEX_POSITION_DOWN         0x00000000U                           /*!< Index resets 
1790:Drivers/STM32G4xx_HAL_Driver/Inc/stm32g4xx_ll_tim.h **** #define LL_TIM_INDEX_POSITION_UP           TIM_ECR_IPOS_0                        /*!< Index resets 
1791:Drivers/STM32G4xx_HAL_Driver/Inc/stm32g4xx_ll_tim.h **** /**
1792:Drivers/STM32G4xx_HAL_Driver/Inc/stm32g4xx_ll_tim.h ****   * @}
1793:Drivers/STM32G4xx_HAL_Driver/Inc/stm32g4xx_ll_tim.h ****   */
1794:Drivers/STM32G4xx_HAL_Driver/Inc/stm32g4xx_ll_tim.h **** 
1795:Drivers/STM32G4xx_HAL_Driver/Inc/stm32g4xx_ll_tim.h **** /** @defgroup TIM_LL_EC_FIRST_INDEX first index selection
1796:Drivers/STM32G4xx_HAL_Driver/Inc/stm32g4xx_ll_tim.h ****   * @{
1797:Drivers/STM32G4xx_HAL_Driver/Inc/stm32g4xx_ll_tim.h ****   */
1798:Drivers/STM32G4xx_HAL_Driver/Inc/stm32g4xx_ll_tim.h **** #define LL_TIM_INDEX_ALL           0x00000000U                           /*!< Index is always activ
1799:Drivers/STM32G4xx_HAL_Driver/Inc/stm32g4xx_ll_tim.h **** #define LL_TIM_INDEX_FIRST_ONLY    TIM_ECR_FIDX                          /*!< The first Index only 
1800:Drivers/STM32G4xx_HAL_Driver/Inc/stm32g4xx_ll_tim.h **** /**
1801:Drivers/STM32G4xx_HAL_Driver/Inc/stm32g4xx_ll_tim.h ****   * @}
1802:Drivers/STM32G4xx_HAL_Driver/Inc/stm32g4xx_ll_tim.h ****   */
ARM GAS  /tmp/ccF6ITrB.s 			page 77


1803:Drivers/STM32G4xx_HAL_Driver/Inc/stm32g4xx_ll_tim.h **** /** @defgroup TIM_LL_EC_PWPRSC Pulse on compare pulse width prescaler
1804:Drivers/STM32G4xx_HAL_Driver/Inc/stm32g4xx_ll_tim.h ****   * @{
1805:Drivers/STM32G4xx_HAL_Driver/Inc/stm32g4xx_ll_tim.h ****   */
1806:Drivers/STM32G4xx_HAL_Driver/Inc/stm32g4xx_ll_tim.h **** #define LL_TIM_PWPRSC_X1     0x00000000U                                              /*!< Pulse on
1807:Drivers/STM32G4xx_HAL_Driver/Inc/stm32g4xx_ll_tim.h **** #define LL_TIM_PWPRSC_X2     TIM_ECR_PWPRSC_0                                         /*!< Pulse on
1808:Drivers/STM32G4xx_HAL_Driver/Inc/stm32g4xx_ll_tim.h **** #define LL_TIM_PWPRSC_X4     TIM_ECR_PWPRSC_1                                         /*!< Pulse on
1809:Drivers/STM32G4xx_HAL_Driver/Inc/stm32g4xx_ll_tim.h **** #define LL_TIM_PWPRSC_X8     (TIM_ECR_PWPRSC_1 | TIM_ECR_PWPRSC_0)                    /*!< Pulse on
1810:Drivers/STM32G4xx_HAL_Driver/Inc/stm32g4xx_ll_tim.h **** #define LL_TIM_PWPRSC_X16    TIM_ECR_PWPRSC_2                                         /*!< Pulse on
1811:Drivers/STM32G4xx_HAL_Driver/Inc/stm32g4xx_ll_tim.h **** #define LL_TIM_PWPRSC_X32    (TIM_ECR_PWPRSC_2 | TIM_ECR_PWPRSC_0)                    /*!< Pulse on
1812:Drivers/STM32G4xx_HAL_Driver/Inc/stm32g4xx_ll_tim.h **** #define LL_TIM_PWPRSC_X64    (TIM_ECR_PWPRSC_2 | TIM_ECR_PWPRSC_1)                    /*!< Pulse on
1813:Drivers/STM32G4xx_HAL_Driver/Inc/stm32g4xx_ll_tim.h **** #define LL_TIM_PWPRSC_X128   (TIM_ECR_PWPRSC_2 | TIM_ECR_PWPRSC_1 | TIM_ECR_PWPRSC_0) /*!< Pulse on
1814:Drivers/STM32G4xx_HAL_Driver/Inc/stm32g4xx_ll_tim.h **** /**
1815:Drivers/STM32G4xx_HAL_Driver/Inc/stm32g4xx_ll_tim.h ****   * @}
1816:Drivers/STM32G4xx_HAL_Driver/Inc/stm32g4xx_ll_tim.h ****   */
1817:Drivers/STM32G4xx_HAL_Driver/Inc/stm32g4xx_ll_tim.h **** 
1818:Drivers/STM32G4xx_HAL_Driver/Inc/stm32g4xx_ll_tim.h **** /** @defgroup TIM_LL_EC_HSE_32_REQUEST Clock HSE/32 request
1819:Drivers/STM32G4xx_HAL_Driver/Inc/stm32g4xx_ll_tim.h ****   * @{
1820:Drivers/STM32G4xx_HAL_Driver/Inc/stm32g4xx_ll_tim.h ****   */
1821:Drivers/STM32G4xx_HAL_Driver/Inc/stm32g4xx_ll_tim.h **** #define LL_TIM_HSE_32_NOT_REQUEST     0x00000000U            /*!< Clock HSE/32 not requested */
1822:Drivers/STM32G4xx_HAL_Driver/Inc/stm32g4xx_ll_tim.h **** #define LL_TIM_HSE_32_REQUEST         TIM_OR_HSE32EN         /*!< Clock HSE/32 requested for TIM16/
1823:Drivers/STM32G4xx_HAL_Driver/Inc/stm32g4xx_ll_tim.h **** /**
1824:Drivers/STM32G4xx_HAL_Driver/Inc/stm32g4xx_ll_tim.h ****   * @}
1825:Drivers/STM32G4xx_HAL_Driver/Inc/stm32g4xx_ll_tim.h ****   */
1826:Drivers/STM32G4xx_HAL_Driver/Inc/stm32g4xx_ll_tim.h **** 
1827:Drivers/STM32G4xx_HAL_Driver/Inc/stm32g4xx_ll_tim.h **** /** Legacy definitions for compatibility purpose
1828:Drivers/STM32G4xx_HAL_Driver/Inc/stm32g4xx_ll_tim.h **** @cond 0
1829:Drivers/STM32G4xx_HAL_Driver/Inc/stm32g4xx_ll_tim.h ****   */
1830:Drivers/STM32G4xx_HAL_Driver/Inc/stm32g4xx_ll_tim.h **** #define LL_TIM_BKIN_SOURCE_DFBK  LL_TIM_BKIN_SOURCE_DF1BK
1831:Drivers/STM32G4xx_HAL_Driver/Inc/stm32g4xx_ll_tim.h **** /**
1832:Drivers/STM32G4xx_HAL_Driver/Inc/stm32g4xx_ll_tim.h **** @endcond
1833:Drivers/STM32G4xx_HAL_Driver/Inc/stm32g4xx_ll_tim.h ****   */
1834:Drivers/STM32G4xx_HAL_Driver/Inc/stm32g4xx_ll_tim.h **** 
1835:Drivers/STM32G4xx_HAL_Driver/Inc/stm32g4xx_ll_tim.h **** /**
1836:Drivers/STM32G4xx_HAL_Driver/Inc/stm32g4xx_ll_tim.h ****   * @}
1837:Drivers/STM32G4xx_HAL_Driver/Inc/stm32g4xx_ll_tim.h ****   */
1838:Drivers/STM32G4xx_HAL_Driver/Inc/stm32g4xx_ll_tim.h **** 
1839:Drivers/STM32G4xx_HAL_Driver/Inc/stm32g4xx_ll_tim.h **** /* Exported macro ------------------------------------------------------------*/
1840:Drivers/STM32G4xx_HAL_Driver/Inc/stm32g4xx_ll_tim.h **** /** @defgroup TIM_LL_Exported_Macros TIM Exported Macros
1841:Drivers/STM32G4xx_HAL_Driver/Inc/stm32g4xx_ll_tim.h ****   * @{
1842:Drivers/STM32G4xx_HAL_Driver/Inc/stm32g4xx_ll_tim.h ****   */
1843:Drivers/STM32G4xx_HAL_Driver/Inc/stm32g4xx_ll_tim.h **** 
1844:Drivers/STM32G4xx_HAL_Driver/Inc/stm32g4xx_ll_tim.h **** /** @defgroup TIM_LL_EM_WRITE_READ Common Write and read registers Macros
1845:Drivers/STM32G4xx_HAL_Driver/Inc/stm32g4xx_ll_tim.h ****   * @{
1846:Drivers/STM32G4xx_HAL_Driver/Inc/stm32g4xx_ll_tim.h ****   */
1847:Drivers/STM32G4xx_HAL_Driver/Inc/stm32g4xx_ll_tim.h **** /**
1848:Drivers/STM32G4xx_HAL_Driver/Inc/stm32g4xx_ll_tim.h ****   * @brief  Write a value in TIM register.
1849:Drivers/STM32G4xx_HAL_Driver/Inc/stm32g4xx_ll_tim.h ****   * @param  __INSTANCE__ TIM Instance
1850:Drivers/STM32G4xx_HAL_Driver/Inc/stm32g4xx_ll_tim.h ****   * @param  __REG__ Register to be written
1851:Drivers/STM32G4xx_HAL_Driver/Inc/stm32g4xx_ll_tim.h ****   * @param  __VALUE__ Value to be written in the register
1852:Drivers/STM32G4xx_HAL_Driver/Inc/stm32g4xx_ll_tim.h ****   * @retval None
1853:Drivers/STM32G4xx_HAL_Driver/Inc/stm32g4xx_ll_tim.h ****   */
1854:Drivers/STM32G4xx_HAL_Driver/Inc/stm32g4xx_ll_tim.h **** #define LL_TIM_WriteReg(__INSTANCE__, __REG__, __VALUE__) WRITE_REG((__INSTANCE__)->__REG__, (__VAL
1855:Drivers/STM32G4xx_HAL_Driver/Inc/stm32g4xx_ll_tim.h **** 
1856:Drivers/STM32G4xx_HAL_Driver/Inc/stm32g4xx_ll_tim.h **** /**
1857:Drivers/STM32G4xx_HAL_Driver/Inc/stm32g4xx_ll_tim.h ****   * @brief  Read a value in TIM register.
1858:Drivers/STM32G4xx_HAL_Driver/Inc/stm32g4xx_ll_tim.h ****   * @param  __INSTANCE__ TIM Instance
1859:Drivers/STM32G4xx_HAL_Driver/Inc/stm32g4xx_ll_tim.h ****   * @param  __REG__ Register to be read
ARM GAS  /tmp/ccF6ITrB.s 			page 78


1860:Drivers/STM32G4xx_HAL_Driver/Inc/stm32g4xx_ll_tim.h ****   * @retval Register value
1861:Drivers/STM32G4xx_HAL_Driver/Inc/stm32g4xx_ll_tim.h ****   */
1862:Drivers/STM32G4xx_HAL_Driver/Inc/stm32g4xx_ll_tim.h **** #define LL_TIM_ReadReg(__INSTANCE__, __REG__) READ_REG((__INSTANCE__)->__REG__)
1863:Drivers/STM32G4xx_HAL_Driver/Inc/stm32g4xx_ll_tim.h **** /**
1864:Drivers/STM32G4xx_HAL_Driver/Inc/stm32g4xx_ll_tim.h ****   * @}
1865:Drivers/STM32G4xx_HAL_Driver/Inc/stm32g4xx_ll_tim.h ****   */
1866:Drivers/STM32G4xx_HAL_Driver/Inc/stm32g4xx_ll_tim.h **** 
1867:Drivers/STM32G4xx_HAL_Driver/Inc/stm32g4xx_ll_tim.h **** /**
1868:Drivers/STM32G4xx_HAL_Driver/Inc/stm32g4xx_ll_tim.h ****   * @brief  HELPER macro retrieving the UIFCPY flag from the counter value.
1869:Drivers/STM32G4xx_HAL_Driver/Inc/stm32g4xx_ll_tim.h ****   * @note ex: @ref __LL_TIM_GETFLAG_UIFCPY (@ref LL_TIM_GetCounter ());
1870:Drivers/STM32G4xx_HAL_Driver/Inc/stm32g4xx_ll_tim.h ****   * @note  Relevant only if UIF flag remapping has been enabled  (UIF status bit is copied
1871:Drivers/STM32G4xx_HAL_Driver/Inc/stm32g4xx_ll_tim.h ****   *        to TIMx_CNT register bit 31)
1872:Drivers/STM32G4xx_HAL_Driver/Inc/stm32g4xx_ll_tim.h ****   * @param  __CNT__ Counter value
1873:Drivers/STM32G4xx_HAL_Driver/Inc/stm32g4xx_ll_tim.h ****   * @retval UIF status bit
1874:Drivers/STM32G4xx_HAL_Driver/Inc/stm32g4xx_ll_tim.h ****   */
1875:Drivers/STM32G4xx_HAL_Driver/Inc/stm32g4xx_ll_tim.h **** #define __LL_TIM_GETFLAG_UIFCPY(__CNT__)  \
1876:Drivers/STM32G4xx_HAL_Driver/Inc/stm32g4xx_ll_tim.h ****   (READ_BIT((__CNT__), TIM_CNT_UIFCPY) >> TIM_CNT_UIFCPY_Pos)
1877:Drivers/STM32G4xx_HAL_Driver/Inc/stm32g4xx_ll_tim.h **** 
1878:Drivers/STM32G4xx_HAL_Driver/Inc/stm32g4xx_ll_tim.h **** /**
1879:Drivers/STM32G4xx_HAL_Driver/Inc/stm32g4xx_ll_tim.h ****   * @brief  HELPER macro calculating DTG[0:7] in the TIMx_BDTR register to achieve the requested de
1880:Drivers/STM32G4xx_HAL_Driver/Inc/stm32g4xx_ll_tim.h ****   * @note ex: @ref __LL_TIM_CALC_DEADTIME (80000000, @ref LL_TIM_GetClockDivision (), 120);
1881:Drivers/STM32G4xx_HAL_Driver/Inc/stm32g4xx_ll_tim.h ****   * @param  __TIMCLK__ timer input clock frequency (in Hz)
1882:Drivers/STM32G4xx_HAL_Driver/Inc/stm32g4xx_ll_tim.h ****   * @param  __CKD__ This parameter can be one of the following values:
1883:Drivers/STM32G4xx_HAL_Driver/Inc/stm32g4xx_ll_tim.h ****   *         @arg @ref LL_TIM_CLOCKDIVISION_DIV1
1884:Drivers/STM32G4xx_HAL_Driver/Inc/stm32g4xx_ll_tim.h ****   *         @arg @ref LL_TIM_CLOCKDIVISION_DIV2
1885:Drivers/STM32G4xx_HAL_Driver/Inc/stm32g4xx_ll_tim.h ****   *         @arg @ref LL_TIM_CLOCKDIVISION_DIV4
1886:Drivers/STM32G4xx_HAL_Driver/Inc/stm32g4xx_ll_tim.h ****   * @param  __DT__ deadtime duration (in ns)
1887:Drivers/STM32G4xx_HAL_Driver/Inc/stm32g4xx_ll_tim.h ****   * @retval DTG[0:7]
1888:Drivers/STM32G4xx_HAL_Driver/Inc/stm32g4xx_ll_tim.h ****   */
1889:Drivers/STM32G4xx_HAL_Driver/Inc/stm32g4xx_ll_tim.h **** #define __LL_TIM_CALC_DEADTIME(__TIMCLK__, __CKD__, __DT__)  \
1890:Drivers/STM32G4xx_HAL_Driver/Inc/stm32g4xx_ll_tim.h ****   ( (((uint64_t)((__DT__)*1000U)) < ((DT_DELAY_1+1U) * TIM_CALC_DTS((__TIMCLK__), (__CKD__))))    ?
1891:Drivers/STM32G4xx_HAL_Driver/Inc/stm32g4xx_ll_tim.h ****     (uint8_t)(((uint64_t)((__DT__)*1000U) / TIM_CALC_DTS((__TIMCLK__), (__CKD__)))  & DT_DELAY_1) :
1892:Drivers/STM32G4xx_HAL_Driver/Inc/stm32g4xx_ll_tim.h ****     (((uint64_t)((__DT__)*1000U)) < ((64U + (DT_DELAY_2+1U)) * 2U * TIM_CALC_DTS((__TIMCLK__), (__C
1893:Drivers/STM32G4xx_HAL_Driver/Inc/stm32g4xx_ll_tim.h ****     (uint8_t)(DT_RANGE_2 | ((uint8_t)((uint8_t)((((uint64_t)((__DT__)*1000U))/ TIM_CALC_DTS((__TIMC
1894:Drivers/STM32G4xx_HAL_Driver/Inc/stm32g4xx_ll_tim.h ****                                                  (__CKD__))) >> 1U) - (uint8_t) 64) & DT_DELAY_2)) 
1895:Drivers/STM32G4xx_HAL_Driver/Inc/stm32g4xx_ll_tim.h ****     (((uint64_t)((__DT__)*1000U)) < ((32U + (DT_DELAY_3+1U)) * 8U * TIM_CALC_DTS((__TIMCLK__), (__C
1896:Drivers/STM32G4xx_HAL_Driver/Inc/stm32g4xx_ll_tim.h ****     (uint8_t)(DT_RANGE_3 | ((uint8_t)((uint8_t)(((((uint64_t)(__DT__)*1000U))/ TIM_CALC_DTS((__TIMC
1897:Drivers/STM32G4xx_HAL_Driver/Inc/stm32g4xx_ll_tim.h ****                                                  (__CKD__))) >> 3U) - (uint8_t) 32) & DT_DELAY_3)) 
1898:Drivers/STM32G4xx_HAL_Driver/Inc/stm32g4xx_ll_tim.h ****     (((uint64_t)((__DT__)*1000U)) < ((32U + (DT_DELAY_4+1U)) * 16U * TIM_CALC_DTS((__TIMCLK__), (__
1899:Drivers/STM32G4xx_HAL_Driver/Inc/stm32g4xx_ll_tim.h ****     (uint8_t)(DT_RANGE_4 | ((uint8_t)((uint8_t)(((((uint64_t)(__DT__)*1000U))/ TIM_CALC_DTS((__TIMC
1900:Drivers/STM32G4xx_HAL_Driver/Inc/stm32g4xx_ll_tim.h ****                                                  (__CKD__))) >> 4U) - (uint8_t) 32) & DT_DELAY_4)) 
1901:Drivers/STM32G4xx_HAL_Driver/Inc/stm32g4xx_ll_tim.h ****     0U)
1902:Drivers/STM32G4xx_HAL_Driver/Inc/stm32g4xx_ll_tim.h **** 
1903:Drivers/STM32G4xx_HAL_Driver/Inc/stm32g4xx_ll_tim.h **** /**
1904:Drivers/STM32G4xx_HAL_Driver/Inc/stm32g4xx_ll_tim.h ****   * @brief  HELPER macro calculating the prescaler value to achieve the required counter clock freq
1905:Drivers/STM32G4xx_HAL_Driver/Inc/stm32g4xx_ll_tim.h ****   * @note ex: @ref __LL_TIM_CALC_PSC (80000000, 1000000);
1906:Drivers/STM32G4xx_HAL_Driver/Inc/stm32g4xx_ll_tim.h ****   * @param  __TIMCLK__ timer input clock frequency (in Hz)
1907:Drivers/STM32G4xx_HAL_Driver/Inc/stm32g4xx_ll_tim.h ****   * @param  __CNTCLK__ counter clock frequency (in Hz)
1908:Drivers/STM32G4xx_HAL_Driver/Inc/stm32g4xx_ll_tim.h ****   * @retval Prescaler value  (between Min_Data=0 and Max_Data=65535)
1909:Drivers/STM32G4xx_HAL_Driver/Inc/stm32g4xx_ll_tim.h ****   */
1910:Drivers/STM32G4xx_HAL_Driver/Inc/stm32g4xx_ll_tim.h **** #define __LL_TIM_CALC_PSC(__TIMCLK__, __CNTCLK__)   \
1911:Drivers/STM32G4xx_HAL_Driver/Inc/stm32g4xx_ll_tim.h ****   (((__TIMCLK__) >= (__CNTCLK__)) ? (uint32_t)((((__TIMCLK__) + (__CNTCLK__)/2U)/(__CNTCLK__)) - 1U
1912:Drivers/STM32G4xx_HAL_Driver/Inc/stm32g4xx_ll_tim.h **** 
1913:Drivers/STM32G4xx_HAL_Driver/Inc/stm32g4xx_ll_tim.h **** /**
1914:Drivers/STM32G4xx_HAL_Driver/Inc/stm32g4xx_ll_tim.h ****   * @brief  HELPER macro calculating the auto-reload value to achieve the required output signal fr
1915:Drivers/STM32G4xx_HAL_Driver/Inc/stm32g4xx_ll_tim.h ****   * @note ex: @ref __LL_TIM_CALC_ARR (1000000, @ref LL_TIM_GetPrescaler (), 10000);
1916:Drivers/STM32G4xx_HAL_Driver/Inc/stm32g4xx_ll_tim.h ****   * @param  __TIMCLK__ timer input clock frequency (in Hz)
ARM GAS  /tmp/ccF6ITrB.s 			page 79


1917:Drivers/STM32G4xx_HAL_Driver/Inc/stm32g4xx_ll_tim.h ****   * @param  __PSC__ prescaler
1918:Drivers/STM32G4xx_HAL_Driver/Inc/stm32g4xx_ll_tim.h ****   * @param  __FREQ__ output signal frequency (in Hz)
1919:Drivers/STM32G4xx_HAL_Driver/Inc/stm32g4xx_ll_tim.h ****   * @retval  Auto-reload value  (between Min_Data=0 and Max_Data=65535)
1920:Drivers/STM32G4xx_HAL_Driver/Inc/stm32g4xx_ll_tim.h ****   */
1921:Drivers/STM32G4xx_HAL_Driver/Inc/stm32g4xx_ll_tim.h **** #define __LL_TIM_CALC_ARR(__TIMCLK__, __PSC__, __FREQ__) \
1922:Drivers/STM32G4xx_HAL_Driver/Inc/stm32g4xx_ll_tim.h ****   ((((__TIMCLK__)/((__PSC__) + 1U)) >= (__FREQ__)) ? (((__TIMCLK__)/((__FREQ__) * ((__PSC__) + 1U))
1923:Drivers/STM32G4xx_HAL_Driver/Inc/stm32g4xx_ll_tim.h **** 
1924:Drivers/STM32G4xx_HAL_Driver/Inc/stm32g4xx_ll_tim.h **** /**
1925:Drivers/STM32G4xx_HAL_Driver/Inc/stm32g4xx_ll_tim.h ****   * @brief  HELPER macro calculating the auto-reload value, with dithering feature enabled, to achi
1926:Drivers/STM32G4xx_HAL_Driver/Inc/stm32g4xx_ll_tim.h ****   *         output signal frequency.
1927:Drivers/STM32G4xx_HAL_Driver/Inc/stm32g4xx_ll_tim.h ****   * @note ex: @ref __LL_TIM_CALC_ARR_DITHER (1000000, @ref LL_TIM_GetPrescaler (), 10000);
1928:Drivers/STM32G4xx_HAL_Driver/Inc/stm32g4xx_ll_tim.h ****   * @param  __TIMCLK__ timer input clock frequency (in Hz)
1929:Drivers/STM32G4xx_HAL_Driver/Inc/stm32g4xx_ll_tim.h ****   * @param  __PSC__ prescaler
1930:Drivers/STM32G4xx_HAL_Driver/Inc/stm32g4xx_ll_tim.h ****   * @param  __FREQ__ output signal frequency (in Hz)
1931:Drivers/STM32G4xx_HAL_Driver/Inc/stm32g4xx_ll_tim.h ****   * @retval  Auto-reload value  (between Min_Data=0 and Max_Data=65535)
1932:Drivers/STM32G4xx_HAL_Driver/Inc/stm32g4xx_ll_tim.h ****   */
1933:Drivers/STM32G4xx_HAL_Driver/Inc/stm32g4xx_ll_tim.h **** #define __LL_TIM_CALC_ARR_DITHER(__TIMCLK__, __PSC__, __FREQ__) \
1934:Drivers/STM32G4xx_HAL_Driver/Inc/stm32g4xx_ll_tim.h ****   ((((__TIMCLK__)/((__PSC__) + 1U)) >= (__FREQ__)) ? \
1935:Drivers/STM32G4xx_HAL_Driver/Inc/stm32g4xx_ll_tim.h ****    (uint32_t)((((uint64_t)(__TIMCLK__) * 16U/((__FREQ__) * ((__PSC__) + 1U))) - 16U)) : 0U)
1936:Drivers/STM32G4xx_HAL_Driver/Inc/stm32g4xx_ll_tim.h **** 
1937:Drivers/STM32G4xx_HAL_Driver/Inc/stm32g4xx_ll_tim.h **** /**
1938:Drivers/STM32G4xx_HAL_Driver/Inc/stm32g4xx_ll_tim.h ****   * @brief  HELPER macro calculating the compare value required to achieve the required timer outpu
1939:Drivers/STM32G4xx_HAL_Driver/Inc/stm32g4xx_ll_tim.h ****   *         active/inactive delay.
1940:Drivers/STM32G4xx_HAL_Driver/Inc/stm32g4xx_ll_tim.h ****   * @note ex: @ref __LL_TIM_CALC_DELAY (1000000, @ref LL_TIM_GetPrescaler (), 10);
1941:Drivers/STM32G4xx_HAL_Driver/Inc/stm32g4xx_ll_tim.h ****   * @param  __TIMCLK__ timer input clock frequency (in Hz)
1942:Drivers/STM32G4xx_HAL_Driver/Inc/stm32g4xx_ll_tim.h ****   * @param  __PSC__ prescaler
1943:Drivers/STM32G4xx_HAL_Driver/Inc/stm32g4xx_ll_tim.h ****   * @param  __DELAY__ timer output compare active/inactive delay (in us)
1944:Drivers/STM32G4xx_HAL_Driver/Inc/stm32g4xx_ll_tim.h ****   * @retval Compare value  (between Min_Data=0 and Max_Data=65535)
1945:Drivers/STM32G4xx_HAL_Driver/Inc/stm32g4xx_ll_tim.h ****   */
1946:Drivers/STM32G4xx_HAL_Driver/Inc/stm32g4xx_ll_tim.h **** #define __LL_TIM_CALC_DELAY(__TIMCLK__, __PSC__, __DELAY__)  \
1947:Drivers/STM32G4xx_HAL_Driver/Inc/stm32g4xx_ll_tim.h ****   ((uint32_t)(((uint64_t)(__TIMCLK__) * (uint64_t)(__DELAY__)) \
1948:Drivers/STM32G4xx_HAL_Driver/Inc/stm32g4xx_ll_tim.h ****               / ((uint64_t)1000000U * (uint64_t)((__PSC__) + 1U))))
1949:Drivers/STM32G4xx_HAL_Driver/Inc/stm32g4xx_ll_tim.h **** 
1950:Drivers/STM32G4xx_HAL_Driver/Inc/stm32g4xx_ll_tim.h **** /**
1951:Drivers/STM32G4xx_HAL_Driver/Inc/stm32g4xx_ll_tim.h ****   * @brief  HELPER macro calculating the compare value, with dithering feature enabled, to achieve 
1952:Drivers/STM32G4xx_HAL_Driver/Inc/stm32g4xx_ll_tim.h ****   *         output compare active/inactive delay.
1953:Drivers/STM32G4xx_HAL_Driver/Inc/stm32g4xx_ll_tim.h ****   * @note ex: @ref __LL_TIM_CALC_DELAY_DITHER (1000000, @ref LL_TIM_GetPrescaler (), 10);
1954:Drivers/STM32G4xx_HAL_Driver/Inc/stm32g4xx_ll_tim.h ****   * @param  __TIMCLK__ timer input clock frequency (in Hz)
1955:Drivers/STM32G4xx_HAL_Driver/Inc/stm32g4xx_ll_tim.h ****   * @param  __PSC__ prescaler
1956:Drivers/STM32G4xx_HAL_Driver/Inc/stm32g4xx_ll_tim.h ****   * @param  __DELAY__ timer output compare active/inactive delay (in us)
1957:Drivers/STM32G4xx_HAL_Driver/Inc/stm32g4xx_ll_tim.h ****   * @retval Compare value  (between Min_Data=0 and Max_Data=65535)
1958:Drivers/STM32G4xx_HAL_Driver/Inc/stm32g4xx_ll_tim.h ****   */
1959:Drivers/STM32G4xx_HAL_Driver/Inc/stm32g4xx_ll_tim.h **** #define __LL_TIM_CALC_DELAY_DITHER(__TIMCLK__, __PSC__, __DELAY__)  \
1960:Drivers/STM32G4xx_HAL_Driver/Inc/stm32g4xx_ll_tim.h ****   ((uint32_t)(((uint64_t)(__TIMCLK__) * (uint64_t)(__DELAY__) * 16U) \
1961:Drivers/STM32G4xx_HAL_Driver/Inc/stm32g4xx_ll_tim.h ****               / ((uint64_t)1000000U * (uint64_t)((__PSC__) + 1U))))
1962:Drivers/STM32G4xx_HAL_Driver/Inc/stm32g4xx_ll_tim.h **** 
1963:Drivers/STM32G4xx_HAL_Driver/Inc/stm32g4xx_ll_tim.h **** /**
1964:Drivers/STM32G4xx_HAL_Driver/Inc/stm32g4xx_ll_tim.h ****   * @brief  HELPER macro calculating the auto-reload value to achieve the required pulse duration
1965:Drivers/STM32G4xx_HAL_Driver/Inc/stm32g4xx_ll_tim.h ****   *         (when the timer operates in one pulse mode).
1966:Drivers/STM32G4xx_HAL_Driver/Inc/stm32g4xx_ll_tim.h ****   * @note ex: @ref __LL_TIM_CALC_PULSE (1000000, @ref LL_TIM_GetPrescaler (), 10, 20);
1967:Drivers/STM32G4xx_HAL_Driver/Inc/stm32g4xx_ll_tim.h ****   * @param  __TIMCLK__ timer input clock frequency (in Hz)
1968:Drivers/STM32G4xx_HAL_Driver/Inc/stm32g4xx_ll_tim.h ****   * @param  __PSC__ prescaler
1969:Drivers/STM32G4xx_HAL_Driver/Inc/stm32g4xx_ll_tim.h ****   * @param  __DELAY__ timer output compare active/inactive delay (in us)
1970:Drivers/STM32G4xx_HAL_Driver/Inc/stm32g4xx_ll_tim.h ****   * @param  __PULSE__ pulse duration (in us)
1971:Drivers/STM32G4xx_HAL_Driver/Inc/stm32g4xx_ll_tim.h ****   * @retval Auto-reload value  (between Min_Data=0 and Max_Data=65535)
1972:Drivers/STM32G4xx_HAL_Driver/Inc/stm32g4xx_ll_tim.h ****   */
1973:Drivers/STM32G4xx_HAL_Driver/Inc/stm32g4xx_ll_tim.h **** #define __LL_TIM_CALC_PULSE(__TIMCLK__, __PSC__, __DELAY__, __PULSE__)  \
ARM GAS  /tmp/ccF6ITrB.s 			page 80


1974:Drivers/STM32G4xx_HAL_Driver/Inc/stm32g4xx_ll_tim.h ****   ((uint32_t)(__LL_TIM_CALC_DELAY((__TIMCLK__), (__PSC__), (__PULSE__)) \
1975:Drivers/STM32G4xx_HAL_Driver/Inc/stm32g4xx_ll_tim.h ****               + __LL_TIM_CALC_DELAY((__TIMCLK__), (__PSC__), (__DELAY__))))
1976:Drivers/STM32G4xx_HAL_Driver/Inc/stm32g4xx_ll_tim.h **** 
1977:Drivers/STM32G4xx_HAL_Driver/Inc/stm32g4xx_ll_tim.h **** /**
1978:Drivers/STM32G4xx_HAL_Driver/Inc/stm32g4xx_ll_tim.h ****   * @brief  HELPER macro calculating the auto-reload value, with dithering feature enabled, to achi
1979:Drivers/STM32G4xx_HAL_Driver/Inc/stm32g4xx_ll_tim.h ****   *         pulse duration (when the timer operates in one pulse mode).
1980:Drivers/STM32G4xx_HAL_Driver/Inc/stm32g4xx_ll_tim.h ****   * @note ex: @ref __LL_TIM_CALC_PULSE_DITHER (1000000, @ref LL_TIM_GetPrescaler (), 10, 20);
1981:Drivers/STM32G4xx_HAL_Driver/Inc/stm32g4xx_ll_tim.h ****   * @param  __TIMCLK__ timer input clock frequency (in Hz)
1982:Drivers/STM32G4xx_HAL_Driver/Inc/stm32g4xx_ll_tim.h ****   * @param  __PSC__ prescaler
1983:Drivers/STM32G4xx_HAL_Driver/Inc/stm32g4xx_ll_tim.h ****   * @param  __DELAY__ timer output compare active/inactive delay (in us)
1984:Drivers/STM32G4xx_HAL_Driver/Inc/stm32g4xx_ll_tim.h ****   * @param  __PULSE__ pulse duration (in us)
1985:Drivers/STM32G4xx_HAL_Driver/Inc/stm32g4xx_ll_tim.h ****   * @retval Auto-reload value  (between Min_Data=0 and Max_Data=65535)
1986:Drivers/STM32G4xx_HAL_Driver/Inc/stm32g4xx_ll_tim.h ****   */
1987:Drivers/STM32G4xx_HAL_Driver/Inc/stm32g4xx_ll_tim.h **** #define __LL_TIM_CALC_PULSE_DITHER(__TIMCLK__, __PSC__, __DELAY__, __PULSE__)  \
1988:Drivers/STM32G4xx_HAL_Driver/Inc/stm32g4xx_ll_tim.h ****   ((uint32_t)(__LL_TIM_CALC_DELAY_DITHER((__TIMCLK__), (__PSC__), (__PULSE__)) \
1989:Drivers/STM32G4xx_HAL_Driver/Inc/stm32g4xx_ll_tim.h ****               + __LL_TIM_CALC_DELAY_DITHER((__TIMCLK__), (__PSC__), (__DELAY__))))
1990:Drivers/STM32G4xx_HAL_Driver/Inc/stm32g4xx_ll_tim.h **** 
1991:Drivers/STM32G4xx_HAL_Driver/Inc/stm32g4xx_ll_tim.h **** /**
1992:Drivers/STM32G4xx_HAL_Driver/Inc/stm32g4xx_ll_tim.h ****   * @brief  HELPER macro retrieving the ratio of the input capture prescaler
1993:Drivers/STM32G4xx_HAL_Driver/Inc/stm32g4xx_ll_tim.h ****   * @note ex: @ref __LL_TIM_GET_ICPSC_RATIO (@ref LL_TIM_IC_GetPrescaler ());
1994:Drivers/STM32G4xx_HAL_Driver/Inc/stm32g4xx_ll_tim.h ****   * @param  __ICPSC__ This parameter can be one of the following values:
1995:Drivers/STM32G4xx_HAL_Driver/Inc/stm32g4xx_ll_tim.h ****   *         @arg @ref LL_TIM_ICPSC_DIV1
1996:Drivers/STM32G4xx_HAL_Driver/Inc/stm32g4xx_ll_tim.h ****   *         @arg @ref LL_TIM_ICPSC_DIV2
1997:Drivers/STM32G4xx_HAL_Driver/Inc/stm32g4xx_ll_tim.h ****   *         @arg @ref LL_TIM_ICPSC_DIV4
1998:Drivers/STM32G4xx_HAL_Driver/Inc/stm32g4xx_ll_tim.h ****   *         @arg @ref LL_TIM_ICPSC_DIV8
1999:Drivers/STM32G4xx_HAL_Driver/Inc/stm32g4xx_ll_tim.h ****   * @retval Input capture prescaler ratio (1, 2, 4 or 8)
2000:Drivers/STM32G4xx_HAL_Driver/Inc/stm32g4xx_ll_tim.h ****   */
2001:Drivers/STM32G4xx_HAL_Driver/Inc/stm32g4xx_ll_tim.h **** #define __LL_TIM_GET_ICPSC_RATIO(__ICPSC__)  \
2002:Drivers/STM32G4xx_HAL_Driver/Inc/stm32g4xx_ll_tim.h ****   ((uint32_t)(0x01U << (((__ICPSC__) >> 16U) >> TIM_CCMR1_IC1PSC_Pos)))
2003:Drivers/STM32G4xx_HAL_Driver/Inc/stm32g4xx_ll_tim.h **** 
2004:Drivers/STM32G4xx_HAL_Driver/Inc/stm32g4xx_ll_tim.h **** 
2005:Drivers/STM32G4xx_HAL_Driver/Inc/stm32g4xx_ll_tim.h **** /**
2006:Drivers/STM32G4xx_HAL_Driver/Inc/stm32g4xx_ll_tim.h ****   * @}
2007:Drivers/STM32G4xx_HAL_Driver/Inc/stm32g4xx_ll_tim.h ****   */
2008:Drivers/STM32G4xx_HAL_Driver/Inc/stm32g4xx_ll_tim.h **** 
2009:Drivers/STM32G4xx_HAL_Driver/Inc/stm32g4xx_ll_tim.h **** /* Exported functions --------------------------------------------------------*/
2010:Drivers/STM32G4xx_HAL_Driver/Inc/stm32g4xx_ll_tim.h **** /** @defgroup TIM_LL_Exported_Functions TIM Exported Functions
2011:Drivers/STM32G4xx_HAL_Driver/Inc/stm32g4xx_ll_tim.h ****   * @{
2012:Drivers/STM32G4xx_HAL_Driver/Inc/stm32g4xx_ll_tim.h ****   */
2013:Drivers/STM32G4xx_HAL_Driver/Inc/stm32g4xx_ll_tim.h **** 
2014:Drivers/STM32G4xx_HAL_Driver/Inc/stm32g4xx_ll_tim.h **** /** @defgroup TIM_LL_EF_Time_Base Time Base configuration
2015:Drivers/STM32G4xx_HAL_Driver/Inc/stm32g4xx_ll_tim.h ****   * @{
2016:Drivers/STM32G4xx_HAL_Driver/Inc/stm32g4xx_ll_tim.h ****   */
2017:Drivers/STM32G4xx_HAL_Driver/Inc/stm32g4xx_ll_tim.h **** /**
2018:Drivers/STM32G4xx_HAL_Driver/Inc/stm32g4xx_ll_tim.h ****   * @brief  Enable timer counter.
2019:Drivers/STM32G4xx_HAL_Driver/Inc/stm32g4xx_ll_tim.h ****   * @rmtoll CR1          CEN           LL_TIM_EnableCounter
2020:Drivers/STM32G4xx_HAL_Driver/Inc/stm32g4xx_ll_tim.h ****   * @param  TIMx Timer instance
2021:Drivers/STM32G4xx_HAL_Driver/Inc/stm32g4xx_ll_tim.h ****   * @retval None
2022:Drivers/STM32G4xx_HAL_Driver/Inc/stm32g4xx_ll_tim.h ****   */
2023:Drivers/STM32G4xx_HAL_Driver/Inc/stm32g4xx_ll_tim.h **** __STATIC_INLINE void LL_TIM_EnableCounter(TIM_TypeDef *TIMx)
2024:Drivers/STM32G4xx_HAL_Driver/Inc/stm32g4xx_ll_tim.h **** {
2025:Drivers/STM32G4xx_HAL_Driver/Inc/stm32g4xx_ll_tim.h ****   SET_BIT(TIMx->CR1, TIM_CR1_CEN);
2026:Drivers/STM32G4xx_HAL_Driver/Inc/stm32g4xx_ll_tim.h **** }
2027:Drivers/STM32G4xx_HAL_Driver/Inc/stm32g4xx_ll_tim.h **** 
2028:Drivers/STM32G4xx_HAL_Driver/Inc/stm32g4xx_ll_tim.h **** /**
2029:Drivers/STM32G4xx_HAL_Driver/Inc/stm32g4xx_ll_tim.h ****   * @brief  Disable timer counter.
2030:Drivers/STM32G4xx_HAL_Driver/Inc/stm32g4xx_ll_tim.h ****   * @rmtoll CR1          CEN           LL_TIM_DisableCounter
ARM GAS  /tmp/ccF6ITrB.s 			page 81


2031:Drivers/STM32G4xx_HAL_Driver/Inc/stm32g4xx_ll_tim.h ****   * @param  TIMx Timer instance
2032:Drivers/STM32G4xx_HAL_Driver/Inc/stm32g4xx_ll_tim.h ****   * @retval None
2033:Drivers/STM32G4xx_HAL_Driver/Inc/stm32g4xx_ll_tim.h ****   */
2034:Drivers/STM32G4xx_HAL_Driver/Inc/stm32g4xx_ll_tim.h **** __STATIC_INLINE void LL_TIM_DisableCounter(TIM_TypeDef *TIMx)
2035:Drivers/STM32G4xx_HAL_Driver/Inc/stm32g4xx_ll_tim.h **** {
2036:Drivers/STM32G4xx_HAL_Driver/Inc/stm32g4xx_ll_tim.h ****   CLEAR_BIT(TIMx->CR1, TIM_CR1_CEN);
2037:Drivers/STM32G4xx_HAL_Driver/Inc/stm32g4xx_ll_tim.h **** }
2038:Drivers/STM32G4xx_HAL_Driver/Inc/stm32g4xx_ll_tim.h **** 
2039:Drivers/STM32G4xx_HAL_Driver/Inc/stm32g4xx_ll_tim.h **** /**
2040:Drivers/STM32G4xx_HAL_Driver/Inc/stm32g4xx_ll_tim.h ****   * @brief  Indicates whether the timer counter is enabled.
2041:Drivers/STM32G4xx_HAL_Driver/Inc/stm32g4xx_ll_tim.h ****   * @rmtoll CR1          CEN           LL_TIM_IsEnabledCounter
2042:Drivers/STM32G4xx_HAL_Driver/Inc/stm32g4xx_ll_tim.h ****   * @param  TIMx Timer instance
2043:Drivers/STM32G4xx_HAL_Driver/Inc/stm32g4xx_ll_tim.h ****   * @retval State of bit (1 or 0).
2044:Drivers/STM32G4xx_HAL_Driver/Inc/stm32g4xx_ll_tim.h ****   */
2045:Drivers/STM32G4xx_HAL_Driver/Inc/stm32g4xx_ll_tim.h **** __STATIC_INLINE uint32_t LL_TIM_IsEnabledCounter(const TIM_TypeDef *TIMx)
2046:Drivers/STM32G4xx_HAL_Driver/Inc/stm32g4xx_ll_tim.h **** {
2047:Drivers/STM32G4xx_HAL_Driver/Inc/stm32g4xx_ll_tim.h ****   return ((READ_BIT(TIMx->CR1, TIM_CR1_CEN) == (TIM_CR1_CEN)) ? 1UL : 0UL);
2048:Drivers/STM32G4xx_HAL_Driver/Inc/stm32g4xx_ll_tim.h **** }
2049:Drivers/STM32G4xx_HAL_Driver/Inc/stm32g4xx_ll_tim.h **** 
2050:Drivers/STM32G4xx_HAL_Driver/Inc/stm32g4xx_ll_tim.h **** /**
2051:Drivers/STM32G4xx_HAL_Driver/Inc/stm32g4xx_ll_tim.h ****   * @brief  Enable update event generation.
2052:Drivers/STM32G4xx_HAL_Driver/Inc/stm32g4xx_ll_tim.h ****   * @rmtoll CR1          UDIS          LL_TIM_EnableUpdateEvent
2053:Drivers/STM32G4xx_HAL_Driver/Inc/stm32g4xx_ll_tim.h ****   * @param  TIMx Timer instance
2054:Drivers/STM32G4xx_HAL_Driver/Inc/stm32g4xx_ll_tim.h ****   * @retval None
2055:Drivers/STM32G4xx_HAL_Driver/Inc/stm32g4xx_ll_tim.h ****   */
2056:Drivers/STM32G4xx_HAL_Driver/Inc/stm32g4xx_ll_tim.h **** __STATIC_INLINE void LL_TIM_EnableUpdateEvent(TIM_TypeDef *TIMx)
2057:Drivers/STM32G4xx_HAL_Driver/Inc/stm32g4xx_ll_tim.h **** {
2058:Drivers/STM32G4xx_HAL_Driver/Inc/stm32g4xx_ll_tim.h ****   CLEAR_BIT(TIMx->CR1, TIM_CR1_UDIS);
2059:Drivers/STM32G4xx_HAL_Driver/Inc/stm32g4xx_ll_tim.h **** }
2060:Drivers/STM32G4xx_HAL_Driver/Inc/stm32g4xx_ll_tim.h **** 
2061:Drivers/STM32G4xx_HAL_Driver/Inc/stm32g4xx_ll_tim.h **** /**
2062:Drivers/STM32G4xx_HAL_Driver/Inc/stm32g4xx_ll_tim.h ****   * @brief  Disable update event generation.
2063:Drivers/STM32G4xx_HAL_Driver/Inc/stm32g4xx_ll_tim.h ****   * @rmtoll CR1          UDIS          LL_TIM_DisableUpdateEvent
2064:Drivers/STM32G4xx_HAL_Driver/Inc/stm32g4xx_ll_tim.h ****   * @param  TIMx Timer instance
2065:Drivers/STM32G4xx_HAL_Driver/Inc/stm32g4xx_ll_tim.h ****   * @retval None
2066:Drivers/STM32G4xx_HAL_Driver/Inc/stm32g4xx_ll_tim.h ****   */
2067:Drivers/STM32G4xx_HAL_Driver/Inc/stm32g4xx_ll_tim.h **** __STATIC_INLINE void LL_TIM_DisableUpdateEvent(TIM_TypeDef *TIMx)
2068:Drivers/STM32G4xx_HAL_Driver/Inc/stm32g4xx_ll_tim.h **** {
2069:Drivers/STM32G4xx_HAL_Driver/Inc/stm32g4xx_ll_tim.h ****   SET_BIT(TIMx->CR1, TIM_CR1_UDIS);
2070:Drivers/STM32G4xx_HAL_Driver/Inc/stm32g4xx_ll_tim.h **** }
2071:Drivers/STM32G4xx_HAL_Driver/Inc/stm32g4xx_ll_tim.h **** 
2072:Drivers/STM32G4xx_HAL_Driver/Inc/stm32g4xx_ll_tim.h **** /**
2073:Drivers/STM32G4xx_HAL_Driver/Inc/stm32g4xx_ll_tim.h ****   * @brief  Indicates whether update event generation is enabled.
2074:Drivers/STM32G4xx_HAL_Driver/Inc/stm32g4xx_ll_tim.h ****   * @rmtoll CR1          UDIS          LL_TIM_IsEnabledUpdateEvent
2075:Drivers/STM32G4xx_HAL_Driver/Inc/stm32g4xx_ll_tim.h ****   * @param  TIMx Timer instance
2076:Drivers/STM32G4xx_HAL_Driver/Inc/stm32g4xx_ll_tim.h ****   * @retval Inverted state of bit (0 or 1).
2077:Drivers/STM32G4xx_HAL_Driver/Inc/stm32g4xx_ll_tim.h ****   */
2078:Drivers/STM32G4xx_HAL_Driver/Inc/stm32g4xx_ll_tim.h **** __STATIC_INLINE uint32_t LL_TIM_IsEnabledUpdateEvent(const TIM_TypeDef *TIMx)
2079:Drivers/STM32G4xx_HAL_Driver/Inc/stm32g4xx_ll_tim.h **** {
2080:Drivers/STM32G4xx_HAL_Driver/Inc/stm32g4xx_ll_tim.h ****   return ((READ_BIT(TIMx->CR1, TIM_CR1_UDIS) == (uint32_t)RESET) ? 1UL : 0UL);
2081:Drivers/STM32G4xx_HAL_Driver/Inc/stm32g4xx_ll_tim.h **** }
2082:Drivers/STM32G4xx_HAL_Driver/Inc/stm32g4xx_ll_tim.h **** 
2083:Drivers/STM32G4xx_HAL_Driver/Inc/stm32g4xx_ll_tim.h **** /**
2084:Drivers/STM32G4xx_HAL_Driver/Inc/stm32g4xx_ll_tim.h ****   * @brief  Set update event source
2085:Drivers/STM32G4xx_HAL_Driver/Inc/stm32g4xx_ll_tim.h ****   * @note Update event source set to LL_TIM_UPDATESOURCE_REGULAR: any of the following events
2086:Drivers/STM32G4xx_HAL_Driver/Inc/stm32g4xx_ll_tim.h ****   *       generate an update interrupt or DMA request if enabled:
2087:Drivers/STM32G4xx_HAL_Driver/Inc/stm32g4xx_ll_tim.h ****   *        - Counter overflow/underflow
ARM GAS  /tmp/ccF6ITrB.s 			page 82


2088:Drivers/STM32G4xx_HAL_Driver/Inc/stm32g4xx_ll_tim.h ****   *        - Setting the UG bit
2089:Drivers/STM32G4xx_HAL_Driver/Inc/stm32g4xx_ll_tim.h ****   *        - Update generation through the slave mode controller
2090:Drivers/STM32G4xx_HAL_Driver/Inc/stm32g4xx_ll_tim.h ****   * @note Update event source set to LL_TIM_UPDATESOURCE_COUNTER: only counter
2091:Drivers/STM32G4xx_HAL_Driver/Inc/stm32g4xx_ll_tim.h ****   *       overflow/underflow generates an update interrupt or DMA request if enabled.
2092:Drivers/STM32G4xx_HAL_Driver/Inc/stm32g4xx_ll_tim.h ****   * @rmtoll CR1          URS           LL_TIM_SetUpdateSource
2093:Drivers/STM32G4xx_HAL_Driver/Inc/stm32g4xx_ll_tim.h ****   * @param  TIMx Timer instance
2094:Drivers/STM32G4xx_HAL_Driver/Inc/stm32g4xx_ll_tim.h ****   * @param  UpdateSource This parameter can be one of the following values:
2095:Drivers/STM32G4xx_HAL_Driver/Inc/stm32g4xx_ll_tim.h ****   *         @arg @ref LL_TIM_UPDATESOURCE_REGULAR
2096:Drivers/STM32G4xx_HAL_Driver/Inc/stm32g4xx_ll_tim.h ****   *         @arg @ref LL_TIM_UPDATESOURCE_COUNTER
2097:Drivers/STM32G4xx_HAL_Driver/Inc/stm32g4xx_ll_tim.h ****   * @retval None
2098:Drivers/STM32G4xx_HAL_Driver/Inc/stm32g4xx_ll_tim.h ****   */
2099:Drivers/STM32G4xx_HAL_Driver/Inc/stm32g4xx_ll_tim.h **** __STATIC_INLINE void LL_TIM_SetUpdateSource(TIM_TypeDef *TIMx, uint32_t UpdateSource)
2100:Drivers/STM32G4xx_HAL_Driver/Inc/stm32g4xx_ll_tim.h **** {
2101:Drivers/STM32G4xx_HAL_Driver/Inc/stm32g4xx_ll_tim.h ****   MODIFY_REG(TIMx->CR1, TIM_CR1_URS, UpdateSource);
2102:Drivers/STM32G4xx_HAL_Driver/Inc/stm32g4xx_ll_tim.h **** }
2103:Drivers/STM32G4xx_HAL_Driver/Inc/stm32g4xx_ll_tim.h **** 
2104:Drivers/STM32G4xx_HAL_Driver/Inc/stm32g4xx_ll_tim.h **** /**
2105:Drivers/STM32G4xx_HAL_Driver/Inc/stm32g4xx_ll_tim.h ****   * @brief  Get actual event update source
2106:Drivers/STM32G4xx_HAL_Driver/Inc/stm32g4xx_ll_tim.h ****   * @rmtoll CR1          URS           LL_TIM_GetUpdateSource
2107:Drivers/STM32G4xx_HAL_Driver/Inc/stm32g4xx_ll_tim.h ****   * @param  TIMx Timer instance
2108:Drivers/STM32G4xx_HAL_Driver/Inc/stm32g4xx_ll_tim.h ****   * @retval Returned value can be one of the following values:
2109:Drivers/STM32G4xx_HAL_Driver/Inc/stm32g4xx_ll_tim.h ****   *         @arg @ref LL_TIM_UPDATESOURCE_REGULAR
2110:Drivers/STM32G4xx_HAL_Driver/Inc/stm32g4xx_ll_tim.h ****   *         @arg @ref LL_TIM_UPDATESOURCE_COUNTER
2111:Drivers/STM32G4xx_HAL_Driver/Inc/stm32g4xx_ll_tim.h ****   */
2112:Drivers/STM32G4xx_HAL_Driver/Inc/stm32g4xx_ll_tim.h **** __STATIC_INLINE uint32_t LL_TIM_GetUpdateSource(const TIM_TypeDef *TIMx)
2113:Drivers/STM32G4xx_HAL_Driver/Inc/stm32g4xx_ll_tim.h **** {
2114:Drivers/STM32G4xx_HAL_Driver/Inc/stm32g4xx_ll_tim.h ****   return (uint32_t)(READ_BIT(TIMx->CR1, TIM_CR1_URS));
2115:Drivers/STM32G4xx_HAL_Driver/Inc/stm32g4xx_ll_tim.h **** }
2116:Drivers/STM32G4xx_HAL_Driver/Inc/stm32g4xx_ll_tim.h **** 
2117:Drivers/STM32G4xx_HAL_Driver/Inc/stm32g4xx_ll_tim.h **** /**
2118:Drivers/STM32G4xx_HAL_Driver/Inc/stm32g4xx_ll_tim.h ****   * @brief  Set one pulse mode (one shot v.s. repetitive).
2119:Drivers/STM32G4xx_HAL_Driver/Inc/stm32g4xx_ll_tim.h ****   * @rmtoll CR1          OPM           LL_TIM_SetOnePulseMode
2120:Drivers/STM32G4xx_HAL_Driver/Inc/stm32g4xx_ll_tim.h ****   * @param  TIMx Timer instance
2121:Drivers/STM32G4xx_HAL_Driver/Inc/stm32g4xx_ll_tim.h ****   * @param  OnePulseMode This parameter can be one of the following values:
2122:Drivers/STM32G4xx_HAL_Driver/Inc/stm32g4xx_ll_tim.h ****   *         @arg @ref LL_TIM_ONEPULSEMODE_SINGLE
2123:Drivers/STM32G4xx_HAL_Driver/Inc/stm32g4xx_ll_tim.h ****   *         @arg @ref LL_TIM_ONEPULSEMODE_REPETITIVE
2124:Drivers/STM32G4xx_HAL_Driver/Inc/stm32g4xx_ll_tim.h ****   * @retval None
2125:Drivers/STM32G4xx_HAL_Driver/Inc/stm32g4xx_ll_tim.h ****   */
2126:Drivers/STM32G4xx_HAL_Driver/Inc/stm32g4xx_ll_tim.h **** __STATIC_INLINE void LL_TIM_SetOnePulseMode(TIM_TypeDef *TIMx, uint32_t OnePulseMode)
2127:Drivers/STM32G4xx_HAL_Driver/Inc/stm32g4xx_ll_tim.h **** {
2128:Drivers/STM32G4xx_HAL_Driver/Inc/stm32g4xx_ll_tim.h ****   MODIFY_REG(TIMx->CR1, TIM_CR1_OPM, OnePulseMode);
2129:Drivers/STM32G4xx_HAL_Driver/Inc/stm32g4xx_ll_tim.h **** }
2130:Drivers/STM32G4xx_HAL_Driver/Inc/stm32g4xx_ll_tim.h **** 
2131:Drivers/STM32G4xx_HAL_Driver/Inc/stm32g4xx_ll_tim.h **** /**
2132:Drivers/STM32G4xx_HAL_Driver/Inc/stm32g4xx_ll_tim.h ****   * @brief  Get actual one pulse mode.
2133:Drivers/STM32G4xx_HAL_Driver/Inc/stm32g4xx_ll_tim.h ****   * @rmtoll CR1          OPM           LL_TIM_GetOnePulseMode
2134:Drivers/STM32G4xx_HAL_Driver/Inc/stm32g4xx_ll_tim.h ****   * @param  TIMx Timer instance
2135:Drivers/STM32G4xx_HAL_Driver/Inc/stm32g4xx_ll_tim.h ****   * @retval Returned value can be one of the following values:
2136:Drivers/STM32G4xx_HAL_Driver/Inc/stm32g4xx_ll_tim.h ****   *         @arg @ref LL_TIM_ONEPULSEMODE_SINGLE
2137:Drivers/STM32G4xx_HAL_Driver/Inc/stm32g4xx_ll_tim.h ****   *         @arg @ref LL_TIM_ONEPULSEMODE_REPETITIVE
2138:Drivers/STM32G4xx_HAL_Driver/Inc/stm32g4xx_ll_tim.h ****   */
2139:Drivers/STM32G4xx_HAL_Driver/Inc/stm32g4xx_ll_tim.h **** __STATIC_INLINE uint32_t LL_TIM_GetOnePulseMode(const TIM_TypeDef *TIMx)
2140:Drivers/STM32G4xx_HAL_Driver/Inc/stm32g4xx_ll_tim.h **** {
2141:Drivers/STM32G4xx_HAL_Driver/Inc/stm32g4xx_ll_tim.h ****   return (uint32_t)(READ_BIT(TIMx->CR1, TIM_CR1_OPM));
2142:Drivers/STM32G4xx_HAL_Driver/Inc/stm32g4xx_ll_tim.h **** }
2143:Drivers/STM32G4xx_HAL_Driver/Inc/stm32g4xx_ll_tim.h **** 
2144:Drivers/STM32G4xx_HAL_Driver/Inc/stm32g4xx_ll_tim.h **** /**
ARM GAS  /tmp/ccF6ITrB.s 			page 83


2145:Drivers/STM32G4xx_HAL_Driver/Inc/stm32g4xx_ll_tim.h ****   * @brief  Set the timer counter counting mode.
2146:Drivers/STM32G4xx_HAL_Driver/Inc/stm32g4xx_ll_tim.h ****   * @note Macro IS_TIM_COUNTER_MODE_SELECT_INSTANCE(TIMx) can be used to
2147:Drivers/STM32G4xx_HAL_Driver/Inc/stm32g4xx_ll_tim.h ****   *       check whether or not the counter mode selection feature is supported
2148:Drivers/STM32G4xx_HAL_Driver/Inc/stm32g4xx_ll_tim.h ****   *       by a timer instance.
2149:Drivers/STM32G4xx_HAL_Driver/Inc/stm32g4xx_ll_tim.h ****   * @note Switching from Center Aligned counter mode to Edge counter mode (or reverse)
2150:Drivers/STM32G4xx_HAL_Driver/Inc/stm32g4xx_ll_tim.h ****   *       requires a timer reset to avoid unexpected direction
2151:Drivers/STM32G4xx_HAL_Driver/Inc/stm32g4xx_ll_tim.h ****   *       due to DIR bit readonly in center aligned mode.
2152:Drivers/STM32G4xx_HAL_Driver/Inc/stm32g4xx_ll_tim.h ****   * @rmtoll CR1          DIR           LL_TIM_SetCounterMode\n
2153:Drivers/STM32G4xx_HAL_Driver/Inc/stm32g4xx_ll_tim.h ****   *         CR1          CMS           LL_TIM_SetCounterMode
2154:Drivers/STM32G4xx_HAL_Driver/Inc/stm32g4xx_ll_tim.h ****   * @param  TIMx Timer instance
2155:Drivers/STM32G4xx_HAL_Driver/Inc/stm32g4xx_ll_tim.h ****   * @param  CounterMode This parameter can be one of the following values:
2156:Drivers/STM32G4xx_HAL_Driver/Inc/stm32g4xx_ll_tim.h ****   *         @arg @ref LL_TIM_COUNTERMODE_UP
2157:Drivers/STM32G4xx_HAL_Driver/Inc/stm32g4xx_ll_tim.h ****   *         @arg @ref LL_TIM_COUNTERMODE_DOWN
2158:Drivers/STM32G4xx_HAL_Driver/Inc/stm32g4xx_ll_tim.h ****   *         @arg @ref LL_TIM_COUNTERMODE_CENTER_UP
2159:Drivers/STM32G4xx_HAL_Driver/Inc/stm32g4xx_ll_tim.h ****   *         @arg @ref LL_TIM_COUNTERMODE_CENTER_DOWN
2160:Drivers/STM32G4xx_HAL_Driver/Inc/stm32g4xx_ll_tim.h ****   *         @arg @ref LL_TIM_COUNTERMODE_CENTER_UP_DOWN
2161:Drivers/STM32G4xx_HAL_Driver/Inc/stm32g4xx_ll_tim.h ****   * @retval None
2162:Drivers/STM32G4xx_HAL_Driver/Inc/stm32g4xx_ll_tim.h ****   */
2163:Drivers/STM32G4xx_HAL_Driver/Inc/stm32g4xx_ll_tim.h **** __STATIC_INLINE void LL_TIM_SetCounterMode(TIM_TypeDef *TIMx, uint32_t CounterMode)
2164:Drivers/STM32G4xx_HAL_Driver/Inc/stm32g4xx_ll_tim.h **** {
2165:Drivers/STM32G4xx_HAL_Driver/Inc/stm32g4xx_ll_tim.h ****   MODIFY_REG(TIMx->CR1, (TIM_CR1_DIR | TIM_CR1_CMS), CounterMode);
2166:Drivers/STM32G4xx_HAL_Driver/Inc/stm32g4xx_ll_tim.h **** }
2167:Drivers/STM32G4xx_HAL_Driver/Inc/stm32g4xx_ll_tim.h **** 
2168:Drivers/STM32G4xx_HAL_Driver/Inc/stm32g4xx_ll_tim.h **** /**
2169:Drivers/STM32G4xx_HAL_Driver/Inc/stm32g4xx_ll_tim.h ****   * @brief  Get actual counter mode.
2170:Drivers/STM32G4xx_HAL_Driver/Inc/stm32g4xx_ll_tim.h ****   * @note Macro IS_TIM_COUNTER_MODE_SELECT_INSTANCE(TIMx) can be used to
2171:Drivers/STM32G4xx_HAL_Driver/Inc/stm32g4xx_ll_tim.h ****   *       check whether or not the counter mode selection feature is supported
2172:Drivers/STM32G4xx_HAL_Driver/Inc/stm32g4xx_ll_tim.h ****   *       by a timer instance.
2173:Drivers/STM32G4xx_HAL_Driver/Inc/stm32g4xx_ll_tim.h ****   * @rmtoll CR1          DIR           LL_TIM_GetCounterMode\n
2174:Drivers/STM32G4xx_HAL_Driver/Inc/stm32g4xx_ll_tim.h ****   *         CR1          CMS           LL_TIM_GetCounterMode
2175:Drivers/STM32G4xx_HAL_Driver/Inc/stm32g4xx_ll_tim.h ****   * @param  TIMx Timer instance
2176:Drivers/STM32G4xx_HAL_Driver/Inc/stm32g4xx_ll_tim.h ****   * @retval Returned value can be one of the following values:
2177:Drivers/STM32G4xx_HAL_Driver/Inc/stm32g4xx_ll_tim.h ****   *         @arg @ref LL_TIM_COUNTERMODE_UP
2178:Drivers/STM32G4xx_HAL_Driver/Inc/stm32g4xx_ll_tim.h ****   *         @arg @ref LL_TIM_COUNTERMODE_DOWN
2179:Drivers/STM32G4xx_HAL_Driver/Inc/stm32g4xx_ll_tim.h ****   *         @arg @ref LL_TIM_COUNTERMODE_CENTER_UP
2180:Drivers/STM32G4xx_HAL_Driver/Inc/stm32g4xx_ll_tim.h ****   *         @arg @ref LL_TIM_COUNTERMODE_CENTER_DOWN
2181:Drivers/STM32G4xx_HAL_Driver/Inc/stm32g4xx_ll_tim.h ****   *         @arg @ref LL_TIM_COUNTERMODE_CENTER_UP_DOWN
2182:Drivers/STM32G4xx_HAL_Driver/Inc/stm32g4xx_ll_tim.h ****   */
2183:Drivers/STM32G4xx_HAL_Driver/Inc/stm32g4xx_ll_tim.h **** __STATIC_INLINE uint32_t LL_TIM_GetCounterMode(const TIM_TypeDef *TIMx)
2184:Drivers/STM32G4xx_HAL_Driver/Inc/stm32g4xx_ll_tim.h **** {
2185:Drivers/STM32G4xx_HAL_Driver/Inc/stm32g4xx_ll_tim.h ****   uint32_t counter_mode;
2186:Drivers/STM32G4xx_HAL_Driver/Inc/stm32g4xx_ll_tim.h **** 
2187:Drivers/STM32G4xx_HAL_Driver/Inc/stm32g4xx_ll_tim.h ****   counter_mode = (uint32_t)(READ_BIT(TIMx->CR1, TIM_CR1_CMS));
2188:Drivers/STM32G4xx_HAL_Driver/Inc/stm32g4xx_ll_tim.h **** 
2189:Drivers/STM32G4xx_HAL_Driver/Inc/stm32g4xx_ll_tim.h ****   if (counter_mode == 0U)
2190:Drivers/STM32G4xx_HAL_Driver/Inc/stm32g4xx_ll_tim.h ****   {
2191:Drivers/STM32G4xx_HAL_Driver/Inc/stm32g4xx_ll_tim.h ****     counter_mode = (uint32_t)(READ_BIT(TIMx->CR1, TIM_CR1_DIR));
2192:Drivers/STM32G4xx_HAL_Driver/Inc/stm32g4xx_ll_tim.h ****   }
2193:Drivers/STM32G4xx_HAL_Driver/Inc/stm32g4xx_ll_tim.h **** 
2194:Drivers/STM32G4xx_HAL_Driver/Inc/stm32g4xx_ll_tim.h ****   return counter_mode;
2195:Drivers/STM32G4xx_HAL_Driver/Inc/stm32g4xx_ll_tim.h **** }
2196:Drivers/STM32G4xx_HAL_Driver/Inc/stm32g4xx_ll_tim.h **** 
2197:Drivers/STM32G4xx_HAL_Driver/Inc/stm32g4xx_ll_tim.h **** /**
2198:Drivers/STM32G4xx_HAL_Driver/Inc/stm32g4xx_ll_tim.h ****   * @brief  Enable auto-reload (ARR) preload.
2199:Drivers/STM32G4xx_HAL_Driver/Inc/stm32g4xx_ll_tim.h ****   * @rmtoll CR1          ARPE          LL_TIM_EnableARRPreload
2200:Drivers/STM32G4xx_HAL_Driver/Inc/stm32g4xx_ll_tim.h ****   * @param  TIMx Timer instance
2201:Drivers/STM32G4xx_HAL_Driver/Inc/stm32g4xx_ll_tim.h ****   * @retval None
ARM GAS  /tmp/ccF6ITrB.s 			page 84


2202:Drivers/STM32G4xx_HAL_Driver/Inc/stm32g4xx_ll_tim.h ****   */
2203:Drivers/STM32G4xx_HAL_Driver/Inc/stm32g4xx_ll_tim.h **** __STATIC_INLINE void LL_TIM_EnableARRPreload(TIM_TypeDef *TIMx)
2204:Drivers/STM32G4xx_HAL_Driver/Inc/stm32g4xx_ll_tim.h **** {
2205:Drivers/STM32G4xx_HAL_Driver/Inc/stm32g4xx_ll_tim.h ****   SET_BIT(TIMx->CR1, TIM_CR1_ARPE);
2206:Drivers/STM32G4xx_HAL_Driver/Inc/stm32g4xx_ll_tim.h **** }
2207:Drivers/STM32G4xx_HAL_Driver/Inc/stm32g4xx_ll_tim.h **** 
2208:Drivers/STM32G4xx_HAL_Driver/Inc/stm32g4xx_ll_tim.h **** /**
2209:Drivers/STM32G4xx_HAL_Driver/Inc/stm32g4xx_ll_tim.h ****   * @brief  Disable auto-reload (ARR) preload.
2210:Drivers/STM32G4xx_HAL_Driver/Inc/stm32g4xx_ll_tim.h ****   * @rmtoll CR1          ARPE          LL_TIM_DisableARRPreload
2211:Drivers/STM32G4xx_HAL_Driver/Inc/stm32g4xx_ll_tim.h ****   * @param  TIMx Timer instance
2212:Drivers/STM32G4xx_HAL_Driver/Inc/stm32g4xx_ll_tim.h ****   * @retval None
2213:Drivers/STM32G4xx_HAL_Driver/Inc/stm32g4xx_ll_tim.h ****   */
2214:Drivers/STM32G4xx_HAL_Driver/Inc/stm32g4xx_ll_tim.h **** __STATIC_INLINE void LL_TIM_DisableARRPreload(TIM_TypeDef *TIMx)
2215:Drivers/STM32G4xx_HAL_Driver/Inc/stm32g4xx_ll_tim.h **** {
2216:Drivers/STM32G4xx_HAL_Driver/Inc/stm32g4xx_ll_tim.h ****   CLEAR_BIT(TIMx->CR1, TIM_CR1_ARPE);
2217:Drivers/STM32G4xx_HAL_Driver/Inc/stm32g4xx_ll_tim.h **** }
2218:Drivers/STM32G4xx_HAL_Driver/Inc/stm32g4xx_ll_tim.h **** 
2219:Drivers/STM32G4xx_HAL_Driver/Inc/stm32g4xx_ll_tim.h **** /**
2220:Drivers/STM32G4xx_HAL_Driver/Inc/stm32g4xx_ll_tim.h ****   * @brief  Indicates whether auto-reload (ARR) preload is enabled.
2221:Drivers/STM32G4xx_HAL_Driver/Inc/stm32g4xx_ll_tim.h ****   * @rmtoll CR1          ARPE          LL_TIM_IsEnabledARRPreload
2222:Drivers/STM32G4xx_HAL_Driver/Inc/stm32g4xx_ll_tim.h ****   * @param  TIMx Timer instance
2223:Drivers/STM32G4xx_HAL_Driver/Inc/stm32g4xx_ll_tim.h ****   * @retval State of bit (1 or 0).
2224:Drivers/STM32G4xx_HAL_Driver/Inc/stm32g4xx_ll_tim.h ****   */
2225:Drivers/STM32G4xx_HAL_Driver/Inc/stm32g4xx_ll_tim.h **** __STATIC_INLINE uint32_t LL_TIM_IsEnabledARRPreload(const TIM_TypeDef *TIMx)
2226:Drivers/STM32G4xx_HAL_Driver/Inc/stm32g4xx_ll_tim.h **** {
2227:Drivers/STM32G4xx_HAL_Driver/Inc/stm32g4xx_ll_tim.h ****   return ((READ_BIT(TIMx->CR1, TIM_CR1_ARPE) == (TIM_CR1_ARPE)) ? 1UL : 0UL);
2228:Drivers/STM32G4xx_HAL_Driver/Inc/stm32g4xx_ll_tim.h **** }
2229:Drivers/STM32G4xx_HAL_Driver/Inc/stm32g4xx_ll_tim.h **** 
2230:Drivers/STM32G4xx_HAL_Driver/Inc/stm32g4xx_ll_tim.h **** /**
2231:Drivers/STM32G4xx_HAL_Driver/Inc/stm32g4xx_ll_tim.h ****   * @brief  Set the division ratio between the timer clock  and the sampling clock used by the dead
2232:Drivers/STM32G4xx_HAL_Driver/Inc/stm32g4xx_ll_tim.h ****   *         (when supported) and the digital filters.
2233:Drivers/STM32G4xx_HAL_Driver/Inc/stm32g4xx_ll_tim.h ****   * @note Macro IS_TIM_CLOCK_DIVISION_INSTANCE(TIMx) can be used to check
2234:Drivers/STM32G4xx_HAL_Driver/Inc/stm32g4xx_ll_tim.h ****   *       whether or not the clock division feature is supported by the timer
2235:Drivers/STM32G4xx_HAL_Driver/Inc/stm32g4xx_ll_tim.h ****   *       instance.
2236:Drivers/STM32G4xx_HAL_Driver/Inc/stm32g4xx_ll_tim.h ****   * @rmtoll CR1          CKD           LL_TIM_SetClockDivision
2237:Drivers/STM32G4xx_HAL_Driver/Inc/stm32g4xx_ll_tim.h ****   * @param  TIMx Timer instance
2238:Drivers/STM32G4xx_HAL_Driver/Inc/stm32g4xx_ll_tim.h ****   * @param  ClockDivision This parameter can be one of the following values:
2239:Drivers/STM32G4xx_HAL_Driver/Inc/stm32g4xx_ll_tim.h ****   *         @arg @ref LL_TIM_CLOCKDIVISION_DIV1
2240:Drivers/STM32G4xx_HAL_Driver/Inc/stm32g4xx_ll_tim.h ****   *         @arg @ref LL_TIM_CLOCKDIVISION_DIV2
2241:Drivers/STM32G4xx_HAL_Driver/Inc/stm32g4xx_ll_tim.h ****   *         @arg @ref LL_TIM_CLOCKDIVISION_DIV4
2242:Drivers/STM32G4xx_HAL_Driver/Inc/stm32g4xx_ll_tim.h ****   * @retval None
2243:Drivers/STM32G4xx_HAL_Driver/Inc/stm32g4xx_ll_tim.h ****   */
2244:Drivers/STM32G4xx_HAL_Driver/Inc/stm32g4xx_ll_tim.h **** __STATIC_INLINE void LL_TIM_SetClockDivision(TIM_TypeDef *TIMx, uint32_t ClockDivision)
2245:Drivers/STM32G4xx_HAL_Driver/Inc/stm32g4xx_ll_tim.h **** {
2246:Drivers/STM32G4xx_HAL_Driver/Inc/stm32g4xx_ll_tim.h ****   MODIFY_REG(TIMx->CR1, TIM_CR1_CKD, ClockDivision);
2247:Drivers/STM32G4xx_HAL_Driver/Inc/stm32g4xx_ll_tim.h **** }
2248:Drivers/STM32G4xx_HAL_Driver/Inc/stm32g4xx_ll_tim.h **** 
2249:Drivers/STM32G4xx_HAL_Driver/Inc/stm32g4xx_ll_tim.h **** /**
2250:Drivers/STM32G4xx_HAL_Driver/Inc/stm32g4xx_ll_tim.h ****   * @brief  Get the actual division ratio between the timer clock  and the sampling clock used by t
2251:Drivers/STM32G4xx_HAL_Driver/Inc/stm32g4xx_ll_tim.h ****   *         generators (when supported) and the digital filters.
2252:Drivers/STM32G4xx_HAL_Driver/Inc/stm32g4xx_ll_tim.h ****   * @note Macro IS_TIM_CLOCK_DIVISION_INSTANCE(TIMx) can be used to check
2253:Drivers/STM32G4xx_HAL_Driver/Inc/stm32g4xx_ll_tim.h ****   *       whether or not the clock division feature is supported by the timer
2254:Drivers/STM32G4xx_HAL_Driver/Inc/stm32g4xx_ll_tim.h ****   *       instance.
2255:Drivers/STM32G4xx_HAL_Driver/Inc/stm32g4xx_ll_tim.h ****   * @rmtoll CR1          CKD           LL_TIM_GetClockDivision
2256:Drivers/STM32G4xx_HAL_Driver/Inc/stm32g4xx_ll_tim.h ****   * @param  TIMx Timer instance
2257:Drivers/STM32G4xx_HAL_Driver/Inc/stm32g4xx_ll_tim.h ****   * @retval Returned value can be one of the following values:
2258:Drivers/STM32G4xx_HAL_Driver/Inc/stm32g4xx_ll_tim.h ****   *         @arg @ref LL_TIM_CLOCKDIVISION_DIV1
ARM GAS  /tmp/ccF6ITrB.s 			page 85


2259:Drivers/STM32G4xx_HAL_Driver/Inc/stm32g4xx_ll_tim.h ****   *         @arg @ref LL_TIM_CLOCKDIVISION_DIV2
2260:Drivers/STM32G4xx_HAL_Driver/Inc/stm32g4xx_ll_tim.h ****   *         @arg @ref LL_TIM_CLOCKDIVISION_DIV4
2261:Drivers/STM32G4xx_HAL_Driver/Inc/stm32g4xx_ll_tim.h ****   */
2262:Drivers/STM32G4xx_HAL_Driver/Inc/stm32g4xx_ll_tim.h **** __STATIC_INLINE uint32_t LL_TIM_GetClockDivision(const TIM_TypeDef *TIMx)
2263:Drivers/STM32G4xx_HAL_Driver/Inc/stm32g4xx_ll_tim.h **** {
2264:Drivers/STM32G4xx_HAL_Driver/Inc/stm32g4xx_ll_tim.h ****   return (uint32_t)(READ_BIT(TIMx->CR1, TIM_CR1_CKD));
2265:Drivers/STM32G4xx_HAL_Driver/Inc/stm32g4xx_ll_tim.h **** }
2266:Drivers/STM32G4xx_HAL_Driver/Inc/stm32g4xx_ll_tim.h **** 
2267:Drivers/STM32G4xx_HAL_Driver/Inc/stm32g4xx_ll_tim.h **** /**
2268:Drivers/STM32G4xx_HAL_Driver/Inc/stm32g4xx_ll_tim.h ****   * @brief  Set the counter value.
2269:Drivers/STM32G4xx_HAL_Driver/Inc/stm32g4xx_ll_tim.h ****   * @note Macro IS_TIM_32B_COUNTER_INSTANCE(TIMx) can be used to check
2270:Drivers/STM32G4xx_HAL_Driver/Inc/stm32g4xx_ll_tim.h ****   *       whether or not a timer instance supports a 32 bits counter.
2271:Drivers/STM32G4xx_HAL_Driver/Inc/stm32g4xx_ll_tim.h ****   * @note If dithering is activated, pay attention to the Counter value interpretation
2272:Drivers/STM32G4xx_HAL_Driver/Inc/stm32g4xx_ll_tim.h ****   * @rmtoll CNT          CNT           LL_TIM_SetCounter
2273:Drivers/STM32G4xx_HAL_Driver/Inc/stm32g4xx_ll_tim.h ****   * @param  TIMx Timer instance
2274:Drivers/STM32G4xx_HAL_Driver/Inc/stm32g4xx_ll_tim.h ****   * @param  Counter Counter value (between Min_Data=0 and Max_Data=0xFFFF or 0xFFFFFFFF)
2275:Drivers/STM32G4xx_HAL_Driver/Inc/stm32g4xx_ll_tim.h ****   * @retval None
2276:Drivers/STM32G4xx_HAL_Driver/Inc/stm32g4xx_ll_tim.h ****   */
2277:Drivers/STM32G4xx_HAL_Driver/Inc/stm32g4xx_ll_tim.h **** __STATIC_INLINE void LL_TIM_SetCounter(TIM_TypeDef *TIMx, uint32_t Counter)
2278:Drivers/STM32G4xx_HAL_Driver/Inc/stm32g4xx_ll_tim.h **** {
2279:Drivers/STM32G4xx_HAL_Driver/Inc/stm32g4xx_ll_tim.h ****   WRITE_REG(TIMx->CNT, Counter);
2280:Drivers/STM32G4xx_HAL_Driver/Inc/stm32g4xx_ll_tim.h **** }
2281:Drivers/STM32G4xx_HAL_Driver/Inc/stm32g4xx_ll_tim.h **** 
2282:Drivers/STM32G4xx_HAL_Driver/Inc/stm32g4xx_ll_tim.h **** /**
2283:Drivers/STM32G4xx_HAL_Driver/Inc/stm32g4xx_ll_tim.h ****   * @brief  Get the counter value.
2284:Drivers/STM32G4xx_HAL_Driver/Inc/stm32g4xx_ll_tim.h ****   * @note Macro IS_TIM_32B_COUNTER_INSTANCE(TIMx) can be used to check
2285:Drivers/STM32G4xx_HAL_Driver/Inc/stm32g4xx_ll_tim.h ****   *       whether or not a timer instance supports a 32 bits counter.
2286:Drivers/STM32G4xx_HAL_Driver/Inc/stm32g4xx_ll_tim.h ****   * @note If dithering is activated, pay attention to the Counter value interpretation
2287:Drivers/STM32G4xx_HAL_Driver/Inc/stm32g4xx_ll_tim.h ****   * @rmtoll CNT          CNT           LL_TIM_GetCounter
2288:Drivers/STM32G4xx_HAL_Driver/Inc/stm32g4xx_ll_tim.h ****   * @param  TIMx Timer instance
2289:Drivers/STM32G4xx_HAL_Driver/Inc/stm32g4xx_ll_tim.h ****   * @retval Counter value (between Min_Data=0 and Max_Data=0xFFFF or 0xFFFFFFFF)
2290:Drivers/STM32G4xx_HAL_Driver/Inc/stm32g4xx_ll_tim.h ****   */
2291:Drivers/STM32G4xx_HAL_Driver/Inc/stm32g4xx_ll_tim.h **** __STATIC_INLINE uint32_t LL_TIM_GetCounter(const TIM_TypeDef *TIMx)
2292:Drivers/STM32G4xx_HAL_Driver/Inc/stm32g4xx_ll_tim.h **** {
2293:Drivers/STM32G4xx_HAL_Driver/Inc/stm32g4xx_ll_tim.h ****   return (uint32_t)(READ_REG(TIMx->CNT));
2294:Drivers/STM32G4xx_HAL_Driver/Inc/stm32g4xx_ll_tim.h **** }
2295:Drivers/STM32G4xx_HAL_Driver/Inc/stm32g4xx_ll_tim.h **** 
2296:Drivers/STM32G4xx_HAL_Driver/Inc/stm32g4xx_ll_tim.h **** /**
2297:Drivers/STM32G4xx_HAL_Driver/Inc/stm32g4xx_ll_tim.h ****   * @brief  Get the current direction of the counter
2298:Drivers/STM32G4xx_HAL_Driver/Inc/stm32g4xx_ll_tim.h ****   * @rmtoll CR1          DIR           LL_TIM_GetDirection
2299:Drivers/STM32G4xx_HAL_Driver/Inc/stm32g4xx_ll_tim.h ****   * @param  TIMx Timer instance
2300:Drivers/STM32G4xx_HAL_Driver/Inc/stm32g4xx_ll_tim.h ****   * @retval Returned value can be one of the following values:
2301:Drivers/STM32G4xx_HAL_Driver/Inc/stm32g4xx_ll_tim.h ****   *         @arg @ref LL_TIM_COUNTERDIRECTION_UP
2302:Drivers/STM32G4xx_HAL_Driver/Inc/stm32g4xx_ll_tim.h ****   *         @arg @ref LL_TIM_COUNTERDIRECTION_DOWN
2303:Drivers/STM32G4xx_HAL_Driver/Inc/stm32g4xx_ll_tim.h ****   */
2304:Drivers/STM32G4xx_HAL_Driver/Inc/stm32g4xx_ll_tim.h **** __STATIC_INLINE uint32_t LL_TIM_GetDirection(const TIM_TypeDef *TIMx)
2305:Drivers/STM32G4xx_HAL_Driver/Inc/stm32g4xx_ll_tim.h **** {
2306:Drivers/STM32G4xx_HAL_Driver/Inc/stm32g4xx_ll_tim.h ****   return (uint32_t)(READ_BIT(TIMx->CR1, TIM_CR1_DIR));
2307:Drivers/STM32G4xx_HAL_Driver/Inc/stm32g4xx_ll_tim.h **** }
2308:Drivers/STM32G4xx_HAL_Driver/Inc/stm32g4xx_ll_tim.h **** 
2309:Drivers/STM32G4xx_HAL_Driver/Inc/stm32g4xx_ll_tim.h **** /**
2310:Drivers/STM32G4xx_HAL_Driver/Inc/stm32g4xx_ll_tim.h ****   * @brief  Set the prescaler value.
2311:Drivers/STM32G4xx_HAL_Driver/Inc/stm32g4xx_ll_tim.h ****   * @note The counter clock frequency CK_CNT is equal to fCK_PSC / (PSC[15:0] + 1).
2312:Drivers/STM32G4xx_HAL_Driver/Inc/stm32g4xx_ll_tim.h ****   * @note The prescaler can be changed on the fly as this control register is buffered. The new
2313:Drivers/STM32G4xx_HAL_Driver/Inc/stm32g4xx_ll_tim.h ****   *       prescaler ratio is taken into account at the next update event.
2314:Drivers/STM32G4xx_HAL_Driver/Inc/stm32g4xx_ll_tim.h ****   * @note Helper macro @ref __LL_TIM_CALC_PSC can be used to calculate the Prescaler parameter
2315:Drivers/STM32G4xx_HAL_Driver/Inc/stm32g4xx_ll_tim.h ****   * @rmtoll PSC          PSC           LL_TIM_SetPrescaler
ARM GAS  /tmp/ccF6ITrB.s 			page 86


2316:Drivers/STM32G4xx_HAL_Driver/Inc/stm32g4xx_ll_tim.h ****   * @param  TIMx Timer instance
2317:Drivers/STM32G4xx_HAL_Driver/Inc/stm32g4xx_ll_tim.h ****   * @param  Prescaler between Min_Data=0 and Max_Data=65535
2318:Drivers/STM32G4xx_HAL_Driver/Inc/stm32g4xx_ll_tim.h ****   * @retval None
2319:Drivers/STM32G4xx_HAL_Driver/Inc/stm32g4xx_ll_tim.h ****   */
2320:Drivers/STM32G4xx_HAL_Driver/Inc/stm32g4xx_ll_tim.h **** __STATIC_INLINE void LL_TIM_SetPrescaler(TIM_TypeDef *TIMx, uint32_t Prescaler)
2321:Drivers/STM32G4xx_HAL_Driver/Inc/stm32g4xx_ll_tim.h **** {
2322:Drivers/STM32G4xx_HAL_Driver/Inc/stm32g4xx_ll_tim.h ****   WRITE_REG(TIMx->PSC, Prescaler);
2323:Drivers/STM32G4xx_HAL_Driver/Inc/stm32g4xx_ll_tim.h **** }
2324:Drivers/STM32G4xx_HAL_Driver/Inc/stm32g4xx_ll_tim.h **** 
2325:Drivers/STM32G4xx_HAL_Driver/Inc/stm32g4xx_ll_tim.h **** /**
2326:Drivers/STM32G4xx_HAL_Driver/Inc/stm32g4xx_ll_tim.h ****   * @brief  Get the prescaler value.
2327:Drivers/STM32G4xx_HAL_Driver/Inc/stm32g4xx_ll_tim.h ****   * @rmtoll PSC          PSC           LL_TIM_GetPrescaler
2328:Drivers/STM32G4xx_HAL_Driver/Inc/stm32g4xx_ll_tim.h ****   * @param  TIMx Timer instance
2329:Drivers/STM32G4xx_HAL_Driver/Inc/stm32g4xx_ll_tim.h ****   * @retval  Prescaler value between Min_Data=0 and Max_Data=65535
2330:Drivers/STM32G4xx_HAL_Driver/Inc/stm32g4xx_ll_tim.h ****   */
2331:Drivers/STM32G4xx_HAL_Driver/Inc/stm32g4xx_ll_tim.h **** __STATIC_INLINE uint32_t LL_TIM_GetPrescaler(const TIM_TypeDef *TIMx)
2332:Drivers/STM32G4xx_HAL_Driver/Inc/stm32g4xx_ll_tim.h **** {
2333:Drivers/STM32G4xx_HAL_Driver/Inc/stm32g4xx_ll_tim.h ****   return (uint32_t)(READ_REG(TIMx->PSC));
2334:Drivers/STM32G4xx_HAL_Driver/Inc/stm32g4xx_ll_tim.h **** }
2335:Drivers/STM32G4xx_HAL_Driver/Inc/stm32g4xx_ll_tim.h **** 
2336:Drivers/STM32G4xx_HAL_Driver/Inc/stm32g4xx_ll_tim.h **** /**
2337:Drivers/STM32G4xx_HAL_Driver/Inc/stm32g4xx_ll_tim.h ****   * @brief  Set the auto-reload value.
2338:Drivers/STM32G4xx_HAL_Driver/Inc/stm32g4xx_ll_tim.h ****   * @note The counter is blocked while the auto-reload value is null.
2339:Drivers/STM32G4xx_HAL_Driver/Inc/stm32g4xx_ll_tim.h ****   * @note Macro IS_TIM_32B_COUNTER_INSTANCE(TIMx) can be used to check
2340:Drivers/STM32G4xx_HAL_Driver/Inc/stm32g4xx_ll_tim.h ****   *       whether or not a timer instance supports a 32 bits counter.
2341:Drivers/STM32G4xx_HAL_Driver/Inc/stm32g4xx_ll_tim.h ****   * @note Helper macro @ref __LL_TIM_CALC_ARR can be used to calculate the AutoReload parameter
2342:Drivers/STM32G4xx_HAL_Driver/Inc/stm32g4xx_ll_tim.h ****   *       In case dithering is activated,macro __LL_TIM_CALC_ARR_DITHER can be used instead, to cal
2343:Drivers/STM32G4xx_HAL_Driver/Inc/stm32g4xx_ll_tim.h ****   *       parameter.
2344:Drivers/STM32G4xx_HAL_Driver/Inc/stm32g4xx_ll_tim.h ****   * @rmtoll ARR          ARR           LL_TIM_SetAutoReload
2345:Drivers/STM32G4xx_HAL_Driver/Inc/stm32g4xx_ll_tim.h ****   * @param  TIMx Timer instance
2346:Drivers/STM32G4xx_HAL_Driver/Inc/stm32g4xx_ll_tim.h ****   * @param  AutoReload between Min_Data=0 and Max_Data=65535
2347:Drivers/STM32G4xx_HAL_Driver/Inc/stm32g4xx_ll_tim.h ****   * @retval None
2348:Drivers/STM32G4xx_HAL_Driver/Inc/stm32g4xx_ll_tim.h ****   */
2349:Drivers/STM32G4xx_HAL_Driver/Inc/stm32g4xx_ll_tim.h **** __STATIC_INLINE void LL_TIM_SetAutoReload(TIM_TypeDef *TIMx, uint32_t AutoReload)
2350:Drivers/STM32G4xx_HAL_Driver/Inc/stm32g4xx_ll_tim.h **** {
2351:Drivers/STM32G4xx_HAL_Driver/Inc/stm32g4xx_ll_tim.h ****   WRITE_REG(TIMx->ARR, AutoReload);
2352:Drivers/STM32G4xx_HAL_Driver/Inc/stm32g4xx_ll_tim.h **** }
2353:Drivers/STM32G4xx_HAL_Driver/Inc/stm32g4xx_ll_tim.h **** 
2354:Drivers/STM32G4xx_HAL_Driver/Inc/stm32g4xx_ll_tim.h **** /**
2355:Drivers/STM32G4xx_HAL_Driver/Inc/stm32g4xx_ll_tim.h ****   * @brief  Get the auto-reload value.
2356:Drivers/STM32G4xx_HAL_Driver/Inc/stm32g4xx_ll_tim.h ****   * @rmtoll ARR          ARR           LL_TIM_GetAutoReload
2357:Drivers/STM32G4xx_HAL_Driver/Inc/stm32g4xx_ll_tim.h ****   * @note Macro IS_TIM_32B_COUNTER_INSTANCE(TIMx) can be used to check
2358:Drivers/STM32G4xx_HAL_Driver/Inc/stm32g4xx_ll_tim.h ****   *       whether or not a timer instance supports a 32 bits counter.
2359:Drivers/STM32G4xx_HAL_Driver/Inc/stm32g4xx_ll_tim.h ****   * @note If dithering is activated, pay attention to the returned value interpretation
2360:Drivers/STM32G4xx_HAL_Driver/Inc/stm32g4xx_ll_tim.h ****   * @param  TIMx Timer instance
2361:Drivers/STM32G4xx_HAL_Driver/Inc/stm32g4xx_ll_tim.h ****   * @retval Auto-reload value
2362:Drivers/STM32G4xx_HAL_Driver/Inc/stm32g4xx_ll_tim.h ****   */
2363:Drivers/STM32G4xx_HAL_Driver/Inc/stm32g4xx_ll_tim.h **** __STATIC_INLINE uint32_t LL_TIM_GetAutoReload(const TIM_TypeDef *TIMx)
2364:Drivers/STM32G4xx_HAL_Driver/Inc/stm32g4xx_ll_tim.h **** {
2365:Drivers/STM32G4xx_HAL_Driver/Inc/stm32g4xx_ll_tim.h ****   return (uint32_t)(READ_REG(TIMx->ARR));
2366:Drivers/STM32G4xx_HAL_Driver/Inc/stm32g4xx_ll_tim.h **** }
2367:Drivers/STM32G4xx_HAL_Driver/Inc/stm32g4xx_ll_tim.h **** 
2368:Drivers/STM32G4xx_HAL_Driver/Inc/stm32g4xx_ll_tim.h **** /**
2369:Drivers/STM32G4xx_HAL_Driver/Inc/stm32g4xx_ll_tim.h ****   * @brief  Set the repetition counter value.
2370:Drivers/STM32G4xx_HAL_Driver/Inc/stm32g4xx_ll_tim.h ****   * @note For advanced timer instances RepetitionCounter can be up to 65535.
2371:Drivers/STM32G4xx_HAL_Driver/Inc/stm32g4xx_ll_tim.h ****   * @note Macro IS_TIM_REPETITION_COUNTER_INSTANCE(TIMx) can be used to check
2372:Drivers/STM32G4xx_HAL_Driver/Inc/stm32g4xx_ll_tim.h ****   *       whether or not a timer instance supports a repetition counter.
ARM GAS  /tmp/ccF6ITrB.s 			page 87


2373:Drivers/STM32G4xx_HAL_Driver/Inc/stm32g4xx_ll_tim.h ****   * @rmtoll RCR          REP           LL_TIM_SetRepetitionCounter
2374:Drivers/STM32G4xx_HAL_Driver/Inc/stm32g4xx_ll_tim.h ****   * @param  TIMx Timer instance
2375:Drivers/STM32G4xx_HAL_Driver/Inc/stm32g4xx_ll_tim.h ****   * @param  RepetitionCounter between Min_Data=0 and Max_Data=255 or 65535 for advanced timer.
2376:Drivers/STM32G4xx_HAL_Driver/Inc/stm32g4xx_ll_tim.h ****   * @retval None
2377:Drivers/STM32G4xx_HAL_Driver/Inc/stm32g4xx_ll_tim.h ****   */
2378:Drivers/STM32G4xx_HAL_Driver/Inc/stm32g4xx_ll_tim.h **** __STATIC_INLINE void LL_TIM_SetRepetitionCounter(TIM_TypeDef *TIMx, uint32_t RepetitionCounter)
2379:Drivers/STM32G4xx_HAL_Driver/Inc/stm32g4xx_ll_tim.h **** {
2380:Drivers/STM32G4xx_HAL_Driver/Inc/stm32g4xx_ll_tim.h ****   WRITE_REG(TIMx->RCR, RepetitionCounter);
2381:Drivers/STM32G4xx_HAL_Driver/Inc/stm32g4xx_ll_tim.h **** }
2382:Drivers/STM32G4xx_HAL_Driver/Inc/stm32g4xx_ll_tim.h **** 
2383:Drivers/STM32G4xx_HAL_Driver/Inc/stm32g4xx_ll_tim.h **** /**
2384:Drivers/STM32G4xx_HAL_Driver/Inc/stm32g4xx_ll_tim.h ****   * @brief  Get the repetition counter value.
2385:Drivers/STM32G4xx_HAL_Driver/Inc/stm32g4xx_ll_tim.h ****   * @note Macro IS_TIM_REPETITION_COUNTER_INSTANCE(TIMx) can be used to check
2386:Drivers/STM32G4xx_HAL_Driver/Inc/stm32g4xx_ll_tim.h ****   *       whether or not a timer instance supports a repetition counter.
2387:Drivers/STM32G4xx_HAL_Driver/Inc/stm32g4xx_ll_tim.h ****   * @rmtoll RCR          REP           LL_TIM_GetRepetitionCounter
2388:Drivers/STM32G4xx_HAL_Driver/Inc/stm32g4xx_ll_tim.h ****   * @param  TIMx Timer instance
2389:Drivers/STM32G4xx_HAL_Driver/Inc/stm32g4xx_ll_tim.h ****   * @retval Repetition counter value
2390:Drivers/STM32G4xx_HAL_Driver/Inc/stm32g4xx_ll_tim.h ****   */
2391:Drivers/STM32G4xx_HAL_Driver/Inc/stm32g4xx_ll_tim.h **** __STATIC_INLINE uint32_t LL_TIM_GetRepetitionCounter(const TIM_TypeDef *TIMx)
2392:Drivers/STM32G4xx_HAL_Driver/Inc/stm32g4xx_ll_tim.h **** {
2393:Drivers/STM32G4xx_HAL_Driver/Inc/stm32g4xx_ll_tim.h ****   return (uint32_t)(READ_REG(TIMx->RCR));
2394:Drivers/STM32G4xx_HAL_Driver/Inc/stm32g4xx_ll_tim.h **** }
2395:Drivers/STM32G4xx_HAL_Driver/Inc/stm32g4xx_ll_tim.h **** 
2396:Drivers/STM32G4xx_HAL_Driver/Inc/stm32g4xx_ll_tim.h **** /**
2397:Drivers/STM32G4xx_HAL_Driver/Inc/stm32g4xx_ll_tim.h ****   * @brief  Force a continuous copy of the update interrupt flag (UIF) into the timer counter regis
2398:Drivers/STM32G4xx_HAL_Driver/Inc/stm32g4xx_ll_tim.h ****   * @note This allows both the counter value and a potential roll-over condition signalled by the U
2399:Drivers/STM32G4xx_HAL_Driver/Inc/stm32g4xx_ll_tim.h ****   *       in an atomic way.
2400:Drivers/STM32G4xx_HAL_Driver/Inc/stm32g4xx_ll_tim.h ****   * @rmtoll CR1          UIFREMAP      LL_TIM_EnableUIFRemap
2401:Drivers/STM32G4xx_HAL_Driver/Inc/stm32g4xx_ll_tim.h ****   * @param  TIMx Timer instance
2402:Drivers/STM32G4xx_HAL_Driver/Inc/stm32g4xx_ll_tim.h ****   * @retval None
2403:Drivers/STM32G4xx_HAL_Driver/Inc/stm32g4xx_ll_tim.h ****   */
2404:Drivers/STM32G4xx_HAL_Driver/Inc/stm32g4xx_ll_tim.h **** __STATIC_INLINE void LL_TIM_EnableUIFRemap(TIM_TypeDef *TIMx)
2405:Drivers/STM32G4xx_HAL_Driver/Inc/stm32g4xx_ll_tim.h **** {
2406:Drivers/STM32G4xx_HAL_Driver/Inc/stm32g4xx_ll_tim.h ****   SET_BIT(TIMx->CR1, TIM_CR1_UIFREMAP);
2407:Drivers/STM32G4xx_HAL_Driver/Inc/stm32g4xx_ll_tim.h **** }
2408:Drivers/STM32G4xx_HAL_Driver/Inc/stm32g4xx_ll_tim.h **** 
2409:Drivers/STM32G4xx_HAL_Driver/Inc/stm32g4xx_ll_tim.h **** /**
2410:Drivers/STM32G4xx_HAL_Driver/Inc/stm32g4xx_ll_tim.h ****   * @brief  Disable update interrupt flag (UIF) remapping.
2411:Drivers/STM32G4xx_HAL_Driver/Inc/stm32g4xx_ll_tim.h ****   * @rmtoll CR1          UIFREMAP      LL_TIM_DisableUIFRemap
2412:Drivers/STM32G4xx_HAL_Driver/Inc/stm32g4xx_ll_tim.h ****   * @param  TIMx Timer instance
2413:Drivers/STM32G4xx_HAL_Driver/Inc/stm32g4xx_ll_tim.h ****   * @retval None
2414:Drivers/STM32G4xx_HAL_Driver/Inc/stm32g4xx_ll_tim.h ****   */
2415:Drivers/STM32G4xx_HAL_Driver/Inc/stm32g4xx_ll_tim.h **** __STATIC_INLINE void LL_TIM_DisableUIFRemap(TIM_TypeDef *TIMx)
2416:Drivers/STM32G4xx_HAL_Driver/Inc/stm32g4xx_ll_tim.h **** {
2417:Drivers/STM32G4xx_HAL_Driver/Inc/stm32g4xx_ll_tim.h ****   CLEAR_BIT(TIMx->CR1, TIM_CR1_UIFREMAP);
2418:Drivers/STM32G4xx_HAL_Driver/Inc/stm32g4xx_ll_tim.h **** }
2419:Drivers/STM32G4xx_HAL_Driver/Inc/stm32g4xx_ll_tim.h **** 
2420:Drivers/STM32G4xx_HAL_Driver/Inc/stm32g4xx_ll_tim.h **** /**
2421:Drivers/STM32G4xx_HAL_Driver/Inc/stm32g4xx_ll_tim.h ****   * @brief  Indicate whether update interrupt flag (UIF) copy is set.
2422:Drivers/STM32G4xx_HAL_Driver/Inc/stm32g4xx_ll_tim.h ****   * @param  Counter Counter value
2423:Drivers/STM32G4xx_HAL_Driver/Inc/stm32g4xx_ll_tim.h ****   * @retval State of bit (1 or 0).
2424:Drivers/STM32G4xx_HAL_Driver/Inc/stm32g4xx_ll_tim.h ****   */
2425:Drivers/STM32G4xx_HAL_Driver/Inc/stm32g4xx_ll_tim.h **** __STATIC_INLINE uint32_t LL_TIM_IsActiveUIFCPY(const uint32_t Counter)
2426:Drivers/STM32G4xx_HAL_Driver/Inc/stm32g4xx_ll_tim.h **** {
2427:Drivers/STM32G4xx_HAL_Driver/Inc/stm32g4xx_ll_tim.h ****   return (((Counter & TIM_CNT_UIFCPY) == (TIM_CNT_UIFCPY)) ? 1UL : 0UL);
2428:Drivers/STM32G4xx_HAL_Driver/Inc/stm32g4xx_ll_tim.h **** }
2429:Drivers/STM32G4xx_HAL_Driver/Inc/stm32g4xx_ll_tim.h **** 
ARM GAS  /tmp/ccF6ITrB.s 			page 88


2430:Drivers/STM32G4xx_HAL_Driver/Inc/stm32g4xx_ll_tim.h **** /**
2431:Drivers/STM32G4xx_HAL_Driver/Inc/stm32g4xx_ll_tim.h ****   * @brief  Enable dithering.
2432:Drivers/STM32G4xx_HAL_Driver/Inc/stm32g4xx_ll_tim.h ****   * @note Macro IS_TIM_DITHERING_INSTANCE(TIMx) can be used to check whether or not
2433:Drivers/STM32G4xx_HAL_Driver/Inc/stm32g4xx_ll_tim.h ****   *       a timer instance provides dithering.
2434:Drivers/STM32G4xx_HAL_Driver/Inc/stm32g4xx_ll_tim.h ****   * @rmtoll CR1          DITHEN          LL_TIM_EnableDithering
2435:Drivers/STM32G4xx_HAL_Driver/Inc/stm32g4xx_ll_tim.h ****   * @param  TIMx Timer instance
2436:Drivers/STM32G4xx_HAL_Driver/Inc/stm32g4xx_ll_tim.h ****   * @retval None
2437:Drivers/STM32G4xx_HAL_Driver/Inc/stm32g4xx_ll_tim.h ****   */
2438:Drivers/STM32G4xx_HAL_Driver/Inc/stm32g4xx_ll_tim.h **** __STATIC_INLINE void LL_TIM_EnableDithering(TIM_TypeDef *TIMx)
2439:Drivers/STM32G4xx_HAL_Driver/Inc/stm32g4xx_ll_tim.h **** {
2440:Drivers/STM32G4xx_HAL_Driver/Inc/stm32g4xx_ll_tim.h ****   SET_BIT(TIMx->CR1, TIM_CR1_DITHEN);
2441:Drivers/STM32G4xx_HAL_Driver/Inc/stm32g4xx_ll_tim.h **** }
2442:Drivers/STM32G4xx_HAL_Driver/Inc/stm32g4xx_ll_tim.h **** 
2443:Drivers/STM32G4xx_HAL_Driver/Inc/stm32g4xx_ll_tim.h **** /**
2444:Drivers/STM32G4xx_HAL_Driver/Inc/stm32g4xx_ll_tim.h ****   * @brief  Disable dithering.
2445:Drivers/STM32G4xx_HAL_Driver/Inc/stm32g4xx_ll_tim.h ****   * @note Macro IS_TIM_DITHERING_INSTANCE(TIMx) can be used to check whether or not
2446:Drivers/STM32G4xx_HAL_Driver/Inc/stm32g4xx_ll_tim.h ****   *       a timer instance provides dithering.
2447:Drivers/STM32G4xx_HAL_Driver/Inc/stm32g4xx_ll_tim.h ****   * @rmtoll CR1          DITHEN          LL_TIM_DisableDithering
2448:Drivers/STM32G4xx_HAL_Driver/Inc/stm32g4xx_ll_tim.h ****   * @param  TIMx Timer instance
2449:Drivers/STM32G4xx_HAL_Driver/Inc/stm32g4xx_ll_tim.h ****   * @retval None
2450:Drivers/STM32G4xx_HAL_Driver/Inc/stm32g4xx_ll_tim.h ****   */
2451:Drivers/STM32G4xx_HAL_Driver/Inc/stm32g4xx_ll_tim.h **** __STATIC_INLINE void LL_TIM_DisableDithering(TIM_TypeDef *TIMx)
2452:Drivers/STM32G4xx_HAL_Driver/Inc/stm32g4xx_ll_tim.h **** {
2453:Drivers/STM32G4xx_HAL_Driver/Inc/stm32g4xx_ll_tim.h ****   CLEAR_BIT(TIMx->CR1, TIM_CR1_DITHEN);
2454:Drivers/STM32G4xx_HAL_Driver/Inc/stm32g4xx_ll_tim.h **** }
2455:Drivers/STM32G4xx_HAL_Driver/Inc/stm32g4xx_ll_tim.h **** 
2456:Drivers/STM32G4xx_HAL_Driver/Inc/stm32g4xx_ll_tim.h **** /**
2457:Drivers/STM32G4xx_HAL_Driver/Inc/stm32g4xx_ll_tim.h ****   * @brief  Indicates whether dithering is activated.
2458:Drivers/STM32G4xx_HAL_Driver/Inc/stm32g4xx_ll_tim.h ****   * @note Macro IS_TIM_DITHERING_INSTANCE(TIMx) can be used to check whether or not
2459:Drivers/STM32G4xx_HAL_Driver/Inc/stm32g4xx_ll_tim.h ****   *       a timer instance provides dithering.
2460:Drivers/STM32G4xx_HAL_Driver/Inc/stm32g4xx_ll_tim.h ****   * @rmtoll CR1          DITHEN          LL_TIM_IsEnabledDithering
2461:Drivers/STM32G4xx_HAL_Driver/Inc/stm32g4xx_ll_tim.h ****   * @param  TIMx Timer instance
2462:Drivers/STM32G4xx_HAL_Driver/Inc/stm32g4xx_ll_tim.h ****   * @retval State of bit (1 or 0).
2463:Drivers/STM32G4xx_HAL_Driver/Inc/stm32g4xx_ll_tim.h ****   */
2464:Drivers/STM32G4xx_HAL_Driver/Inc/stm32g4xx_ll_tim.h **** __STATIC_INLINE uint32_t LL_TIM_IsEnabledDithering(const TIM_TypeDef *TIMx)
2465:Drivers/STM32G4xx_HAL_Driver/Inc/stm32g4xx_ll_tim.h **** {
2466:Drivers/STM32G4xx_HAL_Driver/Inc/stm32g4xx_ll_tim.h ****   return ((READ_BIT(TIMx->CR1, TIM_CR1_DITHEN) == (TIM_CR1_DITHEN)) ? 1UL : 0UL);
2467:Drivers/STM32G4xx_HAL_Driver/Inc/stm32g4xx_ll_tim.h **** }
2468:Drivers/STM32G4xx_HAL_Driver/Inc/stm32g4xx_ll_tim.h **** 
2469:Drivers/STM32G4xx_HAL_Driver/Inc/stm32g4xx_ll_tim.h **** /**
2470:Drivers/STM32G4xx_HAL_Driver/Inc/stm32g4xx_ll_tim.h ****   * @}
2471:Drivers/STM32G4xx_HAL_Driver/Inc/stm32g4xx_ll_tim.h ****   */
2472:Drivers/STM32G4xx_HAL_Driver/Inc/stm32g4xx_ll_tim.h **** 
2473:Drivers/STM32G4xx_HAL_Driver/Inc/stm32g4xx_ll_tim.h **** /** @defgroup TIM_LL_EF_Capture_Compare Capture Compare configuration
2474:Drivers/STM32G4xx_HAL_Driver/Inc/stm32g4xx_ll_tim.h ****   * @{
2475:Drivers/STM32G4xx_HAL_Driver/Inc/stm32g4xx_ll_tim.h ****   */
2476:Drivers/STM32G4xx_HAL_Driver/Inc/stm32g4xx_ll_tim.h **** /**
2477:Drivers/STM32G4xx_HAL_Driver/Inc/stm32g4xx_ll_tim.h ****   * @brief  Enable  the capture/compare control bits (CCxE, CCxNE and OCxM) preload.
2478:Drivers/STM32G4xx_HAL_Driver/Inc/stm32g4xx_ll_tim.h ****   * @note CCxE, CCxNE and OCxM bits are preloaded, after having been written,
2479:Drivers/STM32G4xx_HAL_Driver/Inc/stm32g4xx_ll_tim.h ****   *       they are updated only when a commutation event (COM) occurs.
2480:Drivers/STM32G4xx_HAL_Driver/Inc/stm32g4xx_ll_tim.h ****   * @note Only on channels that have a complementary output.
2481:Drivers/STM32G4xx_HAL_Driver/Inc/stm32g4xx_ll_tim.h ****   * @note Macro IS_TIM_COMMUTATION_EVENT_INSTANCE(TIMx) can be used to check
2482:Drivers/STM32G4xx_HAL_Driver/Inc/stm32g4xx_ll_tim.h ****   *       whether or not a timer instance is able to generate a commutation event.
2483:Drivers/STM32G4xx_HAL_Driver/Inc/stm32g4xx_ll_tim.h ****   * @rmtoll CR2          CCPC          LL_TIM_CC_EnablePreload
2484:Drivers/STM32G4xx_HAL_Driver/Inc/stm32g4xx_ll_tim.h ****   * @param  TIMx Timer instance
2485:Drivers/STM32G4xx_HAL_Driver/Inc/stm32g4xx_ll_tim.h ****   * @retval None
2486:Drivers/STM32G4xx_HAL_Driver/Inc/stm32g4xx_ll_tim.h ****   */
ARM GAS  /tmp/ccF6ITrB.s 			page 89


2487:Drivers/STM32G4xx_HAL_Driver/Inc/stm32g4xx_ll_tim.h **** __STATIC_INLINE void LL_TIM_CC_EnablePreload(TIM_TypeDef *TIMx)
2488:Drivers/STM32G4xx_HAL_Driver/Inc/stm32g4xx_ll_tim.h **** {
2489:Drivers/STM32G4xx_HAL_Driver/Inc/stm32g4xx_ll_tim.h ****   SET_BIT(TIMx->CR2, TIM_CR2_CCPC);
2490:Drivers/STM32G4xx_HAL_Driver/Inc/stm32g4xx_ll_tim.h **** }
2491:Drivers/STM32G4xx_HAL_Driver/Inc/stm32g4xx_ll_tim.h **** 
2492:Drivers/STM32G4xx_HAL_Driver/Inc/stm32g4xx_ll_tim.h **** /**
2493:Drivers/STM32G4xx_HAL_Driver/Inc/stm32g4xx_ll_tim.h ****   * @brief  Disable  the capture/compare control bits (CCxE, CCxNE and OCxM) preload.
2494:Drivers/STM32G4xx_HAL_Driver/Inc/stm32g4xx_ll_tim.h ****   * @note Macro IS_TIM_COMMUTATION_EVENT_INSTANCE(TIMx) can be used to check
2495:Drivers/STM32G4xx_HAL_Driver/Inc/stm32g4xx_ll_tim.h ****   *       whether or not a timer instance is able to generate a commutation event.
2496:Drivers/STM32G4xx_HAL_Driver/Inc/stm32g4xx_ll_tim.h ****   * @rmtoll CR2          CCPC          LL_TIM_CC_DisablePreload
2497:Drivers/STM32G4xx_HAL_Driver/Inc/stm32g4xx_ll_tim.h ****   * @param  TIMx Timer instance
2498:Drivers/STM32G4xx_HAL_Driver/Inc/stm32g4xx_ll_tim.h ****   * @retval None
2499:Drivers/STM32G4xx_HAL_Driver/Inc/stm32g4xx_ll_tim.h ****   */
2500:Drivers/STM32G4xx_HAL_Driver/Inc/stm32g4xx_ll_tim.h **** __STATIC_INLINE void LL_TIM_CC_DisablePreload(TIM_TypeDef *TIMx)
2501:Drivers/STM32G4xx_HAL_Driver/Inc/stm32g4xx_ll_tim.h **** {
2502:Drivers/STM32G4xx_HAL_Driver/Inc/stm32g4xx_ll_tim.h ****   CLEAR_BIT(TIMx->CR2, TIM_CR2_CCPC);
2503:Drivers/STM32G4xx_HAL_Driver/Inc/stm32g4xx_ll_tim.h **** }
2504:Drivers/STM32G4xx_HAL_Driver/Inc/stm32g4xx_ll_tim.h **** 
2505:Drivers/STM32G4xx_HAL_Driver/Inc/stm32g4xx_ll_tim.h **** /**
2506:Drivers/STM32G4xx_HAL_Driver/Inc/stm32g4xx_ll_tim.h ****   * @brief  Indicates whether the capture/compare control bits (CCxE, CCxNE and OCxM) preload is en
2507:Drivers/STM32G4xx_HAL_Driver/Inc/stm32g4xx_ll_tim.h ****   * @rmtoll CR2          CCPC          LL_TIM_CC_IsEnabledPreload
2508:Drivers/STM32G4xx_HAL_Driver/Inc/stm32g4xx_ll_tim.h ****   * @param  TIMx Timer instance
2509:Drivers/STM32G4xx_HAL_Driver/Inc/stm32g4xx_ll_tim.h ****   * @retval State of bit (1 or 0).
2510:Drivers/STM32G4xx_HAL_Driver/Inc/stm32g4xx_ll_tim.h ****   */
2511:Drivers/STM32G4xx_HAL_Driver/Inc/stm32g4xx_ll_tim.h **** __STATIC_INLINE uint32_t LL_TIM_CC_IsEnabledPreload(const TIM_TypeDef *TIMx)
2512:Drivers/STM32G4xx_HAL_Driver/Inc/stm32g4xx_ll_tim.h **** {
2513:Drivers/STM32G4xx_HAL_Driver/Inc/stm32g4xx_ll_tim.h ****   return ((READ_BIT(TIMx->CR2, TIM_CR2_CCPC) == (TIM_CR2_CCPC)) ? 1UL : 0UL);
2514:Drivers/STM32G4xx_HAL_Driver/Inc/stm32g4xx_ll_tim.h **** }
2515:Drivers/STM32G4xx_HAL_Driver/Inc/stm32g4xx_ll_tim.h **** 
2516:Drivers/STM32G4xx_HAL_Driver/Inc/stm32g4xx_ll_tim.h **** /**
2517:Drivers/STM32G4xx_HAL_Driver/Inc/stm32g4xx_ll_tim.h ****   * @brief  Set the updated source of the capture/compare control bits (CCxE, CCxNE and OCxM).
2518:Drivers/STM32G4xx_HAL_Driver/Inc/stm32g4xx_ll_tim.h ****   * @note Macro IS_TIM_COMMUTATION_EVENT_INSTANCE(TIMx) can be used to check
2519:Drivers/STM32G4xx_HAL_Driver/Inc/stm32g4xx_ll_tim.h ****   *       whether or not a timer instance is able to generate a commutation event.
2520:Drivers/STM32G4xx_HAL_Driver/Inc/stm32g4xx_ll_tim.h ****   * @rmtoll CR2          CCUS          LL_TIM_CC_SetUpdate
2521:Drivers/STM32G4xx_HAL_Driver/Inc/stm32g4xx_ll_tim.h ****   * @param  TIMx Timer instance
2522:Drivers/STM32G4xx_HAL_Driver/Inc/stm32g4xx_ll_tim.h ****   * @param  CCUpdateSource This parameter can be one of the following values:
2523:Drivers/STM32G4xx_HAL_Driver/Inc/stm32g4xx_ll_tim.h ****   *         @arg @ref LL_TIM_CCUPDATESOURCE_COMG_ONLY
2524:Drivers/STM32G4xx_HAL_Driver/Inc/stm32g4xx_ll_tim.h ****   *         @arg @ref LL_TIM_CCUPDATESOURCE_COMG_AND_TRGI
2525:Drivers/STM32G4xx_HAL_Driver/Inc/stm32g4xx_ll_tim.h ****   * @retval None
2526:Drivers/STM32G4xx_HAL_Driver/Inc/stm32g4xx_ll_tim.h ****   */
2527:Drivers/STM32G4xx_HAL_Driver/Inc/stm32g4xx_ll_tim.h **** __STATIC_INLINE void LL_TIM_CC_SetUpdate(TIM_TypeDef *TIMx, uint32_t CCUpdateSource)
2528:Drivers/STM32G4xx_HAL_Driver/Inc/stm32g4xx_ll_tim.h **** {
2529:Drivers/STM32G4xx_HAL_Driver/Inc/stm32g4xx_ll_tim.h ****   MODIFY_REG(TIMx->CR2, TIM_CR2_CCUS, CCUpdateSource);
2530:Drivers/STM32G4xx_HAL_Driver/Inc/stm32g4xx_ll_tim.h **** }
2531:Drivers/STM32G4xx_HAL_Driver/Inc/stm32g4xx_ll_tim.h **** 
2532:Drivers/STM32G4xx_HAL_Driver/Inc/stm32g4xx_ll_tim.h **** /**
2533:Drivers/STM32G4xx_HAL_Driver/Inc/stm32g4xx_ll_tim.h ****   * @brief  Set the trigger of the capture/compare DMA request.
2534:Drivers/STM32G4xx_HAL_Driver/Inc/stm32g4xx_ll_tim.h ****   * @rmtoll CR2          CCDS          LL_TIM_CC_SetDMAReqTrigger
2535:Drivers/STM32G4xx_HAL_Driver/Inc/stm32g4xx_ll_tim.h ****   * @param  TIMx Timer instance
2536:Drivers/STM32G4xx_HAL_Driver/Inc/stm32g4xx_ll_tim.h ****   * @param  DMAReqTrigger This parameter can be one of the following values:
2537:Drivers/STM32G4xx_HAL_Driver/Inc/stm32g4xx_ll_tim.h ****   *         @arg @ref LL_TIM_CCDMAREQUEST_CC
2538:Drivers/STM32G4xx_HAL_Driver/Inc/stm32g4xx_ll_tim.h ****   *         @arg @ref LL_TIM_CCDMAREQUEST_UPDATE
2539:Drivers/STM32G4xx_HAL_Driver/Inc/stm32g4xx_ll_tim.h ****   * @retval None
2540:Drivers/STM32G4xx_HAL_Driver/Inc/stm32g4xx_ll_tim.h ****   */
2541:Drivers/STM32G4xx_HAL_Driver/Inc/stm32g4xx_ll_tim.h **** __STATIC_INLINE void LL_TIM_CC_SetDMAReqTrigger(TIM_TypeDef *TIMx, uint32_t DMAReqTrigger)
2542:Drivers/STM32G4xx_HAL_Driver/Inc/stm32g4xx_ll_tim.h **** {
2543:Drivers/STM32G4xx_HAL_Driver/Inc/stm32g4xx_ll_tim.h ****   MODIFY_REG(TIMx->CR2, TIM_CR2_CCDS, DMAReqTrigger);
ARM GAS  /tmp/ccF6ITrB.s 			page 90


2544:Drivers/STM32G4xx_HAL_Driver/Inc/stm32g4xx_ll_tim.h **** }
2545:Drivers/STM32G4xx_HAL_Driver/Inc/stm32g4xx_ll_tim.h **** 
2546:Drivers/STM32G4xx_HAL_Driver/Inc/stm32g4xx_ll_tim.h **** /**
2547:Drivers/STM32G4xx_HAL_Driver/Inc/stm32g4xx_ll_tim.h ****   * @brief  Get actual trigger of the capture/compare DMA request.
2548:Drivers/STM32G4xx_HAL_Driver/Inc/stm32g4xx_ll_tim.h ****   * @rmtoll CR2          CCDS          LL_TIM_CC_GetDMAReqTrigger
2549:Drivers/STM32G4xx_HAL_Driver/Inc/stm32g4xx_ll_tim.h ****   * @param  TIMx Timer instance
2550:Drivers/STM32G4xx_HAL_Driver/Inc/stm32g4xx_ll_tim.h ****   * @retval Returned value can be one of the following values:
2551:Drivers/STM32G4xx_HAL_Driver/Inc/stm32g4xx_ll_tim.h ****   *         @arg @ref LL_TIM_CCDMAREQUEST_CC
2552:Drivers/STM32G4xx_HAL_Driver/Inc/stm32g4xx_ll_tim.h ****   *         @arg @ref LL_TIM_CCDMAREQUEST_UPDATE
2553:Drivers/STM32G4xx_HAL_Driver/Inc/stm32g4xx_ll_tim.h ****   */
2554:Drivers/STM32G4xx_HAL_Driver/Inc/stm32g4xx_ll_tim.h **** __STATIC_INLINE uint32_t LL_TIM_CC_GetDMAReqTrigger(const TIM_TypeDef *TIMx)
2555:Drivers/STM32G4xx_HAL_Driver/Inc/stm32g4xx_ll_tim.h **** {
2556:Drivers/STM32G4xx_HAL_Driver/Inc/stm32g4xx_ll_tim.h ****   return (uint32_t)(READ_BIT(TIMx->CR2, TIM_CR2_CCDS));
2557:Drivers/STM32G4xx_HAL_Driver/Inc/stm32g4xx_ll_tim.h **** }
2558:Drivers/STM32G4xx_HAL_Driver/Inc/stm32g4xx_ll_tim.h **** 
2559:Drivers/STM32G4xx_HAL_Driver/Inc/stm32g4xx_ll_tim.h **** /**
2560:Drivers/STM32G4xx_HAL_Driver/Inc/stm32g4xx_ll_tim.h ****   * @brief  Set the lock level to freeze the
2561:Drivers/STM32G4xx_HAL_Driver/Inc/stm32g4xx_ll_tim.h ****   *         configuration of several capture/compare parameters.
2562:Drivers/STM32G4xx_HAL_Driver/Inc/stm32g4xx_ll_tim.h ****   * @note Macro IS_TIM_BREAK_INSTANCE(TIMx) can be used to check whether or not
2563:Drivers/STM32G4xx_HAL_Driver/Inc/stm32g4xx_ll_tim.h ****   *       the lock mechanism is supported by a timer instance.
2564:Drivers/STM32G4xx_HAL_Driver/Inc/stm32g4xx_ll_tim.h ****   * @rmtoll BDTR         LOCK          LL_TIM_CC_SetLockLevel
2565:Drivers/STM32G4xx_HAL_Driver/Inc/stm32g4xx_ll_tim.h ****   * @param  TIMx Timer instance
2566:Drivers/STM32G4xx_HAL_Driver/Inc/stm32g4xx_ll_tim.h ****   * @param  LockLevel This parameter can be one of the following values:
2567:Drivers/STM32G4xx_HAL_Driver/Inc/stm32g4xx_ll_tim.h ****   *         @arg @ref LL_TIM_LOCKLEVEL_OFF
2568:Drivers/STM32G4xx_HAL_Driver/Inc/stm32g4xx_ll_tim.h ****   *         @arg @ref LL_TIM_LOCKLEVEL_1
2569:Drivers/STM32G4xx_HAL_Driver/Inc/stm32g4xx_ll_tim.h ****   *         @arg @ref LL_TIM_LOCKLEVEL_2
2570:Drivers/STM32G4xx_HAL_Driver/Inc/stm32g4xx_ll_tim.h ****   *         @arg @ref LL_TIM_LOCKLEVEL_3
2571:Drivers/STM32G4xx_HAL_Driver/Inc/stm32g4xx_ll_tim.h ****   * @retval None
2572:Drivers/STM32G4xx_HAL_Driver/Inc/stm32g4xx_ll_tim.h ****   */
2573:Drivers/STM32G4xx_HAL_Driver/Inc/stm32g4xx_ll_tim.h **** __STATIC_INLINE void LL_TIM_CC_SetLockLevel(TIM_TypeDef *TIMx, uint32_t LockLevel)
2574:Drivers/STM32G4xx_HAL_Driver/Inc/stm32g4xx_ll_tim.h **** {
2575:Drivers/STM32G4xx_HAL_Driver/Inc/stm32g4xx_ll_tim.h ****   MODIFY_REG(TIMx->BDTR, TIM_BDTR_LOCK, LockLevel);
2576:Drivers/STM32G4xx_HAL_Driver/Inc/stm32g4xx_ll_tim.h **** }
2577:Drivers/STM32G4xx_HAL_Driver/Inc/stm32g4xx_ll_tim.h **** 
2578:Drivers/STM32G4xx_HAL_Driver/Inc/stm32g4xx_ll_tim.h **** /**
2579:Drivers/STM32G4xx_HAL_Driver/Inc/stm32g4xx_ll_tim.h ****   * @brief  Enable capture/compare channels.
2580:Drivers/STM32G4xx_HAL_Driver/Inc/stm32g4xx_ll_tim.h ****   * @rmtoll CCER         CC1E          LL_TIM_CC_EnableChannel\n
2581:Drivers/STM32G4xx_HAL_Driver/Inc/stm32g4xx_ll_tim.h ****   *         CCER         CC1NE         LL_TIM_CC_EnableChannel\n
2582:Drivers/STM32G4xx_HAL_Driver/Inc/stm32g4xx_ll_tim.h ****   *         CCER         CC2E          LL_TIM_CC_EnableChannel\n
2583:Drivers/STM32G4xx_HAL_Driver/Inc/stm32g4xx_ll_tim.h ****   *         CCER         CC2NE         LL_TIM_CC_EnableChannel\n
2584:Drivers/STM32G4xx_HAL_Driver/Inc/stm32g4xx_ll_tim.h ****   *         CCER         CC3E          LL_TIM_CC_EnableChannel\n
2585:Drivers/STM32G4xx_HAL_Driver/Inc/stm32g4xx_ll_tim.h ****   *         CCER         CC3NE         LL_TIM_CC_EnableChannel\n
2586:Drivers/STM32G4xx_HAL_Driver/Inc/stm32g4xx_ll_tim.h ****   *         CCER         CC4E          LL_TIM_CC_EnableChannel\n
2587:Drivers/STM32G4xx_HAL_Driver/Inc/stm32g4xx_ll_tim.h ****   *         CCER         CC4NE         LL_TIM_CC_EnableChannel\n
2588:Drivers/STM32G4xx_HAL_Driver/Inc/stm32g4xx_ll_tim.h ****   *         CCER         CC5E          LL_TIM_CC_EnableChannel\n
2589:Drivers/STM32G4xx_HAL_Driver/Inc/stm32g4xx_ll_tim.h ****   *         CCER         CC6E          LL_TIM_CC_EnableChannel
2590:Drivers/STM32G4xx_HAL_Driver/Inc/stm32g4xx_ll_tim.h ****   * @param  TIMx Timer instance
2591:Drivers/STM32G4xx_HAL_Driver/Inc/stm32g4xx_ll_tim.h ****   * @param  Channels This parameter can be a combination of the following values:
2592:Drivers/STM32G4xx_HAL_Driver/Inc/stm32g4xx_ll_tim.h ****   *         @arg @ref LL_TIM_CHANNEL_CH1
2593:Drivers/STM32G4xx_HAL_Driver/Inc/stm32g4xx_ll_tim.h ****   *         @arg @ref LL_TIM_CHANNEL_CH1N
2594:Drivers/STM32G4xx_HAL_Driver/Inc/stm32g4xx_ll_tim.h ****   *         @arg @ref LL_TIM_CHANNEL_CH2
2595:Drivers/STM32G4xx_HAL_Driver/Inc/stm32g4xx_ll_tim.h ****   *         @arg @ref LL_TIM_CHANNEL_CH2N
2596:Drivers/STM32G4xx_HAL_Driver/Inc/stm32g4xx_ll_tim.h ****   *         @arg @ref LL_TIM_CHANNEL_CH3
2597:Drivers/STM32G4xx_HAL_Driver/Inc/stm32g4xx_ll_tim.h ****   *         @arg @ref LL_TIM_CHANNEL_CH3N
2598:Drivers/STM32G4xx_HAL_Driver/Inc/stm32g4xx_ll_tim.h ****   *         @arg @ref LL_TIM_CHANNEL_CH4
2599:Drivers/STM32G4xx_HAL_Driver/Inc/stm32g4xx_ll_tim.h ****   *         @arg @ref LL_TIM_CHANNEL_CH4N
2600:Drivers/STM32G4xx_HAL_Driver/Inc/stm32g4xx_ll_tim.h ****   *         @arg @ref LL_TIM_CHANNEL_CH5
ARM GAS  /tmp/ccF6ITrB.s 			page 91


2601:Drivers/STM32G4xx_HAL_Driver/Inc/stm32g4xx_ll_tim.h ****   *         @arg @ref LL_TIM_CHANNEL_CH6
2602:Drivers/STM32G4xx_HAL_Driver/Inc/stm32g4xx_ll_tim.h ****   * @retval None
2603:Drivers/STM32G4xx_HAL_Driver/Inc/stm32g4xx_ll_tim.h ****   */
2604:Drivers/STM32G4xx_HAL_Driver/Inc/stm32g4xx_ll_tim.h **** __STATIC_INLINE void LL_TIM_CC_EnableChannel(TIM_TypeDef *TIMx, uint32_t Channels)
2605:Drivers/STM32G4xx_HAL_Driver/Inc/stm32g4xx_ll_tim.h **** {
2606:Drivers/STM32G4xx_HAL_Driver/Inc/stm32g4xx_ll_tim.h ****   SET_BIT(TIMx->CCER, Channels);
 1213              		.loc 4 2606 3 view .LVU345
 1214 0260 574E     		ldr	r6, .L97+8
 1215              	.LBE115:
 1216              	.LBE114:
 1217              	.LBE113:
 223:Src/mc_tasks_foc.c ****             if (0)//pwmcHandle[M1]->offsetCalibStatus == false)
 1218              		.loc 1 223 15 view .LVU346
 1219 0262 FFF7FEFF 		bl	MCI_GetImposedMotorDirection
 1220              	.LVL94:
 1221 0266 0146     		mov	r1, r0
 1222 0268 5648     		ldr	r0, .L97+12
 1223 026a FFF7FEFF 		bl	RUC_Clear
 1224              	.LVL95:
 224:Src/mc_tasks_foc.c ****             {
 1225              		.loc 1 224 13 is_stmt 1 view .LVU347
 1226              	.LBB152:
 231:Src/mc_tasks_foc.c ****               STSPIN32G4_wakeup(&HdlSTSPING4, 4);
 1227              		.loc 1 231 15 view .LVU348
 1228 026e 5648     		ldr	r0, .L97+16
 1229 0270 FFF7FEFF 		bl	STSPIN32G4_clearFaults
 1230              	.LVL96:
 232:Src/mc_tasks_foc.c ****               vTaskDelay(100);
 1231              		.loc 1 232 15 view .LVU349
 1232 0274 0421     		movs	r1, #4
 1233 0276 5448     		ldr	r0, .L97+16
 1234 0278 FFF7FEFF 		bl	STSPIN32G4_wakeup
 1235              	.LVL97:
 233:Src/mc_tasks_foc.c **** 
 1236              		.loc 1 233 15 view .LVU350
 1237 027c 6420     		movs	r0, #100
 1238 027e FFF7FEFF 		bl	vTaskDelay
 1239              	.LVL98:
 236:Src/mc_tasks_foc.c ****               //(void)PWMC_CurrentReadingCalibr(pwmcHandle[M1], CRC_EXEC);
 1240              		.loc 1 236 15 view .LVU351
 236:Src/mc_tasks_foc.c ****               //(void)PWMC_CurrentReadingCalibr(pwmcHandle[M1], CRC_EXEC);
 1241              		.loc 1 236 25 is_stmt 0 view .LVU352
 1242 0282 2868     		ldr	r0, [r5]
 238:Src/mc_tasks_foc.c ****               R3_2_SwitchOnPWM(pwmcHandle[M1]);
 1243              		.loc 1 238 21 view .LVU353
 1244 0284 0021     		movs	r1, #0
 236:Src/mc_tasks_foc.c ****               //(void)PWMC_CurrentReadingCalibr(pwmcHandle[M1], CRC_EXEC);
 1245              		.loc 1 236 56 view .LVU354
 1246 0286 A0F86040 		strh	r4, [r0, #96]	@ movhi
 238:Src/mc_tasks_foc.c ****               R3_2_SwitchOnPWM(pwmcHandle[M1]);
 1247              		.loc 1 238 15 is_stmt 1 view .LVU355
 238:Src/mc_tasks_foc.c ****               R3_2_SwitchOnPWM(pwmcHandle[M1]);
 1248              		.loc 1 238 21 is_stmt 0 view .LVU356
 1249 028a FFF7FEFF 		bl	PWMC_CurrentReadingCalibr
 1250              	.LVL99:
 239:Src/mc_tasks_foc.c ****       //        R3_2_TurnOnLowSides(pwmcHandle[M1],M1_CHARGE_BOOT_CAP_DUTY_CYCLES);
 1251              		.loc 1 239 15 is_stmt 1 view .LVU357
ARM GAS  /tmp/ccF6ITrB.s 			page 92


 1252 028e 2868     		ldr	r0, [r5]
 1253 0290 FFF7FEFF 		bl	R3_2_SwitchOnPWM
 1254              	.LVL100:
 241:Src/mc_tasks_foc.c **** 
 1255              		.loc 1 241 15 view .LVU358
 1256 0294 1420     		movs	r0, #20
 1257 0296 FFF7FEFF 		bl	TSK_SetChargeBootCapDelayM1
 1258              	.LVL101:
 246:Src/mc_tasks_foc.c ****         
 1259              		.loc 1 246 15 view .LVU359
 1260 029a 4748     		ldr	r0, .L97
 1261 029c FFF7FEFF 		bl	MCI_GetImposedMotorDirection
 1262              	.LVL102:
 1263 02a0 0146     		mov	r1, r0
 1264 02a2 4848     		ldr	r0, .L97+12
 1265 02a4 FFF7FEFF 		bl	RUC_Clear
 1266              	.LVL103:
 250:Src/mc_tasks_foc.c ****                                           LL_TIM_CHANNEL_CH2 | LL_TIM_CHANNEL_CH2N |
 1267              		.loc 1 250 15 view .LVU360
 1268              	.LBB118:
 1269              	.LBI114:
2604:Drivers/STM32G4xx_HAL_Driver/Inc/stm32g4xx_ll_tim.h **** {
 1270              		.loc 4 2604 22 view .LVU361
 1271              	.LBB116:
 1272              		.loc 4 2606 3 view .LVU362
 1273 02a8 326A     		ldr	r2, [r6, #32]
 1274              	.LBE116:
 1275              	.LBE118:
 1276              	.LBB119:
 1277              	.LBB120:
2607:Drivers/STM32G4xx_HAL_Driver/Inc/stm32g4xx_ll_tim.h **** }
2608:Drivers/STM32G4xx_HAL_Driver/Inc/stm32g4xx_ll_tim.h **** 
2609:Drivers/STM32G4xx_HAL_Driver/Inc/stm32g4xx_ll_tim.h **** /**
2610:Drivers/STM32G4xx_HAL_Driver/Inc/stm32g4xx_ll_tim.h ****   * @brief  Disable capture/compare channels.
2611:Drivers/STM32G4xx_HAL_Driver/Inc/stm32g4xx_ll_tim.h ****   * @rmtoll CCER         CC1E          LL_TIM_CC_DisableChannel\n
2612:Drivers/STM32G4xx_HAL_Driver/Inc/stm32g4xx_ll_tim.h ****   *         CCER         CC1NE         LL_TIM_CC_DisableChannel\n
2613:Drivers/STM32G4xx_HAL_Driver/Inc/stm32g4xx_ll_tim.h ****   *         CCER         CC2E          LL_TIM_CC_DisableChannel\n
2614:Drivers/STM32G4xx_HAL_Driver/Inc/stm32g4xx_ll_tim.h ****   *         CCER         CC2NE         LL_TIM_CC_DisableChannel\n
2615:Drivers/STM32G4xx_HAL_Driver/Inc/stm32g4xx_ll_tim.h ****   *         CCER         CC3E          LL_TIM_CC_DisableChannel\n
2616:Drivers/STM32G4xx_HAL_Driver/Inc/stm32g4xx_ll_tim.h ****   *         CCER         CC3NE         LL_TIM_CC_DisableChannel\n
2617:Drivers/STM32G4xx_HAL_Driver/Inc/stm32g4xx_ll_tim.h ****   *         CCER         CC4E          LL_TIM_CC_DisableChannel\n
2618:Drivers/STM32G4xx_HAL_Driver/Inc/stm32g4xx_ll_tim.h ****   *         CCER         CC4NE         LL_TIM_CC_DisableChannel\n
2619:Drivers/STM32G4xx_HAL_Driver/Inc/stm32g4xx_ll_tim.h ****   *         CCER         CC5E          LL_TIM_CC_DisableChannel\n
2620:Drivers/STM32G4xx_HAL_Driver/Inc/stm32g4xx_ll_tim.h ****   *         CCER         CC6E          LL_TIM_CC_DisableChannel
2621:Drivers/STM32G4xx_HAL_Driver/Inc/stm32g4xx_ll_tim.h ****   * @param  TIMx Timer instance
2622:Drivers/STM32G4xx_HAL_Driver/Inc/stm32g4xx_ll_tim.h ****   * @param  Channels This parameter can be a combination of the following values:
2623:Drivers/STM32G4xx_HAL_Driver/Inc/stm32g4xx_ll_tim.h ****   *         @arg @ref LL_TIM_CHANNEL_CH1
2624:Drivers/STM32G4xx_HAL_Driver/Inc/stm32g4xx_ll_tim.h ****   *         @arg @ref LL_TIM_CHANNEL_CH1N
2625:Drivers/STM32G4xx_HAL_Driver/Inc/stm32g4xx_ll_tim.h ****   *         @arg @ref LL_TIM_CHANNEL_CH2
2626:Drivers/STM32G4xx_HAL_Driver/Inc/stm32g4xx_ll_tim.h ****   *         @arg @ref LL_TIM_CHANNEL_CH2N
2627:Drivers/STM32G4xx_HAL_Driver/Inc/stm32g4xx_ll_tim.h ****   *         @arg @ref LL_TIM_CHANNEL_CH3
2628:Drivers/STM32G4xx_HAL_Driver/Inc/stm32g4xx_ll_tim.h ****   *         @arg @ref LL_TIM_CHANNEL_CH3N
2629:Drivers/STM32G4xx_HAL_Driver/Inc/stm32g4xx_ll_tim.h ****   *         @arg @ref LL_TIM_CHANNEL_CH4
2630:Drivers/STM32G4xx_HAL_Driver/Inc/stm32g4xx_ll_tim.h ****   *         @arg @ref LL_TIM_CHANNEL_CH4N
2631:Drivers/STM32G4xx_HAL_Driver/Inc/stm32g4xx_ll_tim.h ****   *         @arg @ref LL_TIM_CHANNEL_CH5
2632:Drivers/STM32G4xx_HAL_Driver/Inc/stm32g4xx_ll_tim.h ****   *         @arg @ref LL_TIM_CHANNEL_CH6
2633:Drivers/STM32G4xx_HAL_Driver/Inc/stm32g4xx_ll_tim.h ****   * @retval None
ARM GAS  /tmp/ccF6ITrB.s 			page 93


2634:Drivers/STM32G4xx_HAL_Driver/Inc/stm32g4xx_ll_tim.h ****   */
2635:Drivers/STM32G4xx_HAL_Driver/Inc/stm32g4xx_ll_tim.h **** __STATIC_INLINE void LL_TIM_CC_DisableChannel(TIM_TypeDef *TIMx, uint32_t Channels)
2636:Drivers/STM32G4xx_HAL_Driver/Inc/stm32g4xx_ll_tim.h **** {
2637:Drivers/STM32G4xx_HAL_Driver/Inc/stm32g4xx_ll_tim.h ****   CLEAR_BIT(TIMx->CCER, Channels);
2638:Drivers/STM32G4xx_HAL_Driver/Inc/stm32g4xx_ll_tim.h **** }
2639:Drivers/STM32G4xx_HAL_Driver/Inc/stm32g4xx_ll_tim.h **** 
2640:Drivers/STM32G4xx_HAL_Driver/Inc/stm32g4xx_ll_tim.h **** /**
2641:Drivers/STM32G4xx_HAL_Driver/Inc/stm32g4xx_ll_tim.h ****   * @brief  Indicate whether channel(s) is(are) enabled.
2642:Drivers/STM32G4xx_HAL_Driver/Inc/stm32g4xx_ll_tim.h ****   * @rmtoll CCER         CC1E          LL_TIM_CC_IsEnabledChannel\n
2643:Drivers/STM32G4xx_HAL_Driver/Inc/stm32g4xx_ll_tim.h ****   *         CCER         CC1NE         LL_TIM_CC_IsEnabledChannel\n
2644:Drivers/STM32G4xx_HAL_Driver/Inc/stm32g4xx_ll_tim.h ****   *         CCER         CC2E          LL_TIM_CC_IsEnabledChannel\n
2645:Drivers/STM32G4xx_HAL_Driver/Inc/stm32g4xx_ll_tim.h ****   *         CCER         CC2NE         LL_TIM_CC_IsEnabledChannel\n
2646:Drivers/STM32G4xx_HAL_Driver/Inc/stm32g4xx_ll_tim.h ****   *         CCER         CC3E          LL_TIM_CC_IsEnabledChannel\n
2647:Drivers/STM32G4xx_HAL_Driver/Inc/stm32g4xx_ll_tim.h ****   *         CCER         CC3NE         LL_TIM_CC_IsEnabledChannel\n
2648:Drivers/STM32G4xx_HAL_Driver/Inc/stm32g4xx_ll_tim.h ****   *         CCER         CC4E          LL_TIM_CC_IsEnabledChannel\n
2649:Drivers/STM32G4xx_HAL_Driver/Inc/stm32g4xx_ll_tim.h ****   *         CCER         CC4NE         LL_TIM_CC_IsEnabledChannel\n
2650:Drivers/STM32G4xx_HAL_Driver/Inc/stm32g4xx_ll_tim.h ****   *         CCER         CC5E          LL_TIM_CC_IsEnabledChannel\n
2651:Drivers/STM32G4xx_HAL_Driver/Inc/stm32g4xx_ll_tim.h ****   *         CCER         CC6E          LL_TIM_CC_IsEnabledChannel
2652:Drivers/STM32G4xx_HAL_Driver/Inc/stm32g4xx_ll_tim.h ****   * @param  TIMx Timer instance
2653:Drivers/STM32G4xx_HAL_Driver/Inc/stm32g4xx_ll_tim.h ****   * @param  Channels This parameter can be a combination of the following values:
2654:Drivers/STM32G4xx_HAL_Driver/Inc/stm32g4xx_ll_tim.h ****   *         @arg @ref LL_TIM_CHANNEL_CH1
2655:Drivers/STM32G4xx_HAL_Driver/Inc/stm32g4xx_ll_tim.h ****   *         @arg @ref LL_TIM_CHANNEL_CH1N
2656:Drivers/STM32G4xx_HAL_Driver/Inc/stm32g4xx_ll_tim.h ****   *         @arg @ref LL_TIM_CHANNEL_CH2
2657:Drivers/STM32G4xx_HAL_Driver/Inc/stm32g4xx_ll_tim.h ****   *         @arg @ref LL_TIM_CHANNEL_CH2N
2658:Drivers/STM32G4xx_HAL_Driver/Inc/stm32g4xx_ll_tim.h ****   *         @arg @ref LL_TIM_CHANNEL_CH3
2659:Drivers/STM32G4xx_HAL_Driver/Inc/stm32g4xx_ll_tim.h ****   *         @arg @ref LL_TIM_CHANNEL_CH3N
2660:Drivers/STM32G4xx_HAL_Driver/Inc/stm32g4xx_ll_tim.h ****   *         @arg @ref LL_TIM_CHANNEL_CH4
2661:Drivers/STM32G4xx_HAL_Driver/Inc/stm32g4xx_ll_tim.h ****   *         @arg @ref LL_TIM_CHANNEL_CH4N
2662:Drivers/STM32G4xx_HAL_Driver/Inc/stm32g4xx_ll_tim.h ****   *         @arg @ref LL_TIM_CHANNEL_CH5
2663:Drivers/STM32G4xx_HAL_Driver/Inc/stm32g4xx_ll_tim.h ****   *         @arg @ref LL_TIM_CHANNEL_CH6
2664:Drivers/STM32G4xx_HAL_Driver/Inc/stm32g4xx_ll_tim.h ****   * @retval State of bit (1 or 0).
2665:Drivers/STM32G4xx_HAL_Driver/Inc/stm32g4xx_ll_tim.h ****   */
2666:Drivers/STM32G4xx_HAL_Driver/Inc/stm32g4xx_ll_tim.h **** __STATIC_INLINE uint32_t LL_TIM_CC_IsEnabledChannel(const TIM_TypeDef *TIMx, uint32_t Channels)
2667:Drivers/STM32G4xx_HAL_Driver/Inc/stm32g4xx_ll_tim.h **** {
2668:Drivers/STM32G4xx_HAL_Driver/Inc/stm32g4xx_ll_tim.h ****   return ((READ_BIT(TIMx->CCER, Channels) == (Channels)) ? 1UL : 0UL);
2669:Drivers/STM32G4xx_HAL_Driver/Inc/stm32g4xx_ll_tim.h **** }
2670:Drivers/STM32G4xx_HAL_Driver/Inc/stm32g4xx_ll_tim.h **** 
2671:Drivers/STM32G4xx_HAL_Driver/Inc/stm32g4xx_ll_tim.h **** /**
2672:Drivers/STM32G4xx_HAL_Driver/Inc/stm32g4xx_ll_tim.h ****   * @}
2673:Drivers/STM32G4xx_HAL_Driver/Inc/stm32g4xx_ll_tim.h ****   */
2674:Drivers/STM32G4xx_HAL_Driver/Inc/stm32g4xx_ll_tim.h **** 
2675:Drivers/STM32G4xx_HAL_Driver/Inc/stm32g4xx_ll_tim.h **** /** @defgroup TIM_LL_EF_Output_Channel Output channel configuration
2676:Drivers/STM32G4xx_HAL_Driver/Inc/stm32g4xx_ll_tim.h ****   * @{
2677:Drivers/STM32G4xx_HAL_Driver/Inc/stm32g4xx_ll_tim.h ****   */
2678:Drivers/STM32G4xx_HAL_Driver/Inc/stm32g4xx_ll_tim.h **** /**
2679:Drivers/STM32G4xx_HAL_Driver/Inc/stm32g4xx_ll_tim.h ****   * @brief  Configure an output channel.
2680:Drivers/STM32G4xx_HAL_Driver/Inc/stm32g4xx_ll_tim.h ****   * @rmtoll CCMR1        CC1S          LL_TIM_OC_ConfigOutput\n
2681:Drivers/STM32G4xx_HAL_Driver/Inc/stm32g4xx_ll_tim.h ****   *         CCMR1        CC2S          LL_TIM_OC_ConfigOutput\n
2682:Drivers/STM32G4xx_HAL_Driver/Inc/stm32g4xx_ll_tim.h ****   *         CCMR2        CC3S          LL_TIM_OC_ConfigOutput\n
2683:Drivers/STM32G4xx_HAL_Driver/Inc/stm32g4xx_ll_tim.h ****   *         CCMR2        CC4S          LL_TIM_OC_ConfigOutput\n
2684:Drivers/STM32G4xx_HAL_Driver/Inc/stm32g4xx_ll_tim.h ****   *         CCMR3        CC5S          LL_TIM_OC_ConfigOutput\n
2685:Drivers/STM32G4xx_HAL_Driver/Inc/stm32g4xx_ll_tim.h ****   *         CCMR3        CC6S          LL_TIM_OC_ConfigOutput\n
2686:Drivers/STM32G4xx_HAL_Driver/Inc/stm32g4xx_ll_tim.h ****   *         CCER         CC1P          LL_TIM_OC_ConfigOutput\n
2687:Drivers/STM32G4xx_HAL_Driver/Inc/stm32g4xx_ll_tim.h ****   *         CCER         CC2P          LL_TIM_OC_ConfigOutput\n
2688:Drivers/STM32G4xx_HAL_Driver/Inc/stm32g4xx_ll_tim.h ****   *         CCER         CC3P          LL_TIM_OC_ConfigOutput\n
2689:Drivers/STM32G4xx_HAL_Driver/Inc/stm32g4xx_ll_tim.h ****   *         CCER         CC4P          LL_TIM_OC_ConfigOutput\n
2690:Drivers/STM32G4xx_HAL_Driver/Inc/stm32g4xx_ll_tim.h ****   *         CCER         CC5P          LL_TIM_OC_ConfigOutput\n
ARM GAS  /tmp/ccF6ITrB.s 			page 94


2691:Drivers/STM32G4xx_HAL_Driver/Inc/stm32g4xx_ll_tim.h ****   *         CCER         CC6P          LL_TIM_OC_ConfigOutput\n
2692:Drivers/STM32G4xx_HAL_Driver/Inc/stm32g4xx_ll_tim.h ****   *         CR2          OIS1          LL_TIM_OC_ConfigOutput\n
2693:Drivers/STM32G4xx_HAL_Driver/Inc/stm32g4xx_ll_tim.h ****   *         CR2          OIS2          LL_TIM_OC_ConfigOutput\n
2694:Drivers/STM32G4xx_HAL_Driver/Inc/stm32g4xx_ll_tim.h ****   *         CR2          OIS3          LL_TIM_OC_ConfigOutput\n
2695:Drivers/STM32G4xx_HAL_Driver/Inc/stm32g4xx_ll_tim.h ****   *         CR2          OIS4          LL_TIM_OC_ConfigOutput\n
2696:Drivers/STM32G4xx_HAL_Driver/Inc/stm32g4xx_ll_tim.h ****   *         CR2          OIS5          LL_TIM_OC_ConfigOutput\n
2697:Drivers/STM32G4xx_HAL_Driver/Inc/stm32g4xx_ll_tim.h ****   *         CR2          OIS6          LL_TIM_OC_ConfigOutput
2698:Drivers/STM32G4xx_HAL_Driver/Inc/stm32g4xx_ll_tim.h ****   * @param  TIMx Timer instance
2699:Drivers/STM32G4xx_HAL_Driver/Inc/stm32g4xx_ll_tim.h ****   * @param  Channel This parameter can be one of the following values:
2700:Drivers/STM32G4xx_HAL_Driver/Inc/stm32g4xx_ll_tim.h ****   *         @arg @ref LL_TIM_CHANNEL_CH1
2701:Drivers/STM32G4xx_HAL_Driver/Inc/stm32g4xx_ll_tim.h ****   *         @arg @ref LL_TIM_CHANNEL_CH2
2702:Drivers/STM32G4xx_HAL_Driver/Inc/stm32g4xx_ll_tim.h ****   *         @arg @ref LL_TIM_CHANNEL_CH3
2703:Drivers/STM32G4xx_HAL_Driver/Inc/stm32g4xx_ll_tim.h ****   *         @arg @ref LL_TIM_CHANNEL_CH4
2704:Drivers/STM32G4xx_HAL_Driver/Inc/stm32g4xx_ll_tim.h ****   *         @arg @ref LL_TIM_CHANNEL_CH5
2705:Drivers/STM32G4xx_HAL_Driver/Inc/stm32g4xx_ll_tim.h ****   *         @arg @ref LL_TIM_CHANNEL_CH6
2706:Drivers/STM32G4xx_HAL_Driver/Inc/stm32g4xx_ll_tim.h ****   * @param  Configuration This parameter must be a combination of all the following values:
2707:Drivers/STM32G4xx_HAL_Driver/Inc/stm32g4xx_ll_tim.h ****   *         @arg @ref LL_TIM_OCPOLARITY_HIGH or @ref LL_TIM_OCPOLARITY_LOW
2708:Drivers/STM32G4xx_HAL_Driver/Inc/stm32g4xx_ll_tim.h ****   *         @arg @ref LL_TIM_OCIDLESTATE_LOW or @ref LL_TIM_OCIDLESTATE_HIGH
2709:Drivers/STM32G4xx_HAL_Driver/Inc/stm32g4xx_ll_tim.h ****   * @retval None
2710:Drivers/STM32G4xx_HAL_Driver/Inc/stm32g4xx_ll_tim.h ****   */
2711:Drivers/STM32G4xx_HAL_Driver/Inc/stm32g4xx_ll_tim.h **** __STATIC_INLINE void LL_TIM_OC_ConfigOutput(TIM_TypeDef *TIMx, uint32_t Channel, uint32_t Configura
2712:Drivers/STM32G4xx_HAL_Driver/Inc/stm32g4xx_ll_tim.h **** {
2713:Drivers/STM32G4xx_HAL_Driver/Inc/stm32g4xx_ll_tim.h ****   uint8_t iChannel = TIM_GET_CHANNEL_INDEX(Channel);
2714:Drivers/STM32G4xx_HAL_Driver/Inc/stm32g4xx_ll_tim.h ****   __IO uint32_t *pReg = (__IO uint32_t *)((uint32_t)((uint32_t)(&TIMx->CCMR1) + OFFSET_TAB_CCMRx[iC
2715:Drivers/STM32G4xx_HAL_Driver/Inc/stm32g4xx_ll_tim.h ****   CLEAR_BIT(*pReg, (TIM_CCMR1_CC1S << SHIFT_TAB_OCxx[iChannel]));
2716:Drivers/STM32G4xx_HAL_Driver/Inc/stm32g4xx_ll_tim.h ****   MODIFY_REG(TIMx->CCER, (TIM_CCER_CC1P << SHIFT_TAB_CCxP[iChannel]),
2717:Drivers/STM32G4xx_HAL_Driver/Inc/stm32g4xx_ll_tim.h ****              (Configuration & TIM_CCER_CC1P) << SHIFT_TAB_CCxP[iChannel]);
2718:Drivers/STM32G4xx_HAL_Driver/Inc/stm32g4xx_ll_tim.h ****   MODIFY_REG(TIMx->CR2, (TIM_CR2_OIS1 << SHIFT_TAB_OISx[iChannel]),
2719:Drivers/STM32G4xx_HAL_Driver/Inc/stm32g4xx_ll_tim.h ****              (Configuration & TIM_CR2_OIS1) << SHIFT_TAB_OISx[iChannel]);
2720:Drivers/STM32G4xx_HAL_Driver/Inc/stm32g4xx_ll_tim.h **** }
2721:Drivers/STM32G4xx_HAL_Driver/Inc/stm32g4xx_ll_tim.h **** 
2722:Drivers/STM32G4xx_HAL_Driver/Inc/stm32g4xx_ll_tim.h **** /**
2723:Drivers/STM32G4xx_HAL_Driver/Inc/stm32g4xx_ll_tim.h ****   * @brief  Define the behavior of the output reference signal OCxREF from which
2724:Drivers/STM32G4xx_HAL_Driver/Inc/stm32g4xx_ll_tim.h ****   *         OCx and OCxN (when relevant) are derived.
2725:Drivers/STM32G4xx_HAL_Driver/Inc/stm32g4xx_ll_tim.h ****   * @rmtoll CCMR1        OC1M          LL_TIM_OC_SetMode\n
2726:Drivers/STM32G4xx_HAL_Driver/Inc/stm32g4xx_ll_tim.h ****   *         CCMR1        OC2M          LL_TIM_OC_SetMode\n
2727:Drivers/STM32G4xx_HAL_Driver/Inc/stm32g4xx_ll_tim.h ****   *         CCMR2        OC3M          LL_TIM_OC_SetMode\n
2728:Drivers/STM32G4xx_HAL_Driver/Inc/stm32g4xx_ll_tim.h ****   *         CCMR2        OC4M          LL_TIM_OC_SetMode\n
2729:Drivers/STM32G4xx_HAL_Driver/Inc/stm32g4xx_ll_tim.h ****   *         CCMR3        OC5M          LL_TIM_OC_SetMode\n
2730:Drivers/STM32G4xx_HAL_Driver/Inc/stm32g4xx_ll_tim.h ****   *         CCMR3        OC6M          LL_TIM_OC_SetMode
2731:Drivers/STM32G4xx_HAL_Driver/Inc/stm32g4xx_ll_tim.h ****   * @param  TIMx Timer instance
2732:Drivers/STM32G4xx_HAL_Driver/Inc/stm32g4xx_ll_tim.h ****   * @param  Channel This parameter can be one of the following values:
2733:Drivers/STM32G4xx_HAL_Driver/Inc/stm32g4xx_ll_tim.h ****   *         @arg @ref LL_TIM_CHANNEL_CH1
2734:Drivers/STM32G4xx_HAL_Driver/Inc/stm32g4xx_ll_tim.h ****   *         @arg @ref LL_TIM_CHANNEL_CH2
2735:Drivers/STM32G4xx_HAL_Driver/Inc/stm32g4xx_ll_tim.h ****   *         @arg @ref LL_TIM_CHANNEL_CH3
2736:Drivers/STM32G4xx_HAL_Driver/Inc/stm32g4xx_ll_tim.h ****   *         @arg @ref LL_TIM_CHANNEL_CH4
2737:Drivers/STM32G4xx_HAL_Driver/Inc/stm32g4xx_ll_tim.h ****   *         @arg @ref LL_TIM_CHANNEL_CH5
2738:Drivers/STM32G4xx_HAL_Driver/Inc/stm32g4xx_ll_tim.h ****   *         @arg @ref LL_TIM_CHANNEL_CH6
2739:Drivers/STM32G4xx_HAL_Driver/Inc/stm32g4xx_ll_tim.h ****   * @param  Mode This parameter can be one of the following values:
2740:Drivers/STM32G4xx_HAL_Driver/Inc/stm32g4xx_ll_tim.h ****   *         @arg @ref LL_TIM_OCMODE_FROZEN
2741:Drivers/STM32G4xx_HAL_Driver/Inc/stm32g4xx_ll_tim.h ****   *         @arg @ref LL_TIM_OCMODE_ACTIVE
2742:Drivers/STM32G4xx_HAL_Driver/Inc/stm32g4xx_ll_tim.h ****   *         @arg @ref LL_TIM_OCMODE_INACTIVE
2743:Drivers/STM32G4xx_HAL_Driver/Inc/stm32g4xx_ll_tim.h ****   *         @arg @ref LL_TIM_OCMODE_TOGGLE
2744:Drivers/STM32G4xx_HAL_Driver/Inc/stm32g4xx_ll_tim.h ****   *         @arg @ref LL_TIM_OCMODE_FORCED_INACTIVE
2745:Drivers/STM32G4xx_HAL_Driver/Inc/stm32g4xx_ll_tim.h ****   *         @arg @ref LL_TIM_OCMODE_FORCED_ACTIVE
2746:Drivers/STM32G4xx_HAL_Driver/Inc/stm32g4xx_ll_tim.h ****   *         @arg @ref LL_TIM_OCMODE_PWM1
2747:Drivers/STM32G4xx_HAL_Driver/Inc/stm32g4xx_ll_tim.h ****   *         @arg @ref LL_TIM_OCMODE_PWM2
ARM GAS  /tmp/ccF6ITrB.s 			page 95


2748:Drivers/STM32G4xx_HAL_Driver/Inc/stm32g4xx_ll_tim.h ****   *         @arg @ref LL_TIM_OCMODE_RETRIG_OPM1
2749:Drivers/STM32G4xx_HAL_Driver/Inc/stm32g4xx_ll_tim.h ****   *         @arg @ref LL_TIM_OCMODE_RETRIG_OPM2
2750:Drivers/STM32G4xx_HAL_Driver/Inc/stm32g4xx_ll_tim.h ****   *         @arg @ref LL_TIM_OCMODE_COMBINED_PWM1
2751:Drivers/STM32G4xx_HAL_Driver/Inc/stm32g4xx_ll_tim.h ****   *         @arg @ref LL_TIM_OCMODE_COMBINED_PWM2
2752:Drivers/STM32G4xx_HAL_Driver/Inc/stm32g4xx_ll_tim.h ****   *         @arg @ref LL_TIM_OCMODE_ASYMMETRIC_PWM1
2753:Drivers/STM32G4xx_HAL_Driver/Inc/stm32g4xx_ll_tim.h ****   *         @arg @ref LL_TIM_OCMODE_ASYMMETRIC_PWM2
2754:Drivers/STM32G4xx_HAL_Driver/Inc/stm32g4xx_ll_tim.h ****   *         @arg @ref LL_TIM_OCMODE_PULSE_ON_COMPARE   (for channel 3 or channel 4 only)
2755:Drivers/STM32G4xx_HAL_Driver/Inc/stm32g4xx_ll_tim.h ****   *         @arg @ref LL_TIM_OCMODE_DIRECTION_OUTPUT   (for channel 3 or channel 4 only)
2756:Drivers/STM32G4xx_HAL_Driver/Inc/stm32g4xx_ll_tim.h ****   * @retval None
2757:Drivers/STM32G4xx_HAL_Driver/Inc/stm32g4xx_ll_tim.h ****   */
2758:Drivers/STM32G4xx_HAL_Driver/Inc/stm32g4xx_ll_tim.h **** __STATIC_INLINE void LL_TIM_OC_SetMode(TIM_TypeDef *TIMx, uint32_t Channel, uint32_t Mode)
2759:Drivers/STM32G4xx_HAL_Driver/Inc/stm32g4xx_ll_tim.h **** {
2760:Drivers/STM32G4xx_HAL_Driver/Inc/stm32g4xx_ll_tim.h ****   uint8_t iChannel = TIM_GET_CHANNEL_INDEX(Channel);
2761:Drivers/STM32G4xx_HAL_Driver/Inc/stm32g4xx_ll_tim.h ****   __IO uint32_t *pReg = (__IO uint32_t *)((uint32_t)((uint32_t)(&TIMx->CCMR1) + OFFSET_TAB_CCMRx[iC
2762:Drivers/STM32G4xx_HAL_Driver/Inc/stm32g4xx_ll_tim.h ****   MODIFY_REG(*pReg, ((TIM_CCMR1_OC1M  | TIM_CCMR1_CC1S) << SHIFT_TAB_OCxx[iChannel]), Mode << SHIFT
 1278              		.loc 4 2762 3 is_stmt 0 view .LVU363
 1279 02aa 484B     		ldr	r3, .L97+20
 1280 02ac 4848     		ldr	r0, .L97+24
 1281              	.LBE120:
 1282              	.LBE119:
 1283              	.LBB122:
 1284              	.LBB123:
2761:Drivers/STM32G4xx_HAL_Driver/Inc/stm32g4xx_ll_tim.h ****   MODIFY_REG(*pReg, ((TIM_CCMR1_OC1M  | TIM_CCMR1_CC1S) << SHIFT_TAB_OCxx[iChannel]), Mode << SHIFT
 1285              		.loc 4 2761 43 view .LVU364
 1286 02ae 4949     		ldr	r1, .L97+28
 1287              	.LBE123:
 1288              	.LBE122:
 1289              	.LBB125:
 1290              	.LBB117:
2606:Drivers/STM32G4xx_HAL_Driver/Inc/stm32g4xx_ll_tim.h **** }
 1291              		.loc 4 2606 3 view .LVU365
 1292 02b0 42F4AA62 		orr	r2, r2, #1360
 1293 02b4 42F00502 		orr	r2, r2, #5
 1294 02b8 3262     		str	r2, [r6, #32]
 1295              	.LVL104:
2606:Drivers/STM32G4xx_HAL_Driver/Inc/stm32g4xx_ll_tim.h **** }
 1296              		.loc 4 2606 3 view .LVU366
 1297              	.LBE117:
 1298              	.LBE125:
 255:Src/mc_tasks_foc.c ****               LL_TIM_OC_SetMode(TIM1, LL_TIM_CHANNEL_CH2, LL_TIM_OCMODE_PWM1);
 1299              		.loc 1 255 15 is_stmt 1 view .LVU367
 1300              	.LBB126:
 1301              	.LBI119:
2758:Drivers/STM32G4xx_HAL_Driver/Inc/stm32g4xx_ll_tim.h **** {
 1302              		.loc 4 2758 22 view .LVU368
 1303              	.LBB121:
2760:Drivers/STM32G4xx_HAL_Driver/Inc/stm32g4xx_ll_tim.h ****   __IO uint32_t *pReg = (__IO uint32_t *)((uint32_t)((uint32_t)(&TIMx->CCMR1) + OFFSET_TAB_CCMRx[iC
 1304              		.loc 4 2760 3 view .LVU369
2761:Drivers/STM32G4xx_HAL_Driver/Inc/stm32g4xx_ll_tim.h ****   MODIFY_REG(*pReg, ((TIM_CCMR1_OC1M  | TIM_CCMR1_CC1S) << SHIFT_TAB_OCxx[iChannel]), Mode << SHIFT
 1305              		.loc 4 2761 3 view .LVU370
 1306              		.loc 4 2762 3 view .LVU371
 1307 02ba D3F8182C 		ldr	r2, [r3, #3096]
 1308 02be 0240     		ands	r2, r2, r0
 1309 02c0 42F06002 		orr	r2, r2, #96
 1310 02c4 C3F8182C 		str	r2, [r3, #3096]
 1311              	.LVL105:
 1312              		.loc 4 2762 3 is_stmt 0 view .LVU372
ARM GAS  /tmp/ccF6ITrB.s 			page 96


 1313              	.LBE121:
 1314              	.LBE126:
 256:Src/mc_tasks_foc.c ****               LL_TIM_OC_SetMode(TIM1, LL_TIM_CHANNEL_CH3, LL_TIM_OCMODE_PWM1);
 1315              		.loc 1 256 15 is_stmt 1 view .LVU373
 1316              	.LBB127:
 1317              	.LBI127:
2758:Drivers/STM32G4xx_HAL_Driver/Inc/stm32g4xx_ll_tim.h **** {
 1318              		.loc 4 2758 22 view .LVU374
 1319              	.LBB128:
2760:Drivers/STM32G4xx_HAL_Driver/Inc/stm32g4xx_ll_tim.h ****   __IO uint32_t *pReg = (__IO uint32_t *)((uint32_t)((uint32_t)(&TIMx->CCMR1) + OFFSET_TAB_CCMRx[iC
 1320              		.loc 4 2760 3 view .LVU375
2761:Drivers/STM32G4xx_HAL_Driver/Inc/stm32g4xx_ll_tim.h ****   MODIFY_REG(*pReg, ((TIM_CCMR1_OC1M  | TIM_CCMR1_CC1S) << SHIFT_TAB_OCxx[iChannel]), Mode << SHIFT
 1321              		.loc 4 2761 3 view .LVU376
 1322              		.loc 4 2762 3 view .LVU377
 1323 02c8 D3F8182C 		ldr	r2, [r3, #3096]
 1324 02cc 22F08072 		bic	r2, r2, #16777216
 1325 02d0 22F4E642 		bic	r2, r2, #29440
 1326 02d4 42F4C042 		orr	r2, r2, #24576
 1327 02d8 C3F8182C 		str	r2, [r3, #3096]
 1328              	.LVL106:
 1329              		.loc 4 2762 3 is_stmt 0 view .LVU378
 1330              	.LBE128:
 1331              	.LBE127:
 257:Src/mc_tasks_foc.c ****               
 1332              		.loc 1 257 15 is_stmt 1 view .LVU379
 1333              	.LBB129:
 1334              	.LBI122:
2758:Drivers/STM32G4xx_HAL_Driver/Inc/stm32g4xx_ll_tim.h **** {
 1335              		.loc 4 2758 22 view .LVU380
 1336              	.LBB124:
2760:Drivers/STM32G4xx_HAL_Driver/Inc/stm32g4xx_ll_tim.h ****   __IO uint32_t *pReg = (__IO uint32_t *)((uint32_t)((uint32_t)(&TIMx->CCMR1) + OFFSET_TAB_CCMRx[iC
 1337              		.loc 4 2760 3 view .LVU381
2761:Drivers/STM32G4xx_HAL_Driver/Inc/stm32g4xx_ll_tim.h ****   MODIFY_REG(*pReg, ((TIM_CCMR1_OC1M  | TIM_CCMR1_CC1S) << SHIFT_TAB_OCxx[iChannel]), Mode << SHIFT
 1338              		.loc 4 2761 3 view .LVU382
 1339              		.loc 4 2762 3 view .LVU383
 1340 02dc 4A68     		ldr	r2, [r1, #4]
 1341 02de 0240     		ands	r2, r2, r0
 1342 02e0 42F06002 		orr	r2, r2, #96
 1343 02e4 4A60     		str	r2, [r1, #4]
 1344              	.LVL107:
 1345              		.loc 4 2762 3 is_stmt 0 view .LVU384
 1346              	.LBE124:
 1347              	.LBE129:
 260:Src/mc_tasks_foc.c ****               
 1348              		.loc 1 260 15 is_stmt 1 view .LVU385
 1349              	.LBB130:
 1350              	.LBI130:
2763:Drivers/STM32G4xx_HAL_Driver/Inc/stm32g4xx_ll_tim.h **** }
2764:Drivers/STM32G4xx_HAL_Driver/Inc/stm32g4xx_ll_tim.h **** 
2765:Drivers/STM32G4xx_HAL_Driver/Inc/stm32g4xx_ll_tim.h **** /**
2766:Drivers/STM32G4xx_HAL_Driver/Inc/stm32g4xx_ll_tim.h ****   * @brief  Get the output compare mode of an output channel.
2767:Drivers/STM32G4xx_HAL_Driver/Inc/stm32g4xx_ll_tim.h ****   * @rmtoll CCMR1        OC1M          LL_TIM_OC_GetMode\n
2768:Drivers/STM32G4xx_HAL_Driver/Inc/stm32g4xx_ll_tim.h ****   *         CCMR1        OC2M          LL_TIM_OC_GetMode\n
2769:Drivers/STM32G4xx_HAL_Driver/Inc/stm32g4xx_ll_tim.h ****   *         CCMR2        OC3M          LL_TIM_OC_GetMode\n
2770:Drivers/STM32G4xx_HAL_Driver/Inc/stm32g4xx_ll_tim.h ****   *         CCMR2        OC4M          LL_TIM_OC_GetMode\n
2771:Drivers/STM32G4xx_HAL_Driver/Inc/stm32g4xx_ll_tim.h ****   *         CCMR3        OC5M          LL_TIM_OC_GetMode\n
2772:Drivers/STM32G4xx_HAL_Driver/Inc/stm32g4xx_ll_tim.h ****   *         CCMR3        OC6M          LL_TIM_OC_GetMode
ARM GAS  /tmp/ccF6ITrB.s 			page 97


2773:Drivers/STM32G4xx_HAL_Driver/Inc/stm32g4xx_ll_tim.h ****   * @param  TIMx Timer instance
2774:Drivers/STM32G4xx_HAL_Driver/Inc/stm32g4xx_ll_tim.h ****   * @param  Channel This parameter can be one of the following values:
2775:Drivers/STM32G4xx_HAL_Driver/Inc/stm32g4xx_ll_tim.h ****   *         @arg @ref LL_TIM_CHANNEL_CH1
2776:Drivers/STM32G4xx_HAL_Driver/Inc/stm32g4xx_ll_tim.h ****   *         @arg @ref LL_TIM_CHANNEL_CH2
2777:Drivers/STM32G4xx_HAL_Driver/Inc/stm32g4xx_ll_tim.h ****   *         @arg @ref LL_TIM_CHANNEL_CH3
2778:Drivers/STM32G4xx_HAL_Driver/Inc/stm32g4xx_ll_tim.h ****   *         @arg @ref LL_TIM_CHANNEL_CH4
2779:Drivers/STM32G4xx_HAL_Driver/Inc/stm32g4xx_ll_tim.h ****   *         @arg @ref LL_TIM_CHANNEL_CH5
2780:Drivers/STM32G4xx_HAL_Driver/Inc/stm32g4xx_ll_tim.h ****   *         @arg @ref LL_TIM_CHANNEL_CH6
2781:Drivers/STM32G4xx_HAL_Driver/Inc/stm32g4xx_ll_tim.h ****   * @retval Returned value can be one of the following values:
2782:Drivers/STM32G4xx_HAL_Driver/Inc/stm32g4xx_ll_tim.h ****   *         @arg @ref LL_TIM_OCMODE_FROZEN
2783:Drivers/STM32G4xx_HAL_Driver/Inc/stm32g4xx_ll_tim.h ****   *         @arg @ref LL_TIM_OCMODE_ACTIVE
2784:Drivers/STM32G4xx_HAL_Driver/Inc/stm32g4xx_ll_tim.h ****   *         @arg @ref LL_TIM_OCMODE_INACTIVE
2785:Drivers/STM32G4xx_HAL_Driver/Inc/stm32g4xx_ll_tim.h ****   *         @arg @ref LL_TIM_OCMODE_TOGGLE
2786:Drivers/STM32G4xx_HAL_Driver/Inc/stm32g4xx_ll_tim.h ****   *         @arg @ref LL_TIM_OCMODE_FORCED_INACTIVE
2787:Drivers/STM32G4xx_HAL_Driver/Inc/stm32g4xx_ll_tim.h ****   *         @arg @ref LL_TIM_OCMODE_FORCED_ACTIVE
2788:Drivers/STM32G4xx_HAL_Driver/Inc/stm32g4xx_ll_tim.h ****   *         @arg @ref LL_TIM_OCMODE_PWM1
2789:Drivers/STM32G4xx_HAL_Driver/Inc/stm32g4xx_ll_tim.h ****   *         @arg @ref LL_TIM_OCMODE_PWM2
2790:Drivers/STM32G4xx_HAL_Driver/Inc/stm32g4xx_ll_tim.h ****   *         @arg @ref LL_TIM_OCMODE_RETRIG_OPM1
2791:Drivers/STM32G4xx_HAL_Driver/Inc/stm32g4xx_ll_tim.h ****   *         @arg @ref LL_TIM_OCMODE_RETRIG_OPM2
2792:Drivers/STM32G4xx_HAL_Driver/Inc/stm32g4xx_ll_tim.h ****   *         @arg @ref LL_TIM_OCMODE_COMBINED_PWM1
2793:Drivers/STM32G4xx_HAL_Driver/Inc/stm32g4xx_ll_tim.h ****   *         @arg @ref LL_TIM_OCMODE_COMBINED_PWM2
2794:Drivers/STM32G4xx_HAL_Driver/Inc/stm32g4xx_ll_tim.h ****   *         @arg @ref LL_TIM_OCMODE_ASYMMETRIC_PWM1
2795:Drivers/STM32G4xx_HAL_Driver/Inc/stm32g4xx_ll_tim.h ****   *         @arg @ref LL_TIM_OCMODE_ASYMMETRIC_PWM2
2796:Drivers/STM32G4xx_HAL_Driver/Inc/stm32g4xx_ll_tim.h ****   *         @arg @ref LL_TIM_OCMODE_PULSE_ON_COMPARE   (for channel 3 or channel 4 only)
2797:Drivers/STM32G4xx_HAL_Driver/Inc/stm32g4xx_ll_tim.h ****   *         @arg @ref LL_TIM_OCMODE_DIRECTION_OUTPUT   (for channel 3 or channel 4 only)
2798:Drivers/STM32G4xx_HAL_Driver/Inc/stm32g4xx_ll_tim.h ****   */
2799:Drivers/STM32G4xx_HAL_Driver/Inc/stm32g4xx_ll_tim.h **** __STATIC_INLINE uint32_t LL_TIM_OC_GetMode(const TIM_TypeDef *TIMx, uint32_t Channel)
2800:Drivers/STM32G4xx_HAL_Driver/Inc/stm32g4xx_ll_tim.h **** {
2801:Drivers/STM32G4xx_HAL_Driver/Inc/stm32g4xx_ll_tim.h ****   uint8_t iChannel = TIM_GET_CHANNEL_INDEX(Channel);
2802:Drivers/STM32G4xx_HAL_Driver/Inc/stm32g4xx_ll_tim.h ****   const __IO uint32_t *pReg = (__IO uint32_t *)((uint32_t)((uint32_t)(&TIMx->CCMR1) + OFFSET_TAB_CC
2803:Drivers/STM32G4xx_HAL_Driver/Inc/stm32g4xx_ll_tim.h ****   return (READ_BIT(*pReg, ((TIM_CCMR1_OC1M | TIM_CCMR1_CC1S) << SHIFT_TAB_OCxx[iChannel])) >> SHIFT
2804:Drivers/STM32G4xx_HAL_Driver/Inc/stm32g4xx_ll_tim.h **** }
2805:Drivers/STM32G4xx_HAL_Driver/Inc/stm32g4xx_ll_tim.h **** 
2806:Drivers/STM32G4xx_HAL_Driver/Inc/stm32g4xx_ll_tim.h **** /**
2807:Drivers/STM32G4xx_HAL_Driver/Inc/stm32g4xx_ll_tim.h ****   * @brief  Set the polarity of an output channel.
2808:Drivers/STM32G4xx_HAL_Driver/Inc/stm32g4xx_ll_tim.h ****   * @rmtoll CCER         CC1P          LL_TIM_OC_SetPolarity\n
2809:Drivers/STM32G4xx_HAL_Driver/Inc/stm32g4xx_ll_tim.h ****   *         CCER         CC1NP         LL_TIM_OC_SetPolarity\n
2810:Drivers/STM32G4xx_HAL_Driver/Inc/stm32g4xx_ll_tim.h ****   *         CCER         CC2P          LL_TIM_OC_SetPolarity\n
2811:Drivers/STM32G4xx_HAL_Driver/Inc/stm32g4xx_ll_tim.h ****   *         CCER         CC2NP         LL_TIM_OC_SetPolarity\n
2812:Drivers/STM32G4xx_HAL_Driver/Inc/stm32g4xx_ll_tim.h ****   *         CCER         CC3P          LL_TIM_OC_SetPolarity\n
2813:Drivers/STM32G4xx_HAL_Driver/Inc/stm32g4xx_ll_tim.h ****   *         CCER         CC3NP         LL_TIM_OC_SetPolarity\n
2814:Drivers/STM32G4xx_HAL_Driver/Inc/stm32g4xx_ll_tim.h ****   *         CCER         CC4P          LL_TIM_OC_SetPolarity\n
2815:Drivers/STM32G4xx_HAL_Driver/Inc/stm32g4xx_ll_tim.h ****   *         CCER         CC4NP         LL_TIM_OC_SetPolarity\n
2816:Drivers/STM32G4xx_HAL_Driver/Inc/stm32g4xx_ll_tim.h ****   *         CCER         CC5P          LL_TIM_OC_SetPolarity\n
2817:Drivers/STM32G4xx_HAL_Driver/Inc/stm32g4xx_ll_tim.h ****   *         CCER         CC6P          LL_TIM_OC_SetPolarity
2818:Drivers/STM32G4xx_HAL_Driver/Inc/stm32g4xx_ll_tim.h ****   * @param  TIMx Timer instance
2819:Drivers/STM32G4xx_HAL_Driver/Inc/stm32g4xx_ll_tim.h ****   * @param  Channel This parameter can be one of the following values:
2820:Drivers/STM32G4xx_HAL_Driver/Inc/stm32g4xx_ll_tim.h ****   *         @arg @ref LL_TIM_CHANNEL_CH1
2821:Drivers/STM32G4xx_HAL_Driver/Inc/stm32g4xx_ll_tim.h ****   *         @arg @ref LL_TIM_CHANNEL_CH1N
2822:Drivers/STM32G4xx_HAL_Driver/Inc/stm32g4xx_ll_tim.h ****   *         @arg @ref LL_TIM_CHANNEL_CH2
2823:Drivers/STM32G4xx_HAL_Driver/Inc/stm32g4xx_ll_tim.h ****   *         @arg @ref LL_TIM_CHANNEL_CH2N
2824:Drivers/STM32G4xx_HAL_Driver/Inc/stm32g4xx_ll_tim.h ****   *         @arg @ref LL_TIM_CHANNEL_CH3
2825:Drivers/STM32G4xx_HAL_Driver/Inc/stm32g4xx_ll_tim.h ****   *         @arg @ref LL_TIM_CHANNEL_CH3N
2826:Drivers/STM32G4xx_HAL_Driver/Inc/stm32g4xx_ll_tim.h ****   *         @arg @ref LL_TIM_CHANNEL_CH4
2827:Drivers/STM32G4xx_HAL_Driver/Inc/stm32g4xx_ll_tim.h ****   *         @arg @ref LL_TIM_CHANNEL_CH4N
2828:Drivers/STM32G4xx_HAL_Driver/Inc/stm32g4xx_ll_tim.h ****   *         @arg @ref LL_TIM_CHANNEL_CH5
2829:Drivers/STM32G4xx_HAL_Driver/Inc/stm32g4xx_ll_tim.h ****   *         @arg @ref LL_TIM_CHANNEL_CH6
ARM GAS  /tmp/ccF6ITrB.s 			page 98


2830:Drivers/STM32G4xx_HAL_Driver/Inc/stm32g4xx_ll_tim.h ****   * @param  Polarity This parameter can be one of the following values:
2831:Drivers/STM32G4xx_HAL_Driver/Inc/stm32g4xx_ll_tim.h ****   *         @arg @ref LL_TIM_OCPOLARITY_HIGH
2832:Drivers/STM32G4xx_HAL_Driver/Inc/stm32g4xx_ll_tim.h ****   *         @arg @ref LL_TIM_OCPOLARITY_LOW
2833:Drivers/STM32G4xx_HAL_Driver/Inc/stm32g4xx_ll_tim.h ****   * @retval None
2834:Drivers/STM32G4xx_HAL_Driver/Inc/stm32g4xx_ll_tim.h ****   */
2835:Drivers/STM32G4xx_HAL_Driver/Inc/stm32g4xx_ll_tim.h **** __STATIC_INLINE void LL_TIM_OC_SetPolarity(TIM_TypeDef *TIMx, uint32_t Channel, uint32_t Polarity)
2836:Drivers/STM32G4xx_HAL_Driver/Inc/stm32g4xx_ll_tim.h **** {
2837:Drivers/STM32G4xx_HAL_Driver/Inc/stm32g4xx_ll_tim.h ****   uint8_t iChannel = TIM_GET_CHANNEL_INDEX(Channel);
2838:Drivers/STM32G4xx_HAL_Driver/Inc/stm32g4xx_ll_tim.h ****   MODIFY_REG(TIMx->CCER, (TIM_CCER_CC1P << SHIFT_TAB_CCxP[iChannel]),  Polarity << SHIFT_TAB_CCxP[i
2839:Drivers/STM32G4xx_HAL_Driver/Inc/stm32g4xx_ll_tim.h **** }
2840:Drivers/STM32G4xx_HAL_Driver/Inc/stm32g4xx_ll_tim.h **** 
2841:Drivers/STM32G4xx_HAL_Driver/Inc/stm32g4xx_ll_tim.h **** /**
2842:Drivers/STM32G4xx_HAL_Driver/Inc/stm32g4xx_ll_tim.h ****   * @brief  Get the polarity of an output channel.
2843:Drivers/STM32G4xx_HAL_Driver/Inc/stm32g4xx_ll_tim.h ****   * @rmtoll CCER         CC1P          LL_TIM_OC_GetPolarity\n
2844:Drivers/STM32G4xx_HAL_Driver/Inc/stm32g4xx_ll_tim.h ****   *         CCER         CC1NP         LL_TIM_OC_GetPolarity\n
2845:Drivers/STM32G4xx_HAL_Driver/Inc/stm32g4xx_ll_tim.h ****   *         CCER         CC2P          LL_TIM_OC_GetPolarity\n
2846:Drivers/STM32G4xx_HAL_Driver/Inc/stm32g4xx_ll_tim.h ****   *         CCER         CC2NP         LL_TIM_OC_GetPolarity\n
2847:Drivers/STM32G4xx_HAL_Driver/Inc/stm32g4xx_ll_tim.h ****   *         CCER         CC3P          LL_TIM_OC_GetPolarity\n
2848:Drivers/STM32G4xx_HAL_Driver/Inc/stm32g4xx_ll_tim.h ****   *         CCER         CC3NP         LL_TIM_OC_GetPolarity\n
2849:Drivers/STM32G4xx_HAL_Driver/Inc/stm32g4xx_ll_tim.h ****   *         CCER         CC4P          LL_TIM_OC_GetPolarity\n
2850:Drivers/STM32G4xx_HAL_Driver/Inc/stm32g4xx_ll_tim.h ****   *         CCER         CC4NP         LL_TIM_OC_GetPolarity\n
2851:Drivers/STM32G4xx_HAL_Driver/Inc/stm32g4xx_ll_tim.h ****   *         CCER         CC5P          LL_TIM_OC_GetPolarity\n
2852:Drivers/STM32G4xx_HAL_Driver/Inc/stm32g4xx_ll_tim.h ****   *         CCER         CC6P          LL_TIM_OC_GetPolarity
2853:Drivers/STM32G4xx_HAL_Driver/Inc/stm32g4xx_ll_tim.h ****   * @param  TIMx Timer instance
2854:Drivers/STM32G4xx_HAL_Driver/Inc/stm32g4xx_ll_tim.h ****   * @param  Channel This parameter can be one of the following values:
2855:Drivers/STM32G4xx_HAL_Driver/Inc/stm32g4xx_ll_tim.h ****   *         @arg @ref LL_TIM_CHANNEL_CH1
2856:Drivers/STM32G4xx_HAL_Driver/Inc/stm32g4xx_ll_tim.h ****   *         @arg @ref LL_TIM_CHANNEL_CH1N
2857:Drivers/STM32G4xx_HAL_Driver/Inc/stm32g4xx_ll_tim.h ****   *         @arg @ref LL_TIM_CHANNEL_CH2
2858:Drivers/STM32G4xx_HAL_Driver/Inc/stm32g4xx_ll_tim.h ****   *         @arg @ref LL_TIM_CHANNEL_CH2N
2859:Drivers/STM32G4xx_HAL_Driver/Inc/stm32g4xx_ll_tim.h ****   *         @arg @ref LL_TIM_CHANNEL_CH3
2860:Drivers/STM32G4xx_HAL_Driver/Inc/stm32g4xx_ll_tim.h ****   *         @arg @ref LL_TIM_CHANNEL_CH3N
2861:Drivers/STM32G4xx_HAL_Driver/Inc/stm32g4xx_ll_tim.h ****   *         @arg @ref LL_TIM_CHANNEL_CH4
2862:Drivers/STM32G4xx_HAL_Driver/Inc/stm32g4xx_ll_tim.h ****   *         @arg @ref LL_TIM_CHANNEL_CH4N
2863:Drivers/STM32G4xx_HAL_Driver/Inc/stm32g4xx_ll_tim.h ****   *         @arg @ref LL_TIM_CHANNEL_CH5
2864:Drivers/STM32G4xx_HAL_Driver/Inc/stm32g4xx_ll_tim.h ****   *         @arg @ref LL_TIM_CHANNEL_CH6
2865:Drivers/STM32G4xx_HAL_Driver/Inc/stm32g4xx_ll_tim.h ****   * @retval Returned value can be one of the following values:
2866:Drivers/STM32G4xx_HAL_Driver/Inc/stm32g4xx_ll_tim.h ****   *         @arg @ref LL_TIM_OCPOLARITY_HIGH
2867:Drivers/STM32G4xx_HAL_Driver/Inc/stm32g4xx_ll_tim.h ****   *         @arg @ref LL_TIM_OCPOLARITY_LOW
2868:Drivers/STM32G4xx_HAL_Driver/Inc/stm32g4xx_ll_tim.h ****   */
2869:Drivers/STM32G4xx_HAL_Driver/Inc/stm32g4xx_ll_tim.h **** __STATIC_INLINE uint32_t LL_TIM_OC_GetPolarity(const TIM_TypeDef *TIMx, uint32_t Channel)
2870:Drivers/STM32G4xx_HAL_Driver/Inc/stm32g4xx_ll_tim.h **** {
2871:Drivers/STM32G4xx_HAL_Driver/Inc/stm32g4xx_ll_tim.h ****   uint8_t iChannel = TIM_GET_CHANNEL_INDEX(Channel);
2872:Drivers/STM32G4xx_HAL_Driver/Inc/stm32g4xx_ll_tim.h ****   return (READ_BIT(TIMx->CCER, (TIM_CCER_CC1P << SHIFT_TAB_CCxP[iChannel])) >> SHIFT_TAB_CCxP[iChan
2873:Drivers/STM32G4xx_HAL_Driver/Inc/stm32g4xx_ll_tim.h **** }
2874:Drivers/STM32G4xx_HAL_Driver/Inc/stm32g4xx_ll_tim.h **** 
2875:Drivers/STM32G4xx_HAL_Driver/Inc/stm32g4xx_ll_tim.h **** /**
2876:Drivers/STM32G4xx_HAL_Driver/Inc/stm32g4xx_ll_tim.h ****   * @brief  Set the IDLE state of an output channel
2877:Drivers/STM32G4xx_HAL_Driver/Inc/stm32g4xx_ll_tim.h ****   * @note This function is significant only for the timer instances
2878:Drivers/STM32G4xx_HAL_Driver/Inc/stm32g4xx_ll_tim.h ****   *       supporting the break feature. Macro IS_TIM_BREAK_INSTANCE(TIMx)
2879:Drivers/STM32G4xx_HAL_Driver/Inc/stm32g4xx_ll_tim.h ****   *       can be used to check whether or not a timer instance provides
2880:Drivers/STM32G4xx_HAL_Driver/Inc/stm32g4xx_ll_tim.h ****   *       a break input.
2881:Drivers/STM32G4xx_HAL_Driver/Inc/stm32g4xx_ll_tim.h ****   * @rmtoll CR2         OIS1          LL_TIM_OC_SetIdleState\n
2882:Drivers/STM32G4xx_HAL_Driver/Inc/stm32g4xx_ll_tim.h ****   *         CR2         OIS2N         LL_TIM_OC_SetIdleState\n
2883:Drivers/STM32G4xx_HAL_Driver/Inc/stm32g4xx_ll_tim.h ****   *         CR2         OIS2          LL_TIM_OC_SetIdleState\n
2884:Drivers/STM32G4xx_HAL_Driver/Inc/stm32g4xx_ll_tim.h ****   *         CR2         OIS2N         LL_TIM_OC_SetIdleState\n
2885:Drivers/STM32G4xx_HAL_Driver/Inc/stm32g4xx_ll_tim.h ****   *         CR2         OIS3          LL_TIM_OC_SetIdleState\n
2886:Drivers/STM32G4xx_HAL_Driver/Inc/stm32g4xx_ll_tim.h ****   *         CR2         OIS3N         LL_TIM_OC_SetIdleState\n
ARM GAS  /tmp/ccF6ITrB.s 			page 99


2887:Drivers/STM32G4xx_HAL_Driver/Inc/stm32g4xx_ll_tim.h ****   *         CR2         OIS4          LL_TIM_OC_SetIdleState\n
2888:Drivers/STM32G4xx_HAL_Driver/Inc/stm32g4xx_ll_tim.h ****   *         CR2         OIS4N         LL_TIM_OC_SetIdleState\n
2889:Drivers/STM32G4xx_HAL_Driver/Inc/stm32g4xx_ll_tim.h ****   *         CR2         OIS5          LL_TIM_OC_SetIdleState\n
2890:Drivers/STM32G4xx_HAL_Driver/Inc/stm32g4xx_ll_tim.h ****   *         CR2         OIS6          LL_TIM_OC_SetIdleState
2891:Drivers/STM32G4xx_HAL_Driver/Inc/stm32g4xx_ll_tim.h ****   * @param  TIMx Timer instance
2892:Drivers/STM32G4xx_HAL_Driver/Inc/stm32g4xx_ll_tim.h ****   * @param  Channel This parameter can be one of the following values:
2893:Drivers/STM32G4xx_HAL_Driver/Inc/stm32g4xx_ll_tim.h ****   *         @arg @ref LL_TIM_CHANNEL_CH1
2894:Drivers/STM32G4xx_HAL_Driver/Inc/stm32g4xx_ll_tim.h ****   *         @arg @ref LL_TIM_CHANNEL_CH1N
2895:Drivers/STM32G4xx_HAL_Driver/Inc/stm32g4xx_ll_tim.h ****   *         @arg @ref LL_TIM_CHANNEL_CH2
2896:Drivers/STM32G4xx_HAL_Driver/Inc/stm32g4xx_ll_tim.h ****   *         @arg @ref LL_TIM_CHANNEL_CH2N
2897:Drivers/STM32G4xx_HAL_Driver/Inc/stm32g4xx_ll_tim.h ****   *         @arg @ref LL_TIM_CHANNEL_CH3
2898:Drivers/STM32G4xx_HAL_Driver/Inc/stm32g4xx_ll_tim.h ****   *         @arg @ref LL_TIM_CHANNEL_CH3N
2899:Drivers/STM32G4xx_HAL_Driver/Inc/stm32g4xx_ll_tim.h ****   *         @arg @ref LL_TIM_CHANNEL_CH4
2900:Drivers/STM32G4xx_HAL_Driver/Inc/stm32g4xx_ll_tim.h ****   *         @arg @ref LL_TIM_CHANNEL_CH4N
2901:Drivers/STM32G4xx_HAL_Driver/Inc/stm32g4xx_ll_tim.h ****   *         @arg @ref LL_TIM_CHANNEL_CH5
2902:Drivers/STM32G4xx_HAL_Driver/Inc/stm32g4xx_ll_tim.h ****   *         @arg @ref LL_TIM_CHANNEL_CH6
2903:Drivers/STM32G4xx_HAL_Driver/Inc/stm32g4xx_ll_tim.h ****   * @param  IdleState This parameter can be one of the following values:
2904:Drivers/STM32G4xx_HAL_Driver/Inc/stm32g4xx_ll_tim.h ****   *         @arg @ref LL_TIM_OCIDLESTATE_LOW
2905:Drivers/STM32G4xx_HAL_Driver/Inc/stm32g4xx_ll_tim.h ****   *         @arg @ref LL_TIM_OCIDLESTATE_HIGH
2906:Drivers/STM32G4xx_HAL_Driver/Inc/stm32g4xx_ll_tim.h ****   * @retval None
2907:Drivers/STM32G4xx_HAL_Driver/Inc/stm32g4xx_ll_tim.h ****   */
2908:Drivers/STM32G4xx_HAL_Driver/Inc/stm32g4xx_ll_tim.h **** __STATIC_INLINE void LL_TIM_OC_SetIdleState(TIM_TypeDef *TIMx, uint32_t Channel, uint32_t IdleState
2909:Drivers/STM32G4xx_HAL_Driver/Inc/stm32g4xx_ll_tim.h **** {
2910:Drivers/STM32G4xx_HAL_Driver/Inc/stm32g4xx_ll_tim.h ****   uint8_t iChannel = TIM_GET_CHANNEL_INDEX(Channel);
2911:Drivers/STM32G4xx_HAL_Driver/Inc/stm32g4xx_ll_tim.h ****   MODIFY_REG(TIMx->CR2, (TIM_CR2_OIS1 << SHIFT_TAB_OISx[iChannel]),  IdleState << SHIFT_TAB_OISx[iC
2912:Drivers/STM32G4xx_HAL_Driver/Inc/stm32g4xx_ll_tim.h **** }
2913:Drivers/STM32G4xx_HAL_Driver/Inc/stm32g4xx_ll_tim.h **** 
2914:Drivers/STM32G4xx_HAL_Driver/Inc/stm32g4xx_ll_tim.h **** /**
2915:Drivers/STM32G4xx_HAL_Driver/Inc/stm32g4xx_ll_tim.h ****   * @brief  Get the IDLE state of an output channel
2916:Drivers/STM32G4xx_HAL_Driver/Inc/stm32g4xx_ll_tim.h ****   * @rmtoll CR2         OIS1          LL_TIM_OC_GetIdleState\n
2917:Drivers/STM32G4xx_HAL_Driver/Inc/stm32g4xx_ll_tim.h ****   *         CR2         OIS2N         LL_TIM_OC_GetIdleState\n
2918:Drivers/STM32G4xx_HAL_Driver/Inc/stm32g4xx_ll_tim.h ****   *         CR2         OIS2          LL_TIM_OC_GetIdleState\n
2919:Drivers/STM32G4xx_HAL_Driver/Inc/stm32g4xx_ll_tim.h ****   *         CR2         OIS2N         LL_TIM_OC_GetIdleState\n
2920:Drivers/STM32G4xx_HAL_Driver/Inc/stm32g4xx_ll_tim.h ****   *         CR2         OIS3          LL_TIM_OC_GetIdleState\n
2921:Drivers/STM32G4xx_HAL_Driver/Inc/stm32g4xx_ll_tim.h ****   *         CR2         OIS3N         LL_TIM_OC_GetIdleState\n
2922:Drivers/STM32G4xx_HAL_Driver/Inc/stm32g4xx_ll_tim.h ****   *         CR2         OIS4          LL_TIM_OC_GetIdleState\n
2923:Drivers/STM32G4xx_HAL_Driver/Inc/stm32g4xx_ll_tim.h ****   *         CR2         OIS4N         LL_TIM_OC_GetIdleState\n
2924:Drivers/STM32G4xx_HAL_Driver/Inc/stm32g4xx_ll_tim.h ****   *         CR2         OIS5          LL_TIM_OC_GetIdleState\n
2925:Drivers/STM32G4xx_HAL_Driver/Inc/stm32g4xx_ll_tim.h ****   *         CR2         OIS6          LL_TIM_OC_GetIdleState
2926:Drivers/STM32G4xx_HAL_Driver/Inc/stm32g4xx_ll_tim.h ****   * @param  TIMx Timer instance
2927:Drivers/STM32G4xx_HAL_Driver/Inc/stm32g4xx_ll_tim.h ****   * @param  Channel This parameter can be one of the following values:
2928:Drivers/STM32G4xx_HAL_Driver/Inc/stm32g4xx_ll_tim.h ****   *         @arg @ref LL_TIM_CHANNEL_CH1
2929:Drivers/STM32G4xx_HAL_Driver/Inc/stm32g4xx_ll_tim.h ****   *         @arg @ref LL_TIM_CHANNEL_CH1N
2930:Drivers/STM32G4xx_HAL_Driver/Inc/stm32g4xx_ll_tim.h ****   *         @arg @ref LL_TIM_CHANNEL_CH2
2931:Drivers/STM32G4xx_HAL_Driver/Inc/stm32g4xx_ll_tim.h ****   *         @arg @ref LL_TIM_CHANNEL_CH2N
2932:Drivers/STM32G4xx_HAL_Driver/Inc/stm32g4xx_ll_tim.h ****   *         @arg @ref LL_TIM_CHANNEL_CH3
2933:Drivers/STM32G4xx_HAL_Driver/Inc/stm32g4xx_ll_tim.h ****   *         @arg @ref LL_TIM_CHANNEL_CH3N
2934:Drivers/STM32G4xx_HAL_Driver/Inc/stm32g4xx_ll_tim.h ****   *         @arg @ref LL_TIM_CHANNEL_CH4
2935:Drivers/STM32G4xx_HAL_Driver/Inc/stm32g4xx_ll_tim.h ****   *         @arg @ref LL_TIM_CHANNEL_CH4N
2936:Drivers/STM32G4xx_HAL_Driver/Inc/stm32g4xx_ll_tim.h ****   *         @arg @ref LL_TIM_CHANNEL_CH5
2937:Drivers/STM32G4xx_HAL_Driver/Inc/stm32g4xx_ll_tim.h ****   *         @arg @ref LL_TIM_CHANNEL_CH6
2938:Drivers/STM32G4xx_HAL_Driver/Inc/stm32g4xx_ll_tim.h ****   * @retval Returned value can be one of the following values:
2939:Drivers/STM32G4xx_HAL_Driver/Inc/stm32g4xx_ll_tim.h ****   *         @arg @ref LL_TIM_OCIDLESTATE_LOW
2940:Drivers/STM32G4xx_HAL_Driver/Inc/stm32g4xx_ll_tim.h ****   *         @arg @ref LL_TIM_OCIDLESTATE_HIGH
2941:Drivers/STM32G4xx_HAL_Driver/Inc/stm32g4xx_ll_tim.h ****   */
2942:Drivers/STM32G4xx_HAL_Driver/Inc/stm32g4xx_ll_tim.h **** __STATIC_INLINE uint32_t LL_TIM_OC_GetIdleState(const TIM_TypeDef *TIMx, uint32_t Channel)
2943:Drivers/STM32G4xx_HAL_Driver/Inc/stm32g4xx_ll_tim.h **** {
ARM GAS  /tmp/ccF6ITrB.s 			page 100


2944:Drivers/STM32G4xx_HAL_Driver/Inc/stm32g4xx_ll_tim.h ****   uint8_t iChannel = TIM_GET_CHANNEL_INDEX(Channel);
2945:Drivers/STM32G4xx_HAL_Driver/Inc/stm32g4xx_ll_tim.h ****   return (READ_BIT(TIMx->CR2, (TIM_CR2_OIS1 << SHIFT_TAB_OISx[iChannel])) >> SHIFT_TAB_OISx[iChanne
2946:Drivers/STM32G4xx_HAL_Driver/Inc/stm32g4xx_ll_tim.h **** }
2947:Drivers/STM32G4xx_HAL_Driver/Inc/stm32g4xx_ll_tim.h **** 
2948:Drivers/STM32G4xx_HAL_Driver/Inc/stm32g4xx_ll_tim.h **** /**
2949:Drivers/STM32G4xx_HAL_Driver/Inc/stm32g4xx_ll_tim.h ****   * @brief  Enable fast mode for the output channel.
2950:Drivers/STM32G4xx_HAL_Driver/Inc/stm32g4xx_ll_tim.h ****   * @note Acts only if the channel is configured in PWM1 or PWM2 mode.
2951:Drivers/STM32G4xx_HAL_Driver/Inc/stm32g4xx_ll_tim.h ****   * @rmtoll CCMR1        OC1FE          LL_TIM_OC_EnableFast\n
2952:Drivers/STM32G4xx_HAL_Driver/Inc/stm32g4xx_ll_tim.h ****   *         CCMR1        OC2FE          LL_TIM_OC_EnableFast\n
2953:Drivers/STM32G4xx_HAL_Driver/Inc/stm32g4xx_ll_tim.h ****   *         CCMR2        OC3FE          LL_TIM_OC_EnableFast\n
2954:Drivers/STM32G4xx_HAL_Driver/Inc/stm32g4xx_ll_tim.h ****   *         CCMR2        OC4FE          LL_TIM_OC_EnableFast\n
2955:Drivers/STM32G4xx_HAL_Driver/Inc/stm32g4xx_ll_tim.h ****   *         CCMR3        OC5FE          LL_TIM_OC_EnableFast\n
2956:Drivers/STM32G4xx_HAL_Driver/Inc/stm32g4xx_ll_tim.h ****   *         CCMR3        OC6FE          LL_TIM_OC_EnableFast
2957:Drivers/STM32G4xx_HAL_Driver/Inc/stm32g4xx_ll_tim.h ****   * @param  TIMx Timer instance
2958:Drivers/STM32G4xx_HAL_Driver/Inc/stm32g4xx_ll_tim.h ****   * @param  Channel This parameter can be one of the following values:
2959:Drivers/STM32G4xx_HAL_Driver/Inc/stm32g4xx_ll_tim.h ****   *         @arg @ref LL_TIM_CHANNEL_CH1
2960:Drivers/STM32G4xx_HAL_Driver/Inc/stm32g4xx_ll_tim.h ****   *         @arg @ref LL_TIM_CHANNEL_CH2
2961:Drivers/STM32G4xx_HAL_Driver/Inc/stm32g4xx_ll_tim.h ****   *         @arg @ref LL_TIM_CHANNEL_CH3
2962:Drivers/STM32G4xx_HAL_Driver/Inc/stm32g4xx_ll_tim.h ****   *         @arg @ref LL_TIM_CHANNEL_CH4
2963:Drivers/STM32G4xx_HAL_Driver/Inc/stm32g4xx_ll_tim.h ****   *         @arg @ref LL_TIM_CHANNEL_CH5
2964:Drivers/STM32G4xx_HAL_Driver/Inc/stm32g4xx_ll_tim.h ****   *         @arg @ref LL_TIM_CHANNEL_CH6
2965:Drivers/STM32G4xx_HAL_Driver/Inc/stm32g4xx_ll_tim.h ****   * @retval None
2966:Drivers/STM32G4xx_HAL_Driver/Inc/stm32g4xx_ll_tim.h ****   */
2967:Drivers/STM32G4xx_HAL_Driver/Inc/stm32g4xx_ll_tim.h **** __STATIC_INLINE void LL_TIM_OC_EnableFast(TIM_TypeDef *TIMx, uint32_t Channel)
2968:Drivers/STM32G4xx_HAL_Driver/Inc/stm32g4xx_ll_tim.h **** {
2969:Drivers/STM32G4xx_HAL_Driver/Inc/stm32g4xx_ll_tim.h ****   uint8_t iChannel = TIM_GET_CHANNEL_INDEX(Channel);
2970:Drivers/STM32G4xx_HAL_Driver/Inc/stm32g4xx_ll_tim.h ****   __IO uint32_t *pReg = (__IO uint32_t *)((uint32_t)((uint32_t)(&TIMx->CCMR1) + OFFSET_TAB_CCMRx[iC
2971:Drivers/STM32G4xx_HAL_Driver/Inc/stm32g4xx_ll_tim.h ****   SET_BIT(*pReg, (TIM_CCMR1_OC1FE << SHIFT_TAB_OCxx[iChannel]));
2972:Drivers/STM32G4xx_HAL_Driver/Inc/stm32g4xx_ll_tim.h **** 
2973:Drivers/STM32G4xx_HAL_Driver/Inc/stm32g4xx_ll_tim.h **** }
2974:Drivers/STM32G4xx_HAL_Driver/Inc/stm32g4xx_ll_tim.h **** 
2975:Drivers/STM32G4xx_HAL_Driver/Inc/stm32g4xx_ll_tim.h **** /**
2976:Drivers/STM32G4xx_HAL_Driver/Inc/stm32g4xx_ll_tim.h ****   * @brief  Disable fast mode for the output channel.
2977:Drivers/STM32G4xx_HAL_Driver/Inc/stm32g4xx_ll_tim.h ****   * @rmtoll CCMR1        OC1FE          LL_TIM_OC_DisableFast\n
2978:Drivers/STM32G4xx_HAL_Driver/Inc/stm32g4xx_ll_tim.h ****   *         CCMR1        OC2FE          LL_TIM_OC_DisableFast\n
2979:Drivers/STM32G4xx_HAL_Driver/Inc/stm32g4xx_ll_tim.h ****   *         CCMR2        OC3FE          LL_TIM_OC_DisableFast\n
2980:Drivers/STM32G4xx_HAL_Driver/Inc/stm32g4xx_ll_tim.h ****   *         CCMR2        OC4FE          LL_TIM_OC_DisableFast\n
2981:Drivers/STM32G4xx_HAL_Driver/Inc/stm32g4xx_ll_tim.h ****   *         CCMR3        OC5FE          LL_TIM_OC_DisableFast\n
2982:Drivers/STM32G4xx_HAL_Driver/Inc/stm32g4xx_ll_tim.h ****   *         CCMR3        OC6FE          LL_TIM_OC_DisableFast
2983:Drivers/STM32G4xx_HAL_Driver/Inc/stm32g4xx_ll_tim.h ****   * @param  TIMx Timer instance
2984:Drivers/STM32G4xx_HAL_Driver/Inc/stm32g4xx_ll_tim.h ****   * @param  Channel This parameter can be one of the following values:
2985:Drivers/STM32G4xx_HAL_Driver/Inc/stm32g4xx_ll_tim.h ****   *         @arg @ref LL_TIM_CHANNEL_CH1
2986:Drivers/STM32G4xx_HAL_Driver/Inc/stm32g4xx_ll_tim.h ****   *         @arg @ref LL_TIM_CHANNEL_CH2
2987:Drivers/STM32G4xx_HAL_Driver/Inc/stm32g4xx_ll_tim.h ****   *         @arg @ref LL_TIM_CHANNEL_CH3
2988:Drivers/STM32G4xx_HAL_Driver/Inc/stm32g4xx_ll_tim.h ****   *         @arg @ref LL_TIM_CHANNEL_CH4
2989:Drivers/STM32G4xx_HAL_Driver/Inc/stm32g4xx_ll_tim.h ****   *         @arg @ref LL_TIM_CHANNEL_CH5
2990:Drivers/STM32G4xx_HAL_Driver/Inc/stm32g4xx_ll_tim.h ****   *         @arg @ref LL_TIM_CHANNEL_CH6
2991:Drivers/STM32G4xx_HAL_Driver/Inc/stm32g4xx_ll_tim.h ****   * @retval None
2992:Drivers/STM32G4xx_HAL_Driver/Inc/stm32g4xx_ll_tim.h ****   */
2993:Drivers/STM32G4xx_HAL_Driver/Inc/stm32g4xx_ll_tim.h **** __STATIC_INLINE void LL_TIM_OC_DisableFast(TIM_TypeDef *TIMx, uint32_t Channel)
2994:Drivers/STM32G4xx_HAL_Driver/Inc/stm32g4xx_ll_tim.h **** {
2995:Drivers/STM32G4xx_HAL_Driver/Inc/stm32g4xx_ll_tim.h ****   uint8_t iChannel = TIM_GET_CHANNEL_INDEX(Channel);
2996:Drivers/STM32G4xx_HAL_Driver/Inc/stm32g4xx_ll_tim.h ****   __IO uint32_t *pReg = (__IO uint32_t *)((uint32_t)((uint32_t)(&TIMx->CCMR1) + OFFSET_TAB_CCMRx[iC
2997:Drivers/STM32G4xx_HAL_Driver/Inc/stm32g4xx_ll_tim.h ****   CLEAR_BIT(*pReg, (TIM_CCMR1_OC1FE << SHIFT_TAB_OCxx[iChannel]));
2998:Drivers/STM32G4xx_HAL_Driver/Inc/stm32g4xx_ll_tim.h **** 
2999:Drivers/STM32G4xx_HAL_Driver/Inc/stm32g4xx_ll_tim.h **** }
3000:Drivers/STM32G4xx_HAL_Driver/Inc/stm32g4xx_ll_tim.h **** 
ARM GAS  /tmp/ccF6ITrB.s 			page 101


3001:Drivers/STM32G4xx_HAL_Driver/Inc/stm32g4xx_ll_tim.h **** /**
3002:Drivers/STM32G4xx_HAL_Driver/Inc/stm32g4xx_ll_tim.h ****   * @brief  Indicates whether fast mode is enabled for the output channel.
3003:Drivers/STM32G4xx_HAL_Driver/Inc/stm32g4xx_ll_tim.h ****   * @rmtoll CCMR1        OC1FE          LL_TIM_OC_IsEnabledFast\n
3004:Drivers/STM32G4xx_HAL_Driver/Inc/stm32g4xx_ll_tim.h ****   *         CCMR1        OC2FE          LL_TIM_OC_IsEnabledFast\n
3005:Drivers/STM32G4xx_HAL_Driver/Inc/stm32g4xx_ll_tim.h ****   *         CCMR2        OC3FE          LL_TIM_OC_IsEnabledFast\n
3006:Drivers/STM32G4xx_HAL_Driver/Inc/stm32g4xx_ll_tim.h ****   *         CCMR2        OC4FE          LL_TIM_OC_IsEnabledFast\n
3007:Drivers/STM32G4xx_HAL_Driver/Inc/stm32g4xx_ll_tim.h ****   *         CCMR3        OC5FE          LL_TIM_OC_IsEnabledFast\n
3008:Drivers/STM32G4xx_HAL_Driver/Inc/stm32g4xx_ll_tim.h ****   *         CCMR3        OC6FE          LL_TIM_OC_IsEnabledFast
3009:Drivers/STM32G4xx_HAL_Driver/Inc/stm32g4xx_ll_tim.h ****   * @param  TIMx Timer instance
3010:Drivers/STM32G4xx_HAL_Driver/Inc/stm32g4xx_ll_tim.h ****   * @param  Channel This parameter can be one of the following values:
3011:Drivers/STM32G4xx_HAL_Driver/Inc/stm32g4xx_ll_tim.h ****   *         @arg @ref LL_TIM_CHANNEL_CH1
3012:Drivers/STM32G4xx_HAL_Driver/Inc/stm32g4xx_ll_tim.h ****   *         @arg @ref LL_TIM_CHANNEL_CH2
3013:Drivers/STM32G4xx_HAL_Driver/Inc/stm32g4xx_ll_tim.h ****   *         @arg @ref LL_TIM_CHANNEL_CH3
3014:Drivers/STM32G4xx_HAL_Driver/Inc/stm32g4xx_ll_tim.h ****   *         @arg @ref LL_TIM_CHANNEL_CH4
3015:Drivers/STM32G4xx_HAL_Driver/Inc/stm32g4xx_ll_tim.h ****   *         @arg @ref LL_TIM_CHANNEL_CH5
3016:Drivers/STM32G4xx_HAL_Driver/Inc/stm32g4xx_ll_tim.h ****   *         @arg @ref LL_TIM_CHANNEL_CH6
3017:Drivers/STM32G4xx_HAL_Driver/Inc/stm32g4xx_ll_tim.h ****   * @retval State of bit (1 or 0).
3018:Drivers/STM32G4xx_HAL_Driver/Inc/stm32g4xx_ll_tim.h ****   */
3019:Drivers/STM32G4xx_HAL_Driver/Inc/stm32g4xx_ll_tim.h **** __STATIC_INLINE uint32_t LL_TIM_OC_IsEnabledFast(const TIM_TypeDef *TIMx, uint32_t Channel)
3020:Drivers/STM32G4xx_HAL_Driver/Inc/stm32g4xx_ll_tim.h **** {
3021:Drivers/STM32G4xx_HAL_Driver/Inc/stm32g4xx_ll_tim.h ****   uint8_t iChannel = TIM_GET_CHANNEL_INDEX(Channel);
3022:Drivers/STM32G4xx_HAL_Driver/Inc/stm32g4xx_ll_tim.h ****   const __IO uint32_t *pReg = (__IO uint32_t *)((uint32_t)((uint32_t)(&TIMx->CCMR1) + OFFSET_TAB_CC
3023:Drivers/STM32G4xx_HAL_Driver/Inc/stm32g4xx_ll_tim.h ****   uint32_t bitfield = TIM_CCMR1_OC1FE << SHIFT_TAB_OCxx[iChannel];
3024:Drivers/STM32G4xx_HAL_Driver/Inc/stm32g4xx_ll_tim.h ****   return ((READ_BIT(*pReg, bitfield) == bitfield) ? 1UL : 0UL);
3025:Drivers/STM32G4xx_HAL_Driver/Inc/stm32g4xx_ll_tim.h **** }
3026:Drivers/STM32G4xx_HAL_Driver/Inc/stm32g4xx_ll_tim.h **** 
3027:Drivers/STM32G4xx_HAL_Driver/Inc/stm32g4xx_ll_tim.h **** /**
3028:Drivers/STM32G4xx_HAL_Driver/Inc/stm32g4xx_ll_tim.h ****   * @brief  Enable compare register (TIMx_CCRx) preload for the output channel.
3029:Drivers/STM32G4xx_HAL_Driver/Inc/stm32g4xx_ll_tim.h ****   * @rmtoll CCMR1        OC1PE          LL_TIM_OC_EnablePreload\n
3030:Drivers/STM32G4xx_HAL_Driver/Inc/stm32g4xx_ll_tim.h ****   *         CCMR1        OC2PE          LL_TIM_OC_EnablePreload\n
3031:Drivers/STM32G4xx_HAL_Driver/Inc/stm32g4xx_ll_tim.h ****   *         CCMR2        OC3PE          LL_TIM_OC_EnablePreload\n
3032:Drivers/STM32G4xx_HAL_Driver/Inc/stm32g4xx_ll_tim.h ****   *         CCMR2        OC4PE          LL_TIM_OC_EnablePreload\n
3033:Drivers/STM32G4xx_HAL_Driver/Inc/stm32g4xx_ll_tim.h ****   *         CCMR3        OC5PE          LL_TIM_OC_EnablePreload\n
3034:Drivers/STM32G4xx_HAL_Driver/Inc/stm32g4xx_ll_tim.h ****   *         CCMR3        OC6PE          LL_TIM_OC_EnablePreload
3035:Drivers/STM32G4xx_HAL_Driver/Inc/stm32g4xx_ll_tim.h ****   * @param  TIMx Timer instance
3036:Drivers/STM32G4xx_HAL_Driver/Inc/stm32g4xx_ll_tim.h ****   * @param  Channel This parameter can be one of the following values:
3037:Drivers/STM32G4xx_HAL_Driver/Inc/stm32g4xx_ll_tim.h ****   *         @arg @ref LL_TIM_CHANNEL_CH1
3038:Drivers/STM32G4xx_HAL_Driver/Inc/stm32g4xx_ll_tim.h ****   *         @arg @ref LL_TIM_CHANNEL_CH2
3039:Drivers/STM32G4xx_HAL_Driver/Inc/stm32g4xx_ll_tim.h ****   *         @arg @ref LL_TIM_CHANNEL_CH3
3040:Drivers/STM32G4xx_HAL_Driver/Inc/stm32g4xx_ll_tim.h ****   *         @arg @ref LL_TIM_CHANNEL_CH4
3041:Drivers/STM32G4xx_HAL_Driver/Inc/stm32g4xx_ll_tim.h ****   *         @arg @ref LL_TIM_CHANNEL_CH5
3042:Drivers/STM32G4xx_HAL_Driver/Inc/stm32g4xx_ll_tim.h ****   *         @arg @ref LL_TIM_CHANNEL_CH6
3043:Drivers/STM32G4xx_HAL_Driver/Inc/stm32g4xx_ll_tim.h ****   * @retval None
3044:Drivers/STM32G4xx_HAL_Driver/Inc/stm32g4xx_ll_tim.h ****   */
3045:Drivers/STM32G4xx_HAL_Driver/Inc/stm32g4xx_ll_tim.h **** __STATIC_INLINE void LL_TIM_OC_EnablePreload(TIM_TypeDef *TIMx, uint32_t Channel)
3046:Drivers/STM32G4xx_HAL_Driver/Inc/stm32g4xx_ll_tim.h **** {
3047:Drivers/STM32G4xx_HAL_Driver/Inc/stm32g4xx_ll_tim.h ****   uint8_t iChannel = TIM_GET_CHANNEL_INDEX(Channel);
3048:Drivers/STM32G4xx_HAL_Driver/Inc/stm32g4xx_ll_tim.h ****   __IO uint32_t *pReg = (__IO uint32_t *)((uint32_t)((uint32_t)(&TIMx->CCMR1) + OFFSET_TAB_CCMRx[iC
3049:Drivers/STM32G4xx_HAL_Driver/Inc/stm32g4xx_ll_tim.h ****   SET_BIT(*pReg, (TIM_CCMR1_OC1PE << SHIFT_TAB_OCxx[iChannel]));
3050:Drivers/STM32G4xx_HAL_Driver/Inc/stm32g4xx_ll_tim.h **** }
3051:Drivers/STM32G4xx_HAL_Driver/Inc/stm32g4xx_ll_tim.h **** 
3052:Drivers/STM32G4xx_HAL_Driver/Inc/stm32g4xx_ll_tim.h **** /**
3053:Drivers/STM32G4xx_HAL_Driver/Inc/stm32g4xx_ll_tim.h ****   * @brief  Disable compare register (TIMx_CCRx) preload for the output channel.
3054:Drivers/STM32G4xx_HAL_Driver/Inc/stm32g4xx_ll_tim.h ****   * @rmtoll CCMR1        OC1PE          LL_TIM_OC_DisablePreload\n
3055:Drivers/STM32G4xx_HAL_Driver/Inc/stm32g4xx_ll_tim.h ****   *         CCMR1        OC2PE          LL_TIM_OC_DisablePreload\n
3056:Drivers/STM32G4xx_HAL_Driver/Inc/stm32g4xx_ll_tim.h ****   *         CCMR2        OC3PE          LL_TIM_OC_DisablePreload\n
3057:Drivers/STM32G4xx_HAL_Driver/Inc/stm32g4xx_ll_tim.h ****   *         CCMR2        OC4PE          LL_TIM_OC_DisablePreload\n
ARM GAS  /tmp/ccF6ITrB.s 			page 102


3058:Drivers/STM32G4xx_HAL_Driver/Inc/stm32g4xx_ll_tim.h ****   *         CCMR3        OC5PE          LL_TIM_OC_DisablePreload\n
3059:Drivers/STM32G4xx_HAL_Driver/Inc/stm32g4xx_ll_tim.h ****   *         CCMR3        OC6PE          LL_TIM_OC_DisablePreload
3060:Drivers/STM32G4xx_HAL_Driver/Inc/stm32g4xx_ll_tim.h ****   * @param  TIMx Timer instance
3061:Drivers/STM32G4xx_HAL_Driver/Inc/stm32g4xx_ll_tim.h ****   * @param  Channel This parameter can be one of the following values:
3062:Drivers/STM32G4xx_HAL_Driver/Inc/stm32g4xx_ll_tim.h ****   *         @arg @ref LL_TIM_CHANNEL_CH1
3063:Drivers/STM32G4xx_HAL_Driver/Inc/stm32g4xx_ll_tim.h ****   *         @arg @ref LL_TIM_CHANNEL_CH2
3064:Drivers/STM32G4xx_HAL_Driver/Inc/stm32g4xx_ll_tim.h ****   *         @arg @ref LL_TIM_CHANNEL_CH3
3065:Drivers/STM32G4xx_HAL_Driver/Inc/stm32g4xx_ll_tim.h ****   *         @arg @ref LL_TIM_CHANNEL_CH4
3066:Drivers/STM32G4xx_HAL_Driver/Inc/stm32g4xx_ll_tim.h ****   *         @arg @ref LL_TIM_CHANNEL_CH5
3067:Drivers/STM32G4xx_HAL_Driver/Inc/stm32g4xx_ll_tim.h ****   *         @arg @ref LL_TIM_CHANNEL_CH6
3068:Drivers/STM32G4xx_HAL_Driver/Inc/stm32g4xx_ll_tim.h ****   * @retval None
3069:Drivers/STM32G4xx_HAL_Driver/Inc/stm32g4xx_ll_tim.h ****   */
3070:Drivers/STM32G4xx_HAL_Driver/Inc/stm32g4xx_ll_tim.h **** __STATIC_INLINE void LL_TIM_OC_DisablePreload(TIM_TypeDef *TIMx, uint32_t Channel)
3071:Drivers/STM32G4xx_HAL_Driver/Inc/stm32g4xx_ll_tim.h **** {
3072:Drivers/STM32G4xx_HAL_Driver/Inc/stm32g4xx_ll_tim.h ****   uint8_t iChannel = TIM_GET_CHANNEL_INDEX(Channel);
3073:Drivers/STM32G4xx_HAL_Driver/Inc/stm32g4xx_ll_tim.h ****   __IO uint32_t *pReg = (__IO uint32_t *)((uint32_t)((uint32_t)(&TIMx->CCMR1) + OFFSET_TAB_CCMRx[iC
3074:Drivers/STM32G4xx_HAL_Driver/Inc/stm32g4xx_ll_tim.h ****   CLEAR_BIT(*pReg, (TIM_CCMR1_OC1PE << SHIFT_TAB_OCxx[iChannel]));
3075:Drivers/STM32G4xx_HAL_Driver/Inc/stm32g4xx_ll_tim.h **** }
3076:Drivers/STM32G4xx_HAL_Driver/Inc/stm32g4xx_ll_tim.h **** 
3077:Drivers/STM32G4xx_HAL_Driver/Inc/stm32g4xx_ll_tim.h **** /**
3078:Drivers/STM32G4xx_HAL_Driver/Inc/stm32g4xx_ll_tim.h ****   * @brief  Indicates whether compare register (TIMx_CCRx) preload is enabled for the output channe
3079:Drivers/STM32G4xx_HAL_Driver/Inc/stm32g4xx_ll_tim.h ****   * @rmtoll CCMR1        OC1PE          LL_TIM_OC_IsEnabledPreload\n
3080:Drivers/STM32G4xx_HAL_Driver/Inc/stm32g4xx_ll_tim.h ****   *         CCMR1        OC2PE          LL_TIM_OC_IsEnabledPreload\n
3081:Drivers/STM32G4xx_HAL_Driver/Inc/stm32g4xx_ll_tim.h ****   *         CCMR2        OC3PE          LL_TIM_OC_IsEnabledPreload\n
3082:Drivers/STM32G4xx_HAL_Driver/Inc/stm32g4xx_ll_tim.h ****   *         CCMR2        OC4PE          LL_TIM_OC_IsEnabledPreload\n
3083:Drivers/STM32G4xx_HAL_Driver/Inc/stm32g4xx_ll_tim.h ****   *         CCMR3        OC5PE          LL_TIM_OC_IsEnabledPreload\n
3084:Drivers/STM32G4xx_HAL_Driver/Inc/stm32g4xx_ll_tim.h ****   *         CCMR3        OC6PE          LL_TIM_OC_IsEnabledPreload
3085:Drivers/STM32G4xx_HAL_Driver/Inc/stm32g4xx_ll_tim.h ****   * @param  TIMx Timer instance
3086:Drivers/STM32G4xx_HAL_Driver/Inc/stm32g4xx_ll_tim.h ****   * @param  Channel This parameter can be one of the following values:
3087:Drivers/STM32G4xx_HAL_Driver/Inc/stm32g4xx_ll_tim.h ****   *         @arg @ref LL_TIM_CHANNEL_CH1
3088:Drivers/STM32G4xx_HAL_Driver/Inc/stm32g4xx_ll_tim.h ****   *         @arg @ref LL_TIM_CHANNEL_CH2
3089:Drivers/STM32G4xx_HAL_Driver/Inc/stm32g4xx_ll_tim.h ****   *         @arg @ref LL_TIM_CHANNEL_CH3
3090:Drivers/STM32G4xx_HAL_Driver/Inc/stm32g4xx_ll_tim.h ****   *         @arg @ref LL_TIM_CHANNEL_CH4
3091:Drivers/STM32G4xx_HAL_Driver/Inc/stm32g4xx_ll_tim.h ****   *         @arg @ref LL_TIM_CHANNEL_CH5
3092:Drivers/STM32G4xx_HAL_Driver/Inc/stm32g4xx_ll_tim.h ****   *         @arg @ref LL_TIM_CHANNEL_CH6
3093:Drivers/STM32G4xx_HAL_Driver/Inc/stm32g4xx_ll_tim.h ****   * @retval State of bit (1 or 0).
3094:Drivers/STM32G4xx_HAL_Driver/Inc/stm32g4xx_ll_tim.h ****   */
3095:Drivers/STM32G4xx_HAL_Driver/Inc/stm32g4xx_ll_tim.h **** __STATIC_INLINE uint32_t LL_TIM_OC_IsEnabledPreload(const TIM_TypeDef *TIMx, uint32_t Channel)
3096:Drivers/STM32G4xx_HAL_Driver/Inc/stm32g4xx_ll_tim.h **** {
3097:Drivers/STM32G4xx_HAL_Driver/Inc/stm32g4xx_ll_tim.h ****   uint8_t iChannel = TIM_GET_CHANNEL_INDEX(Channel);
3098:Drivers/STM32G4xx_HAL_Driver/Inc/stm32g4xx_ll_tim.h ****   const __IO uint32_t *pReg = (__IO uint32_t *)((uint32_t)((uint32_t)(&TIMx->CCMR1) + OFFSET_TAB_CC
3099:Drivers/STM32G4xx_HAL_Driver/Inc/stm32g4xx_ll_tim.h ****   uint32_t bitfield = TIM_CCMR1_OC1PE << SHIFT_TAB_OCxx[iChannel];
3100:Drivers/STM32G4xx_HAL_Driver/Inc/stm32g4xx_ll_tim.h ****   return ((READ_BIT(*pReg, bitfield) == bitfield) ? 1UL : 0UL);
3101:Drivers/STM32G4xx_HAL_Driver/Inc/stm32g4xx_ll_tim.h **** }
3102:Drivers/STM32G4xx_HAL_Driver/Inc/stm32g4xx_ll_tim.h **** 
3103:Drivers/STM32G4xx_HAL_Driver/Inc/stm32g4xx_ll_tim.h **** /**
3104:Drivers/STM32G4xx_HAL_Driver/Inc/stm32g4xx_ll_tim.h ****   * @brief  Enable clearing the output channel on an external event.
3105:Drivers/STM32G4xx_HAL_Driver/Inc/stm32g4xx_ll_tim.h ****   * @note This function can only be used in Output compare and PWM modes. It does not work in Force
3106:Drivers/STM32G4xx_HAL_Driver/Inc/stm32g4xx_ll_tim.h ****   * @note Macro IS_TIM_OCXREF_CLEAR_INSTANCE(TIMx) can be used to check whether
3107:Drivers/STM32G4xx_HAL_Driver/Inc/stm32g4xx_ll_tim.h ****   *       or not a timer instance can clear the OCxREF signal on an external event.
3108:Drivers/STM32G4xx_HAL_Driver/Inc/stm32g4xx_ll_tim.h ****   * @rmtoll CCMR1        OC1CE          LL_TIM_OC_EnableClear\n
3109:Drivers/STM32G4xx_HAL_Driver/Inc/stm32g4xx_ll_tim.h ****   *         CCMR1        OC2CE          LL_TIM_OC_EnableClear\n
3110:Drivers/STM32G4xx_HAL_Driver/Inc/stm32g4xx_ll_tim.h ****   *         CCMR2        OC3CE          LL_TIM_OC_EnableClear\n
3111:Drivers/STM32G4xx_HAL_Driver/Inc/stm32g4xx_ll_tim.h ****   *         CCMR2        OC4CE          LL_TIM_OC_EnableClear\n
3112:Drivers/STM32G4xx_HAL_Driver/Inc/stm32g4xx_ll_tim.h ****   *         CCMR3        OC5CE          LL_TIM_OC_EnableClear\n
3113:Drivers/STM32G4xx_HAL_Driver/Inc/stm32g4xx_ll_tim.h ****   *         CCMR3        OC6CE          LL_TIM_OC_EnableClear
3114:Drivers/STM32G4xx_HAL_Driver/Inc/stm32g4xx_ll_tim.h ****   * @param  TIMx Timer instance
ARM GAS  /tmp/ccF6ITrB.s 			page 103


3115:Drivers/STM32G4xx_HAL_Driver/Inc/stm32g4xx_ll_tim.h ****   * @param  Channel This parameter can be one of the following values:
3116:Drivers/STM32G4xx_HAL_Driver/Inc/stm32g4xx_ll_tim.h ****   *         @arg @ref LL_TIM_CHANNEL_CH1
3117:Drivers/STM32G4xx_HAL_Driver/Inc/stm32g4xx_ll_tim.h ****   *         @arg @ref LL_TIM_CHANNEL_CH2
3118:Drivers/STM32G4xx_HAL_Driver/Inc/stm32g4xx_ll_tim.h ****   *         @arg @ref LL_TIM_CHANNEL_CH3
3119:Drivers/STM32G4xx_HAL_Driver/Inc/stm32g4xx_ll_tim.h ****   *         @arg @ref LL_TIM_CHANNEL_CH4
3120:Drivers/STM32G4xx_HAL_Driver/Inc/stm32g4xx_ll_tim.h ****   *         @arg @ref LL_TIM_CHANNEL_CH5
3121:Drivers/STM32G4xx_HAL_Driver/Inc/stm32g4xx_ll_tim.h ****   *         @arg @ref LL_TIM_CHANNEL_CH6
3122:Drivers/STM32G4xx_HAL_Driver/Inc/stm32g4xx_ll_tim.h ****   * @retval None
3123:Drivers/STM32G4xx_HAL_Driver/Inc/stm32g4xx_ll_tim.h ****   */
3124:Drivers/STM32G4xx_HAL_Driver/Inc/stm32g4xx_ll_tim.h **** __STATIC_INLINE void LL_TIM_OC_EnableClear(TIM_TypeDef *TIMx, uint32_t Channel)
3125:Drivers/STM32G4xx_HAL_Driver/Inc/stm32g4xx_ll_tim.h **** {
3126:Drivers/STM32G4xx_HAL_Driver/Inc/stm32g4xx_ll_tim.h ****   uint8_t iChannel = TIM_GET_CHANNEL_INDEX(Channel);
3127:Drivers/STM32G4xx_HAL_Driver/Inc/stm32g4xx_ll_tim.h ****   __IO uint32_t *pReg = (__IO uint32_t *)((uint32_t)((uint32_t)(&TIMx->CCMR1) + OFFSET_TAB_CCMRx[iC
3128:Drivers/STM32G4xx_HAL_Driver/Inc/stm32g4xx_ll_tim.h ****   SET_BIT(*pReg, (TIM_CCMR1_OC1CE << SHIFT_TAB_OCxx[iChannel]));
3129:Drivers/STM32G4xx_HAL_Driver/Inc/stm32g4xx_ll_tim.h **** }
3130:Drivers/STM32G4xx_HAL_Driver/Inc/stm32g4xx_ll_tim.h **** 
3131:Drivers/STM32G4xx_HAL_Driver/Inc/stm32g4xx_ll_tim.h **** /**
3132:Drivers/STM32G4xx_HAL_Driver/Inc/stm32g4xx_ll_tim.h ****   * @brief  Disable clearing the output channel on an external event.
3133:Drivers/STM32G4xx_HAL_Driver/Inc/stm32g4xx_ll_tim.h ****   * @note Macro IS_TIM_OCXREF_CLEAR_INSTANCE(TIMx) can be used to check whether
3134:Drivers/STM32G4xx_HAL_Driver/Inc/stm32g4xx_ll_tim.h ****   *       or not a timer instance can clear the OCxREF signal on an external event.
3135:Drivers/STM32G4xx_HAL_Driver/Inc/stm32g4xx_ll_tim.h ****   * @rmtoll CCMR1        OC1CE          LL_TIM_OC_DisableClear\n
3136:Drivers/STM32G4xx_HAL_Driver/Inc/stm32g4xx_ll_tim.h ****   *         CCMR1        OC2CE          LL_TIM_OC_DisableClear\n
3137:Drivers/STM32G4xx_HAL_Driver/Inc/stm32g4xx_ll_tim.h ****   *         CCMR2        OC3CE          LL_TIM_OC_DisableClear\n
3138:Drivers/STM32G4xx_HAL_Driver/Inc/stm32g4xx_ll_tim.h ****   *         CCMR2        OC4CE          LL_TIM_OC_DisableClear\n
3139:Drivers/STM32G4xx_HAL_Driver/Inc/stm32g4xx_ll_tim.h ****   *         CCMR3        OC5CE          LL_TIM_OC_DisableClear\n
3140:Drivers/STM32G4xx_HAL_Driver/Inc/stm32g4xx_ll_tim.h ****   *         CCMR3        OC6CE          LL_TIM_OC_DisableClear
3141:Drivers/STM32G4xx_HAL_Driver/Inc/stm32g4xx_ll_tim.h ****   * @param  TIMx Timer instance
3142:Drivers/STM32G4xx_HAL_Driver/Inc/stm32g4xx_ll_tim.h ****   * @param  Channel This parameter can be one of the following values:
3143:Drivers/STM32G4xx_HAL_Driver/Inc/stm32g4xx_ll_tim.h ****   *         @arg @ref LL_TIM_CHANNEL_CH1
3144:Drivers/STM32G4xx_HAL_Driver/Inc/stm32g4xx_ll_tim.h ****   *         @arg @ref LL_TIM_CHANNEL_CH2
3145:Drivers/STM32G4xx_HAL_Driver/Inc/stm32g4xx_ll_tim.h ****   *         @arg @ref LL_TIM_CHANNEL_CH3
3146:Drivers/STM32G4xx_HAL_Driver/Inc/stm32g4xx_ll_tim.h ****   *         @arg @ref LL_TIM_CHANNEL_CH4
3147:Drivers/STM32G4xx_HAL_Driver/Inc/stm32g4xx_ll_tim.h ****   *         @arg @ref LL_TIM_CHANNEL_CH5
3148:Drivers/STM32G4xx_HAL_Driver/Inc/stm32g4xx_ll_tim.h ****   *         @arg @ref LL_TIM_CHANNEL_CH6
3149:Drivers/STM32G4xx_HAL_Driver/Inc/stm32g4xx_ll_tim.h ****   * @retval None
3150:Drivers/STM32G4xx_HAL_Driver/Inc/stm32g4xx_ll_tim.h ****   */
3151:Drivers/STM32G4xx_HAL_Driver/Inc/stm32g4xx_ll_tim.h **** __STATIC_INLINE void LL_TIM_OC_DisableClear(TIM_TypeDef *TIMx, uint32_t Channel)
3152:Drivers/STM32G4xx_HAL_Driver/Inc/stm32g4xx_ll_tim.h **** {
3153:Drivers/STM32G4xx_HAL_Driver/Inc/stm32g4xx_ll_tim.h ****   uint8_t iChannel = TIM_GET_CHANNEL_INDEX(Channel);
3154:Drivers/STM32G4xx_HAL_Driver/Inc/stm32g4xx_ll_tim.h ****   __IO uint32_t *pReg = (__IO uint32_t *)((uint32_t)((uint32_t)(&TIMx->CCMR1) + OFFSET_TAB_CCMRx[iC
3155:Drivers/STM32G4xx_HAL_Driver/Inc/stm32g4xx_ll_tim.h ****   CLEAR_BIT(*pReg, (TIM_CCMR1_OC1CE << SHIFT_TAB_OCxx[iChannel]));
3156:Drivers/STM32G4xx_HAL_Driver/Inc/stm32g4xx_ll_tim.h **** }
3157:Drivers/STM32G4xx_HAL_Driver/Inc/stm32g4xx_ll_tim.h **** 
3158:Drivers/STM32G4xx_HAL_Driver/Inc/stm32g4xx_ll_tim.h **** /**
3159:Drivers/STM32G4xx_HAL_Driver/Inc/stm32g4xx_ll_tim.h ****   * @brief  Indicates clearing the output channel on an external event is enabled for the output ch
3160:Drivers/STM32G4xx_HAL_Driver/Inc/stm32g4xx_ll_tim.h ****   * @note This function enables clearing the output channel on an external event.
3161:Drivers/STM32G4xx_HAL_Driver/Inc/stm32g4xx_ll_tim.h ****   * @note This function can only be used in Output compare and PWM modes. It does not work in Force
3162:Drivers/STM32G4xx_HAL_Driver/Inc/stm32g4xx_ll_tim.h ****   * @note Macro IS_TIM_OCXREF_CLEAR_INSTANCE(TIMx) can be used to check whether
3163:Drivers/STM32G4xx_HAL_Driver/Inc/stm32g4xx_ll_tim.h ****   *       or not a timer instance can clear the OCxREF signal on an external event.
3164:Drivers/STM32G4xx_HAL_Driver/Inc/stm32g4xx_ll_tim.h ****   * @rmtoll CCMR1        OC1CE          LL_TIM_OC_IsEnabledClear\n
3165:Drivers/STM32G4xx_HAL_Driver/Inc/stm32g4xx_ll_tim.h ****   *         CCMR1        OC2CE          LL_TIM_OC_IsEnabledClear\n
3166:Drivers/STM32G4xx_HAL_Driver/Inc/stm32g4xx_ll_tim.h ****   *         CCMR2        OC3CE          LL_TIM_OC_IsEnabledClear\n
3167:Drivers/STM32G4xx_HAL_Driver/Inc/stm32g4xx_ll_tim.h ****   *         CCMR2        OC4CE          LL_TIM_OC_IsEnabledClear\n
3168:Drivers/STM32G4xx_HAL_Driver/Inc/stm32g4xx_ll_tim.h ****   *         CCMR3        OC5CE          LL_TIM_OC_IsEnabledClear\n
3169:Drivers/STM32G4xx_HAL_Driver/Inc/stm32g4xx_ll_tim.h ****   *         CCMR3        OC6CE          LL_TIM_OC_IsEnabledClear
3170:Drivers/STM32G4xx_HAL_Driver/Inc/stm32g4xx_ll_tim.h ****   * @param  TIMx Timer instance
3171:Drivers/STM32G4xx_HAL_Driver/Inc/stm32g4xx_ll_tim.h ****   * @param  Channel This parameter can be one of the following values:
ARM GAS  /tmp/ccF6ITrB.s 			page 104


3172:Drivers/STM32G4xx_HAL_Driver/Inc/stm32g4xx_ll_tim.h ****   *         @arg @ref LL_TIM_CHANNEL_CH1
3173:Drivers/STM32G4xx_HAL_Driver/Inc/stm32g4xx_ll_tim.h ****   *         @arg @ref LL_TIM_CHANNEL_CH2
3174:Drivers/STM32G4xx_HAL_Driver/Inc/stm32g4xx_ll_tim.h ****   *         @arg @ref LL_TIM_CHANNEL_CH3
3175:Drivers/STM32G4xx_HAL_Driver/Inc/stm32g4xx_ll_tim.h ****   *         @arg @ref LL_TIM_CHANNEL_CH4
3176:Drivers/STM32G4xx_HAL_Driver/Inc/stm32g4xx_ll_tim.h ****   *         @arg @ref LL_TIM_CHANNEL_CH5
3177:Drivers/STM32G4xx_HAL_Driver/Inc/stm32g4xx_ll_tim.h ****   *         @arg @ref LL_TIM_CHANNEL_CH6
3178:Drivers/STM32G4xx_HAL_Driver/Inc/stm32g4xx_ll_tim.h ****   * @retval State of bit (1 or 0).
3179:Drivers/STM32G4xx_HAL_Driver/Inc/stm32g4xx_ll_tim.h ****   */
3180:Drivers/STM32G4xx_HAL_Driver/Inc/stm32g4xx_ll_tim.h **** __STATIC_INLINE uint32_t LL_TIM_OC_IsEnabledClear(const TIM_TypeDef *TIMx, uint32_t Channel)
3181:Drivers/STM32G4xx_HAL_Driver/Inc/stm32g4xx_ll_tim.h **** {
3182:Drivers/STM32G4xx_HAL_Driver/Inc/stm32g4xx_ll_tim.h ****   uint8_t iChannel = TIM_GET_CHANNEL_INDEX(Channel);
3183:Drivers/STM32G4xx_HAL_Driver/Inc/stm32g4xx_ll_tim.h ****   const __IO uint32_t *pReg = (__IO uint32_t *)((uint32_t)((uint32_t)(&TIMx->CCMR1) + OFFSET_TAB_CC
3184:Drivers/STM32G4xx_HAL_Driver/Inc/stm32g4xx_ll_tim.h ****   uint32_t bitfield = TIM_CCMR1_OC1CE << SHIFT_TAB_OCxx[iChannel];
3185:Drivers/STM32G4xx_HAL_Driver/Inc/stm32g4xx_ll_tim.h ****   return ((READ_BIT(*pReg, bitfield) == bitfield) ? 1UL : 0UL);
3186:Drivers/STM32G4xx_HAL_Driver/Inc/stm32g4xx_ll_tim.h **** }
3187:Drivers/STM32G4xx_HAL_Driver/Inc/stm32g4xx_ll_tim.h **** 
3188:Drivers/STM32G4xx_HAL_Driver/Inc/stm32g4xx_ll_tim.h **** /**
3189:Drivers/STM32G4xx_HAL_Driver/Inc/stm32g4xx_ll_tim.h ****   * @brief  Set the dead-time delay (delay inserted between the rising edge of the OCxREF signal an
3190:Drivers/STM32G4xx_HAL_Driver/Inc/stm32g4xx_ll_tim.h ****   *         the Ocx and OCxN signals).
3191:Drivers/STM32G4xx_HAL_Driver/Inc/stm32g4xx_ll_tim.h ****   * @note Macro IS_TIM_BREAK_INSTANCE(TIMx) can be used to check whether or not
3192:Drivers/STM32G4xx_HAL_Driver/Inc/stm32g4xx_ll_tim.h ****   *       dead-time insertion feature is supported by a timer instance.
3193:Drivers/STM32G4xx_HAL_Driver/Inc/stm32g4xx_ll_tim.h ****   * @note Helper macro @ref __LL_TIM_CALC_DEADTIME can be used to calculate the DeadTime parameter
3194:Drivers/STM32G4xx_HAL_Driver/Inc/stm32g4xx_ll_tim.h ****   * @rmtoll BDTR         DTG           LL_TIM_OC_SetDeadTime
3195:Drivers/STM32G4xx_HAL_Driver/Inc/stm32g4xx_ll_tim.h ****   * @param  TIMx Timer instance
3196:Drivers/STM32G4xx_HAL_Driver/Inc/stm32g4xx_ll_tim.h ****   * @param  DeadTime between Min_Data=0 and Max_Data=255
3197:Drivers/STM32G4xx_HAL_Driver/Inc/stm32g4xx_ll_tim.h ****   * @retval None
3198:Drivers/STM32G4xx_HAL_Driver/Inc/stm32g4xx_ll_tim.h ****   */
3199:Drivers/STM32G4xx_HAL_Driver/Inc/stm32g4xx_ll_tim.h **** __STATIC_INLINE void LL_TIM_OC_SetDeadTime(TIM_TypeDef *TIMx, uint32_t DeadTime)
 1351              		.loc 4 3199 22 view .LVU386
 1352              	.LBB131:
3200:Drivers/STM32G4xx_HAL_Driver/Inc/stm32g4xx_ll_tim.h **** {
3201:Drivers/STM32G4xx_HAL_Driver/Inc/stm32g4xx_ll_tim.h ****   MODIFY_REG(TIMx->BDTR, TIM_BDTR_DTG, DeadTime);
 1353              		.loc 4 3201 3 view .LVU387
 1354 02e6 726C     		ldr	r2, [r6, #68]
 1355 02e8 22F0FF02 		bic	r2, r2, #255
 1356 02ec 42F03202 		orr	r2, r2, #50
 1357 02f0 7264     		str	r2, [r6, #68]
 1358              	.LVL108:
 1359              		.loc 4 3201 3 is_stmt 0 view .LVU388
 1360              	.LBE131:
 1361              	.LBE130:
 263:Src/mc_tasks_foc.c ****               LL_TIM_OC_EnablePreload(TIM1, LL_TIM_CHANNEL_CH2);
 1362              		.loc 1 263 15 is_stmt 1 view .LVU389
 1363              	.LBB132:
 1364              	.LBI132:
3045:Drivers/STM32G4xx_HAL_Driver/Inc/stm32g4xx_ll_tim.h **** {
 1365              		.loc 4 3045 22 view .LVU390
 1366              	.LBB133:
3047:Drivers/STM32G4xx_HAL_Driver/Inc/stm32g4xx_ll_tim.h ****   __IO uint32_t *pReg = (__IO uint32_t *)((uint32_t)((uint32_t)(&TIMx->CCMR1) + OFFSET_TAB_CCMRx[iC
 1367              		.loc 4 3047 3 view .LVU391
3048:Drivers/STM32G4xx_HAL_Driver/Inc/stm32g4xx_ll_tim.h ****   SET_BIT(*pReg, (TIM_CCMR1_OC1PE << SHIFT_TAB_OCxx[iChannel]));
 1368              		.loc 4 3048 3 view .LVU392
3049:Drivers/STM32G4xx_HAL_Driver/Inc/stm32g4xx_ll_tim.h **** }
 1369              		.loc 4 3049 3 view .LVU393
 1370 02f2 D3F8182C 		ldr	r2, [r3, #3096]
 1371 02f6 42F00802 		orr	r2, r2, #8
 1372 02fa C3F8182C 		str	r2, [r3, #3096]
ARM GAS  /tmp/ccF6ITrB.s 			page 105


 1373              	.LVL109:
3049:Drivers/STM32G4xx_HAL_Driver/Inc/stm32g4xx_ll_tim.h **** }
 1374              		.loc 4 3049 3 is_stmt 0 view .LVU394
 1375              	.LBE133:
 1376              	.LBE132:
 264:Src/mc_tasks_foc.c ****               LL_TIM_OC_EnablePreload(TIM1, LL_TIM_CHANNEL_CH3);
 1377              		.loc 1 264 15 is_stmt 1 view .LVU395
 1378              	.LBB134:
 1379              	.LBI134:
3045:Drivers/STM32G4xx_HAL_Driver/Inc/stm32g4xx_ll_tim.h **** {
 1380              		.loc 4 3045 22 view .LVU396
 1381              	.LBB135:
3047:Drivers/STM32G4xx_HAL_Driver/Inc/stm32g4xx_ll_tim.h ****   __IO uint32_t *pReg = (__IO uint32_t *)((uint32_t)((uint32_t)(&TIMx->CCMR1) + OFFSET_TAB_CCMRx[iC
 1382              		.loc 4 3047 3 view .LVU397
3048:Drivers/STM32G4xx_HAL_Driver/Inc/stm32g4xx_ll_tim.h ****   SET_BIT(*pReg, (TIM_CCMR1_OC1PE << SHIFT_TAB_OCxx[iChannel]));
 1383              		.loc 4 3048 3 view .LVU398
3049:Drivers/STM32G4xx_HAL_Driver/Inc/stm32g4xx_ll_tim.h **** }
 1384              		.loc 4 3049 3 view .LVU399
 1385 02fe D3F8182C 		ldr	r2, [r3, #3096]
 1386 0302 42F40062 		orr	r2, r2, #2048
 1387 0306 C3F8182C 		str	r2, [r3, #3096]
 1388              	.LVL110:
3049:Drivers/STM32G4xx_HAL_Driver/Inc/stm32g4xx_ll_tim.h **** }
 1389              		.loc 4 3049 3 is_stmt 0 view .LVU400
 1390              	.LBE135:
 1391              	.LBE134:
 265:Src/mc_tasks_foc.c ****               LL_TIM_OC_SetCompareCH1(TIM1, 100);
 1392              		.loc 1 265 15 is_stmt 1 view .LVU401
 1393              	.LBB136:
 1394              	.LBI136:
3045:Drivers/STM32G4xx_HAL_Driver/Inc/stm32g4xx_ll_tim.h **** {
 1395              		.loc 4 3045 22 view .LVU402
 1396              	.LBB137:
3047:Drivers/STM32G4xx_HAL_Driver/Inc/stm32g4xx_ll_tim.h ****   __IO uint32_t *pReg = (__IO uint32_t *)((uint32_t)((uint32_t)(&TIMx->CCMR1) + OFFSET_TAB_CCMRx[iC
 1397              		.loc 4 3047 3 view .LVU403
3048:Drivers/STM32G4xx_HAL_Driver/Inc/stm32g4xx_ll_tim.h ****   SET_BIT(*pReg, (TIM_CCMR1_OC1PE << SHIFT_TAB_OCxx[iChannel]));
 1398              		.loc 4 3048 3 view .LVU404
3049:Drivers/STM32G4xx_HAL_Driver/Inc/stm32g4xx_ll_tim.h **** }
 1399              		.loc 4 3049 3 view .LVU405
 1400 030a 4B68     		ldr	r3, [r1, #4]
 1401              	.LBE137:
 1402              	.LBE136:
 1403              	.LBB139:
 1404              	.LBB140:
3202:Drivers/STM32G4xx_HAL_Driver/Inc/stm32g4xx_ll_tim.h **** }
3203:Drivers/STM32G4xx_HAL_Driver/Inc/stm32g4xx_ll_tim.h **** 
3204:Drivers/STM32G4xx_HAL_Driver/Inc/stm32g4xx_ll_tim.h **** /**
3205:Drivers/STM32G4xx_HAL_Driver/Inc/stm32g4xx_ll_tim.h ****   * @brief  Set compare value for output channel 1 (TIMx_CCR1).
3206:Drivers/STM32G4xx_HAL_Driver/Inc/stm32g4xx_ll_tim.h ****   * @note In 32-bit timer implementations compare value can be between 0x00000000 and 0xFFFFFFFF.
3207:Drivers/STM32G4xx_HAL_Driver/Inc/stm32g4xx_ll_tim.h ****   * @note Macro IS_TIM_32B_COUNTER_INSTANCE(TIMx) can be used to check
3208:Drivers/STM32G4xx_HAL_Driver/Inc/stm32g4xx_ll_tim.h ****   *       whether or not a timer instance supports a 32 bits counter.
3209:Drivers/STM32G4xx_HAL_Driver/Inc/stm32g4xx_ll_tim.h ****   * @note Macro IS_TIM_CC1_INSTANCE(TIMx) can be used to check whether or not
3210:Drivers/STM32G4xx_HAL_Driver/Inc/stm32g4xx_ll_tim.h ****   *       output channel 1 is supported by a timer instance.
3211:Drivers/STM32G4xx_HAL_Driver/Inc/stm32g4xx_ll_tim.h ****   * @note If dithering is activated, CompareValue can be calculated with macro @ref __LL_TIM_CALC_D
3212:Drivers/STM32G4xx_HAL_Driver/Inc/stm32g4xx_ll_tim.h ****   * @rmtoll CCR1         CCR1          LL_TIM_OC_SetCompareCH1
3213:Drivers/STM32G4xx_HAL_Driver/Inc/stm32g4xx_ll_tim.h ****   * @param  TIMx Timer instance
3214:Drivers/STM32G4xx_HAL_Driver/Inc/stm32g4xx_ll_tim.h ****   * @param  CompareValue between Min_Data=0 and Max_Data=65535
ARM GAS  /tmp/ccF6ITrB.s 			page 106


3215:Drivers/STM32G4xx_HAL_Driver/Inc/stm32g4xx_ll_tim.h ****   * @retval None
3216:Drivers/STM32G4xx_HAL_Driver/Inc/stm32g4xx_ll_tim.h ****   */
3217:Drivers/STM32G4xx_HAL_Driver/Inc/stm32g4xx_ll_tim.h **** __STATIC_INLINE void LL_TIM_OC_SetCompareCH1(TIM_TypeDef *TIMx, uint32_t CompareValue)
3218:Drivers/STM32G4xx_HAL_Driver/Inc/stm32g4xx_ll_tim.h **** {
3219:Drivers/STM32G4xx_HAL_Driver/Inc/stm32g4xx_ll_tim.h ****   WRITE_REG(TIMx->CCR1, CompareValue);
 1405              		.loc 4 3219 3 is_stmt 0 view .LVU406
 1406 030c 6425     		movs	r5, #100
 1407              	.LBE140:
 1408              	.LBE139:
 1409              	.LBB143:
 1410              	.LBB138:
3049:Drivers/STM32G4xx_HAL_Driver/Inc/stm32g4xx_ll_tim.h **** }
 1411              		.loc 4 3049 3 view .LVU407
 1412 030e 43F00803 		orr	r3, r3, #8
 1413 0312 4B60     		str	r3, [r1, #4]
 1414              	.LVL111:
3049:Drivers/STM32G4xx_HAL_Driver/Inc/stm32g4xx_ll_tim.h **** }
 1415              		.loc 4 3049 3 view .LVU408
 1416              	.LBE138:
 1417              	.LBE143:
 266:Src/mc_tasks_foc.c ****               LL_TIM_OC_SetCompareCH2(TIM1, 100);
 1418              		.loc 1 266 15 is_stmt 1 view .LVU409
 1419              	.LBB144:
 1420              	.LBI139:
3217:Drivers/STM32G4xx_HAL_Driver/Inc/stm32g4xx_ll_tim.h **** {
 1421              		.loc 4 3217 22 view .LVU410
 1422              	.LBB141:
 1423              		.loc 4 3219 3 view .LVU411
 1424              	.LBE141:
 1425              	.LBE144:
 269:Src/mc_tasks_foc.c **** 
 1426              		.loc 1 269 15 is_stmt 0 view .LVU412
 1427 0314 4FF47A70 		mov	r0, #1000
 1428              	.LBB145:
 1429              	.LBB142:
 1430              		.loc 4 3219 3 view .LVU413
 1431 0318 7563     		str	r5, [r6, #52]
 1432              	.LVL112:
 1433              		.loc 4 3219 3 view .LVU414
 1434              	.LBE142:
 1435              	.LBE145:
 267:Src/mc_tasks_foc.c ****               LL_TIM_OC_SetCompareCH3(TIM1, 100);
 1436              		.loc 1 267 15 is_stmt 1 view .LVU415
 1437              	.LBB146:
 1438              	.LBI146:
3220:Drivers/STM32G4xx_HAL_Driver/Inc/stm32g4xx_ll_tim.h **** }
3221:Drivers/STM32G4xx_HAL_Driver/Inc/stm32g4xx_ll_tim.h **** 
3222:Drivers/STM32G4xx_HAL_Driver/Inc/stm32g4xx_ll_tim.h **** /**
3223:Drivers/STM32G4xx_HAL_Driver/Inc/stm32g4xx_ll_tim.h ****   * @brief  Set compare value for output channel 2 (TIMx_CCR2).
3224:Drivers/STM32G4xx_HAL_Driver/Inc/stm32g4xx_ll_tim.h ****   * @note In 32-bit timer implementations compare value can be between 0x00000000 and 0xFFFFFFFF.
3225:Drivers/STM32G4xx_HAL_Driver/Inc/stm32g4xx_ll_tim.h ****   * @note Macro IS_TIM_32B_COUNTER_INSTANCE(TIMx) can be used to check
3226:Drivers/STM32G4xx_HAL_Driver/Inc/stm32g4xx_ll_tim.h ****   *       whether or not a timer instance supports a 32 bits counter.
3227:Drivers/STM32G4xx_HAL_Driver/Inc/stm32g4xx_ll_tim.h ****   * @note Macro IS_TIM_CC2_INSTANCE(TIMx) can be used to check whether or not
3228:Drivers/STM32G4xx_HAL_Driver/Inc/stm32g4xx_ll_tim.h ****   *       output channel 2 is supported by a timer instance.
3229:Drivers/STM32G4xx_HAL_Driver/Inc/stm32g4xx_ll_tim.h ****   * @note If dithering is activated, CompareValue can be calculated with macro @ref __LL_TIM_CALC_D
3230:Drivers/STM32G4xx_HAL_Driver/Inc/stm32g4xx_ll_tim.h ****   * @rmtoll CCR2         CCR2          LL_TIM_OC_SetCompareCH2
3231:Drivers/STM32G4xx_HAL_Driver/Inc/stm32g4xx_ll_tim.h ****   * @param  TIMx Timer instance
ARM GAS  /tmp/ccF6ITrB.s 			page 107


3232:Drivers/STM32G4xx_HAL_Driver/Inc/stm32g4xx_ll_tim.h ****   * @param  CompareValue between Min_Data=0 and Max_Data=65535
3233:Drivers/STM32G4xx_HAL_Driver/Inc/stm32g4xx_ll_tim.h ****   * @retval None
3234:Drivers/STM32G4xx_HAL_Driver/Inc/stm32g4xx_ll_tim.h ****   */
3235:Drivers/STM32G4xx_HAL_Driver/Inc/stm32g4xx_ll_tim.h **** __STATIC_INLINE void LL_TIM_OC_SetCompareCH2(TIM_TypeDef *TIMx, uint32_t CompareValue)
 1439              		.loc 4 3235 22 view .LVU416
 1440              	.LBB147:
3236:Drivers/STM32G4xx_HAL_Driver/Inc/stm32g4xx_ll_tim.h **** {
3237:Drivers/STM32G4xx_HAL_Driver/Inc/stm32g4xx_ll_tim.h ****   WRITE_REG(TIMx->CCR2, CompareValue);
 1441              		.loc 4 3237 3 view .LVU417
 1442 031a B563     		str	r5, [r6, #56]
 1443              	.LVL113:
 1444              		.loc 4 3237 3 is_stmt 0 view .LVU418
 1445              	.LBE147:
 1446              	.LBE146:
 268:Src/mc_tasks_foc.c ****               vTaskDelay(1000);
 1447              		.loc 1 268 15 is_stmt 1 view .LVU419
 1448              	.LBB148:
 1449              	.LBI148:
3238:Drivers/STM32G4xx_HAL_Driver/Inc/stm32g4xx_ll_tim.h **** }
3239:Drivers/STM32G4xx_HAL_Driver/Inc/stm32g4xx_ll_tim.h **** 
3240:Drivers/STM32G4xx_HAL_Driver/Inc/stm32g4xx_ll_tim.h **** /**
3241:Drivers/STM32G4xx_HAL_Driver/Inc/stm32g4xx_ll_tim.h ****   * @brief  Set compare value for output channel 3 (TIMx_CCR3).
3242:Drivers/STM32G4xx_HAL_Driver/Inc/stm32g4xx_ll_tim.h ****   * @note In 32-bit timer implementations compare value can be between 0x00000000 and 0xFFFFFFFF.
3243:Drivers/STM32G4xx_HAL_Driver/Inc/stm32g4xx_ll_tim.h ****   * @note Macro IS_TIM_32B_COUNTER_INSTANCE(TIMx) can be used to check
3244:Drivers/STM32G4xx_HAL_Driver/Inc/stm32g4xx_ll_tim.h ****   *       whether or not a timer instance supports a 32 bits counter.
3245:Drivers/STM32G4xx_HAL_Driver/Inc/stm32g4xx_ll_tim.h ****   * @note Macro IS_TIM_CC3_INSTANCE(TIMx) can be used to check whether or not
3246:Drivers/STM32G4xx_HAL_Driver/Inc/stm32g4xx_ll_tim.h ****   *       output channel is supported by a timer instance.
3247:Drivers/STM32G4xx_HAL_Driver/Inc/stm32g4xx_ll_tim.h ****   * @note If dithering is activated, CompareValue can be calculated with macro @ref __LL_TIM_CALC_D
3248:Drivers/STM32G4xx_HAL_Driver/Inc/stm32g4xx_ll_tim.h ****   * @rmtoll CCR3         CCR3          LL_TIM_OC_SetCompareCH3
3249:Drivers/STM32G4xx_HAL_Driver/Inc/stm32g4xx_ll_tim.h ****   * @param  TIMx Timer instance
3250:Drivers/STM32G4xx_HAL_Driver/Inc/stm32g4xx_ll_tim.h ****   * @param  CompareValue between Min_Data=0 and Max_Data=65535
3251:Drivers/STM32G4xx_HAL_Driver/Inc/stm32g4xx_ll_tim.h ****   * @retval None
3252:Drivers/STM32G4xx_HAL_Driver/Inc/stm32g4xx_ll_tim.h ****   */
3253:Drivers/STM32G4xx_HAL_Driver/Inc/stm32g4xx_ll_tim.h **** __STATIC_INLINE void LL_TIM_OC_SetCompareCH3(TIM_TypeDef *TIMx, uint32_t CompareValue)
 1450              		.loc 4 3253 22 view .LVU420
 1451              	.LBB149:
3254:Drivers/STM32G4xx_HAL_Driver/Inc/stm32g4xx_ll_tim.h **** {
3255:Drivers/STM32G4xx_HAL_Driver/Inc/stm32g4xx_ll_tim.h ****   WRITE_REG(TIMx->CCR3, CompareValue);
 1452              		.loc 4 3255 3 view .LVU421
 1453 031c F563     		str	r5, [r6, #60]
 1454              	.LVL114:
 1455              		.loc 4 3255 3 is_stmt 0 view .LVU422
 1456              	.LBE149:
 1457              	.LBE148:
 269:Src/mc_tasks_foc.c **** 
 1458              		.loc 1 269 15 is_stmt 1 view .LVU423
 1459 031e FFF7FEFF 		bl	vTaskDelay
 1460              	.LVL115:
 272:Src/mc_tasks_foc.c ****               LL_TIM_EnableAllOutputs(TIM1);
 1461              		.loc 1 272 15 view .LVU424
 272:Src/mc_tasks_foc.c ****               LL_TIM_EnableAllOutputs(TIM1);
 1462              		.loc 1 272 26 is_stmt 0 view .LVU425
 1463 0322 736C     		ldr	r3, [r6, #68]
 274:Src/mc_tasks_foc.c ****               
 1464              		.loc 1 274 15 view .LVU426
 1465 0324 2848     		ldr	r0, .L97+16
 1466 0326 2C4D     		ldr	r5, .L97+32
ARM GAS  /tmp/ccF6ITrB.s 			page 108


 272:Src/mc_tasks_foc.c ****               LL_TIM_EnableAllOutputs(TIM1);
 1467              		.loc 1 272 26 view .LVU427
 1468 0328 43F48063 		orr	r3, r3, #1024
 1469 032c 7364     		str	r3, [r6, #68]
 273:Src/mc_tasks_foc.c ****               STSPIN32G4_clearFaults(&HdlSTSPING4);
 1470              		.loc 1 273 15 is_stmt 1 view .LVU428
 1471              	.LVL116:
 1472              	.LBB150:
 1473              	.LBI150:
3256:Drivers/STM32G4xx_HAL_Driver/Inc/stm32g4xx_ll_tim.h **** }
3257:Drivers/STM32G4xx_HAL_Driver/Inc/stm32g4xx_ll_tim.h **** 
3258:Drivers/STM32G4xx_HAL_Driver/Inc/stm32g4xx_ll_tim.h **** /**
3259:Drivers/STM32G4xx_HAL_Driver/Inc/stm32g4xx_ll_tim.h ****   * @brief  Set compare value for output channel 4 (TIMx_CCR4).
3260:Drivers/STM32G4xx_HAL_Driver/Inc/stm32g4xx_ll_tim.h ****   * @note In 32-bit timer implementations compare value can be between 0x00000000 and 0xFFFFFFFF.
3261:Drivers/STM32G4xx_HAL_Driver/Inc/stm32g4xx_ll_tim.h ****   * @note Macro IS_TIM_32B_COUNTER_INSTANCE(TIMx) can be used to check
3262:Drivers/STM32G4xx_HAL_Driver/Inc/stm32g4xx_ll_tim.h ****   *       whether or not a timer instance supports a 32 bits counter.
3263:Drivers/STM32G4xx_HAL_Driver/Inc/stm32g4xx_ll_tim.h ****   * @note Macro IS_TIM_CC4_INSTANCE(TIMx) can be used to check whether or not
3264:Drivers/STM32G4xx_HAL_Driver/Inc/stm32g4xx_ll_tim.h ****   *       output channel 4 is supported by a timer instance.
3265:Drivers/STM32G4xx_HAL_Driver/Inc/stm32g4xx_ll_tim.h ****   * @note If dithering is activated, CompareValue can be calculated with macro @ref __LL_TIM_CALC_D
3266:Drivers/STM32G4xx_HAL_Driver/Inc/stm32g4xx_ll_tim.h ****   * @rmtoll CCR4         CCR4          LL_TIM_OC_SetCompareCH4
3267:Drivers/STM32G4xx_HAL_Driver/Inc/stm32g4xx_ll_tim.h ****   * @param  TIMx Timer instance
3268:Drivers/STM32G4xx_HAL_Driver/Inc/stm32g4xx_ll_tim.h ****   * @param  CompareValue between Min_Data=0 and Max_Data=65535
3269:Drivers/STM32G4xx_HAL_Driver/Inc/stm32g4xx_ll_tim.h ****   * @retval None
3270:Drivers/STM32G4xx_HAL_Driver/Inc/stm32g4xx_ll_tim.h ****   */
3271:Drivers/STM32G4xx_HAL_Driver/Inc/stm32g4xx_ll_tim.h **** __STATIC_INLINE void LL_TIM_OC_SetCompareCH4(TIM_TypeDef *TIMx, uint32_t CompareValue)
3272:Drivers/STM32G4xx_HAL_Driver/Inc/stm32g4xx_ll_tim.h **** {
3273:Drivers/STM32G4xx_HAL_Driver/Inc/stm32g4xx_ll_tim.h ****   WRITE_REG(TIMx->CCR4, CompareValue);
3274:Drivers/STM32G4xx_HAL_Driver/Inc/stm32g4xx_ll_tim.h **** }
3275:Drivers/STM32G4xx_HAL_Driver/Inc/stm32g4xx_ll_tim.h **** 
3276:Drivers/STM32G4xx_HAL_Driver/Inc/stm32g4xx_ll_tim.h **** /**
3277:Drivers/STM32G4xx_HAL_Driver/Inc/stm32g4xx_ll_tim.h ****   * @brief  Set compare value for output channel 5 (TIMx_CCR5).
3278:Drivers/STM32G4xx_HAL_Driver/Inc/stm32g4xx_ll_tim.h ****   * @note Macro IS_TIM_CC5_INSTANCE(TIMx) can be used to check whether or not
3279:Drivers/STM32G4xx_HAL_Driver/Inc/stm32g4xx_ll_tim.h ****   *       output channel 5 is supported by a timer instance.
3280:Drivers/STM32G4xx_HAL_Driver/Inc/stm32g4xx_ll_tim.h ****   * @note If dithering is activated, CompareValue can be calculated with macro @ref __LL_TIM_CALC_D
3281:Drivers/STM32G4xx_HAL_Driver/Inc/stm32g4xx_ll_tim.h ****   * @rmtoll CCR5         CCR5          LL_TIM_OC_SetCompareCH5
3282:Drivers/STM32G4xx_HAL_Driver/Inc/stm32g4xx_ll_tim.h ****   * @param  TIMx Timer instance
3283:Drivers/STM32G4xx_HAL_Driver/Inc/stm32g4xx_ll_tim.h ****   * @param  CompareValue between Min_Data=0 and Max_Data=65535
3284:Drivers/STM32G4xx_HAL_Driver/Inc/stm32g4xx_ll_tim.h ****   * @retval None
3285:Drivers/STM32G4xx_HAL_Driver/Inc/stm32g4xx_ll_tim.h ****   */
3286:Drivers/STM32G4xx_HAL_Driver/Inc/stm32g4xx_ll_tim.h **** __STATIC_INLINE void LL_TIM_OC_SetCompareCH5(TIM_TypeDef *TIMx, uint32_t CompareValue)
3287:Drivers/STM32G4xx_HAL_Driver/Inc/stm32g4xx_ll_tim.h **** {
3288:Drivers/STM32G4xx_HAL_Driver/Inc/stm32g4xx_ll_tim.h ****   MODIFY_REG(TIMx->CCR5, TIM_CCR5_CCR5, CompareValue);
3289:Drivers/STM32G4xx_HAL_Driver/Inc/stm32g4xx_ll_tim.h **** }
3290:Drivers/STM32G4xx_HAL_Driver/Inc/stm32g4xx_ll_tim.h **** 
3291:Drivers/STM32G4xx_HAL_Driver/Inc/stm32g4xx_ll_tim.h **** /**
3292:Drivers/STM32G4xx_HAL_Driver/Inc/stm32g4xx_ll_tim.h ****   * @brief  Set compare value for output channel 6 (TIMx_CCR6).
3293:Drivers/STM32G4xx_HAL_Driver/Inc/stm32g4xx_ll_tim.h ****   * @note Macro IS_TIM_CC6_INSTANCE(TIMx) can be used to check whether or not
3294:Drivers/STM32G4xx_HAL_Driver/Inc/stm32g4xx_ll_tim.h ****   *       output channel 6 is supported by a timer instance.
3295:Drivers/STM32G4xx_HAL_Driver/Inc/stm32g4xx_ll_tim.h ****   * @note If dithering is activated, CompareValue can be calculated with macro @ref __LL_TIM_CALC_D
3296:Drivers/STM32G4xx_HAL_Driver/Inc/stm32g4xx_ll_tim.h ****   * @rmtoll CCR6         CCR6          LL_TIM_OC_SetCompareCH6
3297:Drivers/STM32G4xx_HAL_Driver/Inc/stm32g4xx_ll_tim.h ****   * @param  TIMx Timer instance
3298:Drivers/STM32G4xx_HAL_Driver/Inc/stm32g4xx_ll_tim.h ****   * @param  CompareValue between Min_Data=0 and Max_Data=65535
3299:Drivers/STM32G4xx_HAL_Driver/Inc/stm32g4xx_ll_tim.h ****   * @retval None
3300:Drivers/STM32G4xx_HAL_Driver/Inc/stm32g4xx_ll_tim.h ****   */
3301:Drivers/STM32G4xx_HAL_Driver/Inc/stm32g4xx_ll_tim.h **** __STATIC_INLINE void LL_TIM_OC_SetCompareCH6(TIM_TypeDef *TIMx, uint32_t CompareValue)
3302:Drivers/STM32G4xx_HAL_Driver/Inc/stm32g4xx_ll_tim.h **** {
3303:Drivers/STM32G4xx_HAL_Driver/Inc/stm32g4xx_ll_tim.h ****   WRITE_REG(TIMx->CCR6, CompareValue);
ARM GAS  /tmp/ccF6ITrB.s 			page 109


3304:Drivers/STM32G4xx_HAL_Driver/Inc/stm32g4xx_ll_tim.h **** }
3305:Drivers/STM32G4xx_HAL_Driver/Inc/stm32g4xx_ll_tim.h **** 
3306:Drivers/STM32G4xx_HAL_Driver/Inc/stm32g4xx_ll_tim.h **** /**
3307:Drivers/STM32G4xx_HAL_Driver/Inc/stm32g4xx_ll_tim.h ****   * @brief  Get compare value (TIMx_CCR1) set for  output channel 1.
3308:Drivers/STM32G4xx_HAL_Driver/Inc/stm32g4xx_ll_tim.h ****   * @note In 32-bit timer implementations returned compare value can be between 0x00000000 and 0xFF
3309:Drivers/STM32G4xx_HAL_Driver/Inc/stm32g4xx_ll_tim.h ****   * @note Macro IS_TIM_32B_COUNTER_INSTANCE(TIMx) can be used to check
3310:Drivers/STM32G4xx_HAL_Driver/Inc/stm32g4xx_ll_tim.h ****   *       whether or not a timer instance supports a 32 bits counter.
3311:Drivers/STM32G4xx_HAL_Driver/Inc/stm32g4xx_ll_tim.h ****   * @note Macro IS_TIM_CC1_INSTANCE(TIMx) can be used to check whether or not
3312:Drivers/STM32G4xx_HAL_Driver/Inc/stm32g4xx_ll_tim.h ****   *       output channel 1 is supported by a timer instance.
3313:Drivers/STM32G4xx_HAL_Driver/Inc/stm32g4xx_ll_tim.h ****   * @note If dithering is activated, pay attention to the returned value interpretation.
3314:Drivers/STM32G4xx_HAL_Driver/Inc/stm32g4xx_ll_tim.h ****   * @rmtoll CCR1         CCR1          LL_TIM_OC_GetCompareCH1
3315:Drivers/STM32G4xx_HAL_Driver/Inc/stm32g4xx_ll_tim.h ****   * @param  TIMx Timer instance
3316:Drivers/STM32G4xx_HAL_Driver/Inc/stm32g4xx_ll_tim.h ****   * @retval CompareValue (between Min_Data=0 and Max_Data=65535)
3317:Drivers/STM32G4xx_HAL_Driver/Inc/stm32g4xx_ll_tim.h ****   */
3318:Drivers/STM32G4xx_HAL_Driver/Inc/stm32g4xx_ll_tim.h **** __STATIC_INLINE uint32_t LL_TIM_OC_GetCompareCH1(const TIM_TypeDef *TIMx)
3319:Drivers/STM32G4xx_HAL_Driver/Inc/stm32g4xx_ll_tim.h **** {
3320:Drivers/STM32G4xx_HAL_Driver/Inc/stm32g4xx_ll_tim.h ****   return (uint32_t)(READ_REG(TIMx->CCR1));
3321:Drivers/STM32G4xx_HAL_Driver/Inc/stm32g4xx_ll_tim.h **** }
3322:Drivers/STM32G4xx_HAL_Driver/Inc/stm32g4xx_ll_tim.h **** 
3323:Drivers/STM32G4xx_HAL_Driver/Inc/stm32g4xx_ll_tim.h **** /**
3324:Drivers/STM32G4xx_HAL_Driver/Inc/stm32g4xx_ll_tim.h ****   * @brief  Get compare value (TIMx_CCR2) set for  output channel 2.
3325:Drivers/STM32G4xx_HAL_Driver/Inc/stm32g4xx_ll_tim.h ****   * @note In 32-bit timer implementations returned compare value can be between 0x00000000 and 0xFF
3326:Drivers/STM32G4xx_HAL_Driver/Inc/stm32g4xx_ll_tim.h ****   * @note Macro IS_TIM_32B_COUNTER_INSTANCE(TIMx) can be used to check
3327:Drivers/STM32G4xx_HAL_Driver/Inc/stm32g4xx_ll_tim.h ****   *       whether or not a timer instance supports a 32 bits counter.
3328:Drivers/STM32G4xx_HAL_Driver/Inc/stm32g4xx_ll_tim.h ****   * @note Macro IS_TIM_CC2_INSTANCE(TIMx) can be used to check whether or not
3329:Drivers/STM32G4xx_HAL_Driver/Inc/stm32g4xx_ll_tim.h ****   *       output channel 2 is supported by a timer instance.
3330:Drivers/STM32G4xx_HAL_Driver/Inc/stm32g4xx_ll_tim.h ****   * @note If dithering is activated, pay attention to the returned value interpretation.
3331:Drivers/STM32G4xx_HAL_Driver/Inc/stm32g4xx_ll_tim.h ****   * @rmtoll CCR2         CCR2          LL_TIM_OC_GetCompareCH2
3332:Drivers/STM32G4xx_HAL_Driver/Inc/stm32g4xx_ll_tim.h ****   * @param  TIMx Timer instance
3333:Drivers/STM32G4xx_HAL_Driver/Inc/stm32g4xx_ll_tim.h ****   * @retval CompareValue (between Min_Data=0 and Max_Data=65535)
3334:Drivers/STM32G4xx_HAL_Driver/Inc/stm32g4xx_ll_tim.h ****   */
3335:Drivers/STM32G4xx_HAL_Driver/Inc/stm32g4xx_ll_tim.h **** __STATIC_INLINE uint32_t LL_TIM_OC_GetCompareCH2(const TIM_TypeDef *TIMx)
3336:Drivers/STM32G4xx_HAL_Driver/Inc/stm32g4xx_ll_tim.h **** {
3337:Drivers/STM32G4xx_HAL_Driver/Inc/stm32g4xx_ll_tim.h ****   return (uint32_t)(READ_REG(TIMx->CCR2));
3338:Drivers/STM32G4xx_HAL_Driver/Inc/stm32g4xx_ll_tim.h **** }
3339:Drivers/STM32G4xx_HAL_Driver/Inc/stm32g4xx_ll_tim.h **** 
3340:Drivers/STM32G4xx_HAL_Driver/Inc/stm32g4xx_ll_tim.h **** /**
3341:Drivers/STM32G4xx_HAL_Driver/Inc/stm32g4xx_ll_tim.h ****   * @brief  Get compare value (TIMx_CCR3) set for  output channel 3.
3342:Drivers/STM32G4xx_HAL_Driver/Inc/stm32g4xx_ll_tim.h ****   * @note In 32-bit timer implementations returned compare value can be between 0x00000000 and 0xFF
3343:Drivers/STM32G4xx_HAL_Driver/Inc/stm32g4xx_ll_tim.h ****   * @note Macro IS_TIM_32B_COUNTER_INSTANCE(TIMx) can be used to check
3344:Drivers/STM32G4xx_HAL_Driver/Inc/stm32g4xx_ll_tim.h ****   *       whether or not a timer instance supports a 32 bits counter.
3345:Drivers/STM32G4xx_HAL_Driver/Inc/stm32g4xx_ll_tim.h ****   * @note Macro IS_TIM_CC3_INSTANCE(TIMx) can be used to check whether or not
3346:Drivers/STM32G4xx_HAL_Driver/Inc/stm32g4xx_ll_tim.h ****   *       output channel 3 is supported by a timer instance.
3347:Drivers/STM32G4xx_HAL_Driver/Inc/stm32g4xx_ll_tim.h ****   * @note If dithering is activated, pay attention to the returned value interpretation.
3348:Drivers/STM32G4xx_HAL_Driver/Inc/stm32g4xx_ll_tim.h ****   * @rmtoll CCR3         CCR3          LL_TIM_OC_GetCompareCH3
3349:Drivers/STM32G4xx_HAL_Driver/Inc/stm32g4xx_ll_tim.h ****   * @param  TIMx Timer instance
3350:Drivers/STM32G4xx_HAL_Driver/Inc/stm32g4xx_ll_tim.h ****   * @retval CompareValue (between Min_Data=0 and Max_Data=65535)
3351:Drivers/STM32G4xx_HAL_Driver/Inc/stm32g4xx_ll_tim.h ****   */
3352:Drivers/STM32G4xx_HAL_Driver/Inc/stm32g4xx_ll_tim.h **** __STATIC_INLINE uint32_t LL_TIM_OC_GetCompareCH3(const TIM_TypeDef *TIMx)
3353:Drivers/STM32G4xx_HAL_Driver/Inc/stm32g4xx_ll_tim.h **** {
3354:Drivers/STM32G4xx_HAL_Driver/Inc/stm32g4xx_ll_tim.h ****   return (uint32_t)(READ_REG(TIMx->CCR3));
3355:Drivers/STM32G4xx_HAL_Driver/Inc/stm32g4xx_ll_tim.h **** }
3356:Drivers/STM32G4xx_HAL_Driver/Inc/stm32g4xx_ll_tim.h **** 
3357:Drivers/STM32G4xx_HAL_Driver/Inc/stm32g4xx_ll_tim.h **** /**
3358:Drivers/STM32G4xx_HAL_Driver/Inc/stm32g4xx_ll_tim.h ****   * @brief  Get compare value (TIMx_CCR4) set for  output channel 4.
3359:Drivers/STM32G4xx_HAL_Driver/Inc/stm32g4xx_ll_tim.h ****   * @note In 32-bit timer implementations returned compare value can be between 0x00000000 and 0xFF
3360:Drivers/STM32G4xx_HAL_Driver/Inc/stm32g4xx_ll_tim.h ****   * @note Macro IS_TIM_32B_COUNTER_INSTANCE(TIMx) can be used to check
ARM GAS  /tmp/ccF6ITrB.s 			page 110


3361:Drivers/STM32G4xx_HAL_Driver/Inc/stm32g4xx_ll_tim.h ****   *       whether or not a timer instance supports a 32 bits counter.
3362:Drivers/STM32G4xx_HAL_Driver/Inc/stm32g4xx_ll_tim.h ****   * @note Macro IS_TIM_CC4_INSTANCE(TIMx) can be used to check whether or not
3363:Drivers/STM32G4xx_HAL_Driver/Inc/stm32g4xx_ll_tim.h ****   *       output channel 4 is supported by a timer instance.
3364:Drivers/STM32G4xx_HAL_Driver/Inc/stm32g4xx_ll_tim.h ****   * @note If dithering is activated, pay attention to the returned value interpretation.
3365:Drivers/STM32G4xx_HAL_Driver/Inc/stm32g4xx_ll_tim.h ****   * @rmtoll CCR4         CCR4          LL_TIM_OC_GetCompareCH4
3366:Drivers/STM32G4xx_HAL_Driver/Inc/stm32g4xx_ll_tim.h ****   * @param  TIMx Timer instance
3367:Drivers/STM32G4xx_HAL_Driver/Inc/stm32g4xx_ll_tim.h ****   * @retval CompareValue (between Min_Data=0 and Max_Data=65535)
3368:Drivers/STM32G4xx_HAL_Driver/Inc/stm32g4xx_ll_tim.h ****   */
3369:Drivers/STM32G4xx_HAL_Driver/Inc/stm32g4xx_ll_tim.h **** __STATIC_INLINE uint32_t LL_TIM_OC_GetCompareCH4(const TIM_TypeDef *TIMx)
3370:Drivers/STM32G4xx_HAL_Driver/Inc/stm32g4xx_ll_tim.h **** {
3371:Drivers/STM32G4xx_HAL_Driver/Inc/stm32g4xx_ll_tim.h ****   return (uint32_t)(READ_REG(TIMx->CCR4));
3372:Drivers/STM32G4xx_HAL_Driver/Inc/stm32g4xx_ll_tim.h **** }
3373:Drivers/STM32G4xx_HAL_Driver/Inc/stm32g4xx_ll_tim.h **** 
3374:Drivers/STM32G4xx_HAL_Driver/Inc/stm32g4xx_ll_tim.h **** /**
3375:Drivers/STM32G4xx_HAL_Driver/Inc/stm32g4xx_ll_tim.h ****   * @brief  Get compare value (TIMx_CCR5) set for  output channel 5.
3376:Drivers/STM32G4xx_HAL_Driver/Inc/stm32g4xx_ll_tim.h ****   * @note Macro IS_TIM_CC5_INSTANCE(TIMx) can be used to check whether or not
3377:Drivers/STM32G4xx_HAL_Driver/Inc/stm32g4xx_ll_tim.h ****   *       output channel 5 is supported by a timer instance.
3378:Drivers/STM32G4xx_HAL_Driver/Inc/stm32g4xx_ll_tim.h ****   * @note If dithering is activated, pay attention to the returned value interpretation.
3379:Drivers/STM32G4xx_HAL_Driver/Inc/stm32g4xx_ll_tim.h ****   * @rmtoll CCR5         CCR5          LL_TIM_OC_GetCompareCH5
3380:Drivers/STM32G4xx_HAL_Driver/Inc/stm32g4xx_ll_tim.h ****   * @param  TIMx Timer instance
3381:Drivers/STM32G4xx_HAL_Driver/Inc/stm32g4xx_ll_tim.h ****   * @retval CompareValue (between Min_Data=0 and Max_Data=65535)
3382:Drivers/STM32G4xx_HAL_Driver/Inc/stm32g4xx_ll_tim.h ****   */
3383:Drivers/STM32G4xx_HAL_Driver/Inc/stm32g4xx_ll_tim.h **** __STATIC_INLINE uint32_t LL_TIM_OC_GetCompareCH5(const TIM_TypeDef *TIMx)
3384:Drivers/STM32G4xx_HAL_Driver/Inc/stm32g4xx_ll_tim.h **** {
3385:Drivers/STM32G4xx_HAL_Driver/Inc/stm32g4xx_ll_tim.h ****   return (uint32_t)(READ_BIT(TIMx->CCR5, TIM_CCR5_CCR5));
3386:Drivers/STM32G4xx_HAL_Driver/Inc/stm32g4xx_ll_tim.h **** }
3387:Drivers/STM32G4xx_HAL_Driver/Inc/stm32g4xx_ll_tim.h **** 
3388:Drivers/STM32G4xx_HAL_Driver/Inc/stm32g4xx_ll_tim.h **** /**
3389:Drivers/STM32G4xx_HAL_Driver/Inc/stm32g4xx_ll_tim.h ****   * @brief  Get compare value (TIMx_CCR6) set for  output channel 6.
3390:Drivers/STM32G4xx_HAL_Driver/Inc/stm32g4xx_ll_tim.h ****   * @note Macro IS_TIM_CC6_INSTANCE(TIMx) can be used to check whether or not
3391:Drivers/STM32G4xx_HAL_Driver/Inc/stm32g4xx_ll_tim.h ****   *       output channel 6 is supported by a timer instance.
3392:Drivers/STM32G4xx_HAL_Driver/Inc/stm32g4xx_ll_tim.h ****   * @note If dithering is activated, pay attention to the returned value interpretation.
3393:Drivers/STM32G4xx_HAL_Driver/Inc/stm32g4xx_ll_tim.h ****   * @rmtoll CCR6         CCR6          LL_TIM_OC_GetCompareCH6
3394:Drivers/STM32G4xx_HAL_Driver/Inc/stm32g4xx_ll_tim.h ****   * @param  TIMx Timer instance
3395:Drivers/STM32G4xx_HAL_Driver/Inc/stm32g4xx_ll_tim.h ****   * @retval CompareValue (between Min_Data=0 and Max_Data=65535)
3396:Drivers/STM32G4xx_HAL_Driver/Inc/stm32g4xx_ll_tim.h ****   */
3397:Drivers/STM32G4xx_HAL_Driver/Inc/stm32g4xx_ll_tim.h **** __STATIC_INLINE uint32_t LL_TIM_OC_GetCompareCH6(const TIM_TypeDef *TIMx)
3398:Drivers/STM32G4xx_HAL_Driver/Inc/stm32g4xx_ll_tim.h **** {
3399:Drivers/STM32G4xx_HAL_Driver/Inc/stm32g4xx_ll_tim.h ****   return (uint32_t)(READ_REG(TIMx->CCR6));
3400:Drivers/STM32G4xx_HAL_Driver/Inc/stm32g4xx_ll_tim.h **** }
3401:Drivers/STM32G4xx_HAL_Driver/Inc/stm32g4xx_ll_tim.h **** 
3402:Drivers/STM32G4xx_HAL_Driver/Inc/stm32g4xx_ll_tim.h **** /**
3403:Drivers/STM32G4xx_HAL_Driver/Inc/stm32g4xx_ll_tim.h ****   * @brief  Select on which reference signal the OC5REF is combined to.
3404:Drivers/STM32G4xx_HAL_Driver/Inc/stm32g4xx_ll_tim.h ****   * @note Macro IS_TIM_COMBINED3PHASEPWM_INSTANCE(TIMx) can be used to check
3405:Drivers/STM32G4xx_HAL_Driver/Inc/stm32g4xx_ll_tim.h ****   *       whether or not a timer instance supports the combined 3-phase PWM mode.
3406:Drivers/STM32G4xx_HAL_Driver/Inc/stm32g4xx_ll_tim.h ****   * @rmtoll CCR5         GC5C3          LL_TIM_SetCH5CombinedChannels\n
3407:Drivers/STM32G4xx_HAL_Driver/Inc/stm32g4xx_ll_tim.h ****   *         CCR5         GC5C2          LL_TIM_SetCH5CombinedChannels\n
3408:Drivers/STM32G4xx_HAL_Driver/Inc/stm32g4xx_ll_tim.h ****   *         CCR5         GC5C1          LL_TIM_SetCH5CombinedChannels
3409:Drivers/STM32G4xx_HAL_Driver/Inc/stm32g4xx_ll_tim.h ****   * @param  TIMx Timer instance
3410:Drivers/STM32G4xx_HAL_Driver/Inc/stm32g4xx_ll_tim.h ****   * @param  GroupCH5 This parameter can be a combination of the following values:
3411:Drivers/STM32G4xx_HAL_Driver/Inc/stm32g4xx_ll_tim.h ****   *         @arg @ref LL_TIM_GROUPCH5_NONE
3412:Drivers/STM32G4xx_HAL_Driver/Inc/stm32g4xx_ll_tim.h ****   *         @arg @ref LL_TIM_GROUPCH5_OC1REFC
3413:Drivers/STM32G4xx_HAL_Driver/Inc/stm32g4xx_ll_tim.h ****   *         @arg @ref LL_TIM_GROUPCH5_OC2REFC
3414:Drivers/STM32G4xx_HAL_Driver/Inc/stm32g4xx_ll_tim.h ****   *         @arg @ref LL_TIM_GROUPCH5_OC3REFC
3415:Drivers/STM32G4xx_HAL_Driver/Inc/stm32g4xx_ll_tim.h ****   * @retval None
3416:Drivers/STM32G4xx_HAL_Driver/Inc/stm32g4xx_ll_tim.h ****   */
3417:Drivers/STM32G4xx_HAL_Driver/Inc/stm32g4xx_ll_tim.h **** __STATIC_INLINE void LL_TIM_SetCH5CombinedChannels(TIM_TypeDef *TIMx, uint32_t GroupCH5)
ARM GAS  /tmp/ccF6ITrB.s 			page 111


3418:Drivers/STM32G4xx_HAL_Driver/Inc/stm32g4xx_ll_tim.h **** {
3419:Drivers/STM32G4xx_HAL_Driver/Inc/stm32g4xx_ll_tim.h ****   MODIFY_REG(TIMx->CCR5, (TIM_CCR5_GC5C3 | TIM_CCR5_GC5C2 | TIM_CCR5_GC5C1), GroupCH5);
3420:Drivers/STM32G4xx_HAL_Driver/Inc/stm32g4xx_ll_tim.h **** }
3421:Drivers/STM32G4xx_HAL_Driver/Inc/stm32g4xx_ll_tim.h **** 
3422:Drivers/STM32G4xx_HAL_Driver/Inc/stm32g4xx_ll_tim.h **** /**
3423:Drivers/STM32G4xx_HAL_Driver/Inc/stm32g4xx_ll_tim.h ****   * @brief  Set the pulse on compare pulse width prescaler.
3424:Drivers/STM32G4xx_HAL_Driver/Inc/stm32g4xx_ll_tim.h ****   * @note Macro IS_TIM_PULSEONCOMPARE_INSTANCE(TIMx) can be used to check
3425:Drivers/STM32G4xx_HAL_Driver/Inc/stm32g4xx_ll_tim.h ****   *       whether or not the pulse on compare feature is supported by the timer
3426:Drivers/STM32G4xx_HAL_Driver/Inc/stm32g4xx_ll_tim.h ****   *       instance.
3427:Drivers/STM32G4xx_HAL_Driver/Inc/stm32g4xx_ll_tim.h ****   * @rmtoll ECR          PWPRSC           LL_TIM_OC_SetPulseWidthPrescaler
3428:Drivers/STM32G4xx_HAL_Driver/Inc/stm32g4xx_ll_tim.h ****   * @param  TIMx Timer instance
3429:Drivers/STM32G4xx_HAL_Driver/Inc/stm32g4xx_ll_tim.h ****   * @param  PulseWidthPrescaler This parameter can be one of the following values:
3430:Drivers/STM32G4xx_HAL_Driver/Inc/stm32g4xx_ll_tim.h ****   *         @arg @ref LL_TIM_PWPRSC_X1
3431:Drivers/STM32G4xx_HAL_Driver/Inc/stm32g4xx_ll_tim.h ****   *         @arg @ref LL_TIM_PWPRSC_X2
3432:Drivers/STM32G4xx_HAL_Driver/Inc/stm32g4xx_ll_tim.h ****   *         @arg @ref LL_TIM_PWPRSC_X4
3433:Drivers/STM32G4xx_HAL_Driver/Inc/stm32g4xx_ll_tim.h ****   *         @arg @ref LL_TIM_PWPRSC_X8
3434:Drivers/STM32G4xx_HAL_Driver/Inc/stm32g4xx_ll_tim.h ****   *         @arg @ref LL_TIM_PWPRSC_X16
3435:Drivers/STM32G4xx_HAL_Driver/Inc/stm32g4xx_ll_tim.h ****   *         @arg @ref LL_TIM_PWPRSC_X32
3436:Drivers/STM32G4xx_HAL_Driver/Inc/stm32g4xx_ll_tim.h ****   *         @arg @ref LL_TIM_PWPRSC_X64
3437:Drivers/STM32G4xx_HAL_Driver/Inc/stm32g4xx_ll_tim.h ****   *         @arg @ref LL_TIM_PWPRSC_X128
3438:Drivers/STM32G4xx_HAL_Driver/Inc/stm32g4xx_ll_tim.h ****   * @retval None
3439:Drivers/STM32G4xx_HAL_Driver/Inc/stm32g4xx_ll_tim.h ****   */
3440:Drivers/STM32G4xx_HAL_Driver/Inc/stm32g4xx_ll_tim.h **** __STATIC_INLINE void LL_TIM_OC_SetPulseWidthPrescaler(TIM_TypeDef *TIMx, uint32_t PulseWidthPrescal
3441:Drivers/STM32G4xx_HAL_Driver/Inc/stm32g4xx_ll_tim.h **** {
3442:Drivers/STM32G4xx_HAL_Driver/Inc/stm32g4xx_ll_tim.h ****   MODIFY_REG(TIMx->ECR, TIM_ECR_PWPRSC, PulseWidthPrescaler);
3443:Drivers/STM32G4xx_HAL_Driver/Inc/stm32g4xx_ll_tim.h **** }
3444:Drivers/STM32G4xx_HAL_Driver/Inc/stm32g4xx_ll_tim.h **** 
3445:Drivers/STM32G4xx_HAL_Driver/Inc/stm32g4xx_ll_tim.h **** /**
3446:Drivers/STM32G4xx_HAL_Driver/Inc/stm32g4xx_ll_tim.h ****   * @brief  Get the pulse on compare pulse width prescaler.
3447:Drivers/STM32G4xx_HAL_Driver/Inc/stm32g4xx_ll_tim.h ****   * @note Macro IS_TIM_PULSEONCOMPARE_INSTANCE(TIMx) can be used to check
3448:Drivers/STM32G4xx_HAL_Driver/Inc/stm32g4xx_ll_tim.h ****   *       whether or not the pulse on compare feature is supported by the timer
3449:Drivers/STM32G4xx_HAL_Driver/Inc/stm32g4xx_ll_tim.h ****   *       instance.
3450:Drivers/STM32G4xx_HAL_Driver/Inc/stm32g4xx_ll_tim.h ****   * @rmtoll ECR          PWPRSC           LL_TIM_OC_GetPulseWidthPrescaler
3451:Drivers/STM32G4xx_HAL_Driver/Inc/stm32g4xx_ll_tim.h ****   * @param  TIMx Timer instance
3452:Drivers/STM32G4xx_HAL_Driver/Inc/stm32g4xx_ll_tim.h ****   * @retval Returned value can be one of the following values:
3453:Drivers/STM32G4xx_HAL_Driver/Inc/stm32g4xx_ll_tim.h ****   *         @arg @ref LL_TIM_PWPRSC_X1
3454:Drivers/STM32G4xx_HAL_Driver/Inc/stm32g4xx_ll_tim.h ****   *         @arg @ref LL_TIM_PWPRSC_X2
3455:Drivers/STM32G4xx_HAL_Driver/Inc/stm32g4xx_ll_tim.h ****   *         @arg @ref LL_TIM_PWPRSC_X4
3456:Drivers/STM32G4xx_HAL_Driver/Inc/stm32g4xx_ll_tim.h ****   *         @arg @ref LL_TIM_PWPRSC_X8
3457:Drivers/STM32G4xx_HAL_Driver/Inc/stm32g4xx_ll_tim.h ****   *         @arg @ref LL_TIM_PWPRSC_X16
3458:Drivers/STM32G4xx_HAL_Driver/Inc/stm32g4xx_ll_tim.h ****   *         @arg @ref LL_TIM_PWPRSC_X32
3459:Drivers/STM32G4xx_HAL_Driver/Inc/stm32g4xx_ll_tim.h ****   *         @arg @ref LL_TIM_PWPRSC_X64
3460:Drivers/STM32G4xx_HAL_Driver/Inc/stm32g4xx_ll_tim.h ****   *         @arg @ref LL_TIM_PWPRSC_X128
3461:Drivers/STM32G4xx_HAL_Driver/Inc/stm32g4xx_ll_tim.h ****   */
3462:Drivers/STM32G4xx_HAL_Driver/Inc/stm32g4xx_ll_tim.h **** __STATIC_INLINE uint32_t LL_TIM_OC_GetPulseWidthPrescaler(const TIM_TypeDef *TIMx)
3463:Drivers/STM32G4xx_HAL_Driver/Inc/stm32g4xx_ll_tim.h **** {
3464:Drivers/STM32G4xx_HAL_Driver/Inc/stm32g4xx_ll_tim.h ****   return (uint32_t)(READ_BIT(TIMx->ECR, TIM_ECR_PWPRSC));
3465:Drivers/STM32G4xx_HAL_Driver/Inc/stm32g4xx_ll_tim.h **** }
3466:Drivers/STM32G4xx_HAL_Driver/Inc/stm32g4xx_ll_tim.h **** 
3467:Drivers/STM32G4xx_HAL_Driver/Inc/stm32g4xx_ll_tim.h **** /**
3468:Drivers/STM32G4xx_HAL_Driver/Inc/stm32g4xx_ll_tim.h ****   * @brief  Set the pulse on compare pulse width duration.
3469:Drivers/STM32G4xx_HAL_Driver/Inc/stm32g4xx_ll_tim.h ****   * @note Macro IS_TIM_PULSEONCOMPARE_INSTANCE(TIMx) can be used to check
3470:Drivers/STM32G4xx_HAL_Driver/Inc/stm32g4xx_ll_tim.h ****   *       whether or not the pulse on compare feature is supported by the timer
3471:Drivers/STM32G4xx_HAL_Driver/Inc/stm32g4xx_ll_tim.h ****   *       instance.
3472:Drivers/STM32G4xx_HAL_Driver/Inc/stm32g4xx_ll_tim.h ****   * @rmtoll ECR          PW           LL_TIM_OC_SetPulseWidth
3473:Drivers/STM32G4xx_HAL_Driver/Inc/stm32g4xx_ll_tim.h ****   * @param  TIMx Timer instance
3474:Drivers/STM32G4xx_HAL_Driver/Inc/stm32g4xx_ll_tim.h ****   * @param  PulseWidth This parameter can be between Min_Data=0 and Max_Data=255
ARM GAS  /tmp/ccF6ITrB.s 			page 112


3475:Drivers/STM32G4xx_HAL_Driver/Inc/stm32g4xx_ll_tim.h ****   * @retval None
3476:Drivers/STM32G4xx_HAL_Driver/Inc/stm32g4xx_ll_tim.h ****   */
3477:Drivers/STM32G4xx_HAL_Driver/Inc/stm32g4xx_ll_tim.h **** __STATIC_INLINE void LL_TIM_OC_SetPulseWidth(TIM_TypeDef *TIMx, uint32_t PulseWidth)
3478:Drivers/STM32G4xx_HAL_Driver/Inc/stm32g4xx_ll_tim.h **** {
3479:Drivers/STM32G4xx_HAL_Driver/Inc/stm32g4xx_ll_tim.h ****   MODIFY_REG(TIMx->ECR, TIM_ECR_PW, PulseWidth << TIM_ECR_PW_Pos);
3480:Drivers/STM32G4xx_HAL_Driver/Inc/stm32g4xx_ll_tim.h **** }
3481:Drivers/STM32G4xx_HAL_Driver/Inc/stm32g4xx_ll_tim.h **** 
3482:Drivers/STM32G4xx_HAL_Driver/Inc/stm32g4xx_ll_tim.h **** /**
3483:Drivers/STM32G4xx_HAL_Driver/Inc/stm32g4xx_ll_tim.h ****   * @brief  Get the pulse on compare pulse width duration.
3484:Drivers/STM32G4xx_HAL_Driver/Inc/stm32g4xx_ll_tim.h ****   * @note Macro IS_TIM_PULSEONCOMPARE_INSTANCE(TIMx) can be used to check
3485:Drivers/STM32G4xx_HAL_Driver/Inc/stm32g4xx_ll_tim.h ****   *       whether or not the pulse on compare feature is supported by the timer
3486:Drivers/STM32G4xx_HAL_Driver/Inc/stm32g4xx_ll_tim.h ****   *       instance.
3487:Drivers/STM32G4xx_HAL_Driver/Inc/stm32g4xx_ll_tim.h ****   * @rmtoll ECR          PW           LL_TIM_OC_GetPulseWidth
3488:Drivers/STM32G4xx_HAL_Driver/Inc/stm32g4xx_ll_tim.h ****   * @param  TIMx Timer instance
3489:Drivers/STM32G4xx_HAL_Driver/Inc/stm32g4xx_ll_tim.h ****   * @retval Returned value can be between Min_Data=0 and Max_Data=255:
3490:Drivers/STM32G4xx_HAL_Driver/Inc/stm32g4xx_ll_tim.h ****   */
3491:Drivers/STM32G4xx_HAL_Driver/Inc/stm32g4xx_ll_tim.h **** __STATIC_INLINE uint32_t LL_TIM_OC_GetPulseWidth(const TIM_TypeDef *TIMx)
3492:Drivers/STM32G4xx_HAL_Driver/Inc/stm32g4xx_ll_tim.h **** {
3493:Drivers/STM32G4xx_HAL_Driver/Inc/stm32g4xx_ll_tim.h ****   return (uint32_t)(READ_BIT(TIMx->ECR, TIM_ECR_PW));
3494:Drivers/STM32G4xx_HAL_Driver/Inc/stm32g4xx_ll_tim.h **** }
3495:Drivers/STM32G4xx_HAL_Driver/Inc/stm32g4xx_ll_tim.h **** 
3496:Drivers/STM32G4xx_HAL_Driver/Inc/stm32g4xx_ll_tim.h **** /**
3497:Drivers/STM32G4xx_HAL_Driver/Inc/stm32g4xx_ll_tim.h ****   * @}
3498:Drivers/STM32G4xx_HAL_Driver/Inc/stm32g4xx_ll_tim.h ****   */
3499:Drivers/STM32G4xx_HAL_Driver/Inc/stm32g4xx_ll_tim.h **** 
3500:Drivers/STM32G4xx_HAL_Driver/Inc/stm32g4xx_ll_tim.h **** /** @defgroup TIM_LL_EF_Input_Channel Input channel configuration
3501:Drivers/STM32G4xx_HAL_Driver/Inc/stm32g4xx_ll_tim.h ****   * @{
3502:Drivers/STM32G4xx_HAL_Driver/Inc/stm32g4xx_ll_tim.h ****   */
3503:Drivers/STM32G4xx_HAL_Driver/Inc/stm32g4xx_ll_tim.h **** /**
3504:Drivers/STM32G4xx_HAL_Driver/Inc/stm32g4xx_ll_tim.h ****   * @brief  Configure input channel.
3505:Drivers/STM32G4xx_HAL_Driver/Inc/stm32g4xx_ll_tim.h ****   * @rmtoll CCMR1        CC1S          LL_TIM_IC_Config\n
3506:Drivers/STM32G4xx_HAL_Driver/Inc/stm32g4xx_ll_tim.h ****   *         CCMR1        IC1PSC        LL_TIM_IC_Config\n
3507:Drivers/STM32G4xx_HAL_Driver/Inc/stm32g4xx_ll_tim.h ****   *         CCMR1        IC1F          LL_TIM_IC_Config\n
3508:Drivers/STM32G4xx_HAL_Driver/Inc/stm32g4xx_ll_tim.h ****   *         CCMR1        CC2S          LL_TIM_IC_Config\n
3509:Drivers/STM32G4xx_HAL_Driver/Inc/stm32g4xx_ll_tim.h ****   *         CCMR1        IC2PSC        LL_TIM_IC_Config\n
3510:Drivers/STM32G4xx_HAL_Driver/Inc/stm32g4xx_ll_tim.h ****   *         CCMR1        IC2F          LL_TIM_IC_Config\n
3511:Drivers/STM32G4xx_HAL_Driver/Inc/stm32g4xx_ll_tim.h ****   *         CCMR2        CC3S          LL_TIM_IC_Config\n
3512:Drivers/STM32G4xx_HAL_Driver/Inc/stm32g4xx_ll_tim.h ****   *         CCMR2        IC3PSC        LL_TIM_IC_Config\n
3513:Drivers/STM32G4xx_HAL_Driver/Inc/stm32g4xx_ll_tim.h ****   *         CCMR2        IC3F          LL_TIM_IC_Config\n
3514:Drivers/STM32G4xx_HAL_Driver/Inc/stm32g4xx_ll_tim.h ****   *         CCMR2        CC4S          LL_TIM_IC_Config\n
3515:Drivers/STM32G4xx_HAL_Driver/Inc/stm32g4xx_ll_tim.h ****   *         CCMR2        IC4PSC        LL_TIM_IC_Config\n
3516:Drivers/STM32G4xx_HAL_Driver/Inc/stm32g4xx_ll_tim.h ****   *         CCMR2        IC4F          LL_TIM_IC_Config\n
3517:Drivers/STM32G4xx_HAL_Driver/Inc/stm32g4xx_ll_tim.h ****   *         CCER         CC1P          LL_TIM_IC_Config\n
3518:Drivers/STM32G4xx_HAL_Driver/Inc/stm32g4xx_ll_tim.h ****   *         CCER         CC1NP         LL_TIM_IC_Config\n
3519:Drivers/STM32G4xx_HAL_Driver/Inc/stm32g4xx_ll_tim.h ****   *         CCER         CC2P          LL_TIM_IC_Config\n
3520:Drivers/STM32G4xx_HAL_Driver/Inc/stm32g4xx_ll_tim.h ****   *         CCER         CC2NP         LL_TIM_IC_Config\n
3521:Drivers/STM32G4xx_HAL_Driver/Inc/stm32g4xx_ll_tim.h ****   *         CCER         CC3P          LL_TIM_IC_Config\n
3522:Drivers/STM32G4xx_HAL_Driver/Inc/stm32g4xx_ll_tim.h ****   *         CCER         CC3NP         LL_TIM_IC_Config\n
3523:Drivers/STM32G4xx_HAL_Driver/Inc/stm32g4xx_ll_tim.h ****   *         CCER         CC4P          LL_TIM_IC_Config\n
3524:Drivers/STM32G4xx_HAL_Driver/Inc/stm32g4xx_ll_tim.h ****   *         CCER         CC4NP         LL_TIM_IC_Config
3525:Drivers/STM32G4xx_HAL_Driver/Inc/stm32g4xx_ll_tim.h ****   * @param  TIMx Timer instance
3526:Drivers/STM32G4xx_HAL_Driver/Inc/stm32g4xx_ll_tim.h ****   * @param  Channel This parameter can be one of the following values:
3527:Drivers/STM32G4xx_HAL_Driver/Inc/stm32g4xx_ll_tim.h ****   *         @arg @ref LL_TIM_CHANNEL_CH1
3528:Drivers/STM32G4xx_HAL_Driver/Inc/stm32g4xx_ll_tim.h ****   *         @arg @ref LL_TIM_CHANNEL_CH2
3529:Drivers/STM32G4xx_HAL_Driver/Inc/stm32g4xx_ll_tim.h ****   *         @arg @ref LL_TIM_CHANNEL_CH3
3530:Drivers/STM32G4xx_HAL_Driver/Inc/stm32g4xx_ll_tim.h ****   *         @arg @ref LL_TIM_CHANNEL_CH4
3531:Drivers/STM32G4xx_HAL_Driver/Inc/stm32g4xx_ll_tim.h ****   * @param  Configuration This parameter must be a combination of all the following values:
ARM GAS  /tmp/ccF6ITrB.s 			page 113


3532:Drivers/STM32G4xx_HAL_Driver/Inc/stm32g4xx_ll_tim.h ****   *         @arg @ref LL_TIM_ACTIVEINPUT_DIRECTTI or @ref LL_TIM_ACTIVEINPUT_INDIRECTTI or @ref LL_
3533:Drivers/STM32G4xx_HAL_Driver/Inc/stm32g4xx_ll_tim.h ****   *         @arg @ref LL_TIM_ICPSC_DIV1 or ... or @ref LL_TIM_ICPSC_DIV8
3534:Drivers/STM32G4xx_HAL_Driver/Inc/stm32g4xx_ll_tim.h ****   *         @arg @ref LL_TIM_IC_FILTER_FDIV1 or ... or @ref LL_TIM_IC_FILTER_FDIV32_N8
3535:Drivers/STM32G4xx_HAL_Driver/Inc/stm32g4xx_ll_tim.h ****   *         @arg @ref LL_TIM_IC_POLARITY_RISING or @ref LL_TIM_IC_POLARITY_FALLING or @ref LL_TIM_I
3536:Drivers/STM32G4xx_HAL_Driver/Inc/stm32g4xx_ll_tim.h ****   * @retval None
3537:Drivers/STM32G4xx_HAL_Driver/Inc/stm32g4xx_ll_tim.h ****   */
3538:Drivers/STM32G4xx_HAL_Driver/Inc/stm32g4xx_ll_tim.h **** __STATIC_INLINE void LL_TIM_IC_Config(TIM_TypeDef *TIMx, uint32_t Channel, uint32_t Configuration)
3539:Drivers/STM32G4xx_HAL_Driver/Inc/stm32g4xx_ll_tim.h **** {
3540:Drivers/STM32G4xx_HAL_Driver/Inc/stm32g4xx_ll_tim.h ****   uint8_t iChannel = TIM_GET_CHANNEL_INDEX(Channel);
3541:Drivers/STM32G4xx_HAL_Driver/Inc/stm32g4xx_ll_tim.h ****   __IO uint32_t *pReg = (__IO uint32_t *)((uint32_t)((uint32_t)(&TIMx->CCMR1) + OFFSET_TAB_CCMRx[iC
3542:Drivers/STM32G4xx_HAL_Driver/Inc/stm32g4xx_ll_tim.h ****   MODIFY_REG(*pReg, ((TIM_CCMR1_IC1F | TIM_CCMR1_IC1PSC | TIM_CCMR1_CC1S) << SHIFT_TAB_ICxx[iChanne
3543:Drivers/STM32G4xx_HAL_Driver/Inc/stm32g4xx_ll_tim.h ****              ((Configuration >> 16U) & (TIM_CCMR1_IC1F | TIM_CCMR1_IC1PSC | TIM_CCMR1_CC1S))       
3544:Drivers/STM32G4xx_HAL_Driver/Inc/stm32g4xx_ll_tim.h ****              << SHIFT_TAB_ICxx[iChannel]);
3545:Drivers/STM32G4xx_HAL_Driver/Inc/stm32g4xx_ll_tim.h ****   MODIFY_REG(TIMx->CCER, ((TIM_CCER_CC1NP | TIM_CCER_CC1P) << SHIFT_TAB_CCxP[iChannel]),
3546:Drivers/STM32G4xx_HAL_Driver/Inc/stm32g4xx_ll_tim.h ****              (Configuration & (TIM_CCER_CC1NP | TIM_CCER_CC1P)) << SHIFT_TAB_CCxP[iChannel]);
3547:Drivers/STM32G4xx_HAL_Driver/Inc/stm32g4xx_ll_tim.h **** }
3548:Drivers/STM32G4xx_HAL_Driver/Inc/stm32g4xx_ll_tim.h **** 
3549:Drivers/STM32G4xx_HAL_Driver/Inc/stm32g4xx_ll_tim.h **** /**
3550:Drivers/STM32G4xx_HAL_Driver/Inc/stm32g4xx_ll_tim.h ****   * @brief  Set the active input.
3551:Drivers/STM32G4xx_HAL_Driver/Inc/stm32g4xx_ll_tim.h ****   * @rmtoll CCMR1        CC1S          LL_TIM_IC_SetActiveInput\n
3552:Drivers/STM32G4xx_HAL_Driver/Inc/stm32g4xx_ll_tim.h ****   *         CCMR1        CC2S          LL_TIM_IC_SetActiveInput\n
3553:Drivers/STM32G4xx_HAL_Driver/Inc/stm32g4xx_ll_tim.h ****   *         CCMR2        CC3S          LL_TIM_IC_SetActiveInput\n
3554:Drivers/STM32G4xx_HAL_Driver/Inc/stm32g4xx_ll_tim.h ****   *         CCMR2        CC4S          LL_TIM_IC_SetActiveInput
3555:Drivers/STM32G4xx_HAL_Driver/Inc/stm32g4xx_ll_tim.h ****   * @param  TIMx Timer instance
3556:Drivers/STM32G4xx_HAL_Driver/Inc/stm32g4xx_ll_tim.h ****   * @param  Channel This parameter can be one of the following values:
3557:Drivers/STM32G4xx_HAL_Driver/Inc/stm32g4xx_ll_tim.h ****   *         @arg @ref LL_TIM_CHANNEL_CH1
3558:Drivers/STM32G4xx_HAL_Driver/Inc/stm32g4xx_ll_tim.h ****   *         @arg @ref LL_TIM_CHANNEL_CH2
3559:Drivers/STM32G4xx_HAL_Driver/Inc/stm32g4xx_ll_tim.h ****   *         @arg @ref LL_TIM_CHANNEL_CH3
3560:Drivers/STM32G4xx_HAL_Driver/Inc/stm32g4xx_ll_tim.h ****   *         @arg @ref LL_TIM_CHANNEL_CH4
3561:Drivers/STM32G4xx_HAL_Driver/Inc/stm32g4xx_ll_tim.h ****   * @param  ICActiveInput This parameter can be one of the following values:
3562:Drivers/STM32G4xx_HAL_Driver/Inc/stm32g4xx_ll_tim.h ****   *         @arg @ref LL_TIM_ACTIVEINPUT_DIRECTTI
3563:Drivers/STM32G4xx_HAL_Driver/Inc/stm32g4xx_ll_tim.h ****   *         @arg @ref LL_TIM_ACTIVEINPUT_INDIRECTTI
3564:Drivers/STM32G4xx_HAL_Driver/Inc/stm32g4xx_ll_tim.h ****   *         @arg @ref LL_TIM_ACTIVEINPUT_TRC
3565:Drivers/STM32G4xx_HAL_Driver/Inc/stm32g4xx_ll_tim.h ****   * @retval None
3566:Drivers/STM32G4xx_HAL_Driver/Inc/stm32g4xx_ll_tim.h ****   */
3567:Drivers/STM32G4xx_HAL_Driver/Inc/stm32g4xx_ll_tim.h **** __STATIC_INLINE void LL_TIM_IC_SetActiveInput(TIM_TypeDef *TIMx, uint32_t Channel, uint32_t ICActiv
3568:Drivers/STM32G4xx_HAL_Driver/Inc/stm32g4xx_ll_tim.h **** {
3569:Drivers/STM32G4xx_HAL_Driver/Inc/stm32g4xx_ll_tim.h ****   uint8_t iChannel = TIM_GET_CHANNEL_INDEX(Channel);
3570:Drivers/STM32G4xx_HAL_Driver/Inc/stm32g4xx_ll_tim.h ****   __IO uint32_t *pReg = (__IO uint32_t *)((uint32_t)((uint32_t)(&TIMx->CCMR1) + OFFSET_TAB_CCMRx[iC
3571:Drivers/STM32G4xx_HAL_Driver/Inc/stm32g4xx_ll_tim.h ****   MODIFY_REG(*pReg, ((TIM_CCMR1_CC1S) << SHIFT_TAB_ICxx[iChannel]), (ICActiveInput >> 16U) << SHIFT
3572:Drivers/STM32G4xx_HAL_Driver/Inc/stm32g4xx_ll_tim.h **** }
3573:Drivers/STM32G4xx_HAL_Driver/Inc/stm32g4xx_ll_tim.h **** 
3574:Drivers/STM32G4xx_HAL_Driver/Inc/stm32g4xx_ll_tim.h **** /**
3575:Drivers/STM32G4xx_HAL_Driver/Inc/stm32g4xx_ll_tim.h ****   * @brief  Get the current active input.
3576:Drivers/STM32G4xx_HAL_Driver/Inc/stm32g4xx_ll_tim.h ****   * @rmtoll CCMR1        CC1S          LL_TIM_IC_GetActiveInput\n
3577:Drivers/STM32G4xx_HAL_Driver/Inc/stm32g4xx_ll_tim.h ****   *         CCMR1        CC2S          LL_TIM_IC_GetActiveInput\n
3578:Drivers/STM32G4xx_HAL_Driver/Inc/stm32g4xx_ll_tim.h ****   *         CCMR2        CC3S          LL_TIM_IC_GetActiveInput\n
3579:Drivers/STM32G4xx_HAL_Driver/Inc/stm32g4xx_ll_tim.h ****   *         CCMR2        CC4S          LL_TIM_IC_GetActiveInput
3580:Drivers/STM32G4xx_HAL_Driver/Inc/stm32g4xx_ll_tim.h ****   * @param  TIMx Timer instance
3581:Drivers/STM32G4xx_HAL_Driver/Inc/stm32g4xx_ll_tim.h ****   * @param  Channel This parameter can be one of the following values:
3582:Drivers/STM32G4xx_HAL_Driver/Inc/stm32g4xx_ll_tim.h ****   *         @arg @ref LL_TIM_CHANNEL_CH1
3583:Drivers/STM32G4xx_HAL_Driver/Inc/stm32g4xx_ll_tim.h ****   *         @arg @ref LL_TIM_CHANNEL_CH2
3584:Drivers/STM32G4xx_HAL_Driver/Inc/stm32g4xx_ll_tim.h ****   *         @arg @ref LL_TIM_CHANNEL_CH3
3585:Drivers/STM32G4xx_HAL_Driver/Inc/stm32g4xx_ll_tim.h ****   *         @arg @ref LL_TIM_CHANNEL_CH4
3586:Drivers/STM32G4xx_HAL_Driver/Inc/stm32g4xx_ll_tim.h ****   * @retval Returned value can be one of the following values:
3587:Drivers/STM32G4xx_HAL_Driver/Inc/stm32g4xx_ll_tim.h ****   *         @arg @ref LL_TIM_ACTIVEINPUT_DIRECTTI
3588:Drivers/STM32G4xx_HAL_Driver/Inc/stm32g4xx_ll_tim.h ****   *         @arg @ref LL_TIM_ACTIVEINPUT_INDIRECTTI
ARM GAS  /tmp/ccF6ITrB.s 			page 114


3589:Drivers/STM32G4xx_HAL_Driver/Inc/stm32g4xx_ll_tim.h ****   *         @arg @ref LL_TIM_ACTIVEINPUT_TRC
3590:Drivers/STM32G4xx_HAL_Driver/Inc/stm32g4xx_ll_tim.h ****   */
3591:Drivers/STM32G4xx_HAL_Driver/Inc/stm32g4xx_ll_tim.h **** __STATIC_INLINE uint32_t LL_TIM_IC_GetActiveInput(const TIM_TypeDef *TIMx, uint32_t Channel)
3592:Drivers/STM32G4xx_HAL_Driver/Inc/stm32g4xx_ll_tim.h **** {
3593:Drivers/STM32G4xx_HAL_Driver/Inc/stm32g4xx_ll_tim.h ****   uint8_t iChannel = TIM_GET_CHANNEL_INDEX(Channel);
3594:Drivers/STM32G4xx_HAL_Driver/Inc/stm32g4xx_ll_tim.h ****   const __IO uint32_t *pReg = (__IO uint32_t *)((uint32_t)((uint32_t)(&TIMx->CCMR1) + OFFSET_TAB_CC
3595:Drivers/STM32G4xx_HAL_Driver/Inc/stm32g4xx_ll_tim.h ****   return ((READ_BIT(*pReg, ((TIM_CCMR1_CC1S) << SHIFT_TAB_ICxx[iChannel])) >> SHIFT_TAB_ICxx[iChann
3596:Drivers/STM32G4xx_HAL_Driver/Inc/stm32g4xx_ll_tim.h **** }
3597:Drivers/STM32G4xx_HAL_Driver/Inc/stm32g4xx_ll_tim.h **** 
3598:Drivers/STM32G4xx_HAL_Driver/Inc/stm32g4xx_ll_tim.h **** /**
3599:Drivers/STM32G4xx_HAL_Driver/Inc/stm32g4xx_ll_tim.h ****   * @brief  Set the prescaler of input channel.
3600:Drivers/STM32G4xx_HAL_Driver/Inc/stm32g4xx_ll_tim.h ****   * @rmtoll CCMR1        IC1PSC        LL_TIM_IC_SetPrescaler\n
3601:Drivers/STM32G4xx_HAL_Driver/Inc/stm32g4xx_ll_tim.h ****   *         CCMR1        IC2PSC        LL_TIM_IC_SetPrescaler\n
3602:Drivers/STM32G4xx_HAL_Driver/Inc/stm32g4xx_ll_tim.h ****   *         CCMR2        IC3PSC        LL_TIM_IC_SetPrescaler\n
3603:Drivers/STM32G4xx_HAL_Driver/Inc/stm32g4xx_ll_tim.h ****   *         CCMR2        IC4PSC        LL_TIM_IC_SetPrescaler
3604:Drivers/STM32G4xx_HAL_Driver/Inc/stm32g4xx_ll_tim.h ****   * @param  TIMx Timer instance
3605:Drivers/STM32G4xx_HAL_Driver/Inc/stm32g4xx_ll_tim.h ****   * @param  Channel This parameter can be one of the following values:
3606:Drivers/STM32G4xx_HAL_Driver/Inc/stm32g4xx_ll_tim.h ****   *         @arg @ref LL_TIM_CHANNEL_CH1
3607:Drivers/STM32G4xx_HAL_Driver/Inc/stm32g4xx_ll_tim.h ****   *         @arg @ref LL_TIM_CHANNEL_CH2
3608:Drivers/STM32G4xx_HAL_Driver/Inc/stm32g4xx_ll_tim.h ****   *         @arg @ref LL_TIM_CHANNEL_CH3
3609:Drivers/STM32G4xx_HAL_Driver/Inc/stm32g4xx_ll_tim.h ****   *         @arg @ref LL_TIM_CHANNEL_CH4
3610:Drivers/STM32G4xx_HAL_Driver/Inc/stm32g4xx_ll_tim.h ****   * @param  ICPrescaler This parameter can be one of the following values:
3611:Drivers/STM32G4xx_HAL_Driver/Inc/stm32g4xx_ll_tim.h ****   *         @arg @ref LL_TIM_ICPSC_DIV1
3612:Drivers/STM32G4xx_HAL_Driver/Inc/stm32g4xx_ll_tim.h ****   *         @arg @ref LL_TIM_ICPSC_DIV2
3613:Drivers/STM32G4xx_HAL_Driver/Inc/stm32g4xx_ll_tim.h ****   *         @arg @ref LL_TIM_ICPSC_DIV4
3614:Drivers/STM32G4xx_HAL_Driver/Inc/stm32g4xx_ll_tim.h ****   *         @arg @ref LL_TIM_ICPSC_DIV8
3615:Drivers/STM32G4xx_HAL_Driver/Inc/stm32g4xx_ll_tim.h ****   * @retval None
3616:Drivers/STM32G4xx_HAL_Driver/Inc/stm32g4xx_ll_tim.h ****   */
3617:Drivers/STM32G4xx_HAL_Driver/Inc/stm32g4xx_ll_tim.h **** __STATIC_INLINE void LL_TIM_IC_SetPrescaler(TIM_TypeDef *TIMx, uint32_t Channel, uint32_t ICPrescal
3618:Drivers/STM32G4xx_HAL_Driver/Inc/stm32g4xx_ll_tim.h **** {
3619:Drivers/STM32G4xx_HAL_Driver/Inc/stm32g4xx_ll_tim.h ****   uint8_t iChannel = TIM_GET_CHANNEL_INDEX(Channel);
3620:Drivers/STM32G4xx_HAL_Driver/Inc/stm32g4xx_ll_tim.h ****   __IO uint32_t *pReg = (__IO uint32_t *)((uint32_t)((uint32_t)(&TIMx->CCMR1) + OFFSET_TAB_CCMRx[iC
3621:Drivers/STM32G4xx_HAL_Driver/Inc/stm32g4xx_ll_tim.h ****   MODIFY_REG(*pReg, ((TIM_CCMR1_IC1PSC) << SHIFT_TAB_ICxx[iChannel]), (ICPrescaler >> 16U) << SHIFT
3622:Drivers/STM32G4xx_HAL_Driver/Inc/stm32g4xx_ll_tim.h **** }
3623:Drivers/STM32G4xx_HAL_Driver/Inc/stm32g4xx_ll_tim.h **** 
3624:Drivers/STM32G4xx_HAL_Driver/Inc/stm32g4xx_ll_tim.h **** /**
3625:Drivers/STM32G4xx_HAL_Driver/Inc/stm32g4xx_ll_tim.h ****   * @brief  Get the current prescaler value acting on an  input channel.
3626:Drivers/STM32G4xx_HAL_Driver/Inc/stm32g4xx_ll_tim.h ****   * @rmtoll CCMR1        IC1PSC        LL_TIM_IC_GetPrescaler\n
3627:Drivers/STM32G4xx_HAL_Driver/Inc/stm32g4xx_ll_tim.h ****   *         CCMR1        IC2PSC        LL_TIM_IC_GetPrescaler\n
3628:Drivers/STM32G4xx_HAL_Driver/Inc/stm32g4xx_ll_tim.h ****   *         CCMR2        IC3PSC        LL_TIM_IC_GetPrescaler\n
3629:Drivers/STM32G4xx_HAL_Driver/Inc/stm32g4xx_ll_tim.h ****   *         CCMR2        IC4PSC        LL_TIM_IC_GetPrescaler
3630:Drivers/STM32G4xx_HAL_Driver/Inc/stm32g4xx_ll_tim.h ****   * @param  TIMx Timer instance
3631:Drivers/STM32G4xx_HAL_Driver/Inc/stm32g4xx_ll_tim.h ****   * @param  Channel This parameter can be one of the following values:
3632:Drivers/STM32G4xx_HAL_Driver/Inc/stm32g4xx_ll_tim.h ****   *         @arg @ref LL_TIM_CHANNEL_CH1
3633:Drivers/STM32G4xx_HAL_Driver/Inc/stm32g4xx_ll_tim.h ****   *         @arg @ref LL_TIM_CHANNEL_CH2
3634:Drivers/STM32G4xx_HAL_Driver/Inc/stm32g4xx_ll_tim.h ****   *         @arg @ref LL_TIM_CHANNEL_CH3
3635:Drivers/STM32G4xx_HAL_Driver/Inc/stm32g4xx_ll_tim.h ****   *         @arg @ref LL_TIM_CHANNEL_CH4
3636:Drivers/STM32G4xx_HAL_Driver/Inc/stm32g4xx_ll_tim.h ****   * @retval Returned value can be one of the following values:
3637:Drivers/STM32G4xx_HAL_Driver/Inc/stm32g4xx_ll_tim.h ****   *         @arg @ref LL_TIM_ICPSC_DIV1
3638:Drivers/STM32G4xx_HAL_Driver/Inc/stm32g4xx_ll_tim.h ****   *         @arg @ref LL_TIM_ICPSC_DIV2
3639:Drivers/STM32G4xx_HAL_Driver/Inc/stm32g4xx_ll_tim.h ****   *         @arg @ref LL_TIM_ICPSC_DIV4
3640:Drivers/STM32G4xx_HAL_Driver/Inc/stm32g4xx_ll_tim.h ****   *         @arg @ref LL_TIM_ICPSC_DIV8
3641:Drivers/STM32G4xx_HAL_Driver/Inc/stm32g4xx_ll_tim.h ****   */
3642:Drivers/STM32G4xx_HAL_Driver/Inc/stm32g4xx_ll_tim.h **** __STATIC_INLINE uint32_t LL_TIM_IC_GetPrescaler(const TIM_TypeDef *TIMx, uint32_t Channel)
3643:Drivers/STM32G4xx_HAL_Driver/Inc/stm32g4xx_ll_tim.h **** {
3644:Drivers/STM32G4xx_HAL_Driver/Inc/stm32g4xx_ll_tim.h ****   uint8_t iChannel = TIM_GET_CHANNEL_INDEX(Channel);
3645:Drivers/STM32G4xx_HAL_Driver/Inc/stm32g4xx_ll_tim.h ****   const __IO uint32_t *pReg = (__IO uint32_t *)((uint32_t)((uint32_t)(&TIMx->CCMR1) + OFFSET_TAB_CC
ARM GAS  /tmp/ccF6ITrB.s 			page 115


3646:Drivers/STM32G4xx_HAL_Driver/Inc/stm32g4xx_ll_tim.h ****   return ((READ_BIT(*pReg, ((TIM_CCMR1_IC1PSC) << SHIFT_TAB_ICxx[iChannel])) >> SHIFT_TAB_ICxx[iCha
3647:Drivers/STM32G4xx_HAL_Driver/Inc/stm32g4xx_ll_tim.h **** }
3648:Drivers/STM32G4xx_HAL_Driver/Inc/stm32g4xx_ll_tim.h **** 
3649:Drivers/STM32G4xx_HAL_Driver/Inc/stm32g4xx_ll_tim.h **** /**
3650:Drivers/STM32G4xx_HAL_Driver/Inc/stm32g4xx_ll_tim.h ****   * @brief  Set the input filter duration.
3651:Drivers/STM32G4xx_HAL_Driver/Inc/stm32g4xx_ll_tim.h ****   * @rmtoll CCMR1        IC1F          LL_TIM_IC_SetFilter\n
3652:Drivers/STM32G4xx_HAL_Driver/Inc/stm32g4xx_ll_tim.h ****   *         CCMR1        IC2F          LL_TIM_IC_SetFilter\n
3653:Drivers/STM32G4xx_HAL_Driver/Inc/stm32g4xx_ll_tim.h ****   *         CCMR2        IC3F          LL_TIM_IC_SetFilter\n
3654:Drivers/STM32G4xx_HAL_Driver/Inc/stm32g4xx_ll_tim.h ****   *         CCMR2        IC4F          LL_TIM_IC_SetFilter
3655:Drivers/STM32G4xx_HAL_Driver/Inc/stm32g4xx_ll_tim.h ****   * @param  TIMx Timer instance
3656:Drivers/STM32G4xx_HAL_Driver/Inc/stm32g4xx_ll_tim.h ****   * @param  Channel This parameter can be one of the following values:
3657:Drivers/STM32G4xx_HAL_Driver/Inc/stm32g4xx_ll_tim.h ****   *         @arg @ref LL_TIM_CHANNEL_CH1
3658:Drivers/STM32G4xx_HAL_Driver/Inc/stm32g4xx_ll_tim.h ****   *         @arg @ref LL_TIM_CHANNEL_CH2
3659:Drivers/STM32G4xx_HAL_Driver/Inc/stm32g4xx_ll_tim.h ****   *         @arg @ref LL_TIM_CHANNEL_CH3
3660:Drivers/STM32G4xx_HAL_Driver/Inc/stm32g4xx_ll_tim.h ****   *         @arg @ref LL_TIM_CHANNEL_CH4
3661:Drivers/STM32G4xx_HAL_Driver/Inc/stm32g4xx_ll_tim.h ****   * @param  ICFilter This parameter can be one of the following values:
3662:Drivers/STM32G4xx_HAL_Driver/Inc/stm32g4xx_ll_tim.h ****   *         @arg @ref LL_TIM_IC_FILTER_FDIV1
3663:Drivers/STM32G4xx_HAL_Driver/Inc/stm32g4xx_ll_tim.h ****   *         @arg @ref LL_TIM_IC_FILTER_FDIV1_N2
3664:Drivers/STM32G4xx_HAL_Driver/Inc/stm32g4xx_ll_tim.h ****   *         @arg @ref LL_TIM_IC_FILTER_FDIV1_N4
3665:Drivers/STM32G4xx_HAL_Driver/Inc/stm32g4xx_ll_tim.h ****   *         @arg @ref LL_TIM_IC_FILTER_FDIV1_N8
3666:Drivers/STM32G4xx_HAL_Driver/Inc/stm32g4xx_ll_tim.h ****   *         @arg @ref LL_TIM_IC_FILTER_FDIV2_N6
3667:Drivers/STM32G4xx_HAL_Driver/Inc/stm32g4xx_ll_tim.h ****   *         @arg @ref LL_TIM_IC_FILTER_FDIV2_N8
3668:Drivers/STM32G4xx_HAL_Driver/Inc/stm32g4xx_ll_tim.h ****   *         @arg @ref LL_TIM_IC_FILTER_FDIV4_N6
3669:Drivers/STM32G4xx_HAL_Driver/Inc/stm32g4xx_ll_tim.h ****   *         @arg @ref LL_TIM_IC_FILTER_FDIV4_N8
3670:Drivers/STM32G4xx_HAL_Driver/Inc/stm32g4xx_ll_tim.h ****   *         @arg @ref LL_TIM_IC_FILTER_FDIV8_N6
3671:Drivers/STM32G4xx_HAL_Driver/Inc/stm32g4xx_ll_tim.h ****   *         @arg @ref LL_TIM_IC_FILTER_FDIV8_N8
3672:Drivers/STM32G4xx_HAL_Driver/Inc/stm32g4xx_ll_tim.h ****   *         @arg @ref LL_TIM_IC_FILTER_FDIV16_N5
3673:Drivers/STM32G4xx_HAL_Driver/Inc/stm32g4xx_ll_tim.h ****   *         @arg @ref LL_TIM_IC_FILTER_FDIV16_N6
3674:Drivers/STM32G4xx_HAL_Driver/Inc/stm32g4xx_ll_tim.h ****   *         @arg @ref LL_TIM_IC_FILTER_FDIV16_N8
3675:Drivers/STM32G4xx_HAL_Driver/Inc/stm32g4xx_ll_tim.h ****   *         @arg @ref LL_TIM_IC_FILTER_FDIV32_N5
3676:Drivers/STM32G4xx_HAL_Driver/Inc/stm32g4xx_ll_tim.h ****   *         @arg @ref LL_TIM_IC_FILTER_FDIV32_N6
3677:Drivers/STM32G4xx_HAL_Driver/Inc/stm32g4xx_ll_tim.h ****   *         @arg @ref LL_TIM_IC_FILTER_FDIV32_N8
3678:Drivers/STM32G4xx_HAL_Driver/Inc/stm32g4xx_ll_tim.h ****   * @retval None
3679:Drivers/STM32G4xx_HAL_Driver/Inc/stm32g4xx_ll_tim.h ****   */
3680:Drivers/STM32G4xx_HAL_Driver/Inc/stm32g4xx_ll_tim.h **** __STATIC_INLINE void LL_TIM_IC_SetFilter(TIM_TypeDef *TIMx, uint32_t Channel, uint32_t ICFilter)
3681:Drivers/STM32G4xx_HAL_Driver/Inc/stm32g4xx_ll_tim.h **** {
3682:Drivers/STM32G4xx_HAL_Driver/Inc/stm32g4xx_ll_tim.h ****   uint8_t iChannel = TIM_GET_CHANNEL_INDEX(Channel);
3683:Drivers/STM32G4xx_HAL_Driver/Inc/stm32g4xx_ll_tim.h ****   __IO uint32_t *pReg = (__IO uint32_t *)((uint32_t)((uint32_t)(&TIMx->CCMR1) + OFFSET_TAB_CCMRx[iC
3684:Drivers/STM32G4xx_HAL_Driver/Inc/stm32g4xx_ll_tim.h ****   MODIFY_REG(*pReg, ((TIM_CCMR1_IC1F) << SHIFT_TAB_ICxx[iChannel]), (ICFilter >> 16U) << SHIFT_TAB_
3685:Drivers/STM32G4xx_HAL_Driver/Inc/stm32g4xx_ll_tim.h **** }
3686:Drivers/STM32G4xx_HAL_Driver/Inc/stm32g4xx_ll_tim.h **** 
3687:Drivers/STM32G4xx_HAL_Driver/Inc/stm32g4xx_ll_tim.h **** /**
3688:Drivers/STM32G4xx_HAL_Driver/Inc/stm32g4xx_ll_tim.h ****   * @brief  Get the input filter duration.
3689:Drivers/STM32G4xx_HAL_Driver/Inc/stm32g4xx_ll_tim.h ****   * @rmtoll CCMR1        IC1F          LL_TIM_IC_GetFilter\n
3690:Drivers/STM32G4xx_HAL_Driver/Inc/stm32g4xx_ll_tim.h ****   *         CCMR1        IC2F          LL_TIM_IC_GetFilter\n
3691:Drivers/STM32G4xx_HAL_Driver/Inc/stm32g4xx_ll_tim.h ****   *         CCMR2        IC3F          LL_TIM_IC_GetFilter\n
3692:Drivers/STM32G4xx_HAL_Driver/Inc/stm32g4xx_ll_tim.h ****   *         CCMR2        IC4F          LL_TIM_IC_GetFilter
3693:Drivers/STM32G4xx_HAL_Driver/Inc/stm32g4xx_ll_tim.h ****   * @param  TIMx Timer instance
3694:Drivers/STM32G4xx_HAL_Driver/Inc/stm32g4xx_ll_tim.h ****   * @param  Channel This parameter can be one of the following values:
3695:Drivers/STM32G4xx_HAL_Driver/Inc/stm32g4xx_ll_tim.h ****   *         @arg @ref LL_TIM_CHANNEL_CH1
3696:Drivers/STM32G4xx_HAL_Driver/Inc/stm32g4xx_ll_tim.h ****   *         @arg @ref LL_TIM_CHANNEL_CH2
3697:Drivers/STM32G4xx_HAL_Driver/Inc/stm32g4xx_ll_tim.h ****   *         @arg @ref LL_TIM_CHANNEL_CH3
3698:Drivers/STM32G4xx_HAL_Driver/Inc/stm32g4xx_ll_tim.h ****   *         @arg @ref LL_TIM_CHANNEL_CH4
3699:Drivers/STM32G4xx_HAL_Driver/Inc/stm32g4xx_ll_tim.h ****   * @retval Returned value can be one of the following values:
3700:Drivers/STM32G4xx_HAL_Driver/Inc/stm32g4xx_ll_tim.h ****   *         @arg @ref LL_TIM_IC_FILTER_FDIV1
3701:Drivers/STM32G4xx_HAL_Driver/Inc/stm32g4xx_ll_tim.h ****   *         @arg @ref LL_TIM_IC_FILTER_FDIV1_N2
3702:Drivers/STM32G4xx_HAL_Driver/Inc/stm32g4xx_ll_tim.h ****   *         @arg @ref LL_TIM_IC_FILTER_FDIV1_N4
ARM GAS  /tmp/ccF6ITrB.s 			page 116


3703:Drivers/STM32G4xx_HAL_Driver/Inc/stm32g4xx_ll_tim.h ****   *         @arg @ref LL_TIM_IC_FILTER_FDIV1_N8
3704:Drivers/STM32G4xx_HAL_Driver/Inc/stm32g4xx_ll_tim.h ****   *         @arg @ref LL_TIM_IC_FILTER_FDIV2_N6
3705:Drivers/STM32G4xx_HAL_Driver/Inc/stm32g4xx_ll_tim.h ****   *         @arg @ref LL_TIM_IC_FILTER_FDIV2_N8
3706:Drivers/STM32G4xx_HAL_Driver/Inc/stm32g4xx_ll_tim.h ****   *         @arg @ref LL_TIM_IC_FILTER_FDIV4_N6
3707:Drivers/STM32G4xx_HAL_Driver/Inc/stm32g4xx_ll_tim.h ****   *         @arg @ref LL_TIM_IC_FILTER_FDIV4_N8
3708:Drivers/STM32G4xx_HAL_Driver/Inc/stm32g4xx_ll_tim.h ****   *         @arg @ref LL_TIM_IC_FILTER_FDIV8_N6
3709:Drivers/STM32G4xx_HAL_Driver/Inc/stm32g4xx_ll_tim.h ****   *         @arg @ref LL_TIM_IC_FILTER_FDIV8_N8
3710:Drivers/STM32G4xx_HAL_Driver/Inc/stm32g4xx_ll_tim.h ****   *         @arg @ref LL_TIM_IC_FILTER_FDIV16_N5
3711:Drivers/STM32G4xx_HAL_Driver/Inc/stm32g4xx_ll_tim.h ****   *         @arg @ref LL_TIM_IC_FILTER_FDIV16_N6
3712:Drivers/STM32G4xx_HAL_Driver/Inc/stm32g4xx_ll_tim.h ****   *         @arg @ref LL_TIM_IC_FILTER_FDIV16_N8
3713:Drivers/STM32G4xx_HAL_Driver/Inc/stm32g4xx_ll_tim.h ****   *         @arg @ref LL_TIM_IC_FILTER_FDIV32_N5
3714:Drivers/STM32G4xx_HAL_Driver/Inc/stm32g4xx_ll_tim.h ****   *         @arg @ref LL_TIM_IC_FILTER_FDIV32_N6
3715:Drivers/STM32G4xx_HAL_Driver/Inc/stm32g4xx_ll_tim.h ****   *         @arg @ref LL_TIM_IC_FILTER_FDIV32_N8
3716:Drivers/STM32G4xx_HAL_Driver/Inc/stm32g4xx_ll_tim.h ****   */
3717:Drivers/STM32G4xx_HAL_Driver/Inc/stm32g4xx_ll_tim.h **** __STATIC_INLINE uint32_t LL_TIM_IC_GetFilter(const TIM_TypeDef *TIMx, uint32_t Channel)
3718:Drivers/STM32G4xx_HAL_Driver/Inc/stm32g4xx_ll_tim.h **** {
3719:Drivers/STM32G4xx_HAL_Driver/Inc/stm32g4xx_ll_tim.h ****   uint8_t iChannel = TIM_GET_CHANNEL_INDEX(Channel);
3720:Drivers/STM32G4xx_HAL_Driver/Inc/stm32g4xx_ll_tim.h ****   const __IO uint32_t *pReg = (__IO uint32_t *)((uint32_t)((uint32_t)(&TIMx->CCMR1) + OFFSET_TAB_CC
3721:Drivers/STM32G4xx_HAL_Driver/Inc/stm32g4xx_ll_tim.h ****   return ((READ_BIT(*pReg, ((TIM_CCMR1_IC1F) << SHIFT_TAB_ICxx[iChannel])) >> SHIFT_TAB_ICxx[iChann
3722:Drivers/STM32G4xx_HAL_Driver/Inc/stm32g4xx_ll_tim.h **** }
3723:Drivers/STM32G4xx_HAL_Driver/Inc/stm32g4xx_ll_tim.h **** 
3724:Drivers/STM32G4xx_HAL_Driver/Inc/stm32g4xx_ll_tim.h **** /**
3725:Drivers/STM32G4xx_HAL_Driver/Inc/stm32g4xx_ll_tim.h ****   * @brief  Set the input channel polarity.
3726:Drivers/STM32G4xx_HAL_Driver/Inc/stm32g4xx_ll_tim.h ****   * @rmtoll CCER         CC1P          LL_TIM_IC_SetPolarity\n
3727:Drivers/STM32G4xx_HAL_Driver/Inc/stm32g4xx_ll_tim.h ****   *         CCER         CC1NP         LL_TIM_IC_SetPolarity\n
3728:Drivers/STM32G4xx_HAL_Driver/Inc/stm32g4xx_ll_tim.h ****   *         CCER         CC2P          LL_TIM_IC_SetPolarity\n
3729:Drivers/STM32G4xx_HAL_Driver/Inc/stm32g4xx_ll_tim.h ****   *         CCER         CC2NP         LL_TIM_IC_SetPolarity\n
3730:Drivers/STM32G4xx_HAL_Driver/Inc/stm32g4xx_ll_tim.h ****   *         CCER         CC3P          LL_TIM_IC_SetPolarity\n
3731:Drivers/STM32G4xx_HAL_Driver/Inc/stm32g4xx_ll_tim.h ****   *         CCER         CC3NP         LL_TIM_IC_SetPolarity\n
3732:Drivers/STM32G4xx_HAL_Driver/Inc/stm32g4xx_ll_tim.h ****   *         CCER         CC4P          LL_TIM_IC_SetPolarity\n
3733:Drivers/STM32G4xx_HAL_Driver/Inc/stm32g4xx_ll_tim.h ****   *         CCER         CC4NP         LL_TIM_IC_SetPolarity
3734:Drivers/STM32G4xx_HAL_Driver/Inc/stm32g4xx_ll_tim.h ****   * @param  TIMx Timer instance
3735:Drivers/STM32G4xx_HAL_Driver/Inc/stm32g4xx_ll_tim.h ****   * @param  Channel This parameter can be one of the following values:
3736:Drivers/STM32G4xx_HAL_Driver/Inc/stm32g4xx_ll_tim.h ****   *         @arg @ref LL_TIM_CHANNEL_CH1
3737:Drivers/STM32G4xx_HAL_Driver/Inc/stm32g4xx_ll_tim.h ****   *         @arg @ref LL_TIM_CHANNEL_CH2
3738:Drivers/STM32G4xx_HAL_Driver/Inc/stm32g4xx_ll_tim.h ****   *         @arg @ref LL_TIM_CHANNEL_CH3
3739:Drivers/STM32G4xx_HAL_Driver/Inc/stm32g4xx_ll_tim.h ****   *         @arg @ref LL_TIM_CHANNEL_CH4
3740:Drivers/STM32G4xx_HAL_Driver/Inc/stm32g4xx_ll_tim.h ****   * @param  ICPolarity This parameter can be one of the following values:
3741:Drivers/STM32G4xx_HAL_Driver/Inc/stm32g4xx_ll_tim.h ****   *         @arg @ref LL_TIM_IC_POLARITY_RISING
3742:Drivers/STM32G4xx_HAL_Driver/Inc/stm32g4xx_ll_tim.h ****   *         @arg @ref LL_TIM_IC_POLARITY_FALLING
3743:Drivers/STM32G4xx_HAL_Driver/Inc/stm32g4xx_ll_tim.h ****   *         @arg @ref LL_TIM_IC_POLARITY_BOTHEDGE
3744:Drivers/STM32G4xx_HAL_Driver/Inc/stm32g4xx_ll_tim.h ****   * @retval None
3745:Drivers/STM32G4xx_HAL_Driver/Inc/stm32g4xx_ll_tim.h ****   */
3746:Drivers/STM32G4xx_HAL_Driver/Inc/stm32g4xx_ll_tim.h **** __STATIC_INLINE void LL_TIM_IC_SetPolarity(TIM_TypeDef *TIMx, uint32_t Channel, uint32_t ICPolarity
3747:Drivers/STM32G4xx_HAL_Driver/Inc/stm32g4xx_ll_tim.h **** {
3748:Drivers/STM32G4xx_HAL_Driver/Inc/stm32g4xx_ll_tim.h ****   uint8_t iChannel = TIM_GET_CHANNEL_INDEX(Channel);
3749:Drivers/STM32G4xx_HAL_Driver/Inc/stm32g4xx_ll_tim.h ****   MODIFY_REG(TIMx->CCER, ((TIM_CCER_CC1NP | TIM_CCER_CC1P) << SHIFT_TAB_CCxP[iChannel]),
3750:Drivers/STM32G4xx_HAL_Driver/Inc/stm32g4xx_ll_tim.h ****              ICPolarity << SHIFT_TAB_CCxP[iChannel]);
3751:Drivers/STM32G4xx_HAL_Driver/Inc/stm32g4xx_ll_tim.h **** }
3752:Drivers/STM32G4xx_HAL_Driver/Inc/stm32g4xx_ll_tim.h **** 
3753:Drivers/STM32G4xx_HAL_Driver/Inc/stm32g4xx_ll_tim.h **** /**
3754:Drivers/STM32G4xx_HAL_Driver/Inc/stm32g4xx_ll_tim.h ****   * @brief  Get the current input channel polarity.
3755:Drivers/STM32G4xx_HAL_Driver/Inc/stm32g4xx_ll_tim.h ****   * @rmtoll CCER         CC1P          LL_TIM_IC_GetPolarity\n
3756:Drivers/STM32G4xx_HAL_Driver/Inc/stm32g4xx_ll_tim.h ****   *         CCER         CC1NP         LL_TIM_IC_GetPolarity\n
3757:Drivers/STM32G4xx_HAL_Driver/Inc/stm32g4xx_ll_tim.h ****   *         CCER         CC2P          LL_TIM_IC_GetPolarity\n
3758:Drivers/STM32G4xx_HAL_Driver/Inc/stm32g4xx_ll_tim.h ****   *         CCER         CC2NP         LL_TIM_IC_GetPolarity\n
3759:Drivers/STM32G4xx_HAL_Driver/Inc/stm32g4xx_ll_tim.h ****   *         CCER         CC3P          LL_TIM_IC_GetPolarity\n
ARM GAS  /tmp/ccF6ITrB.s 			page 117


3760:Drivers/STM32G4xx_HAL_Driver/Inc/stm32g4xx_ll_tim.h ****   *         CCER         CC3NP         LL_TIM_IC_GetPolarity\n
3761:Drivers/STM32G4xx_HAL_Driver/Inc/stm32g4xx_ll_tim.h ****   *         CCER         CC4P          LL_TIM_IC_GetPolarity\n
3762:Drivers/STM32G4xx_HAL_Driver/Inc/stm32g4xx_ll_tim.h ****   *         CCER         CC4NP         LL_TIM_IC_GetPolarity
3763:Drivers/STM32G4xx_HAL_Driver/Inc/stm32g4xx_ll_tim.h ****   * @param  TIMx Timer instance
3764:Drivers/STM32G4xx_HAL_Driver/Inc/stm32g4xx_ll_tim.h ****   * @param  Channel This parameter can be one of the following values:
3765:Drivers/STM32G4xx_HAL_Driver/Inc/stm32g4xx_ll_tim.h ****   *         @arg @ref LL_TIM_CHANNEL_CH1
3766:Drivers/STM32G4xx_HAL_Driver/Inc/stm32g4xx_ll_tim.h ****   *         @arg @ref LL_TIM_CHANNEL_CH2
3767:Drivers/STM32G4xx_HAL_Driver/Inc/stm32g4xx_ll_tim.h ****   *         @arg @ref LL_TIM_CHANNEL_CH3
3768:Drivers/STM32G4xx_HAL_Driver/Inc/stm32g4xx_ll_tim.h ****   *         @arg @ref LL_TIM_CHANNEL_CH4
3769:Drivers/STM32G4xx_HAL_Driver/Inc/stm32g4xx_ll_tim.h ****   * @retval Returned value can be one of the following values:
3770:Drivers/STM32G4xx_HAL_Driver/Inc/stm32g4xx_ll_tim.h ****   *         @arg @ref LL_TIM_IC_POLARITY_RISING
3771:Drivers/STM32G4xx_HAL_Driver/Inc/stm32g4xx_ll_tim.h ****   *         @arg @ref LL_TIM_IC_POLARITY_FALLING
3772:Drivers/STM32G4xx_HAL_Driver/Inc/stm32g4xx_ll_tim.h ****   *         @arg @ref LL_TIM_IC_POLARITY_BOTHEDGE
3773:Drivers/STM32G4xx_HAL_Driver/Inc/stm32g4xx_ll_tim.h ****   */
3774:Drivers/STM32G4xx_HAL_Driver/Inc/stm32g4xx_ll_tim.h **** __STATIC_INLINE uint32_t LL_TIM_IC_GetPolarity(const TIM_TypeDef *TIMx, uint32_t Channel)
3775:Drivers/STM32G4xx_HAL_Driver/Inc/stm32g4xx_ll_tim.h **** {
3776:Drivers/STM32G4xx_HAL_Driver/Inc/stm32g4xx_ll_tim.h ****   uint8_t iChannel = TIM_GET_CHANNEL_INDEX(Channel);
3777:Drivers/STM32G4xx_HAL_Driver/Inc/stm32g4xx_ll_tim.h ****   return (READ_BIT(TIMx->CCER, ((TIM_CCER_CC1NP | TIM_CCER_CC1P) << SHIFT_TAB_CCxP[iChannel])) >>
3778:Drivers/STM32G4xx_HAL_Driver/Inc/stm32g4xx_ll_tim.h ****           SHIFT_TAB_CCxP[iChannel]);
3779:Drivers/STM32G4xx_HAL_Driver/Inc/stm32g4xx_ll_tim.h **** }
3780:Drivers/STM32G4xx_HAL_Driver/Inc/stm32g4xx_ll_tim.h **** 
3781:Drivers/STM32G4xx_HAL_Driver/Inc/stm32g4xx_ll_tim.h **** /**
3782:Drivers/STM32G4xx_HAL_Driver/Inc/stm32g4xx_ll_tim.h ****   * @brief  Connect the TIMx_CH1, CH2 and CH3 pins  to the TI1 input (XOR combination).
3783:Drivers/STM32G4xx_HAL_Driver/Inc/stm32g4xx_ll_tim.h ****   * @note Macro IS_TIM_XOR_INSTANCE(TIMx) can be used to check whether or not
3784:Drivers/STM32G4xx_HAL_Driver/Inc/stm32g4xx_ll_tim.h ****   *       a timer instance provides an XOR input.
3785:Drivers/STM32G4xx_HAL_Driver/Inc/stm32g4xx_ll_tim.h ****   * @rmtoll CR2          TI1S          LL_TIM_IC_EnableXORCombination
3786:Drivers/STM32G4xx_HAL_Driver/Inc/stm32g4xx_ll_tim.h ****   * @param  TIMx Timer instance
3787:Drivers/STM32G4xx_HAL_Driver/Inc/stm32g4xx_ll_tim.h ****   * @retval None
3788:Drivers/STM32G4xx_HAL_Driver/Inc/stm32g4xx_ll_tim.h ****   */
3789:Drivers/STM32G4xx_HAL_Driver/Inc/stm32g4xx_ll_tim.h **** __STATIC_INLINE void LL_TIM_IC_EnableXORCombination(TIM_TypeDef *TIMx)
3790:Drivers/STM32G4xx_HAL_Driver/Inc/stm32g4xx_ll_tim.h **** {
3791:Drivers/STM32G4xx_HAL_Driver/Inc/stm32g4xx_ll_tim.h ****   SET_BIT(TIMx->CR2, TIM_CR2_TI1S);
3792:Drivers/STM32G4xx_HAL_Driver/Inc/stm32g4xx_ll_tim.h **** }
3793:Drivers/STM32G4xx_HAL_Driver/Inc/stm32g4xx_ll_tim.h **** 
3794:Drivers/STM32G4xx_HAL_Driver/Inc/stm32g4xx_ll_tim.h **** /**
3795:Drivers/STM32G4xx_HAL_Driver/Inc/stm32g4xx_ll_tim.h ****   * @brief  Disconnect the TIMx_CH1, CH2 and CH3 pins  from the TI1 input.
3796:Drivers/STM32G4xx_HAL_Driver/Inc/stm32g4xx_ll_tim.h ****   * @note Macro IS_TIM_XOR_INSTANCE(TIMx) can be used to check whether or not
3797:Drivers/STM32G4xx_HAL_Driver/Inc/stm32g4xx_ll_tim.h ****   *       a timer instance provides an XOR input.
3798:Drivers/STM32G4xx_HAL_Driver/Inc/stm32g4xx_ll_tim.h ****   * @rmtoll CR2          TI1S          LL_TIM_IC_DisableXORCombination
3799:Drivers/STM32G4xx_HAL_Driver/Inc/stm32g4xx_ll_tim.h ****   * @param  TIMx Timer instance
3800:Drivers/STM32G4xx_HAL_Driver/Inc/stm32g4xx_ll_tim.h ****   * @retval None
3801:Drivers/STM32G4xx_HAL_Driver/Inc/stm32g4xx_ll_tim.h ****   */
3802:Drivers/STM32G4xx_HAL_Driver/Inc/stm32g4xx_ll_tim.h **** __STATIC_INLINE void LL_TIM_IC_DisableXORCombination(TIM_TypeDef *TIMx)
3803:Drivers/STM32G4xx_HAL_Driver/Inc/stm32g4xx_ll_tim.h **** {
3804:Drivers/STM32G4xx_HAL_Driver/Inc/stm32g4xx_ll_tim.h ****   CLEAR_BIT(TIMx->CR2, TIM_CR2_TI1S);
3805:Drivers/STM32G4xx_HAL_Driver/Inc/stm32g4xx_ll_tim.h **** }
3806:Drivers/STM32G4xx_HAL_Driver/Inc/stm32g4xx_ll_tim.h **** 
3807:Drivers/STM32G4xx_HAL_Driver/Inc/stm32g4xx_ll_tim.h **** /**
3808:Drivers/STM32G4xx_HAL_Driver/Inc/stm32g4xx_ll_tim.h ****   * @brief  Indicates whether the TIMx_CH1, CH2 and CH3 pins are connectected to the TI1 input.
3809:Drivers/STM32G4xx_HAL_Driver/Inc/stm32g4xx_ll_tim.h ****   * @note Macro IS_TIM_XOR_INSTANCE(TIMx) can be used to check whether or not
3810:Drivers/STM32G4xx_HAL_Driver/Inc/stm32g4xx_ll_tim.h ****   * a timer instance provides an XOR input.
3811:Drivers/STM32G4xx_HAL_Driver/Inc/stm32g4xx_ll_tim.h ****   * @rmtoll CR2          TI1S          LL_TIM_IC_IsEnabledXORCombination
3812:Drivers/STM32G4xx_HAL_Driver/Inc/stm32g4xx_ll_tim.h ****   * @param  TIMx Timer instance
3813:Drivers/STM32G4xx_HAL_Driver/Inc/stm32g4xx_ll_tim.h ****   * @retval State of bit (1 or 0).
3814:Drivers/STM32G4xx_HAL_Driver/Inc/stm32g4xx_ll_tim.h ****   */
3815:Drivers/STM32G4xx_HAL_Driver/Inc/stm32g4xx_ll_tim.h **** __STATIC_INLINE uint32_t LL_TIM_IC_IsEnabledXORCombination(const TIM_TypeDef *TIMx)
3816:Drivers/STM32G4xx_HAL_Driver/Inc/stm32g4xx_ll_tim.h **** {
ARM GAS  /tmp/ccF6ITrB.s 			page 118


3817:Drivers/STM32G4xx_HAL_Driver/Inc/stm32g4xx_ll_tim.h ****   return ((READ_BIT(TIMx->CR2, TIM_CR2_TI1S) == (TIM_CR2_TI1S)) ? 1UL : 0UL);
3818:Drivers/STM32G4xx_HAL_Driver/Inc/stm32g4xx_ll_tim.h **** }
3819:Drivers/STM32G4xx_HAL_Driver/Inc/stm32g4xx_ll_tim.h **** 
3820:Drivers/STM32G4xx_HAL_Driver/Inc/stm32g4xx_ll_tim.h **** /**
3821:Drivers/STM32G4xx_HAL_Driver/Inc/stm32g4xx_ll_tim.h ****   * @brief  Get captured value for input channel 1.
3822:Drivers/STM32G4xx_HAL_Driver/Inc/stm32g4xx_ll_tim.h ****   * @note In 32-bit timer implementations returned captured value can be between 0x00000000 and 0xF
3823:Drivers/STM32G4xx_HAL_Driver/Inc/stm32g4xx_ll_tim.h ****   * @note Macro IS_TIM_32B_COUNTER_INSTANCE(TIMx) can be used to check
3824:Drivers/STM32G4xx_HAL_Driver/Inc/stm32g4xx_ll_tim.h ****   *       whether or not a timer instance supports a 32 bits counter.
3825:Drivers/STM32G4xx_HAL_Driver/Inc/stm32g4xx_ll_tim.h ****   * @note Macro IS_TIM_CC1_INSTANCE(TIMx) can be used to check whether or not
3826:Drivers/STM32G4xx_HAL_Driver/Inc/stm32g4xx_ll_tim.h ****   *       input channel 1 is supported by a timer instance.
3827:Drivers/STM32G4xx_HAL_Driver/Inc/stm32g4xx_ll_tim.h ****   * @note If dithering is activated, pay attention to the returned value interpretation.
3828:Drivers/STM32G4xx_HAL_Driver/Inc/stm32g4xx_ll_tim.h ****   * @rmtoll CCR1         CCR1          LL_TIM_IC_GetCaptureCH1
3829:Drivers/STM32G4xx_HAL_Driver/Inc/stm32g4xx_ll_tim.h ****   * @param  TIMx Timer instance
3830:Drivers/STM32G4xx_HAL_Driver/Inc/stm32g4xx_ll_tim.h ****   * @retval CapturedValue (between Min_Data=0 and Max_Data=65535)
3831:Drivers/STM32G4xx_HAL_Driver/Inc/stm32g4xx_ll_tim.h ****   */
3832:Drivers/STM32G4xx_HAL_Driver/Inc/stm32g4xx_ll_tim.h **** __STATIC_INLINE uint32_t LL_TIM_IC_GetCaptureCH1(const TIM_TypeDef *TIMx)
3833:Drivers/STM32G4xx_HAL_Driver/Inc/stm32g4xx_ll_tim.h **** {
3834:Drivers/STM32G4xx_HAL_Driver/Inc/stm32g4xx_ll_tim.h ****   return (uint32_t)(READ_REG(TIMx->CCR1));
3835:Drivers/STM32G4xx_HAL_Driver/Inc/stm32g4xx_ll_tim.h **** }
3836:Drivers/STM32G4xx_HAL_Driver/Inc/stm32g4xx_ll_tim.h **** 
3837:Drivers/STM32G4xx_HAL_Driver/Inc/stm32g4xx_ll_tim.h **** /**
3838:Drivers/STM32G4xx_HAL_Driver/Inc/stm32g4xx_ll_tim.h ****   * @brief  Get captured value for input channel 2.
3839:Drivers/STM32G4xx_HAL_Driver/Inc/stm32g4xx_ll_tim.h ****   * @note In 32-bit timer implementations returned captured value can be between 0x00000000 and 0xF
3840:Drivers/STM32G4xx_HAL_Driver/Inc/stm32g4xx_ll_tim.h ****   * @note Macro IS_TIM_32B_COUNTER_INSTANCE(TIMx) can be used to check
3841:Drivers/STM32G4xx_HAL_Driver/Inc/stm32g4xx_ll_tim.h ****   *       whether or not a timer instance supports a 32 bits counter.
3842:Drivers/STM32G4xx_HAL_Driver/Inc/stm32g4xx_ll_tim.h ****   * @note Macro IS_TIM_CC2_INSTANCE(TIMx) can be used to check whether or not
3843:Drivers/STM32G4xx_HAL_Driver/Inc/stm32g4xx_ll_tim.h ****   *       input channel 2 is supported by a timer instance.
3844:Drivers/STM32G4xx_HAL_Driver/Inc/stm32g4xx_ll_tim.h ****   * @note If dithering is activated, pay attention to the returned value interpretation.
3845:Drivers/STM32G4xx_HAL_Driver/Inc/stm32g4xx_ll_tim.h ****   * @rmtoll CCR2         CCR2          LL_TIM_IC_GetCaptureCH2
3846:Drivers/STM32G4xx_HAL_Driver/Inc/stm32g4xx_ll_tim.h ****   * @param  TIMx Timer instance
3847:Drivers/STM32G4xx_HAL_Driver/Inc/stm32g4xx_ll_tim.h ****   * @retval CapturedValue (between Min_Data=0 and Max_Data=65535)
3848:Drivers/STM32G4xx_HAL_Driver/Inc/stm32g4xx_ll_tim.h ****   */
3849:Drivers/STM32G4xx_HAL_Driver/Inc/stm32g4xx_ll_tim.h **** __STATIC_INLINE uint32_t LL_TIM_IC_GetCaptureCH2(const TIM_TypeDef *TIMx)
3850:Drivers/STM32G4xx_HAL_Driver/Inc/stm32g4xx_ll_tim.h **** {
3851:Drivers/STM32G4xx_HAL_Driver/Inc/stm32g4xx_ll_tim.h ****   return (uint32_t)(READ_REG(TIMx->CCR2));
3852:Drivers/STM32G4xx_HAL_Driver/Inc/stm32g4xx_ll_tim.h **** }
3853:Drivers/STM32G4xx_HAL_Driver/Inc/stm32g4xx_ll_tim.h **** 
3854:Drivers/STM32G4xx_HAL_Driver/Inc/stm32g4xx_ll_tim.h **** /**
3855:Drivers/STM32G4xx_HAL_Driver/Inc/stm32g4xx_ll_tim.h ****   * @brief  Get captured value for input channel 3.
3856:Drivers/STM32G4xx_HAL_Driver/Inc/stm32g4xx_ll_tim.h ****   * @note In 32-bit timer implementations returned captured value can be between 0x00000000 and 0xF
3857:Drivers/STM32G4xx_HAL_Driver/Inc/stm32g4xx_ll_tim.h ****   * @note Macro IS_TIM_32B_COUNTER_INSTANCE(TIMx) can be used to check
3858:Drivers/STM32G4xx_HAL_Driver/Inc/stm32g4xx_ll_tim.h ****   *       whether or not a timer instance supports a 32 bits counter.
3859:Drivers/STM32G4xx_HAL_Driver/Inc/stm32g4xx_ll_tim.h ****   * @note Macro IS_TIM_CC3_INSTANCE(TIMx) can be used to check whether or not
3860:Drivers/STM32G4xx_HAL_Driver/Inc/stm32g4xx_ll_tim.h ****   *       input channel 3 is supported by a timer instance.
3861:Drivers/STM32G4xx_HAL_Driver/Inc/stm32g4xx_ll_tim.h ****   * @note If dithering is activated, pay attention to the returned value interpretation.
3862:Drivers/STM32G4xx_HAL_Driver/Inc/stm32g4xx_ll_tim.h ****   * @rmtoll CCR3         CCR3          LL_TIM_IC_GetCaptureCH3
3863:Drivers/STM32G4xx_HAL_Driver/Inc/stm32g4xx_ll_tim.h ****   * @param  TIMx Timer instance
3864:Drivers/STM32G4xx_HAL_Driver/Inc/stm32g4xx_ll_tim.h ****   * @retval CapturedValue (between Min_Data=0 and Max_Data=65535)
3865:Drivers/STM32G4xx_HAL_Driver/Inc/stm32g4xx_ll_tim.h ****   */
3866:Drivers/STM32G4xx_HAL_Driver/Inc/stm32g4xx_ll_tim.h **** __STATIC_INLINE uint32_t LL_TIM_IC_GetCaptureCH3(const TIM_TypeDef *TIMx)
3867:Drivers/STM32G4xx_HAL_Driver/Inc/stm32g4xx_ll_tim.h **** {
3868:Drivers/STM32G4xx_HAL_Driver/Inc/stm32g4xx_ll_tim.h ****   return (uint32_t)(READ_REG(TIMx->CCR3));
3869:Drivers/STM32G4xx_HAL_Driver/Inc/stm32g4xx_ll_tim.h **** }
3870:Drivers/STM32G4xx_HAL_Driver/Inc/stm32g4xx_ll_tim.h **** 
3871:Drivers/STM32G4xx_HAL_Driver/Inc/stm32g4xx_ll_tim.h **** /**
3872:Drivers/STM32G4xx_HAL_Driver/Inc/stm32g4xx_ll_tim.h ****   * @brief  Get captured value for input channel 4.
3873:Drivers/STM32G4xx_HAL_Driver/Inc/stm32g4xx_ll_tim.h ****   * @note In 32-bit timer implementations returned captured value can be between 0x00000000 and 0xF
ARM GAS  /tmp/ccF6ITrB.s 			page 119


3874:Drivers/STM32G4xx_HAL_Driver/Inc/stm32g4xx_ll_tim.h ****   * @note Macro IS_TIM_32B_COUNTER_INSTANCE(TIMx) can be used to check
3875:Drivers/STM32G4xx_HAL_Driver/Inc/stm32g4xx_ll_tim.h ****   *       whether or not a timer instance supports a 32 bits counter.
3876:Drivers/STM32G4xx_HAL_Driver/Inc/stm32g4xx_ll_tim.h ****   * @note Macro IS_TIM_CC4_INSTANCE(TIMx) can be used to check whether or not
3877:Drivers/STM32G4xx_HAL_Driver/Inc/stm32g4xx_ll_tim.h ****   *       input channel 4 is supported by a timer instance.
3878:Drivers/STM32G4xx_HAL_Driver/Inc/stm32g4xx_ll_tim.h ****   * @note If dithering is activated, pay attention to the returned value interpretation.
3879:Drivers/STM32G4xx_HAL_Driver/Inc/stm32g4xx_ll_tim.h ****   * @rmtoll CCR4         CCR4          LL_TIM_IC_GetCaptureCH4
3880:Drivers/STM32G4xx_HAL_Driver/Inc/stm32g4xx_ll_tim.h ****   * @param  TIMx Timer instance
3881:Drivers/STM32G4xx_HAL_Driver/Inc/stm32g4xx_ll_tim.h ****   * @retval CapturedValue (between Min_Data=0 and Max_Data=65535)
3882:Drivers/STM32G4xx_HAL_Driver/Inc/stm32g4xx_ll_tim.h ****   */
3883:Drivers/STM32G4xx_HAL_Driver/Inc/stm32g4xx_ll_tim.h **** __STATIC_INLINE uint32_t LL_TIM_IC_GetCaptureCH4(const TIM_TypeDef *TIMx)
3884:Drivers/STM32G4xx_HAL_Driver/Inc/stm32g4xx_ll_tim.h **** {
3885:Drivers/STM32G4xx_HAL_Driver/Inc/stm32g4xx_ll_tim.h ****   return (uint32_t)(READ_REG(TIMx->CCR4));
3886:Drivers/STM32G4xx_HAL_Driver/Inc/stm32g4xx_ll_tim.h **** }
3887:Drivers/STM32G4xx_HAL_Driver/Inc/stm32g4xx_ll_tim.h **** 
3888:Drivers/STM32G4xx_HAL_Driver/Inc/stm32g4xx_ll_tim.h **** /**
3889:Drivers/STM32G4xx_HAL_Driver/Inc/stm32g4xx_ll_tim.h ****   * @}
3890:Drivers/STM32G4xx_HAL_Driver/Inc/stm32g4xx_ll_tim.h ****   */
3891:Drivers/STM32G4xx_HAL_Driver/Inc/stm32g4xx_ll_tim.h **** 
3892:Drivers/STM32G4xx_HAL_Driver/Inc/stm32g4xx_ll_tim.h **** /** @defgroup TIM_LL_EF_Clock_Selection Counter clock selection
3893:Drivers/STM32G4xx_HAL_Driver/Inc/stm32g4xx_ll_tim.h ****   * @{
3894:Drivers/STM32G4xx_HAL_Driver/Inc/stm32g4xx_ll_tim.h ****   */
3895:Drivers/STM32G4xx_HAL_Driver/Inc/stm32g4xx_ll_tim.h **** /**
3896:Drivers/STM32G4xx_HAL_Driver/Inc/stm32g4xx_ll_tim.h ****   * @brief  Enable external clock mode 2.
3897:Drivers/STM32G4xx_HAL_Driver/Inc/stm32g4xx_ll_tim.h ****   * @note When external clock mode 2 is enabled the counter is clocked by any active edge on the ET
3898:Drivers/STM32G4xx_HAL_Driver/Inc/stm32g4xx_ll_tim.h ****   * @note Macro IS_TIM_CLOCKSOURCE_ETRMODE2_INSTANCE(TIMx) can be used to check
3899:Drivers/STM32G4xx_HAL_Driver/Inc/stm32g4xx_ll_tim.h ****   *       whether or not a timer instance supports external clock mode2.
3900:Drivers/STM32G4xx_HAL_Driver/Inc/stm32g4xx_ll_tim.h ****   * @rmtoll SMCR         ECE           LL_TIM_EnableExternalClock
3901:Drivers/STM32G4xx_HAL_Driver/Inc/stm32g4xx_ll_tim.h ****   * @param  TIMx Timer instance
3902:Drivers/STM32G4xx_HAL_Driver/Inc/stm32g4xx_ll_tim.h ****   * @retval None
3903:Drivers/STM32G4xx_HAL_Driver/Inc/stm32g4xx_ll_tim.h ****   */
3904:Drivers/STM32G4xx_HAL_Driver/Inc/stm32g4xx_ll_tim.h **** __STATIC_INLINE void LL_TIM_EnableExternalClock(TIM_TypeDef *TIMx)
3905:Drivers/STM32G4xx_HAL_Driver/Inc/stm32g4xx_ll_tim.h **** {
3906:Drivers/STM32G4xx_HAL_Driver/Inc/stm32g4xx_ll_tim.h ****   SET_BIT(TIMx->SMCR, TIM_SMCR_ECE);
3907:Drivers/STM32G4xx_HAL_Driver/Inc/stm32g4xx_ll_tim.h **** }
3908:Drivers/STM32G4xx_HAL_Driver/Inc/stm32g4xx_ll_tim.h **** 
3909:Drivers/STM32G4xx_HAL_Driver/Inc/stm32g4xx_ll_tim.h **** /**
3910:Drivers/STM32G4xx_HAL_Driver/Inc/stm32g4xx_ll_tim.h ****   * @brief  Disable external clock mode 2.
3911:Drivers/STM32G4xx_HAL_Driver/Inc/stm32g4xx_ll_tim.h ****   * @note Macro IS_TIM_CLOCKSOURCE_ETRMODE2_INSTANCE(TIMx) can be used to check
3912:Drivers/STM32G4xx_HAL_Driver/Inc/stm32g4xx_ll_tim.h ****   *       whether or not a timer instance supports external clock mode2.
3913:Drivers/STM32G4xx_HAL_Driver/Inc/stm32g4xx_ll_tim.h ****   * @rmtoll SMCR         ECE           LL_TIM_DisableExternalClock
3914:Drivers/STM32G4xx_HAL_Driver/Inc/stm32g4xx_ll_tim.h ****   * @param  TIMx Timer instance
3915:Drivers/STM32G4xx_HAL_Driver/Inc/stm32g4xx_ll_tim.h ****   * @retval None
3916:Drivers/STM32G4xx_HAL_Driver/Inc/stm32g4xx_ll_tim.h ****   */
3917:Drivers/STM32G4xx_HAL_Driver/Inc/stm32g4xx_ll_tim.h **** __STATIC_INLINE void LL_TIM_DisableExternalClock(TIM_TypeDef *TIMx)
3918:Drivers/STM32G4xx_HAL_Driver/Inc/stm32g4xx_ll_tim.h **** {
3919:Drivers/STM32G4xx_HAL_Driver/Inc/stm32g4xx_ll_tim.h ****   CLEAR_BIT(TIMx->SMCR, TIM_SMCR_ECE);
3920:Drivers/STM32G4xx_HAL_Driver/Inc/stm32g4xx_ll_tim.h **** }
3921:Drivers/STM32G4xx_HAL_Driver/Inc/stm32g4xx_ll_tim.h **** 
3922:Drivers/STM32G4xx_HAL_Driver/Inc/stm32g4xx_ll_tim.h **** /**
3923:Drivers/STM32G4xx_HAL_Driver/Inc/stm32g4xx_ll_tim.h ****   * @brief  Indicate whether external clock mode 2 is enabled.
3924:Drivers/STM32G4xx_HAL_Driver/Inc/stm32g4xx_ll_tim.h ****   * @note Macro IS_TIM_CLOCKSOURCE_ETRMODE2_INSTANCE(TIMx) can be used to check
3925:Drivers/STM32G4xx_HAL_Driver/Inc/stm32g4xx_ll_tim.h ****   *       whether or not a timer instance supports external clock mode2.
3926:Drivers/STM32G4xx_HAL_Driver/Inc/stm32g4xx_ll_tim.h ****   * @rmtoll SMCR         ECE           LL_TIM_IsEnabledExternalClock
3927:Drivers/STM32G4xx_HAL_Driver/Inc/stm32g4xx_ll_tim.h ****   * @param  TIMx Timer instance
3928:Drivers/STM32G4xx_HAL_Driver/Inc/stm32g4xx_ll_tim.h ****   * @retval State of bit (1 or 0).
3929:Drivers/STM32G4xx_HAL_Driver/Inc/stm32g4xx_ll_tim.h ****   */
3930:Drivers/STM32G4xx_HAL_Driver/Inc/stm32g4xx_ll_tim.h **** __STATIC_INLINE uint32_t LL_TIM_IsEnabledExternalClock(const TIM_TypeDef *TIMx)
ARM GAS  /tmp/ccF6ITrB.s 			page 120


3931:Drivers/STM32G4xx_HAL_Driver/Inc/stm32g4xx_ll_tim.h **** {
3932:Drivers/STM32G4xx_HAL_Driver/Inc/stm32g4xx_ll_tim.h ****   return ((READ_BIT(TIMx->SMCR, TIM_SMCR_ECE) == (TIM_SMCR_ECE)) ? 1UL : 0UL);
3933:Drivers/STM32G4xx_HAL_Driver/Inc/stm32g4xx_ll_tim.h **** }
3934:Drivers/STM32G4xx_HAL_Driver/Inc/stm32g4xx_ll_tim.h **** 
3935:Drivers/STM32G4xx_HAL_Driver/Inc/stm32g4xx_ll_tim.h **** /**
3936:Drivers/STM32G4xx_HAL_Driver/Inc/stm32g4xx_ll_tim.h ****   * @brief  Set the clock source of the counter clock.
3937:Drivers/STM32G4xx_HAL_Driver/Inc/stm32g4xx_ll_tim.h ****   * @note when selected clock source is external clock mode 1, the timer input
3938:Drivers/STM32G4xx_HAL_Driver/Inc/stm32g4xx_ll_tim.h ****   *       the external clock is applied is selected by calling the @ref LL_TIM_SetTriggerInput()
3939:Drivers/STM32G4xx_HAL_Driver/Inc/stm32g4xx_ll_tim.h ****   *       function. This timer input must be configured by calling
3940:Drivers/STM32G4xx_HAL_Driver/Inc/stm32g4xx_ll_tim.h ****   *       the @ref LL_TIM_IC_Config() function.
3941:Drivers/STM32G4xx_HAL_Driver/Inc/stm32g4xx_ll_tim.h ****   * @note Macro IS_TIM_CLOCKSOURCE_ETRMODE1_INSTANCE(TIMx) can be used to check
3942:Drivers/STM32G4xx_HAL_Driver/Inc/stm32g4xx_ll_tim.h ****   *       whether or not a timer instance supports external clock mode1.
3943:Drivers/STM32G4xx_HAL_Driver/Inc/stm32g4xx_ll_tim.h ****   * @note Macro IS_TIM_CLOCKSOURCE_ETRMODE2_INSTANCE(TIMx) can be used to check
3944:Drivers/STM32G4xx_HAL_Driver/Inc/stm32g4xx_ll_tim.h ****   *       whether or not a timer instance supports external clock mode2.
3945:Drivers/STM32G4xx_HAL_Driver/Inc/stm32g4xx_ll_tim.h ****   * @rmtoll SMCR         SMS           LL_TIM_SetClockSource\n
3946:Drivers/STM32G4xx_HAL_Driver/Inc/stm32g4xx_ll_tim.h ****   *         SMCR         ECE           LL_TIM_SetClockSource
3947:Drivers/STM32G4xx_HAL_Driver/Inc/stm32g4xx_ll_tim.h ****   * @param  TIMx Timer instance
3948:Drivers/STM32G4xx_HAL_Driver/Inc/stm32g4xx_ll_tim.h ****   * @param  ClockSource This parameter can be one of the following values:
3949:Drivers/STM32G4xx_HAL_Driver/Inc/stm32g4xx_ll_tim.h ****   *         @arg @ref LL_TIM_CLOCKSOURCE_INTERNAL
3950:Drivers/STM32G4xx_HAL_Driver/Inc/stm32g4xx_ll_tim.h ****   *         @arg @ref LL_TIM_CLOCKSOURCE_EXT_MODE1
3951:Drivers/STM32G4xx_HAL_Driver/Inc/stm32g4xx_ll_tim.h ****   *         @arg @ref LL_TIM_CLOCKSOURCE_EXT_MODE2
3952:Drivers/STM32G4xx_HAL_Driver/Inc/stm32g4xx_ll_tim.h ****   * @retval None
3953:Drivers/STM32G4xx_HAL_Driver/Inc/stm32g4xx_ll_tim.h ****   */
3954:Drivers/STM32G4xx_HAL_Driver/Inc/stm32g4xx_ll_tim.h **** __STATIC_INLINE void LL_TIM_SetClockSource(TIM_TypeDef *TIMx, uint32_t ClockSource)
3955:Drivers/STM32G4xx_HAL_Driver/Inc/stm32g4xx_ll_tim.h **** {
3956:Drivers/STM32G4xx_HAL_Driver/Inc/stm32g4xx_ll_tim.h ****   MODIFY_REG(TIMx->SMCR, TIM_SMCR_SMS | TIM_SMCR_ECE, ClockSource);
3957:Drivers/STM32G4xx_HAL_Driver/Inc/stm32g4xx_ll_tim.h **** }
3958:Drivers/STM32G4xx_HAL_Driver/Inc/stm32g4xx_ll_tim.h **** 
3959:Drivers/STM32G4xx_HAL_Driver/Inc/stm32g4xx_ll_tim.h **** /**
3960:Drivers/STM32G4xx_HAL_Driver/Inc/stm32g4xx_ll_tim.h ****   * @brief  Set the encoder interface mode.
3961:Drivers/STM32G4xx_HAL_Driver/Inc/stm32g4xx_ll_tim.h ****   * @note Macro IS_TIM_ENCODER_INTERFACE_INSTANCE(TIMx) can be used to check
3962:Drivers/STM32G4xx_HAL_Driver/Inc/stm32g4xx_ll_tim.h ****   *       whether or not a timer instance supports the encoder mode.
3963:Drivers/STM32G4xx_HAL_Driver/Inc/stm32g4xx_ll_tim.h ****   * @rmtoll SMCR         SMS           LL_TIM_SetEncoderMode
3964:Drivers/STM32G4xx_HAL_Driver/Inc/stm32g4xx_ll_tim.h ****   * @param  TIMx Timer instance
3965:Drivers/STM32G4xx_HAL_Driver/Inc/stm32g4xx_ll_tim.h ****   * @param  EncoderMode This parameter can be one of the following values:
3966:Drivers/STM32G4xx_HAL_Driver/Inc/stm32g4xx_ll_tim.h ****   *         @arg @ref LL_TIM_ENCODERMODE_X2_TI1
3967:Drivers/STM32G4xx_HAL_Driver/Inc/stm32g4xx_ll_tim.h ****   *         @arg @ref LL_TIM_ENCODERMODE_X2_TI2
3968:Drivers/STM32G4xx_HAL_Driver/Inc/stm32g4xx_ll_tim.h ****   *         @arg @ref LL_TIM_ENCODERMODE_X4_TI12
3969:Drivers/STM32G4xx_HAL_Driver/Inc/stm32g4xx_ll_tim.h ****   *         @arg @ref LL_TIM_ENCODERMODE_CLOCKPLUSDIRECTION_X2
3970:Drivers/STM32G4xx_HAL_Driver/Inc/stm32g4xx_ll_tim.h ****   *         @arg @ref LL_TIM_ENCODERMODE_CLOCKPLUSDIRECTION_X1
3971:Drivers/STM32G4xx_HAL_Driver/Inc/stm32g4xx_ll_tim.h ****   *         @arg @ref LL_TIM_ENCODERMODE_DIRECTIONALCLOCK_X2
3972:Drivers/STM32G4xx_HAL_Driver/Inc/stm32g4xx_ll_tim.h ****   *         @arg @ref LL_TIM_ENCODERMODE_DIRECTIONALCLOCK_X1_TI12
3973:Drivers/STM32G4xx_HAL_Driver/Inc/stm32g4xx_ll_tim.h ****   *         @arg @ref LL_TIM_ENCODERMODE_X1_TI1
3974:Drivers/STM32G4xx_HAL_Driver/Inc/stm32g4xx_ll_tim.h ****   *         @arg @ref LL_TIM_ENCODERMODE_X1_TI2
3975:Drivers/STM32G4xx_HAL_Driver/Inc/stm32g4xx_ll_tim.h ****   * @retval None
3976:Drivers/STM32G4xx_HAL_Driver/Inc/stm32g4xx_ll_tim.h ****   */
3977:Drivers/STM32G4xx_HAL_Driver/Inc/stm32g4xx_ll_tim.h **** __STATIC_INLINE void LL_TIM_SetEncoderMode(TIM_TypeDef *TIMx, uint32_t EncoderMode)
3978:Drivers/STM32G4xx_HAL_Driver/Inc/stm32g4xx_ll_tim.h **** {
3979:Drivers/STM32G4xx_HAL_Driver/Inc/stm32g4xx_ll_tim.h ****   MODIFY_REG(TIMx->SMCR, TIM_SMCR_SMS, EncoderMode);
3980:Drivers/STM32G4xx_HAL_Driver/Inc/stm32g4xx_ll_tim.h **** }
3981:Drivers/STM32G4xx_HAL_Driver/Inc/stm32g4xx_ll_tim.h **** 
3982:Drivers/STM32G4xx_HAL_Driver/Inc/stm32g4xx_ll_tim.h **** /**
3983:Drivers/STM32G4xx_HAL_Driver/Inc/stm32g4xx_ll_tim.h ****   * @}
3984:Drivers/STM32G4xx_HAL_Driver/Inc/stm32g4xx_ll_tim.h ****   */
3985:Drivers/STM32G4xx_HAL_Driver/Inc/stm32g4xx_ll_tim.h **** 
3986:Drivers/STM32G4xx_HAL_Driver/Inc/stm32g4xx_ll_tim.h **** /** @defgroup TIM_LL_EF_Timer_Synchronization Timer synchronisation configuration
3987:Drivers/STM32G4xx_HAL_Driver/Inc/stm32g4xx_ll_tim.h ****   * @{
ARM GAS  /tmp/ccF6ITrB.s 			page 121


3988:Drivers/STM32G4xx_HAL_Driver/Inc/stm32g4xx_ll_tim.h ****   */
3989:Drivers/STM32G4xx_HAL_Driver/Inc/stm32g4xx_ll_tim.h **** /**
3990:Drivers/STM32G4xx_HAL_Driver/Inc/stm32g4xx_ll_tim.h ****   * @brief  Set the trigger output (TRGO) used for timer synchronization .
3991:Drivers/STM32G4xx_HAL_Driver/Inc/stm32g4xx_ll_tim.h ****   * @note Macro IS_TIM_MASTER_INSTANCE(TIMx) can be used to check
3992:Drivers/STM32G4xx_HAL_Driver/Inc/stm32g4xx_ll_tim.h ****   *       whether or not a timer instance can operate as a master timer.
3993:Drivers/STM32G4xx_HAL_Driver/Inc/stm32g4xx_ll_tim.h ****   * @rmtoll CR2          MMS           LL_TIM_SetTriggerOutput
3994:Drivers/STM32G4xx_HAL_Driver/Inc/stm32g4xx_ll_tim.h ****   * @param  TIMx Timer instance
3995:Drivers/STM32G4xx_HAL_Driver/Inc/stm32g4xx_ll_tim.h ****   * @param  TimerSynchronization This parameter can be one of the following values:
3996:Drivers/STM32G4xx_HAL_Driver/Inc/stm32g4xx_ll_tim.h ****   *         @arg @ref LL_TIM_TRGO_RESET
3997:Drivers/STM32G4xx_HAL_Driver/Inc/stm32g4xx_ll_tim.h ****   *         @arg @ref LL_TIM_TRGO_ENABLE
3998:Drivers/STM32G4xx_HAL_Driver/Inc/stm32g4xx_ll_tim.h ****   *         @arg @ref LL_TIM_TRGO_UPDATE
3999:Drivers/STM32G4xx_HAL_Driver/Inc/stm32g4xx_ll_tim.h ****   *         @arg @ref LL_TIM_TRGO_CC1IF
4000:Drivers/STM32G4xx_HAL_Driver/Inc/stm32g4xx_ll_tim.h ****   *         @arg @ref LL_TIM_TRGO_OC1REF
4001:Drivers/STM32G4xx_HAL_Driver/Inc/stm32g4xx_ll_tim.h ****   *         @arg @ref LL_TIM_TRGO_OC2REF
4002:Drivers/STM32G4xx_HAL_Driver/Inc/stm32g4xx_ll_tim.h ****   *         @arg @ref LL_TIM_TRGO_OC3REF
4003:Drivers/STM32G4xx_HAL_Driver/Inc/stm32g4xx_ll_tim.h ****   *         @arg @ref LL_TIM_TRGO_OC4REF
4004:Drivers/STM32G4xx_HAL_Driver/Inc/stm32g4xx_ll_tim.h ****   *         @arg @ref LL_TIM_TRGO_ENCODERCLK
4005:Drivers/STM32G4xx_HAL_Driver/Inc/stm32g4xx_ll_tim.h ****   * @retval None
4006:Drivers/STM32G4xx_HAL_Driver/Inc/stm32g4xx_ll_tim.h ****   */
4007:Drivers/STM32G4xx_HAL_Driver/Inc/stm32g4xx_ll_tim.h **** __STATIC_INLINE void LL_TIM_SetTriggerOutput(TIM_TypeDef *TIMx, uint32_t TimerSynchronization)
4008:Drivers/STM32G4xx_HAL_Driver/Inc/stm32g4xx_ll_tim.h **** {
4009:Drivers/STM32G4xx_HAL_Driver/Inc/stm32g4xx_ll_tim.h ****   MODIFY_REG(TIMx->CR2, TIM_CR2_MMS, TimerSynchronization);
4010:Drivers/STM32G4xx_HAL_Driver/Inc/stm32g4xx_ll_tim.h **** }
4011:Drivers/STM32G4xx_HAL_Driver/Inc/stm32g4xx_ll_tim.h **** 
4012:Drivers/STM32G4xx_HAL_Driver/Inc/stm32g4xx_ll_tim.h **** /**
4013:Drivers/STM32G4xx_HAL_Driver/Inc/stm32g4xx_ll_tim.h ****   * @brief  Set the trigger output 2 (TRGO2) used for ADC synchronization .
4014:Drivers/STM32G4xx_HAL_Driver/Inc/stm32g4xx_ll_tim.h ****   * @note Macro IS_TIM_TRGO2_INSTANCE(TIMx) can be used to check
4015:Drivers/STM32G4xx_HAL_Driver/Inc/stm32g4xx_ll_tim.h ****   *       whether or not a timer instance can be used for ADC synchronization.
4016:Drivers/STM32G4xx_HAL_Driver/Inc/stm32g4xx_ll_tim.h ****   * @rmtoll CR2          MMS2          LL_TIM_SetTriggerOutput2
4017:Drivers/STM32G4xx_HAL_Driver/Inc/stm32g4xx_ll_tim.h ****   * @param  TIMx Timer Instance
4018:Drivers/STM32G4xx_HAL_Driver/Inc/stm32g4xx_ll_tim.h ****   * @param  ADCSynchronization This parameter can be one of the following values:
4019:Drivers/STM32G4xx_HAL_Driver/Inc/stm32g4xx_ll_tim.h ****   *         @arg @ref LL_TIM_TRGO2_RESET
4020:Drivers/STM32G4xx_HAL_Driver/Inc/stm32g4xx_ll_tim.h ****   *         @arg @ref LL_TIM_TRGO2_ENABLE
4021:Drivers/STM32G4xx_HAL_Driver/Inc/stm32g4xx_ll_tim.h ****   *         @arg @ref LL_TIM_TRGO2_UPDATE
4022:Drivers/STM32G4xx_HAL_Driver/Inc/stm32g4xx_ll_tim.h ****   *         @arg @ref LL_TIM_TRGO2_CC1F
4023:Drivers/STM32G4xx_HAL_Driver/Inc/stm32g4xx_ll_tim.h ****   *         @arg @ref LL_TIM_TRGO2_OC1
4024:Drivers/STM32G4xx_HAL_Driver/Inc/stm32g4xx_ll_tim.h ****   *         @arg @ref LL_TIM_TRGO2_OC2
4025:Drivers/STM32G4xx_HAL_Driver/Inc/stm32g4xx_ll_tim.h ****   *         @arg @ref LL_TIM_TRGO2_OC3
4026:Drivers/STM32G4xx_HAL_Driver/Inc/stm32g4xx_ll_tim.h ****   *         @arg @ref LL_TIM_TRGO2_OC4
4027:Drivers/STM32G4xx_HAL_Driver/Inc/stm32g4xx_ll_tim.h ****   *         @arg @ref LL_TIM_TRGO2_OC5
4028:Drivers/STM32G4xx_HAL_Driver/Inc/stm32g4xx_ll_tim.h ****   *         @arg @ref LL_TIM_TRGO2_OC6
4029:Drivers/STM32G4xx_HAL_Driver/Inc/stm32g4xx_ll_tim.h ****   *         @arg @ref LL_TIM_TRGO2_OC4_RISINGFALLING
4030:Drivers/STM32G4xx_HAL_Driver/Inc/stm32g4xx_ll_tim.h ****   *         @arg @ref LL_TIM_TRGO2_OC6_RISINGFALLING
4031:Drivers/STM32G4xx_HAL_Driver/Inc/stm32g4xx_ll_tim.h ****   *         @arg @ref LL_TIM_TRGO2_OC4_RISING_OC6_RISING
4032:Drivers/STM32G4xx_HAL_Driver/Inc/stm32g4xx_ll_tim.h ****   *         @arg @ref LL_TIM_TRGO2_OC4_RISING_OC6_FALLING
4033:Drivers/STM32G4xx_HAL_Driver/Inc/stm32g4xx_ll_tim.h ****   *         @arg @ref LL_TIM_TRGO2_OC5_RISING_OC6_RISING
4034:Drivers/STM32G4xx_HAL_Driver/Inc/stm32g4xx_ll_tim.h ****   *         @arg @ref LL_TIM_TRGO2_OC5_RISING_OC6_FALLING
4035:Drivers/STM32G4xx_HAL_Driver/Inc/stm32g4xx_ll_tim.h ****   * @retval None
4036:Drivers/STM32G4xx_HAL_Driver/Inc/stm32g4xx_ll_tim.h ****   */
4037:Drivers/STM32G4xx_HAL_Driver/Inc/stm32g4xx_ll_tim.h **** __STATIC_INLINE void LL_TIM_SetTriggerOutput2(TIM_TypeDef *TIMx, uint32_t ADCSynchronization)
4038:Drivers/STM32G4xx_HAL_Driver/Inc/stm32g4xx_ll_tim.h **** {
4039:Drivers/STM32G4xx_HAL_Driver/Inc/stm32g4xx_ll_tim.h ****   MODIFY_REG(TIMx->CR2, TIM_CR2_MMS2, ADCSynchronization);
4040:Drivers/STM32G4xx_HAL_Driver/Inc/stm32g4xx_ll_tim.h **** }
4041:Drivers/STM32G4xx_HAL_Driver/Inc/stm32g4xx_ll_tim.h **** 
4042:Drivers/STM32G4xx_HAL_Driver/Inc/stm32g4xx_ll_tim.h **** /**
4043:Drivers/STM32G4xx_HAL_Driver/Inc/stm32g4xx_ll_tim.h ****   * @brief  Set the synchronization mode of a slave timer.
4044:Drivers/STM32G4xx_HAL_Driver/Inc/stm32g4xx_ll_tim.h ****   * @note Macro IS_TIM_SLAVE_INSTANCE(TIMx) can be used to check whether or not
ARM GAS  /tmp/ccF6ITrB.s 			page 122


4045:Drivers/STM32G4xx_HAL_Driver/Inc/stm32g4xx_ll_tim.h ****   *       a timer instance can operate as a slave timer.
4046:Drivers/STM32G4xx_HAL_Driver/Inc/stm32g4xx_ll_tim.h ****   * @rmtoll SMCR         SMS           LL_TIM_SetSlaveMode
4047:Drivers/STM32G4xx_HAL_Driver/Inc/stm32g4xx_ll_tim.h ****   * @param  TIMx Timer instance
4048:Drivers/STM32G4xx_HAL_Driver/Inc/stm32g4xx_ll_tim.h ****   * @param  SlaveMode This parameter can be one of the following values:
4049:Drivers/STM32G4xx_HAL_Driver/Inc/stm32g4xx_ll_tim.h ****   *         @arg @ref LL_TIM_SLAVEMODE_DISABLED
4050:Drivers/STM32G4xx_HAL_Driver/Inc/stm32g4xx_ll_tim.h ****   *         @arg @ref LL_TIM_SLAVEMODE_RESET
4051:Drivers/STM32G4xx_HAL_Driver/Inc/stm32g4xx_ll_tim.h ****   *         @arg @ref LL_TIM_SLAVEMODE_GATED
4052:Drivers/STM32G4xx_HAL_Driver/Inc/stm32g4xx_ll_tim.h ****   *         @arg @ref LL_TIM_SLAVEMODE_TRIGGER
4053:Drivers/STM32G4xx_HAL_Driver/Inc/stm32g4xx_ll_tim.h ****   *         @arg @ref LL_TIM_SLAVEMODE_COMBINED_RESETTRIGGER
4054:Drivers/STM32G4xx_HAL_Driver/Inc/stm32g4xx_ll_tim.h ****   *         @arg @ref LL_TIM_SLAVEMODE_COMBINED_GATEDRESET
4055:Drivers/STM32G4xx_HAL_Driver/Inc/stm32g4xx_ll_tim.h ****   * @retval None
4056:Drivers/STM32G4xx_HAL_Driver/Inc/stm32g4xx_ll_tim.h ****   */
4057:Drivers/STM32G4xx_HAL_Driver/Inc/stm32g4xx_ll_tim.h **** __STATIC_INLINE void LL_TIM_SetSlaveMode(TIM_TypeDef *TIMx, uint32_t SlaveMode)
4058:Drivers/STM32G4xx_HAL_Driver/Inc/stm32g4xx_ll_tim.h **** {
4059:Drivers/STM32G4xx_HAL_Driver/Inc/stm32g4xx_ll_tim.h ****   MODIFY_REG(TIMx->SMCR, TIM_SMCR_SMS, SlaveMode);
4060:Drivers/STM32G4xx_HAL_Driver/Inc/stm32g4xx_ll_tim.h **** }
4061:Drivers/STM32G4xx_HAL_Driver/Inc/stm32g4xx_ll_tim.h **** 
4062:Drivers/STM32G4xx_HAL_Driver/Inc/stm32g4xx_ll_tim.h **** /**
4063:Drivers/STM32G4xx_HAL_Driver/Inc/stm32g4xx_ll_tim.h ****   * @brief  Set the selects the trigger input to be used to synchronize the counter.
4064:Drivers/STM32G4xx_HAL_Driver/Inc/stm32g4xx_ll_tim.h ****   * @note Macro IS_TIM_SLAVE_INSTANCE(TIMx) can be used to check whether or not
4065:Drivers/STM32G4xx_HAL_Driver/Inc/stm32g4xx_ll_tim.h ****   *       a timer instance can operate as a slave timer.
4066:Drivers/STM32G4xx_HAL_Driver/Inc/stm32g4xx_ll_tim.h ****   * @rmtoll SMCR         TS            LL_TIM_SetTriggerInput
4067:Drivers/STM32G4xx_HAL_Driver/Inc/stm32g4xx_ll_tim.h ****   * @param  TIMx Timer instance
4068:Drivers/STM32G4xx_HAL_Driver/Inc/stm32g4xx_ll_tim.h ****   * @param  TriggerInput This parameter can be one of the following values:
4069:Drivers/STM32G4xx_HAL_Driver/Inc/stm32g4xx_ll_tim.h ****   *         @arg @ref LL_TIM_TS_ITR0
4070:Drivers/STM32G4xx_HAL_Driver/Inc/stm32g4xx_ll_tim.h ****   *         @arg @ref LL_TIM_TS_ITR1
4071:Drivers/STM32G4xx_HAL_Driver/Inc/stm32g4xx_ll_tim.h ****   *         @arg @ref LL_TIM_TS_ITR2
4072:Drivers/STM32G4xx_HAL_Driver/Inc/stm32g4xx_ll_tim.h ****   *         @arg @ref LL_TIM_TS_ITR3
4073:Drivers/STM32G4xx_HAL_Driver/Inc/stm32g4xx_ll_tim.h ****   *         @arg @ref LL_TIM_TS_ITR4
4074:Drivers/STM32G4xx_HAL_Driver/Inc/stm32g4xx_ll_tim.h ****   *         @arg @ref LL_TIM_TS_ITR5
4075:Drivers/STM32G4xx_HAL_Driver/Inc/stm32g4xx_ll_tim.h ****   *         @arg @ref LL_TIM_TS_ITR6
4076:Drivers/STM32G4xx_HAL_Driver/Inc/stm32g4xx_ll_tim.h ****   *         @arg @ref LL_TIM_TS_ITR7
4077:Drivers/STM32G4xx_HAL_Driver/Inc/stm32g4xx_ll_tim.h ****   *         @arg @ref LL_TIM_TS_ITR8
4078:Drivers/STM32G4xx_HAL_Driver/Inc/stm32g4xx_ll_tim.h ****   *         @arg @ref LL_TIM_TS_ITR9
4079:Drivers/STM32G4xx_HAL_Driver/Inc/stm32g4xx_ll_tim.h ****   *         @arg @ref LL_TIM_TS_ITR10
4080:Drivers/STM32G4xx_HAL_Driver/Inc/stm32g4xx_ll_tim.h ****   *         @arg @ref LL_TIM_TS_ITR11
4081:Drivers/STM32G4xx_HAL_Driver/Inc/stm32g4xx_ll_tim.h ****   *         @arg @ref LL_TIM_TS_TI1F_ED
4082:Drivers/STM32G4xx_HAL_Driver/Inc/stm32g4xx_ll_tim.h ****   *         @arg @ref LL_TIM_TS_TI1FP1
4083:Drivers/STM32G4xx_HAL_Driver/Inc/stm32g4xx_ll_tim.h ****   *         @arg @ref LL_TIM_TS_TI2FP2
4084:Drivers/STM32G4xx_HAL_Driver/Inc/stm32g4xx_ll_tim.h ****   *         @arg @ref LL_TIM_TS_ETRF
4085:Drivers/STM32G4xx_HAL_Driver/Inc/stm32g4xx_ll_tim.h ****   * @retval None
4086:Drivers/STM32G4xx_HAL_Driver/Inc/stm32g4xx_ll_tim.h ****   */
4087:Drivers/STM32G4xx_HAL_Driver/Inc/stm32g4xx_ll_tim.h **** __STATIC_INLINE void LL_TIM_SetTriggerInput(TIM_TypeDef *TIMx, uint32_t TriggerInput)
4088:Drivers/STM32G4xx_HAL_Driver/Inc/stm32g4xx_ll_tim.h **** {
4089:Drivers/STM32G4xx_HAL_Driver/Inc/stm32g4xx_ll_tim.h ****   MODIFY_REG(TIMx->SMCR, TIM_SMCR_TS, TriggerInput);
4090:Drivers/STM32G4xx_HAL_Driver/Inc/stm32g4xx_ll_tim.h **** }
4091:Drivers/STM32G4xx_HAL_Driver/Inc/stm32g4xx_ll_tim.h **** 
4092:Drivers/STM32G4xx_HAL_Driver/Inc/stm32g4xx_ll_tim.h **** /**
4093:Drivers/STM32G4xx_HAL_Driver/Inc/stm32g4xx_ll_tim.h ****   * @brief  Enable the Master/Slave mode.
4094:Drivers/STM32G4xx_HAL_Driver/Inc/stm32g4xx_ll_tim.h ****   * @note Macro IS_TIM_SLAVE_INSTANCE(TIMx) can be used to check whether or not
4095:Drivers/STM32G4xx_HAL_Driver/Inc/stm32g4xx_ll_tim.h ****   *       a timer instance can operate as a slave timer.
4096:Drivers/STM32G4xx_HAL_Driver/Inc/stm32g4xx_ll_tim.h ****   * @rmtoll SMCR         MSM           LL_TIM_EnableMasterSlaveMode
4097:Drivers/STM32G4xx_HAL_Driver/Inc/stm32g4xx_ll_tim.h ****   * @param  TIMx Timer instance
4098:Drivers/STM32G4xx_HAL_Driver/Inc/stm32g4xx_ll_tim.h ****   * @retval None
4099:Drivers/STM32G4xx_HAL_Driver/Inc/stm32g4xx_ll_tim.h ****   */
4100:Drivers/STM32G4xx_HAL_Driver/Inc/stm32g4xx_ll_tim.h **** __STATIC_INLINE void LL_TIM_EnableMasterSlaveMode(TIM_TypeDef *TIMx)
4101:Drivers/STM32G4xx_HAL_Driver/Inc/stm32g4xx_ll_tim.h **** {
ARM GAS  /tmp/ccF6ITrB.s 			page 123


4102:Drivers/STM32G4xx_HAL_Driver/Inc/stm32g4xx_ll_tim.h ****   SET_BIT(TIMx->SMCR, TIM_SMCR_MSM);
4103:Drivers/STM32G4xx_HAL_Driver/Inc/stm32g4xx_ll_tim.h **** }
4104:Drivers/STM32G4xx_HAL_Driver/Inc/stm32g4xx_ll_tim.h **** 
4105:Drivers/STM32G4xx_HAL_Driver/Inc/stm32g4xx_ll_tim.h **** /**
4106:Drivers/STM32G4xx_HAL_Driver/Inc/stm32g4xx_ll_tim.h ****   * @brief  Disable the Master/Slave mode.
4107:Drivers/STM32G4xx_HAL_Driver/Inc/stm32g4xx_ll_tim.h ****   * @note Macro IS_TIM_SLAVE_INSTANCE(TIMx) can be used to check whether or not
4108:Drivers/STM32G4xx_HAL_Driver/Inc/stm32g4xx_ll_tim.h ****   *       a timer instance can operate as a slave timer.
4109:Drivers/STM32G4xx_HAL_Driver/Inc/stm32g4xx_ll_tim.h ****   * @rmtoll SMCR         MSM           LL_TIM_DisableMasterSlaveMode
4110:Drivers/STM32G4xx_HAL_Driver/Inc/stm32g4xx_ll_tim.h ****   * @param  TIMx Timer instance
4111:Drivers/STM32G4xx_HAL_Driver/Inc/stm32g4xx_ll_tim.h ****   * @retval None
4112:Drivers/STM32G4xx_HAL_Driver/Inc/stm32g4xx_ll_tim.h ****   */
4113:Drivers/STM32G4xx_HAL_Driver/Inc/stm32g4xx_ll_tim.h **** __STATIC_INLINE void LL_TIM_DisableMasterSlaveMode(TIM_TypeDef *TIMx)
4114:Drivers/STM32G4xx_HAL_Driver/Inc/stm32g4xx_ll_tim.h **** {
4115:Drivers/STM32G4xx_HAL_Driver/Inc/stm32g4xx_ll_tim.h ****   CLEAR_BIT(TIMx->SMCR, TIM_SMCR_MSM);
4116:Drivers/STM32G4xx_HAL_Driver/Inc/stm32g4xx_ll_tim.h **** }
4117:Drivers/STM32G4xx_HAL_Driver/Inc/stm32g4xx_ll_tim.h **** 
4118:Drivers/STM32G4xx_HAL_Driver/Inc/stm32g4xx_ll_tim.h **** /**
4119:Drivers/STM32G4xx_HAL_Driver/Inc/stm32g4xx_ll_tim.h ****   * @brief Indicates whether the Master/Slave mode is enabled.
4120:Drivers/STM32G4xx_HAL_Driver/Inc/stm32g4xx_ll_tim.h ****   * @note Macro IS_TIM_SLAVE_INSTANCE(TIMx) can be used to check whether or not
4121:Drivers/STM32G4xx_HAL_Driver/Inc/stm32g4xx_ll_tim.h ****   * a timer instance can operate as a slave timer.
4122:Drivers/STM32G4xx_HAL_Driver/Inc/stm32g4xx_ll_tim.h ****   * @rmtoll SMCR         MSM           LL_TIM_IsEnabledMasterSlaveMode
4123:Drivers/STM32G4xx_HAL_Driver/Inc/stm32g4xx_ll_tim.h ****   * @param  TIMx Timer instance
4124:Drivers/STM32G4xx_HAL_Driver/Inc/stm32g4xx_ll_tim.h ****   * @retval State of bit (1 or 0).
4125:Drivers/STM32G4xx_HAL_Driver/Inc/stm32g4xx_ll_tim.h ****   */
4126:Drivers/STM32G4xx_HAL_Driver/Inc/stm32g4xx_ll_tim.h **** __STATIC_INLINE uint32_t LL_TIM_IsEnabledMasterSlaveMode(const TIM_TypeDef *TIMx)
4127:Drivers/STM32G4xx_HAL_Driver/Inc/stm32g4xx_ll_tim.h **** {
4128:Drivers/STM32G4xx_HAL_Driver/Inc/stm32g4xx_ll_tim.h ****   return ((READ_BIT(TIMx->SMCR, TIM_SMCR_MSM) == (TIM_SMCR_MSM)) ? 1UL : 0UL);
4129:Drivers/STM32G4xx_HAL_Driver/Inc/stm32g4xx_ll_tim.h **** }
4130:Drivers/STM32G4xx_HAL_Driver/Inc/stm32g4xx_ll_tim.h **** 
4131:Drivers/STM32G4xx_HAL_Driver/Inc/stm32g4xx_ll_tim.h **** /**
4132:Drivers/STM32G4xx_HAL_Driver/Inc/stm32g4xx_ll_tim.h ****   * @brief  Configure the external trigger (ETR) input.
4133:Drivers/STM32G4xx_HAL_Driver/Inc/stm32g4xx_ll_tim.h ****   * @note Macro IS_TIM_ETR_INSTANCE(TIMx) can be used to check whether or not
4134:Drivers/STM32G4xx_HAL_Driver/Inc/stm32g4xx_ll_tim.h ****   *       a timer instance provides an external trigger input.
4135:Drivers/STM32G4xx_HAL_Driver/Inc/stm32g4xx_ll_tim.h ****   * @rmtoll SMCR         ETP           LL_TIM_ConfigETR\n
4136:Drivers/STM32G4xx_HAL_Driver/Inc/stm32g4xx_ll_tim.h ****   *         SMCR         ETPS          LL_TIM_ConfigETR\n
4137:Drivers/STM32G4xx_HAL_Driver/Inc/stm32g4xx_ll_tim.h ****   *         SMCR         ETF           LL_TIM_ConfigETR
4138:Drivers/STM32G4xx_HAL_Driver/Inc/stm32g4xx_ll_tim.h ****   * @param  TIMx Timer instance
4139:Drivers/STM32G4xx_HAL_Driver/Inc/stm32g4xx_ll_tim.h ****   * @param  ETRPolarity This parameter can be one of the following values:
4140:Drivers/STM32G4xx_HAL_Driver/Inc/stm32g4xx_ll_tim.h ****   *         @arg @ref LL_TIM_ETR_POLARITY_NONINVERTED
4141:Drivers/STM32G4xx_HAL_Driver/Inc/stm32g4xx_ll_tim.h ****   *         @arg @ref LL_TIM_ETR_POLARITY_INVERTED
4142:Drivers/STM32G4xx_HAL_Driver/Inc/stm32g4xx_ll_tim.h ****   * @param  ETRPrescaler This parameter can be one of the following values:
4143:Drivers/STM32G4xx_HAL_Driver/Inc/stm32g4xx_ll_tim.h ****   *         @arg @ref LL_TIM_ETR_PRESCALER_DIV1
4144:Drivers/STM32G4xx_HAL_Driver/Inc/stm32g4xx_ll_tim.h ****   *         @arg @ref LL_TIM_ETR_PRESCALER_DIV2
4145:Drivers/STM32G4xx_HAL_Driver/Inc/stm32g4xx_ll_tim.h ****   *         @arg @ref LL_TIM_ETR_PRESCALER_DIV4
4146:Drivers/STM32G4xx_HAL_Driver/Inc/stm32g4xx_ll_tim.h ****   *         @arg @ref LL_TIM_ETR_PRESCALER_DIV8
4147:Drivers/STM32G4xx_HAL_Driver/Inc/stm32g4xx_ll_tim.h ****   * @param  ETRFilter This parameter can be one of the following values:
4148:Drivers/STM32G4xx_HAL_Driver/Inc/stm32g4xx_ll_tim.h ****   *         @arg @ref LL_TIM_ETR_FILTER_FDIV1
4149:Drivers/STM32G4xx_HAL_Driver/Inc/stm32g4xx_ll_tim.h ****   *         @arg @ref LL_TIM_ETR_FILTER_FDIV1_N2
4150:Drivers/STM32G4xx_HAL_Driver/Inc/stm32g4xx_ll_tim.h ****   *         @arg @ref LL_TIM_ETR_FILTER_FDIV1_N4
4151:Drivers/STM32G4xx_HAL_Driver/Inc/stm32g4xx_ll_tim.h ****   *         @arg @ref LL_TIM_ETR_FILTER_FDIV1_N8
4152:Drivers/STM32G4xx_HAL_Driver/Inc/stm32g4xx_ll_tim.h ****   *         @arg @ref LL_TIM_ETR_FILTER_FDIV2_N6
4153:Drivers/STM32G4xx_HAL_Driver/Inc/stm32g4xx_ll_tim.h ****   *         @arg @ref LL_TIM_ETR_FILTER_FDIV2_N8
4154:Drivers/STM32G4xx_HAL_Driver/Inc/stm32g4xx_ll_tim.h ****   *         @arg @ref LL_TIM_ETR_FILTER_FDIV4_N6
4155:Drivers/STM32G4xx_HAL_Driver/Inc/stm32g4xx_ll_tim.h ****   *         @arg @ref LL_TIM_ETR_FILTER_FDIV4_N8
4156:Drivers/STM32G4xx_HAL_Driver/Inc/stm32g4xx_ll_tim.h ****   *         @arg @ref LL_TIM_ETR_FILTER_FDIV8_N6
4157:Drivers/STM32G4xx_HAL_Driver/Inc/stm32g4xx_ll_tim.h ****   *         @arg @ref LL_TIM_ETR_FILTER_FDIV8_N8
4158:Drivers/STM32G4xx_HAL_Driver/Inc/stm32g4xx_ll_tim.h ****   *         @arg @ref LL_TIM_ETR_FILTER_FDIV16_N5
ARM GAS  /tmp/ccF6ITrB.s 			page 124


4159:Drivers/STM32G4xx_HAL_Driver/Inc/stm32g4xx_ll_tim.h ****   *         @arg @ref LL_TIM_ETR_FILTER_FDIV16_N6
4160:Drivers/STM32G4xx_HAL_Driver/Inc/stm32g4xx_ll_tim.h ****   *         @arg @ref LL_TIM_ETR_FILTER_FDIV16_N8
4161:Drivers/STM32G4xx_HAL_Driver/Inc/stm32g4xx_ll_tim.h ****   *         @arg @ref LL_TIM_ETR_FILTER_FDIV32_N5
4162:Drivers/STM32G4xx_HAL_Driver/Inc/stm32g4xx_ll_tim.h ****   *         @arg @ref LL_TIM_ETR_FILTER_FDIV32_N6
4163:Drivers/STM32G4xx_HAL_Driver/Inc/stm32g4xx_ll_tim.h ****   *         @arg @ref LL_TIM_ETR_FILTER_FDIV32_N8
4164:Drivers/STM32G4xx_HAL_Driver/Inc/stm32g4xx_ll_tim.h ****   * @retval None
4165:Drivers/STM32G4xx_HAL_Driver/Inc/stm32g4xx_ll_tim.h ****   */
4166:Drivers/STM32G4xx_HAL_Driver/Inc/stm32g4xx_ll_tim.h **** __STATIC_INLINE void LL_TIM_ConfigETR(TIM_TypeDef *TIMx, uint32_t ETRPolarity, uint32_t ETRPrescale
4167:Drivers/STM32G4xx_HAL_Driver/Inc/stm32g4xx_ll_tim.h ****                                       uint32_t ETRFilter)
4168:Drivers/STM32G4xx_HAL_Driver/Inc/stm32g4xx_ll_tim.h **** {
4169:Drivers/STM32G4xx_HAL_Driver/Inc/stm32g4xx_ll_tim.h ****   MODIFY_REG(TIMx->SMCR, TIM_SMCR_ETP | TIM_SMCR_ETPS | TIM_SMCR_ETF, ETRPolarity | ETRPrescaler | 
4170:Drivers/STM32G4xx_HAL_Driver/Inc/stm32g4xx_ll_tim.h **** }
4171:Drivers/STM32G4xx_HAL_Driver/Inc/stm32g4xx_ll_tim.h **** 
4172:Drivers/STM32G4xx_HAL_Driver/Inc/stm32g4xx_ll_tim.h **** /**
4173:Drivers/STM32G4xx_HAL_Driver/Inc/stm32g4xx_ll_tim.h ****   * @brief  Select the external trigger (ETR) input source.
4174:Drivers/STM32G4xx_HAL_Driver/Inc/stm32g4xx_ll_tim.h ****   * @note Macro IS_TIM_ETRSEL_INSTANCE(TIMx) can be used to check whether or
4175:Drivers/STM32G4xx_HAL_Driver/Inc/stm32g4xx_ll_tim.h ****   *       not a timer instance supports ETR source selection.
4176:Drivers/STM32G4xx_HAL_Driver/Inc/stm32g4xx_ll_tim.h ****   * @rmtoll AF1          ETRSEL        LL_TIM_SetETRSource
4177:Drivers/STM32G4xx_HAL_Driver/Inc/stm32g4xx_ll_tim.h ****   * @param  TIMx Timer instance
4178:Drivers/STM32G4xx_HAL_Driver/Inc/stm32g4xx_ll_tim.h ****   * @param  ETRSource This parameter can be one of the following values:
4179:Drivers/STM32G4xx_HAL_Driver/Inc/stm32g4xx_ll_tim.h ****   *
4180:Drivers/STM32G4xx_HAL_Driver/Inc/stm32g4xx_ll_tim.h ****   *         TIM1: any combination of ETR_RMP where
4181:Drivers/STM32G4xx_HAL_Driver/Inc/stm32g4xx_ll_tim.h ****   *
4182:Drivers/STM32G4xx_HAL_Driver/Inc/stm32g4xx_ll_tim.h ****   *            @arg @ref LL_TIM_TIM1_ETRSOURCE_GPIO
4183:Drivers/STM32G4xx_HAL_Driver/Inc/stm32g4xx_ll_tim.h ****   *            @arg @ref LL_TIM_TIM1_ETRSOURCE_COMP1
4184:Drivers/STM32G4xx_HAL_Driver/Inc/stm32g4xx_ll_tim.h ****   *            @arg @ref LL_TIM_TIM1_ETRSOURCE_COMP2
4185:Drivers/STM32G4xx_HAL_Driver/Inc/stm32g4xx_ll_tim.h ****   *            @arg @ref LL_TIM_TIM1_ETRSOURCE_COMP3
4186:Drivers/STM32G4xx_HAL_Driver/Inc/stm32g4xx_ll_tim.h ****   *            @arg @ref LL_TIM_TIM1_ETRSOURCE_COMP4
4187:Drivers/STM32G4xx_HAL_Driver/Inc/stm32g4xx_ll_tim.h ****   *            @arg @ref LL_TIM_TIM1_ETRSOURCE_COMP5       (*)
4188:Drivers/STM32G4xx_HAL_Driver/Inc/stm32g4xx_ll_tim.h ****   *            @arg @ref LL_TIM_TIM1_ETRSOURCE_COMP6       (*)
4189:Drivers/STM32G4xx_HAL_Driver/Inc/stm32g4xx_ll_tim.h ****   *            @arg @ref LL_TIM_TIM1_ETRSOURCE_COMP7       (*)
4190:Drivers/STM32G4xx_HAL_Driver/Inc/stm32g4xx_ll_tim.h ****   *            @arg @ref LL_TIM_TIM1_ETRSOURCE_ADC1_AWD1
4191:Drivers/STM32G4xx_HAL_Driver/Inc/stm32g4xx_ll_tim.h ****   *            @arg @ref LL_TIM_TIM1_ETRSOURCE_ADC1_AWD2
4192:Drivers/STM32G4xx_HAL_Driver/Inc/stm32g4xx_ll_tim.h ****   *            @arg @ref LL_TIM_TIM1_ETRSOURCE_ADC1_AWD3
4193:Drivers/STM32G4xx_HAL_Driver/Inc/stm32g4xx_ll_tim.h ****   *            @arg @ref LL_TIM_TIM1_ETRSOURCE_ADC4_AWD1   (*)
4194:Drivers/STM32G4xx_HAL_Driver/Inc/stm32g4xx_ll_tim.h ****   *            @arg @ref LL_TIM_TIM1_ETRSOURCE_ADC4_AWD2   (*)
4195:Drivers/STM32G4xx_HAL_Driver/Inc/stm32g4xx_ll_tim.h ****   *            @arg @ref LL_TIM_TIM1_ETRSOURCE_ADC4_AWD3   (*)
4196:Drivers/STM32G4xx_HAL_Driver/Inc/stm32g4xx_ll_tim.h ****   *
4197:Drivers/STM32G4xx_HAL_Driver/Inc/stm32g4xx_ll_tim.h ****   *         TIM2: any combination of ETR_RMP where
4198:Drivers/STM32G4xx_HAL_Driver/Inc/stm32g4xx_ll_tim.h ****   *
4199:Drivers/STM32G4xx_HAL_Driver/Inc/stm32g4xx_ll_tim.h ****   *            @arg @ref LL_TIM_TIM2_ETRSOURCE_GPIO
4200:Drivers/STM32G4xx_HAL_Driver/Inc/stm32g4xx_ll_tim.h ****   *            @arg @ref LL_TIM_TIM2_ETRSOURCE_COMP1
4201:Drivers/STM32G4xx_HAL_Driver/Inc/stm32g4xx_ll_tim.h ****   *            @arg @ref LL_TIM_TIM2_ETRSOURCE_COMP2
4202:Drivers/STM32G4xx_HAL_Driver/Inc/stm32g4xx_ll_tim.h ****   *            @arg @ref LL_TIM_TIM2_ETRSOURCE_COMP3
4203:Drivers/STM32G4xx_HAL_Driver/Inc/stm32g4xx_ll_tim.h ****   *            @arg @ref LL_TIM_TIM2_ETRSOURCE_COMP4
4204:Drivers/STM32G4xx_HAL_Driver/Inc/stm32g4xx_ll_tim.h ****   *            @arg @ref LL_TIM_TIM2_ETRSOURCE_COMP5       (*)
4205:Drivers/STM32G4xx_HAL_Driver/Inc/stm32g4xx_ll_tim.h ****   *            @arg @ref LL_TIM_TIM2_ETRSOURCE_COMP6       (*)
4206:Drivers/STM32G4xx_HAL_Driver/Inc/stm32g4xx_ll_tim.h ****   *            @arg @ref LL_TIM_TIM2_ETRSOURCE_COMP7       (*)
4207:Drivers/STM32G4xx_HAL_Driver/Inc/stm32g4xx_ll_tim.h ****   *            @arg @ref LL_TIM_TIM2_ETRSOURCE_TIM3_ETR
4208:Drivers/STM32G4xx_HAL_Driver/Inc/stm32g4xx_ll_tim.h ****   *            @arg @ref LL_TIM_TIM2_ETRSOURCE_TIM4_ETR
4209:Drivers/STM32G4xx_HAL_Driver/Inc/stm32g4xx_ll_tim.h ****   *            @arg @ref LL_TIM_TIM2_ETRSOURCE_TIM5_ETR    (*)
4210:Drivers/STM32G4xx_HAL_Driver/Inc/stm32g4xx_ll_tim.h ****   *            @arg @ref LL_TIM_TIM2_ETRSOURCE_LSE
4211:Drivers/STM32G4xx_HAL_Driver/Inc/stm32g4xx_ll_tim.h ****   *
4212:Drivers/STM32G4xx_HAL_Driver/Inc/stm32g4xx_ll_tim.h ****   *         TIM3: any combination of ETR_RMP where
4213:Drivers/STM32G4xx_HAL_Driver/Inc/stm32g4xx_ll_tim.h ****   *
4214:Drivers/STM32G4xx_HAL_Driver/Inc/stm32g4xx_ll_tim.h ****   *            @arg @ref LL_TIM_TIM3_ETRSOURCE_GPIO
4215:Drivers/STM32G4xx_HAL_Driver/Inc/stm32g4xx_ll_tim.h ****   *            @arg @ref LL_TIM_TIM3_ETRSOURCE_COMP1
ARM GAS  /tmp/ccF6ITrB.s 			page 125


4216:Drivers/STM32G4xx_HAL_Driver/Inc/stm32g4xx_ll_tim.h ****   *            @arg @ref LL_TIM_TIM3_ETRSOURCE_COMP2
4217:Drivers/STM32G4xx_HAL_Driver/Inc/stm32g4xx_ll_tim.h ****   *            @arg @ref LL_TIM_TIM3_ETRSOURCE_COMP3
4218:Drivers/STM32G4xx_HAL_Driver/Inc/stm32g4xx_ll_tim.h ****   *            @arg @ref LL_TIM_TIM3_ETRSOURCE_COMP4
4219:Drivers/STM32G4xx_HAL_Driver/Inc/stm32g4xx_ll_tim.h ****   *            @arg @ref LL_TIM_TIM3_ETRSOURCE_COMP5       (*)
4220:Drivers/STM32G4xx_HAL_Driver/Inc/stm32g4xx_ll_tim.h ****   *            @arg @ref LL_TIM_TIM3_ETRSOURCE_COMP6       (*)
4221:Drivers/STM32G4xx_HAL_Driver/Inc/stm32g4xx_ll_tim.h ****   *            @arg @ref LL_TIM_TIM3_ETRSOURCE_COMP7       (*)
4222:Drivers/STM32G4xx_HAL_Driver/Inc/stm32g4xx_ll_tim.h ****   *            @arg @ref LL_TIM_TIM3_ETRSOURCE_TIM2_ETR
4223:Drivers/STM32G4xx_HAL_Driver/Inc/stm32g4xx_ll_tim.h ****   *            @arg @ref LL_TIM_TIM3_ETRSOURCE_TIM4_ETR
4224:Drivers/STM32G4xx_HAL_Driver/Inc/stm32g4xx_ll_tim.h ****   *            @arg @ref LL_TIM_TIM3_ETRSOURCE_ADC2_AWD1
4225:Drivers/STM32G4xx_HAL_Driver/Inc/stm32g4xx_ll_tim.h ****   *            @arg @ref LL_TIM_TIM3_ETRSOURCE_ADC2_AWD2
4226:Drivers/STM32G4xx_HAL_Driver/Inc/stm32g4xx_ll_tim.h ****   *            @arg @ref LL_TIM_TIM3_ETRSOURCE_ADC2_AWD3
4227:Drivers/STM32G4xx_HAL_Driver/Inc/stm32g4xx_ll_tim.h ****   *
4228:Drivers/STM32G4xx_HAL_Driver/Inc/stm32g4xx_ll_tim.h ****   *         TIM4: any combination of ETR_RMP where
4229:Drivers/STM32G4xx_HAL_Driver/Inc/stm32g4xx_ll_tim.h ****   *
4230:Drivers/STM32G4xx_HAL_Driver/Inc/stm32g4xx_ll_tim.h ****   *            @arg @ref LL_TIM_TIM4_ETRSOURCE_GPIO
4231:Drivers/STM32G4xx_HAL_Driver/Inc/stm32g4xx_ll_tim.h ****   *            @arg @ref LL_TIM_TIM4_ETRSOURCE_COMP1
4232:Drivers/STM32G4xx_HAL_Driver/Inc/stm32g4xx_ll_tim.h ****   *            @arg @ref LL_TIM_TIM4_ETRSOURCE_COMP2
4233:Drivers/STM32G4xx_HAL_Driver/Inc/stm32g4xx_ll_tim.h ****   *            @arg @ref LL_TIM_TIM4_ETRSOURCE_COMP3
4234:Drivers/STM32G4xx_HAL_Driver/Inc/stm32g4xx_ll_tim.h ****   *            @arg @ref LL_TIM_TIM4_ETRSOURCE_COMP4
4235:Drivers/STM32G4xx_HAL_Driver/Inc/stm32g4xx_ll_tim.h ****   *            @arg @ref LL_TIM_TIM4_ETRSOURCE_COMP5       (*)
4236:Drivers/STM32G4xx_HAL_Driver/Inc/stm32g4xx_ll_tim.h ****   *            @arg @ref LL_TIM_TIM4_ETRSOURCE_COMP6       (*)
4237:Drivers/STM32G4xx_HAL_Driver/Inc/stm32g4xx_ll_tim.h ****   *            @arg @ref LL_TIM_TIM4_ETRSOURCE_COMP7       (*)
4238:Drivers/STM32G4xx_HAL_Driver/Inc/stm32g4xx_ll_tim.h ****   *            @arg @ref LL_TIM_TIM4_ETRSOURCE_TIM3_ETR
4239:Drivers/STM32G4xx_HAL_Driver/Inc/stm32g4xx_ll_tim.h ****   *            @arg @ref LL_TIM_TIM4_ETRSOURCE_TIM5_ETR    (*)
4240:Drivers/STM32G4xx_HAL_Driver/Inc/stm32g4xx_ll_tim.h ****   *
4241:Drivers/STM32G4xx_HAL_Driver/Inc/stm32g4xx_ll_tim.h ****   *         TIM5: any combination of ETR_RMP where       (**)
4242:Drivers/STM32G4xx_HAL_Driver/Inc/stm32g4xx_ll_tim.h ****   *
4243:Drivers/STM32G4xx_HAL_Driver/Inc/stm32g4xx_ll_tim.h ****   *            @arg @ref LL_TIM_TIM5_ETRSOURCE_GPIO        (*)
4244:Drivers/STM32G4xx_HAL_Driver/Inc/stm32g4xx_ll_tim.h ****   *            @arg @ref LL_TIM_TIM5_ETRSOURCE_COMP1       (*)
4245:Drivers/STM32G4xx_HAL_Driver/Inc/stm32g4xx_ll_tim.h ****   *            @arg @ref LL_TIM_TIM5_ETRSOURCE_COMP2       (*)
4246:Drivers/STM32G4xx_HAL_Driver/Inc/stm32g4xx_ll_tim.h ****   *            @arg @ref LL_TIM_TIM5_ETRSOURCE_COMP3       (*)
4247:Drivers/STM32G4xx_HAL_Driver/Inc/stm32g4xx_ll_tim.h ****   *            @arg @ref LL_TIM_TIM5_ETRSOURCE_COMP4       (*)
4248:Drivers/STM32G4xx_HAL_Driver/Inc/stm32g4xx_ll_tim.h ****   *            @arg @ref LL_TIM_TIM5_ETRSOURCE_COMP5       (*)
4249:Drivers/STM32G4xx_HAL_Driver/Inc/stm32g4xx_ll_tim.h ****   *            @arg @ref LL_TIM_TIM5_ETRSOURCE_COMP6       (*)
4250:Drivers/STM32G4xx_HAL_Driver/Inc/stm32g4xx_ll_tim.h ****   *            @arg @ref LL_TIM_TIM5_ETRSOURCE_COMP7       (*)
4251:Drivers/STM32G4xx_HAL_Driver/Inc/stm32g4xx_ll_tim.h ****   *            @arg @ref LL_TIM_TIM5_ETRSOURCE_TIM2_ETR    (*)
4252:Drivers/STM32G4xx_HAL_Driver/Inc/stm32g4xx_ll_tim.h ****   *            @arg @ref LL_TIM_TIM5_ETRSOURCE_TIM3_ETR    (*)
4253:Drivers/STM32G4xx_HAL_Driver/Inc/stm32g4xx_ll_tim.h ****   *
4254:Drivers/STM32G4xx_HAL_Driver/Inc/stm32g4xx_ll_tim.h ****   *         TIM8: any combination of ETR_RMP where
4255:Drivers/STM32G4xx_HAL_Driver/Inc/stm32g4xx_ll_tim.h ****   *
4256:Drivers/STM32G4xx_HAL_Driver/Inc/stm32g4xx_ll_tim.h ****   *            . . ETR_RMP can be one of the following values
4257:Drivers/STM32G4xx_HAL_Driver/Inc/stm32g4xx_ll_tim.h ****   *            @arg @ref LL_TIM_TIM8_ETRSOURCE_GPIO
4258:Drivers/STM32G4xx_HAL_Driver/Inc/stm32g4xx_ll_tim.h ****   *            @arg @ref LL_TIM_TIM8_ETRSOURCE_COMP1
4259:Drivers/STM32G4xx_HAL_Driver/Inc/stm32g4xx_ll_tim.h ****   *            @arg @ref LL_TIM_TIM8_ETRSOURCE_COMP2
4260:Drivers/STM32G4xx_HAL_Driver/Inc/stm32g4xx_ll_tim.h ****   *            @arg @ref LL_TIM_TIM8_ETRSOURCE_COMP3
4261:Drivers/STM32G4xx_HAL_Driver/Inc/stm32g4xx_ll_tim.h ****   *            @arg @ref LL_TIM_TIM8_ETRSOURCE_COMP4
4262:Drivers/STM32G4xx_HAL_Driver/Inc/stm32g4xx_ll_tim.h ****   *            @arg @ref LL_TIM_TIM8_ETRSOURCE_COMP5       (*)
4263:Drivers/STM32G4xx_HAL_Driver/Inc/stm32g4xx_ll_tim.h ****   *            @arg @ref LL_TIM_TIM8_ETRSOURCE_COMP6       (*)
4264:Drivers/STM32G4xx_HAL_Driver/Inc/stm32g4xx_ll_tim.h ****   *            @arg @ref LL_TIM_TIM8_ETRSOURCE_COMP7       (*)
4265:Drivers/STM32G4xx_HAL_Driver/Inc/stm32g4xx_ll_tim.h ****   *            @arg @ref LL_TIM_TIM8_ETRSOURCE_ADC2_AWD1
4266:Drivers/STM32G4xx_HAL_Driver/Inc/stm32g4xx_ll_tim.h ****   *            @arg @ref LL_TIM_TIM8_ETRSOURCE_ADC2_AWD2
4267:Drivers/STM32G4xx_HAL_Driver/Inc/stm32g4xx_ll_tim.h ****   *            @arg @ref LL_TIM_TIM8_ETRSOURCE_ADC2_AWD3
4268:Drivers/STM32G4xx_HAL_Driver/Inc/stm32g4xx_ll_tim.h ****   *            @arg @ref LL_TIM_TIM8_ETRSOURCE_ADC3_AWD1   (*)
4269:Drivers/STM32G4xx_HAL_Driver/Inc/stm32g4xx_ll_tim.h ****   *            @arg @ref LL_TIM_TIM8_ETRSOURCE_ADC3_AWD2   (*)
4270:Drivers/STM32G4xx_HAL_Driver/Inc/stm32g4xx_ll_tim.h ****   *            @arg @ref LL_TIM_TIM8_ETRSOURCE_ADC3_AWD3   (*)
4271:Drivers/STM32G4xx_HAL_Driver/Inc/stm32g4xx_ll_tim.h ****   *
4272:Drivers/STM32G4xx_HAL_Driver/Inc/stm32g4xx_ll_tim.h ****   *         TIM20: any combination of ETR_RMP where       (**)
ARM GAS  /tmp/ccF6ITrB.s 			page 126


4273:Drivers/STM32G4xx_HAL_Driver/Inc/stm32g4xx_ll_tim.h ****   *
4274:Drivers/STM32G4xx_HAL_Driver/Inc/stm32g4xx_ll_tim.h ****   *            . . ETR_RMP can be one of the following values
4275:Drivers/STM32G4xx_HAL_Driver/Inc/stm32g4xx_ll_tim.h ****   *            @arg @ref LL_TIM_TIM20_ETRSOURCE_GPIO       (*)
4276:Drivers/STM32G4xx_HAL_Driver/Inc/stm32g4xx_ll_tim.h ****   *            @arg @ref LL_TIM_TIM20_ETRSOURCE_COMP1      (*)
4277:Drivers/STM32G4xx_HAL_Driver/Inc/stm32g4xx_ll_tim.h ****   *            @arg @ref LL_TIM_TIM20_ETRSOURCE_COMP2      (*)
4278:Drivers/STM32G4xx_HAL_Driver/Inc/stm32g4xx_ll_tim.h ****   *            @arg @ref LL_TIM_TIM20_ETRSOURCE_COMP3      (*)
4279:Drivers/STM32G4xx_HAL_Driver/Inc/stm32g4xx_ll_tim.h ****   *            @arg @ref LL_TIM_TIM20_ETRSOURCE_COMP4      (*)
4280:Drivers/STM32G4xx_HAL_Driver/Inc/stm32g4xx_ll_tim.h ****   *            @arg @ref LL_TIM_TIM20_ETRSOURCE_COMP5      (*)
4281:Drivers/STM32G4xx_HAL_Driver/Inc/stm32g4xx_ll_tim.h ****   *            @arg @ref LL_TIM_TIM20_ETRSOURCE_COMP6      (*)
4282:Drivers/STM32G4xx_HAL_Driver/Inc/stm32g4xx_ll_tim.h ****   *            @arg @ref LL_TIM_TIM20_ETRSOURCE_COMP7      (*)
4283:Drivers/STM32G4xx_HAL_Driver/Inc/stm32g4xx_ll_tim.h ****   *            @arg @ref LL_TIM_TIM20_ETRSOURCE_ADC3_AWD1  (*)
4284:Drivers/STM32G4xx_HAL_Driver/Inc/stm32g4xx_ll_tim.h ****   *            @arg @ref LL_TIM_TIM20_ETRSOURCE_ADC3_AWD2  (*)
4285:Drivers/STM32G4xx_HAL_Driver/Inc/stm32g4xx_ll_tim.h ****   *            @arg @ref LL_TIM_TIM20_ETRSOURCE_ADC3_AWD3  (*)
4286:Drivers/STM32G4xx_HAL_Driver/Inc/stm32g4xx_ll_tim.h ****   *            @arg @ref LL_TIM_TIM20_ETRSOURCE_ADC5_AWD1  (*)
4287:Drivers/STM32G4xx_HAL_Driver/Inc/stm32g4xx_ll_tim.h ****   *            @arg @ref LL_TIM_TIM20_ETRSOURCE_ADC5_AWD2  (*)
4288:Drivers/STM32G4xx_HAL_Driver/Inc/stm32g4xx_ll_tim.h ****   *            @arg @ref LL_TIM_TIM20_ETRSOURCE_ADC5_AWD3  (*)
4289:Drivers/STM32G4xx_HAL_Driver/Inc/stm32g4xx_ll_tim.h ****   *
4290:Drivers/STM32G4xx_HAL_Driver/Inc/stm32g4xx_ll_tim.h ****   *         (*)  Value not defined in all devices. \n
4291:Drivers/STM32G4xx_HAL_Driver/Inc/stm32g4xx_ll_tim.h ****   *         (**) Register not available in all devices.
4292:Drivers/STM32G4xx_HAL_Driver/Inc/stm32g4xx_ll_tim.h ****   * @retval None
4293:Drivers/STM32G4xx_HAL_Driver/Inc/stm32g4xx_ll_tim.h ****   */
4294:Drivers/STM32G4xx_HAL_Driver/Inc/stm32g4xx_ll_tim.h **** __STATIC_INLINE void LL_TIM_SetETRSource(TIM_TypeDef *TIMx, uint32_t ETRSource)
4295:Drivers/STM32G4xx_HAL_Driver/Inc/stm32g4xx_ll_tim.h **** {
4296:Drivers/STM32G4xx_HAL_Driver/Inc/stm32g4xx_ll_tim.h ****   MODIFY_REG(TIMx->AF1, TIMx_AF1_ETRSEL, ETRSource);
4297:Drivers/STM32G4xx_HAL_Driver/Inc/stm32g4xx_ll_tim.h **** }
4298:Drivers/STM32G4xx_HAL_Driver/Inc/stm32g4xx_ll_tim.h **** 
4299:Drivers/STM32G4xx_HAL_Driver/Inc/stm32g4xx_ll_tim.h **** /**
4300:Drivers/STM32G4xx_HAL_Driver/Inc/stm32g4xx_ll_tim.h ****   * @brief  Enable SMS preload.
4301:Drivers/STM32G4xx_HAL_Driver/Inc/stm32g4xx_ll_tim.h ****   * @note Macro IS_TIM_SMS_PRELOAD_INSTANCE(TIMx) can be used to check
4302:Drivers/STM32G4xx_HAL_Driver/Inc/stm32g4xx_ll_tim.h ****   *       whether or not a timer instance supports the preload of SMS field in SMCR register.
4303:Drivers/STM32G4xx_HAL_Driver/Inc/stm32g4xx_ll_tim.h ****   * @rmtoll SMCR         SMSPE           LL_TIM_EnableSMSPreload
4304:Drivers/STM32G4xx_HAL_Driver/Inc/stm32g4xx_ll_tim.h ****   * @param  TIMx Timer instance
4305:Drivers/STM32G4xx_HAL_Driver/Inc/stm32g4xx_ll_tim.h ****   * @retval None
4306:Drivers/STM32G4xx_HAL_Driver/Inc/stm32g4xx_ll_tim.h ****   */
4307:Drivers/STM32G4xx_HAL_Driver/Inc/stm32g4xx_ll_tim.h **** __STATIC_INLINE void LL_TIM_EnableSMSPreload(TIM_TypeDef *TIMx)
4308:Drivers/STM32G4xx_HAL_Driver/Inc/stm32g4xx_ll_tim.h **** {
4309:Drivers/STM32G4xx_HAL_Driver/Inc/stm32g4xx_ll_tim.h ****   SET_BIT(TIMx->SMCR, TIM_SMCR_SMSPE);
4310:Drivers/STM32G4xx_HAL_Driver/Inc/stm32g4xx_ll_tim.h **** }
4311:Drivers/STM32G4xx_HAL_Driver/Inc/stm32g4xx_ll_tim.h **** 
4312:Drivers/STM32G4xx_HAL_Driver/Inc/stm32g4xx_ll_tim.h **** /**
4313:Drivers/STM32G4xx_HAL_Driver/Inc/stm32g4xx_ll_tim.h ****   * @brief  Disable SMS preload.
4314:Drivers/STM32G4xx_HAL_Driver/Inc/stm32g4xx_ll_tim.h ****   * @note Macro IS_TIM_SMS_PRELOAD_INSTANCE(TIMx) can be used to check
4315:Drivers/STM32G4xx_HAL_Driver/Inc/stm32g4xx_ll_tim.h ****   *       whether or not a timer instance supports the preload of SMS field in SMCR register.
4316:Drivers/STM32G4xx_HAL_Driver/Inc/stm32g4xx_ll_tim.h ****   * @rmtoll SMCR         SMSPE           LL_TIM_DisableSMSPreload
4317:Drivers/STM32G4xx_HAL_Driver/Inc/stm32g4xx_ll_tim.h ****   * @param  TIMx Timer instance
4318:Drivers/STM32G4xx_HAL_Driver/Inc/stm32g4xx_ll_tim.h ****   * @retval None
4319:Drivers/STM32G4xx_HAL_Driver/Inc/stm32g4xx_ll_tim.h ****   */
4320:Drivers/STM32G4xx_HAL_Driver/Inc/stm32g4xx_ll_tim.h **** __STATIC_INLINE void LL_TIM_DisableSMSPreload(TIM_TypeDef *TIMx)
4321:Drivers/STM32G4xx_HAL_Driver/Inc/stm32g4xx_ll_tim.h **** {
4322:Drivers/STM32G4xx_HAL_Driver/Inc/stm32g4xx_ll_tim.h ****   CLEAR_BIT(TIMx->SMCR, TIM_SMCR_SMSPE);
4323:Drivers/STM32G4xx_HAL_Driver/Inc/stm32g4xx_ll_tim.h **** }
4324:Drivers/STM32G4xx_HAL_Driver/Inc/stm32g4xx_ll_tim.h **** 
4325:Drivers/STM32G4xx_HAL_Driver/Inc/stm32g4xx_ll_tim.h **** /**
4326:Drivers/STM32G4xx_HAL_Driver/Inc/stm32g4xx_ll_tim.h ****   * @brief  Indicate whether  SMS preload is enabled.
4327:Drivers/STM32G4xx_HAL_Driver/Inc/stm32g4xx_ll_tim.h ****   * @note Macro IS_TIM_SMS_PRELOAD_INSTANCE(TIMx) can be used to check
4328:Drivers/STM32G4xx_HAL_Driver/Inc/stm32g4xx_ll_tim.h ****   *       whether or not a timer instance supports the preload of SMS field in SMCR register.
4329:Drivers/STM32G4xx_HAL_Driver/Inc/stm32g4xx_ll_tim.h ****   * @rmtoll SMCR         SMSPE           LL_TIM_IsEnabledSMSPreload
ARM GAS  /tmp/ccF6ITrB.s 			page 127


4330:Drivers/STM32G4xx_HAL_Driver/Inc/stm32g4xx_ll_tim.h ****   * @param  TIMx Timer instance
4331:Drivers/STM32G4xx_HAL_Driver/Inc/stm32g4xx_ll_tim.h ****   * @retval State of bit (1 or 0).
4332:Drivers/STM32G4xx_HAL_Driver/Inc/stm32g4xx_ll_tim.h ****   */
4333:Drivers/STM32G4xx_HAL_Driver/Inc/stm32g4xx_ll_tim.h **** __STATIC_INLINE uint32_t LL_TIM_IsEnabledSMSPreload(const TIM_TypeDef *TIMx)
4334:Drivers/STM32G4xx_HAL_Driver/Inc/stm32g4xx_ll_tim.h **** {
4335:Drivers/STM32G4xx_HAL_Driver/Inc/stm32g4xx_ll_tim.h ****   return ((READ_BIT(TIMx->SMCR, TIM_SMCR_SMSPE) == (TIM_SMCR_SMSPE)) ? 1UL : 0UL);
4336:Drivers/STM32G4xx_HAL_Driver/Inc/stm32g4xx_ll_tim.h **** }
4337:Drivers/STM32G4xx_HAL_Driver/Inc/stm32g4xx_ll_tim.h **** 
4338:Drivers/STM32G4xx_HAL_Driver/Inc/stm32g4xx_ll_tim.h **** /**
4339:Drivers/STM32G4xx_HAL_Driver/Inc/stm32g4xx_ll_tim.h ****   * @brief  Set the preload source of SMS.
4340:Drivers/STM32G4xx_HAL_Driver/Inc/stm32g4xx_ll_tim.h ****   * @note Macro IS_TIM_SMS_PRELOAD_INSTANCE(TIMx) can be used to check
4341:Drivers/STM32G4xx_HAL_Driver/Inc/stm32g4xx_ll_tim.h ****   *       whether or not a timer instance supports the preload of SMS field in SMCR register.
4342:Drivers/STM32G4xx_HAL_Driver/Inc/stm32g4xx_ll_tim.h ****   * @rmtoll SMCR         SMSPS        LL_TIM_SetSMSPreloadSource\n
4343:Drivers/STM32G4xx_HAL_Driver/Inc/stm32g4xx_ll_tim.h ****   * @param  TIMx Timer instance
4344:Drivers/STM32G4xx_HAL_Driver/Inc/stm32g4xx_ll_tim.h ****   * @param  PreloadSource This parameter can be one of the following values:
4345:Drivers/STM32G4xx_HAL_Driver/Inc/stm32g4xx_ll_tim.h ****   *         @arg @ref LL_TIM_SMSPS_TIMUPDATE
4346:Drivers/STM32G4xx_HAL_Driver/Inc/stm32g4xx_ll_tim.h ****   *         @arg @ref LL_TIM_SMSPS_INDEX
4347:Drivers/STM32G4xx_HAL_Driver/Inc/stm32g4xx_ll_tim.h ****   * @retval None
4348:Drivers/STM32G4xx_HAL_Driver/Inc/stm32g4xx_ll_tim.h ****   */
4349:Drivers/STM32G4xx_HAL_Driver/Inc/stm32g4xx_ll_tim.h **** __STATIC_INLINE void LL_TIM_SetSMSPreloadSource(TIM_TypeDef *TIMx, uint32_t PreloadSource)
4350:Drivers/STM32G4xx_HAL_Driver/Inc/stm32g4xx_ll_tim.h **** {
4351:Drivers/STM32G4xx_HAL_Driver/Inc/stm32g4xx_ll_tim.h ****   MODIFY_REG(TIMx->SMCR, TIM_SMCR_SMSPS, PreloadSource);
4352:Drivers/STM32G4xx_HAL_Driver/Inc/stm32g4xx_ll_tim.h **** }
4353:Drivers/STM32G4xx_HAL_Driver/Inc/stm32g4xx_ll_tim.h **** 
4354:Drivers/STM32G4xx_HAL_Driver/Inc/stm32g4xx_ll_tim.h **** /**
4355:Drivers/STM32G4xx_HAL_Driver/Inc/stm32g4xx_ll_tim.h ****   * @brief  Get the preload source of SMS.
4356:Drivers/STM32G4xx_HAL_Driver/Inc/stm32g4xx_ll_tim.h ****   * @note Macro IS_TIM_SMS_PRELOAD_INSTANCE(TIMx) can be used to check
4357:Drivers/STM32G4xx_HAL_Driver/Inc/stm32g4xx_ll_tim.h ****   *       whether or not a timer instance supports the preload of SMS field in SMCR register.
4358:Drivers/STM32G4xx_HAL_Driver/Inc/stm32g4xx_ll_tim.h ****   * @rmtoll SMCR         SMSPS        LL_TIM_GetSMSPreloadSource\n
4359:Drivers/STM32G4xx_HAL_Driver/Inc/stm32g4xx_ll_tim.h ****   * @param  TIMx Timer instance
4360:Drivers/STM32G4xx_HAL_Driver/Inc/stm32g4xx_ll_tim.h ****   * @retval Returned value can be one of the following values:
4361:Drivers/STM32G4xx_HAL_Driver/Inc/stm32g4xx_ll_tim.h ****   *         @arg @ref LL_TIM_SMSPS_TIMUPDATE
4362:Drivers/STM32G4xx_HAL_Driver/Inc/stm32g4xx_ll_tim.h ****   *         @arg @ref LL_TIM_SMSPS_INDEX
4363:Drivers/STM32G4xx_HAL_Driver/Inc/stm32g4xx_ll_tim.h ****   */
4364:Drivers/STM32G4xx_HAL_Driver/Inc/stm32g4xx_ll_tim.h **** __STATIC_INLINE uint32_t LL_TIM_GetSMSPreloadSource(const TIM_TypeDef *TIMx)
4365:Drivers/STM32G4xx_HAL_Driver/Inc/stm32g4xx_ll_tim.h **** {
4366:Drivers/STM32G4xx_HAL_Driver/Inc/stm32g4xx_ll_tim.h ****   return (uint32_t)(READ_BIT(TIMx->SMCR, TIM_SMCR_SMSPS));
4367:Drivers/STM32G4xx_HAL_Driver/Inc/stm32g4xx_ll_tim.h **** }
4368:Drivers/STM32G4xx_HAL_Driver/Inc/stm32g4xx_ll_tim.h **** 
4369:Drivers/STM32G4xx_HAL_Driver/Inc/stm32g4xx_ll_tim.h **** /**
4370:Drivers/STM32G4xx_HAL_Driver/Inc/stm32g4xx_ll_tim.h ****   * @}
4371:Drivers/STM32G4xx_HAL_Driver/Inc/stm32g4xx_ll_tim.h ****   */
4372:Drivers/STM32G4xx_HAL_Driver/Inc/stm32g4xx_ll_tim.h **** 
4373:Drivers/STM32G4xx_HAL_Driver/Inc/stm32g4xx_ll_tim.h **** /** @defgroup TIM_LL_EF_Break_Function Break function configuration
4374:Drivers/STM32G4xx_HAL_Driver/Inc/stm32g4xx_ll_tim.h ****   * @{
4375:Drivers/STM32G4xx_HAL_Driver/Inc/stm32g4xx_ll_tim.h ****   */
4376:Drivers/STM32G4xx_HAL_Driver/Inc/stm32g4xx_ll_tim.h **** /**
4377:Drivers/STM32G4xx_HAL_Driver/Inc/stm32g4xx_ll_tim.h ****   * @brief  Enable the break function.
4378:Drivers/STM32G4xx_HAL_Driver/Inc/stm32g4xx_ll_tim.h ****   * @note Macro IS_TIM_BREAK_INSTANCE(TIMx) can be used to check whether or not
4379:Drivers/STM32G4xx_HAL_Driver/Inc/stm32g4xx_ll_tim.h ****   *       a timer instance provides a break input.
4380:Drivers/STM32G4xx_HAL_Driver/Inc/stm32g4xx_ll_tim.h ****   * @rmtoll BDTR         BKE           LL_TIM_EnableBRK
4381:Drivers/STM32G4xx_HAL_Driver/Inc/stm32g4xx_ll_tim.h ****   * @param  TIMx Timer instance
4382:Drivers/STM32G4xx_HAL_Driver/Inc/stm32g4xx_ll_tim.h ****   * @retval None
4383:Drivers/STM32G4xx_HAL_Driver/Inc/stm32g4xx_ll_tim.h ****   */
4384:Drivers/STM32G4xx_HAL_Driver/Inc/stm32g4xx_ll_tim.h **** __STATIC_INLINE void LL_TIM_EnableBRK(TIM_TypeDef *TIMx)
4385:Drivers/STM32G4xx_HAL_Driver/Inc/stm32g4xx_ll_tim.h **** {
4386:Drivers/STM32G4xx_HAL_Driver/Inc/stm32g4xx_ll_tim.h ****   SET_BIT(TIMx->BDTR, TIM_BDTR_BKE);
ARM GAS  /tmp/ccF6ITrB.s 			page 128


4387:Drivers/STM32G4xx_HAL_Driver/Inc/stm32g4xx_ll_tim.h **** }
4388:Drivers/STM32G4xx_HAL_Driver/Inc/stm32g4xx_ll_tim.h **** 
4389:Drivers/STM32G4xx_HAL_Driver/Inc/stm32g4xx_ll_tim.h **** /**
4390:Drivers/STM32G4xx_HAL_Driver/Inc/stm32g4xx_ll_tim.h ****   * @brief  Disable the break function.
4391:Drivers/STM32G4xx_HAL_Driver/Inc/stm32g4xx_ll_tim.h ****   * @rmtoll BDTR         BKE           LL_TIM_DisableBRK
4392:Drivers/STM32G4xx_HAL_Driver/Inc/stm32g4xx_ll_tim.h ****   * @param  TIMx Timer instance
4393:Drivers/STM32G4xx_HAL_Driver/Inc/stm32g4xx_ll_tim.h ****   * @note Macro IS_TIM_BREAK_INSTANCE(TIMx) can be used to check whether or not
4394:Drivers/STM32G4xx_HAL_Driver/Inc/stm32g4xx_ll_tim.h ****   *       a timer instance provides a break input.
4395:Drivers/STM32G4xx_HAL_Driver/Inc/stm32g4xx_ll_tim.h ****   * @retval None
4396:Drivers/STM32G4xx_HAL_Driver/Inc/stm32g4xx_ll_tim.h ****   */
4397:Drivers/STM32G4xx_HAL_Driver/Inc/stm32g4xx_ll_tim.h **** __STATIC_INLINE void LL_TIM_DisableBRK(TIM_TypeDef *TIMx)
4398:Drivers/STM32G4xx_HAL_Driver/Inc/stm32g4xx_ll_tim.h **** {
4399:Drivers/STM32G4xx_HAL_Driver/Inc/stm32g4xx_ll_tim.h ****   CLEAR_BIT(TIMx->BDTR, TIM_BDTR_BKE);
4400:Drivers/STM32G4xx_HAL_Driver/Inc/stm32g4xx_ll_tim.h **** }
4401:Drivers/STM32G4xx_HAL_Driver/Inc/stm32g4xx_ll_tim.h **** 
4402:Drivers/STM32G4xx_HAL_Driver/Inc/stm32g4xx_ll_tim.h **** /**
4403:Drivers/STM32G4xx_HAL_Driver/Inc/stm32g4xx_ll_tim.h ****   * @brief  Configure the break input.
4404:Drivers/STM32G4xx_HAL_Driver/Inc/stm32g4xx_ll_tim.h ****   * @note Macro IS_TIM_BREAK_INSTANCE(TIMx) can be used to check whether or not
4405:Drivers/STM32G4xx_HAL_Driver/Inc/stm32g4xx_ll_tim.h ****   *       a timer instance provides a break input.
4406:Drivers/STM32G4xx_HAL_Driver/Inc/stm32g4xx_ll_tim.h ****   * @note Bidirectional mode is only supported by advanced timer instances.
4407:Drivers/STM32G4xx_HAL_Driver/Inc/stm32g4xx_ll_tim.h ****   *       Macro IS_TIM_ADVANCED_INSTANCE(TIMx) can be used to check whether or not
4408:Drivers/STM32G4xx_HAL_Driver/Inc/stm32g4xx_ll_tim.h ****   *       a timer instance is an advanced-control timer.
4409:Drivers/STM32G4xx_HAL_Driver/Inc/stm32g4xx_ll_tim.h ****   * @note In bidirectional mode (BKBID bit set), the Break input is configured both
4410:Drivers/STM32G4xx_HAL_Driver/Inc/stm32g4xx_ll_tim.h ****   *        in input mode and in open drain output mode. Any active Break event will
4411:Drivers/STM32G4xx_HAL_Driver/Inc/stm32g4xx_ll_tim.h ****   *        assert a low logic level on the Break input to indicate an internal break
4412:Drivers/STM32G4xx_HAL_Driver/Inc/stm32g4xx_ll_tim.h ****   *        event to external devices.
4413:Drivers/STM32G4xx_HAL_Driver/Inc/stm32g4xx_ll_tim.h ****   * @note When bidirectional mode isn't supported, BreakAFMode must be set to
4414:Drivers/STM32G4xx_HAL_Driver/Inc/stm32g4xx_ll_tim.h ****   *       LL_TIM_BREAK_AFMODE_INPUT.
4415:Drivers/STM32G4xx_HAL_Driver/Inc/stm32g4xx_ll_tim.h ****   * @rmtoll BDTR         BKP           LL_TIM_ConfigBRK\n
4416:Drivers/STM32G4xx_HAL_Driver/Inc/stm32g4xx_ll_tim.h ****   *         BDTR         BKF           LL_TIM_ConfigBRK\n
4417:Drivers/STM32G4xx_HAL_Driver/Inc/stm32g4xx_ll_tim.h ****   *         BDTR         BKBID         LL_TIM_ConfigBRK
4418:Drivers/STM32G4xx_HAL_Driver/Inc/stm32g4xx_ll_tim.h ****   * @param  TIMx Timer instance
4419:Drivers/STM32G4xx_HAL_Driver/Inc/stm32g4xx_ll_tim.h ****   * @param  BreakPolarity This parameter can be one of the following values:
4420:Drivers/STM32G4xx_HAL_Driver/Inc/stm32g4xx_ll_tim.h ****   *         @arg @ref LL_TIM_BREAK_POLARITY_LOW
4421:Drivers/STM32G4xx_HAL_Driver/Inc/stm32g4xx_ll_tim.h ****   *         @arg @ref LL_TIM_BREAK_POLARITY_HIGH
4422:Drivers/STM32G4xx_HAL_Driver/Inc/stm32g4xx_ll_tim.h ****   * @param  BreakFilter This parameter can be one of the following values:
4423:Drivers/STM32G4xx_HAL_Driver/Inc/stm32g4xx_ll_tim.h ****   *         @arg @ref LL_TIM_BREAK_FILTER_FDIV1
4424:Drivers/STM32G4xx_HAL_Driver/Inc/stm32g4xx_ll_tim.h ****   *         @arg @ref LL_TIM_BREAK_FILTER_FDIV1_N2
4425:Drivers/STM32G4xx_HAL_Driver/Inc/stm32g4xx_ll_tim.h ****   *         @arg @ref LL_TIM_BREAK_FILTER_FDIV1_N4
4426:Drivers/STM32G4xx_HAL_Driver/Inc/stm32g4xx_ll_tim.h ****   *         @arg @ref LL_TIM_BREAK_FILTER_FDIV1_N8
4427:Drivers/STM32G4xx_HAL_Driver/Inc/stm32g4xx_ll_tim.h ****   *         @arg @ref LL_TIM_BREAK_FILTER_FDIV2_N6
4428:Drivers/STM32G4xx_HAL_Driver/Inc/stm32g4xx_ll_tim.h ****   *         @arg @ref LL_TIM_BREAK_FILTER_FDIV2_N8
4429:Drivers/STM32G4xx_HAL_Driver/Inc/stm32g4xx_ll_tim.h ****   *         @arg @ref LL_TIM_BREAK_FILTER_FDIV4_N6
4430:Drivers/STM32G4xx_HAL_Driver/Inc/stm32g4xx_ll_tim.h ****   *         @arg @ref LL_TIM_BREAK_FILTER_FDIV4_N8
4431:Drivers/STM32G4xx_HAL_Driver/Inc/stm32g4xx_ll_tim.h ****   *         @arg @ref LL_TIM_BREAK_FILTER_FDIV8_N6
4432:Drivers/STM32G4xx_HAL_Driver/Inc/stm32g4xx_ll_tim.h ****   *         @arg @ref LL_TIM_BREAK_FILTER_FDIV8_N8
4433:Drivers/STM32G4xx_HAL_Driver/Inc/stm32g4xx_ll_tim.h ****   *         @arg @ref LL_TIM_BREAK_FILTER_FDIV16_N5
4434:Drivers/STM32G4xx_HAL_Driver/Inc/stm32g4xx_ll_tim.h ****   *         @arg @ref LL_TIM_BREAK_FILTER_FDIV16_N6
4435:Drivers/STM32G4xx_HAL_Driver/Inc/stm32g4xx_ll_tim.h ****   *         @arg @ref LL_TIM_BREAK_FILTER_FDIV16_N8
4436:Drivers/STM32G4xx_HAL_Driver/Inc/stm32g4xx_ll_tim.h ****   *         @arg @ref LL_TIM_BREAK_FILTER_FDIV32_N5
4437:Drivers/STM32G4xx_HAL_Driver/Inc/stm32g4xx_ll_tim.h ****   *         @arg @ref LL_TIM_BREAK_FILTER_FDIV32_N6
4438:Drivers/STM32G4xx_HAL_Driver/Inc/stm32g4xx_ll_tim.h ****   *         @arg @ref LL_TIM_BREAK_FILTER_FDIV32_N8
4439:Drivers/STM32G4xx_HAL_Driver/Inc/stm32g4xx_ll_tim.h ****   * @param  BreakAFMode This parameter can be one of the following values:
4440:Drivers/STM32G4xx_HAL_Driver/Inc/stm32g4xx_ll_tim.h ****   *         @arg @ref LL_TIM_BREAK_AFMODE_INPUT
4441:Drivers/STM32G4xx_HAL_Driver/Inc/stm32g4xx_ll_tim.h ****   *         @arg @ref LL_TIM_BREAK_AFMODE_BIDIRECTIONAL
4442:Drivers/STM32G4xx_HAL_Driver/Inc/stm32g4xx_ll_tim.h ****   * @retval None
4443:Drivers/STM32G4xx_HAL_Driver/Inc/stm32g4xx_ll_tim.h ****   */
ARM GAS  /tmp/ccF6ITrB.s 			page 129


4444:Drivers/STM32G4xx_HAL_Driver/Inc/stm32g4xx_ll_tim.h **** __STATIC_INLINE void LL_TIM_ConfigBRK(TIM_TypeDef *TIMx, uint32_t BreakPolarity, uint32_t BreakFilt
4445:Drivers/STM32G4xx_HAL_Driver/Inc/stm32g4xx_ll_tim.h ****                                       uint32_t BreakAFMode)
4446:Drivers/STM32G4xx_HAL_Driver/Inc/stm32g4xx_ll_tim.h **** {
4447:Drivers/STM32G4xx_HAL_Driver/Inc/stm32g4xx_ll_tim.h ****   MODIFY_REG(TIMx->BDTR, TIM_BDTR_BKP | TIM_BDTR_BKF | TIM_BDTR_BKBID, BreakPolarity | BreakFilter 
4448:Drivers/STM32G4xx_HAL_Driver/Inc/stm32g4xx_ll_tim.h **** }
4449:Drivers/STM32G4xx_HAL_Driver/Inc/stm32g4xx_ll_tim.h **** 
4450:Drivers/STM32G4xx_HAL_Driver/Inc/stm32g4xx_ll_tim.h **** /**
4451:Drivers/STM32G4xx_HAL_Driver/Inc/stm32g4xx_ll_tim.h ****   * @brief  Disarm the break input (when it operates in bidirectional mode).
4452:Drivers/STM32G4xx_HAL_Driver/Inc/stm32g4xx_ll_tim.h ****   * @note  The break input can be disarmed only when it is configured in
4453:Drivers/STM32G4xx_HAL_Driver/Inc/stm32g4xx_ll_tim.h ****   *        bidirectional mode and when when MOE is reset.
4454:Drivers/STM32G4xx_HAL_Driver/Inc/stm32g4xx_ll_tim.h ****   * @note  Purpose is to be able to have the input voltage back to high-state,
4455:Drivers/STM32G4xx_HAL_Driver/Inc/stm32g4xx_ll_tim.h ****   *        whatever the time constant on the output .
4456:Drivers/STM32G4xx_HAL_Driver/Inc/stm32g4xx_ll_tim.h ****   * @rmtoll BDTR         BKDSRM        LL_TIM_DisarmBRK
4457:Drivers/STM32G4xx_HAL_Driver/Inc/stm32g4xx_ll_tim.h ****   * @param  TIMx Timer instance
4458:Drivers/STM32G4xx_HAL_Driver/Inc/stm32g4xx_ll_tim.h ****   * @retval None
4459:Drivers/STM32G4xx_HAL_Driver/Inc/stm32g4xx_ll_tim.h ****   */
4460:Drivers/STM32G4xx_HAL_Driver/Inc/stm32g4xx_ll_tim.h **** __STATIC_INLINE void LL_TIM_DisarmBRK(TIM_TypeDef *TIMx)
4461:Drivers/STM32G4xx_HAL_Driver/Inc/stm32g4xx_ll_tim.h **** {
4462:Drivers/STM32G4xx_HAL_Driver/Inc/stm32g4xx_ll_tim.h ****   SET_BIT(TIMx->BDTR, TIM_BDTR_BKDSRM);
4463:Drivers/STM32G4xx_HAL_Driver/Inc/stm32g4xx_ll_tim.h **** }
4464:Drivers/STM32G4xx_HAL_Driver/Inc/stm32g4xx_ll_tim.h **** 
4465:Drivers/STM32G4xx_HAL_Driver/Inc/stm32g4xx_ll_tim.h **** /**
4466:Drivers/STM32G4xx_HAL_Driver/Inc/stm32g4xx_ll_tim.h ****   * @brief  Enable the break 2 function.
4467:Drivers/STM32G4xx_HAL_Driver/Inc/stm32g4xx_ll_tim.h ****   * @note Macro IS_TIM_BKIN2_INSTANCE(TIMx) can be used to check whether or not
4468:Drivers/STM32G4xx_HAL_Driver/Inc/stm32g4xx_ll_tim.h ****   *       a timer instance provides a second break input.
4469:Drivers/STM32G4xx_HAL_Driver/Inc/stm32g4xx_ll_tim.h ****   * @rmtoll BDTR         BK2E          LL_TIM_EnableBRK2
4470:Drivers/STM32G4xx_HAL_Driver/Inc/stm32g4xx_ll_tim.h ****   * @param  TIMx Timer instance
4471:Drivers/STM32G4xx_HAL_Driver/Inc/stm32g4xx_ll_tim.h ****   * @retval None
4472:Drivers/STM32G4xx_HAL_Driver/Inc/stm32g4xx_ll_tim.h ****   */
4473:Drivers/STM32G4xx_HAL_Driver/Inc/stm32g4xx_ll_tim.h **** __STATIC_INLINE void LL_TIM_EnableBRK2(TIM_TypeDef *TIMx)
4474:Drivers/STM32G4xx_HAL_Driver/Inc/stm32g4xx_ll_tim.h **** {
4475:Drivers/STM32G4xx_HAL_Driver/Inc/stm32g4xx_ll_tim.h ****   SET_BIT(TIMx->BDTR, TIM_BDTR_BK2E);
4476:Drivers/STM32G4xx_HAL_Driver/Inc/stm32g4xx_ll_tim.h **** }
4477:Drivers/STM32G4xx_HAL_Driver/Inc/stm32g4xx_ll_tim.h **** 
4478:Drivers/STM32G4xx_HAL_Driver/Inc/stm32g4xx_ll_tim.h **** /**
4479:Drivers/STM32G4xx_HAL_Driver/Inc/stm32g4xx_ll_tim.h ****   * @brief  Disable the break  2 function.
4480:Drivers/STM32G4xx_HAL_Driver/Inc/stm32g4xx_ll_tim.h ****   * @note Macro IS_TIM_BKIN2_INSTANCE(TIMx) can be used to check whether or not
4481:Drivers/STM32G4xx_HAL_Driver/Inc/stm32g4xx_ll_tim.h ****   *       a timer instance provides a second break input.
4482:Drivers/STM32G4xx_HAL_Driver/Inc/stm32g4xx_ll_tim.h ****   * @rmtoll BDTR         BK2E          LL_TIM_DisableBRK2
4483:Drivers/STM32G4xx_HAL_Driver/Inc/stm32g4xx_ll_tim.h ****   * @param  TIMx Timer instance
4484:Drivers/STM32G4xx_HAL_Driver/Inc/stm32g4xx_ll_tim.h ****   * @retval None
4485:Drivers/STM32G4xx_HAL_Driver/Inc/stm32g4xx_ll_tim.h ****   */
4486:Drivers/STM32G4xx_HAL_Driver/Inc/stm32g4xx_ll_tim.h **** __STATIC_INLINE void LL_TIM_DisableBRK2(TIM_TypeDef *TIMx)
4487:Drivers/STM32G4xx_HAL_Driver/Inc/stm32g4xx_ll_tim.h **** {
4488:Drivers/STM32G4xx_HAL_Driver/Inc/stm32g4xx_ll_tim.h ****   CLEAR_BIT(TIMx->BDTR, TIM_BDTR_BK2E);
4489:Drivers/STM32G4xx_HAL_Driver/Inc/stm32g4xx_ll_tim.h **** }
4490:Drivers/STM32G4xx_HAL_Driver/Inc/stm32g4xx_ll_tim.h **** 
4491:Drivers/STM32G4xx_HAL_Driver/Inc/stm32g4xx_ll_tim.h **** /**
4492:Drivers/STM32G4xx_HAL_Driver/Inc/stm32g4xx_ll_tim.h ****   * @brief  Configure the break 2 input.
4493:Drivers/STM32G4xx_HAL_Driver/Inc/stm32g4xx_ll_tim.h ****   * @note Macro IS_TIM_BKIN2_INSTANCE(TIMx) can be used to check whether or not
4494:Drivers/STM32G4xx_HAL_Driver/Inc/stm32g4xx_ll_tim.h ****   *       a timer instance provides a second break input.
4495:Drivers/STM32G4xx_HAL_Driver/Inc/stm32g4xx_ll_tim.h ****   * @note Bidirectional mode is only supported by advanced timer instances.
4496:Drivers/STM32G4xx_HAL_Driver/Inc/stm32g4xx_ll_tim.h ****   *       Macro IS_TIM_ADVANCED_INSTANCE(TIMx) can be used to check whether or not
4497:Drivers/STM32G4xx_HAL_Driver/Inc/stm32g4xx_ll_tim.h ****   *       a timer instance is an advanced-control timer.
4498:Drivers/STM32G4xx_HAL_Driver/Inc/stm32g4xx_ll_tim.h ****   * @note In bidirectional mode (BK2BID bit set), the Break 2 input is configured both
4499:Drivers/STM32G4xx_HAL_Driver/Inc/stm32g4xx_ll_tim.h ****   *        in input mode and in open drain output mode. Any active Break event will
4500:Drivers/STM32G4xx_HAL_Driver/Inc/stm32g4xx_ll_tim.h ****   *        assert a low logic level on the Break 2 input to indicate an internal break
ARM GAS  /tmp/ccF6ITrB.s 			page 130


4501:Drivers/STM32G4xx_HAL_Driver/Inc/stm32g4xx_ll_tim.h ****   *        event to external devices.
4502:Drivers/STM32G4xx_HAL_Driver/Inc/stm32g4xx_ll_tim.h ****   * @note When bidirectional mode isn't supported, Break2AFMode must be set to
4503:Drivers/STM32G4xx_HAL_Driver/Inc/stm32g4xx_ll_tim.h ****   *       LL_TIM_BREAK2_AFMODE_INPUT.
4504:Drivers/STM32G4xx_HAL_Driver/Inc/stm32g4xx_ll_tim.h ****   * @rmtoll BDTR         BK2P          LL_TIM_ConfigBRK2\n
4505:Drivers/STM32G4xx_HAL_Driver/Inc/stm32g4xx_ll_tim.h ****   *         BDTR         BK2F          LL_TIM_ConfigBRK2\n
4506:Drivers/STM32G4xx_HAL_Driver/Inc/stm32g4xx_ll_tim.h ****   *         BDTR         BK2BID        LL_TIM_ConfigBRK2
4507:Drivers/STM32G4xx_HAL_Driver/Inc/stm32g4xx_ll_tim.h ****   * @param  TIMx Timer instance
4508:Drivers/STM32G4xx_HAL_Driver/Inc/stm32g4xx_ll_tim.h ****   * @param  Break2Polarity This parameter can be one of the following values:
4509:Drivers/STM32G4xx_HAL_Driver/Inc/stm32g4xx_ll_tim.h ****   *         @arg @ref LL_TIM_BREAK2_POLARITY_LOW
4510:Drivers/STM32G4xx_HAL_Driver/Inc/stm32g4xx_ll_tim.h ****   *         @arg @ref LL_TIM_BREAK2_POLARITY_HIGH
4511:Drivers/STM32G4xx_HAL_Driver/Inc/stm32g4xx_ll_tim.h ****   * @param  Break2Filter This parameter can be one of the following values:
4512:Drivers/STM32G4xx_HAL_Driver/Inc/stm32g4xx_ll_tim.h ****   *         @arg @ref LL_TIM_BREAK2_FILTER_FDIV1
4513:Drivers/STM32G4xx_HAL_Driver/Inc/stm32g4xx_ll_tim.h ****   *         @arg @ref LL_TIM_BREAK2_FILTER_FDIV1_N2
4514:Drivers/STM32G4xx_HAL_Driver/Inc/stm32g4xx_ll_tim.h ****   *         @arg @ref LL_TIM_BREAK2_FILTER_FDIV1_N4
4515:Drivers/STM32G4xx_HAL_Driver/Inc/stm32g4xx_ll_tim.h ****   *         @arg @ref LL_TIM_BREAK2_FILTER_FDIV1_N8
4516:Drivers/STM32G4xx_HAL_Driver/Inc/stm32g4xx_ll_tim.h ****   *         @arg @ref LL_TIM_BREAK2_FILTER_FDIV2_N6
4517:Drivers/STM32G4xx_HAL_Driver/Inc/stm32g4xx_ll_tim.h ****   *         @arg @ref LL_TIM_BREAK2_FILTER_FDIV2_N8
4518:Drivers/STM32G4xx_HAL_Driver/Inc/stm32g4xx_ll_tim.h ****   *         @arg @ref LL_TIM_BREAK2_FILTER_FDIV4_N6
4519:Drivers/STM32G4xx_HAL_Driver/Inc/stm32g4xx_ll_tim.h ****   *         @arg @ref LL_TIM_BREAK2_FILTER_FDIV4_N8
4520:Drivers/STM32G4xx_HAL_Driver/Inc/stm32g4xx_ll_tim.h ****   *         @arg @ref LL_TIM_BREAK2_FILTER_FDIV8_N6
4521:Drivers/STM32G4xx_HAL_Driver/Inc/stm32g4xx_ll_tim.h ****   *         @arg @ref LL_TIM_BREAK2_FILTER_FDIV8_N8
4522:Drivers/STM32G4xx_HAL_Driver/Inc/stm32g4xx_ll_tim.h ****   *         @arg @ref LL_TIM_BREAK2_FILTER_FDIV16_N5
4523:Drivers/STM32G4xx_HAL_Driver/Inc/stm32g4xx_ll_tim.h ****   *         @arg @ref LL_TIM_BREAK2_FILTER_FDIV16_N6
4524:Drivers/STM32G4xx_HAL_Driver/Inc/stm32g4xx_ll_tim.h ****   *         @arg @ref LL_TIM_BREAK2_FILTER_FDIV16_N8
4525:Drivers/STM32G4xx_HAL_Driver/Inc/stm32g4xx_ll_tim.h ****   *         @arg @ref LL_TIM_BREAK2_FILTER_FDIV32_N5
4526:Drivers/STM32G4xx_HAL_Driver/Inc/stm32g4xx_ll_tim.h ****   *         @arg @ref LL_TIM_BREAK2_FILTER_FDIV32_N6
4527:Drivers/STM32G4xx_HAL_Driver/Inc/stm32g4xx_ll_tim.h ****   *         @arg @ref LL_TIM_BREAK2_FILTER_FDIV32_N8
4528:Drivers/STM32G4xx_HAL_Driver/Inc/stm32g4xx_ll_tim.h ****   * @param  Break2AFMode This parameter can be one of the following values:
4529:Drivers/STM32G4xx_HAL_Driver/Inc/stm32g4xx_ll_tim.h ****   *         @arg @ref LL_TIM_BREAK2_AFMODE_INPUT
4530:Drivers/STM32G4xx_HAL_Driver/Inc/stm32g4xx_ll_tim.h ****   *         @arg @ref LL_TIM_BREAK2_AFMODE_BIDIRECTIONAL
4531:Drivers/STM32G4xx_HAL_Driver/Inc/stm32g4xx_ll_tim.h ****   * @retval None
4532:Drivers/STM32G4xx_HAL_Driver/Inc/stm32g4xx_ll_tim.h ****   */
4533:Drivers/STM32G4xx_HAL_Driver/Inc/stm32g4xx_ll_tim.h **** __STATIC_INLINE void LL_TIM_ConfigBRK2(TIM_TypeDef *TIMx, uint32_t Break2Polarity, uint32_t Break2F
4534:Drivers/STM32G4xx_HAL_Driver/Inc/stm32g4xx_ll_tim.h ****                                        uint32_t Break2AFMode)
4535:Drivers/STM32G4xx_HAL_Driver/Inc/stm32g4xx_ll_tim.h **** {
4536:Drivers/STM32G4xx_HAL_Driver/Inc/stm32g4xx_ll_tim.h ****   MODIFY_REG(TIMx->BDTR, TIM_BDTR_BK2P | TIM_BDTR_BK2F | TIM_BDTR_BK2BID, Break2Polarity | Break2Fi
4537:Drivers/STM32G4xx_HAL_Driver/Inc/stm32g4xx_ll_tim.h **** }
4538:Drivers/STM32G4xx_HAL_Driver/Inc/stm32g4xx_ll_tim.h **** 
4539:Drivers/STM32G4xx_HAL_Driver/Inc/stm32g4xx_ll_tim.h **** /**
4540:Drivers/STM32G4xx_HAL_Driver/Inc/stm32g4xx_ll_tim.h ****   * @brief  Disarm the break 2 input (when it operates in bidirectional mode).
4541:Drivers/STM32G4xx_HAL_Driver/Inc/stm32g4xx_ll_tim.h ****   * @note  The break 2 input can be disarmed only when it is configured in
4542:Drivers/STM32G4xx_HAL_Driver/Inc/stm32g4xx_ll_tim.h ****   *        bidirectional mode and when when MOE is reset.
4543:Drivers/STM32G4xx_HAL_Driver/Inc/stm32g4xx_ll_tim.h ****   * @note  Purpose is to be able to have the input voltage back to high-state,
4544:Drivers/STM32G4xx_HAL_Driver/Inc/stm32g4xx_ll_tim.h ****   *        whatever the time constant on the output.
4545:Drivers/STM32G4xx_HAL_Driver/Inc/stm32g4xx_ll_tim.h ****   * @rmtoll BDTR         BK2DSRM       LL_TIM_DisarmBRK2
4546:Drivers/STM32G4xx_HAL_Driver/Inc/stm32g4xx_ll_tim.h ****   * @param  TIMx Timer instance
4547:Drivers/STM32G4xx_HAL_Driver/Inc/stm32g4xx_ll_tim.h ****   * @retval None
4548:Drivers/STM32G4xx_HAL_Driver/Inc/stm32g4xx_ll_tim.h ****   */
4549:Drivers/STM32G4xx_HAL_Driver/Inc/stm32g4xx_ll_tim.h **** __STATIC_INLINE void LL_TIM_DisarmBRK2(TIM_TypeDef *TIMx)
4550:Drivers/STM32G4xx_HAL_Driver/Inc/stm32g4xx_ll_tim.h **** {
4551:Drivers/STM32G4xx_HAL_Driver/Inc/stm32g4xx_ll_tim.h ****   SET_BIT(TIMx->BDTR, TIM_BDTR_BK2DSRM);
4552:Drivers/STM32G4xx_HAL_Driver/Inc/stm32g4xx_ll_tim.h **** }
4553:Drivers/STM32G4xx_HAL_Driver/Inc/stm32g4xx_ll_tim.h **** 
4554:Drivers/STM32G4xx_HAL_Driver/Inc/stm32g4xx_ll_tim.h **** /**
4555:Drivers/STM32G4xx_HAL_Driver/Inc/stm32g4xx_ll_tim.h ****   * @brief  Select the outputs off state (enabled v.s. disabled) in Idle and Run modes.
4556:Drivers/STM32G4xx_HAL_Driver/Inc/stm32g4xx_ll_tim.h ****   * @note Macro IS_TIM_BREAK_INSTANCE(TIMx) can be used to check whether or not
4557:Drivers/STM32G4xx_HAL_Driver/Inc/stm32g4xx_ll_tim.h ****   *       a timer instance provides a break input.
ARM GAS  /tmp/ccF6ITrB.s 			page 131


4558:Drivers/STM32G4xx_HAL_Driver/Inc/stm32g4xx_ll_tim.h ****   * @rmtoll BDTR         OSSI          LL_TIM_SetOffStates\n
4559:Drivers/STM32G4xx_HAL_Driver/Inc/stm32g4xx_ll_tim.h ****   *         BDTR         OSSR          LL_TIM_SetOffStates
4560:Drivers/STM32G4xx_HAL_Driver/Inc/stm32g4xx_ll_tim.h ****   * @param  TIMx Timer instance
4561:Drivers/STM32G4xx_HAL_Driver/Inc/stm32g4xx_ll_tim.h ****   * @param  OffStateIdle This parameter can be one of the following values:
4562:Drivers/STM32G4xx_HAL_Driver/Inc/stm32g4xx_ll_tim.h ****   *         @arg @ref LL_TIM_OSSI_DISABLE
4563:Drivers/STM32G4xx_HAL_Driver/Inc/stm32g4xx_ll_tim.h ****   *         @arg @ref LL_TIM_OSSI_ENABLE
4564:Drivers/STM32G4xx_HAL_Driver/Inc/stm32g4xx_ll_tim.h ****   * @param  OffStateRun This parameter can be one of the following values:
4565:Drivers/STM32G4xx_HAL_Driver/Inc/stm32g4xx_ll_tim.h ****   *         @arg @ref LL_TIM_OSSR_DISABLE
4566:Drivers/STM32G4xx_HAL_Driver/Inc/stm32g4xx_ll_tim.h ****   *         @arg @ref LL_TIM_OSSR_ENABLE
4567:Drivers/STM32G4xx_HAL_Driver/Inc/stm32g4xx_ll_tim.h ****   * @retval None
4568:Drivers/STM32G4xx_HAL_Driver/Inc/stm32g4xx_ll_tim.h ****   */
4569:Drivers/STM32G4xx_HAL_Driver/Inc/stm32g4xx_ll_tim.h **** __STATIC_INLINE void LL_TIM_SetOffStates(TIM_TypeDef *TIMx, uint32_t OffStateIdle, uint32_t OffStat
4570:Drivers/STM32G4xx_HAL_Driver/Inc/stm32g4xx_ll_tim.h **** {
4571:Drivers/STM32G4xx_HAL_Driver/Inc/stm32g4xx_ll_tim.h ****   MODIFY_REG(TIMx->BDTR, TIM_BDTR_OSSI | TIM_BDTR_OSSR, OffStateIdle | OffStateRun);
4572:Drivers/STM32G4xx_HAL_Driver/Inc/stm32g4xx_ll_tim.h **** }
4573:Drivers/STM32G4xx_HAL_Driver/Inc/stm32g4xx_ll_tim.h **** 
4574:Drivers/STM32G4xx_HAL_Driver/Inc/stm32g4xx_ll_tim.h **** /**
4575:Drivers/STM32G4xx_HAL_Driver/Inc/stm32g4xx_ll_tim.h ****   * @brief  Enable automatic output (MOE can be set by software or automatically when a break input
4576:Drivers/STM32G4xx_HAL_Driver/Inc/stm32g4xx_ll_tim.h ****   * @note Macro IS_TIM_BREAK_INSTANCE(TIMx) can be used to check whether or not
4577:Drivers/STM32G4xx_HAL_Driver/Inc/stm32g4xx_ll_tim.h ****   *       a timer instance provides a break input.
4578:Drivers/STM32G4xx_HAL_Driver/Inc/stm32g4xx_ll_tim.h ****   * @rmtoll BDTR         AOE           LL_TIM_EnableAutomaticOutput
4579:Drivers/STM32G4xx_HAL_Driver/Inc/stm32g4xx_ll_tim.h ****   * @param  TIMx Timer instance
4580:Drivers/STM32G4xx_HAL_Driver/Inc/stm32g4xx_ll_tim.h ****   * @retval None
4581:Drivers/STM32G4xx_HAL_Driver/Inc/stm32g4xx_ll_tim.h ****   */
4582:Drivers/STM32G4xx_HAL_Driver/Inc/stm32g4xx_ll_tim.h **** __STATIC_INLINE void LL_TIM_EnableAutomaticOutput(TIM_TypeDef *TIMx)
4583:Drivers/STM32G4xx_HAL_Driver/Inc/stm32g4xx_ll_tim.h **** {
4584:Drivers/STM32G4xx_HAL_Driver/Inc/stm32g4xx_ll_tim.h ****   SET_BIT(TIMx->BDTR, TIM_BDTR_AOE);
4585:Drivers/STM32G4xx_HAL_Driver/Inc/stm32g4xx_ll_tim.h **** }
4586:Drivers/STM32G4xx_HAL_Driver/Inc/stm32g4xx_ll_tim.h **** 
4587:Drivers/STM32G4xx_HAL_Driver/Inc/stm32g4xx_ll_tim.h **** /**
4588:Drivers/STM32G4xx_HAL_Driver/Inc/stm32g4xx_ll_tim.h ****   * @brief  Disable automatic output (MOE can be set only by software).
4589:Drivers/STM32G4xx_HAL_Driver/Inc/stm32g4xx_ll_tim.h ****   * @note Macro IS_TIM_BREAK_INSTANCE(TIMx) can be used to check whether or not
4590:Drivers/STM32G4xx_HAL_Driver/Inc/stm32g4xx_ll_tim.h ****   *       a timer instance provides a break input.
4591:Drivers/STM32G4xx_HAL_Driver/Inc/stm32g4xx_ll_tim.h ****   * @rmtoll BDTR         AOE           LL_TIM_DisableAutomaticOutput
4592:Drivers/STM32G4xx_HAL_Driver/Inc/stm32g4xx_ll_tim.h ****   * @param  TIMx Timer instance
4593:Drivers/STM32G4xx_HAL_Driver/Inc/stm32g4xx_ll_tim.h ****   * @retval None
4594:Drivers/STM32G4xx_HAL_Driver/Inc/stm32g4xx_ll_tim.h ****   */
4595:Drivers/STM32G4xx_HAL_Driver/Inc/stm32g4xx_ll_tim.h **** __STATIC_INLINE void LL_TIM_DisableAutomaticOutput(TIM_TypeDef *TIMx)
4596:Drivers/STM32G4xx_HAL_Driver/Inc/stm32g4xx_ll_tim.h **** {
4597:Drivers/STM32G4xx_HAL_Driver/Inc/stm32g4xx_ll_tim.h ****   CLEAR_BIT(TIMx->BDTR, TIM_BDTR_AOE);
4598:Drivers/STM32G4xx_HAL_Driver/Inc/stm32g4xx_ll_tim.h **** }
4599:Drivers/STM32G4xx_HAL_Driver/Inc/stm32g4xx_ll_tim.h **** 
4600:Drivers/STM32G4xx_HAL_Driver/Inc/stm32g4xx_ll_tim.h **** /**
4601:Drivers/STM32G4xx_HAL_Driver/Inc/stm32g4xx_ll_tim.h ****   * @brief  Indicate whether automatic output is enabled.
4602:Drivers/STM32G4xx_HAL_Driver/Inc/stm32g4xx_ll_tim.h ****   * @note Macro IS_TIM_BREAK_INSTANCE(TIMx) can be used to check whether or not
4603:Drivers/STM32G4xx_HAL_Driver/Inc/stm32g4xx_ll_tim.h ****   *       a timer instance provides a break input.
4604:Drivers/STM32G4xx_HAL_Driver/Inc/stm32g4xx_ll_tim.h ****   * @rmtoll BDTR         AOE           LL_TIM_IsEnabledAutomaticOutput
4605:Drivers/STM32G4xx_HAL_Driver/Inc/stm32g4xx_ll_tim.h ****   * @param  TIMx Timer instance
4606:Drivers/STM32G4xx_HAL_Driver/Inc/stm32g4xx_ll_tim.h ****   * @retval State of bit (1 or 0).
4607:Drivers/STM32G4xx_HAL_Driver/Inc/stm32g4xx_ll_tim.h ****   */
4608:Drivers/STM32G4xx_HAL_Driver/Inc/stm32g4xx_ll_tim.h **** __STATIC_INLINE uint32_t LL_TIM_IsEnabledAutomaticOutput(const TIM_TypeDef *TIMx)
4609:Drivers/STM32G4xx_HAL_Driver/Inc/stm32g4xx_ll_tim.h **** {
4610:Drivers/STM32G4xx_HAL_Driver/Inc/stm32g4xx_ll_tim.h ****   return ((READ_BIT(TIMx->BDTR, TIM_BDTR_AOE) == (TIM_BDTR_AOE)) ? 1UL : 0UL);
4611:Drivers/STM32G4xx_HAL_Driver/Inc/stm32g4xx_ll_tim.h **** }
4612:Drivers/STM32G4xx_HAL_Driver/Inc/stm32g4xx_ll_tim.h **** 
4613:Drivers/STM32G4xx_HAL_Driver/Inc/stm32g4xx_ll_tim.h **** /**
4614:Drivers/STM32G4xx_HAL_Driver/Inc/stm32g4xx_ll_tim.h ****   * @brief  Enable the outputs (set the MOE bit in TIMx_BDTR register).
ARM GAS  /tmp/ccF6ITrB.s 			page 132


4615:Drivers/STM32G4xx_HAL_Driver/Inc/stm32g4xx_ll_tim.h ****   * @note The MOE bit in TIMx_BDTR register allows to enable /disable the outputs by
4616:Drivers/STM32G4xx_HAL_Driver/Inc/stm32g4xx_ll_tim.h ****   *       software and is reset in case of break or break2 event
4617:Drivers/STM32G4xx_HAL_Driver/Inc/stm32g4xx_ll_tim.h ****   * @note Macro IS_TIM_BREAK_INSTANCE(TIMx) can be used to check whether or not
4618:Drivers/STM32G4xx_HAL_Driver/Inc/stm32g4xx_ll_tim.h ****   *       a timer instance provides a break input.
4619:Drivers/STM32G4xx_HAL_Driver/Inc/stm32g4xx_ll_tim.h ****   * @rmtoll BDTR         MOE           LL_TIM_EnableAllOutputs
4620:Drivers/STM32G4xx_HAL_Driver/Inc/stm32g4xx_ll_tim.h ****   * @param  TIMx Timer instance
4621:Drivers/STM32G4xx_HAL_Driver/Inc/stm32g4xx_ll_tim.h ****   * @retval None
4622:Drivers/STM32G4xx_HAL_Driver/Inc/stm32g4xx_ll_tim.h ****   */
4623:Drivers/STM32G4xx_HAL_Driver/Inc/stm32g4xx_ll_tim.h **** __STATIC_INLINE void LL_TIM_EnableAllOutputs(TIM_TypeDef *TIMx)
 1474              		.loc 4 4623 22 view .LVU429
 1475              	.LBB151:
4624:Drivers/STM32G4xx_HAL_Driver/Inc/stm32g4xx_ll_tim.h **** {
4625:Drivers/STM32G4xx_HAL_Driver/Inc/stm32g4xx_ll_tim.h ****   SET_BIT(TIMx->BDTR, TIM_BDTR_MOE);
 1476              		.loc 4 4625 3 view .LVU430
 1477 032e 736C     		ldr	r3, [r6, #68]
 1478 0330 43F40043 		orr	r3, r3, #32768
 1479 0334 7364     		str	r3, [r6, #68]
 1480              	.LVL117:
 1481              		.loc 4 4625 3 is_stmt 0 view .LVU431
 1482              	.LBE151:
 1483              	.LBE150:
 274:Src/mc_tasks_foc.c ****               
 1484              		.loc 1 274 15 is_stmt 1 view .LVU432
 1485 0336 FFF7FEFF 		bl	STSPIN32G4_clearFaults
 1486              	.LVL118:
 1487              	.L52:
 276:Src/mc_tasks_foc.c ****               {
 1488              		.loc 1 276 15 discriminator 1 view .LVU433
 278:Src/mc_tasks_foc.c **** 
 1489              		.loc 1 278 17 discriminator 1 view .LVU434
 280:Src/mc_tasks_foc.c ****               }
 1490              		.loc 1 280 17 is_stmt 0 discriminator 1 view .LVU435
 1491 033a 1E20     		movs	r0, #30
 278:Src/mc_tasks_foc.c **** 
 1492              		.loc 1 278 26 discriminator 1 view .LVU436
 1493 033c 2C60     		str	r4, [r5]
 280:Src/mc_tasks_foc.c ****               }
 1494              		.loc 1 280 17 is_stmt 1 discriminator 1 view .LVU437
 1495 033e FFF7FEFF 		bl	vTaskDelay
 1496              	.LVL119:
 276:Src/mc_tasks_foc.c ****               {
 1497              		.loc 1 276 20 discriminator 1 view .LVU438
 1498 0342 FAE7     		b	.L52
 1499              	.LVL120:
 1500              	.L48:
 276:Src/mc_tasks_foc.c ****               {
 1501              		.loc 1 276 20 is_stmt 0 discriminator 1 view .LVU439
 1502              	.LBE152:
 456:Src/mc_tasks_foc.c ****           {
 1503              		.loc 1 456 11 is_stmt 1 view .LVU440
 456:Src/mc_tasks_foc.c ****           {
 1504              		.loc 1 456 14 is_stmt 0 view .LVU441
 1505 0344 A37F     		ldrb	r3, [r4, #30]	@ zero_extendqisi2
 1506 0346 052B     		cmp	r3, #5
 1507 0348 0ED0     		beq	.L56
 466:Src/mc_tasks_foc.c **** 
 1508              		.loc 1 466 13 is_stmt 1 view .LVU442
ARM GAS  /tmp/ccF6ITrB.s 			page 133


 1509 034a 1B48     		ldr	r0, .L97
 1510 034c FFF7FEFF 		bl	MCI_ExecBufferedCommands
 1511              	.LVL121:
 468:Src/mc_tasks_foc.c ****               if(!IsSpeedReliable)
 1512              		.loc 1 468 15 view .LVU443
 1513 0350 0020     		movs	r0, #0
 1514 0352 FFF7FEFF 		bl	FOC_CalcCurrRef
 1515              	.LVL122:
 469:Src/mc_tasks_foc.c ****               {
 1516              		.loc 1 469 15 view .LVU444
 471:Src/mc_tasks_foc.c ****               }
 1517              		.loc 1 471 17 view .LVU445
 1518 0356 1848     		ldr	r0, .L97
 1519 0358 0022     		movs	r2, #0
 1520 035a 2021     		movs	r1, #32
 1521 035c FFF7FEFF 		bl	MCI_FaultProcessing
 1522              	.LVL123:
 476:Src/mc_tasks_foc.c ****             OTT_MF(&OTT);
 1523              		.loc 1 476 15 view .LVU446
 477:Src/mc_tasks_foc.c ****           }
 1524              		.loc 1 477 13 view .LVU447
 1525 0360 1E48     		ldr	r0, .L97+36
 1526 0362 FFF7FEFF 		bl	OTT_MF
 1527              	.LVL124:
 1528 0366 6EE6     		b	.L39
 1529              	.L56:
 297:Src/mc_tasks_foc.c ****           }
 1530              		.loc 1 297 13 view .LVU448
 1531              	.LVL125:
 1532              	.LBB153:
 1533              	.LBI153:
 180:Src/mc_tasks_foc.c **** {
 1534              		.loc 1 180 6 view .LVU449
 1535              	.LBB154:
 182:Src/mc_tasks_foc.c **** 
 1536              		.loc 1 182 5 view .LVU450
 1537 0368 144B     		ldr	r3, .L97+4
 1538 036a 1868     		ldr	r0, [r3]
 1539 036c FFF7FEFF 		bl	R3_2_SwitchOffPWM
 1540              	.LVL126:
 184:Src/mc_tasks_foc.c ****   OTT_Stop(&OTT);
 1541              		.loc 1 184 3 view .LVU451
 1542 0370 1B48     		ldr	r0, .L97+40
 1543 0372 FFF7FEFF 		bl	SCC_Stop
 1544              	.LVL127:
 185:Src/mc_tasks_foc.c ****   FOC_Clear(motor);
 1545              		.loc 1 185 3 view .LVU452
 1546 0376 1948     		ldr	r0, .L97+36
 1547 0378 FFF7FEFF 		bl	OTT_Stop
 1548              	.LVL128:
 186:Src/mc_tasks_foc.c **** 
 1549              		.loc 1 186 3 view .LVU453
 1550 037c 0020     		movs	r0, #0
 1551 037e FFF7FEFF 		bl	FOC_Clear
 1552              	.LVL129:
 188:Src/mc_tasks_foc.c ****   Mci[motor].State = STOP;
 1553              		.loc 1 188 3 view .LVU454
ARM GAS  /tmp/ccF6ITrB.s 			page 134


 1554 0382 4FF44870 		mov	r0, #800
 1555 0386 FFF7FEFF 		bl	TSK_SetStopPermanencyTimeM1
 1556              	.LVL130:
 189:Src/mc_tasks_foc.c **** }
 1557              		.loc 1 189 3 view .LVU455
 189:Src/mc_tasks_foc.c **** }
 1558              		.loc 1 189 20 is_stmt 0 view .LVU456
 1559 038a 0823     		movs	r3, #8
 1560 038c E377     		strb	r3, [r4, #31]
 190:Src/mc_tasks_foc.c **** int32_t  task_run = 0;
 1561              		.loc 1 190 1 view .LVU457
 1562 038e 5AE6     		b	.L39
 1563              	.LVL131:
 1564              	.L92:
 190:Src/mc_tasks_foc.c **** int32_t  task_run = 0;
 1565              		.loc 1 190 1 view .LVU458
 1566              	.LBE154:
 1567              	.LBE153:
 1568              	.LBB155:
 426:Src/mc_tasks_foc.c **** 
 1569              		.loc 1 426 39 discriminator 2 view .LVU459
 1570 0390 0028     		cmp	r0, #0
 1571 0392 7FF490AE 		bne	.L59
 1572 0396 56E6     		b	.L39
 1573              	.LVL132:
 1574              	.L94:
 426:Src/mc_tasks_foc.c **** 
 1575              		.loc 1 426 39 discriminator 2 view .LVU460
 1576              	.LBE155:
 1577              	.LBB156:
 382:Src/mc_tasks_foc.c ****               IqdRef.d = FOCVars[M1].UserIdref;
 1578              		.loc 1 382 15 is_stmt 1 view .LVU461
 382:Src/mc_tasks_foc.c ****               IqdRef.d = FOCVars[M1].UserIdref;
 1579              		.loc 1 382 26 is_stmt 0 view .LVU462
 1580 0398 124B     		ldr	r3, .L97+44
 1581 039a 1868     		ldr	r0, [r3]
 1582 039c FFF7FEFF 		bl	STC_CalcTorqueReference
 1583              	.LVL133:
 383:Src/mc_tasks_foc.c ****               /* Iqd reference current used by the High Frequency Loop to generate the PWM output *
 1584              		.loc 1 383 15 is_stmt 1 view .LVU463
 383:Src/mc_tasks_foc.c ****               /* Iqd reference current used by the High Frequency Loop to generate the PWM output *
 1585              		.loc 1 383 37 is_stmt 0 view .LVU464
 1586 03a0 114B     		ldr	r3, .L97+48
 1587 03a2 B3F91420 		ldrsh	r2, [r3, #20]
 1588              	.LVL134:
 385:Src/mc_tasks_foc.c ****            }
 1589              		.loc 1 385 15 is_stmt 1 view .LVU465
 385:Src/mc_tasks_foc.c ****            }
 1590              		.loc 1 385 34 is_stmt 0 view .LVU466
 1591 03a6 1882     		strh	r0, [r3, #16]	@ movhi
 1592 03a8 5A82     		strh	r2, [r3, #18]	@ movhi
 1593 03aa 06E7     		b	.L57
 1594              	.LVL135:
 1595              	.L93:
 385:Src/mc_tasks_foc.c ****            }
 1596              		.loc 1 385 34 view .LVU467
 1597              	.LBE156:
ARM GAS  /tmp/ccF6ITrB.s 			page 135


 305:Src/mc_tasks_foc.c ****                 Mci[M1].DirectCommand = MCI_NO_COMMAND;
 1598              		.loc 1 305 17 is_stmt 1 view .LVU468
 1599 03ac 0020     		movs	r0, #0
 1600 03ae FFF7FEFF 		bl	FOC_Clear
 1601              	.LVL136:
 306:Src/mc_tasks_foc.c ****                 Mci[M1].State = IDLE;
 1602              		.loc 1 306 17 view .LVU469
 307:Src/mc_tasks_foc.c ****               }
 1603              		.loc 1 307 17 view .LVU470
 306:Src/mc_tasks_foc.c ****                 Mci[M1].State = IDLE;
 1604              		.loc 1 306 39 is_stmt 0 view .LVU471
 1605 03b2 0023     		movs	r3, #0
 1606 03b4 E383     		strh	r3, [r4, #30]	@ movhi
 1607 03b6 46E6     		b	.L39
 1608              	.L98:
 1609              		.align	2
 1610              	.L97:
 1611 03b8 00000000 		.word	Mci
 1612 03bc 00000000 		.word	pwmcHandle
 1613 03c0 002C0140 		.word	1073818624
 1614 03c4 00000000 		.word	RevUpControlM1
 1615 03c8 00000000 		.word	HdlSTSPING4
 1616 03cc 00200140 		.word	1073815552
 1617 03d0 8CFFFEFF 		.word	-65652
 1618 03d4 182C0140 		.word	1073818648
 1619 03d8 00000000 		.word	.LANCHOR0
 1620 03dc 00000000 		.word	OTT
 1621 03e0 00000000 		.word	SCC
 1622 03e4 00000000 		.word	pSTC
 1623 03e8 00000000 		.word	FOCVars
 1624              		.cfi_endproc
 1625              	.LFE1869:
 1627              		.section	.text.FOC_HighFrequencyTask,"ax",%progbits
 1628              		.align	1
 1629              		.p2align 2,,3
 1630              		.weak	FOC_HighFrequencyTask
 1631              		.syntax unified
 1632              		.thumb
 1633              		.thumb_func
 1634              		.fpu fpv4-sp-d16
 1636              	FOC_HighFrequencyTask:
 1637              	.LVL137:
 1638              	.LFB1873:
 702:Src/mc_tasks_foc.c **** 
 703:Src/mc_tasks_foc.c **** 
 704:Src/mc_tasks_foc.c **** #if defined (CCMRAM)
 705:Src/mc_tasks_foc.c **** #if defined (__ICCARM__)
 706:Src/mc_tasks_foc.c **** #pragma location = ".ccmram"
 707:Src/mc_tasks_foc.c **** #elif defined (__CC_ARM) || defined(__GNUC__)
 708:Src/mc_tasks_foc.c **** __attribute__((section (".ccmram")))
 709:Src/mc_tasks_foc.c **** #endif
 710:Src/mc_tasks_foc.c **** #endif
 711:Src/mc_tasks_foc.c **** 
 712:Src/mc_tasks_foc.c **** 
 713:Src/mc_tasks_foc.c **** extern void clark_park(float *iq, float *id, float theta, float ia, float ib);
 714:Src/mc_tasks_foc.c **** /**
 715:Src/mc_tasks_foc.c ****   * @brief  Motor control profiler HF task
ARM GAS  /tmp/ccF6ITrB.s 			page 136


 716:Src/mc_tasks_foc.c ****   * @param  None
 717:Src/mc_tasks_foc.c ****   * @retval uint8_t It return always 0.
 718:Src/mc_tasks_foc.c ****   */
 719:Src/mc_tasks_foc.c **** __weak uint8_t FOC_HighFrequencyTask(uint8_t bMotorNbr)
 720:Src/mc_tasks_foc.c **** {
 1639              		.loc 1 720 1 is_stmt 1 view -0
 1640              		.cfi_startproc
 1641              		@ args = 0, pretend = 0, frame = 24
 1642              		@ frame_needed = 0, uses_anonymous_args = 0
 721:Src/mc_tasks_foc.c ****   float ta =0;
 1643              		.loc 1 721 3 view .LVU473
 720:Src/mc_tasks_foc.c ****   float ta =0;
 1644              		.loc 1 720 1 is_stmt 0 view .LVU474
 1645 0000 30B5     		push	{r4, r5, lr}
 1646              	.LCFI16:
 1647              		.cfi_def_cfa_offset 12
 1648              		.cfi_offset 4, -12
 1649              		.cfi_offset 5, -8
 1650              		.cfi_offset 14, -4
 722:Src/mc_tasks_foc.c ****   float tb =0;
 723:Src/mc_tasks_foc.c ****   float tc =0;
 724:Src/mc_tasks_foc.c ****   
 725:Src/mc_tasks_foc.c ****   float mod_q = 0.1f;
 726:Src/mc_tasks_foc.c ****   float mod_d = 0;
 727:Src/mc_tasks_foc.c ****   ab_t Iab;
 728:Src/mc_tasks_foc.c ****   float a = 0;
 729:Src/mc_tasks_foc.c ****   float b = 0;
 730:Src/mc_tasks_foc.c ****   float iq = 0;
 731:Src/mc_tasks_foc.c ****   float id = 0;
 732:Src/mc_tasks_foc.c ****   if (SWITCH_OVER == Mci[M1].State)
 1651              		.loc 1 732 29 view .LVU475
 1652 0002 414A     		ldr	r2, .L109
 1653              		.loc 1 732 6 view .LVU476
 1654 0004 D27F     		ldrb	r2, [r2, #31]	@ zero_extendqisi2
 720:Src/mc_tasks_foc.c ****   float ta =0;
 1655              		.loc 1 720 1 view .LVU477
 1656 0006 87B0     		sub	sp, sp, #28
 1657              	.LCFI17:
 1658              		.cfi_def_cfa_offset 40
 721:Src/mc_tasks_foc.c ****   float tb =0;
 1659              		.loc 1 721 9 view .LVU478
 1660 0008 0023     		movs	r3, #0
 1661              		.loc 1 732 6 view .LVU479
 1662 000a 132A     		cmp	r2, #19
 721:Src/mc_tasks_foc.c ****   float tb =0;
 1663              		.loc 1 721 9 view .LVU480
 1664 000c 0093     		str	r3, [sp]	@ float
 722:Src/mc_tasks_foc.c ****   float tb =0;
 1665              		.loc 1 722 3 is_stmt 1 view .LVU481
 722:Src/mc_tasks_foc.c ****   float tb =0;
 1666              		.loc 1 722 9 is_stmt 0 view .LVU482
 1667 000e 0193     		str	r3, [sp, #4]	@ float
 723:Src/mc_tasks_foc.c ****   
 1668              		.loc 1 723 3 is_stmt 1 view .LVU483
 723:Src/mc_tasks_foc.c ****   
 1669              		.loc 1 723 9 is_stmt 0 view .LVU484
 1670 0010 0293     		str	r3, [sp, #8]	@ float
ARM GAS  /tmp/ccF6ITrB.s 			page 137


 725:Src/mc_tasks_foc.c ****   float mod_d = 0;
 1671              		.loc 1 725 3 is_stmt 1 view .LVU485
 1672              	.LVL138:
 726:Src/mc_tasks_foc.c ****   ab_t Iab;
 1673              		.loc 1 726 3 view .LVU486
 727:Src/mc_tasks_foc.c ****   float a = 0;
 1674              		.loc 1 727 3 view .LVU487
 728:Src/mc_tasks_foc.c ****   float b = 0;
 1675              		.loc 1 728 3 view .LVU488
 729:Src/mc_tasks_foc.c ****   float iq = 0;
 1676              		.loc 1 729 3 view .LVU489
 730:Src/mc_tasks_foc.c ****   float id = 0;
 1677              		.loc 1 730 3 view .LVU490
 730:Src/mc_tasks_foc.c ****   float id = 0;
 1678              		.loc 1 730 9 is_stmt 0 view .LVU491
 1679 0012 0493     		str	r3, [sp, #16]	@ float
 731:Src/mc_tasks_foc.c ****   if (SWITCH_OVER == Mci[M1].State)
 1680              		.loc 1 731 3 is_stmt 1 view .LVU492
 731:Src/mc_tasks_foc.c ****   if (SWITCH_OVER == Mci[M1].State)
 1681              		.loc 1 731 9 is_stmt 0 view .LVU493
 1682 0014 0593     		str	r3, [sp, #20]	@ float
 1683              		.loc 1 732 3 is_stmt 1 view .LVU494
 1684              		.loc 1 732 6 is_stmt 0 view .LVU495
 1685 0016 33D0     		beq	.L100
 1686              	.LVL139:
 1687              	.L107:
 1688              		.loc 1 732 6 view .LVU496
 1689 0018 3C4C     		ldr	r4, .L109+4
 1690              	.L101:
 733:Src/mc_tasks_foc.c ****   {
 734:Src/mc_tasks_foc.c ****     if (!REMNG_RampCompleted(pREMNG[M1]))
 735:Src/mc_tasks_foc.c ****     {
 736:Src/mc_tasks_foc.c ****       FOCVars[M1].Iqdref.q = (int16_t)REMNG_Calc(pREMNG[M1]);
 737:Src/mc_tasks_foc.c ****     }
 738:Src/mc_tasks_foc.c ****     else
 739:Src/mc_tasks_foc.c ****     {
 740:Src/mc_tasks_foc.c ****       /* Nothing to do */
 741:Src/mc_tasks_foc.c ****     }
 742:Src/mc_tasks_foc.c ****   }
 743:Src/mc_tasks_foc.c ****   else
 744:Src/mc_tasks_foc.c ****   {
 745:Src/mc_tasks_foc.c ****     /* Nothing to do */
 746:Src/mc_tasks_foc.c ****   }
 1691              		.loc 1 746 3 is_stmt 1 view .LVU497
 747:Src/mc_tasks_foc.c ****   RCM_ReadOngoingConv();
 1692              		.loc 1 747 3 view .LVU498
 748:Src/mc_tasks_foc.c ****   RCM_ExecNextConv();
 749:Src/mc_tasks_foc.c ****   /* The generic function needs to be called here as the undelying
 750:Src/mc_tasks_foc.c ****    * implementation changes in time depending on the Profiler's state
 751:Src/mc_tasks_foc.c ****    * machine. Calling the generic function ensures that the correct
 752:Src/mc_tasks_foc.c ****    * implementation is invoked */
 753:Src/mc_tasks_foc.c ****   PWMC_GetPhaseCurrents(pwmcHandle[M1], &Iab);
 754:Src/mc_tasks_foc.c ****   FOCVars[M1].Iab = Iab;
 755:Src/mc_tasks_foc.c **** 
 756:Src/mc_tasks_foc.c ****   a = Iab.a;
 757:Src/mc_tasks_foc.c ****   b = Iab.b;
 758:Src/mc_tasks_foc.c ****   clark_park(&iq,&id,theta_,a,b);
ARM GAS  /tmp/ccF6ITrB.s 			page 138


 1693              		.loc 1 758 3 is_stmt 0 view .LVU499
 1694 001a 3D4D     		ldr	r5, .L109+8
 747:Src/mc_tasks_foc.c ****   RCM_ReadOngoingConv();
 1695              		.loc 1 747 3 view .LVU500
 1696 001c FFF7FEFF 		bl	RCM_ReadOngoingConv
 1697              	.LVL140:
 748:Src/mc_tasks_foc.c ****   RCM_ExecNextConv();
 1698              		.loc 1 748 3 is_stmt 1 view .LVU501
 1699 0020 FFF7FEFF 		bl	RCM_ExecNextConv
 1700              	.LVL141:
 753:Src/mc_tasks_foc.c ****   FOCVars[M1].Iab = Iab;
 1701              		.loc 1 753 3 view .LVU502
 1702 0024 3B4B     		ldr	r3, .L109+12
 1703 0026 1868     		ldr	r0, [r3]
 1704              	.LVL142:
 1705              	.LBB157:
 1706              	.LBI157:
 1707              		.file 5 "Inc/pwm_curr_fdbk.h"
   1:Inc/pwm_curr_fdbk.h **** /**
   2:Inc/pwm_curr_fdbk.h ****   ******************************************************************************
   3:Inc/pwm_curr_fdbk.h ****   * @file    pwm_curr_fdbk.h
   4:Inc/pwm_curr_fdbk.h ****   * @author  Motor Control SDK Team, ST Microelectronics
   5:Inc/pwm_curr_fdbk.h ****   * @brief   This file contains all definitions and functions prototypes for the
   6:Inc/pwm_curr_fdbk.h ****   *          PWM & Current Feedback component of the Motor Control SDK.
   7:Inc/pwm_curr_fdbk.h ****   ******************************************************************************
   8:Inc/pwm_curr_fdbk.h ****   * @attention
   9:Inc/pwm_curr_fdbk.h ****   *
  10:Inc/pwm_curr_fdbk.h ****   * <h2><center>&copy; Copyright (c) 2024 STMicroelectronics.
  11:Inc/pwm_curr_fdbk.h ****   * All rights reserved.</center></h2>
  12:Inc/pwm_curr_fdbk.h ****   *
  13:Inc/pwm_curr_fdbk.h ****   * This software component is licensed by ST under Ultimate Liberty license
  14:Inc/pwm_curr_fdbk.h ****   * SLA0044, the "License"; You may not use this file except in compliance with
  15:Inc/pwm_curr_fdbk.h ****   * the License. You may obtain a copy of the License at:
  16:Inc/pwm_curr_fdbk.h ****   *                             www.st.com/SLA0044
  17:Inc/pwm_curr_fdbk.h ****   *
  18:Inc/pwm_curr_fdbk.h ****   ******************************************************************************
  19:Inc/pwm_curr_fdbk.h ****   * @ingroup pwm_curr_fdbk
  20:Inc/pwm_curr_fdbk.h ****   */
  21:Inc/pwm_curr_fdbk.h **** 
  22:Inc/pwm_curr_fdbk.h **** /* Define to prevent recursive inclusion -------------------------------------*/
  23:Inc/pwm_curr_fdbk.h **** #ifndef PWMNCURRFDBK_H
  24:Inc/pwm_curr_fdbk.h **** #define PWMNCURRFDBK_H
  25:Inc/pwm_curr_fdbk.h **** 
  26:Inc/pwm_curr_fdbk.h **** #ifdef __cplusplus
  27:Inc/pwm_curr_fdbk.h **** extern "C" {
  28:Inc/pwm_curr_fdbk.h **** #endif /* __cplusplus */
  29:Inc/pwm_curr_fdbk.h **** 
  30:Inc/pwm_curr_fdbk.h **** /* Includes ------------------------------------------------------------------*/
  31:Inc/pwm_curr_fdbk.h **** #include "mc_type.h"
  32:Inc/pwm_curr_fdbk.h **** 
  33:Inc/pwm_curr_fdbk.h **** /* Exported defines ------------------------------------------------------------*/
  34:Inc/pwm_curr_fdbk.h **** 
  35:Inc/pwm_curr_fdbk.h **** #define SECTOR_1  0U
  36:Inc/pwm_curr_fdbk.h **** #define SECTOR_2  1U
  37:Inc/pwm_curr_fdbk.h **** #define SECTOR_3  2U
  38:Inc/pwm_curr_fdbk.h **** #define SECTOR_4  3U
  39:Inc/pwm_curr_fdbk.h **** #define SECTOR_5  4U
ARM GAS  /tmp/ccF6ITrB.s 			page 139


  40:Inc/pwm_curr_fdbk.h **** #define SECTOR_6  5U
  41:Inc/pwm_curr_fdbk.h **** /*  @brief Used in calculation of Ia, Ib and Ic
  42:Inc/pwm_curr_fdbk.h ****   *
  43:Inc/pwm_curr_fdbk.h ****   * See function PWMC_CalcPhaseCurrentsEst
  44:Inc/pwm_curr_fdbk.h ****   */
  45:Inc/pwm_curr_fdbk.h **** #define SQRT3FACTOR ((uint16_t)0xDDB4) /* = (16384 * 1.732051 * 2)*/
  46:Inc/pwm_curr_fdbk.h **** 
  47:Inc/pwm_curr_fdbk.h **** /** @addtogroup MCSDK
  48:Inc/pwm_curr_fdbk.h ****   * @{
  49:Inc/pwm_curr_fdbk.h ****   */
  50:Inc/pwm_curr_fdbk.h **** 
  51:Inc/pwm_curr_fdbk.h **** /** @addtogroup pwm_curr_fdbk
  52:Inc/pwm_curr_fdbk.h ****   * @{
  53:Inc/pwm_curr_fdbk.h ****   */
  54:Inc/pwm_curr_fdbk.h **** 
  55:Inc/pwm_curr_fdbk.h **** /* Exported types ------------------------------------------------------------*/
  56:Inc/pwm_curr_fdbk.h **** 
  57:Inc/pwm_curr_fdbk.h **** /** @brief PWM & Current Sensing component handle type */
  58:Inc/pwm_curr_fdbk.h **** typedef struct PWMC_Handle PWMC_Handle_t;
  59:Inc/pwm_curr_fdbk.h **** 
  60:Inc/pwm_curr_fdbk.h **** /**
  61:Inc/pwm_curr_fdbk.h ****   * @brief Pointer on callback functions used by PWMC components
  62:Inc/pwm_curr_fdbk.h ****   *
  63:Inc/pwm_curr_fdbk.h ****   * This type is needed because the actual functions to use can change at run-time.
  64:Inc/pwm_curr_fdbk.h ****   *
  65:Inc/pwm_curr_fdbk.h ****   * See the following items:
  66:Inc/pwm_curr_fdbk.h ****   * - PWMC_Handle::pFctSwitchOffPwm
  67:Inc/pwm_curr_fdbk.h ****   * - PWMC_Handle::pFctSwitchOnPwm
  68:Inc/pwm_curr_fdbk.h ****   * - PWMC_Handle::pFctCurrReadingCalib
  69:Inc/pwm_curr_fdbk.h ****   * - PWMC_Handle::pFctRLDetectionModeEnable
  70:Inc/pwm_curr_fdbk.h ****   * - PWMC_Handle::pFctRLDetectionModeDisable
  71:Inc/pwm_curr_fdbk.h ****   *
  72:Inc/pwm_curr_fdbk.h ****   *
  73:Inc/pwm_curr_fdbk.h ****   */
  74:Inc/pwm_curr_fdbk.h **** typedef void (*PWMC_Generic_Cb_t)(PWMC_Handle_t *pHandle);
  75:Inc/pwm_curr_fdbk.h **** 
  76:Inc/pwm_curr_fdbk.h **** /**
  77:Inc/pwm_curr_fdbk.h ****   * @brief Pointer on the function provided by the PMWC component instance to get the phase current
  78:Inc/pwm_curr_fdbk.h ****   *
  79:Inc/pwm_curr_fdbk.h ****   * This type is needed because the actual function to use can change at run-time
  80:Inc/pwm_curr_fdbk.h ****   * (See PWMC_Handle::pFctGetPhaseCurrents).
  81:Inc/pwm_curr_fdbk.h ****   *
  82:Inc/pwm_curr_fdbk.h ****   */
  83:Inc/pwm_curr_fdbk.h **** typedef void (*PWMC_GetPhaseCurr_Cb_t)(PWMC_Handle_t *pHandle, ab_t *Iab);
  84:Inc/pwm_curr_fdbk.h **** 
  85:Inc/pwm_curr_fdbk.h **** /**
  86:Inc/pwm_curr_fdbk.h ****   * @brief Pointer on the function provided by the PMWC component instance to set low sides ON.
  87:Inc/pwm_curr_fdbk.h ****   *
  88:Inc/pwm_curr_fdbk.h ****   * This type is needed because the actual function to use can change at run-time
  89:Inc/pwm_curr_fdbk.h ****   * (See PWMC_Handle::pFctTurnOnLowSides).
  90:Inc/pwm_curr_fdbk.h ****   *
  91:Inc/pwm_curr_fdbk.h ****   */
  92:Inc/pwm_curr_fdbk.h **** typedef void (*PWMC_TurnOnLowSides_Cb_t)(PWMC_Handle_t *pHandle, const uint32_t ticks);
  93:Inc/pwm_curr_fdbk.h **** 
  94:Inc/pwm_curr_fdbk.h **** /**
  95:Inc/pwm_curr_fdbk.h ****   * @brief Pointer on the function provided by the PMWC component instance to set the reference
  96:Inc/pwm_curr_fdbk.h ****   *        voltage for the over current protection.
ARM GAS  /tmp/ccF6ITrB.s 			page 140


  97:Inc/pwm_curr_fdbk.h ****   *
  98:Inc/pwm_curr_fdbk.h ****   * This type is needed because the actual function to use can change at run-time
  99:Inc/pwm_curr_fdbk.h ****   * (See PWMC_Handle::pFctOCPSetReferenceVoltage).
 100:Inc/pwm_curr_fdbk.h ****   *
 101:Inc/pwm_curr_fdbk.h ****   */
 102:Inc/pwm_curr_fdbk.h **** typedef void (*PWMC_SetOcpRefVolt_Cb_t)(PWMC_Handle_t *pHandle, uint16_t hDACVref);
 103:Inc/pwm_curr_fdbk.h **** 
 104:Inc/pwm_curr_fdbk.h **** /**
 105:Inc/pwm_curr_fdbk.h ****   * @brief Pointer on the functions provided by the PMWC component instance to set the ADC sampling
 106:Inc/pwm_curr_fdbk.h ****   *        point for each sectors.
 107:Inc/pwm_curr_fdbk.h ****   *
 108:Inc/pwm_curr_fdbk.h ****   * This type is needed because the actual function to use can change at run-time. See:
 109:Inc/pwm_curr_fdbk.h ****   * - PWMC_Handle::pFctSetADCSampPointSect1
 110:Inc/pwm_curr_fdbk.h ****   * - PWMC_Handle::pFctSetADCSampPointSect2
 111:Inc/pwm_curr_fdbk.h ****   * - PWMC_Handle::pFctSetADCSampPointSect3
 112:Inc/pwm_curr_fdbk.h ****   * - PWMC_Handle::pFctSetADCSampPointSect4
 113:Inc/pwm_curr_fdbk.h ****   * - PWMC_Handle::pFctSetADCSampPointSect5
 114:Inc/pwm_curr_fdbk.h ****   * - PWMC_Handle::pFctSetADCSampPointSect6
 115:Inc/pwm_curr_fdbk.h ****   *
 116:Inc/pwm_curr_fdbk.h ****   */
 117:Inc/pwm_curr_fdbk.h **** typedef uint16_t (*PWMC_SetSampPointSectX_Cb_t)(PWMC_Handle_t *pHandle);
 118:Inc/pwm_curr_fdbk.h **** 
 119:Inc/pwm_curr_fdbk.h **** /**
 120:Inc/pwm_curr_fdbk.h ****   * @brief Pointer on the function provided by the PMWC component instance to set the PWM duty cycl
 121:Inc/pwm_curr_fdbk.h ****   *        in RL detection mode.
 122:Inc/pwm_curr_fdbk.h ****   *
 123:Inc/pwm_curr_fdbk.h ****   * This type is needed because the actual function to use can change at run-time
 124:Inc/pwm_curr_fdbk.h ****   * (See PWMC_Handle::pFctRLDetectionModeSetDuty).
 125:Inc/pwm_curr_fdbk.h ****   *
 126:Inc/pwm_curr_fdbk.h ****   */
 127:Inc/pwm_curr_fdbk.h **** typedef uint16_t (*PWMC_RLDetectSetDuty_Cb_t)(PWMC_Handle_t *pHandle, uint16_t hDuty);
 128:Inc/pwm_curr_fdbk.h **** 
 129:Inc/pwm_curr_fdbk.h **** /**
 130:Inc/pwm_curr_fdbk.h ****   * @brief Pointer on the function provided by the PMWC component instance to set the calibrated of
 131:Inc/pwm_curr_fdbk.h ****   *        in RL detection mode.
 132:Inc/pwm_curr_fdbk.h ****   *
 133:Inc/pwm_curr_fdbk.h ****   * This type is needed because the actual function to use can change at run-time
 134:Inc/pwm_curr_fdbk.h ****   * (See PWMC_Handle::pFctSetOffsetCalib).
 135:Inc/pwm_curr_fdbk.h ****   *
 136:Inc/pwm_curr_fdbk.h ****   */
 137:Inc/pwm_curr_fdbk.h **** typedef void (*PWMC_SetOffsetCalib_Cb_t)(PWMC_Handle_t *pHandle, PolarizationOffsets_t *offsets);
 138:Inc/pwm_curr_fdbk.h **** 
 139:Inc/pwm_curr_fdbk.h **** /**
 140:Inc/pwm_curr_fdbk.h ****   * @brief Pointer on the function provided by the PMWC component instance to get the calibrated of
 141:Inc/pwm_curr_fdbk.h ****   *        in RL detection mode.
 142:Inc/pwm_curr_fdbk.h ****   *
 143:Inc/pwm_curr_fdbk.h ****   * This type is needed because the actual function to use can change at run-time
 144:Inc/pwm_curr_fdbk.h ****   */
 145:Inc/pwm_curr_fdbk.h **** typedef void (*PWMC_GetOffsetCalib_Cb_t)(PWMC_Handle_t *pHandle, PolarizationOffsets_t *offsets);
 146:Inc/pwm_curr_fdbk.h **** 
 147:Inc/pwm_curr_fdbk.h **** /**
 148:Inc/pwm_curr_fdbk.h ****   * @brief This structure is used to handle the data of an instance of the PWM & Current Feedback c
 149:Inc/pwm_curr_fdbk.h ****   *
 150:Inc/pwm_curr_fdbk.h ****   */
 151:Inc/pwm_curr_fdbk.h **** struct PWMC_Handle
 152:Inc/pwm_curr_fdbk.h **** {
 153:Inc/pwm_curr_fdbk.h ****   /** @{ */
ARM GAS  /tmp/ccF6ITrB.s 			page 141


 154:Inc/pwm_curr_fdbk.h ****   PWMC_GetPhaseCurr_Cb_t
 155:Inc/pwm_curr_fdbk.h ****   pFctGetPhaseCurrents;                      /**< Pointer on the function the component instance us
 156:Inc/pwm_curr_fdbk.h ****   PWMC_Generic_Cb_t
 157:Inc/pwm_curr_fdbk.h ****   pFctSwitchOffPwm;                          /**< Pointer on the function the component instance us
 158:Inc/pwm_curr_fdbk.h ****   PWMC_Generic_Cb_t
 159:Inc/pwm_curr_fdbk.h ****   pFctSwitchOnPwm;                           /**< Pointer on the function the component instance us
 160:Inc/pwm_curr_fdbk.h ****   PWMC_Generic_Cb_t
 161:Inc/pwm_curr_fdbk.h ****   pFctCurrReadingCalib;                      /**< Pointer on the fct the component instance uses to
 162:Inc/pwm_curr_fdbk.h ****   PWMC_TurnOnLowSides_Cb_t
 163:Inc/pwm_curr_fdbk.h ****   pFctTurnOnLowSides;                        /**< Pointer on the function the component instance us
 164:Inc/pwm_curr_fdbk.h ****   PWMC_SetSampPointSectX_Cb_t
 165:Inc/pwm_curr_fdbk.h ****   pFctSetADCSampPointSectX;                  /**< Pointer on the function the component instance us
 166:Inc/pwm_curr_fdbk.h ****   PWMC_SetOcpRefVolt_Cb_t
 167:Inc/pwm_curr_fdbk.h ****   pFctOCPSetReferenceVoltage;                /**< Pointer on the fct the component instance uses to
 168:Inc/pwm_curr_fdbk.h ****   PWMC_Generic_Cb_t
 169:Inc/pwm_curr_fdbk.h ****   pFctRLDetectionModeEnable;                 /**< Pointer on the function the component instance us
 170:Inc/pwm_curr_fdbk.h ****   PWMC_Generic_Cb_t
 171:Inc/pwm_curr_fdbk.h ****   pFctRLDetectionModeDisable;                /**< Pointer on the function the component instance us
 172:Inc/pwm_curr_fdbk.h ****   PWMC_RLDetectSetDuty_Cb_t
 173:Inc/pwm_curr_fdbk.h ****   pFctRLDetectionModeSetDuty;                /**< Pointer on the fct the component instance uses to
 174:Inc/pwm_curr_fdbk.h ****                                                   detection mode. */
 175:Inc/pwm_curr_fdbk.h ****   PWMC_Generic_Cb_t
 176:Inc/pwm_curr_fdbk.h ****   pFctRLTurnOnLowSidesAndStart;              /**< Pointer on the function the component instance us
 177:Inc/pwm_curr_fdbk.h ****   PWMC_SetOffsetCalib_Cb_t
 178:Inc/pwm_curr_fdbk.h ****   pFctSetOffsetCalib;                        /**< Pointer on the fct the component instance uses to
 179:Inc/pwm_curr_fdbk.h ****   PWMC_GetOffsetCalib_Cb_t
 180:Inc/pwm_curr_fdbk.h ****   pFctGetOffsetCalib;                        /**< Pointer on the fct the component instance uses to
 181:Inc/pwm_curr_fdbk.h ****   /** @} */
 182:Inc/pwm_curr_fdbk.h ****   int32_t   LPFIqBuf;                        /**< Low Pass Filter buffer used for averaged @f$ I_q 
 183:Inc/pwm_curr_fdbk.h ****   int32_t   LPFIdBuf;                        /**< Low Pass Filter Buffer used for averaged @f$ I_d 
 184:Inc/pwm_curr_fdbk.h ****   GPIO_TypeDef * pwm_en_u_port;                        /*!< Channel 1N (low side) GPIO output */
 185:Inc/pwm_curr_fdbk.h ****   GPIO_TypeDef * pwm_en_v_port;                        /*!< Channel 2N (low side) GPIO output*/
 186:Inc/pwm_curr_fdbk.h ****   GPIO_TypeDef * pwm_en_w_port;                        /*!< Channel 3N (low side)  GPIO output */
 187:Inc/pwm_curr_fdbk.h ****   uint16_t pwm_en_u_pin;                               /*!< Channel 1N (low side) GPIO output pin. 
 188:Inc/pwm_curr_fdbk.h ****   uint16_t pwm_en_v_pin;                               /*!< Channel 2N (low side) GPIO output pin. 
 189:Inc/pwm_curr_fdbk.h ****   uint16_t pwm_en_w_pin;                               /*!< Channel 3N (low side)  GPIO output pin.
 190:Inc/pwm_curr_fdbk.h ****   uint16_t  hT_Sqrt3;                                  /**< Constant used by PWM algorithm (@f$\sqr
 191:Inc/pwm_curr_fdbk.h ****   uint16_t  CntPhA;                                    /**< PWM Duty cycle for phase A. */
 192:Inc/pwm_curr_fdbk.h ****   uint16_t  CntPhB;                                    /**< PWM Duty cycle for phase B. */
 193:Inc/pwm_curr_fdbk.h ****   uint16_t  CntPhC;                                    /**< PWM Duty cycle for phase C. */
 194:Inc/pwm_curr_fdbk.h ****   uint16_t  SWerror;                                   /**< Contains status about SW error. */
 195:Inc/pwm_curr_fdbk.h ****   uint16_t  lowDuty;
 196:Inc/pwm_curr_fdbk.h ****   uint16_t  midDuty;
 197:Inc/pwm_curr_fdbk.h ****   uint16_t  highDuty;
 198:Inc/pwm_curr_fdbk.h ****   uint16_t  HighDutyStored;                            /**< Discontinuous PWM Store current Highest
 199:Inc/pwm_curr_fdbk.h ****   uint16_t  OffCalibrWaitTimeCounter;                  /**< Counter to wait fixed time before motor
 200:Inc/pwm_curr_fdbk.h ****                                                             current measurement offset calibration.
 201:Inc/pwm_curr_fdbk.h ****   int16_t   Ia;                                        /**< Last @f$I_{a}@f$ measurement. */
 202:Inc/pwm_curr_fdbk.h ****   int16_t   Ib;                                        /**< Last @f$I_{b}@f$ measurement. */
 203:Inc/pwm_curr_fdbk.h ****   int16_t   Ic;                                        /**< Last @f$I_{c}@f$ measurement. */
 204:Inc/pwm_curr_fdbk.h ****   int16_t   IaEst;                           /**< Estimated @f$I_{a}@f$ based on averaged @f$ I_q @
 205:Inc/pwm_curr_fdbk.h ****   int16_t   IbEst;                           /**< Estimated @f$I_{b}@f$ based on averaged @f$ I_q @
 206:Inc/pwm_curr_fdbk.h ****   int16_t   IcEst;                           /**< Estimated @f$I_{c}@f$ based on averaged @f$ I_q @
 207:Inc/pwm_curr_fdbk.h ****   int16_t   LPFIqd_const;                              /**< Low pass filter constant (averaging coe
 208:Inc/pwm_curr_fdbk.h ****   uint16_t PWMperiod;                                  /**< PWM period expressed in timer clock cyc
 209:Inc/pwm_curr_fdbk.h ****                                                          *  @f$hPWMPeriod = TimerFreq_{CLK} / F_{PW
 210:Inc/pwm_curr_fdbk.h ****   uint16_t DTCompCnt;                                  /**< Half of Dead time expressed
ARM GAS  /tmp/ccF6ITrB.s 			page 142


 211:Inc/pwm_curr_fdbk.h ****                                                           *  in timer clock cycles unit:
 212:Inc/pwm_curr_fdbk.h ****                                                           *  @f$hDTCompCnt = (DT_s \cdot TimerFreq_
 213:Inc/pwm_curr_fdbk.h ****   uint16_t  Ton;                                       /**< Reserved. */
 214:Inc/pwm_curr_fdbk.h ****   uint16_t  Toff;                                      /**< Reserved. */
 215:Inc/pwm_curr_fdbk.h ****   uint8_t   Motor;                                     /**< Motor reference number. */
 216:Inc/pwm_curr_fdbk.h ****   uint8_t   AlignFlag;                                 /**< Phase current 0 is reliable, 1 is not. 
 217:Inc/pwm_curr_fdbk.h ****   uint8_t   Sector;                                    /**< Space vector sector number. */
 218:Inc/pwm_curr_fdbk.h ****   LowSideOutputsFunction_t LowSideOutputs;             /*!< Low side or enabling signals generation
 219:Inc/pwm_curr_fdbk.h ****   bool TurnOnLowSidesAction;                           /**< True if TurnOnLowSides action is active
 220:Inc/pwm_curr_fdbk.h ****                                                             false otherwise. */
 221:Inc/pwm_curr_fdbk.h ****   bool      DPWM_Mode;                                 /**< Discontinuous PWM mode activation. */
 222:Inc/pwm_curr_fdbk.h ****   bool      RLDetectionMode;                           /**< True if enabled, false if disabled. */
 223:Inc/pwm_curr_fdbk.h ****   bool offsetCalibStatus;                              /**< True if offset calibration completed, f
 224:Inc/pwm_curr_fdbk.h ****   bool OverCurrentFlag;         /* This flag is set when an overcurrent occurs.*/
 225:Inc/pwm_curr_fdbk.h ****   bool OverVoltageFlag;         /* This flag is set when an overvoltage occurs.*/
 226:Inc/pwm_curr_fdbk.h ****   bool driverProtectionFlag;     /* This flag is set when a driver protection occurs.*/
 227:Inc/pwm_curr_fdbk.h ****   bool BrakeActionLock;         /* This flag is set to avoid that brake action is interrupted.*/
 228:Inc/pwm_curr_fdbk.h ****   volatile  bool      useEstCurrent;                   /**< Estimated current flag. */
 229:Inc/pwm_curr_fdbk.h **** 
 230:Inc/pwm_curr_fdbk.h ****   bool SingleShuntTopology;                            /*!< This flag is set when Single Shunt topo
 231:Inc/pwm_curr_fdbk.h **** };
 232:Inc/pwm_curr_fdbk.h **** 
 233:Inc/pwm_curr_fdbk.h **** /**
 234:Inc/pwm_curr_fdbk.h ****   * @brief  Current reading calibration definition.
 235:Inc/pwm_curr_fdbk.h ****   */
 236:Inc/pwm_curr_fdbk.h **** typedef enum
 237:Inc/pwm_curr_fdbk.h **** {
 238:Inc/pwm_curr_fdbk.h ****   CRC_START, /**< Initializes the current reading calibration. */
 239:Inc/pwm_curr_fdbk.h ****   CRC_EXEC   /**< Executes the current reading calibration. */
 240:Inc/pwm_curr_fdbk.h **** } CRCAction_t;
 241:Inc/pwm_curr_fdbk.h **** 
 242:Inc/pwm_curr_fdbk.h **** /* Converts input voltages @f$ V_{\alpha} @f$ and @f$ V_{\beta} @f$ into PWM duty cycles
 243:Inc/pwm_curr_fdbk.h ****  * and feed them to the inverter. */
 244:Inc/pwm_curr_fdbk.h **** uint16_t PWMC_SetPhaseVoltage(PWMC_Handle_t *pHandle, alphabeta_t Valfa_beta);
 245:Inc/pwm_curr_fdbk.h **** 
 246:Inc/pwm_curr_fdbk.h **** /* Switches PWM generation off, inactivating the outputs. */
 247:Inc/pwm_curr_fdbk.h **** void PWMC_SwitchOffPWM(PWMC_Handle_t *pHandle);
 248:Inc/pwm_curr_fdbk.h **** 
 249:Inc/pwm_curr_fdbk.h **** /* Enables PWM generation on the proper Timer peripheral. */
 250:Inc/pwm_curr_fdbk.h **** void PWMC_SwitchOnPWM(PWMC_Handle_t *pHandle);
 251:Inc/pwm_curr_fdbk.h **** 
 252:Inc/pwm_curr_fdbk.h **** /* Calibrates ADC current conversions by reading the offset voltage
 253:Inc/pwm_curr_fdbk.h ****  * present on ADC pins when no motor current is flowing in. */
 254:Inc/pwm_curr_fdbk.h **** bool PWMC_CurrentReadingCalibr(PWMC_Handle_t *pHandle, CRCAction_t action);
 255:Inc/pwm_curr_fdbk.h **** 
 256:Inc/pwm_curr_fdbk.h **** /* Switches power stage Low Sides transistors on. */
 257:Inc/pwm_curr_fdbk.h **** void PWMC_TurnOnLowSides(PWMC_Handle_t *pHandle, uint32_t ticks);
 258:Inc/pwm_curr_fdbk.h **** 
 259:Inc/pwm_curr_fdbk.h **** /* Sets the calibrated @p offsets for each of the phases in the @p pHandle handler. In case
 260:Inc/pwm_curr_fdbk.h ****  * of single shunt only phase A is relevant. */
 261:Inc/pwm_curr_fdbk.h **** void PWMC_SetOffsetCalib(PWMC_Handle_t *pHandle, PolarizationOffsets_t *offsets);
 262:Inc/pwm_curr_fdbk.h **** 
 263:Inc/pwm_curr_fdbk.h **** /* Gets the calibrated @p offsets for each of the phases in the @p pHandle handler. In case
 264:Inc/pwm_curr_fdbk.h ****  * of single shunt only phase A is relevant. */
 265:Inc/pwm_curr_fdbk.h **** void PWMC_GetOffsetCalib(PWMC_Handle_t *pHandle, PolarizationOffsets_t *offsets);
 266:Inc/pwm_curr_fdbk.h **** 
 267:Inc/pwm_curr_fdbk.h **** /* Manages HW overcurrent protection. */
ARM GAS  /tmp/ccF6ITrB.s 			page 143


 268:Inc/pwm_curr_fdbk.h **** void *PWMC_OCP_Handler(PWMC_Handle_t *pHandle);
 269:Inc/pwm_curr_fdbk.h **** 
 270:Inc/pwm_curr_fdbk.h **** /* Manages driver protection. */
 271:Inc/pwm_curr_fdbk.h **** void *PWMC_DP_Handler(PWMC_Handle_t *pHandle);
 272:Inc/pwm_curr_fdbk.h **** 
 273:Inc/pwm_curr_fdbk.h **** /* Manages HW overvoltage protection. */
 274:Inc/pwm_curr_fdbk.h **** void *PWMC_OVP_Handler(PWMC_Handle_t *pHandle, TIM_TypeDef *TIMx);
 275:Inc/pwm_curr_fdbk.h **** 
 276:Inc/pwm_curr_fdbk.h **** /* Checks if a fault (OCP, DP or OVP) occurred since last call. */
 277:Inc/pwm_curr_fdbk.h **** uint16_t PWMC_IsFaultOccurred(PWMC_Handle_t *pHandle);
 278:Inc/pwm_curr_fdbk.h **** 
 279:Inc/pwm_curr_fdbk.h **** /* Sets the over current threshold through the DAC reference voltage. */
 280:Inc/pwm_curr_fdbk.h **** void PWMC_OCPSetReferenceVoltage(PWMC_Handle_t *pHandle, uint16_t hDACVref);
 281:Inc/pwm_curr_fdbk.h **** 
 282:Inc/pwm_curr_fdbk.h **** /* Enables Discontinuous PWM mode using the @p pHandle PWMC component. */
 283:Inc/pwm_curr_fdbk.h **** void PWMC_DPWM_ModeEnable(PWMC_Handle_t *pHandle);
 284:Inc/pwm_curr_fdbk.h **** 
 285:Inc/pwm_curr_fdbk.h **** /* Disables Discontinuous PWM mode using the @p pHandle PWMC component. */
 286:Inc/pwm_curr_fdbk.h **** void PWMC_DPWM_ModeDisable(PWMC_Handle_t *pHandle);
 287:Inc/pwm_curr_fdbk.h **** 
 288:Inc/pwm_curr_fdbk.h **** /* Returns the status of the Discontinuous PWM Mode stored in the @p pHandle PWMC component. */
 289:Inc/pwm_curr_fdbk.h **** bool PWMC_GetDPWM_Mode(PWMC_Handle_t *pHandle);
 290:Inc/pwm_curr_fdbk.h **** 
 291:Inc/pwm_curr_fdbk.h **** /* Enables the RL detection mode by calling the function in @p pHandle PWMC component. */
 292:Inc/pwm_curr_fdbk.h **** void PWMC_RLDetectionModeEnable(PWMC_Handle_t *pHandle);
 293:Inc/pwm_curr_fdbk.h **** 
 294:Inc/pwm_curr_fdbk.h **** /* Disables the RL detection mode by calling the function in @p pHandle PWMC component. */
 295:Inc/pwm_curr_fdbk.h **** void PWMC_RLDetectionModeDisable(PWMC_Handle_t *pHandle);
 296:Inc/pwm_curr_fdbk.h **** 
 297:Inc/pwm_curr_fdbk.h **** /* Sets the PWM duty cycle to apply in the RL Detection mode. */
 298:Inc/pwm_curr_fdbk.h **** uint16_t PWMC_RLDetectionModeSetDuty(PWMC_Handle_t *pHandle, uint16_t hDuty);
 299:Inc/pwm_curr_fdbk.h **** 
 300:Inc/pwm_curr_fdbk.h **** /* Turns on low sides switches and starts ADC triggerin. */
 301:Inc/pwm_curr_fdbk.h **** void PWMC_RLTurnOnLowSidesAndStart(PWMC_Handle_t *pHandle);
 302:Inc/pwm_curr_fdbk.h **** 
 303:Inc/pwm_curr_fdbk.h **** /* Sets the Callback that the PWMC component shall invoke to get phases current. */
 304:Inc/pwm_curr_fdbk.h **** void PWMC_RegisterGetPhaseCurrentsCallBack(PWMC_GetPhaseCurr_Cb_t pCallBack, PWMC_Handle_t *pHandle
 305:Inc/pwm_curr_fdbk.h **** 
 306:Inc/pwm_curr_fdbk.h **** /* Sets the Callback that the PWMC component shall invoke to switch PWM generation off. */
 307:Inc/pwm_curr_fdbk.h **** void PWMC_RegisterSwitchOffPwmCallBack(PWMC_Generic_Cb_t pCallBack, PWMC_Handle_t *pHandle);
 308:Inc/pwm_curr_fdbk.h **** 
 309:Inc/pwm_curr_fdbk.h **** /* Sets the Callback that the PWMC component shall invoke to switch PWM generation on. */
 310:Inc/pwm_curr_fdbk.h **** void PWMC_RegisterSwitchonPwmCallBack(PWMC_Generic_Cb_t pCallBack, PWMC_Handle_t *pHandle);
 311:Inc/pwm_curr_fdbk.h **** 
 312:Inc/pwm_curr_fdbk.h **** /* Sets the Callback that the PWMC component shall invoke to execute a calibration of the current s
 313:Inc/pwm_curr_fdbk.h **** void PWMC_RegisterReadingCalibrationCallBack(PWMC_Generic_Cb_t pCallBack, PWMC_Handle_t *pHandle);
 314:Inc/pwm_curr_fdbk.h **** 
 315:Inc/pwm_curr_fdbk.h **** /* Sets the Callback that the PWMC component shall invoke to turn low sides on. */
 316:Inc/pwm_curr_fdbk.h **** void PWMC_RegisterTurnOnLowSidesCallBack(PWMC_TurnOnLowSides_Cb_t pCallBack, PWMC_Handle_t *pHandle
 317:Inc/pwm_curr_fdbk.h **** 
 318:Inc/pwm_curr_fdbk.h **** /* Sets the Callback that the PWMC component shall invoke to compute ADC sampling point. */
 319:Inc/pwm_curr_fdbk.h **** void PWMC_RegisterSampPointSectXCallBack(PWMC_SetSampPointSectX_Cb_t pCallBack, PWMC_Handle_t *pHan
 320:Inc/pwm_curr_fdbk.h **** 
 321:Inc/pwm_curr_fdbk.h **** /* Sets the Callback that the PWMC component shall invoke to set the reference voltage for the over
 322:Inc/pwm_curr_fdbk.h ****   * protection. */
 323:Inc/pwm_curr_fdbk.h **** void PWMC_RegisterOCPSetRefVoltageCallBack(PWMC_SetOcpRefVolt_Cb_t pCallBack, PWMC_Handle_t *pHandl
 324:Inc/pwm_curr_fdbk.h **** 
ARM GAS  /tmp/ccF6ITrB.s 			page 144


 325:Inc/pwm_curr_fdbk.h **** /* Sets the Callback that the PWMC component shall invoke to enable the R/L detection mode. */
 326:Inc/pwm_curr_fdbk.h **** void PWMC_RegisterRLDetectionModeEnableCallBack(PWMC_Generic_Cb_t pCallBack, PWMC_Handle_t *pHandle
 327:Inc/pwm_curr_fdbk.h **** 
 328:Inc/pwm_curr_fdbk.h **** /* Sets the Callback that the PWMC component shall invoke to disable the R/L detection mode. */
 329:Inc/pwm_curr_fdbk.h **** void PWMC_RegisterRLDetectionModeDisableCallBack(PWMC_Generic_Cb_t pCallBack, PWMC_Handle_t *pHandl
 330:Inc/pwm_curr_fdbk.h **** 
 331:Inc/pwm_curr_fdbk.h **** /* Sets the Callback that the PWMC component shall invoke to set the duty cycle for the R/L detecti
 332:Inc/pwm_curr_fdbk.h **** void PWMC_RegisterRLDetectionModeSetDutyCallBack(PWMC_RLDetectSetDuty_Cb_t pCallBack, PWMC_Handle_t
 333:Inc/pwm_curr_fdbk.h **** 
 334:Inc/pwm_curr_fdbk.h **** /* Used to clear variables in CPWMC. */
 335:Inc/pwm_curr_fdbk.h **** void PWMC_Clear(PWMC_Handle_t *pHandle);
 336:Inc/pwm_curr_fdbk.h **** 
 337:Inc/pwm_curr_fdbk.h **** /* Converts input currents components Iqd into estimated currents Ia, Ib and Ic. */
 338:Inc/pwm_curr_fdbk.h **** void PWMC_CalcPhaseCurrentsEst(PWMC_Handle_t *pHandle, qd_t Iqd, int16_t hElAngledpp);
 339:Inc/pwm_curr_fdbk.h **** 
 340:Inc/pwm_curr_fdbk.h **** /* Converts input voltage components @f$ V_{\alpha} @f$ and @f$ V_{\beta} @f$ into duty cycles
 341:Inc/pwm_curr_fdbk.h ****  * and feed them to the inverter with overmodulation function. */
 342:Inc/pwm_curr_fdbk.h **** uint16_t PWMC_SetPhaseVoltage_OVM(PWMC_Handle_t *pHandle, alphabeta_t Valfa_beta);
 343:Inc/pwm_curr_fdbk.h **** 
 344:Inc/pwm_curr_fdbk.h **** /**
 345:Inc/pwm_curr_fdbk.h ****   * @brief Returns the phase current of the motor as read by the ADC (in s16A unit).
 346:Inc/pwm_curr_fdbk.h ****   *
 347:Inc/pwm_curr_fdbk.h ****   * Returns the current values of phases A & B. Phase C current
 348:Inc/pwm_curr_fdbk.h ****   * can be deduced thanks to the formula:
 349:Inc/pwm_curr_fdbk.h ****   *
 350:Inc/pwm_curr_fdbk.h ****   * @f[
 351:Inc/pwm_curr_fdbk.h ****   * I_{C} = -I_{A} - I_{B}
 352:Inc/pwm_curr_fdbk.h ****   * @f]
 353:Inc/pwm_curr_fdbk.h ****   *
 354:Inc/pwm_curr_fdbk.h ****   * @param  pHandle: Handler of the current instance of the PWM component.
 355:Inc/pwm_curr_fdbk.h ****   * @param  Iab: Pointer to the structure that will receive motor current
 356:Inc/pwm_curr_fdbk.h ****   *         of phases A & B in ElectricalValue format.
 357:Inc/pwm_curr_fdbk.h ****   */
 358:Inc/pwm_curr_fdbk.h **** //cstat !MISRAC2012-Rule-8.13 !RED-func-no-effect
 359:Inc/pwm_curr_fdbk.h **** static inline void PWMC_GetPhaseCurrents(PWMC_Handle_t *pHandle, ab_t *Iab)
 1708              		.loc 5 359 20 view .LVU503
 1709              	.LBB158:
 360:Inc/pwm_curr_fdbk.h **** {
 361:Inc/pwm_curr_fdbk.h **** #ifdef NULL_PTR_CHECK_PWR_CUR_FDB
 362:Inc/pwm_curr_fdbk.h ****   if (MC_NULL == pHandle)
 363:Inc/pwm_curr_fdbk.h ****   {
 364:Inc/pwm_curr_fdbk.h ****     /* Nothing to do */
 365:Inc/pwm_curr_fdbk.h ****   }
 366:Inc/pwm_curr_fdbk.h ****   else
 367:Inc/pwm_curr_fdbk.h ****   {
 368:Inc/pwm_curr_fdbk.h **** #endif
 369:Inc/pwm_curr_fdbk.h ****     pHandle->pFctGetPhaseCurrents(pHandle, Iab);
 1710              		.loc 5 369 5 view .LVU504
 1711 0028 03A9     		add	r1, sp, #12
 1712              	.LVL143:
 1713              		.loc 5 369 5 is_stmt 0 view .LVU505
 1714 002a 0368     		ldr	r3, [r0]
 1715 002c 9847     		blx	r3
 1716              	.LVL144:
 1717              		.loc 5 369 5 view .LVU506
 1718              	.LBE158:
 1719              	.LBE157:
ARM GAS  /tmp/ccF6ITrB.s 			page 145


 754:Src/mc_tasks_foc.c **** 
 1720              		.loc 1 754 3 is_stmt 1 view .LVU507
 757:Src/mc_tasks_foc.c ****   clark_park(&iq,&id,theta_,a,b);
 1721              		.loc 1 757 5 is_stmt 0 view .LVU508
 1722 002e BDF90E30 		ldrsh	r3, [sp, #14]
 754:Src/mc_tasks_foc.c **** 
 1723              		.loc 1 754 19 view .LVU509
 1724 0032 0398     		ldr	r0, [sp, #12]
 1725 0034 2060     		str	r0, [r4]	@ unaligned
 756:Src/mc_tasks_foc.c ****   b = Iab.b;
 1726              		.loc 1 756 3 is_stmt 1 view .LVU510
 1727              	.LVL145:
 757:Src/mc_tasks_foc.c ****   clark_park(&iq,&id,theta_,a,b);
 1728              		.loc 1 757 3 view .LVU511
 1729              		.loc 1 758 3 view .LVU512
 757:Src/mc_tasks_foc.c ****   clark_park(&iq,&id,theta_,a,b);
 1730              		.loc 1 757 5 is_stmt 0 view .LVU513
 1731 0036 01EE103A 		vmov	s2, r3	@ int
 756:Src/mc_tasks_foc.c ****   b = Iab.b;
 1732              		.loc 1 756 5 view .LVU514
 1733 003a BDF90C30 		ldrsh	r3, [sp, #12]
 1734              		.loc 1 758 3 view .LVU515
 1735 003e 95ED000A 		vldr.32	s0, [r5]
 756:Src/mc_tasks_foc.c ****   b = Iab.b;
 1736              		.loc 1 756 5 view .LVU516
 1737 0042 00EE903A 		vmov	s1, r3	@ int
 1738              		.loc 1 758 3 view .LVU517
 1739 0046 B8EEC11A 		vcvt.f32.s32	s2, s2
 1740 004a F8EEE00A 		vcvt.f32.s32	s1, s1
 1741 004e 05A9     		add	r1, sp, #20
 1742 0050 04A8     		add	r0, sp, #16
 1743 0052 FFF7FEFF 		bl	clark_park
 1744              	.LVL146:
 759:Src/mc_tasks_foc.c ****   FOCVars[M1].Iqd.q = iq;
 1745              		.loc 1 759 3 is_stmt 1 view .LVU518
 1746              		.loc 1 759 21 is_stmt 0 view .LVU519
 1747 0056 9DED047A 		vldr.32	s14, [sp, #16]
 760:Src/mc_tasks_foc.c ****   FOCVars[M1].Iqd.d = id;
 1748              		.loc 1 760 21 view .LVU520
 1749 005a DDED057A 		vldr.32	s15, [sp, #20]
 761:Src/mc_tasks_foc.c **** 
 762:Src/mc_tasks_foc.c **** if(task_run == 1)
 1750              		.loc 1 762 13 view .LVU521
 1751 005e 2E4B     		ldr	r3, .L109+16
 759:Src/mc_tasks_foc.c ****   FOCVars[M1].Iqd.d = id;
 1752              		.loc 1 759 21 view .LVU522
 1753 0060 BDEEC77A 		vcvt.s32.f32	s14, s14
 760:Src/mc_tasks_foc.c ****   FOCVars[M1].Iqd.d = id;
 1754              		.loc 1 760 21 view .LVU523
 1755 0064 FDEEE77A 		vcvt.s32.f32	s15, s15
 759:Src/mc_tasks_foc.c ****   FOCVars[M1].Iqd.d = id;
 1756              		.loc 1 759 21 view .LVU524
 1757 0068 17EE102A 		vmov	r2, s14	@ int
 1758              		.loc 1 762 3 view .LVU525
 1759 006c 1B68     		ldr	r3, [r3]
 759:Src/mc_tasks_foc.c ****   FOCVars[M1].Iqd.d = id;
 1760              		.loc 1 759 21 view .LVU526
ARM GAS  /tmp/ccF6ITrB.s 			page 146


 1761 006e A281     		strh	r2, [r4, #12]	@ movhi
 760:Src/mc_tasks_foc.c ****   FOCVars[M1].Iqd.d = id;
 1762              		.loc 1 760 3 is_stmt 1 view .LVU527
 760:Src/mc_tasks_foc.c ****   FOCVars[M1].Iqd.d = id;
 1763              		.loc 1 760 21 is_stmt 0 view .LVU528
 1764 0070 17EE902A 		vmov	r2, s15	@ int
 1765              		.loc 1 762 3 view .LVU529
 1766 0074 012B     		cmp	r3, #1
 760:Src/mc_tasks_foc.c ****   FOCVars[M1].Iqd.d = id;
 1767              		.loc 1 760 21 view .LVU530
 1768 0076 E281     		strh	r2, [r4, #14]	@ movhi
 1769              		.loc 1 762 1 is_stmt 1 view .LVU531
 1770              		.loc 1 762 3 is_stmt 0 view .LVU532
 1771 0078 0ED0     		beq	.L108
 763:Src/mc_tasks_foc.c **** {
 764:Src/mc_tasks_foc.c ****                   //STSPIN32G4_clearFaults(&HdlSTSPING4);
 765:Src/mc_tasks_foc.c ****                   test_svm(mod_q, mod_d, &theta_, &ta, &tb, &tc);
 766:Src/mc_tasks_foc.c ****                   /* Turn on the three low side switches */
 767:Src/mc_tasks_foc.c ****                   LL_TIM_OC_SetCompareCH1(TIM1, ta*TIM_1_8_PERIOD_CLOCKS);
 768:Src/mc_tasks_foc.c ****                   LL_TIM_OC_SetCompareCH2(TIM1, tb*TIM_1_8_PERIOD_CLOCKS);
 769:Src/mc_tasks_foc.c ****                   LL_TIM_OC_SetCompareCH3(TIM1, tc*TIM_1_8_PERIOD_CLOCKS);
 770:Src/mc_tasks_foc.c ****                   TIM1->BDTR |= LL_TIM_OSSI_ENABLE;
 771:Src/mc_tasks_foc.c ****                   LL_TIM_EnableAllOutputs(TIM1);
 772:Src/mc_tasks_foc.c ****   
 773:Src/mc_tasks_foc.c ****                   theta_ = theta_ + 0.001f;
 774:Src/mc_tasks_foc.c **** 
 775:Src/mc_tasks_foc.c **** }
 776:Src/mc_tasks_foc.c **** 
 777:Src/mc_tasks_foc.c ****  // SCC_SetPhaseVoltage(&SCC);
 778:Src/mc_tasks_foc.c **** 
 779:Src/mc_tasks_foc.c ****   return (0); /* Single motor only */
 1772              		.loc 1 779 3 is_stmt 1 view .LVU533
 780:Src/mc_tasks_foc.c **** }
 1773              		.loc 1 780 1 is_stmt 0 view .LVU534
 1774 007a 0020     		movs	r0, #0
 1775 007c 07B0     		add	sp, sp, #28
 1776              	.LCFI18:
 1777              		.cfi_remember_state
 1778              		.cfi_def_cfa_offset 12
 1779              		@ sp needed
 1780 007e 30BD     		pop	{r4, r5, pc}
 1781              	.LVL147:
 1782              	.L100:
 1783              	.LCFI19:
 1784              		.cfi_restore_state
 734:Src/mc_tasks_foc.c ****     {
 1785              		.loc 1 734 5 is_stmt 1 view .LVU535
 734:Src/mc_tasks_foc.c ****     {
 1786              		.loc 1 734 36 is_stmt 0 view .LVU536
 1787 0080 264C     		ldr	r4, .L109+20
 734:Src/mc_tasks_foc.c ****     {
 1788              		.loc 1 734 10 view .LVU537
 1789 0082 2068     		ldr	r0, [r4]
 1790              	.LVL148:
 734:Src/mc_tasks_foc.c ****     {
 1791              		.loc 1 734 10 view .LVU538
 1792 0084 FFF7FEFF 		bl	REMNG_RampCompleted
ARM GAS  /tmp/ccF6ITrB.s 			page 147


 1793              	.LVL149:
 734:Src/mc_tasks_foc.c ****     {
 1794              		.loc 1 734 8 view .LVU539
 1795 0088 0028     		cmp	r0, #0
 1796 008a C5D1     		bne	.L107
 736:Src/mc_tasks_foc.c ****     }
 1797              		.loc 1 736 7 is_stmt 1 view .LVU540
 736:Src/mc_tasks_foc.c ****     }
 1798              		.loc 1 736 39 is_stmt 0 view .LVU541
 1799 008c 2068     		ldr	r0, [r4]
 736:Src/mc_tasks_foc.c ****     }
 1800              		.loc 1 736 28 view .LVU542
 1801 008e 1F4C     		ldr	r4, .L109+4
 736:Src/mc_tasks_foc.c ****     }
 1802              		.loc 1 736 39 view .LVU543
 1803 0090 FFF7FEFF 		bl	REMNG_Calc
 1804              	.LVL150:
 736:Src/mc_tasks_foc.c ****     }
 1805              		.loc 1 736 30 view .LVU544
 1806 0094 2082     		strh	r0, [r4, #16]	@ movhi
 1807 0096 C0E7     		b	.L101
 1808              	.LVL151:
 1809              	.L108:
 765:Src/mc_tasks_foc.c ****                   /* Turn on the three low side switches */
 1810              		.loc 1 765 19 is_stmt 1 view .LVU545
 1811 0098 02AB     		add	r3, sp, #8
 1812 009a 01AA     		add	r2, sp, #4
 1813 009c 2846     		mov	r0, r5
 1814 009e DFED200A 		vldr.32	s1, .L109+24
 1815 00a2 9FED200A 		vldr.32	s0, .L109+28
 1816 00a6 6946     		mov	r1, sp
 1817 00a8 FFF7FEFF 		bl	test_svm
 1818              	.LVL152:
 767:Src/mc_tasks_foc.c ****                   LL_TIM_OC_SetCompareCH2(TIM1, tb*TIM_1_8_PERIOD_CLOCKS);
 1819              		.loc 1 767 19 view .LVU546
 767:Src/mc_tasks_foc.c ****                   LL_TIM_OC_SetCompareCH2(TIM1, tb*TIM_1_8_PERIOD_CLOCKS);
 1820              		.loc 1 767 51 is_stmt 0 view .LVU547
 1821 00ac DDED006A 		vldr.32	s13, [sp]
 768:Src/mc_tasks_foc.c ****                   LL_TIM_OC_SetCompareCH3(TIM1, tc*TIM_1_8_PERIOD_CLOCKS);
 1822              		.loc 1 768 51 view .LVU548
 1823 00b0 9DED017A 		vldr.32	s14, [sp, #4]
 769:Src/mc_tasks_foc.c ****                   TIM1->BDTR |= LL_TIM_OSSI_ENABLE;
 1824              		.loc 1 769 51 view .LVU549
 1825 00b4 DDED027A 		vldr.32	s15, [sp, #8]
 767:Src/mc_tasks_foc.c ****                   LL_TIM_OC_SetCompareCH2(TIM1, tb*TIM_1_8_PERIOD_CLOCKS);
 1826              		.loc 1 767 51 view .LVU550
 1827 00b8 9FED1B6A 		vldr.32	s12, .L109+32
 1828              	.LBB159:
 1829              	.LBB160:
3219:Drivers/STM32G4xx_HAL_Driver/Inc/stm32g4xx_ll_tim.h **** }
 1830              		.loc 4 3219 3 view .LVU551
 1831 00bc 1B4B     		ldr	r3, .L109+36
 1832              	.LBE160:
 1833              	.LBE159:
 767:Src/mc_tasks_foc.c ****                   LL_TIM_OC_SetCompareCH2(TIM1, tb*TIM_1_8_PERIOD_CLOCKS);
 1834              		.loc 1 767 51 view .LVU552
 1835 00be 66EE866A 		vmul.f32	s13, s13, s12
ARM GAS  /tmp/ccF6ITrB.s 			page 148


 768:Src/mc_tasks_foc.c ****                   LL_TIM_OC_SetCompareCH3(TIM1, tc*TIM_1_8_PERIOD_CLOCKS);
 1836              		.loc 1 768 51 view .LVU553
 1837 00c2 27EE067A 		vmul.f32	s14, s14, s12
 769:Src/mc_tasks_foc.c ****                   TIM1->BDTR |= LL_TIM_OSSI_ENABLE;
 1838              		.loc 1 769 51 view .LVU554
 1839 00c6 67EE867A 		vmul.f32	s15, s15, s12
 767:Src/mc_tasks_foc.c ****                   LL_TIM_OC_SetCompareCH2(TIM1, tb*TIM_1_8_PERIOD_CLOCKS);
 1840              		.loc 1 767 19 view .LVU555
 1841 00ca FCEEE66A 		vcvt.u32.f32	s13, s13
 1842              	.LVL153:
 1843              	.LBB163:
 1844              	.LBI159:
3217:Drivers/STM32G4xx_HAL_Driver/Inc/stm32g4xx_ll_tim.h **** {
 1845              		.loc 4 3217 22 is_stmt 1 view .LVU556
 1846              	.LBB161:
3219:Drivers/STM32G4xx_HAL_Driver/Inc/stm32g4xx_ll_tim.h **** }
 1847              		.loc 4 3219 3 view .LVU557
 1848              	.LBE161:
 1849              	.LBE163:
 768:Src/mc_tasks_foc.c ****                   LL_TIM_OC_SetCompareCH3(TIM1, tc*TIM_1_8_PERIOD_CLOCKS);
 1850              		.loc 1 768 19 is_stmt 0 view .LVU558
 1851 00ce BCEEC77A 		vcvt.u32.f32	s14, s14
 769:Src/mc_tasks_foc.c ****                   TIM1->BDTR |= LL_TIM_OSSI_ENABLE;
 1852              		.loc 1 769 19 view .LVU559
 1853 00d2 FCEEE77A 		vcvt.u32.f32	s15, s15
 1854              	.LBB164:
 1855              	.LBB162:
3219:Drivers/STM32G4xx_HAL_Driver/Inc/stm32g4xx_ll_tim.h **** }
 1856              		.loc 4 3219 3 view .LVU560
 1857 00d6 C3ED0D6A 		vstr.32	s13, [r3, #52]	@ int
 1858              	.LVL154:
3219:Drivers/STM32G4xx_HAL_Driver/Inc/stm32g4xx_ll_tim.h **** }
 1859              		.loc 4 3219 3 view .LVU561
 1860              	.LBE162:
 1861              	.LBE164:
 768:Src/mc_tasks_foc.c ****                   LL_TIM_OC_SetCompareCH3(TIM1, tc*TIM_1_8_PERIOD_CLOCKS);
 1862              		.loc 1 768 19 is_stmt 1 view .LVU562
 1863              	.LBB165:
 1864              	.LBI165:
3235:Drivers/STM32G4xx_HAL_Driver/Inc/stm32g4xx_ll_tim.h **** {
 1865              		.loc 4 3235 22 view .LVU563
 1866              	.LBB166:
3237:Drivers/STM32G4xx_HAL_Driver/Inc/stm32g4xx_ll_tim.h **** }
 1867              		.loc 4 3237 3 view .LVU564
 1868 00da 83ED0E7A 		vstr.32	s14, [r3, #56]	@ int
 1869              	.LVL155:
3237:Drivers/STM32G4xx_HAL_Driver/Inc/stm32g4xx_ll_tim.h **** }
 1870              		.loc 4 3237 3 is_stmt 0 view .LVU565
 1871              	.LBE166:
 1872              	.LBE165:
 769:Src/mc_tasks_foc.c ****                   TIM1->BDTR |= LL_TIM_OSSI_ENABLE;
 1873              		.loc 1 769 19 is_stmt 1 view .LVU566
 1874              	.LBB167:
 1875              	.LBI167:
3253:Drivers/STM32G4xx_HAL_Driver/Inc/stm32g4xx_ll_tim.h **** {
 1876              		.loc 4 3253 22 view .LVU567
 1877              	.LBB168:
ARM GAS  /tmp/ccF6ITrB.s 			page 149


3255:Drivers/STM32G4xx_HAL_Driver/Inc/stm32g4xx_ll_tim.h **** }
 1878              		.loc 4 3255 3 view .LVU568
 1879 00de C3ED0F7A 		vstr.32	s15, [r3, #60]	@ int
 1880              	.LVL156:
3255:Drivers/STM32G4xx_HAL_Driver/Inc/stm32g4xx_ll_tim.h **** }
 1881              		.loc 4 3255 3 is_stmt 0 view .LVU569
 1882              	.LBE168:
 1883              	.LBE167:
 770:Src/mc_tasks_foc.c ****                   LL_TIM_EnableAllOutputs(TIM1);
 1884              		.loc 1 770 19 is_stmt 1 view .LVU570
 770:Src/mc_tasks_foc.c ****                   LL_TIM_EnableAllOutputs(TIM1);
 1885              		.loc 1 770 30 is_stmt 0 view .LVU571
 1886 00e2 5A6C     		ldr	r2, [r3, #68]
 773:Src/mc_tasks_foc.c **** 
 1887              		.loc 1 773 35 view .LVU572
 1888 00e4 D5ED007A 		vldr.32	s15, [r5]
 1889 00e8 9FED117A 		vldr.32	s14, .L109+40
 770:Src/mc_tasks_foc.c ****                   LL_TIM_EnableAllOutputs(TIM1);
 1890              		.loc 1 770 30 view .LVU573
 1891 00ec 42F48062 		orr	r2, r2, #1024
 1892 00f0 5A64     		str	r2, [r3, #68]
 771:Src/mc_tasks_foc.c ****   
 1893              		.loc 1 771 19 is_stmt 1 view .LVU574
 1894              	.LVL157:
 1895              	.LBB169:
 1896              	.LBI169:
4623:Drivers/STM32G4xx_HAL_Driver/Inc/stm32g4xx_ll_tim.h **** {
 1897              		.loc 4 4623 22 view .LVU575
 1898              	.LBB170:
 1899              		.loc 4 4625 3 view .LVU576
 1900 00f2 5A6C     		ldr	r2, [r3, #68]
 1901              	.LBE170:
 1902              	.LBE169:
 773:Src/mc_tasks_foc.c **** 
 1903              		.loc 1 773 35 is_stmt 0 view .LVU577
 1904 00f4 77EE877A 		vadd.f32	s15, s15, s14
 1905              	.LBB173:
 1906              	.LBB171:
 1907              		.loc 4 4625 3 view .LVU578
 1908 00f8 42F40042 		orr	r2, r2, #32768
 1909              	.LBE171:
 1910              	.LBE173:
 1911              		.loc 1 780 1 view .LVU579
 1912 00fc 0020     		movs	r0, #0
 1913              	.LBB174:
 1914              	.LBB172:
 1915              		.loc 4 4625 3 view .LVU580
 1916 00fe 5A64     		str	r2, [r3, #68]
 1917              	.LVL158:
 1918              		.loc 4 4625 3 view .LVU581
 1919              	.LBE172:
 1920              	.LBE174:
 773:Src/mc_tasks_foc.c **** 
 1921              		.loc 1 773 19 is_stmt 1 view .LVU582
 773:Src/mc_tasks_foc.c **** 
 1922              		.loc 1 773 26 is_stmt 0 view .LVU583
 1923 0100 C5ED007A 		vstr.32	s15, [r5]
ARM GAS  /tmp/ccF6ITrB.s 			page 150


 779:Src/mc_tasks_foc.c **** }
 1924              		.loc 1 779 3 is_stmt 1 view .LVU584
 1925              		.loc 1 780 1 is_stmt 0 view .LVU585
 1926 0104 07B0     		add	sp, sp, #28
 1927              	.LCFI20:
 1928              		.cfi_def_cfa_offset 12
 1929              		@ sp needed
 1930 0106 30BD     		pop	{r4, r5, pc}
 1931              	.L110:
 1932              		.align	2
 1933              	.L109:
 1934 0108 00000000 		.word	Mci
 1935 010c 00000000 		.word	FOCVars
 1936 0110 00000000 		.word	.LANCHOR1
 1937 0114 00000000 		.word	pwmcHandle
 1938 0118 00000000 		.word	.LANCHOR0
 1939 011c 00000000 		.word	pREMNG
 1940 0120 00000000 		.word	0
 1941 0124 CDCCCC3D 		.word	1036831949
 1942 0128 00D08445 		.word	1166331904
 1943 012c 002C0140 		.word	1073818624
 1944 0130 6F12833A 		.word	981668463
 1945              		.cfi_endproc
 1946              	.LFE1873:
 1948              		.global	theta_
 1949              		.global	task_run
 1950              		.section	.bss.hBootCapDelayCounterM1,"aw",%nobits
 1951              		.align	1
 1954              	hBootCapDelayCounterM1:
 1955 0000 0000     		.space	2
 1956              		.section	.bss.hStopPermanencyCounterM1,"aw",%nobits
 1957              		.align	1
 1960              	hStopPermanencyCounterM1:
 1961 0000 0000     		.space	2
 1962              		.section	.bss.task_run,"aw",%nobits
 1963              		.align	2
 1964              		.set	.LANCHOR0,. + 0
 1967              	task_run:
 1968 0000 00000000 		.space	4
 1969              		.section	.bss.theta_,"aw",%nobits
 1970              		.align	2
 1971              		.set	.LANCHOR1,. + 0
 1974              	theta_:
 1975 0000 00000000 		.space	4
 1976              		.weak	STO_SetDirection
 1977              		.text
 1978              	.Letext0:
 1979              		.file 6 "/usr/share/gcc-arm-none-eabi-10-2020-q4-major/arm-none-eabi/include/machine/_default_type
 1980              		.file 7 "/usr/share/gcc-arm-none-eabi-10-2020-q4-major/arm-none-eabi/include/sys/_stdint.h"
 1981              		.file 8 "Drivers/CMSIS/Device/ST/STM32G4xx/Include/stm32g431xx.h"
 1982              		.file 9 "Drivers/STM32G4xx_HAL_Driver/Inc/stm32g4xx_ll_usart.h"
 1983              		.file 10 "Drivers/STM32G4xx_HAL_Driver/Inc/stm32g4xx_ll_dma.h"
 1984              		.file 11 "Inc/mc_type.h"
 1985              		.file 12 "MCSDK_v6.3.2-Full/MotorControl/MCSDK/MCLib/Any/Inc/pid_regulator.h"
 1986              		.file 13 "MCSDK_v6.3.2-Full/MotorControl/MCSDK/MCLib/Any/Inc/speed_torq_ctrl.h"
 1987              		.file 14 "MCSDK_v6.3.2-Full/MotorControl/MCSDK/MCLib/Any/Inc/virtual_speed_sensor.h"
 1988              		.file 15 "MCSDK_v6.3.2-Full/MotorControl/MCSDK/MCLib/Any/Inc/sto_speed_pos_fdbk.h"
ARM GAS  /tmp/ccF6ITrB.s 			page 151


 1989              		.file 16 "MCSDK_v6.3.2-Full/MotorControl/MCSDK/MCLib/Any/Inc/revup_ctrl.h"
 1990              		.file 17 "Inc/mc_perf.h"
 1991              		.file 18 "Inc/mc_interface.h"
 1992              		.file 19 "MCSDK_v6.3.2-Full/MotorControl/MCSDK/MCLib/Any/Inc/bus_voltage_sensor.h"
 1993              		.file 20 "MCSDK_v6.3.2-Full/MotorControl/MCSDK/MCLib/Any/Inc/r_divider_bus_voltage_sensor.h"
 1994              		.file 21 "MCSDK_v6.3.2-Full/MotorControl/MCSDK/MCLib/G4xx/Inc/stspin32g4.h"
 1995              		.file 22 "MCSDK_v6.3.2-Full/MotorControl/MCSDK/MCLib/Any/Inc/sto_pll_speed_pos_fdbk.h"
 1996              		.file 23 "MCSDK_v6.3.2-Full/MotorControl/MCSDK/MCLib/Any/Inc/ramp_ext_mngr.h"
 1997              		.file 24 "MCSDK_v6.3.2-Full/MotorControl/MCSDK/MCLib/Any/Inc/mp_one_touch_tuning.h"
 1998              		.file 25 "MCSDK_v6.3.2-Full/MotorControl/MCSDK/MCLib/Any/Inc/circle_limitation.h"
 1999              		.file 26 "Inc/hall_speed_pos_fdbk.h"
 2000              		.file 27 "MCSDK_v6.3.2-Full/MotorControl/MCSDK/MCLib/Any/Inc/mp_hall_tuning.h"
 2001              		.file 28 "MCSDK_v6.3.2-Full/MotorControl/MCSDK/MCLib/Any/Inc/mp_self_com_ctrl.h"
 2002              		.file 29 "Inc/mc_config_common.h"
 2003              		.file 30 "MCSDK_v6.3.2-Full/MotorControl/MCSDK/MCLib/Any/Inc/feed_forward_ctrl.h"
 2004              		.file 31 "MCSDK_v6.3.2-Full/MotorControl/MCSDK/MCLib/Any/Inc/pqd_motor_power_measurement.h"
 2005              		.file 32 "MCSDK_v6.3.2-Full/MotorControl/MCSDK/MCLib/G4xx/Inc/r3_2_g4xx_pwm_curr_fdbk.h"
 2006              		.file 33 "Inc/mc_config.h"
 2007              		.file 34 "Inc/regular_conversion_manager.h"
 2008              		.file 35 "Inc/mc_tasks.h"
 2009              		.file 36 "Inc/mc_math.h"
 2010              		.file 37 "Inc/pwm_common.h"
ARM GAS  /tmp/ccF6ITrB.s 			page 152


DEFINED SYMBOLS
                            *ABS*:0000000000000000 mc_tasks_foc.c
     /tmp/ccF6ITrB.s:18     .text.FOC_Clear:0000000000000000 $t
     /tmp/ccF6ITrB.s:27     .text.FOC_Clear:0000000000000000 FOC_Clear
     /tmp/ccF6ITrB.s:129    .text.FOC_Clear:0000000000000074 $d
     /tmp/ccF6ITrB.s:140    .text.FOC_Init:0000000000000000 $t
     /tmp/ccF6ITrB.s:148    .text.FOC_Init:0000000000000000 FOC_Init
     /tmp/ccF6ITrB.s:397    .text.FOC_Init:0000000000000120 $d
     /tmp/ccF6ITrB.s:424    .text.TSK_MF_StopProcessing:0000000000000000 $t
     /tmp/ccF6ITrB.s:432    .text.TSK_MF_StopProcessing:0000000000000000 TSK_MF_StopProcessing
     /tmp/ccF6ITrB.s:483    .text.TSK_MF_StopProcessing:0000000000000038 $d
     /tmp/ccF6ITrB.s:491    .text.FOC_InitAdditionalMethods:0000000000000000 $t
     /tmp/ccF6ITrB.s:499    .text.FOC_InitAdditionalMethods:0000000000000000 FOC_InitAdditionalMethods
     /tmp/ccF6ITrB.s:535    .text.FOC_InitAdditionalMethods:0000000000000014 $d
     /tmp/ccF6ITrB.s:540    .text.FOC_CalcCurrRef:0000000000000000 $t
     /tmp/ccF6ITrB.s:548    .text.FOC_CalcCurrRef:0000000000000000 FOC_CalcCurrRef
     /tmp/ccF6ITrB.s:707    .text.FOC_CalcCurrRef:0000000000000064 $d
     /tmp/ccF6ITrB.s:714    .text.TSK_MediumFrequencyTaskM1:0000000000000000 $t
     /tmp/ccF6ITrB.s:722    .text.TSK_MediumFrequencyTaskM1:0000000000000000 TSK_MediumFrequencyTaskM1
     /tmp/ccF6ITrB.s:760    .text.TSK_MediumFrequencyTaskM1:0000000000000018 $d
     /tmp/ccF6ITrB.s:781    .text.TSK_MediumFrequencyTaskM1:0000000000000042 $t
     /tmp/ccF6ITrB.s:1184   .text.TSK_MediumFrequencyTaskM1:0000000000000224 $d
     /tmp/ccF6ITrB.s:1201   .text.TSK_MediumFrequencyTaskM1:0000000000000250 $t
     /tmp/ccF6ITrB.s:1611   .text.TSK_MediumFrequencyTaskM1:00000000000003b8 $d
     /tmp/ccF6ITrB.s:1628   .text.FOC_HighFrequencyTask:0000000000000000 $t
     /tmp/ccF6ITrB.s:1636   .text.FOC_HighFrequencyTask:0000000000000000 FOC_HighFrequencyTask
     /tmp/ccF6ITrB.s:1934   .text.FOC_HighFrequencyTask:0000000000000108 $d
     /tmp/ccF6ITrB.s:1974   .bss.theta_:0000000000000000 theta_
     /tmp/ccF6ITrB.s:1967   .bss.task_run:0000000000000000 task_run
     /tmp/ccF6ITrB.s:1951   .bss.hBootCapDelayCounterM1:0000000000000000 $d
     /tmp/ccF6ITrB.s:1954   .bss.hBootCapDelayCounterM1:0000000000000000 hBootCapDelayCounterM1
     /tmp/ccF6ITrB.s:1957   .bss.hStopPermanencyCounterM1:0000000000000000 $d
     /tmp/ccF6ITrB.s:1960   .bss.hStopPermanencyCounterM1:0000000000000000 hStopPermanencyCounterM1
     /tmp/ccF6ITrB.s:1963   .bss.task_run:0000000000000000 $d
     /tmp/ccF6ITrB.s:1970   .bss.theta_:0000000000000000 $d

UNDEFINED SYMBOLS
PID_SetIntegralTerm
STC_Clear
PWMC_SwitchOffPWM
FF_Clear
MC_Perf_Clear
FOCVars
pPIDIq
pPIDId
pSTC
pwmcHandle
pFF
PerfTraces
R3_2_Init
startTimers
PID_HandleInit
STO_PLL_Init
STC_Init
RUC_Init
FF_Init
REMNG_Init
ARM GAS  /tmp/ccF6ITrB.s 			page 153


SCC_Init
OTT_Init
STC_GetDefaultIqdref
MCI_ExecTorqueRamp
PWM_Handle_M1
PIDSpeedHandle_M1
STO_PLL_M1
STO_M1
PIDIqHandle_M1
PIDIdHandle_M1
pMPM
BusVoltageSensor_M1
pREMNG
RampExtMngrHFParamsM1
SCC
CircleLimitationM1
VirtualSpeedSensorM1
RevUpControlM1
OTT
Mci
SpeednTorqCtrlM1
R3_2_SwitchOffPWM
SCC_Stop
OTT_Stop
TSK_SetStopPermanencyTimeM1
FF_InitFOCAdditionalMethods
STC_CalcTorqueReference
FF_VqdffComputation
MCI_GetCurrentFaults
SCC_MF
SCC_DetectBemf
STC_SetSpeedSensor
STO_PLL_Clear
SCC_Start
PWMC_SwitchOnPWM
VSS_CalcAvrgMecSpeedUnit
VSS_TransitionEnded
PID_GetKIDivisor
OTT_SR
STC_ForceSpeedReferenceToCurrentSpeed
MCI_ExecBufferedCommands
PWMC_CurrentReadingCalibr
TSK_StopPermanencyTimeHasElapsedM1
VSS_Clear
TSK_ChargeBootCapDelayHasElapsedM1
PWMC_Clear
RUC_Exec
STO_PLL_IsObserverConverged
MCI_GetImposedMotorDirection
STO_SetDirection
VSS_SetStartTransition
MCM_Park
REMNG_ExecRamp
RUC_Clear
STSPIN32G4_clearFaults
STSPIN32G4_wakeup
vTaskDelay
ARM GAS  /tmp/ccF6ITrB.s 			page 154


R3_2_SwitchOnPWM
TSK_SetChargeBootCapDelayM1
MCI_FaultProcessing
OTT_MF
HdlSTSPING4
RCM_ReadOngoingConv
RCM_ExecNextConv
clark_park
REMNG_RampCompleted
REMNG_Calc
test_svm
