ARM GAS  /tmp/cczKoiko.s 			page 1


   1              		.cpu cortex-m4
   2              		.eabi_attribute 27, 1
   3              		.eabi_attribute 28, 1
   4              		.eabi_attribute 20, 1
   5              		.eabi_attribute 21, 1
   6              		.eabi_attribute 23, 3
   7              		.eabi_attribute 24, 1
   8              		.eabi_attribute 25, 1
   9              		.eabi_attribute 26, 1
  10              		.eabi_attribute 30, 2
  11              		.eabi_attribute 34, 1
  12              		.eabi_attribute 18, 4
  13              		.file	"mc_tasks.c"
  14              		.text
  15              	.Ltext0:
  16              		.cfi_sections	.debug_frame
  17              		.section	.text.MCboot,"ax",%progbits
  18              		.align	1
  19              		.p2align 2,,3
  20              		.weak	MCboot
  21              		.arch armv7e-m
  22              		.syntax unified
  23              		.thumb
  24              		.thumb_func
  25              		.fpu fpv4-sp-d16
  27              	MCboot:
  28              	.LVL0:
  29              	.LFB1872:
  30              		.file 1 "Src/mc_tasks.c"
   1:Src/mc_tasks.c **** 
   2:Src/mc_tasks.c **** /**
   3:Src/mc_tasks.c ****   ******************************************************************************
   4:Src/mc_tasks.c ****   * @file    mc_tasks.c
   5:Src/mc_tasks.c ****   * @author  Motor Control SDK Team, ST Microelectronics
   6:Src/mc_tasks.c ****   * @brief   This file implements tasks definition
   7:Src/mc_tasks.c ****   *
   8:Src/mc_tasks.c ****   ******************************************************************************
   9:Src/mc_tasks.c ****   * @attention
  10:Src/mc_tasks.c ****   *
  11:Src/mc_tasks.c ****   * <h2><center>&copy; Copyright (c) 2024 STMicroelectronics.
  12:Src/mc_tasks.c ****   * All rights reserved.</center></h2>
  13:Src/mc_tasks.c ****   *
  14:Src/mc_tasks.c ****   * This software component is licensed by ST under Ultimate Liberty license
  15:Src/mc_tasks.c ****   * SLA0044, the "License"; You may not use this file except in compliance with
  16:Src/mc_tasks.c ****   * the License. You may obtain a copy of the License at:
  17:Src/mc_tasks.c ****   *                             www.st.com/SLA0044
  18:Src/mc_tasks.c ****   *
  19:Src/mc_tasks.c ****   ******************************************************************************
  20:Src/mc_tasks.c ****   */
  21:Src/mc_tasks.c **** 
  22:Src/mc_tasks.c **** /* Includes ------------------------------------------------------------------*/
  23:Src/mc_tasks.c **** //cstat -MISRAC2012-Rule-21.1
  24:Src/mc_tasks.c **** #include "main.h"
  25:Src/mc_tasks.c **** //cstat +MISRAC2012-Rule-21.1
  26:Src/mc_tasks.c **** #include "mc_type.h"
  27:Src/mc_tasks.c **** #include "mc_math.h"
  28:Src/mc_tasks.c **** #include "motorcontrol.h"
ARM GAS  /tmp/cczKoiko.s 			page 2


  29:Src/mc_tasks.c **** #include "regular_conversion_manager.h"
  30:Src/mc_tasks.c **** #include "cmsis_os.h"
  31:Src/mc_tasks.c **** #include "mc_interface.h"
  32:Src/mc_tasks.c **** #include "digital_output.h"
  33:Src/mc_tasks.c **** #include "pwm_common.h"
  34:Src/mc_tasks.c **** #include "mc_tasks.h"
  35:Src/mc_tasks.c **** #include "parameters_conversion.h"
  36:Src/mc_tasks.c **** #include "mcp_config.h"
  37:Src/mc_tasks.c **** #include "mc_app_hooks.h"
  38:Src/mc_tasks.c **** 
  39:Src/mc_tasks.c **** /* USER CODE BEGIN Includes */
  40:Src/mc_tasks.c **** 
  41:Src/mc_tasks.c **** /* USER CODE END Includes */
  42:Src/mc_tasks.c **** 
  43:Src/mc_tasks.c **** /* USER CODE BEGIN Private define */
  44:Src/mc_tasks.c **** /* Private define ------------------------------------------------------------*/
  45:Src/mc_tasks.c **** /* Un-Comment this macro define in order to activate the smooth
  46:Src/mc_tasks.c ****    braking action on over voltage */
  47:Src/mc_tasks.c **** /* #define  MC.SMOOTH_BRAKING_ACTION_ON_OVERVOLTAGE */
  48:Src/mc_tasks.c **** 
  49:Src/mc_tasks.c **** /* USER CODE END Private define */
  50:Src/mc_tasks.c **** 
  51:Src/mc_tasks.c **** #define VBUS_TEMP_ERR_MASK (MC_OVER_VOLT| MC_UNDER_VOLT| MC_OVER_TEMP)
  52:Src/mc_tasks.c **** /* Private variables----------------------------------------------------------*/
  53:Src/mc_tasks.c **** 
  54:Src/mc_tasks.c **** static uint16_t hMFTaskCounterM1 = 0; //cstat !MISRAC2012-Rule-8.9_a
  55:Src/mc_tasks.c **** static volatile uint16_t hBootCapDelayCounterM1 = ((uint16_t)0);
  56:Src/mc_tasks.c **** static volatile uint16_t hStopPermanencyCounterM1 = ((uint16_t)0);
  57:Src/mc_tasks.c **** static volatile uint8_t bMCBootCompleted = ((uint8_t)0);
  58:Src/mc_tasks.c **** 
  59:Src/mc_tasks.c **** #define M1_CHARGE_BOOT_CAP_TICKS          (((uint16_t)SYS_TICK_FREQUENCY * (uint16_t)10) / 1000U)
  60:Src/mc_tasks.c **** #define M1_CHARGE_BOOT_CAP_DUTY_CYCLES ((uint32_t)0.000\
  61:Src/mc_tasks.c ****                                       * ((uint32_t)PWM_PERIOD_CYCLES / 2U))
  62:Src/mc_tasks.c **** #define M2_CHARGE_BOOT_CAP_TICKS         (((uint16_t)SYS_TICK_FREQUENCY * (uint16_t)10) / 1000U)
  63:Src/mc_tasks.c **** #define M2_CHARGE_BOOT_CAP_DUTY_CYCLES ((uint32_t)0\
  64:Src/mc_tasks.c ****                                       * ((uint32_t)PWM_PERIOD_CYCLES2 / 2U))
  65:Src/mc_tasks.c **** 
  66:Src/mc_tasks.c **** /* USER CODE BEGIN Private Variables */
  67:Src/mc_tasks.c **** 
  68:Src/mc_tasks.c **** /* USER CODE END Private Variables */
  69:Src/mc_tasks.c **** 
  70:Src/mc_tasks.c **** /* Private functions ---------------------------------------------------------*/
  71:Src/mc_tasks.c **** void TSK_MediumFrequencyTaskM1(void);
  72:Src/mc_tasks.c **** void TSK_MF_StopProcessing(uint8_t motor);
  73:Src/mc_tasks.c **** MCI_Handle_t *GetMCI(uint8_t bMotor);
  74:Src/mc_tasks.c **** void TSK_SetChargeBootCapDelayM1(uint16_t hTickCount);
  75:Src/mc_tasks.c **** bool TSK_ChargeBootCapDelayHasElapsedM1(void);
  76:Src/mc_tasks.c **** void TSK_SetStopPermanencyTimeM1(uint16_t hTickCount);
  77:Src/mc_tasks.c **** bool TSK_StopPermanencyTimeHasElapsedM1(void);
  78:Src/mc_tasks.c **** void TSK_SafetyTask_PWMOFF(uint8_t motor);
  79:Src/mc_tasks.c **** 
  80:Src/mc_tasks.c **** /* USER CODE BEGIN Private Functions */
  81:Src/mc_tasks.c **** 
  82:Src/mc_tasks.c **** /* USER CODE END Private Functions */
  83:Src/mc_tasks.c **** /**
  84:Src/mc_tasks.c ****   * @brief  It initializes the whole MC core according to user defined
  85:Src/mc_tasks.c ****   *         parameters.
ARM GAS  /tmp/cczKoiko.s 			page 3


  86:Src/mc_tasks.c ****   * @param  pMCIList pointer to the vector of MCInterface objects that will be
  87:Src/mc_tasks.c ****   *         created and initialized. The vector must have length equal to the
  88:Src/mc_tasks.c ****   *         number of motor drives.
  89:Src/mc_tasks.c ****   */
  90:Src/mc_tasks.c **** __weak void MCboot( MCI_Handle_t* pMCIList[NBR_OF_MOTORS] )
  91:Src/mc_tasks.c **** {
  31              		.loc 1 91 1 view -0
  32              		.cfi_startproc
  33              		@ args = 0, pretend = 0, frame = 8
  34              		@ frame_needed = 0, uses_anonymous_args = 0
  92:Src/mc_tasks.c ****   /* USER CODE BEGIN MCboot 0 */
  93:Src/mc_tasks.c **** 
  94:Src/mc_tasks.c ****   /* USER CODE END MCboot 0 */
  95:Src/mc_tasks.c **** 
  96:Src/mc_tasks.c ****   if (MC_NULL == pMCIList)
  35              		.loc 1 96 3 view .LVU1
  36              		.loc 1 96 6 is_stmt 0 view .LVU2
  37 0000 0028     		cmp	r0, #0
  38 0002 42D0     		beq	.L7
  39              	.LBB38:
  97:Src/mc_tasks.c ****   {
  98:Src/mc_tasks.c ****     /* Nothing to do */
  99:Src/mc_tasks.c ****   }
 100:Src/mc_tasks.c ****   else
 101:Src/mc_tasks.c ****   {
 102:Src/mc_tasks.c **** 
 103:Src/mc_tasks.c ****     bMCBootCompleted = (uint8_t )0;
  40              		.loc 1 103 5 is_stmt 1 view .LVU3
  41              	.LBE38:
  91:Src/mc_tasks.c ****   /* USER CODE BEGIN MCboot 0 */
  42              		.loc 1 91 1 is_stmt 0 view .LVU4
  43 0004 70B5     		push	{r4, r5, r6, lr}
  44              	.LCFI0:
  45              		.cfi_def_cfa_offset 16
  46              		.cfi_offset 4, -16
  47              		.cfi_offset 5, -12
  48              		.cfi_offset 6, -8
  49              		.cfi_offset 14, -4
  50              	.LBB39:
  51              		.loc 1 103 22 view .LVU5
  52 0006 214C     		ldr	r4, .L11
 104:Src/mc_tasks.c **** 
 105:Src/mc_tasks.c ****     /*************************************************/
 106:Src/mc_tasks.c ****     /*    FOC initialization         */
 107:Src/mc_tasks.c ****     /*************************************************/
 108:Src/mc_tasks.c ****     pMCIList[M1] = &Mci[M1];
  53              		.loc 1 108 18 view .LVU6
  54 0008 214E     		ldr	r6, .L11+4
  55 000a 0660     		str	r6, [r0]
  56              	.LBE39:
  91:Src/mc_tasks.c ****   /* USER CODE BEGIN MCboot 0 */
  57              		.loc 1 91 1 view .LVU7
  58 000c 82B0     		sub	sp, sp, #8
  59              	.LCFI1:
  60              		.cfi_def_cfa_offset 24
  61              	.LBB40:
 103:Src/mc_tasks.c **** 
ARM GAS  /tmp/cczKoiko.s 			page 4


  62              		.loc 1 103 22 view .LVU8
  63 000e 0025     		movs	r5, #0
  64 0010 2570     		strb	r5, [r4]
  65              		.loc 1 108 5 is_stmt 1 view .LVU9
 109:Src/mc_tasks.c ****     FOC_Init();
  66              		.loc 1 109 5 view .LVU10
  67 0012 FFF7FEFF 		bl	FOC_Init
  68              	.LVL1:
 110:Src/mc_tasks.c **** 
 111:Src/mc_tasks.c ****     ASPEP_start(&aspepOverUartA);
  69              		.loc 1 111 5 view .LVU11
  70 0016 1F48     		ldr	r0, .L11+8
  71 0018 FFF7FEFF 		bl	ASPEP_start
  72              	.LVL2:
 112:Src/mc_tasks.c ****     /* USER CODE BEGIN MCboot 1 */
 113:Src/mc_tasks.c **** 
 114:Src/mc_tasks.c ****     /* USER CODE END MCboot 1 */
 115:Src/mc_tasks.c **** 
 116:Src/mc_tasks.c ****     /******************************************************/
 117:Src/mc_tasks.c ****     /*   PID component initialization: speed regulation   */
 118:Src/mc_tasks.c ****     /******************************************************/
 119:Src/mc_tasks.c ****     PID_HandleInit(&PIDSpeedHandle_M1);
  73              		.loc 1 119 5 view .LVU12
  74 001c 1E48     		ldr	r0, .L11+12
  75 001e FFF7FEFF 		bl	PID_HandleInit
  76              	.LVL3:
 120:Src/mc_tasks.c **** 
 121:Src/mc_tasks.c ****     /****************************************************/
 122:Src/mc_tasks.c ****     /*   Virtual speed sensor component initialization  */
 123:Src/mc_tasks.c ****     /****************************************************/
 124:Src/mc_tasks.c ****     VSS_Init(&VirtualSpeedSensorM1);
  77              		.loc 1 124 5 view .LVU13
  78 0022 1E48     		ldr	r0, .L11+16
  79 0024 FFF7FEFF 		bl	VSS_Init
  80              	.LVL4:
 125:Src/mc_tasks.c **** 
 126:Src/mc_tasks.c ****     /********************************************************/
 127:Src/mc_tasks.c ****     /*   Bus voltage sensor component initialization        */
 128:Src/mc_tasks.c ****     /********************************************************/
 129:Src/mc_tasks.c ****     (void)RCM_RegisterRegConv(&VbusRegConv_M1);
  81              		.loc 1 129 5 view .LVU14
  82 0028 1D48     		ldr	r0, .L11+20
  83 002a FFF7FEFF 		bl	RCM_RegisterRegConv
  84              	.LVL5:
 130:Src/mc_tasks.c ****     RVBS_Init(&BusVoltageSensor_M1);
  85              		.loc 1 130 5 view .LVU15
  86 002e 1D48     		ldr	r0, .L11+24
  87 0030 FFF7FEFF 		bl	RVBS_Init
  88              	.LVL6:
 131:Src/mc_tasks.c **** 
 132:Src/mc_tasks.c ****     /*******************************************************/
 133:Src/mc_tasks.c ****     /*   Temperature measurement component initialization  */
 134:Src/mc_tasks.c ****     /*******************************************************/
 135:Src/mc_tasks.c ****     (void)RCM_RegisterRegConv(&TempRegConv_M1);
  89              		.loc 1 135 5 view .LVU16
  90 0034 1C48     		ldr	r0, .L11+28
  91 0036 FFF7FEFF 		bl	RCM_RegisterRegConv
ARM GAS  /tmp/cczKoiko.s 			page 5


  92              	.LVL7:
 136:Src/mc_tasks.c ****     NTC_Init(&TempSensor_M1);
  93              		.loc 1 136 5 view .LVU17
  94 003a 1C48     		ldr	r0, .L11+32
  95 003c FFF7FEFF 		bl	NTC_Init
  96              	.LVL8:
 137:Src/mc_tasks.c **** 
 138:Src/mc_tasks.c ****     Mci[M1].pPerfMeasure = &PerfTraces;
  97              		.loc 1 138 5 view .LVU18
  98              		.loc 1 138 26 is_stmt 0 view .LVU19
  99 0040 1B48     		ldr	r0, .L11+36
 100 0042 B062     		str	r0, [r6, #40]
 139:Src/mc_tasks.c ****     MC_Perf_Measure_Init(&PerfTraces);
 101              		.loc 1 139 5 is_stmt 1 view .LVU20
 102 0044 FFF7FEFF 		bl	MC_Perf_Measure_Init
 103              	.LVL9:
 140:Src/mc_tasks.c **** 
 141:Src/mc_tasks.c ****     /*************************************************/
 142:Src/mc_tasks.c ****     /*   STSPIN32G4 driver component initialization  */
 143:Src/mc_tasks.c ****     /*************************************************/
 144:Src/mc_tasks.c ****     STSPIN32G4_init(&HdlSTSPING4);
 104              		.loc 1 144 5 view .LVU21
 105 0048 1A48     		ldr	r0, .L11+40
 106 004a FFF7FEFF 		bl	STSPIN32G4_init
 107              	.LVL10:
 145:Src/mc_tasks.c ****     STSPIN32G4_reset(&HdlSTSPING4);
 108              		.loc 1 145 5 view .LVU22
 109 004e 1948     		ldr	r0, .L11+40
 110 0050 FFF7FEFF 		bl	STSPIN32G4_reset
 111              	.LVL11:
 146:Src/mc_tasks.c ****     STSPIN32G4_setVCC(&HdlSTSPING4, (STSPIN32G4_confVCC){.voltage = _12V,
 112              		.loc 1 146 5 view .LVU23
 113              		.loc 1 146 57 is_stmt 0 view .LVU24
 114 0054 40F20313 		movw	r3, #259
 115 0058 ADF80430 		strh	r3, [sp, #4]	@ movhi
 116 005c 8DF80650 		strb	r5, [sp, #6]
 117              		.loc 1 146 5 view .LVU25
 118 0060 0199     		ldr	r1, [sp, #4]
 119 0062 1448     		ldr	r0, .L11+40
 120 0064 FFF7FEFF 		bl	STSPIN32G4_setVCC
 121              	.LVL12:
 147:Src/mc_tasks.c ****                                                          .useNFAULT = true,
 148:Src/mc_tasks.c ****                                                          .useREADY = false });
 149:Src/mc_tasks.c ****     STSPIN32G4_setVDSP(&HdlSTSPING4, (STSPIN32G4_confVDSP){.deglitchTime = _4us,
 122              		.loc 1 149 5 is_stmt 1 view .LVU26
 123              		.loc 1 149 59 is_stmt 0 view .LVU27
 124 0068 40F20113 		movw	r3, #257
 125 006c ADF80030 		strh	r3, [sp]	@ movhi
 126              		.loc 1 149 5 view .LVU28
 127 0070 0099     		ldr	r1, [sp]
 128 0072 1048     		ldr	r0, .L11+40
 129 0074 FFF7FEFF 		bl	STSPIN32G4_setVDSP
 130              	.LVL13:
 150:Src/mc_tasks.c ****                                                            .useNFAULT = true });
 151:Src/mc_tasks.c ****     STSPIN32G4_clearFaults(&HdlSTSPING4);
 131              		.loc 1 151 5 is_stmt 1 view .LVU29
 132 0078 0E48     		ldr	r0, .L11+40
ARM GAS  /tmp/cczKoiko.s 			page 6


 133 007a FFF7FEFF 		bl	STSPIN32G4_clearFaults
 134              	.LVL14:
 152:Src/mc_tasks.c **** 
 153:Src/mc_tasks.c ****     /* Applicative hook in MCBoot() */
 154:Src/mc_tasks.c ****     MC_APP_BootHook();
 135              		.loc 1 154 5 view .LVU30
 136 007e FFF7FEFF 		bl	MC_APP_BootHook
 137              	.LVL15:
 155:Src/mc_tasks.c **** 
 156:Src/mc_tasks.c ****     /* USER CODE BEGIN MCboot 2 */
 157:Src/mc_tasks.c **** 
 158:Src/mc_tasks.c ****     /* USER CODE END MCboot 2 */
 159:Src/mc_tasks.c **** 
 160:Src/mc_tasks.c ****     bMCBootCompleted = 1U;
 138              		.loc 1 160 5 view .LVU31
 139              		.loc 1 160 22 is_stmt 0 view .LVU32
 140 0082 0123     		movs	r3, #1
 141 0084 2370     		strb	r3, [r4]
 142              	.LBE40:
 161:Src/mc_tasks.c ****   }
 162:Src/mc_tasks.c **** }
 143              		.loc 1 162 1 view .LVU33
 144 0086 02B0     		add	sp, sp, #8
 145              	.LCFI2:
 146              		.cfi_def_cfa_offset 16
 147              		@ sp needed
 148 0088 70BD     		pop	{r4, r5, r6, pc}
 149              	.LVL16:
 150              	.L7:
 151              	.LCFI3:
 152              		.cfi_def_cfa_offset 0
 153              		.cfi_restore 4
 154              		.cfi_restore 5
 155              		.cfi_restore 6
 156              		.cfi_restore 14
 157              		.loc 1 162 1 view .LVU34
 158 008a 7047     		bx	lr
 159              	.L12:
 160              		.align	2
 161              	.L11:
 162 008c 00000000 		.word	.LANCHOR0
 163 0090 00000000 		.word	Mci
 164 0094 00000000 		.word	aspepOverUartA
 165 0098 00000000 		.word	PIDSpeedHandle_M1
 166 009c 00000000 		.word	VirtualSpeedSensorM1
 167 00a0 00000000 		.word	VbusRegConv_M1
 168 00a4 00000000 		.word	BusVoltageSensor_M1
 169 00a8 00000000 		.word	TempRegConv_M1
 170 00ac 00000000 		.word	TempSensor_M1
 171 00b0 00000000 		.word	PerfTraces
 172 00b4 00000000 		.word	HdlSTSPING4
 173              		.cfi_endproc
 174              	.LFE1872:
 176              		.section	.text.MC_RunMotorControlTasks,"ax",%progbits
 177              		.align	1
 178              		.p2align 2,,3
 179              		.weak	MC_RunMotorControlTasks
ARM GAS  /tmp/cczKoiko.s 			page 7


 180              		.syntax unified
 181              		.thumb
 182              		.thumb_func
 183              		.fpu fpv4-sp-d16
 185              	MC_RunMotorControlTasks:
 186              	.LFB1873:
 163:Src/mc_tasks.c **** 
 164:Src/mc_tasks.c **** /**
 165:Src/mc_tasks.c ****  * @brief Runs all the Tasks of the Motor Control cockpit
 166:Src/mc_tasks.c ****  *
 167:Src/mc_tasks.c ****  * This function is to be called periodically at least at the Medium Frequency task
 168:Src/mc_tasks.c ****  * rate (It is typically called on the Systick interrupt). Exact invokation rate is
 169:Src/mc_tasks.c ****  * the Speed regulator execution rate set in the Motor Contorl Workbench.
 170:Src/mc_tasks.c ****  *
 171:Src/mc_tasks.c ****  * The following tasks are executed in this order:
 172:Src/mc_tasks.c ****  *
 173:Src/mc_tasks.c ****  * - Medium Frequency Tasks of each motors.
 174:Src/mc_tasks.c ****  * - Safety Task.
 175:Src/mc_tasks.c ****  * - Power Factor Correction Task (if enabled).
 176:Src/mc_tasks.c ****  * - User Interface task.
 177:Src/mc_tasks.c ****  */
 178:Src/mc_tasks.c **** __weak void MC_RunMotorControlTasks(void)
 179:Src/mc_tasks.c **** {
 187              		.loc 1 179 1 is_stmt 1 view -0
 188              		.cfi_startproc
 189              		@ args = 0, pretend = 0, frame = 0
 190              		@ frame_needed = 0, uses_anonymous_args = 0
 180:Src/mc_tasks.c ****   if (0U == bMCBootCompleted)
 191              		.loc 1 180 3 view .LVU36
 192              		.loc 1 180 10 is_stmt 0 view .LVU37
 193 0000 214B     		ldr	r3, .L37
 194 0002 1B78     		ldrb	r3, [r3]	@ zero_extendqisi2
 195              		.loc 1 180 6 view .LVU38
 196 0004 B3B1     		cbz	r3, .L33
 197              	.LBB43:
 198              	.LBI43:
 178:Src/mc_tasks.c **** {
 199              		.loc 1 178 13 is_stmt 1 view .LVU39
 200              	.LBB44:
 181:Src/mc_tasks.c ****   {
 182:Src/mc_tasks.c ****     /* Nothing to do */
 183:Src/mc_tasks.c ****   }
 184:Src/mc_tasks.c ****   else
 185:Src/mc_tasks.c ****   {
 186:Src/mc_tasks.c ****     /* ** Medium Frequency Tasks ** */
 187:Src/mc_tasks.c **** /* USER CODE BEGIN MC_Scheduler 0 */
 188:Src/mc_tasks.c **** 
 189:Src/mc_tasks.c **** /* USER CODE END MC_Scheduler 0 */
 190:Src/mc_tasks.c **** 
 191:Src/mc_tasks.c ****     if(hMFTaskCounterM1 > 0u)
 201              		.loc 1 191 5 view .LVU40
 202              	.LBE44:
 203              	.LBE43:
 179:Src/mc_tasks.c ****   if (0U == bMCBootCompleted)
 204              		.loc 1 179 1 is_stmt 0 view .LVU41
 205 0006 70B5     		push	{r4, r5, r6, lr}
 206              	.LCFI4:
ARM GAS  /tmp/cczKoiko.s 			page 8


 207              		.cfi_def_cfa_offset 16
 208              		.cfi_offset 4, -16
 209              		.cfi_offset 5, -12
 210              		.cfi_offset 6, -8
 211              		.cfi_offset 14, -4
 212              	.LBB47:
 213              	.LBB45:
 214              		.loc 1 191 25 view .LVU42
 215 0008 204C     		ldr	r4, .L37+4
 216 000a 2388     		ldrh	r3, [r4]
 217              		.loc 1 191 7 view .LVU43
 218 000c 9BB1     		cbz	r3, .L16
 192:Src/mc_tasks.c ****     {
 193:Src/mc_tasks.c ****       hMFTaskCounterM1--;
 219              		.loc 1 193 7 is_stmt 1 view .LVU44
 220              		.loc 1 193 23 is_stmt 0 view .LVU45
 221 000e 013B     		subs	r3, r3, #1
 222 0010 2380     		strh	r3, [r4]	@ movhi
 223              	.L17:
 194:Src/mc_tasks.c ****     }
 195:Src/mc_tasks.c ****     else
 196:Src/mc_tasks.c ****     {
 197:Src/mc_tasks.c ****       MC_BG_Perf_Measure_Start(&PerfTraces, MEASURE_TSK_MediumFrequencyTaskM1);
 198:Src/mc_tasks.c ****       TSK_MediumFrequencyTaskM1();
 199:Src/mc_tasks.c **** 
 200:Src/mc_tasks.c ****   MC_BG_Perf_Measure_Stop(&PerfTraces, MEASURE_TSK_MediumFrequencyTaskM1);
 201:Src/mc_tasks.c ****       /* Applicative hook at end of Medium Frequency for Motor 1 */
 202:Src/mc_tasks.c ****       MC_APP_PostMediumFrequencyHook_M1();
 203:Src/mc_tasks.c **** 
 204:Src/mc_tasks.c ****       MCP_Over_UartA.rxBuffer = MCP_Over_UartA.pTransportLayer->fRXPacketProcess(MCP_Over_UartA.pTr
 205:Src/mc_tasks.c ****                                                                                 &MCP_Over_UartA.rxL
 206:Src/mc_tasks.c ****       if ( 0U == MCP_Over_UartA.rxBuffer)
 207:Src/mc_tasks.c ****       {
 208:Src/mc_tasks.c ****         /* Nothing to do */
 209:Src/mc_tasks.c ****       }
 210:Src/mc_tasks.c ****       else
 211:Src/mc_tasks.c ****       {
 212:Src/mc_tasks.c ****         /* Synchronous answer */
 213:Src/mc_tasks.c ****         if (0U == MCP_Over_UartA.pTransportLayer->fGetBuffer(MCP_Over_UartA.pTransportLayer,
 214:Src/mc_tasks.c ****                                                      (void **) &MCP_Over_UartA.txBuffer, //cstat !M
 215:Src/mc_tasks.c ****                                                      MCTL_SYNC))
 216:Src/mc_tasks.c ****         {
 217:Src/mc_tasks.c ****           /* No buffer available to build the answer ... should not occur */
 218:Src/mc_tasks.c ****         }
 219:Src/mc_tasks.c ****         else
 220:Src/mc_tasks.c ****         {
 221:Src/mc_tasks.c ****           MCP_ReceivedPacket(&MCP_Over_UartA);
 222:Src/mc_tasks.c ****           MCP_Over_UartA.pTransportLayer->fSendPacket(MCP_Over_UartA.pTransportLayer, MCP_Over_Uart
 223:Src/mc_tasks.c ****                                                       MCP_Over_UartA.txLength, MCTL_SYNC);
 224:Src/mc_tasks.c ****           /* No buffer available to build the answer ... should not occur */
 225:Src/mc_tasks.c ****         }
 226:Src/mc_tasks.c ****       }
 227:Src/mc_tasks.c **** 
 228:Src/mc_tasks.c ****       /* USER CODE BEGIN MC_Scheduler 1 */
 229:Src/mc_tasks.c **** 
 230:Src/mc_tasks.c ****       /* USER CODE END MC_Scheduler 1 */
 231:Src/mc_tasks.c **** 
ARM GAS  /tmp/cczKoiko.s 			page 9


 232:Src/mc_tasks.c ****       hMFTaskCounterM1 = (uint16_t)MF_TASK_OCCURENCE_TICKS;
 233:Src/mc_tasks.c ****     }
 234:Src/mc_tasks.c ****     if(hBootCapDelayCounterM1 > 0U)
 224              		.loc 1 234 5 is_stmt 1 view .LVU46
 225              		.loc 1 234 31 is_stmt 0 view .LVU47
 226 0012 1F4A     		ldr	r2, .L37+8
 227 0014 1388     		ldrh	r3, [r2]
 228 0016 9BB2     		uxth	r3, r3
 229              		.loc 1 234 7 view .LVU48
 230 0018 1BB1     		cbz	r3, .L21
 235:Src/mc_tasks.c ****     {
 236:Src/mc_tasks.c ****       hBootCapDelayCounterM1--;
 231              		.loc 1 236 7 is_stmt 1 view .LVU49
 232              		.loc 1 236 29 is_stmt 0 view .LVU50
 233 001a 1388     		ldrh	r3, [r2]
 234 001c 013B     		subs	r3, r3, #1
 235 001e 9BB2     		uxth	r3, r3
 236 0020 1380     		strh	r3, [r2]	@ movhi
 237              	.L21:
 237:Src/mc_tasks.c ****     }
 238:Src/mc_tasks.c ****     else
 239:Src/mc_tasks.c ****     {
 240:Src/mc_tasks.c ****       /* Nothing to do */
 241:Src/mc_tasks.c ****     }
 238              		.loc 1 241 5 is_stmt 1 view .LVU51
 242:Src/mc_tasks.c ****     if(hStopPermanencyCounterM1 > 0U)
 239              		.loc 1 242 5 view .LVU52
 240              		.loc 1 242 33 is_stmt 0 view .LVU53
 241 0022 1C4A     		ldr	r2, .L37+12
 242 0024 1388     		ldrh	r3, [r2]
 243 0026 9BB2     		uxth	r3, r3
 244              		.loc 1 242 7 view .LVU54
 245 0028 1BB1     		cbz	r3, .L13
 243:Src/mc_tasks.c ****     {
 244:Src/mc_tasks.c ****       hStopPermanencyCounterM1--;
 246              		.loc 1 244 7 is_stmt 1 view .LVU55
 247              		.loc 1 244 31 is_stmt 0 view .LVU56
 248 002a 1388     		ldrh	r3, [r2]
 249 002c 013B     		subs	r3, r3, #1
 250 002e 9BB2     		uxth	r3, r3
 251 0030 1380     		strh	r3, [r2]	@ movhi
 252              	.LBE45:
 253              	.LBE47:
 245:Src/mc_tasks.c ****     }
 246:Src/mc_tasks.c ****     else
 247:Src/mc_tasks.c ****     {
 248:Src/mc_tasks.c ****       /* Nothing to do */
 249:Src/mc_tasks.c ****     }
 254              		.loc 1 249 5 is_stmt 1 view .LVU57
 255              	.L13:
 250:Src/mc_tasks.c **** 
 251:Src/mc_tasks.c ****   /* USER CODE BEGIN MC_Scheduler 2 */
 252:Src/mc_tasks.c **** 
 253:Src/mc_tasks.c ****   /* USER CODE END MC_Scheduler 2 */
 254:Src/mc_tasks.c ****   }
 255:Src/mc_tasks.c **** }
 256              		.loc 1 255 1 is_stmt 0 view .LVU58
ARM GAS  /tmp/cczKoiko.s 			page 10


 257 0032 70BD     		pop	{r4, r5, r6, pc}
 258              	.L33:
 259              	.LCFI5:
 260              		.cfi_def_cfa_offset 0
 261              		.cfi_restore 4
 262              		.cfi_restore 5
 263              		.cfi_restore 6
 264              		.cfi_restore 14
 265 0034 7047     		bx	lr
 266              	.L16:
 267              	.LCFI6:
 268              		.cfi_def_cfa_offset 16
 269              		.cfi_offset 4, -16
 270              		.cfi_offset 5, -12
 271              		.cfi_offset 6, -8
 272              		.cfi_offset 14, -4
 273              	.LBB48:
 274              	.LBB46:
 197:Src/mc_tasks.c ****       TSK_MediumFrequencyTaskM1();
 275              		.loc 1 197 7 is_stmt 1 view .LVU59
 276 0036 1848     		ldr	r0, .L37+16
 204:Src/mc_tasks.c ****                                                                                 &MCP_Over_UartA.rxL
 277              		.loc 1 204 47 is_stmt 0 view .LVU60
 278 0038 184D     		ldr	r5, .L37+20
 197:Src/mc_tasks.c ****       TSK_MediumFrequencyTaskM1();
 279              		.loc 1 197 7 view .LVU61
 280 003a 0121     		movs	r1, #1
 281 003c FFF7FEFF 		bl	MC_BG_Perf_Measure_Start
 282              	.LVL17:
 198:Src/mc_tasks.c **** 
 283              		.loc 1 198 7 is_stmt 1 view .LVU62
 284 0040 FFF7FEFF 		bl	TSK_MediumFrequencyTaskM1
 285              	.LVL18:
 200:Src/mc_tasks.c ****       /* Applicative hook at end of Medium Frequency for Motor 1 */
 286              		.loc 1 200 3 view .LVU63
 287 0044 1448     		ldr	r0, .L37+16
 288 0046 0121     		movs	r1, #1
 289 0048 FFF7FEFF 		bl	MC_BG_Perf_Measure_Stop
 290              	.LVL19:
 202:Src/mc_tasks.c **** 
 291              		.loc 1 202 7 view .LVU64
 292 004c FFF7FEFF 		bl	MC_APP_PostMediumFrequencyHook_M1
 293              	.LVL20:
 204:Src/mc_tasks.c ****                                                                                 &MCP_Over_UartA.rxL
 294              		.loc 1 204 7 view .LVU65
 204:Src/mc_tasks.c ****                                                                                 &MCP_Over_UartA.rxL
 295              		.loc 1 204 47 is_stmt 0 view .LVU66
 296 0050 2946     		mov	r1, r5
 297 0052 51F80C0B 		ldr	r0, [r1], #12
 204:Src/mc_tasks.c ****                                                                                 &MCP_Over_UartA.rxL
 298              		.loc 1 204 33 view .LVU67
 299 0056 8368     		ldr	r3, [r0, #8]
 300 0058 9847     		blx	r3
 301              	.LVL21:
 204:Src/mc_tasks.c ****                                                                                 &MCP_Over_UartA.rxL
 302              		.loc 1 204 31 view .LVU68
 303 005a 6860     		str	r0, [r5, #4]
ARM GAS  /tmp/cczKoiko.s 			page 11


 206:Src/mc_tasks.c ****       {
 304              		.loc 1 206 7 is_stmt 1 view .LVU69
 206:Src/mc_tasks.c ****       {
 305              		.loc 1 206 10 is_stmt 0 view .LVU70
 306 005c 30B1     		cbz	r0, .L19
 213:Src/mc_tasks.c ****                                                      (void **) &MCP_Over_UartA.txBuffer, //cstat !M
 307              		.loc 1 213 9 is_stmt 1 view .LVU71
 213:Src/mc_tasks.c ****                                                      (void **) &MCP_Over_UartA.txBuffer, //cstat !M
 308              		.loc 1 213 33 is_stmt 0 view .LVU72
 309 005e 2946     		mov	r1, r5
 213:Src/mc_tasks.c ****                                                      (void **) &MCP_Over_UartA.txBuffer, //cstat !M
 310              		.loc 1 213 19 view .LVU73
 311 0060 0A22     		movs	r2, #10
 213:Src/mc_tasks.c ****                                                      (void **) &MCP_Over_UartA.txBuffer, //cstat !M
 312              		.loc 1 213 33 view .LVU74
 313 0062 51F8080B 		ldr	r0, [r1], #8
 213:Src/mc_tasks.c ****                                                      (void **) &MCP_Over_UartA.txBuffer, //cstat !M
 314              		.loc 1 213 19 view .LVU75
 315 0066 0368     		ldr	r3, [r0]
 316 0068 9847     		blx	r3
 317              	.LVL22:
 213:Src/mc_tasks.c ****                                                      (void **) &MCP_Over_UartA.txBuffer, //cstat !M
 318              		.loc 1 213 12 view .LVU76
 319 006a 10B9     		cbnz	r0, .L36
 320              	.L19:
 232:Src/mc_tasks.c ****     }
 321              		.loc 1 232 7 is_stmt 1 view .LVU77
 232:Src/mc_tasks.c ****     }
 322              		.loc 1 232 24 is_stmt 0 view .LVU78
 323 006c 0123     		movs	r3, #1
 324 006e 2380     		strh	r3, [r4]	@ movhi
 325 0070 CFE7     		b	.L17
 326              	.L36:
 221:Src/mc_tasks.c ****           MCP_Over_UartA.pTransportLayer->fSendPacket(MCP_Over_UartA.pTransportLayer, MCP_Over_Uart
 327              		.loc 1 221 11 is_stmt 1 view .LVU79
 328 0072 2846     		mov	r0, r5
 329 0074 FFF7FEFF 		bl	MCP_ReceivedPacket
 330              	.LVL23:
 222:Src/mc_tasks.c ****                                                       MCP_Over_UartA.txLength, MCTL_SYNC);
 331              		.loc 1 222 11 view .LVU80
 222:Src/mc_tasks.c ****                                                       MCP_Over_UartA.txLength, MCTL_SYNC);
 332              		.loc 1 222 25 is_stmt 0 view .LVU81
 333 0078 2868     		ldr	r0, [r5]
 222:Src/mc_tasks.c ****                                                       MCP_Over_UartA.txLength, MCTL_SYNC);
 334              		.loc 1 222 11 view .LVU82
 335 007a EA89     		ldrh	r2, [r5, #14]
 336 007c 4668     		ldr	r6, [r0, #4]
 337 007e A968     		ldr	r1, [r5, #8]
 338 0080 0A23     		movs	r3, #10
 339 0082 B047     		blx	r6
 340              	.LVL24:
 341 0084 F2E7     		b	.L19
 342              	.L38:
 343 0086 00BF     		.align	2
 344              	.L37:
 345 0088 00000000 		.word	.LANCHOR0
 346 008c 00000000 		.word	.LANCHOR1
ARM GAS  /tmp/cczKoiko.s 			page 12


 347 0090 00000000 		.word	.LANCHOR2
 348 0094 00000000 		.word	.LANCHOR3
 349 0098 00000000 		.word	PerfTraces
 350 009c 00000000 		.word	MCP_Over_UartA
 351              	.LBE46:
 352              	.LBE48:
 353              		.cfi_endproc
 354              	.LFE1873:
 356              		.section	.text.TSK_SetChargeBootCapDelayM1,"ax",%progbits
 357              		.align	1
 358              		.p2align 2,,3
 359              		.weak	TSK_SetChargeBootCapDelayM1
 360              		.syntax unified
 361              		.thumb
 362              		.thumb_func
 363              		.fpu fpv4-sp-d16
 365              	TSK_SetChargeBootCapDelayM1:
 366              	.LVL25:
 367              	.LFB1874:
 256:Src/mc_tasks.c **** 
 257:Src/mc_tasks.c **** /**
 258:Src/mc_tasks.c ****   * @brief  It set a counter intended to be used for counting the delay required
 259:Src/mc_tasks.c ****   *         for drivers boot capacitors charging of motor 1.
 260:Src/mc_tasks.c ****   * @param  hTickCount number of ticks to be counted.
 261:Src/mc_tasks.c ****   * @retval void
 262:Src/mc_tasks.c ****   */
 263:Src/mc_tasks.c **** __weak void TSK_SetChargeBootCapDelayM1(uint16_t hTickCount)
 264:Src/mc_tasks.c **** {
 368              		.loc 1 264 1 is_stmt 1 view -0
 369              		.cfi_startproc
 370              		@ args = 0, pretend = 0, frame = 0
 371              		@ frame_needed = 0, uses_anonymous_args = 0
 372              		@ link register save eliminated.
 265:Src/mc_tasks.c ****    hBootCapDelayCounterM1 = hTickCount;
 373              		.loc 1 265 4 view .LVU84
 374              		.loc 1 265 27 is_stmt 0 view .LVU85
 375 0000 014B     		ldr	r3, .L40
 376 0002 1880     		strh	r0, [r3]	@ movhi
 266:Src/mc_tasks.c **** }
 377              		.loc 1 266 1 view .LVU86
 378 0004 7047     		bx	lr
 379              	.L41:
 380 0006 00BF     		.align	2
 381              	.L40:
 382 0008 00000000 		.word	.LANCHOR2
 383              		.cfi_endproc
 384              	.LFE1874:
 386              		.section	.text.TSK_ChargeBootCapDelayHasElapsedM1,"ax",%progbits
 387              		.align	1
 388              		.p2align 2,,3
 389              		.weak	TSK_ChargeBootCapDelayHasElapsedM1
 390              		.syntax unified
 391              		.thumb
 392              		.thumb_func
 393              		.fpu fpv4-sp-d16
 395              	TSK_ChargeBootCapDelayHasElapsedM1:
 396              	.LFB1875:
ARM GAS  /tmp/cczKoiko.s 			page 13


 267:Src/mc_tasks.c **** 
 268:Src/mc_tasks.c **** /**
 269:Src/mc_tasks.c ****   * @brief  Use this function to know whether the time required to charge boot
 270:Src/mc_tasks.c ****   *         capacitors of motor 1 has elapsed.
 271:Src/mc_tasks.c ****   * @param  none
 272:Src/mc_tasks.c ****   * @retval bool true if time has elapsed, false otherwise.
 273:Src/mc_tasks.c ****   */
 274:Src/mc_tasks.c **** __weak bool TSK_ChargeBootCapDelayHasElapsedM1(void)
 275:Src/mc_tasks.c **** {
 397              		.loc 1 275 1 is_stmt 1 view -0
 398              		.cfi_startproc
 399              		@ args = 0, pretend = 0, frame = 0
 400              		@ frame_needed = 0, uses_anonymous_args = 0
 401              		@ link register save eliminated.
 276:Src/mc_tasks.c ****   bool retVal = false;
 402              		.loc 1 276 3 view .LVU88
 403              	.LVL26:
 277:Src/mc_tasks.c ****   if (((uint16_t)0) == hBootCapDelayCounterM1)
 404              		.loc 1 277 3 view .LVU89
 405              		.loc 1 277 21 is_stmt 0 view .LVU90
 406 0000 034B     		ldr	r3, .L43
 407 0002 1888     		ldrh	r0, [r3]
 408 0004 80B2     		uxth	r0, r0
 409              	.LVL27:
 278:Src/mc_tasks.c ****   {
 279:Src/mc_tasks.c ****     retVal = true;
 280:Src/mc_tasks.c ****   }
 281:Src/mc_tasks.c ****   return (retVal);
 410              		.loc 1 281 3 is_stmt 1 view .LVU91
 282:Src/mc_tasks.c **** }
 411              		.loc 1 282 1 is_stmt 0 view .LVU92
 412 0006 B0FA80F0 		clz	r0, r0
 413              	.LVL28:
 414              		.loc 1 282 1 view .LVU93
 415 000a 4009     		lsrs	r0, r0, #5
 416 000c 7047     		bx	lr
 417              	.L44:
 418 000e 00BF     		.align	2
 419              	.L43:
 420 0010 00000000 		.word	.LANCHOR2
 421              		.cfi_endproc
 422              	.LFE1875:
 424              		.section	.text.TSK_SetStopPermanencyTimeM1,"ax",%progbits
 425              		.align	1
 426              		.p2align 2,,3
 427              		.weak	TSK_SetStopPermanencyTimeM1
 428              		.syntax unified
 429              		.thumb
 430              		.thumb_func
 431              		.fpu fpv4-sp-d16
 433              	TSK_SetStopPermanencyTimeM1:
 434              	.LVL29:
 435              	.LFB1876:
 283:Src/mc_tasks.c **** 
 284:Src/mc_tasks.c **** /**
 285:Src/mc_tasks.c ****   * @brief  It set a counter intended to be used for counting the permanency
 286:Src/mc_tasks.c ****   *         time in STOP state of motor 1.
ARM GAS  /tmp/cczKoiko.s 			page 14


 287:Src/mc_tasks.c ****   * @param  hTickCount number of ticks to be counted.
 288:Src/mc_tasks.c ****   * @retval void
 289:Src/mc_tasks.c ****   */
 290:Src/mc_tasks.c **** __weak void TSK_SetStopPermanencyTimeM1(uint16_t hTickCount)
 291:Src/mc_tasks.c **** {
 436              		.loc 1 291 1 is_stmt 1 view -0
 437              		.cfi_startproc
 438              		@ args = 0, pretend = 0, frame = 0
 439              		@ frame_needed = 0, uses_anonymous_args = 0
 440              		@ link register save eliminated.
 292:Src/mc_tasks.c ****   hStopPermanencyCounterM1 = hTickCount;
 441              		.loc 1 292 3 view .LVU95
 442              		.loc 1 292 28 is_stmt 0 view .LVU96
 443 0000 014B     		ldr	r3, .L46
 444 0002 1880     		strh	r0, [r3]	@ movhi
 293:Src/mc_tasks.c **** }
 445              		.loc 1 293 1 view .LVU97
 446 0004 7047     		bx	lr
 447              	.L47:
 448 0006 00BF     		.align	2
 449              	.L46:
 450 0008 00000000 		.word	.LANCHOR3
 451              		.cfi_endproc
 452              	.LFE1876:
 454              		.section	.text.TSK_StopPermanencyTimeHasElapsedM1,"ax",%progbits
 455              		.align	1
 456              		.p2align 2,,3
 457              		.weak	TSK_StopPermanencyTimeHasElapsedM1
 458              		.syntax unified
 459              		.thumb
 460              		.thumb_func
 461              		.fpu fpv4-sp-d16
 463              	TSK_StopPermanencyTimeHasElapsedM1:
 464              	.LFB1877:
 294:Src/mc_tasks.c **** 
 295:Src/mc_tasks.c **** /**
 296:Src/mc_tasks.c ****   * @brief  Use this function to know whether the permanency time in STOP state
 297:Src/mc_tasks.c ****   *         of motor 1 has elapsed.
 298:Src/mc_tasks.c ****   * @param  none
 299:Src/mc_tasks.c ****   * @retval bool true if time is elapsed, false otherwise.
 300:Src/mc_tasks.c ****   */
 301:Src/mc_tasks.c **** __weak bool TSK_StopPermanencyTimeHasElapsedM1(void)
 302:Src/mc_tasks.c **** {
 465              		.loc 1 302 1 is_stmt 1 view -0
 466              		.cfi_startproc
 467              		@ args = 0, pretend = 0, frame = 0
 468              		@ frame_needed = 0, uses_anonymous_args = 0
 469              		@ link register save eliminated.
 303:Src/mc_tasks.c ****   bool retVal = false;
 470              		.loc 1 303 3 view .LVU99
 471              	.LVL30:
 304:Src/mc_tasks.c ****   if (((uint16_t)0) == hStopPermanencyCounterM1)
 472              		.loc 1 304 3 view .LVU100
 473              		.loc 1 304 21 is_stmt 0 view .LVU101
 474 0000 034B     		ldr	r3, .L49
 475 0002 1888     		ldrh	r0, [r3]
 476 0004 80B2     		uxth	r0, r0
ARM GAS  /tmp/cczKoiko.s 			page 15


 477              	.LVL31:
 305:Src/mc_tasks.c ****   {
 306:Src/mc_tasks.c ****     retVal = true;
 307:Src/mc_tasks.c ****   }
 308:Src/mc_tasks.c ****   return (retVal);
 478              		.loc 1 308 3 is_stmt 1 view .LVU102
 309:Src/mc_tasks.c **** }
 479              		.loc 1 309 1 is_stmt 0 view .LVU103
 480 0006 B0FA80F0 		clz	r0, r0
 481              	.LVL32:
 482              		.loc 1 309 1 view .LVU104
 483 000a 4009     		lsrs	r0, r0, #5
 484 000c 7047     		bx	lr
 485              	.L50:
 486 000e 00BF     		.align	2
 487              	.L49:
 488 0010 00000000 		.word	.LANCHOR3
 489              		.cfi_endproc
 490              	.LFE1877:
 492              		.section	.text.TSK_HighFrequencyTask,"ax",%progbits
 493              		.align	1
 494              		.p2align 2,,3
 495              		.weak	TSK_HighFrequencyTask
 496              		.syntax unified
 497              		.thumb
 498              		.thumb_func
 499              		.fpu fpv4-sp-d16
 501              	TSK_HighFrequencyTask:
 502              	.LFB1878:
 310:Src/mc_tasks.c **** 
 311:Src/mc_tasks.c **** #if defined (CCMRAM)
 312:Src/mc_tasks.c **** #if defined (__ICCARM__)
 313:Src/mc_tasks.c **** #pragma location = ".ccmram"
 314:Src/mc_tasks.c **** #elif defined (__CC_ARM) || defined(__GNUC__)
 315:Src/mc_tasks.c **** __attribute__((section (".ccmram")))
 316:Src/mc_tasks.c **** #endif
 317:Src/mc_tasks.c **** #endif
 318:Src/mc_tasks.c **** 
 319:Src/mc_tasks.c **** /**
 320:Src/mc_tasks.c ****   * @brief  Executes the Motor Control duties that require a high frequency rate and a precise timi
 321:Src/mc_tasks.c ****   *
 322:Src/mc_tasks.c ****   *  This is mainly the FOC current control loop. It is executed depending on the state of the Moto
 323:Src/mc_tasks.c ****   * subsystem (see the state machine(s)).
 324:Src/mc_tasks.c ****   *
 325:Src/mc_tasks.c ****   * @retval Number of the  motor instance which FOC loop was executed.
 326:Src/mc_tasks.c ****   */
 327:Src/mc_tasks.c **** __weak uint8_t TSK_HighFrequencyTask(void)
 328:Src/mc_tasks.c **** {
 503              		.loc 1 328 1 is_stmt 1 view -0
 504              		.cfi_startproc
 505              		@ args = 0, pretend = 0, frame = 0
 506              		@ frame_needed = 0, uses_anonymous_args = 0
 329:Src/mc_tasks.c ****   uint8_t bMotorNbr;
 507              		.loc 1 329 3 view .LVU106
 330:Src/mc_tasks.c ****   bMotorNbr = 0;
 508              		.loc 1 330 3 view .LVU107
 509              	.LVL33:
ARM GAS  /tmp/cczKoiko.s 			page 16


 331:Src/mc_tasks.c **** 
 332:Src/mc_tasks.c ****   MC_Perf_Measure_Start(&PerfTraces, MEASURE_TSK_HighFrequencyTaskM1);
 510              		.loc 1 332 3 view .LVU108
 511              	.LBB49:
 512              	.LBI49:
 513              		.file 2 "Inc/mc_perf.h"
   1:Inc/mc_perf.h **** /**
   2:Inc/mc_perf.h ****   ******************************************************************************
   3:Inc/mc_perf.h ****   * @file    mc_perf.h
   4:Inc/mc_perf.h ****   * @author  Motor Control SDK Team, ST Microelectronics
   5:Inc/mc_perf.h ****   * @brief   Execution time measurement definitions
   6:Inc/mc_perf.h ****   ******************************************************************************
   7:Inc/mc_perf.h ****   * @attention
   8:Inc/mc_perf.h ****   *
   9:Inc/mc_perf.h ****   * <h2><center>&copy; Copyright (c) 2024 STMicroelectronics.
  10:Inc/mc_perf.h ****   * All rights reserved.</center></h2>
  11:Inc/mc_perf.h ****   *
  12:Inc/mc_perf.h ****   * This software component is licensed by ST under Ultimate Liberty license
  13:Inc/mc_perf.h ****   * SLA0044, the "License"; You may not use this file except in compliance with
  14:Inc/mc_perf.h ****   * the License. You may obtain a copy of the License at:
  15:Inc/mc_perf.h ****   *                             www.st.com/SLA0044
  16:Inc/mc_perf.h ****   *
  17:Inc/mc_perf.h ****   ******************************************************************************
  18:Inc/mc_perf.h ****   */
  19:Inc/mc_perf.h **** #ifndef MC_PERF_H
  20:Inc/mc_perf.h **** #define MC_PERF_H
  21:Inc/mc_perf.h **** 
  22:Inc/mc_perf.h **** typedef enum
  23:Inc/mc_perf.h **** {
  24:Inc/mc_perf.h ****   MEASURE_TSK_HighFrequencyTaskM1,
  25:Inc/mc_perf.h ****   MEASURE_TSK_MediumFrequencyTaskM1,
  26:Inc/mc_perf.h **** /*  Others functions to measure to be added here. */
  27:Inc/mc_perf.h **** } MC_PERF_FUNCTIONS_LIST_t;
  28:Inc/mc_perf.h **** 
  29:Inc/mc_perf.h **** /* Define max number of traces according to the list defined in MC_PERF_FUNCTIONS_LIST_t */
  30:Inc/mc_perf.h **** #define  MC_PERF_NB_TRACES  2U
  31:Inc/mc_perf.h **** 
  32:Inc/mc_perf.h **** /* DWT (Data Watchpoint and Trace) registers, only exists on ARM Cortex with a DWT unit */
  33:Inc/mc_perf.h **** /* The DWT is usually implemented in Cortex-M3 or higher, but not on Cortex-M0(+) (ie not present o
  34:Inc/mc_perf.h **** 
  35:Inc/mc_perf.h **** typedef struct
  36:Inc/mc_perf.h **** {
  37:Inc/mc_perf.h ****     uint32_t  StartMeasure;
  38:Inc/mc_perf.h ****     uint32_t  DeltaTimeInCycle;
  39:Inc/mc_perf.h ****     uint32_t  min;
  40:Inc/mc_perf.h ****     uint32_t  max;
  41:Inc/mc_perf.h **** } Perf_Handle_t;
  42:Inc/mc_perf.h **** 
  43:Inc/mc_perf.h **** typedef struct
  44:Inc/mc_perf.h **** {
  45:Inc/mc_perf.h ****     bool   BG_Task_OnGoing;
  46:Inc/mc_perf.h ****     uint32_t  AccHighFreqTasksCnt;
  47:Inc/mc_perf.h ****     Perf_Handle_t MC_Perf_TraceLog[MC_PERF_NB_TRACES];
  48:Inc/mc_perf.h **** } MC_Perf_Handle_t;
  49:Inc/mc_perf.h **** 
  50:Inc/mc_perf.h **** void MC_Perf_Measure_Init(MC_Perf_Handle_t *pHandle);
  51:Inc/mc_perf.h **** void MC_Perf_Clear(MC_Perf_Handle_t *pHandle,uint8_t bMotor);
ARM GAS  /tmp/cczKoiko.s 			page 17


  52:Inc/mc_perf.h **** void MC_BG_Perf_Measure_Start(MC_Perf_Handle_t *pHandle, uint8_t i);
  53:Inc/mc_perf.h **** void MC_Perf_Measure_Stop(MC_Perf_Handle_t *pHandle, uint8_t i);
  54:Inc/mc_perf.h **** void MC_BG_Perf_Measure_Stop(MC_Perf_Handle_t *pHandle, uint8_t i);
  55:Inc/mc_perf.h **** 
  56:Inc/mc_perf.h **** float_t MC_Perf_GetCPU_Load(const MC_Perf_Handle_t *pHandle);
  57:Inc/mc_perf.h **** float_t MC_Perf_GetMaxCPU_Load(const MC_Perf_Handle_t *pHandle);
  58:Inc/mc_perf.h **** float_t MC_Perf_GetMinCPU_Load(const MC_Perf_Handle_t *pHandle);
  59:Inc/mc_perf.h **** 
  60:Inc/mc_perf.h **** /**
  61:Inc/mc_perf.h ****  * @brief  Start the measure of a code section called in foreground.
  62:Inc/mc_perf.h ****  * @param  pHandle: handler of the performance measurement component.
  63:Inc/mc_perf.h ****  * @param  CodeSection: code section to measure.
  64:Inc/mc_perf.h ****  */
  65:Inc/mc_perf.h **** static inline void MC_Perf_Measure_Start(MC_Perf_Handle_t *pHandle, uint8_t CodeSection)
 514              		.loc 2 65 20 view .LVU109
 515              	.LBB50:
  66:Inc/mc_perf.h **** {
  67:Inc/mc_perf.h **** #ifdef NULL_PTR_CHECK_MC_PERF
  68:Inc/mc_perf.h ****   if (MC_NULL == pHandle)
  69:Inc/mc_perf.h ****   {
  70:Inc/mc_perf.h ****     /* Nothing to do */
  71:Inc/mc_perf.h ****   }
  72:Inc/mc_perf.h ****   else
  73:Inc/mc_perf.h ****   {
  74:Inc/mc_perf.h **** #endif
  75:Inc/mc_perf.h ****     uint32_t StartMeasure = DWT->CYCCNT;
 516              		.loc 2 75 5 view .LVU110
 517              		.loc 2 75 14 is_stmt 0 view .LVU111
 518 0000 0C4A     		ldr	r2, .L58
 519              	.LBE50:
 520              	.LBE49:
 328:Src/mc_tasks.c ****   uint8_t bMotorNbr;
 521              		.loc 1 328 1 view .LVU112
 522 0002 08B5     		push	{r3, lr}
 523              	.LCFI7:
 524              		.cfi_def_cfa_offset 8
 525              		.cfi_offset 3, -8
 526              		.cfi_offset 14, -4
 527              	.LBB52:
 528              	.LBB51:
  76:Inc/mc_perf.h ****     pHandle->MC_Perf_TraceLog[CodeSection].StartMeasure = StartMeasure;
 529              		.loc 2 76 57 view .LVU113
 530 0004 0C4B     		ldr	r3, .L58+4
  75:Inc/mc_perf.h ****     pHandle->MC_Perf_TraceLog[CodeSection].StartMeasure = StartMeasure;
 531              		.loc 2 75 14 view .LVU114
 532 0006 5268     		ldr	r2, [r2, #4]
 533              	.LVL34:
 534              		.loc 2 76 5 is_stmt 1 view .LVU115
 535              		.loc 2 76 57 is_stmt 0 view .LVU116
 536 0008 9A60     		str	r2, [r3, #8]
 537              	.LVL35:
 538              		.loc 2 76 57 view .LVU117
 539              	.LBE51:
 540              	.LBE52:
 333:Src/mc_tasks.c ****   /* USER CODE BEGIN HighFrequencyTask 0 */
 334:Src/mc_tasks.c **** 
 335:Src/mc_tasks.c ****   /* USER CODE END HighFrequencyTask 0 */
ARM GAS  /tmp/cczKoiko.s 			page 18


 336:Src/mc_tasks.c ****   FOC_HighFrequencyTask(bMotorNbr);
 541              		.loc 1 336 3 is_stmt 1 view .LVU118
 542 000a 0020     		movs	r0, #0
 543 000c FFF7FEFF 		bl	FOC_HighFrequencyTask
 544              	.LVL36:
 337:Src/mc_tasks.c **** 
 338:Src/mc_tasks.c ****   /* USER CODE BEGIN HighFrequencyTask 1 */
 339:Src/mc_tasks.c **** 
 340:Src/mc_tasks.c ****   /* USER CODE END HighFrequencyTask 1 */
 341:Src/mc_tasks.c **** 
 342:Src/mc_tasks.c ****   GLOBAL_TIMESTAMP++;
 545              		.loc 1 342 3 view .LVU119
 546              		.loc 1 342 19 is_stmt 0 view .LVU120
 547 0010 0A4A     		ldr	r2, .L58+8
 343:Src/mc_tasks.c ****   if (0U == MCPA_UART_A.Mark)
 548              		.loc 1 343 24 view .LVU121
 549 0012 0B48     		ldr	r0, .L58+12
 342:Src/mc_tasks.c ****   if (0U == MCPA_UART_A.Mark)
 550              		.loc 1 342 19 view .LVU122
 551 0014 1368     		ldr	r3, [r2]
 552              		.loc 1 343 6 view .LVU123
 553 0016 90F82910 		ldrb	r1, [r0, #41]	@ zero_extendqisi2
 342:Src/mc_tasks.c ****   if (0U == MCPA_UART_A.Mark)
 554              		.loc 1 342 19 view .LVU124
 555 001a 0133     		adds	r3, r3, #1
 556 001c 1360     		str	r3, [r2]
 557              		.loc 1 343 3 is_stmt 1 view .LVU125
 558              		.loc 1 343 6 is_stmt 0 view .LVU126
 559 001e 29B9     		cbnz	r1, .L57
 560              	.L52:
 344:Src/mc_tasks.c ****   {
 345:Src/mc_tasks.c ****     /* Nothing to do */
 346:Src/mc_tasks.c ****   }
 347:Src/mc_tasks.c ****   else
 348:Src/mc_tasks.c ****   {
 349:Src/mc_tasks.c ****     MCPA_dataLog (&MCPA_UART_A);
 350:Src/mc_tasks.c ****   }
 351:Src/mc_tasks.c **** 
 352:Src/mc_tasks.c ****   MC_Perf_Measure_Stop(&PerfTraces, MEASURE_TSK_HighFrequencyTaskM1);
 561              		.loc 1 352 3 is_stmt 1 view .LVU127
 562 0020 0548     		ldr	r0, .L58+4
 563 0022 0021     		movs	r1, #0
 564 0024 FFF7FEFF 		bl	MC_Perf_Measure_Stop
 565              	.LVL37:
 353:Src/mc_tasks.c ****   return (bMotorNbr);
 566              		.loc 1 353 3 view .LVU128
 354:Src/mc_tasks.c **** 
 355:Src/mc_tasks.c **** }
 567              		.loc 1 355 1 is_stmt 0 view .LVU129
 568 0028 0020     		movs	r0, #0
 569 002a 08BD     		pop	{r3, pc}
 570              	.L57:
 349:Src/mc_tasks.c ****   }
 571              		.loc 1 349 5 is_stmt 1 view .LVU130
 572 002c FFF7FEFF 		bl	MCPA_dataLog
 573              	.LVL38:
 574 0030 F6E7     		b	.L52
ARM GAS  /tmp/cczKoiko.s 			page 19


 575              	.L59:
 576 0032 00BF     		.align	2
 577              	.L58:
 578 0034 001000E0 		.word	-536866816
 579 0038 00000000 		.word	PerfTraces
 580 003c 00000000 		.word	GLOBAL_TIMESTAMP
 581 0040 00000000 		.word	MCPA_UART_A
 582              		.cfi_endproc
 583              	.LFE1878:
 585              		.section	.text.TSK_SafetyTask_PWMOFF,"ax",%progbits
 586              		.align	1
 587              		.p2align 2,,3
 588              		.weak	TSK_SafetyTask_PWMOFF
 589              		.syntax unified
 590              		.thumb
 591              		.thumb_func
 592              		.fpu fpv4-sp-d16
 594              	TSK_SafetyTask_PWMOFF:
 595              	.LVL39:
 596              	.LFB1880:
 356:Src/mc_tasks.c **** 
 357:Src/mc_tasks.c **** /**
 358:Src/mc_tasks.c ****   * @brief  Executes safety checks (e.g. bus voltage and temperature) for all drive instances.
 359:Src/mc_tasks.c ****   *
 360:Src/mc_tasks.c ****   * Faults flags are updated here.
 361:Src/mc_tasks.c ****   */
 362:Src/mc_tasks.c **** __weak void TSK_SafetyTask(void)
 363:Src/mc_tasks.c **** {
 364:Src/mc_tasks.c ****   /* USER CODE BEGIN TSK_SafetyTask 0 */
 365:Src/mc_tasks.c **** 
 366:Src/mc_tasks.c ****   /* USER CODE END TSK_SafetyTask 0 */
 367:Src/mc_tasks.c ****   if (1U == bMCBootCompleted)
 368:Src/mc_tasks.c ****   {
 369:Src/mc_tasks.c ****     SCC_CheckOC_RL(&SCC);
 370:Src/mc_tasks.c ****     TSK_SafetyTask_PWMOFF(M1);
 371:Src/mc_tasks.c ****     /* User conversion execution */
 372:Src/mc_tasks.c ****     RCM_ExecUserConv();
 373:Src/mc_tasks.c ****   /* USER CODE BEGIN TSK_SafetyTask 1 */
 374:Src/mc_tasks.c **** 
 375:Src/mc_tasks.c ****   /* USER CODE END TSK_SafetyTask 1 */
 376:Src/mc_tasks.c ****   }
 377:Src/mc_tasks.c ****   else
 378:Src/mc_tasks.c ****   {
 379:Src/mc_tasks.c ****     /* Nothing to do */
 380:Src/mc_tasks.c ****   }
 381:Src/mc_tasks.c **** }
 382:Src/mc_tasks.c **** 
 383:Src/mc_tasks.c **** /**
 384:Src/mc_tasks.c ****   * @brief  Safety task implementation if  MC.M1_ON_OVER_VOLTAGE == TURN_OFF_PWM.
 385:Src/mc_tasks.c ****   * @param  bMotor Motor reference number defined
 386:Src/mc_tasks.c ****   *         \link Motors_reference_number here \endlink.
 387:Src/mc_tasks.c ****   */
 388:Src/mc_tasks.c **** __weak void TSK_SafetyTask_PWMOFF(uint8_t bMotor)
 389:Src/mc_tasks.c **** {
 597              		.loc 1 389 1 view -0
 598              		.cfi_startproc
 599              		@ args = 0, pretend = 0, frame = 8
ARM GAS  /tmp/cczKoiko.s 			page 20


 600              		@ frame_needed = 0, uses_anonymous_args = 0
 390:Src/mc_tasks.c ****   /* USER CODE BEGIN TSK_SafetyTask_PWMOFF 0 */
 391:Src/mc_tasks.c **** 
 392:Src/mc_tasks.c ****   /* USER CODE END TSK_SafetyTask_PWMOFF 0 */
 393:Src/mc_tasks.c ****   uint16_t CodeReturn = MC_NO_ERROR;
 601              		.loc 1 393 3 view .LVU132
 394:Src/mc_tasks.c ****   uint8_t lbmotor = M1;
 602              		.loc 1 394 3 view .LVU133
 395:Src/mc_tasks.c ****   const uint16_t errMask[NBR_OF_MOTORS] = {VBUS_TEMP_ERR_MASK};
 603              		.loc 1 395 3 view .LVU134
 396:Src/mc_tasks.c ****   /* Check for fault if FW protection is activated. It returns MC_OVER_TEMP or MC_NO_ERROR */
 397:Src/mc_tasks.c ****   if (M1 == bMotor)
 604              		.loc 1 397 3 view .LVU135
 389:Src/mc_tasks.c ****   /* USER CODE BEGIN TSK_SafetyTask_PWMOFF 0 */
 605              		.loc 1 389 1 is_stmt 0 view .LVU136
 606 0000 70B5     		push	{r4, r5, r6, lr}
 607              	.LCFI8:
 608              		.cfi_def_cfa_offset 16
 609              		.cfi_offset 4, -16
 610              		.cfi_offset 5, -12
 611              		.cfi_offset 6, -8
 612              		.cfi_offset 14, -4
 613              		.loc 1 397 6 view .LVU137
 614 0002 0446     		mov	r4, r0
 389:Src/mc_tasks.c ****   /* USER CODE BEGIN TSK_SafetyTask_PWMOFF 0 */
 615              		.loc 1 389 1 view .LVU138
 616 0004 82B0     		sub	sp, sp, #8
 617              	.LCFI9:
 618              		.cfi_def_cfa_offset 24
 619              		.loc 1 397 6 view .LVU139
 620 0006 B0B1     		cbz	r0, .L69
 398:Src/mc_tasks.c ****   {
 399:Src/mc_tasks.c ****     uint16_t rawValueM1 = RCM_ExecRegularConv(&TempRegConv_M1);
 400:Src/mc_tasks.c ****     CodeReturn |= errMask[bMotor] & NTC_CalcAvTemp(&TempSensor_M1, rawValueM1);
 401:Src/mc_tasks.c ****   }
 402:Src/mc_tasks.c ****   else
 403:Src/mc_tasks.c ****   {
 404:Src/mc_tasks.c ****     /* Nothing to do */
 405:Src/mc_tasks.c ****   }
 621              		.loc 1 405 3 is_stmt 1 view .LVU140
 406:Src/mc_tasks.c **** 
 407:Src/mc_tasks.c **** /* Due to warning array subscript 1 is above array bounds of PWMC_Handle_t *[1] [-Warray-bounds] */
 408:Src/mc_tasks.c ****    CodeReturn |= PWMC_IsFaultOccurred(pwmcHandle[lbmotor]);     /* check for fault. It return MC_OV
 622              		.loc 1 408 4 view .LVU141
 623              		.loc 1 408 18 is_stmt 0 view .LVU142
 624 0008 274D     		ldr	r5, .L72
 625 000a 2868     		ldr	r0, [r5]
 626              	.LVL40:
 627              		.loc 1 408 18 view .LVU143
 628 000c FFF7FEFF 		bl	PWMC_IsFaultOccurred
 629              	.LVL41:
 630 0010 0146     		mov	r1, r0
 631              	.LVL42:
 409:Src/mc_tasks.c ****                                                      (for STM32F30x can return MC_OVER_VOLT in case
 410:Src/mc_tasks.c **** 
 411:Src/mc_tasks.c ****   if (M1 == bMotor)
 632              		.loc 1 411 3 is_stmt 1 view .LVU144
ARM GAS  /tmp/cczKoiko.s 			page 21


 633              	.L64:
 412:Src/mc_tasks.c ****   {
 413:Src/mc_tasks.c ****     uint16_t rawValueM1 =  RCM_ExecRegularConv(&VbusRegConv_M1);
 414:Src/mc_tasks.c ****     CodeReturn |= errMask[bMotor] & RVBS_CalcAvVbus(&BusVoltageSensor_M1, rawValueM1);
 415:Src/mc_tasks.c ****   }
 416:Src/mc_tasks.c ****   else
 417:Src/mc_tasks.c ****   {
 418:Src/mc_tasks.c ****     /* Nothing to do */
 419:Src/mc_tasks.c ****   }
 634              		.loc 1 419 3 view .LVU145
 420:Src/mc_tasks.c ****   MCI_FaultProcessing(&Mci[bMotor], CodeReturn, ~CodeReturn); /* Process faults */
 635              		.loc 1 420 3 view .LVU146
 636 0012 2648     		ldr	r0, .L72+4
 637 0014 04EB8403 		add	r3, r4, r4, lsl #2
 638 0018 04EB4303 		add	r3, r4, r3, lsl #1
 639 001c CA43     		mvns	r2, r1
 640 001e 00EB8300 		add	r0, r0, r3, lsl #2
 641 0022 92B2     		uxth	r2, r2
 642 0024 0190     		str	r0, [sp, #4]
 643 0026 FFF7FEFF 		bl	MCI_FaultProcessing
 644              	.LVL43:
 421:Src/mc_tasks.c **** 
 422:Src/mc_tasks.c ****   if (MCI_GetFaultState(&Mci[bMotor]) != (uint32_t)MC_NO_FAULTS)
 645              		.loc 1 422 3 view .LVU147
 646              		.loc 1 422 7 is_stmt 0 view .LVU148
 647 002a 0198     		ldr	r0, [sp, #4]
 648 002c FFF7FEFF 		bl	MCI_GetFaultState
 649              	.LVL44:
 650              		.loc 1 422 6 view .LVU149
 651 0030 F0B9     		cbnz	r0, .L70
 423:Src/mc_tasks.c ****   {
 424:Src/mc_tasks.c ****       SCC_Stop(&SCC);
 425:Src/mc_tasks.c ****       OTT_Stop(&OTT);
 426:Src/mc_tasks.c ****     PWMC_SwitchOffPWM(pwmcHandle[bMotor]);
 427:Src/mc_tasks.c ****     if (MCPA_UART_A.Mark != 0U)
 428:Src/mc_tasks.c ****     {
 429:Src/mc_tasks.c ****       MCPA_flushDataLog (&MCPA_UART_A);
 430:Src/mc_tasks.c ****     }
 431:Src/mc_tasks.c ****     else
 432:Src/mc_tasks.c ****     {
 433:Src/mc_tasks.c ****       /* Nothing to do */
 434:Src/mc_tasks.c ****     }
 435:Src/mc_tasks.c ****     FOC_Clear(bMotor);
 436:Src/mc_tasks.c ****     /* USER CODE BEGIN TSK_SafetyTask_PWMOFF 1 */
 437:Src/mc_tasks.c **** 
 438:Src/mc_tasks.c ****     /* USER CODE END TSK_SafetyTask_PWMOFF 1 */
 439:Src/mc_tasks.c ****   }
 440:Src/mc_tasks.c ****   else
 441:Src/mc_tasks.c ****   {
 442:Src/mc_tasks.c ****     /* No errors */
 443:Src/mc_tasks.c ****   }
 444:Src/mc_tasks.c ****   /* USER CODE BEGIN TSK_SafetyTask_PWMOFF 3 */
 445:Src/mc_tasks.c **** 
 446:Src/mc_tasks.c ****   /* USER CODE END TSK_SafetyTask_PWMOFF 3 */
 447:Src/mc_tasks.c **** }
 652              		.loc 1 447 1 view .LVU150
 653 0032 02B0     		add	sp, sp, #8
ARM GAS  /tmp/cczKoiko.s 			page 22


 654              	.LCFI10:
 655              		.cfi_remember_state
 656              		.cfi_def_cfa_offset 16
 657              		@ sp needed
 658 0034 70BD     		pop	{r4, r5, r6, pc}
 659              	.LVL45:
 660              	.L69:
 661              	.LCFI11:
 662              		.cfi_restore_state
 663              	.LBB53:
 399:Src/mc_tasks.c ****     CodeReturn |= errMask[bMotor] & NTC_CalcAvTemp(&TempSensor_M1, rawValueM1);
 664              		.loc 1 399 5 is_stmt 1 view .LVU151
 399:Src/mc_tasks.c ****     CodeReturn |= errMask[bMotor] & NTC_CalcAvTemp(&TempSensor_M1, rawValueM1);
 665              		.loc 1 399 27 is_stmt 0 view .LVU152
 666 0036 1E48     		ldr	r0, .L72+8
 667              	.LVL46:
 399:Src/mc_tasks.c ****     CodeReturn |= errMask[bMotor] & NTC_CalcAvTemp(&TempSensor_M1, rawValueM1);
 668              		.loc 1 399 27 view .LVU153
 669              	.LBE53:
 408:Src/mc_tasks.c ****                                                      (for STM32F30x can return MC_OVER_VOLT in case
 670              		.loc 1 408 18 view .LVU154
 671 0038 1B4D     		ldr	r5, .L72
 672              	.LBB54:
 399:Src/mc_tasks.c ****     CodeReturn |= errMask[bMotor] & NTC_CalcAvTemp(&TempSensor_M1, rawValueM1);
 673              		.loc 1 399 27 view .LVU155
 674 003a FFF7FEFF 		bl	RCM_ExecRegularConv
 675              	.LVL47:
 676 003e 0146     		mov	r1, r0
 677              	.LVL48:
 400:Src/mc_tasks.c ****   }
 678              		.loc 1 400 5 is_stmt 1 view .LVU156
 400:Src/mc_tasks.c ****   }
 679              		.loc 1 400 37 is_stmt 0 view .LVU157
 680 0040 1C48     		ldr	r0, .L72+12
 681 0042 FFF7FEFF 		bl	NTC_CalcAvTemp
 682              	.LVL49:
 400:Src/mc_tasks.c ****   }
 683              		.loc 1 400 37 view .LVU158
 684 0046 0646     		mov	r6, r0
 685              	.LVL50:
 400:Src/mc_tasks.c ****   }
 686              		.loc 1 400 37 view .LVU159
 687              	.LBE54:
 405:Src/mc_tasks.c **** 
 688              		.loc 1 405 3 is_stmt 1 view .LVU160
 408:Src/mc_tasks.c ****                                                      (for STM32F30x can return MC_OVER_VOLT in case
 689              		.loc 1 408 4 view .LVU161
 408:Src/mc_tasks.c ****                                                      (for STM32F30x can return MC_OVER_VOLT in case
 690              		.loc 1 408 18 is_stmt 0 view .LVU162
 691 0048 2868     		ldr	r0, [r5]
 692 004a FFF7FEFF 		bl	PWMC_IsFaultOccurred
 693              	.LVL51:
 694              	.LBB55:
 400:Src/mc_tasks.c ****   }
 695              		.loc 1 400 35 view .LVU163
 696 004e 06F00E06 		and	r6, r6, #14
 697              	.LVL52:
ARM GAS  /tmp/cczKoiko.s 			page 23


 400:Src/mc_tasks.c ****   }
 698              		.loc 1 400 35 view .LVU164
 699              	.LBE55:
 408:Src/mc_tasks.c ****                                                      (for STM32F30x can return MC_OVER_VOLT in case
 700              		.loc 1 408 15 view .LVU165
 701 0052 40EA0601 		orr	r1, r0, r6
 702              	.LBB56:
 413:Src/mc_tasks.c ****     CodeReturn |= errMask[bMotor] & RVBS_CalcAvVbus(&BusVoltageSensor_M1, rawValueM1);
 703              		.loc 1 413 28 view .LVU166
 704 0056 1848     		ldr	r0, .L72+16
 705              	.LBE56:
 408:Src/mc_tasks.c ****                                                      (for STM32F30x can return MC_OVER_VOLT in case
 706              		.loc 1 408 15 view .LVU167
 707 0058 8EB2     		uxth	r6, r1
 708              	.LVL53:
 411:Src/mc_tasks.c ****   {
 709              		.loc 1 411 3 is_stmt 1 view .LVU168
 710              	.LBB57:
 413:Src/mc_tasks.c ****     CodeReturn |= errMask[bMotor] & RVBS_CalcAvVbus(&BusVoltageSensor_M1, rawValueM1);
 711              		.loc 1 413 5 view .LVU169
 413:Src/mc_tasks.c ****     CodeReturn |= errMask[bMotor] & RVBS_CalcAvVbus(&BusVoltageSensor_M1, rawValueM1);
 712              		.loc 1 413 28 is_stmt 0 view .LVU170
 713 005a FFF7FEFF 		bl	RCM_ExecRegularConv
 714              	.LVL54:
 715 005e 0146     		mov	r1, r0
 716              	.LVL55:
 414:Src/mc_tasks.c ****   }
 717              		.loc 1 414 5 is_stmt 1 view .LVU171
 414:Src/mc_tasks.c ****   }
 718              		.loc 1 414 37 is_stmt 0 view .LVU172
 719 0060 1648     		ldr	r0, .L72+20
 720 0062 FFF7FEFF 		bl	RVBS_CalcAvVbus
 721              	.LVL56:
 414:Src/mc_tasks.c ****   }
 722              		.loc 1 414 35 view .LVU173
 723 0066 00F00E00 		and	r0, r0, #14
 414:Src/mc_tasks.c ****   }
 724              		.loc 1 414 16 view .LVU174
 725 006a 40EA0601 		orr	r1, r0, r6
 726              	.LVL57:
 414:Src/mc_tasks.c ****   }
 727              		.loc 1 414 16 view .LVU175
 728              	.LBE57:
 729 006e D0E7     		b	.L64
 730              	.LVL58:
 731              	.L70:
 424:Src/mc_tasks.c ****       OTT_Stop(&OTT);
 732              		.loc 1 424 7 is_stmt 1 view .LVU176
 733 0070 1348     		ldr	r0, .L72+24
 734 0072 FFF7FEFF 		bl	SCC_Stop
 735              	.LVL59:
 425:Src/mc_tasks.c ****     PWMC_SwitchOffPWM(pwmcHandle[bMotor]);
 736              		.loc 1 425 7 view .LVU177
 737 0076 1348     		ldr	r0, .L72+28
 738 0078 FFF7FEFF 		bl	OTT_Stop
 739              	.LVL60:
 426:Src/mc_tasks.c ****     if (MCPA_UART_A.Mark != 0U)
ARM GAS  /tmp/cczKoiko.s 			page 24


 740              		.loc 1 426 5 view .LVU178
 741 007c 55F82400 		ldr	r0, [r5, r4, lsl #2]
 742 0080 FFF7FEFF 		bl	PWMC_SwitchOffPWM
 743              	.LVL61:
 427:Src/mc_tasks.c ****     {
 744              		.loc 1 427 5 view .LVU179
 427:Src/mc_tasks.c ****     {
 745              		.loc 1 427 20 is_stmt 0 view .LVU180
 746 0084 1048     		ldr	r0, .L72+32
 427:Src/mc_tasks.c ****     {
 747              		.loc 1 427 8 view .LVU181
 748 0086 90F82930 		ldrb	r3, [r0, #41]	@ zero_extendqisi2
 749 008a 2BB9     		cbnz	r3, .L71
 434:Src/mc_tasks.c ****     FOC_Clear(bMotor);
 750              		.loc 1 434 5 is_stmt 1 view .LVU182
 435:Src/mc_tasks.c ****     /* USER CODE BEGIN TSK_SafetyTask_PWMOFF 1 */
 751              		.loc 1 435 5 view .LVU183
 752 008c 2046     		mov	r0, r4
 753              		.loc 1 447 1 is_stmt 0 view .LVU184
 754 008e 02B0     		add	sp, sp, #8
 755              	.LCFI12:
 756              		.cfi_remember_state
 757              		.cfi_def_cfa_offset 16
 758              		@ sp needed
 759 0090 BDE87040 		pop	{r4, r5, r6, lr}
 760              	.LCFI13:
 761              		.cfi_restore 14
 762              		.cfi_restore 6
 763              		.cfi_restore 5
 764              		.cfi_restore 4
 765              		.cfi_def_cfa_offset 0
 435:Src/mc_tasks.c ****     /* USER CODE BEGIN TSK_SafetyTask_PWMOFF 1 */
 766              		.loc 1 435 5 view .LVU185
 767 0094 FFF7FEBF 		b	FOC_Clear
 768              	.LVL62:
 769              	.L71:
 770              	.LCFI14:
 771              		.cfi_restore_state
 429:Src/mc_tasks.c ****     }
 772              		.loc 1 429 7 is_stmt 1 view .LVU186
 773 0098 FFF7FEFF 		bl	MCPA_flushDataLog
 774              	.LVL63:
 434:Src/mc_tasks.c ****     FOC_Clear(bMotor);
 775              		.loc 1 434 5 view .LVU187
 435:Src/mc_tasks.c ****     /* USER CODE BEGIN TSK_SafetyTask_PWMOFF 1 */
 776              		.loc 1 435 5 view .LVU188
 777 009c 2046     		mov	r0, r4
 778              		.loc 1 447 1 is_stmt 0 view .LVU189
 779 009e 02B0     		add	sp, sp, #8
 780              	.LCFI15:
 781              		.cfi_def_cfa_offset 16
 782              		@ sp needed
 783 00a0 BDE87040 		pop	{r4, r5, r6, lr}
 784              	.LCFI16:
 785              		.cfi_restore 14
 786              		.cfi_restore 6
 787              		.cfi_restore 5
ARM GAS  /tmp/cczKoiko.s 			page 25


 788              		.cfi_restore 4
 789              		.cfi_def_cfa_offset 0
 435:Src/mc_tasks.c ****     /* USER CODE BEGIN TSK_SafetyTask_PWMOFF 1 */
 790              		.loc 1 435 5 view .LVU190
 791 00a4 FFF7FEBF 		b	FOC_Clear
 792              	.LVL64:
 793              	.L73:
 794              		.align	2
 795              	.L72:
 796 00a8 00000000 		.word	pwmcHandle
 797 00ac 00000000 		.word	Mci
 798 00b0 00000000 		.word	TempRegConv_M1
 799 00b4 00000000 		.word	TempSensor_M1
 800 00b8 00000000 		.word	VbusRegConv_M1
 801 00bc 00000000 		.word	BusVoltageSensor_M1
 802 00c0 00000000 		.word	SCC
 803 00c4 00000000 		.word	OTT
 804 00c8 00000000 		.word	MCPA_UART_A
 805              		.cfi_endproc
 806              	.LFE1880:
 808              		.section	.text.TSK_SafetyTask,"ax",%progbits
 809              		.align	1
 810              		.p2align 2,,3
 811              		.weak	TSK_SafetyTask
 812              		.syntax unified
 813              		.thumb
 814              		.thumb_func
 815              		.fpu fpv4-sp-d16
 817              	TSK_SafetyTask:
 818              	.LFB1879:
 363:Src/mc_tasks.c ****   /* USER CODE BEGIN TSK_SafetyTask 0 */
 819              		.loc 1 363 1 is_stmt 1 view -0
 820              		.cfi_startproc
 821              		@ args = 0, pretend = 0, frame = 0
 822              		@ frame_needed = 0, uses_anonymous_args = 0
 367:Src/mc_tasks.c ****   {
 823              		.loc 1 367 3 view .LVU192
 363:Src/mc_tasks.c ****   /* USER CODE BEGIN TSK_SafetyTask 0 */
 824              		.loc 1 363 1 is_stmt 0 view .LVU193
 825 0000 08B5     		push	{r3, lr}
 826              	.LCFI17:
 827              		.cfi_def_cfa_offset 8
 828              		.cfi_offset 3, -8
 829              		.cfi_offset 14, -4
 367:Src/mc_tasks.c ****   {
 830              		.loc 1 367 10 view .LVU194
 831 0002 074B     		ldr	r3, .L78
 832 0004 1B78     		ldrb	r3, [r3]	@ zero_extendqisi2
 367:Src/mc_tasks.c ****   {
 833              		.loc 1 367 6 view .LVU195
 834 0006 012B     		cmp	r3, #1
 835 0008 00D0     		beq	.L77
 381:Src/mc_tasks.c **** 
 836              		.loc 1 381 1 view .LVU196
 837 000a 08BD     		pop	{r3, pc}
 838              	.L77:
 839              	.LBB60:
ARM GAS  /tmp/cczKoiko.s 			page 26


 840              	.LBI60:
 362:Src/mc_tasks.c **** {
 841              		.loc 1 362 13 is_stmt 1 view .LVU197
 842              	.LBB61:
 369:Src/mc_tasks.c ****     TSK_SafetyTask_PWMOFF(M1);
 843              		.loc 1 369 5 view .LVU198
 844 000c 0548     		ldr	r0, .L78+4
 845 000e FFF7FEFF 		bl	SCC_CheckOC_RL
 846              	.LVL65:
 370:Src/mc_tasks.c ****     /* User conversion execution */
 847              		.loc 1 370 5 view .LVU199
 848 0012 0020     		movs	r0, #0
 849 0014 FFF7FEFF 		bl	TSK_SafetyTask_PWMOFF
 850              	.LVL66:
 372:Src/mc_tasks.c ****   /* USER CODE BEGIN TSK_SafetyTask 1 */
 851              		.loc 1 372 5 view .LVU200
 852              	.LBE61:
 853              	.LBE60:
 381:Src/mc_tasks.c **** 
 854              		.loc 1 381 1 is_stmt 0 view .LVU201
 855 0018 BDE80840 		pop	{r3, lr}
 856              	.LCFI18:
 857              		.cfi_restore 14
 858              		.cfi_restore 3
 859              		.cfi_def_cfa_offset 0
 860              	.LBB63:
 861              	.LBB62:
 372:Src/mc_tasks.c ****   /* USER CODE BEGIN TSK_SafetyTask 1 */
 862              		.loc 1 372 5 view .LVU202
 863 001c FFF7FEBF 		b	RCM_ExecUserConv
 864              	.LVL67:
 865              	.L79:
 866              		.align	2
 867              	.L78:
 868 0020 00000000 		.word	.LANCHOR0
 869 0024 00000000 		.word	SCC
 870              	.LBE62:
 871              	.LBE63:
 872              		.cfi_endproc
 873              	.LFE1879:
 875              		.section	.text.TSK_HardwareFaultTask,"ax",%progbits
 876              		.align	1
 877              		.p2align 2,,3
 878              		.weak	TSK_HardwareFaultTask
 879              		.syntax unified
 880              		.thumb
 881              		.thumb_func
 882              		.fpu fpv4-sp-d16
 884              	TSK_HardwareFaultTask:
 885              	.LFB1881:
 448:Src/mc_tasks.c **** 
 449:Src/mc_tasks.c **** /**
 450:Src/mc_tasks.c ****   * @brief  Puts the Motor Control subsystem in in safety conditions on a Hard Fault
 451:Src/mc_tasks.c ****   *
 452:Src/mc_tasks.c ****   *  This function is to be executed when a general hardware failure has been detected
 453:Src/mc_tasks.c ****   * by the microcontroller and is used to put the system in safety condition.
 454:Src/mc_tasks.c ****   */
ARM GAS  /tmp/cczKoiko.s 			page 27


 455:Src/mc_tasks.c **** __weak void TSK_HardwareFaultTask(void)
 456:Src/mc_tasks.c **** {
 886              		.loc 1 456 1 is_stmt 1 view -0
 887              		.cfi_startproc
 888              		@ args = 0, pretend = 0, frame = 0
 889              		@ frame_needed = 0, uses_anonymous_args = 0
 457:Src/mc_tasks.c ****   /* USER CODE BEGIN TSK_HardwareFaultTask 0 */
 458:Src/mc_tasks.c **** 
 459:Src/mc_tasks.c ****   /* USER CODE END TSK_HardwareFaultTask 0 */
 460:Src/mc_tasks.c ****   SCC_Stop(&SCC);
 890              		.loc 1 460 3 view .LVU204
 456:Src/mc_tasks.c ****   /* USER CODE BEGIN TSK_HardwareFaultTask 0 */
 891              		.loc 1 456 1 is_stmt 0 view .LVU205
 892 0000 08B5     		push	{r3, lr}
 893              	.LCFI19:
 894              		.cfi_def_cfa_offset 8
 895              		.cfi_offset 3, -8
 896              		.cfi_offset 14, -4
 897              		.loc 1 460 3 view .LVU206
 898 0002 0848     		ldr	r0, .L82
 899 0004 FFF7FEFF 		bl	SCC_Stop
 900              	.LVL68:
 461:Src/mc_tasks.c ****   OTT_Stop(&OTT);
 901              		.loc 1 461 3 is_stmt 1 view .LVU207
 902 0008 0748     		ldr	r0, .L82+4
 903 000a FFF7FEFF 		bl	OTT_Stop
 904              	.LVL69:
 462:Src/mc_tasks.c ****    FOC_Clear(M1);
 905              		.loc 1 462 4 view .LVU208
 906 000e 0020     		movs	r0, #0
 907 0010 FFF7FEFF 		bl	FOC_Clear
 908              	.LVL70:
 463:Src/mc_tasks.c ****   MCI_FaultProcessing(&Mci[M1], MC_SW_ERROR, 0);
 909              		.loc 1 463 3 view .LVU209
 464:Src/mc_tasks.c **** 
 465:Src/mc_tasks.c ****   /* USER CODE BEGIN TSK_HardwareFaultTask 1 */
 466:Src/mc_tasks.c **** 
 467:Src/mc_tasks.c ****   /* USER CODE END TSK_HardwareFaultTask 1 */
 468:Src/mc_tasks.c **** }
 910              		.loc 1 468 1 is_stmt 0 view .LVU210
 911 0014 BDE80840 		pop	{r3, lr}
 912              	.LCFI20:
 913              		.cfi_restore 14
 914              		.cfi_restore 3
 915              		.cfi_def_cfa_offset 0
 463:Src/mc_tasks.c ****   MCI_FaultProcessing(&Mci[M1], MC_SW_ERROR, 0);
 916              		.loc 1 463 3 view .LVU211
 917 0018 0448     		ldr	r0, .L82+8
 918 001a 0022     		movs	r2, #0
 919 001c 8021     		movs	r1, #128
 920 001e FFF7FEBF 		b	MCI_FaultProcessing
 921              	.LVL71:
 922              	.L83:
 923 0022 00BF     		.align	2
 924              	.L82:
 925 0024 00000000 		.word	SCC
 926 0028 00000000 		.word	OTT
ARM GAS  /tmp/cczKoiko.s 			page 28


 927 002c 00000000 		.word	Mci
 928              		.cfi_endproc
 929              	.LFE1881:
 931              		.section	.text.startMediumFrequencyTask,"ax",%progbits
 932              		.align	1
 933              		.p2align 2,,3
 934              		.global	startMediumFrequencyTask
 935              		.syntax unified
 936              		.thumb
 937              		.thumb_func
 938              		.fpu fpv4-sp-d16
 940              	startMediumFrequencyTask:
 941              	.LVL72:
 942              	.LFB1882:
 469:Src/mc_tasks.c **** 
 470:Src/mc_tasks.c **** /* startMediumFrequencyTask function */
 471:Src/mc_tasks.c **** void startMediumFrequencyTask(void const * argument)
 472:Src/mc_tasks.c **** {
 943              		.loc 1 472 1 is_stmt 1 view -0
 944              		.cfi_startproc
 945              		@ Volatile: function does not return.
 946              		@ args = 0, pretend = 0, frame = 0
 947              		@ frame_needed = 0, uses_anonymous_args = 0
 948              		.loc 1 472 1 is_stmt 0 view .LVU213
 949 0000 08B5     		push	{r3, lr}
 950              	.LCFI21:
 951              		.cfi_def_cfa_offset 8
 952              		.cfi_offset 3, -8
 953              		.cfi_offset 14, -4
 954              	.LBB64:
 955              	.LBB65:
 956              		.file 3 "Inc/mc_stm_types.h"
   1:Inc/mc_stm_types.h **** 
   2:Inc/mc_stm_types.h **** /**
   3:Inc/mc_stm_types.h ****   ******************************************************************************
   4:Inc/mc_stm_types.h ****   * @file    mc_stm_types.h
   5:Inc/mc_stm_types.h ****   * @author  Motor Control SDK Team, ST Microelectronics
   6:Inc/mc_stm_types.h ****   * @brief   Includes HAL/LL headers relevant to the current configuration.
   7:Inc/mc_stm_types.h ****   ******************************************************************************
   8:Inc/mc_stm_types.h ****   * @attention
   9:Inc/mc_stm_types.h ****   *
  10:Inc/mc_stm_types.h ****   * <h2><center>&copy; Copyright (c) 2024 STMicroelectronics.
  11:Inc/mc_stm_types.h ****   * All rights reserved.</center></h2>
  12:Inc/mc_stm_types.h ****   *
  13:Inc/mc_stm_types.h ****   * This software component is licensed by ST under Ultimate Liberty license
  14:Inc/mc_stm_types.h ****   * SLA0044, the "License"; You may not use this file except in compliance with
  15:Inc/mc_stm_types.h ****   * the License. You may obtain a copy of the License at:
  16:Inc/mc_stm_types.h ****   *                             www.st.com/SLA0044
  17:Inc/mc_stm_types.h ****   *
  18:Inc/mc_stm_types.h ****   ******************************************************************************
  19:Inc/mc_stm_types.h ****   */
  20:Inc/mc_stm_types.h **** #ifndef MC_STM_TYPES_H
  21:Inc/mc_stm_types.h **** #define MC_STM_TYPES_H
  22:Inc/mc_stm_types.h **** 
  23:Inc/mc_stm_types.h **** #ifdef FULL_MISRA_C_COMPLIANCY
  24:Inc/mc_stm_types.h **** #define FULL_MISRA_C_COMPLIANCY_ENC_SPD_POS
  25:Inc/mc_stm_types.h **** #define FULL_MISRA_C_COMPLIANCY_FWD_FDB
ARM GAS  /tmp/cczKoiko.s 			page 29


  26:Inc/mc_stm_types.h **** #define FULL_MISRA_C_COMPLIANCY_FLUX_WEAK
  27:Inc/mc_stm_types.h **** #define FULL_MISRA_C_COMPLIANCY_MAX_TOR
  28:Inc/mc_stm_types.h **** #define FULL_MISRA_C_COMPLIANCY_MC_MATH
  29:Inc/mc_stm_types.h **** #define FULL_MISRA_C_COMPLIANCY_NTC_TEMP
  30:Inc/mc_stm_types.h **** #define FULL_MISRA_C_COMPLIANCY_PID_REGULATOR
  31:Inc/mc_stm_types.h **** #define FULL_MISRA_C_COMPLIANCY_PFC
  32:Inc/mc_stm_types.h **** #define FULL_MISRA_C_COMPLIANCY_PWM_CURR
  33:Inc/mc_stm_types.h **** #define FULL_MISRA_C_COMPLIANCY_PW_CURR_FDB_OVM
  34:Inc/mc_stm_types.h **** #define FULL_MISRA_C_COMPLIANCY_SPD_TORQ_CTRL
  35:Inc/mc_stm_types.h **** #define FULL_MISRA_C_COMPLIANCY_STO_CORDIC
  36:Inc/mc_stm_types.h **** #define FULL_MISRA_C_COMPLIANCY_STO_PLL
  37:Inc/mc_stm_types.h **** #define FULL_MISRA_C_COMPLIANCY_VIRT_SPD_SENS
  38:Inc/mc_stm_types.h **** #endif
  39:Inc/mc_stm_types.h **** 
  40:Inc/mc_stm_types.h **** #ifdef NULL_PTR_CHECK
  41:Inc/mc_stm_types.h **** #define NULL_PTR_CHECK_ASP
  42:Inc/mc_stm_types.h **** #define NULL_PTR_CHECK_BUS_VOLT
  43:Inc/mc_stm_types.h **** #define NULL_PTR_CHECK_CRC_LIM
  44:Inc/mc_stm_types.h **** #define NULL_PTR_CHECK_DAC_UI
  45:Inc/mc_stm_types.h **** #define NULL_PTR_CHECK_DIG_OUT
  46:Inc/mc_stm_types.h **** #define NULL_PTR_CHECK_ENC_ALI_CTRL
  47:Inc/mc_stm_types.h **** #define NULL_PTR_CHECK_ENC_SPD_POS_FDB
  48:Inc/mc_stm_types.h **** #define NULL_PTR_CHECK_FEED_FWD_CTRL
  49:Inc/mc_stm_types.h **** #define NULL_PTR_CHECK_FLUX_WEAK
  50:Inc/mc_stm_types.h **** #define NULL_PTR_CHECK_HALL_SPD_POS_FDB
  51:Inc/mc_stm_types.h **** #define NULL_PTR_CHECK_MAX_TRQ_PER_AMP
  52:Inc/mc_stm_types.h **** #define NULL_PTR_CHECK_MCP
  53:Inc/mc_stm_types.h **** #define NULL_PTR_CHECK_MCPA
  54:Inc/mc_stm_types.h **** #define NULL_PTR_CHECK_MC_INT
  55:Inc/mc_stm_types.h **** #define NULL_PTR_CHECK_MC_PERF
  56:Inc/mc_stm_types.h **** #define NULL_PTR_CHECK_MOT_POW_MES
  57:Inc/mc_stm_types.h **** #define NULL_PTR_CHECK_NTC_TEMP_SENS
  58:Inc/mc_stm_types.h **** #define NULL_PTR_CHECK_OPEN_LOOP
  59:Inc/mc_stm_types.h **** #define NULL_PTR_CHECK_PID_REG
  60:Inc/mc_stm_types.h **** #define NULL_PTR_CHECK_POT
  61:Inc/mc_stm_types.h **** #define NULL_PTR_CHECK_POW_COM
  62:Inc/mc_stm_types.h **** #define NULL_PTR_CHECK_PQD_MOT_POW_MEAS
  63:Inc/mc_stm_types.h **** #define NULL_PTR_CHECK_PWR_CUR_FDB
  64:Inc/mc_stm_types.h **** #define NULL_PTR_CHECK_PWM_CUR_FDB_OVM
  65:Inc/mc_stm_types.h **** #define NULL_PTR_CHECK_RDIV_BUS_VLT_SNS
  66:Inc/mc_stm_types.h **** #define NULL_PTR_CHECK_REG_CON_MNG
  67:Inc/mc_stm_types.h **** #define NULL_PTR_CHECK_REG_INT
  68:Inc/mc_stm_types.h **** #define NULL_PTR_CHECK_REV_UP_CTL
  69:Inc/mc_stm_types.h **** #define NULL_PTR_CHECK_RMP_EXT_MNG
  70:Inc/mc_stm_types.h **** #define NULL_PTR_CHECK_R1_PS_PWR_CUR_FDB
  71:Inc/mc_stm_types.h **** #define NULL_PTR_CHECK_R3_2_PWM_CURR_FDB
  72:Inc/mc_stm_types.h **** #define NULL_PTR_CHECK_SPD_POS_FBK
  73:Inc/mc_stm_types.h **** #define NULL_PTR_CHECK_SPD_POT
  74:Inc/mc_stm_types.h **** #define NULL_PTR_CHECK_SPD_REG_POT
  75:Inc/mc_stm_types.h **** #define NULL_PTR_CHECK_SPD_TRQ_CTL
  76:Inc/mc_stm_types.h **** #define NULL_PTR_CHECK_STL_MNG
  77:Inc/mc_stm_types.h **** #define NULL_PTR_CHECK_STO_COR_SPD_POS_FDB
  78:Inc/mc_stm_types.h **** #define NULL_PTR_CHECK_STO_PLL_SPD_POS_FDB
  79:Inc/mc_stm_types.h **** #define NULL_PTR_CHECK_USA_ASP_DRV
  80:Inc/mc_stm_types.h **** #define NULL_PTR_CHECK_VIR_SPD_SEN
  81:Inc/mc_stm_types.h **** #endif
  82:Inc/mc_stm_types.h **** 
ARM GAS  /tmp/cczKoiko.s 			page 30


  83:Inc/mc_stm_types.h **** #ifndef USE_FULL_LL_DRIVER
  84:Inc/mc_stm_types.h **** #define USE_FULL_LL_DRIVER
  85:Inc/mc_stm_types.h **** #endif
  86:Inc/mc_stm_types.h **** 
  87:Inc/mc_stm_types.h ****   #include "stm32g4xx_ll_bus.h"
  88:Inc/mc_stm_types.h ****   #include "stm32g4xx_ll_rcc.h"
  89:Inc/mc_stm_types.h ****   #include "stm32g4xx_ll_system.h"
  90:Inc/mc_stm_types.h ****   #include "stm32g4xx_ll_adc.h"
  91:Inc/mc_stm_types.h ****   #include "stm32g4xx_ll_tim.h"
  92:Inc/mc_stm_types.h ****   #include "stm32g4xx_ll_gpio.h"
  93:Inc/mc_stm_types.h ****   #include "stm32g4xx_ll_usart.h"
  94:Inc/mc_stm_types.h ****   #include "stm32g4xx_ll_dac.h"
  95:Inc/mc_stm_types.h ****   #include "stm32g4xx_ll_dma.h"
  96:Inc/mc_stm_types.h ****   #include "stm32g4xx_ll_comp.h"
  97:Inc/mc_stm_types.h ****   #include "stm32g4xx_ll_opamp.h"
  98:Inc/mc_stm_types.h ****   #include "stm32g4xx_ll_cordic.h"
  99:Inc/mc_stm_types.h **** 
 100:Inc/mc_stm_types.h **** /* Make this define visible for all projects */
 101:Inc/mc_stm_types.h **** #define NBR_OF_MOTORS             1
 102:Inc/mc_stm_types.h **** 
 103:Inc/mc_stm_types.h **** __STATIC_INLINE void LL_DMA_ClearFlag_TC(DMA_TypeDef *DMAx, uint32_t Channel)
 104:Inc/mc_stm_types.h **** {
 105:Inc/mc_stm_types.h ****   if (NULL == DMAx)
 106:Inc/mc_stm_types.h ****   {
 107:Inc/mc_stm_types.h ****     /* Nothing to do */
 108:Inc/mc_stm_types.h ****   }
 109:Inc/mc_stm_types.h ****   else
 110:Inc/mc_stm_types.h ****   {
 111:Inc/mc_stm_types.h ****     /* Clear TC bits with bits position depending on parameter "Channel" */
 112:Inc/mc_stm_types.h ****     WRITE_REG (DMAx->IFCR, DMA_IFCR_CTCIF1 << ((Channel-LL_DMA_CHANNEL_1)<<2));
 113:Inc/mc_stm_types.h ****   }
 114:Inc/mc_stm_types.h **** }
 115:Inc/mc_stm_types.h **** 
 116:Inc/mc_stm_types.h **** //cstat !MISRAC2012-Rule-8.13
 117:Inc/mc_stm_types.h **** __STATIC_INLINE uint32_t LL_DMA_IsActiveFlag_TC(DMA_TypeDef *DMAx, uint32_t Channel)
 118:Inc/mc_stm_types.h **** {
 119:Inc/mc_stm_types.h ****   return ((NULL == DMAx) ? 0U : ((READ_BIT(DMAx->ISR,
 957              		.loc 3 119 35 view .LVU214
 958 0002 084C     		ldr	r4, .L91
 959              	.LBE65:
 960              	.LBE64:
 473:Src/mc_tasks.c ****   /* USER CODE BEGIN MF task 1 */
 474:Src/mc_tasks.c **** 
 475:Src/mc_tasks.c ****   /* Infinite loop */
 476:Src/mc_tasks.c ****   for(;;)
 477:Src/mc_tasks.c ****   {
 478:Src/mc_tasks.c ****     /* Delay of 500us */
 479:Src/mc_tasks.c ****     vTaskDelay(1);
 480:Src/mc_tasks.c **** 
 481:Src/mc_tasks.c ****     /* Buffer is ready by the HW layer to be processed */
 482:Src/mc_tasks.c ****     /* NO DMA interrupt */
 483:Src/mc_tasks.c ****     if (LL_DMA_IsActiveFlag_TC(DMA_RX_A, DMACH_RX_A))
 484:Src/mc_tasks.c ****     {
 485:Src/mc_tasks.c ****       LL_DMA_ClearFlag_TC(DMA_RX_A, DMACH_RX_A);
 486:Src/mc_tasks.c ****       ASPEP_HWDataReceivedIT(&aspepOverUartA);
 961              		.loc 1 486 7 view .LVU215
 962 0004 084D     		ldr	r5, .L91+4
ARM GAS  /tmp/cczKoiko.s 			page 31


 963              	.LVL73:
 964              	.L86:
 476:Src/mc_tasks.c ****   {
 965              		.loc 1 476 3 is_stmt 1 view .LVU216
 479:Src/mc_tasks.c **** 
 966              		.loc 1 479 5 view .LVU217
 967 0006 0120     		movs	r0, #1
 968 0008 FFF7FEFF 		bl	vTaskDelay
 969              	.LVL74:
 483:Src/mc_tasks.c ****     {
 970              		.loc 1 483 5 view .LVU218
 971              	.LBB67:
 972              	.LBI64:
 117:Inc/mc_stm_types.h **** {
 973              		.loc 3 117 26 view .LVU219
 974              	.LBB66:
 975              		.loc 3 119 3 view .LVU220
 976              		.loc 3 119 35 is_stmt 0 view .LVU221
 977 000c 2368     		ldr	r3, [r4]
 978              		.loc 3 119 31 view .LVU222
 979 000e 9B07     		lsls	r3, r3, #30
 980 0010 04D5     		bpl	.L85
 981              	.LVL75:
 982              		.loc 3 119 31 view .LVU223
 983              	.LBE66:
 984              	.LBE67:
 485:Src/mc_tasks.c ****       ASPEP_HWDataReceivedIT(&aspepOverUartA);
 985              		.loc 1 485 7 is_stmt 1 view .LVU224
 986              	.LBB68:
 987              	.LBI68:
 103:Inc/mc_stm_types.h **** {
 988              		.loc 3 103 22 view .LVU225
 989              	.LBB69:
 105:Inc/mc_stm_types.h ****   {
 990              		.loc 3 105 3 view .LVU226
 112:Inc/mc_stm_types.h ****   }
 991              		.loc 3 112 5 view .LVU227
 992 0012 0223     		movs	r3, #2
 993              	.LBE69:
 994              	.LBE68:
 995              		.loc 1 486 7 is_stmt 0 view .LVU228
 996 0014 2846     		mov	r0, r5
 997              	.LBB71:
 998              	.LBB70:
 112:Inc/mc_stm_types.h ****   }
 999              		.loc 3 112 5 view .LVU229
 1000 0016 6360     		str	r3, [r4, #4]
 1001              	.LVL76:
 112:Inc/mc_stm_types.h ****   }
 1002              		.loc 3 112 5 view .LVU230
 1003              	.LBE70:
 1004              	.LBE71:
 1005              		.loc 1 486 7 is_stmt 1 view .LVU231
 1006 0018 FFF7FEFF 		bl	ASPEP_HWDataReceivedIT
 1007              	.LVL77:
 1008              	.L85:
 487:Src/mc_tasks.c ****     }
ARM GAS  /tmp/cczKoiko.s 			page 32


 488:Src/mc_tasks.c ****     else
 489:Src/mc_tasks.c ****     {
 490:Src/mc_tasks.c ****       /* Nothing to do */
 491:Src/mc_tasks.c ****     }
 1009              		.loc 1 491 5 view .LVU232
 492:Src/mc_tasks.c **** 
 493:Src/mc_tasks.c ****     MC_RunMotorControlTasks();
 1010              		.loc 1 493 5 view .LVU233
 1011 001c FFF7FEFF 		bl	MC_RunMotorControlTasks
 1012              	.LVL78:
 476:Src/mc_tasks.c ****   {
 1013              		.loc 1 476 8 view .LVU234
 479:Src/mc_tasks.c **** 
 1014              		.loc 1 479 5 is_stmt 0 view .LVU235
 1015 0020 F1E7     		b	.L86
 1016              	.L92:
 1017 0022 00BF     		.align	2
 1018              	.L91:
 1019 0024 00000240 		.word	1073872896
 1020 0028 00000000 		.word	aspepOverUartA
 1021              		.cfi_endproc
 1022              	.LFE1882:
 1024              		.section	.text.StartSafetyTask,"ax",%progbits
 1025              		.align	1
 1026              		.p2align 2,,3
 1027              		.global	StartSafetyTask
 1028              		.syntax unified
 1029              		.thumb
 1030              		.thumb_func
 1031              		.fpu fpv4-sp-d16
 1033              	StartSafetyTask:
 1034              	.LFB1883:
 494:Src/mc_tasks.c ****   }
 495:Src/mc_tasks.c ****   /* USER CODE END MF task 1 */
 496:Src/mc_tasks.c **** }
 497:Src/mc_tasks.c **** 
 498:Src/mc_tasks.c **** /* startSafetyTask function */
 499:Src/mc_tasks.c **** void StartSafetyTask(void const * argument)
 500:Src/mc_tasks.c **** {
 1035              		.loc 1 500 1 is_stmt 1 view -0
 1036              		.cfi_startproc
 1037              		@ Volatile: function does not return.
 1038              		@ args = 0, pretend = 0, frame = 0
 1039              		@ frame_needed = 0, uses_anonymous_args = 0
 1040              	.LVL79:
 1041              		.loc 1 500 1 is_stmt 0 view .LVU237
 1042 0000 08B5     		push	{r3, lr}
 1043              	.LCFI22:
 1044              		.cfi_def_cfa_offset 8
 1045              		.cfi_offset 3, -8
 1046              		.cfi_offset 14, -4
 1047              	.LVL80:
 1048              	.L94:
 501:Src/mc_tasks.c ****   /* USER CODE BEGIN SF task 1 */
 502:Src/mc_tasks.c ****   /* Infinite loop */
 503:Src/mc_tasks.c ****   for(;;)
 1049              		.loc 1 503 3 is_stmt 1 discriminator 1 view .LVU238
ARM GAS  /tmp/cczKoiko.s 			page 33


 504:Src/mc_tasks.c ****   {
 505:Src/mc_tasks.c ****     /* Delay of 500us */
 506:Src/mc_tasks.c ****     vTaskDelay(1);
 1050              		.loc 1 506 5 discriminator 1 view .LVU239
 1051 0002 0120     		movs	r0, #1
 1052 0004 FFF7FEFF 		bl	vTaskDelay
 1053              	.LVL81:
 507:Src/mc_tasks.c ****     TSK_SafetyTask();
 1054              		.loc 1 507 5 discriminator 1 view .LVU240
 1055 0008 FFF7FEFF 		bl	TSK_SafetyTask
 1056              	.LVL82:
 503:Src/mc_tasks.c ****   {
 1057              		.loc 1 503 8 discriminator 1 view .LVU241
 1058 000c F9E7     		b	.L94
 1059              		.cfi_endproc
 1060              	.LFE1883:
 1062 000e 00BF     		.section	.text.UI_HandleStartStopButton_cb,"ax",%progbits
 1063              		.align	1
 1064              		.p2align 2,,3
 1065              		.weak	UI_HandleStartStopButton_cb
 1066              		.syntax unified
 1067              		.thumb
 1068              		.thumb_func
 1069              		.fpu fpv4-sp-d16
 1071              	UI_HandleStartStopButton_cb:
 1072              	.LFB1884:
 508:Src/mc_tasks.c ****   }
 509:Src/mc_tasks.c ****   /* USER CODE END SF task 1 */
 510:Src/mc_tasks.c **** }
 511:Src/mc_tasks.c **** 
 512:Src/mc_tasks.c **** __weak void UI_HandleStartStopButton_cb (void)
 513:Src/mc_tasks.c **** {
 1073              		.loc 1 513 1 view -0
 1074              		.cfi_startproc
 1075              		@ args = 0, pretend = 0, frame = 0
 1076              		@ frame_needed = 0, uses_anonymous_args = 0
 514:Src/mc_tasks.c **** /* USER CODE BEGIN START_STOP_BTN */
 515:Src/mc_tasks.c ****   if (IDLE == MC_GetSTMStateMotor1())
 1077              		.loc 1 515 3 view .LVU243
 513:Src/mc_tasks.c **** /* USER CODE BEGIN START_STOP_BTN */
 1078              		.loc 1 513 1 is_stmt 0 view .LVU244
 1079 0000 08B5     		push	{r3, lr}
 1080              	.LCFI23:
 1081              		.cfi_def_cfa_offset 8
 1082              		.cfi_offset 3, -8
 1083              		.cfi_offset 14, -4
 1084              		.loc 1 515 15 view .LVU245
 1085 0002 FFF7FEFF 		bl	MC_GetSTMStateMotor1
 1086              	.LVL83:
 1087              		.loc 1 515 6 view .LVU246
 1088 0006 18B9     		cbnz	r0, .L97
 516:Src/mc_tasks.c ****   {
 517:Src/mc_tasks.c ****     /* Ramp parameters should be tuned for the actual motor */
 518:Src/mc_tasks.c ****     (void)MC_StartMotor1();
 1089              		.loc 1 518 5 is_stmt 1 view .LVU247
 519:Src/mc_tasks.c ****   }
 520:Src/mc_tasks.c ****   else
ARM GAS  /tmp/cczKoiko.s 			page 34


 521:Src/mc_tasks.c ****   {
 522:Src/mc_tasks.c ****     (void)MC_StopMotor1();
 523:Src/mc_tasks.c ****   }
 524:Src/mc_tasks.c **** /* USER CODE END START_STOP_BTN */
 525:Src/mc_tasks.c **** }
 1090              		.loc 1 525 1 is_stmt 0 view .LVU248
 1091 0008 BDE80840 		pop	{r3, lr}
 1092              	.LCFI24:
 1093              		.cfi_remember_state
 1094              		.cfi_restore 14
 1095              		.cfi_restore 3
 1096              		.cfi_def_cfa_offset 0
 518:Src/mc_tasks.c ****   }
 1097              		.loc 1 518 11 view .LVU249
 1098 000c FFF7FEBF 		b	MC_StartMotor1
 1099              	.LVL84:
 1100              	.L97:
 1101              	.LCFI25:
 1102              		.cfi_restore_state
 522:Src/mc_tasks.c ****   }
 1103              		.loc 1 522 5 is_stmt 1 view .LVU250
 1104              		.loc 1 525 1 is_stmt 0 view .LVU251
 1105 0010 BDE80840 		pop	{r3, lr}
 1106              	.LCFI26:
 1107              		.cfi_restore 14
 1108              		.cfi_restore 3
 1109              		.cfi_def_cfa_offset 0
 522:Src/mc_tasks.c ****   }
 1110              		.loc 1 522 11 view .LVU252
 1111 0014 FFF7FEBF 		b	MC_StopMotor1
 1112              	.LVL85:
 1113              		.cfi_endproc
 1114              	.LFE1884:
 1116              		.section	.text.mc_lock_pins,"ax",%progbits
 1117              		.align	1
 1118              		.p2align 2,,3
 1119              		.weak	mc_lock_pins
 1120              		.syntax unified
 1121              		.thumb
 1122              		.thumb_func
 1123              		.fpu fpv4-sp-d16
 1125              	mc_lock_pins:
 1126              	.LFB1885:
 526:Src/mc_tasks.c **** 
 527:Src/mc_tasks.c ****  /**
 528:Src/mc_tasks.c ****   * @brief  Locks GPIO pins used for Motor Control to prevent accidental reconfiguration.
 529:Src/mc_tasks.c ****   */
 530:Src/mc_tasks.c **** __weak void mc_lock_pins (void)
 531:Src/mc_tasks.c **** {
 1127              		.loc 1 531 1 is_stmt 1 view -0
 1128              		.cfi_startproc
 1129              		@ args = 0, pretend = 0, frame = 64
 1130              		@ frame_needed = 0, uses_anonymous_args = 0
 1131              		@ link register save eliminated.
 532:Src/mc_tasks.c **** LL_GPIO_LockPin(M1_TEMPERATURE_GPIO_Port, M1_TEMPERATURE_Pin);
 1132              		.loc 1 532 1 view .LVU254
 1133              	.LVL86:
ARM GAS  /tmp/cczKoiko.s 			page 35


 1134              	.LBB72:
 1135              	.LBI72:
 1136              		.file 4 "Drivers/STM32G4xx_HAL_Driver/Inc/stm32g4xx_ll_gpio.h"
   1:Drivers/STM32G4xx_HAL_Driver/Inc/stm32g4xx_ll_gpio.h **** /**
   2:Drivers/STM32G4xx_HAL_Driver/Inc/stm32g4xx_ll_gpio.h ****   ******************************************************************************
   3:Drivers/STM32G4xx_HAL_Driver/Inc/stm32g4xx_ll_gpio.h ****   * @file    stm32g4xx_ll_gpio.h
   4:Drivers/STM32G4xx_HAL_Driver/Inc/stm32g4xx_ll_gpio.h ****   * @author  MCD Application Team
   5:Drivers/STM32G4xx_HAL_Driver/Inc/stm32g4xx_ll_gpio.h ****   * @brief   Header file of GPIO LL module.
   6:Drivers/STM32G4xx_HAL_Driver/Inc/stm32g4xx_ll_gpio.h ****   ******************************************************************************
   7:Drivers/STM32G4xx_HAL_Driver/Inc/stm32g4xx_ll_gpio.h ****   * @attention
   8:Drivers/STM32G4xx_HAL_Driver/Inc/stm32g4xx_ll_gpio.h ****   *
   9:Drivers/STM32G4xx_HAL_Driver/Inc/stm32g4xx_ll_gpio.h ****   * Copyright (c) 2019 STMicroelectronics.
  10:Drivers/STM32G4xx_HAL_Driver/Inc/stm32g4xx_ll_gpio.h ****   * All rights reserved.
  11:Drivers/STM32G4xx_HAL_Driver/Inc/stm32g4xx_ll_gpio.h ****   *
  12:Drivers/STM32G4xx_HAL_Driver/Inc/stm32g4xx_ll_gpio.h ****   * This software is licensed under terms that can be found in the LICENSE file
  13:Drivers/STM32G4xx_HAL_Driver/Inc/stm32g4xx_ll_gpio.h ****   * in the root directory of this software component.
  14:Drivers/STM32G4xx_HAL_Driver/Inc/stm32g4xx_ll_gpio.h ****   * If no LICENSE file comes with this software, it is provided AS-IS.
  15:Drivers/STM32G4xx_HAL_Driver/Inc/stm32g4xx_ll_gpio.h ****   *
  16:Drivers/STM32G4xx_HAL_Driver/Inc/stm32g4xx_ll_gpio.h ****   ******************************************************************************
  17:Drivers/STM32G4xx_HAL_Driver/Inc/stm32g4xx_ll_gpio.h ****   */
  18:Drivers/STM32G4xx_HAL_Driver/Inc/stm32g4xx_ll_gpio.h **** 
  19:Drivers/STM32G4xx_HAL_Driver/Inc/stm32g4xx_ll_gpio.h **** /* Define to prevent recursive inclusion -------------------------------------*/
  20:Drivers/STM32G4xx_HAL_Driver/Inc/stm32g4xx_ll_gpio.h **** #ifndef STM32G4xx_LL_GPIO_H
  21:Drivers/STM32G4xx_HAL_Driver/Inc/stm32g4xx_ll_gpio.h **** #define STM32G4xx_LL_GPIO_H
  22:Drivers/STM32G4xx_HAL_Driver/Inc/stm32g4xx_ll_gpio.h **** 
  23:Drivers/STM32G4xx_HAL_Driver/Inc/stm32g4xx_ll_gpio.h **** #ifdef __cplusplus
  24:Drivers/STM32G4xx_HAL_Driver/Inc/stm32g4xx_ll_gpio.h **** extern "C" {
  25:Drivers/STM32G4xx_HAL_Driver/Inc/stm32g4xx_ll_gpio.h **** #endif
  26:Drivers/STM32G4xx_HAL_Driver/Inc/stm32g4xx_ll_gpio.h **** 
  27:Drivers/STM32G4xx_HAL_Driver/Inc/stm32g4xx_ll_gpio.h **** /* Includes ------------------------------------------------------------------*/
  28:Drivers/STM32G4xx_HAL_Driver/Inc/stm32g4xx_ll_gpio.h **** #include "stm32g4xx.h"
  29:Drivers/STM32G4xx_HAL_Driver/Inc/stm32g4xx_ll_gpio.h **** 
  30:Drivers/STM32G4xx_HAL_Driver/Inc/stm32g4xx_ll_gpio.h **** /** @addtogroup STM32G4xx_LL_Driver
  31:Drivers/STM32G4xx_HAL_Driver/Inc/stm32g4xx_ll_gpio.h ****   * @{
  32:Drivers/STM32G4xx_HAL_Driver/Inc/stm32g4xx_ll_gpio.h ****   */
  33:Drivers/STM32G4xx_HAL_Driver/Inc/stm32g4xx_ll_gpio.h **** 
  34:Drivers/STM32G4xx_HAL_Driver/Inc/stm32g4xx_ll_gpio.h **** #if defined (GPIOA) || defined (GPIOB) || defined (GPIOC) || defined (GPIOD) || defined (GPIOE) || 
  35:Drivers/STM32G4xx_HAL_Driver/Inc/stm32g4xx_ll_gpio.h **** 
  36:Drivers/STM32G4xx_HAL_Driver/Inc/stm32g4xx_ll_gpio.h **** /** @defgroup GPIO_LL GPIO
  37:Drivers/STM32G4xx_HAL_Driver/Inc/stm32g4xx_ll_gpio.h ****   * @{
  38:Drivers/STM32G4xx_HAL_Driver/Inc/stm32g4xx_ll_gpio.h ****   */
  39:Drivers/STM32G4xx_HAL_Driver/Inc/stm32g4xx_ll_gpio.h **** /** MISRA C:2012 deviation rule has been granted for following rules:
  40:Drivers/STM32G4xx_HAL_Driver/Inc/stm32g4xx_ll_gpio.h ****   * Rule-18.1_d - Medium: Array pointer `GPIOx' is accessed with index [..,..]
  41:Drivers/STM32G4xx_HAL_Driver/Inc/stm32g4xx_ll_gpio.h ****   * which may be out of array bounds [..,UNKNOWN] in following APIs:
  42:Drivers/STM32G4xx_HAL_Driver/Inc/stm32g4xx_ll_gpio.h ****   * LL_GPIO_GetAFPin_0_7
  43:Drivers/STM32G4xx_HAL_Driver/Inc/stm32g4xx_ll_gpio.h ****   * LL_GPIO_SetAFPin_0_7
  44:Drivers/STM32G4xx_HAL_Driver/Inc/stm32g4xx_ll_gpio.h ****   * LL_GPIO_SetAFPin_8_15
  45:Drivers/STM32G4xx_HAL_Driver/Inc/stm32g4xx_ll_gpio.h ****   * LL_GPIO_GetAFPin_8_15
  46:Drivers/STM32G4xx_HAL_Driver/Inc/stm32g4xx_ll_gpio.h ****   */
  47:Drivers/STM32G4xx_HAL_Driver/Inc/stm32g4xx_ll_gpio.h **** 
  48:Drivers/STM32G4xx_HAL_Driver/Inc/stm32g4xx_ll_gpio.h **** /* Private types -------------------------------------------------------------*/
  49:Drivers/STM32G4xx_HAL_Driver/Inc/stm32g4xx_ll_gpio.h **** /* Private variables ---------------------------------------------------------*/
  50:Drivers/STM32G4xx_HAL_Driver/Inc/stm32g4xx_ll_gpio.h **** /* Private constants ---------------------------------------------------------*/
  51:Drivers/STM32G4xx_HAL_Driver/Inc/stm32g4xx_ll_gpio.h **** /* Private macros ------------------------------------------------------------*/
  52:Drivers/STM32G4xx_HAL_Driver/Inc/stm32g4xx_ll_gpio.h **** #if defined(USE_FULL_LL_DRIVER)
  53:Drivers/STM32G4xx_HAL_Driver/Inc/stm32g4xx_ll_gpio.h **** /** @defgroup GPIO_LL_Private_Macros GPIO Private Macros
  54:Drivers/STM32G4xx_HAL_Driver/Inc/stm32g4xx_ll_gpio.h ****   * @{
ARM GAS  /tmp/cczKoiko.s 			page 36


  55:Drivers/STM32G4xx_HAL_Driver/Inc/stm32g4xx_ll_gpio.h ****   */
  56:Drivers/STM32G4xx_HAL_Driver/Inc/stm32g4xx_ll_gpio.h **** 
  57:Drivers/STM32G4xx_HAL_Driver/Inc/stm32g4xx_ll_gpio.h **** /**
  58:Drivers/STM32G4xx_HAL_Driver/Inc/stm32g4xx_ll_gpio.h ****   * @}
  59:Drivers/STM32G4xx_HAL_Driver/Inc/stm32g4xx_ll_gpio.h ****   */
  60:Drivers/STM32G4xx_HAL_Driver/Inc/stm32g4xx_ll_gpio.h **** #endif /*USE_FULL_LL_DRIVER*/
  61:Drivers/STM32G4xx_HAL_Driver/Inc/stm32g4xx_ll_gpio.h **** 
  62:Drivers/STM32G4xx_HAL_Driver/Inc/stm32g4xx_ll_gpio.h **** /* Exported types ------------------------------------------------------------*/
  63:Drivers/STM32G4xx_HAL_Driver/Inc/stm32g4xx_ll_gpio.h **** #if defined(USE_FULL_LL_DRIVER)
  64:Drivers/STM32G4xx_HAL_Driver/Inc/stm32g4xx_ll_gpio.h **** /** @defgroup GPIO_LL_ES_INIT GPIO Exported Init structures
  65:Drivers/STM32G4xx_HAL_Driver/Inc/stm32g4xx_ll_gpio.h ****   * @{
  66:Drivers/STM32G4xx_HAL_Driver/Inc/stm32g4xx_ll_gpio.h ****   */
  67:Drivers/STM32G4xx_HAL_Driver/Inc/stm32g4xx_ll_gpio.h **** 
  68:Drivers/STM32G4xx_HAL_Driver/Inc/stm32g4xx_ll_gpio.h **** /**
  69:Drivers/STM32G4xx_HAL_Driver/Inc/stm32g4xx_ll_gpio.h ****   * @brief LL GPIO Init Structure definition
  70:Drivers/STM32G4xx_HAL_Driver/Inc/stm32g4xx_ll_gpio.h ****   */
  71:Drivers/STM32G4xx_HAL_Driver/Inc/stm32g4xx_ll_gpio.h **** typedef struct
  72:Drivers/STM32G4xx_HAL_Driver/Inc/stm32g4xx_ll_gpio.h **** {
  73:Drivers/STM32G4xx_HAL_Driver/Inc/stm32g4xx_ll_gpio.h ****   uint32_t Pin;          /*!< Specifies the GPIO pins to be configured.
  74:Drivers/STM32G4xx_HAL_Driver/Inc/stm32g4xx_ll_gpio.h ****                               This parameter can be any value of @ref GPIO_LL_EC_PIN */
  75:Drivers/STM32G4xx_HAL_Driver/Inc/stm32g4xx_ll_gpio.h **** 
  76:Drivers/STM32G4xx_HAL_Driver/Inc/stm32g4xx_ll_gpio.h ****   uint32_t Mode;         /*!< Specifies the operating mode for the selected pins.
  77:Drivers/STM32G4xx_HAL_Driver/Inc/stm32g4xx_ll_gpio.h ****                               This parameter can be a value of @ref GPIO_LL_EC_MODE.
  78:Drivers/STM32G4xx_HAL_Driver/Inc/stm32g4xx_ll_gpio.h **** 
  79:Drivers/STM32G4xx_HAL_Driver/Inc/stm32g4xx_ll_gpio.h ****                               GPIO HW configuration can be modified afterwards using unitary functi
  80:Drivers/STM32G4xx_HAL_Driver/Inc/stm32g4xx_ll_gpio.h **** 
  81:Drivers/STM32G4xx_HAL_Driver/Inc/stm32g4xx_ll_gpio.h ****   uint32_t Speed;        /*!< Specifies the speed for the selected pins.
  82:Drivers/STM32G4xx_HAL_Driver/Inc/stm32g4xx_ll_gpio.h ****                               This parameter can be a value of @ref GPIO_LL_EC_SPEED.
  83:Drivers/STM32G4xx_HAL_Driver/Inc/stm32g4xx_ll_gpio.h **** 
  84:Drivers/STM32G4xx_HAL_Driver/Inc/stm32g4xx_ll_gpio.h ****                               GPIO HW configuration can be modified afterwards using unitary functi
  85:Drivers/STM32G4xx_HAL_Driver/Inc/stm32g4xx_ll_gpio.h **** 
  86:Drivers/STM32G4xx_HAL_Driver/Inc/stm32g4xx_ll_gpio.h ****   uint32_t OutputType;   /*!< Specifies the operating output type for the selected pins.
  87:Drivers/STM32G4xx_HAL_Driver/Inc/stm32g4xx_ll_gpio.h ****                               This parameter can be a value of @ref GPIO_LL_EC_OUTPUT.
  88:Drivers/STM32G4xx_HAL_Driver/Inc/stm32g4xx_ll_gpio.h **** 
  89:Drivers/STM32G4xx_HAL_Driver/Inc/stm32g4xx_ll_gpio.h ****                               GPIO HW configuration can be modified afterwards using unitary functi
  90:Drivers/STM32G4xx_HAL_Driver/Inc/stm32g4xx_ll_gpio.h **** 
  91:Drivers/STM32G4xx_HAL_Driver/Inc/stm32g4xx_ll_gpio.h ****   uint32_t Pull;         /*!< Specifies the operating Pull-up/Pull down for the selected pins.
  92:Drivers/STM32G4xx_HAL_Driver/Inc/stm32g4xx_ll_gpio.h ****                               This parameter can be a value of @ref GPIO_LL_EC_PULL.
  93:Drivers/STM32G4xx_HAL_Driver/Inc/stm32g4xx_ll_gpio.h **** 
  94:Drivers/STM32G4xx_HAL_Driver/Inc/stm32g4xx_ll_gpio.h ****                               GPIO HW configuration can be modified afterwards using unitary functi
  95:Drivers/STM32G4xx_HAL_Driver/Inc/stm32g4xx_ll_gpio.h **** 
  96:Drivers/STM32G4xx_HAL_Driver/Inc/stm32g4xx_ll_gpio.h ****   uint32_t Alternate;    /*!< Specifies the Peripheral to be connected to the selected pins.
  97:Drivers/STM32G4xx_HAL_Driver/Inc/stm32g4xx_ll_gpio.h ****                               This parameter can be a value of @ref GPIO_LL_EC_AF.
  98:Drivers/STM32G4xx_HAL_Driver/Inc/stm32g4xx_ll_gpio.h **** 
  99:Drivers/STM32G4xx_HAL_Driver/Inc/stm32g4xx_ll_gpio.h ****                               GPIO HW configuration can be modified afterwards using unitary functi
 100:Drivers/STM32G4xx_HAL_Driver/Inc/stm32g4xx_ll_gpio.h **** } LL_GPIO_InitTypeDef;
 101:Drivers/STM32G4xx_HAL_Driver/Inc/stm32g4xx_ll_gpio.h **** 
 102:Drivers/STM32G4xx_HAL_Driver/Inc/stm32g4xx_ll_gpio.h **** /**
 103:Drivers/STM32G4xx_HAL_Driver/Inc/stm32g4xx_ll_gpio.h ****   * @}
 104:Drivers/STM32G4xx_HAL_Driver/Inc/stm32g4xx_ll_gpio.h ****   */
 105:Drivers/STM32G4xx_HAL_Driver/Inc/stm32g4xx_ll_gpio.h **** #endif /* USE_FULL_LL_DRIVER */
 106:Drivers/STM32G4xx_HAL_Driver/Inc/stm32g4xx_ll_gpio.h **** 
 107:Drivers/STM32G4xx_HAL_Driver/Inc/stm32g4xx_ll_gpio.h **** /* Exported constants --------------------------------------------------------*/
 108:Drivers/STM32G4xx_HAL_Driver/Inc/stm32g4xx_ll_gpio.h **** /** @defgroup GPIO_LL_Exported_Constants GPIO Exported Constants
 109:Drivers/STM32G4xx_HAL_Driver/Inc/stm32g4xx_ll_gpio.h ****   * @{
 110:Drivers/STM32G4xx_HAL_Driver/Inc/stm32g4xx_ll_gpio.h ****   */
 111:Drivers/STM32G4xx_HAL_Driver/Inc/stm32g4xx_ll_gpio.h **** 
ARM GAS  /tmp/cczKoiko.s 			page 37


 112:Drivers/STM32G4xx_HAL_Driver/Inc/stm32g4xx_ll_gpio.h **** /** @defgroup GPIO_LL_EC_PIN PIN
 113:Drivers/STM32G4xx_HAL_Driver/Inc/stm32g4xx_ll_gpio.h ****   * @{
 114:Drivers/STM32G4xx_HAL_Driver/Inc/stm32g4xx_ll_gpio.h ****   */
 115:Drivers/STM32G4xx_HAL_Driver/Inc/stm32g4xx_ll_gpio.h **** #define LL_GPIO_PIN_0                      GPIO_BSRR_BS0 /*!< Select pin 0 */
 116:Drivers/STM32G4xx_HAL_Driver/Inc/stm32g4xx_ll_gpio.h **** #define LL_GPIO_PIN_1                      GPIO_BSRR_BS1 /*!< Select pin 1 */
 117:Drivers/STM32G4xx_HAL_Driver/Inc/stm32g4xx_ll_gpio.h **** #define LL_GPIO_PIN_2                      GPIO_BSRR_BS2 /*!< Select pin 2 */
 118:Drivers/STM32G4xx_HAL_Driver/Inc/stm32g4xx_ll_gpio.h **** #define LL_GPIO_PIN_3                      GPIO_BSRR_BS3 /*!< Select pin 3 */
 119:Drivers/STM32G4xx_HAL_Driver/Inc/stm32g4xx_ll_gpio.h **** #define LL_GPIO_PIN_4                      GPIO_BSRR_BS4 /*!< Select pin 4 */
 120:Drivers/STM32G4xx_HAL_Driver/Inc/stm32g4xx_ll_gpio.h **** #define LL_GPIO_PIN_5                      GPIO_BSRR_BS5 /*!< Select pin 5 */
 121:Drivers/STM32G4xx_HAL_Driver/Inc/stm32g4xx_ll_gpio.h **** #define LL_GPIO_PIN_6                      GPIO_BSRR_BS6 /*!< Select pin 6 */
 122:Drivers/STM32G4xx_HAL_Driver/Inc/stm32g4xx_ll_gpio.h **** #define LL_GPIO_PIN_7                      GPIO_BSRR_BS7 /*!< Select pin 7 */
 123:Drivers/STM32G4xx_HAL_Driver/Inc/stm32g4xx_ll_gpio.h **** #define LL_GPIO_PIN_8                      GPIO_BSRR_BS8 /*!< Select pin 8 */
 124:Drivers/STM32G4xx_HAL_Driver/Inc/stm32g4xx_ll_gpio.h **** #define LL_GPIO_PIN_9                      GPIO_BSRR_BS9 /*!< Select pin 9 */
 125:Drivers/STM32G4xx_HAL_Driver/Inc/stm32g4xx_ll_gpio.h **** #define LL_GPIO_PIN_10                     GPIO_BSRR_BS10 /*!< Select pin 10 */
 126:Drivers/STM32G4xx_HAL_Driver/Inc/stm32g4xx_ll_gpio.h **** #define LL_GPIO_PIN_11                     GPIO_BSRR_BS11 /*!< Select pin 11 */
 127:Drivers/STM32G4xx_HAL_Driver/Inc/stm32g4xx_ll_gpio.h **** #define LL_GPIO_PIN_12                     GPIO_BSRR_BS12 /*!< Select pin 12 */
 128:Drivers/STM32G4xx_HAL_Driver/Inc/stm32g4xx_ll_gpio.h **** #define LL_GPIO_PIN_13                     GPIO_BSRR_BS13 /*!< Select pin 13 */
 129:Drivers/STM32G4xx_HAL_Driver/Inc/stm32g4xx_ll_gpio.h **** #define LL_GPIO_PIN_14                     GPIO_BSRR_BS14 /*!< Select pin 14 */
 130:Drivers/STM32G4xx_HAL_Driver/Inc/stm32g4xx_ll_gpio.h **** #define LL_GPIO_PIN_15                     GPIO_BSRR_BS15 /*!< Select pin 15 */
 131:Drivers/STM32G4xx_HAL_Driver/Inc/stm32g4xx_ll_gpio.h **** #define LL_GPIO_PIN_ALL                    (GPIO_BSRR_BS0 | GPIO_BSRR_BS1  | GPIO_BSRR_BS2  | \
 132:Drivers/STM32G4xx_HAL_Driver/Inc/stm32g4xx_ll_gpio.h ****                                            GPIO_BSRR_BS3  | GPIO_BSRR_BS4  | GPIO_BSRR_BS5  | \
 133:Drivers/STM32G4xx_HAL_Driver/Inc/stm32g4xx_ll_gpio.h ****                                            GPIO_BSRR_BS6  | GPIO_BSRR_BS7  | GPIO_BSRR_BS8  | \
 134:Drivers/STM32G4xx_HAL_Driver/Inc/stm32g4xx_ll_gpio.h ****                                            GPIO_BSRR_BS9  | GPIO_BSRR_BS10 | GPIO_BSRR_BS11 | \
 135:Drivers/STM32G4xx_HAL_Driver/Inc/stm32g4xx_ll_gpio.h ****                                            GPIO_BSRR_BS12 | GPIO_BSRR_BS13 | GPIO_BSRR_BS14 | \
 136:Drivers/STM32G4xx_HAL_Driver/Inc/stm32g4xx_ll_gpio.h ****                                            GPIO_BSRR_BS15) /*!< Select all pins */
 137:Drivers/STM32G4xx_HAL_Driver/Inc/stm32g4xx_ll_gpio.h **** /**
 138:Drivers/STM32G4xx_HAL_Driver/Inc/stm32g4xx_ll_gpio.h ****   * @}
 139:Drivers/STM32G4xx_HAL_Driver/Inc/stm32g4xx_ll_gpio.h ****   */
 140:Drivers/STM32G4xx_HAL_Driver/Inc/stm32g4xx_ll_gpio.h **** 
 141:Drivers/STM32G4xx_HAL_Driver/Inc/stm32g4xx_ll_gpio.h **** /** @defgroup GPIO_LL_EC_MODE Mode
 142:Drivers/STM32G4xx_HAL_Driver/Inc/stm32g4xx_ll_gpio.h ****   * @{
 143:Drivers/STM32G4xx_HAL_Driver/Inc/stm32g4xx_ll_gpio.h ****   */
 144:Drivers/STM32G4xx_HAL_Driver/Inc/stm32g4xx_ll_gpio.h **** #define LL_GPIO_MODE_INPUT                 (0x00000000U) /*!< Select input mode */
 145:Drivers/STM32G4xx_HAL_Driver/Inc/stm32g4xx_ll_gpio.h **** #define LL_GPIO_MODE_OUTPUT                GPIO_MODER_MODE0_0  /*!< Select output mode */
 146:Drivers/STM32G4xx_HAL_Driver/Inc/stm32g4xx_ll_gpio.h **** #define LL_GPIO_MODE_ALTERNATE             GPIO_MODER_MODE0_1  /*!< Select alternate function mode 
 147:Drivers/STM32G4xx_HAL_Driver/Inc/stm32g4xx_ll_gpio.h **** #define LL_GPIO_MODE_ANALOG                GPIO_MODER_MODE0    /*!< Select analog mode */
 148:Drivers/STM32G4xx_HAL_Driver/Inc/stm32g4xx_ll_gpio.h **** /**
 149:Drivers/STM32G4xx_HAL_Driver/Inc/stm32g4xx_ll_gpio.h ****   * @}
 150:Drivers/STM32G4xx_HAL_Driver/Inc/stm32g4xx_ll_gpio.h ****   */
 151:Drivers/STM32G4xx_HAL_Driver/Inc/stm32g4xx_ll_gpio.h **** 
 152:Drivers/STM32G4xx_HAL_Driver/Inc/stm32g4xx_ll_gpio.h **** /** @defgroup GPIO_LL_EC_OUTPUT Output Type
 153:Drivers/STM32G4xx_HAL_Driver/Inc/stm32g4xx_ll_gpio.h ****   * @{
 154:Drivers/STM32G4xx_HAL_Driver/Inc/stm32g4xx_ll_gpio.h ****   */
 155:Drivers/STM32G4xx_HAL_Driver/Inc/stm32g4xx_ll_gpio.h **** #define LL_GPIO_OUTPUT_PUSHPULL            (0x00000000U) /*!< Select push-pull as output type */
 156:Drivers/STM32G4xx_HAL_Driver/Inc/stm32g4xx_ll_gpio.h **** #define LL_GPIO_OUTPUT_OPENDRAIN           GPIO_OTYPER_OT0 /*!< Select open-drain as output type */
 157:Drivers/STM32G4xx_HAL_Driver/Inc/stm32g4xx_ll_gpio.h **** /**
 158:Drivers/STM32G4xx_HAL_Driver/Inc/stm32g4xx_ll_gpio.h ****   * @}
 159:Drivers/STM32G4xx_HAL_Driver/Inc/stm32g4xx_ll_gpio.h ****   */
 160:Drivers/STM32G4xx_HAL_Driver/Inc/stm32g4xx_ll_gpio.h **** 
 161:Drivers/STM32G4xx_HAL_Driver/Inc/stm32g4xx_ll_gpio.h **** /** @defgroup GPIO_LL_EC_SPEED Output Speed
 162:Drivers/STM32G4xx_HAL_Driver/Inc/stm32g4xx_ll_gpio.h ****   * @{
 163:Drivers/STM32G4xx_HAL_Driver/Inc/stm32g4xx_ll_gpio.h ****   */
 164:Drivers/STM32G4xx_HAL_Driver/Inc/stm32g4xx_ll_gpio.h **** #define LL_GPIO_SPEED_FREQ_LOW             (0x00000000U) /*!< Select I/O low output speed    */
 165:Drivers/STM32G4xx_HAL_Driver/Inc/stm32g4xx_ll_gpio.h **** #define LL_GPIO_SPEED_FREQ_MEDIUM          GPIO_OSPEEDR_OSPEED0_0 /*!< Select I/O medium output spe
 166:Drivers/STM32G4xx_HAL_Driver/Inc/stm32g4xx_ll_gpio.h **** #define LL_GPIO_SPEED_FREQ_HIGH            GPIO_OSPEEDR_OSPEED0_1 /*!< Select I/O fast output speed
 167:Drivers/STM32G4xx_HAL_Driver/Inc/stm32g4xx_ll_gpio.h **** #define LL_GPIO_SPEED_FREQ_VERY_HIGH       GPIO_OSPEEDR_OSPEED0   /*!< Select I/O high output speed
 168:Drivers/STM32G4xx_HAL_Driver/Inc/stm32g4xx_ll_gpio.h **** /**
ARM GAS  /tmp/cczKoiko.s 			page 38


 169:Drivers/STM32G4xx_HAL_Driver/Inc/stm32g4xx_ll_gpio.h ****   * @}
 170:Drivers/STM32G4xx_HAL_Driver/Inc/stm32g4xx_ll_gpio.h ****   */
 171:Drivers/STM32G4xx_HAL_Driver/Inc/stm32g4xx_ll_gpio.h **** #define LL_GPIO_SPEED_LOW                  LL_GPIO_SPEED_FREQ_LOW
 172:Drivers/STM32G4xx_HAL_Driver/Inc/stm32g4xx_ll_gpio.h **** #define LL_GPIO_SPEED_MEDIUM               LL_GPIO_SPEED_FREQ_MEDIUM
 173:Drivers/STM32G4xx_HAL_Driver/Inc/stm32g4xx_ll_gpio.h **** #define LL_GPIO_SPEED_FAST                 LL_GPIO_SPEED_FREQ_HIGH
 174:Drivers/STM32G4xx_HAL_Driver/Inc/stm32g4xx_ll_gpio.h **** #define LL_GPIO_SPEED_HIGH                 LL_GPIO_SPEED_FREQ_VERY_HIGH
 175:Drivers/STM32G4xx_HAL_Driver/Inc/stm32g4xx_ll_gpio.h **** 
 176:Drivers/STM32G4xx_HAL_Driver/Inc/stm32g4xx_ll_gpio.h **** /** @defgroup GPIO_LL_EC_PULL Pull Up Pull Down
 177:Drivers/STM32G4xx_HAL_Driver/Inc/stm32g4xx_ll_gpio.h ****   * @{
 178:Drivers/STM32G4xx_HAL_Driver/Inc/stm32g4xx_ll_gpio.h ****   */
 179:Drivers/STM32G4xx_HAL_Driver/Inc/stm32g4xx_ll_gpio.h **** #define LL_GPIO_PULL_NO                    (0x00000000U) /*!< Select I/O no pull */
 180:Drivers/STM32G4xx_HAL_Driver/Inc/stm32g4xx_ll_gpio.h **** #define LL_GPIO_PULL_UP                    GPIO_PUPDR_PUPD0_0 /*!< Select I/O pull up */
 181:Drivers/STM32G4xx_HAL_Driver/Inc/stm32g4xx_ll_gpio.h **** #define LL_GPIO_PULL_DOWN                  GPIO_PUPDR_PUPD0_1 /*!< Select I/O pull down */
 182:Drivers/STM32G4xx_HAL_Driver/Inc/stm32g4xx_ll_gpio.h **** /**
 183:Drivers/STM32G4xx_HAL_Driver/Inc/stm32g4xx_ll_gpio.h ****   * @}
 184:Drivers/STM32G4xx_HAL_Driver/Inc/stm32g4xx_ll_gpio.h ****   */
 185:Drivers/STM32G4xx_HAL_Driver/Inc/stm32g4xx_ll_gpio.h **** 
 186:Drivers/STM32G4xx_HAL_Driver/Inc/stm32g4xx_ll_gpio.h **** /** @defgroup GPIO_LL_EC_AF Alternate Function
 187:Drivers/STM32G4xx_HAL_Driver/Inc/stm32g4xx_ll_gpio.h ****   * @{
 188:Drivers/STM32G4xx_HAL_Driver/Inc/stm32g4xx_ll_gpio.h ****   */
 189:Drivers/STM32G4xx_HAL_Driver/Inc/stm32g4xx_ll_gpio.h **** #define LL_GPIO_AF_0                       (0x0000000U) /*!< Select alternate function 0 */
 190:Drivers/STM32G4xx_HAL_Driver/Inc/stm32g4xx_ll_gpio.h **** #define LL_GPIO_AF_1                       (0x0000001U) /*!< Select alternate function 1 */
 191:Drivers/STM32G4xx_HAL_Driver/Inc/stm32g4xx_ll_gpio.h **** #define LL_GPIO_AF_2                       (0x0000002U) /*!< Select alternate function 2 */
 192:Drivers/STM32G4xx_HAL_Driver/Inc/stm32g4xx_ll_gpio.h **** #define LL_GPIO_AF_3                       (0x0000003U) /*!< Select alternate function 3 */
 193:Drivers/STM32G4xx_HAL_Driver/Inc/stm32g4xx_ll_gpio.h **** #define LL_GPIO_AF_4                       (0x0000004U) /*!< Select alternate function 4 */
 194:Drivers/STM32G4xx_HAL_Driver/Inc/stm32g4xx_ll_gpio.h **** #define LL_GPIO_AF_5                       (0x0000005U) /*!< Select alternate function 5 */
 195:Drivers/STM32G4xx_HAL_Driver/Inc/stm32g4xx_ll_gpio.h **** #define LL_GPIO_AF_6                       (0x0000006U) /*!< Select alternate function 6 */
 196:Drivers/STM32G4xx_HAL_Driver/Inc/stm32g4xx_ll_gpio.h **** #define LL_GPIO_AF_7                       (0x0000007U) /*!< Select alternate function 7 */
 197:Drivers/STM32G4xx_HAL_Driver/Inc/stm32g4xx_ll_gpio.h **** #define LL_GPIO_AF_8                       (0x0000008U) /*!< Select alternate function 8 */
 198:Drivers/STM32G4xx_HAL_Driver/Inc/stm32g4xx_ll_gpio.h **** #define LL_GPIO_AF_9                       (0x0000009U) /*!< Select alternate function 9 */
 199:Drivers/STM32G4xx_HAL_Driver/Inc/stm32g4xx_ll_gpio.h **** #define LL_GPIO_AF_10                      (0x000000AU) /*!< Select alternate function 10 */
 200:Drivers/STM32G4xx_HAL_Driver/Inc/stm32g4xx_ll_gpio.h **** #define LL_GPIO_AF_11                      (0x000000BU) /*!< Select alternate function 11 */
 201:Drivers/STM32G4xx_HAL_Driver/Inc/stm32g4xx_ll_gpio.h **** #define LL_GPIO_AF_12                      (0x000000CU) /*!< Select alternate function 12 */
 202:Drivers/STM32G4xx_HAL_Driver/Inc/stm32g4xx_ll_gpio.h **** #define LL_GPIO_AF_13                      (0x000000DU) /*!< Select alternate function 13 */
 203:Drivers/STM32G4xx_HAL_Driver/Inc/stm32g4xx_ll_gpio.h **** #define LL_GPIO_AF_14                      (0x000000EU) /*!< Select alternate function 14 */
 204:Drivers/STM32G4xx_HAL_Driver/Inc/stm32g4xx_ll_gpio.h **** #define LL_GPIO_AF_15                      (0x000000FU) /*!< Select alternate function 15 */
 205:Drivers/STM32G4xx_HAL_Driver/Inc/stm32g4xx_ll_gpio.h **** /**
 206:Drivers/STM32G4xx_HAL_Driver/Inc/stm32g4xx_ll_gpio.h ****   * @}
 207:Drivers/STM32G4xx_HAL_Driver/Inc/stm32g4xx_ll_gpio.h ****   */
 208:Drivers/STM32G4xx_HAL_Driver/Inc/stm32g4xx_ll_gpio.h **** 
 209:Drivers/STM32G4xx_HAL_Driver/Inc/stm32g4xx_ll_gpio.h **** /**
 210:Drivers/STM32G4xx_HAL_Driver/Inc/stm32g4xx_ll_gpio.h ****   * @}
 211:Drivers/STM32G4xx_HAL_Driver/Inc/stm32g4xx_ll_gpio.h ****   */
 212:Drivers/STM32G4xx_HAL_Driver/Inc/stm32g4xx_ll_gpio.h **** 
 213:Drivers/STM32G4xx_HAL_Driver/Inc/stm32g4xx_ll_gpio.h **** /* Exported macro ------------------------------------------------------------*/
 214:Drivers/STM32G4xx_HAL_Driver/Inc/stm32g4xx_ll_gpio.h **** /** @defgroup GPIO_LL_Exported_Macros GPIO Exported Macros
 215:Drivers/STM32G4xx_HAL_Driver/Inc/stm32g4xx_ll_gpio.h ****   * @{
 216:Drivers/STM32G4xx_HAL_Driver/Inc/stm32g4xx_ll_gpio.h ****   */
 217:Drivers/STM32G4xx_HAL_Driver/Inc/stm32g4xx_ll_gpio.h **** 
 218:Drivers/STM32G4xx_HAL_Driver/Inc/stm32g4xx_ll_gpio.h **** /** @defgroup GPIO_LL_EM_WRITE_READ Common Write and read registers Macros
 219:Drivers/STM32G4xx_HAL_Driver/Inc/stm32g4xx_ll_gpio.h ****   * @{
 220:Drivers/STM32G4xx_HAL_Driver/Inc/stm32g4xx_ll_gpio.h ****   */
 221:Drivers/STM32G4xx_HAL_Driver/Inc/stm32g4xx_ll_gpio.h **** 
 222:Drivers/STM32G4xx_HAL_Driver/Inc/stm32g4xx_ll_gpio.h **** /**
 223:Drivers/STM32G4xx_HAL_Driver/Inc/stm32g4xx_ll_gpio.h ****   * @brief  Write a value in GPIO register
 224:Drivers/STM32G4xx_HAL_Driver/Inc/stm32g4xx_ll_gpio.h ****   * @param  __INSTANCE__ GPIO Instance
 225:Drivers/STM32G4xx_HAL_Driver/Inc/stm32g4xx_ll_gpio.h ****   * @param  __REG__ Register to be written
ARM GAS  /tmp/cczKoiko.s 			page 39


 226:Drivers/STM32G4xx_HAL_Driver/Inc/stm32g4xx_ll_gpio.h ****   * @param  __VALUE__ Value to be written in the register
 227:Drivers/STM32G4xx_HAL_Driver/Inc/stm32g4xx_ll_gpio.h ****   * @retval None
 228:Drivers/STM32G4xx_HAL_Driver/Inc/stm32g4xx_ll_gpio.h ****   */
 229:Drivers/STM32G4xx_HAL_Driver/Inc/stm32g4xx_ll_gpio.h **** #define LL_GPIO_WriteReg(__INSTANCE__, __REG__, __VALUE__) WRITE_REG(__INSTANCE__->__REG__, (__VALU
 230:Drivers/STM32G4xx_HAL_Driver/Inc/stm32g4xx_ll_gpio.h **** 
 231:Drivers/STM32G4xx_HAL_Driver/Inc/stm32g4xx_ll_gpio.h **** /**
 232:Drivers/STM32G4xx_HAL_Driver/Inc/stm32g4xx_ll_gpio.h ****   * @brief  Read a value in GPIO register
 233:Drivers/STM32G4xx_HAL_Driver/Inc/stm32g4xx_ll_gpio.h ****   * @param  __INSTANCE__ GPIO Instance
 234:Drivers/STM32G4xx_HAL_Driver/Inc/stm32g4xx_ll_gpio.h ****   * @param  __REG__ Register to be read
 235:Drivers/STM32G4xx_HAL_Driver/Inc/stm32g4xx_ll_gpio.h ****   * @retval Register value
 236:Drivers/STM32G4xx_HAL_Driver/Inc/stm32g4xx_ll_gpio.h ****   */
 237:Drivers/STM32G4xx_HAL_Driver/Inc/stm32g4xx_ll_gpio.h **** #define LL_GPIO_ReadReg(__INSTANCE__, __REG__) READ_REG(__INSTANCE__->__REG__)
 238:Drivers/STM32G4xx_HAL_Driver/Inc/stm32g4xx_ll_gpio.h **** /**
 239:Drivers/STM32G4xx_HAL_Driver/Inc/stm32g4xx_ll_gpio.h ****   * @}
 240:Drivers/STM32G4xx_HAL_Driver/Inc/stm32g4xx_ll_gpio.h ****   */
 241:Drivers/STM32G4xx_HAL_Driver/Inc/stm32g4xx_ll_gpio.h **** 
 242:Drivers/STM32G4xx_HAL_Driver/Inc/stm32g4xx_ll_gpio.h **** /**
 243:Drivers/STM32G4xx_HAL_Driver/Inc/stm32g4xx_ll_gpio.h ****   * @}
 244:Drivers/STM32G4xx_HAL_Driver/Inc/stm32g4xx_ll_gpio.h ****   */
 245:Drivers/STM32G4xx_HAL_Driver/Inc/stm32g4xx_ll_gpio.h **** 
 246:Drivers/STM32G4xx_HAL_Driver/Inc/stm32g4xx_ll_gpio.h **** /* Exported functions --------------------------------------------------------*/
 247:Drivers/STM32G4xx_HAL_Driver/Inc/stm32g4xx_ll_gpio.h **** /** @defgroup GPIO_LL_Exported_Functions GPIO Exported Functions
 248:Drivers/STM32G4xx_HAL_Driver/Inc/stm32g4xx_ll_gpio.h ****   * @{
 249:Drivers/STM32G4xx_HAL_Driver/Inc/stm32g4xx_ll_gpio.h ****   */
 250:Drivers/STM32G4xx_HAL_Driver/Inc/stm32g4xx_ll_gpio.h **** 
 251:Drivers/STM32G4xx_HAL_Driver/Inc/stm32g4xx_ll_gpio.h **** /** @defgroup GPIO_LL_EF_Port_Configuration Port Configuration
 252:Drivers/STM32G4xx_HAL_Driver/Inc/stm32g4xx_ll_gpio.h ****   * @{
 253:Drivers/STM32G4xx_HAL_Driver/Inc/stm32g4xx_ll_gpio.h ****   */
 254:Drivers/STM32G4xx_HAL_Driver/Inc/stm32g4xx_ll_gpio.h **** 
 255:Drivers/STM32G4xx_HAL_Driver/Inc/stm32g4xx_ll_gpio.h **** /**
 256:Drivers/STM32G4xx_HAL_Driver/Inc/stm32g4xx_ll_gpio.h ****   * @brief  Configure gpio mode for a dedicated pin on dedicated port.
 257:Drivers/STM32G4xx_HAL_Driver/Inc/stm32g4xx_ll_gpio.h ****   * @note   I/O mode can be Input mode, General purpose output, Alternate function mode or Analog.
 258:Drivers/STM32G4xx_HAL_Driver/Inc/stm32g4xx_ll_gpio.h ****   * @note   Warning: only one pin can be passed as parameter.
 259:Drivers/STM32G4xx_HAL_Driver/Inc/stm32g4xx_ll_gpio.h ****   * @rmtoll MODER        MODEy         LL_GPIO_SetPinMode
 260:Drivers/STM32G4xx_HAL_Driver/Inc/stm32g4xx_ll_gpio.h ****   * @param  GPIOx GPIO Port
 261:Drivers/STM32G4xx_HAL_Driver/Inc/stm32g4xx_ll_gpio.h ****   * @param  Pin This parameter can be one of the following values:
 262:Drivers/STM32G4xx_HAL_Driver/Inc/stm32g4xx_ll_gpio.h ****   *         @arg @ref LL_GPIO_PIN_0
 263:Drivers/STM32G4xx_HAL_Driver/Inc/stm32g4xx_ll_gpio.h ****   *         @arg @ref LL_GPIO_PIN_1
 264:Drivers/STM32G4xx_HAL_Driver/Inc/stm32g4xx_ll_gpio.h ****   *         @arg @ref LL_GPIO_PIN_2
 265:Drivers/STM32G4xx_HAL_Driver/Inc/stm32g4xx_ll_gpio.h ****   *         @arg @ref LL_GPIO_PIN_3
 266:Drivers/STM32G4xx_HAL_Driver/Inc/stm32g4xx_ll_gpio.h ****   *         @arg @ref LL_GPIO_PIN_4
 267:Drivers/STM32G4xx_HAL_Driver/Inc/stm32g4xx_ll_gpio.h ****   *         @arg @ref LL_GPIO_PIN_5
 268:Drivers/STM32G4xx_HAL_Driver/Inc/stm32g4xx_ll_gpio.h ****   *         @arg @ref LL_GPIO_PIN_6
 269:Drivers/STM32G4xx_HAL_Driver/Inc/stm32g4xx_ll_gpio.h ****   *         @arg @ref LL_GPIO_PIN_7
 270:Drivers/STM32G4xx_HAL_Driver/Inc/stm32g4xx_ll_gpio.h ****   *         @arg @ref LL_GPIO_PIN_8
 271:Drivers/STM32G4xx_HAL_Driver/Inc/stm32g4xx_ll_gpio.h ****   *         @arg @ref LL_GPIO_PIN_9
 272:Drivers/STM32G4xx_HAL_Driver/Inc/stm32g4xx_ll_gpio.h ****   *         @arg @ref LL_GPIO_PIN_10
 273:Drivers/STM32G4xx_HAL_Driver/Inc/stm32g4xx_ll_gpio.h ****   *         @arg @ref LL_GPIO_PIN_11
 274:Drivers/STM32G4xx_HAL_Driver/Inc/stm32g4xx_ll_gpio.h ****   *         @arg @ref LL_GPIO_PIN_12
 275:Drivers/STM32G4xx_HAL_Driver/Inc/stm32g4xx_ll_gpio.h ****   *         @arg @ref LL_GPIO_PIN_13
 276:Drivers/STM32G4xx_HAL_Driver/Inc/stm32g4xx_ll_gpio.h ****   *         @arg @ref LL_GPIO_PIN_14
 277:Drivers/STM32G4xx_HAL_Driver/Inc/stm32g4xx_ll_gpio.h ****   *         @arg @ref LL_GPIO_PIN_15
 278:Drivers/STM32G4xx_HAL_Driver/Inc/stm32g4xx_ll_gpio.h ****   * @param  Mode This parameter can be one of the following values:
 279:Drivers/STM32G4xx_HAL_Driver/Inc/stm32g4xx_ll_gpio.h ****   *         @arg @ref LL_GPIO_MODE_INPUT
 280:Drivers/STM32G4xx_HAL_Driver/Inc/stm32g4xx_ll_gpio.h ****   *         @arg @ref LL_GPIO_MODE_OUTPUT
 281:Drivers/STM32G4xx_HAL_Driver/Inc/stm32g4xx_ll_gpio.h ****   *         @arg @ref LL_GPIO_MODE_ALTERNATE
 282:Drivers/STM32G4xx_HAL_Driver/Inc/stm32g4xx_ll_gpio.h ****   *         @arg @ref LL_GPIO_MODE_ANALOG
ARM GAS  /tmp/cczKoiko.s 			page 40


 283:Drivers/STM32G4xx_HAL_Driver/Inc/stm32g4xx_ll_gpio.h ****   * @retval None
 284:Drivers/STM32G4xx_HAL_Driver/Inc/stm32g4xx_ll_gpio.h ****   */
 285:Drivers/STM32G4xx_HAL_Driver/Inc/stm32g4xx_ll_gpio.h **** __STATIC_INLINE void LL_GPIO_SetPinMode(GPIO_TypeDef *GPIOx, uint32_t Pin, uint32_t Mode)
 286:Drivers/STM32G4xx_HAL_Driver/Inc/stm32g4xx_ll_gpio.h **** {
 287:Drivers/STM32G4xx_HAL_Driver/Inc/stm32g4xx_ll_gpio.h ****   MODIFY_REG(GPIOx->MODER, (GPIO_MODER_MODE0 << (POSITION_VAL(Pin) * 2U)), (Mode << (POSITION_VAL(P
 288:Drivers/STM32G4xx_HAL_Driver/Inc/stm32g4xx_ll_gpio.h **** }
 289:Drivers/STM32G4xx_HAL_Driver/Inc/stm32g4xx_ll_gpio.h **** 
 290:Drivers/STM32G4xx_HAL_Driver/Inc/stm32g4xx_ll_gpio.h **** /**
 291:Drivers/STM32G4xx_HAL_Driver/Inc/stm32g4xx_ll_gpio.h ****   * @brief  Return gpio mode for a dedicated pin on dedicated port.
 292:Drivers/STM32G4xx_HAL_Driver/Inc/stm32g4xx_ll_gpio.h ****   * @note   I/O mode can be Input mode, General purpose output, Alternate function mode or Analog.
 293:Drivers/STM32G4xx_HAL_Driver/Inc/stm32g4xx_ll_gpio.h ****   * @note   Warning: only one pin can be passed as parameter.
 294:Drivers/STM32G4xx_HAL_Driver/Inc/stm32g4xx_ll_gpio.h ****   * @rmtoll MODER        MODEy         LL_GPIO_GetPinMode
 295:Drivers/STM32G4xx_HAL_Driver/Inc/stm32g4xx_ll_gpio.h ****   * @param  GPIOx GPIO Port
 296:Drivers/STM32G4xx_HAL_Driver/Inc/stm32g4xx_ll_gpio.h ****   * @param  Pin This parameter can be one of the following values:
 297:Drivers/STM32G4xx_HAL_Driver/Inc/stm32g4xx_ll_gpio.h ****   *         @arg @ref LL_GPIO_PIN_0
 298:Drivers/STM32G4xx_HAL_Driver/Inc/stm32g4xx_ll_gpio.h ****   *         @arg @ref LL_GPIO_PIN_1
 299:Drivers/STM32G4xx_HAL_Driver/Inc/stm32g4xx_ll_gpio.h ****   *         @arg @ref LL_GPIO_PIN_2
 300:Drivers/STM32G4xx_HAL_Driver/Inc/stm32g4xx_ll_gpio.h ****   *         @arg @ref LL_GPIO_PIN_3
 301:Drivers/STM32G4xx_HAL_Driver/Inc/stm32g4xx_ll_gpio.h ****   *         @arg @ref LL_GPIO_PIN_4
 302:Drivers/STM32G4xx_HAL_Driver/Inc/stm32g4xx_ll_gpio.h ****   *         @arg @ref LL_GPIO_PIN_5
 303:Drivers/STM32G4xx_HAL_Driver/Inc/stm32g4xx_ll_gpio.h ****   *         @arg @ref LL_GPIO_PIN_6
 304:Drivers/STM32G4xx_HAL_Driver/Inc/stm32g4xx_ll_gpio.h ****   *         @arg @ref LL_GPIO_PIN_7
 305:Drivers/STM32G4xx_HAL_Driver/Inc/stm32g4xx_ll_gpio.h ****   *         @arg @ref LL_GPIO_PIN_8
 306:Drivers/STM32G4xx_HAL_Driver/Inc/stm32g4xx_ll_gpio.h ****   *         @arg @ref LL_GPIO_PIN_9
 307:Drivers/STM32G4xx_HAL_Driver/Inc/stm32g4xx_ll_gpio.h ****   *         @arg @ref LL_GPIO_PIN_10
 308:Drivers/STM32G4xx_HAL_Driver/Inc/stm32g4xx_ll_gpio.h ****   *         @arg @ref LL_GPIO_PIN_11
 309:Drivers/STM32G4xx_HAL_Driver/Inc/stm32g4xx_ll_gpio.h ****   *         @arg @ref LL_GPIO_PIN_12
 310:Drivers/STM32G4xx_HAL_Driver/Inc/stm32g4xx_ll_gpio.h ****   *         @arg @ref LL_GPIO_PIN_13
 311:Drivers/STM32G4xx_HAL_Driver/Inc/stm32g4xx_ll_gpio.h ****   *         @arg @ref LL_GPIO_PIN_14
 312:Drivers/STM32G4xx_HAL_Driver/Inc/stm32g4xx_ll_gpio.h ****   *         @arg @ref LL_GPIO_PIN_15
 313:Drivers/STM32G4xx_HAL_Driver/Inc/stm32g4xx_ll_gpio.h ****   * @retval Returned value can be one of the following values:
 314:Drivers/STM32G4xx_HAL_Driver/Inc/stm32g4xx_ll_gpio.h ****   *         @arg @ref LL_GPIO_MODE_INPUT
 315:Drivers/STM32G4xx_HAL_Driver/Inc/stm32g4xx_ll_gpio.h ****   *         @arg @ref LL_GPIO_MODE_OUTPUT
 316:Drivers/STM32G4xx_HAL_Driver/Inc/stm32g4xx_ll_gpio.h ****   *         @arg @ref LL_GPIO_MODE_ALTERNATE
 317:Drivers/STM32G4xx_HAL_Driver/Inc/stm32g4xx_ll_gpio.h ****   *         @arg @ref LL_GPIO_MODE_ANALOG
 318:Drivers/STM32G4xx_HAL_Driver/Inc/stm32g4xx_ll_gpio.h ****   */
 319:Drivers/STM32G4xx_HAL_Driver/Inc/stm32g4xx_ll_gpio.h **** __STATIC_INLINE uint32_t LL_GPIO_GetPinMode(GPIO_TypeDef *GPIOx, uint32_t Pin)
 320:Drivers/STM32G4xx_HAL_Driver/Inc/stm32g4xx_ll_gpio.h **** {
 321:Drivers/STM32G4xx_HAL_Driver/Inc/stm32g4xx_ll_gpio.h ****   return (uint32_t)(READ_BIT(GPIOx->MODER,
 322:Drivers/STM32G4xx_HAL_Driver/Inc/stm32g4xx_ll_gpio.h ****                              (GPIO_MODER_MODE0 << (POSITION_VAL(Pin) * 2U))) >> (POSITION_VAL(Pin) 
 323:Drivers/STM32G4xx_HAL_Driver/Inc/stm32g4xx_ll_gpio.h **** }
 324:Drivers/STM32G4xx_HAL_Driver/Inc/stm32g4xx_ll_gpio.h **** 
 325:Drivers/STM32G4xx_HAL_Driver/Inc/stm32g4xx_ll_gpio.h **** /**
 326:Drivers/STM32G4xx_HAL_Driver/Inc/stm32g4xx_ll_gpio.h ****   * @brief  Configure gpio output type for several pins on dedicated port.
 327:Drivers/STM32G4xx_HAL_Driver/Inc/stm32g4xx_ll_gpio.h ****   * @note   Output type as to be set when gpio pin is in output or
 328:Drivers/STM32G4xx_HAL_Driver/Inc/stm32g4xx_ll_gpio.h ****   *         alternate modes. Possible type are Push-pull or Open-drain.
 329:Drivers/STM32G4xx_HAL_Driver/Inc/stm32g4xx_ll_gpio.h ****   * @rmtoll OTYPER       OTy           LL_GPIO_SetPinOutputType
 330:Drivers/STM32G4xx_HAL_Driver/Inc/stm32g4xx_ll_gpio.h ****   * @param  GPIOx GPIO Port
 331:Drivers/STM32G4xx_HAL_Driver/Inc/stm32g4xx_ll_gpio.h ****   * @param  PinMask This parameter can be a combination of the following values:
 332:Drivers/STM32G4xx_HAL_Driver/Inc/stm32g4xx_ll_gpio.h ****   *         @arg @ref LL_GPIO_PIN_0
 333:Drivers/STM32G4xx_HAL_Driver/Inc/stm32g4xx_ll_gpio.h ****   *         @arg @ref LL_GPIO_PIN_1
 334:Drivers/STM32G4xx_HAL_Driver/Inc/stm32g4xx_ll_gpio.h ****   *         @arg @ref LL_GPIO_PIN_2
 335:Drivers/STM32G4xx_HAL_Driver/Inc/stm32g4xx_ll_gpio.h ****   *         @arg @ref LL_GPIO_PIN_3
 336:Drivers/STM32G4xx_HAL_Driver/Inc/stm32g4xx_ll_gpio.h ****   *         @arg @ref LL_GPIO_PIN_4
 337:Drivers/STM32G4xx_HAL_Driver/Inc/stm32g4xx_ll_gpio.h ****   *         @arg @ref LL_GPIO_PIN_5
 338:Drivers/STM32G4xx_HAL_Driver/Inc/stm32g4xx_ll_gpio.h ****   *         @arg @ref LL_GPIO_PIN_6
 339:Drivers/STM32G4xx_HAL_Driver/Inc/stm32g4xx_ll_gpio.h ****   *         @arg @ref LL_GPIO_PIN_7
ARM GAS  /tmp/cczKoiko.s 			page 41


 340:Drivers/STM32G4xx_HAL_Driver/Inc/stm32g4xx_ll_gpio.h ****   *         @arg @ref LL_GPIO_PIN_8
 341:Drivers/STM32G4xx_HAL_Driver/Inc/stm32g4xx_ll_gpio.h ****   *         @arg @ref LL_GPIO_PIN_9
 342:Drivers/STM32G4xx_HAL_Driver/Inc/stm32g4xx_ll_gpio.h ****   *         @arg @ref LL_GPIO_PIN_10
 343:Drivers/STM32G4xx_HAL_Driver/Inc/stm32g4xx_ll_gpio.h ****   *         @arg @ref LL_GPIO_PIN_11
 344:Drivers/STM32G4xx_HAL_Driver/Inc/stm32g4xx_ll_gpio.h ****   *         @arg @ref LL_GPIO_PIN_12
 345:Drivers/STM32G4xx_HAL_Driver/Inc/stm32g4xx_ll_gpio.h ****   *         @arg @ref LL_GPIO_PIN_13
 346:Drivers/STM32G4xx_HAL_Driver/Inc/stm32g4xx_ll_gpio.h ****   *         @arg @ref LL_GPIO_PIN_14
 347:Drivers/STM32G4xx_HAL_Driver/Inc/stm32g4xx_ll_gpio.h ****   *         @arg @ref LL_GPIO_PIN_15
 348:Drivers/STM32G4xx_HAL_Driver/Inc/stm32g4xx_ll_gpio.h ****   *         @arg @ref LL_GPIO_PIN_ALL
 349:Drivers/STM32G4xx_HAL_Driver/Inc/stm32g4xx_ll_gpio.h ****   * @param  OutputType This parameter can be one of the following values:
 350:Drivers/STM32G4xx_HAL_Driver/Inc/stm32g4xx_ll_gpio.h ****   *         @arg @ref LL_GPIO_OUTPUT_PUSHPULL
 351:Drivers/STM32G4xx_HAL_Driver/Inc/stm32g4xx_ll_gpio.h ****   *         @arg @ref LL_GPIO_OUTPUT_OPENDRAIN
 352:Drivers/STM32G4xx_HAL_Driver/Inc/stm32g4xx_ll_gpio.h ****   * @retval None
 353:Drivers/STM32G4xx_HAL_Driver/Inc/stm32g4xx_ll_gpio.h ****   */
 354:Drivers/STM32G4xx_HAL_Driver/Inc/stm32g4xx_ll_gpio.h **** __STATIC_INLINE void LL_GPIO_SetPinOutputType(GPIO_TypeDef *GPIOx, uint32_t PinMask, uint32_t Outpu
 355:Drivers/STM32G4xx_HAL_Driver/Inc/stm32g4xx_ll_gpio.h **** {
 356:Drivers/STM32G4xx_HAL_Driver/Inc/stm32g4xx_ll_gpio.h ****   MODIFY_REG(GPIOx->OTYPER, PinMask, (PinMask * OutputType));
 357:Drivers/STM32G4xx_HAL_Driver/Inc/stm32g4xx_ll_gpio.h **** }
 358:Drivers/STM32G4xx_HAL_Driver/Inc/stm32g4xx_ll_gpio.h **** 
 359:Drivers/STM32G4xx_HAL_Driver/Inc/stm32g4xx_ll_gpio.h **** /**
 360:Drivers/STM32G4xx_HAL_Driver/Inc/stm32g4xx_ll_gpio.h ****   * @brief  Return gpio output type for several pins on dedicated port.
 361:Drivers/STM32G4xx_HAL_Driver/Inc/stm32g4xx_ll_gpio.h ****   * @note   Output type as to be set when gpio pin is in output or
 362:Drivers/STM32G4xx_HAL_Driver/Inc/stm32g4xx_ll_gpio.h ****   *         alternate modes. Possible type are Push-pull or Open-drain.
 363:Drivers/STM32G4xx_HAL_Driver/Inc/stm32g4xx_ll_gpio.h ****   * @note   Warning: only one pin can be passed as parameter.
 364:Drivers/STM32G4xx_HAL_Driver/Inc/stm32g4xx_ll_gpio.h ****   * @rmtoll OTYPER       OTy           LL_GPIO_GetPinOutputType
 365:Drivers/STM32G4xx_HAL_Driver/Inc/stm32g4xx_ll_gpio.h ****   * @param  GPIOx GPIO Port
 366:Drivers/STM32G4xx_HAL_Driver/Inc/stm32g4xx_ll_gpio.h ****   * @param  Pin This parameter can be one of the following values:
 367:Drivers/STM32G4xx_HAL_Driver/Inc/stm32g4xx_ll_gpio.h ****   *         @arg @ref LL_GPIO_PIN_0
 368:Drivers/STM32G4xx_HAL_Driver/Inc/stm32g4xx_ll_gpio.h ****   *         @arg @ref LL_GPIO_PIN_1
 369:Drivers/STM32G4xx_HAL_Driver/Inc/stm32g4xx_ll_gpio.h ****   *         @arg @ref LL_GPIO_PIN_2
 370:Drivers/STM32G4xx_HAL_Driver/Inc/stm32g4xx_ll_gpio.h ****   *         @arg @ref LL_GPIO_PIN_3
 371:Drivers/STM32G4xx_HAL_Driver/Inc/stm32g4xx_ll_gpio.h ****   *         @arg @ref LL_GPIO_PIN_4
 372:Drivers/STM32G4xx_HAL_Driver/Inc/stm32g4xx_ll_gpio.h ****   *         @arg @ref LL_GPIO_PIN_5
 373:Drivers/STM32G4xx_HAL_Driver/Inc/stm32g4xx_ll_gpio.h ****   *         @arg @ref LL_GPIO_PIN_6
 374:Drivers/STM32G4xx_HAL_Driver/Inc/stm32g4xx_ll_gpio.h ****   *         @arg @ref LL_GPIO_PIN_7
 375:Drivers/STM32G4xx_HAL_Driver/Inc/stm32g4xx_ll_gpio.h ****   *         @arg @ref LL_GPIO_PIN_8
 376:Drivers/STM32G4xx_HAL_Driver/Inc/stm32g4xx_ll_gpio.h ****   *         @arg @ref LL_GPIO_PIN_9
 377:Drivers/STM32G4xx_HAL_Driver/Inc/stm32g4xx_ll_gpio.h ****   *         @arg @ref LL_GPIO_PIN_10
 378:Drivers/STM32G4xx_HAL_Driver/Inc/stm32g4xx_ll_gpio.h ****   *         @arg @ref LL_GPIO_PIN_11
 379:Drivers/STM32G4xx_HAL_Driver/Inc/stm32g4xx_ll_gpio.h ****   *         @arg @ref LL_GPIO_PIN_12
 380:Drivers/STM32G4xx_HAL_Driver/Inc/stm32g4xx_ll_gpio.h ****   *         @arg @ref LL_GPIO_PIN_13
 381:Drivers/STM32G4xx_HAL_Driver/Inc/stm32g4xx_ll_gpio.h ****   *         @arg @ref LL_GPIO_PIN_14
 382:Drivers/STM32G4xx_HAL_Driver/Inc/stm32g4xx_ll_gpio.h ****   *         @arg @ref LL_GPIO_PIN_15
 383:Drivers/STM32G4xx_HAL_Driver/Inc/stm32g4xx_ll_gpio.h ****   *         @arg @ref LL_GPIO_PIN_ALL
 384:Drivers/STM32G4xx_HAL_Driver/Inc/stm32g4xx_ll_gpio.h ****   * @retval Returned value can be one of the following values:
 385:Drivers/STM32G4xx_HAL_Driver/Inc/stm32g4xx_ll_gpio.h ****   *         @arg @ref LL_GPIO_OUTPUT_PUSHPULL
 386:Drivers/STM32G4xx_HAL_Driver/Inc/stm32g4xx_ll_gpio.h ****   *         @arg @ref LL_GPIO_OUTPUT_OPENDRAIN
 387:Drivers/STM32G4xx_HAL_Driver/Inc/stm32g4xx_ll_gpio.h ****   */
 388:Drivers/STM32G4xx_HAL_Driver/Inc/stm32g4xx_ll_gpio.h **** __STATIC_INLINE uint32_t LL_GPIO_GetPinOutputType(GPIO_TypeDef *GPIOx, uint32_t Pin)
 389:Drivers/STM32G4xx_HAL_Driver/Inc/stm32g4xx_ll_gpio.h **** {
 390:Drivers/STM32G4xx_HAL_Driver/Inc/stm32g4xx_ll_gpio.h ****   return (uint32_t)(READ_BIT(GPIOx->OTYPER, Pin) >> POSITION_VAL(Pin));
 391:Drivers/STM32G4xx_HAL_Driver/Inc/stm32g4xx_ll_gpio.h **** }
 392:Drivers/STM32G4xx_HAL_Driver/Inc/stm32g4xx_ll_gpio.h **** 
 393:Drivers/STM32G4xx_HAL_Driver/Inc/stm32g4xx_ll_gpio.h **** /**
 394:Drivers/STM32G4xx_HAL_Driver/Inc/stm32g4xx_ll_gpio.h ****   * @brief  Configure gpio speed for a dedicated pin on dedicated port.
 395:Drivers/STM32G4xx_HAL_Driver/Inc/stm32g4xx_ll_gpio.h ****   * @note   I/O speed can be Low, Medium, Fast or High speed.
 396:Drivers/STM32G4xx_HAL_Driver/Inc/stm32g4xx_ll_gpio.h ****   * @note   Warning: only one pin can be passed as parameter.
ARM GAS  /tmp/cczKoiko.s 			page 42


 397:Drivers/STM32G4xx_HAL_Driver/Inc/stm32g4xx_ll_gpio.h ****   * @note   Refer to datasheet for frequency specifications and the power
 398:Drivers/STM32G4xx_HAL_Driver/Inc/stm32g4xx_ll_gpio.h ****   *         supply and load conditions for each speed.
 399:Drivers/STM32G4xx_HAL_Driver/Inc/stm32g4xx_ll_gpio.h ****   * @rmtoll OSPEEDR      OSPEEDy       LL_GPIO_SetPinSpeed
 400:Drivers/STM32G4xx_HAL_Driver/Inc/stm32g4xx_ll_gpio.h ****   * @param  GPIOx GPIO Port
 401:Drivers/STM32G4xx_HAL_Driver/Inc/stm32g4xx_ll_gpio.h ****   * @param  Pin This parameter can be one of the following values:
 402:Drivers/STM32G4xx_HAL_Driver/Inc/stm32g4xx_ll_gpio.h ****   *         @arg @ref LL_GPIO_PIN_0
 403:Drivers/STM32G4xx_HAL_Driver/Inc/stm32g4xx_ll_gpio.h ****   *         @arg @ref LL_GPIO_PIN_1
 404:Drivers/STM32G4xx_HAL_Driver/Inc/stm32g4xx_ll_gpio.h ****   *         @arg @ref LL_GPIO_PIN_2
 405:Drivers/STM32G4xx_HAL_Driver/Inc/stm32g4xx_ll_gpio.h ****   *         @arg @ref LL_GPIO_PIN_3
 406:Drivers/STM32G4xx_HAL_Driver/Inc/stm32g4xx_ll_gpio.h ****   *         @arg @ref LL_GPIO_PIN_4
 407:Drivers/STM32G4xx_HAL_Driver/Inc/stm32g4xx_ll_gpio.h ****   *         @arg @ref LL_GPIO_PIN_5
 408:Drivers/STM32G4xx_HAL_Driver/Inc/stm32g4xx_ll_gpio.h ****   *         @arg @ref LL_GPIO_PIN_6
 409:Drivers/STM32G4xx_HAL_Driver/Inc/stm32g4xx_ll_gpio.h ****   *         @arg @ref LL_GPIO_PIN_7
 410:Drivers/STM32G4xx_HAL_Driver/Inc/stm32g4xx_ll_gpio.h ****   *         @arg @ref LL_GPIO_PIN_8
 411:Drivers/STM32G4xx_HAL_Driver/Inc/stm32g4xx_ll_gpio.h ****   *         @arg @ref LL_GPIO_PIN_9
 412:Drivers/STM32G4xx_HAL_Driver/Inc/stm32g4xx_ll_gpio.h ****   *         @arg @ref LL_GPIO_PIN_10
 413:Drivers/STM32G4xx_HAL_Driver/Inc/stm32g4xx_ll_gpio.h ****   *         @arg @ref LL_GPIO_PIN_11
 414:Drivers/STM32G4xx_HAL_Driver/Inc/stm32g4xx_ll_gpio.h ****   *         @arg @ref LL_GPIO_PIN_12
 415:Drivers/STM32G4xx_HAL_Driver/Inc/stm32g4xx_ll_gpio.h ****   *         @arg @ref LL_GPIO_PIN_13
 416:Drivers/STM32G4xx_HAL_Driver/Inc/stm32g4xx_ll_gpio.h ****   *         @arg @ref LL_GPIO_PIN_14
 417:Drivers/STM32G4xx_HAL_Driver/Inc/stm32g4xx_ll_gpio.h ****   *         @arg @ref LL_GPIO_PIN_15
 418:Drivers/STM32G4xx_HAL_Driver/Inc/stm32g4xx_ll_gpio.h ****   * @param  Speed This parameter can be one of the following values:
 419:Drivers/STM32G4xx_HAL_Driver/Inc/stm32g4xx_ll_gpio.h ****   *         @arg @ref LL_GPIO_SPEED_FREQ_LOW
 420:Drivers/STM32G4xx_HAL_Driver/Inc/stm32g4xx_ll_gpio.h ****   *         @arg @ref LL_GPIO_SPEED_FREQ_MEDIUM
 421:Drivers/STM32G4xx_HAL_Driver/Inc/stm32g4xx_ll_gpio.h ****   *         @arg @ref LL_GPIO_SPEED_FREQ_HIGH
 422:Drivers/STM32G4xx_HAL_Driver/Inc/stm32g4xx_ll_gpio.h ****   *         @arg @ref LL_GPIO_SPEED_FREQ_VERY_HIGH
 423:Drivers/STM32G4xx_HAL_Driver/Inc/stm32g4xx_ll_gpio.h ****   * @retval None
 424:Drivers/STM32G4xx_HAL_Driver/Inc/stm32g4xx_ll_gpio.h ****   */
 425:Drivers/STM32G4xx_HAL_Driver/Inc/stm32g4xx_ll_gpio.h **** __STATIC_INLINE void LL_GPIO_SetPinSpeed(GPIO_TypeDef *GPIOx, uint32_t Pin, uint32_t  Speed)
 426:Drivers/STM32G4xx_HAL_Driver/Inc/stm32g4xx_ll_gpio.h **** {
 427:Drivers/STM32G4xx_HAL_Driver/Inc/stm32g4xx_ll_gpio.h ****   MODIFY_REG(GPIOx->OSPEEDR, (GPIO_OSPEEDR_OSPEED0 << (POSITION_VAL(Pin) * 2U)),
 428:Drivers/STM32G4xx_HAL_Driver/Inc/stm32g4xx_ll_gpio.h ****              (Speed << (POSITION_VAL(Pin) * 2U)));
 429:Drivers/STM32G4xx_HAL_Driver/Inc/stm32g4xx_ll_gpio.h **** }
 430:Drivers/STM32G4xx_HAL_Driver/Inc/stm32g4xx_ll_gpio.h **** 
 431:Drivers/STM32G4xx_HAL_Driver/Inc/stm32g4xx_ll_gpio.h **** /**
 432:Drivers/STM32G4xx_HAL_Driver/Inc/stm32g4xx_ll_gpio.h ****   * @brief  Return gpio speed for a dedicated pin on dedicated port.
 433:Drivers/STM32G4xx_HAL_Driver/Inc/stm32g4xx_ll_gpio.h ****   * @note   I/O speed can be Low, Medium, Fast or High speed.
 434:Drivers/STM32G4xx_HAL_Driver/Inc/stm32g4xx_ll_gpio.h ****   * @note   Warning: only one pin can be passed as parameter.
 435:Drivers/STM32G4xx_HAL_Driver/Inc/stm32g4xx_ll_gpio.h ****   * @note   Refer to datasheet for frequency specifications and the power
 436:Drivers/STM32G4xx_HAL_Driver/Inc/stm32g4xx_ll_gpio.h ****   *         supply and load conditions for each speed.
 437:Drivers/STM32G4xx_HAL_Driver/Inc/stm32g4xx_ll_gpio.h ****   * @rmtoll OSPEEDR      OSPEEDy       LL_GPIO_GetPinSpeed
 438:Drivers/STM32G4xx_HAL_Driver/Inc/stm32g4xx_ll_gpio.h ****   * @param  GPIOx GPIO Port
 439:Drivers/STM32G4xx_HAL_Driver/Inc/stm32g4xx_ll_gpio.h ****   * @param  Pin This parameter can be one of the following values:
 440:Drivers/STM32G4xx_HAL_Driver/Inc/stm32g4xx_ll_gpio.h ****   *         @arg @ref LL_GPIO_PIN_0
 441:Drivers/STM32G4xx_HAL_Driver/Inc/stm32g4xx_ll_gpio.h ****   *         @arg @ref LL_GPIO_PIN_1
 442:Drivers/STM32G4xx_HAL_Driver/Inc/stm32g4xx_ll_gpio.h ****   *         @arg @ref LL_GPIO_PIN_2
 443:Drivers/STM32G4xx_HAL_Driver/Inc/stm32g4xx_ll_gpio.h ****   *         @arg @ref LL_GPIO_PIN_3
 444:Drivers/STM32G4xx_HAL_Driver/Inc/stm32g4xx_ll_gpio.h ****   *         @arg @ref LL_GPIO_PIN_4
 445:Drivers/STM32G4xx_HAL_Driver/Inc/stm32g4xx_ll_gpio.h ****   *         @arg @ref LL_GPIO_PIN_5
 446:Drivers/STM32G4xx_HAL_Driver/Inc/stm32g4xx_ll_gpio.h ****   *         @arg @ref LL_GPIO_PIN_6
 447:Drivers/STM32G4xx_HAL_Driver/Inc/stm32g4xx_ll_gpio.h ****   *         @arg @ref LL_GPIO_PIN_7
 448:Drivers/STM32G4xx_HAL_Driver/Inc/stm32g4xx_ll_gpio.h ****   *         @arg @ref LL_GPIO_PIN_8
 449:Drivers/STM32G4xx_HAL_Driver/Inc/stm32g4xx_ll_gpio.h ****   *         @arg @ref LL_GPIO_PIN_9
 450:Drivers/STM32G4xx_HAL_Driver/Inc/stm32g4xx_ll_gpio.h ****   *         @arg @ref LL_GPIO_PIN_10
 451:Drivers/STM32G4xx_HAL_Driver/Inc/stm32g4xx_ll_gpio.h ****   *         @arg @ref LL_GPIO_PIN_11
 452:Drivers/STM32G4xx_HAL_Driver/Inc/stm32g4xx_ll_gpio.h ****   *         @arg @ref LL_GPIO_PIN_12
 453:Drivers/STM32G4xx_HAL_Driver/Inc/stm32g4xx_ll_gpio.h ****   *         @arg @ref LL_GPIO_PIN_13
ARM GAS  /tmp/cczKoiko.s 			page 43


 454:Drivers/STM32G4xx_HAL_Driver/Inc/stm32g4xx_ll_gpio.h ****   *         @arg @ref LL_GPIO_PIN_14
 455:Drivers/STM32G4xx_HAL_Driver/Inc/stm32g4xx_ll_gpio.h ****   *         @arg @ref LL_GPIO_PIN_15
 456:Drivers/STM32G4xx_HAL_Driver/Inc/stm32g4xx_ll_gpio.h ****   * @retval Returned value can be one of the following values:
 457:Drivers/STM32G4xx_HAL_Driver/Inc/stm32g4xx_ll_gpio.h ****   *         @arg @ref LL_GPIO_SPEED_FREQ_LOW
 458:Drivers/STM32G4xx_HAL_Driver/Inc/stm32g4xx_ll_gpio.h ****   *         @arg @ref LL_GPIO_SPEED_FREQ_MEDIUM
 459:Drivers/STM32G4xx_HAL_Driver/Inc/stm32g4xx_ll_gpio.h ****   *         @arg @ref LL_GPIO_SPEED_FREQ_HIGH
 460:Drivers/STM32G4xx_HAL_Driver/Inc/stm32g4xx_ll_gpio.h ****   *         @arg @ref LL_GPIO_SPEED_FREQ_VERY_HIGH
 461:Drivers/STM32G4xx_HAL_Driver/Inc/stm32g4xx_ll_gpio.h ****   */
 462:Drivers/STM32G4xx_HAL_Driver/Inc/stm32g4xx_ll_gpio.h **** __STATIC_INLINE uint32_t LL_GPIO_GetPinSpeed(GPIO_TypeDef *GPIOx, uint32_t Pin)
 463:Drivers/STM32G4xx_HAL_Driver/Inc/stm32g4xx_ll_gpio.h **** {
 464:Drivers/STM32G4xx_HAL_Driver/Inc/stm32g4xx_ll_gpio.h ****   return (uint32_t)(READ_BIT(GPIOx->OSPEEDR,
 465:Drivers/STM32G4xx_HAL_Driver/Inc/stm32g4xx_ll_gpio.h ****                              (GPIO_OSPEEDR_OSPEED0 << (POSITION_VAL(Pin) * 2U))) >> (POSITION_VAL(P
 466:Drivers/STM32G4xx_HAL_Driver/Inc/stm32g4xx_ll_gpio.h **** }
 467:Drivers/STM32G4xx_HAL_Driver/Inc/stm32g4xx_ll_gpio.h **** 
 468:Drivers/STM32G4xx_HAL_Driver/Inc/stm32g4xx_ll_gpio.h **** /**
 469:Drivers/STM32G4xx_HAL_Driver/Inc/stm32g4xx_ll_gpio.h ****   * @brief  Configure gpio pull-up or pull-down for a dedicated pin on a dedicated port.
 470:Drivers/STM32G4xx_HAL_Driver/Inc/stm32g4xx_ll_gpio.h ****   * @note   Warning: only one pin can be passed as parameter.
 471:Drivers/STM32G4xx_HAL_Driver/Inc/stm32g4xx_ll_gpio.h ****   * @rmtoll PUPDR        PUPDy         LL_GPIO_SetPinPull
 472:Drivers/STM32G4xx_HAL_Driver/Inc/stm32g4xx_ll_gpio.h ****   * @param  GPIOx GPIO Port
 473:Drivers/STM32G4xx_HAL_Driver/Inc/stm32g4xx_ll_gpio.h ****   * @param  Pin This parameter can be one of the following values:
 474:Drivers/STM32G4xx_HAL_Driver/Inc/stm32g4xx_ll_gpio.h ****   *         @arg @ref LL_GPIO_PIN_0
 475:Drivers/STM32G4xx_HAL_Driver/Inc/stm32g4xx_ll_gpio.h ****   *         @arg @ref LL_GPIO_PIN_1
 476:Drivers/STM32G4xx_HAL_Driver/Inc/stm32g4xx_ll_gpio.h ****   *         @arg @ref LL_GPIO_PIN_2
 477:Drivers/STM32G4xx_HAL_Driver/Inc/stm32g4xx_ll_gpio.h ****   *         @arg @ref LL_GPIO_PIN_3
 478:Drivers/STM32G4xx_HAL_Driver/Inc/stm32g4xx_ll_gpio.h ****   *         @arg @ref LL_GPIO_PIN_4
 479:Drivers/STM32G4xx_HAL_Driver/Inc/stm32g4xx_ll_gpio.h ****   *         @arg @ref LL_GPIO_PIN_5
 480:Drivers/STM32G4xx_HAL_Driver/Inc/stm32g4xx_ll_gpio.h ****   *         @arg @ref LL_GPIO_PIN_6
 481:Drivers/STM32G4xx_HAL_Driver/Inc/stm32g4xx_ll_gpio.h ****   *         @arg @ref LL_GPIO_PIN_7
 482:Drivers/STM32G4xx_HAL_Driver/Inc/stm32g4xx_ll_gpio.h ****   *         @arg @ref LL_GPIO_PIN_8
 483:Drivers/STM32G4xx_HAL_Driver/Inc/stm32g4xx_ll_gpio.h ****   *         @arg @ref LL_GPIO_PIN_9
 484:Drivers/STM32G4xx_HAL_Driver/Inc/stm32g4xx_ll_gpio.h ****   *         @arg @ref LL_GPIO_PIN_10
 485:Drivers/STM32G4xx_HAL_Driver/Inc/stm32g4xx_ll_gpio.h ****   *         @arg @ref LL_GPIO_PIN_11
 486:Drivers/STM32G4xx_HAL_Driver/Inc/stm32g4xx_ll_gpio.h ****   *         @arg @ref LL_GPIO_PIN_12
 487:Drivers/STM32G4xx_HAL_Driver/Inc/stm32g4xx_ll_gpio.h ****   *         @arg @ref LL_GPIO_PIN_13
 488:Drivers/STM32G4xx_HAL_Driver/Inc/stm32g4xx_ll_gpio.h ****   *         @arg @ref LL_GPIO_PIN_14
 489:Drivers/STM32G4xx_HAL_Driver/Inc/stm32g4xx_ll_gpio.h ****   *         @arg @ref LL_GPIO_PIN_15
 490:Drivers/STM32G4xx_HAL_Driver/Inc/stm32g4xx_ll_gpio.h ****   * @param  Pull This parameter can be one of the following values:
 491:Drivers/STM32G4xx_HAL_Driver/Inc/stm32g4xx_ll_gpio.h ****   *         @arg @ref LL_GPIO_PULL_NO
 492:Drivers/STM32G4xx_HAL_Driver/Inc/stm32g4xx_ll_gpio.h ****   *         @arg @ref LL_GPIO_PULL_UP
 493:Drivers/STM32G4xx_HAL_Driver/Inc/stm32g4xx_ll_gpio.h ****   *         @arg @ref LL_GPIO_PULL_DOWN
 494:Drivers/STM32G4xx_HAL_Driver/Inc/stm32g4xx_ll_gpio.h ****   * @retval None
 495:Drivers/STM32G4xx_HAL_Driver/Inc/stm32g4xx_ll_gpio.h ****   */
 496:Drivers/STM32G4xx_HAL_Driver/Inc/stm32g4xx_ll_gpio.h **** __STATIC_INLINE void LL_GPIO_SetPinPull(GPIO_TypeDef *GPIOx, uint32_t Pin, uint32_t Pull)
 497:Drivers/STM32G4xx_HAL_Driver/Inc/stm32g4xx_ll_gpio.h **** {
 498:Drivers/STM32G4xx_HAL_Driver/Inc/stm32g4xx_ll_gpio.h ****   MODIFY_REG(GPIOx->PUPDR, (GPIO_PUPDR_PUPD0 << (POSITION_VAL(Pin) * 2U)), (Pull << (POSITION_VAL(P
 499:Drivers/STM32G4xx_HAL_Driver/Inc/stm32g4xx_ll_gpio.h **** }
 500:Drivers/STM32G4xx_HAL_Driver/Inc/stm32g4xx_ll_gpio.h **** 
 501:Drivers/STM32G4xx_HAL_Driver/Inc/stm32g4xx_ll_gpio.h **** /**
 502:Drivers/STM32G4xx_HAL_Driver/Inc/stm32g4xx_ll_gpio.h ****   * @brief  Return gpio pull-up or pull-down for a dedicated pin on a dedicated port
 503:Drivers/STM32G4xx_HAL_Driver/Inc/stm32g4xx_ll_gpio.h ****   * @note   Warning: only one pin can be passed as parameter.
 504:Drivers/STM32G4xx_HAL_Driver/Inc/stm32g4xx_ll_gpio.h ****   * @rmtoll PUPDR        PUPDy         LL_GPIO_GetPinPull
 505:Drivers/STM32G4xx_HAL_Driver/Inc/stm32g4xx_ll_gpio.h ****   * @param  GPIOx GPIO Port
 506:Drivers/STM32G4xx_HAL_Driver/Inc/stm32g4xx_ll_gpio.h ****   * @param  Pin This parameter can be one of the following values:
 507:Drivers/STM32G4xx_HAL_Driver/Inc/stm32g4xx_ll_gpio.h ****   *         @arg @ref LL_GPIO_PIN_0
 508:Drivers/STM32G4xx_HAL_Driver/Inc/stm32g4xx_ll_gpio.h ****   *         @arg @ref LL_GPIO_PIN_1
 509:Drivers/STM32G4xx_HAL_Driver/Inc/stm32g4xx_ll_gpio.h ****   *         @arg @ref LL_GPIO_PIN_2
 510:Drivers/STM32G4xx_HAL_Driver/Inc/stm32g4xx_ll_gpio.h ****   *         @arg @ref LL_GPIO_PIN_3
ARM GAS  /tmp/cczKoiko.s 			page 44


 511:Drivers/STM32G4xx_HAL_Driver/Inc/stm32g4xx_ll_gpio.h ****   *         @arg @ref LL_GPIO_PIN_4
 512:Drivers/STM32G4xx_HAL_Driver/Inc/stm32g4xx_ll_gpio.h ****   *         @arg @ref LL_GPIO_PIN_5
 513:Drivers/STM32G4xx_HAL_Driver/Inc/stm32g4xx_ll_gpio.h ****   *         @arg @ref LL_GPIO_PIN_6
 514:Drivers/STM32G4xx_HAL_Driver/Inc/stm32g4xx_ll_gpio.h ****   *         @arg @ref LL_GPIO_PIN_7
 515:Drivers/STM32G4xx_HAL_Driver/Inc/stm32g4xx_ll_gpio.h ****   *         @arg @ref LL_GPIO_PIN_8
 516:Drivers/STM32G4xx_HAL_Driver/Inc/stm32g4xx_ll_gpio.h ****   *         @arg @ref LL_GPIO_PIN_9
 517:Drivers/STM32G4xx_HAL_Driver/Inc/stm32g4xx_ll_gpio.h ****   *         @arg @ref LL_GPIO_PIN_10
 518:Drivers/STM32G4xx_HAL_Driver/Inc/stm32g4xx_ll_gpio.h ****   *         @arg @ref LL_GPIO_PIN_11
 519:Drivers/STM32G4xx_HAL_Driver/Inc/stm32g4xx_ll_gpio.h ****   *         @arg @ref LL_GPIO_PIN_12
 520:Drivers/STM32G4xx_HAL_Driver/Inc/stm32g4xx_ll_gpio.h ****   *         @arg @ref LL_GPIO_PIN_13
 521:Drivers/STM32G4xx_HAL_Driver/Inc/stm32g4xx_ll_gpio.h ****   *         @arg @ref LL_GPIO_PIN_14
 522:Drivers/STM32G4xx_HAL_Driver/Inc/stm32g4xx_ll_gpio.h ****   *         @arg @ref LL_GPIO_PIN_15
 523:Drivers/STM32G4xx_HAL_Driver/Inc/stm32g4xx_ll_gpio.h ****   * @retval Returned value can be one of the following values:
 524:Drivers/STM32G4xx_HAL_Driver/Inc/stm32g4xx_ll_gpio.h ****   *         @arg @ref LL_GPIO_PULL_NO
 525:Drivers/STM32G4xx_HAL_Driver/Inc/stm32g4xx_ll_gpio.h ****   *         @arg @ref LL_GPIO_PULL_UP
 526:Drivers/STM32G4xx_HAL_Driver/Inc/stm32g4xx_ll_gpio.h ****   *         @arg @ref LL_GPIO_PULL_DOWN
 527:Drivers/STM32G4xx_HAL_Driver/Inc/stm32g4xx_ll_gpio.h ****   */
 528:Drivers/STM32G4xx_HAL_Driver/Inc/stm32g4xx_ll_gpio.h **** __STATIC_INLINE uint32_t LL_GPIO_GetPinPull(GPIO_TypeDef *GPIOx, uint32_t Pin)
 529:Drivers/STM32G4xx_HAL_Driver/Inc/stm32g4xx_ll_gpio.h **** {
 530:Drivers/STM32G4xx_HAL_Driver/Inc/stm32g4xx_ll_gpio.h ****   return (uint32_t)(READ_BIT(GPIOx->PUPDR,
 531:Drivers/STM32G4xx_HAL_Driver/Inc/stm32g4xx_ll_gpio.h ****                              (GPIO_PUPDR_PUPD0 << (POSITION_VAL(Pin) * 2U))) >> (POSITION_VAL(Pin) 
 532:Drivers/STM32G4xx_HAL_Driver/Inc/stm32g4xx_ll_gpio.h **** }
 533:Drivers/STM32G4xx_HAL_Driver/Inc/stm32g4xx_ll_gpio.h **** 
 534:Drivers/STM32G4xx_HAL_Driver/Inc/stm32g4xx_ll_gpio.h **** /**
 535:Drivers/STM32G4xx_HAL_Driver/Inc/stm32g4xx_ll_gpio.h ****   * @brief  Configure gpio alternate function of a dedicated pin from 0 to 7 for a dedicated port.
 536:Drivers/STM32G4xx_HAL_Driver/Inc/stm32g4xx_ll_gpio.h ****   * @note   Possible values are from AF0 to AF15 depending on target.
 537:Drivers/STM32G4xx_HAL_Driver/Inc/stm32g4xx_ll_gpio.h ****   * @note   Warning: only one pin can be passed as parameter.
 538:Drivers/STM32G4xx_HAL_Driver/Inc/stm32g4xx_ll_gpio.h ****   * @rmtoll AFRL         AFSELy        LL_GPIO_SetAFPin_0_7
 539:Drivers/STM32G4xx_HAL_Driver/Inc/stm32g4xx_ll_gpio.h ****   * @param  GPIOx GPIO Port
 540:Drivers/STM32G4xx_HAL_Driver/Inc/stm32g4xx_ll_gpio.h ****   * @param  Pin This parameter can be one of the following values:
 541:Drivers/STM32G4xx_HAL_Driver/Inc/stm32g4xx_ll_gpio.h ****   *         @arg @ref LL_GPIO_PIN_0
 542:Drivers/STM32G4xx_HAL_Driver/Inc/stm32g4xx_ll_gpio.h ****   *         @arg @ref LL_GPIO_PIN_1
 543:Drivers/STM32G4xx_HAL_Driver/Inc/stm32g4xx_ll_gpio.h ****   *         @arg @ref LL_GPIO_PIN_2
 544:Drivers/STM32G4xx_HAL_Driver/Inc/stm32g4xx_ll_gpio.h ****   *         @arg @ref LL_GPIO_PIN_3
 545:Drivers/STM32G4xx_HAL_Driver/Inc/stm32g4xx_ll_gpio.h ****   *         @arg @ref LL_GPIO_PIN_4
 546:Drivers/STM32G4xx_HAL_Driver/Inc/stm32g4xx_ll_gpio.h ****   *         @arg @ref LL_GPIO_PIN_5
 547:Drivers/STM32G4xx_HAL_Driver/Inc/stm32g4xx_ll_gpio.h ****   *         @arg @ref LL_GPIO_PIN_6
 548:Drivers/STM32G4xx_HAL_Driver/Inc/stm32g4xx_ll_gpio.h ****   *         @arg @ref LL_GPIO_PIN_7
 549:Drivers/STM32G4xx_HAL_Driver/Inc/stm32g4xx_ll_gpio.h ****   * @param  Alternate This parameter can be one of the following values:
 550:Drivers/STM32G4xx_HAL_Driver/Inc/stm32g4xx_ll_gpio.h ****   *         @arg @ref LL_GPIO_AF_0
 551:Drivers/STM32G4xx_HAL_Driver/Inc/stm32g4xx_ll_gpio.h ****   *         @arg @ref LL_GPIO_AF_1
 552:Drivers/STM32G4xx_HAL_Driver/Inc/stm32g4xx_ll_gpio.h ****   *         @arg @ref LL_GPIO_AF_2
 553:Drivers/STM32G4xx_HAL_Driver/Inc/stm32g4xx_ll_gpio.h ****   *         @arg @ref LL_GPIO_AF_3
 554:Drivers/STM32G4xx_HAL_Driver/Inc/stm32g4xx_ll_gpio.h ****   *         @arg @ref LL_GPIO_AF_4
 555:Drivers/STM32G4xx_HAL_Driver/Inc/stm32g4xx_ll_gpio.h ****   *         @arg @ref LL_GPIO_AF_5
 556:Drivers/STM32G4xx_HAL_Driver/Inc/stm32g4xx_ll_gpio.h ****   *         @arg @ref LL_GPIO_AF_6
 557:Drivers/STM32G4xx_HAL_Driver/Inc/stm32g4xx_ll_gpio.h ****   *         @arg @ref LL_GPIO_AF_7
 558:Drivers/STM32G4xx_HAL_Driver/Inc/stm32g4xx_ll_gpio.h ****   *         @arg @ref LL_GPIO_AF_8
 559:Drivers/STM32G4xx_HAL_Driver/Inc/stm32g4xx_ll_gpio.h ****   *         @arg @ref LL_GPIO_AF_9
 560:Drivers/STM32G4xx_HAL_Driver/Inc/stm32g4xx_ll_gpio.h ****   *         @arg @ref LL_GPIO_AF_10
 561:Drivers/STM32G4xx_HAL_Driver/Inc/stm32g4xx_ll_gpio.h ****   *         @arg @ref LL_GPIO_AF_11
 562:Drivers/STM32G4xx_HAL_Driver/Inc/stm32g4xx_ll_gpio.h ****   *         @arg @ref LL_GPIO_AF_12
 563:Drivers/STM32G4xx_HAL_Driver/Inc/stm32g4xx_ll_gpio.h ****   *         @arg @ref LL_GPIO_AF_13
 564:Drivers/STM32G4xx_HAL_Driver/Inc/stm32g4xx_ll_gpio.h ****   *         @arg @ref LL_GPIO_AF_14
 565:Drivers/STM32G4xx_HAL_Driver/Inc/stm32g4xx_ll_gpio.h ****   *         @arg @ref LL_GPIO_AF_15
 566:Drivers/STM32G4xx_HAL_Driver/Inc/stm32g4xx_ll_gpio.h ****   * @retval None
 567:Drivers/STM32G4xx_HAL_Driver/Inc/stm32g4xx_ll_gpio.h ****   */
ARM GAS  /tmp/cczKoiko.s 			page 45


 568:Drivers/STM32G4xx_HAL_Driver/Inc/stm32g4xx_ll_gpio.h **** __STATIC_INLINE void LL_GPIO_SetAFPin_0_7(GPIO_TypeDef *GPIOx, uint32_t Pin, uint32_t Alternate)
 569:Drivers/STM32G4xx_HAL_Driver/Inc/stm32g4xx_ll_gpio.h **** {
 570:Drivers/STM32G4xx_HAL_Driver/Inc/stm32g4xx_ll_gpio.h ****   MODIFY_REG(GPIOx->AFR[0], (GPIO_AFRL_AFSEL0 << (POSITION_VAL(Pin) * 4U)),
 571:Drivers/STM32G4xx_HAL_Driver/Inc/stm32g4xx_ll_gpio.h ****              (Alternate << (POSITION_VAL(Pin) * 4U)));
 572:Drivers/STM32G4xx_HAL_Driver/Inc/stm32g4xx_ll_gpio.h **** }
 573:Drivers/STM32G4xx_HAL_Driver/Inc/stm32g4xx_ll_gpio.h **** 
 574:Drivers/STM32G4xx_HAL_Driver/Inc/stm32g4xx_ll_gpio.h **** /**
 575:Drivers/STM32G4xx_HAL_Driver/Inc/stm32g4xx_ll_gpio.h ****   * @brief  Return gpio alternate function of a dedicated pin from 0 to 7 for a dedicated port.
 576:Drivers/STM32G4xx_HAL_Driver/Inc/stm32g4xx_ll_gpio.h ****   * @rmtoll AFRL         AFSELy        LL_GPIO_GetAFPin_0_7
 577:Drivers/STM32G4xx_HAL_Driver/Inc/stm32g4xx_ll_gpio.h ****   * @param  GPIOx GPIO Port
 578:Drivers/STM32G4xx_HAL_Driver/Inc/stm32g4xx_ll_gpio.h ****   * @param  Pin This parameter can be one of the following values:
 579:Drivers/STM32G4xx_HAL_Driver/Inc/stm32g4xx_ll_gpio.h ****   *         @arg @ref LL_GPIO_PIN_0
 580:Drivers/STM32G4xx_HAL_Driver/Inc/stm32g4xx_ll_gpio.h ****   *         @arg @ref LL_GPIO_PIN_1
 581:Drivers/STM32G4xx_HAL_Driver/Inc/stm32g4xx_ll_gpio.h ****   *         @arg @ref LL_GPIO_PIN_2
 582:Drivers/STM32G4xx_HAL_Driver/Inc/stm32g4xx_ll_gpio.h ****   *         @arg @ref LL_GPIO_PIN_3
 583:Drivers/STM32G4xx_HAL_Driver/Inc/stm32g4xx_ll_gpio.h ****   *         @arg @ref LL_GPIO_PIN_4
 584:Drivers/STM32G4xx_HAL_Driver/Inc/stm32g4xx_ll_gpio.h ****   *         @arg @ref LL_GPIO_PIN_5
 585:Drivers/STM32G4xx_HAL_Driver/Inc/stm32g4xx_ll_gpio.h ****   *         @arg @ref LL_GPIO_PIN_6
 586:Drivers/STM32G4xx_HAL_Driver/Inc/stm32g4xx_ll_gpio.h ****   *         @arg @ref LL_GPIO_PIN_7
 587:Drivers/STM32G4xx_HAL_Driver/Inc/stm32g4xx_ll_gpio.h ****   * @retval Returned value can be one of the following values:
 588:Drivers/STM32G4xx_HAL_Driver/Inc/stm32g4xx_ll_gpio.h ****   *         @arg @ref LL_GPIO_AF_0
 589:Drivers/STM32G4xx_HAL_Driver/Inc/stm32g4xx_ll_gpio.h ****   *         @arg @ref LL_GPIO_AF_1
 590:Drivers/STM32G4xx_HAL_Driver/Inc/stm32g4xx_ll_gpio.h ****   *         @arg @ref LL_GPIO_AF_2
 591:Drivers/STM32G4xx_HAL_Driver/Inc/stm32g4xx_ll_gpio.h ****   *         @arg @ref LL_GPIO_AF_3
 592:Drivers/STM32G4xx_HAL_Driver/Inc/stm32g4xx_ll_gpio.h ****   *         @arg @ref LL_GPIO_AF_4
 593:Drivers/STM32G4xx_HAL_Driver/Inc/stm32g4xx_ll_gpio.h ****   *         @arg @ref LL_GPIO_AF_5
 594:Drivers/STM32G4xx_HAL_Driver/Inc/stm32g4xx_ll_gpio.h ****   *         @arg @ref LL_GPIO_AF_6
 595:Drivers/STM32G4xx_HAL_Driver/Inc/stm32g4xx_ll_gpio.h ****   *         @arg @ref LL_GPIO_AF_7
 596:Drivers/STM32G4xx_HAL_Driver/Inc/stm32g4xx_ll_gpio.h ****   *         @arg @ref LL_GPIO_AF_8
 597:Drivers/STM32G4xx_HAL_Driver/Inc/stm32g4xx_ll_gpio.h ****   *         @arg @ref LL_GPIO_AF_9
 598:Drivers/STM32G4xx_HAL_Driver/Inc/stm32g4xx_ll_gpio.h ****   *         @arg @ref LL_GPIO_AF_10
 599:Drivers/STM32G4xx_HAL_Driver/Inc/stm32g4xx_ll_gpio.h ****   *         @arg @ref LL_GPIO_AF_11
 600:Drivers/STM32G4xx_HAL_Driver/Inc/stm32g4xx_ll_gpio.h ****   *         @arg @ref LL_GPIO_AF_12
 601:Drivers/STM32G4xx_HAL_Driver/Inc/stm32g4xx_ll_gpio.h ****   *         @arg @ref LL_GPIO_AF_13
 602:Drivers/STM32G4xx_HAL_Driver/Inc/stm32g4xx_ll_gpio.h ****   *         @arg @ref LL_GPIO_AF_14
 603:Drivers/STM32G4xx_HAL_Driver/Inc/stm32g4xx_ll_gpio.h ****   *         @arg @ref LL_GPIO_AF_15
 604:Drivers/STM32G4xx_HAL_Driver/Inc/stm32g4xx_ll_gpio.h ****   */
 605:Drivers/STM32G4xx_HAL_Driver/Inc/stm32g4xx_ll_gpio.h **** __STATIC_INLINE uint32_t LL_GPIO_GetAFPin_0_7(GPIO_TypeDef *GPIOx, uint32_t Pin)
 606:Drivers/STM32G4xx_HAL_Driver/Inc/stm32g4xx_ll_gpio.h **** {
 607:Drivers/STM32G4xx_HAL_Driver/Inc/stm32g4xx_ll_gpio.h ****   return (uint32_t)(READ_BIT(GPIOx->AFR[0],
 608:Drivers/STM32G4xx_HAL_Driver/Inc/stm32g4xx_ll_gpio.h ****                              (GPIO_AFRL_AFSEL0 << (POSITION_VAL(Pin) * 4U))) >> (POSITION_VAL(Pin) 
 609:Drivers/STM32G4xx_HAL_Driver/Inc/stm32g4xx_ll_gpio.h **** }
 610:Drivers/STM32G4xx_HAL_Driver/Inc/stm32g4xx_ll_gpio.h **** 
 611:Drivers/STM32G4xx_HAL_Driver/Inc/stm32g4xx_ll_gpio.h **** /**
 612:Drivers/STM32G4xx_HAL_Driver/Inc/stm32g4xx_ll_gpio.h ****   * @brief  Configure gpio alternate function of a dedicated pin from 8 to 15 for a dedicated port.
 613:Drivers/STM32G4xx_HAL_Driver/Inc/stm32g4xx_ll_gpio.h ****   * @note   Possible values are from AF0 to AF15 depending on target.
 614:Drivers/STM32G4xx_HAL_Driver/Inc/stm32g4xx_ll_gpio.h ****   * @note   Warning: only one pin can be passed as parameter.
 615:Drivers/STM32G4xx_HAL_Driver/Inc/stm32g4xx_ll_gpio.h ****   * @rmtoll AFRH         AFSELy        LL_GPIO_SetAFPin_8_15
 616:Drivers/STM32G4xx_HAL_Driver/Inc/stm32g4xx_ll_gpio.h ****   * @param  GPIOx GPIO Port
 617:Drivers/STM32G4xx_HAL_Driver/Inc/stm32g4xx_ll_gpio.h ****   * @param  Pin This parameter can be one of the following values:
 618:Drivers/STM32G4xx_HAL_Driver/Inc/stm32g4xx_ll_gpio.h ****   *         @arg @ref LL_GPIO_PIN_8
 619:Drivers/STM32G4xx_HAL_Driver/Inc/stm32g4xx_ll_gpio.h ****   *         @arg @ref LL_GPIO_PIN_9
 620:Drivers/STM32G4xx_HAL_Driver/Inc/stm32g4xx_ll_gpio.h ****   *         @arg @ref LL_GPIO_PIN_10
 621:Drivers/STM32G4xx_HAL_Driver/Inc/stm32g4xx_ll_gpio.h ****   *         @arg @ref LL_GPIO_PIN_11
 622:Drivers/STM32G4xx_HAL_Driver/Inc/stm32g4xx_ll_gpio.h ****   *         @arg @ref LL_GPIO_PIN_12
 623:Drivers/STM32G4xx_HAL_Driver/Inc/stm32g4xx_ll_gpio.h ****   *         @arg @ref LL_GPIO_PIN_13
 624:Drivers/STM32G4xx_HAL_Driver/Inc/stm32g4xx_ll_gpio.h ****   *         @arg @ref LL_GPIO_PIN_14
ARM GAS  /tmp/cczKoiko.s 			page 46


 625:Drivers/STM32G4xx_HAL_Driver/Inc/stm32g4xx_ll_gpio.h ****   *         @arg @ref LL_GPIO_PIN_15
 626:Drivers/STM32G4xx_HAL_Driver/Inc/stm32g4xx_ll_gpio.h ****   * @param  Alternate This parameter can be one of the following values:
 627:Drivers/STM32G4xx_HAL_Driver/Inc/stm32g4xx_ll_gpio.h ****   *         @arg @ref LL_GPIO_AF_0
 628:Drivers/STM32G4xx_HAL_Driver/Inc/stm32g4xx_ll_gpio.h ****   *         @arg @ref LL_GPIO_AF_1
 629:Drivers/STM32G4xx_HAL_Driver/Inc/stm32g4xx_ll_gpio.h ****   *         @arg @ref LL_GPIO_AF_2
 630:Drivers/STM32G4xx_HAL_Driver/Inc/stm32g4xx_ll_gpio.h ****   *         @arg @ref LL_GPIO_AF_3
 631:Drivers/STM32G4xx_HAL_Driver/Inc/stm32g4xx_ll_gpio.h ****   *         @arg @ref LL_GPIO_AF_4
 632:Drivers/STM32G4xx_HAL_Driver/Inc/stm32g4xx_ll_gpio.h ****   *         @arg @ref LL_GPIO_AF_5
 633:Drivers/STM32G4xx_HAL_Driver/Inc/stm32g4xx_ll_gpio.h ****   *         @arg @ref LL_GPIO_AF_6
 634:Drivers/STM32G4xx_HAL_Driver/Inc/stm32g4xx_ll_gpio.h ****   *         @arg @ref LL_GPIO_AF_7
 635:Drivers/STM32G4xx_HAL_Driver/Inc/stm32g4xx_ll_gpio.h ****   *         @arg @ref LL_GPIO_AF_8
 636:Drivers/STM32G4xx_HAL_Driver/Inc/stm32g4xx_ll_gpio.h ****   *         @arg @ref LL_GPIO_AF_9
 637:Drivers/STM32G4xx_HAL_Driver/Inc/stm32g4xx_ll_gpio.h ****   *         @arg @ref LL_GPIO_AF_10
 638:Drivers/STM32G4xx_HAL_Driver/Inc/stm32g4xx_ll_gpio.h ****   *         @arg @ref LL_GPIO_AF_11
 639:Drivers/STM32G4xx_HAL_Driver/Inc/stm32g4xx_ll_gpio.h ****   *         @arg @ref LL_GPIO_AF_12
 640:Drivers/STM32G4xx_HAL_Driver/Inc/stm32g4xx_ll_gpio.h ****   *         @arg @ref LL_GPIO_AF_13
 641:Drivers/STM32G4xx_HAL_Driver/Inc/stm32g4xx_ll_gpio.h ****   *         @arg @ref LL_GPIO_AF_14
 642:Drivers/STM32G4xx_HAL_Driver/Inc/stm32g4xx_ll_gpio.h ****   *         @arg @ref LL_GPIO_AF_15
 643:Drivers/STM32G4xx_HAL_Driver/Inc/stm32g4xx_ll_gpio.h ****   * @retval None
 644:Drivers/STM32G4xx_HAL_Driver/Inc/stm32g4xx_ll_gpio.h ****   */
 645:Drivers/STM32G4xx_HAL_Driver/Inc/stm32g4xx_ll_gpio.h **** __STATIC_INLINE void LL_GPIO_SetAFPin_8_15(GPIO_TypeDef *GPIOx, uint32_t Pin, uint32_t Alternate)
 646:Drivers/STM32G4xx_HAL_Driver/Inc/stm32g4xx_ll_gpio.h **** {
 647:Drivers/STM32G4xx_HAL_Driver/Inc/stm32g4xx_ll_gpio.h ****   MODIFY_REG(GPIOx->AFR[1], (GPIO_AFRH_AFSEL8 << (POSITION_VAL(Pin >> 8U) * 4U)),
 648:Drivers/STM32G4xx_HAL_Driver/Inc/stm32g4xx_ll_gpio.h ****              (Alternate << (POSITION_VAL(Pin >> 8U) * 4U)));
 649:Drivers/STM32G4xx_HAL_Driver/Inc/stm32g4xx_ll_gpio.h **** }
 650:Drivers/STM32G4xx_HAL_Driver/Inc/stm32g4xx_ll_gpio.h **** 
 651:Drivers/STM32G4xx_HAL_Driver/Inc/stm32g4xx_ll_gpio.h **** /**
 652:Drivers/STM32G4xx_HAL_Driver/Inc/stm32g4xx_ll_gpio.h ****   * @brief  Return gpio alternate function of a dedicated pin from 8 to 15 for a dedicated port.
 653:Drivers/STM32G4xx_HAL_Driver/Inc/stm32g4xx_ll_gpio.h ****   * @note   Possible values are from AF0 to AF15 depending on target.
 654:Drivers/STM32G4xx_HAL_Driver/Inc/stm32g4xx_ll_gpio.h ****   * @rmtoll AFRH         AFSELy        LL_GPIO_GetAFPin_8_15
 655:Drivers/STM32G4xx_HAL_Driver/Inc/stm32g4xx_ll_gpio.h ****   * @param  GPIOx GPIO Port
 656:Drivers/STM32G4xx_HAL_Driver/Inc/stm32g4xx_ll_gpio.h ****   * @param  Pin This parameter can be one of the following values:
 657:Drivers/STM32G4xx_HAL_Driver/Inc/stm32g4xx_ll_gpio.h ****   *         @arg @ref LL_GPIO_PIN_8
 658:Drivers/STM32G4xx_HAL_Driver/Inc/stm32g4xx_ll_gpio.h ****   *         @arg @ref LL_GPIO_PIN_9
 659:Drivers/STM32G4xx_HAL_Driver/Inc/stm32g4xx_ll_gpio.h ****   *         @arg @ref LL_GPIO_PIN_10
 660:Drivers/STM32G4xx_HAL_Driver/Inc/stm32g4xx_ll_gpio.h ****   *         @arg @ref LL_GPIO_PIN_11
 661:Drivers/STM32G4xx_HAL_Driver/Inc/stm32g4xx_ll_gpio.h ****   *         @arg @ref LL_GPIO_PIN_12
 662:Drivers/STM32G4xx_HAL_Driver/Inc/stm32g4xx_ll_gpio.h ****   *         @arg @ref LL_GPIO_PIN_13
 663:Drivers/STM32G4xx_HAL_Driver/Inc/stm32g4xx_ll_gpio.h ****   *         @arg @ref LL_GPIO_PIN_14
 664:Drivers/STM32G4xx_HAL_Driver/Inc/stm32g4xx_ll_gpio.h ****   *         @arg @ref LL_GPIO_PIN_15
 665:Drivers/STM32G4xx_HAL_Driver/Inc/stm32g4xx_ll_gpio.h ****   * @retval Returned value can be one of the following values:
 666:Drivers/STM32G4xx_HAL_Driver/Inc/stm32g4xx_ll_gpio.h ****   *         @arg @ref LL_GPIO_AF_0
 667:Drivers/STM32G4xx_HAL_Driver/Inc/stm32g4xx_ll_gpio.h ****   *         @arg @ref LL_GPIO_AF_1
 668:Drivers/STM32G4xx_HAL_Driver/Inc/stm32g4xx_ll_gpio.h ****   *         @arg @ref LL_GPIO_AF_2
 669:Drivers/STM32G4xx_HAL_Driver/Inc/stm32g4xx_ll_gpio.h ****   *         @arg @ref LL_GPIO_AF_3
 670:Drivers/STM32G4xx_HAL_Driver/Inc/stm32g4xx_ll_gpio.h ****   *         @arg @ref LL_GPIO_AF_4
 671:Drivers/STM32G4xx_HAL_Driver/Inc/stm32g4xx_ll_gpio.h ****   *         @arg @ref LL_GPIO_AF_5
 672:Drivers/STM32G4xx_HAL_Driver/Inc/stm32g4xx_ll_gpio.h ****   *         @arg @ref LL_GPIO_AF_6
 673:Drivers/STM32G4xx_HAL_Driver/Inc/stm32g4xx_ll_gpio.h ****   *         @arg @ref LL_GPIO_AF_7
 674:Drivers/STM32G4xx_HAL_Driver/Inc/stm32g4xx_ll_gpio.h ****   *         @arg @ref LL_GPIO_AF_8
 675:Drivers/STM32G4xx_HAL_Driver/Inc/stm32g4xx_ll_gpio.h ****   *         @arg @ref LL_GPIO_AF_9
 676:Drivers/STM32G4xx_HAL_Driver/Inc/stm32g4xx_ll_gpio.h ****   *         @arg @ref LL_GPIO_AF_10
 677:Drivers/STM32G4xx_HAL_Driver/Inc/stm32g4xx_ll_gpio.h ****   *         @arg @ref LL_GPIO_AF_11
 678:Drivers/STM32G4xx_HAL_Driver/Inc/stm32g4xx_ll_gpio.h ****   *         @arg @ref LL_GPIO_AF_12
 679:Drivers/STM32G4xx_HAL_Driver/Inc/stm32g4xx_ll_gpio.h ****   *         @arg @ref LL_GPIO_AF_13
 680:Drivers/STM32G4xx_HAL_Driver/Inc/stm32g4xx_ll_gpio.h ****   *         @arg @ref LL_GPIO_AF_14
 681:Drivers/STM32G4xx_HAL_Driver/Inc/stm32g4xx_ll_gpio.h ****   *         @arg @ref LL_GPIO_AF_15
ARM GAS  /tmp/cczKoiko.s 			page 47


 682:Drivers/STM32G4xx_HAL_Driver/Inc/stm32g4xx_ll_gpio.h ****   */
 683:Drivers/STM32G4xx_HAL_Driver/Inc/stm32g4xx_ll_gpio.h **** __STATIC_INLINE uint32_t LL_GPIO_GetAFPin_8_15(GPIO_TypeDef *GPIOx, uint32_t Pin)
 684:Drivers/STM32G4xx_HAL_Driver/Inc/stm32g4xx_ll_gpio.h **** {
 685:Drivers/STM32G4xx_HAL_Driver/Inc/stm32g4xx_ll_gpio.h ****   return (uint32_t)(READ_BIT(GPIOx->AFR[1],
 686:Drivers/STM32G4xx_HAL_Driver/Inc/stm32g4xx_ll_gpio.h ****                              (GPIO_AFRH_AFSEL8 << (POSITION_VAL(Pin >> 8U) * 4U))) >> (POSITION_VAL
 687:Drivers/STM32G4xx_HAL_Driver/Inc/stm32g4xx_ll_gpio.h **** }
 688:Drivers/STM32G4xx_HAL_Driver/Inc/stm32g4xx_ll_gpio.h **** 
 689:Drivers/STM32G4xx_HAL_Driver/Inc/stm32g4xx_ll_gpio.h **** 
 690:Drivers/STM32G4xx_HAL_Driver/Inc/stm32g4xx_ll_gpio.h **** /**
 691:Drivers/STM32G4xx_HAL_Driver/Inc/stm32g4xx_ll_gpio.h ****   * @brief  Lock configuration of several pins for a dedicated port.
 692:Drivers/STM32G4xx_HAL_Driver/Inc/stm32g4xx_ll_gpio.h ****   * @note   When the lock sequence has been applied on a port bit, the
 693:Drivers/STM32G4xx_HAL_Driver/Inc/stm32g4xx_ll_gpio.h ****   *         value of this port bit can no longer be modified until the
 694:Drivers/STM32G4xx_HAL_Driver/Inc/stm32g4xx_ll_gpio.h ****   *         next reset.
 695:Drivers/STM32G4xx_HAL_Driver/Inc/stm32g4xx_ll_gpio.h ****   * @note   Each lock bit freezes a specific configuration register
 696:Drivers/STM32G4xx_HAL_Driver/Inc/stm32g4xx_ll_gpio.h ****   *         (control and alternate function registers).
 697:Drivers/STM32G4xx_HAL_Driver/Inc/stm32g4xx_ll_gpio.h ****   * @rmtoll LCKR         LCKK          LL_GPIO_LockPin
 698:Drivers/STM32G4xx_HAL_Driver/Inc/stm32g4xx_ll_gpio.h ****   * @param  GPIOx GPIO Port
 699:Drivers/STM32G4xx_HAL_Driver/Inc/stm32g4xx_ll_gpio.h ****   * @param  PinMask This parameter can be a combination of the following values:
 700:Drivers/STM32G4xx_HAL_Driver/Inc/stm32g4xx_ll_gpio.h ****   *         @arg @ref LL_GPIO_PIN_0
 701:Drivers/STM32G4xx_HAL_Driver/Inc/stm32g4xx_ll_gpio.h ****   *         @arg @ref LL_GPIO_PIN_1
 702:Drivers/STM32G4xx_HAL_Driver/Inc/stm32g4xx_ll_gpio.h ****   *         @arg @ref LL_GPIO_PIN_2
 703:Drivers/STM32G4xx_HAL_Driver/Inc/stm32g4xx_ll_gpio.h ****   *         @arg @ref LL_GPIO_PIN_3
 704:Drivers/STM32G4xx_HAL_Driver/Inc/stm32g4xx_ll_gpio.h ****   *         @arg @ref LL_GPIO_PIN_4
 705:Drivers/STM32G4xx_HAL_Driver/Inc/stm32g4xx_ll_gpio.h ****   *         @arg @ref LL_GPIO_PIN_5
 706:Drivers/STM32G4xx_HAL_Driver/Inc/stm32g4xx_ll_gpio.h ****   *         @arg @ref LL_GPIO_PIN_6
 707:Drivers/STM32G4xx_HAL_Driver/Inc/stm32g4xx_ll_gpio.h ****   *         @arg @ref LL_GPIO_PIN_7
 708:Drivers/STM32G4xx_HAL_Driver/Inc/stm32g4xx_ll_gpio.h ****   *         @arg @ref LL_GPIO_PIN_8
 709:Drivers/STM32G4xx_HAL_Driver/Inc/stm32g4xx_ll_gpio.h ****   *         @arg @ref LL_GPIO_PIN_9
 710:Drivers/STM32G4xx_HAL_Driver/Inc/stm32g4xx_ll_gpio.h ****   *         @arg @ref LL_GPIO_PIN_10
 711:Drivers/STM32G4xx_HAL_Driver/Inc/stm32g4xx_ll_gpio.h ****   *         @arg @ref LL_GPIO_PIN_11
 712:Drivers/STM32G4xx_HAL_Driver/Inc/stm32g4xx_ll_gpio.h ****   *         @arg @ref LL_GPIO_PIN_12
 713:Drivers/STM32G4xx_HAL_Driver/Inc/stm32g4xx_ll_gpio.h ****   *         @arg @ref LL_GPIO_PIN_13
 714:Drivers/STM32G4xx_HAL_Driver/Inc/stm32g4xx_ll_gpio.h ****   *         @arg @ref LL_GPIO_PIN_14
 715:Drivers/STM32G4xx_HAL_Driver/Inc/stm32g4xx_ll_gpio.h ****   *         @arg @ref LL_GPIO_PIN_15
 716:Drivers/STM32G4xx_HAL_Driver/Inc/stm32g4xx_ll_gpio.h ****   *         @arg @ref LL_GPIO_PIN_ALL
 717:Drivers/STM32G4xx_HAL_Driver/Inc/stm32g4xx_ll_gpio.h ****   * @retval None
 718:Drivers/STM32G4xx_HAL_Driver/Inc/stm32g4xx_ll_gpio.h ****   */
 719:Drivers/STM32G4xx_HAL_Driver/Inc/stm32g4xx_ll_gpio.h **** __STATIC_INLINE void LL_GPIO_LockPin(GPIO_TypeDef *GPIOx, uint32_t PinMask)
 1137              		.loc 4 719 22 view .LVU255
 1138              	.LBB73:
 720:Drivers/STM32G4xx_HAL_Driver/Inc/stm32g4xx_ll_gpio.h **** {
 721:Drivers/STM32G4xx_HAL_Driver/Inc/stm32g4xx_ll_gpio.h ****   __IO uint32_t temp;
 1139              		.loc 4 721 3 view .LVU256
 722:Drivers/STM32G4xx_HAL_Driver/Inc/stm32g4xx_ll_gpio.h ****   WRITE_REG(GPIOx->LCKR, GPIO_LCKR_LCKK | PinMask);
 1140              		.loc 4 722 3 view .LVU257
 1141              	.LBE73:
 1142              	.LBE72:
 531:Src/mc_tasks.c **** LL_GPIO_LockPin(M1_TEMPERATURE_GPIO_Port, M1_TEMPERATURE_Pin);
 1143              		.loc 1 531 1 is_stmt 0 view .LVU258
 1144 0000 30B4     		push	{r4, r5}
 1145              	.LCFI27:
 1146              		.cfi_def_cfa_offset 8
 1147              		.cfi_offset 4, -8
 1148              		.cfi_offset 5, -4
 1149              	.LBB77:
 1150              	.LBB74:
 1151              		.loc 4 722 3 view .LVU259
ARM GAS  /tmp/cczKoiko.s 			page 48


 1152 0002 464A     		ldr	r2, .L101
 1153 0004 464B     		ldr	r3, .L101+4
 1154 0006 D361     		str	r3, [r2, #28]
 723:Drivers/STM32G4xx_HAL_Driver/Inc/stm32g4xx_ll_gpio.h ****   WRITE_REG(GPIOx->LCKR, PinMask);
 1155              		.loc 4 723 3 is_stmt 1 view .LVU260
 1156 0008 1021     		movs	r1, #16
 1157 000a D161     		str	r1, [r2, #28]
 724:Drivers/STM32G4xx_HAL_Driver/Inc/stm32g4xx_ll_gpio.h ****   WRITE_REG(GPIOx->LCKR, GPIO_LCKR_LCKK | PinMask);
 1158              		.loc 4 724 3 view .LVU261
 1159              	.LBE74:
 1160              	.LBE77:
 531:Src/mc_tasks.c **** LL_GPIO_LockPin(M1_TEMPERATURE_GPIO_Port, M1_TEMPERATURE_Pin);
 1161              		.loc 1 531 1 is_stmt 0 view .LVU262
 1162 000c 90B0     		sub	sp, sp, #64
 1163              	.LCFI28:
 1164              		.cfi_def_cfa_offset 72
 1165              	.LBB78:
 1166              	.LBB75:
 1167              		.loc 4 724 3 view .LVU263
 1168 000e D361     		str	r3, [r2, #28]
 725:Drivers/STM32G4xx_HAL_Driver/Inc/stm32g4xx_ll_gpio.h ****   /* Read LCKR register. This read is mandatory to complete key lock sequence */
 726:Drivers/STM32G4xx_HAL_Driver/Inc/stm32g4xx_ll_gpio.h ****   temp = READ_REG(GPIOx->LCKR);
 1169              		.loc 4 726 3 is_stmt 1 view .LVU264
 1170              		.loc 4 726 10 is_stmt 0 view .LVU265
 1171 0010 D169     		ldr	r1, [r2, #28]
 1172              		.loc 4 726 8 view .LVU266
 1173 0012 0F91     		str	r1, [sp, #60]
 727:Drivers/STM32G4xx_HAL_Driver/Inc/stm32g4xx_ll_gpio.h ****   (void) temp;
 1174              		.loc 4 727 3 is_stmt 1 view .LVU267
 1175              	.LBE75:
 1176              	.LBE78:
 1177              	.LBB79:
 1178              	.LBB80:
 722:Drivers/STM32G4xx_HAL_Driver/Inc/stm32g4xx_ll_gpio.h ****   WRITE_REG(GPIOx->LCKR, PinMask);
 1179              		.loc 4 722 3 is_stmt 0 view .LVU268
 1180 0014 4FF09043 		mov	r3, #1207959552
 1181 0018 4FF00111 		mov	r1, #65537
 723:Drivers/STM32G4xx_HAL_Driver/Inc/stm32g4xx_ll_gpio.h ****   WRITE_REG(GPIOx->LCKR, GPIO_LCKR_LCKK | PinMask);
 1182              		.loc 4 723 3 view .LVU269
 1183 001c 0120     		movs	r0, #1
 1184              	.LBE80:
 1185              	.LBE79:
 1186              	.LBB82:
 1187              	.LBB76:
 1188              		.loc 4 727 3 view .LVU270
 1189 001e 0F9C     		ldr	r4, [sp, #60]
 1190              	.LVL87:
 1191              		.loc 4 727 3 view .LVU271
 1192              	.LBE76:
 1193              	.LBE82:
 533:Src/mc_tasks.c **** LL_GPIO_LockPin(M1_BUS_VOLTAGE_GPIO_Port, M1_BUS_VOLTAGE_Pin);
 1194              		.loc 1 533 1 is_stmt 1 view .LVU272
 1195              	.LBB83:
 1196              	.LBI79:
 719:Drivers/STM32G4xx_HAL_Driver/Inc/stm32g4xx_ll_gpio.h **** {
 1197              		.loc 4 719 22 view .LVU273
 1198              	.LBB81:
ARM GAS  /tmp/cczKoiko.s 			page 49


 721:Drivers/STM32G4xx_HAL_Driver/Inc/stm32g4xx_ll_gpio.h ****   WRITE_REG(GPIOx->LCKR, GPIO_LCKR_LCKK | PinMask);
 1199              		.loc 4 721 3 view .LVU274
 722:Drivers/STM32G4xx_HAL_Driver/Inc/stm32g4xx_ll_gpio.h ****   WRITE_REG(GPIOx->LCKR, PinMask);
 1200              		.loc 4 722 3 view .LVU275
 1201 0020 D961     		str	r1, [r3, #28]
 723:Drivers/STM32G4xx_HAL_Driver/Inc/stm32g4xx_ll_gpio.h ****   WRITE_REG(GPIOx->LCKR, GPIO_LCKR_LCKK | PinMask);
 1202              		.loc 4 723 3 view .LVU276
 1203 0022 D861     		str	r0, [r3, #28]
 724:Drivers/STM32G4xx_HAL_Driver/Inc/stm32g4xx_ll_gpio.h ****   /* Read LCKR register. This read is mandatory to complete key lock sequence */
 1204              		.loc 4 724 3 view .LVU277
 1205 0024 D961     		str	r1, [r3, #28]
 726:Drivers/STM32G4xx_HAL_Driver/Inc/stm32g4xx_ll_gpio.h ****   (void) temp;
 1206              		.loc 4 726 3 view .LVU278
 726:Drivers/STM32G4xx_HAL_Driver/Inc/stm32g4xx_ll_gpio.h ****   (void) temp;
 1207              		.loc 4 726 10 is_stmt 0 view .LVU279
 1208 0026 DC69     		ldr	r4, [r3, #28]
 726:Drivers/STM32G4xx_HAL_Driver/Inc/stm32g4xx_ll_gpio.h ****   (void) temp;
 1209              		.loc 4 726 8 view .LVU280
 1210 0028 0E94     		str	r4, [sp, #56]
 1211              		.loc 4 727 3 is_stmt 1 view .LVU281
 1212 002a 0E9D     		ldr	r5, [sp, #56]
 1213              	.LVL88:
 1214              		.loc 4 727 3 is_stmt 0 view .LVU282
 1215              	.LBE81:
 1216              	.LBE83:
 534:Src/mc_tasks.c **** LL_GPIO_LockPin(M1_CURR_SHUNT_V_GPIO_Port, M1_CURR_SHUNT_V_Pin);
 1217              		.loc 1 534 1 is_stmt 1 view .LVU283
 1218              	.LBB84:
 1219              	.LBI84:
 719:Drivers/STM32G4xx_HAL_Driver/Inc/stm32g4xx_ll_gpio.h **** {
 1220              		.loc 4 719 22 view .LVU284
 1221              	.LBB85:
 721:Drivers/STM32G4xx_HAL_Driver/Inc/stm32g4xx_ll_gpio.h ****   WRITE_REG(GPIOx->LCKR, GPIO_LCKR_LCKK | PinMask);
 1222              		.loc 4 721 3 view .LVU285
 722:Drivers/STM32G4xx_HAL_Driver/Inc/stm32g4xx_ll_gpio.h ****   WRITE_REG(GPIOx->LCKR, PinMask);
 1223              		.loc 4 722 3 view .LVU286
 1224 002c 3D4C     		ldr	r4, .L101+8
 1225 002e DC61     		str	r4, [r3, #28]
 723:Drivers/STM32G4xx_HAL_Driver/Inc/stm32g4xx_ll_gpio.h ****   WRITE_REG(GPIOx->LCKR, GPIO_LCKR_LCKK | PinMask);
 1226              		.loc 4 723 3 view .LVU287
 1227 0030 8025     		movs	r5, #128
 1228 0032 DD61     		str	r5, [r3, #28]
 724:Drivers/STM32G4xx_HAL_Driver/Inc/stm32g4xx_ll_gpio.h ****   /* Read LCKR register. This read is mandatory to complete key lock sequence */
 1229              		.loc 4 724 3 view .LVU288
 1230 0034 DC61     		str	r4, [r3, #28]
 726:Drivers/STM32G4xx_HAL_Driver/Inc/stm32g4xx_ll_gpio.h ****   (void) temp;
 1231              		.loc 4 726 3 view .LVU289
 726:Drivers/STM32G4xx_HAL_Driver/Inc/stm32g4xx_ll_gpio.h ****   (void) temp;
 1232              		.loc 4 726 10 is_stmt 0 view .LVU290
 1233 0036 DC69     		ldr	r4, [r3, #28]
 726:Drivers/STM32G4xx_HAL_Driver/Inc/stm32g4xx_ll_gpio.h ****   (void) temp;
 1234              		.loc 4 726 8 view .LVU291
 1235 0038 0D94     		str	r4, [sp, #52]
 1236              		.loc 4 727 3 is_stmt 1 view .LVU292
 1237 003a 0D9D     		ldr	r5, [sp, #52]
 1238              	.LVL89:
 1239              		.loc 4 727 3 is_stmt 0 view .LVU293
ARM GAS  /tmp/cczKoiko.s 			page 50


 1240              	.LBE85:
 1241              	.LBE84:
 535:Src/mc_tasks.c **** LL_GPIO_LockPin(M1_CURR_SHUNT_U_GPIO_Port, M1_CURR_SHUNT_U_Pin);
 1242              		.loc 1 535 1 is_stmt 1 view .LVU294
 1243              	.LBB86:
 1244              	.LBI86:
 719:Drivers/STM32G4xx_HAL_Driver/Inc/stm32g4xx_ll_gpio.h **** {
 1245              		.loc 4 719 22 view .LVU295
 1246              	.LBB87:
 721:Drivers/STM32G4xx_HAL_Driver/Inc/stm32g4xx_ll_gpio.h ****   WRITE_REG(GPIOx->LCKR, GPIO_LCKR_LCKK | PinMask);
 1247              		.loc 4 721 3 view .LVU296
 722:Drivers/STM32G4xx_HAL_Driver/Inc/stm32g4xx_ll_gpio.h ****   WRITE_REG(GPIOx->LCKR, PinMask);
 1248              		.loc 4 722 3 view .LVU297
 1249 003c 3A4C     		ldr	r4, .L101+12
 1250 003e DC61     		str	r4, [r3, #28]
 723:Drivers/STM32G4xx_HAL_Driver/Inc/stm32g4xx_ll_gpio.h ****   WRITE_REG(GPIOx->LCKR, GPIO_LCKR_LCKK | PinMask);
 1251              		.loc 4 723 3 view .LVU298
 1252 0040 0225     		movs	r5, #2
 1253 0042 DD61     		str	r5, [r3, #28]
 724:Drivers/STM32G4xx_HAL_Driver/Inc/stm32g4xx_ll_gpio.h ****   /* Read LCKR register. This read is mandatory to complete key lock sequence */
 1254              		.loc 4 724 3 view .LVU299
 1255 0044 DC61     		str	r4, [r3, #28]
 726:Drivers/STM32G4xx_HAL_Driver/Inc/stm32g4xx_ll_gpio.h ****   (void) temp;
 1256              		.loc 4 726 3 view .LVU300
 726:Drivers/STM32G4xx_HAL_Driver/Inc/stm32g4xx_ll_gpio.h ****   (void) temp;
 1257              		.loc 4 726 10 is_stmt 0 view .LVU301
 1258 0046 DC69     		ldr	r4, [r3, #28]
 726:Drivers/STM32G4xx_HAL_Driver/Inc/stm32g4xx_ll_gpio.h ****   (void) temp;
 1259              		.loc 4 726 8 view .LVU302
 1260 0048 0C94     		str	r4, [sp, #48]
 1261              		.loc 4 727 3 is_stmt 1 view .LVU303
 1262 004a 0C9D     		ldr	r5, [sp, #48]
 1263              	.LVL90:
 1264              		.loc 4 727 3 is_stmt 0 view .LVU304
 1265              	.LBE87:
 1266              	.LBE86:
 536:Src/mc_tasks.c **** LL_GPIO_LockPin(M1_OPAMP1_EXT_GAIN_GPIO_Port, M1_OPAMP1_EXT_GAIN_Pin);
 1267              		.loc 1 536 1 is_stmt 1 view .LVU305
 1268              	.LBB88:
 1269              	.LBI88:
 719:Drivers/STM32G4xx_HAL_Driver/Inc/stm32g4xx_ll_gpio.h **** {
 1270              		.loc 4 719 22 view .LVU306
 1271              	.LBB89:
 721:Drivers/STM32G4xx_HAL_Driver/Inc/stm32g4xx_ll_gpio.h ****   WRITE_REG(GPIOx->LCKR, GPIO_LCKR_LCKK | PinMask);
 1272              		.loc 4 721 3 view .LVU307
 722:Drivers/STM32G4xx_HAL_Driver/Inc/stm32g4xx_ll_gpio.h ****   WRITE_REG(GPIOx->LCKR, PinMask);
 1273              		.loc 4 722 3 view .LVU308
 1274 004c 374C     		ldr	r4, .L101+16
 1275 004e DC61     		str	r4, [r3, #28]
 723:Drivers/STM32G4xx_HAL_Driver/Inc/stm32g4xx_ll_gpio.h ****   WRITE_REG(GPIOx->LCKR, GPIO_LCKR_LCKK | PinMask);
 1276              		.loc 4 723 3 view .LVU309
 1277 0050 0825     		movs	r5, #8
 1278 0052 DD61     		str	r5, [r3, #28]
 724:Drivers/STM32G4xx_HAL_Driver/Inc/stm32g4xx_ll_gpio.h ****   /* Read LCKR register. This read is mandatory to complete key lock sequence */
 1279              		.loc 4 724 3 view .LVU310
 1280 0054 DC61     		str	r4, [r3, #28]
 726:Drivers/STM32G4xx_HAL_Driver/Inc/stm32g4xx_ll_gpio.h ****   (void) temp;
ARM GAS  /tmp/cczKoiko.s 			page 51


 1281              		.loc 4 726 3 view .LVU311
 726:Drivers/STM32G4xx_HAL_Driver/Inc/stm32g4xx_ll_gpio.h ****   (void) temp;
 1282              		.loc 4 726 10 is_stmt 0 view .LVU312
 1283 0056 DC69     		ldr	r4, [r3, #28]
 726:Drivers/STM32G4xx_HAL_Driver/Inc/stm32g4xx_ll_gpio.h ****   (void) temp;
 1284              		.loc 4 726 8 view .LVU313
 1285 0058 0B94     		str	r4, [sp, #44]
 1286              		.loc 4 727 3 is_stmt 1 view .LVU314
 1287 005a 0B9D     		ldr	r5, [sp, #44]
 1288              	.LVL91:
 1289              		.loc 4 727 3 is_stmt 0 view .LVU315
 1290              	.LBE89:
 1291              	.LBE88:
 537:Src/mc_tasks.c **** LL_GPIO_LockPin(M1_OPAMP1_OUT_GPIO_Port, M1_OPAMP1_OUT_Pin);
 1292              		.loc 1 537 1 is_stmt 1 view .LVU316
 1293              	.LBB90:
 1294              	.LBI90:
 719:Drivers/STM32G4xx_HAL_Driver/Inc/stm32g4xx_ll_gpio.h **** {
 1295              		.loc 4 719 22 view .LVU317
 1296              	.LBB91:
 721:Drivers/STM32G4xx_HAL_Driver/Inc/stm32g4xx_ll_gpio.h ****   WRITE_REG(GPIOx->LCKR, GPIO_LCKR_LCKK | PinMask);
 1297              		.loc 4 721 3 view .LVU318
 722:Drivers/STM32G4xx_HAL_Driver/Inc/stm32g4xx_ll_gpio.h ****   WRITE_REG(GPIOx->LCKR, PinMask);
 1298              		.loc 4 722 3 view .LVU319
 1299 005c 344C     		ldr	r4, .L101+20
 1300 005e DC61     		str	r4, [r3, #28]
 723:Drivers/STM32G4xx_HAL_Driver/Inc/stm32g4xx_ll_gpio.h ****   WRITE_REG(GPIOx->LCKR, GPIO_LCKR_LCKK | PinMask);
 1301              		.loc 4 723 3 view .LVU320
 1302 0060 0425     		movs	r5, #4
 1303 0062 DD61     		str	r5, [r3, #28]
 724:Drivers/STM32G4xx_HAL_Driver/Inc/stm32g4xx_ll_gpio.h ****   /* Read LCKR register. This read is mandatory to complete key lock sequence */
 1304              		.loc 4 724 3 view .LVU321
 1305 0064 DC61     		str	r4, [r3, #28]
 726:Drivers/STM32G4xx_HAL_Driver/Inc/stm32g4xx_ll_gpio.h ****   (void) temp;
 1306              		.loc 4 726 3 view .LVU322
 726:Drivers/STM32G4xx_HAL_Driver/Inc/stm32g4xx_ll_gpio.h ****   (void) temp;
 1307              		.loc 4 726 10 is_stmt 0 view .LVU323
 1308 0066 DC69     		ldr	r4, [r3, #28]
 726:Drivers/STM32G4xx_HAL_Driver/Inc/stm32g4xx_ll_gpio.h ****   (void) temp;
 1309              		.loc 4 726 8 view .LVU324
 1310 0068 0A94     		str	r4, [sp, #40]
 1311              		.loc 4 727 3 is_stmt 1 view .LVU325
 1312 006a 0A9D     		ldr	r5, [sp, #40]
 1313              	.LVL92:
 1314              		.loc 4 727 3 is_stmt 0 view .LVU326
 1315              	.LBE91:
 1316              	.LBE90:
 538:Src/mc_tasks.c **** LL_GPIO_LockPin(M1_OPAMP2_OUT_GPIO_Port, M1_OPAMP2_OUT_Pin);
 1317              		.loc 1 538 1 is_stmt 1 view .LVU327
 1318              	.LBB92:
 1319              	.LBI92:
 719:Drivers/STM32G4xx_HAL_Driver/Inc/stm32g4xx_ll_gpio.h **** {
 1320              		.loc 4 719 22 view .LVU328
 1321              	.LBB93:
 721:Drivers/STM32G4xx_HAL_Driver/Inc/stm32g4xx_ll_gpio.h ****   WRITE_REG(GPIOx->LCKR, GPIO_LCKR_LCKK | PinMask);
 1322              		.loc 4 721 3 view .LVU329
 722:Drivers/STM32G4xx_HAL_Driver/Inc/stm32g4xx_ll_gpio.h ****   WRITE_REG(GPIOx->LCKR, PinMask);
ARM GAS  /tmp/cczKoiko.s 			page 52


 1323              		.loc 4 722 3 view .LVU330
 1324 006c 314C     		ldr	r4, .L101+24
 1325 006e DC61     		str	r4, [r3, #28]
 723:Drivers/STM32G4xx_HAL_Driver/Inc/stm32g4xx_ll_gpio.h ****   WRITE_REG(GPIOx->LCKR, GPIO_LCKR_LCKK | PinMask);
 1326              		.loc 4 723 3 view .LVU331
 1327 0070 4025     		movs	r5, #64
 1328 0072 DD61     		str	r5, [r3, #28]
 724:Drivers/STM32G4xx_HAL_Driver/Inc/stm32g4xx_ll_gpio.h ****   /* Read LCKR register. This read is mandatory to complete key lock sequence */
 1329              		.loc 4 724 3 view .LVU332
 1330 0074 DC61     		str	r4, [r3, #28]
 726:Drivers/STM32G4xx_HAL_Driver/Inc/stm32g4xx_ll_gpio.h ****   (void) temp;
 1331              		.loc 4 726 3 view .LVU333
 726:Drivers/STM32G4xx_HAL_Driver/Inc/stm32g4xx_ll_gpio.h ****   (void) temp;
 1332              		.loc 4 726 10 is_stmt 0 view .LVU334
 1333 0076 DB69     		ldr	r3, [r3, #28]
 726:Drivers/STM32G4xx_HAL_Driver/Inc/stm32g4xx_ll_gpio.h ****   (void) temp;
 1334              		.loc 4 726 8 view .LVU335
 1335 0078 0993     		str	r3, [sp, #36]
 1336              		.loc 4 727 3 is_stmt 1 view .LVU336
 1337              	.LBE93:
 1338              	.LBE92:
 1339              	.LBB95:
 1340              	.LBB96:
 723:Drivers/STM32G4xx_HAL_Driver/Inc/stm32g4xx_ll_gpio.h ****   WRITE_REG(GPIOx->LCKR, GPIO_LCKR_LCKK | PinMask);
 1341              		.loc 4 723 3 is_stmt 0 view .LVU337
 1342 007a 2024     		movs	r4, #32
 722:Drivers/STM32G4xx_HAL_Driver/Inc/stm32g4xx_ll_gpio.h ****   WRITE_REG(GPIOx->LCKR, PinMask);
 1343              		.loc 4 722 3 view .LVU338
 1344 007c 2E4B     		ldr	r3, .L101+28
 1345              	.LBE96:
 1346              	.LBE95:
 1347              	.LBB99:
 1348              	.LBB94:
 1349              		.loc 4 727 3 view .LVU339
 1350 007e 099D     		ldr	r5, [sp, #36]
 1351              	.LVL93:
 1352              		.loc 4 727 3 view .LVU340
 1353              	.LBE94:
 1354              	.LBE99:
 539:Src/mc_tasks.c **** LL_GPIO_LockPin(M1_OPAMP2_EXT_GAIN_GPIO_Port, M1_OPAMP2_EXT_GAIN_Pin);
 1355              		.loc 1 539 1 is_stmt 1 view .LVU341
 1356              	.LBB100:
 1357              	.LBI95:
 719:Drivers/STM32G4xx_HAL_Driver/Inc/stm32g4xx_ll_gpio.h **** {
 1358              		.loc 4 719 22 view .LVU342
 1359              	.LBB97:
 721:Drivers/STM32G4xx_HAL_Driver/Inc/stm32g4xx_ll_gpio.h ****   WRITE_REG(GPIOx->LCKR, GPIO_LCKR_LCKK | PinMask);
 1360              		.loc 4 721 3 view .LVU343
 722:Drivers/STM32G4xx_HAL_Driver/Inc/stm32g4xx_ll_gpio.h ****   WRITE_REG(GPIOx->LCKR, PinMask);
 1361              		.loc 4 722 3 view .LVU344
 1362 0080 D361     		str	r3, [r2, #28]
 723:Drivers/STM32G4xx_HAL_Driver/Inc/stm32g4xx_ll_gpio.h ****   WRITE_REG(GPIOx->LCKR, GPIO_LCKR_LCKK | PinMask);
 1363              		.loc 4 723 3 view .LVU345
 1364 0082 D461     		str	r4, [r2, #28]
 724:Drivers/STM32G4xx_HAL_Driver/Inc/stm32g4xx_ll_gpio.h ****   /* Read LCKR register. This read is mandatory to complete key lock sequence */
 1365              		.loc 4 724 3 view .LVU346
 1366 0084 D361     		str	r3, [r2, #28]
ARM GAS  /tmp/cczKoiko.s 			page 53


 726:Drivers/STM32G4xx_HAL_Driver/Inc/stm32g4xx_ll_gpio.h ****   (void) temp;
 1367              		.loc 4 726 3 view .LVU347
 726:Drivers/STM32G4xx_HAL_Driver/Inc/stm32g4xx_ll_gpio.h ****   (void) temp;
 1368              		.loc 4 726 10 is_stmt 0 view .LVU348
 1369 0086 D369     		ldr	r3, [r2, #28]
 726:Drivers/STM32G4xx_HAL_Driver/Inc/stm32g4xx_ll_gpio.h ****   (void) temp;
 1370              		.loc 4 726 8 view .LVU349
 1371 0088 0893     		str	r3, [sp, #32]
 1372              		.loc 4 727 3 is_stmt 1 view .LVU350
 1373              	.LBE97:
 1374              	.LBE100:
 1375              	.LBB101:
 1376              	.LBB102:
 722:Drivers/STM32G4xx_HAL_Driver/Inc/stm32g4xx_ll_gpio.h ****   WRITE_REG(GPIOx->LCKR, PinMask);
 1377              		.loc 4 722 3 is_stmt 0 view .LVU351
 1378 008a A2F58062 		sub	r2, r2, #1024
 1379              	.LBE102:
 1380              	.LBE101:
 1381              	.LBB106:
 1382              	.LBB98:
 1383              		.loc 4 727 3 view .LVU352
 1384 008e 089B     		ldr	r3, [sp, #32]
 1385              	.LVL94:
 1386              		.loc 4 727 3 view .LVU353
 1387              	.LBE98:
 1388              	.LBE106:
 540:Src/mc_tasks.c **** LL_GPIO_LockPin(M1_CURR_SHUNT_W_GPIO_Port, M1_CURR_SHUNT_W_Pin);
 1389              		.loc 1 540 1 is_stmt 1 view .LVU354
 1390              	.LBB107:
 1391              	.LBI101:
 719:Drivers/STM32G4xx_HAL_Driver/Inc/stm32g4xx_ll_gpio.h **** {
 1392              		.loc 4 719 22 view .LVU355
 1393              	.LBB103:
 721:Drivers/STM32G4xx_HAL_Driver/Inc/stm32g4xx_ll_gpio.h ****   WRITE_REG(GPIOx->LCKR, GPIO_LCKR_LCKK | PinMask);
 1394              		.loc 4 721 3 view .LVU356
 722:Drivers/STM32G4xx_HAL_Driver/Inc/stm32g4xx_ll_gpio.h ****   WRITE_REG(GPIOx->LCKR, PinMask);
 1395              		.loc 4 722 3 view .LVU357
 1396 0090 D161     		str	r1, [r2, #28]
 723:Drivers/STM32G4xx_HAL_Driver/Inc/stm32g4xx_ll_gpio.h ****   WRITE_REG(GPIOx->LCKR, GPIO_LCKR_LCKK | PinMask);
 1397              		.loc 4 723 3 view .LVU358
 1398 0092 D061     		str	r0, [r2, #28]
 724:Drivers/STM32G4xx_HAL_Driver/Inc/stm32g4xx_ll_gpio.h ****   /* Read LCKR register. This read is mandatory to complete key lock sequence */
 1399              		.loc 4 724 3 view .LVU359
 1400 0094 D161     		str	r1, [r2, #28]
 726:Drivers/STM32G4xx_HAL_Driver/Inc/stm32g4xx_ll_gpio.h ****   (void) temp;
 1401              		.loc 4 726 3 view .LVU360
 1402              	.LBE103:
 1403              	.LBE107:
 1404              	.LBB108:
 1405              	.LBB109:
 722:Drivers/STM32G4xx_HAL_Driver/Inc/stm32g4xx_ll_gpio.h ****   WRITE_REG(GPIOx->LCKR, PinMask);
 1406              		.loc 4 722 3 is_stmt 0 view .LVU361
 1407 0096 294B     		ldr	r3, .L101+32
 1408              	.LBE109:
 1409              	.LBE108:
 1410              	.LBB113:
 1411              	.LBB104:
ARM GAS  /tmp/cczKoiko.s 			page 54


 726:Drivers/STM32G4xx_HAL_Driver/Inc/stm32g4xx_ll_gpio.h ****   (void) temp;
 1412              		.loc 4 726 10 view .LVU362
 1413 0098 D269     		ldr	r2, [r2, #28]
 726:Drivers/STM32G4xx_HAL_Driver/Inc/stm32g4xx_ll_gpio.h ****   (void) temp;
 1414              		.loc 4 726 8 view .LVU363
 1415 009a 0792     		str	r2, [sp, #28]
 1416              		.loc 4 727 3 is_stmt 1 view .LVU364
 1417              	.LBE104:
 1418              	.LBE113:
 1419              	.LBB114:
 1420              	.LBB110:
 723:Drivers/STM32G4xx_HAL_Driver/Inc/stm32g4xx_ll_gpio.h ****   WRITE_REG(GPIOx->LCKR, GPIO_LCKR_LCKK | PinMask);
 1421              		.loc 4 723 3 is_stmt 0 view .LVU365
 1422 009c 4FF40071 		mov	r1, #512
 722:Drivers/STM32G4xx_HAL_Driver/Inc/stm32g4xx_ll_gpio.h ****   WRITE_REG(GPIOx->LCKR, PinMask);
 1423              		.loc 4 722 3 view .LVU366
 1424 00a0 4FF48132 		mov	r2, #66048
 1425              	.LBE110:
 1426              	.LBE114:
 1427              	.LBB115:
 1428              	.LBB105:
 1429              		.loc 4 727 3 view .LVU367
 1430 00a4 0798     		ldr	r0, [sp, #28]
 1431              	.LVL95:
 1432              		.loc 4 727 3 view .LVU368
 1433              	.LBE105:
 1434              	.LBE115:
 541:Src/mc_tasks.c **** LL_GPIO_LockPin(M1_PWM_UH_GPIO_Port, M1_PWM_UH_Pin);
 1435              		.loc 1 541 1 is_stmt 1 view .LVU369
 1436              	.LBB116:
 1437              	.LBI108:
 719:Drivers/STM32G4xx_HAL_Driver/Inc/stm32g4xx_ll_gpio.h **** {
 1438              		.loc 4 719 22 view .LVU370
 1439              	.LBB111:
 721:Drivers/STM32G4xx_HAL_Driver/Inc/stm32g4xx_ll_gpio.h ****   WRITE_REG(GPIOx->LCKR, GPIO_LCKR_LCKK | PinMask);
 1440              		.loc 4 721 3 view .LVU371
 722:Drivers/STM32G4xx_HAL_Driver/Inc/stm32g4xx_ll_gpio.h ****   WRITE_REG(GPIOx->LCKR, PinMask);
 1441              		.loc 4 722 3 view .LVU372
 1442 00a6 DA61     		str	r2, [r3, #28]
 723:Drivers/STM32G4xx_HAL_Driver/Inc/stm32g4xx_ll_gpio.h ****   WRITE_REG(GPIOx->LCKR, GPIO_LCKR_LCKK | PinMask);
 1443              		.loc 4 723 3 view .LVU373
 1444 00a8 D961     		str	r1, [r3, #28]
 724:Drivers/STM32G4xx_HAL_Driver/Inc/stm32g4xx_ll_gpio.h ****   /* Read LCKR register. This read is mandatory to complete key lock sequence */
 1445              		.loc 4 724 3 view .LVU374
 1446 00aa DA61     		str	r2, [r3, #28]
 726:Drivers/STM32G4xx_HAL_Driver/Inc/stm32g4xx_ll_gpio.h ****   (void) temp;
 1447              		.loc 4 726 3 view .LVU375
 726:Drivers/STM32G4xx_HAL_Driver/Inc/stm32g4xx_ll_gpio.h ****   (void) temp;
 1448              		.loc 4 726 10 is_stmt 0 view .LVU376
 1449 00ac DA69     		ldr	r2, [r3, #28]
 726:Drivers/STM32G4xx_HAL_Driver/Inc/stm32g4xx_ll_gpio.h ****   (void) temp;
 1450              		.loc 4 726 8 view .LVU377
 1451 00ae 0692     		str	r2, [sp, #24]
 1452              		.loc 4 727 3 is_stmt 1 view .LVU378
 1453              	.LBE111:
 1454              	.LBE116:
 1455              	.LBB117:
ARM GAS  /tmp/cczKoiko.s 			page 55


 1456              	.LBB118:
 723:Drivers/STM32G4xx_HAL_Driver/Inc/stm32g4xx_ll_gpio.h ****   WRITE_REG(GPIOx->LCKR, GPIO_LCKR_LCKK | PinMask);
 1457              		.loc 4 723 3 is_stmt 0 view .LVU379
 1458 00b0 4FF40061 		mov	r1, #2048
 722:Drivers/STM32G4xx_HAL_Driver/Inc/stm32g4xx_ll_gpio.h ****   WRITE_REG(GPIOx->LCKR, PinMask);
 1459              		.loc 4 722 3 view .LVU380
 1460 00b4 4FF48432 		mov	r2, #67584
 1461              	.LBE118:
 1462              	.LBE117:
 1463              	.LBB121:
 1464              	.LBB112:
 1465              		.loc 4 727 3 view .LVU381
 1466 00b8 0698     		ldr	r0, [sp, #24]
 1467              	.LVL96:
 1468              		.loc 4 727 3 view .LVU382
 1469              	.LBE112:
 1470              	.LBE121:
 542:Src/mc_tasks.c **** LL_GPIO_LockPin(M1_PWM_VH_GPIO_Port, M1_PWM_VH_Pin);
 1471              		.loc 1 542 1 is_stmt 1 view .LVU383
 1472              	.LBB122:
 1473              	.LBI117:
 719:Drivers/STM32G4xx_HAL_Driver/Inc/stm32g4xx_ll_gpio.h **** {
 1474              		.loc 4 719 22 view .LVU384
 1475              	.LBB119:
 721:Drivers/STM32G4xx_HAL_Driver/Inc/stm32g4xx_ll_gpio.h ****   WRITE_REG(GPIOx->LCKR, GPIO_LCKR_LCKK | PinMask);
 1476              		.loc 4 721 3 view .LVU385
 722:Drivers/STM32G4xx_HAL_Driver/Inc/stm32g4xx_ll_gpio.h ****   WRITE_REG(GPIOx->LCKR, PinMask);
 1477              		.loc 4 722 3 view .LVU386
 1478 00ba DA61     		str	r2, [r3, #28]
 723:Drivers/STM32G4xx_HAL_Driver/Inc/stm32g4xx_ll_gpio.h ****   WRITE_REG(GPIOx->LCKR, GPIO_LCKR_LCKK | PinMask);
 1479              		.loc 4 723 3 view .LVU387
 1480 00bc D961     		str	r1, [r3, #28]
 724:Drivers/STM32G4xx_HAL_Driver/Inc/stm32g4xx_ll_gpio.h ****   /* Read LCKR register. This read is mandatory to complete key lock sequence */
 1481              		.loc 4 724 3 view .LVU388
 1482 00be DA61     		str	r2, [r3, #28]
 726:Drivers/STM32G4xx_HAL_Driver/Inc/stm32g4xx_ll_gpio.h ****   (void) temp;
 1483              		.loc 4 726 3 view .LVU389
 726:Drivers/STM32G4xx_HAL_Driver/Inc/stm32g4xx_ll_gpio.h ****   (void) temp;
 1484              		.loc 4 726 10 is_stmt 0 view .LVU390
 1485 00c0 D969     		ldr	r1, [r3, #28]
 726:Drivers/STM32G4xx_HAL_Driver/Inc/stm32g4xx_ll_gpio.h ****   (void) temp;
 1486              		.loc 4 726 8 view .LVU391
 1487 00c2 0591     		str	r1, [sp, #20]
 1488              		.loc 4 727 3 is_stmt 1 view .LVU392
 1489              	.LBE119:
 1490              	.LBE122:
 1491              	.LBB123:
 1492              	.LBB124:
 722:Drivers/STM32G4xx_HAL_Driver/Inc/stm32g4xx_ll_gpio.h ****   WRITE_REG(GPIOx->LCKR, PinMask);
 1493              		.loc 4 722 3 is_stmt 0 view .LVU393
 1494 00c4 4FF48232 		mov	r2, #66560
 723:Drivers/STM32G4xx_HAL_Driver/Inc/stm32g4xx_ll_gpio.h ****   WRITE_REG(GPIOx->LCKR, GPIO_LCKR_LCKK | PinMask);
 1495              		.loc 4 723 3 view .LVU394
 1496 00c8 4FF48061 		mov	r1, #1024
 1497              	.LBE124:
 1498              	.LBE123:
 1499              	.LBB127:
ARM GAS  /tmp/cczKoiko.s 			page 56


 1500              	.LBB120:
 1501              		.loc 4 727 3 view .LVU395
 1502 00cc 0598     		ldr	r0, [sp, #20]
 1503              	.LVL97:
 1504              		.loc 4 727 3 view .LVU396
 1505              	.LBE120:
 1506              	.LBE127:
 543:Src/mc_tasks.c **** LL_GPIO_LockPin(M1_PWM_VL_GPIO_Port, M1_PWM_VL_Pin);
 1507              		.loc 1 543 1 is_stmt 1 view .LVU397
 1508              	.LBB128:
 1509              	.LBI123:
 719:Drivers/STM32G4xx_HAL_Driver/Inc/stm32g4xx_ll_gpio.h **** {
 1510              		.loc 4 719 22 view .LVU398
 1511              	.LBB125:
 721:Drivers/STM32G4xx_HAL_Driver/Inc/stm32g4xx_ll_gpio.h ****   WRITE_REG(GPIOx->LCKR, GPIO_LCKR_LCKK | PinMask);
 1512              		.loc 4 721 3 view .LVU399
 722:Drivers/STM32G4xx_HAL_Driver/Inc/stm32g4xx_ll_gpio.h ****   WRITE_REG(GPIOx->LCKR, PinMask);
 1513              		.loc 4 722 3 view .LVU400
 1514 00ce DA61     		str	r2, [r3, #28]
 723:Drivers/STM32G4xx_HAL_Driver/Inc/stm32g4xx_ll_gpio.h ****   WRITE_REG(GPIOx->LCKR, GPIO_LCKR_LCKK | PinMask);
 1515              		.loc 4 723 3 view .LVU401
 1516 00d0 D961     		str	r1, [r3, #28]
 724:Drivers/STM32G4xx_HAL_Driver/Inc/stm32g4xx_ll_gpio.h ****   /* Read LCKR register. This read is mandatory to complete key lock sequence */
 1517              		.loc 4 724 3 view .LVU402
 1518 00d2 DA61     		str	r2, [r3, #28]
 726:Drivers/STM32G4xx_HAL_Driver/Inc/stm32g4xx_ll_gpio.h ****   (void) temp;
 1519              		.loc 4 726 3 view .LVU403
 726:Drivers/STM32G4xx_HAL_Driver/Inc/stm32g4xx_ll_gpio.h ****   (void) temp;
 1520              		.loc 4 726 10 is_stmt 0 view .LVU404
 1521 00d4 DA69     		ldr	r2, [r3, #28]
 726:Drivers/STM32G4xx_HAL_Driver/Inc/stm32g4xx_ll_gpio.h ****   (void) temp;
 1522              		.loc 4 726 8 view .LVU405
 1523 00d6 0492     		str	r2, [sp, #16]
 1524              		.loc 4 727 3 is_stmt 1 view .LVU406
 1525              	.LBE125:
 1526              	.LBE128:
 1527              	.LBB129:
 1528              	.LBB130:
 723:Drivers/STM32G4xx_HAL_Driver/Inc/stm32g4xx_ll_gpio.h ****   WRITE_REG(GPIOx->LCKR, GPIO_LCKR_LCKK | PinMask);
 1529              		.loc 4 723 3 is_stmt 0 view .LVU407
 1530 00d8 4FF40051 		mov	r1, #8192
 722:Drivers/STM32G4xx_HAL_Driver/Inc/stm32g4xx_ll_gpio.h ****   WRITE_REG(GPIOx->LCKR, PinMask);
 1531              		.loc 4 722 3 view .LVU408
 1532 00dc 4FF49032 		mov	r2, #73728
 1533              	.LBE130:
 1534              	.LBE129:
 1535              	.LBB133:
 1536              	.LBB126:
 1537              		.loc 4 727 3 view .LVU409
 1538 00e0 0498     		ldr	r0, [sp, #16]
 1539              	.LVL98:
 1540              		.loc 4 727 3 view .LVU410
 1541              	.LBE126:
 1542              	.LBE133:
 544:Src/mc_tasks.c **** LL_GPIO_LockPin(M1_PWM_WH_GPIO_Port, M1_PWM_WH_Pin);
 1543              		.loc 1 544 1 is_stmt 1 view .LVU411
 1544              	.LBB134:
ARM GAS  /tmp/cczKoiko.s 			page 57


 1545              	.LBI129:
 719:Drivers/STM32G4xx_HAL_Driver/Inc/stm32g4xx_ll_gpio.h **** {
 1546              		.loc 4 719 22 view .LVU412
 1547              	.LBB131:
 721:Drivers/STM32G4xx_HAL_Driver/Inc/stm32g4xx_ll_gpio.h ****   WRITE_REG(GPIOx->LCKR, GPIO_LCKR_LCKK | PinMask);
 1548              		.loc 4 721 3 view .LVU413
 722:Drivers/STM32G4xx_HAL_Driver/Inc/stm32g4xx_ll_gpio.h ****   WRITE_REG(GPIOx->LCKR, PinMask);
 1549              		.loc 4 722 3 view .LVU414
 1550 00e2 DA61     		str	r2, [r3, #28]
 723:Drivers/STM32G4xx_HAL_Driver/Inc/stm32g4xx_ll_gpio.h ****   WRITE_REG(GPIOx->LCKR, GPIO_LCKR_LCKK | PinMask);
 1551              		.loc 4 723 3 view .LVU415
 1552 00e4 D961     		str	r1, [r3, #28]
 724:Drivers/STM32G4xx_HAL_Driver/Inc/stm32g4xx_ll_gpio.h ****   /* Read LCKR register. This read is mandatory to complete key lock sequence */
 1553              		.loc 4 724 3 view .LVU416
 1554 00e6 DA61     		str	r2, [r3, #28]
 726:Drivers/STM32G4xx_HAL_Driver/Inc/stm32g4xx_ll_gpio.h ****   (void) temp;
 1555              		.loc 4 726 3 view .LVU417
 726:Drivers/STM32G4xx_HAL_Driver/Inc/stm32g4xx_ll_gpio.h ****   (void) temp;
 1556              		.loc 4 726 10 is_stmt 0 view .LVU418
 1557 00e8 DA69     		ldr	r2, [r3, #28]
 726:Drivers/STM32G4xx_HAL_Driver/Inc/stm32g4xx_ll_gpio.h ****   (void) temp;
 1558              		.loc 4 726 8 view .LVU419
 1559 00ea 0392     		str	r2, [sp, #12]
 1560              		.loc 4 727 3 is_stmt 1 view .LVU420
 1561              	.LBE131:
 1562              	.LBE134:
 1563              	.LBB135:
 1564              	.LBB136:
 723:Drivers/STM32G4xx_HAL_Driver/Inc/stm32g4xx_ll_gpio.h ****   WRITE_REG(GPIOx->LCKR, GPIO_LCKR_LCKK | PinMask);
 1565              		.loc 4 723 3 is_stmt 0 view .LVU421
 1566 00ec 4FF48051 		mov	r1, #4096
 722:Drivers/STM32G4xx_HAL_Driver/Inc/stm32g4xx_ll_gpio.h ****   WRITE_REG(GPIOx->LCKR, PinMask);
 1567              		.loc 4 722 3 view .LVU422
 1568 00f0 4FF48832 		mov	r2, #69632
 1569              	.LBE136:
 1570              	.LBE135:
 1571              	.LBB139:
 1572              	.LBB132:
 1573              		.loc 4 727 3 view .LVU423
 1574 00f4 0398     		ldr	r0, [sp, #12]
 1575              	.LVL99:
 1576              		.loc 4 727 3 view .LVU424
 1577              	.LBE132:
 1578              	.LBE139:
 545:Src/mc_tasks.c **** LL_GPIO_LockPin(M1_PWM_WL_GPIO_Port, M1_PWM_WL_Pin);
 1579              		.loc 1 545 1 is_stmt 1 view .LVU425
 1580              	.LBB140:
 1581              	.LBI135:
 719:Drivers/STM32G4xx_HAL_Driver/Inc/stm32g4xx_ll_gpio.h **** {
 1582              		.loc 4 719 22 view .LVU426
 1583              	.LBB137:
 721:Drivers/STM32G4xx_HAL_Driver/Inc/stm32g4xx_ll_gpio.h ****   WRITE_REG(GPIOx->LCKR, GPIO_LCKR_LCKK | PinMask);
 1584              		.loc 4 721 3 view .LVU427
 722:Drivers/STM32G4xx_HAL_Driver/Inc/stm32g4xx_ll_gpio.h ****   WRITE_REG(GPIOx->LCKR, PinMask);
 1585              		.loc 4 722 3 view .LVU428
 1586 00f6 DA61     		str	r2, [r3, #28]
 723:Drivers/STM32G4xx_HAL_Driver/Inc/stm32g4xx_ll_gpio.h ****   WRITE_REG(GPIOx->LCKR, GPIO_LCKR_LCKK | PinMask);
ARM GAS  /tmp/cczKoiko.s 			page 58


 1587              		.loc 4 723 3 view .LVU429
 1588 00f8 D961     		str	r1, [r3, #28]
 724:Drivers/STM32G4xx_HAL_Driver/Inc/stm32g4xx_ll_gpio.h ****   /* Read LCKR register. This read is mandatory to complete key lock sequence */
 1589              		.loc 4 724 3 view .LVU430
 1590 00fa DA61     		str	r2, [r3, #28]
 726:Drivers/STM32G4xx_HAL_Driver/Inc/stm32g4xx_ll_gpio.h ****   (void) temp;
 1591              		.loc 4 726 3 view .LVU431
 726:Drivers/STM32G4xx_HAL_Driver/Inc/stm32g4xx_ll_gpio.h ****   (void) temp;
 1592              		.loc 4 726 10 is_stmt 0 view .LVU432
 1593 00fc DA69     		ldr	r2, [r3, #28]
 726:Drivers/STM32G4xx_HAL_Driver/Inc/stm32g4xx_ll_gpio.h ****   (void) temp;
 1594              		.loc 4 726 8 view .LVU433
 1595 00fe 0292     		str	r2, [sp, #8]
 1596              		.loc 4 727 3 is_stmt 1 view .LVU434
 1597              	.LBE137:
 1598              	.LBE140:
 1599              	.LBB141:
 1600              	.LBB142:
 723:Drivers/STM32G4xx_HAL_Driver/Inc/stm32g4xx_ll_gpio.h ****   WRITE_REG(GPIOx->LCKR, GPIO_LCKR_LCKK | PinMask);
 1601              		.loc 4 723 3 is_stmt 0 view .LVU435
 1602 0100 4FF48071 		mov	r1, #256
 722:Drivers/STM32G4xx_HAL_Driver/Inc/stm32g4xx_ll_gpio.h ****   WRITE_REG(GPIOx->LCKR, PinMask);
 1603              		.loc 4 722 3 view .LVU436
 1604 0104 0E4A     		ldr	r2, .L101+36
 1605              	.LBE142:
 1606              	.LBE141:
 1607              	.LBB144:
 1608              	.LBB138:
 1609              		.loc 4 727 3 view .LVU437
 1610 0106 0298     		ldr	r0, [sp, #8]
 1611              	.LVL100:
 1612              		.loc 4 727 3 view .LVU438
 1613              	.LBE138:
 1614              	.LBE144:
 546:Src/mc_tasks.c **** LL_GPIO_LockPin(M1_PWM_UL_GPIO_Port, M1_PWM_UL_Pin);
 1615              		.loc 1 546 1 is_stmt 1 view .LVU439
 1616              	.LBB145:
 1617              	.LBI141:
 719:Drivers/STM32G4xx_HAL_Driver/Inc/stm32g4xx_ll_gpio.h **** {
 1618              		.loc 4 719 22 view .LVU440
 1619              	.LBB143:
 721:Drivers/STM32G4xx_HAL_Driver/Inc/stm32g4xx_ll_gpio.h ****   WRITE_REG(GPIOx->LCKR, GPIO_LCKR_LCKK | PinMask);
 1620              		.loc 4 721 3 view .LVU441
 722:Drivers/STM32G4xx_HAL_Driver/Inc/stm32g4xx_ll_gpio.h ****   WRITE_REG(GPIOx->LCKR, PinMask);
 1621              		.loc 4 722 3 view .LVU442
 1622 0108 DA61     		str	r2, [r3, #28]
 723:Drivers/STM32G4xx_HAL_Driver/Inc/stm32g4xx_ll_gpio.h ****   WRITE_REG(GPIOx->LCKR, GPIO_LCKR_LCKK | PinMask);
 1623              		.loc 4 723 3 view .LVU443
 1624 010a D961     		str	r1, [r3, #28]
 724:Drivers/STM32G4xx_HAL_Driver/Inc/stm32g4xx_ll_gpio.h ****   /* Read LCKR register. This read is mandatory to complete key lock sequence */
 1625              		.loc 4 724 3 view .LVU444
 1626 010c DA61     		str	r2, [r3, #28]
 726:Drivers/STM32G4xx_HAL_Driver/Inc/stm32g4xx_ll_gpio.h ****   (void) temp;
 1627              		.loc 4 726 3 view .LVU445
 726:Drivers/STM32G4xx_HAL_Driver/Inc/stm32g4xx_ll_gpio.h ****   (void) temp;
 1628              		.loc 4 726 10 is_stmt 0 view .LVU446
 1629 010e DB69     		ldr	r3, [r3, #28]
ARM GAS  /tmp/cczKoiko.s 			page 59


 726:Drivers/STM32G4xx_HAL_Driver/Inc/stm32g4xx_ll_gpio.h ****   (void) temp;
 1630              		.loc 4 726 8 view .LVU447
 1631 0110 0193     		str	r3, [sp, #4]
 1632              		.loc 4 727 3 is_stmt 1 view .LVU448
 1633 0112 019B     		ldr	r3, [sp, #4]
 1634              	.LVL101:
 1635              		.loc 4 727 3 is_stmt 0 view .LVU449
 1636              	.LBE143:
 1637              	.LBE145:
 547:Src/mc_tasks.c **** }
 1638              		.loc 1 547 1 view .LVU450
 1639 0114 10B0     		add	sp, sp, #64
 1640              	.LCFI29:
 1641              		.cfi_def_cfa_offset 8
 1642              		@ sp needed
 1643 0116 30BC     		pop	{r4, r5}
 1644              	.LCFI30:
 1645              		.cfi_restore 5
 1646              		.cfi_restore 4
 1647              		.cfi_def_cfa_offset 0
 1648 0118 7047     		bx	lr
 1649              	.L102:
 1650 011a 00BF     		.align	2
 1651              	.L101:
 1652 011c 00080048 		.word	1207961600
 1653 0120 10000100 		.word	65552
 1654 0124 80000100 		.word	65664
 1655 0128 02000100 		.word	65538
 1656 012c 08000100 		.word	65544
 1657 0130 04000100 		.word	65540
 1658 0134 40000100 		.word	65600
 1659 0138 20000100 		.word	65568
 1660 013c 00100048 		.word	1207963648
 1661 0140 00010100 		.word	65792
 1662              		.cfi_endproc
 1663              	.LFE1885:
 1665              		.section	.bss.bMCBootCompleted,"aw",%nobits
 1666              		.set	.LANCHOR0,. + 0
 1669              	bMCBootCompleted:
 1670 0000 00       		.space	1
 1671              		.section	.bss.hBootCapDelayCounterM1,"aw",%nobits
 1672              		.align	1
 1673              		.set	.LANCHOR2,. + 0
 1676              	hBootCapDelayCounterM1:
 1677 0000 0000     		.space	2
 1678              		.section	.bss.hMFTaskCounterM1,"aw",%nobits
 1679              		.align	1
 1680              		.set	.LANCHOR1,. + 0
 1683              	hMFTaskCounterM1:
 1684 0000 0000     		.space	2
 1685              		.section	.bss.hStopPermanencyCounterM1,"aw",%nobits
 1686              		.align	1
 1687              		.set	.LANCHOR3,. + 0
 1690              	hStopPermanencyCounterM1:
 1691 0000 0000     		.space	2
 1692              		.text
 1693              	.Letext0:
ARM GAS  /tmp/cczKoiko.s 			page 60


 1694              		.file 5 "/usr/share/gcc-arm-none-eabi-10-2020-q4-major/arm-none-eabi/include/machine/_default_type
 1695              		.file 6 "/usr/share/gcc-arm-none-eabi-10-2020-q4-major/arm-none-eabi/include/sys/_stdint.h"
 1696              		.file 7 "Drivers/CMSIS/Include/core_cm4.h"
 1697              		.file 8 "Drivers/CMSIS/Device/ST/STM32G4xx/Include/stm32g431xx.h"
 1698              		.file 9 "Drivers/STM32G4xx_HAL_Driver/Inc/stm32g4xx_ll_tim.h"
 1699              		.file 10 "Drivers/STM32G4xx_HAL_Driver/Inc/stm32g4xx_ll_usart.h"
 1700              		.file 11 "Drivers/STM32G4xx_HAL_Driver/Inc/stm32g4xx_ll_dma.h"
 1701              		.file 12 "Inc/mc_type.h"
 1702              		.file 13 "MCSDK_v6.3.2-Full/MotorControl/MCSDK/MCLib/Any/Inc/pid_regulator.h"
 1703              		.file 14 "MCSDK_v6.3.2-Full/MotorControl/MCSDK/MCLib/Any/Inc/speed_pos_fdbk.h"
 1704              		.file 15 "MCSDK_v6.3.2-Full/MotorControl/MCSDK/MCLib/Any/Inc/speed_torq_ctrl.h"
 1705              		.file 16 "MCSDK_v6.3.2-Full/MotorControl/MCSDK/MCLib/Any/Inc/virtual_speed_sensor.h"
 1706              		.file 17 "MCSDK_v6.3.2-Full/MotorControl/MCSDK/MCLib/Any/Inc/sto_speed_pos_fdbk.h"
 1707              		.file 18 "Inc/pwm_curr_fdbk.h"
 1708              		.file 19 "MCSDK_v6.3.2-Full/MotorControl/MCSDK/MCLib/Any/Inc/revup_ctrl.h"
 1709              		.file 20 "MCSDK_v6.3.2-Full/MotorControl/MCSDK/MCLib/Any/Inc/ntc_temperature_sensor.h"
 1710              		.file 21 "Inc/mc_interface.h"
 1711              		.file 22 "Inc/regular_conversion_manager.h"
 1712              		.file 23 "MCSDK_v6.3.2-Full/MotorControl/MCSDK/MCLib/Any/Inc/bus_voltage_sensor.h"
 1713              		.file 24 "MCSDK_v6.3.2-Full/MotorControl/MCSDK/MCLib/Any/Inc/r_divider_bus_voltage_sensor.h"
 1714              		.file 25 "MCSDK_v6.3.2-Full/MotorControl/MCSDK/MCLib/G4xx/Inc/stspin32g4.h"
 1715              		.file 26 "MCSDK_v6.3.2-Full/MotorControl/MCSDK/MCLib/Any/Inc/sto_pll_speed_pos_fdbk.h"
 1716              		.file 27 "MCSDK_v6.3.2-Full/MotorControl/MCSDK/MCLib/Any/Inc/ramp_ext_mngr.h"
 1717              		.file 28 "MCSDK_v6.3.2-Full/MotorControl/MCSDK/MCLib/Any/Inc/mp_one_touch_tuning.h"
 1718              		.file 29 "MCSDK_v6.3.2-Full/MotorControl/MCSDK/MCLib/Any/Inc/circle_limitation.h"
 1719              		.file 30 "Inc/hall_speed_pos_fdbk.h"
 1720              		.file 31 "MCSDK_v6.3.2-Full/MotorControl/MCSDK/MCLib/Any/Inc/mp_hall_tuning.h"
 1721              		.file 32 "MCSDK_v6.3.2-Full/MotorControl/MCSDK/MCLib/Any/Inc/mp_self_com_ctrl.h"
 1722              		.file 33 "Inc/mc_config_common.h"
 1723              		.file 34 "Inc/mc_config.h"
 1724              		.file 35 "MCSDK_v6.3.2-Full/MotorControl/MCSDK/MCLib/Any/Inc/mcptl.h"
 1725              		.file 36 "MCSDK_v6.3.2-Full/MotorControl/MCSDK/MCLib/Any/Inc/mcp.h"
 1726              		.file 37 "Inc/aspep.h"
 1727              		.file 38 "MCSDK_v6.3.2-Full/MotorControl/MCSDK/MCLib/Any/Inc/mcpa.h"
 1728              		.file 39 "Inc/mcp_config.h"
 1729              		.file 40 "Inc/mc_api.h"
 1730              		.file 41 "Middlewares/Third_Party/FreeRTOS/Source/include/task.h"
 1731              		.file 42 "Inc/mc_tasks.h"
 1732              		.file 43 "Inc/mc_app_hooks.h"
ARM GAS  /tmp/cczKoiko.s 			page 61


DEFINED SYMBOLS
                            *ABS*:0000000000000000 mc_tasks.c
     /tmp/cczKoiko.s:18     .text.MCboot:0000000000000000 $t
     /tmp/cczKoiko.s:27     .text.MCboot:0000000000000000 MCboot
     /tmp/cczKoiko.s:162    .text.MCboot:000000000000008c $d
     /tmp/cczKoiko.s:177    .text.MC_RunMotorControlTasks:0000000000000000 $t
     /tmp/cczKoiko.s:185    .text.MC_RunMotorControlTasks:0000000000000000 MC_RunMotorControlTasks
     /tmp/cczKoiko.s:345    .text.MC_RunMotorControlTasks:0000000000000088 $d
     /tmp/cczKoiko.s:357    .text.TSK_SetChargeBootCapDelayM1:0000000000000000 $t
     /tmp/cczKoiko.s:365    .text.TSK_SetChargeBootCapDelayM1:0000000000000000 TSK_SetChargeBootCapDelayM1
     /tmp/cczKoiko.s:382    .text.TSK_SetChargeBootCapDelayM1:0000000000000008 $d
     /tmp/cczKoiko.s:387    .text.TSK_ChargeBootCapDelayHasElapsedM1:0000000000000000 $t
     /tmp/cczKoiko.s:395    .text.TSK_ChargeBootCapDelayHasElapsedM1:0000000000000000 TSK_ChargeBootCapDelayHasElapsedM1
     /tmp/cczKoiko.s:420    .text.TSK_ChargeBootCapDelayHasElapsedM1:0000000000000010 $d
     /tmp/cczKoiko.s:425    .text.TSK_SetStopPermanencyTimeM1:0000000000000000 $t
     /tmp/cczKoiko.s:433    .text.TSK_SetStopPermanencyTimeM1:0000000000000000 TSK_SetStopPermanencyTimeM1
     /tmp/cczKoiko.s:450    .text.TSK_SetStopPermanencyTimeM1:0000000000000008 $d
     /tmp/cczKoiko.s:455    .text.TSK_StopPermanencyTimeHasElapsedM1:0000000000000000 $t
     /tmp/cczKoiko.s:463    .text.TSK_StopPermanencyTimeHasElapsedM1:0000000000000000 TSK_StopPermanencyTimeHasElapsedM1
     /tmp/cczKoiko.s:488    .text.TSK_StopPermanencyTimeHasElapsedM1:0000000000000010 $d
     /tmp/cczKoiko.s:493    .text.TSK_HighFrequencyTask:0000000000000000 $t
     /tmp/cczKoiko.s:501    .text.TSK_HighFrequencyTask:0000000000000000 TSK_HighFrequencyTask
     /tmp/cczKoiko.s:578    .text.TSK_HighFrequencyTask:0000000000000034 $d
     /tmp/cczKoiko.s:586    .text.TSK_SafetyTask_PWMOFF:0000000000000000 $t
     /tmp/cczKoiko.s:594    .text.TSK_SafetyTask_PWMOFF:0000000000000000 TSK_SafetyTask_PWMOFF
     /tmp/cczKoiko.s:796    .text.TSK_SafetyTask_PWMOFF:00000000000000a8 $d
     /tmp/cczKoiko.s:809    .text.TSK_SafetyTask:0000000000000000 $t
     /tmp/cczKoiko.s:817    .text.TSK_SafetyTask:0000000000000000 TSK_SafetyTask
     /tmp/cczKoiko.s:868    .text.TSK_SafetyTask:0000000000000020 $d
     /tmp/cczKoiko.s:876    .text.TSK_HardwareFaultTask:0000000000000000 $t
     /tmp/cczKoiko.s:884    .text.TSK_HardwareFaultTask:0000000000000000 TSK_HardwareFaultTask
     /tmp/cczKoiko.s:925    .text.TSK_HardwareFaultTask:0000000000000024 $d
     /tmp/cczKoiko.s:932    .text.startMediumFrequencyTask:0000000000000000 $t
     /tmp/cczKoiko.s:940    .text.startMediumFrequencyTask:0000000000000000 startMediumFrequencyTask
     /tmp/cczKoiko.s:1019   .text.startMediumFrequencyTask:0000000000000024 $d
     /tmp/cczKoiko.s:1025   .text.StartSafetyTask:0000000000000000 $t
     /tmp/cczKoiko.s:1033   .text.StartSafetyTask:0000000000000000 StartSafetyTask
     /tmp/cczKoiko.s:1063   .text.UI_HandleStartStopButton_cb:0000000000000000 $t
     /tmp/cczKoiko.s:1071   .text.UI_HandleStartStopButton_cb:0000000000000000 UI_HandleStartStopButton_cb
     /tmp/cczKoiko.s:1117   .text.mc_lock_pins:0000000000000000 $t
     /tmp/cczKoiko.s:1125   .text.mc_lock_pins:0000000000000000 mc_lock_pins
     /tmp/cczKoiko.s:1652   .text.mc_lock_pins:000000000000011c $d
     /tmp/cczKoiko.s:1669   .bss.bMCBootCompleted:0000000000000000 bMCBootCompleted
     /tmp/cczKoiko.s:1670   .bss.bMCBootCompleted:0000000000000000 $d
     /tmp/cczKoiko.s:1672   .bss.hBootCapDelayCounterM1:0000000000000000 $d
     /tmp/cczKoiko.s:1676   .bss.hBootCapDelayCounterM1:0000000000000000 hBootCapDelayCounterM1
     /tmp/cczKoiko.s:1679   .bss.hMFTaskCounterM1:0000000000000000 $d
     /tmp/cczKoiko.s:1683   .bss.hMFTaskCounterM1:0000000000000000 hMFTaskCounterM1
     /tmp/cczKoiko.s:1686   .bss.hStopPermanencyCounterM1:0000000000000000 $d
     /tmp/cczKoiko.s:1690   .bss.hStopPermanencyCounterM1:0000000000000000 hStopPermanencyCounterM1

UNDEFINED SYMBOLS
FOC_Init
ASPEP_start
PID_HandleInit
VSS_Init
RCM_RegisterRegConv
ARM GAS  /tmp/cczKoiko.s 			page 62


RVBS_Init
NTC_Init
MC_Perf_Measure_Init
STSPIN32G4_init
STSPIN32G4_reset
STSPIN32G4_setVCC
STSPIN32G4_setVDSP
STSPIN32G4_clearFaults
MC_APP_BootHook
Mci
aspepOverUartA
PIDSpeedHandle_M1
VirtualSpeedSensorM1
VbusRegConv_M1
BusVoltageSensor_M1
TempRegConv_M1
TempSensor_M1
PerfTraces
HdlSTSPING4
MC_BG_Perf_Measure_Start
TSK_MediumFrequencyTaskM1
MC_BG_Perf_Measure_Stop
MC_APP_PostMediumFrequencyHook_M1
MCP_ReceivedPacket
MCP_Over_UartA
FOC_HighFrequencyTask
MC_Perf_Measure_Stop
MCPA_dataLog
GLOBAL_TIMESTAMP
MCPA_UART_A
PWMC_IsFaultOccurred
MCI_FaultProcessing
MCI_GetFaultState
RCM_ExecRegularConv
NTC_CalcAvTemp
RVBS_CalcAvVbus
SCC_Stop
OTT_Stop
PWMC_SwitchOffPWM
FOC_Clear
MCPA_flushDataLog
pwmcHandle
SCC
OTT
SCC_CheckOC_RL
RCM_ExecUserConv
vTaskDelay
ASPEP_HWDataReceivedIT
MC_GetSTMStateMotor1
MC_StartMotor1
MC_StopMotor1
