ARM GAS  /tmp/ccn1cveX.s 			page 1


   1              		.cpu cortex-m4
   2              		.eabi_attribute 27, 1
   3              		.eabi_attribute 28, 1
   4              		.eabi_attribute 20, 1
   5              		.eabi_attribute 21, 1
   6              		.eabi_attribute 23, 3
   7              		.eabi_attribute 24, 1
   8              		.eabi_attribute 25, 1
   9              		.eabi_attribute 26, 1
  10              		.eabi_attribute 30, 2
  11              		.eabi_attribute 34, 1
  12              		.eabi_attribute 18, 2
  13              		.file	"mcpa.c"
  14              		.text
  15              	.Ltext0:
  16              		.cfi_sections	.debug_frame
  17              		.section	.text.MCPA_dataLog,"ax",%progbits
  18              		.align	1
  19              		.p2align 2,,3
  20              		.global	MCPA_dataLog
  21              		.arch armv7e-m
  22              		.syntax unified
  23              		.thumb
  24              		.thumb_func
  25              		.fpu fpv4-sp-d16
  27              	MCPA_dataLog:
  28              	.LVL0:
  29              	.LFB1548:
  30              		.file 1 "MCSDK_v6.3.2-Full/MotorControl/MCSDK/MCLib/Any/Src/mcpa.c"
   1:MCSDK_v6.3.2-Full/MotorControl/MCSDK/MCLib/Any/Src/mcpa.c ****   /******************************************************************************
   2:MCSDK_v6.3.2-Full/MotorControl/MCSDK/MCLib/Any/Src/mcpa.c ****   * @file    mcpa.c
   3:MCSDK_v6.3.2-Full/MotorControl/MCSDK/MCLib/Any/Src/mcpa.c ****   * @author  Motor Control SDK Team, ST Microelectronics
   4:MCSDK_v6.3.2-Full/MotorControl/MCSDK/MCLib/Any/Src/mcpa.c ****   * @brief   This file provides firmware functions that implement the datalog feature
   5:MCSDK_v6.3.2-Full/MotorControl/MCSDK/MCLib/Any/Src/mcpa.c ****   *          of the MCP protocol
   6:MCSDK_v6.3.2-Full/MotorControl/MCSDK/MCLib/Any/Src/mcpa.c ****   *
   7:MCSDK_v6.3.2-Full/MotorControl/MCSDK/MCLib/Any/Src/mcpa.c ****   *
   8:MCSDK_v6.3.2-Full/MotorControl/MCSDK/MCLib/Any/Src/mcpa.c ****   ******************************************************************************
   9:MCSDK_v6.3.2-Full/MotorControl/MCSDK/MCLib/Any/Src/mcpa.c ****   * @attention
  10:MCSDK_v6.3.2-Full/MotorControl/MCSDK/MCLib/Any/Src/mcpa.c ****   *
  11:MCSDK_v6.3.2-Full/MotorControl/MCSDK/MCLib/Any/Src/mcpa.c ****   * <h2><center>&copy; Copyright (c) 2024 STMicroelectronics.
  12:MCSDK_v6.3.2-Full/MotorControl/MCSDK/MCLib/Any/Src/mcpa.c ****   * All rights reserved.</center></h2>
  13:MCSDK_v6.3.2-Full/MotorControl/MCSDK/MCLib/Any/Src/mcpa.c ****   *
  14:MCSDK_v6.3.2-Full/MotorControl/MCSDK/MCLib/Any/Src/mcpa.c ****   * This software component is licensed by ST under Ultimate Liberty license
  15:MCSDK_v6.3.2-Full/MotorControl/MCSDK/MCLib/Any/Src/mcpa.c ****   * SLA0044, the "License"; You may not use this file except in compliance with
  16:MCSDK_v6.3.2-Full/MotorControl/MCSDK/MCLib/Any/Src/mcpa.c ****   * the License. You may obtain a copy of the License at:
  17:MCSDK_v6.3.2-Full/MotorControl/MCSDK/MCLib/Any/Src/mcpa.c ****   *                             www.st.com/SLA0044
  18:MCSDK_v6.3.2-Full/MotorControl/MCSDK/MCLib/Any/Src/mcpa.c ****   *
  19:MCSDK_v6.3.2-Full/MotorControl/MCSDK/MCLib/Any/Src/mcpa.c ****   ******************************************************************************
  20:MCSDK_v6.3.2-Full/MotorControl/MCSDK/MCLib/Any/Src/mcpa.c ****   */
  21:MCSDK_v6.3.2-Full/MotorControl/MCSDK/MCLib/Any/Src/mcpa.c **** 
  22:MCSDK_v6.3.2-Full/MotorControl/MCSDK/MCLib/Any/Src/mcpa.c **** #include "mc_type.h"
  23:MCSDK_v6.3.2-Full/MotorControl/MCSDK/MCLib/Any/Src/mcpa.c **** #include "string.h"
  24:MCSDK_v6.3.2-Full/MotorControl/MCSDK/MCLib/Any/Src/mcpa.c **** #include "mcp.h"
  25:MCSDK_v6.3.2-Full/MotorControl/MCSDK/MCLib/Any/Src/mcpa.c **** #include "register_interface.h"
  26:MCSDK_v6.3.2-Full/MotorControl/MCSDK/MCLib/Any/Src/mcpa.c **** #include "mcpa.h"
  27:MCSDK_v6.3.2-Full/MotorControl/MCSDK/MCLib/Any/Src/mcpa.c **** 
  28:MCSDK_v6.3.2-Full/MotorControl/MCSDK/MCLib/Any/Src/mcpa.c **** uint32_t GLOBAL_TIMESTAMP = 0U;
ARM GAS  /tmp/ccn1cveX.s 			page 2


  29:MCSDK_v6.3.2-Full/MotorControl/MCSDK/MCLib/Any/Src/mcpa.c **** static void MCPA_stopDataLog(MCPA_Handle_t *pHandle);
  30:MCSDK_v6.3.2-Full/MotorControl/MCSDK/MCLib/Any/Src/mcpa.c **** 
  31:MCSDK_v6.3.2-Full/MotorControl/MCSDK/MCLib/Any/Src/mcpa.c **** /** @addtogroup MCSDK
  32:MCSDK_v6.3.2-Full/MotorControl/MCSDK/MCLib/Any/Src/mcpa.c ****   * @{
  33:MCSDK_v6.3.2-Full/MotorControl/MCSDK/MCLib/Any/Src/mcpa.c ****   */
  34:MCSDK_v6.3.2-Full/MotorControl/MCSDK/MCLib/Any/Src/mcpa.c **** 
  35:MCSDK_v6.3.2-Full/MotorControl/MCSDK/MCLib/Any/Src/mcpa.c **** /** @addtogroup MCP
  36:MCSDK_v6.3.2-Full/MotorControl/MCSDK/MCLib/Any/Src/mcpa.c ****   * @{
  37:MCSDK_v6.3.2-Full/MotorControl/MCSDK/MCLib/Any/Src/mcpa.c ****   */
  38:MCSDK_v6.3.2-Full/MotorControl/MCSDK/MCLib/Any/Src/mcpa.c **** 
  39:MCSDK_v6.3.2-Full/MotorControl/MCSDK/MCLib/Any/Src/mcpa.c **** /**
  40:MCSDK_v6.3.2-Full/MotorControl/MCSDK/MCLib/Any/Src/mcpa.c ****   * @brief  Allocates and fills buffer with asynchronous data to be sent to controller
  41:MCSDK_v6.3.2-Full/MotorControl/MCSDK/MCLib/Any/Src/mcpa.c ****   *
  42:MCSDK_v6.3.2-Full/MotorControl/MCSDK/MCLib/Any/Src/mcpa.c ****   * @param  *pHandle Pointer to the MCPA Handle
  43:MCSDK_v6.3.2-Full/MotorControl/MCSDK/MCLib/Any/Src/mcpa.c ****   */
  44:MCSDK_v6.3.2-Full/MotorControl/MCSDK/MCLib/Any/Src/mcpa.c **** void MCPA_dataLog(MCPA_Handle_t *pHandle)
  45:MCSDK_v6.3.2-Full/MotorControl/MCSDK/MCLib/Any/Src/mcpa.c **** {
  31              		.loc 1 45 1 view -0
  32              		.cfi_startproc
  33              		@ args = 0, pretend = 0, frame = 0
  34              		@ frame_needed = 0, uses_anonymous_args = 0
  46:MCSDK_v6.3.2-Full/MotorControl/MCSDK/MCLib/Any/Src/mcpa.c **** #ifdef NULL_PTR_CHECK_MCPA
  47:MCSDK_v6.3.2-Full/MotorControl/MCSDK/MCLib/Any/Src/mcpa.c ****   if (MC_NULL == pHandle)
  48:MCSDK_v6.3.2-Full/MotorControl/MCSDK/MCLib/Any/Src/mcpa.c ****   {
  49:MCSDK_v6.3.2-Full/MotorControl/MCSDK/MCLib/Any/Src/mcpa.c ****     /* Nothing to do */
  50:MCSDK_v6.3.2-Full/MotorControl/MCSDK/MCLib/Any/Src/mcpa.c ****   }
  51:MCSDK_v6.3.2-Full/MotorControl/MCSDK/MCLib/Any/Src/mcpa.c ****   else
  52:MCSDK_v6.3.2-Full/MotorControl/MCSDK/MCLib/Any/Src/mcpa.c ****   {
  53:MCSDK_v6.3.2-Full/MotorControl/MCSDK/MCLib/Any/Src/mcpa.c **** #endif
  54:MCSDK_v6.3.2-Full/MotorControl/MCSDK/MCLib/Any/Src/mcpa.c ****     uint32_t *logValue;
  35              		.loc 1 54 5 view .LVU1
  55:MCSDK_v6.3.2-Full/MotorControl/MCSDK/MCLib/Any/Src/mcpa.c ****     uint16_t *logValue16;
  36              		.loc 1 55 5 view .LVU2
  56:MCSDK_v6.3.2-Full/MotorControl/MCSDK/MCLib/Any/Src/mcpa.c ****     uint8_t i;
  37              		.loc 1 56 5 view .LVU3
  57:MCSDK_v6.3.2-Full/MotorControl/MCSDK/MCLib/Any/Src/mcpa.c **** 
  58:MCSDK_v6.3.2-Full/MotorControl/MCSDK/MCLib/Any/Src/mcpa.c ****     if (pHandle->HFIndex == pHandle->HFRateBuff) /*  */
  38              		.loc 1 58 5 view .LVU4
  45:MCSDK_v6.3.2-Full/MotorControl/MCSDK/MCLib/Any/Src/mcpa.c **** #ifdef NULL_PTR_CHECK_MCPA
  39              		.loc 1 45 1 is_stmt 0 view .LVU5
  40 0000 F8B5     		push	{r3, r4, r5, r6, r7, lr}
  41              	.LCFI0:
  42              		.cfi_def_cfa_offset 24
  43              		.cfi_offset 3, -24
  44              		.cfi_offset 4, -20
  45              		.cfi_offset 5, -16
  46              		.cfi_offset 6, -12
  47              		.cfi_offset 7, -8
  48              		.cfi_offset 14, -4
  49              		.loc 1 58 16 view .LVU6
  50 0002 C37F     		ldrb	r3, [r0, #31]	@ zero_extendqisi2
  51              		.loc 1 58 8 view .LVU7
  52 0004 90F82220 		ldrb	r2, [r0, #34]	@ zero_extendqisi2
  53 0008 9A42     		cmp	r2, r3
  45:MCSDK_v6.3.2-Full/MotorControl/MCSDK/MCLib/Any/Src/mcpa.c **** #ifdef NULL_PTR_CHECK_MCPA
  54              		.loc 1 45 1 view .LVU8
  55 000a 0446     		mov	r4, r0
ARM GAS  /tmp/ccn1cveX.s 			page 3


  56              		.loc 1 58 8 view .LVU9
  57 000c 02D0     		beq	.L38
  59:MCSDK_v6.3.2-Full/MotorControl/MCSDK/MCLib/Any/Src/mcpa.c ****     {
  60:MCSDK_v6.3.2-Full/MotorControl/MCSDK/MCLib/Any/Src/mcpa.c ****       pHandle->HFIndex = 0U;
  61:MCSDK_v6.3.2-Full/MotorControl/MCSDK/MCLib/Any/Src/mcpa.c ****       if (0U == pHandle->bufferIndex)
  62:MCSDK_v6.3.2-Full/MotorControl/MCSDK/MCLib/Any/Src/mcpa.c ****       {
  63:MCSDK_v6.3.2-Full/MotorControl/MCSDK/MCLib/Any/Src/mcpa.c ****         /* New buffer allocation */
  64:MCSDK_v6.3.2-Full/MotorControl/MCSDK/MCLib/Any/Src/mcpa.c ****         if (0U == pHandle->pTransportLayer->fGetBuffer (pHandle->pTransportLayer,
  65:MCSDK_v6.3.2-Full/MotorControl/MCSDK/MCLib/Any/Src/mcpa.c ****                                                        (void **) &pHandle->currentBuffer, //cstat !
  66:MCSDK_v6.3.2-Full/MotorControl/MCSDK/MCLib/Any/Src/mcpa.c ****                                                        MCTL_ASYNC))
  67:MCSDK_v6.3.2-Full/MotorControl/MCSDK/MCLib/Any/Src/mcpa.c ****         {
  68:MCSDK_v6.3.2-Full/MotorControl/MCSDK/MCLib/Any/Src/mcpa.c ****           /* Nothing to do, try next HF Task to get an Async buffer */
  69:MCSDK_v6.3.2-Full/MotorControl/MCSDK/MCLib/Any/Src/mcpa.c **** #ifdef MCP_DEBUG_METRICS
  70:MCSDK_v6.3.2-Full/MotorControl/MCSDK/MCLib/Any/Src/mcpa.c ****           pHandle->bufferMissed++;
  71:MCSDK_v6.3.2-Full/MotorControl/MCSDK/MCLib/Any/Src/mcpa.c **** #endif
  72:MCSDK_v6.3.2-Full/MotorControl/MCSDK/MCLib/Any/Src/mcpa.c ****         }
  73:MCSDK_v6.3.2-Full/MotorControl/MCSDK/MCLib/Any/Src/mcpa.c ****         else
  74:MCSDK_v6.3.2-Full/MotorControl/MCSDK/MCLib/Any/Src/mcpa.c ****         {
  75:MCSDK_v6.3.2-Full/MotorControl/MCSDK/MCLib/Any/Src/mcpa.c ****           logValue = (uint32_t *)pHandle->currentBuffer; //cstat !MISRAC2012-Rule-11.3
  76:MCSDK_v6.3.2-Full/MotorControl/MCSDK/MCLib/Any/Src/mcpa.c ****           *logValue = GLOBAL_TIMESTAMP; /* 32 first bits is used to store Timestamp */
  77:MCSDK_v6.3.2-Full/MotorControl/MCSDK/MCLib/Any/Src/mcpa.c ****           pHandle->bufferIndex = 4U;
  78:MCSDK_v6.3.2-Full/MotorControl/MCSDK/MCLib/Any/Src/mcpa.c ****           pHandle->MFIndex = 0U; /* Restart the motif from scratch at each buffer */
  79:MCSDK_v6.3.2-Full/MotorControl/MCSDK/MCLib/Any/Src/mcpa.c ****           /* Check if configuration has changed for this new buffer */
  80:MCSDK_v6.3.2-Full/MotorControl/MCSDK/MCLib/Any/Src/mcpa.c ****           if (pHandle->Mark == pHandle->MarkBuff)
  81:MCSDK_v6.3.2-Full/MotorControl/MCSDK/MCLib/Any/Src/mcpa.c ****           {
  82:MCSDK_v6.3.2-Full/MotorControl/MCSDK/MCLib/Any/Src/mcpa.c ****             /* Nothing to do */
  83:MCSDK_v6.3.2-Full/MotorControl/MCSDK/MCLib/Any/Src/mcpa.c ****           }
  84:MCSDK_v6.3.2-Full/MotorControl/MCSDK/MCLib/Any/Src/mcpa.c ****           else
  85:MCSDK_v6.3.2-Full/MotorControl/MCSDK/MCLib/Any/Src/mcpa.c ****           {
  86:MCSDK_v6.3.2-Full/MotorControl/MCSDK/MCLib/Any/Src/mcpa.c ****             pHandle->MarkBuff            = pHandle->Mark;
  87:MCSDK_v6.3.2-Full/MotorControl/MCSDK/MCLib/Any/Src/mcpa.c ****             pHandle->HFNumBuff           = pHandle->HFNum;
  88:MCSDK_v6.3.2-Full/MotorControl/MCSDK/MCLib/Any/Src/mcpa.c ****             pHandle->MFNumBuff           = pHandle->MFNum;
  89:MCSDK_v6.3.2-Full/MotorControl/MCSDK/MCLib/Any/Src/mcpa.c ****             pHandle->HFRateBuff          = pHandle->HFRate;
  90:MCSDK_v6.3.2-Full/MotorControl/MCSDK/MCLib/Any/Src/mcpa.c ****             pHandle->MFRateBuff          = pHandle->MFRate;
  91:MCSDK_v6.3.2-Full/MotorControl/MCSDK/MCLib/Any/Src/mcpa.c ****             pHandle->bufferTxTriggerBuff = pHandle->bufferTxTrigger;
  92:MCSDK_v6.3.2-Full/MotorControl/MCSDK/MCLib/Any/Src/mcpa.c **** 
  93:MCSDK_v6.3.2-Full/MotorControl/MCSDK/MCLib/Any/Src/mcpa.c ****             /* We store pointer here, so 4 bytes */
  94:MCSDK_v6.3.2-Full/MotorControl/MCSDK/MCLib/Any/Src/mcpa.c ****             (void)memcpy(pHandle->dataPtrTableBuff, pHandle->dataPtrTable,
  95:MCSDK_v6.3.2-Full/MotorControl/MCSDK/MCLib/Any/Src/mcpa.c ****                          ((uint32_t)pHandle->HFNum + (uint32_t)pHandle->MFNum) * 4U); /* We store p
  96:MCSDK_v6.3.2-Full/MotorControl/MCSDK/MCLib/Any/Src/mcpa.c ****                                                                                          so 4 bytes
  97:MCSDK_v6.3.2-Full/MotorControl/MCSDK/MCLib/Any/Src/mcpa.c ****             (void)memcpy(pHandle->dataSizeTableBuff, pHandle->dataSizeTable,
  98:MCSDK_v6.3.2-Full/MotorControl/MCSDK/MCLib/Any/Src/mcpa.c ****                          (uint32_t)pHandle->HFNum + (uint32_t)pHandle->MFNum); /* 1 size byte per I
  99:MCSDK_v6.3.2-Full/MotorControl/MCSDK/MCLib/Any/Src/mcpa.c ****           }
 100:MCSDK_v6.3.2-Full/MotorControl/MCSDK/MCLib/Any/Src/mcpa.c ****         }
 101:MCSDK_v6.3.2-Full/MotorControl/MCSDK/MCLib/Any/Src/mcpa.c ****       }
 102:MCSDK_v6.3.2-Full/MotorControl/MCSDK/MCLib/Any/Src/mcpa.c ****       else
 103:MCSDK_v6.3.2-Full/MotorControl/MCSDK/MCLib/Any/Src/mcpa.c ****       {
 104:MCSDK_v6.3.2-Full/MotorControl/MCSDK/MCLib/Any/Src/mcpa.c ****         /* Nothing to do */
 105:MCSDK_v6.3.2-Full/MotorControl/MCSDK/MCLib/Any/Src/mcpa.c ****       }
 106:MCSDK_v6.3.2-Full/MotorControl/MCSDK/MCLib/Any/Src/mcpa.c **** 
 107:MCSDK_v6.3.2-Full/MotorControl/MCSDK/MCLib/Any/Src/mcpa.c ****       /* */
 108:MCSDK_v6.3.2-Full/MotorControl/MCSDK/MCLib/Any/Src/mcpa.c ****       if ((pHandle->bufferIndex > 0U)  && (pHandle->bufferIndex <= pHandle->bufferTxTriggerBuff))
 109:MCSDK_v6.3.2-Full/MotorControl/MCSDK/MCLib/Any/Src/mcpa.c ****       {
 110:MCSDK_v6.3.2-Full/MotorControl/MCSDK/MCLib/Any/Src/mcpa.c ****         logValue16 = (uint16_t *)&pHandle->currentBuffer[pHandle->bufferIndex]; //cstat !MISRAC2012
 111:MCSDK_v6.3.2-Full/MotorControl/MCSDK/MCLib/Any/Src/mcpa.c ****         for (i = 0U; i < pHandle->HFNumBuff; i++)
 112:MCSDK_v6.3.2-Full/MotorControl/MCSDK/MCLib/Any/Src/mcpa.c ****         {
 113:MCSDK_v6.3.2-Full/MotorControl/MCSDK/MCLib/Any/Src/mcpa.c ****           *logValue16 = *((uint16_t *) pHandle->dataPtrTableBuff[i]) ; //cstat !MISRAC2012-Rule-11.
ARM GAS  /tmp/ccn1cveX.s 			page 4


 114:MCSDK_v6.3.2-Full/MotorControl/MCSDK/MCLib/Any/Src/mcpa.c ****           logValue16++;
 115:MCSDK_v6.3.2-Full/MotorControl/MCSDK/MCLib/Any/Src/mcpa.c ****           pHandle->bufferIndex = pHandle->bufferIndex + 2U;
 116:MCSDK_v6.3.2-Full/MotorControl/MCSDK/MCLib/Any/Src/mcpa.c ****         }
 117:MCSDK_v6.3.2-Full/MotorControl/MCSDK/MCLib/Any/Src/mcpa.c ****         /* MFRateBuff=254 means we dump MF data once per buffer */
 118:MCSDK_v6.3.2-Full/MotorControl/MCSDK/MCLib/Any/Src/mcpa.c ****         /* MFRateBuff=255 means we do not dump MF data */
 119:MCSDK_v6.3.2-Full/MotorControl/MCSDK/MCLib/Any/Src/mcpa.c ****         if (pHandle->MFRateBuff < 254U)
 120:MCSDK_v6.3.2-Full/MotorControl/MCSDK/MCLib/Any/Src/mcpa.c ****         {
 121:MCSDK_v6.3.2-Full/MotorControl/MCSDK/MCLib/Any/Src/mcpa.c ****           if (pHandle->MFIndex == pHandle->MFRateBuff)
 122:MCSDK_v6.3.2-Full/MotorControl/MCSDK/MCLib/Any/Src/mcpa.c ****           {
 123:MCSDK_v6.3.2-Full/MotorControl/MCSDK/MCLib/Any/Src/mcpa.c ****             pHandle->MFIndex = 0U;
 124:MCSDK_v6.3.2-Full/MotorControl/MCSDK/MCLib/Any/Src/mcpa.c ****             for (i = pHandle->HFNumBuff; i < (pHandle->MFNumBuff + pHandle->HFNumBuff); i++)
 125:MCSDK_v6.3.2-Full/MotorControl/MCSDK/MCLib/Any/Src/mcpa.c ****             {
 126:MCSDK_v6.3.2-Full/MotorControl/MCSDK/MCLib/Any/Src/mcpa.c ****               /* Dump MF data */
 127:MCSDK_v6.3.2-Full/MotorControl/MCSDK/MCLib/Any/Src/mcpa.c ****               logValue = (uint32_t *)&pHandle->currentBuffer[pHandle->bufferIndex]; //cstat !MISRAC
 128:MCSDK_v6.3.2-Full/MotorControl/MCSDK/MCLib/Any/Src/mcpa.c ****               *logValue = *((uint32_t *)pHandle->dataPtrTableBuff[i]); //cstat !MISRAC2012-Rule-11.
 129:MCSDK_v6.3.2-Full/MotorControl/MCSDK/MCLib/Any/Src/mcpa.c **** 
 130:MCSDK_v6.3.2-Full/MotorControl/MCSDK/MCLib/Any/Src/mcpa.c **** #ifdef NOT_IMPLEMENTED /* Code not implemented. */
 131:MCSDK_v6.3.2-Full/MotorControl/MCSDK/MCLib/Any/Src/mcpa.c ****               switch (pHandle->dataSizeTableBuff[i])
 132:MCSDK_v6.3.2-Full/MotorControl/MCSDK/MCLib/Any/Src/mcpa.c ****               {
 133:MCSDK_v6.3.2-Full/MotorControl/MCSDK/MCLib/Any/Src/mcpa.c ****                 case 1:
 134:MCSDK_v6.3.2-Full/MotorControl/MCSDK/MCLib/Any/Src/mcpa.c ****                 {
 135:MCSDK_v6.3.2-Full/MotorControl/MCSDK/MCLib/Any/Src/mcpa.c ****                   logValue8 = (uint8_t *)&pHandle->currentBuffer[pHandle->bufferIndex];
 136:MCSDK_v6.3.2-Full/MotorControl/MCSDK/MCLib/Any/Src/mcpa.c ****                   *logValue8 = *((uint8_t *)pHandle->dataPtrTableBuff[i]);
 137:MCSDK_v6.3.2-Full/MotorControl/MCSDK/MCLib/Any/Src/mcpa.c ****                   break;
 138:MCSDK_v6.3.2-Full/MotorControl/MCSDK/MCLib/Any/Src/mcpa.c ****                 }
 139:MCSDK_v6.3.2-Full/MotorControl/MCSDK/MCLib/Any/Src/mcpa.c ****                 case 2:
 140:MCSDK_v6.3.2-Full/MotorControl/MCSDK/MCLib/Any/Src/mcpa.c ****                 {
 141:MCSDK_v6.3.2-Full/MotorControl/MCSDK/MCLib/Any/Src/mcpa.c ****                   logValue16 = (uint16_t *)&pHandle->currentBuffer[pHandle->bufferIndex];
 142:MCSDK_v6.3.2-Full/MotorControl/MCSDK/MCLib/Any/Src/mcpa.c ****                   *logValue16 = *((uint16_t *)pHandle->dataPtrTableBuff[i]);
 143:MCSDK_v6.3.2-Full/MotorControl/MCSDK/MCLib/Any/Src/mcpa.c ****                   break;
 144:MCSDK_v6.3.2-Full/MotorControl/MCSDK/MCLib/Any/Src/mcpa.c ****                 }
 145:MCSDK_v6.3.2-Full/MotorControl/MCSDK/MCLib/Any/Src/mcpa.c ****                 case 4:
 146:MCSDK_v6.3.2-Full/MotorControl/MCSDK/MCLib/Any/Src/mcpa.c ****                 {
 147:MCSDK_v6.3.2-Full/MotorControl/MCSDK/MCLib/Any/Src/mcpa.c ****                   logValue32 = (uint32_t *)&pHandle->currentBuffer[pHandle->bufferIndex];
 148:MCSDK_v6.3.2-Full/MotorControl/MCSDK/MCLib/Any/Src/mcpa.c ****                   *logValue32 = *((uint32_t *)pHandle->dataPtrTableBuff[i]);
 149:MCSDK_v6.3.2-Full/MotorControl/MCSDK/MCLib/Any/Src/mcpa.c ****                   break;
 150:MCSDK_v6.3.2-Full/MotorControl/MCSDK/MCLib/Any/Src/mcpa.c ****                 }
 151:MCSDK_v6.3.2-Full/MotorControl/MCSDK/MCLib/Any/Src/mcpa.c ****                 default:
 152:MCSDK_v6.3.2-Full/MotorControl/MCSDK/MCLib/Any/Src/mcpa.c ****                   break;
 153:MCSDK_v6.3.2-Full/MotorControl/MCSDK/MCLib/Any/Src/mcpa.c ****               }
 154:MCSDK_v6.3.2-Full/MotorControl/MCSDK/MCLib/Any/Src/mcpa.c **** #endif
 155:MCSDK_v6.3.2-Full/MotorControl/MCSDK/MCLib/Any/Src/mcpa.c ****               pHandle->bufferIndex = pHandle->bufferIndex+pHandle->dataSizeTableBuff[i];
 156:MCSDK_v6.3.2-Full/MotorControl/MCSDK/MCLib/Any/Src/mcpa.c ****             }
 157:MCSDK_v6.3.2-Full/MotorControl/MCSDK/MCLib/Any/Src/mcpa.c ****           }
 158:MCSDK_v6.3.2-Full/MotorControl/MCSDK/MCLib/Any/Src/mcpa.c ****           else
 159:MCSDK_v6.3.2-Full/MotorControl/MCSDK/MCLib/Any/Src/mcpa.c ****           {
 160:MCSDK_v6.3.2-Full/MotorControl/MCSDK/MCLib/Any/Src/mcpa.c ****             pHandle->MFIndex ++;
 161:MCSDK_v6.3.2-Full/MotorControl/MCSDK/MCLib/Any/Src/mcpa.c ****           }
 162:MCSDK_v6.3.2-Full/MotorControl/MCSDK/MCLib/Any/Src/mcpa.c ****         }
 163:MCSDK_v6.3.2-Full/MotorControl/MCSDK/MCLib/Any/Src/mcpa.c ****         else
 164:MCSDK_v6.3.2-Full/MotorControl/MCSDK/MCLib/Any/Src/mcpa.c ****         {
 165:MCSDK_v6.3.2-Full/MotorControl/MCSDK/MCLib/Any/Src/mcpa.c ****           /* Nothing to do */
 166:MCSDK_v6.3.2-Full/MotorControl/MCSDK/MCLib/Any/Src/mcpa.c ****         }
 167:MCSDK_v6.3.2-Full/MotorControl/MCSDK/MCLib/Any/Src/mcpa.c ****       }
 168:MCSDK_v6.3.2-Full/MotorControl/MCSDK/MCLib/Any/Src/mcpa.c ****       else
 169:MCSDK_v6.3.2-Full/MotorControl/MCSDK/MCLib/Any/Src/mcpa.c ****       {
 170:MCSDK_v6.3.2-Full/MotorControl/MCSDK/MCLib/Any/Src/mcpa.c ****         /* Nothing to do */
ARM GAS  /tmp/ccn1cveX.s 			page 5


 171:MCSDK_v6.3.2-Full/MotorControl/MCSDK/MCLib/Any/Src/mcpa.c ****       }
 172:MCSDK_v6.3.2-Full/MotorControl/MCSDK/MCLib/Any/Src/mcpa.c ****       if (pHandle->bufferIndex > pHandle->bufferTxTriggerBuff)
 173:MCSDK_v6.3.2-Full/MotorControl/MCSDK/MCLib/Any/Src/mcpa.c ****       {
 174:MCSDK_v6.3.2-Full/MotorControl/MCSDK/MCLib/Any/Src/mcpa.c ****         if (pHandle->MFRateBuff == 254U) /* MFRateBuff = 254 means we dump MF data once per buffer 
 175:MCSDK_v6.3.2-Full/MotorControl/MCSDK/MCLib/Any/Src/mcpa.c ****         {
 176:MCSDK_v6.3.2-Full/MotorControl/MCSDK/MCLib/Any/Src/mcpa.c ****           for (i = pHandle->HFNumBuff; i < (pHandle->MFNumBuff + pHandle->HFNumBuff); i++)
 177:MCSDK_v6.3.2-Full/MotorControl/MCSDK/MCLib/Any/Src/mcpa.c ****           {
 178:MCSDK_v6.3.2-Full/MotorControl/MCSDK/MCLib/Any/Src/mcpa.c ****             logValue = (uint32_t *)&pHandle->currentBuffer[pHandle->bufferIndex]; //cstat !MISRAC20
 179:MCSDK_v6.3.2-Full/MotorControl/MCSDK/MCLib/Any/Src/mcpa.c ****             *logValue = *((uint32_t *)pHandle->dataPtrTableBuff[i]); //cstat !MISRAC2012-Rule-11.5
 180:MCSDK_v6.3.2-Full/MotorControl/MCSDK/MCLib/Any/Src/mcpa.c ****             pHandle->bufferIndex = pHandle->bufferIndex + pHandle->dataSizeTableBuff[i];
 181:MCSDK_v6.3.2-Full/MotorControl/MCSDK/MCLib/Any/Src/mcpa.c ****           }
 182:MCSDK_v6.3.2-Full/MotorControl/MCSDK/MCLib/Any/Src/mcpa.c ****         }
 183:MCSDK_v6.3.2-Full/MotorControl/MCSDK/MCLib/Any/Src/mcpa.c ****         else
 184:MCSDK_v6.3.2-Full/MotorControl/MCSDK/MCLib/Any/Src/mcpa.c ****         {
 185:MCSDK_v6.3.2-Full/MotorControl/MCSDK/MCLib/Any/Src/mcpa.c ****           /* Nothing to do */
 186:MCSDK_v6.3.2-Full/MotorControl/MCSDK/MCLib/Any/Src/mcpa.c ****         }
 187:MCSDK_v6.3.2-Full/MotorControl/MCSDK/MCLib/Any/Src/mcpa.c ****         /* Buffer is ready to be send */
 188:MCSDK_v6.3.2-Full/MotorControl/MCSDK/MCLib/Any/Src/mcpa.c ****         logValue16 = (uint16_t *)&pHandle->currentBuffer[pHandle->bufferIndex]; //cstat !MISRAC2012
 189:MCSDK_v6.3.2-Full/MotorControl/MCSDK/MCLib/Any/Src/mcpa.c ****         *logValue16 = pHandle->MarkBuff; /* MarkBuff is actually 8 bits, but we add also 8 bits of 
 190:MCSDK_v6.3.2-Full/MotorControl/MCSDK/MCLib/Any/Src/mcpa.c ****                                             the MARK. */
 191:MCSDK_v6.3.2-Full/MotorControl/MCSDK/MCLib/Any/Src/mcpa.c ****         pHandle->pTransportLayer->fSendPacket(pHandle->pTransportLayer, pHandle->currentBuffer,
 192:MCSDK_v6.3.2-Full/MotorControl/MCSDK/MCLib/Any/Src/mcpa.c ****                                               pHandle->bufferIndex + 2U, MCTL_ASYNC);
 193:MCSDK_v6.3.2-Full/MotorControl/MCSDK/MCLib/Any/Src/mcpa.c ****         pHandle->bufferIndex = 0U;
 194:MCSDK_v6.3.2-Full/MotorControl/MCSDK/MCLib/Any/Src/mcpa.c ****       }
 195:MCSDK_v6.3.2-Full/MotorControl/MCSDK/MCLib/Any/Src/mcpa.c ****       else
 196:MCSDK_v6.3.2-Full/MotorControl/MCSDK/MCLib/Any/Src/mcpa.c ****       {
 197:MCSDK_v6.3.2-Full/MotorControl/MCSDK/MCLib/Any/Src/mcpa.c ****         /* Nothing to do */
 198:MCSDK_v6.3.2-Full/MotorControl/MCSDK/MCLib/Any/Src/mcpa.c ****       }
 199:MCSDK_v6.3.2-Full/MotorControl/MCSDK/MCLib/Any/Src/mcpa.c ****     }
 200:MCSDK_v6.3.2-Full/MotorControl/MCSDK/MCLib/Any/Src/mcpa.c ****     else
 201:MCSDK_v6.3.2-Full/MotorControl/MCSDK/MCLib/Any/Src/mcpa.c ****     {
 202:MCSDK_v6.3.2-Full/MotorControl/MCSDK/MCLib/Any/Src/mcpa.c ****       /* Nothing to log just waiting next call to MCPA_datalog */
 203:MCSDK_v6.3.2-Full/MotorControl/MCSDK/MCLib/Any/Src/mcpa.c ****       pHandle->HFIndex++;
  58              		.loc 1 203 7 is_stmt 1 view .LVU10
  59              		.loc 1 203 23 is_stmt 0 view .LVU11
  60 000e 0133     		adds	r3, r3, #1
  61 0010 C377     		strb	r3, [r0, #31]
  62              	.LVL1:
  63              	.L1:
 204:MCSDK_v6.3.2-Full/MotorControl/MCSDK/MCLib/Any/Src/mcpa.c ****     }
 205:MCSDK_v6.3.2-Full/MotorControl/MCSDK/MCLib/Any/Src/mcpa.c **** #ifdef NULL_PTR_CHECK_MCPA
 206:MCSDK_v6.3.2-Full/MotorControl/MCSDK/MCLib/Any/Src/mcpa.c ****   }
 207:MCSDK_v6.3.2-Full/MotorControl/MCSDK/MCLib/Any/Src/mcpa.c **** #endif
 208:MCSDK_v6.3.2-Full/MotorControl/MCSDK/MCLib/Any/Src/mcpa.c **** }
  64              		.loc 1 208 1 view .LVU12
  65 0012 F8BD     		pop	{r3, r4, r5, r6, r7, pc}
  66              	.LVL2:
  67              	.L38:
  60:MCSDK_v6.3.2-Full/MotorControl/MCSDK/MCLib/Any/Src/mcpa.c ****       if (0U == pHandle->bufferIndex)
  68              		.loc 1 60 7 is_stmt 1 view .LVU13
  61:MCSDK_v6.3.2-Full/MotorControl/MCSDK/MCLib/Any/Src/mcpa.c ****       {
  69              		.loc 1 61 24 is_stmt 0 view .LVU14
  70 0014 058B     		ldrh	r5, [r0, #24]
  60:MCSDK_v6.3.2-Full/MotorControl/MCSDK/MCLib/Any/Src/mcpa.c ****       if (0U == pHandle->bufferIndex)
  71              		.loc 1 60 24 view .LVU15
  72 0016 0023     		movs	r3, #0
  73 0018 C377     		strb	r3, [r0, #31]
ARM GAS  /tmp/ccn1cveX.s 			page 6


  61:MCSDK_v6.3.2-Full/MotorControl/MCSDK/MCLib/Any/Src/mcpa.c ****       {
  74              		.loc 1 61 7 is_stmt 1 view .LVU16
  61:MCSDK_v6.3.2-Full/MotorControl/MCSDK/MCLib/Any/Src/mcpa.c ****       {
  75              		.loc 1 61 10 is_stmt 0 view .LVU17
  76 001a A5B1     		cbz	r5, .L31
  77              	.LVL3:
  78              	.L34:
  61:MCSDK_v6.3.2-Full/MotorControl/MCSDK/MCLib/Any/Src/mcpa.c ****       {
  79              		.loc 1 61 10 view .LVU18
  80 001c 6169     		ldr	r1, [r4, #20]
  81              	.L5:
 108:MCSDK_v6.3.2-Full/MotorControl/MCSDK/MCLib/Any/Src/mcpa.c ****       {
  82              		.loc 1 108 75 discriminator 1 view .LVU19
  83 001e A28B     		ldrh	r2, [r4, #28]
 108:MCSDK_v6.3.2-Full/MotorControl/MCSDK/MCLib/Any/Src/mcpa.c ****       {
  84              		.loc 1 108 40 discriminator 1 view .LVU20
  85 0020 AA42     		cmp	r2, r5
  86 0022 4ED2     		bcs	.L32
  87 0024 94F82630 		ldrb	r3, [r4, #38]	@ zero_extendqisi2
  88              	.L7:
 174:MCSDK_v6.3.2-Full/MotorControl/MCSDK/MCLib/Any/Src/mcpa.c ****         {
  89              		.loc 1 174 9 is_stmt 1 view .LVU21
 174:MCSDK_v6.3.2-Full/MotorControl/MCSDK/MCLib/Any/Src/mcpa.c ****         {
  90              		.loc 1 174 12 is_stmt 0 view .LVU22
  91 0028 FE2B     		cmp	r3, #254
  92 002a 66D0     		beq	.L39
  93              	.L18:
 186:MCSDK_v6.3.2-Full/MotorControl/MCSDK/MCLib/Any/Src/mcpa.c ****         /* Buffer is ready to be send */
  94              		.loc 1 186 9 is_stmt 1 view .LVU23
 188:MCSDK_v6.3.2-Full/MotorControl/MCSDK/MCLib/Any/Src/mcpa.c ****         *logValue16 = pHandle->MarkBuff; /* MarkBuff is actually 8 bits, but we add also 8 bits of 
  95              		.loc 1 188 9 view .LVU24
  96              	.LVL4:
 189:MCSDK_v6.3.2-Full/MotorControl/MCSDK/MCLib/Any/Src/mcpa.c ****                                             the MARK. */
  97              		.loc 1 189 9 view .LVU25
 189:MCSDK_v6.3.2-Full/MotorControl/MCSDK/MCLib/Any/Src/mcpa.c ****                                             the MARK. */
  98              		.loc 1 189 30 is_stmt 0 view .LVU26
  99 002c 94F82A30 		ldrb	r3, [r4, #42]	@ zero_extendqisi2
 100 0030 4B53     		strh	r3, [r1, r5]	@ movhi
 191:MCSDK_v6.3.2-Full/MotorControl/MCSDK/MCLib/Any/Src/mcpa.c ****                                               pHandle->bufferIndex + 2U, MCTL_ASYNC);
 101              		.loc 1 191 9 is_stmt 1 view .LVU27
 102 0032 228B     		ldrh	r2, [r4, #24]
 191:MCSDK_v6.3.2-Full/MotorControl/MCSDK/MCLib/Any/Src/mcpa.c ****                                               pHandle->bufferIndex + 2U, MCTL_ASYNC);
 103              		.loc 1 191 16 is_stmt 0 view .LVU28
 104 0034 2068     		ldr	r0, [r4]
 191:MCSDK_v6.3.2-Full/MotorControl/MCSDK/MCLib/Any/Src/mcpa.c ****                                               pHandle->bufferIndex + 2U, MCTL_ASYNC);
 105              		.loc 1 191 9 view .LVU29
 106 0036 0232     		adds	r2, r2, #2
 107 0038 0923     		movs	r3, #9
 108 003a 4568     		ldr	r5, [r0, #4]
 109              	.LVL5:
 191:MCSDK_v6.3.2-Full/MotorControl/MCSDK/MCLib/Any/Src/mcpa.c ****                                               pHandle->bufferIndex + 2U, MCTL_ASYNC);
 110              		.loc 1 191 9 view .LVU30
 111 003c 92B2     		uxth	r2, r2
 112 003e A847     		blx	r5
 113              	.LVL6:
 193:MCSDK_v6.3.2-Full/MotorControl/MCSDK/MCLib/Any/Src/mcpa.c ****       }
 114              		.loc 1 193 9 is_stmt 1 view .LVU31
ARM GAS  /tmp/ccn1cveX.s 			page 7


 193:MCSDK_v6.3.2-Full/MotorControl/MCSDK/MCLib/Any/Src/mcpa.c ****       }
 115              		.loc 1 193 30 is_stmt 0 view .LVU32
 116 0040 0023     		movs	r3, #0
 117 0042 2383     		strh	r3, [r4, #24]	@ movhi
 118              		.loc 1 208 1 view .LVU33
 119 0044 F8BD     		pop	{r3, r4, r5, r6, r7, pc}
 120              	.LVL7:
 121              	.L31:
  64:MCSDK_v6.3.2-Full/MotorControl/MCSDK/MCLib/Any/Src/mcpa.c ****                                                        (void **) &pHandle->currentBuffer, //cstat !
 122              		.loc 1 64 9 is_stmt 1 view .LVU34
  64:MCSDK_v6.3.2-Full/MotorControl/MCSDK/MCLib/Any/Src/mcpa.c ****                                                        (void **) &pHandle->currentBuffer, //cstat !
 123              		.loc 1 64 26 is_stmt 0 view .LVU35
 124 0046 0146     		mov	r1, r0
  64:MCSDK_v6.3.2-Full/MotorControl/MCSDK/MCLib/Any/Src/mcpa.c ****                                                        (void **) &pHandle->currentBuffer, //cstat !
 125              		.loc 1 64 19 view .LVU36
 126 0048 0922     		movs	r2, #9
  64:MCSDK_v6.3.2-Full/MotorControl/MCSDK/MCLib/Any/Src/mcpa.c ****                                                        (void **) &pHandle->currentBuffer, //cstat !
 127              		.loc 1 64 26 view .LVU37
 128 004a 51F8140B 		ldr	r0, [r1], #20
 129              	.LVL8:
  64:MCSDK_v6.3.2-Full/MotorControl/MCSDK/MCLib/Any/Src/mcpa.c ****                                                        (void **) &pHandle->currentBuffer, //cstat !
 130              		.loc 1 64 19 view .LVU38
 131 004e 0368     		ldr	r3, [r0]
 132 0050 9847     		blx	r3
 133              	.LVL9:
  64:MCSDK_v6.3.2-Full/MotorControl/MCSDK/MCLib/Any/Src/mcpa.c ****                                                        (void **) &pHandle->currentBuffer, //cstat !
 134              		.loc 1 64 12 view .LVU39
 135 0052 90B3     		cbz	r0, .L4
  75:MCSDK_v6.3.2-Full/MotorControl/MCSDK/MCLib/Any/Src/mcpa.c ****           *logValue = GLOBAL_TIMESTAMP; /* 32 first bits is used to store Timestamp */
 136              		.loc 1 75 11 is_stmt 1 view .LVU40
 137              	.LVL10:
  76:MCSDK_v6.3.2-Full/MotorControl/MCSDK/MCLib/Any/Src/mcpa.c ****           pHandle->bufferIndex = 4U;
 138              		.loc 1 76 11 view .LVU41
  76:MCSDK_v6.3.2-Full/MotorControl/MCSDK/MCLib/Any/Src/mcpa.c ****           pHandle->bufferIndex = 4U;
 139              		.loc 1 76 21 is_stmt 0 view .LVU42
 140 0054 4B4B     		ldr	r3, .L42
 141 0056 6169     		ldr	r1, [r4, #20]
 142 0058 1B68     		ldr	r3, [r3]
 143 005a 0B60     		str	r3, [r1]
  77:MCSDK_v6.3.2-Full/MotorControl/MCSDK/MCLib/Any/Src/mcpa.c ****           pHandle->MFIndex = 0U; /* Restart the motif from scratch at each buffer */
 144              		.loc 1 77 11 is_stmt 1 view .LVU43
  80:MCSDK_v6.3.2-Full/MotorControl/MCSDK/MCLib/Any/Src/mcpa.c ****           {
 145              		.loc 1 80 22 is_stmt 0 view .LVU44
 146 005c 94F82920 		ldrb	r2, [r4, #41]	@ zero_extendqisi2
  80:MCSDK_v6.3.2-Full/MotorControl/MCSDK/MCLib/Any/Src/mcpa.c ****           {
 147              		.loc 1 80 14 view .LVU45
 148 0060 94F82A00 		ldrb	r0, [r4, #42]	@ zero_extendqisi2
  78:MCSDK_v6.3.2-Full/MotorControl/MCSDK/MCLib/Any/Src/mcpa.c ****           /* Check if configuration has changed for this new buffer */
 149              		.loc 1 78 28 view .LVU46
 150 0064 84F82050 		strb	r5, [r4, #32]
  77:MCSDK_v6.3.2-Full/MotorControl/MCSDK/MCLib/Any/Src/mcpa.c ****           pHandle->MFIndex = 0U; /* Restart the motif from scratch at each buffer */
 151              		.loc 1 77 32 view .LVU47
 152 0068 0423     		movs	r3, #4
  80:MCSDK_v6.3.2-Full/MotorControl/MCSDK/MCLib/Any/Src/mcpa.c ****           {
 153              		.loc 1 80 14 view .LVU48
 154 006a 9042     		cmp	r0, r2
  77:MCSDK_v6.3.2-Full/MotorControl/MCSDK/MCLib/Any/Src/mcpa.c ****           pHandle->MFIndex = 0U; /* Restart the motif from scratch at each buffer */
ARM GAS  /tmp/ccn1cveX.s 			page 8


 155              		.loc 1 77 32 view .LVU49
 156 006c 2383     		strh	r3, [r4, #24]	@ movhi
  78:MCSDK_v6.3.2-Full/MotorControl/MCSDK/MCLib/Any/Src/mcpa.c ****           /* Check if configuration has changed for this new buffer */
 157              		.loc 1 78 11 is_stmt 1 view .LVU50
  80:MCSDK_v6.3.2-Full/MotorControl/MCSDK/MCLib/Any/Src/mcpa.c ****           {
 158              		.loc 1 80 11 view .LVU51
  80:MCSDK_v6.3.2-Full/MotorControl/MCSDK/MCLib/Any/Src/mcpa.c ****           {
 159              		.loc 1 80 14 is_stmt 0 view .LVU52
 160 006e 01D1     		bne	.L40
 161 0070 1D46     		mov	r5, r3
 105:MCSDK_v6.3.2-Full/MotorControl/MCSDK/MCLib/Any/Src/mcpa.c **** 
 162              		.loc 1 105 7 is_stmt 1 view .LVU53
 108:MCSDK_v6.3.2-Full/MotorControl/MCSDK/MCLib/Any/Src/mcpa.c ****       {
 163              		.loc 1 108 7 view .LVU54
 164 0072 D4E7     		b	.L5
 165              	.L40:
  86:MCSDK_v6.3.2-Full/MotorControl/MCSDK/MCLib/Any/Src/mcpa.c ****             pHandle->HFNumBuff           = pHandle->HFNum;
 166              		.loc 1 86 13 view .LVU55
  87:MCSDK_v6.3.2-Full/MotorControl/MCSDK/MCLib/Any/Src/mcpa.c ****             pHandle->MFNumBuff           = pHandle->MFNum;
 167              		.loc 1 87 51 is_stmt 0 view .LVU56
 168 0074 94F82330 		ldrb	r3, [r4, #35]	@ zero_extendqisi2
  88:MCSDK_v6.3.2-Full/MotorControl/MCSDK/MCLib/Any/Src/mcpa.c ****             pHandle->HFRateBuff          = pHandle->HFRate;
 169              		.loc 1 88 51 view .LVU57
 170 0078 94F82710 		ldrb	r1, [r4, #39]	@ zero_extendqisi2
  89:MCSDK_v6.3.2-Full/MotorControl/MCSDK/MCLib/Any/Src/mcpa.c ****             pHandle->MFRateBuff          = pHandle->MFRate;
 171              		.loc 1 89 42 view .LVU58
 172 007c 94F82100 		ldrb	r0, [r4, #33]	@ zero_extendqisi2
  86:MCSDK_v6.3.2-Full/MotorControl/MCSDK/MCLib/Any/Src/mcpa.c ****             pHandle->HFNumBuff           = pHandle->HFNum;
 173              		.loc 1 86 42 view .LVU59
 174 0080 84F82A20 		strb	r2, [r4, #42]
  87:MCSDK_v6.3.2-Full/MotorControl/MCSDK/MCLib/Any/Src/mcpa.c ****             pHandle->MFNumBuff           = pHandle->MFNum;
 175              		.loc 1 87 13 is_stmt 1 view .LVU60
  87:MCSDK_v6.3.2-Full/MotorControl/MCSDK/MCLib/Any/Src/mcpa.c ****             pHandle->MFNumBuff           = pHandle->MFNum;
 176              		.loc 1 87 42 is_stmt 0 view .LVU61
 177 0084 84F82430 		strb	r3, [r4, #36]
  88:MCSDK_v6.3.2-Full/MotorControl/MCSDK/MCLib/Any/Src/mcpa.c ****             pHandle->HFRateBuff          = pHandle->HFRate;
 178              		.loc 1 88 13 is_stmt 1 view .LVU62
  95:MCSDK_v6.3.2-Full/MotorControl/MCSDK/MCLib/Any/Src/mcpa.c ****                                                                                          so 4 bytes
 179              		.loc 1 95 52 is_stmt 0 view .LVU63
 180 0088 5A18     		adds	r2, r3, r1
  88:MCSDK_v6.3.2-Full/MotorControl/MCSDK/MCLib/Any/Src/mcpa.c ****             pHandle->HFRateBuff          = pHandle->HFRate;
 181              		.loc 1 88 42 view .LVU64
 182 008a 84F82810 		strb	r1, [r4, #40]
  89:MCSDK_v6.3.2-Full/MotorControl/MCSDK/MCLib/Any/Src/mcpa.c ****             pHandle->MFRateBuff          = pHandle->MFRate;
 183              		.loc 1 89 13 is_stmt 1 view .LVU65
  91:MCSDK_v6.3.2-Full/MotorControl/MCSDK/MCLib/Any/Src/mcpa.c **** 
 184              		.loc 1 91 42 is_stmt 0 view .LVU66
 185 008e 638B     		ldrh	r3, [r4, #26]
  90:MCSDK_v6.3.2-Full/MotorControl/MCSDK/MCLib/Any/Src/mcpa.c ****             pHandle->bufferTxTriggerBuff = pHandle->bufferTxTrigger;
 186              		.loc 1 90 42 view .LVU67
 187 0090 94F82510 		ldrb	r1, [r4, #37]	@ zero_extendqisi2
  89:MCSDK_v6.3.2-Full/MotorControl/MCSDK/MCLib/Any/Src/mcpa.c ****             pHandle->MFRateBuff          = pHandle->MFRate;
 188              		.loc 1 89 42 view .LVU68
 189 0094 84F82200 		strb	r0, [r4, #34]
  90:MCSDK_v6.3.2-Full/MotorControl/MCSDK/MCLib/Any/Src/mcpa.c ****             pHandle->bufferTxTriggerBuff = pHandle->bufferTxTrigger;
 190              		.loc 1 90 13 is_stmt 1 view .LVU69
  94:MCSDK_v6.3.2-Full/MotorControl/MCSDK/MCLib/Any/Src/mcpa.c ****                          ((uint32_t)pHandle->HFNum + (uint32_t)pHandle->MFNum) * 4U); /* We store p
ARM GAS  /tmp/ccn1cveX.s 			page 9


 191              		.loc 1 94 19 is_stmt 0 view .LVU70
 192 0098 9200     		lsls	r2, r2, #2
  90:MCSDK_v6.3.2-Full/MotorControl/MCSDK/MCLib/Any/Src/mcpa.c ****             pHandle->bufferTxTriggerBuff = pHandle->bufferTxTrigger;
 193              		.loc 1 90 42 view .LVU71
 194 009a 84F82610 		strb	r1, [r4, #38]
  91:MCSDK_v6.3.2-Full/MotorControl/MCSDK/MCLib/Any/Src/mcpa.c **** 
 195              		.loc 1 91 13 is_stmt 1 view .LVU72
  91:MCSDK_v6.3.2-Full/MotorControl/MCSDK/MCLib/Any/Src/mcpa.c **** 
 196              		.loc 1 91 42 is_stmt 0 view .LVU73
 197 009e A383     		strh	r3, [r4, #28]	@ movhi
  94:MCSDK_v6.3.2-Full/MotorControl/MCSDK/MCLib/Any/Src/mcpa.c ****                          ((uint32_t)pHandle->HFNum + (uint32_t)pHandle->MFNum) * 4U); /* We store p
 198              		.loc 1 94 13 is_stmt 1 view .LVU74
  94:MCSDK_v6.3.2-Full/MotorControl/MCSDK/MCLib/Any/Src/mcpa.c ****                          ((uint32_t)pHandle->HFNum + (uint32_t)pHandle->MFNum) * 4U); /* We store p
 199              		.loc 1 94 19 is_stmt 0 view .LVU75
 200 00a0 D4E90110 		ldrd	r1, r0, [r4, #4]
 201 00a4 FFF7FEFF 		bl	memcpy
 202              	.LVL11:
  97:MCSDK_v6.3.2-Full/MotorControl/MCSDK/MCLib/Any/Src/mcpa.c ****                          (uint32_t)pHandle->HFNum + (uint32_t)pHandle->MFNum); /* 1 size byte per I
 203              		.loc 1 97 13 is_stmt 1 view .LVU76
  98:MCSDK_v6.3.2-Full/MotorControl/MCSDK/MCLib/Any/Src/mcpa.c ****           }
 204              		.loc 1 98 26 is_stmt 0 view .LVU77
 205 00a8 94F82320 		ldrb	r2, [r4, #35]	@ zero_extendqisi2
  98:MCSDK_v6.3.2-Full/MotorControl/MCSDK/MCLib/Any/Src/mcpa.c ****           }
 206              		.loc 1 98 53 view .LVU78
 207 00ac 94F82730 		ldrb	r3, [r4, #39]	@ zero_extendqisi2
  97:MCSDK_v6.3.2-Full/MotorControl/MCSDK/MCLib/Any/Src/mcpa.c ****                          (uint32_t)pHandle->HFNum + (uint32_t)pHandle->MFNum); /* 1 size byte per I
 208              		.loc 1 97 19 view .LVU79
 209 00b0 D4E90310 		ldrd	r1, r0, [r4, #12]
 210 00b4 1A44     		add	r2, r2, r3
 211 00b6 FFF7FEFF 		bl	memcpy
 212              	.LVL12:
 213              	.L4:
 105:MCSDK_v6.3.2-Full/MotorControl/MCSDK/MCLib/Any/Src/mcpa.c **** 
 214              		.loc 1 105 7 is_stmt 1 view .LVU80
 108:MCSDK_v6.3.2-Full/MotorControl/MCSDK/MCLib/Any/Src/mcpa.c ****       {
 215              		.loc 1 108 7 view .LVU81
 108:MCSDK_v6.3.2-Full/MotorControl/MCSDK/MCLib/Any/Src/mcpa.c ****       {
 216              		.loc 1 108 19 is_stmt 0 view .LVU82
 217 00ba 258B     		ldrh	r5, [r4, #24]
 108:MCSDK_v6.3.2-Full/MotorControl/MCSDK/MCLib/Any/Src/mcpa.c ****       {
 218              		.loc 1 108 10 view .LVU83
 219 00bc 002D     		cmp	r5, #0
 220 00be ADD1     		bne	.L34
 221              		.loc 1 208 1 view .LVU84
 222 00c0 F8BD     		pop	{r3, r4, r5, r6, r7, pc}
 223              	.LVL13:
 224              	.L32:
 110:MCSDK_v6.3.2-Full/MotorControl/MCSDK/MCLib/Any/Src/mcpa.c ****         for (i = 0U; i < pHandle->HFNumBuff; i++)
 225              		.loc 1 110 9 is_stmt 1 view .LVU85
 111:MCSDK_v6.3.2-Full/MotorControl/MCSDK/MCLib/Any/Src/mcpa.c ****         {
 226              		.loc 1 111 33 is_stmt 0 view .LVU86
 227 00c2 94F82460 		ldrb	r6, [r4, #36]	@ zero_extendqisi2
 110:MCSDK_v6.3.2-Full/MotorControl/MCSDK/MCLib/Any/Src/mcpa.c ****         for (i = 0U; i < pHandle->HFNumBuff; i++)
 228              		.loc 1 110 20 view .LVU87
 229 00c6 4B19     		adds	r3, r1, r5
 230              	.LVL14:
 111:MCSDK_v6.3.2-Full/MotorControl/MCSDK/MCLib/Any/Src/mcpa.c ****         {
ARM GAS  /tmp/ccn1cveX.s 			page 10


 231              		.loc 1 111 9 is_stmt 1 view .LVU88
 111:MCSDK_v6.3.2-Full/MotorControl/MCSDK/MCLib/Any/Src/mcpa.c ****         {
 232              		.loc 1 111 22 view .LVU89
 111:MCSDK_v6.3.2-Full/MotorControl/MCSDK/MCLib/Any/Src/mcpa.c ****         {
 233              		.loc 1 111 9 is_stmt 0 view .LVU90
 234 00c8 6EB3     		cbz	r6, .L8
 235 00ca A268     		ldr	r2, [r4, #8]
 236 00cc 03EB460C 		add	ip, r3, r6, lsl #1
 237 00d0 043A     		subs	r2, r2, #4
 238              	.LVL15:
 239              	.L9:
 113:MCSDK_v6.3.2-Full/MotorControl/MCSDK/MCLib/Any/Src/mcpa.c ****           logValue16++;
 240              		.loc 1 113 11 is_stmt 1 discriminator 3 view .LVU91
 113:MCSDK_v6.3.2-Full/MotorControl/MCSDK/MCLib/Any/Src/mcpa.c ****           logValue16++;
 241              		.loc 1 113 25 is_stmt 0 discriminator 3 view .LVU92
 242 00d2 52F8040F 		ldr	r0, [r2, #4]!
 243              	.LVL16:
 113:MCSDK_v6.3.2-Full/MotorControl/MCSDK/MCLib/Any/Src/mcpa.c ****           logValue16++;
 244              		.loc 1 113 25 discriminator 3 view .LVU93
 245 00d6 0088     		ldrh	r0, [r0]
 113:MCSDK_v6.3.2-Full/MotorControl/MCSDK/MCLib/Any/Src/mcpa.c ****           logValue16++;
 246              		.loc 1 113 23 discriminator 3 view .LVU94
 247 00d8 23F8020B 		strh	r0, [r3], #2	@ movhi
 248              	.LVL17:
 114:MCSDK_v6.3.2-Full/MotorControl/MCSDK/MCLib/Any/Src/mcpa.c ****           pHandle->bufferIndex = pHandle->bufferIndex + 2U;
 249              		.loc 1 114 11 is_stmt 1 discriminator 3 view .LVU95
 115:MCSDK_v6.3.2-Full/MotorControl/MCSDK/MCLib/Any/Src/mcpa.c ****         }
 250              		.loc 1 115 11 discriminator 3 view .LVU96
 115:MCSDK_v6.3.2-Full/MotorControl/MCSDK/MCLib/Any/Src/mcpa.c ****         }
 251              		.loc 1 115 55 is_stmt 0 discriminator 3 view .LVU97
 252 00dc 258B     		ldrh	r5, [r4, #24]
 253 00de 0235     		adds	r5, r5, #2
 254 00e0 ADB2     		uxth	r5, r5
 111:MCSDK_v6.3.2-Full/MotorControl/MCSDK/MCLib/Any/Src/mcpa.c ****         {
 255              		.loc 1 111 9 discriminator 3 view .LVU98
 256 00e2 6345     		cmp	r3, ip
 115:MCSDK_v6.3.2-Full/MotorControl/MCSDK/MCLib/Any/Src/mcpa.c ****         }
 257              		.loc 1 115 32 discriminator 3 view .LVU99
 258 00e4 2583     		strh	r5, [r4, #24]	@ movhi
 111:MCSDK_v6.3.2-Full/MotorControl/MCSDK/MCLib/Any/Src/mcpa.c ****         {
 259              		.loc 1 111 46 is_stmt 1 discriminator 3 view .LVU100
 260              	.LVL18:
 111:MCSDK_v6.3.2-Full/MotorControl/MCSDK/MCLib/Any/Src/mcpa.c ****         {
 261              		.loc 1 111 22 discriminator 3 view .LVU101
 111:MCSDK_v6.3.2-Full/MotorControl/MCSDK/MCLib/Any/Src/mcpa.c ****         {
 262              		.loc 1 111 9 is_stmt 0 discriminator 3 view .LVU102
 263 00e6 F4D1     		bne	.L9
 119:MCSDK_v6.3.2-Full/MotorControl/MCSDK/MCLib/Any/Src/mcpa.c ****         {
 264              		.loc 1 119 20 view .LVU103
 265 00e8 94F82630 		ldrb	r3, [r4, #38]	@ zero_extendqisi2
 266              	.LVL19:
 172:MCSDK_v6.3.2-Full/MotorControl/MCSDK/MCLib/Any/Src/mcpa.c ****       {
 267              		.loc 1 172 41 view .LVU104
 268 00ec A28B     		ldrh	r2, [r4, #28]
 269              	.LVL20:
 119:MCSDK_v6.3.2-Full/MotorControl/MCSDK/MCLib/Any/Src/mcpa.c ****         {
 270              		.loc 1 119 9 is_stmt 1 view .LVU105
ARM GAS  /tmp/ccn1cveX.s 			page 11


 119:MCSDK_v6.3.2-Full/MotorControl/MCSDK/MCLib/Any/Src/mcpa.c ****         {
 271              		.loc 1 119 12 is_stmt 0 view .LVU106
 272 00ee FD2B     		cmp	r3, #253
 119:MCSDK_v6.3.2-Full/MotorControl/MCSDK/MCLib/Any/Src/mcpa.c ****         {
 273              		.loc 1 119 20 view .LVU107
 274 00f0 1846     		mov	r0, r3
 119:MCSDK_v6.3.2-Full/MotorControl/MCSDK/MCLib/Any/Src/mcpa.c ****         {
 275              		.loc 1 119 12 view .LVU108
 276 00f2 1DD9     		bls	.L20
 171:MCSDK_v6.3.2-Full/MotorControl/MCSDK/MCLib/Any/Src/mcpa.c ****       if (pHandle->bufferIndex > pHandle->bufferTxTriggerBuff)
 277              		.loc 1 171 7 is_stmt 1 view .LVU109
 172:MCSDK_v6.3.2-Full/MotorControl/MCSDK/MCLib/Any/Src/mcpa.c ****       {
 278              		.loc 1 172 7 view .LVU110
 172:MCSDK_v6.3.2-Full/MotorControl/MCSDK/MCLib/Any/Src/mcpa.c ****       {
 279              		.loc 1 172 10 is_stmt 0 view .LVU111
 280 00f4 9542     		cmp	r5, r2
 281 00f6 97D8     		bhi	.L7
 282              		.loc 1 208 1 view .LVU112
 283 00f8 F8BD     		pop	{r3, r4, r5, r6, r7, pc}
 284              	.LVL21:
 285              	.L39:
 176:MCSDK_v6.3.2-Full/MotorControl/MCSDK/MCLib/Any/Src/mcpa.c ****           {
 286              		.loc 1 176 11 is_stmt 1 view .LVU113
 176:MCSDK_v6.3.2-Full/MotorControl/MCSDK/MCLib/Any/Src/mcpa.c ****           {
 287              		.loc 1 176 18 is_stmt 0 view .LVU114
 288 00fa 94F82430 		ldrb	r3, [r4, #36]	@ zero_extendqisi2
 289              	.LVL22:
 176:MCSDK_v6.3.2-Full/MotorControl/MCSDK/MCLib/Any/Src/mcpa.c ****           {
 290              		.loc 1 176 40 is_stmt 1 view .LVU115
 176:MCSDK_v6.3.2-Full/MotorControl/MCSDK/MCLib/Any/Src/mcpa.c ****           {
 291              		.loc 1 176 52 is_stmt 0 view .LVU116
 292 00fe 94F82800 		ldrb	r0, [r4, #40]	@ zero_extendqisi2
 176:MCSDK_v6.3.2-Full/MotorControl/MCSDK/MCLib/Any/Src/mcpa.c ****           {
 293              		.loc 1 176 64 view .LVU117
 294 0102 1844     		add	r0, r0, r3
 176:MCSDK_v6.3.2-Full/MotorControl/MCSDK/MCLib/Any/Src/mcpa.c ****           {
 295              		.loc 1 176 11 view .LVU118
 296 0104 9842     		cmp	r0, r3
 297 0106 91DD     		ble	.L18
 179:MCSDK_v6.3.2-Full/MotorControl/MCSDK/MCLib/Any/Src/mcpa.c ****             pHandle->bufferIndex = pHandle->bufferIndex + pHandle->dataSizeTableBuff[i];
 298              		.loc 1 179 46 view .LVU119
 299 0108 A768     		ldr	r7, [r4, #8]
 180:MCSDK_v6.3.2-Full/MotorControl/MCSDK/MCLib/Any/Src/mcpa.c ****           }
 300              		.loc 1 180 66 view .LVU120
 301 010a 2669     		ldr	r6, [r4, #16]
 302              	.L19:
 178:MCSDK_v6.3.2-Full/MotorControl/MCSDK/MCLib/Any/Src/mcpa.c ****             *logValue = *((uint32_t *)pHandle->dataPtrTableBuff[i]); //cstat !MISRAC2012-Rule-11.5
 303              		.loc 1 178 13 is_stmt 1 discriminator 3 view .LVU121
 304              	.LVL23:
 179:MCSDK_v6.3.2-Full/MotorControl/MCSDK/MCLib/Any/Src/mcpa.c ****             pHandle->bufferIndex = pHandle->bufferIndex + pHandle->dataSizeTableBuff[i];
 305              		.loc 1 179 13 discriminator 3 view .LVU122
 179:MCSDK_v6.3.2-Full/MotorControl/MCSDK/MCLib/Any/Src/mcpa.c ****             pHandle->bufferIndex = pHandle->bufferIndex + pHandle->dataSizeTableBuff[i];
 306              		.loc 1 179 25 is_stmt 0 discriminator 3 view .LVU123
 307 010c 57F82320 		ldr	r2, [r7, r3, lsl #2]
 308 0110 1268     		ldr	r2, [r2]
 179:MCSDK_v6.3.2-Full/MotorControl/MCSDK/MCLib/Any/Src/mcpa.c ****             pHandle->bufferIndex = pHandle->bufferIndex + pHandle->dataSizeTableBuff[i];
 309              		.loc 1 179 23 discriminator 3 view .LVU124
ARM GAS  /tmp/ccn1cveX.s 			page 12


 310 0112 4A51     		str	r2, [r1, r5]
 180:MCSDK_v6.3.2-Full/MotorControl/MCSDK/MCLib/Any/Src/mcpa.c ****           }
 311              		.loc 1 180 13 is_stmt 1 discriminator 3 view .LVU125
 176:MCSDK_v6.3.2-Full/MotorControl/MCSDK/MCLib/Any/Src/mcpa.c ****           {
 312              		.loc 1 176 88 is_stmt 0 discriminator 3 view .LVU126
 313 0114 5A1C     		adds	r2, r3, #1
 180:MCSDK_v6.3.2-Full/MotorControl/MCSDK/MCLib/Any/Src/mcpa.c ****           }
 314              		.loc 1 180 85 discriminator 3 view .LVU127
 315 0116 F35C     		ldrb	r3, [r6, r3]	@ zero_extendqisi2
 316              	.LVL24:
 180:MCSDK_v6.3.2-Full/MotorControl/MCSDK/MCLib/Any/Src/mcpa.c ****           }
 317              		.loc 1 180 57 discriminator 3 view .LVU128
 318 0118 1D44     		add	r5, r5, r3
 319              	.LVL25:
 176:MCSDK_v6.3.2-Full/MotorControl/MCSDK/MCLib/Any/Src/mcpa.c ****           {
 320              		.loc 1 176 88 discriminator 3 view .LVU129
 321 011a D3B2     		uxtb	r3, r2
 180:MCSDK_v6.3.2-Full/MotorControl/MCSDK/MCLib/Any/Src/mcpa.c ****           }
 322              		.loc 1 180 57 discriminator 3 view .LVU130
 323 011c ADB2     		uxth	r5, r5
 176:MCSDK_v6.3.2-Full/MotorControl/MCSDK/MCLib/Any/Src/mcpa.c ****           {
 324              		.loc 1 176 11 discriminator 3 view .LVU131
 325 011e 8342     		cmp	r3, r0
 180:MCSDK_v6.3.2-Full/MotorControl/MCSDK/MCLib/Any/Src/mcpa.c ****           }
 326              		.loc 1 180 34 discriminator 3 view .LVU132
 327 0120 2583     		strh	r5, [r4, #24]	@ movhi
 176:MCSDK_v6.3.2-Full/MotorControl/MCSDK/MCLib/Any/Src/mcpa.c ****           {
 328              		.loc 1 176 87 is_stmt 1 discriminator 3 view .LVU133
 329              	.LVL26:
 176:MCSDK_v6.3.2-Full/MotorControl/MCSDK/MCLib/Any/Src/mcpa.c ****           {
 330              		.loc 1 176 40 discriminator 3 view .LVU134
 176:MCSDK_v6.3.2-Full/MotorControl/MCSDK/MCLib/Any/Src/mcpa.c ****           {
 331              		.loc 1 176 11 is_stmt 0 discriminator 3 view .LVU135
 332 0122 F3DB     		blt	.L19
 333 0124 82E7     		b	.L18
 334              	.LVL27:
 335              	.L8:
 119:MCSDK_v6.3.2-Full/MotorControl/MCSDK/MCLib/Any/Src/mcpa.c ****         {
 336              		.loc 1 119 9 is_stmt 1 view .LVU136
 119:MCSDK_v6.3.2-Full/MotorControl/MCSDK/MCLib/Any/Src/mcpa.c ****         {
 337              		.loc 1 119 20 is_stmt 0 view .LVU137
 338 0126 94F82600 		ldrb	r0, [r4, #38]	@ zero_extendqisi2
 119:MCSDK_v6.3.2-Full/MotorControl/MCSDK/MCLib/Any/Src/mcpa.c ****         {
 339              		.loc 1 119 12 view .LVU138
 340 012a FD28     		cmp	r0, #253
 341 012c 3FF671AF 		bhi	.L1
 342              	.LVL28:
 343              	.L20:
 121:MCSDK_v6.3.2-Full/MotorControl/MCSDK/MCLib/Any/Src/mcpa.c ****           {
 344              		.loc 1 121 11 is_stmt 1 view .LVU139
 121:MCSDK_v6.3.2-Full/MotorControl/MCSDK/MCLib/Any/Src/mcpa.c ****           {
 345              		.loc 1 121 22 is_stmt 0 view .LVU140
 346 0130 94F82030 		ldrb	r3, [r4, #32]	@ zero_extendqisi2
 121:MCSDK_v6.3.2-Full/MotorControl/MCSDK/MCLib/Any/Src/mcpa.c ****           {
 347              		.loc 1 121 14 view .LVU141
 348 0134 8342     		cmp	r3, r0
 349 0136 07D0     		beq	.L41
ARM GAS  /tmp/ccn1cveX.s 			page 13


 160:MCSDK_v6.3.2-Full/MotorControl/MCSDK/MCLib/Any/Src/mcpa.c ****           }
 350              		.loc 1 160 13 is_stmt 1 view .LVU142
 160:MCSDK_v6.3.2-Full/MotorControl/MCSDK/MCLib/Any/Src/mcpa.c ****           }
 351              		.loc 1 160 30 is_stmt 0 view .LVU143
 352 0138 0133     		adds	r3, r3, #1
 172:MCSDK_v6.3.2-Full/MotorControl/MCSDK/MCLib/Any/Src/mcpa.c ****       {
 353              		.loc 1 172 18 view .LVU144
 354 013a 258B     		ldrh	r5, [r4, #24]
 160:MCSDK_v6.3.2-Full/MotorControl/MCSDK/MCLib/Any/Src/mcpa.c ****           }
 355              		.loc 1 160 30 view .LVU145
 356 013c 84F82030 		strb	r3, [r4, #32]
 357              	.L14:
 171:MCSDK_v6.3.2-Full/MotorControl/MCSDK/MCLib/Any/Src/mcpa.c ****       if (pHandle->bufferIndex > pHandle->bufferTxTriggerBuff)
 358              		.loc 1 171 7 is_stmt 1 view .LVU146
 172:MCSDK_v6.3.2-Full/MotorControl/MCSDK/MCLib/Any/Src/mcpa.c ****       {
 359              		.loc 1 172 7 view .LVU147
 172:MCSDK_v6.3.2-Full/MotorControl/MCSDK/MCLib/Any/Src/mcpa.c ****       {
 360              		.loc 1 172 10 is_stmt 0 view .LVU148
 361 0140 AA42     		cmp	r2, r5
 362 0142 FFF473AF 		bcc	.L18
 363              		.loc 1 208 1 view .LVU149
 364 0146 F8BD     		pop	{r3, r4, r5, r6, r7, pc}
 365              	.LVL29:
 366              	.L41:
 123:MCSDK_v6.3.2-Full/MotorControl/MCSDK/MCLib/Any/Src/mcpa.c ****             for (i = pHandle->HFNumBuff; i < (pHandle->MFNumBuff + pHandle->HFNumBuff); i++)
 367              		.loc 1 123 13 is_stmt 1 view .LVU150
 124:MCSDK_v6.3.2-Full/MotorControl/MCSDK/MCLib/Any/Src/mcpa.c ****             {
 368              		.loc 1 124 54 is_stmt 0 view .LVU151
 369 0148 94F82870 		ldrb	r7, [r4, #40]	@ zero_extendqisi2
 124:MCSDK_v6.3.2-Full/MotorControl/MCSDK/MCLib/Any/Src/mcpa.c ****             {
 370              		.loc 1 124 66 view .LVU152
 371 014c 3744     		add	r7, r7, r6
 123:MCSDK_v6.3.2-Full/MotorControl/MCSDK/MCLib/Any/Src/mcpa.c ****             for (i = pHandle->HFNumBuff; i < (pHandle->MFNumBuff + pHandle->HFNumBuff); i++)
 372              		.loc 1 123 30 view .LVU153
 373 014e 0023     		movs	r3, #0
 124:MCSDK_v6.3.2-Full/MotorControl/MCSDK/MCLib/Any/Src/mcpa.c ****             {
 374              		.loc 1 124 13 view .LVU154
 375 0150 B742     		cmp	r7, r6
 123:MCSDK_v6.3.2-Full/MotorControl/MCSDK/MCLib/Any/Src/mcpa.c ****             for (i = pHandle->HFNumBuff; i < (pHandle->MFNumBuff + pHandle->HFNumBuff); i++)
 376              		.loc 1 123 30 view .LVU155
 377 0152 84F82030 		strb	r3, [r4, #32]
 124:MCSDK_v6.3.2-Full/MotorControl/MCSDK/MCLib/Any/Src/mcpa.c ****             {
 378              		.loc 1 124 13 is_stmt 1 view .LVU156
 379              	.LVL30:
 124:MCSDK_v6.3.2-Full/MotorControl/MCSDK/MCLib/Any/Src/mcpa.c ****             {
 380              		.loc 1 124 42 view .LVU157
 124:MCSDK_v6.3.2-Full/MotorControl/MCSDK/MCLib/Any/Src/mcpa.c ****             {
 381              		.loc 1 124 13 is_stmt 0 view .LVU158
 382 0156 12DD     		ble	.L12
 128:MCSDK_v6.3.2-Full/MotorControl/MCSDK/MCLib/Any/Src/mcpa.c **** 
 383              		.loc 1 128 48 view .LVU159
 384 0158 D4F808E0 		ldr	lr, [r4, #8]
 155:MCSDK_v6.3.2-Full/MotorControl/MCSDK/MCLib/Any/Src/mcpa.c ****             }
 385              		.loc 1 155 66 view .LVU160
 386 015c D4F810C0 		ldr	ip, [r4, #16]
 127:MCSDK_v6.3.2-Full/MotorControl/MCSDK/MCLib/Any/Src/mcpa.c ****               *logValue = *((uint32_t *)pHandle->dataPtrTableBuff[i]); //cstat !MISRAC2012-Rule-11.
 387              		.loc 1 127 69 view .LVU161
ARM GAS  /tmp/ccn1cveX.s 			page 14


 388 0160 258B     		ldrh	r5, [r4, #24]
 389              	.L13:
 127:MCSDK_v6.3.2-Full/MotorControl/MCSDK/MCLib/Any/Src/mcpa.c ****               *logValue = *((uint32_t *)pHandle->dataPtrTableBuff[i]); //cstat !MISRAC2012-Rule-11.
 390              		.loc 1 127 15 is_stmt 1 discriminator 3 view .LVU162
 391              	.LVL31:
 128:MCSDK_v6.3.2-Full/MotorControl/MCSDK/MCLib/Any/Src/mcpa.c **** 
 392              		.loc 1 128 15 discriminator 3 view .LVU163
 128:MCSDK_v6.3.2-Full/MotorControl/MCSDK/MCLib/Any/Src/mcpa.c **** 
 393              		.loc 1 128 27 is_stmt 0 discriminator 3 view .LVU164
 394 0162 5EF82630 		ldr	r3, [lr, r6, lsl #2]
 395 0166 1B68     		ldr	r3, [r3]
 128:MCSDK_v6.3.2-Full/MotorControl/MCSDK/MCLib/Any/Src/mcpa.c **** 
 396              		.loc 1 128 25 discriminator 3 view .LVU165
 397 0168 4B51     		str	r3, [r1, r5]
 155:MCSDK_v6.3.2-Full/MotorControl/MCSDK/MCLib/Any/Src/mcpa.c ****             }
 398              		.loc 1 155 15 is_stmt 1 discriminator 3 view .LVU166
 155:MCSDK_v6.3.2-Full/MotorControl/MCSDK/MCLib/Any/Src/mcpa.c ****             }
 399              		.loc 1 155 85 is_stmt 0 discriminator 3 view .LVU167
 400 016a 1CF80630 		ldrb	r3, [ip, r6]	@ zero_extendqisi2
 124:MCSDK_v6.3.2-Full/MotorControl/MCSDK/MCLib/Any/Src/mcpa.c ****             {
 401              		.loc 1 124 90 discriminator 3 view .LVU168
 402 016e 701C     		adds	r0, r6, #1
 155:MCSDK_v6.3.2-Full/MotorControl/MCSDK/MCLib/Any/Src/mcpa.c ****             }
 403              		.loc 1 155 58 discriminator 3 view .LVU169
 404 0170 1D44     		add	r5, r5, r3
 405              	.LVL32:
 124:MCSDK_v6.3.2-Full/MotorControl/MCSDK/MCLib/Any/Src/mcpa.c ****             {
 406              		.loc 1 124 90 discriminator 3 view .LVU170
 407 0172 C6B2     		uxtb	r6, r0
 408              	.LVL33:
 155:MCSDK_v6.3.2-Full/MotorControl/MCSDK/MCLib/Any/Src/mcpa.c ****             }
 409              		.loc 1 155 58 discriminator 3 view .LVU171
 410 0174 ADB2     		uxth	r5, r5
 124:MCSDK_v6.3.2-Full/MotorControl/MCSDK/MCLib/Any/Src/mcpa.c ****             {
 411              		.loc 1 124 13 discriminator 3 view .LVU172
 412 0176 BE42     		cmp	r6, r7
 155:MCSDK_v6.3.2-Full/MotorControl/MCSDK/MCLib/Any/Src/mcpa.c ****             }
 413              		.loc 1 155 36 discriminator 3 view .LVU173
 414 0178 2583     		strh	r5, [r4, #24]	@ movhi
 124:MCSDK_v6.3.2-Full/MotorControl/MCSDK/MCLib/Any/Src/mcpa.c ****             {
 415              		.loc 1 124 89 is_stmt 1 discriminator 3 view .LVU174
 416              	.LVL34:
 124:MCSDK_v6.3.2-Full/MotorControl/MCSDK/MCLib/Any/Src/mcpa.c ****             {
 417              		.loc 1 124 42 discriminator 3 view .LVU175
 124:MCSDK_v6.3.2-Full/MotorControl/MCSDK/MCLib/Any/Src/mcpa.c ****             {
 418              		.loc 1 124 13 is_stmt 0 discriminator 3 view .LVU176
 419 017a F2DB     		blt	.L13
 420 017c E0E7     		b	.L14
 421              	.L12:
 172:MCSDK_v6.3.2-Full/MotorControl/MCSDK/MCLib/Any/Src/mcpa.c ****       {
 422              		.loc 1 172 18 view .LVU177
 423 017e 258B     		ldrh	r5, [r4, #24]
 424 0180 DEE7     		b	.L14
 425              	.L43:
 426 0182 00BF     		.align	2
 427              	.L42:
 428 0184 00000000 		.word	.LANCHOR0
ARM GAS  /tmp/ccn1cveX.s 			page 15


 429              		.cfi_endproc
 430              	.LFE1548:
 432              		.section	.text.MCPA_flushDataLog,"ax",%progbits
 433              		.align	1
 434              		.p2align 2,,3
 435              		.global	MCPA_flushDataLog
 436              		.syntax unified
 437              		.thumb
 438              		.thumb_func
 439              		.fpu fpv4-sp-d16
 441              	MCPA_flushDataLog:
 442              	.LVL35:
 443              	.LFB1549:
 209:MCSDK_v6.3.2-Full/MotorControl/MCSDK/MCLib/Any/Src/mcpa.c **** 
 210:MCSDK_v6.3.2-Full/MotorControl/MCSDK/MCLib/Any/Src/mcpa.c **** /**
 211:MCSDK_v6.3.2-Full/MotorControl/MCSDK/MCLib/Any/Src/mcpa.c ****   * @brief  Sends asynchronous data to controller when the buffer is full
 212:MCSDK_v6.3.2-Full/MotorControl/MCSDK/MCLib/Any/Src/mcpa.c ****   *
 213:MCSDK_v6.3.2-Full/MotorControl/MCSDK/MCLib/Any/Src/mcpa.c ****   * @param  *pHandle Pointer to the MCPA Handle
 214:MCSDK_v6.3.2-Full/MotorControl/MCSDK/MCLib/Any/Src/mcpa.c ****   */
 215:MCSDK_v6.3.2-Full/MotorControl/MCSDK/MCLib/Any/Src/mcpa.c **** void MCPA_flushDataLog (MCPA_Handle_t *pHandle)
 216:MCSDK_v6.3.2-Full/MotorControl/MCSDK/MCLib/Any/Src/mcpa.c **** {
 444              		.loc 1 216 1 is_stmt 1 view -0
 445              		.cfi_startproc
 446              		@ args = 0, pretend = 0, frame = 0
 447              		@ frame_needed = 0, uses_anonymous_args = 0
 217:MCSDK_v6.3.2-Full/MotorControl/MCSDK/MCLib/Any/Src/mcpa.c **** #ifdef NULL_PTR_CHECK_MCPA
 218:MCSDK_v6.3.2-Full/MotorControl/MCSDK/MCLib/Any/Src/mcpa.c ****   if (MC_NULL == pHandle)
 219:MCSDK_v6.3.2-Full/MotorControl/MCSDK/MCLib/Any/Src/mcpa.c ****   {
 220:MCSDK_v6.3.2-Full/MotorControl/MCSDK/MCLib/Any/Src/mcpa.c ****     /* Nothing to do */
 221:MCSDK_v6.3.2-Full/MotorControl/MCSDK/MCLib/Any/Src/mcpa.c ****   }
 222:MCSDK_v6.3.2-Full/MotorControl/MCSDK/MCLib/Any/Src/mcpa.c ****   else
 223:MCSDK_v6.3.2-Full/MotorControl/MCSDK/MCLib/Any/Src/mcpa.c ****   {
 224:MCSDK_v6.3.2-Full/MotorControl/MCSDK/MCLib/Any/Src/mcpa.c **** #endif
 225:MCSDK_v6.3.2-Full/MotorControl/MCSDK/MCLib/Any/Src/mcpa.c ****     uint32_t *logValue;
 448              		.loc 1 225 5 view .LVU179
 226:MCSDK_v6.3.2-Full/MotorControl/MCSDK/MCLib/Any/Src/mcpa.c ****     uint16_t *logValue16;
 449              		.loc 1 226 5 view .LVU180
 227:MCSDK_v6.3.2-Full/MotorControl/MCSDK/MCLib/Any/Src/mcpa.c ****     uint8_t i;
 450              		.loc 1 227 5 view .LVU181
 228:MCSDK_v6.3.2-Full/MotorControl/MCSDK/MCLib/Any/Src/mcpa.c **** 
 229:MCSDK_v6.3.2-Full/MotorControl/MCSDK/MCLib/Any/Src/mcpa.c ****     if (pHandle->bufferIndex > 0U)
 451              		.loc 1 229 5 view .LVU182
 452              		.loc 1 229 16 is_stmt 0 view .LVU183
 453 0000 038B     		ldrh	r3, [r0, #24]
 454              		.loc 1 229 8 view .LVU184
 455 0002 9BB1     		cbz	r3, .L55
 216:MCSDK_v6.3.2-Full/MotorControl/MCSDK/MCLib/Any/Src/mcpa.c **** #ifdef NULL_PTR_CHECK_MCPA
 456              		.loc 1 216 1 view .LVU185
 457 0004 70B5     		push	{r4, r5, r6, lr}
 458              	.LCFI1:
 459              		.cfi_def_cfa_offset 16
 460              		.cfi_offset 4, -16
 461              		.cfi_offset 5, -12
 462              		.cfi_offset 6, -8
 463              		.cfi_offset 14, -4
 230:MCSDK_v6.3.2-Full/MotorControl/MCSDK/MCLib/Any/Src/mcpa.c ****     {  /* If buffer is allocated, we must send it */
 231:MCSDK_v6.3.2-Full/MotorControl/MCSDK/MCLib/Any/Src/mcpa.c ****       if (pHandle->MFRateBuff == 254U) /* In case of flush, we must respect the packet format to al
ARM GAS  /tmp/ccn1cveX.s 			page 16


 464              		.loc 1 231 10 view .LVU186
 465 0006 90F82620 		ldrb	r2, [r0, #38]	@ zero_extendqisi2
 466 000a FE2A     		cmp	r2, #254
 467 000c 0446     		mov	r4, r0
 468              		.loc 1 231 7 is_stmt 1 view .LVU187
 469              		.loc 1 231 10 is_stmt 0 view .LVU188
 470 000e 0ED0     		beq	.L58
 232:MCSDK_v6.3.2-Full/MotorControl/MCSDK/MCLib/Any/Src/mcpa.c ****                                           proper decoding */
 233:MCSDK_v6.3.2-Full/MotorControl/MCSDK/MCLib/Any/Src/mcpa.c ****       {
 234:MCSDK_v6.3.2-Full/MotorControl/MCSDK/MCLib/Any/Src/mcpa.c ****         for (i = pHandle->HFNumBuff; i < (pHandle->MFNumBuff + pHandle->HFNumBuff); i++)
 235:MCSDK_v6.3.2-Full/MotorControl/MCSDK/MCLib/Any/Src/mcpa.c ****         {
 236:MCSDK_v6.3.2-Full/MotorControl/MCSDK/MCLib/Any/Src/mcpa.c ****          logValue = (uint32_t *)&pHandle->currentBuffer[pHandle->bufferIndex]; //cstat !MISRAC2012-
 471              		.loc 1 236 41 view .LVU189
 472 0010 4169     		ldr	r1, [r0, #20]
 473              	.LVL36:
 474              	.L48:
 237:MCSDK_v6.3.2-Full/MotorControl/MCSDK/MCLib/Any/Src/mcpa.c ****          *logValue = *((uint32_t *)pHandle->dataPtrTableBuff[i]); //cstat !MISRAC2012-Rule-11.5
 238:MCSDK_v6.3.2-Full/MotorControl/MCSDK/MCLib/Any/Src/mcpa.c ****          pHandle->bufferIndex = pHandle->bufferIndex+pHandle->dataSizeTableBuff[i];
 239:MCSDK_v6.3.2-Full/MotorControl/MCSDK/MCLib/Any/Src/mcpa.c ****         }
 240:MCSDK_v6.3.2-Full/MotorControl/MCSDK/MCLib/Any/Src/mcpa.c ****       }
 241:MCSDK_v6.3.2-Full/MotorControl/MCSDK/MCLib/Any/Src/mcpa.c ****       else
 242:MCSDK_v6.3.2-Full/MotorControl/MCSDK/MCLib/Any/Src/mcpa.c ****       {
 243:MCSDK_v6.3.2-Full/MotorControl/MCSDK/MCLib/Any/Src/mcpa.c ****         /* Nothing to do */
 244:MCSDK_v6.3.2-Full/MotorControl/MCSDK/MCLib/Any/Src/mcpa.c ****       }
 475              		.loc 1 244 7 is_stmt 1 view .LVU190
 245:MCSDK_v6.3.2-Full/MotorControl/MCSDK/MCLib/Any/Src/mcpa.c ****       logValue16 = (uint16_t *)&pHandle->currentBuffer[pHandle->bufferIndex]; //cstat !MISRAC2012-R
 476              		.loc 1 245 7 view .LVU191
 246:MCSDK_v6.3.2-Full/MotorControl/MCSDK/MCLib/Any/Src/mcpa.c ****       *logValue16 = pHandle->MarkBuff; /* MarkBuff is actually 8 bits, but we add also 8 bits of th
 477              		.loc 1 246 7 view .LVU192
 478              		.loc 1 246 28 is_stmt 0 view .LVU193
 479 0012 94F82A20 		ldrb	r2, [r4, #42]	@ zero_extendqisi2
 480 0016 CA52     		strh	r2, [r1, r3]	@ movhi
 247:MCSDK_v6.3.2-Full/MotorControl/MCSDK/MCLib/Any/Src/mcpa.c ****                                           the MARK */
 248:MCSDK_v6.3.2-Full/MotorControl/MCSDK/MCLib/Any/Src/mcpa.c ****       pHandle->pTransportLayer->fSendPacket (pHandle->pTransportLayer, pHandle->currentBuffer,
 481              		.loc 1 248 7 is_stmt 1 view .LVU194
 482 0018 228B     		ldrh	r2, [r4, #24]
 483              		.loc 1 248 14 is_stmt 0 view .LVU195
 484 001a 2068     		ldr	r0, [r4]
 485              		.loc 1 248 7 view .LVU196
 486 001c 0232     		adds	r2, r2, #2
 487 001e 0923     		movs	r3, #9
 488              	.LVL37:
 489              		.loc 1 248 7 view .LVU197
 490 0020 4568     		ldr	r5, [r0, #4]
 491 0022 92B2     		uxth	r2, r2
 492 0024 A847     		blx	r5
 493              	.LVL38:
 249:MCSDK_v6.3.2-Full/MotorControl/MCSDK/MCLib/Any/Src/mcpa.c ****                                              pHandle->bufferIndex + 2U, MCTL_ASYNC);
 250:MCSDK_v6.3.2-Full/MotorControl/MCSDK/MCLib/Any/Src/mcpa.c ****       pHandle->bufferIndex = 0U;
 494              		.loc 1 250 7 is_stmt 1 view .LVU198
 495              		.loc 1 250 28 is_stmt 0 view .LVU199
 496 0026 0023     		movs	r3, #0
 497 0028 2383     		strh	r3, [r4, #24]	@ movhi
 251:MCSDK_v6.3.2-Full/MotorControl/MCSDK/MCLib/Any/Src/mcpa.c ****     }
 252:MCSDK_v6.3.2-Full/MotorControl/MCSDK/MCLib/Any/Src/mcpa.c ****     else
 253:MCSDK_v6.3.2-Full/MotorControl/MCSDK/MCLib/Any/Src/mcpa.c ****     {
 254:MCSDK_v6.3.2-Full/MotorControl/MCSDK/MCLib/Any/Src/mcpa.c ****       /* Nothing to do */
ARM GAS  /tmp/ccn1cveX.s 			page 17


 255:MCSDK_v6.3.2-Full/MotorControl/MCSDK/MCLib/Any/Src/mcpa.c ****     }
 498              		.loc 1 255 5 is_stmt 1 view .LVU200
 256:MCSDK_v6.3.2-Full/MotorControl/MCSDK/MCLib/Any/Src/mcpa.c **** #ifdef NULL_PTR_CHECK_MCPA
 257:MCSDK_v6.3.2-Full/MotorControl/MCSDK/MCLib/Any/Src/mcpa.c ****   }
 258:MCSDK_v6.3.2-Full/MotorControl/MCSDK/MCLib/Any/Src/mcpa.c **** #endif
 259:MCSDK_v6.3.2-Full/MotorControl/MCSDK/MCLib/Any/Src/mcpa.c **** }
 499              		.loc 1 259 1 is_stmt 0 view .LVU201
 500 002a 70BD     		pop	{r4, r5, r6, pc}
 501              	.LVL39:
 502              	.L55:
 503              	.LCFI2:
 504              		.cfi_def_cfa_offset 0
 505              		.cfi_restore 4
 506              		.cfi_restore 5
 507              		.cfi_restore 6
 508              		.cfi_restore 14
 509              		.loc 1 259 1 view .LVU202
 510 002c 7047     		bx	lr
 511              	.L58:
 512              	.LCFI3:
 513              		.cfi_def_cfa_offset 16
 514              		.cfi_offset 4, -16
 515              		.cfi_offset 5, -12
 516              		.cfi_offset 6, -8
 517              		.cfi_offset 14, -4
 234:MCSDK_v6.3.2-Full/MotorControl/MCSDK/MCLib/Any/Src/mcpa.c ****         {
 518              		.loc 1 234 9 is_stmt 1 view .LVU203
 234:MCSDK_v6.3.2-Full/MotorControl/MCSDK/MCLib/Any/Src/mcpa.c ****         {
 519              		.loc 1 234 16 is_stmt 0 view .LVU204
 520 002e 90F82420 		ldrb	r2, [r0, #36]	@ zero_extendqisi2
 521              	.LVL40:
 234:MCSDK_v6.3.2-Full/MotorControl/MCSDK/MCLib/Any/Src/mcpa.c ****         {
 522              		.loc 1 234 38 is_stmt 1 view .LVU205
 234:MCSDK_v6.3.2-Full/MotorControl/MCSDK/MCLib/Any/Src/mcpa.c ****         {
 523              		.loc 1 234 50 is_stmt 0 view .LVU206
 524 0032 90F828C0 		ldrb	ip, [r0, #40]	@ zero_extendqisi2
 236:MCSDK_v6.3.2-Full/MotorControl/MCSDK/MCLib/Any/Src/mcpa.c ****          *logValue = *((uint32_t *)pHandle->dataPtrTableBuff[i]); //cstat !MISRAC2012-Rule-11.5
 525              		.loc 1 236 41 view .LVU207
 526 0036 4169     		ldr	r1, [r0, #20]
 234:MCSDK_v6.3.2-Full/MotorControl/MCSDK/MCLib/Any/Src/mcpa.c ****         {
 527              		.loc 1 234 62 view .LVU208
 528 0038 9444     		add	ip, ip, r2
 234:MCSDK_v6.3.2-Full/MotorControl/MCSDK/MCLib/Any/Src/mcpa.c ****         {
 529              		.loc 1 234 9 view .LVU209
 530 003a 6245     		cmp	r2, ip
 531 003c E9DA     		bge	.L48
 237:MCSDK_v6.3.2-Full/MotorControl/MCSDK/MCLib/Any/Src/mcpa.c ****          pHandle->bufferIndex = pHandle->bufferIndex+pHandle->dataSizeTableBuff[i];
 532              		.loc 1 237 43 view .LVU210
 533 003e 8668     		ldr	r6, [r0, #8]
 238:MCSDK_v6.3.2-Full/MotorControl/MCSDK/MCLib/Any/Src/mcpa.c ****         }
 534              		.loc 1 238 61 view .LVU211
 535 0040 0569     		ldr	r5, [r0, #16]
 536              	.LVL41:
 537              	.L49:
 236:MCSDK_v6.3.2-Full/MotorControl/MCSDK/MCLib/Any/Src/mcpa.c ****          *logValue = *((uint32_t *)pHandle->dataPtrTableBuff[i]); //cstat !MISRAC2012-Rule-11.5
 538              		.loc 1 236 10 is_stmt 1 discriminator 3 view .LVU212
 237:MCSDK_v6.3.2-Full/MotorControl/MCSDK/MCLib/Any/Src/mcpa.c ****          pHandle->bufferIndex = pHandle->bufferIndex+pHandle->dataSizeTableBuff[i];
ARM GAS  /tmp/ccn1cveX.s 			page 18


 539              		.loc 1 237 10 discriminator 3 view .LVU213
 237:MCSDK_v6.3.2-Full/MotorControl/MCSDK/MCLib/Any/Src/mcpa.c ****          pHandle->bufferIndex = pHandle->bufferIndex+pHandle->dataSizeTableBuff[i];
 540              		.loc 1 237 22 is_stmt 0 discriminator 3 view .LVU214
 541 0042 56F82200 		ldr	r0, [r6, r2, lsl #2]
 542 0046 0068     		ldr	r0, [r0]
 237:MCSDK_v6.3.2-Full/MotorControl/MCSDK/MCLib/Any/Src/mcpa.c ****          pHandle->bufferIndex = pHandle->bufferIndex+pHandle->dataSizeTableBuff[i];
 543              		.loc 1 237 20 discriminator 3 view .LVU215
 544 0048 C850     		str	r0, [r1, r3]
 238:MCSDK_v6.3.2-Full/MotorControl/MCSDK/MCLib/Any/Src/mcpa.c ****         }
 545              		.loc 1 238 10 is_stmt 1 discriminator 3 view .LVU216
 238:MCSDK_v6.3.2-Full/MotorControl/MCSDK/MCLib/Any/Src/mcpa.c ****         }
 546              		.loc 1 238 80 is_stmt 0 discriminator 3 view .LVU217
 547 004a A85C     		ldrb	r0, [r5, r2]	@ zero_extendqisi2
 234:MCSDK_v6.3.2-Full/MotorControl/MCSDK/MCLib/Any/Src/mcpa.c ****         {
 548              		.loc 1 234 86 discriminator 3 view .LVU218
 549 004c 0132     		adds	r2, r2, #1
 550              	.LVL42:
 238:MCSDK_v6.3.2-Full/MotorControl/MCSDK/MCLib/Any/Src/mcpa.c ****         }
 551              		.loc 1 238 53 discriminator 3 view .LVU219
 552 004e 0344     		add	r3, r3, r0
 553              	.LVL43:
 234:MCSDK_v6.3.2-Full/MotorControl/MCSDK/MCLib/Any/Src/mcpa.c ****         {
 554              		.loc 1 234 86 discriminator 3 view .LVU220
 555 0050 D2B2     		uxtb	r2, r2
 238:MCSDK_v6.3.2-Full/MotorControl/MCSDK/MCLib/Any/Src/mcpa.c ****         }
 556              		.loc 1 238 53 discriminator 3 view .LVU221
 557 0052 9BB2     		uxth	r3, r3
 234:MCSDK_v6.3.2-Full/MotorControl/MCSDK/MCLib/Any/Src/mcpa.c ****         {
 558              		.loc 1 234 9 discriminator 3 view .LVU222
 559 0054 6245     		cmp	r2, ip
 238:MCSDK_v6.3.2-Full/MotorControl/MCSDK/MCLib/Any/Src/mcpa.c ****         }
 560              		.loc 1 238 31 discriminator 3 view .LVU223
 561 0056 2383     		strh	r3, [r4, #24]	@ movhi
 234:MCSDK_v6.3.2-Full/MotorControl/MCSDK/MCLib/Any/Src/mcpa.c ****         {
 562              		.loc 1 234 85 is_stmt 1 discriminator 3 view .LVU224
 563              	.LVL44:
 234:MCSDK_v6.3.2-Full/MotorControl/MCSDK/MCLib/Any/Src/mcpa.c ****         {
 564              		.loc 1 234 38 discriminator 3 view .LVU225
 234:MCSDK_v6.3.2-Full/MotorControl/MCSDK/MCLib/Any/Src/mcpa.c ****         {
 565              		.loc 1 234 9 is_stmt 0 discriminator 3 view .LVU226
 566 0058 F3DB     		blt	.L49
 567 005a DAE7     		b	.L48
 568              		.cfi_endproc
 569              	.LFE1549:
 571              		.section	.text.MCPA_cfgLog,"ax",%progbits
 572              		.align	1
 573              		.p2align 2,,3
 574              		.global	MCPA_cfgLog
 575              		.syntax unified
 576              		.thumb
 577              		.thumb_func
 578              		.fpu fpv4-sp-d16
 580              	MCPA_cfgLog:
 581              	.LVL45:
 582              	.LFB1551:
 260:MCSDK_v6.3.2-Full/MotorControl/MCSDK/MCLib/Any/Src/mcpa.c **** 
 261:MCSDK_v6.3.2-Full/MotorControl/MCSDK/MCLib/Any/Src/mcpa.c **** /**
ARM GAS  /tmp/ccn1cveX.s 			page 19


 262:MCSDK_v6.3.2-Full/MotorControl/MCSDK/MCLib/Any/Src/mcpa.c ****   * @brief  Stops the asynchronous communication
 263:MCSDK_v6.3.2-Full/MotorControl/MCSDK/MCLib/Any/Src/mcpa.c ****   *
 264:MCSDK_v6.3.2-Full/MotorControl/MCSDK/MCLib/Any/Src/mcpa.c ****   * @param  *pHandle Pointer to the MCPA Handle
 265:MCSDK_v6.3.2-Full/MotorControl/MCSDK/MCLib/Any/Src/mcpa.c ****   */
 266:MCSDK_v6.3.2-Full/MotorControl/MCSDK/MCLib/Any/Src/mcpa.c **** void MCPA_stopDataLog(MCPA_Handle_t *pHandle)
 267:MCSDK_v6.3.2-Full/MotorControl/MCSDK/MCLib/Any/Src/mcpa.c **** {
 268:MCSDK_v6.3.2-Full/MotorControl/MCSDK/MCLib/Any/Src/mcpa.c ****   uint16_t *logValue16;
 269:MCSDK_v6.3.2-Full/MotorControl/MCSDK/MCLib/Any/Src/mcpa.c **** 
 270:MCSDK_v6.3.2-Full/MotorControl/MCSDK/MCLib/Any/Src/mcpa.c ****   pHandle->Mark = 0U;
 271:MCSDK_v6.3.2-Full/MotorControl/MCSDK/MCLib/Any/Src/mcpa.c ****   if (pHandle->bufferIndex > 0U)
 272:MCSDK_v6.3.2-Full/MotorControl/MCSDK/MCLib/Any/Src/mcpa.c ****   { /* If buffer is allocated, we must send it */
 273:MCSDK_v6.3.2-Full/MotorControl/MCSDK/MCLib/Any/Src/mcpa.c ****     logValue16 = (uint16_t *)&pHandle->currentBuffer[pHandle->bufferIndex]; //cstat !MISRAC2012-Rul
 274:MCSDK_v6.3.2-Full/MotorControl/MCSDK/MCLib/Any/Src/mcpa.c ****     *logValue16 = pHandle->MarkBuff; /* MarkBuff is actually 8 bits, but we add also 8 bits of the 
 275:MCSDK_v6.3.2-Full/MotorControl/MCSDK/MCLib/Any/Src/mcpa.c ****                                         the MARK */
 276:MCSDK_v6.3.2-Full/MotorControl/MCSDK/MCLib/Any/Src/mcpa.c ****     pHandle->pTransportLayer->fSendPacket (pHandle->pTransportLayer, pHandle->currentBuffer,
 277:MCSDK_v6.3.2-Full/MotorControl/MCSDK/MCLib/Any/Src/mcpa.c ****                                            pHandle->bufferIndex + 2U, MCTL_ASYNC);
 278:MCSDK_v6.3.2-Full/MotorControl/MCSDK/MCLib/Any/Src/mcpa.c ****   }
 279:MCSDK_v6.3.2-Full/MotorControl/MCSDK/MCLib/Any/Src/mcpa.c ****   else
 280:MCSDK_v6.3.2-Full/MotorControl/MCSDK/MCLib/Any/Src/mcpa.c ****   {
 281:MCSDK_v6.3.2-Full/MotorControl/MCSDK/MCLib/Any/Src/mcpa.c ****     /* Nothing to do */
 282:MCSDK_v6.3.2-Full/MotorControl/MCSDK/MCLib/Any/Src/mcpa.c ****   }
 283:MCSDK_v6.3.2-Full/MotorControl/MCSDK/MCLib/Any/Src/mcpa.c ****   pHandle->bufferIndex = 0U;
 284:MCSDK_v6.3.2-Full/MotorControl/MCSDK/MCLib/Any/Src/mcpa.c ****   pHandle->MarkBuff    = 0U;
 285:MCSDK_v6.3.2-Full/MotorControl/MCSDK/MCLib/Any/Src/mcpa.c ****   pHandle->HFIndex     = 0U;
 286:MCSDK_v6.3.2-Full/MotorControl/MCSDK/MCLib/Any/Src/mcpa.c ****   pHandle->HFRateBuff  = 0U; /* We do not want to miss any sample at the restart */
 287:MCSDK_v6.3.2-Full/MotorControl/MCSDK/MCLib/Any/Src/mcpa.c **** }
 288:MCSDK_v6.3.2-Full/MotorControl/MCSDK/MCLib/Any/Src/mcpa.c **** 
 289:MCSDK_v6.3.2-Full/MotorControl/MCSDK/MCLib/Any/Src/mcpa.c **** /**
 290:MCSDK_v6.3.2-Full/MotorControl/MCSDK/MCLib/Any/Src/mcpa.c ****   * @brief  Stores the asynchronous configuration stating all the register to be continuously sent 
 291:MCSDK_v6.3.2-Full/MotorControl/MCSDK/MCLib/Any/Src/mcpa.c ****   *
 292:MCSDK_v6.3.2-Full/MotorControl/MCSDK/MCLib/Any/Src/mcpa.c ****   * @param  *pHandle Pointer to the MCPA Handle
 293:MCSDK_v6.3.2-Full/MotorControl/MCSDK/MCLib/Any/Src/mcpa.c ****   * @param  *cfgdata Configuration of the Async communication
 294:MCSDK_v6.3.2-Full/MotorControl/MCSDK/MCLib/Any/Src/mcpa.c ****   */
 295:MCSDK_v6.3.2-Full/MotorControl/MCSDK/MCLib/Any/Src/mcpa.c **** uint8_t MCPA_cfgLog(MCPA_Handle_t *pHandle, uint8_t *cfgdata)
 296:MCSDK_v6.3.2-Full/MotorControl/MCSDK/MCLib/Any/Src/mcpa.c **** {
 583              		.loc 1 296 1 is_stmt 1 view -0
 584              		.cfi_startproc
 585              		@ args = 0, pretend = 0, frame = 0
 586              		@ frame_needed = 0, uses_anonymous_args = 0
 297:MCSDK_v6.3.2-Full/MotorControl/MCSDK/MCLib/Any/Src/mcpa.c ****   uint8_t result = MCP_CMD_OK;
 587              		.loc 1 297 3 view .LVU228
 298:MCSDK_v6.3.2-Full/MotorControl/MCSDK/MCLib/Any/Src/mcpa.c **** 
 299:MCSDK_v6.3.2-Full/MotorControl/MCSDK/MCLib/Any/Src/mcpa.c **** #ifdef NULL_PTR_CHECK_MCPA
 300:MCSDK_v6.3.2-Full/MotorControl/MCSDK/MCLib/Any/Src/mcpa.c ****   if (MC_NULL == pHandle)
 301:MCSDK_v6.3.2-Full/MotorControl/MCSDK/MCLib/Any/Src/mcpa.c ****   {
 302:MCSDK_v6.3.2-Full/MotorControl/MCSDK/MCLib/Any/Src/mcpa.c ****     result = MCP_CMD_NOK;
 303:MCSDK_v6.3.2-Full/MotorControl/MCSDK/MCLib/Any/Src/mcpa.c ****   }
 304:MCSDK_v6.3.2-Full/MotorControl/MCSDK/MCLib/Any/Src/mcpa.c ****   else
 305:MCSDK_v6.3.2-Full/MotorControl/MCSDK/MCLib/Any/Src/mcpa.c ****   {
 306:MCSDK_v6.3.2-Full/MotorControl/MCSDK/MCLib/Any/Src/mcpa.c **** #endif
 307:MCSDK_v6.3.2-Full/MotorControl/MCSDK/MCLib/Any/Src/mcpa.c ****     uint8_t i;
 588              		.loc 1 307 5 view .LVU229
 308:MCSDK_v6.3.2-Full/MotorControl/MCSDK/MCLib/Any/Src/mcpa.c ****     uint16_t logSize = 0U; /* Max size of a log per iteration (HF+MF) */
 589              		.loc 1 308 5 view .LVU230
 309:MCSDK_v6.3.2-Full/MotorControl/MCSDK/MCLib/Any/Src/mcpa.c ****     uint16_t newID, buffSize;
 590              		.loc 1 309 5 view .LVU231
 310:MCSDK_v6.3.2-Full/MotorControl/MCSDK/MCLib/Any/Src/mcpa.c ****     uint8_t *pCfgData = cfgdata;
ARM GAS  /tmp/ccn1cveX.s 			page 20


 591              		.loc 1 310 5 view .LVU232
 311:MCSDK_v6.3.2-Full/MotorControl/MCSDK/MCLib/Any/Src/mcpa.c **** 
 312:MCSDK_v6.3.2-Full/MotorControl/MCSDK/MCLib/Any/Src/mcpa.c ****     buffSize = *((uint16_t *)pCfgData); //cstat !MISRAC2012-Rule-11.3
 592              		.loc 1 312 5 view .LVU233
 296:MCSDK_v6.3.2-Full/MotorControl/MCSDK/MCLib/Any/Src/mcpa.c ****   uint8_t result = MCP_CMD_OK;
 593              		.loc 1 296 1 is_stmt 0 view .LVU234
 594 0000 2DE9F843 		push	{r3, r4, r5, r6, r7, r8, r9, lr}
 595              	.LCFI4:
 596              		.cfi_def_cfa_offset 32
 597              		.cfi_offset 3, -32
 598              		.cfi_offset 4, -28
 599              		.cfi_offset 5, -24
 600              		.cfi_offset 6, -20
 601              		.cfi_offset 7, -16
 602              		.cfi_offset 8, -12
 603              		.cfi_offset 9, -8
 604              		.cfi_offset 14, -4
 605              		.loc 1 312 14 view .LVU235
 606 0004 0F88     		ldrh	r7, [r1]
 607              	.LVL46:
 313:MCSDK_v6.3.2-Full/MotorControl/MCSDK/MCLib/Any/Src/mcpa.c **** 
 314:MCSDK_v6.3.2-Full/MotorControl/MCSDK/MCLib/Any/Src/mcpa.c ****     if (buffSize == 0U)
 608              		.loc 1 314 5 is_stmt 1 view .LVU236
 296:MCSDK_v6.3.2-Full/MotorControl/MCSDK/MCLib/Any/Src/mcpa.c ****   uint8_t result = MCP_CMD_OK;
 609              		.loc 1 296 1 is_stmt 0 view .LVU237
 610 0006 0446     		mov	r4, r0
 611              		.loc 1 314 8 view .LVU238
 612 0008 002F     		cmp	r7, #0
 613 000a 44D0     		beq	.L80
 315:MCSDK_v6.3.2-Full/MotorControl/MCSDK/MCLib/Any/Src/mcpa.c ****     { 
 316:MCSDK_v6.3.2-Full/MotorControl/MCSDK/MCLib/Any/Src/mcpa.c ****       /* Switch Off condition */
 317:MCSDK_v6.3.2-Full/MotorControl/MCSDK/MCLib/Any/Src/mcpa.c ****       MCPA_stopDataLog(pHandle);
 318:MCSDK_v6.3.2-Full/MotorControl/MCSDK/MCLib/Any/Src/mcpa.c ****     }
 319:MCSDK_v6.3.2-Full/MotorControl/MCSDK/MCLib/Any/Src/mcpa.c ****     else if (buffSize > pHandle->pTransportLayer->txAsyncMaxPayload)
 614              		.loc 1 319 10 is_stmt 1 view .LVU239
 615              		.loc 1 319 49 is_stmt 0 view .LVU240
 616 000c 0368     		ldr	r3, [r0]
 617              		.loc 1 319 13 view .LVU241
 618 000e DB89     		ldrh	r3, [r3, #14]
 619 0010 BB42     		cmp	r3, r7
 620 0012 3DD3     		bcc	.L68
 320:MCSDK_v6.3.2-Full/MotorControl/MCSDK/MCLib/Any/Src/mcpa.c ****     {
 321:MCSDK_v6.3.2-Full/MotorControl/MCSDK/MCLib/Any/Src/mcpa.c ****       result = MCP_ERROR_NO_TXASYNC_SPACE;
 322:MCSDK_v6.3.2-Full/MotorControl/MCSDK/MCLib/Any/Src/mcpa.c ****     }
 323:MCSDK_v6.3.2-Full/MotorControl/MCSDK/MCLib/Any/Src/mcpa.c ****     else
 324:MCSDK_v6.3.2-Full/MotorControl/MCSDK/MCLib/Any/Src/mcpa.c ****     {
 325:MCSDK_v6.3.2-Full/MotorControl/MCSDK/MCLib/Any/Src/mcpa.c ****       pHandle->HFRate = *((uint8_t *)&pCfgData[2]);
 621              		.loc 1 325 7 is_stmt 1 view .LVU242
 622              		.loc 1 325 23 is_stmt 0 view .LVU243
 623 0014 8B78     		ldrb	r3, [r1, #2]	@ zero_extendqisi2
 624 0016 80F82130 		strb	r3, [r0, #33]
 326:MCSDK_v6.3.2-Full/MotorControl/MCSDK/MCLib/Any/Src/mcpa.c ****       pHandle->HFNum  = *((uint8_t *)&pCfgData[3]);
 625              		.loc 1 326 7 is_stmt 1 view .LVU244
 626              		.loc 1 326 23 is_stmt 0 view .LVU245
 627 001a CA78     		ldrb	r2, [r1, #3]	@ zero_extendqisi2
 628 001c 80F82320 		strb	r2, [r0, #35]
 327:MCSDK_v6.3.2-Full/MotorControl/MCSDK/MCLib/Any/Src/mcpa.c ****       pHandle->MFRate = *((uint8_t *)&pCfgData[4]);
ARM GAS  /tmp/ccn1cveX.s 			page 21


 629              		.loc 1 327 7 is_stmt 1 view .LVU246
 630              		.loc 1 327 23 is_stmt 0 view .LVU247
 631 0020 0B79     		ldrb	r3, [r1, #4]	@ zero_extendqisi2
 632 0022 80F82530 		strb	r3, [r0, #37]
 328:MCSDK_v6.3.2-Full/MotorControl/MCSDK/MCLib/Any/Src/mcpa.c ****       pHandle->MFNum  = *((uint8_t *)&pCfgData[5]);
 633              		.loc 1 328 7 is_stmt 1 view .LVU248
 634              		.loc 1 328 23 is_stmt 0 view .LVU249
 635 0026 4E79     		ldrb	r6, [r1, #5]	@ zero_extendqisi2
 329:MCSDK_v6.3.2-Full/MotorControl/MCSDK/MCLib/Any/Src/mcpa.c ****       pCfgData = &pCfgData[6]; /* Start of the HF IDs */
 330:MCSDK_v6.3.2-Full/MotorControl/MCSDK/MCLib/Any/Src/mcpa.c **** 
 331:MCSDK_v6.3.2-Full/MotorControl/MCSDK/MCLib/Any/Src/mcpa.c ****       if ((pHandle->HFNum + pHandle->MFNum) <= pHandle->nbrOfDataLog)
 636              		.loc 1 331 55 view .LVU250
 637 0028 837F     		ldrb	r3, [r0, #30]	@ zero_extendqisi2
 328:MCSDK_v6.3.2-Full/MotorControl/MCSDK/MCLib/Any/Src/mcpa.c ****       pHandle->MFNum  = *((uint8_t *)&pCfgData[5]);
 638              		.loc 1 328 23 view .LVU251
 639 002a 80F82760 		strb	r6, [r0, #39]
 329:MCSDK_v6.3.2-Full/MotorControl/MCSDK/MCLib/Any/Src/mcpa.c ****       pCfgData = &pCfgData[6]; /* Start of the HF IDs */
 640              		.loc 1 329 7 is_stmt 1 view .LVU252
 641              	.LVL47:
 642              		.loc 1 331 7 view .LVU253
 643              		.loc 1 331 27 is_stmt 0 view .LVU254
 644 002e 1644     		add	r6, r6, r2
 645              		.loc 1 331 10 view .LVU255
 646 0030 9E42     		cmp	r6, r3
 647 0032 52DC     		bgt	.L70
 329:MCSDK_v6.3.2-Full/MotorControl/MCSDK/MCLib/Any/Src/mcpa.c ****       pCfgData = &pCfgData[6]; /* Start of the HF IDs */
 648              		.loc 1 329 16 view .LVU256
 649 0034 0631     		adds	r1, r1, #6
 650              	.LVL48:
 332:MCSDK_v6.3.2-Full/MotorControl/MCSDK/MCLib/Any/Src/mcpa.c ****       {
 333:MCSDK_v6.3.2-Full/MotorControl/MCSDK/MCLib/Any/Src/mcpa.c ****         for (i = 0; i < (pHandle->HFNum + pHandle->MFNum); i++)
 651              		.loc 1 333 21 is_stmt 1 view .LVU257
 652              		.loc 1 333 9 is_stmt 0 view .LVU258
 653 0036 002E     		cmp	r6, #0
 654 0038 56D0     		beq	.L71
 308:MCSDK_v6.3.2-Full/MotorControl/MCSDK/MCLib/Any/Src/mcpa.c ****     uint16_t newID, buffSize;
 655              		.loc 1 308 14 view .LVU259
 656 003a 0026     		movs	r6, #0
 657 003c 8846     		mov	r8, r1
 658              		.loc 1 333 16 view .LVU260
 659 003e 3546     		mov	r5, r6
 660 0040 11E0     		b	.L67
 661              	.LVL49:
 662              	.L66:
 334:MCSDK_v6.3.2-Full/MotorControl/MCSDK/MCLib/Any/Src/mcpa.c ****         {
 335:MCSDK_v6.3.2-Full/MotorControl/MCSDK/MCLib/Any/Src/mcpa.c ****           newID = *((uint16_t *)pCfgData); //cstat !MISRAC2012-Rule-11.3
 336:MCSDK_v6.3.2-Full/MotorControl/MCSDK/MCLib/Any/Src/mcpa.c ****           (void)RI_GetPtrReg(newID, &pHandle->dataPtrTable[i]);
 337:MCSDK_v6.3.2-Full/MotorControl/MCSDK/MCLib/Any/Src/mcpa.c ****           /* HF Data are fixed to 2 bytes */
 338:MCSDK_v6.3.2-Full/MotorControl/MCSDK/MCLib/Any/Src/mcpa.c ****           pHandle->dataSizeTable[i] = (i < pHandle->HFNum ) ? 2U : RI_GetIDSize(newID);
 663              		.loc 1 338 37 discriminator 4 view .LVU261
 664 0042 E368     		ldr	r3, [r4, #12]
 665 0044 5855     		strb	r0, [r3, r5]
 339:MCSDK_v6.3.2-Full/MotorControl/MCSDK/MCLib/Any/Src/mcpa.c ****           pCfgData++; /* Point to the next UID */
 666              		.loc 1 339 11 is_stmt 1 discriminator 4 view .LVU262
 667              	.LVL50:
 340:MCSDK_v6.3.2-Full/MotorControl/MCSDK/MCLib/Any/Src/mcpa.c ****           pCfgData++;
 668              		.loc 1 340 11 discriminator 4 view .LVU263
ARM GAS  /tmp/ccn1cveX.s 			page 22


 341:MCSDK_v6.3.2-Full/MotorControl/MCSDK/MCLib/Any/Src/mcpa.c ****           logSize = logSize+pHandle->dataSizeTable[i];
 669              		.loc 1 341 51 is_stmt 0 discriminator 4 view .LVU264
 670 0046 E268     		ldr	r2, [r4, #12]
 333:MCSDK_v6.3.2-Full/MotorControl/MCSDK/MCLib/Any/Src/mcpa.c ****         {
 671              		.loc 1 333 33 discriminator 4 view .LVU265
 672 0048 94F82330 		ldrb	r3, [r4, #35]	@ zero_extendqisi2
 333:MCSDK_v6.3.2-Full/MotorControl/MCSDK/MCLib/Any/Src/mcpa.c ****         {
 673              		.loc 1 333 50 discriminator 4 view .LVU266
 674 004c 94F82700 		ldrb	r0, [r4, #39]	@ zero_extendqisi2
 675              		.loc 1 341 51 discriminator 4 view .LVU267
 676 0050 525D     		ldrb	r2, [r2, r5]	@ zero_extendqisi2
 333:MCSDK_v6.3.2-Full/MotorControl/MCSDK/MCLib/Any/Src/mcpa.c ****         {
 677              		.loc 1 333 61 discriminator 4 view .LVU268
 678 0052 05F1010C 		add	ip, r5, #1
 679 0056 5FFA8CF5 		uxtb	r5, ip
 680              	.LVL51:
 333:MCSDK_v6.3.2-Full/MotorControl/MCSDK/MCLib/Any/Src/mcpa.c ****         {
 681              		.loc 1 333 41 discriminator 4 view .LVU269
 682 005a 0344     		add	r3, r3, r0
 683              		.loc 1 341 19 discriminator 4 view .LVU270
 684 005c 3244     		add	r2, r2, r6
 333:MCSDK_v6.3.2-Full/MotorControl/MCSDK/MCLib/Any/Src/mcpa.c ****         {
 685              		.loc 1 333 9 discriminator 4 view .LVU271
 686 005e 9D42     		cmp	r5, r3
 340:MCSDK_v6.3.2-Full/MotorControl/MCSDK/MCLib/Any/Src/mcpa.c ****           pCfgData++;
 687              		.loc 1 340 19 discriminator 4 view .LVU272
 688 0060 4146     		mov	r1, r8
 689              	.LVL52:
 690              		.loc 1 341 11 is_stmt 1 discriminator 4 view .LVU273
 691              		.loc 1 341 19 is_stmt 0 discriminator 4 view .LVU274
 692 0062 96B2     		uxth	r6, r2
 693              	.LVL53:
 333:MCSDK_v6.3.2-Full/MotorControl/MCSDK/MCLib/Any/Src/mcpa.c ****         {
 694              		.loc 1 333 60 is_stmt 1 discriminator 4 view .LVU275
 333:MCSDK_v6.3.2-Full/MotorControl/MCSDK/MCLib/Any/Src/mcpa.c ****         {
 695              		.loc 1 333 21 discriminator 4 view .LVU276
 333:MCSDK_v6.3.2-Full/MotorControl/MCSDK/MCLib/Any/Src/mcpa.c ****         {
 696              		.loc 1 333 9 is_stmt 0 discriminator 4 view .LVU277
 697 0064 11DA     		bge	.L81
 698              	.LVL54:
 699              	.L67:
 335:MCSDK_v6.3.2-Full/MotorControl/MCSDK/MCLib/Any/Src/mcpa.c ****           (void)RI_GetPtrReg(newID, &pHandle->dataPtrTable[i]);
 700              		.loc 1 335 11 is_stmt 1 view .LVU278
 335:MCSDK_v6.3.2-Full/MotorControl/MCSDK/MCLib/Any/Src/mcpa.c ****           (void)RI_GetPtrReg(newID, &pHandle->dataPtrTable[i]);
 701              		.loc 1 335 17 is_stmt 0 view .LVU279
 702 0066 38F8029B 		ldrh	r9, [r8], #2
 703              	.LVL55:
 336:MCSDK_v6.3.2-Full/MotorControl/MCSDK/MCLib/Any/Src/mcpa.c ****           /* HF Data are fixed to 2 bytes */
 704              		.loc 1 336 11 is_stmt 1 view .LVU280
 336:MCSDK_v6.3.2-Full/MotorControl/MCSDK/MCLib/Any/Src/mcpa.c ****           /* HF Data are fixed to 2 bytes */
 705              		.loc 1 336 17 is_stmt 0 view .LVU281
 706 006a 6168     		ldr	r1, [r4, #4]
 707 006c 4846     		mov	r0, r9
 708 006e 01EB8501 		add	r1, r1, r5, lsl #2
 709 0072 FFF7FEFF 		bl	RI_GetPtrReg
 710              	.LVL56:
 338:MCSDK_v6.3.2-Full/MotorControl/MCSDK/MCLib/Any/Src/mcpa.c ****           pCfgData++; /* Point to the next UID */
ARM GAS  /tmp/ccn1cveX.s 			page 23


 711              		.loc 1 338 11 is_stmt 1 view .LVU282
 338:MCSDK_v6.3.2-Full/MotorControl/MCSDK/MCLib/Any/Src/mcpa.c ****           pCfgData++; /* Point to the next UID */
 712              		.loc 1 338 37 is_stmt 0 view .LVU283
 713 0076 94F82330 		ldrb	r3, [r4, #35]	@ zero_extendqisi2
 714 007a AB42     		cmp	r3, r5
 715 007c 4FF00200 		mov	r0, #2
 716 0080 DFD8     		bhi	.L66
 338:MCSDK_v6.3.2-Full/MotorControl/MCSDK/MCLib/Any/Src/mcpa.c ****           pCfgData++; /* Point to the next UID */
 717              		.loc 1 338 68 discriminator 1 view .LVU284
 718 0082 4846     		mov	r0, r9
 719 0084 FFF7FEFF 		bl	RI_GetIDSize
 720              	.LVL57:
 721 0088 DBE7     		b	.L66
 722              	.LVL58:
 723              	.L81:
 342:MCSDK_v6.3.2-Full/MotorControl/MCSDK/MCLib/Any/Src/mcpa.c ****         }
 343:MCSDK_v6.3.2-Full/MotorControl/MCSDK/MCLib/Any/Src/mcpa.c **** 
 344:MCSDK_v6.3.2-Full/MotorControl/MCSDK/MCLib/Any/Src/mcpa.c ****         /* Smallest packet must be able to contain logSize Markbyte AsyncID and TimeStamp */
 345:MCSDK_v6.3.2-Full/MotorControl/MCSDK/MCLib/Any/Src/mcpa.c ****         if (buffSize < (logSize + 2U + 4U))
 724              		.loc 1 345 38 view .LVU285
 725 008a B31D     		adds	r3, r6, #6
 726              	.LVL59:
 727              	.L65:
 728              		.loc 1 345 9 is_stmt 1 view .LVU286
 729              		.loc 1 345 12 is_stmt 0 view .LVU287
 730 008c 9F42     		cmp	r7, r3
 731 008e 1AD2     		bcs	.L82
 732              	.L68:
 321:MCSDK_v6.3.2-Full/MotorControl/MCSDK/MCLib/Any/Src/mcpa.c ****     }
 733              		.loc 1 321 14 view .LVU288
 734 0090 0920     		movs	r0, #9
 735              	.LVL60:
 346:MCSDK_v6.3.2-Full/MotorControl/MCSDK/MCLib/Any/Src/mcpa.c ****         {
 347:MCSDK_v6.3.2-Full/MotorControl/MCSDK/MCLib/Any/Src/mcpa.c ****           result = MCP_ERROR_NO_TXASYNC_SPACE;
 348:MCSDK_v6.3.2-Full/MotorControl/MCSDK/MCLib/Any/Src/mcpa.c ****         }
 349:MCSDK_v6.3.2-Full/MotorControl/MCSDK/MCLib/Any/Src/mcpa.c ****         else
 350:MCSDK_v6.3.2-Full/MotorControl/MCSDK/MCLib/Any/Src/mcpa.c ****         {
 351:MCSDK_v6.3.2-Full/MotorControl/MCSDK/MCLib/Any/Src/mcpa.c ****           pHandle->bufferTxTrigger = buffSize-logSize - 2U; /* 2 is required to add the last Mark b
 352:MCSDK_v6.3.2-Full/MotorControl/MCSDK/MCLib/Any/Src/mcpa.c ****                                                                ASYNCID */
 353:MCSDK_v6.3.2-Full/MotorControl/MCSDK/MCLib/Any/Src/mcpa.c ****           pHandle->Mark = *((uint8_t *)pCfgData);
 354:MCSDK_v6.3.2-Full/MotorControl/MCSDK/MCLib/Any/Src/mcpa.c ****           if (0U == pHandle->Mark)
 355:MCSDK_v6.3.2-Full/MotorControl/MCSDK/MCLib/Any/Src/mcpa.c ****           {  /* Switch Off condition */
 356:MCSDK_v6.3.2-Full/MotorControl/MCSDK/MCLib/Any/Src/mcpa.c ****             MCPA_stopDataLog(pHandle);
 357:MCSDK_v6.3.2-Full/MotorControl/MCSDK/MCLib/Any/Src/mcpa.c ****           }
 358:MCSDK_v6.3.2-Full/MotorControl/MCSDK/MCLib/Any/Src/mcpa.c ****           else
 359:MCSDK_v6.3.2-Full/MotorControl/MCSDK/MCLib/Any/Src/mcpa.c ****           {
 360:MCSDK_v6.3.2-Full/MotorControl/MCSDK/MCLib/Any/Src/mcpa.c ****             /* Nothing to do */
 361:MCSDK_v6.3.2-Full/MotorControl/MCSDK/MCLib/Any/Src/mcpa.c ****           }
 362:MCSDK_v6.3.2-Full/MotorControl/MCSDK/MCLib/Any/Src/mcpa.c ****         }
 363:MCSDK_v6.3.2-Full/MotorControl/MCSDK/MCLib/Any/Src/mcpa.c ****       }
 364:MCSDK_v6.3.2-Full/MotorControl/MCSDK/MCLib/Any/Src/mcpa.c ****       else
 365:MCSDK_v6.3.2-Full/MotorControl/MCSDK/MCLib/Any/Src/mcpa.c ****       {
 366:MCSDK_v6.3.2-Full/MotorControl/MCSDK/MCLib/Any/Src/mcpa.c ****         result = MCP_ERROR_BAD_RAW_FORMAT;
 367:MCSDK_v6.3.2-Full/MotorControl/MCSDK/MCLib/Any/Src/mcpa.c ****       }
 368:MCSDK_v6.3.2-Full/MotorControl/MCSDK/MCLib/Any/Src/mcpa.c ****     }
 369:MCSDK_v6.3.2-Full/MotorControl/MCSDK/MCLib/Any/Src/mcpa.c **** #ifdef NULL_PTR_CHECK_MCPA
 370:MCSDK_v6.3.2-Full/MotorControl/MCSDK/MCLib/Any/Src/mcpa.c ****   }
ARM GAS  /tmp/ccn1cveX.s 			page 24


 371:MCSDK_v6.3.2-Full/MotorControl/MCSDK/MCLib/Any/Src/mcpa.c **** #endif
 372:MCSDK_v6.3.2-Full/MotorControl/MCSDK/MCLib/Any/Src/mcpa.c ****   return (result);
 736              		.loc 1 372 3 is_stmt 1 view .LVU289
 373:MCSDK_v6.3.2-Full/MotorControl/MCSDK/MCLib/Any/Src/mcpa.c **** }
 737              		.loc 1 373 1 is_stmt 0 view .LVU290
 738 0092 BDE8F883 		pop	{r3, r4, r5, r6, r7, r8, r9, pc}
 739              	.LVL61:
 740              	.L80:
 317:MCSDK_v6.3.2-Full/MotorControl/MCSDK/MCLib/Any/Src/mcpa.c ****     }
 741              		.loc 1 317 7 is_stmt 1 view .LVU291
 742              	.LBB6:
 743              	.LBI6:
 266:MCSDK_v6.3.2-Full/MotorControl/MCSDK/MCLib/Any/Src/mcpa.c **** {
 744              		.loc 1 266 6 view .LVU292
 745              	.LBB7:
 268:MCSDK_v6.3.2-Full/MotorControl/MCSDK/MCLib/Any/Src/mcpa.c **** 
 746              		.loc 1 268 3 view .LVU293
 270:MCSDK_v6.3.2-Full/MotorControl/MCSDK/MCLib/Any/Src/mcpa.c ****   if (pHandle->bufferIndex > 0U)
 747              		.loc 1 270 3 view .LVU294
 271:MCSDK_v6.3.2-Full/MotorControl/MCSDK/MCLib/Any/Src/mcpa.c ****   { /* If buffer is allocated, we must send it */
 748              		.loc 1 271 14 is_stmt 0 view .LVU295
 749 0096 038B     		ldrh	r3, [r0, #24]
 270:MCSDK_v6.3.2-Full/MotorControl/MCSDK/MCLib/Any/Src/mcpa.c ****   if (pHandle->bufferIndex > 0U)
 750              		.loc 1 270 17 view .LVU296
 751 0098 80F82970 		strb	r7, [r0, #41]
 271:MCSDK_v6.3.2-Full/MotorControl/MCSDK/MCLib/Any/Src/mcpa.c ****   { /* If buffer is allocated, we must send it */
 752              		.loc 1 271 3 is_stmt 1 view .LVU297
 271:MCSDK_v6.3.2-Full/MotorControl/MCSDK/MCLib/Any/Src/mcpa.c ****   { /* If buffer is allocated, we must send it */
 753              		.loc 1 271 6 is_stmt 0 view .LVU298
 754 009c 53B1     		cbz	r3, .L62
 755              	.LVL62:
 756              	.L79:
 273:MCSDK_v6.3.2-Full/MotorControl/MCSDK/MCLib/Any/Src/mcpa.c ****     *logValue16 = pHandle->MarkBuff; /* MarkBuff is actually 8 bits, but we add also 8 bits of the 
 757              		.loc 1 273 5 is_stmt 1 view .LVU299
 273:MCSDK_v6.3.2-Full/MotorControl/MCSDK/MCLib/Any/Src/mcpa.c ****     *logValue16 = pHandle->MarkBuff; /* MarkBuff is actually 8 bits, but we add also 8 bits of the 
 758              		.loc 1 273 38 is_stmt 0 view .LVU300
 759 009e 6169     		ldr	r1, [r4, #20]
 760              	.LVL63:
 274:MCSDK_v6.3.2-Full/MotorControl/MCSDK/MCLib/Any/Src/mcpa.c ****                                         the MARK */
 761              		.loc 1 274 5 is_stmt 1 view .LVU301
 274:MCSDK_v6.3.2-Full/MotorControl/MCSDK/MCLib/Any/Src/mcpa.c ****                                         the MARK */
 762              		.loc 1 274 26 is_stmt 0 view .LVU302
 763 00a0 94F82A20 		ldrb	r2, [r4, #42]	@ zero_extendqisi2
 764 00a4 CA52     		strh	r2, [r1, r3]	@ movhi
 276:MCSDK_v6.3.2-Full/MotorControl/MCSDK/MCLib/Any/Src/mcpa.c ****                                            pHandle->bufferIndex + 2U, MCTL_ASYNC);
 765              		.loc 1 276 5 is_stmt 1 view .LVU303
 766 00a6 228B     		ldrh	r2, [r4, #24]
 276:MCSDK_v6.3.2-Full/MotorControl/MCSDK/MCLib/Any/Src/mcpa.c ****                                            pHandle->bufferIndex + 2U, MCTL_ASYNC);
 767              		.loc 1 276 12 is_stmt 0 view .LVU304
 768 00a8 2068     		ldr	r0, [r4]
 276:MCSDK_v6.3.2-Full/MotorControl/MCSDK/MCLib/Any/Src/mcpa.c ****                                            pHandle->bufferIndex + 2U, MCTL_ASYNC);
 769              		.loc 1 276 5 view .LVU305
 770 00aa 0232     		adds	r2, r2, #2
 771 00ac 4568     		ldr	r5, [r0, #4]
 772 00ae 92B2     		uxth	r2, r2
 773 00b0 0923     		movs	r3, #9
 774              	.LVL64:
ARM GAS  /tmp/ccn1cveX.s 			page 25


 276:MCSDK_v6.3.2-Full/MotorControl/MCSDK/MCLib/Any/Src/mcpa.c ****                                            pHandle->bufferIndex + 2U, MCTL_ASYNC);
 775              		.loc 1 276 5 view .LVU306
 776 00b2 A847     		blx	r5
 777              	.LVL65:
 778              	.L62:
 282:MCSDK_v6.3.2-Full/MotorControl/MCSDK/MCLib/Any/Src/mcpa.c ****   pHandle->bufferIndex = 0U;
 779              		.loc 1 282 3 is_stmt 1 view .LVU307
 283:MCSDK_v6.3.2-Full/MotorControl/MCSDK/MCLib/Any/Src/mcpa.c ****   pHandle->MarkBuff    = 0U;
 780              		.loc 1 283 3 view .LVU308
 283:MCSDK_v6.3.2-Full/MotorControl/MCSDK/MCLib/Any/Src/mcpa.c ****   pHandle->MarkBuff    = 0U;
 781              		.loc 1 283 24 is_stmt 0 view .LVU309
 782 00b4 0020     		movs	r0, #0
 284:MCSDK_v6.3.2-Full/MotorControl/MCSDK/MCLib/Any/Src/mcpa.c ****   pHandle->HFIndex     = 0U;
 783              		.loc 1 284 24 view .LVU310
 784 00b6 84F82A00 		strb	r0, [r4, #42]
 285:MCSDK_v6.3.2-Full/MotorControl/MCSDK/MCLib/Any/Src/mcpa.c ****   pHandle->HFRateBuff  = 0U; /* We do not want to miss any sample at the restart */
 785              		.loc 1 285 24 view .LVU311
 786 00ba E077     		strb	r0, [r4, #31]
 286:MCSDK_v6.3.2-Full/MotorControl/MCSDK/MCLib/Any/Src/mcpa.c **** }
 787              		.loc 1 286 24 view .LVU312
 788 00bc 84F82200 		strb	r0, [r4, #34]
 283:MCSDK_v6.3.2-Full/MotorControl/MCSDK/MCLib/Any/Src/mcpa.c ****   pHandle->MarkBuff    = 0U;
 789              		.loc 1 283 24 view .LVU313
 790 00c0 2083     		strh	r0, [r4, #24]	@ movhi
 284:MCSDK_v6.3.2-Full/MotorControl/MCSDK/MCLib/Any/Src/mcpa.c ****   pHandle->HFIndex     = 0U;
 791              		.loc 1 284 3 is_stmt 1 view .LVU314
 285:MCSDK_v6.3.2-Full/MotorControl/MCSDK/MCLib/Any/Src/mcpa.c ****   pHandle->HFRateBuff  = 0U; /* We do not want to miss any sample at the restart */
 792              		.loc 1 285 3 view .LVU315
 286:MCSDK_v6.3.2-Full/MotorControl/MCSDK/MCLib/Any/Src/mcpa.c **** }
 793              		.loc 1 286 3 view .LVU316
 794              	.LVL66:
 286:MCSDK_v6.3.2-Full/MotorControl/MCSDK/MCLib/Any/Src/mcpa.c **** }
 795              		.loc 1 286 3 is_stmt 0 view .LVU317
 796              	.LBE7:
 797              	.LBE6:
 372:MCSDK_v6.3.2-Full/MotorControl/MCSDK/MCLib/Any/Src/mcpa.c **** }
 798              		.loc 1 372 3 is_stmt 1 view .LVU318
 799              		.loc 1 373 1 is_stmt 0 view .LVU319
 800 00c2 BDE8F883 		pop	{r3, r4, r5, r6, r7, r8, r9, pc}
 801              	.LVL67:
 802              	.L82:
 351:MCSDK_v6.3.2-Full/MotorControl/MCSDK/MCLib/Any/Src/mcpa.c ****                                                                ASYNCID */
 803              		.loc 1 351 11 is_stmt 1 view .LVU320
 351:MCSDK_v6.3.2-Full/MotorControl/MCSDK/MCLib/Any/Src/mcpa.c ****                                                                ASYNCID */
 804              		.loc 1 351 55 is_stmt 0 view .LVU321
 805 00c6 BA1E     		subs	r2, r7, #2
 806 00c8 921B     		subs	r2, r2, r6
 351:MCSDK_v6.3.2-Full/MotorControl/MCSDK/MCLib/Any/Src/mcpa.c ****                                                                ASYNCID */
 807              		.loc 1 351 36 view .LVU322
 808 00ca 6283     		strh	r2, [r4, #26]	@ movhi
 353:MCSDK_v6.3.2-Full/MotorControl/MCSDK/MCLib/Any/Src/mcpa.c ****           if (0U == pHandle->Mark)
 809              		.loc 1 353 11 is_stmt 1 view .LVU323
 353:MCSDK_v6.3.2-Full/MotorControl/MCSDK/MCLib/Any/Src/mcpa.c ****           if (0U == pHandle->Mark)
 810              		.loc 1 353 27 is_stmt 0 view .LVU324
 811 00cc 0B78     		ldrb	r3, [r1]	@ zero_extendqisi2
 353:MCSDK_v6.3.2-Full/MotorControl/MCSDK/MCLib/Any/Src/mcpa.c ****           if (0U == pHandle->Mark)
 812              		.loc 1 353 25 view .LVU325
ARM GAS  /tmp/ccn1cveX.s 			page 26


 813 00ce 84F82930 		strb	r3, [r4, #41]
 354:MCSDK_v6.3.2-Full/MotorControl/MCSDK/MCLib/Any/Src/mcpa.c ****           {  /* Switch Off condition */
 814              		.loc 1 354 11 is_stmt 1 view .LVU326
 354:MCSDK_v6.3.2-Full/MotorControl/MCSDK/MCLib/Any/Src/mcpa.c ****           {  /* Switch Off condition */
 815              		.loc 1 354 14 is_stmt 0 view .LVU327
 816 00d2 2BB1     		cbz	r3, .L83
 297:MCSDK_v6.3.2-Full/MotorControl/MCSDK/MCLib/Any/Src/mcpa.c **** 
 817              		.loc 1 297 11 view .LVU328
 818 00d4 0020     		movs	r0, #0
 819              	.LVL68:
 372:MCSDK_v6.3.2-Full/MotorControl/MCSDK/MCLib/Any/Src/mcpa.c **** }
 820              		.loc 1 372 3 is_stmt 1 view .LVU329
 821              		.loc 1 373 1 is_stmt 0 view .LVU330
 822 00d6 BDE8F883 		pop	{r3, r4, r5, r6, r7, r8, r9, pc}
 823              	.LVL69:
 824              	.L70:
 366:MCSDK_v6.3.2-Full/MotorControl/MCSDK/MCLib/Any/Src/mcpa.c ****       }
 825              		.loc 1 366 16 view .LVU331
 826 00da 0A20     		movs	r0, #10
 827              	.LVL70:
 372:MCSDK_v6.3.2-Full/MotorControl/MCSDK/MCLib/Any/Src/mcpa.c **** }
 828              		.loc 1 372 3 is_stmt 1 view .LVU332
 829              		.loc 1 373 1 is_stmt 0 view .LVU333
 830 00dc BDE8F883 		pop	{r3, r4, r5, r6, r7, r8, r9, pc}
 831              	.LVL71:
 832              	.L83:
 356:MCSDK_v6.3.2-Full/MotorControl/MCSDK/MCLib/Any/Src/mcpa.c ****           }
 833              		.loc 1 356 13 is_stmt 1 view .LVU334
 834              	.LBB8:
 835              	.LBI8:
 266:MCSDK_v6.3.2-Full/MotorControl/MCSDK/MCLib/Any/Src/mcpa.c **** {
 836              		.loc 1 266 6 view .LVU335
 837              	.LBB9:
 268:MCSDK_v6.3.2-Full/MotorControl/MCSDK/MCLib/Any/Src/mcpa.c **** 
 838              		.loc 1 268 3 view .LVU336
 270:MCSDK_v6.3.2-Full/MotorControl/MCSDK/MCLib/Any/Src/mcpa.c ****   if (pHandle->bufferIndex > 0U)
 839              		.loc 1 270 3 view .LVU337
 271:MCSDK_v6.3.2-Full/MotorControl/MCSDK/MCLib/Any/Src/mcpa.c ****   { /* If buffer is allocated, we must send it */
 840              		.loc 1 271 3 view .LVU338
 271:MCSDK_v6.3.2-Full/MotorControl/MCSDK/MCLib/Any/Src/mcpa.c ****   { /* If buffer is allocated, we must send it */
 841              		.loc 1 271 14 is_stmt 0 view .LVU339
 842 00e0 238B     		ldrh	r3, [r4, #24]
 271:MCSDK_v6.3.2-Full/MotorControl/MCSDK/MCLib/Any/Src/mcpa.c ****   { /* If buffer is allocated, we must send it */
 843              		.loc 1 271 6 view .LVU340
 844 00e2 002B     		cmp	r3, #0
 845 00e4 E6D0     		beq	.L62
 846 00e6 DAE7     		b	.L79
 847              	.LVL72:
 848              	.L71:
 271:MCSDK_v6.3.2-Full/MotorControl/MCSDK/MCLib/Any/Src/mcpa.c ****   { /* If buffer is allocated, we must send it */
 849              		.loc 1 271 6 view .LVU341
 850              	.LBE9:
 851              	.LBE8:
 333:MCSDK_v6.3.2-Full/MotorControl/MCSDK/MCLib/Any/Src/mcpa.c ****         {
 852              		.loc 1 333 9 view .LVU342
 853 00e8 0623     		movs	r3, #6
 854 00ea CFE7     		b	.L65
ARM GAS  /tmp/ccn1cveX.s 			page 27


 855              		.cfi_endproc
 856              	.LFE1551:
 858              		.global	GLOBAL_TIMESTAMP
 859              		.section	.bss.GLOBAL_TIMESTAMP,"aw",%nobits
 860              		.align	2
 861              		.set	.LANCHOR0,. + 0
 864              	GLOBAL_TIMESTAMP:
 865 0000 00000000 		.space	4
 866              		.text
 867              	.Letext0:
 868              		.file 2 "/usr/share/gcc-arm-none-eabi-10-2020-q4-major/arm-none-eabi/include/machine/_default_type
 869              		.file 3 "/usr/share/gcc-arm-none-eabi-10-2020-q4-major/arm-none-eabi/include/sys/_stdint.h"
 870              		.file 4 "Drivers/STM32G4xx_HAL_Driver/Inc/stm32g4xx_ll_tim.h"
 871              		.file 5 "Drivers/STM32G4xx_HAL_Driver/Inc/stm32g4xx_ll_usart.h"
 872              		.file 6 "Drivers/STM32G4xx_HAL_Driver/Inc/stm32g4xx_ll_dma.h"
 873              		.file 7 "MCSDK_v6.3.2-Full/MotorControl/MCSDK/MCLib/Any/Inc/mcptl.h"
 874              		.file 8 "MCSDK_v6.3.2-Full/MotorControl/MCSDK/MCLib/Any/Inc/mcpa.h"
 875              		.file 9 "Inc/register_interface.h"
 876              		.file 10 "<built-in>"
ARM GAS  /tmp/ccn1cveX.s 			page 28

