ARM GAS  /tmp/ccZ89PDO.s 			page 1


   1              		.cpu cortex-m4
   2              		.eabi_attribute 27, 1
   3              		.eabi_attribute 28, 1
   4              		.eabi_attribute 20, 1
   5              		.eabi_attribute 21, 1
   6              		.eabi_attribute 23, 3
   7              		.eabi_attribute 24, 1
   8              		.eabi_attribute 25, 1
   9              		.eabi_attribute 26, 1
  10              		.eabi_attribute 30, 2
  11              		.eabi_attribute 34, 1
  12              		.eabi_attribute 18, 2
  13              		.file	"ntc_temperature_sensor.c"
  14              		.text
  15              	.Ltext0:
  16              		.cfi_sections	.debug_frame
  17              		.section	.text.NTC_SetFaultState,"ax",%progbits
  18              		.align	1
  19              		.p2align 2,,3
  20              		.weak	NTC_SetFaultState
  21              		.arch armv7e-m
  22              		.syntax unified
  23              		.thumb
  24              		.thumb_func
  25              		.fpu fpv4-sp-d16
  27              	NTC_SetFaultState:
  28              	.LVL0:
  29              	.LFB1435:
  30              		.file 1 "MCSDK_v6.3.2-Full/MotorControl/MCSDK/MCLib/Any/Src/ntc_temperature_sensor.c"
   1:MCSDK_v6.3.2-Full/MotorControl/MCSDK/MCLib/Any/Src/ntc_temperature_sensor.c **** /**
   2:MCSDK_v6.3.2-Full/MotorControl/MCSDK/MCLib/Any/Src/ntc_temperature_sensor.c ****   ******************************************************************************
   3:MCSDK_v6.3.2-Full/MotorControl/MCSDK/MCLib/Any/Src/ntc_temperature_sensor.c ****   * @file    ntc_temperature_sensor.c
   4:MCSDK_v6.3.2-Full/MotorControl/MCSDK/MCLib/Any/Src/ntc_temperature_sensor.c ****   * @author  Motor Control SDK Team, ST Microelectronics
   5:MCSDK_v6.3.2-Full/MotorControl/MCSDK/MCLib/Any/Src/ntc_temperature_sensor.c ****   * @brief   This file provides firmware functions that implement the features
   6:MCSDK_v6.3.2-Full/MotorControl/MCSDK/MCLib/Any/Src/ntc_temperature_sensor.c ****   *          of the Temperature Sensor component of the Motor Control SDK.
   7:MCSDK_v6.3.2-Full/MotorControl/MCSDK/MCLib/Any/Src/ntc_temperature_sensor.c ****   ******************************************************************************
   8:MCSDK_v6.3.2-Full/MotorControl/MCSDK/MCLib/Any/Src/ntc_temperature_sensor.c ****   * @attention
   9:MCSDK_v6.3.2-Full/MotorControl/MCSDK/MCLib/Any/Src/ntc_temperature_sensor.c ****   *
  10:MCSDK_v6.3.2-Full/MotorControl/MCSDK/MCLib/Any/Src/ntc_temperature_sensor.c ****   * <h2><center>&copy; Copyright (c) 2024 STMicroelectronics.
  11:MCSDK_v6.3.2-Full/MotorControl/MCSDK/MCLib/Any/Src/ntc_temperature_sensor.c ****   * All rights reserved.</center></h2>
  12:MCSDK_v6.3.2-Full/MotorControl/MCSDK/MCLib/Any/Src/ntc_temperature_sensor.c ****   *
  13:MCSDK_v6.3.2-Full/MotorControl/MCSDK/MCLib/Any/Src/ntc_temperature_sensor.c ****   * This software component is licensed by ST under Ultimate Liberty license
  14:MCSDK_v6.3.2-Full/MotorControl/MCSDK/MCLib/Any/Src/ntc_temperature_sensor.c ****   * SLA0044, the "License"; You may not use this file except in compliance with
  15:MCSDK_v6.3.2-Full/MotorControl/MCSDK/MCLib/Any/Src/ntc_temperature_sensor.c ****   * the License. You may obtain a copy of the License at:
  16:MCSDK_v6.3.2-Full/MotorControl/MCSDK/MCLib/Any/Src/ntc_temperature_sensor.c ****   *                             www.st.com/SLA0044
  17:MCSDK_v6.3.2-Full/MotorControl/MCSDK/MCLib/Any/Src/ntc_temperature_sensor.c ****   *
  18:MCSDK_v6.3.2-Full/MotorControl/MCSDK/MCLib/Any/Src/ntc_temperature_sensor.c ****   ******************************************************************************
  19:MCSDK_v6.3.2-Full/MotorControl/MCSDK/MCLib/Any/Src/ntc_temperature_sensor.c ****   * @ingroup TemperatureSensor
  20:MCSDK_v6.3.2-Full/MotorControl/MCSDK/MCLib/Any/Src/ntc_temperature_sensor.c ****   */
  21:MCSDK_v6.3.2-Full/MotorControl/MCSDK/MCLib/Any/Src/ntc_temperature_sensor.c **** 
  22:MCSDK_v6.3.2-Full/MotorControl/MCSDK/MCLib/Any/Src/ntc_temperature_sensor.c **** /* Includes ------------------------------------------------------------------*/
  23:MCSDK_v6.3.2-Full/MotorControl/MCSDK/MCLib/Any/Src/ntc_temperature_sensor.c **** #include "ntc_temperature_sensor.h"
  24:MCSDK_v6.3.2-Full/MotorControl/MCSDK/MCLib/Any/Src/ntc_temperature_sensor.c **** 
  25:MCSDK_v6.3.2-Full/MotorControl/MCSDK/MCLib/Any/Src/ntc_temperature_sensor.c **** /** @addtogroup MCSDK
  26:MCSDK_v6.3.2-Full/MotorControl/MCSDK/MCLib/Any/Src/ntc_temperature_sensor.c ****   * @{
  27:MCSDK_v6.3.2-Full/MotorControl/MCSDK/MCLib/Any/Src/ntc_temperature_sensor.c ****   */
  28:MCSDK_v6.3.2-Full/MotorControl/MCSDK/MCLib/Any/Src/ntc_temperature_sensor.c **** 
ARM GAS  /tmp/ccZ89PDO.s 			page 2


  29:MCSDK_v6.3.2-Full/MotorControl/MCSDK/MCLib/Any/Src/ntc_temperature_sensor.c **** /** @defgroup TemperatureSensor NTC Temperature Sensor
  30:MCSDK_v6.3.2-Full/MotorControl/MCSDK/MCLib/Any/Src/ntc_temperature_sensor.c ****   * @brief Allows to read the temperature of the heat sink
  31:MCSDK_v6.3.2-Full/MotorControl/MCSDK/MCLib/Any/Src/ntc_temperature_sensor.c ****   *
  32:MCSDK_v6.3.2-Full/MotorControl/MCSDK/MCLib/Any/Src/ntc_temperature_sensor.c ****   * This component implements both a virtual and a real temperature sensor,
  33:MCSDK_v6.3.2-Full/MotorControl/MCSDK/MCLib/Any/Src/ntc_temperature_sensor.c ****   * depending on the sensor availability.
  34:MCSDK_v6.3.2-Full/MotorControl/MCSDK/MCLib/Any/Src/ntc_temperature_sensor.c ****   *
  35:MCSDK_v6.3.2-Full/MotorControl/MCSDK/MCLib/Any/Src/ntc_temperature_sensor.c ****   * Access to the MCU peripherals needed to acquire the temperature (GPIO and ADC
  36:MCSDK_v6.3.2-Full/MotorControl/MCSDK/MCLib/Any/Src/ntc_temperature_sensor.c ****   * used for regular conversion) is managed by the PWM component used in the Motor
  37:MCSDK_v6.3.2-Full/MotorControl/MCSDK/MCLib/Any/Src/ntc_temperature_sensor.c ****   * Control subsystem. As a consequence, this NTC temperature sensor implementation
  38:MCSDK_v6.3.2-Full/MotorControl/MCSDK/MCLib/Any/Src/ntc_temperature_sensor.c ****   * is hardware-independent.
  39:MCSDK_v6.3.2-Full/MotorControl/MCSDK/MCLib/Any/Src/ntc_temperature_sensor.c ****   *
  40:MCSDK_v6.3.2-Full/MotorControl/MCSDK/MCLib/Any/Src/ntc_temperature_sensor.c ****   * If a real temperature sensor is available (Sensor Type = #REAL_SENSOR),
  41:MCSDK_v6.3.2-Full/MotorControl/MCSDK/MCLib/Any/Src/ntc_temperature_sensor.c ****   * this component can handle NTC sensors or, more generally, analog temperature sensors
  42:MCSDK_v6.3.2-Full/MotorControl/MCSDK/MCLib/Any/Src/ntc_temperature_sensor.c ****   * which output is related to the temperature by the following formula:
  43:MCSDK_v6.3.2-Full/MotorControl/MCSDK/MCLib/Any/Src/ntc_temperature_sensor.c ****   *
  44:MCSDK_v6.3.2-Full/MotorControl/MCSDK/MCLib/Any/Src/ntc_temperature_sensor.c ****   * @f[
  45:MCSDK_v6.3.2-Full/MotorControl/MCSDK/MCLib/Any/Src/ntc_temperature_sensor.c ****   *               V_{out} = V_0 + \frac{dV}{dT} \cdot ( T - T_0)
  46:MCSDK_v6.3.2-Full/MotorControl/MCSDK/MCLib/Any/Src/ntc_temperature_sensor.c ****   * @f]
  47:MCSDK_v6.3.2-Full/MotorControl/MCSDK/MCLib/Any/Src/ntc_temperature_sensor.c ****   *
  48:MCSDK_v6.3.2-Full/MotorControl/MCSDK/MCLib/Any/Src/ntc_temperature_sensor.c ****   * In case of Pull up configuration @f$\frac{dV}{dT}@f$ is positive and @f$V_0@f$ is low.
  49:MCSDK_v6.3.2-Full/MotorControl/MCSDK/MCLib/Any/Src/ntc_temperature_sensor.c ****   * In case of Pull down configuration @f$\frac{dV}{dT}@f$ is negative and @f$V_0@f$ is high.
  50:MCSDK_v6.3.2-Full/MotorControl/MCSDK/MCLib/Any/Src/ntc_temperature_sensor.c ****   *
  51:MCSDK_v6.3.2-Full/MotorControl/MCSDK/MCLib/Any/Src/ntc_temperature_sensor.c ****   * In case a real temperature sensor is not available (Sensor Type = #VIRTUAL_SENSOR),
  52:MCSDK_v6.3.2-Full/MotorControl/MCSDK/MCLib/Any/Src/ntc_temperature_sensor.c ****   * This component will always returns a constant, programmable, temperature.
  53:MCSDK_v6.3.2-Full/MotorControl/MCSDK/MCLib/Any/Src/ntc_temperature_sensor.c ****   *
  54:MCSDK_v6.3.2-Full/MotorControl/MCSDK/MCLib/Any/Src/ntc_temperature_sensor.c ****   * @{
  55:MCSDK_v6.3.2-Full/MotorControl/MCSDK/MCLib/Any/Src/ntc_temperature_sensor.c ****   */
  56:MCSDK_v6.3.2-Full/MotorControl/MCSDK/MCLib/Any/Src/ntc_temperature_sensor.c **** 
  57:MCSDK_v6.3.2-Full/MotorControl/MCSDK/MCLib/Any/Src/ntc_temperature_sensor.c **** /* Private function prototypes -----------------------------------------------*/
  58:MCSDK_v6.3.2-Full/MotorControl/MCSDK/MCLib/Any/Src/ntc_temperature_sensor.c **** uint16_t NTC_SetFaultState(NTC_Handle_t *pHandle);
  59:MCSDK_v6.3.2-Full/MotorControl/MCSDK/MCLib/Any/Src/ntc_temperature_sensor.c **** 
  60:MCSDK_v6.3.2-Full/MotorControl/MCSDK/MCLib/Any/Src/ntc_temperature_sensor.c **** /* Clear static average temperature value */
  61:MCSDK_v6.3.2-Full/MotorControl/MCSDK/MCLib/Any/Src/ntc_temperature_sensor.c **** static inline void NTC_Clear(NTC_Handle_t *pHandle);
  62:MCSDK_v6.3.2-Full/MotorControl/MCSDK/MCLib/Any/Src/ntc_temperature_sensor.c **** 
  63:MCSDK_v6.3.2-Full/MotorControl/MCSDK/MCLib/Any/Src/ntc_temperature_sensor.c **** /* Private functions ---------------------------------------------------------*/
  64:MCSDK_v6.3.2-Full/MotorControl/MCSDK/MCLib/Any/Src/ntc_temperature_sensor.c **** 
  65:MCSDK_v6.3.2-Full/MotorControl/MCSDK/MCLib/Any/Src/ntc_temperature_sensor.c **** /**
  66:MCSDK_v6.3.2-Full/MotorControl/MCSDK/MCLib/Any/Src/ntc_temperature_sensor.c ****   * @brief Returns fault when temperature exceeds the related temperature voltage protection thresh
  67:MCSDK_v6.3.2-Full/MotorControl/MCSDK/MCLib/Any/Src/ntc_temperature_sensor.c ****   *
  68:MCSDK_v6.3.2-Full/MotorControl/MCSDK/MCLib/Any/Src/ntc_temperature_sensor.c ****   * @param pHandle : Pointer on Handle structure of TemperatureSensor component
  69:MCSDK_v6.3.2-Full/MotorControl/MCSDK/MCLib/Any/Src/ntc_temperature_sensor.c ****   *
  70:MCSDK_v6.3.2-Full/MotorControl/MCSDK/MCLib/Any/Src/ntc_temperature_sensor.c ****   * @retval Fault status : Updated internal fault status
  71:MCSDK_v6.3.2-Full/MotorControl/MCSDK/MCLib/Any/Src/ntc_temperature_sensor.c ****   */
  72:MCSDK_v6.3.2-Full/MotorControl/MCSDK/MCLib/Any/Src/ntc_temperature_sensor.c **** __weak uint16_t NTC_SetFaultState(NTC_Handle_t *pHandle) //cstat !MISRAC2012-Rule-8.13
  73:MCSDK_v6.3.2-Full/MotorControl/MCSDK/MCLib/Any/Src/ntc_temperature_sensor.c **** {
  31              		.loc 1 73 1 view -0
  32              		.cfi_startproc
  33              		@ args = 0, pretend = 0, frame = 0
  34              		@ frame_needed = 0, uses_anonymous_args = 0
  35              		@ link register save eliminated.
  74:MCSDK_v6.3.2-Full/MotorControl/MCSDK/MCLib/Any/Src/ntc_temperature_sensor.c ****   uint16_t hFault;
  36              		.loc 1 74 3 view .LVU1
  75:MCSDK_v6.3.2-Full/MotorControl/MCSDK/MCLib/Any/Src/ntc_temperature_sensor.c **** #ifdef NULL_PTR_CHECK_NTC_TEMP_SENS
  76:MCSDK_v6.3.2-Full/MotorControl/MCSDK/MCLib/Any/Src/ntc_temperature_sensor.c ****   if (MC_NULL == pHandle)
  77:MCSDK_v6.3.2-Full/MotorControl/MCSDK/MCLib/Any/Src/ntc_temperature_sensor.c ****   {
  78:MCSDK_v6.3.2-Full/MotorControl/MCSDK/MCLib/Any/Src/ntc_temperature_sensor.c ****     hFault = MC_SW_ERROR;
  79:MCSDK_v6.3.2-Full/MotorControl/MCSDK/MCLib/Any/Src/ntc_temperature_sensor.c ****   }
ARM GAS  /tmp/ccZ89PDO.s 			page 3


  80:MCSDK_v6.3.2-Full/MotorControl/MCSDK/MCLib/Any/Src/ntc_temperature_sensor.c ****   else
  81:MCSDK_v6.3.2-Full/MotorControl/MCSDK/MCLib/Any/Src/ntc_temperature_sensor.c ****   {
  82:MCSDK_v6.3.2-Full/MotorControl/MCSDK/MCLib/Any/Src/ntc_temperature_sensor.c **** #endif
  83:MCSDK_v6.3.2-Full/MotorControl/MCSDK/MCLib/Any/Src/ntc_temperature_sensor.c ****     if (pHandle->hSensitivity > 0 )
  37              		.loc 1 83 5 view .LVU2
  38              		.loc 1 83 8 is_stmt 0 view .LVU3
  39 0000 B0F91030 		ldrsh	r3, [r0, #16]
  84:MCSDK_v6.3.2-Full/MotorControl/MCSDK/MCLib/Any/Src/ntc_temperature_sensor.c ****     {
  85:MCSDK_v6.3.2-Full/MotorControl/MCSDK/MCLib/Any/Src/ntc_temperature_sensor.c ****       if (pHandle->hAvTemp_d > pHandle->hOverTempThreshold)
  40              		.loc 1 85 10 view .LVU4
  41 0004 8289     		ldrh	r2, [r0, #12]
  83:MCSDK_v6.3.2-Full/MotorControl/MCSDK/MCLib/Any/Src/ntc_temperature_sensor.c ****     {
  42              		.loc 1 83 8 view .LVU5
  43 0006 002B     		cmp	r3, #0
  44              		.loc 1 85 18 view .LVU6
  45 0008 4388     		ldrh	r3, [r0, #2]
  83:MCSDK_v6.3.2-Full/MotorControl/MCSDK/MCLib/Any/Src/ntc_temperature_sensor.c ****     {
  46              		.loc 1 83 8 view .LVU7
  47 000a 08DD     		ble	.L2
  48              		.loc 1 85 7 is_stmt 1 view .LVU8
  49              		.loc 1 85 10 is_stmt 0 view .LVU9
  50 000c 9A42     		cmp	r2, r3
  51 000e 04D3     		bcc	.L7
  86:MCSDK_v6.3.2-Full/MotorControl/MCSDK/MCLib/Any/Src/ntc_temperature_sensor.c ****       {
  87:MCSDK_v6.3.2-Full/MotorControl/MCSDK/MCLib/Any/Src/ntc_temperature_sensor.c ****         hFault = MC_OVER_TEMP;
  88:MCSDK_v6.3.2-Full/MotorControl/MCSDK/MCLib/Any/Src/ntc_temperature_sensor.c ****       }
  89:MCSDK_v6.3.2-Full/MotorControl/MCSDK/MCLib/Any/Src/ntc_temperature_sensor.c ****       else if (pHandle->hAvTemp_d < pHandle->hOverTempDeactThreshold)
  52              		.loc 1 89 12 is_stmt 1 view .LVU10
  53              		.loc 1 89 15 is_stmt 0 view .LVU11
  54 0010 C289     		ldrh	r2, [r0, #14]
  55 0012 9A42     		cmp	r2, r3
  56 0014 08D9     		bls	.L4
  57              	.L6:
  90:MCSDK_v6.3.2-Full/MotorControl/MCSDK/MCLib/Any/Src/ntc_temperature_sensor.c ****       {
  91:MCSDK_v6.3.2-Full/MotorControl/MCSDK/MCLib/Any/Src/ntc_temperature_sensor.c ****         hFault = MC_NO_ERROR;
  58              		.loc 1 91 16 view .LVU12
  59 0016 0020     		movs	r0, #0
  60              	.LVL1:
  61              		.loc 1 91 16 view .LVU13
  62 0018 7047     		bx	lr
  63              	.LVL2:
  64              	.L7:
  87:MCSDK_v6.3.2-Full/MotorControl/MCSDK/MCLib/Any/Src/ntc_temperature_sensor.c ****       }
  65              		.loc 1 87 16 view .LVU14
  66 001a 0820     		movs	r0, #8
  67              	.LVL3:
  92:MCSDK_v6.3.2-Full/MotorControl/MCSDK/MCLib/Any/Src/ntc_temperature_sensor.c ****       }
  93:MCSDK_v6.3.2-Full/MotorControl/MCSDK/MCLib/Any/Src/ntc_temperature_sensor.c ****       else
  94:MCSDK_v6.3.2-Full/MotorControl/MCSDK/MCLib/Any/Src/ntc_temperature_sensor.c ****       {
  95:MCSDK_v6.3.2-Full/MotorControl/MCSDK/MCLib/Any/Src/ntc_temperature_sensor.c ****         hFault = pHandle->hFaultState;
  96:MCSDK_v6.3.2-Full/MotorControl/MCSDK/MCLib/Any/Src/ntc_temperature_sensor.c ****       }
  97:MCSDK_v6.3.2-Full/MotorControl/MCSDK/MCLib/Any/Src/ntc_temperature_sensor.c ****     }
  98:MCSDK_v6.3.2-Full/MotorControl/MCSDK/MCLib/Any/Src/ntc_temperature_sensor.c ****     else
  99:MCSDK_v6.3.2-Full/MotorControl/MCSDK/MCLib/Any/Src/ntc_temperature_sensor.c ****     {
 100:MCSDK_v6.3.2-Full/MotorControl/MCSDK/MCLib/Any/Src/ntc_temperature_sensor.c ****       if (pHandle->hAvTemp_d < pHandle->hOverTempThreshold)
 101:MCSDK_v6.3.2-Full/MotorControl/MCSDK/MCLib/Any/Src/ntc_temperature_sensor.c ****       {
 102:MCSDK_v6.3.2-Full/MotorControl/MCSDK/MCLib/Any/Src/ntc_temperature_sensor.c ****         hFault = MC_OVER_TEMP;
ARM GAS  /tmp/ccZ89PDO.s 			page 4


 103:MCSDK_v6.3.2-Full/MotorControl/MCSDK/MCLib/Any/Src/ntc_temperature_sensor.c ****       }
 104:MCSDK_v6.3.2-Full/MotorControl/MCSDK/MCLib/Any/Src/ntc_temperature_sensor.c ****       else if (pHandle->hAvTemp_d > pHandle->hOverTempDeactThreshold)
 105:MCSDK_v6.3.2-Full/MotorControl/MCSDK/MCLib/Any/Src/ntc_temperature_sensor.c ****       {
 106:MCSDK_v6.3.2-Full/MotorControl/MCSDK/MCLib/Any/Src/ntc_temperature_sensor.c ****         hFault = MC_NO_ERROR;
 107:MCSDK_v6.3.2-Full/MotorControl/MCSDK/MCLib/Any/Src/ntc_temperature_sensor.c ****       }
 108:MCSDK_v6.3.2-Full/MotorControl/MCSDK/MCLib/Any/Src/ntc_temperature_sensor.c ****       else
 109:MCSDK_v6.3.2-Full/MotorControl/MCSDK/MCLib/Any/Src/ntc_temperature_sensor.c ****       {
 110:MCSDK_v6.3.2-Full/MotorControl/MCSDK/MCLib/Any/Src/ntc_temperature_sensor.c ****         hFault = pHandle->hFaultState;
 111:MCSDK_v6.3.2-Full/MotorControl/MCSDK/MCLib/Any/Src/ntc_temperature_sensor.c ****       }  
 112:MCSDK_v6.3.2-Full/MotorControl/MCSDK/MCLib/Any/Src/ntc_temperature_sensor.c ****     }
 113:MCSDK_v6.3.2-Full/MotorControl/MCSDK/MCLib/Any/Src/ntc_temperature_sensor.c **** #ifdef NULL_PTR_CHECK_NTC_TEMP_SENS
 114:MCSDK_v6.3.2-Full/MotorControl/MCSDK/MCLib/Any/Src/ntc_temperature_sensor.c ****   }
 115:MCSDK_v6.3.2-Full/MotorControl/MCSDK/MCLib/Any/Src/ntc_temperature_sensor.c **** #endif
 116:MCSDK_v6.3.2-Full/MotorControl/MCSDK/MCLib/Any/Src/ntc_temperature_sensor.c ****   return (hFault);
  68              		.loc 1 116 3 is_stmt 1 view .LVU15
 117:MCSDK_v6.3.2-Full/MotorControl/MCSDK/MCLib/Any/Src/ntc_temperature_sensor.c **** }
  69              		.loc 1 117 1 is_stmt 0 view .LVU16
  70 001c 7047     		bx	lr
  71              	.LVL4:
  72              	.L2:
  73              	.LBB6:
  74              	.LBI6:
  72:MCSDK_v6.3.2-Full/MotorControl/MCSDK/MCLib/Any/Src/ntc_temperature_sensor.c **** {
  75              		.loc 1 72 17 is_stmt 1 view .LVU17
  76              	.LBB7:
 100:MCSDK_v6.3.2-Full/MotorControl/MCSDK/MCLib/Any/Src/ntc_temperature_sensor.c ****       {
  77              		.loc 1 100 7 view .LVU18
 100:MCSDK_v6.3.2-Full/MotorControl/MCSDK/MCLib/Any/Src/ntc_temperature_sensor.c ****       {
  78              		.loc 1 100 10 is_stmt 0 view .LVU19
  79 001e 9A42     		cmp	r2, r3
  80 0020 FBD8     		bhi	.L7
 104:MCSDK_v6.3.2-Full/MotorControl/MCSDK/MCLib/Any/Src/ntc_temperature_sensor.c ****       {
  81              		.loc 1 104 12 is_stmt 1 view .LVU20
 104:MCSDK_v6.3.2-Full/MotorControl/MCSDK/MCLib/Any/Src/ntc_temperature_sensor.c ****       {
  82              		.loc 1 104 15 is_stmt 0 view .LVU21
  83 0022 C289     		ldrh	r2, [r0, #14]
  84 0024 9A42     		cmp	r2, r3
  85 0026 F6D3     		bcc	.L6
  86              	.LVL5:
  87              	.L4:
 104:MCSDK_v6.3.2-Full/MotorControl/MCSDK/MCLib/Any/Src/ntc_temperature_sensor.c ****       {
  88              		.loc 1 104 15 view .LVU22
  89              	.LBE7:
  90              	.LBE6:
  95:MCSDK_v6.3.2-Full/MotorControl/MCSDK/MCLib/Any/Src/ntc_temperature_sensor.c ****       }
  91              		.loc 1 95 9 is_stmt 1 view .LVU23
  95:MCSDK_v6.3.2-Full/MotorControl/MCSDK/MCLib/Any/Src/ntc_temperature_sensor.c ****       }
  92              		.loc 1 95 16 is_stmt 0 view .LVU24
  93 0028 0089     		ldrh	r0, [r0, #8]
  94              	.LVL6:
  95:MCSDK_v6.3.2-Full/MotorControl/MCSDK/MCLib/Any/Src/ntc_temperature_sensor.c ****       }
  95              		.loc 1 95 16 view .LVU25
  96 002a 7047     		bx	lr
  97              		.cfi_endproc
  98              	.LFE1435:
 100              		.section	.text.NTC_Init,"ax",%progbits
 101              		.align	1
ARM GAS  /tmp/ccZ89PDO.s 			page 5


 102              		.p2align 2,,3
 103              		.weak	NTC_Init
 104              		.syntax unified
 105              		.thumb
 106              		.thumb_func
 107              		.fpu fpv4-sp-d16
 109              	NTC_Init:
 110              	.LVL7:
 111              	.LFB1436:
 118:MCSDK_v6.3.2-Full/MotorControl/MCSDK/MCLib/Any/Src/ntc_temperature_sensor.c **** 
 119:MCSDK_v6.3.2-Full/MotorControl/MCSDK/MCLib/Any/Src/ntc_temperature_sensor.c **** /* Functions ---------------------------------------------------- */
 120:MCSDK_v6.3.2-Full/MotorControl/MCSDK/MCLib/Any/Src/ntc_temperature_sensor.c **** 
 121:MCSDK_v6.3.2-Full/MotorControl/MCSDK/MCLib/Any/Src/ntc_temperature_sensor.c **** /**
 122:MCSDK_v6.3.2-Full/MotorControl/MCSDK/MCLib/Any/Src/ntc_temperature_sensor.c ****   * @brief Initializes temperature sensing conversions
 123:MCSDK_v6.3.2-Full/MotorControl/MCSDK/MCLib/Any/Src/ntc_temperature_sensor.c ****   *
 124:MCSDK_v6.3.2-Full/MotorControl/MCSDK/MCLib/Any/Src/ntc_temperature_sensor.c ****   * @param pHandle : Pointer on Handle structure of TemperatureSensor component
 125:MCSDK_v6.3.2-Full/MotorControl/MCSDK/MCLib/Any/Src/ntc_temperature_sensor.c ****   *
 126:MCSDK_v6.3.2-Full/MotorControl/MCSDK/MCLib/Any/Src/ntc_temperature_sensor.c ****   */
 127:MCSDK_v6.3.2-Full/MotorControl/MCSDK/MCLib/Any/Src/ntc_temperature_sensor.c **** __weak void NTC_Init(NTC_Handle_t *pHandle)
 128:MCSDK_v6.3.2-Full/MotorControl/MCSDK/MCLib/Any/Src/ntc_temperature_sensor.c **** {
 112              		.loc 1 128 1 is_stmt 1 view -0
 113              		.cfi_startproc
 114              		@ args = 0, pretend = 0, frame = 0
 115              		@ frame_needed = 0, uses_anonymous_args = 0
 116              		@ link register save eliminated.
 129:MCSDK_v6.3.2-Full/MotorControl/MCSDK/MCLib/Any/Src/ntc_temperature_sensor.c **** #ifdef NULL_PTR_CHECK_NTC_TEMP_SENS
 130:MCSDK_v6.3.2-Full/MotorControl/MCSDK/MCLib/Any/Src/ntc_temperature_sensor.c ****   if (MC_NULL == pHandle)
 131:MCSDK_v6.3.2-Full/MotorControl/MCSDK/MCLib/Any/Src/ntc_temperature_sensor.c ****   {
 132:MCSDK_v6.3.2-Full/MotorControl/MCSDK/MCLib/Any/Src/ntc_temperature_sensor.c ****     /* Nothing to do */
 133:MCSDK_v6.3.2-Full/MotorControl/MCSDK/MCLib/Any/Src/ntc_temperature_sensor.c ****   }
 134:MCSDK_v6.3.2-Full/MotorControl/MCSDK/MCLib/Any/Src/ntc_temperature_sensor.c ****   else
 135:MCSDK_v6.3.2-Full/MotorControl/MCSDK/MCLib/Any/Src/ntc_temperature_sensor.c ****   {
 136:MCSDK_v6.3.2-Full/MotorControl/MCSDK/MCLib/Any/Src/ntc_temperature_sensor.c **** #endif
 137:MCSDK_v6.3.2-Full/MotorControl/MCSDK/MCLib/Any/Src/ntc_temperature_sensor.c ****     if (REAL_SENSOR == pHandle->bSensorType)
 117              		.loc 1 137 5 view .LVU27
 118              		.loc 1 137 8 is_stmt 0 view .LVU28
 119 0000 0378     		ldrb	r3, [r0]	@ zero_extendqisi2
 120 0002 2BB9     		cbnz	r3, .L10
 138:MCSDK_v6.3.2-Full/MotorControl/MCSDK/MCLib/Any/Src/ntc_temperature_sensor.c ****     {
 139:MCSDK_v6.3.2-Full/MotorControl/MCSDK/MCLib/Any/Src/ntc_temperature_sensor.c ****       NTC_Clear(pHandle);
 121              		.loc 1 139 7 is_stmt 1 view .LVU29
 122              	.LVL8:
 123              	.LBB8:
 124              	.LBI8:
 140:MCSDK_v6.3.2-Full/MotorControl/MCSDK/MCLib/Any/Src/ntc_temperature_sensor.c ****     }
 141:MCSDK_v6.3.2-Full/MotorControl/MCSDK/MCLib/Any/Src/ntc_temperature_sensor.c ****     else  /* case VIRTUAL_SENSOR */
 142:MCSDK_v6.3.2-Full/MotorControl/MCSDK/MCLib/Any/Src/ntc_temperature_sensor.c ****     {
 143:MCSDK_v6.3.2-Full/MotorControl/MCSDK/MCLib/Any/Src/ntc_temperature_sensor.c ****       pHandle->hFaultState = MC_NO_ERROR;
 144:MCSDK_v6.3.2-Full/MotorControl/MCSDK/MCLib/Any/Src/ntc_temperature_sensor.c ****       pHandle->hAvTemp_d = pHandle->hExpectedTemp_d;
 145:MCSDK_v6.3.2-Full/MotorControl/MCSDK/MCLib/Any/Src/ntc_temperature_sensor.c ****     }
 146:MCSDK_v6.3.2-Full/MotorControl/MCSDK/MCLib/Any/Src/ntc_temperature_sensor.c **** #ifdef NULL_PTR_CHECK_NTC_TEMP_SENS
 147:MCSDK_v6.3.2-Full/MotorControl/MCSDK/MCLib/Any/Src/ntc_temperature_sensor.c ****   }
 148:MCSDK_v6.3.2-Full/MotorControl/MCSDK/MCLib/Any/Src/ntc_temperature_sensor.c **** #endif
 149:MCSDK_v6.3.2-Full/MotorControl/MCSDK/MCLib/Any/Src/ntc_temperature_sensor.c **** }
 150:MCSDK_v6.3.2-Full/MotorControl/MCSDK/MCLib/Any/Src/ntc_temperature_sensor.c **** 
 151:MCSDK_v6.3.2-Full/MotorControl/MCSDK/MCLib/Any/Src/ntc_temperature_sensor.c **** /**
 152:MCSDK_v6.3.2-Full/MotorControl/MCSDK/MCLib/Any/Src/ntc_temperature_sensor.c ****   * @brief Initializes internal average temperature computed value
ARM GAS  /tmp/ccZ89PDO.s 			page 6


 153:MCSDK_v6.3.2-Full/MotorControl/MCSDK/MCLib/Any/Src/ntc_temperature_sensor.c ****   *
 154:MCSDK_v6.3.2-Full/MotorControl/MCSDK/MCLib/Any/Src/ntc_temperature_sensor.c ****   * @param pHandle : Pointer on Handle structure of TemperatureSensor component
 155:MCSDK_v6.3.2-Full/MotorControl/MCSDK/MCLib/Any/Src/ntc_temperature_sensor.c ****   */
 156:MCSDK_v6.3.2-Full/MotorControl/MCSDK/MCLib/Any/Src/ntc_temperature_sensor.c **** static inline void NTC_Clear(NTC_Handle_t *pHandle)
 125              		.loc 1 156 20 view .LVU30
 126              	.LBB9:
 157:MCSDK_v6.3.2-Full/MotorControl/MCSDK/MCLib/Any/Src/ntc_temperature_sensor.c **** {
 158:MCSDK_v6.3.2-Full/MotorControl/MCSDK/MCLib/Any/Src/ntc_temperature_sensor.c **** #ifdef NULL_PTR_CHECK_NTC_TEMP_SENS
 159:MCSDK_v6.3.2-Full/MotorControl/MCSDK/MCLib/Any/Src/ntc_temperature_sensor.c ****   if (MC_NULL == pHandle)
 160:MCSDK_v6.3.2-Full/MotorControl/MCSDK/MCLib/Any/Src/ntc_temperature_sensor.c ****   {
 161:MCSDK_v6.3.2-Full/MotorControl/MCSDK/MCLib/Any/Src/ntc_temperature_sensor.c ****     /* nothing to do */
 162:MCSDK_v6.3.2-Full/MotorControl/MCSDK/MCLib/Any/Src/ntc_temperature_sensor.c ****   }
 163:MCSDK_v6.3.2-Full/MotorControl/MCSDK/MCLib/Any/Src/ntc_temperature_sensor.c ****   else
 164:MCSDK_v6.3.2-Full/MotorControl/MCSDK/MCLib/Any/Src/ntc_temperature_sensor.c ****   {
 165:MCSDK_v6.3.2-Full/MotorControl/MCSDK/MCLib/Any/Src/ntc_temperature_sensor.c **** #endif
 166:MCSDK_v6.3.2-Full/MotorControl/MCSDK/MCLib/Any/Src/ntc_temperature_sensor.c ****     if (pHandle->hSensitivity > 0 ) 
 127              		.loc 1 166 5 view .LVU31
 128              		.loc 1 166 8 is_stmt 0 view .LVU32
 129 0004 B0F91020 		ldrsh	r2, [r0, #16]
 130 0008 002A     		cmp	r2, #0
 131 000a 06DD     		ble	.L11
 132              	.LBE9:
 133              	.LBE8:
 144:MCSDK_v6.3.2-Full/MotorControl/MCSDK/MCLib/Any/Src/ntc_temperature_sensor.c ****     }
 134              		.loc 1 144 7 is_stmt 1 view .LVU33
 144:MCSDK_v6.3.2-Full/MotorControl/MCSDK/MCLib/Any/Src/ntc_temperature_sensor.c ****     }
 135              		.loc 1 144 26 is_stmt 0 view .LVU34
 136 000c 4380     		strh	r3, [r0, #2]	@ movhi
 137              	.LVL9:
 149:MCSDK_v6.3.2-Full/MotorControl/MCSDK/MCLib/Any/Src/ntc_temperature_sensor.c **** 
 138              		.loc 1 149 1 view .LVU35
 139 000e 7047     		bx	lr
 140              	.L10:
 143:MCSDK_v6.3.2-Full/MotorControl/MCSDK/MCLib/Any/Src/ntc_temperature_sensor.c ****       pHandle->hAvTemp_d = pHandle->hExpectedTemp_d;
 141              		.loc 1 143 7 is_stmt 1 view .LVU36
 144:MCSDK_v6.3.2-Full/MotorControl/MCSDK/MCLib/Any/Src/ntc_temperature_sensor.c ****     }
 142              		.loc 1 144 26 is_stmt 0 view .LVU37
 143 0010 8388     		ldrh	r3, [r0, #4]
 144 0012 4380     		strh	r3, [r0, #2]	@ movhi
 143:MCSDK_v6.3.2-Full/MotorControl/MCSDK/MCLib/Any/Src/ntc_temperature_sensor.c ****       pHandle->hAvTemp_d = pHandle->hExpectedTemp_d;
 145              		.loc 1 143 28 view .LVU38
 146 0014 0022     		movs	r2, #0
 147 0016 0281     		strh	r2, [r0, #8]	@ movhi
 144:MCSDK_v6.3.2-Full/MotorControl/MCSDK/MCLib/Any/Src/ntc_temperature_sensor.c ****     }
 148              		.loc 1 144 7 is_stmt 1 view .LVU39
 149:MCSDK_v6.3.2-Full/MotorControl/MCSDK/MCLib/Any/Src/ntc_temperature_sensor.c **** 
 149              		.loc 1 149 1 is_stmt 0 view .LVU40
 150 0018 7047     		bx	lr
 151              	.LVL10:
 152              	.L11:
 153              	.LBB11:
 154              	.LBB10:
 167:MCSDK_v6.3.2-Full/MotorControl/MCSDK/MCLib/Any/Src/ntc_temperature_sensor.c ****     {
 168:MCSDK_v6.3.2-Full/MotorControl/MCSDK/MCLib/Any/Src/ntc_temperature_sensor.c ****       pHandle->hAvTemp_d = 0U;
 169:MCSDK_v6.3.2-Full/MotorControl/MCSDK/MCLib/Any/Src/ntc_temperature_sensor.c ****     }
 170:MCSDK_v6.3.2-Full/MotorControl/MCSDK/MCLib/Any/Src/ntc_temperature_sensor.c ****     else
 171:MCSDK_v6.3.2-Full/MotorControl/MCSDK/MCLib/Any/Src/ntc_temperature_sensor.c ****     {
ARM GAS  /tmp/ccZ89PDO.s 			page 7


 172:MCSDK_v6.3.2-Full/MotorControl/MCSDK/MCLib/Any/Src/ntc_temperature_sensor.c ****       pHandle->hAvTemp_d = 0xFFFFU;
 155              		.loc 1 172 7 is_stmt 1 view .LVU41
 156              		.loc 1 172 26 is_stmt 0 view .LVU42
 157 001a 4FF6FF73 		movw	r3, #65535
 158 001e 4380     		strh	r3, [r0, #2]	@ movhi
 159 0020 7047     		bx	lr
 160              	.LBE10:
 161              	.LBE11:
 162              		.cfi_endproc
 163              	.LFE1436:
 165 0022 00BF     		.section	.text.NTC_CalcAvTemp,"ax",%progbits
 166              		.align	1
 167              		.p2align 2,,3
 168              		.weak	NTC_CalcAvTemp
 169              		.syntax unified
 170              		.thumb
 171              		.thumb_func
 172              		.fpu fpv4-sp-d16
 174              	NTC_CalcAvTemp:
 175              	.LVL11:
 176              	.LFB1438:
 173:MCSDK_v6.3.2-Full/MotorControl/MCSDK/MCLib/Any/Src/ntc_temperature_sensor.c ****     }
 174:MCSDK_v6.3.2-Full/MotorControl/MCSDK/MCLib/Any/Src/ntc_temperature_sensor.c **** #ifdef NULL_PTR_CHECK_NTC_TEMP_SENS
 175:MCSDK_v6.3.2-Full/MotorControl/MCSDK/MCLib/Any/Src/ntc_temperature_sensor.c ****   }
 176:MCSDK_v6.3.2-Full/MotorControl/MCSDK/MCLib/Any/Src/ntc_temperature_sensor.c **** #endif
 177:MCSDK_v6.3.2-Full/MotorControl/MCSDK/MCLib/Any/Src/ntc_temperature_sensor.c **** }
 178:MCSDK_v6.3.2-Full/MotorControl/MCSDK/MCLib/Any/Src/ntc_temperature_sensor.c **** 
 179:MCSDK_v6.3.2-Full/MotorControl/MCSDK/MCLib/Any/Src/ntc_temperature_sensor.c **** /**
 180:MCSDK_v6.3.2-Full/MotorControl/MCSDK/MCLib/Any/Src/ntc_temperature_sensor.c ****   * @brief Performs the temperature sensing average computation after an ADC conversion
 181:MCSDK_v6.3.2-Full/MotorControl/MCSDK/MCLib/Any/Src/ntc_temperature_sensor.c ****   *
 182:MCSDK_v6.3.2-Full/MotorControl/MCSDK/MCLib/Any/Src/ntc_temperature_sensor.c ****   * @param pHandle : Pointer on Handle structure of TemperatureSensor component
 183:MCSDK_v6.3.2-Full/MotorControl/MCSDK/MCLib/Any/Src/ntc_temperature_sensor.c ****   *
 184:MCSDK_v6.3.2-Full/MotorControl/MCSDK/MCLib/Any/Src/ntc_temperature_sensor.c ****   * @retval Fault status : Error reported in case of an over temperature detection
 185:MCSDK_v6.3.2-Full/MotorControl/MCSDK/MCLib/Any/Src/ntc_temperature_sensor.c ****   */
 186:MCSDK_v6.3.2-Full/MotorControl/MCSDK/MCLib/Any/Src/ntc_temperature_sensor.c **** __weak uint16_t NTC_CalcAvTemp(NTC_Handle_t *pHandle, uint16_t rawValue)
 187:MCSDK_v6.3.2-Full/MotorControl/MCSDK/MCLib/Any/Src/ntc_temperature_sensor.c **** {
 177              		.loc 1 187 1 is_stmt 1 view -0
 178              		.cfi_startproc
 179              		@ args = 0, pretend = 0, frame = 0
 180              		@ frame_needed = 0, uses_anonymous_args = 0
 188:MCSDK_v6.3.2-Full/MotorControl/MCSDK/MCLib/Any/Src/ntc_temperature_sensor.c ****   uint16_t returnValue;
 181              		.loc 1 188 3 view .LVU44
 189:MCSDK_v6.3.2-Full/MotorControl/MCSDK/MCLib/Any/Src/ntc_temperature_sensor.c **** #ifdef NULL_PTR_CHECK_NTC_TEMP_SENS
 190:MCSDK_v6.3.2-Full/MotorControl/MCSDK/MCLib/Any/Src/ntc_temperature_sensor.c ****   if (MC_NULL == pHandle)
 191:MCSDK_v6.3.2-Full/MotorControl/MCSDK/MCLib/Any/Src/ntc_temperature_sensor.c ****   {
 192:MCSDK_v6.3.2-Full/MotorControl/MCSDK/MCLib/Any/Src/ntc_temperature_sensor.c ****     returnValue = 0U;
 193:MCSDK_v6.3.2-Full/MotorControl/MCSDK/MCLib/Any/Src/ntc_temperature_sensor.c ****   }
 194:MCSDK_v6.3.2-Full/MotorControl/MCSDK/MCLib/Any/Src/ntc_temperature_sensor.c ****   else
 195:MCSDK_v6.3.2-Full/MotorControl/MCSDK/MCLib/Any/Src/ntc_temperature_sensor.c ****   {
 196:MCSDK_v6.3.2-Full/MotorControl/MCSDK/MCLib/Any/Src/ntc_temperature_sensor.c **** #endif
 197:MCSDK_v6.3.2-Full/MotorControl/MCSDK/MCLib/Any/Src/ntc_temperature_sensor.c ****     if (REAL_SENSOR == pHandle->bSensorType)
 182              		.loc 1 197 5 view .LVU45
 187:MCSDK_v6.3.2-Full/MotorControl/MCSDK/MCLib/Any/Src/ntc_temperature_sensor.c ****   uint16_t returnValue;
 183              		.loc 1 187 1 is_stmt 0 view .LVU46
 184 0000 10B5     		push	{r4, lr}
 185              	.LCFI0:
 186              		.cfi_def_cfa_offset 8
ARM GAS  /tmp/ccZ89PDO.s 			page 8


 187              		.cfi_offset 4, -8
 188              		.cfi_offset 14, -4
 189              		.loc 1 197 8 view .LVU47
 190 0002 0378     		ldrb	r3, [r0]	@ zero_extendqisi2
 187:MCSDK_v6.3.2-Full/MotorControl/MCSDK/MCLib/Any/Src/ntc_temperature_sensor.c ****   uint16_t returnValue;
 191              		.loc 1 187 1 view .LVU48
 192 0004 0446     		mov	r4, r0
 193              		.loc 1 197 8 view .LVU49
 194 0006 83B9     		cbnz	r3, .L15
 195              	.LBB12:
 198:MCSDK_v6.3.2-Full/MotorControl/MCSDK/MCLib/Any/Src/ntc_temperature_sensor.c ****     {
 199:MCSDK_v6.3.2-Full/MotorControl/MCSDK/MCLib/Any/Src/ntc_temperature_sensor.c ****       uint16_t hAux;
 196              		.loc 1 199 7 is_stmt 1 view .LVU50
 200:MCSDK_v6.3.2-Full/MotorControl/MCSDK/MCLib/Any/Src/ntc_temperature_sensor.c ****       hAux = rawValue;
 197              		.loc 1 200 7 view .LVU51
 198              	.LVL12:
 201:MCSDK_v6.3.2-Full/MotorControl/MCSDK/MCLib/Any/Src/ntc_temperature_sensor.c **** 
 202:MCSDK_v6.3.2-Full/MotorControl/MCSDK/MCLib/Any/Src/ntc_temperature_sensor.c ****       if (0xFFFFU == hAux)
 199              		.loc 1 202 7 view .LVU52
 200              		.loc 1 202 10 is_stmt 0 view .LVU53
 201 0008 4FF6FF73 		movw	r3, #65535
 202 000c 9942     		cmp	r1, r3
 203 000e 07D0     		beq	.L16
 204              	.LBB13:
 203:MCSDK_v6.3.2-Full/MotorControl/MCSDK/MCLib/Any/Src/ntc_temperature_sensor.c ****       {
 204:MCSDK_v6.3.2-Full/MotorControl/MCSDK/MCLib/Any/Src/ntc_temperature_sensor.c ****         /* Nothing to do */
 205:MCSDK_v6.3.2-Full/MotorControl/MCSDK/MCLib/Any/Src/ntc_temperature_sensor.c ****       }
 206:MCSDK_v6.3.2-Full/MotorControl/MCSDK/MCLib/Any/Src/ntc_temperature_sensor.c ****       else
 207:MCSDK_v6.3.2-Full/MotorControl/MCSDK/MCLib/Any/Src/ntc_temperature_sensor.c ****       {
 208:MCSDK_v6.3.2-Full/MotorControl/MCSDK/MCLib/Any/Src/ntc_temperature_sensor.c ****         uint32_t wtemp;
 205              		.loc 1 208 9 is_stmt 1 view .LVU54
 209:MCSDK_v6.3.2-Full/MotorControl/MCSDK/MCLib/Any/Src/ntc_temperature_sensor.c ****         wtemp = (uint32_t)(pHandle->hLowPassFilterBW) - 1U;
 206              		.loc 1 209 9 view .LVU55
 207              		.loc 1 209 17 is_stmt 0 view .LVU56
 208 0010 4389     		ldrh	r3, [r0, #10]
 210:MCSDK_v6.3.2-Full/MotorControl/MCSDK/MCLib/Any/Src/ntc_temperature_sensor.c ****         wtemp *= ((uint32_t)pHandle->hAvTemp_d);
 209              		.loc 1 210 19 view .LVU57
 210 0012 4288     		ldrh	r2, [r0, #2]
 209:MCSDK_v6.3.2-Full/MotorControl/MCSDK/MCLib/Any/Src/ntc_temperature_sensor.c ****         wtemp = (uint32_t)(pHandle->hLowPassFilterBW) - 1U;
 211              		.loc 1 209 15 view .LVU58
 212 0014 581E     		subs	r0, r3, #1
 213              	.LVL13:
 214              		.loc 1 210 9 is_stmt 1 view .LVU59
 211:MCSDK_v6.3.2-Full/MotorControl/MCSDK/MCLib/Any/Src/ntc_temperature_sensor.c ****         wtemp += hAux;
 215              		.loc 1 211 9 view .LVU60
 216              		.loc 1 211 15 is_stmt 0 view .LVU61
 217 0016 00FB0211 		mla	r1, r0, r2, r1
 218              	.LVL14:
 212:MCSDK_v6.3.2-Full/MotorControl/MCSDK/MCLib/Any/Src/ntc_temperature_sensor.c ****         wtemp /= ((uint32_t)pHandle->hLowPassFilterBW);
 219              		.loc 1 212 9 is_stmt 1 view .LVU62
 213:MCSDK_v6.3.2-Full/MotorControl/MCSDK/MCLib/Any/Src/ntc_temperature_sensor.c **** 
 214:MCSDK_v6.3.2-Full/MotorControl/MCSDK/MCLib/Any/Src/ntc_temperature_sensor.c ****         pHandle->hAvTemp_d = (uint16_t)wtemp;
 220              		.loc 1 214 9 view .LVU63
 212:MCSDK_v6.3.2-Full/MotorControl/MCSDK/MCLib/Any/Src/ntc_temperature_sensor.c ****         wtemp /= ((uint32_t)pHandle->hLowPassFilterBW);
 221              		.loc 1 212 15 is_stmt 0 view .LVU64
 222 001a B1FBF3F1 		udiv	r1, r1, r3
 223              	.LVL15:
ARM GAS  /tmp/ccZ89PDO.s 			page 9


 224              		.loc 1 214 30 view .LVU65
 225 001e 6180     		strh	r1, [r4, #2]	@ movhi
 226              	.LVL16:
 227              	.L16:
 228              		.loc 1 214 30 view .LVU66
 229              	.LBE13:
 215:MCSDK_v6.3.2-Full/MotorControl/MCSDK/MCLib/Any/Src/ntc_temperature_sensor.c ****       }
 216:MCSDK_v6.3.2-Full/MotorControl/MCSDK/MCLib/Any/Src/ntc_temperature_sensor.c **** 
 217:MCSDK_v6.3.2-Full/MotorControl/MCSDK/MCLib/Any/Src/ntc_temperature_sensor.c ****       pHandle->hFaultState = NTC_SetFaultState(pHandle);
 230              		.loc 1 217 7 is_stmt 1 view .LVU67
 231              		.loc 1 217 30 is_stmt 0 view .LVU68
 232 0020 2046     		mov	r0, r4
 233 0022 FFF7FEFF 		bl	NTC_SetFaultState
 234              	.LVL17:
 235              		.loc 1 217 28 view .LVU69
 236 0026 2081     		strh	r0, [r4, #8]	@ movhi
 237              	.LBE12:
 218:MCSDK_v6.3.2-Full/MotorControl/MCSDK/MCLib/Any/Src/ntc_temperature_sensor.c ****     }
 219:MCSDK_v6.3.2-Full/MotorControl/MCSDK/MCLib/Any/Src/ntc_temperature_sensor.c ****     else  /* case VIRTUAL_SENSOR */
 220:MCSDK_v6.3.2-Full/MotorControl/MCSDK/MCLib/Any/Src/ntc_temperature_sensor.c ****     {
 221:MCSDK_v6.3.2-Full/MotorControl/MCSDK/MCLib/Any/Src/ntc_temperature_sensor.c ****       pHandle->hFaultState = MC_NO_ERROR;
 222:MCSDK_v6.3.2-Full/MotorControl/MCSDK/MCLib/Any/Src/ntc_temperature_sensor.c ****     }
 223:MCSDK_v6.3.2-Full/MotorControl/MCSDK/MCLib/Any/Src/ntc_temperature_sensor.c ****     returnValue = pHandle->hFaultState;
 238              		.loc 1 223 5 is_stmt 1 view .LVU70
 239              	.LVL18:
 224:MCSDK_v6.3.2-Full/MotorControl/MCSDK/MCLib/Any/Src/ntc_temperature_sensor.c **** #ifdef NULL_PTR_CHECK_NTC_TEMP_SENS
 225:MCSDK_v6.3.2-Full/MotorControl/MCSDK/MCLib/Any/Src/ntc_temperature_sensor.c ****   }
 226:MCSDK_v6.3.2-Full/MotorControl/MCSDK/MCLib/Any/Src/ntc_temperature_sensor.c **** #endif
 227:MCSDK_v6.3.2-Full/MotorControl/MCSDK/MCLib/Any/Src/ntc_temperature_sensor.c ****   return (returnValue);
 240              		.loc 1 227 3 view .LVU71
 228:MCSDK_v6.3.2-Full/MotorControl/MCSDK/MCLib/Any/Src/ntc_temperature_sensor.c **** }
 241              		.loc 1 228 1 is_stmt 0 view .LVU72
 242 0028 10BD     		pop	{r4, pc}
 243              	.LVL19:
 244              	.L15:
 221:MCSDK_v6.3.2-Full/MotorControl/MCSDK/MCLib/Any/Src/ntc_temperature_sensor.c ****     }
 245              		.loc 1 221 7 is_stmt 1 view .LVU73
 221:MCSDK_v6.3.2-Full/MotorControl/MCSDK/MCLib/Any/Src/ntc_temperature_sensor.c ****     }
 246              		.loc 1 221 28 is_stmt 0 view .LVU74
 247 002a 0020     		movs	r0, #0
 248              	.LVL20:
 221:MCSDK_v6.3.2-Full/MotorControl/MCSDK/MCLib/Any/Src/ntc_temperature_sensor.c ****     }
 249              		.loc 1 221 28 view .LVU75
 250 002c 2081     		strh	r0, [r4, #8]	@ movhi
 223:MCSDK_v6.3.2-Full/MotorControl/MCSDK/MCLib/Any/Src/ntc_temperature_sensor.c **** #ifdef NULL_PTR_CHECK_NTC_TEMP_SENS
 251              		.loc 1 223 5 is_stmt 1 view .LVU76
 252              	.LVL21:
 227:MCSDK_v6.3.2-Full/MotorControl/MCSDK/MCLib/Any/Src/ntc_temperature_sensor.c **** }
 253              		.loc 1 227 3 view .LVU77
 254              		.loc 1 228 1 is_stmt 0 view .LVU78
 255 002e 10BD     		pop	{r4, pc}
 256              		.loc 1 228 1 view .LVU79
 257              		.cfi_endproc
 258              	.LFE1438:
 260              		.section	.text.NTC_GetAvTemp_d,"ax",%progbits
 261              		.align	1
 262              		.p2align 2,,3
ARM GAS  /tmp/ccZ89PDO.s 			page 10


 263              		.weak	NTC_GetAvTemp_d
 264              		.syntax unified
 265              		.thumb
 266              		.thumb_func
 267              		.fpu fpv4-sp-d16
 269              	NTC_GetAvTemp_d:
 270              	.LVL22:
 271              	.LFB1439:
 229:MCSDK_v6.3.2-Full/MotorControl/MCSDK/MCLib/Any/Src/ntc_temperature_sensor.c **** 
 230:MCSDK_v6.3.2-Full/MotorControl/MCSDK/MCLib/Any/Src/ntc_temperature_sensor.c **** /**
 231:MCSDK_v6.3.2-Full/MotorControl/MCSDK/MCLib/Any/Src/ntc_temperature_sensor.c ****   * @brief  Returns latest averaged temperature measured expressed in u16Celsius
 232:MCSDK_v6.3.2-Full/MotorControl/MCSDK/MCLib/Any/Src/ntc_temperature_sensor.c ****   *
 233:MCSDK_v6.3.2-Full/MotorControl/MCSDK/MCLib/Any/Src/ntc_temperature_sensor.c ****   * @param pHandle : Pointer on Handle structure of TemperatureSensor component
 234:MCSDK_v6.3.2-Full/MotorControl/MCSDK/MCLib/Any/Src/ntc_temperature_sensor.c ****   *
 235:MCSDK_v6.3.2-Full/MotorControl/MCSDK/MCLib/Any/Src/ntc_temperature_sensor.c ****   * @retval AverageTemperature : Current averaged temperature measured (in u16Celsius)
 236:MCSDK_v6.3.2-Full/MotorControl/MCSDK/MCLib/Any/Src/ntc_temperature_sensor.c ****   */
 237:MCSDK_v6.3.2-Full/MotorControl/MCSDK/MCLib/Any/Src/ntc_temperature_sensor.c **** __weak uint16_t NTC_GetAvTemp_d(const NTC_Handle_t *pHandle) //cstat !MISRAC2012-Rule-8.13
 238:MCSDK_v6.3.2-Full/MotorControl/MCSDK/MCLib/Any/Src/ntc_temperature_sensor.c **** {
 272              		.loc 1 238 1 is_stmt 1 view -0
 273              		.cfi_startproc
 274              		@ args = 0, pretend = 0, frame = 0
 275              		@ frame_needed = 0, uses_anonymous_args = 0
 276              		@ link register save eliminated.
 239:MCSDK_v6.3.2-Full/MotorControl/MCSDK/MCLib/Any/Src/ntc_temperature_sensor.c **** #ifdef NULL_PTR_CHECK_NTC_TEMP_SENS
 240:MCSDK_v6.3.2-Full/MotorControl/MCSDK/MCLib/Any/Src/ntc_temperature_sensor.c ****   return ((MC_NULL == pHandle) ? 0U : pHandle->hAvTemp_d);
 241:MCSDK_v6.3.2-Full/MotorControl/MCSDK/MCLib/Any/Src/ntc_temperature_sensor.c **** #else
 242:MCSDK_v6.3.2-Full/MotorControl/MCSDK/MCLib/Any/Src/ntc_temperature_sensor.c ****   return (pHandle->hAvTemp_d);
 277              		.loc 1 242 3 view .LVU81
 243:MCSDK_v6.3.2-Full/MotorControl/MCSDK/MCLib/Any/Src/ntc_temperature_sensor.c **** #endif
 244:MCSDK_v6.3.2-Full/MotorControl/MCSDK/MCLib/Any/Src/ntc_temperature_sensor.c **** }
 278              		.loc 1 244 1 is_stmt 0 view .LVU82
 279 0000 4088     		ldrh	r0, [r0, #2]
 280              	.LVL23:
 281              		.loc 1 244 1 view .LVU83
 282 0002 7047     		bx	lr
 283              		.cfi_endproc
 284              	.LFE1439:
 286              		.section	.text.NTC_GetAvTemp_C,"ax",%progbits
 287              		.align	1
 288              		.p2align 2,,3
 289              		.weak	NTC_GetAvTemp_C
 290              		.syntax unified
 291              		.thumb
 292              		.thumb_func
 293              		.fpu fpv4-sp-d16
 295              	NTC_GetAvTemp_C:
 296              	.LVL24:
 297              	.LFB1440:
 245:MCSDK_v6.3.2-Full/MotorControl/MCSDK/MCLib/Any/Src/ntc_temperature_sensor.c **** 
 246:MCSDK_v6.3.2-Full/MotorControl/MCSDK/MCLib/Any/Src/ntc_temperature_sensor.c **** /**
 247:MCSDK_v6.3.2-Full/MotorControl/MCSDK/MCLib/Any/Src/ntc_temperature_sensor.c ****   * @brief  Returns latest averaged temperature expressed in Celsius degrees
 248:MCSDK_v6.3.2-Full/MotorControl/MCSDK/MCLib/Any/Src/ntc_temperature_sensor.c ****   *
 249:MCSDK_v6.3.2-Full/MotorControl/MCSDK/MCLib/Any/Src/ntc_temperature_sensor.c ****   * @param pHandle : Pointer on Handle structure of TemperatureSensor component
 250:MCSDK_v6.3.2-Full/MotorControl/MCSDK/MCLib/Any/Src/ntc_temperature_sensor.c ****   *
 251:MCSDK_v6.3.2-Full/MotorControl/MCSDK/MCLib/Any/Src/ntc_temperature_sensor.c ****   * @retval AverageTemperature : Latest averaged temperature measured (in Celsius degrees)
 252:MCSDK_v6.3.2-Full/MotorControl/MCSDK/MCLib/Any/Src/ntc_temperature_sensor.c ****   */
 253:MCSDK_v6.3.2-Full/MotorControl/MCSDK/MCLib/Any/Src/ntc_temperature_sensor.c **** __weak int16_t NTC_GetAvTemp_C(NTC_Handle_t *pHandle) //cstat !MISRAC2012-Rule-8.13
ARM GAS  /tmp/ccZ89PDO.s 			page 11


 254:MCSDK_v6.3.2-Full/MotorControl/MCSDK/MCLib/Any/Src/ntc_temperature_sensor.c **** {
 298              		.loc 1 254 1 is_stmt 1 view -0
 299              		.cfi_startproc
 300              		@ args = 0, pretend = 0, frame = 0
 301              		@ frame_needed = 0, uses_anonymous_args = 0
 302              		@ link register save eliminated.
 255:MCSDK_v6.3.2-Full/MotorControl/MCSDK/MCLib/Any/Src/ntc_temperature_sensor.c ****   int16_t returnValue;
 303              		.loc 1 255 3 view .LVU85
 256:MCSDK_v6.3.2-Full/MotorControl/MCSDK/MCLib/Any/Src/ntc_temperature_sensor.c **** #ifdef NULL_PTR_CHECK_NTC_TEMP_SENS
 257:MCSDK_v6.3.2-Full/MotorControl/MCSDK/MCLib/Any/Src/ntc_temperature_sensor.c ****   if (MC_NULL == pHandle)
 258:MCSDK_v6.3.2-Full/MotorControl/MCSDK/MCLib/Any/Src/ntc_temperature_sensor.c ****   {
 259:MCSDK_v6.3.2-Full/MotorControl/MCSDK/MCLib/Any/Src/ntc_temperature_sensor.c ****     returnValue = 0;
 260:MCSDK_v6.3.2-Full/MotorControl/MCSDK/MCLib/Any/Src/ntc_temperature_sensor.c ****   }
 261:MCSDK_v6.3.2-Full/MotorControl/MCSDK/MCLib/Any/Src/ntc_temperature_sensor.c ****   else
 262:MCSDK_v6.3.2-Full/MotorControl/MCSDK/MCLib/Any/Src/ntc_temperature_sensor.c ****   {
 263:MCSDK_v6.3.2-Full/MotorControl/MCSDK/MCLib/Any/Src/ntc_temperature_sensor.c **** #endif
 264:MCSDK_v6.3.2-Full/MotorControl/MCSDK/MCLib/Any/Src/ntc_temperature_sensor.c ****     int32_t wTemp;
 304              		.loc 1 264 5 view .LVU86
 265:MCSDK_v6.3.2-Full/MotorControl/MCSDK/MCLib/Any/Src/ntc_temperature_sensor.c **** 
 266:MCSDK_v6.3.2-Full/MotorControl/MCSDK/MCLib/Any/Src/ntc_temperature_sensor.c ****     if (REAL_SENSOR == pHandle->bSensorType)
 305              		.loc 1 266 5 view .LVU87
 306              		.loc 1 266 8 is_stmt 0 view .LVU88
 307 0000 0378     		ldrb	r3, [r0]	@ zero_extendqisi2
 308 0002 5BB9     		cbnz	r3, .L21
 267:MCSDK_v6.3.2-Full/MotorControl/MCSDK/MCLib/Any/Src/ntc_temperature_sensor.c ****     {
 268:MCSDK_v6.3.2-Full/MotorControl/MCSDK/MCLib/Any/Src/ntc_temperature_sensor.c ****       wTemp = (int32_t)pHandle->hAvTemp_d;
 309              		.loc 1 268 7 is_stmt 1 view .LVU89
 310              		.loc 1 268 13 is_stmt 0 view .LVU90
 311 0004 4288     		ldrh	r2, [r0, #2]
 312              	.LVL25:
 269:MCSDK_v6.3.2-Full/MotorControl/MCSDK/MCLib/Any/Src/ntc_temperature_sensor.c ****       wTemp -= ((int32_t)pHandle->wV0);
 313              		.loc 1 269 7 is_stmt 1 view .LVU91
 314              		.loc 1 269 13 is_stmt 0 view .LVU92
 315 0006 4169     		ldr	r1, [r0, #20]
 270:MCSDK_v6.3.2-Full/MotorControl/MCSDK/MCLib/Any/Src/ntc_temperature_sensor.c ****       wTemp *= pHandle->hSensitivity;
 316              		.loc 1 270 23 view .LVU93
 317 0008 B0F91030 		ldrsh	r3, [r0, #16]
 271:MCSDK_v6.3.2-Full/MotorControl/MCSDK/MCLib/Any/Src/ntc_temperature_sensor.c **** #ifndef FULL_MISRA_C_COMPLIANCY_NTC_TEMP
 272:MCSDK_v6.3.2-Full/MotorControl/MCSDK/MCLib/Any/Src/ntc_temperature_sensor.c ****       //cstat !MISRAC2012-Rule-1.3_n !ATH-shift-neg !MISRAC2012-Rule-10.1_R6
 273:MCSDK_v6.3.2-Full/MotorControl/MCSDK/MCLib/Any/Src/ntc_temperature_sensor.c ****       wTemp = (wTemp >> 16) + (int32_t)pHandle->hT0;
 318              		.loc 1 273 31 view .LVU94
 319 000c 008B     		ldrh	r0, [r0, #24]
 320              	.LVL26:
 269:MCSDK_v6.3.2-Full/MotorControl/MCSDK/MCLib/Any/Src/ntc_temperature_sensor.c ****       wTemp *= pHandle->hSensitivity;
 321              		.loc 1 269 13 view .LVU95
 322 000e 521A     		subs	r2, r2, r1
 323              	.LVL27:
 270:MCSDK_v6.3.2-Full/MotorControl/MCSDK/MCLib/Any/Src/ntc_temperature_sensor.c ****       wTemp *= pHandle->hSensitivity;
 324              		.loc 1 270 7 is_stmt 1 view .LVU96
 325              		.loc 1 273 7 view .LVU97
 270:MCSDK_v6.3.2-Full/MotorControl/MCSDK/MCLib/Any/Src/ntc_temperature_sensor.c ****       wTemp *= pHandle->hSensitivity;
 326              		.loc 1 270 13 is_stmt 0 view .LVU98
 327 0010 02FB03F3 		mul	r3, r2, r3
 328              		.loc 1 273 13 view .LVU99
 329 0014 00EB2340 		add	r0, r0, r3, asr #16
 330              	.LVL28:
 274:MCSDK_v6.3.2-Full/MotorControl/MCSDK/MCLib/Any/Src/ntc_temperature_sensor.c **** #else
ARM GAS  /tmp/ccZ89PDO.s 			page 12


 275:MCSDK_v6.3.2-Full/MotorControl/MCSDK/MCLib/Any/Src/ntc_temperature_sensor.c ****       wTemp = (wTemp / 65536) + (int32_t)pHandle->hT0;
 276:MCSDK_v6.3.2-Full/MotorControl/MCSDK/MCLib/Any/Src/ntc_temperature_sensor.c **** #endif
 277:MCSDK_v6.3.2-Full/MotorControl/MCSDK/MCLib/Any/Src/ntc_temperature_sensor.c ****     }
 278:MCSDK_v6.3.2-Full/MotorControl/MCSDK/MCLib/Any/Src/ntc_temperature_sensor.c ****     else
 279:MCSDK_v6.3.2-Full/MotorControl/MCSDK/MCLib/Any/Src/ntc_temperature_sensor.c ****     {
 280:MCSDK_v6.3.2-Full/MotorControl/MCSDK/MCLib/Any/Src/ntc_temperature_sensor.c ****       wTemp = (int32_t)pHandle->hExpectedTemp_C;
 281:MCSDK_v6.3.2-Full/MotorControl/MCSDK/MCLib/Any/Src/ntc_temperature_sensor.c ****     }
 282:MCSDK_v6.3.2-Full/MotorControl/MCSDK/MCLib/Any/Src/ntc_temperature_sensor.c ****     returnValue = (int16_t)wTemp;
 331              		.loc 1 282 5 is_stmt 1 view .LVU100
 283:MCSDK_v6.3.2-Full/MotorControl/MCSDK/MCLib/Any/Src/ntc_temperature_sensor.c **** #ifdef NULL_PTR_CHECK_NTC_TEMP_SENS
 284:MCSDK_v6.3.2-Full/MotorControl/MCSDK/MCLib/Any/Src/ntc_temperature_sensor.c ****   }
 285:MCSDK_v6.3.2-Full/MotorControl/MCSDK/MCLib/Any/Src/ntc_temperature_sensor.c **** #endif
 286:MCSDK_v6.3.2-Full/MotorControl/MCSDK/MCLib/Any/Src/ntc_temperature_sensor.c ****   return (returnValue);
 332              		.loc 1 286 3 view .LVU101
 287:MCSDK_v6.3.2-Full/MotorControl/MCSDK/MCLib/Any/Src/ntc_temperature_sensor.c **** }
 333              		.loc 1 287 1 is_stmt 0 view .LVU102
 334 0018 00B2     		sxth	r0, r0
 335              	.LVL29:
 336              		.loc 1 287 1 view .LVU103
 337 001a 7047     		bx	lr
 338              	.LVL30:
 339              	.L21:
 280:MCSDK_v6.3.2-Full/MotorControl/MCSDK/MCLib/Any/Src/ntc_temperature_sensor.c ****     }
 340              		.loc 1 280 7 is_stmt 1 view .LVU104
 280:MCSDK_v6.3.2-Full/MotorControl/MCSDK/MCLib/Any/Src/ntc_temperature_sensor.c ****     }
 341              		.loc 1 280 13 is_stmt 0 view .LVU105
 342 001c C088     		ldrh	r0, [r0, #6]
 343              	.LVL31:
 282:MCSDK_v6.3.2-Full/MotorControl/MCSDK/MCLib/Any/Src/ntc_temperature_sensor.c **** #ifdef NULL_PTR_CHECK_NTC_TEMP_SENS
 344              		.loc 1 282 5 is_stmt 1 view .LVU106
 286:MCSDK_v6.3.2-Full/MotorControl/MCSDK/MCLib/Any/Src/ntc_temperature_sensor.c **** }
 345              		.loc 1 286 3 view .LVU107
 346              		.loc 1 287 1 is_stmt 0 view .LVU108
 347 001e 00B2     		sxth	r0, r0
 348              	.LVL32:
 349              		.loc 1 287 1 view .LVU109
 350 0020 7047     		bx	lr
 351              		.cfi_endproc
 352              	.LFE1440:
 354 0022 00BF     		.section	.text.NTC_CheckTemp,"ax",%progbits
 355              		.align	1
 356              		.p2align 2,,3
 357              		.weak	NTC_CheckTemp
 358              		.syntax unified
 359              		.thumb
 360              		.thumb_func
 361              		.fpu fpv4-sp-d16
 363              	NTC_CheckTemp:
 364              	.LVL33:
 365              	.LFB1441:
 288:MCSDK_v6.3.2-Full/MotorControl/MCSDK/MCLib/Any/Src/ntc_temperature_sensor.c **** 
 289:MCSDK_v6.3.2-Full/MotorControl/MCSDK/MCLib/Any/Src/ntc_temperature_sensor.c **** /**
 290:MCSDK_v6.3.2-Full/MotorControl/MCSDK/MCLib/Any/Src/ntc_temperature_sensor.c ****   * @brief  Returns Temperature measurement fault status
 291:MCSDK_v6.3.2-Full/MotorControl/MCSDK/MCLib/Any/Src/ntc_temperature_sensor.c ****   *
 292:MCSDK_v6.3.2-Full/MotorControl/MCSDK/MCLib/Any/Src/ntc_temperature_sensor.c ****   * Fault status can be either #MC_OVER_TEMP when measure exceeds the protection threshold values o
 293:MCSDK_v6.3.2-Full/MotorControl/MCSDK/MCLib/Any/Src/ntc_temperature_sensor.c ****   * #MC_NO_ERROR if it is inside authorized range.
 294:MCSDK_v6.3.2-Full/MotorControl/MCSDK/MCLib/Any/Src/ntc_temperature_sensor.c ****   *
ARM GAS  /tmp/ccZ89PDO.s 			page 13


 295:MCSDK_v6.3.2-Full/MotorControl/MCSDK/MCLib/Any/Src/ntc_temperature_sensor.c ****   * @param pHandle: Pointer on Handle structure of TemperatureSensor component.
 296:MCSDK_v6.3.2-Full/MotorControl/MCSDK/MCLib/Any/Src/ntc_temperature_sensor.c ****   *
 297:MCSDK_v6.3.2-Full/MotorControl/MCSDK/MCLib/Any/Src/ntc_temperature_sensor.c ****   * @retval Fault status : read internal fault state
 298:MCSDK_v6.3.2-Full/MotorControl/MCSDK/MCLib/Any/Src/ntc_temperature_sensor.c ****   */
 299:MCSDK_v6.3.2-Full/MotorControl/MCSDK/MCLib/Any/Src/ntc_temperature_sensor.c **** __weak uint16_t NTC_CheckTemp(const NTC_Handle_t *pHandle)
 300:MCSDK_v6.3.2-Full/MotorControl/MCSDK/MCLib/Any/Src/ntc_temperature_sensor.c **** {
 366              		.loc 1 300 1 is_stmt 1 view -0
 367              		.cfi_startproc
 368              		@ args = 0, pretend = 0, frame = 0
 369              		@ frame_needed = 0, uses_anonymous_args = 0
 370              		@ link register save eliminated.
 301:MCSDK_v6.3.2-Full/MotorControl/MCSDK/MCLib/Any/Src/ntc_temperature_sensor.c **** #ifdef NULL_PTR_CHECK_NTC_TEMP_SENS
 302:MCSDK_v6.3.2-Full/MotorControl/MCSDK/MCLib/Any/Src/ntc_temperature_sensor.c ****   return ((MC_NULL == pHandle) ? 0U : pHandle->hFaultState);
 303:MCSDK_v6.3.2-Full/MotorControl/MCSDK/MCLib/Any/Src/ntc_temperature_sensor.c **** #else
 304:MCSDK_v6.3.2-Full/MotorControl/MCSDK/MCLib/Any/Src/ntc_temperature_sensor.c ****   return (pHandle->hFaultState);
 371              		.loc 1 304 3 view .LVU111
 305:MCSDK_v6.3.2-Full/MotorControl/MCSDK/MCLib/Any/Src/ntc_temperature_sensor.c **** #endif
 306:MCSDK_v6.3.2-Full/MotorControl/MCSDK/MCLib/Any/Src/ntc_temperature_sensor.c **** 
 307:MCSDK_v6.3.2-Full/MotorControl/MCSDK/MCLib/Any/Src/ntc_temperature_sensor.c **** }
 372              		.loc 1 307 1 is_stmt 0 view .LVU112
 373 0000 0089     		ldrh	r0, [r0, #8]
 374              	.LVL34:
 375              		.loc 1 307 1 view .LVU113
 376 0002 7047     		bx	lr
 377              		.cfi_endproc
 378              	.LFE1441:
 380              		.text
 381              	.Letext0:
 382              		.file 2 "/usr/share/gcc-arm-none-eabi-10-2020-q4-major/arm-none-eabi/include/machine/_default_type
 383              		.file 3 "/usr/share/gcc-arm-none-eabi-10-2020-q4-major/arm-none-eabi/include/sys/_stdint.h"
 384              		.file 4 "Drivers/STM32G4xx_HAL_Driver/Inc/stm32g4xx_ll_tim.h"
 385              		.file 5 "Drivers/STM32G4xx_HAL_Driver/Inc/stm32g4xx_ll_usart.h"
 386              		.file 6 "Drivers/STM32G4xx_HAL_Driver/Inc/stm32g4xx_ll_dma.h"
 387              		.file 7 "Inc/mc_type.h"
 388              		.file 8 "MCSDK_v6.3.2-Full/MotorControl/MCSDK/MCLib/Any/Inc/ntc_temperature_sensor.h"
ARM GAS  /tmp/ccZ89PDO.s 			page 14

