ARM GAS  /tmp/cc8K4Yz1.s 			page 1


   1              		.cpu cortex-m4
   2              		.eabi_attribute 27, 1
   3              		.eabi_attribute 28, 1
   4              		.eabi_attribute 20, 1
   5              		.eabi_attribute 21, 1
   6              		.eabi_attribute 23, 3
   7              		.eabi_attribute 24, 1
   8              		.eabi_attribute 25, 1
   9              		.eabi_attribute 26, 1
  10              		.eabi_attribute 30, 2
  11              		.eabi_attribute 34, 1
  12              		.eabi_attribute 18, 2
  13              		.file	"open_loop.c"
  14              		.text
  15              	.Ltext0:
  16              		.cfi_sections	.debug_frame
  17              		.section	.text.OL_Init,"ax",%progbits
  18              		.align	1
  19              		.p2align 2,,3
  20              		.weak	OL_Init
  21              		.arch armv7e-m
  22              		.syntax unified
  23              		.thumb
  24              		.thumb_func
  25              		.fpu fpv4-sp-d16
  27              	OL_Init:
  28              	.LVL0:
  29              	.LFB1442:
  30              		.file 1 "MCSDK_v6.3.2-Full/MotorControl/MCSDK/MCLib/Any/Src/open_loop.c"
   1:MCSDK_v6.3.2-Full/MotorControl/MCSDK/MCLib/Any/Src/open_loop.c **** /**
   2:MCSDK_v6.3.2-Full/MotorControl/MCSDK/MCLib/Any/Src/open_loop.c ****   ******************************************************************************
   3:MCSDK_v6.3.2-Full/MotorControl/MCSDK/MCLib/Any/Src/open_loop.c ****   * @file    open_loop.c
   4:MCSDK_v6.3.2-Full/MotorControl/MCSDK/MCLib/Any/Src/open_loop.c ****   * @author  Motor Control SDK Team, ST Microelectronics
   5:MCSDK_v6.3.2-Full/MotorControl/MCSDK/MCLib/Any/Src/open_loop.c ****   * @brief   This file provides firmware functions that implement the features
   6:MCSDK_v6.3.2-Full/MotorControl/MCSDK/MCLib/Any/Src/open_loop.c ****   *          of the Open Loop component.
   7:MCSDK_v6.3.2-Full/MotorControl/MCSDK/MCLib/Any/Src/open_loop.c ****   *
   8:MCSDK_v6.3.2-Full/MotorControl/MCSDK/MCLib/Any/Src/open_loop.c ****   ******************************************************************************
   9:MCSDK_v6.3.2-Full/MotorControl/MCSDK/MCLib/Any/Src/open_loop.c ****   * @attention
  10:MCSDK_v6.3.2-Full/MotorControl/MCSDK/MCLib/Any/Src/open_loop.c ****   *
  11:MCSDK_v6.3.2-Full/MotorControl/MCSDK/MCLib/Any/Src/open_loop.c ****   * <h2><center>&copy; Copyright (c) 2024 STMicroelectronics.
  12:MCSDK_v6.3.2-Full/MotorControl/MCSDK/MCLib/Any/Src/open_loop.c ****   * All rights reserved.</center></h2>
  13:MCSDK_v6.3.2-Full/MotorControl/MCSDK/MCLib/Any/Src/open_loop.c ****   *
  14:MCSDK_v6.3.2-Full/MotorControl/MCSDK/MCLib/Any/Src/open_loop.c ****   * This software component is licensed by ST under Ultimate Liberty license
  15:MCSDK_v6.3.2-Full/MotorControl/MCSDK/MCLib/Any/Src/open_loop.c ****   * SLA0044, the "License"; You may not use this file except in compliance with
  16:MCSDK_v6.3.2-Full/MotorControl/MCSDK/MCLib/Any/Src/open_loop.c ****   * the License. You may obtain a copy of the License at:
  17:MCSDK_v6.3.2-Full/MotorControl/MCSDK/MCLib/Any/Src/open_loop.c ****   *                             www.st.com/SLA0044
  18:MCSDK_v6.3.2-Full/MotorControl/MCSDK/MCLib/Any/Src/open_loop.c ****   *
  19:MCSDK_v6.3.2-Full/MotorControl/MCSDK/MCLib/Any/Src/open_loop.c ****   ******************************************************************************
  20:MCSDK_v6.3.2-Full/MotorControl/MCSDK/MCLib/Any/Src/open_loop.c ****   * @ingroup OpenLoop
  21:MCSDK_v6.3.2-Full/MotorControl/MCSDK/MCLib/Any/Src/open_loop.c ****   */
  22:MCSDK_v6.3.2-Full/MotorControl/MCSDK/MCLib/Any/Src/open_loop.c ****   
  23:MCSDK_v6.3.2-Full/MotorControl/MCSDK/MCLib/Any/Src/open_loop.c **** /* Includes ------------------------------------------------------------------*/
  24:MCSDK_v6.3.2-Full/MotorControl/MCSDK/MCLib/Any/Src/open_loop.c **** #include "open_loop.h"
  25:MCSDK_v6.3.2-Full/MotorControl/MCSDK/MCLib/Any/Src/open_loop.c **** 
  26:MCSDK_v6.3.2-Full/MotorControl/MCSDK/MCLib/Any/Src/open_loop.c **** /** @addtogroup MCSDK
  27:MCSDK_v6.3.2-Full/MotorControl/MCSDK/MCLib/Any/Src/open_loop.c ****   * @{
  28:MCSDK_v6.3.2-Full/MotorControl/MCSDK/MCLib/Any/Src/open_loop.c ****   */
ARM GAS  /tmp/cc8K4Yz1.s 			page 2


  29:MCSDK_v6.3.2-Full/MotorControl/MCSDK/MCLib/Any/Src/open_loop.c **** 
  30:MCSDK_v6.3.2-Full/MotorControl/MCSDK/MCLib/Any/Src/open_loop.c **** /** @defgroup OpenLoop Open Loop Control
  31:MCSDK_v6.3.2-Full/MotorControl/MCSDK/MCLib/Any/Src/open_loop.c ****   * @brief Open Loop component of the Motor Control SDK
  32:MCSDK_v6.3.2-Full/MotorControl/MCSDK/MCLib/Any/Src/open_loop.c ****   *
  33:MCSDK_v6.3.2-Full/MotorControl/MCSDK/MCLib/Any/Src/open_loop.c ****   * Open Loop component allows to run the motor in open loop voltage mode. In that mode, the phase 
  34:MCSDK_v6.3.2-Full/MotorControl/MCSDK/MCLib/Any/Src/open_loop.c ****   * forced independently from the measured currents. To do so, the routine OL_VqdConditioning() ove
  35:MCSDK_v6.3.2-Full/MotorControl/MCSDK/MCLib/Any/Src/open_loop.c ****   * voltage command Vdq in the FOC current controller task. The voltage level to apply can be set d
  36:MCSDK_v6.3.2-Full/MotorControl/MCSDK/MCLib/Any/Src/open_loop.c ****   * user, with OL_UpdateVoltage(), or computed by OL_Calc() if the V/F mode is selected. In that mo
  37:MCSDK_v6.3.2-Full/MotorControl/MCSDK/MCLib/Any/Src/open_loop.c ****   * level depends on the speed, the slope and the offset selected by the user. 
  38:MCSDK_v6.3.2-Full/MotorControl/MCSDK/MCLib/Any/Src/open_loop.c ****   *
  39:MCSDK_v6.3.2-Full/MotorControl/MCSDK/MCLib/Any/Src/open_loop.c ****   * @{
  40:MCSDK_v6.3.2-Full/MotorControl/MCSDK/MCLib/Any/Src/open_loop.c ****   */
  41:MCSDK_v6.3.2-Full/MotorControl/MCSDK/MCLib/Any/Src/open_loop.c **** 
  42:MCSDK_v6.3.2-Full/MotorControl/MCSDK/MCLib/Any/Src/open_loop.c **** /* Private defines -----------------------------------------------------------*/
  43:MCSDK_v6.3.2-Full/MotorControl/MCSDK/MCLib/Any/Src/open_loop.c **** 
  44:MCSDK_v6.3.2-Full/MotorControl/MCSDK/MCLib/Any/Src/open_loop.c **** /**
  45:MCSDK_v6.3.2-Full/MotorControl/MCSDK/MCLib/Any/Src/open_loop.c ****   * @brief  Initializes OpenLoop variables.it should be called 
  46:MCSDK_v6.3.2-Full/MotorControl/MCSDK/MCLib/Any/Src/open_loop.c ****   *         once during Motor Control initialization.
  47:MCSDK_v6.3.2-Full/MotorControl/MCSDK/MCLib/Any/Src/open_loop.c ****   * @param  pHandle: Pointer on Handle structure of OpenLoop feature.
  48:MCSDK_v6.3.2-Full/MotorControl/MCSDK/MCLib/Any/Src/open_loop.c ****   * @param  pVSS: Pointer on virtual speed sensor structure.
  49:MCSDK_v6.3.2-Full/MotorControl/MCSDK/MCLib/Any/Src/open_loop.c ****   */
  50:MCSDK_v6.3.2-Full/MotorControl/MCSDK/MCLib/Any/Src/open_loop.c **** __weak void OL_Init(OpenLoop_Handle_t *pHandle, VirtualSpeedSensor_Handle_t *pVSS)
  51:MCSDK_v6.3.2-Full/MotorControl/MCSDK/MCLib/Any/Src/open_loop.c **** {
  31              		.loc 1 51 1 view -0
  32              		.cfi_startproc
  33              		@ args = 0, pretend = 0, frame = 0
  34              		@ frame_needed = 0, uses_anonymous_args = 0
  35              		@ link register save eliminated.
  52:MCSDK_v6.3.2-Full/MotorControl/MCSDK/MCLib/Any/Src/open_loop.c **** #ifdef NULL_PTR_CHECK_OPEN_LOOP
  53:MCSDK_v6.3.2-Full/MotorControl/MCSDK/MCLib/Any/Src/open_loop.c ****   if (MC_NULL == pHandle)
  54:MCSDK_v6.3.2-Full/MotorControl/MCSDK/MCLib/Any/Src/open_loop.c ****   {
  55:MCSDK_v6.3.2-Full/MotorControl/MCSDK/MCLib/Any/Src/open_loop.c ****     /* Nothing to do */
  56:MCSDK_v6.3.2-Full/MotorControl/MCSDK/MCLib/Any/Src/open_loop.c ****   }
  57:MCSDK_v6.3.2-Full/MotorControl/MCSDK/MCLib/Any/Src/open_loop.c ****   else
  58:MCSDK_v6.3.2-Full/MotorControl/MCSDK/MCLib/Any/Src/open_loop.c ****   {
  59:MCSDK_v6.3.2-Full/MotorControl/MCSDK/MCLib/Any/Src/open_loop.c **** #endif
  60:MCSDK_v6.3.2-Full/MotorControl/MCSDK/MCLib/Any/Src/open_loop.c ****     pHandle->hVoltage = pHandle->hDefaultVoltage;
  36              		.loc 1 60 5 view .LVU1
  37              		.loc 1 60 23 is_stmt 0 view .LVU2
  38 0000 0388     		ldrh	r3, [r0]
  39 0002 0381     		strh	r3, [r0, #8]	@ movhi
  61:MCSDK_v6.3.2-Full/MotorControl/MCSDK/MCLib/Any/Src/open_loop.c ****     pHandle->pVSS = pVSS;
  40              		.loc 1 61 5 is_stmt 1 view .LVU3
  41              		.loc 1 61 19 is_stmt 0 view .LVU4
  42 0004 C160     		str	r1, [r0, #12]
  62:MCSDK_v6.3.2-Full/MotorControl/MCSDK/MCLib/Any/Src/open_loop.c **** #ifdef NULL_PTR_CHECK_OPEN_LOOP
  63:MCSDK_v6.3.2-Full/MotorControl/MCSDK/MCLib/Any/Src/open_loop.c ****   }
  64:MCSDK_v6.3.2-Full/MotorControl/MCSDK/MCLib/Any/Src/open_loop.c **** #endif
  65:MCSDK_v6.3.2-Full/MotorControl/MCSDK/MCLib/Any/Src/open_loop.c **** }
  43              		.loc 1 65 1 view .LVU5
  44 0006 7047     		bx	lr
  45              		.cfi_endproc
  46              	.LFE1442:
  48              		.section	.text.OL_VqdConditioning,"ax",%progbits
  49              		.align	1
  50              		.p2align 2,,3
  51              		.weak	OL_VqdConditioning
ARM GAS  /tmp/cc8K4Yz1.s 			page 3


  52              		.syntax unified
  53              		.thumb
  54              		.thumb_func
  55              		.fpu fpv4-sp-d16
  57              	OL_VqdConditioning:
  58              	.LVL1:
  59              	.LFB1443:
  66:MCSDK_v6.3.2-Full/MotorControl/MCSDK/MCLib/Any/Src/open_loop.c **** 
  67:MCSDK_v6.3.2-Full/MotorControl/MCSDK/MCLib/Any/Src/open_loop.c **** /**
  68:MCSDK_v6.3.2-Full/MotorControl/MCSDK/MCLib/Any/Src/open_loop.c ****   * @brief  Sets Vqd according to open loop phase voltage. It should be 
  69:MCSDK_v6.3.2-Full/MotorControl/MCSDK/MCLib/Any/Src/open_loop.c ****   *         called during current controller task.
  70:MCSDK_v6.3.2-Full/MotorControl/MCSDK/MCLib/Any/Src/open_loop.c ****   * @param  pHandle: Pointer on Handle structure of OpenLoop feature.
  71:MCSDK_v6.3.2-Full/MotorControl/MCSDK/MCLib/Any/Src/open_loop.c ****   * @retval qd_t Vqd conditioned values.
  72:MCSDK_v6.3.2-Full/MotorControl/MCSDK/MCLib/Any/Src/open_loop.c ****   */
  73:MCSDK_v6.3.2-Full/MotorControl/MCSDK/MCLib/Any/Src/open_loop.c **** __weak qd_t OL_VqdConditioning(const OpenLoop_Handle_t *pHandle)
  74:MCSDK_v6.3.2-Full/MotorControl/MCSDK/MCLib/Any/Src/open_loop.c **** {
  60              		.loc 1 74 1 is_stmt 1 view -0
  61              		.cfi_startproc
  62              		@ args = 0, pretend = 0, frame = 8
  63              		@ frame_needed = 0, uses_anonymous_args = 0
  64              		@ link register save eliminated.
  75:MCSDK_v6.3.2-Full/MotorControl/MCSDK/MCLib/Any/Src/open_loop.c ****   qd_t Vqd;
  65              		.loc 1 75 3 view .LVU7
  76:MCSDK_v6.3.2-Full/MotorControl/MCSDK/MCLib/Any/Src/open_loop.c ****   Vqd.d = 0;
  66              		.loc 1 76 3 view .LVU8
  77:MCSDK_v6.3.2-Full/MotorControl/MCSDK/MCLib/Any/Src/open_loop.c **** #ifdef NULL_PTR_CHECK_OPEN_LOOP
  78:MCSDK_v6.3.2-Full/MotorControl/MCSDK/MCLib/Any/Src/open_loop.c ****   Vqd.q = ((MC_NULL == pHandle) ? 0 : pHandle->hVoltage);
  79:MCSDK_v6.3.2-Full/MotorControl/MCSDK/MCLib/Any/Src/open_loop.c **** #else
  80:MCSDK_v6.3.2-Full/MotorControl/MCSDK/MCLib/Any/Src/open_loop.c ****   Vqd.q = (pHandle->hVoltage);
  67              		.loc 1 80 3 view .LVU9
  81:MCSDK_v6.3.2-Full/MotorControl/MCSDK/MCLib/Any/Src/open_loop.c **** #endif
  82:MCSDK_v6.3.2-Full/MotorControl/MCSDK/MCLib/Any/Src/open_loop.c ****   return (Vqd);
  68              		.loc 1 82 3 view .LVU10
  83:MCSDK_v6.3.2-Full/MotorControl/MCSDK/MCLib/Any/Src/open_loop.c **** }
  69              		.loc 1 83 1 is_stmt 0 view .LVU11
  70 0000 0089     		ldrh	r0, [r0, #8]
  71              	.LVL2:
  74:MCSDK_v6.3.2-Full/MotorControl/MCSDK/MCLib/Any/Src/open_loop.c ****   qd_t Vqd;
  72              		.loc 1 74 1 view .LVU12
  73 0002 82B0     		sub	sp, sp, #8
  74              	.LCFI0:
  75              		.cfi_def_cfa_offset 8
  76              		.loc 1 83 1 view .LVU13
  77 0004 02B0     		add	sp, sp, #8
  78              	.LCFI1:
  79              		.cfi_def_cfa_offset 0
  80              		@ sp needed
  81 0006 7047     		bx	lr
  82              		.cfi_endproc
  83              	.LFE1443:
  85              		.section	.text.OL_Calc,"ax",%progbits
  86              		.align	1
  87              		.p2align 2,,3
  88              		.weak	OL_Calc
  89              		.syntax unified
  90              		.thumb
  91              		.thumb_func
ARM GAS  /tmp/cc8K4Yz1.s 			page 4


  92              		.fpu fpv4-sp-d16
  94              	OL_Calc:
  95              	.LVL3:
  96              	.LFB1444:
  84:MCSDK_v6.3.2-Full/MotorControl/MCSDK/MCLib/Any/Src/open_loop.c **** 
  85:MCSDK_v6.3.2-Full/MotorControl/MCSDK/MCLib/Any/Src/open_loop.c **** /**
  86:MCSDK_v6.3.2-Full/MotorControl/MCSDK/MCLib/Any/Src/open_loop.c ****   * @brief  Computes phase voltage to apply according to average mechanical speed (V/F Mode).
  87:MCSDK_v6.3.2-Full/MotorControl/MCSDK/MCLib/Any/Src/open_loop.c ****   *         It should be called during background task.
  88:MCSDK_v6.3.2-Full/MotorControl/MCSDK/MCLib/Any/Src/open_loop.c ****   * @param  pHandle: Pointer on Handle structure of OpenLoop feature.
  89:MCSDK_v6.3.2-Full/MotorControl/MCSDK/MCLib/Any/Src/open_loop.c ****   */
  90:MCSDK_v6.3.2-Full/MotorControl/MCSDK/MCLib/Any/Src/open_loop.c **** __weak void OL_Calc(OpenLoop_Handle_t *pHandle)
  91:MCSDK_v6.3.2-Full/MotorControl/MCSDK/MCLib/Any/Src/open_loop.c **** {
  97              		.loc 1 91 1 is_stmt 1 view -0
  98              		.cfi_startproc
  99              		@ args = 0, pretend = 0, frame = 0
 100              		@ frame_needed = 0, uses_anonymous_args = 0
 101              		@ link register save eliminated.
  92:MCSDK_v6.3.2-Full/MotorControl/MCSDK/MCLib/Any/Src/open_loop.c **** #ifdef NULL_PTR_CHECK_OPEN_LOOP
  93:MCSDK_v6.3.2-Full/MotorControl/MCSDK/MCLib/Any/Src/open_loop.c ****   if (MC_NULL == pHandle)
  94:MCSDK_v6.3.2-Full/MotorControl/MCSDK/MCLib/Any/Src/open_loop.c ****   {
  95:MCSDK_v6.3.2-Full/MotorControl/MCSDK/MCLib/Any/Src/open_loop.c ****     /* Nothing to do */
  96:MCSDK_v6.3.2-Full/MotorControl/MCSDK/MCLib/Any/Src/open_loop.c ****   }
  97:MCSDK_v6.3.2-Full/MotorControl/MCSDK/MCLib/Any/Src/open_loop.c ****   else
  98:MCSDK_v6.3.2-Full/MotorControl/MCSDK/MCLib/Any/Src/open_loop.c ****   {
  99:MCSDK_v6.3.2-Full/MotorControl/MCSDK/MCLib/Any/Src/open_loop.c **** #endif
 100:MCSDK_v6.3.2-Full/MotorControl/MCSDK/MCLib/Any/Src/open_loop.c ****     if (true ==  pHandle->VFMode)
 102              		.loc 1 100 5 view .LVU15
 103              		.loc 1 100 8 is_stmt 0 view .LVU16
 104 0000 8378     		ldrb	r3, [r0, #2]	@ zero_extendqisi2
 105 0002 73B1     		cbz	r3, .L5
 101:MCSDK_v6.3.2-Full/MotorControl/MCSDK/MCLib/Any/Src/open_loop.c ****     {
 102:MCSDK_v6.3.2-Full/MotorControl/MCSDK/MCLib/Any/Src/open_loop.c ****       /* V/F mode true means enabled */
 103:MCSDK_v6.3.2-Full/MotorControl/MCSDK/MCLib/Any/Src/open_loop.c ****       if (pHandle->pVSS->_Super.hAvrMecSpeedUnit >= 0)
 106              		.loc 1 103 7 is_stmt 1 view .LVU17
 107              		.loc 1 103 32 is_stmt 0 view .LVU18
 108 0004 C368     		ldr	r3, [r0, #12]
 104:MCSDK_v6.3.2-Full/MotorControl/MCSDK/MCLib/Any/Src/open_loop.c ****       {
 105:MCSDK_v6.3.2-Full/MotorControl/MCSDK/MCLib/Any/Src/open_loop.c ****         pHandle->hVoltage = pHandle->hVFOffset + (pHandle->hVFSlope * pHandle->pVSS->_Super.hAvrMec
 109              		.loc 1 105 69 view .LVU19
 110 0006 B0F90610 		ldrsh	r1, [r0, #6]
 103:MCSDK_v6.3.2-Full/MotorControl/MCSDK/MCLib/Any/Src/open_loop.c ****       {
 111              		.loc 1 103 32 view .LVU20
 112 000a B3F90C30 		ldrsh	r3, [r3, #12]
 113              		.loc 1 105 48 view .LVU21
 114 000e 8288     		ldrh	r2, [r0, #4]
 103:MCSDK_v6.3.2-Full/MotorControl/MCSDK/MCLib/Any/Src/open_loop.c ****       {
 115              		.loc 1 103 10 view .LVU22
 116 0010 002B     		cmp	r3, #0
 117 0012 03DB     		blt	.L7
 118              		.loc 1 105 9 is_stmt 1 view .LVU23
 119              		.loc 1 105 48 is_stmt 0 view .LVU24
 120 0014 01FB0323 		mla	r3, r1, r3, r2
 121              		.loc 1 105 27 view .LVU25
 122 0018 0381     		strh	r3, [r0, #8]	@ movhi
 123 001a 7047     		bx	lr
 124              	.L7:
 106:MCSDK_v6.3.2-Full/MotorControl/MCSDK/MCLib/Any/Src/open_loop.c ****       }
ARM GAS  /tmp/cc8K4Yz1.s 			page 5


 107:MCSDK_v6.3.2-Full/MotorControl/MCSDK/MCLib/Any/Src/open_loop.c ****       else
 108:MCSDK_v6.3.2-Full/MotorControl/MCSDK/MCLib/Any/Src/open_loop.c ****       {
 109:MCSDK_v6.3.2-Full/MotorControl/MCSDK/MCLib/Any/Src/open_loop.c ****         pHandle->hVoltage = pHandle->hVFOffset - (pHandle->hVFSlope * pHandle->pVSS->_Super.hAvrMec
 125              		.loc 1 109 9 is_stmt 1 view .LVU26
 126              		.loc 1 109 48 is_stmt 0 view .LVU27
 127 001c 01FB1323 		mls	r3, r1, r3, r2
 128              		.loc 1 109 27 view .LVU28
 129 0020 0381     		strh	r3, [r0, #8]	@ movhi
 110:MCSDK_v6.3.2-Full/MotorControl/MCSDK/MCLib/Any/Src/open_loop.c ****       }
 111:MCSDK_v6.3.2-Full/MotorControl/MCSDK/MCLib/Any/Src/open_loop.c ****     }
 112:MCSDK_v6.3.2-Full/MotorControl/MCSDK/MCLib/Any/Src/open_loop.c ****     else
 113:MCSDK_v6.3.2-Full/MotorControl/MCSDK/MCLib/Any/Src/open_loop.c ****     {
 114:MCSDK_v6.3.2-Full/MotorControl/MCSDK/MCLib/Any/Src/open_loop.c ****       /* Nothing to do */
 115:MCSDK_v6.3.2-Full/MotorControl/MCSDK/MCLib/Any/Src/open_loop.c ****     }
 130              		.loc 1 115 5 is_stmt 1 view .LVU29
 131              	.L5:
 116:MCSDK_v6.3.2-Full/MotorControl/MCSDK/MCLib/Any/Src/open_loop.c **** #ifdef NULL_PTR_CHECK_OPEN_LOOP
 117:MCSDK_v6.3.2-Full/MotorControl/MCSDK/MCLib/Any/Src/open_loop.c ****   }
 118:MCSDK_v6.3.2-Full/MotorControl/MCSDK/MCLib/Any/Src/open_loop.c **** #endif
 119:MCSDK_v6.3.2-Full/MotorControl/MCSDK/MCLib/Any/Src/open_loop.c **** }
 132              		.loc 1 119 1 is_stmt 0 view .LVU30
 133 0022 7047     		bx	lr
 134              		.cfi_endproc
 135              	.LFE1444:
 137              		.section	.text.OL_VF,"ax",%progbits
 138              		.align	1
 139              		.p2align 2,,3
 140              		.weak	OL_VF
 141              		.syntax unified
 142              		.thumb
 143              		.thumb_func
 144              		.fpu fpv4-sp-d16
 146              	OL_VF:
 147              	.LVL4:
 148              	.LFB1445:
 120:MCSDK_v6.3.2-Full/MotorControl/MCSDK/MCLib/Any/Src/open_loop.c **** 
 121:MCSDK_v6.3.2-Full/MotorControl/MCSDK/MCLib/Any/Src/open_loop.c **** /**
 122:MCSDK_v6.3.2-Full/MotorControl/MCSDK/MCLib/Any/Src/open_loop.c ****   * @brief  Activates of the Voltage versus Frequency mode (V/F mode).
 123:MCSDK_v6.3.2-Full/MotorControl/MCSDK/MCLib/Any/Src/open_loop.c ****   * @param  pHandle: Pointer on Handle structure of OpenLoop feature.
 124:MCSDK_v6.3.2-Full/MotorControl/MCSDK/MCLib/Any/Src/open_loop.c ****   * @param  VFEnabling: Flag to enable the V/F mode.
 125:MCSDK_v6.3.2-Full/MotorControl/MCSDK/MCLib/Any/Src/open_loop.c ****   */
 126:MCSDK_v6.3.2-Full/MotorControl/MCSDK/MCLib/Any/Src/open_loop.c **** __weak void OL_VF(OpenLoop_Handle_t *pHandle, bool VFEnabling)
 127:MCSDK_v6.3.2-Full/MotorControl/MCSDK/MCLib/Any/Src/open_loop.c **** {
 149              		.loc 1 127 1 is_stmt 1 view -0
 150              		.cfi_startproc
 151              		@ args = 0, pretend = 0, frame = 0
 152              		@ frame_needed = 0, uses_anonymous_args = 0
 153              		@ link register save eliminated.
 128:MCSDK_v6.3.2-Full/MotorControl/MCSDK/MCLib/Any/Src/open_loop.c **** #ifdef NULL_PTR_CHECK_OPEN_LOOP
 129:MCSDK_v6.3.2-Full/MotorControl/MCSDK/MCLib/Any/Src/open_loop.c ****   if (MC_NULL == pHandle)
 130:MCSDK_v6.3.2-Full/MotorControl/MCSDK/MCLib/Any/Src/open_loop.c ****   {
 131:MCSDK_v6.3.2-Full/MotorControl/MCSDK/MCLib/Any/Src/open_loop.c ****     /* Nothing to do */
 132:MCSDK_v6.3.2-Full/MotorControl/MCSDK/MCLib/Any/Src/open_loop.c ****   }
 133:MCSDK_v6.3.2-Full/MotorControl/MCSDK/MCLib/Any/Src/open_loop.c ****   else
 134:MCSDK_v6.3.2-Full/MotorControl/MCSDK/MCLib/Any/Src/open_loop.c ****   {
 135:MCSDK_v6.3.2-Full/MotorControl/MCSDK/MCLib/Any/Src/open_loop.c **** #endif
 136:MCSDK_v6.3.2-Full/MotorControl/MCSDK/MCLib/Any/Src/open_loop.c ****     pHandle->VFMode = VFEnabling;
ARM GAS  /tmp/cc8K4Yz1.s 			page 6


 154              		.loc 1 136 5 view .LVU32
 155              		.loc 1 136 21 is_stmt 0 view .LVU33
 156 0000 8170     		strb	r1, [r0, #2]
 137:MCSDK_v6.3.2-Full/MotorControl/MCSDK/MCLib/Any/Src/open_loop.c **** #ifdef NULL_PTR_CHECK_OPEN_LOOP
 138:MCSDK_v6.3.2-Full/MotorControl/MCSDK/MCLib/Any/Src/open_loop.c ****   }
 139:MCSDK_v6.3.2-Full/MotorControl/MCSDK/MCLib/Any/Src/open_loop.c **** #endif
 140:MCSDK_v6.3.2-Full/MotorControl/MCSDK/MCLib/Any/Src/open_loop.c **** }
 157              		.loc 1 140 1 view .LVU34
 158 0002 7047     		bx	lr
 159              		.cfi_endproc
 160              	.LFE1445:
 162              		.text
 163              	.Letext0:
 164              		.file 2 "/usr/share/gcc-arm-none-eabi-10-2020-q4-major/arm-none-eabi/include/machine/_default_type
 165              		.file 3 "/usr/share/gcc-arm-none-eabi-10-2020-q4-major/arm-none-eabi/include/sys/_stdint.h"
 166              		.file 4 "Drivers/STM32G4xx_HAL_Driver/Inc/stm32g4xx_ll_tim.h"
 167              		.file 5 "Drivers/STM32G4xx_HAL_Driver/Inc/stm32g4xx_ll_usart.h"
 168              		.file 6 "Drivers/STM32G4xx_HAL_Driver/Inc/stm32g4xx_ll_dma.h"
 169              		.file 7 "Inc/mc_type.h"
 170              		.file 8 "MCSDK_v6.3.2-Full/MotorControl/MCSDK/MCLib/Any/Inc/speed_pos_fdbk.h"
 171              		.file 9 "MCSDK_v6.3.2-Full/MotorControl/MCSDK/MCLib/Any/Inc/virtual_speed_sensor.h"
 172              		.file 10 "MCSDK_v6.3.2-Full/MotorControl/MCSDK/MCLib/Any/Inc/open_loop.h"
ARM GAS  /tmp/cc8K4Yz1.s 			page 7

