ARM GAS  /tmp/ccDJqlxe.s 			page 1


   1              		.cpu cortex-m4
   2              		.eabi_attribute 27, 1
   3              		.eabi_attribute 28, 1
   4              		.eabi_attribute 20, 1
   5              		.eabi_attribute 21, 1
   6              		.eabi_attribute 23, 3
   7              		.eabi_attribute 24, 1
   8              		.eabi_attribute 25, 1
   9              		.eabi_attribute 26, 1
  10              		.eabi_attribute 30, 1
  11              		.eabi_attribute 34, 1
  12              		.eabi_attribute 18, 2
  13              		.file	"pqd_motor_power_measurement.c"
  14              		.text
  15              	.Ltext0:
  16              		.cfi_sections	.debug_frame
  17              		.section	.text.PQD_CalcElMotorPower,"ax",%progbits
  18              		.align	1
  19              		.weak	PQD_CalcElMotorPower
  20              		.arch armv7e-m
  21              		.syntax unified
  22              		.thumb
  23              		.thumb_func
  24              		.fpu fpv4-sp-d16
  26              	PQD_CalcElMotorPower:
  27              	.LVL0:
  28              	.LFB1437:
  29              		.file 1 "MCSDK_v6.3.2-Full/MotorControl/MCSDK/MCLib/Any/Src/pqd_motor_power_measurement.c"
   1:MCSDK_v6.3.2-Full/MotorControl/MCSDK/MCLib/Any/Src/pqd_motor_power_measurement.c **** /**
   2:MCSDK_v6.3.2-Full/MotorControl/MCSDK/MCLib/Any/Src/pqd_motor_power_measurement.c ****   ******************************************************************************
   3:MCSDK_v6.3.2-Full/MotorControl/MCSDK/MCLib/Any/Src/pqd_motor_power_measurement.c ****   * @file    pqd_motor_power_measurement.c
   4:MCSDK_v6.3.2-Full/MotorControl/MCSDK/MCLib/Any/Src/pqd_motor_power_measurement.c ****   * @author  Motor Control SDK Team, ST Microelectronics
   5:MCSDK_v6.3.2-Full/MotorControl/MCSDK/MCLib/Any/Src/pqd_motor_power_measurement.c ****   * @brief   This file provides the functions that implement the  features of the 
   6:MCSDK_v6.3.2-Full/MotorControl/MCSDK/MCLib/Any/Src/pqd_motor_power_measurement.c ****   *          PQD Motor Power Measurement component of the Motor Control SDK.
   7:MCSDK_v6.3.2-Full/MotorControl/MCSDK/MCLib/Any/Src/pqd_motor_power_measurement.c ****   *
   8:MCSDK_v6.3.2-Full/MotorControl/MCSDK/MCLib/Any/Src/pqd_motor_power_measurement.c ****   ******************************************************************************
   9:MCSDK_v6.3.2-Full/MotorControl/MCSDK/MCLib/Any/Src/pqd_motor_power_measurement.c ****   * @attention
  10:MCSDK_v6.3.2-Full/MotorControl/MCSDK/MCLib/Any/Src/pqd_motor_power_measurement.c ****   *
  11:MCSDK_v6.3.2-Full/MotorControl/MCSDK/MCLib/Any/Src/pqd_motor_power_measurement.c ****   * <h2><center>&copy; Copyright (c) 2024 STMicroelectronics.
  12:MCSDK_v6.3.2-Full/MotorControl/MCSDK/MCLib/Any/Src/pqd_motor_power_measurement.c ****   * All rights reserved.</center></h2>
  13:MCSDK_v6.3.2-Full/MotorControl/MCSDK/MCLib/Any/Src/pqd_motor_power_measurement.c ****   *
  14:MCSDK_v6.3.2-Full/MotorControl/MCSDK/MCLib/Any/Src/pqd_motor_power_measurement.c ****   * This software component is licensed by ST under Ultimate Liberty license
  15:MCSDK_v6.3.2-Full/MotorControl/MCSDK/MCLib/Any/Src/pqd_motor_power_measurement.c ****   * SLA0044, the "License"; You may not use this file except in compliance with
  16:MCSDK_v6.3.2-Full/MotorControl/MCSDK/MCLib/Any/Src/pqd_motor_power_measurement.c ****   * the License. You may obtain a copy of the License at:
  17:MCSDK_v6.3.2-Full/MotorControl/MCSDK/MCLib/Any/Src/pqd_motor_power_measurement.c ****   *                             www.st.com/SLA0044
  18:MCSDK_v6.3.2-Full/MotorControl/MCSDK/MCLib/Any/Src/pqd_motor_power_measurement.c ****   *
  19:MCSDK_v6.3.2-Full/MotorControl/MCSDK/MCLib/Any/Src/pqd_motor_power_measurement.c ****   ******************************************************************************
  20:MCSDK_v6.3.2-Full/MotorControl/MCSDK/MCLib/Any/Src/pqd_motor_power_measurement.c ****   * @ingroup pqd_motorpowermeasurement
  21:MCSDK_v6.3.2-Full/MotorControl/MCSDK/MCLib/Any/Src/pqd_motor_power_measurement.c ****   */
  22:MCSDK_v6.3.2-Full/MotorControl/MCSDK/MCLib/Any/Src/pqd_motor_power_measurement.c **** 
  23:MCSDK_v6.3.2-Full/MotorControl/MCSDK/MCLib/Any/Src/pqd_motor_power_measurement.c **** /* Includes ------------------------------------------------------------------*/
  24:MCSDK_v6.3.2-Full/MotorControl/MCSDK/MCLib/Any/Src/pqd_motor_power_measurement.c **** 
  25:MCSDK_v6.3.2-Full/MotorControl/MCSDK/MCLib/Any/Src/pqd_motor_power_measurement.c **** #include "pqd_motor_power_measurement.h"
  26:MCSDK_v6.3.2-Full/MotorControl/MCSDK/MCLib/Any/Src/pqd_motor_power_measurement.c **** #include "mc_type.h"
  27:MCSDK_v6.3.2-Full/MotorControl/MCSDK/MCLib/Any/Src/pqd_motor_power_measurement.c **** 
  28:MCSDK_v6.3.2-Full/MotorControl/MCSDK/MCLib/Any/Src/pqd_motor_power_measurement.c **** 
  29:MCSDK_v6.3.2-Full/MotorControl/MCSDK/MCLib/Any/Src/pqd_motor_power_measurement.c **** /** @addtogroup MCSDK
ARM GAS  /tmp/ccDJqlxe.s 			page 2


  30:MCSDK_v6.3.2-Full/MotorControl/MCSDK/MCLib/Any/Src/pqd_motor_power_measurement.c ****   * @{
  31:MCSDK_v6.3.2-Full/MotorControl/MCSDK/MCLib/Any/Src/pqd_motor_power_measurement.c ****   */
  32:MCSDK_v6.3.2-Full/MotorControl/MCSDK/MCLib/Any/Src/pqd_motor_power_measurement.c **** 
  33:MCSDK_v6.3.2-Full/MotorControl/MCSDK/MCLib/Any/Src/pqd_motor_power_measurement.c **** /** @defgroup pqd_motorpowermeasurement PQD Motor Power Measurement
  34:MCSDK_v6.3.2-Full/MotorControl/MCSDK/MCLib/Any/Src/pqd_motor_power_measurement.c ****   * @brief Motor Power Measurement component using DQ-frame current and voltage values 
  35:MCSDK_v6.3.2-Full/MotorControl/MCSDK/MCLib/Any/Src/pqd_motor_power_measurement.c ****   *
  36:MCSDK_v6.3.2-Full/MotorControl/MCSDK/MCLib/Any/Src/pqd_motor_power_measurement.c ****   * The PQD Motor Power Measurement component uses @f$I_d@f$, @f$I_q@f$, @f$V_d@f$ and @f$V_q@f$
  37:MCSDK_v6.3.2-Full/MotorControl/MCSDK/MCLib/Any/Src/pqd_motor_power_measurement.c ****   * to compute the electrical power flowing through the motor.
  38:MCSDK_v6.3.2-Full/MotorControl/MCSDK/MCLib/Any/Src/pqd_motor_power_measurement.c ****   * 
  39:MCSDK_v6.3.2-Full/MotorControl/MCSDK/MCLib/Any/Src/pqd_motor_power_measurement.c ****   * These values are periodically sampled from the current regulation loop and used to compute 
  40:MCSDK_v6.3.2-Full/MotorControl/MCSDK/MCLib/Any/Src/pqd_motor_power_measurement.c ****   * instantaneous power values. The instantaneous values are then used to compute an average
  41:MCSDK_v6.3.2-Full/MotorControl/MCSDK/MCLib/Any/Src/pqd_motor_power_measurement.c ****   * power value that is stored. These computations are done with integer operations and the
  42:MCSDK_v6.3.2-Full/MotorControl/MCSDK/MCLib/Any/Src/pqd_motor_power_measurement.c ****   * average value is store as an integer, in s16 digit format (s16A x s16V unit). 
  43:MCSDK_v6.3.2-Full/MotorControl/MCSDK/MCLib/Any/Src/pqd_motor_power_measurement.c ****   * 
  44:MCSDK_v6.3.2-Full/MotorControl/MCSDK/MCLib/Any/Src/pqd_motor_power_measurement.c ****   * The PQD Motor Power Measurement component provides an interface, PQD_GetAvrgElMotorPowerW()
  45:MCSDK_v6.3.2-Full/MotorControl/MCSDK/MCLib/Any/Src/pqd_motor_power_measurement.c ****   * that converts the int16_t digit average power into a floating point value expressed in
  46:MCSDK_v6.3.2-Full/MotorControl/MCSDK/MCLib/Any/Src/pqd_motor_power_measurement.c ****   * Watts.
  47:MCSDK_v6.3.2-Full/MotorControl/MCSDK/MCLib/Any/Src/pqd_motor_power_measurement.c ****   *
  48:MCSDK_v6.3.2-Full/MotorControl/MCSDK/MCLib/Any/Src/pqd_motor_power_measurement.c ****   * @{
  49:MCSDK_v6.3.2-Full/MotorControl/MCSDK/MCLib/Any/Src/pqd_motor_power_measurement.c ****   */
  50:MCSDK_v6.3.2-Full/MotorControl/MCSDK/MCLib/Any/Src/pqd_motor_power_measurement.c **** 
  51:MCSDK_v6.3.2-Full/MotorControl/MCSDK/MCLib/Any/Src/pqd_motor_power_measurement.c **** /**
  52:MCSDK_v6.3.2-Full/MotorControl/MCSDK/MCLib/Any/Src/pqd_motor_power_measurement.c ****   * @brief Updates the average electrical motor power measure with the latest values 
  53:MCSDK_v6.3.2-Full/MotorControl/MCSDK/MCLib/Any/Src/pqd_motor_power_measurement.c ****   *        of the DQ currents and voltages.
  54:MCSDK_v6.3.2-Full/MotorControl/MCSDK/MCLib/Any/Src/pqd_motor_power_measurement.c ****   * 
  55:MCSDK_v6.3.2-Full/MotorControl/MCSDK/MCLib/Any/Src/pqd_motor_power_measurement.c ****   * This method should be called with Medium Frequency Task periodicity. It computes an
  56:MCSDK_v6.3.2-Full/MotorControl/MCSDK/MCLib/Any/Src/pqd_motor_power_measurement.c ****   * instantaneous power value using the latest @f$I_{qd}@f$ and @f$V_{qd}@f$ data available
  57:MCSDK_v6.3.2-Full/MotorControl/MCSDK/MCLib/Any/Src/pqd_motor_power_measurement.c ****   * and uses it to update the average motor power value. 
  58:MCSDK_v6.3.2-Full/MotorControl/MCSDK/MCLib/Any/Src/pqd_motor_power_measurement.c ****   * 
  59:MCSDK_v6.3.2-Full/MotorControl/MCSDK/MCLib/Any/Src/pqd_motor_power_measurement.c ****   * Computations are done on s16A and s16V integer values defined in
  60:MCSDK_v6.3.2-Full/MotorControl/MCSDK/MCLib/Any/Src/pqd_motor_power_measurement.c ****   * [Current measurement unit](measurement_units.md). The average motor power value is
  61:MCSDK_v6.3.2-Full/MotorControl/MCSDK/MCLib/Any/Src/pqd_motor_power_measurement.c ****   * computed as an int16_t value.
  62:MCSDK_v6.3.2-Full/MotorControl/MCSDK/MCLib/Any/Src/pqd_motor_power_measurement.c ****   * 
  63:MCSDK_v6.3.2-Full/MotorControl/MCSDK/MCLib/Any/Src/pqd_motor_power_measurement.c ****   * @param pHandle Handle on the related PQD Motor Power Measurement component instance.
  64:MCSDK_v6.3.2-Full/MotorControl/MCSDK/MCLib/Any/Src/pqd_motor_power_measurement.c ****   */
  65:MCSDK_v6.3.2-Full/MotorControl/MCSDK/MCLib/Any/Src/pqd_motor_power_measurement.c **** __weak void PQD_CalcElMotorPower(PQD_MotorPowMeas_Handle_t *pHandle)
  66:MCSDK_v6.3.2-Full/MotorControl/MCSDK/MCLib/Any/Src/pqd_motor_power_measurement.c **** {
  30              		.loc 1 66 1 view -0
  31              		.cfi_startproc
  32              		@ args = 0, pretend = 0, frame = 0
  33              		@ frame_needed = 0, uses_anonymous_args = 0
  34              		@ link register save eliminated.
  67:MCSDK_v6.3.2-Full/MotorControl/MCSDK/MCLib/Any/Src/pqd_motor_power_measurement.c **** #ifdef NULL_PTR_CHECK_PQD_MOT_POW_MEAS
  68:MCSDK_v6.3.2-Full/MotorControl/MCSDK/MCLib/Any/Src/pqd_motor_power_measurement.c ****   if (MC_NULL == pHandle)
  69:MCSDK_v6.3.2-Full/MotorControl/MCSDK/MCLib/Any/Src/pqd_motor_power_measurement.c ****   {
  70:MCSDK_v6.3.2-Full/MotorControl/MCSDK/MCLib/Any/Src/pqd_motor_power_measurement.c ****     /* Nothing to do */
  71:MCSDK_v6.3.2-Full/MotorControl/MCSDK/MCLib/Any/Src/pqd_motor_power_measurement.c ****   }
  72:MCSDK_v6.3.2-Full/MotorControl/MCSDK/MCLib/Any/Src/pqd_motor_power_measurement.c ****   else
  73:MCSDK_v6.3.2-Full/MotorControl/MCSDK/MCLib/Any/Src/pqd_motor_power_measurement.c ****   {
  74:MCSDK_v6.3.2-Full/MotorControl/MCSDK/MCLib/Any/Src/pqd_motor_power_measurement.c **** #endif
  75:MCSDK_v6.3.2-Full/MotorControl/MCSDK/MCLib/Any/Src/pqd_motor_power_measurement.c ****     int32_t wAux;
  35              		.loc 1 75 5 view .LVU1
  76:MCSDK_v6.3.2-Full/MotorControl/MCSDK/MCLib/Any/Src/pqd_motor_power_measurement.c ****     qd_t Iqd = pHandle->pFOCVars->Iqd;
  36              		.loc 1 76 5 view .LVU2
  37              		.loc 1 76 23 is_stmt 0 view .LVU3
  38 0000 8268     		ldr	r2, [r0, #8]
  39              	.LVL1:
ARM GAS  /tmp/ccDJqlxe.s 			page 3


  77:MCSDK_v6.3.2-Full/MotorControl/MCSDK/MCLib/Any/Src/pqd_motor_power_measurement.c ****     qd_t Vqd = pHandle->pFOCVars->Vqd;
  40              		.loc 1 77 5 is_stmt 1 view .LVU4
  78:MCSDK_v6.3.2-Full/MotorControl/MCSDK/MCLib/Any/Src/pqd_motor_power_measurement.c **** 
  79:MCSDK_v6.3.2-Full/MotorControl/MCSDK/MCLib/Any/Src/pqd_motor_power_measurement.c ****     wAux = ((int32_t)Iqd.q * (int32_t)Vqd.q)
  41              		.loc 1 79 5 view .LVU5
  42              		.loc 1 79 13 is_stmt 0 view .LVU6
  43 0002 B2F90C10 		ldrsh	r1, [r2, #12]
  44              		.loc 1 79 30 view .LVU7
  45 0006 B2F916C0 		ldrsh	ip, [r2, #22]
  80:MCSDK_v6.3.2-Full/MotorControl/MCSDK/MCLib/Any/Src/pqd_motor_power_measurement.c ****          + ((int32_t)Iqd.d * (int32_t)Vqd.d);
  46              		.loc 1 80 13 view .LVU8
  47 000a B2F90E30 		ldrsh	r3, [r2, #14]
  48              		.loc 1 80 30 view .LVU9
  49 000e B2F91820 		ldrsh	r2, [r2, #24]
  50              	.LVL2:
  51              		.loc 1 80 28 view .LVU10
  52 0012 02FB03F3 		mul	r3, r2, r3
  79:MCSDK_v6.3.2-Full/MotorControl/MCSDK/MCLib/Any/Src/pqd_motor_power_measurement.c ****          + ((int32_t)Iqd.d * (int32_t)Vqd.d);
  53              		.loc 1 79 10 view .LVU11
  54 0016 0CFB0133 		mla	r3, ip, r1, r3
  55              	.LVL3:
  81:MCSDK_v6.3.2-Full/MotorControl/MCSDK/MCLib/Any/Src/pqd_motor_power_measurement.c ****     wAux /= 65536;
  56              		.loc 1 81 5 is_stmt 1 view .LVU12
  82:MCSDK_v6.3.2-Full/MotorControl/MCSDK/MCLib/Any/Src/pqd_motor_power_measurement.c **** 
  83:MCSDK_v6.3.2-Full/MotorControl/MCSDK/MCLib/Any/Src/pqd_motor_power_measurement.c ****     /* pHandle->hAvrgElMotorPower += (wAux - pHandle->hAvrgElMotorPower) >> 4 */
  84:MCSDK_v6.3.2-Full/MotorControl/MCSDK/MCLib/Any/Src/pqd_motor_power_measurement.c ****     pHandle->hAvrgElMotorPower += (int16_t)((wAux - (int32_t)pHandle->hAvrgElMotorPower) / 16);
  57              		.loc 1 84 5 view .LVU13
  58              		.loc 1 84 32 is_stmt 0 view .LVU14
  59 001a B0F90010 		ldrsh	r1, [r0]
  81:MCSDK_v6.3.2-Full/MotorControl/MCSDK/MCLib/Any/Src/pqd_motor_power_measurement.c ****     wAux /= 65536;
  60              		.loc 1 81 10 view .LVU15
  61 001e 1A46     		mov	r2, r3
  62 0020 002B     		cmp	r3, #0
  63 0022 BCBF     		itt	lt
  64 0024 03F57F42 		addlt	r2, r3, #65280
  65 0028 FF32     		addlt	r2, r2, #255
  66              		.loc 1 84 90 view .LVU16
  67 002a D1EB2242 		rsbs	r2, r1, r2, asr #16
  68 002e 48BF     		it	mi
  69 0030 0F32     		addmi	r2, r2, #15
  70              		.loc 1 84 32 view .LVU17
  71 0032 01EB2212 		add	r2, r1, r2, asr #4
  72 0036 0280     		strh	r2, [r0]	@ movhi
  73              	.LVL4:
  85:MCSDK_v6.3.2-Full/MotorControl/MCSDK/MCLib/Any/Src/pqd_motor_power_measurement.c **** 
  86:MCSDK_v6.3.2-Full/MotorControl/MCSDK/MCLib/Any/Src/pqd_motor_power_measurement.c **** #ifdef NULL_PTR_CHECK_PQD_MOT_POW_MEAS
  87:MCSDK_v6.3.2-Full/MotorControl/MCSDK/MCLib/Any/Src/pqd_motor_power_measurement.c ****   }
  88:MCSDK_v6.3.2-Full/MotorControl/MCSDK/MCLib/Any/Src/pqd_motor_power_measurement.c **** #endif
  89:MCSDK_v6.3.2-Full/MotorControl/MCSDK/MCLib/Any/Src/pqd_motor_power_measurement.c **** }
  74              		.loc 1 89 1 view .LVU18
  75 0038 7047     		bx	lr
  76              		.cfi_endproc
  77              	.LFE1437:
  79              		.section	.text.PQD_Clear,"ax",%progbits
  80              		.align	1
  81              		.weak	PQD_Clear
  82              		.syntax unified
ARM GAS  /tmp/ccDJqlxe.s 			page 4


  83              		.thumb
  84              		.thumb_func
  85              		.fpu fpv4-sp-d16
  87              	PQD_Clear:
  88              	.LVL5:
  89              	.LFB1438:
  90:MCSDK_v6.3.2-Full/MotorControl/MCSDK/MCLib/Any/Src/pqd_motor_power_measurement.c **** 
  91:MCSDK_v6.3.2-Full/MotorControl/MCSDK/MCLib/Any/Src/pqd_motor_power_measurement.c **** /**
  92:MCSDK_v6.3.2-Full/MotorControl/MCSDK/MCLib/Any/Src/pqd_motor_power_measurement.c ****   * @brief  Clears the int16_t digit average motor power value stored in the handle.
  93:MCSDK_v6.3.2-Full/MotorControl/MCSDK/MCLib/Any/Src/pqd_motor_power_measurement.c ****   * 
  94:MCSDK_v6.3.2-Full/MotorControl/MCSDK/MCLib/Any/Src/pqd_motor_power_measurement.c ****   * This function should be called before each motor start.
  95:MCSDK_v6.3.2-Full/MotorControl/MCSDK/MCLib/Any/Src/pqd_motor_power_measurement.c ****   * 
  96:MCSDK_v6.3.2-Full/MotorControl/MCSDK/MCLib/Any/Src/pqd_motor_power_measurement.c ****   * @param pHandle Handle on the related PQD Motor Power Measurement component instance.
  97:MCSDK_v6.3.2-Full/MotorControl/MCSDK/MCLib/Any/Src/pqd_motor_power_measurement.c ****   */
  98:MCSDK_v6.3.2-Full/MotorControl/MCSDK/MCLib/Any/Src/pqd_motor_power_measurement.c **** __weak void PQD_Clear(PQD_MotorPowMeas_Handle_t *pHandle)
  99:MCSDK_v6.3.2-Full/MotorControl/MCSDK/MCLib/Any/Src/pqd_motor_power_measurement.c **** {
  90              		.loc 1 99 1 is_stmt 1 view -0
  91              		.cfi_startproc
  92              		@ args = 0, pretend = 0, frame = 0
  93              		@ frame_needed = 0, uses_anonymous_args = 0
  94              		@ link register save eliminated.
 100:MCSDK_v6.3.2-Full/MotorControl/MCSDK/MCLib/Any/Src/pqd_motor_power_measurement.c **** #ifdef NULL_PTR_CHECK_MOT_POW_MES
 101:MCSDK_v6.3.2-Full/MotorControl/MCSDK/MCLib/Any/Src/pqd_motor_power_measurement.c ****   if (MC_NULL == pHandle)
 102:MCSDK_v6.3.2-Full/MotorControl/MCSDK/MCLib/Any/Src/pqd_motor_power_measurement.c ****   {
 103:MCSDK_v6.3.2-Full/MotorControl/MCSDK/MCLib/Any/Src/pqd_motor_power_measurement.c ****     /* nothing to do */
 104:MCSDK_v6.3.2-Full/MotorControl/MCSDK/MCLib/Any/Src/pqd_motor_power_measurement.c ****   }
 105:MCSDK_v6.3.2-Full/MotorControl/MCSDK/MCLib/Any/Src/pqd_motor_power_measurement.c ****   else
 106:MCSDK_v6.3.2-Full/MotorControl/MCSDK/MCLib/Any/Src/pqd_motor_power_measurement.c ****   {
 107:MCSDK_v6.3.2-Full/MotorControl/MCSDK/MCLib/Any/Src/pqd_motor_power_measurement.c **** #endif
 108:MCSDK_v6.3.2-Full/MotorControl/MCSDK/MCLib/Any/Src/pqd_motor_power_measurement.c ****     pHandle->hAvrgElMotorPower = 0;
  95              		.loc 1 108 5 view .LVU20
  96              		.loc 1 108 32 is_stmt 0 view .LVU21
  97 0000 0023     		movs	r3, #0
  98 0002 0380     		strh	r3, [r0]	@ movhi
 109:MCSDK_v6.3.2-Full/MotorControl/MCSDK/MCLib/Any/Src/pqd_motor_power_measurement.c **** #ifdef NULL_PTR_CHECK_MOT_POW_MES
 110:MCSDK_v6.3.2-Full/MotorControl/MCSDK/MCLib/Any/Src/pqd_motor_power_measurement.c ****   }
 111:MCSDK_v6.3.2-Full/MotorControl/MCSDK/MCLib/Any/Src/pqd_motor_power_measurement.c **** #endif
 112:MCSDK_v6.3.2-Full/MotorControl/MCSDK/MCLib/Any/Src/pqd_motor_power_measurement.c **** }
  99              		.loc 1 112 1 view .LVU22
 100 0004 7047     		bx	lr
 101              		.cfi_endproc
 102              	.LFE1438:
 104              		.section	.text.PQD_GetAvrgElMotorPowerW,"ax",%progbits
 105              		.align	1
 106              		.weak	PQD_GetAvrgElMotorPowerW
 107              		.syntax unified
 108              		.thumb
 109              		.thumb_func
 110              		.fpu fpv4-sp-d16
 112              	PQD_GetAvrgElMotorPowerW:
 113              	.LVL6:
 114              	.LFB1439:
 113:MCSDK_v6.3.2-Full/MotorControl/MCSDK/MCLib/Any/Src/pqd_motor_power_measurement.c **** 
 114:MCSDK_v6.3.2-Full/MotorControl/MCSDK/MCLib/Any/Src/pqd_motor_power_measurement.c **** /**
 115:MCSDK_v6.3.2-Full/MotorControl/MCSDK/MCLib/Any/Src/pqd_motor_power_measurement.c ****   * @brief Returns an average value of the measured motor power expressed in Watts
 116:MCSDK_v6.3.2-Full/MotorControl/MCSDK/MCLib/Any/Src/pqd_motor_power_measurement.c ****   * 
 117:MCSDK_v6.3.2-Full/MotorControl/MCSDK/MCLib/Any/Src/pqd_motor_power_measurement.c ****   * This function converts the int16_t digit average motor power value stored in the handle
ARM GAS  /tmp/ccDJqlxe.s 			page 5


 118:MCSDK_v6.3.2-Full/MotorControl/MCSDK/MCLib/Any/Src/pqd_motor_power_measurement.c ****   * in a floating point value in Watts.
 119:MCSDK_v6.3.2-Full/MotorControl/MCSDK/MCLib/Any/Src/pqd_motor_power_measurement.c ****   * 
 120:MCSDK_v6.3.2-Full/MotorControl/MCSDK/MCLib/Any/Src/pqd_motor_power_measurement.c ****   * @param pHandle pointer on the related component instance.
 121:MCSDK_v6.3.2-Full/MotorControl/MCSDK/MCLib/Any/Src/pqd_motor_power_measurement.c ****   * @retval float_t The average measured motor power expressed in Watts.
 122:MCSDK_v6.3.2-Full/MotorControl/MCSDK/MCLib/Any/Src/pqd_motor_power_measurement.c ****   */
 123:MCSDK_v6.3.2-Full/MotorControl/MCSDK/MCLib/Any/Src/pqd_motor_power_measurement.c **** __weak float_t PQD_GetAvrgElMotorPowerW(const PQD_MotorPowMeas_Handle_t *pHandle)
 124:MCSDK_v6.3.2-Full/MotorControl/MCSDK/MCLib/Any/Src/pqd_motor_power_measurement.c **** {
 115              		.loc 1 124 1 is_stmt 1 view -0
 116              		.cfi_startproc
 117              		@ args = 0, pretend = 0, frame = 0
 118              		@ frame_needed = 0, uses_anonymous_args = 0
 119              		.loc 1 124 1 is_stmt 0 view .LVU24
 120 0000 10B5     		push	{r4, lr}
 121              	.LCFI0:
 122              		.cfi_def_cfa_offset 8
 123              		.cfi_offset 4, -8
 124              		.cfi_offset 14, -4
 125 0002 2DED028B 		vpush.64	{d8}
 126              	.LCFI1:
 127              		.cfi_def_cfa_offset 16
 128              		.cfi_offset 80, -16
 129              		.cfi_offset 81, -12
 130 0006 0446     		mov	r4, r0
 125:MCSDK_v6.3.2-Full/MotorControl/MCSDK/MCLib/Any/Src/pqd_motor_power_measurement.c ****   float_t PowerW = 0.0f;
 131              		.loc 1 125 3 is_stmt 1 view .LVU25
 132              	.LVL7:
 126:MCSDK_v6.3.2-Full/MotorControl/MCSDK/MCLib/Any/Src/pqd_motor_power_measurement.c ****   
 127:MCSDK_v6.3.2-Full/MotorControl/MCSDK/MCLib/Any/Src/pqd_motor_power_measurement.c **** #ifdef NULL_PTR_CHECK_PQD_MOT_POW_MEAS
 128:MCSDK_v6.3.2-Full/MotorControl/MCSDK/MCLib/Any/Src/pqd_motor_power_measurement.c ****   if (MC_NULL == pHandle)
 129:MCSDK_v6.3.2-Full/MotorControl/MCSDK/MCLib/Any/Src/pqd_motor_power_measurement.c ****   {
 130:MCSDK_v6.3.2-Full/MotorControl/MCSDK/MCLib/Any/Src/pqd_motor_power_measurement.c ****     /* Nothing to do */
 131:MCSDK_v6.3.2-Full/MotorControl/MCSDK/MCLib/Any/Src/pqd_motor_power_measurement.c ****   }
 132:MCSDK_v6.3.2-Full/MotorControl/MCSDK/MCLib/Any/Src/pqd_motor_power_measurement.c ****   else
 133:MCSDK_v6.3.2-Full/MotorControl/MCSDK/MCLib/Any/Src/pqd_motor_power_measurement.c ****   {
 134:MCSDK_v6.3.2-Full/MotorControl/MCSDK/MCLib/Any/Src/pqd_motor_power_measurement.c **** #endif
 135:MCSDK_v6.3.2-Full/MotorControl/MCSDK/MCLib/Any/Src/pqd_motor_power_measurement.c **** 
 136:MCSDK_v6.3.2-Full/MotorControl/MCSDK/MCLib/Any/Src/pqd_motor_power_measurement.c ****   /* First perform an integer multiplication, then a float one. */
 137:MCSDK_v6.3.2-Full/MotorControl/MCSDK/MCLib/Any/Src/pqd_motor_power_measurement.c ****   PowerW = ((float_t)pHandle->hAvrgElMotorPower * (float_t)VBS_GetAvBusVoltage_V(pHandle->pVBS)) * 
 133              		.loc 1 137 3 view .LVU26
 134              		.loc 1 137 13 is_stmt 0 view .LVU27
 135 0008 B0F90030 		ldrsh	r3, [r0]
 136 000c 07EE903A 		vmov	s15, r3	@ int
 137 0010 B8EEE78A 		vcvt.f32.s32	s16, s15
 138              		.loc 1 137 60 view .LVU28
 139 0014 C068     		ldr	r0, [r0, #12]
 140              	.LVL8:
 141              		.loc 1 137 60 view .LVU29
 142 0016 FFF7FEFF 		bl	VBS_GetAvBusVoltage_V
 143              	.LVL9:
 144 001a 07EE900A 		vmov	s15, r0	@ int
 145              	.LVL10:
 138:MCSDK_v6.3.2-Full/MotorControl/MCSDK/MCLib/Any/Src/pqd_motor_power_measurement.c **** 
 139:MCSDK_v6.3.2-Full/MotorControl/MCSDK/MCLib/Any/Src/pqd_motor_power_measurement.c **** #ifdef NULL_PTR_CHECK_PQD_MOT_POW_MEAS
 140:MCSDK_v6.3.2-Full/MotorControl/MCSDK/MCLib/Any/Src/pqd_motor_power_measurement.c ****   }
 141:MCSDK_v6.3.2-Full/MotorControl/MCSDK/MCLib/Any/Src/pqd_motor_power_measurement.c **** #endif
 142:MCSDK_v6.3.2-Full/MotorControl/MCSDK/MCLib/Any/Src/pqd_motor_power_measurement.c ****   return (PowerW);
 146              		.loc 1 142 3 is_stmt 1 view .LVU30
ARM GAS  /tmp/ccDJqlxe.s 			page 6


 137:MCSDK_v6.3.2-Full/MotorControl/MCSDK/MCLib/Any/Src/pqd_motor_power_measurement.c **** 
 147              		.loc 1 137 51 is_stmt 0 view .LVU31
 148 001e F8EE677A 		vcvt.f32.u32	s15, s15
 149              	.LVL11:
 137:MCSDK_v6.3.2-Full/MotorControl/MCSDK/MCLib/Any/Src/pqd_motor_power_measurement.c **** 
 150              		.loc 1 137 49 view .LVU32
 151 0022 67EE887A 		vmul.f32	s15, s15, s16
 137:MCSDK_v6.3.2-Full/MotorControl/MCSDK/MCLib/Any/Src/pqd_motor_power_measurement.c **** 
 152              		.loc 1 137 10 view .LVU33
 153 0026 94ED010A 		vldr.32	s0, [r4, #4]
 143:MCSDK_v6.3.2-Full/MotorControl/MCSDK/MCLib/Any/Src/pqd_motor_power_measurement.c **** }
 154              		.loc 1 143 1 view .LVU34
 155 002a 27EE800A 		vmul.f32	s0, s15, s0
 156 002e BDEC028B 		vldm	sp!, {d8}
 157              	.LCFI2:
 158              		.cfi_restore 80
 159              		.cfi_restore 81
 160              		.cfi_def_cfa_offset 8
 161 0032 10BD     		pop	{r4, pc}
 162              		.loc 1 143 1 view .LVU35
 163              		.cfi_endproc
 164              	.LFE1439:
 166              		.text
 167              	.Letext0:
 168              		.file 2 "/usr/share/gcc-arm-none-eabi-10-2020-q4-major/arm-none-eabi/include/machine/_default_type
 169              		.file 3 "/usr/share/gcc-arm-none-eabi-10-2020-q4-major/arm-none-eabi/include/sys/_stdint.h"
 170              		.file 4 "Drivers/STM32G4xx_HAL_Driver/Inc/stm32g4xx_ll_tim.h"
 171              		.file 5 "Drivers/STM32G4xx_HAL_Driver/Inc/stm32g4xx_ll_usart.h"
 172              		.file 6 "Drivers/STM32G4xx_HAL_Driver/Inc/stm32g4xx_ll_dma.h"
 173              		.file 7 "Inc/mc_type.h"
 174              		.file 8 "MCSDK_v6.3.2-Full/MotorControl/MCSDK/MCLib/Any/Inc/bus_voltage_sensor.h"
 175              		.file 9 "MCSDK_v6.3.2-Full/MotorControl/MCSDK/MCLib/Any/Inc/pqd_motor_power_measurement.h"
ARM GAS  /tmp/ccDJqlxe.s 			page 7

