ARM GAS  /tmp/ccKFuU3x.s 			page 1


   1              		.cpu cortex-m4
   2              		.eabi_attribute 27, 1
   3              		.eabi_attribute 28, 1
   4              		.eabi_attribute 20, 1
   5              		.eabi_attribute 21, 1
   6              		.eabi_attribute 23, 3
   7              		.eabi_attribute 24, 1
   8              		.eabi_attribute 25, 1
   9              		.eabi_attribute 26, 1
  10              		.eabi_attribute 30, 2
  11              		.eabi_attribute 34, 1
  12              		.eabi_attribute 18, 2
  13              		.file	"register_interface.c"
  14              		.text
  15              	.Ltext0:
  16              		.cfi_sections	.debug_frame
  17              		.section	.text.RI_SetRegisterGlobal,"ax",%progbits
  18              		.align	1
  19              		.p2align 2,,3
  20              		.global	RI_SetRegisterGlobal
  21              		.arch armv7e-m
  22              		.syntax unified
  23              		.thumb
  24              		.thumb_func
  25              		.fpu fpv4-sp-d16
  27              	RI_SetRegisterGlobal:
  28              	.LVL0:
  29              	.LFB1713:
  30              		.file 1 "Src/register_interface.c"
   1:Src/register_interface.c **** 
   2:Src/register_interface.c **** /**
   3:Src/register_interface.c ****   ******************************************************************************
   4:Src/register_interface.c ****   * @file    register_interface.c
   5:Src/register_interface.c ****   * @author  Motor Control SDK Team, ST Microelectronics
   6:Src/register_interface.c ****   * @brief   This file provides firmware functions that implement the register access for the MCP p
   7:Src/register_interface.c ****   *
   8:Src/register_interface.c ****   *
   9:Src/register_interface.c ****   ******************************************************************************
  10:Src/register_interface.c ****   * @attention
  11:Src/register_interface.c ****   *
  12:Src/register_interface.c ****   * <h2><center>&copy; Copyright (c) 2024 STMicroelectronics.
  13:Src/register_interface.c ****   * All rights reserved.</center></h2>
  14:Src/register_interface.c ****   *
  15:Src/register_interface.c ****   * This software component is licensed by ST under Ultimate Liberty license
  16:Src/register_interface.c ****   * SLA0044, the "License"; You may not use this file except in compliance with
  17:Src/register_interface.c ****   * the License. You may obtain a copy of the License at:
  18:Src/register_interface.c ****   *                             www.st.com/SLA0044
  19:Src/register_interface.c ****   *
  20:Src/register_interface.c ****   ******************************************************************************
  21:Src/register_interface.c ****   */
  22:Src/register_interface.c **** 
  23:Src/register_interface.c **** #include "mc_type.h"
  24:Src/register_interface.c **** #include "string.h"
  25:Src/register_interface.c **** #include "register_interface.h"
  26:Src/register_interface.c **** #include "mc_config.h"
  27:Src/register_interface.c **** #include "mcp.h"
  28:Src/register_interface.c **** #include "mcp_config.h"
ARM GAS  /tmp/ccKFuU3x.s 			page 2


  29:Src/register_interface.c **** #include "mcpa.h"
  30:Src/register_interface.c **** #include "mp_one_touch_tuning.h"
  31:Src/register_interface.c **** #include "mp_self_com_ctrl.h"
  32:Src/register_interface.c **** #include "mc_configuration_registers.h"
  33:Src/register_interface.c **** 
  34:Src/register_interface.c **** uint8_t RI_SetRegisterGlobal(uint16_t regID, uint8_t typeID, uint8_t *data, uint16_t *size, int16_t
  35:Src/register_interface.c **** {
  31              		.loc 1 35 1 view -0
  32              		.cfi_startproc
  33              		@ args = 4, pretend = 0, frame = 0
  34              		@ frame_needed = 0, uses_anonymous_args = 0
  35              		@ link register save eliminated.
  36:Src/register_interface.c ****   uint8_t retVal = MCP_CMD_OK;
  36              		.loc 1 36 3 view .LVU1
  37:Src/register_interface.c ****   switch(typeID)
  37              		.loc 1 37 3 view .LVU2
  38 0000 1829     		cmp	r1, #24
  35:Src/register_interface.c ****   uint8_t retVal = MCP_CMD_OK;
  39              		.loc 1 35 1 is_stmt 0 view .LVU3
  40 0002 BDF900C0 		ldrsh	ip, [sp]
  41              		.loc 1 37 3 view .LVU4
  42 0006 32D0     		beq	.L2
  43 0008 13D8     		bhi	.L3
  44 000a 0829     		cmp	r1, #8
  45 000c 3BD0     		beq	.L4
  46 000e 1029     		cmp	r1, #16
  47 0010 35D1     		bne	.L6
  38:Src/register_interface.c ****   {
  39:Src/register_interface.c ****     case TYPE_DATA_8BIT:
  40:Src/register_interface.c ****     {
  41:Src/register_interface.c ****       switch (regID)
  42:Src/register_interface.c ****       {
  43:Src/register_interface.c ****         case MC_REG_STATUS:
  44:Src/register_interface.c ****         {
  45:Src/register_interface.c ****           retVal = MCP_ERROR_RO_REG;
  46:Src/register_interface.c ****           break;
  47:Src/register_interface.c ****         }
  48:Src/register_interface.c **** 
  49:Src/register_interface.c ****         default:
  50:Src/register_interface.c ****         {
  51:Src/register_interface.c ****           retVal = MCP_ERROR_UNKNOWN_REG;
  52:Src/register_interface.c ****           break;
  53:Src/register_interface.c ****         }
  54:Src/register_interface.c ****       }
  55:Src/register_interface.c ****       *size = 1;
  56:Src/register_interface.c ****       break;
  57:Src/register_interface.c ****     }
  58:Src/register_interface.c **** 
  59:Src/register_interface.c ****     case TYPE_DATA_16BIT:
  60:Src/register_interface.c ****     {
  61:Src/register_interface.c ****       switch (regID)
  48              		.loc 1 61 7 is_stmt 1 view .LVU5
  49 0012 B0F5656F 		cmp	r0, #3664
  50 0016 3ED0     		beq	.L17
  51 0018 1ED9     		bls	.L23
  52 001a B0F5696F 		cmp	r0, #3728
  53 001e 3AD0     		beq	.L17
ARM GAS  /tmp/ccKFuU3x.s 			page 3


  54 0020 41F65832 		movw	r2, #7000
  55              	.LVL1:
  56              		.loc 1 61 7 is_stmt 0 view .LVU6
  57 0024 9042     		cmp	r0, r2
  58 0026 14BF     		ite	ne
  59 0028 0520     		movne	r0, #5
  60 002a 0420     		moveq	r0, #4
  61              	.LVL2:
  62              	.L10:
  62:Src/register_interface.c ****       {
  63:Src/register_interface.c **** 
  64:Src/register_interface.c ****         case MC_REG_BUS_VOLTAGE:
  65:Src/register_interface.c ****         case MC_REG_HEATS_TEMP:
  66:Src/register_interface.c ****         case MC_REG_MOTOR_POWER:
  67:Src/register_interface.c ****         {
  68:Src/register_interface.c ****           retVal = MCP_ERROR_RO_REG;
  69:Src/register_interface.c ****           break;
  70:Src/register_interface.c ****         }
  71:Src/register_interface.c **** 
  72:Src/register_interface.c ****         case MC_REG_DAC_USER1:
  73:Src/register_interface.c ****         case MC_REG_DAC_USER2:
  74:Src/register_interface.c ****         break;
  75:Src/register_interface.c **** 
  76:Src/register_interface.c ****         default:
  77:Src/register_interface.c ****         {
  78:Src/register_interface.c ****           retVal = MCP_ERROR_UNKNOWN_REG;
  79:Src/register_interface.c ****           break;
  80:Src/register_interface.c ****         }
  81:Src/register_interface.c ****       }
  82:Src/register_interface.c ****       *size = 2;
  63              		.loc 1 82 7 is_stmt 1 view .LVU7
  64              		.loc 1 82 13 is_stmt 0 view .LVU8
  65 002c 0222     		movs	r2, #2
  66 002e 1A80     		strh	r2, [r3]	@ movhi
  83:Src/register_interface.c ****       break;
  67              		.loc 1 83 7 is_stmt 1 view .LVU9
  68 0030 7047     		bx	lr
  69              	.LVL3:
  70              	.L3:
  37:Src/register_interface.c ****   {
  71              		.loc 1 37 3 is_stmt 0 view .LVU10
  72 0032 2829     		cmp	r1, #40
  73 0034 23D1     		bne	.L6
  74              	.LBB103:
  84:Src/register_interface.c ****     }
  85:Src/register_interface.c **** 
  86:Src/register_interface.c ****     case TYPE_DATA_32BIT:
  87:Src/register_interface.c ****     {
  88:Src/register_interface.c **** 
  89:Src/register_interface.c ****       switch (regID)
  90:Src/register_interface.c ****       {
  91:Src/register_interface.c ****         case MC_REG_FAULTS_FLAGS:
  92:Src/register_interface.c ****         {
  93:Src/register_interface.c ****           retVal = MCP_ERROR_RO_REG;
  94:Src/register_interface.c ****           break;
  95:Src/register_interface.c ****         }
  96:Src/register_interface.c **** 
ARM GAS  /tmp/ccKFuU3x.s 			page 4


  97:Src/register_interface.c ****         default:
  98:Src/register_interface.c ****         {
  99:Src/register_interface.c ****           retVal = MCP_ERROR_UNKNOWN_REG;
 100:Src/register_interface.c ****           break;
 101:Src/register_interface.c ****         }
 102:Src/register_interface.c ****       }
 103:Src/register_interface.c ****       *size = 4;
 104:Src/register_interface.c ****       break;
 105:Src/register_interface.c ****     }
 106:Src/register_interface.c **** 
 107:Src/register_interface.c ****     case TYPE_DATA_RAW:
 108:Src/register_interface.c ****     {
 109:Src/register_interface.c ****       uint16_t rawSize = *(uint16_t *)data; //cstat !MISRAC2012-Rule-11.3
  75              		.loc 1 109 7 is_stmt 1 view .LVU11
  76              	.LVL4:
 110:Src/register_interface.c ****       /* The size consumed by the structure is the structure size + 2 bytes used to store the size 
 111:Src/register_interface.c ****       *size = rawSize + 2U;
  77              		.loc 1 111 7 view .LVU12
  78              		.loc 1 111 23 is_stmt 0 view .LVU13
  79 0036 1288     		ldrh	r2, [r2]
  80              	.LVL5:
  81              		.loc 1 111 23 view .LVU14
  82 0038 0232     		adds	r2, r2, #2
  83 003a 92B2     		uxth	r2, r2
 112:Src/register_interface.c ****       uint8_t *rawData = data; /* rawData points to the first data (after size extraction) */
 113:Src/register_interface.c ****       rawData++;
 114:Src/register_interface.c ****       rawData++;
 115:Src/register_interface.c **** 
 116:Src/register_interface.c ****       if (*size > (uint16_t)dataAvailable)
  84              		.loc 1 116 10 view .LVU15
  85 003c 1FFA8CFC 		uxth	ip, ip
  86 0040 6245     		cmp	r2, ip
 111:Src/register_interface.c ****       uint8_t *rawData = data; /* rawData points to the first data (after size extraction) */
  87              		.loc 1 111 13 view .LVU16
  88 0042 1A80     		strh	r2, [r3]	@ movhi
  89              	.LVL6:
 112:Src/register_interface.c ****       uint8_t *rawData = data; /* rawData points to the first data (after size extraction) */
  90              		.loc 1 112 7 is_stmt 1 view .LVU17
 113:Src/register_interface.c ****       rawData++;
  91              		.loc 1 113 7 view .LVU18
 114:Src/register_interface.c **** 
  92              		.loc 1 114 7 view .LVU19
  93              		.loc 1 116 7 view .LVU20
  94              		.loc 1 116 10 is_stmt 0 view .LVU21
  95 0044 29D8     		bhi	.L24
 117:Src/register_interface.c ****       {
 118:Src/register_interface.c ****         /* The decoded size of the raw structure can not match with transmitted buffer, error in bu
 119:Src/register_interface.c ****            construction */
 120:Src/register_interface.c ****         *size = 0;
 121:Src/register_interface.c ****         retVal = MCP_ERROR_BAD_RAW_FORMAT; /* This error stop the parsing of the CMD buffer */
 122:Src/register_interface.c ****       }
 123:Src/register_interface.c ****       else
 124:Src/register_interface.c ****       {
 125:Src/register_interface.c ****         switch (regID)
  96              		.loc 1 125 9 is_stmt 1 view .LVU22
  97 0046 E828     		cmp	r0, #232
  98 0048 2BD0     		beq	.L20
ARM GAS  /tmp/ccKFuU3x.s 			page 5


  99 004a 20F08000 		bic	r0, r0, #128
 100              	.LVL7:
 126:Src/register_interface.c ****         {
 127:Src/register_interface.c ****           case MC_REG_APPLICATION_CONFIG:
 128:Src/register_interface.c ****           case MC_REG_GLOBAL_CONFIG:
 129:Src/register_interface.c ****           case MC_REG_FOCFW_CONFIG:
 130:Src/register_interface.c ****           {
 131:Src/register_interface.c ****             retVal = MCP_ERROR_RO_REG;
 101              		.loc 1 131 20 is_stmt 0 view .LVU23
 102 004e 2828     		cmp	r0, #40
 103 0050 14BF     		ite	ne
 104 0052 0520     		movne	r0, #5
 105 0054 0420     		moveq	r0, #4
 106 0056 7047     		bx	lr
 107              	.LVL8:
 108              	.L23:
 109              		.loc 1 131 20 view .LVU24
 110              	.LBE103:
 111 0058 20F04000 		bic	r0, r0, #64
 112              	.LVL9:
 113              		.loc 1 131 20 view .LVU25
 114 005c B0F5B26F 		cmp	r0, #1424
  82:Src/register_interface.c ****       break;
 115              		.loc 1 82 13 view .LVU26
 116 0060 4FF00202 		mov	r2, #2
 117              	.LVL10:
  82:Src/register_interface.c ****       break;
 118              		.loc 1 82 13 view .LVU27
 119 0064 14BF     		ite	ne
 120 0066 0520     		movne	r0, #5
 121 0068 0420     		moveq	r0, #4
 122              	.LVL11:
  82:Src/register_interface.c ****       break;
 123              		.loc 1 82 7 is_stmt 1 view .LVU28
  82:Src/register_interface.c ****       break;
 124              		.loc 1 82 13 is_stmt 0 view .LVU29
 125 006a 1A80     		strh	r2, [r3]	@ movhi
  83:Src/register_interface.c ****     }
 126              		.loc 1 83 7 is_stmt 1 view .LVU30
 127 006c 7047     		bx	lr
 128              	.LVL12:
 129              	.L2:
  89:Src/register_interface.c ****       {
 130              		.loc 1 89 7 view .LVU31
  99:Src/register_interface.c ****           break;
 131              		.loc 1 99 18 is_stmt 0 view .LVU32
 132 006e 1828     		cmp	r0, #24
 103:Src/register_interface.c ****       break;
 133              		.loc 1 103 13 view .LVU33
 134 0070 4FF00402 		mov	r2, #4
 135              	.LVL13:
  99:Src/register_interface.c ****           break;
 136              		.loc 1 99 18 view .LVU34
 137 0074 0CBF     		ite	eq
 138 0076 1046     		moveq	r0, r2
 139              	.LVL14:
  99:Src/register_interface.c ****           break;
ARM GAS  /tmp/ccKFuU3x.s 			page 6


 140              		.loc 1 99 18 view .LVU35
 141 0078 0520     		movne	r0, #5
 142              	.LVL15:
 103:Src/register_interface.c ****       break;
 143              		.loc 1 103 7 is_stmt 1 view .LVU36
 103:Src/register_interface.c ****       break;
 144              		.loc 1 103 13 is_stmt 0 view .LVU37
 145 007a 1A80     		strh	r2, [r3]	@ movhi
 104:Src/register_interface.c ****     }
 146              		.loc 1 104 7 is_stmt 1 view .LVU38
 147 007c 7047     		bx	lr
 148              	.LVL16:
 149              	.L6:
 132:Src/register_interface.c ****             break;
 133:Src/register_interface.c ****           }
 134:Src/register_interface.c **** 
 135:Src/register_interface.c ****           default:
 136:Src/register_interface.c ****           {
 137:Src/register_interface.c ****             retVal = MCP_ERROR_UNKNOWN_REG;
 138:Src/register_interface.c ****             break;
 139:Src/register_interface.c ****           }
 140:Src/register_interface.c ****         }
 141:Src/register_interface.c **** 
 142:Src/register_interface.c ****       }
 143:Src/register_interface.c ****       break;
 144:Src/register_interface.c ****     }
 145:Src/register_interface.c **** 
 146:Src/register_interface.c ****     default:
 147:Src/register_interface.c ****     {
 148:Src/register_interface.c ****       retVal = MCP_ERROR_BAD_DATA_TYPE;
 150              		.loc 1 148 7 view .LVU39
 149:Src/register_interface.c ****       *size =0; /* From this point we are not able anymore to decode the RX buffer */
 151              		.loc 1 149 7 view .LVU40
 152              		.loc 1 149 13 is_stmt 0 view .LVU41
 153 007e 0022     		movs	r2, #0
 154              	.LVL17:
 155              		.loc 1 149 13 view .LVU42
 156 0080 1A80     		strh	r2, [r3]	@ movhi
 150:Src/register_interface.c ****       break;
 157              		.loc 1 150 7 is_stmt 1 view .LVU43
 148:Src/register_interface.c ****       *size =0; /* From this point we are not able anymore to decode the RX buffer */
 158              		.loc 1 148 14 is_stmt 0 view .LVU44
 159 0082 0720     		movs	r0, #7
 160              	.LVL18:
 161              		.loc 1 150 7 view .LVU45
 162 0084 7047     		bx	lr
 163              	.LVL19:
 164              	.L4:
  41:Src/register_interface.c ****       {
 165              		.loc 1 41 7 is_stmt 1 view .LVU46
  51:Src/register_interface.c ****           break;
 166              		.loc 1 51 18 is_stmt 0 view .LVU47
 167 0086 4828     		cmp	r0, #72
  55:Src/register_interface.c ****       break;
 168              		.loc 1 55 13 view .LVU48
 169 0088 4FF00102 		mov	r2, #1
 170              	.LVL20:
ARM GAS  /tmp/ccKFuU3x.s 			page 7


  51:Src/register_interface.c ****           break;
 171              		.loc 1 51 18 view .LVU49
 172 008c 0CBF     		ite	eq
 173 008e 0420     		moveq	r0, #4
 174              	.LVL21:
  51:Src/register_interface.c ****           break;
 175              		.loc 1 51 18 view .LVU50
 176 0090 0520     		movne	r0, #5
 177              	.LVL22:
  55:Src/register_interface.c ****       break;
 178              		.loc 1 55 7 is_stmt 1 view .LVU51
  55:Src/register_interface.c ****       break;
 179              		.loc 1 55 13 is_stmt 0 view .LVU52
 180 0092 1A80     		strh	r2, [r3]	@ movhi
  56:Src/register_interface.c ****     }
 181              		.loc 1 56 7 is_stmt 1 view .LVU53
 182 0094 7047     		bx	lr
 183              	.LVL23:
 184              	.L17:
  36:Src/register_interface.c ****   switch(typeID)
 185              		.loc 1 36 11 is_stmt 0 view .LVU54
 186 0096 0020     		movs	r0, #0
 187              	.LVL24:
  36:Src/register_interface.c ****   switch(typeID)
 188              		.loc 1 36 11 view .LVU55
 189 0098 C8E7     		b	.L10
 190              	.LVL25:
 191              	.L24:
 192              	.LBB104:
 120:Src/register_interface.c ****         retVal = MCP_ERROR_BAD_RAW_FORMAT; /* This error stop the parsing of the CMD buffer */
 193              		.loc 1 120 9 is_stmt 1 view .LVU56
 120:Src/register_interface.c ****         retVal = MCP_ERROR_BAD_RAW_FORMAT; /* This error stop the parsing of the CMD buffer */
 194              		.loc 1 120 15 is_stmt 0 view .LVU57
 195 009a 0022     		movs	r2, #0
 196 009c 1A80     		strh	r2, [r3]	@ movhi
 121:Src/register_interface.c ****       }
 197              		.loc 1 121 9 is_stmt 1 view .LVU58
 198              	.LVL26:
 121:Src/register_interface.c ****       }
 199              		.loc 1 121 16 is_stmt 0 view .LVU59
 200 009e 0A20     		movs	r0, #10
 201              	.LVL27:
 121:Src/register_interface.c ****       }
 202              		.loc 1 121 16 view .LVU60
 203 00a0 7047     		bx	lr
 204              	.LVL28:
 205              	.L20:
 131:Src/register_interface.c ****             break;
 206              		.loc 1 131 20 view .LVU61
 207 00a2 0420     		movs	r0, #4
 208              	.LVL29:
 131:Src/register_interface.c ****             break;
 209              		.loc 1 131 20 view .LVU62
 210              	.LBE104:
 151:Src/register_interface.c ****     }
 152:Src/register_interface.c ****   }
 153:Src/register_interface.c ****   return (retVal);
ARM GAS  /tmp/ccKFuU3x.s 			page 8


 211              		.loc 1 153 3 is_stmt 1 view .LVU63
 154:Src/register_interface.c **** }
 212              		.loc 1 154 1 is_stmt 0 view .LVU64
 213 00a4 7047     		bx	lr
 214              		.cfi_endproc
 215              	.LFE1713:
 217 00a6 00BF     		.section	.text.RI_SetRegisterMotor1,"ax",%progbits
 218              		.align	1
 219              		.p2align 2,,3
 220              		.global	RI_SetRegisterMotor1
 221              		.syntax unified
 222              		.thumb
 223              		.thumb_func
 224              		.fpu fpv4-sp-d16
 226              	RI_SetRegisterMotor1:
 227              	.LVL30:
 228              	.LFB1714:
 155:Src/register_interface.c **** 
 156:Src/register_interface.c **** uint8_t RI_SetRegisterMotor1(uint16_t regID, uint8_t typeID, uint8_t *data, uint16_t *size, int16_t
 157:Src/register_interface.c **** {
 229              		.loc 1 157 1 is_stmt 1 view -0
 230              		.cfi_startproc
 231              		@ args = 4, pretend = 0, frame = 8
 232              		@ frame_needed = 0, uses_anonymous_args = 0
 158:Src/register_interface.c ****   uint8_t retVal = MCP_CMD_OK;
 233              		.loc 1 158 3 view .LVU66
 159:Src/register_interface.c ****   uint8_t motorID=0;
 234              		.loc 1 159 3 view .LVU67
 160:Src/register_interface.c ****   MCI_Handle_t *pMCIN = &Mci[motorID];
 235              		.loc 1 160 3 view .LVU68
 161:Src/register_interface.c **** 
 162:Src/register_interface.c ****   switch(typeID)
 236              		.loc 1 162 3 view .LVU69
 157:Src/register_interface.c ****   uint8_t retVal = MCP_CMD_OK;
 237              		.loc 1 157 1 is_stmt 0 view .LVU70
 238 0000 30B5     		push	{r4, r5, lr}
 239              	.LCFI0:
 240              		.cfi_def_cfa_offset 12
 241              		.cfi_offset 4, -12
 242              		.cfi_offset 5, -8
 243              		.cfi_offset 14, -4
 244 0002 83B0     		sub	sp, sp, #12
 245              	.LCFI1:
 246              		.cfi_def_cfa_offset 24
 247              		.loc 1 162 3 view .LVU71
 248 0004 1829     		cmp	r1, #24
 157:Src/register_interface.c ****   uint8_t retVal = MCP_CMD_OK;
 249              		.loc 1 157 1 view .LVU72
 250 0006 BDF918C0 		ldrsh	ip, [sp, #24]
 251 000a 1C46     		mov	r4, r3
 252              		.loc 1 162 3 view .LVU73
 253 000c 00F00B81 		beq	.L26
 254 0010 30D8     		bhi	.L27
 255 0012 0829     		cmp	r1, #8
 256 0014 00F0C680 		beq	.L28
 257 0018 1029     		cmp	r1, #16
 258 001a 40F0F680 		bne	.L30
ARM GAS  /tmp/ccKFuU3x.s 			page 9


 259              	.LBB105:
 163:Src/register_interface.c ****   {
 164:Src/register_interface.c ****     case TYPE_DATA_8BIT:
 165:Src/register_interface.c ****     {
 166:Src/register_interface.c ****       switch (regID)
 167:Src/register_interface.c ****       {
 168:Src/register_interface.c ****         case MC_REG_STATUS:
 169:Src/register_interface.c ****           {
 170:Src/register_interface.c ****             retVal = MCP_ERROR_RO_REG;
 171:Src/register_interface.c ****             break;
 172:Src/register_interface.c ****           }
 173:Src/register_interface.c ****         case MC_REG_CONTROL_MODE:
 174:Src/register_interface.c ****         {
 175:Src/register_interface.c ****           uint8_t regdata8 = *data;
 176:Src/register_interface.c **** 
 177:Src/register_interface.c ****           if ((uint8_t)MCM_TORQUE_MODE == regdata8)
 178:Src/register_interface.c ****           {
 179:Src/register_interface.c **** 
 180:Src/register_interface.c ****             MCI_ExecTorqueRamp(pMCIN, MCI_GetTeref(pMCIN), 0);
 181:Src/register_interface.c ****           }
 182:Src/register_interface.c ****           else
 183:Src/register_interface.c ****           {
 184:Src/register_interface.c ****             /* Nothing to do */
 185:Src/register_interface.c ****           }
 186:Src/register_interface.c **** 
 187:Src/register_interface.c ****           if ((uint8_t)MCM_SPEED_MODE == regdata8)
 188:Src/register_interface.c ****           {
 189:Src/register_interface.c ****             MCI_ExecSpeedRamp(pMCIN, MCI_GetMecSpeedRefUnit(pMCIN), 0);
 190:Src/register_interface.c ****           }
 191:Src/register_interface.c ****           else
 192:Src/register_interface.c ****           {
 193:Src/register_interface.c ****             /* Nothing to do */
 194:Src/register_interface.c ****           }
 195:Src/register_interface.c ****           break;
 196:Src/register_interface.c ****         }
 197:Src/register_interface.c **** 
 198:Src/register_interface.c ****         case MC_REG_RUC_STAGE_NBR:
 199:Src/register_interface.c ****         {
 200:Src/register_interface.c ****           retVal = MCP_ERROR_RO_REG;
 201:Src/register_interface.c ****           break;
 202:Src/register_interface.c ****         }
 203:Src/register_interface.c ****         case MC_REG_SC_PP:
 204:Src/register_interface.c ****         {
 205:Src/register_interface.c ****           uint8_t regdataU8 = *(uint8_t *)data;
 206:Src/register_interface.c ****           SPD_SetElToMecRatio(&STO_PLL_M1._Super, regdataU8);
 207:Src/register_interface.c ****           SPD_SetElToMecRatio(&VirtualSpeedSensorM1._Super, regdataU8);
 208:Src/register_interface.c ****           SCC_SetPolesPairs(&SCC, regdataU8);
 209:Src/register_interface.c ****           OTT_SetPolesPairs(&OTT, regdataU8);
 210:Src/register_interface.c ****           break;
 211:Src/register_interface.c ****         }
 212:Src/register_interface.c **** 
 213:Src/register_interface.c ****         case MC_REG_SC_CHECK:
 214:Src/register_interface.c ****         case MC_REG_SC_STATE:
 215:Src/register_interface.c ****         case MC_REG_SC_STEPS:
 216:Src/register_interface.c ****         case MC_REG_SC_FOC_REP_RATE:
 217:Src/register_interface.c ****         case MC_REG_SC_COMPLETED:
 218:Src/register_interface.c ****         {
ARM GAS  /tmp/ccKFuU3x.s 			page 10


 219:Src/register_interface.c ****           retVal = MCP_ERROR_RO_REG;
 220:Src/register_interface.c ****           break;
 221:Src/register_interface.c ****         }
 222:Src/register_interface.c **** 
 223:Src/register_interface.c ****           case MC_REG_PB_CHARACTERIZATION:
 224:Src/register_interface.c ****         {
 225:Src/register_interface.c ****           uint8_t regdataU8 = *(uint8_t *)data;
 226:Src/register_interface.c ****           SCC_SetPBCharacterization(&SCC,regdataU8);
 227:Src/register_interface.c ****           break;
 228:Src/register_interface.c ****         }
 229:Src/register_interface.c **** 
 230:Src/register_interface.c ****         default:
 231:Src/register_interface.c ****         {
 232:Src/register_interface.c ****           retVal = MCP_ERROR_UNKNOWN_REG;
 233:Src/register_interface.c ****           break;
 234:Src/register_interface.c ****         }
 235:Src/register_interface.c ****       }
 236:Src/register_interface.c ****       *size = 1;
 237:Src/register_interface.c ****       break;
 238:Src/register_interface.c ****     }
 239:Src/register_interface.c **** 
 240:Src/register_interface.c ****     case TYPE_DATA_16BIT:
 241:Src/register_interface.c ****     {
 242:Src/register_interface.c ****       uint16_t regdata16 = *(uint16_t *)data; //cstat !MISRAC2012-Rule-11.3
 260              		.loc 1 242 7 is_stmt 1 view .LVU74
 261 001e B0F5F26F 		cmp	r0, #1936
 262              		.loc 1 242 16 is_stmt 0 view .LVU75
 263 0022 1588     		ldrh	r5, [r2]
 264              	.LVL31:
 243:Src/register_interface.c ****       switch (regID)
 265              		.loc 1 243 7 is_stmt 1 view .LVU76
 266 0024 21D0     		beq	.L106
 267 0026 42D9     		bls	.L131
 268 0028 B0F5796F 		cmp	r0, #3984
 269 002c 1DD0     		beq	.L106
 270 002e 51D9     		bls	.L132
 271 0030 41F61043 		movw	r3, #7184
 272              	.LVL32:
 273              		.loc 1 243 7 is_stmt 0 view .LVU77
 274 0034 9842     		cmp	r0, r3
 275 0036 00F0CB81 		beq	.L56
 276 003a 0DD9     		bls	.L133
 277 003c 41F65043 		movw	r3, #7248
 278 0040 9842     		cmp	r0, r3
 279 0042 57D1     		bne	.L90
 244:Src/register_interface.c ****       {
 245:Src/register_interface.c ****         case MC_REG_SPEED_KP:
 246:Src/register_interface.c ****         {
 247:Src/register_interface.c ****           PID_SetKP(&PIDSpeedHandle_M1, (int16_t)regdata16);
 248:Src/register_interface.c ****           break;
 249:Src/register_interface.c ****         }
 250:Src/register_interface.c **** 
 251:Src/register_interface.c ****         case MC_REG_SPEED_KI:
 252:Src/register_interface.c ****         {
 253:Src/register_interface.c ****           PID_SetKI(&PIDSpeedHandle_M1, (int16_t)regdata16);
 254:Src/register_interface.c ****           break;
 255:Src/register_interface.c ****         }
ARM GAS  /tmp/ccKFuU3x.s 			page 11


 256:Src/register_interface.c **** 
 257:Src/register_interface.c ****         case MC_REG_SPEED_KD:
 258:Src/register_interface.c ****         {
 259:Src/register_interface.c ****           PID_SetKD(&PIDSpeedHandle_M1, (int16_t)regdata16);
 260:Src/register_interface.c ****           break;
 261:Src/register_interface.c ****         }
 262:Src/register_interface.c **** 
 263:Src/register_interface.c ****         case MC_REG_BUS_VOLTAGE:
 264:Src/register_interface.c ****         case MC_REG_HEATS_TEMP:
 265:Src/register_interface.c ****         case MC_REG_MOTOR_POWER:
 266:Src/register_interface.c ****         {
 267:Src/register_interface.c ****           retVal = MCP_ERROR_RO_REG;
 268:Src/register_interface.c ****           break;
 269:Src/register_interface.c ****         }
 270:Src/register_interface.c **** 
 271:Src/register_interface.c ****         case MC_REG_FLUXWK_BUS_MEAS:
 272:Src/register_interface.c ****         {
 273:Src/register_interface.c ****           retVal = MCP_ERROR_RO_REG;
 274:Src/register_interface.c ****           break;
 275:Src/register_interface.c ****         }
 276:Src/register_interface.c **** 
 277:Src/register_interface.c ****         case MC_REG_V_Q:
 278:Src/register_interface.c ****         case MC_REG_V_D:
 279:Src/register_interface.c ****         case MC_REG_V_ALPHA:
 280:Src/register_interface.c ****         case MC_REG_V_BETA:
 281:Src/register_interface.c ****         {
 282:Src/register_interface.c ****           retVal = MCP_ERROR_RO_REG;
 283:Src/register_interface.c ****           break;
 284:Src/register_interface.c ****         }
 285:Src/register_interface.c **** 
 286:Src/register_interface.c ****         case MC_REG_STOPLL_C1:
 287:Src/register_interface.c ****         {
 288:Src/register_interface.c ****           int16_t hC1;
 289:Src/register_interface.c ****           int16_t hC2;
 290:Src/register_interface.c ****           STO_PLL_GetObserverGains(&STO_PLL_M1, &hC1, &hC2);
 291:Src/register_interface.c ****           STO_PLL_SetObserverGains(&STO_PLL_M1, (int16_t)regdata16, hC2);
 292:Src/register_interface.c ****           break;
 293:Src/register_interface.c ****         }
 294:Src/register_interface.c **** 
 295:Src/register_interface.c ****         case MC_REG_STOPLL_C2:
 296:Src/register_interface.c ****         {
 297:Src/register_interface.c ****           int16_t hC1;
 298:Src/register_interface.c ****           int16_t hC2;
 299:Src/register_interface.c ****           STO_PLL_GetObserverGains(&STO_PLL_M1, &hC1, &hC2);
 300:Src/register_interface.c ****           STO_PLL_SetObserverGains(&STO_PLL_M1, hC1, (int16_t)regdata16);
 301:Src/register_interface.c ****           break;
 302:Src/register_interface.c ****         }
 303:Src/register_interface.c **** 
 304:Src/register_interface.c ****         case MC_REG_STOPLL_KI:
 305:Src/register_interface.c ****         {
 306:Src/register_interface.c ****           PID_SetKI (&(&STO_PLL_M1)->PIRegulator, (int16_t)regdata16);
 307:Src/register_interface.c ****           break;
 308:Src/register_interface.c ****         }
 309:Src/register_interface.c **** 
 310:Src/register_interface.c ****         case MC_REG_STOPLL_KP:
 311:Src/register_interface.c ****         {
 312:Src/register_interface.c ****           PID_SetKP (&(&STO_PLL_M1)->PIRegulator, (int16_t)regdata16);
ARM GAS  /tmp/ccKFuU3x.s 			page 12


 313:Src/register_interface.c ****           break;
 314:Src/register_interface.c ****         }
 315:Src/register_interface.c **** 
 316:Src/register_interface.c ****         case MC_REG_STOPLL_EL_ANGLE:
 317:Src/register_interface.c ****         case MC_REG_STOPLL_ROT_SPEED:
 318:Src/register_interface.c ****         case MC_REG_STOPLL_BEMF_ALPHA:
 319:Src/register_interface.c ****         case MC_REG_STOPLL_BEMF_BETA:
 320:Src/register_interface.c ****         {
 321:Src/register_interface.c ****           retVal = MCP_ERROR_RO_REG;
 322:Src/register_interface.c ****           break;
 323:Src/register_interface.c ****         }
 324:Src/register_interface.c **** 
 325:Src/register_interface.c ****         case MC_REG_DAC_USER1:
 326:Src/register_interface.c ****         case MC_REG_DAC_USER2:
 327:Src/register_interface.c ****           break;
 328:Src/register_interface.c **** 
 329:Src/register_interface.c ****         case MC_REG_FF_VQ:
 330:Src/register_interface.c ****         case MC_REG_FF_VD:
 331:Src/register_interface.c ****         case MC_REG_FF_VQ_PIOUT:
 332:Src/register_interface.c ****         case MC_REG_FF_VD_PIOUT:
 333:Src/register_interface.c ****         {
 334:Src/register_interface.c ****           retVal = MCP_ERROR_RO_REG;
 335:Src/register_interface.c ****           break;
 336:Src/register_interface.c ****         }
 337:Src/register_interface.c **** 
 338:Src/register_interface.c ****         case MC_REG_OVERVOLTAGETHRESHOLD:
 339:Src/register_interface.c ****         {
 340:Src/register_interface.c ****           SCC_SetOverVoltageThreshold(&SCC,regdata16);
 341:Src/register_interface.c ****           break;
 342:Src/register_interface.c ****         }
 343:Src/register_interface.c **** 
 344:Src/register_interface.c ****         case MC_REG_UNDERVOLTAGETHRESHOLD:
 345:Src/register_interface.c ****         {
 346:Src/register_interface.c ****           SCC_SetUnderVoltageThreshold(&SCC,regdata16);
 280              		.loc 1 346 11 is_stmt 1 view .LVU78
 281              	.LVL33:
 282              	.LBB106:
 283              	.LBI106:
 284              		.file 2 "MCSDK_v6.3.2-Full/MotorControl/MCSDK/MCLib/Any/Inc/mp_self_com_ctrl.h"
   1:MCSDK_v6.3.2-Full/MotorControl/MCSDK/MCLib/Any/Inc/mp_self_com_ctrl.h **** /**
   2:MCSDK_v6.3.2-Full/MotorControl/MCSDK/MCLib/Any/Inc/mp_self_com_ctrl.h ****   ******************************************************************************
   3:MCSDK_v6.3.2-Full/MotorControl/MCSDK/MCLib/Any/Inc/mp_self_com_ctrl.h ****   * @file    mp_self_com_ctrl.h
   4:MCSDK_v6.3.2-Full/MotorControl/MCSDK/MCLib/Any/Inc/mp_self_com_ctrl.h ****   * @author  Motor Control SDK Team, ST Microelectronics
   5:MCSDK_v6.3.2-Full/MotorControl/MCSDK/MCLib/Any/Inc/mp_self_com_ctrl.h ****   * @brief   This file contains all definitions and functions prototypes for
   6:MCSDK_v6.3.2-Full/MotorControl/MCSDK/MCLib/Any/Inc/mp_self_com_ctrl.h ****   *          for the SelfComCtrl component
   7:MCSDK_v6.3.2-Full/MotorControl/MCSDK/MCLib/Any/Inc/mp_self_com_ctrl.h ****   ******************************************************************************
   8:MCSDK_v6.3.2-Full/MotorControl/MCSDK/MCLib/Any/Inc/mp_self_com_ctrl.h ****   * @attention
   9:MCSDK_v6.3.2-Full/MotorControl/MCSDK/MCLib/Any/Inc/mp_self_com_ctrl.h ****   *
  10:MCSDK_v6.3.2-Full/MotorControl/MCSDK/MCLib/Any/Inc/mp_self_com_ctrl.h ****   * <h2><center>&copy; Copyright (c) 2024 STMicroelectronics.
  11:MCSDK_v6.3.2-Full/MotorControl/MCSDK/MCLib/Any/Inc/mp_self_com_ctrl.h ****   * All rights reserved.</center></h2>
  12:MCSDK_v6.3.2-Full/MotorControl/MCSDK/MCLib/Any/Inc/mp_self_com_ctrl.h ****   *
  13:MCSDK_v6.3.2-Full/MotorControl/MCSDK/MCLib/Any/Inc/mp_self_com_ctrl.h ****   * This software component is licensed by ST under Ultimate Liberty license
  14:MCSDK_v6.3.2-Full/MotorControl/MCSDK/MCLib/Any/Inc/mp_self_com_ctrl.h ****   * SLA0044, the "License"; You may not use this file except in compliance with
  15:MCSDK_v6.3.2-Full/MotorControl/MCSDK/MCLib/Any/Inc/mp_self_com_ctrl.h ****   * the License. You may obtain a copy of the License at:
  16:MCSDK_v6.3.2-Full/MotorControl/MCSDK/MCLib/Any/Inc/mp_self_com_ctrl.h ****   *                             www.st.com/SLA0044
  17:MCSDK_v6.3.2-Full/MotorControl/MCSDK/MCLib/Any/Inc/mp_self_com_ctrl.h ****   *
  18:MCSDK_v6.3.2-Full/MotorControl/MCSDK/MCLib/Any/Inc/mp_self_com_ctrl.h ****   ******************************************************************************
ARM GAS  /tmp/ccKFuU3x.s 			page 13


  19:MCSDK_v6.3.2-Full/MotorControl/MCSDK/MCLib/Any/Inc/mp_self_com_ctrl.h ****   */
  20:MCSDK_v6.3.2-Full/MotorControl/MCSDK/MCLib/Any/Inc/mp_self_com_ctrl.h **** /* Define to prevent recursive inclusion -------------------------------------*/
  21:MCSDK_v6.3.2-Full/MotorControl/MCSDK/MCLib/Any/Inc/mp_self_com_ctrl.h **** #ifndef MP_SELF_COM_CTRL_H
  22:MCSDK_v6.3.2-Full/MotorControl/MCSDK/MCLib/Any/Inc/mp_self_com_ctrl.h **** #define MP_SELF_COM_CTRL_H
  23:MCSDK_v6.3.2-Full/MotorControl/MCSDK/MCLib/Any/Inc/mp_self_com_ctrl.h **** 
  24:MCSDK_v6.3.2-Full/MotorControl/MCSDK/MCLib/Any/Inc/mp_self_com_ctrl.h **** /* Includes ------------------------------------------------------------------*/
  25:MCSDK_v6.3.2-Full/MotorControl/MCSDK/MCLib/Any/Inc/mp_self_com_ctrl.h **** #include "mc_type.h"
  26:MCSDK_v6.3.2-Full/MotorControl/MCSDK/MCLib/Any/Inc/mp_self_com_ctrl.h **** #include "pwm_curr_fdbk.h"
  27:MCSDK_v6.3.2-Full/MotorControl/MCSDK/MCLib/Any/Inc/mp_self_com_ctrl.h **** #include "ramp_ext_mngr.h"
  28:MCSDK_v6.3.2-Full/MotorControl/MCSDK/MCLib/Any/Inc/mp_self_com_ctrl.h **** #include "bus_voltage_sensor.h"
  29:MCSDK_v6.3.2-Full/MotorControl/MCSDK/MCLib/Any/Inc/mp_self_com_ctrl.h **** #include "speed_pos_fdbk.h"
  30:MCSDK_v6.3.2-Full/MotorControl/MCSDK/MCLib/Any/Inc/mp_self_com_ctrl.h **** #include "virtual_speed_sensor.h"
  31:MCSDK_v6.3.2-Full/MotorControl/MCSDK/MCLib/Any/Inc/mp_self_com_ctrl.h **** #include "open_loop.h"
  32:MCSDK_v6.3.2-Full/MotorControl/MCSDK/MCLib/Any/Inc/mp_self_com_ctrl.h **** #include "circle_limitation.h"
  33:MCSDK_v6.3.2-Full/MotorControl/MCSDK/MCLib/Any/Inc/mp_self_com_ctrl.h **** #include "pid_regulator.h"
  34:MCSDK_v6.3.2-Full/MotorControl/MCSDK/MCLib/Any/Inc/mp_self_com_ctrl.h **** #include "revup_ctrl.h"
  35:MCSDK_v6.3.2-Full/MotorControl/MCSDK/MCLib/Any/Inc/mp_self_com_ctrl.h **** #include "speed_torq_ctrl.h"
  36:MCSDK_v6.3.2-Full/MotorControl/MCSDK/MCLib/Any/Inc/mp_self_com_ctrl.h **** #include "r_divider_bus_voltage_sensor.h"
  37:MCSDK_v6.3.2-Full/MotorControl/MCSDK/MCLib/Any/Inc/mp_self_com_ctrl.h **** #include "sto_pll_speed_pos_fdbk.h"
  38:MCSDK_v6.3.2-Full/MotorControl/MCSDK/MCLib/Any/Inc/mp_self_com_ctrl.h **** #include "mp_one_touch_tuning.h"
  39:MCSDK_v6.3.2-Full/MotorControl/MCSDK/MCLib/Any/Inc/mp_self_com_ctrl.h **** #include "mp_hall_tuning.h"
  40:MCSDK_v6.3.2-Full/MotorControl/MCSDK/MCLib/Any/Inc/mp_self_com_ctrl.h **** #include "mc_math.h"
  41:MCSDK_v6.3.2-Full/MotorControl/MCSDK/MCLib/Any/Inc/mp_self_com_ctrl.h **** #include "arm_math.h"
  42:MCSDK_v6.3.2-Full/MotorControl/MCSDK/MCLib/Any/Inc/mp_self_com_ctrl.h **** 
  43:MCSDK_v6.3.2-Full/MotorControl/MCSDK/MCLib/Any/Inc/mp_self_com_ctrl.h **** 
  44:MCSDK_v6.3.2-Full/MotorControl/MCSDK/MCLib/Any/Inc/mp_self_com_ctrl.h **** /** @addtogroup STM32_PMSM_MC_Library
  45:MCSDK_v6.3.2-Full/MotorControl/MCSDK/MCLib/Any/Inc/mp_self_com_ctrl.h ****   * @{
  46:MCSDK_v6.3.2-Full/MotorControl/MCSDK/MCLib/Any/Inc/mp_self_com_ctrl.h ****   */
  47:MCSDK_v6.3.2-Full/MotorControl/MCSDK/MCLib/Any/Inc/mp_self_com_ctrl.h **** 
  48:MCSDK_v6.3.2-Full/MotorControl/MCSDK/MCLib/Any/Inc/mp_self_com_ctrl.h **** /** @addtogroup SelfComCtrl
  49:MCSDK_v6.3.2-Full/MotorControl/MCSDK/MCLib/Any/Inc/mp_self_com_ctrl.h ****   * @{
  50:MCSDK_v6.3.2-Full/MotorControl/MCSDK/MCLib/Any/Inc/mp_self_com_ctrl.h ****   */
  51:MCSDK_v6.3.2-Full/MotorControl/MCSDK/MCLib/Any/Inc/mp_self_com_ctrl.h **** 
  52:MCSDK_v6.3.2-Full/MotorControl/MCSDK/MCLib/Any/Inc/mp_self_com_ctrl.h **** #define RSCURRLEVELNUM 4u
  53:MCSDK_v6.3.2-Full/MotorControl/MCSDK/MCLib/Any/Inc/mp_self_com_ctrl.h **** #define EMF_BUFF_VAL 5u
  54:MCSDK_v6.3.2-Full/MotorControl/MCSDK/MCLib/Any/Inc/mp_self_com_ctrl.h **** #define CMD_SC_STOP 0u
  55:MCSDK_v6.3.2-Full/MotorControl/MCSDK/MCLib/Any/Inc/mp_self_com_ctrl.h **** #define CMD_SC_START 1u
  56:MCSDK_v6.3.2-Full/MotorControl/MCSDK/MCLib/Any/Inc/mp_self_com_ctrl.h **** #define CMD_HT_START 2u
  57:MCSDK_v6.3.2-Full/MotorControl/MCSDK/MCLib/Any/Inc/mp_self_com_ctrl.h **** #define CMD_HT_RESTART 3u
  58:MCSDK_v6.3.2-Full/MotorControl/MCSDK/MCLib/Any/Inc/mp_self_com_ctrl.h **** #define CMD_HT_ABORT 4u
  59:MCSDK_v6.3.2-Full/MotorControl/MCSDK/MCLib/Any/Inc/mp_self_com_ctrl.h **** #define CMD_HT_END 5u
  60:MCSDK_v6.3.2-Full/MotorControl/MCSDK/MCLib/Any/Inc/mp_self_com_ctrl.h **** #define CMD_PPD_START 6u
  61:MCSDK_v6.3.2-Full/MotorControl/MCSDK/MCLib/Any/Inc/mp_self_com_ctrl.h **** #define PB_CHARACTERIZATION_DISABLE 0
  62:MCSDK_v6.3.2-Full/MotorControl/MCSDK/MCLib/Any/Inc/mp_self_com_ctrl.h **** 
  63:MCSDK_v6.3.2-Full/MotorControl/MCSDK/MCLib/Any/Inc/mp_self_com_ctrl.h **** /** @defgroup SelfComCtrl_class_private_types SelfComCtrl class private types
  64:MCSDK_v6.3.2-Full/MotorControl/MCSDK/MCLib/Any/Inc/mp_self_com_ctrl.h ****   * @{
  65:MCSDK_v6.3.2-Full/MotorControl/MCSDK/MCLib/Any/Inc/mp_self_com_ctrl.h ****   */
  66:MCSDK_v6.3.2-Full/MotorControl/MCSDK/MCLib/Any/Inc/mp_self_com_ctrl.h **** 
  67:MCSDK_v6.3.2-Full/MotorControl/MCSDK/MCLib/Any/Inc/mp_self_com_ctrl.h **** /**
  68:MCSDK_v6.3.2-Full/MotorControl/MCSDK/MCLib/Any/Inc/mp_self_com_ctrl.h ****   * @brief  LS detection states
  69:MCSDK_v6.3.2-Full/MotorControl/MCSDK/MCLib/Any/Inc/mp_self_com_ctrl.h ****   */
  70:MCSDK_v6.3.2-Full/MotorControl/MCSDK/MCLib/Any/Inc/mp_self_com_ctrl.h **** typedef enum
  71:MCSDK_v6.3.2-Full/MotorControl/MCSDK/MCLib/Any/Inc/mp_self_com_ctrl.h **** {
  72:MCSDK_v6.3.2-Full/MotorControl/MCSDK/MCLib/Any/Inc/mp_self_com_ctrl.h ****   LSDET_DECAY,
  73:MCSDK_v6.3.2-Full/MotorControl/MCSDK/MCLib/Any/Inc/mp_self_com_ctrl.h ****   LSDET_HOLD,
  74:MCSDK_v6.3.2-Full/MotorControl/MCSDK/MCLib/Any/Inc/mp_self_com_ctrl.h ****   LSDET_RISE
  75:MCSDK_v6.3.2-Full/MotorControl/MCSDK/MCLib/Any/Inc/mp_self_com_ctrl.h **** } LSDetState_t;
ARM GAS  /tmp/ccKFuU3x.s 			page 14


  76:MCSDK_v6.3.2-Full/MotorControl/MCSDK/MCLib/Any/Inc/mp_self_com_ctrl.h **** 
  77:MCSDK_v6.3.2-Full/MotorControl/MCSDK/MCLib/Any/Inc/mp_self_com_ctrl.h **** /**
  78:MCSDK_v6.3.2-Full/MotorControl/MCSDK/MCLib/Any/Inc/mp_self_com_ctrl.h ****   * @brief  KE detection states
  79:MCSDK_v6.3.2-Full/MotorControl/MCSDK/MCLib/Any/Inc/mp_self_com_ctrl.h ****   */
  80:MCSDK_v6.3.2-Full/MotorControl/MCSDK/MCLib/Any/Inc/mp_self_com_ctrl.h **** typedef enum
  81:MCSDK_v6.3.2-Full/MotorControl/MCSDK/MCLib/Any/Inc/mp_self_com_ctrl.h **** {
  82:MCSDK_v6.3.2-Full/MotorControl/MCSDK/MCLib/Any/Inc/mp_self_com_ctrl.h ****   KEDET_REVUP,
  83:MCSDK_v6.3.2-Full/MotorControl/MCSDK/MCLib/Any/Inc/mp_self_com_ctrl.h ****   KEDET_DETECTION,
  84:MCSDK_v6.3.2-Full/MotorControl/MCSDK/MCLib/Any/Inc/mp_self_com_ctrl.h ****   KEDET_SET_OBS_PARAMS,
  85:MCSDK_v6.3.2-Full/MotorControl/MCSDK/MCLib/Any/Inc/mp_self_com_ctrl.h ****   KEDET_STABILIZEPLL,
  86:MCSDK_v6.3.2-Full/MotorControl/MCSDK/MCLib/Any/Inc/mp_self_com_ctrl.h ****   KEDET_RUN,
  87:MCSDK_v6.3.2-Full/MotorControl/MCSDK/MCLib/Any/Inc/mp_self_com_ctrl.h ****   KEDET_RESTART
  88:MCSDK_v6.3.2-Full/MotorControl/MCSDK/MCLib/Any/Inc/mp_self_com_ctrl.h **** } KEDetState_t;
  89:MCSDK_v6.3.2-Full/MotorControl/MCSDK/MCLib/Any/Inc/mp_self_com_ctrl.h **** 
  90:MCSDK_v6.3.2-Full/MotorControl/MCSDK/MCLib/Any/Inc/mp_self_com_ctrl.h **** /**
  91:MCSDK_v6.3.2-Full/MotorControl/MCSDK/MCLib/Any/Inc/mp_self_com_ctrl.h ****   * @brief  SCC_State_t enum type definition, it lists all the possible SCC state
  92:MCSDK_v6.3.2-Full/MotorControl/MCSDK/MCLib/Any/Inc/mp_self_com_ctrl.h ****           machine states.
  93:MCSDK_v6.3.2-Full/MotorControl/MCSDK/MCLib/Any/Inc/mp_self_com_ctrl.h ****   */
  94:MCSDK_v6.3.2-Full/MotorControl/MCSDK/MCLib/Any/Inc/mp_self_com_ctrl.h **** typedef enum
  95:MCSDK_v6.3.2-Full/MotorControl/MCSDK/MCLib/Any/Inc/mp_self_com_ctrl.h **** {
  96:MCSDK_v6.3.2-Full/MotorControl/MCSDK/MCLib/Any/Inc/mp_self_com_ctrl.h ****   SCC_IDLE,
  97:MCSDK_v6.3.2-Full/MotorControl/MCSDK/MCLib/Any/Inc/mp_self_com_ctrl.h ****   SCC_DUTY_DETECTING_PHASE,
  98:MCSDK_v6.3.2-Full/MotorControl/MCSDK/MCLib/Any/Inc/mp_self_com_ctrl.h ****   SCC_ALIGN_PHASE,
  99:MCSDK_v6.3.2-Full/MotorControl/MCSDK/MCLib/Any/Inc/mp_self_com_ctrl.h ****   SCC_RS_DETECTING_PHASE_RAMP,
 100:MCSDK_v6.3.2-Full/MotorControl/MCSDK/MCLib/Any/Inc/mp_self_com_ctrl.h ****   SCC_RS_DETECTING_PHASE,
 101:MCSDK_v6.3.2-Full/MotorControl/MCSDK/MCLib/Any/Inc/mp_self_com_ctrl.h ****   SCC_LS_DETECTING_PHASE,
 102:MCSDK_v6.3.2-Full/MotorControl/MCSDK/MCLib/Any/Inc/mp_self_com_ctrl.h ****   SCC_WAIT_RESTART,
 103:MCSDK_v6.3.2-Full/MotorControl/MCSDK/MCLib/Any/Inc/mp_self_com_ctrl.h ****   SCC_RESTART_SCC,
 104:MCSDK_v6.3.2-Full/MotorControl/MCSDK/MCLib/Any/Inc/mp_self_com_ctrl.h ****   SCC_KE_DETECTING_PHASE,
 105:MCSDK_v6.3.2-Full/MotorControl/MCSDK/MCLib/Any/Inc/mp_self_com_ctrl.h ****   SCC_PHASE_STOP,
 106:MCSDK_v6.3.2-Full/MotorControl/MCSDK/MCLib/Any/Inc/mp_self_com_ctrl.h ****   SCC_CALIBRATION_END,
 107:MCSDK_v6.3.2-Full/MotorControl/MCSDK/MCLib/Any/Inc/mp_self_com_ctrl.h ****   SCC_PP_DETECTION_RAMP,
 108:MCSDK_v6.3.2-Full/MotorControl/MCSDK/MCLib/Any/Inc/mp_self_com_ctrl.h ****   SCC_PP_DETECTION_PHASE_RAMP,
 109:MCSDK_v6.3.2-Full/MotorControl/MCSDK/MCLib/Any/Inc/mp_self_com_ctrl.h ****   SCC_PP_DETECTION_PHASE
 110:MCSDK_v6.3.2-Full/MotorControl/MCSDK/MCLib/Any/Inc/mp_self_com_ctrl.h **** } SCC_State_t;
 111:MCSDK_v6.3.2-Full/MotorControl/MCSDK/MCLib/Any/Inc/mp_self_com_ctrl.h **** 
 112:MCSDK_v6.3.2-Full/MotorControl/MCSDK/MCLib/Any/Inc/mp_self_com_ctrl.h **** /**
 113:MCSDK_v6.3.2-Full/MotorControl/MCSDK/MCLib/Any/Inc/mp_self_com_ctrl.h ****   * @brief  KE detection speed ramp status
 114:MCSDK_v6.3.2-Full/MotorControl/MCSDK/MCLib/Any/Inc/mp_self_com_ctrl.h ****   */
 115:MCSDK_v6.3.2-Full/MotorControl/MCSDK/MCLib/Any/Inc/mp_self_com_ctrl.h **** typedef enum
 116:MCSDK_v6.3.2-Full/MotorControl/MCSDK/MCLib/Any/Inc/mp_self_com_ctrl.h **** {
 117:MCSDK_v6.3.2-Full/MotorControl/MCSDK/MCLib/Any/Inc/mp_self_com_ctrl.h ****   RampIdle,    /* Ramp not started yet */
 118:MCSDK_v6.3.2-Full/MotorControl/MCSDK/MCLib/Any/Inc/mp_self_com_ctrl.h ****   RampOngoing, /* Ramp is ongoing */
 119:MCSDK_v6.3.2-Full/MotorControl/MCSDK/MCLib/Any/Inc/mp_self_com_ctrl.h ****   RampSucces,  /* The motor has been accelerated up to the target speed */
 120:MCSDK_v6.3.2-Full/MotorControl/MCSDK/MCLib/Any/Inc/mp_self_com_ctrl.h ****   MotorStill,  /* Motor didn't move at all */
 121:MCSDK_v6.3.2-Full/MotorControl/MCSDK/MCLib/Any/Inc/mp_self_com_ctrl.h ****   LoseControl, /* Motor start to follow acceleration but didn't reach the target speed */
 122:MCSDK_v6.3.2-Full/MotorControl/MCSDK/MCLib/Any/Inc/mp_self_com_ctrl.h **** } AccResult_t;
 123:MCSDK_v6.3.2-Full/MotorControl/MCSDK/MCLib/Any/Inc/mp_self_com_ctrl.h **** 
 124:MCSDK_v6.3.2-Full/MotorControl/MCSDK/MCLib/Any/Inc/mp_self_com_ctrl.h **** 
 125:MCSDK_v6.3.2-Full/MotorControl/MCSDK/MCLib/Any/Inc/mp_self_com_ctrl.h **** /**
 126:MCSDK_v6.3.2-Full/MotorControl/MCSDK/MCLib/Any/Inc/mp_self_com_ctrl.h ****   * @brief  SelfComCtrl parameters definition
 127:MCSDK_v6.3.2-Full/MotorControl/MCSDK/MCLib/Any/Inc/mp_self_com_ctrl.h ****   */
 128:MCSDK_v6.3.2-Full/MotorControl/MCSDK/MCLib/Any/Inc/mp_self_com_ctrl.h **** typedef struct
 129:MCSDK_v6.3.2-Full/MotorControl/MCSDK/MCLib/Any/Inc/mp_self_com_ctrl.h **** {
 130:MCSDK_v6.3.2-Full/MotorControl/MCSDK/MCLib/Any/Inc/mp_self_com_ctrl.h ****   RampExtMngr_Handle_t rampExtMngrParams; /*!< Ramp manager used by SCC.*/
 131:MCSDK_v6.3.2-Full/MotorControl/MCSDK/MCLib/Any/Inc/mp_self_com_ctrl.h ****   float fRshunt;                         /*!< Value of shunt resistor.*/
 132:MCSDK_v6.3.2-Full/MotorControl/MCSDK/MCLib/Any/Inc/mp_self_com_ctrl.h ****   float fAmplificationGain;              /*!< Current sensing amplification gain.*/
ARM GAS  /tmp/ccKFuU3x.s 			page 15


 133:MCSDK_v6.3.2-Full/MotorControl/MCSDK/MCLib/Any/Inc/mp_self_com_ctrl.h ****   float fVbusConvFactor;                 /*!< Bus voltage conversion factor.*/
 134:MCSDK_v6.3.2-Full/MotorControl/MCSDK/MCLib/Any/Inc/mp_self_com_ctrl.h ****   float fVbusPartitioningFactor;         /*!< Bus voltage partitioning factor.
 135:MCSDK_v6.3.2-Full/MotorControl/MCSDK/MCLib/Any/Inc/mp_self_com_ctrl.h ****                                               (Vmcu / Bus voltage conversion factor).*/
 136:MCSDK_v6.3.2-Full/MotorControl/MCSDK/MCLib/Any/Inc/mp_self_com_ctrl.h ****   float fRVNK;                           /*!< Power stage calibration factor.
 137:MCSDK_v6.3.2-Full/MotorControl/MCSDK/MCLib/Any/Inc/mp_self_com_ctrl.h ****                                               (Measured experimentally).*/
 138:MCSDK_v6.3.2-Full/MotorControl/MCSDK/MCLib/Any/Inc/mp_self_com_ctrl.h ****   float fRSMeasCurrLevelMax;             /*!< Maximum level of DC current used
 139:MCSDK_v6.3.2-Full/MotorControl/MCSDK/MCLib/Any/Inc/mp_self_com_ctrl.h ****                                               for RS measurement.*/
 140:MCSDK_v6.3.2-Full/MotorControl/MCSDK/MCLib/Any/Inc/mp_self_com_ctrl.h ****   uint16_t hDutyRampDuration;            /*!< Duration of voltage ramp executed
 141:MCSDK_v6.3.2-Full/MotorControl/MCSDK/MCLib/Any/Inc/mp_self_com_ctrl.h ****                                               for the duty cycle determination
 142:MCSDK_v6.3.2-Full/MotorControl/MCSDK/MCLib/Any/Inc/mp_self_com_ctrl.h ****                                               stage.*/
 143:MCSDK_v6.3.2-Full/MotorControl/MCSDK/MCLib/Any/Inc/mp_self_com_ctrl.h ****   uint16_t hAlignmentDuration;           /*!< Duration of the alignment stage.*/
 144:MCSDK_v6.3.2-Full/MotorControl/MCSDK/MCLib/Any/Inc/mp_self_com_ctrl.h ****   uint16_t hRSDetectionDuration;         /*!< Duration of R detection stage.*/
 145:MCSDK_v6.3.2-Full/MotorControl/MCSDK/MCLib/Any/Inc/mp_self_com_ctrl.h ****   float fLdLqRatio;                      /*!< Ld vs Lq ratio.*/
 146:MCSDK_v6.3.2-Full/MotorControl/MCSDK/MCLib/Any/Inc/mp_self_com_ctrl.h ****   float fCurrentBW;                      /*!< Bandwidth of current regulator.*/
 147:MCSDK_v6.3.2-Full/MotorControl/MCSDK/MCLib/Any/Inc/mp_self_com_ctrl.h ****   uint8_t bPBCharacterization;           /*!< Set to 1 for characterization
 148:MCSDK_v6.3.2-Full/MotorControl/MCSDK/MCLib/Any/Inc/mp_self_com_ctrl.h ****                                               of power board, otherwise false.*/
 149:MCSDK_v6.3.2-Full/MotorControl/MCSDK/MCLib/Any/Inc/mp_self_com_ctrl.h ****   int32_t wNominalSpeed;                 /*!< Nominal speed set by the user expressed in RPM.*/
 150:MCSDK_v6.3.2-Full/MotorControl/MCSDK/MCLib/Any/Inc/mp_self_com_ctrl.h ****   uint16_t hPWMFreqHz;                   /*!< PWM frequency used for the test.*/
 151:MCSDK_v6.3.2-Full/MotorControl/MCSDK/MCLib/Any/Inc/mp_self_com_ctrl.h ****   uint8_t bFOCRepRate;                   /*!< FOC repetition rate used for the test.*/
 152:MCSDK_v6.3.2-Full/MotorControl/MCSDK/MCLib/Any/Inc/mp_self_com_ctrl.h ****   float fMCUPowerSupply;                 /*!< MCU Power Supply */
 153:MCSDK_v6.3.2-Full/MotorControl/MCSDK/MCLib/Any/Inc/mp_self_com_ctrl.h ****   float IThreshold;
 154:MCSDK_v6.3.2-Full/MotorControl/MCSDK/MCLib/Any/Inc/mp_self_com_ctrl.h **** } SCC_Params_t, *pSCC_Params_t;
 155:MCSDK_v6.3.2-Full/MotorControl/MCSDK/MCLib/Any/Inc/mp_self_com_ctrl.h **** 
 156:MCSDK_v6.3.2-Full/MotorControl/MCSDK/MCLib/Any/Inc/mp_self_com_ctrl.h **** /**
 157:MCSDK_v6.3.2-Full/MotorControl/MCSDK/MCLib/Any/Inc/mp_self_com_ctrl.h ****   * * @brief  Handle structure of the SelfComCtrl.
 158:MCSDK_v6.3.2-Full/MotorControl/MCSDK/MCLib/Any/Inc/mp_self_com_ctrl.h ****   */
 159:MCSDK_v6.3.2-Full/MotorControl/MCSDK/MCLib/Any/Inc/mp_self_com_ctrl.h **** typedef struct
 160:MCSDK_v6.3.2-Full/MotorControl/MCSDK/MCLib/Any/Inc/mp_self_com_ctrl.h **** {
 161:MCSDK_v6.3.2-Full/MotorControl/MCSDK/MCLib/Any/Inc/mp_self_com_ctrl.h ****   PWMC_Handle_t *pPWMC;          /*!< Current feedback and PWM object used.*/
 162:MCSDK_v6.3.2-Full/MotorControl/MCSDK/MCLib/Any/Inc/mp_self_com_ctrl.h ****   RDivider_Handle_t *pVBS;           /*!< Bus voltage sensor used.*/
 163:MCSDK_v6.3.2-Full/MotorControl/MCSDK/MCLib/Any/Inc/mp_self_com_ctrl.h ****   pFOCVars_t pFOCVars;  /*!< Related structure of FOC vars.*/
 164:MCSDK_v6.3.2-Full/MotorControl/MCSDK/MCLib/Any/Inc/mp_self_com_ctrl.h ****   MCI_Handle_t  *pMCI;           /*!< State machine of related MC.*/
 165:MCSDK_v6.3.2-Full/MotorControl/MCSDK/MCLib/Any/Inc/mp_self_com_ctrl.h ****   VirtualSpeedSensor_Handle_t *pVSS;            /*!< VSS used.*/
 166:MCSDK_v6.3.2-Full/MotorControl/MCSDK/MCLib/Any/Inc/mp_self_com_ctrl.h ****   CircleLimitation_Handle_t *pCLM;            /*!< Circle limitation used.*/
 167:MCSDK_v6.3.2-Full/MotorControl/MCSDK/MCLib/Any/Inc/mp_self_com_ctrl.h ****   PID_Handle_t *pPIDIq;           /*!< Iq PID used.*/
 168:MCSDK_v6.3.2-Full/MotorControl/MCSDK/MCLib/Any/Inc/mp_self_com_ctrl.h ****   PID_Handle_t *pPIDId;           /*!< Id PID used.*/
 169:MCSDK_v6.3.2-Full/MotorControl/MCSDK/MCLib/Any/Inc/mp_self_com_ctrl.h ****   RevUpCtrl_Handle_t *pRevupCtrl; /*!< RUC used.*/
 170:MCSDK_v6.3.2-Full/MotorControl/MCSDK/MCLib/Any/Inc/mp_self_com_ctrl.h ****   STO_PLL_Handle_t *pSTO;            /*!< State Observer used.*/
 171:MCSDK_v6.3.2-Full/MotorControl/MCSDK/MCLib/Any/Inc/mp_self_com_ctrl.h ****   SpeednTorqCtrl_Handle_t *pSTC;            /*!< Speed and torque controller used.*/
 172:MCSDK_v6.3.2-Full/MotorControl/MCSDK/MCLib/Any/Inc/mp_self_com_ctrl.h ****   OTT_Handle_t *pOTT;
 173:MCSDK_v6.3.2-Full/MotorControl/MCSDK/MCLib/Any/Inc/mp_self_com_ctrl.h ****   HT_Handle_t *pHT;
 174:MCSDK_v6.3.2-Full/MotorControl/MCSDK/MCLib/Any/Inc/mp_self_com_ctrl.h **** 
 175:MCSDK_v6.3.2-Full/MotorControl/MCSDK/MCLib/Any/Inc/mp_self_com_ctrl.h ****   SCC_State_t sm_state; /*!< SCC state machine state.*/
 176:MCSDK_v6.3.2-Full/MotorControl/MCSDK/MCLib/Any/Inc/mp_self_com_ctrl.h ****   RampExtMngr_Handle_t *pREMng;        /*!< Ramp manager used.*/
 177:MCSDK_v6.3.2-Full/MotorControl/MCSDK/MCLib/Any/Inc/mp_self_com_ctrl.h ****   uint16_t hDutyMax;    /*!< Duty cycle to be applied to reach the target current.*/
 178:MCSDK_v6.3.2-Full/MotorControl/MCSDK/MCLib/Any/Inc/mp_self_com_ctrl.h ****   LSDetState_t LSDetState;/*!< Internal state during LS detection. */
 179:MCSDK_v6.3.2-Full/MotorControl/MCSDK/MCLib/Any/Inc/mp_self_com_ctrl.h ****   KEDetState_t KEDetState;/*!< Internal state during KE detection. */
 180:MCSDK_v6.3.2-Full/MotorControl/MCSDK/MCLib/Any/Inc/mp_self_com_ctrl.h **** 
 181:MCSDK_v6.3.2-Full/MotorControl/MCSDK/MCLib/Any/Inc/mp_self_com_ctrl.h ****   float fTPWM;            /*!< PWM period in second. */
 182:MCSDK_v6.3.2-Full/MotorControl/MCSDK/MCLib/Any/Inc/mp_self_com_ctrl.h ****   float fFocRate;         /*!< FOC execution rate. */
 183:MCSDK_v6.3.2-Full/MotorControl/MCSDK/MCLib/Any/Inc/mp_self_com_ctrl.h ****   float fPP;              /*!< Motor poles pairs. */
 184:MCSDK_v6.3.2-Full/MotorControl/MCSDK/MCLib/Any/Inc/mp_self_com_ctrl.h ****   int16_t hMax_voltage;   /*!< Maximum readable voltage. */
 185:MCSDK_v6.3.2-Full/MotorControl/MCSDK/MCLib/Any/Inc/mp_self_com_ctrl.h ****   float fMax_current;     /*!< Maximum readable current. */
 186:MCSDK_v6.3.2-Full/MotorControl/MCSDK/MCLib/Any/Inc/mp_self_com_ctrl.h ****   float fTargetCurr;      /*!< Instantaneous value of target current used for R
 187:MCSDK_v6.3.2-Full/MotorControl/MCSDK/MCLib/Any/Inc/mp_self_com_ctrl.h ****                                estimation.*/
 188:MCSDK_v6.3.2-Full/MotorControl/MCSDK/MCLib/Any/Inc/mp_self_com_ctrl.h ****   float fLastTargetCurr;  /*!< Last value of set nominal current used for R
 189:MCSDK_v6.3.2-Full/MotorControl/MCSDK/MCLib/Any/Inc/mp_self_com_ctrl.h ****                                estimation.*/
ARM GAS  /tmp/ccKFuU3x.s 			page 16


 190:MCSDK_v6.3.2-Full/MotorControl/MCSDK/MCLib/Any/Inc/mp_self_com_ctrl.h ****   float fRSCurrLevelStep; /*!< Step of current used for R estimation.*/
 191:MCSDK_v6.3.2-Full/MotorControl/MCSDK/MCLib/Any/Inc/mp_self_com_ctrl.h ****   float fBusV;            /*!< Stores the last Vbus measurement.*/
 192:MCSDK_v6.3.2-Full/MotorControl/MCSDK/MCLib/Any/Inc/mp_self_com_ctrl.h ****   float fRS;              /*!< Stores the last R estimation.*/
 193:MCSDK_v6.3.2-Full/MotorControl/MCSDK/MCLib/Any/Inc/mp_self_com_ctrl.h ****   float fLS;              /*!< Stores the last L estimation.*/
 194:MCSDK_v6.3.2-Full/MotorControl/MCSDK/MCLib/Any/Inc/mp_self_com_ctrl.h ****   float fKe;              /*!< Stores the last Ke estimation.*/
 195:MCSDK_v6.3.2-Full/MotorControl/MCSDK/MCLib/Any/Inc/mp_self_com_ctrl.h ****   float fImaxArray[RSCURRLEVELNUM]; /*!< Array to store current measurement
 196:MCSDK_v6.3.2-Full/MotorControl/MCSDK/MCLib/Any/Inc/mp_self_com_ctrl.h ****                                          values for R estimation.*/
 197:MCSDK_v6.3.2-Full/MotorControl/MCSDK/MCLib/Any/Inc/mp_self_com_ctrl.h ****   float fVmaxArray[RSCURRLEVELNUM]; /*!< Array to store voltage measurement
 198:MCSDK_v6.3.2-Full/MotorControl/MCSDK/MCLib/Any/Inc/mp_self_com_ctrl.h ****                                          values for R estimation.*/
 199:MCSDK_v6.3.2-Full/MotorControl/MCSDK/MCLib/Any/Inc/mp_self_com_ctrl.h ****   uint8_t bRSCurrLevelTests;        /*!< Counter to store I and V values for R
 200:MCSDK_v6.3.2-Full/MotorControl/MCSDK/MCLib/Any/Inc/mp_self_com_ctrl.h ****                                          estimation.*/
 201:MCSDK_v6.3.2-Full/MotorControl/MCSDK/MCLib/Any/Inc/mp_self_com_ctrl.h ****   float fImax;            /*!< Stores the last current measurement done, it
 202:MCSDK_v6.3.2-Full/MotorControl/MCSDK/MCLib/Any/Inc/mp_self_com_ctrl.h ****                                will be used to compute the 63% for electrical
 203:MCSDK_v6.3.2-Full/MotorControl/MCSDK/MCLib/Any/Inc/mp_self_com_ctrl.h ****                                time constant measurement.*/
 204:MCSDK_v6.3.2-Full/MotorControl/MCSDK/MCLib/Any/Inc/mp_self_com_ctrl.h ****   float fItau;            /*!< Stores the last computed electrical time constant.*/
 205:MCSDK_v6.3.2-Full/MotorControl/MCSDK/MCLib/Any/Inc/mp_self_com_ctrl.h ****   uint8_t  bDutyDetTest;  /*!< Number of test done in duty determination phase.*/
 206:MCSDK_v6.3.2-Full/MotorControl/MCSDK/MCLib/Any/Inc/mp_self_com_ctrl.h ****   uint32_t wLSTimeCnt;    /*!< Time counter for LS determination.*/
 207:MCSDK_v6.3.2-Full/MotorControl/MCSDK/MCLib/Any/Inc/mp_self_com_ctrl.h ****   uint32_t wLSTestCnt;    /*!< Counter for LS tests. */
 208:MCSDK_v6.3.2-Full/MotorControl/MCSDK/MCLib/Any/Inc/mp_self_com_ctrl.h ****   float fLSsum;           /*!< Sum of estimated LS for mean.*/
 209:MCSDK_v6.3.2-Full/MotorControl/MCSDK/MCLib/Any/Inc/mp_self_com_ctrl.h ****   float fIsum;            /*!< Sum of measured current for mean.*/
 210:MCSDK_v6.3.2-Full/MotorControl/MCSDK/MCLib/Any/Inc/mp_self_com_ctrl.h ****   float fVsum;            /*!< Sum of estimated voltage for mean.*/
 211:MCSDK_v6.3.2-Full/MotorControl/MCSDK/MCLib/Any/Inc/mp_self_com_ctrl.h ****   uint32_t wICnt;         /*!< Counter of I and V acquired.*/
 212:MCSDK_v6.3.2-Full/MotorControl/MCSDK/MCLib/Any/Inc/mp_self_com_ctrl.h ****   uint32_t index;         /*!< Counter of I and V acquired.*/
 213:MCSDK_v6.3.2-Full/MotorControl/MCSDK/MCLib/Any/Inc/mp_self_com_ctrl.h ****   float fIqsum;           /*!< Sum of measured Iq for mean.*/
 214:MCSDK_v6.3.2-Full/MotorControl/MCSDK/MCLib/Any/Inc/mp_self_com_ctrl.h ****   float fVqsum;           /*!< Sum of measured Vq for mean.*/
 215:MCSDK_v6.3.2-Full/MotorControl/MCSDK/MCLib/Any/Inc/mp_self_com_ctrl.h ****   float fVdsum;           /*!< Sum of measured Vd for mean.*/
 216:MCSDK_v6.3.2-Full/MotorControl/MCSDK/MCLib/Any/Inc/mp_self_com_ctrl.h ****   float fFesum;           /*!< Sum of electrical frequency for mean.*/
 217:MCSDK_v6.3.2-Full/MotorControl/MCSDK/MCLib/Any/Inc/mp_self_com_ctrl.h ****   uint32_t wKeAcqCnt;     /*!< Counter of Iq, Vq and Vd acquired.*/
 218:MCSDK_v6.3.2-Full/MotorControl/MCSDK/MCLib/Any/Inc/mp_self_com_ctrl.h ****   float fEstNominalSpdRPM;/*!< Estimated nominal speed.*/
 219:MCSDK_v6.3.2-Full/MotorControl/MCSDK/MCLib/Any/Inc/mp_self_com_ctrl.h ****   float k1, k2;           /*!< Coefficient computed for state observer tuning.*/
 220:MCSDK_v6.3.2-Full/MotorControl/MCSDK/MCLib/Any/Inc/mp_self_com_ctrl.h ****   int8_t stabCnt;         /*!< Stabilization counter.*/
 221:MCSDK_v6.3.2-Full/MotorControl/MCSDK/MCLib/Any/Inc/mp_self_com_ctrl.h ****   float fLdLqRatio;       /*!< Ld vs Lq ratio.*/
 222:MCSDK_v6.3.2-Full/MotorControl/MCSDK/MCLib/Any/Inc/mp_self_com_ctrl.h ****   int32_t wNominalSpeed;  /*!< Nominal speed set by the user expressed in RPM.*/
 223:MCSDK_v6.3.2-Full/MotorControl/MCSDK/MCLib/Any/Inc/mp_self_com_ctrl.h ****   int32_t wMaxOLSpeed;    /*!< Maximum speed that can be sustained in the startup.*/
 224:MCSDK_v6.3.2-Full/MotorControl/MCSDK/MCLib/Any/Inc/mp_self_com_ctrl.h ****   uint32_t wAccRPMs;      /*!< Acceleration ramp for the motor expressed in
 225:MCSDK_v6.3.2-Full/MotorControl/MCSDK/MCLib/Any/Inc/mp_self_com_ctrl.h ****                                RMP/s.*/
 226:MCSDK_v6.3.2-Full/MotorControl/MCSDK/MCLib/Any/Inc/mp_self_com_ctrl.h ****   bool accRampLock;       /*!< It become true if the motor follow the acceleration. */
 227:MCSDK_v6.3.2-Full/MotorControl/MCSDK/MCLib/Any/Inc/mp_self_com_ctrl.h ****   float fEm_val[EMF_BUFF_VAL]; /*!< Buffer used for linear regression (BEMF amplitude).*/
 228:MCSDK_v6.3.2-Full/MotorControl/MCSDK/MCLib/Any/Inc/mp_self_com_ctrl.h ****   float fw_val[EMF_BUFF_VAL]; /*!< Buffer used for linear regression (Angular velocity).*/
 229:MCSDK_v6.3.2-Full/MotorControl/MCSDK/MCLib/Any/Inc/mp_self_com_ctrl.h ****   uint16_t hVal_ctn;       /*!< Counter for the buffer used for linear regression.*/
 230:MCSDK_v6.3.2-Full/MotorControl/MCSDK/MCLib/Any/Inc/mp_self_com_ctrl.h ****   bool startComputation;  /*!< It becomes true if the buffer used for linear
 231:MCSDK_v6.3.2-Full/MotorControl/MCSDK/MCLib/Any/Inc/mp_self_com_ctrl.h ****                                regression has been filled.*/
 232:MCSDK_v6.3.2-Full/MotorControl/MCSDK/MCLib/Any/Inc/mp_self_com_ctrl.h ****   uint16_t hTimeOutCnt;    /*!< Time out counter to assert the motor still
 233:MCSDK_v6.3.2-Full/MotorControl/MCSDK/MCLib/Any/Inc/mp_self_com_ctrl.h ****                                condition during acceleration ramp.*/
 234:MCSDK_v6.3.2-Full/MotorControl/MCSDK/MCLib/Any/Inc/mp_self_com_ctrl.h ****   uint32_t wLoseControlAtRPM; /*!< Last speed forced before loosing control during
 235:MCSDK_v6.3.2-Full/MotorControl/MCSDK/MCLib/Any/Inc/mp_self_com_ctrl.h ****                                  acceleration ramp.*/
 236:MCSDK_v6.3.2-Full/MotorControl/MCSDK/MCLib/Any/Inc/mp_self_com_ctrl.h ****   AccResult_t res;        /*!< Result state of the last acceleration ramp.*/
 237:MCSDK_v6.3.2-Full/MotorControl/MCSDK/MCLib/Any/Inc/mp_self_com_ctrl.h ****   float fLastValidI;      /*!< Last valid current measurement during SCC_DUTY_DETECTING_PHASE */
 238:MCSDK_v6.3.2-Full/MotorControl/MCSDK/MCLib/Any/Inc/mp_self_com_ctrl.h ****   uint16_t hMFCount;      /*!< Counter of MF to be wait after OC or loose control.*/
 239:MCSDK_v6.3.2-Full/MotorControl/MCSDK/MCLib/Any/Inc/mp_self_com_ctrl.h ****   uint16_t hMFTimeout;      /*!< Counter of MF to be wait after OC or loose control.*/
 240:MCSDK_v6.3.2-Full/MotorControl/MCSDK/MCLib/Any/Inc/mp_self_com_ctrl.h ****   float fCurrentBW;       /*!< Bandwidth of speed regulator.*/
 241:MCSDK_v6.3.2-Full/MotorControl/MCSDK/MCLib/Any/Inc/mp_self_com_ctrl.h ****   uint8_t bMPOngoing;     /*!< It is 1 if MP is ongoing, 0 otherwise.*/
 242:MCSDK_v6.3.2-Full/MotorControl/MCSDK/MCLib/Any/Inc/mp_self_com_ctrl.h ****   uint32_t wSpeedThToValidateStartupRPM; /*!< Speed threshold to validate the startup.*/
 243:MCSDK_v6.3.2-Full/MotorControl/MCSDK/MCLib/Any/Inc/mp_self_com_ctrl.h ****   float IaBuff[256];
 244:MCSDK_v6.3.2-Full/MotorControl/MCSDK/MCLib/Any/Inc/mp_self_com_ctrl.h ****   bool detectBemfState;
 245:MCSDK_v6.3.2-Full/MotorControl/MCSDK/MCLib/Any/Inc/mp_self_com_ctrl.h ****   
 246:MCSDK_v6.3.2-Full/MotorControl/MCSDK/MCLib/Any/Inc/mp_self_com_ctrl.h ****   bool polePairDetection; //profiler ppDetection
ARM GAS  /tmp/ccKFuU3x.s 			page 17


 247:MCSDK_v6.3.2-Full/MotorControl/MCSDK/MCLib/Any/Inc/mp_self_com_ctrl.h ****   uint32_t ppDtcCnt;           /*!< Counter of pole pairs detection time.*/
 248:MCSDK_v6.3.2-Full/MotorControl/MCSDK/MCLib/Any/Inc/mp_self_com_ctrl.h **** 
 249:MCSDK_v6.3.2-Full/MotorControl/MCSDK/MCLib/Any/Inc/mp_self_com_ctrl.h ****   pSCC_Params_t pSCC_Params_str;  /**< SelfComCtrl parameters */
 250:MCSDK_v6.3.2-Full/MotorControl/MCSDK/MCLib/Any/Inc/mp_self_com_ctrl.h **** 
 251:MCSDK_v6.3.2-Full/MotorControl/MCSDK/MCLib/Any/Inc/mp_self_com_ctrl.h **** } SCC_Handle_t;
 252:MCSDK_v6.3.2-Full/MotorControl/MCSDK/MCLib/Any/Inc/mp_self_com_ctrl.h **** 
 253:MCSDK_v6.3.2-Full/MotorControl/MCSDK/MCLib/Any/Inc/mp_self_com_ctrl.h **** 
 254:MCSDK_v6.3.2-Full/MotorControl/MCSDK/MCLib/Any/Inc/mp_self_com_ctrl.h **** /**
 255:MCSDK_v6.3.2-Full/MotorControl/MCSDK/MCLib/Any/Inc/mp_self_com_ctrl.h ****   * @brief  Initializes all the object variables, usually it has to be called
 256:MCSDK_v6.3.2-Full/MotorControl/MCSDK/MCLib/Any/Inc/mp_self_com_ctrl.h ****   *         once right after object creation.
 257:MCSDK_v6.3.2-Full/MotorControl/MCSDK/MCLib/Any/Inc/mp_self_com_ctrl.h ****   * @param  this related object of class CSCC.
 258:MCSDK_v6.3.2-Full/MotorControl/MCSDK/MCLib/Any/Inc/mp_self_com_ctrl.h ****   * @retval none.
 259:MCSDK_v6.3.2-Full/MotorControl/MCSDK/MCLib/Any/Inc/mp_self_com_ctrl.h ****   */
 260:MCSDK_v6.3.2-Full/MotorControl/MCSDK/MCLib/Any/Inc/mp_self_com_ctrl.h **** void SCC_Init(SCC_Handle_t *pHandle);
 261:MCSDK_v6.3.2-Full/MotorControl/MCSDK/MCLib/Any/Inc/mp_self_com_ctrl.h **** /**
 262:MCSDK_v6.3.2-Full/MotorControl/MCSDK/MCLib/Any/Inc/mp_self_com_ctrl.h ****   * @brief  It should be called before each motor restart.
 263:MCSDK_v6.3.2-Full/MotorControl/MCSDK/MCLib/Any/Inc/mp_self_com_ctrl.h ****   * @param this related object of class CSCC.
 264:MCSDK_v6.3.2-Full/MotorControl/MCSDK/MCLib/Any/Inc/mp_self_com_ctrl.h ****   * @retval bool It return false if function fails to start the SCC.
 265:MCSDK_v6.3.2-Full/MotorControl/MCSDK/MCLib/Any/Inc/mp_self_com_ctrl.h ****   */
 266:MCSDK_v6.3.2-Full/MotorControl/MCSDK/MCLib/Any/Inc/mp_self_com_ctrl.h **** bool SCC_Start(SCC_Handle_t *pHandle);
 267:MCSDK_v6.3.2-Full/MotorControl/MCSDK/MCLib/Any/Inc/mp_self_com_ctrl.h **** 
 268:MCSDK_v6.3.2-Full/MotorControl/MCSDK/MCLib/Any/Inc/mp_self_com_ctrl.h **** /**
 269:MCSDK_v6.3.2-Full/MotorControl/MCSDK/MCLib/Any/Inc/mp_self_com_ctrl.h ****   * @brief  It should be called before each motor stop.
 270:MCSDK_v6.3.2-Full/MotorControl/MCSDK/MCLib/Any/Inc/mp_self_com_ctrl.h ****   * @param this related object of class CSCC.
 271:MCSDK_v6.3.2-Full/MotorControl/MCSDK/MCLib/Any/Inc/mp_self_com_ctrl.h ****   * @retval none.
 272:MCSDK_v6.3.2-Full/MotorControl/MCSDK/MCLib/Any/Inc/mp_self_com_ctrl.h ****   */
 273:MCSDK_v6.3.2-Full/MotorControl/MCSDK/MCLib/Any/Inc/mp_self_com_ctrl.h **** void SCC_Stop(SCC_Handle_t *pHandle);
 274:MCSDK_v6.3.2-Full/MotorControl/MCSDK/MCLib/Any/Inc/mp_self_com_ctrl.h **** 
 275:MCSDK_v6.3.2-Full/MotorControl/MCSDK/MCLib/Any/Inc/mp_self_com_ctrl.h **** /**
 276:MCSDK_v6.3.2-Full/MotorControl/MCSDK/MCLib/Any/Inc/mp_self_com_ctrl.h ****   * @brief  It feed the required phase voltage to the inverter.
 277:MCSDK_v6.3.2-Full/MotorControl/MCSDK/MCLib/Any/Inc/mp_self_com_ctrl.h ****   * @param  this related object of class CSCC.
 278:MCSDK_v6.3.2-Full/MotorControl/MCSDK/MCLib/Any/Inc/mp_self_com_ctrl.h ****   * @retval It returns the code error 'MC_DURATION' if any, 'MC_NO_ERROR'
 279:MCSDK_v6.3.2-Full/MotorControl/MCSDK/MCLib/Any/Inc/mp_self_com_ctrl.h ****   *         otherwise. These error codes are defined in mc_type.h
 280:MCSDK_v6.3.2-Full/MotorControl/MCSDK/MCLib/Any/Inc/mp_self_com_ctrl.h ****   */
 281:MCSDK_v6.3.2-Full/MotorControl/MCSDK/MCLib/Any/Inc/mp_self_com_ctrl.h **** uint16_t SCC_SetPhaseVoltage(SCC_Handle_t *pHandle);
 282:MCSDK_v6.3.2-Full/MotorControl/MCSDK/MCLib/Any/Inc/mp_self_com_ctrl.h **** 
 283:MCSDK_v6.3.2-Full/MotorControl/MCSDK/MCLib/Any/Inc/mp_self_com_ctrl.h **** /**
 284:MCSDK_v6.3.2-Full/MotorControl/MCSDK/MCLib/Any/Inc/mp_self_com_ctrl.h ****   * @brief  Medium frequency task.
 285:MCSDK_v6.3.2-Full/MotorControl/MCSDK/MCLib/Any/Inc/mp_self_com_ctrl.h ****   * @param  this related object of class CSCC.
 286:MCSDK_v6.3.2-Full/MotorControl/MCSDK/MCLib/Any/Inc/mp_self_com_ctrl.h ****   * @retval none
 287:MCSDK_v6.3.2-Full/MotorControl/MCSDK/MCLib/Any/Inc/mp_self_com_ctrl.h ****   */
 288:MCSDK_v6.3.2-Full/MotorControl/MCSDK/MCLib/Any/Inc/mp_self_com_ctrl.h **** void SCC_MF(SCC_Handle_t *pHandle);
 289:MCSDK_v6.3.2-Full/MotorControl/MCSDK/MCLib/Any/Inc/mp_self_com_ctrl.h **** 
 290:MCSDK_v6.3.2-Full/MotorControl/MCSDK/MCLib/Any/Inc/mp_self_com_ctrl.h **** /**
 291:MCSDK_v6.3.2-Full/MotorControl/MCSDK/MCLib/Any/Inc/mp_self_com_ctrl.h ****   * @brief  Check overcurrent during RL detetction and restart the procedure
 292:MCSDK_v6.3.2-Full/MotorControl/MCSDK/MCLib/Any/Inc/mp_self_com_ctrl.h ****   *         with less current.
 293:MCSDK_v6.3.2-Full/MotorControl/MCSDK/MCLib/Any/Inc/mp_self_com_ctrl.h ****   * @param  this related object of class CSCC.
 294:MCSDK_v6.3.2-Full/MotorControl/MCSDK/MCLib/Any/Inc/mp_self_com_ctrl.h ****   * @retval none.
 295:MCSDK_v6.3.2-Full/MotorControl/MCSDK/MCLib/Any/Inc/mp_self_com_ctrl.h ****   */
 296:MCSDK_v6.3.2-Full/MotorControl/MCSDK/MCLib/Any/Inc/mp_self_com_ctrl.h **** void SCC_CheckOC_RL(SCC_Handle_t *pHandle);
 297:MCSDK_v6.3.2-Full/MotorControl/MCSDK/MCLib/Any/Inc/mp_self_com_ctrl.h **** 
 298:MCSDK_v6.3.2-Full/MotorControl/MCSDK/MCLib/Any/Inc/mp_self_com_ctrl.h **** /**
 299:MCSDK_v6.3.2-Full/MotorControl/MCSDK/MCLib/Any/Inc/mp_self_com_ctrl.h ****   * @brief  It returns the number of states of Selfcommissioning procedure.
 300:MCSDK_v6.3.2-Full/MotorControl/MCSDK/MCLib/Any/Inc/mp_self_com_ctrl.h ****   * @param  pHandle: handler of SCC component.
 301:MCSDK_v6.3.2-Full/MotorControl/MCSDK/MCLib/Any/Inc/mp_self_com_ctrl.h ****   * @retval uint8_t It returns the state of Selfcommissioning procedure.
 302:MCSDK_v6.3.2-Full/MotorControl/MCSDK/MCLib/Any/Inc/mp_self_com_ctrl.h ****   */
 303:MCSDK_v6.3.2-Full/MotorControl/MCSDK/MCLib/Any/Inc/mp_self_com_ctrl.h **** static inline uint8_t SCC_GetSteps(SCC_Handle_t *pHandle)
ARM GAS  /tmp/ccKFuU3x.s 			page 18


 304:MCSDK_v6.3.2-Full/MotorControl/MCSDK/MCLib/Any/Inc/mp_self_com_ctrl.h **** {
 305:MCSDK_v6.3.2-Full/MotorControl/MCSDK/MCLib/Any/Inc/mp_self_com_ctrl.h ****   return 5u;
 306:MCSDK_v6.3.2-Full/MotorControl/MCSDK/MCLib/Any/Inc/mp_self_com_ctrl.h **** }
 307:MCSDK_v6.3.2-Full/MotorControl/MCSDK/MCLib/Any/Inc/mp_self_com_ctrl.h **** 
 308:MCSDK_v6.3.2-Full/MotorControl/MCSDK/MCLib/Any/Inc/mp_self_com_ctrl.h **** /**
 309:MCSDK_v6.3.2-Full/MotorControl/MCSDK/MCLib/Any/Inc/mp_self_com_ctrl.h ****   * @brief  It returns the measured Rs.
 310:MCSDK_v6.3.2-Full/MotorControl/MCSDK/MCLib/Any/Inc/mp_self_com_ctrl.h ****   * @param  pHandle: handler of SCC component.
 311:MCSDK_v6.3.2-Full/MotorControl/MCSDK/MCLib/Any/Inc/mp_self_com_ctrl.h ****   * @retval uint32_t It returns the measured Rs, it is a floating point number
 312:MCSDK_v6.3.2-Full/MotorControl/MCSDK/MCLib/Any/Inc/mp_self_com_ctrl.h ****   *         codified into a 32bit integer.
 313:MCSDK_v6.3.2-Full/MotorControl/MCSDK/MCLib/Any/Inc/mp_self_com_ctrl.h ****   */
 314:MCSDK_v6.3.2-Full/MotorControl/MCSDK/MCLib/Any/Inc/mp_self_com_ctrl.h **** static inline uint32_t SCC_GetRs(SCC_Handle_t *pHandle)
 315:MCSDK_v6.3.2-Full/MotorControl/MCSDK/MCLib/Any/Inc/mp_self_com_ctrl.h **** {
 316:MCSDK_v6.3.2-Full/MotorControl/MCSDK/MCLib/Any/Inc/mp_self_com_ctrl.h ****   return MCM_floatToIntBit(pHandle->fRS);
 317:MCSDK_v6.3.2-Full/MotorControl/MCSDK/MCLib/Any/Inc/mp_self_com_ctrl.h **** }
 318:MCSDK_v6.3.2-Full/MotorControl/MCSDK/MCLib/Any/Inc/mp_self_com_ctrl.h **** 
 319:MCSDK_v6.3.2-Full/MotorControl/MCSDK/MCLib/Any/Inc/mp_self_com_ctrl.h **** /**
 320:MCSDK_v6.3.2-Full/MotorControl/MCSDK/MCLib/Any/Inc/mp_self_com_ctrl.h ****   * @brief  It returns the measured Ls.
 321:MCSDK_v6.3.2-Full/MotorControl/MCSDK/MCLib/Any/Inc/mp_self_com_ctrl.h ****   * @param  pHandle: handler of SCC component.
 322:MCSDK_v6.3.2-Full/MotorControl/MCSDK/MCLib/Any/Inc/mp_self_com_ctrl.h ****   * @retval uint32_t It returns the measured Ls, it is a floating point number
 323:MCSDK_v6.3.2-Full/MotorControl/MCSDK/MCLib/Any/Inc/mp_self_com_ctrl.h ****   *         codified into a 32bit integer.
 324:MCSDK_v6.3.2-Full/MotorControl/MCSDK/MCLib/Any/Inc/mp_self_com_ctrl.h ****   */
 325:MCSDK_v6.3.2-Full/MotorControl/MCSDK/MCLib/Any/Inc/mp_self_com_ctrl.h **** static inline uint32_t SCC_GetLs(SCC_Handle_t *pHandle)
 326:MCSDK_v6.3.2-Full/MotorControl/MCSDK/MCLib/Any/Inc/mp_self_com_ctrl.h **** {
 327:MCSDK_v6.3.2-Full/MotorControl/MCSDK/MCLib/Any/Inc/mp_self_com_ctrl.h ****   return MCM_floatToIntBit(pHandle->fLS);
 328:MCSDK_v6.3.2-Full/MotorControl/MCSDK/MCLib/Any/Inc/mp_self_com_ctrl.h **** }
 329:MCSDK_v6.3.2-Full/MotorControl/MCSDK/MCLib/Any/Inc/mp_self_com_ctrl.h **** 
 330:MCSDK_v6.3.2-Full/MotorControl/MCSDK/MCLib/Any/Inc/mp_self_com_ctrl.h **** /**
 331:MCSDK_v6.3.2-Full/MotorControl/MCSDK/MCLib/Any/Inc/mp_self_com_ctrl.h ****   * @brief  It returns the measured Ke.
 332:MCSDK_v6.3.2-Full/MotorControl/MCSDK/MCLib/Any/Inc/mp_self_com_ctrl.h ****   * @param  pHandle: handler of SCC component.
 333:MCSDK_v6.3.2-Full/MotorControl/MCSDK/MCLib/Any/Inc/mp_self_com_ctrl.h ****   * @retval uint32_t It returns the measured Ke, it is a floating point number
 334:MCSDK_v6.3.2-Full/MotorControl/MCSDK/MCLib/Any/Inc/mp_self_com_ctrl.h ****   *         codified into a 32bit integer.
 335:MCSDK_v6.3.2-Full/MotorControl/MCSDK/MCLib/Any/Inc/mp_self_com_ctrl.h ****   */
 336:MCSDK_v6.3.2-Full/MotorControl/MCSDK/MCLib/Any/Inc/mp_self_com_ctrl.h **** static inline uint32_t SCC_GetKe(SCC_Handle_t *pHandle)
 337:MCSDK_v6.3.2-Full/MotorControl/MCSDK/MCLib/Any/Inc/mp_self_com_ctrl.h **** {
 338:MCSDK_v6.3.2-Full/MotorControl/MCSDK/MCLib/Any/Inc/mp_self_com_ctrl.h ****   return MCM_floatToIntBit(pHandle->fKe);
 339:MCSDK_v6.3.2-Full/MotorControl/MCSDK/MCLib/Any/Inc/mp_self_com_ctrl.h **** }
 340:MCSDK_v6.3.2-Full/MotorControl/MCSDK/MCLib/Any/Inc/mp_self_com_ctrl.h **** 
 341:MCSDK_v6.3.2-Full/MotorControl/MCSDK/MCLib/Any/Inc/mp_self_com_ctrl.h **** /**
 342:MCSDK_v6.3.2-Full/MotorControl/MCSDK/MCLib/Any/Inc/mp_self_com_ctrl.h ****   * @brief  It returns the measured VBus.
 343:MCSDK_v6.3.2-Full/MotorControl/MCSDK/MCLib/Any/Inc/mp_self_com_ctrl.h ****   * @param  pHandle: handler of SCC component.
 344:MCSDK_v6.3.2-Full/MotorControl/MCSDK/MCLib/Any/Inc/mp_self_com_ctrl.h ****   * @retval uint32_t It returns the measured Vbus, it is a floating point number
 345:MCSDK_v6.3.2-Full/MotorControl/MCSDK/MCLib/Any/Inc/mp_self_com_ctrl.h ****   *         codified into a 32bit integer.
 346:MCSDK_v6.3.2-Full/MotorControl/MCSDK/MCLib/Any/Inc/mp_self_com_ctrl.h ****   */
 347:MCSDK_v6.3.2-Full/MotorControl/MCSDK/MCLib/Any/Inc/mp_self_com_ctrl.h **** static inline uint32_t SCC_GetVbus(SCC_Handle_t *pHandle)
 348:MCSDK_v6.3.2-Full/MotorControl/MCSDK/MCLib/Any/Inc/mp_self_com_ctrl.h **** {
 349:MCSDK_v6.3.2-Full/MotorControl/MCSDK/MCLib/Any/Inc/mp_self_com_ctrl.h ****   return MCM_floatToIntBit(pHandle->fBusV);
 350:MCSDK_v6.3.2-Full/MotorControl/MCSDK/MCLib/Any/Inc/mp_self_com_ctrl.h **** }
 351:MCSDK_v6.3.2-Full/MotorControl/MCSDK/MCLib/Any/Inc/mp_self_com_ctrl.h **** 
 352:MCSDK_v6.3.2-Full/MotorControl/MCSDK/MCLib/Any/Inc/mp_self_com_ctrl.h **** /**
 353:MCSDK_v6.3.2-Full/MotorControl/MCSDK/MCLib/Any/Inc/mp_self_com_ctrl.h ****   * @brief  Sets the number of motor poles pairs.
 354:MCSDK_v6.3.2-Full/MotorControl/MCSDK/MCLib/Any/Inc/mp_self_com_ctrl.h ****   *         This function shall be called before the start
 355:MCSDK_v6.3.2-Full/MotorControl/MCSDK/MCLib/Any/Inc/mp_self_com_ctrl.h ****   *         of the MP procedure.
 356:MCSDK_v6.3.2-Full/MotorControl/MCSDK/MCLib/Any/Inc/mp_self_com_ctrl.h ****   * @param  pHandle: handler of SCC component.
 357:MCSDK_v6.3.2-Full/MotorControl/MCSDK/MCLib/Any/Inc/mp_self_com_ctrl.h ****   * @param  bPP Number of motor poles pairs to be set.
 358:MCSDK_v6.3.2-Full/MotorControl/MCSDK/MCLib/Any/Inc/mp_self_com_ctrl.h ****   * @retval none
 359:MCSDK_v6.3.2-Full/MotorControl/MCSDK/MCLib/Any/Inc/mp_self_com_ctrl.h ****   */
 360:MCSDK_v6.3.2-Full/MotorControl/MCSDK/MCLib/Any/Inc/mp_self_com_ctrl.h **** static inline void SCC_SetPolesPairs(SCC_Handle_t *pHandle, uint8_t bPP)
ARM GAS  /tmp/ccKFuU3x.s 			page 19


 361:MCSDK_v6.3.2-Full/MotorControl/MCSDK/MCLib/Any/Inc/mp_self_com_ctrl.h **** {
 362:MCSDK_v6.3.2-Full/MotorControl/MCSDK/MCLib/Any/Inc/mp_self_com_ctrl.h ****   pHandle->fPP = (float)(bPP);
 363:MCSDK_v6.3.2-Full/MotorControl/MCSDK/MCLib/Any/Inc/mp_self_com_ctrl.h **** }
 364:MCSDK_v6.3.2-Full/MotorControl/MCSDK/MCLib/Any/Inc/mp_self_com_ctrl.h **** 
 365:MCSDK_v6.3.2-Full/MotorControl/MCSDK/MCLib/Any/Inc/mp_self_com_ctrl.h **** /**
 366:MCSDK_v6.3.2-Full/MotorControl/MCSDK/MCLib/Any/Inc/mp_self_com_ctrl.h ****   * @brief  Get the nominal current used for RL determination.
 367:MCSDK_v6.3.2-Full/MotorControl/MCSDK/MCLib/Any/Inc/mp_self_com_ctrl.h ****   * @param  pHandle: handler of SCC component.
 368:MCSDK_v6.3.2-Full/MotorControl/MCSDK/MCLib/Any/Inc/mp_self_com_ctrl.h ****   * @retval float Nominal current used for RL determination.
 369:MCSDK_v6.3.2-Full/MotorControl/MCSDK/MCLib/Any/Inc/mp_self_com_ctrl.h ****   */
 370:MCSDK_v6.3.2-Full/MotorControl/MCSDK/MCLib/Any/Inc/mp_self_com_ctrl.h **** static inline float SCC_GetNominalCurrent(SCC_Handle_t *pHandle)
 371:MCSDK_v6.3.2-Full/MotorControl/MCSDK/MCLib/Any/Inc/mp_self_com_ctrl.h **** {
 372:MCSDK_v6.3.2-Full/MotorControl/MCSDK/MCLib/Any/Inc/mp_self_com_ctrl.h ****   return pHandle->fLastTargetCurr;
 373:MCSDK_v6.3.2-Full/MotorControl/MCSDK/MCLib/Any/Inc/mp_self_com_ctrl.h **** }
 374:MCSDK_v6.3.2-Full/MotorControl/MCSDK/MCLib/Any/Inc/mp_self_com_ctrl.h **** 
 375:MCSDK_v6.3.2-Full/MotorControl/MCSDK/MCLib/Any/Inc/mp_self_com_ctrl.h **** /**
 376:MCSDK_v6.3.2-Full/MotorControl/MCSDK/MCLib/Any/Inc/mp_self_com_ctrl.h ****   * @brief  Set the Ld/Lq ratio.
 377:MCSDK_v6.3.2-Full/MotorControl/MCSDK/MCLib/Any/Inc/mp_self_com_ctrl.h ****   *         This function shall be called before the start
 378:MCSDK_v6.3.2-Full/MotorControl/MCSDK/MCLib/Any/Inc/mp_self_com_ctrl.h ****   *         of the MP procedure.
 379:MCSDK_v6.3.2-Full/MotorControl/MCSDK/MCLib/Any/Inc/mp_self_com_ctrl.h ****   * @param  pHandle: handler of SCC component.
 380:MCSDK_v6.3.2-Full/MotorControl/MCSDK/MCLib/Any/Inc/mp_self_com_ctrl.h ****   * @param  fLdLqRatio New value of Lq/Lq ratio used by MP for tuning of
 381:MCSDK_v6.3.2-Full/MotorControl/MCSDK/MCLib/Any/Inc/mp_self_com_ctrl.h ****             current regulators.
 382:MCSDK_v6.3.2-Full/MotorControl/MCSDK/MCLib/Any/Inc/mp_self_com_ctrl.h ****   * @retval none
 383:MCSDK_v6.3.2-Full/MotorControl/MCSDK/MCLib/Any/Inc/mp_self_com_ctrl.h ****   */
 384:MCSDK_v6.3.2-Full/MotorControl/MCSDK/MCLib/Any/Inc/mp_self_com_ctrl.h **** static inline void SCC_SetLdLqRatio(SCC_Handle_t *pHandle, float fLdLqRatio)
 385:MCSDK_v6.3.2-Full/MotorControl/MCSDK/MCLib/Any/Inc/mp_self_com_ctrl.h **** {
 386:MCSDK_v6.3.2-Full/MotorControl/MCSDK/MCLib/Any/Inc/mp_self_com_ctrl.h ****   pHandle->fLdLqRatio = fLdLqRatio;
 387:MCSDK_v6.3.2-Full/MotorControl/MCSDK/MCLib/Any/Inc/mp_self_com_ctrl.h **** }
 388:MCSDK_v6.3.2-Full/MotorControl/MCSDK/MCLib/Any/Inc/mp_self_com_ctrl.h **** 
 389:MCSDK_v6.3.2-Full/MotorControl/MCSDK/MCLib/Any/Inc/mp_self_com_ctrl.h **** /**
 390:MCSDK_v6.3.2-Full/MotorControl/MCSDK/MCLib/Any/Inc/mp_self_com_ctrl.h ****   * @brief  Get the Ld/Lq ratio.
 391:MCSDK_v6.3.2-Full/MotorControl/MCSDK/MCLib/Any/Inc/mp_self_com_ctrl.h ****   * @param  pHandle: handler of SCC component.
 392:MCSDK_v6.3.2-Full/MotorControl/MCSDK/MCLib/Any/Inc/mp_self_com_ctrl.h ****   * @retval float New value of Lq/Lq ratio used by MP for tuning of
 393:MCSDK_v6.3.2-Full/MotorControl/MCSDK/MCLib/Any/Inc/mp_self_com_ctrl.h ****             current regulators.
 394:MCSDK_v6.3.2-Full/MotorControl/MCSDK/MCLib/Any/Inc/mp_self_com_ctrl.h ****   */
 395:MCSDK_v6.3.2-Full/MotorControl/MCSDK/MCLib/Any/Inc/mp_self_com_ctrl.h **** static inline float SCC_GetLdLqRatio(SCC_Handle_t *pHandle)
 396:MCSDK_v6.3.2-Full/MotorControl/MCSDK/MCLib/Any/Inc/mp_self_com_ctrl.h **** {
 397:MCSDK_v6.3.2-Full/MotorControl/MCSDK/MCLib/Any/Inc/mp_self_com_ctrl.h ****   return pHandle->fLdLqRatio;
 398:MCSDK_v6.3.2-Full/MotorControl/MCSDK/MCLib/Any/Inc/mp_self_com_ctrl.h **** }
 399:MCSDK_v6.3.2-Full/MotorControl/MCSDK/MCLib/Any/Inc/mp_self_com_ctrl.h **** 
 400:MCSDK_v6.3.2-Full/MotorControl/MCSDK/MCLib/Any/Inc/mp_self_com_ctrl.h **** /**
 401:MCSDK_v6.3.2-Full/MotorControl/MCSDK/MCLib/Any/Inc/mp_self_com_ctrl.h ****   * @brief  Get the last nominal speed set by SCC_SetNominalSpeed.
 402:MCSDK_v6.3.2-Full/MotorControl/MCSDK/MCLib/Any/Inc/mp_self_com_ctrl.h ****   *         Note that this is not the estimated one.
 403:MCSDK_v6.3.2-Full/MotorControl/MCSDK/MCLib/Any/Inc/mp_self_com_ctrl.h ****   * @param  pHandle: handler of SCC component.
 404:MCSDK_v6.3.2-Full/MotorControl/MCSDK/MCLib/Any/Inc/mp_self_com_ctrl.h ****   * @retval int32_t Nominal speed expressed in RPM.
 405:MCSDK_v6.3.2-Full/MotorControl/MCSDK/MCLib/Any/Inc/mp_self_com_ctrl.h ****   */
 406:MCSDK_v6.3.2-Full/MotorControl/MCSDK/MCLib/Any/Inc/mp_self_com_ctrl.h **** static inline int32_t SCC_GetNominalSpeed(SCC_Handle_t *pHandle)
 407:MCSDK_v6.3.2-Full/MotorControl/MCSDK/MCLib/Any/Inc/mp_self_com_ctrl.h **** {
 408:MCSDK_v6.3.2-Full/MotorControl/MCSDK/MCLib/Any/Inc/mp_self_com_ctrl.h ****   return pHandle->wNominalSpeed;
 409:MCSDK_v6.3.2-Full/MotorControl/MCSDK/MCLib/Any/Inc/mp_self_com_ctrl.h **** }
 410:MCSDK_v6.3.2-Full/MotorControl/MCSDK/MCLib/Any/Inc/mp_self_com_ctrl.h **** 
 411:MCSDK_v6.3.2-Full/MotorControl/MCSDK/MCLib/Any/Inc/mp_self_com_ctrl.h **** /**
 412:MCSDK_v6.3.2-Full/MotorControl/MCSDK/MCLib/Any/Inc/mp_self_com_ctrl.h ****   * @brief  Get the estimated maximum speed that can be
 413:MCSDK_v6.3.2-Full/MotorControl/MCSDK/MCLib/Any/Inc/mp_self_com_ctrl.h ****   *         sustained in the startup open loop acceleration.
 414:MCSDK_v6.3.2-Full/MotorControl/MCSDK/MCLib/Any/Inc/mp_self_com_ctrl.h ****   *         This function must be called only after that the
 415:MCSDK_v6.3.2-Full/MotorControl/MCSDK/MCLib/Any/Inc/mp_self_com_ctrl.h ****   *         MP procedure is completed successfully.
 416:MCSDK_v6.3.2-Full/MotorControl/MCSDK/MCLib/Any/Inc/mp_self_com_ctrl.h ****   * @param  pHandle: handler of SCC component.
 417:MCSDK_v6.3.2-Full/MotorControl/MCSDK/MCLib/Any/Inc/mp_self_com_ctrl.h ****   * @retval int32_t Estimated maximum open loop speed expressed in RPM.
ARM GAS  /tmp/ccKFuU3x.s 			page 20


 418:MCSDK_v6.3.2-Full/MotorControl/MCSDK/MCLib/Any/Inc/mp_self_com_ctrl.h ****   */
 419:MCSDK_v6.3.2-Full/MotorControl/MCSDK/MCLib/Any/Inc/mp_self_com_ctrl.h **** static inline int32_t SCC_GetEstMaxOLSpeed(SCC_Handle_t *pHandle)
 420:MCSDK_v6.3.2-Full/MotorControl/MCSDK/MCLib/Any/Inc/mp_self_com_ctrl.h **** {
 421:MCSDK_v6.3.2-Full/MotorControl/MCSDK/MCLib/Any/Inc/mp_self_com_ctrl.h ****   return pHandle->wMaxOLSpeed;
 422:MCSDK_v6.3.2-Full/MotorControl/MCSDK/MCLib/Any/Inc/mp_self_com_ctrl.h **** }
 423:MCSDK_v6.3.2-Full/MotorControl/MCSDK/MCLib/Any/Inc/mp_self_com_ctrl.h **** 
 424:MCSDK_v6.3.2-Full/MotorControl/MCSDK/MCLib/Any/Inc/mp_self_com_ctrl.h **** /**
 425:MCSDK_v6.3.2-Full/MotorControl/MCSDK/MCLib/Any/Inc/mp_self_com_ctrl.h ****   * @brief  Get the estimated maximum acceleration that can be
 426:MCSDK_v6.3.2-Full/MotorControl/MCSDK/MCLib/Any/Inc/mp_self_com_ctrl.h ****   *         sustained in the startup using the estimated
 427:MCSDK_v6.3.2-Full/MotorControl/MCSDK/MCLib/Any/Inc/mp_self_com_ctrl.h ****   *         startup current. You can retrieve the max startup
 428:MCSDK_v6.3.2-Full/MotorControl/MCSDK/MCLib/Any/Inc/mp_self_com_ctrl.h ****   *         current using the SCC_GetStartupCurrentX function.
 429:MCSDK_v6.3.2-Full/MotorControl/MCSDK/MCLib/Any/Inc/mp_self_com_ctrl.h ****   *         This function must be called only after that the
 430:MCSDK_v6.3.2-Full/MotorControl/MCSDK/MCLib/Any/Inc/mp_self_com_ctrl.h ****   *         MP procedure is completed successfully.
 431:MCSDK_v6.3.2-Full/MotorControl/MCSDK/MCLib/Any/Inc/mp_self_com_ctrl.h ****   * @param  pHandle: handler of SCC component.
 432:MCSDK_v6.3.2-Full/MotorControl/MCSDK/MCLib/Any/Inc/mp_self_com_ctrl.h ****   * @retval int32_t Estimated maximum open loop acceleration
 433:MCSDK_v6.3.2-Full/MotorControl/MCSDK/MCLib/Any/Inc/mp_self_com_ctrl.h ****   *         expressed in RPM/s.
 434:MCSDK_v6.3.2-Full/MotorControl/MCSDK/MCLib/Any/Inc/mp_self_com_ctrl.h ****   */
 435:MCSDK_v6.3.2-Full/MotorControl/MCSDK/MCLib/Any/Inc/mp_self_com_ctrl.h **** static inline int32_t SCC_GetEstMaxAcceleration(SCC_Handle_t *pHandle)
 436:MCSDK_v6.3.2-Full/MotorControl/MCSDK/MCLib/Any/Inc/mp_self_com_ctrl.h **** {
 437:MCSDK_v6.3.2-Full/MotorControl/MCSDK/MCLib/Any/Inc/mp_self_com_ctrl.h ****   return pHandle->wAccRPMs;
 438:MCSDK_v6.3.2-Full/MotorControl/MCSDK/MCLib/Any/Inc/mp_self_com_ctrl.h **** }
 439:MCSDK_v6.3.2-Full/MotorControl/MCSDK/MCLib/Any/Inc/mp_self_com_ctrl.h **** 
 440:MCSDK_v6.3.2-Full/MotorControl/MCSDK/MCLib/Any/Inc/mp_self_com_ctrl.h **** /**
 441:MCSDK_v6.3.2-Full/MotorControl/MCSDK/MCLib/Any/Inc/mp_self_com_ctrl.h ****   * @brief  Get the estimated maximum startup current that
 442:MCSDK_v6.3.2-Full/MotorControl/MCSDK/MCLib/Any/Inc/mp_self_com_ctrl.h ****   *         can be applied to the selected motor.
 443:MCSDK_v6.3.2-Full/MotorControl/MCSDK/MCLib/Any/Inc/mp_self_com_ctrl.h ****   *         This function must be called only after that the
 444:MCSDK_v6.3.2-Full/MotorControl/MCSDK/MCLib/Any/Inc/mp_self_com_ctrl.h ****   *         MP procedure is completed successfully.
 445:MCSDK_v6.3.2-Full/MotorControl/MCSDK/MCLib/Any/Inc/mp_self_com_ctrl.h ****   * @param  pHandle: handler of SCC component.
 446:MCSDK_v6.3.2-Full/MotorControl/MCSDK/MCLib/Any/Inc/mp_self_com_ctrl.h ****   * @retval int16_t Estimated maximum open loop current
 447:MCSDK_v6.3.2-Full/MotorControl/MCSDK/MCLib/Any/Inc/mp_self_com_ctrl.h ****   *         expressed in Ampere.
 448:MCSDK_v6.3.2-Full/MotorControl/MCSDK/MCLib/Any/Inc/mp_self_com_ctrl.h ****   */
 449:MCSDK_v6.3.2-Full/MotorControl/MCSDK/MCLib/Any/Inc/mp_self_com_ctrl.h **** static inline float SCC_GetStartupCurrentAmp(SCC_Handle_t *pHandle)
 450:MCSDK_v6.3.2-Full/MotorControl/MCSDK/MCLib/Any/Inc/mp_self_com_ctrl.h **** {
 451:MCSDK_v6.3.2-Full/MotorControl/MCSDK/MCLib/Any/Inc/mp_self_com_ctrl.h ****   return pHandle->fLastTargetCurr;
 452:MCSDK_v6.3.2-Full/MotorControl/MCSDK/MCLib/Any/Inc/mp_self_com_ctrl.h **** }
 453:MCSDK_v6.3.2-Full/MotorControl/MCSDK/MCLib/Any/Inc/mp_self_com_ctrl.h **** 
 454:MCSDK_v6.3.2-Full/MotorControl/MCSDK/MCLib/Any/Inc/mp_self_com_ctrl.h **** /**
 455:MCSDK_v6.3.2-Full/MotorControl/MCSDK/MCLib/Any/Inc/mp_self_com_ctrl.h ****   * @brief  Set the bandwidth used to tune the current regulators.
 456:MCSDK_v6.3.2-Full/MotorControl/MCSDK/MCLib/Any/Inc/mp_self_com_ctrl.h ****   *         This function shall be called before the start
 457:MCSDK_v6.3.2-Full/MotorControl/MCSDK/MCLib/Any/Inc/mp_self_com_ctrl.h ****   *         of the MP procedure.
 458:MCSDK_v6.3.2-Full/MotorControl/MCSDK/MCLib/Any/Inc/mp_self_com_ctrl.h ****   * @param  pHandle: handler of SCC component.
 459:MCSDK_v6.3.2-Full/MotorControl/MCSDK/MCLib/Any/Inc/mp_self_com_ctrl.h ****   * @param  fCurrentBW Bandwidth used to tune the current regulators expressed in rad/s.
 460:MCSDK_v6.3.2-Full/MotorControl/MCSDK/MCLib/Any/Inc/mp_self_com_ctrl.h ****   * @retval none
 461:MCSDK_v6.3.2-Full/MotorControl/MCSDK/MCLib/Any/Inc/mp_self_com_ctrl.h ****   */
 462:MCSDK_v6.3.2-Full/MotorControl/MCSDK/MCLib/Any/Inc/mp_self_com_ctrl.h **** static inline void SCC_SetCurrentBandwidth(SCC_Handle_t *pHandle, float fCurrentBW)
 463:MCSDK_v6.3.2-Full/MotorControl/MCSDK/MCLib/Any/Inc/mp_self_com_ctrl.h **** {
 464:MCSDK_v6.3.2-Full/MotorControl/MCSDK/MCLib/Any/Inc/mp_self_com_ctrl.h ****   pHandle->fCurrentBW = fCurrentBW;
 465:MCSDK_v6.3.2-Full/MotorControl/MCSDK/MCLib/Any/Inc/mp_self_com_ctrl.h **** }
 466:MCSDK_v6.3.2-Full/MotorControl/MCSDK/MCLib/Any/Inc/mp_self_com_ctrl.h **** 
 467:MCSDK_v6.3.2-Full/MotorControl/MCSDK/MCLib/Any/Inc/mp_self_com_ctrl.h **** /**
 468:MCSDK_v6.3.2-Full/MotorControl/MCSDK/MCLib/Any/Inc/mp_self_com_ctrl.h ****   * @brief  Get the bandwidth used to tune the current regulators.
 469:MCSDK_v6.3.2-Full/MotorControl/MCSDK/MCLib/Any/Inc/mp_self_com_ctrl.h ****   * @param  pHandle: handler of SCC component.
 470:MCSDK_v6.3.2-Full/MotorControl/MCSDK/MCLib/Any/Inc/mp_self_com_ctrl.h ****   *         This function must be called only after that the
 471:MCSDK_v6.3.2-Full/MotorControl/MCSDK/MCLib/Any/Inc/mp_self_com_ctrl.h ****   *         MP procedure is completed successfully.
 472:MCSDK_v6.3.2-Full/MotorControl/MCSDK/MCLib/Any/Inc/mp_self_com_ctrl.h ****   * @retval float Bandwidth used to tune the current regulators expressed in
 473:MCSDK_v6.3.2-Full/MotorControl/MCSDK/MCLib/Any/Inc/mp_self_com_ctrl.h ****   *         rad/s.
 474:MCSDK_v6.3.2-Full/MotorControl/MCSDK/MCLib/Any/Inc/mp_self_com_ctrl.h ****   */
ARM GAS  /tmp/ccKFuU3x.s 			page 21


 475:MCSDK_v6.3.2-Full/MotorControl/MCSDK/MCLib/Any/Inc/mp_self_com_ctrl.h **** static inline float SCC_GetCurrentBandwidth(SCC_Handle_t *pHandle)
 476:MCSDK_v6.3.2-Full/MotorControl/MCSDK/MCLib/Any/Inc/mp_self_com_ctrl.h **** {
 477:MCSDK_v6.3.2-Full/MotorControl/MCSDK/MCLib/Any/Inc/mp_self_com_ctrl.h ****   return pHandle->fCurrentBW;
 478:MCSDK_v6.3.2-Full/MotorControl/MCSDK/MCLib/Any/Inc/mp_self_com_ctrl.h **** }
 479:MCSDK_v6.3.2-Full/MotorControl/MCSDK/MCLib/Any/Inc/mp_self_com_ctrl.h **** 
 480:MCSDK_v6.3.2-Full/MotorControl/MCSDK/MCLib/Any/Inc/mp_self_com_ctrl.h **** /**
 481:MCSDK_v6.3.2-Full/MotorControl/MCSDK/MCLib/Any/Inc/mp_self_com_ctrl.h ****   * @brief  Get the PWM frequency used by the test.
 482:MCSDK_v6.3.2-Full/MotorControl/MCSDK/MCLib/Any/Inc/mp_self_com_ctrl.h ****   * @param  pHandle: handler of SCC component.
 483:MCSDK_v6.3.2-Full/MotorControl/MCSDK/MCLib/Any/Inc/mp_self_com_ctrl.h ****   * @retval uint16_t PWM frequency used by the test expressed in Hz.
 484:MCSDK_v6.3.2-Full/MotorControl/MCSDK/MCLib/Any/Inc/mp_self_com_ctrl.h ****   */
 485:MCSDK_v6.3.2-Full/MotorControl/MCSDK/MCLib/Any/Inc/mp_self_com_ctrl.h **** static inline uint16_t SCC_GetPWMFrequencyHz(SCC_Handle_t *pHandle)
 486:MCSDK_v6.3.2-Full/MotorControl/MCSDK/MCLib/Any/Inc/mp_self_com_ctrl.h **** {
 487:MCSDK_v6.3.2-Full/MotorControl/MCSDK/MCLib/Any/Inc/mp_self_com_ctrl.h ****   return pHandle->pSCC_Params_str->hPWMFreqHz;
 488:MCSDK_v6.3.2-Full/MotorControl/MCSDK/MCLib/Any/Inc/mp_self_com_ctrl.h **** }
 489:MCSDK_v6.3.2-Full/MotorControl/MCSDK/MCLib/Any/Inc/mp_self_com_ctrl.h **** 
 490:MCSDK_v6.3.2-Full/MotorControl/MCSDK/MCLib/Any/Inc/mp_self_com_ctrl.h **** /**
 491:MCSDK_v6.3.2-Full/MotorControl/MCSDK/MCLib/Any/Inc/mp_self_com_ctrl.h ****   * @brief  Get the FOC repetition rate. It is the number of PWM
 492:MCSDK_v6.3.2-Full/MotorControl/MCSDK/MCLib/Any/Inc/mp_self_com_ctrl.h ****   *         periods elapsed before executing one FOC control cycle.
 493:MCSDK_v6.3.2-Full/MotorControl/MCSDK/MCLib/Any/Inc/mp_self_com_ctrl.h ****   * @param  pHandle: handler of SCC component.
 494:MCSDK_v6.3.2-Full/MotorControl/MCSDK/MCLib/Any/Inc/mp_self_com_ctrl.h ****   * @retval uint8_t FOC repetition used by the test.
 495:MCSDK_v6.3.2-Full/MotorControl/MCSDK/MCLib/Any/Inc/mp_self_com_ctrl.h ****   */
 496:MCSDK_v6.3.2-Full/MotorControl/MCSDK/MCLib/Any/Inc/mp_self_com_ctrl.h **** static inline uint8_t SCC_GetFOCRepRate(SCC_Handle_t *pHandle)
 497:MCSDK_v6.3.2-Full/MotorControl/MCSDK/MCLib/Any/Inc/mp_self_com_ctrl.h **** {
 498:MCSDK_v6.3.2-Full/MotorControl/MCSDK/MCLib/Any/Inc/mp_self_com_ctrl.h ****   return pHandle->pSCC_Params_str->bFOCRepRate;
 499:MCSDK_v6.3.2-Full/MotorControl/MCSDK/MCLib/Any/Inc/mp_self_com_ctrl.h **** }
 500:MCSDK_v6.3.2-Full/MotorControl/MCSDK/MCLib/Any/Inc/mp_self_com_ctrl.h **** 
 501:MCSDK_v6.3.2-Full/MotorControl/MCSDK/MCLib/Any/Inc/mp_self_com_ctrl.h **** 
 502:MCSDK_v6.3.2-Full/MotorControl/MCSDK/MCLib/Any/Inc/mp_self_com_ctrl.h **** /**
 503:MCSDK_v6.3.2-Full/MotorControl/MCSDK/MCLib/Any/Inc/mp_self_com_ctrl.h ****   * @brief  get OverVoltageThreshold
 504:MCSDK_v6.3.2-Full/MotorControl/MCSDK/MCLib/Any/Inc/mp_self_com_ctrl.h ****   * @param  pHandle: handler of SCC component.
 505:MCSDK_v6.3.2-Full/MotorControl/MCSDK/MCLib/Any/Inc/mp_self_com_ctrl.h ****   * @retval 
 506:MCSDK_v6.3.2-Full/MotorControl/MCSDK/MCLib/Any/Inc/mp_self_com_ctrl.h ****   */
 507:MCSDK_v6.3.2-Full/MotorControl/MCSDK/MCLib/Any/Inc/mp_self_com_ctrl.h **** static inline uint16_t SCC_GetOverVoltageThreshold(SCC_Handle_t *pHandle)
 508:MCSDK_v6.3.2-Full/MotorControl/MCSDK/MCLib/Any/Inc/mp_self_com_ctrl.h **** {
 509:MCSDK_v6.3.2-Full/MotorControl/MCSDK/MCLib/Any/Inc/mp_self_com_ctrl.h ****   return (uint16_t) round(pHandle->pVBS->OverVoltageThreshold*pHandle->pVBS->_Super.ConversionFacto
 510:MCSDK_v6.3.2-Full/MotorControl/MCSDK/MCLib/Any/Inc/mp_self_com_ctrl.h **** }
 511:MCSDK_v6.3.2-Full/MotorControl/MCSDK/MCLib/Any/Inc/mp_self_com_ctrl.h **** 
 512:MCSDK_v6.3.2-Full/MotorControl/MCSDK/MCLib/Any/Inc/mp_self_com_ctrl.h **** /**
 513:MCSDK_v6.3.2-Full/MotorControl/MCSDK/MCLib/Any/Inc/mp_self_com_ctrl.h ****   * @brief  get UnderVoltageThreshold
 514:MCSDK_v6.3.2-Full/MotorControl/MCSDK/MCLib/Any/Inc/mp_self_com_ctrl.h ****   * @param  pHandle: handler of SCC component. 
 515:MCSDK_v6.3.2-Full/MotorControl/MCSDK/MCLib/Any/Inc/mp_self_com_ctrl.h ****   * @retval 
 516:MCSDK_v6.3.2-Full/MotorControl/MCSDK/MCLib/Any/Inc/mp_self_com_ctrl.h ****   */
 517:MCSDK_v6.3.2-Full/MotorControl/MCSDK/MCLib/Any/Inc/mp_self_com_ctrl.h **** static inline uint16_t SCC_GetUnderVoltageThreshold(SCC_Handle_t *pHandle)
 518:MCSDK_v6.3.2-Full/MotorControl/MCSDK/MCLib/Any/Inc/mp_self_com_ctrl.h **** {
 519:MCSDK_v6.3.2-Full/MotorControl/MCSDK/MCLib/Any/Inc/mp_self_com_ctrl.h ****   return (uint16_t) round(pHandle->pVBS->UnderVoltageThreshold*pHandle->pVBS->_Super.ConversionFact
 520:MCSDK_v6.3.2-Full/MotorControl/MCSDK/MCLib/Any/Inc/mp_self_com_ctrl.h **** }
 521:MCSDK_v6.3.2-Full/MotorControl/MCSDK/MCLib/Any/Inc/mp_self_com_ctrl.h **** 
 522:MCSDK_v6.3.2-Full/MotorControl/MCSDK/MCLib/Any/Inc/mp_self_com_ctrl.h **** /**
 523:MCSDK_v6.3.2-Full/MotorControl/MCSDK/MCLib/Any/Inc/mp_self_com_ctrl.h ****   * @brief  set OverVoltage Threshold
 524:MCSDK_v6.3.2-Full/MotorControl/MCSDK/MCLib/Any/Inc/mp_self_com_ctrl.h ****   * @param  pHandle: handler of SCC component. 
 525:MCSDK_v6.3.2-Full/MotorControl/MCSDK/MCLib/Any/Inc/mp_self_com_ctrl.h ****   * @param value: value of new overvoltage Threshold
 526:MCSDK_v6.3.2-Full/MotorControl/MCSDK/MCLib/Any/Inc/mp_self_com_ctrl.h ****   * @retval 
 527:MCSDK_v6.3.2-Full/MotorControl/MCSDK/MCLib/Any/Inc/mp_self_com_ctrl.h ****   */
 528:MCSDK_v6.3.2-Full/MotorControl/MCSDK/MCLib/Any/Inc/mp_self_com_ctrl.h **** static inline void SCC_SetOverVoltageThreshold(SCC_Handle_t *pHandle,uint16_t value)
 529:MCSDK_v6.3.2-Full/MotorControl/MCSDK/MCLib/Any/Inc/mp_self_com_ctrl.h **** {
 530:MCSDK_v6.3.2-Full/MotorControl/MCSDK/MCLib/Any/Inc/mp_self_com_ctrl.h ****   pHandle->pVBS->OverVoltageThreshold = (uint16_t)((value*65535)/pHandle->pVBS->_Super.ConversionFa
 531:MCSDK_v6.3.2-Full/MotorControl/MCSDK/MCLib/Any/Inc/mp_self_com_ctrl.h **** }
ARM GAS  /tmp/ccKFuU3x.s 			page 22


 532:MCSDK_v6.3.2-Full/MotorControl/MCSDK/MCLib/Any/Inc/mp_self_com_ctrl.h **** 
 533:MCSDK_v6.3.2-Full/MotorControl/MCSDK/MCLib/Any/Inc/mp_self_com_ctrl.h **** /**
 534:MCSDK_v6.3.2-Full/MotorControl/MCSDK/MCLib/Any/Inc/mp_self_com_ctrl.h ****   * @brief  set UnderVoltage Threshold
 535:MCSDK_v6.3.2-Full/MotorControl/MCSDK/MCLib/Any/Inc/mp_self_com_ctrl.h ****   * @param  pHandle: handler of SCC component.
 536:MCSDK_v6.3.2-Full/MotorControl/MCSDK/MCLib/Any/Inc/mp_self_com_ctrl.h ****   * @param value: value of new UnderVoltage Threshold 
 537:MCSDK_v6.3.2-Full/MotorControl/MCSDK/MCLib/Any/Inc/mp_self_com_ctrl.h ****   * @retval 
 538:MCSDK_v6.3.2-Full/MotorControl/MCSDK/MCLib/Any/Inc/mp_self_com_ctrl.h ****   */
 539:MCSDK_v6.3.2-Full/MotorControl/MCSDK/MCLib/Any/Inc/mp_self_com_ctrl.h **** static inline void SCC_SetUnderVoltageThreshold(SCC_Handle_t *pHandle,uint16_t value)
 285              		.loc 2 539 20 view .LVU79
 286              	.LBB107:
 540:MCSDK_v6.3.2-Full/MotorControl/MCSDK/MCLib/Any/Inc/mp_self_com_ctrl.h **** {
 541:MCSDK_v6.3.2-Full/MotorControl/MCSDK/MCLib/Any/Inc/mp_self_com_ctrl.h ****   pHandle->pVBS->UnderVoltageThreshold = (uint16_t)((value*65535)/pHandle->pVBS->_Super.ConversionF
 287              		.loc 2 541 3 view .LVU80
 288              		.loc 2 541 74 is_stmt 0 view .LVU81
 289 0044 A24B     		ldr	r3, .L162
 290 0046 5A68     		ldr	r2, [r3, #4]
 291              	.LVL34:
 292              		.loc 2 541 59 view .LVU82
 293 0048 C5EB0545 		rsb	r5, r5, r5, lsl #16
 294              	.LVL35:
 295              		.loc 2 541 88 view .LVU83
 296 004c 5388     		ldrh	r3, [r2, #2]
 297              		.loc 2 541 66 view .LVU84
 298 004e B5FBF3F3 		udiv	r3, r5, r3
 299              	.LBE107:
 300              	.LBE106:
 301              	.LBE105:
 158:Src/register_interface.c ****   uint8_t motorID=0;
 302              		.loc 1 158 11 view .LVU85
 303 0052 0020     		movs	r0, #0
 304              	.LVL36:
 305              	.LBB116:
 306              	.LBB109:
 307              	.LBB108:
 308              		.loc 2 541 42 view .LVU86
 309 0054 5382     		strh	r3, [r2, #18]	@ movhi
 310              	.LVL37:
 542:MCSDK_v6.3.2-Full/MotorControl/MCSDK/MCLib/Any/Inc/mp_self_com_ctrl.h **** }
 311              		.loc 2 542 1 view .LVU87
 312 0056 09E0     		b	.L41
 313              	.LVL38:
 314              	.L133:
 315              		.loc 2 542 1 view .LVU88
 316              	.LBE108:
 317              	.LBE109:
 318 0058 41F25003 		movw	r3, #4176
 319 005c 9842     		cmp	r0, r3
 320 005e 04D0     		beq	.L106
 321 0060 7BD9     		bls	.L134
 322 0062 41F25033 		movw	r3, #4944
 323 0066 9842     		cmp	r0, r3
 324 0068 70D1     		bne	.L135
 325              	.L106:
 326 006a 0420     		movs	r0, #4
 327              	.LVL39:
 328              	.L41:
 347:Src/register_interface.c ****           break;
ARM GAS  /tmp/ccKFuU3x.s 			page 23


 348:Src/register_interface.c ****         }
 349:Src/register_interface.c **** 
 350:Src/register_interface.c ****         case MC_REG_SC_PWM_FREQUENCY:
 351:Src/register_interface.c ****         {
 352:Src/register_interface.c ****           retVal = MCP_ERROR_RO_REG;
 353:Src/register_interface.c ****           break;
 354:Src/register_interface.c ****         }
 355:Src/register_interface.c **** 
 356:Src/register_interface.c ****         default:
 357:Src/register_interface.c ****         {
 358:Src/register_interface.c ****           retVal = MCP_ERROR_UNKNOWN_REG;
 359:Src/register_interface.c ****           break;
 360:Src/register_interface.c ****         }
 361:Src/register_interface.c ****       }
 362:Src/register_interface.c ****       *size = 2;
 329              		.loc 1 362 7 is_stmt 1 view .LVU89
 330              		.loc 1 362 13 is_stmt 0 view .LVU90
 331 006c 0223     		movs	r3, #2
 332 006e 2380     		strh	r3, [r4]	@ movhi
 363:Src/register_interface.c ****       break;
 333              		.loc 1 363 7 is_stmt 1 view .LVU91
 334              	.LVL40:
 335              	.L40:
 336              		.loc 1 363 7 is_stmt 0 view .LVU92
 337              	.LBE116:
 364:Src/register_interface.c ****     }
 365:Src/register_interface.c **** 
 366:Src/register_interface.c ****     case TYPE_DATA_32BIT:
 367:Src/register_interface.c ****     {
 368:Src/register_interface.c ****       uint32_t regdata32 = *(uint32_t *)data; //cstat !MISRAC2012-Rule-11.3
 369:Src/register_interface.c **** 
 370:Src/register_interface.c ****       switch (regID)
 371:Src/register_interface.c ****       {
 372:Src/register_interface.c ****         case MC_REG_FAULTS_FLAGS:
 373:Src/register_interface.c ****         case MC_REG_SPEED_MEAS:
 374:Src/register_interface.c ****         {
 375:Src/register_interface.c ****           retVal = MCP_ERROR_RO_REG;
 376:Src/register_interface.c ****           break;
 377:Src/register_interface.c ****         }
 378:Src/register_interface.c **** 
 379:Src/register_interface.c ****         case MC_REG_SPEED_REF:
 380:Src/register_interface.c ****         {
 381:Src/register_interface.c ****           MCI_ExecSpeedRamp(pMCIN,((((int16_t)regdata32) * ((int16_t)SPEED_UNIT)) / (int16_t)U_RPM)
 382:Src/register_interface.c ****           break;
 383:Src/register_interface.c ****         }
 384:Src/register_interface.c **** 
 385:Src/register_interface.c ****         case MC_REG_STOPLL_EST_BEMF:
 386:Src/register_interface.c ****         case MC_REG_STOPLL_OBS_BEMF:
 387:Src/register_interface.c ****         {
 388:Src/register_interface.c ****           retVal = MCP_ERROR_RO_REG;
 389:Src/register_interface.c ****           break;
 390:Src/register_interface.c ****         }
 391:Src/register_interface.c **** 
 392:Src/register_interface.c ****         case MC_REG_FF_1Q:
 393:Src/register_interface.c ****         {
 394:Src/register_interface.c ****           FF_M1.wConstant_1Q = (int32_t)regdata32;
 395:Src/register_interface.c ****           break;
ARM GAS  /tmp/ccKFuU3x.s 			page 24


 396:Src/register_interface.c ****         }
 397:Src/register_interface.c **** 
 398:Src/register_interface.c ****         case MC_REG_FF_1D:
 399:Src/register_interface.c ****         {
 400:Src/register_interface.c ****           FF_M1.wConstant_1D = (int32_t)regdata32;
 401:Src/register_interface.c ****           break;
 402:Src/register_interface.c ****         }
 403:Src/register_interface.c **** 
 404:Src/register_interface.c ****         case MC_REG_FF_2:
 405:Src/register_interface.c ****         {
 406:Src/register_interface.c ****           FF_M1.wConstant_2 = (int32_t)regdata32;
 407:Src/register_interface.c ****           break;
 408:Src/register_interface.c ****         }
 409:Src/register_interface.c **** 
 410:Src/register_interface.c ****         case MC_REG_SC_RS:
 411:Src/register_interface.c ****         case MC_REG_SC_LS:
 412:Src/register_interface.c ****         case MC_REG_SC_KE:
 413:Src/register_interface.c ****         case MC_REG_SC_VBUS:
 414:Src/register_interface.c ****         case MC_REG_SC_MEAS_NOMINALSPEED:
 415:Src/register_interface.c ****         {
 416:Src/register_interface.c ****           retVal = MCP_ERROR_RO_REG;
 417:Src/register_interface.c ****           break;
 418:Src/register_interface.c ****         }
 419:Src/register_interface.c **** 
 420:Src/register_interface.c ****         case MC_REG_SC_CURRENT:
 421:Src/register_interface.c ****         { /* Profiler is supported only by series supporting unaligned access */
 422:Src/register_interface.c ****           if(SCC.sm_state==SCC_IDLE || SCC_CALIBRATION_END==SCC.sm_state)
 423:Src/register_interface.c ****           {
 424:Src/register_interface.c ****             float fregdata = *(float*)data; //cstat !MISRAC2012-Rule-11.3
 425:Src/register_interface.c ****             SCC_SetNominalCurrent(&SCC, fregdata);
 426:Src/register_interface.c ****           }
 427:Src/register_interface.c ****           else{
 428:Src/register_interface.c ****               retVal = MCP_ERROR_RO_REG;
 429:Src/register_interface.c ****           }
 430:Src/register_interface.c ****           break;
 431:Src/register_interface.c ****         }
 432:Src/register_interface.c **** 
 433:Src/register_interface.c ****         case MC_REG_SC_SPDBANDWIDTH:
 434:Src/register_interface.c ****         {
 435:Src/register_interface.c ****           float fregdata = *(float*)data; //cstat !MISRAC2012-Rule-11.3
 436:Src/register_interface.c ****           OTT_SetSpeedRegulatorBandwidth(&OTT, fregdata);
 437:Src/register_interface.c ****           break;
 438:Src/register_interface.c ****         }
 439:Src/register_interface.c **** 
 440:Src/register_interface.c ****         case MC_REG_SC_LDLQRATIO:
 441:Src/register_interface.c ****         {
 442:Src/register_interface.c ****           float fregdata = *(float*)data; //cstat !MISRAC2012-Rule-11.3
 443:Src/register_interface.c ****           SCC_SetLdLqRatio(&SCC, fregdata);
 444:Src/register_interface.c ****           break;
 445:Src/register_interface.c ****         }
 446:Src/register_interface.c **** 
 447:Src/register_interface.c ****         case MC_REG_SC_NOMINAL_SPEED:
 448:Src/register_interface.c ****         {
 449:Src/register_interface.c ****           SCC_SetNominalSpeed (&SCC, (int32_t) regdata32);
 450:Src/register_interface.c ****           break;
 451:Src/register_interface.c ****         }
 452:Src/register_interface.c **** 
ARM GAS  /tmp/ccKFuU3x.s 			page 25


 453:Src/register_interface.c ****         case MC_REG_SC_CURRBANDWIDTH:
 454:Src/register_interface.c ****         {
 455:Src/register_interface.c ****           float fregdata = *(float*)data; //cstat !MISRAC2012-Rule-11.3
 456:Src/register_interface.c ****           SCC_SetCurrentBandwidth(&SCC, fregdata);
 457:Src/register_interface.c ****           break;
 458:Src/register_interface.c ****         }
 459:Src/register_interface.c ****         case MC_REG_RESISTOR_OFFSET:
 460:Src/register_interface.c ****         {
 461:Src/register_interface.c ****           float fregdata = *(float*)data;
 462:Src/register_interface.c ****           SCC_SetResistorOffset(&SCC,fregdata);
 463:Src/register_interface.c ****           break;
 464:Src/register_interface.c ****         }
 465:Src/register_interface.c ****         case MC_REG_SC_J:
 466:Src/register_interface.c ****         case MC_REG_SC_F:
 467:Src/register_interface.c ****         case MC_REG_SC_MAX_CURRENT:
 468:Src/register_interface.c ****         case MC_REG_SC_STARTUP_SPEED:
 469:Src/register_interface.c ****         case MC_REG_SC_STARTUP_ACC:
 470:Src/register_interface.c ****         {
 471:Src/register_interface.c ****           retVal = MCP_ERROR_RO_REG;
 472:Src/register_interface.c ****           break;
 473:Src/register_interface.c ****         }
 474:Src/register_interface.c **** 
 475:Src/register_interface.c ****         default:
 476:Src/register_interface.c ****         {
 477:Src/register_interface.c ****           retVal = MCP_ERROR_UNKNOWN_REG;
 478:Src/register_interface.c ****           break;
 479:Src/register_interface.c ****         }
 480:Src/register_interface.c ****       }
 481:Src/register_interface.c ****       *size = 4;
 482:Src/register_interface.c ****       break;
 483:Src/register_interface.c ****     }
 484:Src/register_interface.c **** 
 485:Src/register_interface.c ****     case TYPE_DATA_RAW:
 486:Src/register_interface.c ****     {
 487:Src/register_interface.c ****       uint16_t rawSize = *(uint16_t *)data; //cstat !MISRAC2012-Rule-11.3
 488:Src/register_interface.c ****       /* The size consumed by the structure is the structure size + 2 bytes used to store the size 
 489:Src/register_interface.c ****       *size = rawSize + 2U;
 490:Src/register_interface.c ****       uint8_t *rawData = data; /* rawData points to the first data (after size extraction) */
 491:Src/register_interface.c ****       rawData++;
 492:Src/register_interface.c ****       rawData++;
 493:Src/register_interface.c **** 
 494:Src/register_interface.c ****       if (*size > (uint16_t)dataAvailable)
 495:Src/register_interface.c ****       {
 496:Src/register_interface.c ****         /* The decoded size of the raw structure can not match with transmitted buffer, error in bu
 497:Src/register_interface.c ****            construction */
 498:Src/register_interface.c ****         *size = 0;
 499:Src/register_interface.c ****         retVal = MCP_ERROR_BAD_RAW_FORMAT; /* This error stop the parsing of the CMD buffer */
 500:Src/register_interface.c ****       }
 501:Src/register_interface.c ****       else
 502:Src/register_interface.c ****       {
 503:Src/register_interface.c ****         switch (regID)
 504:Src/register_interface.c ****         {
 505:Src/register_interface.c ****           case MC_REG_APPLICATION_CONFIG:
 506:Src/register_interface.c ****           case MC_REG_GLOBAL_CONFIG:
 507:Src/register_interface.c ****           case MC_REG_FOCFW_CONFIG:
 508:Src/register_interface.c ****           {
 509:Src/register_interface.c ****             retVal = MCP_ERROR_RO_REG;
ARM GAS  /tmp/ccKFuU3x.s 			page 26


 510:Src/register_interface.c ****             break;
 511:Src/register_interface.c ****           }
 512:Src/register_interface.c **** 
 513:Src/register_interface.c ****           case MC_REG_SPEED_RAMP:
 514:Src/register_interface.c ****           {
 515:Src/register_interface.c ****             int32_t rpm;
 516:Src/register_interface.c ****             uint16_t duration;
 517:Src/register_interface.c **** 
 518:Src/register_interface.c ****             rpm = *(int32_t *)rawData; //cstat !MISRAC2012-Rule-11.3
 519:Src/register_interface.c ****             duration = *(uint16_t *)&rawData[4]; //cstat !MISRAC2012-Rule-11.3
 520:Src/register_interface.c ****             MCI_ExecSpeedRamp(pMCIN, (int16_t)((rpm * SPEED_UNIT) / U_RPM), duration);
 521:Src/register_interface.c ****             break;
 522:Src/register_interface.c ****           }
 523:Src/register_interface.c **** 
 524:Src/register_interface.c ****           default:
 525:Src/register_interface.c ****           {
 526:Src/register_interface.c ****             retVal = MCP_ERROR_UNKNOWN_REG;
 527:Src/register_interface.c ****             break;
 528:Src/register_interface.c ****           }
 529:Src/register_interface.c ****         }
 530:Src/register_interface.c ****       }
 531:Src/register_interface.c ****       break;
 532:Src/register_interface.c ****     }
 533:Src/register_interface.c **** 
 534:Src/register_interface.c ****     default:
 535:Src/register_interface.c ****     {
 536:Src/register_interface.c ****       retVal = MCP_ERROR_BAD_DATA_TYPE;
 537:Src/register_interface.c ****       *size =0; /* From this point we are not able anymore to decode the RX buffer */
 538:Src/register_interface.c ****       break;
 539:Src/register_interface.c ****     }
 540:Src/register_interface.c ****   }
 541:Src/register_interface.c ****   return (retVal);
 338              		.loc 1 541 3 is_stmt 1 view .LVU93
 542:Src/register_interface.c **** }
 339              		.loc 1 542 1 is_stmt 0 view .LVU94
 340 0070 03B0     		add	sp, sp, #12
 341              	.LCFI2:
 342              		.cfi_remember_state
 343              		.cfi_def_cfa_offset 12
 344              		@ sp needed
 345 0072 30BD     		pop	{r4, r5, pc}
 346              	.LVL41:
 347              	.L27:
 348              	.LCFI3:
 349              		.cfi_restore_state
 162:Src/register_interface.c ****   {
 350              		.loc 1 162 3 view .LVU95
 351 0074 2829     		cmp	r1, #40
 352 0076 40F0C880 		bne	.L30
 353              	.LBB117:
 487:Src/register_interface.c ****       /* The size consumed by the structure is the structure size + 2 bytes used to store the size 
 354              		.loc 1 487 7 is_stmt 1 view .LVU96
 355              	.LVL42:
 489:Src/register_interface.c ****       uint8_t *rawData = data; /* rawData points to the first data (after size extraction) */
 356              		.loc 1 489 7 view .LVU97
 489:Src/register_interface.c ****       uint8_t *rawData = data; /* rawData points to the first data (after size extraction) */
 357              		.loc 1 489 23 is_stmt 0 view .LVU98
ARM GAS  /tmp/ccKFuU3x.s 			page 27


 358 007a 1388     		ldrh	r3, [r2]
 359              	.LVL43:
 489:Src/register_interface.c ****       uint8_t *rawData = data; /* rawData points to the first data (after size extraction) */
 360              		.loc 1 489 23 view .LVU99
 361 007c 0233     		adds	r3, r3, #2
 362 007e 9BB2     		uxth	r3, r3
 494:Src/register_interface.c ****       {
 363              		.loc 1 494 10 view .LVU100
 364 0080 1FFA8CFC 		uxth	ip, ip
 365 0084 6345     		cmp	r3, ip
 489:Src/register_interface.c ****       uint8_t *rawData = data; /* rawData points to the first data (after size extraction) */
 366              		.loc 1 489 13 view .LVU101
 367 0086 2380     		strh	r3, [r4]	@ movhi
 368              	.LVL44:
 490:Src/register_interface.c ****       rawData++;
 369              		.loc 1 490 7 is_stmt 1 view .LVU102
 491:Src/register_interface.c ****       rawData++;
 370              		.loc 1 491 7 view .LVU103
 492:Src/register_interface.c **** 
 371              		.loc 1 492 7 view .LVU104
 494:Src/register_interface.c ****       {
 372              		.loc 1 494 7 view .LVU105
 494:Src/register_interface.c ****       {
 373              		.loc 1 494 10 is_stmt 0 view .LVU106
 374 0088 00F28381 		bhi	.L136
 503:Src/register_interface.c ****         {
 375              		.loc 1 503 9 is_stmt 1 view .LVU107
 376 008c B0F5D47F 		cmp	r0, #424
 377 0090 00F0E181 		beq	.L79
 378 0094 00F2ED81 		bhi	.L124
 379 0098 E828     		cmp	r0, #232
 380 009a 00F08081 		beq	.L125
 381 009e 20F08000 		bic	r0, r0, #128
 382              	.LVL45:
 509:Src/register_interface.c ****             break;
 383              		.loc 1 509 20 is_stmt 0 view .LVU108
 384 00a2 2828     		cmp	r0, #40
 385 00a4 14BF     		ite	ne
 386 00a6 0520     		movne	r0, #5
 387 00a8 0420     		moveq	r0, #4
 388              	.LVL46:
 509:Src/register_interface.c ****             break;
 389              		.loc 1 509 20 view .LVU109
 390              	.LBE117:
 541:Src/register_interface.c **** }
 391              		.loc 1 541 3 is_stmt 1 view .LVU110
 392              		.loc 1 542 1 is_stmt 0 view .LVU111
 393 00aa 03B0     		add	sp, sp, #12
 394              	.LCFI4:
 395              		.cfi_remember_state
 396              		.cfi_def_cfa_offset 12
 397              		@ sp needed
 398 00ac 30BD     		pop	{r4, r5, pc}
 399              	.LVL47:
 400              	.L131:
 401              	.LCFI5:
 402              		.cfi_restore_state
ARM GAS  /tmp/ccKFuU3x.s 			page 28


 403              	.LBB120:
 404              		.loc 1 542 1 view .LVU112
 405 00ae B0F5547F 		cmp	r0, #848
 406 00b2 00F0B581 		beq	.L43
 407 00b6 27D9     		bls	.L137
 408 00b8 B0F58A6F 		cmp	r0, #1104
 409 00bc 00F08281 		beq	.L48
 410 00c0 55D9     		bls	.L138
 411 00c2 B0F5926F 		cmp	r0, #1168
 412 00c6 14D1     		bne	.L139
 312:Src/register_interface.c ****           break;
 413              		.loc 1 312 11 is_stmt 1 view .LVU113
 414 00c8 8248     		ldr	r0, .L162+4
 415              	.LVL48:
 312:Src/register_interface.c ****           break;
 416              		.loc 1 312 11 is_stmt 0 view .LVU114
 417 00ca 29B2     		sxth	r1, r5
 418              	.LVL49:
 312:Src/register_interface.c ****           break;
 419              		.loc 1 312 11 view .LVU115
 420 00cc FFF7FEFF 		bl	PID_SetKP
 421              	.LVL50:
 313:Src/register_interface.c ****         }
 422              		.loc 1 313 11 is_stmt 1 view .LVU116
 423              	.LBE120:
 158:Src/register_interface.c ****   uint8_t motorID=0;
 424              		.loc 1 158 11 is_stmt 0 view .LVU117
 425 00d0 0020     		movs	r0, #0
 426              	.LBB121:
 313:Src/register_interface.c ****         }
 427              		.loc 1 313 11 view .LVU118
 428 00d2 CBE7     		b	.L41
 429              	.LVL51:
 430              	.L132:
 313:Src/register_interface.c ****         }
 431              		.loc 1 313 11 view .LVU119
 432 00d4 B0F5396F 		cmp	r0, #2960
 433 00d8 C7D0     		beq	.L106
 434 00da 21D9     		bls	.L140
 435 00dc B0F5656F 		cmp	r0, #3664
 436 00e0 00F05B81 		beq	.L99
 437 00e4 54D9     		bls	.L141
 438              	.LBE121:
 158:Src/register_interface.c ****   uint8_t motorID=0;
 439              		.loc 1 158 11 view .LVU120
 440 00e6 B0F5696F 		cmp	r0, #3728
 441 00ea 14BF     		ite	ne
 442 00ec 0520     		movne	r0, #5
 443              	.LVL52:
 158:Src/register_interface.c ****   uint8_t motorID=0;
 444              		.loc 1 158 11 view .LVU121
 445 00ee 0020     		moveq	r0, #0
 446 00f0 BCE7     		b	.L41
 447              	.LVL53:
 448              	.L139:
 449              	.LBB122:
 158:Src/register_interface.c ****   uint8_t motorID=0;
ARM GAS  /tmp/ccKFuU3x.s 			page 29


 450              		.loc 1 158 11 view .LVU122
 451 00f2 01D2     		bcs	.L142
 452              	.LVL54:
 453              	.L90:
 358:Src/register_interface.c ****           break;
 454              		.loc 1 358 18 view .LVU123
 455 00f4 0520     		movs	r0, #5
 456              	.LVL55:
 358:Src/register_interface.c ****           break;
 457              		.loc 1 358 18 view .LVU124
 458 00f6 B9E7     		b	.L41
 459              	.LVL56:
 460              	.L142:
 358:Src/register_interface.c ****           break;
 461              		.loc 1 358 18 view .LVU125
 462 00f8 20F04000 		bic	r0, r0, #64
 463              	.LVL57:
 358:Src/register_interface.c ****           break;
 464              		.loc 1 358 18 view .LVU126
 465 00fc B0F5B26F 		cmp	r0, #1424
 466 0100 14BF     		ite	ne
 467 0102 0520     		movne	r0, #5
 468 0104 0420     		moveq	r0, #4
 469 0106 B1E7     		b	.L41
 470              	.LVL58:
 471              	.L137:
 358:Src/register_interface.c ****           break;
 472              		.loc 1 358 18 view .LVU127
 473 0108 D028     		cmp	r0, #208
 474 010a 00F05581 		beq	.L45
 475 010e B0F5887F 		cmp	r0, #272
 476 0112 7FD1     		bne	.L143
 259:Src/register_interface.c ****           break;
 477              		.loc 1 259 11 is_stmt 1 view .LVU128
 478 0114 7048     		ldr	r0, .L162+8
 479              	.LVL59:
 259:Src/register_interface.c ****           break;
 480              		.loc 1 259 11 is_stmt 0 view .LVU129
 481 0116 29B2     		sxth	r1, r5
 482              	.LVL60:
 259:Src/register_interface.c ****           break;
 483              		.loc 1 259 11 view .LVU130
 484 0118 FFF7FEFF 		bl	PID_SetKD
 485              	.LVL61:
 260:Src/register_interface.c ****         }
 486              		.loc 1 260 11 is_stmt 1 view .LVU131
 487              	.LBE122:
 158:Src/register_interface.c ****   uint8_t motorID=0;
 488              		.loc 1 158 11 is_stmt 0 view .LVU132
 489 011c 0020     		movs	r0, #0
 490              	.LBB123:
 260:Src/register_interface.c ****         }
 491              		.loc 1 260 11 view .LVU133
 492 011e A5E7     		b	.L41
 493              	.LVL62:
 494              	.L140:
 260:Src/register_interface.c ****         }
ARM GAS  /tmp/ccKFuU3x.s 			page 30


 495              		.loc 1 260 11 view .LVU134
 496 0120 B0F5256F 		cmp	r0, #2640
 497 0124 A1D0     		beq	.L106
 498 0126 08D9     		bls	.L144
 499 0128 B0F5296F 		cmp	r0, #2704
 500 012c 9DD0     		beq	.L106
 501 012e B0F5356F 		cmp	r0, #2896
 502 0132 14BF     		ite	ne
 503 0134 0520     		movne	r0, #5
 504              	.LVL63:
 260:Src/register_interface.c ****         }
 505              		.loc 1 260 11 view .LVU135
 506 0136 0420     		moveq	r0, #4
 507 0138 98E7     		b	.L41
 508              	.LVL64:
 509              	.L144:
 260:Src/register_interface.c ****         }
 510              		.loc 1 260 11 view .LVU136
 511 013a B0F51D6F 		cmp	r0, #2512
 512 013e 94D0     		beq	.L106
 513 0140 B0F5216F 		cmp	r0, #2576
 514 0144 14BF     		ite	ne
 515 0146 0520     		movne	r0, #5
 516              	.LVL65:
 260:Src/register_interface.c ****         }
 517              		.loc 1 260 11 view .LVU137
 518 0148 0420     		moveq	r0, #4
 519 014a 8FE7     		b	.L41
 520              	.LVL66:
 521              	.L135:
 260:Src/register_interface.c ****         }
 522              		.loc 1 260 11 view .LVU138
 523 014c 41F65833 		movw	r3, #7000
 524 0150 9842     		cmp	r0, r3
 525 0152 14BF     		ite	ne
 526 0154 0520     		movne	r0, #5
 527 0156 0420     		moveq	r0, #4
 528              	.LVL67:
 260:Src/register_interface.c ****         }
 529              		.loc 1 260 11 view .LVU139
 530 0158 88E7     		b	.L41
 531              	.LVL68:
 532              	.L134:
 260:Src/register_interface.c ****         }
 533              		.loc 1 260 11 view .LVU140
 534 015a B0F57D6F 		cmp	r0, #4048
 535 015e 84D0     		beq	.L106
 536 0160 41F21003 		movw	r3, #4112
 537 0164 9842     		cmp	r0, r3
 538 0166 14BF     		ite	ne
 539 0168 0520     		movne	r0, #5
 540 016a 0420     		moveq	r0, #4
 541              	.LVL69:
 260:Src/register_interface.c ****         }
 542              		.loc 1 260 11 view .LVU141
 543 016c 7EE7     		b	.L41
 544              	.LVL70:
ARM GAS  /tmp/ccKFuU3x.s 			page 31


 545              	.L138:
 260:Src/register_interface.c ****         }
 546              		.loc 1 260 11 view .LVU142
 547 016e B0F5647F 		cmp	r0, #912
 548 0172 BFD1     		bne	.L90
 549              	.LBB110:
 297:Src/register_interface.c ****           int16_t hC2;
 550              		.loc 1 297 11 is_stmt 1 view .LVU143
 298:Src/register_interface.c ****           STO_PLL_GetObserverGains(&STO_PLL_M1, &hC1, &hC2);
 551              		.loc 1 298 11 view .LVU144
 299:Src/register_interface.c ****           STO_PLL_SetObserverGains(&STO_PLL_M1, hC1, (int16_t)regdata16);
 552              		.loc 1 299 11 view .LVU145
 553 0174 5948     		ldr	r0, .L162+12
 554              	.LVL71:
 299:Src/register_interface.c ****           STO_PLL_SetObserverGains(&STO_PLL_M1, hC1, (int16_t)regdata16);
 555              		.loc 1 299 11 is_stmt 0 view .LVU146
 556 0176 0DF10602 		add	r2, sp, #6
 557              	.LVL72:
 299:Src/register_interface.c ****           STO_PLL_SetObserverGains(&STO_PLL_M1, hC1, (int16_t)regdata16);
 558              		.loc 1 299 11 view .LVU147
 559 017a 01A9     		add	r1, sp, #4
 560              	.LVL73:
 299:Src/register_interface.c ****           STO_PLL_SetObserverGains(&STO_PLL_M1, hC1, (int16_t)regdata16);
 561              		.loc 1 299 11 view .LVU148
 562 017c FFF7FEFF 		bl	STO_PLL_GetObserverGains
 563              	.LVL74:
 300:Src/register_interface.c ****           break;
 564              		.loc 1 300 11 is_stmt 1 view .LVU149
 565 0180 5648     		ldr	r0, .L162+12
 566 0182 BDF90410 		ldrsh	r1, [sp, #4]
 567 0186 2AB2     		sxth	r2, r5
 568 0188 FFF7FEFF 		bl	STO_PLL_SetObserverGains
 569              	.LVL75:
 301:Src/register_interface.c ****         }
 570              		.loc 1 301 11 view .LVU150
 571              	.LBE110:
 572              	.LBE123:
 158:Src/register_interface.c ****   uint8_t motorID=0;
 573              		.loc 1 158 11 is_stmt 0 view .LVU151
 574 018c 0020     		movs	r0, #0
 575 018e 6DE7     		b	.L41
 576              	.LVL76:
 577              	.L141:
 578              	.LBB124:
 158:Src/register_interface.c ****   uint8_t motorID=0;
 579              		.loc 1 158 11 view .LVU152
 580 0190 B0F5456F 		cmp	r0, #3152
 581 0194 3FF469AF 		beq	.L106
 582 0198 B0F5496F 		cmp	r0, #3216
 583 019c 14BF     		ite	ne
 584 019e 0520     		movne	r0, #5
 585              	.LVL77:
 158:Src/register_interface.c ****   uint8_t motorID=0;
 586              		.loc 1 158 11 view .LVU153
 587 01a0 0420     		moveq	r0, #4
 588 01a2 63E7     		b	.L41
 589              	.LVL78:
ARM GAS  /tmp/ccKFuU3x.s 			page 32


 590              	.L28:
 158:Src/register_interface.c ****   uint8_t motorID=0;
 591              		.loc 1 158 11 view .LVU154
 592              	.LBE124:
 166:Src/register_interface.c ****       {
 593              		.loc 1 166 7 is_stmt 1 view .LVU155
 594 01a4 B0F5916F 		cmp	r0, #1160
 595 01a8 00F01C81 		beq	.L32
 596 01ac 12D8     		bhi	.L33
 597 01ae 8828     		cmp	r0, #136
 598 01b0 00F0F780 		beq	.L34
 599 01b4 24D9     		bls	.L145
 600 01b6 B0F5816F 		cmp	r0, #1032
 601 01ba 00F0E880 		beq	.L86
 602 01be 40F2D180 		bls	.L146
 170:Src/register_interface.c ****             break;
 603              		.loc 1 170 20 is_stmt 0 view .LVU156
 604 01c2 B0F5896F 		cmp	r0, #1096
 605 01c6 14BF     		ite	ne
 606 01c8 0520     		movne	r0, #5
 607              	.LVL79:
 170:Src/register_interface.c ****             break;
 608              		.loc 1 170 20 view .LVU157
 609 01ca 0420     		moveq	r0, #4
 610              	.LVL80:
 611              	.L36:
 236:Src/register_interface.c ****       break;
 612              		.loc 1 236 7 is_stmt 1 view .LVU158
 236:Src/register_interface.c ****       break;
 613              		.loc 1 236 13 is_stmt 0 view .LVU159
 614 01cc 0123     		movs	r3, #1
 615 01ce 2380     		strh	r3, [r4]	@ movhi
 237:Src/register_interface.c ****     }
 616              		.loc 1 237 7 is_stmt 1 view .LVU160
 541:Src/register_interface.c **** }
 617              		.loc 1 541 3 view .LVU161
 618              		.loc 1 542 1 is_stmt 0 view .LVU162
 619 01d0 03B0     		add	sp, sp, #12
 620              	.LCFI6:
 621              		.cfi_remember_state
 622              		.cfi_def_cfa_offset 12
 623              		@ sp needed
 624 01d2 30BD     		pop	{r4, r5, pc}
 625              	.LVL81:
 626              	.L33:
 627              	.LCFI7:
 628              		.cfi_restore_state
 629              		.loc 1 542 1 view .LVU163
 630 01d4 B0F5E96F 		cmp	r0, #1864
 631 01d8 05D1     		bne	.L147
 632              	.LBB125:
 225:Src/register_interface.c ****           SCC_SetPBCharacterization(&SCC,regdataU8);
 633              		.loc 1 225 11 is_stmt 1 view .LVU164
 634              	.LVL82:
 226:Src/register_interface.c ****           break;
 635              		.loc 1 226 11 view .LVU165
 636 01da 3D48     		ldr	r0, .L162
ARM GAS  /tmp/ccKFuU3x.s 			page 33


 637              	.LVL83:
 226:Src/register_interface.c ****           break;
 638              		.loc 1 226 11 is_stmt 0 view .LVU166
 639 01dc 1178     		ldrb	r1, [r2]	@ zero_extendqisi2
 640              	.LVL84:
 226:Src/register_interface.c ****           break;
 641              		.loc 1 226 11 view .LVU167
 642 01de FFF7FEFF 		bl	SCC_SetPBCharacterization
 643              	.LVL85:
 227:Src/register_interface.c ****         }
 644              		.loc 1 227 11 is_stmt 1 view .LVU168
 645              	.LBE125:
 158:Src/register_interface.c ****   uint8_t motorID=0;
 646              		.loc 1 158 11 is_stmt 0 view .LVU169
 647 01e2 0020     		movs	r0, #0
 648              	.LBB126:
 227:Src/register_interface.c ****         }
 649              		.loc 1 227 11 view .LVU170
 650 01e4 F2E7     		b	.L36
 651              	.LVL86:
 652              	.L147:
 227:Src/register_interface.c ****         }
 653              		.loc 1 227 11 view .LVU171
 654              	.LBE126:
 655 01e6 01D9     		bls	.L148
 656 01e8 0520     		movs	r0, #5
 657              	.LVL87:
 227:Src/register_interface.c ****         }
 658              		.loc 1 227 11 view .LVU172
 659 01ea EFE7     		b	.L36
 660              	.LVL88:
 661              	.L148:
 227:Src/register_interface.c ****         }
 662              		.loc 1 227 11 view .LVU173
 663 01ec B0F5996F 		cmp	r0, #1224
 664 01f0 00F0CD80 		beq	.L86
 170:Src/register_interface.c ****             break;
 665              		.loc 1 170 20 view .LVU174
 666 01f4 B0F5A16F 		cmp	r0, #1288
 667 01f8 14BF     		ite	ne
 668 01fa 0520     		movne	r0, #5
 669              	.LVL89:
 170:Src/register_interface.c ****             break;
 670              		.loc 1 170 20 view .LVU175
 671 01fc 0420     		moveq	r0, #4
 672 01fe E5E7     		b	.L36
 673              	.LVL90:
 674              	.L145:
 170:Src/register_interface.c ****             break;
 675              		.loc 1 170 20 view .LVU176
 676 0200 4828     		cmp	r0, #72
 677 0202 14BF     		ite	ne
 678 0204 0520     		movne	r0, #5
 679              	.LVL91:
 170:Src/register_interface.c ****             break;
 680              		.loc 1 170 20 view .LVU177
 681 0206 0420     		moveq	r0, #4
ARM GAS  /tmp/ccKFuU3x.s 			page 34


 682 0208 E0E7     		b	.L36
 683              	.LVL92:
 684              	.L30:
 536:Src/register_interface.c ****       *size =0; /* From this point we are not able anymore to decode the RX buffer */
 685              		.loc 1 536 7 is_stmt 1 view .LVU178
 537:Src/register_interface.c ****       break;
 686              		.loc 1 537 7 view .LVU179
 537:Src/register_interface.c ****       break;
 687              		.loc 1 537 13 is_stmt 0 view .LVU180
 688 020a 0023     		movs	r3, #0
 689              	.LVL93:
 536:Src/register_interface.c ****       *size =0; /* From this point we are not able anymore to decode the RX buffer */
 690              		.loc 1 536 14 view .LVU181
 691 020c 0720     		movs	r0, #7
 692              	.LVL94:
 537:Src/register_interface.c ****       break;
 693              		.loc 1 537 13 view .LVU182
 694 020e 2380     		strh	r3, [r4]	@ movhi
 538:Src/register_interface.c ****     }
 695              		.loc 1 538 7 is_stmt 1 view .LVU183
 696              	.LVL95:
 541:Src/register_interface.c **** }
 697              		.loc 1 541 3 view .LVU184
 698              		.loc 1 542 1 is_stmt 0 view .LVU185
 699 0210 03B0     		add	sp, sp, #12
 700              	.LCFI8:
 701              		.cfi_remember_state
 702              		.cfi_def_cfa_offset 12
 703              		@ sp needed
 704 0212 30BD     		pop	{r4, r5, pc}
 705              	.LVL96:
 706              	.L143:
 707              	.LCFI9:
 708              		.cfi_restore_state
 709              	.LBB127:
 710              		.loc 1 542 1 view .LVU186
 711 0214 9028     		cmp	r0, #144
 712 0216 7FF46DAF 		bne	.L90
 247:Src/register_interface.c ****           break;
 713              		.loc 1 247 11 is_stmt 1 view .LVU187
 714 021a 2F48     		ldr	r0, .L162+8
 715              	.LVL97:
 247:Src/register_interface.c ****           break;
 716              		.loc 1 247 11 is_stmt 0 view .LVU188
 717 021c 29B2     		sxth	r1, r5
 718              	.LVL98:
 247:Src/register_interface.c ****           break;
 719              		.loc 1 247 11 view .LVU189
 720 021e FFF7FEFF 		bl	PID_SetKP
 721              	.LVL99:
 248:Src/register_interface.c ****         }
 722              		.loc 1 248 11 is_stmt 1 view .LVU190
 723              	.LBE127:
 158:Src/register_interface.c ****   uint8_t motorID=0;
 724              		.loc 1 158 11 is_stmt 0 view .LVU191
 725 0222 0020     		movs	r0, #0
 726              	.LBB128:
ARM GAS  /tmp/ccKFuU3x.s 			page 35


 248:Src/register_interface.c ****         }
 727              		.loc 1 248 11 view .LVU192
 728 0224 22E7     		b	.L41
 729              	.LVL100:
 730              	.L26:
 248:Src/register_interface.c ****         }
 731              		.loc 1 248 11 view .LVU193
 732              	.LBE128:
 733              	.LBB129:
 368:Src/register_interface.c **** 
 734              		.loc 1 368 7 is_stmt 1 view .LVU194
 735 0226 41F61803 		movw	r3, #6168
 736              	.LVL101:
 368:Src/register_interface.c **** 
 737              		.loc 1 368 7 is_stmt 0 view .LVU195
 738 022a 9842     		cmp	r0, r3
 368:Src/register_interface.c **** 
 739              		.loc 1 368 16 view .LVU196
 740 022c 1168     		ldr	r1, [r2]
 741              	.LVL102:
 370:Src/register_interface.c ****       {
 742              		.loc 1 370 7 is_stmt 1 view .LVU197
 743 022e 00F00581 		beq	.L60
 744 0232 16D9     		bls	.L149
 745 0234 41F6D803 		movw	r3, #6360
 746 0238 9842     		cmp	r0, r3
 747 023a 00F0EC80 		beq	.L70
 748 023e 63D9     		bls	.L150
 749 0240 41F6D813 		movw	r3, #6616
 750 0244 9842     		cmp	r0, r3
 751 0246 00F0A080 		beq	.L123
 752 024a 16D9     		bls	.L151
 753 024c 41F61853 		movw	r3, #7448
 754 0250 9842     		cmp	r0, r3
 755 0252 75D1     		bne	.L152
 756              	.LBB130:
 461:Src/register_interface.c ****           SCC_SetResistorOffset(&SCC,fregdata);
 757              		.loc 1 461 11 view .LVU198
 758              	.LVL103:
 462:Src/register_interface.c ****           break;
 759              		.loc 1 462 11 view .LVU199
 760 0254 1E48     		ldr	r0, .L162
 761              	.LVL104:
 462:Src/register_interface.c ****           break;
 762              		.loc 1 462 11 is_stmt 0 view .LVU200
 763 0256 00EE101A 		vmov	s0, r1
 764 025a FFF7FEFF 		bl	SCC_SetResistorOffset
 765              	.LVL105:
 463:Src/register_interface.c ****         }
 766              		.loc 1 463 11 is_stmt 1 view .LVU201
 767              	.LBE130:
 768              	.LBE129:
 158:Src/register_interface.c ****   uint8_t motorID=0;
 769              		.loc 1 158 11 is_stmt 0 view .LVU202
 770 025e 0020     		movs	r0, #0
 771              	.LBB151:
 772              	.LBB131:
ARM GAS  /tmp/ccKFuU3x.s 			page 36


 463:Src/register_interface.c ****         }
 773              		.loc 1 463 11 view .LVU203
 774 0260 32E0     		b	.L64
 775              	.LVL106:
 776              	.L149:
 463:Src/register_interface.c ****         }
 777              		.loc 1 463 11 view .LVU204
 778              	.LBE131:
 779 0262 B0F5067F 		cmp	r0, #536
 780 0266 00F0D280 		beq	.L62
 781 026a 0FD9     		bls	.L153
 782 026c B0F5167F 		cmp	r0, #600
 783 0270 28D1     		bne	.L154
 406:Src/register_interface.c ****           break;
 784              		.loc 1 406 11 is_stmt 1 view .LVU205
 406:Src/register_interface.c ****           break;
 785              		.loc 1 406 29 is_stmt 0 view .LVU206
 786 0272 1B4B     		ldr	r3, .L162+16
 787              	.LBE151:
 158:Src/register_interface.c ****   uint8_t motorID=0;
 788              		.loc 1 158 11 view .LVU207
 789 0274 0020     		movs	r0, #0
 790              	.LVL107:
 791              	.LBB152:
 406:Src/register_interface.c ****           break;
 792              		.loc 1 406 29 view .LVU208
 793 0276 5961     		str	r1, [r3, #20]
 407:Src/register_interface.c ****         }
 794              		.loc 1 407 11 is_stmt 1 view .LVU209
 795 0278 26E0     		b	.L64
 796              	.LVL108:
 797              	.L151:
 407:Src/register_interface.c ****         }
 798              		.loc 1 407 11 is_stmt 0 view .LVU210
 799 027a 41F61813 		movw	r3, #6424
 800 027e 9842     		cmp	r0, r3
 801 0280 4FD1     		bne	.L155
 802              	.LBB132:
 455:Src/register_interface.c ****           SCC_SetCurrentBandwidth(&SCC, fregdata);
 803              		.loc 1 455 11 is_stmt 1 view .LVU211
 804              	.LVL109:
 456:Src/register_interface.c ****           break;
 805              		.loc 1 456 11 view .LVU212
 806              	.LBB133:
 807              	.LBI133:
 462:MCSDK_v6.3.2-Full/MotorControl/MCSDK/MCLib/Any/Inc/mp_self_com_ctrl.h **** {
 808              		.loc 2 462 20 view .LVU213
 809              	.LBB134:
 464:MCSDK_v6.3.2-Full/MotorControl/MCSDK/MCLib/Any/Inc/mp_self_com_ctrl.h **** }
 810              		.loc 2 464 3 view .LVU214
 464:MCSDK_v6.3.2-Full/MotorControl/MCSDK/MCLib/Any/Inc/mp_self_com_ctrl.h **** }
 811              		.loc 2 464 23 is_stmt 0 view .LVU215
 812 0282 134B     		ldr	r3, .L162
 813              	.LBE134:
 814              	.LBE133:
 815              	.LBE132:
 816              	.LBE152:
ARM GAS  /tmp/ccKFuU3x.s 			page 37


 158:Src/register_interface.c ****   uint8_t motorID=0;
 817              		.loc 1 158 11 view .LVU216
 818 0284 0020     		movs	r0, #0
 819              	.LVL110:
 820              	.LBB153:
 821              	.LBB137:
 822              	.LBB136:
 823              	.LBB135:
 464:MCSDK_v6.3.2-Full/MotorControl/MCSDK/MCLib/Any/Inc/mp_self_com_ctrl.h **** }
 824              		.loc 2 464 23 view .LVU217
 825 0286 C3F83411 		str	r1, [r3, #308]	@ float
 465:MCSDK_v6.3.2-Full/MotorControl/MCSDK/MCLib/Any/Inc/mp_self_com_ctrl.h **** 
 826              		.loc 2 465 1 view .LVU218
 827 028a 1DE0     		b	.L64
 828              	.LVL111:
 829              	.L153:
 465:MCSDK_v6.3.2-Full/MotorControl/MCSDK/MCLib/Any/Inc/mp_self_com_ctrl.h **** 
 830              		.loc 2 465 1 view .LVU219
 831              	.LBE135:
 832              	.LBE136:
 833              	.LBE137:
 834 028c D828     		cmp	r0, #216
 835 028e 7CD0     		beq	.L123
 836 0290 09D9     		bls	.L156
 837 0292 B0F58C7F 		cmp	r0, #280
 838 0296 78D0     		beq	.L123
 839 0298 B0F5EC7F 		cmp	r0, #472
 840 029c 13D1     		bne	.L121
 394:Src/register_interface.c ****           break;
 841              		.loc 1 394 11 is_stmt 1 view .LVU220
 394:Src/register_interface.c ****           break;
 842              		.loc 1 394 30 is_stmt 0 view .LVU221
 843 029e 104B     		ldr	r3, .L162+16
 844              	.LBE153:
 158:Src/register_interface.c ****   uint8_t motorID=0;
 845              		.loc 1 158 11 view .LVU222
 846 02a0 0020     		movs	r0, #0
 847              	.LVL112:
 848              	.LBB154:
 394:Src/register_interface.c ****           break;
 849              		.loc 1 394 30 view .LVU223
 850 02a2 1961     		str	r1, [r3, #16]
 395:Src/register_interface.c ****         }
 851              		.loc 1 395 11 is_stmt 1 view .LVU224
 852 02a4 10E0     		b	.L64
 853              	.LVL113:
 854              	.L156:
 395:Src/register_interface.c ****         }
 855              		.loc 1 395 11 is_stmt 0 view .LVU225
 856 02a6 9828     		cmp	r0, #152
 857 02a8 54D1     		bne	.L157
 381:Src/register_interface.c ****           break;
 858              		.loc 1 381 11 is_stmt 1 view .LVU226
 859 02aa 0E4B     		ldr	r3, .L162+20
 860 02ac 0E48     		ldr	r0, .L162+24
 861              	.LVL114:
 381:Src/register_interface.c ****           break;
ARM GAS  /tmp/ccKFuU3x.s 			page 38


 862              		.loc 1 381 11 is_stmt 0 view .LVU227
 863 02ae 09B2     		sxth	r1, r1
 864              	.LVL115:
 381:Src/register_interface.c ****           break;
 865              		.loc 1 381 11 view .LVU228
 866 02b0 83FB0123 		smull	r2, r3, r3, r1
 867              	.LVL116:
 381:Src/register_interface.c ****           break;
 868              		.loc 1 381 11 view .LVU229
 869 02b4 A3EBE171 		sub	r1, r3, r1, asr #31
 870 02b8 0022     		movs	r2, #0
 871 02ba 09B2     		sxth	r1, r1
 872 02bc FFF7FEFF 		bl	MCI_ExecSpeedRamp
 873              	.LVL117:
 382:Src/register_interface.c ****         }
 874              		.loc 1 382 11 is_stmt 1 view .LVU230
 875              	.LBE154:
 158:Src/register_interface.c ****   uint8_t motorID=0;
 876              		.loc 1 158 11 is_stmt 0 view .LVU231
 877 02c0 0020     		movs	r0, #0
 878              	.LBB155:
 382:Src/register_interface.c ****         }
 879              		.loc 1 382 11 view .LVU232
 880 02c2 01E0     		b	.L64
 881              	.LVL118:
 882              	.L154:
 382:Src/register_interface.c ****         }
 883              		.loc 1 382 11 view .LVU233
 884 02c4 12D2     		bcs	.L158
 885              	.L121:
 886 02c6 0520     		movs	r0, #5
 887              	.LVL119:
 888              	.L64:
 481:Src/register_interface.c ****       break;
 889              		.loc 1 481 7 is_stmt 1 view .LVU234
 481:Src/register_interface.c ****       break;
 890              		.loc 1 481 13 is_stmt 0 view .LVU235
 891 02c8 0423     		movs	r3, #4
 892 02ca 2380     		strh	r3, [r4]	@ movhi
 482:Src/register_interface.c ****     }
 893              		.loc 1 482 7 is_stmt 1 view .LVU236
 482:Src/register_interface.c ****     }
 894              		.loc 1 482 7 is_stmt 0 view .LVU237
 895              	.LBE155:
 541:Src/register_interface.c **** }
 896              		.loc 1 541 3 is_stmt 1 view .LVU238
 897              		.loc 1 542 1 is_stmt 0 view .LVU239
 898 02cc 03B0     		add	sp, sp, #12
 899              	.LCFI10:
 900              		.cfi_remember_state
 901              		.cfi_def_cfa_offset 12
 902              		@ sp needed
 903 02ce 30BD     		pop	{r4, r5, pc}
 904              	.LVL120:
 905              	.L163:
 906              		.loc 1 542 1 view .LVU240
 907              		.align	2
ARM GAS  /tmp/ccKFuU3x.s 			page 39


 908              	.L162:
 909 02d0 00000000 		.word	SCC
 910 02d4 34000000 		.word	STO_PLL_M1+52
 911 02d8 00000000 		.word	PIDSpeedHandle_M1
 912 02dc 00000000 		.word	STO_PLL_M1
 913 02e0 00000000 		.word	FF_M1
 914 02e4 ABAAAA2A 		.word	715827883
 915 02e8 00000000 		.word	Mci
 916              	.LVL121:
 917              	.L158:
 918              	.LCFI11:
 919              		.cfi_restore_state
 920              	.LBB156:
 921              		.loc 1 542 1 view .LVU241
 922 02ec 41F25873 		movw	r3, #5976
 923 02f0 9842     		cmp	r0, r3
 924 02f2 4AD0     		beq	.L123
 925 02f4 3ED9     		bls	.L159
 926 02f6 20F04000 		bic	r0, r0, #64
 927              	.LVL122:
 928              		.loc 1 542 1 view .LVU242
 929 02fa 41F29873 		movw	r3, #6040
 375:Src/register_interface.c ****           break;
 930              		.loc 1 375 18 view .LVU243
 931 02fe 9842     		cmp	r0, r3
 932 0300 14BF     		ite	ne
 933 0302 0520     		movne	r0, #5
 934 0304 0420     		moveq	r0, #4
 935 0306 DFE7     		b	.L64
 936              	.LVL123:
 937              	.L150:
 375:Src/register_interface.c ****           break;
 938              		.loc 1 375 18 view .LVU244
 939 0308 41F65803 		movw	r3, #6232
 940 030c 9842     		cmp	r0, r3
 941 030e 4FD0     		beq	.L72
 942 0310 41F69803 		movw	r3, #6296
 943 0314 9842     		cmp	r0, r3
 944 0316 D6D1     		bne	.L121
 945              	.LBB138:
 442:Src/register_interface.c ****           SCC_SetLdLqRatio(&SCC, fregdata);
 946              		.loc 1 442 11 is_stmt 1 view .LVU245
 947              	.LVL124:
 443:Src/register_interface.c ****           break;
 948              		.loc 1 443 11 view .LVU246
 949              	.LBB139:
 950              	.LBI139:
 384:MCSDK_v6.3.2-Full/MotorControl/MCSDK/MCLib/Any/Inc/mp_self_com_ctrl.h **** {
 951              		.loc 2 384 20 view .LVU247
 952              	.LBB140:
 386:MCSDK_v6.3.2-Full/MotorControl/MCSDK/MCLib/Any/Inc/mp_self_com_ctrl.h **** }
 953              		.loc 2 386 3 view .LVU248
 386:MCSDK_v6.3.2-Full/MotorControl/MCSDK/MCLib/Any/Inc/mp_self_com_ctrl.h **** }
 954              		.loc 2 386 23 is_stmt 0 view .LVU249
 955 0318 614B     		ldr	r3, .L164
 956              	.LBE140:
 957              	.LBE139:
ARM GAS  /tmp/ccKFuU3x.s 			page 40


 958              	.LBE138:
 959              	.LBE156:
 158:Src/register_interface.c ****   uint8_t motorID=0;
 960              		.loc 1 158 11 view .LVU250
 961 031a 0020     		movs	r0, #0
 962              	.LVL125:
 963              	.LBB157:
 964              	.LBB143:
 965              	.LBB142:
 966              	.LBB141:
 386:MCSDK_v6.3.2-Full/MotorControl/MCSDK/MCLib/Any/Inc/mp_self_com_ctrl.h **** }
 967              		.loc 2 386 23 view .LVU251
 968 031c C3F8E010 		str	r1, [r3, #224]	@ float
 387:MCSDK_v6.3.2-Full/MotorControl/MCSDK/MCLib/Any/Inc/mp_self_com_ctrl.h **** 
 969              		.loc 2 387 1 view .LVU252
 970 0320 D2E7     		b	.L64
 971              	.LVL126:
 972              	.L155:
 387:MCSDK_v6.3.2-Full/MotorControl/MCSDK/MCLib/Any/Inc/mp_self_com_ctrl.h **** 
 973              		.loc 2 387 1 view .LVU253
 974              	.LBE141:
 975              	.LBE142:
 976              	.LBE143:
 977 0322 41F61713 		movw	r3, #6423
 978 0326 9842     		cmp	r0, r3
 979 0328 CDD9     		bls	.L121
 980 032a 41F65813 		movw	r3, #6488
 981 032e 9842     		cmp	r0, r3
 982 0330 2BD0     		beq	.L123
 983 0332 41F69813 		movw	r3, #6552
 375:Src/register_interface.c ****           break;
 984              		.loc 1 375 18 view .LVU254
 985 0336 9842     		cmp	r0, r3
 986 0338 14BF     		ite	ne
 987 033a 0520     		movne	r0, #5
 988 033c 0420     		moveq	r0, #4
 989              	.LVL127:
 375:Src/register_interface.c ****           break;
 990              		.loc 1 375 18 view .LVU255
 991 033e C3E7     		b	.L64
 992              	.LVL128:
 993              	.L152:
 375:Src/register_interface.c ****           break;
 994              		.loc 1 375 18 view .LVU256
 995 0340 C1D8     		bhi	.L121
 996 0342 20F04000 		bic	r0, r0, #64
 997              	.LVL129:
 375:Src/register_interface.c ****           break;
 998              		.loc 1 375 18 view .LVU257
 999 0346 41F61823 		movw	r3, #6680
 1000 034a 9842     		cmp	r0, r3
 1001 034c 14BF     		ite	ne
 1002 034e 0520     		movne	r0, #5
 1003 0350 0420     		moveq	r0, #4
 1004 0352 B9E7     		b	.L64
 1005              	.LVL130:
 1006              	.L157:
ARM GAS  /tmp/ccKFuU3x.s 			page 41


 375:Src/register_interface.c ****           break;
 1007              		.loc 1 375 18 view .LVU258
 1008 0354 B7D8     		bhi	.L121
 1009 0356 20F04000 		bic	r0, r0, #64
 1010              	.LVL131:
 375:Src/register_interface.c ****           break;
 1011              		.loc 1 375 18 view .LVU259
 1012 035a 1828     		cmp	r0, #24
 1013 035c 14BF     		ite	ne
 1014 035e 0520     		movne	r0, #5
 1015 0360 0420     		moveq	r0, #4
 1016 0362 B1E7     		b	.L64
 1017              	.LVL132:
 1018              	.L146:
 375:Src/register_interface.c ****           break;
 1019              		.loc 1 375 18 view .LVU260
 1020              	.LBE157:
 1021 0364 C828     		cmp	r0, #200
 1022 0366 12D0     		beq	.L86
 170:Src/register_interface.c ****             break;
 1023              		.loc 1 170 20 view .LVU261
 1024 0368 B0F5727F 		cmp	r0, #968
 1025 036c 14BF     		ite	ne
 1026 036e 0520     		movne	r0, #5
 1027              	.LVL133:
 170:Src/register_interface.c ****             break;
 1028              		.loc 1 170 20 view .LVU262
 1029 0370 0420     		moveq	r0, #4
 1030 0372 2BE7     		b	.L36
 1031              	.LVL134:
 1032              	.L159:
 1033              	.LBB158:
 170:Src/register_interface.c ****             break;
 1034              		.loc 1 170 20 view .LVU263
 1035 0374 41F2D863 		movw	r3, #5848
 1036 0378 9842     		cmp	r0, r3
 1037 037a 06D0     		beq	.L123
 1038 037c 41F21873 		movw	r3, #5912
 375:Src/register_interface.c ****           break;
 1039              		.loc 1 375 18 view .LVU264
 1040 0380 9842     		cmp	r0, r3
 1041 0382 14BF     		ite	ne
 1042 0384 0520     		movne	r0, #5
 1043 0386 0420     		moveq	r0, #4
 1044              	.LVL135:
 375:Src/register_interface.c ****           break;
 1045              		.loc 1 375 18 view .LVU265
 1046 0388 9EE7     		b	.L64
 1047              	.LVL136:
 1048              	.L123:
 428:Src/register_interface.c ****           }
 1049              		.loc 1 428 22 view .LVU266
 1050 038a 0420     		movs	r0, #4
 1051              	.LVL137:
 428:Src/register_interface.c ****           }
 1052              		.loc 1 428 22 view .LVU267
 1053 038c 9CE7     		b	.L64
ARM GAS  /tmp/ccKFuU3x.s 			page 42


 1054              	.LVL138:
 1055              	.L86:
 428:Src/register_interface.c ****           }
 1056              		.loc 1 428 22 view .LVU268
 1057              	.LBE158:
 170:Src/register_interface.c ****             break;
 1058              		.loc 1 170 20 view .LVU269
 1059 038e 0420     		movs	r0, #4
 1060              	.LVL139:
 170:Src/register_interface.c ****             break;
 1061              		.loc 1 170 20 view .LVU270
 1062 0390 1CE7     		b	.L36
 1063              	.LVL140:
 1064              	.L136:
 1065              	.LBB159:
 498:Src/register_interface.c ****         retVal = MCP_ERROR_BAD_RAW_FORMAT; /* This error stop the parsing of the CMD buffer */
 1066              		.loc 1 498 9 is_stmt 1 view .LVU271
 498:Src/register_interface.c ****         retVal = MCP_ERROR_BAD_RAW_FORMAT; /* This error stop the parsing of the CMD buffer */
 1067              		.loc 1 498 15 is_stmt 0 view .LVU272
 1068 0392 0023     		movs	r3, #0
 1069 0394 2380     		strh	r3, [r4]	@ movhi
 499:Src/register_interface.c ****       }
 1070              		.loc 1 499 9 is_stmt 1 view .LVU273
 1071              	.LVL141:
 499:Src/register_interface.c ****       }
 1072              		.loc 1 499 16 is_stmt 0 view .LVU274
 1073 0396 0A20     		movs	r0, #10
 1074              	.LVL142:
 499:Src/register_interface.c ****       }
 1075              		.loc 1 499 16 view .LVU275
 1076 0398 6AE6     		b	.L40
 1077              	.LVL143:
 1078              	.L99:
 499:Src/register_interface.c ****       }
 1079              		.loc 1 499 16 view .LVU276
 1080              	.LBE159:
 158:Src/register_interface.c ****   uint8_t motorID=0;
 1081              		.loc 1 158 11 view .LVU277
 1082 039a 0020     		movs	r0, #0
 1083              	.LVL144:
 158:Src/register_interface.c ****   uint8_t motorID=0;
 1084              		.loc 1 158 11 view .LVU278
 1085 039c 66E6     		b	.L41
 1086              	.LVL145:
 1087              	.L125:
 1088              	.LBB160:
 509:Src/register_interface.c ****             break;
 1089              		.loc 1 509 20 view .LVU279
 1090 039e 0420     		movs	r0, #4
 1091              	.LVL146:
 509:Src/register_interface.c ****             break;
 1092              		.loc 1 509 20 view .LVU280
 1093 03a0 66E6     		b	.L40
 1094              	.LVL147:
 1095              	.L34:
 509:Src/register_interface.c ****             break;
 1096              		.loc 1 509 20 view .LVU281
ARM GAS  /tmp/ccKFuU3x.s 			page 43


 1097              	.LBE160:
 1098              	.LBB161:
 175:Src/register_interface.c **** 
 1099              		.loc 1 175 11 is_stmt 1 view .LVU282
 175:Src/register_interface.c **** 
 1100              		.loc 1 175 19 is_stmt 0 view .LVU283
 1101 03a2 1378     		ldrb	r3, [r2]	@ zero_extendqisi2
 1102              	.LVL148:
 177:Src/register_interface.c ****           {
 1103              		.loc 1 177 11 is_stmt 1 view .LVU284
 177:Src/register_interface.c ****           {
 1104              		.loc 1 177 14 is_stmt 0 view .LVU285
 1105 03a4 042B     		cmp	r3, #4
 1106 03a6 70D0     		beq	.L160
 185:Src/register_interface.c **** 
 1107              		.loc 1 185 11 is_stmt 1 view .LVU286
 187:Src/register_interface.c ****           {
 1108              		.loc 1 187 11 view .LVU287
 187:Src/register_interface.c ****           {
 1109              		.loc 1 187 14 is_stmt 0 view .LVU288
 1110 03a8 032B     		cmp	r3, #3
 1111 03aa 64D0     		beq	.L161
 1112              	.LBE161:
 158:Src/register_interface.c ****   uint8_t motorID=0;
 1113              		.loc 1 158 11 view .LVU289
 1114 03ac 0020     		movs	r0, #0
 1115              	.LVL149:
 158:Src/register_interface.c ****   uint8_t motorID=0;
 1116              		.loc 1 158 11 view .LVU290
 1117 03ae 0DE7     		b	.L36
 1118              	.LVL150:
 1119              	.L72:
 1120              	.LBB162:
 1121              	.LBB144:
 435:Src/register_interface.c ****           OTT_SetSpeedRegulatorBandwidth(&OTT, fregdata);
 1122              		.loc 1 435 11 is_stmt 1 view .LVU291
 436:Src/register_interface.c ****           break;
 1123              		.loc 1 436 11 view .LVU292
 1124              	.LBB145:
 1125              	.LBI145:
 1126              		.file 3 "MCSDK_v6.3.2-Full/MotorControl/MCSDK/MCLib/Any/Inc/mp_one_touch_tuning.h"
   1:MCSDK_v6.3.2-Full/MotorControl/MCSDK/MCLib/Any/Inc/mp_one_touch_tuning.h **** /**
   2:MCSDK_v6.3.2-Full/MotorControl/MCSDK/MCLib/Any/Inc/mp_one_touch_tuning.h ****   ******************************************************************************
   3:MCSDK_v6.3.2-Full/MotorControl/MCSDK/MCLib/Any/Inc/mp_one_touch_tuning.h ****   * @file    mp_one_touch_tuning.h
   4:MCSDK_v6.3.2-Full/MotorControl/MCSDK/MCLib/Any/Inc/mp_one_touch_tuning.h ****   * @author  Motor Control SDK Team, ST Microelectronics
   5:MCSDK_v6.3.2-Full/MotorControl/MCSDK/MCLib/Any/Inc/mp_one_touch_tuning.h ****   * @brief   This file contains all definitions and functions prototypes for
   6:MCSDK_v6.3.2-Full/MotorControl/MCSDK/MCLib/Any/Inc/mp_one_touch_tuning.h ****   *          for the One Touch Tuning component
   7:MCSDK_v6.3.2-Full/MotorControl/MCSDK/MCLib/Any/Inc/mp_one_touch_tuning.h ****   ******************************************************************************
   8:MCSDK_v6.3.2-Full/MotorControl/MCSDK/MCLib/Any/Inc/mp_one_touch_tuning.h ****   * @attention
   9:MCSDK_v6.3.2-Full/MotorControl/MCSDK/MCLib/Any/Inc/mp_one_touch_tuning.h ****   *
  10:MCSDK_v6.3.2-Full/MotorControl/MCSDK/MCLib/Any/Inc/mp_one_touch_tuning.h ****   * <h2><center>&copy; Copyright (c) 2024 STMicroelectronics.
  11:MCSDK_v6.3.2-Full/MotorControl/MCSDK/MCLib/Any/Inc/mp_one_touch_tuning.h ****   * All rights reserved.</center></h2>
  12:MCSDK_v6.3.2-Full/MotorControl/MCSDK/MCLib/Any/Inc/mp_one_touch_tuning.h ****   *
  13:MCSDK_v6.3.2-Full/MotorControl/MCSDK/MCLib/Any/Inc/mp_one_touch_tuning.h ****   * This software component is licensed by ST under Ultimate Liberty license
  14:MCSDK_v6.3.2-Full/MotorControl/MCSDK/MCLib/Any/Inc/mp_one_touch_tuning.h ****   * SLA0044, the "License"; You may not use this file except in compliance with
  15:MCSDK_v6.3.2-Full/MotorControl/MCSDK/MCLib/Any/Inc/mp_one_touch_tuning.h ****   * the License. You may obtain a copy of the License at:
  16:MCSDK_v6.3.2-Full/MotorControl/MCSDK/MCLib/Any/Inc/mp_one_touch_tuning.h ****   *                             www.st.com/SLA0044
ARM GAS  /tmp/ccKFuU3x.s 			page 44


  17:MCSDK_v6.3.2-Full/MotorControl/MCSDK/MCLib/Any/Inc/mp_one_touch_tuning.h ****   *
  18:MCSDK_v6.3.2-Full/MotorControl/MCSDK/MCLib/Any/Inc/mp_one_touch_tuning.h ****   ******************************************************************************
  19:MCSDK_v6.3.2-Full/MotorControl/MCSDK/MCLib/Any/Inc/mp_one_touch_tuning.h ****   * @ingroup OneTouchTuning
  20:MCSDK_v6.3.2-Full/MotorControl/MCSDK/MCLib/Any/Inc/mp_one_touch_tuning.h ****   */
  21:MCSDK_v6.3.2-Full/MotorControl/MCSDK/MCLib/Any/Inc/mp_one_touch_tuning.h **** 
  22:MCSDK_v6.3.2-Full/MotorControl/MCSDK/MCLib/Any/Inc/mp_one_touch_tuning.h **** /* Define to prevent recursive inclusion -------------------------------------*/
  23:MCSDK_v6.3.2-Full/MotorControl/MCSDK/MCLib/Any/Inc/mp_one_touch_tuning.h **** #ifndef MP_ONE_TOUCH_TUNING_H
  24:MCSDK_v6.3.2-Full/MotorControl/MCSDK/MCLib/Any/Inc/mp_one_touch_tuning.h **** #define MP_ONE_TOUCH_TUNING_H
  25:MCSDK_v6.3.2-Full/MotorControl/MCSDK/MCLib/Any/Inc/mp_one_touch_tuning.h **** 
  26:MCSDK_v6.3.2-Full/MotorControl/MCSDK/MCLib/Any/Inc/mp_one_touch_tuning.h **** /* Includes ------------------------------------------------------------------*/
  27:MCSDK_v6.3.2-Full/MotorControl/MCSDK/MCLib/Any/Inc/mp_one_touch_tuning.h **** #include "mc_type.h"
  28:MCSDK_v6.3.2-Full/MotorControl/MCSDK/MCLib/Any/Inc/mp_one_touch_tuning.h **** #include "pid_regulator.h"
  29:MCSDK_v6.3.2-Full/MotorControl/MCSDK/MCLib/Any/Inc/mp_one_touch_tuning.h **** #include "sto_pll_speed_pos_fdbk.h"
  30:MCSDK_v6.3.2-Full/MotorControl/MCSDK/MCLib/Any/Inc/mp_one_touch_tuning.h **** #include "speed_torq_ctrl.h"
  31:MCSDK_v6.3.2-Full/MotorControl/MCSDK/MCLib/Any/Inc/mp_one_touch_tuning.h **** #include "ramp_ext_mngr.h"
  32:MCSDK_v6.3.2-Full/MotorControl/MCSDK/MCLib/Any/Inc/mp_one_touch_tuning.h **** #include "mc_math.h"
  33:MCSDK_v6.3.2-Full/MotorControl/MCSDK/MCLib/Any/Inc/mp_one_touch_tuning.h **** #include "arm_math.h"
  34:MCSDK_v6.3.2-Full/MotorControl/MCSDK/MCLib/Any/Inc/mp_one_touch_tuning.h **** 
  35:MCSDK_v6.3.2-Full/MotorControl/MCSDK/MCLib/Any/Inc/mp_one_touch_tuning.h **** /** @addtogroup STM32_PMSM_MC_Library
  36:MCSDK_v6.3.2-Full/MotorControl/MCSDK/MCLib/Any/Inc/mp_one_touch_tuning.h ****   * @{
  37:MCSDK_v6.3.2-Full/MotorControl/MCSDK/MCLib/Any/Inc/mp_one_touch_tuning.h ****   */
  38:MCSDK_v6.3.2-Full/MotorControl/MCSDK/MCLib/Any/Inc/mp_one_touch_tuning.h **** 
  39:MCSDK_v6.3.2-Full/MotorControl/MCSDK/MCLib/Any/Inc/mp_one_touch_tuning.h **** /** @addtogroup OneTouchTuning
  40:MCSDK_v6.3.2-Full/MotorControl/MCSDK/MCLib/Any/Inc/mp_one_touch_tuning.h ****   * @{
  41:MCSDK_v6.3.2-Full/MotorControl/MCSDK/MCLib/Any/Inc/mp_one_touch_tuning.h ****   */
  42:MCSDK_v6.3.2-Full/MotorControl/MCSDK/MCLib/Any/Inc/mp_one_touch_tuning.h **** 
  43:MCSDK_v6.3.2-Full/MotorControl/MCSDK/MCLib/Any/Inc/mp_one_touch_tuning.h **** /** @defgroup OneTouchTuning_class_exported_types OneTouchTuning class exported types
  44:MCSDK_v6.3.2-Full/MotorControl/MCSDK/MCLib/Any/Inc/mp_one_touch_tuning.h ****   * @{
  45:MCSDK_v6.3.2-Full/MotorControl/MCSDK/MCLib/Any/Inc/mp_one_touch_tuning.h ****   */
  46:MCSDK_v6.3.2-Full/MotorControl/MCSDK/MCLib/Any/Inc/mp_one_touch_tuning.h **** 
  47:MCSDK_v6.3.2-Full/MotorControl/MCSDK/MCLib/Any/Inc/mp_one_touch_tuning.h **** /**
  48:MCSDK_v6.3.2-Full/MotorControl/MCSDK/MCLib/Any/Inc/mp_one_touch_tuning.h ****   * @brief  Public OneTouchTuning class definition
  49:MCSDK_v6.3.2-Full/MotorControl/MCSDK/MCLib/Any/Inc/mp_one_touch_tuning.h ****   */
  50:MCSDK_v6.3.2-Full/MotorControl/MCSDK/MCLib/Any/Inc/mp_one_touch_tuning.h **** 
  51:MCSDK_v6.3.2-Full/MotorControl/MCSDK/MCLib/Any/Inc/mp_one_touch_tuning.h **** 
  52:MCSDK_v6.3.2-Full/MotorControl/MCSDK/MCLib/Any/Inc/mp_one_touch_tuning.h **** /**
  53:MCSDK_v6.3.2-Full/MotorControl/MCSDK/MCLib/Any/Inc/mp_one_touch_tuning.h ****   * @brief  OneTouchTuning class parameters definition
  54:MCSDK_v6.3.2-Full/MotorControl/MCSDK/MCLib/Any/Inc/mp_one_touch_tuning.h ****   */
  55:MCSDK_v6.3.2-Full/MotorControl/MCSDK/MCLib/Any/Inc/mp_one_touch_tuning.h **** typedef const struct
  56:MCSDK_v6.3.2-Full/MotorControl/MCSDK/MCLib/Any/Inc/mp_one_touch_tuning.h **** {
  57:MCSDK_v6.3.2-Full/MotorControl/MCSDK/MCLib/Any/Inc/mp_one_touch_tuning.h ****   RampExtMngr_Handle_t rampExtMngrParams; /*!< Ramp manager used by SCC.*/
  58:MCSDK_v6.3.2-Full/MotorControl/MCSDK/MCLib/Any/Inc/mp_one_touch_tuning.h ****   float fBWdef;               /*!< Default bandwidth of speed regulator.*/
  59:MCSDK_v6.3.2-Full/MotorControl/MCSDK/MCLib/Any/Inc/mp_one_touch_tuning.h ****   float fMeasWin;             /*!< Duration of measurement window for speed and
  60:MCSDK_v6.3.2-Full/MotorControl/MCSDK/MCLib/Any/Inc/mp_one_touch_tuning.h ****                                    current Iq, expressed in seconds.*/
  61:MCSDK_v6.3.2-Full/MotorControl/MCSDK/MCLib/Any/Inc/mp_one_touch_tuning.h ****   uint8_t bPolesPairs;        /*!< Number of motor poles pairs.*/
  62:MCSDK_v6.3.2-Full/MotorControl/MCSDK/MCLib/Any/Inc/mp_one_touch_tuning.h ****   uint16_t hMaxPositiveTorque;/*!< Maximum positive value of motor
  63:MCSDK_v6.3.2-Full/MotorControl/MCSDK/MCLib/Any/Inc/mp_one_touch_tuning.h ****                                    torque. This value represents
  64:MCSDK_v6.3.2-Full/MotorControl/MCSDK/MCLib/Any/Inc/mp_one_touch_tuning.h ****                                    actually the maximum Iq current
  65:MCSDK_v6.3.2-Full/MotorControl/MCSDK/MCLib/Any/Inc/mp_one_touch_tuning.h ****                                    expressed in digit.*/
  66:MCSDK_v6.3.2-Full/MotorControl/MCSDK/MCLib/Any/Inc/mp_one_touch_tuning.h ****   float fCurrtRegStabTimeSec; /*!< Current regulation stabilization time in seconds.*/
  67:MCSDK_v6.3.2-Full/MotorControl/MCSDK/MCLib/Any/Inc/mp_one_touch_tuning.h ****   float fOttLowSpeedPerc;     /*!< OTT lower speed percentage.*/
  68:MCSDK_v6.3.2-Full/MotorControl/MCSDK/MCLib/Any/Inc/mp_one_touch_tuning.h ****   float fOttHighSpeedPerc;    /*!< OTT higher speed percentage.*/
  69:MCSDK_v6.3.2-Full/MotorControl/MCSDK/MCLib/Any/Inc/mp_one_touch_tuning.h ****   float fSpeedStabTimeSec;    /*!< Speed stabilization time in seconds.*/
  70:MCSDK_v6.3.2-Full/MotorControl/MCSDK/MCLib/Any/Inc/mp_one_touch_tuning.h ****   float fTimeOutSec;          /*!< Timeout for speed stabilization.*/
  71:MCSDK_v6.3.2-Full/MotorControl/MCSDK/MCLib/Any/Inc/mp_one_touch_tuning.h ****   float fSpeedMargin;         /*!< Speed margin percentage to validate speed ctrl.*/
  72:MCSDK_v6.3.2-Full/MotorControl/MCSDK/MCLib/Any/Inc/mp_one_touch_tuning.h ****   int32_t wNominalSpeed;      /*!< Nominal speed set by the user expressed in RPM.*/
  73:MCSDK_v6.3.2-Full/MotorControl/MCSDK/MCLib/Any/Inc/mp_one_touch_tuning.h ****   float spdKp;                /*!< Initial KP factor of the speed regulator to be tuned.*/
ARM GAS  /tmp/ccKFuU3x.s 			page 45


  74:MCSDK_v6.3.2-Full/MotorControl/MCSDK/MCLib/Any/Inc/mp_one_touch_tuning.h ****   float spdKi;                /*!< Initial KI factor of the speed regulator to be tuned.*/
  75:MCSDK_v6.3.2-Full/MotorControl/MCSDK/MCLib/Any/Inc/mp_one_touch_tuning.h ****   float spdKs;                /*!< Initial antiwindup factor of the speed regulator to be tuned.*/
  76:MCSDK_v6.3.2-Full/MotorControl/MCSDK/MCLib/Any/Inc/mp_one_touch_tuning.h ****   float fRshunt;              /*!< Value of shunt resistor.*/
  77:MCSDK_v6.3.2-Full/MotorControl/MCSDK/MCLib/Any/Inc/mp_one_touch_tuning.h ****   float fAmplificationGain;   /*!< Current sensing amplification gain.*/
  78:MCSDK_v6.3.2-Full/MotorControl/MCSDK/MCLib/Any/Inc/mp_one_touch_tuning.h **** } OTT_Params_t, *pOTT_Params_t;
  79:MCSDK_v6.3.2-Full/MotorControl/MCSDK/MCLib/Any/Inc/mp_one_touch_tuning.h **** 
  80:MCSDK_v6.3.2-Full/MotorControl/MCSDK/MCLib/Any/Inc/mp_one_touch_tuning.h **** /**
  81:MCSDK_v6.3.2-Full/MotorControl/MCSDK/MCLib/Any/Inc/mp_one_touch_tuning.h ****   * @brief  OTT_State_t enum type definition, it lists all the possible OTT state
  82:MCSDK_v6.3.2-Full/MotorControl/MCSDK/MCLib/Any/Inc/mp_one_touch_tuning.h ****           machine states.
  83:MCSDK_v6.3.2-Full/MotorControl/MCSDK/MCLib/Any/Inc/mp_one_touch_tuning.h ****   */
  84:MCSDK_v6.3.2-Full/MotorControl/MCSDK/MCLib/Any/Inc/mp_one_touch_tuning.h **** typedef enum
  85:MCSDK_v6.3.2-Full/MotorControl/MCSDK/MCLib/Any/Inc/mp_one_touch_tuning.h **** {
  86:MCSDK_v6.3.2-Full/MotorControl/MCSDK/MCLib/Any/Inc/mp_one_touch_tuning.h ****   OTT_IDLE,
  87:MCSDK_v6.3.2-Full/MotorControl/MCSDK/MCLib/Any/Inc/mp_one_touch_tuning.h ****   OTT_NOMINAL_SPEED_DET,
  88:MCSDK_v6.3.2-Full/MotorControl/MCSDK/MCLib/Any/Inc/mp_one_touch_tuning.h ****   OTT_DYNAMICS_DET_RAMP_DOWN,
  89:MCSDK_v6.3.2-Full/MotorControl/MCSDK/MCLib/Any/Inc/mp_one_touch_tuning.h ****   OTT_DYNAMICS_DET_SET_TORQUE,
  90:MCSDK_v6.3.2-Full/MotorControl/MCSDK/MCLib/Any/Inc/mp_one_touch_tuning.h ****   OTT_DYNAMICS_DETECTION,
  91:MCSDK_v6.3.2-Full/MotorControl/MCSDK/MCLib/Any/Inc/mp_one_touch_tuning.h ****   OTT_RAMP_DOWN_H_SPEED,
  92:MCSDK_v6.3.2-Full/MotorControl/MCSDK/MCLib/Any/Inc/mp_one_touch_tuning.h ****   OTT_H_SPEED_TEST,
  93:MCSDK_v6.3.2-Full/MotorControl/MCSDK/MCLib/Any/Inc/mp_one_touch_tuning.h ****   OTT_RAMP_DOWN_L_SPEED,
  94:MCSDK_v6.3.2-Full/MotorControl/MCSDK/MCLib/Any/Inc/mp_one_touch_tuning.h ****   OTT_L_SPEED_TEST,
  95:MCSDK_v6.3.2-Full/MotorControl/MCSDK/MCLib/Any/Inc/mp_one_touch_tuning.h ****   OTT_TORQUE_STEP,
  96:MCSDK_v6.3.2-Full/MotorControl/MCSDK/MCLib/Any/Inc/mp_one_touch_tuning.h ****   OTT_END
  97:MCSDK_v6.3.2-Full/MotorControl/MCSDK/MCLib/Any/Inc/mp_one_touch_tuning.h **** } OTT_State_t;
  98:MCSDK_v6.3.2-Full/MotorControl/MCSDK/MCLib/Any/Inc/mp_one_touch_tuning.h **** 
  99:MCSDK_v6.3.2-Full/MotorControl/MCSDK/MCLib/Any/Inc/mp_one_touch_tuning.h **** /**
 100:MCSDK_v6.3.2-Full/MotorControl/MCSDK/MCLib/Any/Inc/mp_one_touch_tuning.h ****   * @brief  OneTouchTuning class members definition
 101:MCSDK_v6.3.2-Full/MotorControl/MCSDK/MCLib/Any/Inc/mp_one_touch_tuning.h ****   */
 102:MCSDK_v6.3.2-Full/MotorControl/MCSDK/MCLib/Any/Inc/mp_one_touch_tuning.h **** typedef struct
 103:MCSDK_v6.3.2-Full/MotorControl/MCSDK/MCLib/Any/Inc/mp_one_touch_tuning.h **** {
 104:MCSDK_v6.3.2-Full/MotorControl/MCSDK/MCLib/Any/Inc/mp_one_touch_tuning.h ****   SpeednPosFdbk_Handle_t *pSpeedSensor;       /*!< Related speed sensor used. */
 105:MCSDK_v6.3.2-Full/MotorControl/MCSDK/MCLib/Any/Inc/mp_one_touch_tuning.h ****   pFOCVars_t pFOCVars;  /*!< Related structure of FOC vars.*/
 106:MCSDK_v6.3.2-Full/MotorControl/MCSDK/MCLib/Any/Inc/mp_one_touch_tuning.h ****   PID_Handle_t *pPIDSpeed;           /*!< Related speed controller used. */
 107:MCSDK_v6.3.2-Full/MotorControl/MCSDK/MCLib/Any/Inc/mp_one_touch_tuning.h ****   SpeednTorqCtrl_Handle_t *pSTC;            /*!< Speed and torque controller used.*/
 108:MCSDK_v6.3.2-Full/MotorControl/MCSDK/MCLib/Any/Inc/mp_one_touch_tuning.h **** 
 109:MCSDK_v6.3.2-Full/MotorControl/MCSDK/MCLib/Any/Inc/mp_one_touch_tuning.h ****   RampExtMngr_Handle_t *pREMng;           /*!< Ramp manager used.*/
 110:MCSDK_v6.3.2-Full/MotorControl/MCSDK/MCLib/Any/Inc/mp_one_touch_tuning.h ****   int16_t hFDetIq[2];      /*!< Array used to store Iq measurements done during F estimation.*/
 111:MCSDK_v6.3.2-Full/MotorControl/MCSDK/MCLib/Any/Inc/mp_one_touch_tuning.h ****   float fFDetOmega[2];     /*!< Array used to store Omega values during F estimation.*/
 112:MCSDK_v6.3.2-Full/MotorControl/MCSDK/MCLib/Any/Inc/mp_one_touch_tuning.h ****   float fF;                /*!< Stores the last F estimation.*/
 113:MCSDK_v6.3.2-Full/MotorControl/MCSDK/MCLib/Any/Inc/mp_one_touch_tuning.h ****   float fOmegaTh;          /*!< Stores the last omega threshold.*/
 114:MCSDK_v6.3.2-Full/MotorControl/MCSDK/MCLib/Any/Inc/mp_one_touch_tuning.h ****   float fTau;              /*!< Stores the last computed mechanical time constant.*/
 115:MCSDK_v6.3.2-Full/MotorControl/MCSDK/MCLib/Any/Inc/mp_one_touch_tuning.h ****   float fJ;                /*!< Stores the last J estimation.*/
 116:MCSDK_v6.3.2-Full/MotorControl/MCSDK/MCLib/Any/Inc/mp_one_touch_tuning.h ****   float fBW;               /*!< Bandwidth of speed regulator.*/
 117:MCSDK_v6.3.2-Full/MotorControl/MCSDK/MCLib/Any/Inc/mp_one_touch_tuning.h ****   OTT_State_t bState;      /*!< State macchine state.*/
 118:MCSDK_v6.3.2-Full/MotorControl/MCSDK/MCLib/Any/Inc/mp_one_touch_tuning.h ****   int32_t wIqsum;          /*!< Sum of measured Iq.*/
 119:MCSDK_v6.3.2-Full/MotorControl/MCSDK/MCLib/Any/Inc/mp_one_touch_tuning.h ****   int32_t wSpeed01Hzsum;   /*!< Sum of average mechanical speed.*/
 120:MCSDK_v6.3.2-Full/MotorControl/MCSDK/MCLib/Any/Inc/mp_one_touch_tuning.h ****   uint16_t hIqCnt;         /*!< Counter for Iq acquisitions.*/
 121:MCSDK_v6.3.2-Full/MotorControl/MCSDK/MCLib/Any/Inc/mp_one_touch_tuning.h ****   int32_t wCnt;            /*!< 32bit counter.*/
 122:MCSDK_v6.3.2-Full/MotorControl/MCSDK/MCLib/Any/Inc/mp_one_touch_tuning.h ****   int16_t hSpeed01HzMean;  /*!< Mean value of mechanical speed.*/
 123:MCSDK_v6.3.2-Full/MotorControl/MCSDK/MCLib/Any/Inc/mp_one_touch_tuning.h ****   int16_t hSpeed01HzDelta; /*!< Delta speed between mechanical speed.*/
 124:MCSDK_v6.3.2-Full/MotorControl/MCSDK/MCLib/Any/Inc/mp_one_touch_tuning.h ****   uint16_t hCurRegStabCnt; /*!< Stabilization counter.*/
 125:MCSDK_v6.3.2-Full/MotorControl/MCSDK/MCLib/Any/Inc/mp_one_touch_tuning.h ****   uint16_t hJdetCnt;       /*!< Counter to measure the mechanical time constant.*/
 126:MCSDK_v6.3.2-Full/MotorControl/MCSDK/MCLib/Any/Inc/mp_one_touch_tuning.h ****   float fEstNominalSpdRPM; /*!< Estimated nominal speed.*/
 127:MCSDK_v6.3.2-Full/MotorControl/MCSDK/MCLib/Any/Inc/mp_one_touch_tuning.h ****   int16_t hIqNominal;      /*!< Current measured at nominal speed steady state.*/
 128:MCSDK_v6.3.2-Full/MotorControl/MCSDK/MCLib/Any/Inc/mp_one_touch_tuning.h ****   int16_t hIqAcc;          /*!< Current used to accelerate the motor.*/
 129:MCSDK_v6.3.2-Full/MotorControl/MCSDK/MCLib/Any/Inc/mp_one_touch_tuning.h ****   int16_t hTargetLRPM;     /*!< Lower speed used for OTT.*/
 130:MCSDK_v6.3.2-Full/MotorControl/MCSDK/MCLib/Any/Inc/mp_one_touch_tuning.h ****   int16_t hTargetHRPM;     /*!< Higher speed used for OTT.*/
ARM GAS  /tmp/ccKFuU3x.s 			page 46


 131:MCSDK_v6.3.2-Full/MotorControl/MCSDK/MCLib/Any/Inc/mp_one_touch_tuning.h ****   uint16_t hMeasWinTicks;  /*!< Number of ticks of the measurement window.*/
 132:MCSDK_v6.3.2-Full/MotorControl/MCSDK/MCLib/Any/Inc/mp_one_touch_tuning.h ****   uint16_t hCurRegStabTks; /*!< Number of ticks for current regulation stabilization time.*/
 133:MCSDK_v6.3.2-Full/MotorControl/MCSDK/MCLib/Any/Inc/mp_one_touch_tuning.h ****   uint16_t hSpeedStabTks;  /*!< Number of ticks for speed stabilization time.*/
 134:MCSDK_v6.3.2-Full/MotorControl/MCSDK/MCLib/Any/Inc/mp_one_touch_tuning.h ****   bool bPI_Tuned;          /*!< True is PI is tuned, false otherwise.*/
 135:MCSDK_v6.3.2-Full/MotorControl/MCSDK/MCLib/Any/Inc/mp_one_touch_tuning.h ****   float fKp;               /*!< Computed Kp.*/
 136:MCSDK_v6.3.2-Full/MotorControl/MCSDK/MCLib/Any/Inc/mp_one_touch_tuning.h ****   float fKi;               /*!< Computed Ki.*/
 137:MCSDK_v6.3.2-Full/MotorControl/MCSDK/MCLib/Any/Inc/mp_one_touch_tuning.h ****   int8_t stabCnt;          /*!< Stabilization counter.*/
 138:MCSDK_v6.3.2-Full/MotorControl/MCSDK/MCLib/Any/Inc/mp_one_touch_tuning.h ****   float fSpeed;            /*!< Internal target reference.*/
 139:MCSDK_v6.3.2-Full/MotorControl/MCSDK/MCLib/Any/Inc/mp_one_touch_tuning.h ****   uint16_t hTimeOutTks;    /*!< Number of tick for timeout.*/
 140:MCSDK_v6.3.2-Full/MotorControl/MCSDK/MCLib/Any/Inc/mp_one_touch_tuning.h ****   uint8_t bPolesPairs;     /*!< Motor poles pairs.*/
 141:MCSDK_v6.3.2-Full/MotorControl/MCSDK/MCLib/Any/Inc/mp_one_touch_tuning.h ****   uint16_t hMaxPositiveTorque;/*!< Maximum positive value of motor
 142:MCSDK_v6.3.2-Full/MotorControl/MCSDK/MCLib/Any/Inc/mp_one_touch_tuning.h ****                                    torque. This value represents
 143:MCSDK_v6.3.2-Full/MotorControl/MCSDK/MCLib/Any/Inc/mp_one_touch_tuning.h ****                                    actually the maximum Iq current
 144:MCSDK_v6.3.2-Full/MotorControl/MCSDK/MCLib/Any/Inc/mp_one_touch_tuning.h ****                                    expressed in digit.*/
 145:MCSDK_v6.3.2-Full/MotorControl/MCSDK/MCLib/Any/Inc/mp_one_touch_tuning.h ****   float fRPMTh;            /*!< Speed threshold for mecchanical constant
 146:MCSDK_v6.3.2-Full/MotorControl/MCSDK/MCLib/Any/Inc/mp_one_touch_tuning.h ****                                 time estimation.*/
 147:MCSDK_v6.3.2-Full/MotorControl/MCSDK/MCLib/Any/Inc/mp_one_touch_tuning.h ****   int32_t wNominalSpeed;   /*!< Nominal speed set by the user expressed in RPM.*/
 148:MCSDK_v6.3.2-Full/MotorControl/MCSDK/MCLib/Any/Inc/mp_one_touch_tuning.h ****   float spdKp;             /*!< KP factor of the speed regulator to be tuned.*/
 149:MCSDK_v6.3.2-Full/MotorControl/MCSDK/MCLib/Any/Inc/mp_one_touch_tuning.h ****   float spdKi;             /*!< KI factor of the speed regulator to be tuned.*/
 150:MCSDK_v6.3.2-Full/MotorControl/MCSDK/MCLib/Any/Inc/mp_one_touch_tuning.h ****   float spdKs;             /*!< Antiwindup factor of the speed regulator to be tuned.*/
 151:MCSDK_v6.3.2-Full/MotorControl/MCSDK/MCLib/Any/Inc/mp_one_touch_tuning.h ****   float spdIntTerm;        /*!< Integral term of the speed regulator to be tuned.*/
 152:MCSDK_v6.3.2-Full/MotorControl/MCSDK/MCLib/Any/Inc/mp_one_touch_tuning.h ****   float spdAntiWindTerm;   /*!< Antiwindup term of the speed regulator to be tuned.*/
 153:MCSDK_v6.3.2-Full/MotorControl/MCSDK/MCLib/Any/Inc/mp_one_touch_tuning.h ****   float fKe;               /*!< Stores the last Ke estimation.*/
 154:MCSDK_v6.3.2-Full/MotorControl/MCSDK/MCLib/Any/Inc/mp_one_touch_tuning.h **** 
 155:MCSDK_v6.3.2-Full/MotorControl/MCSDK/MCLib/Any/Inc/mp_one_touch_tuning.h ****   pOTT_Params_t pOTT_Params_str;  /**< OTT parameters */
 156:MCSDK_v6.3.2-Full/MotorControl/MCSDK/MCLib/Any/Inc/mp_one_touch_tuning.h **** 
 157:MCSDK_v6.3.2-Full/MotorControl/MCSDK/MCLib/Any/Inc/mp_one_touch_tuning.h **** } OTT_Handle_t;
 158:MCSDK_v6.3.2-Full/MotorControl/MCSDK/MCLib/Any/Inc/mp_one_touch_tuning.h **** 
 159:MCSDK_v6.3.2-Full/MotorControl/MCSDK/MCLib/Any/Inc/mp_one_touch_tuning.h **** 
 160:MCSDK_v6.3.2-Full/MotorControl/MCSDK/MCLib/Any/Inc/mp_one_touch_tuning.h **** /**
 161:MCSDK_v6.3.2-Full/MotorControl/MCSDK/MCLib/Any/Inc/mp_one_touch_tuning.h ****   * @}
 162:MCSDK_v6.3.2-Full/MotorControl/MCSDK/MCLib/Any/Inc/mp_one_touch_tuning.h ****   */
 163:MCSDK_v6.3.2-Full/MotorControl/MCSDK/MCLib/Any/Inc/mp_one_touch_tuning.h **** 
 164:MCSDK_v6.3.2-Full/MotorControl/MCSDK/MCLib/Any/Inc/mp_one_touch_tuning.h **** 
 165:MCSDK_v6.3.2-Full/MotorControl/MCSDK/MCLib/Any/Inc/mp_one_touch_tuning.h **** /**
 166:MCSDK_v6.3.2-Full/MotorControl/MCSDK/MCLib/Any/Inc/mp_one_touch_tuning.h ****   * @brief  Initializes all the object variables, usually it has to be called
 167:MCSDK_v6.3.2-Full/MotorControl/MCSDK/MCLib/Any/Inc/mp_one_touch_tuning.h ****   *         once right after object creation.
 168:MCSDK_v6.3.2-Full/MotorControl/MCSDK/MCLib/Any/Inc/mp_one_touch_tuning.h ****   * @param  this related object of class COTT.
 169:MCSDK_v6.3.2-Full/MotorControl/MCSDK/MCLib/Any/Inc/mp_one_touch_tuning.h ****   * @param  pOTT_Init pointer to the OTT init structure.
 170:MCSDK_v6.3.2-Full/MotorControl/MCSDK/MCLib/Any/Inc/mp_one_touch_tuning.h ****   * @retval none.
 171:MCSDK_v6.3.2-Full/MotorControl/MCSDK/MCLib/Any/Inc/mp_one_touch_tuning.h ****   */
 172:MCSDK_v6.3.2-Full/MotorControl/MCSDK/MCLib/Any/Inc/mp_one_touch_tuning.h **** void OTT_Init(OTT_Handle_t *pHandle);
 173:MCSDK_v6.3.2-Full/MotorControl/MCSDK/MCLib/Any/Inc/mp_one_touch_tuning.h **** 
 174:MCSDK_v6.3.2-Full/MotorControl/MCSDK/MCLib/Any/Inc/mp_one_touch_tuning.h **** /**
 175:MCSDK_v6.3.2-Full/MotorControl/MCSDK/MCLib/Any/Inc/mp_one_touch_tuning.h ****   * @brief  It should be called before each motor restart. It initialize
 176:MCSDK_v6.3.2-Full/MotorControl/MCSDK/MCLib/Any/Inc/mp_one_touch_tuning.h ****   *         internal state of OTT.
 177:MCSDK_v6.3.2-Full/MotorControl/MCSDK/MCLib/Any/Inc/mp_one_touch_tuning.h ****   * @param  this related object of class COTT.
 178:MCSDK_v6.3.2-Full/MotorControl/MCSDK/MCLib/Any/Inc/mp_one_touch_tuning.h ****   * @retval none.
 179:MCSDK_v6.3.2-Full/MotorControl/MCSDK/MCLib/Any/Inc/mp_one_touch_tuning.h ****   */
 180:MCSDK_v6.3.2-Full/MotorControl/MCSDK/MCLib/Any/Inc/mp_one_touch_tuning.h **** void OTT_Clear(OTT_Handle_t *pHandle);
 181:MCSDK_v6.3.2-Full/MotorControl/MCSDK/MCLib/Any/Inc/mp_one_touch_tuning.h **** 
 182:MCSDK_v6.3.2-Full/MotorControl/MCSDK/MCLib/Any/Inc/mp_one_touch_tuning.h **** /**
 183:MCSDK_v6.3.2-Full/MotorControl/MCSDK/MCLib/Any/Inc/mp_one_touch_tuning.h ****   * @brief  It should be called at MF and execute the OTT algorithm.
 184:MCSDK_v6.3.2-Full/MotorControl/MCSDK/MCLib/Any/Inc/mp_one_touch_tuning.h ****   * @param  this related object of class COTT.
 185:MCSDK_v6.3.2-Full/MotorControl/MCSDK/MCLib/Any/Inc/mp_one_touch_tuning.h ****   * @retval none.
 186:MCSDK_v6.3.2-Full/MotorControl/MCSDK/MCLib/Any/Inc/mp_one_touch_tuning.h ****   */
 187:MCSDK_v6.3.2-Full/MotorControl/MCSDK/MCLib/Any/Inc/mp_one_touch_tuning.h **** void OTT_MF(OTT_Handle_t *pHandle);
ARM GAS  /tmp/ccKFuU3x.s 			page 47


 188:MCSDK_v6.3.2-Full/MotorControl/MCSDK/MCLib/Any/Inc/mp_one_touch_tuning.h **** 
 189:MCSDK_v6.3.2-Full/MotorControl/MCSDK/MCLib/Any/Inc/mp_one_touch_tuning.h **** /**
 190:MCSDK_v6.3.2-Full/MotorControl/MCSDK/MCLib/Any/Inc/mp_one_touch_tuning.h ****   * @brief  It should be called in START_RUN state. It begins the OTT procedure.
 191:MCSDK_v6.3.2-Full/MotorControl/MCSDK/MCLib/Any/Inc/mp_one_touch_tuning.h ****   * @param  this related object of class COTT.
 192:MCSDK_v6.3.2-Full/MotorControl/MCSDK/MCLib/Any/Inc/mp_one_touch_tuning.h ****   * @retval none.
 193:MCSDK_v6.3.2-Full/MotorControl/MCSDK/MCLib/Any/Inc/mp_one_touch_tuning.h ****   */
 194:MCSDK_v6.3.2-Full/MotorControl/MCSDK/MCLib/Any/Inc/mp_one_touch_tuning.h **** void OTT_SR(OTT_Handle_t *pHandle);
 195:MCSDK_v6.3.2-Full/MotorControl/MCSDK/MCLib/Any/Inc/mp_one_touch_tuning.h **** 
 196:MCSDK_v6.3.2-Full/MotorControl/MCSDK/MCLib/Any/Inc/mp_one_touch_tuning.h **** /**
 197:MCSDK_v6.3.2-Full/MotorControl/MCSDK/MCLib/Any/Inc/mp_one_touch_tuning.h ****   * @brief  Call this method before start motor to force new OTT procedure.
 198:MCSDK_v6.3.2-Full/MotorControl/MCSDK/MCLib/Any/Inc/mp_one_touch_tuning.h ****   * @param  this related object of class COTT.
 199:MCSDK_v6.3.2-Full/MotorControl/MCSDK/MCLib/Any/Inc/mp_one_touch_tuning.h ****   * @retval none.
 200:MCSDK_v6.3.2-Full/MotorControl/MCSDK/MCLib/Any/Inc/mp_one_touch_tuning.h ****   */
 201:MCSDK_v6.3.2-Full/MotorControl/MCSDK/MCLib/Any/Inc/mp_one_touch_tuning.h **** void OTT_ForceTuning(OTT_Handle_t *pHandle);
 202:MCSDK_v6.3.2-Full/MotorControl/MCSDK/MCLib/Any/Inc/mp_one_touch_tuning.h **** 
 203:MCSDK_v6.3.2-Full/MotorControl/MCSDK/MCLib/Any/Inc/mp_one_touch_tuning.h **** /**
 204:MCSDK_v6.3.2-Full/MotorControl/MCSDK/MCLib/Any/Inc/mp_one_touch_tuning.h ****   * @brief  It returns the nominal speed estimated by OTT in RPM.
 205:MCSDK_v6.3.2-Full/MotorControl/MCSDK/MCLib/Any/Inc/mp_one_touch_tuning.h ****   * @param  this related object of class COTT.
 206:MCSDK_v6.3.2-Full/MotorControl/MCSDK/MCLib/Any/Inc/mp_one_touch_tuning.h ****   * @retval float It returns the nominal speed in RPM estimated by OTT.
 207:MCSDK_v6.3.2-Full/MotorControl/MCSDK/MCLib/Any/Inc/mp_one_touch_tuning.h ****   */
 208:MCSDK_v6.3.2-Full/MotorControl/MCSDK/MCLib/Any/Inc/mp_one_touch_tuning.h **** float OTT_fGetNominalSpeedRPM(OTT_Handle_t *pHandle);
 209:MCSDK_v6.3.2-Full/MotorControl/MCSDK/MCLib/Any/Inc/mp_one_touch_tuning.h **** 
 210:MCSDK_v6.3.2-Full/MotorControl/MCSDK/MCLib/Any/Inc/mp_one_touch_tuning.h **** /**
 211:MCSDK_v6.3.2-Full/MotorControl/MCSDK/MCLib/Any/Inc/mp_one_touch_tuning.h ****   * @brief  It should be called before each motor stop.
 212:MCSDK_v6.3.2-Full/MotorControl/MCSDK/MCLib/Any/Inc/mp_one_touch_tuning.h ****   * @param  this related object of class COTT.
 213:MCSDK_v6.3.2-Full/MotorControl/MCSDK/MCLib/Any/Inc/mp_one_touch_tuning.h ****   * @retval none.
 214:MCSDK_v6.3.2-Full/MotorControl/MCSDK/MCLib/Any/Inc/mp_one_touch_tuning.h ****   */
 215:MCSDK_v6.3.2-Full/MotorControl/MCSDK/MCLib/Any/Inc/mp_one_touch_tuning.h **** void OTT_Stop(OTT_Handle_t *pHandle);
 216:MCSDK_v6.3.2-Full/MotorControl/MCSDK/MCLib/Any/Inc/mp_one_touch_tuning.h **** 
 217:MCSDK_v6.3.2-Full/MotorControl/MCSDK/MCLib/Any/Inc/mp_one_touch_tuning.h **** /**
 218:MCSDK_v6.3.2-Full/MotorControl/MCSDK/MCLib/Any/Inc/mp_one_touch_tuning.h ****   * @brief  It returns the nominal speed estimated by OTT.
 219:MCSDK_v6.3.2-Full/MotorControl/MCSDK/MCLib/Any/Inc/mp_one_touch_tuning.h ****   * @param  this related object of class COTT.
 220:MCSDK_v6.3.2-Full/MotorControl/MCSDK/MCLib/Any/Inc/mp_one_touch_tuning.h ****   * @retval uint32_t It returns the nominal speed estimated by OTT, it is a
 221:MCSDK_v6.3.2-Full/MotorControl/MCSDK/MCLib/Any/Inc/mp_one_touch_tuning.h ****   *         floating point number codified into a 32bit integer.
 222:MCSDK_v6.3.2-Full/MotorControl/MCSDK/MCLib/Any/Inc/mp_one_touch_tuning.h ****   */
 223:MCSDK_v6.3.2-Full/MotorControl/MCSDK/MCLib/Any/Inc/mp_one_touch_tuning.h **** static inline uint32_t OTT_GetNominalSpeed(OTT_Handle_t *pHandle)
 224:MCSDK_v6.3.2-Full/MotorControl/MCSDK/MCLib/Any/Inc/mp_one_touch_tuning.h **** {
 225:MCSDK_v6.3.2-Full/MotorControl/MCSDK/MCLib/Any/Inc/mp_one_touch_tuning.h ****   return MCM_floatToIntBit(pHandle->fEstNominalSpdRPM);
 226:MCSDK_v6.3.2-Full/MotorControl/MCSDK/MCLib/Any/Inc/mp_one_touch_tuning.h **** }
 227:MCSDK_v6.3.2-Full/MotorControl/MCSDK/MCLib/Any/Inc/mp_one_touch_tuning.h **** 
 228:MCSDK_v6.3.2-Full/MotorControl/MCSDK/MCLib/Any/Inc/mp_one_touch_tuning.h **** /**
 229:MCSDK_v6.3.2-Full/MotorControl/MCSDK/MCLib/Any/Inc/mp_one_touch_tuning.h ****   * @brief  It returns the number of states of OTT.
 230:MCSDK_v6.3.2-Full/MotorControl/MCSDK/MCLib/Any/Inc/mp_one_touch_tuning.h ****   * @param  this related object of class COTT.
 231:MCSDK_v6.3.2-Full/MotorControl/MCSDK/MCLib/Any/Inc/mp_one_touch_tuning.h ****   * @retval uint8_t It returns the number of states of Selfcommissioning procedure.
 232:MCSDK_v6.3.2-Full/MotorControl/MCSDK/MCLib/Any/Inc/mp_one_touch_tuning.h ****   */
 233:MCSDK_v6.3.2-Full/MotorControl/MCSDK/MCLib/Any/Inc/mp_one_touch_tuning.h **** static inline uint8_t OTT_GetSteps(OTT_Handle_t *pHandle)
 234:MCSDK_v6.3.2-Full/MotorControl/MCSDK/MCLib/Any/Inc/mp_one_touch_tuning.h **** {
 235:MCSDK_v6.3.2-Full/MotorControl/MCSDK/MCLib/Any/Inc/mp_one_touch_tuning.h ****   return ((uint8_t)(OTT_END) + 1u);
 236:MCSDK_v6.3.2-Full/MotorControl/MCSDK/MCLib/Any/Inc/mp_one_touch_tuning.h **** }
 237:MCSDK_v6.3.2-Full/MotorControl/MCSDK/MCLib/Any/Inc/mp_one_touch_tuning.h **** 
 238:MCSDK_v6.3.2-Full/MotorControl/MCSDK/MCLib/Any/Inc/mp_one_touch_tuning.h **** /**
 239:MCSDK_v6.3.2-Full/MotorControl/MCSDK/MCLib/Any/Inc/mp_one_touch_tuning.h ****   * @brief  It returns the state of OTT.
 240:MCSDK_v6.3.2-Full/MotorControl/MCSDK/MCLib/Any/Inc/mp_one_touch_tuning.h ****   * @param  this related object of class COTT.
 241:MCSDK_v6.3.2-Full/MotorControl/MCSDK/MCLib/Any/Inc/mp_one_touch_tuning.h ****   * @retval uint8_t It returns the state of OTT.
 242:MCSDK_v6.3.2-Full/MotorControl/MCSDK/MCLib/Any/Inc/mp_one_touch_tuning.h ****   */
 243:MCSDK_v6.3.2-Full/MotorControl/MCSDK/MCLib/Any/Inc/mp_one_touch_tuning.h **** static inline uint8_t OTT_GetState(OTT_Handle_t *pHandle)
 244:MCSDK_v6.3.2-Full/MotorControl/MCSDK/MCLib/Any/Inc/mp_one_touch_tuning.h **** {
ARM GAS  /tmp/ccKFuU3x.s 			page 48


 245:MCSDK_v6.3.2-Full/MotorControl/MCSDK/MCLib/Any/Inc/mp_one_touch_tuning.h ****   uint8_t retVal = pHandle->bState;
 246:MCSDK_v6.3.2-Full/MotorControl/MCSDK/MCLib/Any/Inc/mp_one_touch_tuning.h ****   return (uint8_t)(retVal);
 247:MCSDK_v6.3.2-Full/MotorControl/MCSDK/MCLib/Any/Inc/mp_one_touch_tuning.h **** }
 248:MCSDK_v6.3.2-Full/MotorControl/MCSDK/MCLib/Any/Inc/mp_one_touch_tuning.h **** 
 249:MCSDK_v6.3.2-Full/MotorControl/MCSDK/MCLib/Any/Inc/mp_one_touch_tuning.h **** /**
 250:MCSDK_v6.3.2-Full/MotorControl/MCSDK/MCLib/Any/Inc/mp_one_touch_tuning.h ****   * @brief  It returns true if OTT procedure has been completed, false otherwise.
 251:MCSDK_v6.3.2-Full/MotorControl/MCSDK/MCLib/Any/Inc/mp_one_touch_tuning.h ****   * @param  this related object of class COTT.
 252:MCSDK_v6.3.2-Full/MotorControl/MCSDK/MCLib/Any/Inc/mp_one_touch_tuning.h ****   * @retval bool It returns true if OTT procedure has been completed, false otherwise.
 253:MCSDK_v6.3.2-Full/MotorControl/MCSDK/MCLib/Any/Inc/mp_one_touch_tuning.h ****   */
 254:MCSDK_v6.3.2-Full/MotorControl/MCSDK/MCLib/Any/Inc/mp_one_touch_tuning.h **** static inline bool OTT_IsSpeedPITuned(OTT_Handle_t *pHandle)
 255:MCSDK_v6.3.2-Full/MotorControl/MCSDK/MCLib/Any/Inc/mp_one_touch_tuning.h **** {
 256:MCSDK_v6.3.2-Full/MotorControl/MCSDK/MCLib/Any/Inc/mp_one_touch_tuning.h ****   bool retVal = false;
 257:MCSDK_v6.3.2-Full/MotorControl/MCSDK/MCLib/Any/Inc/mp_one_touch_tuning.h **** 
 258:MCSDK_v6.3.2-Full/MotorControl/MCSDK/MCLib/Any/Inc/mp_one_touch_tuning.h ****   if (pHandle->bState == OTT_END)
 259:MCSDK_v6.3.2-Full/MotorControl/MCSDK/MCLib/Any/Inc/mp_one_touch_tuning.h ****   {
 260:MCSDK_v6.3.2-Full/MotorControl/MCSDK/MCLib/Any/Inc/mp_one_touch_tuning.h ****     retVal = true;
 261:MCSDK_v6.3.2-Full/MotorControl/MCSDK/MCLib/Any/Inc/mp_one_touch_tuning.h ****   }
 262:MCSDK_v6.3.2-Full/MotorControl/MCSDK/MCLib/Any/Inc/mp_one_touch_tuning.h ****   return retVal;
 263:MCSDK_v6.3.2-Full/MotorControl/MCSDK/MCLib/Any/Inc/mp_one_touch_tuning.h **** }
 264:MCSDK_v6.3.2-Full/MotorControl/MCSDK/MCLib/Any/Inc/mp_one_touch_tuning.h **** 
 265:MCSDK_v6.3.2-Full/MotorControl/MCSDK/MCLib/Any/Inc/mp_one_touch_tuning.h **** /**
 266:MCSDK_v6.3.2-Full/MotorControl/MCSDK/MCLib/Any/Inc/mp_one_touch_tuning.h ****   * @brief  Sets the number of motor poles pairs.
 267:MCSDK_v6.3.2-Full/MotorControl/MCSDK/MCLib/Any/Inc/mp_one_touch_tuning.h ****   * @param  this related object of class COTT.
 268:MCSDK_v6.3.2-Full/MotorControl/MCSDK/MCLib/Any/Inc/mp_one_touch_tuning.h ****   * @param  bPP Number of motor poles pairs to be set.
 269:MCSDK_v6.3.2-Full/MotorControl/MCSDK/MCLib/Any/Inc/mp_one_touch_tuning.h ****   * @retval none
 270:MCSDK_v6.3.2-Full/MotorControl/MCSDK/MCLib/Any/Inc/mp_one_touch_tuning.h ****   */
 271:MCSDK_v6.3.2-Full/MotorControl/MCSDK/MCLib/Any/Inc/mp_one_touch_tuning.h **** static inline void OTT_SetPolesPairs(OTT_Handle_t *pHandle, uint8_t bPP)
 272:MCSDK_v6.3.2-Full/MotorControl/MCSDK/MCLib/Any/Inc/mp_one_touch_tuning.h **** {
 273:MCSDK_v6.3.2-Full/MotorControl/MCSDK/MCLib/Any/Inc/mp_one_touch_tuning.h ****   pHandle->bPolesPairs = bPP;
 274:MCSDK_v6.3.2-Full/MotorControl/MCSDK/MCLib/Any/Inc/mp_one_touch_tuning.h **** }
 275:MCSDK_v6.3.2-Full/MotorControl/MCSDK/MCLib/Any/Inc/mp_one_touch_tuning.h **** 
 276:MCSDK_v6.3.2-Full/MotorControl/MCSDK/MCLib/Any/Inc/mp_one_touch_tuning.h **** /**
 277:MCSDK_v6.3.2-Full/MotorControl/MCSDK/MCLib/Any/Inc/mp_one_touch_tuning.h ****   * @brief  Change the nominal current.
 278:MCSDK_v6.3.2-Full/MotorControl/MCSDK/MCLib/Any/Inc/mp_one_touch_tuning.h ****   * @param  this related object of class COTT.
 279:MCSDK_v6.3.2-Full/MotorControl/MCSDK/MCLib/Any/Inc/mp_one_touch_tuning.h ****   * @param  hNominalCurrent This value represents actually the maximum Iq current
 280:MCSDK_v6.3.2-Full/MotorControl/MCSDK/MCLib/Any/Inc/mp_one_touch_tuning.h ****             expressed in digit.
 281:MCSDK_v6.3.2-Full/MotorControl/MCSDK/MCLib/Any/Inc/mp_one_touch_tuning.h ****   * @retval none
 282:MCSDK_v6.3.2-Full/MotorControl/MCSDK/MCLib/Any/Inc/mp_one_touch_tuning.h ****   */
 283:MCSDK_v6.3.2-Full/MotorControl/MCSDK/MCLib/Any/Inc/mp_one_touch_tuning.h **** static inline void OTT_SetNominalCurrent(OTT_Handle_t *pHandle, uint16_t hNominalCurrent)
 284:MCSDK_v6.3.2-Full/MotorControl/MCSDK/MCLib/Any/Inc/mp_one_touch_tuning.h **** {
 285:MCSDK_v6.3.2-Full/MotorControl/MCSDK/MCLib/Any/Inc/mp_one_touch_tuning.h ****   pHandle->hMaxPositiveTorque = hNominalCurrent;
 286:MCSDK_v6.3.2-Full/MotorControl/MCSDK/MCLib/Any/Inc/mp_one_touch_tuning.h **** }
 287:MCSDK_v6.3.2-Full/MotorControl/MCSDK/MCLib/Any/Inc/mp_one_touch_tuning.h **** 
 288:MCSDK_v6.3.2-Full/MotorControl/MCSDK/MCLib/Any/Inc/mp_one_touch_tuning.h **** /**
 289:MCSDK_v6.3.2-Full/MotorControl/MCSDK/MCLib/Any/Inc/mp_one_touch_tuning.h ****   * @brief  Change the speed regulator bandwidth.
 290:MCSDK_v6.3.2-Full/MotorControl/MCSDK/MCLib/Any/Inc/mp_one_touch_tuning.h ****   * @param  this related object of class COTT.
 291:MCSDK_v6.3.2-Full/MotorControl/MCSDK/MCLib/Any/Inc/mp_one_touch_tuning.h ****   * @param  fBW Current regulator bandwidth espressed in rad/s.
 292:MCSDK_v6.3.2-Full/MotorControl/MCSDK/MCLib/Any/Inc/mp_one_touch_tuning.h ****   * @retval none
 293:MCSDK_v6.3.2-Full/MotorControl/MCSDK/MCLib/Any/Inc/mp_one_touch_tuning.h ****   */
 294:MCSDK_v6.3.2-Full/MotorControl/MCSDK/MCLib/Any/Inc/mp_one_touch_tuning.h **** static inline void OTT_SetSpeedRegulatorBandwidth(OTT_Handle_t *pHandle, float fBW)
 1127              		.loc 3 294 20 view .LVU293
 1128              	.LBB146:
 295:MCSDK_v6.3.2-Full/MotorControl/MCSDK/MCLib/Any/Inc/mp_one_touch_tuning.h **** {
 296:MCSDK_v6.3.2-Full/MotorControl/MCSDK/MCLib/Any/Inc/mp_one_touch_tuning.h ****   pHandle->fBW = fBW;
 1129              		.loc 3 296 3 view .LVU294
 1130              		.loc 3 296 16 is_stmt 0 view .LVU295
 1131 03b0 3C4B     		ldr	r3, .L164+4
ARM GAS  /tmp/ccKFuU3x.s 			page 49


 1132              	.LBE146:
 1133              	.LBE145:
 1134              	.LBE144:
 1135              	.LBE162:
 158:Src/register_interface.c ****   uint8_t motorID=0;
 1136              		.loc 1 158 11 view .LVU296
 1137 03b2 0020     		movs	r0, #0
 1138              	.LVL151:
 1139              	.LBB163:
 1140              	.LBB149:
 1141              	.LBB148:
 1142              	.LBB147:
 1143              		.loc 3 296 16 view .LVU297
 1144 03b4 1963     		str	r1, [r3, #48]	@ float
 297:MCSDK_v6.3.2-Full/MotorControl/MCSDK/MCLib/Any/Inc/mp_one_touch_tuning.h **** }
 1145              		.loc 3 297 1 view .LVU298
 1146 03b6 87E7     		b	.L64
 1147              	.LVL152:
 1148              	.L45:
 1149              		.loc 3 297 1 view .LVU299
 1150              	.LBE147:
 1151              	.LBE148:
 1152              	.LBE149:
 1153              	.LBE163:
 1154              	.LBB164:
 253:Src/register_interface.c ****           break;
 1155              		.loc 1 253 11 is_stmt 1 view .LVU300
 1156 03b8 3B48     		ldr	r0, .L164+8
 1157              	.LVL153:
 253:Src/register_interface.c ****           break;
 1158              		.loc 1 253 11 is_stmt 0 view .LVU301
 1159 03ba 29B2     		sxth	r1, r5
 1160              	.LVL154:
 253:Src/register_interface.c ****           break;
 1161              		.loc 1 253 11 view .LVU302
 1162 03bc FFF7FEFF 		bl	PID_SetKI
 1163              	.LVL155:
 254:Src/register_interface.c ****         }
 1164              		.loc 1 254 11 is_stmt 1 view .LVU303
 1165              	.LBE164:
 158:Src/register_interface.c ****   uint8_t motorID=0;
 1166              		.loc 1 158 11 is_stmt 0 view .LVU304
 1167 03c0 0020     		movs	r0, #0
 1168              	.LBB165:
 254:Src/register_interface.c ****         }
 1169              		.loc 1 254 11 view .LVU305
 1170 03c2 53E6     		b	.L41
 1171              	.LVL156:
 1172              	.L48:
 306:Src/register_interface.c ****           break;
 1173              		.loc 1 306 11 is_stmt 1 view .LVU306
 1174 03c4 3948     		ldr	r0, .L164+12
 1175              	.LVL157:
 306:Src/register_interface.c ****           break;
 1176              		.loc 1 306 11 is_stmt 0 view .LVU307
 1177 03c6 29B2     		sxth	r1, r5
 1178              	.LVL158:
ARM GAS  /tmp/ccKFuU3x.s 			page 50


 306:Src/register_interface.c ****           break;
 1179              		.loc 1 306 11 view .LVU308
 1180 03c8 FFF7FEFF 		bl	PID_SetKI
 1181              	.LVL159:
 307:Src/register_interface.c ****         }
 1182              		.loc 1 307 11 is_stmt 1 view .LVU309
 1183              	.LBE165:
 158:Src/register_interface.c ****   uint8_t motorID=0;
 1184              		.loc 1 158 11 is_stmt 0 view .LVU310
 1185 03cc 0020     		movs	r0, #0
 1186              	.LBB166:
 307:Src/register_interface.c ****         }
 1187              		.loc 1 307 11 view .LVU311
 1188 03ce 4DE6     		b	.L41
 1189              	.LVL160:
 1190              	.L56:
 340:Src/register_interface.c ****           break;
 1191              		.loc 1 340 11 is_stmt 1 view .LVU312
 1192              	.LBB111:
 1193              	.LBI111:
 528:MCSDK_v6.3.2-Full/MotorControl/MCSDK/MCLib/Any/Inc/mp_self_com_ctrl.h **** {
 1194              		.loc 2 528 20 view .LVU313
 1195              	.LBB112:
 530:MCSDK_v6.3.2-Full/MotorControl/MCSDK/MCLib/Any/Inc/mp_self_com_ctrl.h **** }
 1196              		.loc 2 530 3 view .LVU314
 530:MCSDK_v6.3.2-Full/MotorControl/MCSDK/MCLib/Any/Inc/mp_self_com_ctrl.h **** }
 1197              		.loc 2 530 73 is_stmt 0 view .LVU315
 1198 03d0 334B     		ldr	r3, .L164
 1199 03d2 5A68     		ldr	r2, [r3, #4]
 1200              	.LVL161:
 530:MCSDK_v6.3.2-Full/MotorControl/MCSDK/MCLib/Any/Inc/mp_self_com_ctrl.h **** }
 1201              		.loc 2 530 58 view .LVU316
 1202 03d4 C5EB0545 		rsb	r5, r5, r5, lsl #16
 1203              	.LVL162:
 530:MCSDK_v6.3.2-Full/MotorControl/MCSDK/MCLib/Any/Inc/mp_self_com_ctrl.h **** }
 1204              		.loc 2 530 87 view .LVU317
 1205 03d8 5388     		ldrh	r3, [r2, #2]
 530:MCSDK_v6.3.2-Full/MotorControl/MCSDK/MCLib/Any/Inc/mp_self_com_ctrl.h **** }
 1206              		.loc 2 530 65 view .LVU318
 1207 03da B5FBF3F3 		udiv	r3, r5, r3
 1208              	.LBE112:
 1209              	.LBE111:
 1210              	.LBE166:
 158:Src/register_interface.c ****   uint8_t motorID=0;
 1211              		.loc 1 158 11 view .LVU319
 1212 03de 0020     		movs	r0, #0
 1213              	.LVL163:
 1214              	.LBB167:
 1215              	.LBB114:
 1216              	.LBB113:
 530:MCSDK_v6.3.2-Full/MotorControl/MCSDK/MCLib/Any/Inc/mp_self_com_ctrl.h **** }
 1217              		.loc 2 530 41 view .LVU320
 1218 03e0 9381     		strh	r3, [r2, #12]	@ movhi
 1219              	.LVL164:
 531:MCSDK_v6.3.2-Full/MotorControl/MCSDK/MCLib/Any/Inc/mp_self_com_ctrl.h **** 
 1220              		.loc 2 531 1 view .LVU321
 1221 03e2 43E6     		b	.L41
ARM GAS  /tmp/ccKFuU3x.s 			page 51


 1222              	.LVL165:
 1223              	.L32:
 531:MCSDK_v6.3.2-Full/MotorControl/MCSDK/MCLib/Any/Inc/mp_self_com_ctrl.h **** 
 1224              		.loc 2 531 1 view .LVU322
 1225              	.LBE113:
 1226              	.LBE114:
 1227              	.LBE167:
 1228              	.LBB168:
 205:Src/register_interface.c ****           SPD_SetElToMecRatio(&STO_PLL_M1._Super, regdataU8);
 1229              		.loc 1 205 11 is_stmt 1 view .LVU323
 205:Src/register_interface.c ****           SPD_SetElToMecRatio(&STO_PLL_M1._Super, regdataU8);
 1230              		.loc 1 205 19 is_stmt 0 view .LVU324
 1231 03e4 1578     		ldrb	r5, [r2]	@ zero_extendqisi2
 1232              	.LVL166:
 206:Src/register_interface.c ****           SPD_SetElToMecRatio(&VirtualSpeedSensorM1._Super, regdataU8);
 1233              		.loc 1 206 11 is_stmt 1 view .LVU325
 1234 03e6 3248     		ldr	r0, .L164+16
 1235              	.LVL167:
 206:Src/register_interface.c ****           SPD_SetElToMecRatio(&VirtualSpeedSensorM1._Super, regdataU8);
 1236              		.loc 1 206 11 is_stmt 0 view .LVU326
 1237 03e8 2946     		mov	r1, r5
 1238              	.LVL168:
 206:Src/register_interface.c ****           SPD_SetElToMecRatio(&VirtualSpeedSensorM1._Super, regdataU8);
 1239              		.loc 1 206 11 view .LVU327
 1240 03ea FFF7FEFF 		bl	SPD_SetElToMecRatio
 1241              	.LVL169:
 207:Src/register_interface.c ****           SCC_SetPolesPairs(&SCC, regdataU8);
 1242              		.loc 1 207 11 is_stmt 1 view .LVU328
 1243 03ee 3148     		ldr	r0, .L164+20
 1244 03f0 2946     		mov	r1, r5
 1245 03f2 FFF7FEFF 		bl	SPD_SetElToMecRatio
 1246              	.LVL170:
 208:Src/register_interface.c ****           OTT_SetPolesPairs(&OTT, regdataU8);
 1247              		.loc 1 208 11 view .LVU329
 1248              	.LBB169:
 1249              	.LBI169:
 360:MCSDK_v6.3.2-Full/MotorControl/MCSDK/MCLib/Any/Inc/mp_self_com_ctrl.h **** {
 1250              		.loc 2 360 20 view .LVU330
 1251              	.LBB170:
 362:MCSDK_v6.3.2-Full/MotorControl/MCSDK/MCLib/Any/Inc/mp_self_com_ctrl.h **** }
 1252              		.loc 2 362 3 view .LVU331
 362:MCSDK_v6.3.2-Full/MotorControl/MCSDK/MCLib/Any/Inc/mp_self_com_ctrl.h **** }
 1253              		.loc 2 362 18 is_stmt 0 view .LVU332
 1254 03f6 07EE905A 		vmov	s15, r5	@ int
 362:MCSDK_v6.3.2-Full/MotorControl/MCSDK/MCLib/Any/Inc/mp_self_com_ctrl.h **** }
 1255              		.loc 2 362 16 view .LVU333
 1256 03fa 294A     		ldr	r2, .L164
 1257              	.LBE170:
 1258              	.LBE169:
 1259              	.LBB173:
 1260              	.LBB174:
 273:MCSDK_v6.3.2-Full/MotorControl/MCSDK/MCLib/Any/Inc/mp_one_touch_tuning.h **** }
 1261              		.loc 3 273 24 view .LVU334
 1262 03fc 294B     		ldr	r3, .L164+4
 1263              	.LBE174:
 1264              	.LBE173:
 1265              	.LBB178:
ARM GAS  /tmp/ccKFuU3x.s 			page 52


 1266              	.LBB171:
 362:MCSDK_v6.3.2-Full/MotorControl/MCSDK/MCLib/Any/Inc/mp_self_com_ctrl.h **** }
 1267              		.loc 2 362 18 view .LVU335
 1268 03fe F8EE677A 		vcvt.f32.u32	s15, s15
 1269              	.LBE171:
 1270              	.LBE178:
 1271              	.LBB179:
 1272              	.LBB175:
 273:MCSDK_v6.3.2-Full/MotorControl/MCSDK/MCLib/Any/Inc/mp_one_touch_tuning.h **** }
 1273              		.loc 3 273 24 view .LVU336
 1274 0402 83F87650 		strb	r5, [r3, #118]
 1275              	.LBE175:
 1276              	.LBE179:
 1277              	.LBB180:
 1278              	.LBB172:
 362:MCSDK_v6.3.2-Full/MotorControl/MCSDK/MCLib/Any/Inc/mp_self_com_ctrl.h **** }
 1279              		.loc 2 362 18 view .LVU337
 1280 0406 C2ED127A 		vstr.32	s15, [r2, #72]
 1281              	.LVL171:
 362:MCSDK_v6.3.2-Full/MotorControl/MCSDK/MCLib/Any/Inc/mp_self_com_ctrl.h **** }
 1282              		.loc 2 362 18 view .LVU338
 1283              	.LBE172:
 1284              	.LBE180:
 209:Src/register_interface.c ****           break;
 1285              		.loc 1 209 11 is_stmt 1 view .LVU339
 1286              	.LBB181:
 1287              	.LBI173:
 271:MCSDK_v6.3.2-Full/MotorControl/MCSDK/MCLib/Any/Inc/mp_one_touch_tuning.h **** {
 1288              		.loc 3 271 20 view .LVU340
 1289              	.LBB176:
 273:MCSDK_v6.3.2-Full/MotorControl/MCSDK/MCLib/Any/Inc/mp_one_touch_tuning.h **** }
 1290              		.loc 3 273 3 view .LVU341
 1291              	.LBE176:
 1292              	.LBE181:
 1293              	.LBE168:
 158:Src/register_interface.c ****   uint8_t motorID=0;
 1294              		.loc 1 158 11 is_stmt 0 view .LVU342
 1295 040a 0020     		movs	r0, #0
 1296              	.LBB183:
 1297              	.LBB182:
 1298              	.LBB177:
 274:MCSDK_v6.3.2-Full/MotorControl/MCSDK/MCLib/Any/Inc/mp_one_touch_tuning.h **** 
 1299              		.loc 3 274 1 view .LVU343
 1300 040c DEE6     		b	.L36
 1301              	.LVL172:
 1302              	.L62:
 274:MCSDK_v6.3.2-Full/MotorControl/MCSDK/MCLib/Any/Inc/mp_one_touch_tuning.h **** 
 1303              		.loc 3 274 1 view .LVU344
 1304              	.LBE177:
 1305              	.LBE182:
 1306              	.LBE183:
 1307              	.LBB184:
 400:Src/register_interface.c ****           break;
 1308              		.loc 1 400 11 is_stmt 1 view .LVU345
 400:Src/register_interface.c ****           break;
 1309              		.loc 1 400 30 is_stmt 0 view .LVU346
 1310 040e 2A4B     		ldr	r3, .L164+24
ARM GAS  /tmp/ccKFuU3x.s 			page 53


 1311              	.LBE184:
 158:Src/register_interface.c ****   uint8_t motorID=0;
 1312              		.loc 1 158 11 view .LVU347
 1313 0410 0020     		movs	r0, #0
 1314              	.LVL173:
 1315              	.LBB185:
 400:Src/register_interface.c ****           break;
 1316              		.loc 1 400 30 view .LVU348
 1317 0412 D960     		str	r1, [r3, #12]
 401:Src/register_interface.c ****         }
 1318              		.loc 1 401 11 is_stmt 1 view .LVU349
 1319 0414 58E7     		b	.L64
 1320              	.LVL174:
 1321              	.L70:
 449:Src/register_interface.c ****           break;
 1322              		.loc 1 449 11 view .LVU350
 1323 0416 2248     		ldr	r0, .L164
 1324              	.LVL175:
 449:Src/register_interface.c ****           break;
 1325              		.loc 1 449 11 is_stmt 0 view .LVU351
 1326 0418 FFF7FEFF 		bl	SCC_SetNominalSpeed
 1327              	.LVL176:
 450:Src/register_interface.c ****         }
 1328              		.loc 1 450 11 is_stmt 1 view .LVU352
 1329              	.LBE185:
 158:Src/register_interface.c ****   uint8_t motorID=0;
 1330              		.loc 1 158 11 is_stmt 0 view .LVU353
 1331 041c 0020     		movs	r0, #0
 1332              	.LBB186:
 450:Src/register_interface.c ****         }
 1333              		.loc 1 450 11 view .LVU354
 1334 041e 53E7     		b	.L64
 1335              	.LVL177:
 1336              	.L43:
 450:Src/register_interface.c ****         }
 1337              		.loc 1 450 11 view .LVU355
 1338              	.LBE186:
 1339              	.LBB187:
 1340              	.LBB115:
 288:Src/register_interface.c ****           int16_t hC2;
 1341              		.loc 1 288 11 is_stmt 1 view .LVU356
 289:Src/register_interface.c ****           STO_PLL_GetObserverGains(&STO_PLL_M1, &hC1, &hC2);
 1342              		.loc 1 289 11 view .LVU357
 290:Src/register_interface.c ****           STO_PLL_SetObserverGains(&STO_PLL_M1, (int16_t)regdata16, hC2);
 1343              		.loc 1 290 11 view .LVU358
 1344 0420 2348     		ldr	r0, .L164+16
 1345              	.LVL178:
 290:Src/register_interface.c ****           STO_PLL_SetObserverGains(&STO_PLL_M1, (int16_t)regdata16, hC2);
 1346              		.loc 1 290 11 is_stmt 0 view .LVU359
 1347 0422 0DF10602 		add	r2, sp, #6
 1348              	.LVL179:
 290:Src/register_interface.c ****           STO_PLL_SetObserverGains(&STO_PLL_M1, (int16_t)regdata16, hC2);
 1349              		.loc 1 290 11 view .LVU360
 1350 0426 01A9     		add	r1, sp, #4
 1351              	.LVL180:
 290:Src/register_interface.c ****           STO_PLL_SetObserverGains(&STO_PLL_M1, (int16_t)regdata16, hC2);
 1352              		.loc 1 290 11 view .LVU361
ARM GAS  /tmp/ccKFuU3x.s 			page 54


 1353 0428 FFF7FEFF 		bl	STO_PLL_GetObserverGains
 1354              	.LVL181:
 291:Src/register_interface.c ****           break;
 1355              		.loc 1 291 11 is_stmt 1 view .LVU362
 1356 042c 2048     		ldr	r0, .L164+16
 1357 042e BDF90620 		ldrsh	r2, [sp, #6]
 1358 0432 29B2     		sxth	r1, r5
 1359 0434 FFF7FEFF 		bl	STO_PLL_SetObserverGains
 1360              	.LVL182:
 292:Src/register_interface.c ****         }
 1361              		.loc 1 292 11 view .LVU363
 1362              	.LBE115:
 1363              	.LBE187:
 158:Src/register_interface.c ****   uint8_t motorID=0;
 1364              		.loc 1 158 11 is_stmt 0 view .LVU364
 1365 0438 0020     		movs	r0, #0
 1366 043a 17E6     		b	.L41
 1367              	.LVL183:
 1368              	.L60:
 1369              	.LBB188:
 422:Src/register_interface.c ****           {
 1370              		.loc 1 422 11 is_stmt 1 view .LVU365
 422:Src/register_interface.c ****           {
 1371              		.loc 1 422 17 is_stmt 0 view .LVU366
 1372 043c 184B     		ldr	r3, .L164
 1373 043e 93F83430 		ldrb	r3, [r3, #52]	@ zero_extendqisi2
 422:Src/register_interface.c ****           {
 1374              		.loc 1 422 13 view .LVU367
 1375 0442 0BB1     		cbz	r3, .L77
 422:Src/register_interface.c ****           {
 1376              		.loc 1 422 37 discriminator 1 view .LVU368
 1377 0444 0A2B     		cmp	r3, #10
 1378 0446 A0D1     		bne	.L123
 1379              	.L77:
 1380              	.LBB150:
 424:Src/register_interface.c ****             SCC_SetNominalCurrent(&SCC, fregdata);
 1381              		.loc 1 424 13 is_stmt 1 view .LVU369
 1382              	.LVL184:
 425:Src/register_interface.c ****           }
 1383              		.loc 1 425 13 view .LVU370
 1384 0448 1548     		ldr	r0, .L164
 1385              	.LVL185:
 425:Src/register_interface.c ****           }
 1386              		.loc 1 425 13 is_stmt 0 view .LVU371
 1387 044a 00EE101A 		vmov	s0, r1
 1388 044e FFF7FEFF 		bl	SCC_SetNominalCurrent
 1389              	.LVL186:
 425:Src/register_interface.c ****           }
 1390              		.loc 1 425 13 view .LVU372
 1391              	.LBE150:
 1392              	.LBE188:
 158:Src/register_interface.c ****   uint8_t motorID=0;
 1393              		.loc 1 158 11 view .LVU373
 1394 0452 0020     		movs	r0, #0
 1395              	.LBB189:
 423:Src/register_interface.c ****             float fregdata = *(float*)data; //cstat !MISRAC2012-Rule-11.3
 1396              		.loc 1 423 11 view .LVU374
ARM GAS  /tmp/ccKFuU3x.s 			page 55


 1397 0454 38E7     		b	.L64
 1398              	.LVL187:
 1399              	.L79:
 423:Src/register_interface.c ****             float fregdata = *(float*)data; //cstat !MISRAC2012-Rule-11.3
 1400              		.loc 1 423 11 view .LVU375
 1401              	.LBE189:
 1402              	.LBB190:
 1403              	.LBB118:
 515:Src/register_interface.c ****             uint16_t duration;
 1404              		.loc 1 515 13 is_stmt 1 view .LVU376
 516:Src/register_interface.c **** 
 1405              		.loc 1 516 13 view .LVU377
 518:Src/register_interface.c ****             duration = *(uint16_t *)&rawData[4]; //cstat !MISRAC2012-Rule-11.3
 1406              		.loc 1 518 13 view .LVU378
 519:Src/register_interface.c ****             MCI_ExecSpeedRamp(pMCIN, (int16_t)((rpm * SPEED_UNIT) / U_RPM), duration);
 1407              		.loc 1 519 13 view .LVU379
 520:Src/register_interface.c ****             break;
 1408              		.loc 1 520 13 view .LVU380
 520:Src/register_interface.c ****             break;
 1409              		.loc 1 520 67 is_stmt 0 view .LVU381
 1410 0456 D2F80230 		ldr	r3, [r2, #2]
 1411 045a 1849     		ldr	r1, .L164+28
 1412              	.LVL188:
 520:Src/register_interface.c ****             break;
 1413              		.loc 1 520 13 view .LVU382
 1414 045c D288     		ldrh	r2, [r2, #6]
 1415              	.LVL189:
 520:Src/register_interface.c ****             break;
 1416              		.loc 1 520 67 view .LVU383
 1417 045e 81FB0301 		smull	r0, r1, r1, r3
 1418              	.LVL190:
 520:Src/register_interface.c ****             break;
 1419              		.loc 1 520 67 view .LVU384
 1420 0462 A1EBE371 		sub	r1, r1, r3, asr #31
 520:Src/register_interface.c ****             break;
 1421              		.loc 1 520 13 view .LVU385
 1422 0466 1648     		ldr	r0, .L164+32
 1423 0468 09B2     		sxth	r1, r1
 1424 046a FFF7FEFF 		bl	MCI_ExecSpeedRamp
 1425              	.LVL191:
 521:Src/register_interface.c ****           }
 1426              		.loc 1 521 13 is_stmt 1 view .LVU386
 1427              	.LBE118:
 1428              	.LBE190:
 158:Src/register_interface.c ****   uint8_t motorID=0;
 1429              		.loc 1 158 11 is_stmt 0 view .LVU387
 1430 046e 0020     		movs	r0, #0
 1431              	.LBB191:
 1432              	.LBB119:
 521:Src/register_interface.c ****           }
 1433              		.loc 1 521 13 view .LVU388
 1434 0470 FEE5     		b	.L40
 1435              	.LVL192:
 1436              	.L124:
 521:Src/register_interface.c ****           }
 1437              		.loc 1 521 13 view .LVU389
 1438              	.LBE119:
ARM GAS  /tmp/ccKFuU3x.s 			page 56


 1439 0472 0520     		movs	r0, #5
 1440              	.LVL193:
 521:Src/register_interface.c ****           }
 1441              		.loc 1 521 13 view .LVU390
 1442 0474 FCE5     		b	.L40
 1443              	.LVL194:
 1444              	.L161:
 521:Src/register_interface.c ****           }
 1445              		.loc 1 521 13 view .LVU391
 1446              	.LBE191:
 1447              	.LBB192:
 189:Src/register_interface.c ****           }
 1448              		.loc 1 189 13 is_stmt 1 view .LVU392
 1449 0476 1248     		ldr	r0, .L164+32
 1450              	.LVL195:
 189:Src/register_interface.c ****           }
 1451              		.loc 1 189 13 is_stmt 0 view .LVU393
 1452 0478 FFF7FEFF 		bl	MCI_GetMecSpeedRefUnit
 1453              	.LVL196:
 189:Src/register_interface.c ****           }
 1454              		.loc 1 189 13 view .LVU394
 1455 047c 0022     		movs	r2, #0
 1456 047e 0146     		mov	r1, r0
 1457 0480 0F48     		ldr	r0, .L164+32
 1458 0482 FFF7FEFF 		bl	MCI_ExecSpeedRamp
 1459              	.LVL197:
 1460              	.LBE192:
 158:Src/register_interface.c ****   uint8_t motorID=0;
 1461              		.loc 1 158 11 view .LVU395
 1462 0486 0020     		movs	r0, #0
 1463              	.LBB193:
 1464 0488 A0E6     		b	.L36
 1465              	.LVL198:
 1466              	.L160:
 180:Src/register_interface.c ****           }
 1467              		.loc 1 180 13 is_stmt 1 view .LVU396
 1468 048a 0D48     		ldr	r0, .L164+32
 1469              	.LVL199:
 180:Src/register_interface.c ****           }
 1470              		.loc 1 180 13 is_stmt 0 view .LVU397
 1471 048c FFF7FEFF 		bl	MCI_GetTeref
 1472              	.LVL200:
 180:Src/register_interface.c ****           }
 1473              		.loc 1 180 13 view .LVU398
 1474 0490 0022     		movs	r2, #0
 1475 0492 0146     		mov	r1, r0
 1476 0494 0A48     		ldr	r0, .L164+32
 1477 0496 FFF7FEFF 		bl	MCI_ExecTorqueRamp
 1478              	.LVL201:
 185:Src/register_interface.c **** 
 1479              		.loc 1 185 11 is_stmt 1 view .LVU399
 187:Src/register_interface.c ****           {
 1480              		.loc 1 187 11 view .LVU400
 1481              	.LBE193:
 158:Src/register_interface.c ****   uint8_t motorID=0;
 1482              		.loc 1 158 11 is_stmt 0 view .LVU401
 1483 049a 0020     		movs	r0, #0
ARM GAS  /tmp/ccKFuU3x.s 			page 57


 1484 049c 96E6     		b	.L36
 1485              	.L165:
 1486 049e 00BF     		.align	2
 1487              	.L164:
 1488 04a0 00000000 		.word	SCC
 1489 04a4 00000000 		.word	OTT
 1490 04a8 00000000 		.word	PIDSpeedHandle_M1
 1491 04ac 34000000 		.word	STO_PLL_M1+52
 1492 04b0 00000000 		.word	STO_PLL_M1
 1493 04b4 00000000 		.word	VirtualSpeedSensorM1
 1494 04b8 00000000 		.word	FF_M1
 1495 04bc ABAAAA2A 		.word	715827883
 1496 04c0 00000000 		.word	Mci
 1497              		.cfi_endproc
 1498              	.LFE1714:
 1500              		.section	.text.RI_GetRegisterGlobal,"ax",%progbits
 1501              		.align	1
 1502              		.p2align 2,,3
 1503              		.global	RI_GetRegisterGlobal
 1504              		.syntax unified
 1505              		.thumb
 1506              		.thumb_func
 1507              		.fpu fpv4-sp-d16
 1509              	RI_GetRegisterGlobal:
 1510              	.LVL202:
 1511              	.LFB1715:
 543:Src/register_interface.c **** 
 544:Src/register_interface.c **** uint8_t RI_GetRegisterGlobal(uint16_t regID,uint8_t typeID,uint8_t * data,uint16_t *size,int16_t fr
 1512              		.loc 1 544 108 is_stmt 1 view -0
 1513              		.cfi_startproc
 1514              		@ args = 4, pretend = 0, frame = 16
 1515              		@ frame_needed = 0, uses_anonymous_args = 0
 545:Src/register_interface.c ****     uint8_t retVal = MCP_CMD_OK;
 1516              		.loc 1 545 5 view .LVU403
 546:Src/register_interface.c ****     uint8_t motorID=0;
 1517              		.loc 1 546 5 view .LVU404
 547:Src/register_interface.c ****     MCI_Handle_t *pMCIN = &Mci[motorID];
 1518              		.loc 1 547 5 view .LVU405
 548:Src/register_interface.c ****     switch (typeID)
 1519              		.loc 1 548 5 view .LVU406
 544:Src/register_interface.c ****     uint8_t retVal = MCP_CMD_OK;
 1520              		.loc 1 544 108 is_stmt 0 view .LVU407
 1521 0000 10B5     		push	{r4, lr}
 1522              	.LCFI12:
 1523              		.cfi_def_cfa_offset 8
 1524              		.cfi_offset 4, -8
 1525              		.cfi_offset 14, -4
 1526 0002 84B0     		sub	sp, sp, #16
 1527              	.LCFI13:
 1528              		.cfi_def_cfa_offset 24
 1529 0004 A1F1080C 		sub	ip, r1, #8
 544:Src/register_interface.c ****     uint8_t retVal = MCP_CMD_OK;
 1530              		.loc 1 544 108 view .LVU408
 1531 0008 BDF918E0 		ldrsh	lr, [sp, #24]
 1532 000c BCF1200F 		cmp	ip, #32
 1533 0010 12D8     		bhi	.L180
 1534 0012 DFE80CF0 		tbb	[pc, ip]
ARM GAS  /tmp/ccKFuU3x.s 			page 58


 1535              	.L169:
 1536 0016 1D       		.byte	(.L173-.L169)/2
 1537 0017 11       		.byte	(.L180-.L169)/2
 1538 0018 11       		.byte	(.L180-.L169)/2
 1539 0019 11       		.byte	(.L180-.L169)/2
 1540 001a 11       		.byte	(.L180-.L169)/2
 1541 001b 11       		.byte	(.L180-.L169)/2
 1542 001c 11       		.byte	(.L180-.L169)/2
 1543 001d 11       		.byte	(.L180-.L169)/2
 1544 001e 38       		.byte	(.L172-.L169)/2
 1545 001f 11       		.byte	(.L180-.L169)/2
 1546 0020 11       		.byte	(.L180-.L169)/2
 1547 0021 11       		.byte	(.L180-.L169)/2
 1548 0022 11       		.byte	(.L180-.L169)/2
 1549 0023 11       		.byte	(.L180-.L169)/2
 1550 0024 11       		.byte	(.L180-.L169)/2
 1551 0025 11       		.byte	(.L180-.L169)/2
 1552 0026 24       		.byte	(.L171-.L169)/2
 1553 0027 11       		.byte	(.L180-.L169)/2
 1554 0028 11       		.byte	(.L180-.L169)/2
 1555 0029 11       		.byte	(.L180-.L169)/2
 1556 002a 11       		.byte	(.L180-.L169)/2
 1557 002b 11       		.byte	(.L180-.L169)/2
 1558 002c 11       		.byte	(.L180-.L169)/2
 1559 002d 11       		.byte	(.L180-.L169)/2
 1560 002e 47       		.byte	(.L170-.L169)/2
 1561 002f 11       		.byte	(.L180-.L169)/2
 1562 0030 11       		.byte	(.L180-.L169)/2
 1563 0031 11       		.byte	(.L180-.L169)/2
 1564 0032 11       		.byte	(.L180-.L169)/2
 1565 0033 11       		.byte	(.L180-.L169)/2
 1566 0034 11       		.byte	(.L180-.L169)/2
 1567 0035 11       		.byte	(.L180-.L169)/2
 1568 0036 14       		.byte	(.L168-.L169)/2
 1569 0037 00       		.p2align 1
 1570              	.L180:
 549:Src/register_interface.c ****     {
 550:Src/register_interface.c ****       case TYPE_DATA_8BIT:
 551:Src/register_interface.c ****       {
 552:Src/register_interface.c ****         if (freeSpace > 0)
 553:Src/register_interface.c ****         {
 554:Src/register_interface.c ****           switch (regID)
 555:Src/register_interface.c ****           {
 556:Src/register_interface.c ****             default:
 557:Src/register_interface.c ****             {
 558:Src/register_interface.c ****               retVal = MCP_ERROR_UNKNOWN_REG;
 559:Src/register_interface.c ****               break;
 560:Src/register_interface.c ****             }
 561:Src/register_interface.c ****           }
 562:Src/register_interface.c ****           *size = 1;
 563:Src/register_interface.c ****         }
 564:Src/register_interface.c ****         else
 565:Src/register_interface.c ****         {
 566:Src/register_interface.c ****           retVal = MCP_ERROR_NO_TXSYNC_SPACE;
 1571              		.loc 1 566 18 view .LVU409
 1572 0038 0720     		movs	r0, #7
 1573              	.LVL203:
ARM GAS  /tmp/ccKFuU3x.s 			page 59


 1574              	.L167:
 567:Src/register_interface.c ****         }
 568:Src/register_interface.c ****         break;
 569:Src/register_interface.c ****       }
 570:Src/register_interface.c **** 
 571:Src/register_interface.c ****       case TYPE_DATA_16BIT:
 572:Src/register_interface.c ****       {
 573:Src/register_interface.c ****         if (freeSpace >= 2)
 574:Src/register_interface.c ****         {
 575:Src/register_interface.c ****           switch (regID)
 576:Src/register_interface.c ****           {
 577:Src/register_interface.c ****             case MC_REG_DAC_USER1:
 578:Src/register_interface.c ****             case MC_REG_DAC_USER2:
 579:Src/register_interface.c ****               break;
 580:Src/register_interface.c **** 
 581:Src/register_interface.c ****             default:
 582:Src/register_interface.c ****             {
 583:Src/register_interface.c ****               retVal = MCP_ERROR_UNKNOWN_REG;
 584:Src/register_interface.c ****               break;
 585:Src/register_interface.c ****             }
 586:Src/register_interface.c ****           }
 587:Src/register_interface.c ****           *size = 2;
 588:Src/register_interface.c ****         }
 589:Src/register_interface.c ****         else
 590:Src/register_interface.c ****         {
 591:Src/register_interface.c ****           retVal = MCP_ERROR_NO_TXSYNC_SPACE;
 592:Src/register_interface.c ****         }
 593:Src/register_interface.c ****         break;
 594:Src/register_interface.c ****       }
 595:Src/register_interface.c **** 
 596:Src/register_interface.c ****       case TYPE_DATA_32BIT:
 597:Src/register_interface.c ****       {
 598:Src/register_interface.c ****         uint32_t *regdataU32 = (uint32_t *)data; //cstat !MISRAC2012-Rule-11.3
 599:Src/register_interface.c ****         if (freeSpace >= 4)
 600:Src/register_interface.c ****         {
 601:Src/register_interface.c ****           switch (regID)
 602:Src/register_interface.c ****           {
 603:Src/register_interface.c ****             case MC_REG_PERF_CPU_LOAD:
 604:Src/register_interface.c ****             {
 605:Src/register_interface.c ****               FloatToU32 ReadVal;
 606:Src/register_interface.c ****               ReadVal.Float_Val = MC_Perf_GetCPU_Load(pMCIN->pPerfMeasure);
 607:Src/register_interface.c ****               *regdataU32 = ReadVal.U32_Val;
 608:Src/register_interface.c ****               break;
 609:Src/register_interface.c ****             }
 610:Src/register_interface.c **** 
 611:Src/register_interface.c ****             case MC_REG_PERF_MIN_CPU_LOAD:
 612:Src/register_interface.c ****             {
 613:Src/register_interface.c ****               FloatToU32 ReadVal;
 614:Src/register_interface.c ****               ReadVal.Float_Val = MC_Perf_GetMinCPU_Load(pMCIN->pPerfMeasure);
 615:Src/register_interface.c ****               *regdataU32 = ReadVal.U32_Val;
 616:Src/register_interface.c ****               break;
 617:Src/register_interface.c ****             }
 618:Src/register_interface.c **** 
 619:Src/register_interface.c ****             case MC_REG_PERF_MAX_CPU_LOAD:
 620:Src/register_interface.c ****             {
 621:Src/register_interface.c ****               FloatToU32 ReadVal;
 622:Src/register_interface.c ****               ReadVal.Float_Val = MC_Perf_GetMaxCPU_Load(pMCIN->pPerfMeasure);
ARM GAS  /tmp/ccKFuU3x.s 			page 60


 623:Src/register_interface.c ****               *regdataU32 = ReadVal.U32_Val;
 624:Src/register_interface.c ****               break;
 625:Src/register_interface.c ****             }
 626:Src/register_interface.c **** 
 627:Src/register_interface.c ****             default:
 628:Src/register_interface.c ****             {
 629:Src/register_interface.c ****               retVal = MCP_ERROR_UNKNOWN_REG;
 630:Src/register_interface.c ****               break;
 631:Src/register_interface.c ****             }
 632:Src/register_interface.c ****           }
 633:Src/register_interface.c ****           *size = 4;
 634:Src/register_interface.c ****         }
 635:Src/register_interface.c ****         else
 636:Src/register_interface.c ****         {
 637:Src/register_interface.c ****           retVal = MCP_ERROR_NO_TXSYNC_SPACE;
 638:Src/register_interface.c ****         }
 639:Src/register_interface.c ****         break;
 640:Src/register_interface.c ****       }
 641:Src/register_interface.c **** 
 642:Src/register_interface.c ****       case TYPE_DATA_STRING:
 643:Src/register_interface.c ****       {
 644:Src/register_interface.c ****         switch (regID)
 645:Src/register_interface.c ****         {
 646:Src/register_interface.c ****           default:
 647:Src/register_interface.c ****           {
 648:Src/register_interface.c **** 
 649:Src/register_interface.c ****             retVal = MCP_ERROR_UNKNOWN_REG;
 650:Src/register_interface.c ****             *size= 0 ; /* */
 651:Src/register_interface.c **** 
 652:Src/register_interface.c ****             break;
 653:Src/register_interface.c ****           }
 654:Src/register_interface.c ****         }
 655:Src/register_interface.c ****         break;
 656:Src/register_interface.c **** 
 657:Src/register_interface.c ****       }
 658:Src/register_interface.c ****       case TYPE_DATA_RAW:
 659:Src/register_interface.c ****       {
 660:Src/register_interface.c ****         /* First 2 bytes of the answer is reserved to the size */
 661:Src/register_interface.c ****         uint16_t *rawSize = (uint16_t *)data; //cstat !MISRAC2012-Rule-11.3
 662:Src/register_interface.c ****         uint8_t * rawData = data;
 663:Src/register_interface.c ****         rawData++;
 664:Src/register_interface.c ****         rawData++;
 665:Src/register_interface.c **** 
 666:Src/register_interface.c ****         switch (regID)
 667:Src/register_interface.c ****         {
 668:Src/register_interface.c ****           case MC_REG_GLOBAL_CONFIG:
 669:Src/register_interface.c ****           {
 670:Src/register_interface.c ****             *rawSize = (uint16_t)sizeof(GlobalConfig_reg_t);
 671:Src/register_interface.c ****             if (((*rawSize) + 2U) > (uint16_t)freeSpace)
 672:Src/register_interface.c ****             {
 673:Src/register_interface.c ****               retVal = MCP_ERROR_NO_TXSYNC_SPACE;
 674:Src/register_interface.c ****             }
 675:Src/register_interface.c ****             else
 676:Src/register_interface.c ****             {
 677:Src/register_interface.c ****               (void)memcpy(rawData, &globalConfig_reg, sizeof(GlobalConfig_reg_t));
 678:Src/register_interface.c ****             }
 679:Src/register_interface.c ****             break;
ARM GAS  /tmp/ccKFuU3x.s 			page 61


 680:Src/register_interface.c ****           }
 681:Src/register_interface.c ****           case MC_REG_ASYNC_UARTA:
 682:Src/register_interface.c ****           case MC_REG_ASYNC_UARTB:
 683:Src/register_interface.c ****           case MC_REG_ASYNC_STLNK:
 684:Src/register_interface.c ****           default:
 685:Src/register_interface.c ****           {
 686:Src/register_interface.c ****             retVal = MCP_ERROR_UNKNOWN_REG;
 687:Src/register_interface.c ****             break;
 688:Src/register_interface.c ****           }
 689:Src/register_interface.c ****         }
 690:Src/register_interface.c **** 
 691:Src/register_interface.c ****         /* Size of the answer is size of the data + 2 bytes containing data size */
 692:Src/register_interface.c ****         *size = (*rawSize) + 2U;
 693:Src/register_interface.c ****         break;
 694:Src/register_interface.c ****       }
 695:Src/register_interface.c **** 
 696:Src/register_interface.c ****       default:
 697:Src/register_interface.c ****       {
 698:Src/register_interface.c ****         retVal = MCP_ERROR_BAD_DATA_TYPE;
 699:Src/register_interface.c ****         break;
 700:Src/register_interface.c ****       }
 701:Src/register_interface.c ****     }
 702:Src/register_interface.c ****   return (retVal);
 1575              		.loc 1 702 3 is_stmt 1 view .LVU410
 703:Src/register_interface.c **** }
 1576              		.loc 1 703 1 is_stmt 0 view .LVU411
 1577 003a 04B0     		add	sp, sp, #16
 1578              	.LCFI14:
 1579              		.cfi_remember_state
 1580              		.cfi_def_cfa_offset 8
 1581              		@ sp needed
 1582 003c 10BD     		pop	{r4, pc}
 1583              	.LVL204:
 1584              	.L168:
 1585              	.LCFI15:
 1586              		.cfi_restore_state
 1587              	.LBB194:
 661:Src/register_interface.c ****         uint8_t * rawData = data;
 1588              		.loc 1 661 9 is_stmt 1 view .LVU412
 662:Src/register_interface.c ****         rawData++;
 1589              		.loc 1 662 9 view .LVU413
 663:Src/register_interface.c ****         rawData++;
 1590              		.loc 1 663 9 view .LVU414
 664:Src/register_interface.c **** 
 1591              		.loc 1 664 9 view .LVU415
 666:Src/register_interface.c ****         {
 1592              		.loc 1 666 9 view .LVU416
 1593 003e 2828     		cmp	r0, #40
 1594 0040 3AD0     		beq	.L178
 692:Src/register_interface.c ****         break;
 1595              		.loc 1 692 28 is_stmt 0 view .LVU417
 1596 0042 1288     		ldrh	r2, [r2]
 1597              	.LVL205:
 692:Src/register_interface.c ****         break;
 1598              		.loc 1 692 28 view .LVU418
 1599 0044 0232     		adds	r2, r2, #2
 686:Src/register_interface.c ****             break;
ARM GAS  /tmp/ccKFuU3x.s 			page 62


 1600              		.loc 1 686 20 view .LVU419
 1601 0046 0520     		movs	r0, #5
 1602              	.LVL206:
 692:Src/register_interface.c ****         break;
 1603              		.loc 1 692 28 view .LVU420
 1604 0048 92B2     		uxth	r2, r2
 1605              	.LVL207:
 1606              	.L179:
 692:Src/register_interface.c ****         break;
 1607              		.loc 1 692 9 is_stmt 1 view .LVU421
 692:Src/register_interface.c ****         break;
 1608              		.loc 1 692 15 is_stmt 0 view .LVU422
 1609 004a 1A80     		strh	r2, [r3]	@ movhi
 693:Src/register_interface.c ****       }
 1610              		.loc 1 693 9 is_stmt 1 view .LVU423
 693:Src/register_interface.c ****       }
 1611              		.loc 1 693 9 is_stmt 0 view .LVU424
 1612              	.LBE194:
 702:Src/register_interface.c **** }
 1613              		.loc 1 702 3 is_stmt 1 view .LVU425
 1614              		.loc 1 703 1 is_stmt 0 view .LVU426
 1615 004c 04B0     		add	sp, sp, #16
 1616              	.LCFI16:
 1617              		.cfi_remember_state
 1618              		.cfi_def_cfa_offset 8
 1619              		@ sp needed
 1620 004e 10BD     		pop	{r4, pc}
 1621              	.LVL208:
 1622              	.L173:
 1623              	.LCFI17:
 1624              		.cfi_restore_state
 552:Src/register_interface.c ****         {
 1625              		.loc 1 552 9 is_stmt 1 view .LVU427
 552:Src/register_interface.c ****         {
 1626              		.loc 1 552 12 is_stmt 0 view .LVU428
 1627 0050 BEF1000F 		cmp	lr, #0
 1628 0054 2EDD     		ble	.L181
 554:Src/register_interface.c ****           {
 1629              		.loc 1 554 11 is_stmt 1 view .LVU429
 558:Src/register_interface.c ****               break;
 1630              		.loc 1 558 15 view .LVU430
 1631              	.LVL209:
 559:Src/register_interface.c ****             }
 1632              		.loc 1 559 15 view .LVU431
 562:Src/register_interface.c ****         }
 1633              		.loc 1 562 11 view .LVU432
 562:Src/register_interface.c ****         }
 1634              		.loc 1 562 17 is_stmt 0 view .LVU433
 1635 0056 0122     		movs	r2, #1
 1636              	.LVL210:
 562:Src/register_interface.c ****         }
 1637              		.loc 1 562 17 view .LVU434
 1638 0058 1A80     		strh	r2, [r3]	@ movhi
 558:Src/register_interface.c ****               break;
 1639              		.loc 1 558 22 view .LVU435
 1640 005a 0520     		movs	r0, #5
 1641              	.LVL211:
ARM GAS  /tmp/ccKFuU3x.s 			page 63


 558:Src/register_interface.c ****               break;
 1642              		.loc 1 558 22 view .LVU436
 1643 005c EDE7     		b	.L167
 1644              	.LVL212:
 1645              	.L171:
 1646              	.LBB195:
 598:Src/register_interface.c ****         if (freeSpace >= 4)
 1647              		.loc 1 598 9 is_stmt 1 view .LVU437
 599:Src/register_interface.c ****         {
 1648              		.loc 1 599 9 view .LVU438
 599:Src/register_interface.c ****         {
 1649              		.loc 1 599 12 is_stmt 0 view .LVU439
 1650 005e BEF1030F 		cmp	lr, #3
 1651 0062 24DD     		ble	.L185
 601:Src/register_interface.c ****           {
 1652              		.loc 1 601 11 is_stmt 1 view .LVU440
 1653 0064 41F25861 		movw	r1, #5720
 1654              	.LVL213:
 601:Src/register_interface.c ****           {
 1655              		.loc 1 601 11 is_stmt 0 view .LVU441
 1656 0068 8842     		cmp	r0, r1
 1657 006a 53D0     		beq	.L175
 1658 006c 41F29861 		movw	r1, #5784
 1659 0070 8842     		cmp	r0, r1
 1660 0072 48D0     		beq	.L176
 1661 0074 41F21861 		movw	r1, #5656
 1662 0078 8842     		cmp	r0, r1
 1663 007a 36D0     		beq	.L190
 1664 007c 0520     		movs	r0, #5
 1665              	.LVL214:
 1666              	.L177:
 633:Src/register_interface.c ****         }
 1667              		.loc 1 633 11 is_stmt 1 view .LVU442
 633:Src/register_interface.c ****         }
 1668              		.loc 1 633 17 is_stmt 0 view .LVU443
 1669 007e 0422     		movs	r2, #4
 1670 0080 1A80     		strh	r2, [r3]	@ movhi
 633:Src/register_interface.c ****         }
 1671              		.loc 1 633 17 view .LVU444
 1672              	.LBE195:
 702:Src/register_interface.c **** }
 1673              		.loc 1 702 3 is_stmt 1 view .LVU445
 1674              		.loc 1 703 1 is_stmt 0 view .LVU446
 1675 0082 04B0     		add	sp, sp, #16
 1676              	.LCFI18:
 1677              		.cfi_remember_state
 1678              		.cfi_def_cfa_offset 8
 1679              		@ sp needed
 1680 0084 10BD     		pop	{r4, pc}
 1681              	.LVL215:
 1682              	.L172:
 1683              	.LCFI19:
 1684              		.cfi_restore_state
 573:Src/register_interface.c ****         {
 1685              		.loc 1 573 9 is_stmt 1 view .LVU447
 573:Src/register_interface.c ****         {
 1686              		.loc 1 573 12 is_stmt 0 view .LVU448
ARM GAS  /tmp/ccKFuU3x.s 			page 64


 1687 0086 BEF1010F 		cmp	lr, #1
 1688 008a 10DD     		ble	.L185
 575:Src/register_interface.c ****           {
 1689              		.loc 1 575 11 is_stmt 1 view .LVU449
 1690 008c B0F5656F 		cmp	r0, #3664
 1691 0090 29D0     		beq	.L183
 545:Src/register_interface.c ****     uint8_t motorID=0;
 1692              		.loc 1 545 13 is_stmt 0 view .LVU450
 1693 0092 B0F5696F 		cmp	r0, #3728
 1694 0096 14BF     		ite	ne
 1695 0098 0520     		movne	r0, #5
 1696              	.LVL216:
 545:Src/register_interface.c ****     uint8_t motorID=0;
 1697              		.loc 1 545 13 view .LVU451
 1698 009a 0020     		moveq	r0, #0
 1699              	.L174:
 1700              	.LVL217:
 587:Src/register_interface.c ****         }
 1701              		.loc 1 587 11 is_stmt 1 view .LVU452
 587:Src/register_interface.c ****         }
 1702              		.loc 1 587 17 is_stmt 0 view .LVU453
 1703 009c 0222     		movs	r2, #2
 1704              	.LVL218:
 587:Src/register_interface.c ****         }
 1705              		.loc 1 587 17 view .LVU454
 1706 009e 1A80     		strh	r2, [r3]	@ movhi
 702:Src/register_interface.c **** }
 1707              		.loc 1 702 3 is_stmt 1 view .LVU455
 1708              		.loc 1 703 1 is_stmt 0 view .LVU456
 1709 00a0 04B0     		add	sp, sp, #16
 1710              	.LCFI20:
 1711              		.cfi_remember_state
 1712              		.cfi_def_cfa_offset 8
 1713              		@ sp needed
 1714 00a2 10BD     		pop	{r4, pc}
 1715              	.LVL219:
 1716              	.L170:
 1717              	.LCFI21:
 1718              		.cfi_restore_state
 644:Src/register_interface.c ****         {
 1719              		.loc 1 644 9 is_stmt 1 view .LVU457
 649:Src/register_interface.c ****             *size= 0 ; /* */
 1720              		.loc 1 649 13 view .LVU458
 650:Src/register_interface.c **** 
 1721              		.loc 1 650 13 view .LVU459
 650:Src/register_interface.c **** 
 1722              		.loc 1 650 18 is_stmt 0 view .LVU460
 1723 00a4 0022     		movs	r2, #0
 1724              	.LVL220:
 649:Src/register_interface.c ****             *size= 0 ; /* */
 1725              		.loc 1 649 20 view .LVU461
 1726 00a6 0520     		movs	r0, #5
 1727              	.LVL221:
 650:Src/register_interface.c **** 
 1728              		.loc 1 650 18 view .LVU462
 1729 00a8 1A80     		strh	r2, [r3]	@ movhi
 652:Src/register_interface.c ****           }
ARM GAS  /tmp/ccKFuU3x.s 			page 65


 1730              		.loc 1 652 13 is_stmt 1 view .LVU463
 1731              	.LVL222:
 702:Src/register_interface.c **** }
 1732              		.loc 1 702 3 view .LVU464
 1733              		.loc 1 703 1 is_stmt 0 view .LVU465
 1734 00aa 04B0     		add	sp, sp, #16
 1735              	.LCFI22:
 1736              		.cfi_remember_state
 1737              		.cfi_def_cfa_offset 8
 1738              		@ sp needed
 1739 00ac 10BD     		pop	{r4, pc}
 1740              	.LVL223:
 1741              	.L185:
 1742              	.LCFI23:
 1743              		.cfi_restore_state
 566:Src/register_interface.c ****         }
 1744              		.loc 1 566 18 view .LVU466
 1745 00ae 0820     		movs	r0, #8
 1746              	.LVL224:
 702:Src/register_interface.c **** }
 1747              		.loc 1 702 3 is_stmt 1 view .LVU467
 1748              		.loc 1 703 1 is_stmt 0 view .LVU468
 1749 00b0 04B0     		add	sp, sp, #16
 1750              	.LCFI24:
 1751              		.cfi_remember_state
 1752              		.cfi_def_cfa_offset 8
 1753              		@ sp needed
 1754 00b2 10BD     		pop	{r4, pc}
 1755              	.LVL225:
 1756              	.L181:
 1757              	.LCFI25:
 1758              		.cfi_restore_state
 566:Src/register_interface.c ****         }
 1759              		.loc 1 566 18 view .LVU469
 1760 00b4 0846     		mov	r0, r1
 1761              	.LVL226:
 566:Src/register_interface.c ****         }
 1762              		.loc 1 566 18 view .LVU470
 1763 00b6 C0E7     		b	.L167
 1764              	.LVL227:
 1765              	.L178:
 1766              	.LBB200:
 670:Src/register_interface.c ****             if (((*rawSize) + 2U) > (uint16_t)freeSpace)
 1767              		.loc 1 670 13 is_stmt 1 view .LVU471
 671:Src/register_interface.c ****             {
 1768              		.loc 1 671 16 is_stmt 0 view .LVU472
 1769 00b8 1FFA8EFE 		uxth	lr, lr
 670:Src/register_interface.c ****             if (((*rawSize) + 2U) > (uint16_t)freeSpace)
 1770              		.loc 1 670 22 view .LVU473
 1771 00bc 0A21     		movs	r1, #10
 1772              	.LVL228:
 671:Src/register_interface.c ****             {
 1773              		.loc 1 671 16 view .LVU474
 1774 00be BEF10B0F 		cmp	lr, #11
 670:Src/register_interface.c ****             if (((*rawSize) + 2U) > (uint16_t)freeSpace)
 1775              		.loc 1 670 22 view .LVU475
 1776 00c2 1180     		strh	r1, [r2]	@ movhi
ARM GAS  /tmp/ccKFuU3x.s 			page 66


 671:Src/register_interface.c ****             {
 1777              		.loc 1 671 13 is_stmt 1 view .LVU476
 671:Src/register_interface.c ****             {
 1778              		.loc 1 671 16 is_stmt 0 view .LVU477
 1779 00c4 02D8     		bhi	.L191
 1780 00c6 0C22     		movs	r2, #12
 1781              	.LVL229:
 673:Src/register_interface.c ****             }
 1782              		.loc 1 673 22 view .LVU478
 1783 00c8 0820     		movs	r0, #8
 1784              	.LVL230:
 673:Src/register_interface.c ****             }
 1785              		.loc 1 673 22 view .LVU479
 1786 00ca BEE7     		b	.L179
 1787              	.LVL231:
 1788              	.L191:
 677:Src/register_interface.c ****             }
 1789              		.loc 1 677 15 is_stmt 1 view .LVU480
 677:Src/register_interface.c ****             }
 1790              		.loc 1 677 21 is_stmt 0 view .LVU481
 1791 00cc 1549     		ldr	r1, .L192
 1792 00ce 4868     		ldr	r0, [r1, #4]	@ unaligned
 1793              	.LVL232:
 677:Src/register_interface.c ****             }
 1794              		.loc 1 677 21 view .LVU482
 1795 00d0 D1F800C0 		ldr	ip, [r1]	@ unaligned
 1796 00d4 0989     		ldrh	r1, [r1, #8]	@ unaligned
 1797 00d6 C2F80600 		str	r0, [r2, #6]	@ unaligned
 1798 00da C2F802C0 		str	ip, [r2, #2]	@ unaligned
 1799 00de 5181     		strh	r1, [r2, #10]	@ unaligned
 1800              	.LBE200:
 545:Src/register_interface.c ****     uint8_t motorID=0;
 1801              		.loc 1 545 13 view .LVU483
 1802 00e0 0020     		movs	r0, #0
 1803              	.LBB201:
 677:Src/register_interface.c ****             }
 1804              		.loc 1 677 21 view .LVU484
 1805 00e2 0C22     		movs	r2, #12
 1806              	.LVL233:
 677:Src/register_interface.c ****             }
 1807              		.loc 1 677 21 view .LVU485
 1808 00e4 B1E7     		b	.L179
 1809              	.LVL234:
 1810              	.L183:
 677:Src/register_interface.c ****             }
 1811              		.loc 1 677 21 view .LVU486
 1812              	.LBE201:
 545:Src/register_interface.c ****     uint8_t motorID=0;
 1813              		.loc 1 545 13 view .LVU487
 1814 00e6 0020     		movs	r0, #0
 1815              	.LVL235:
 545:Src/register_interface.c ****     uint8_t motorID=0;
 1816              		.loc 1 545 13 view .LVU488
 1817 00e8 D8E7     		b	.L174
 1818              	.LVL236:
 1819              	.L190:
 1820              	.LBB202:
ARM GAS  /tmp/ccKFuU3x.s 			page 67


 1821              	.LBB196:
 605:Src/register_interface.c ****               ReadVal.Float_Val = MC_Perf_GetCPU_Load(pMCIN->pPerfMeasure);
 1822              		.loc 1 605 15 is_stmt 1 view .LVU489
 606:Src/register_interface.c ****               *regdataU32 = ReadVal.U32_Val;
 1823              		.loc 1 606 15 view .LVU490
 606:Src/register_interface.c ****               *regdataU32 = ReadVal.U32_Val;
 1824              		.loc 1 606 60 is_stmt 0 view .LVU491
 1825 00ea 0F49     		ldr	r1, .L192+4
 606:Src/register_interface.c ****               *regdataU32 = ReadVal.U32_Val;
 1826              		.loc 1 606 35 view .LVU492
 1827 00ec 886A     		ldr	r0, [r1, #40]
 1828              	.LVL237:
 606:Src/register_interface.c ****               *regdataU32 = ReadVal.U32_Val;
 1829              		.loc 1 606 35 view .LVU493
 1830 00ee CDE90223 		strd	r2, r3, [sp, #8]
 1831 00f2 FFF7FEFF 		bl	MC_Perf_GetCPU_Load
 1832              	.LVL238:
 1833              	.L189:
 606:Src/register_interface.c ****               *regdataU32 = ReadVal.U32_Val;
 1834              		.loc 1 606 35 view .LVU494
 1835              	.LBE196:
 1836              	.LBB197:
 622:Src/register_interface.c ****               *regdataU32 = ReadVal.U32_Val;
 1837              		.loc 1 622 35 view .LVU495
 1838 00f6 8DED010A 		vstr.32	s0, [sp, #4]
 1839              	.LVL239:
 623:Src/register_interface.c ****               break;
 1840              		.loc 1 623 15 is_stmt 1 view .LVU496
 623:Src/register_interface.c ****               break;
 1841              		.loc 1 623 27 is_stmt 0 view .LVU497
 1842 00fa DDE90112 		ldrd	r1, r2, [sp, #4]
 1843 00fe 039B     		ldr	r3, [sp, #12]
 1844 0100 1160     		str	r1, [r2]
 624:Src/register_interface.c ****             }
 1845              		.loc 1 624 15 is_stmt 1 view .LVU498
 1846              	.LVL240:
 624:Src/register_interface.c ****             }
 1847              		.loc 1 624 15 is_stmt 0 view .LVU499
 1848              	.LBE197:
 1849              	.LBE202:
 545:Src/register_interface.c ****     uint8_t motorID=0;
 1850              		.loc 1 545 13 view .LVU500
 1851 0102 0020     		movs	r0, #0
 1852 0104 BBE7     		b	.L177
 1853              	.LVL241:
 1854              	.L176:
 1855              	.LBB203:
 1856              	.LBB198:
 621:Src/register_interface.c ****               ReadVal.Float_Val = MC_Perf_GetMaxCPU_Load(pMCIN->pPerfMeasure);
 1857              		.loc 1 621 15 is_stmt 1 view .LVU501
 622:Src/register_interface.c ****               *regdataU32 = ReadVal.U32_Val;
 1858              		.loc 1 622 15 view .LVU502
 622:Src/register_interface.c ****               *regdataU32 = ReadVal.U32_Val;
 1859              		.loc 1 622 63 is_stmt 0 view .LVU503
 1860 0106 0849     		ldr	r1, .L192+4
 622:Src/register_interface.c ****               *regdataU32 = ReadVal.U32_Val;
 1861              		.loc 1 622 35 view .LVU504
ARM GAS  /tmp/ccKFuU3x.s 			page 68


 1862 0108 886A     		ldr	r0, [r1, #40]
 1863              	.LVL242:
 622:Src/register_interface.c ****               *regdataU32 = ReadVal.U32_Val;
 1864              		.loc 1 622 35 view .LVU505
 1865 010a CDE90223 		strd	r2, r3, [sp, #8]
 1866 010e FFF7FEFF 		bl	MC_Perf_GetMaxCPU_Load
 1867              	.LVL243:
 622:Src/register_interface.c ****               *regdataU32 = ReadVal.U32_Val;
 1868              		.loc 1 622 35 view .LVU506
 1869 0112 F0E7     		b	.L189
 1870              	.LVL244:
 1871              	.L175:
 622:Src/register_interface.c ****               *regdataU32 = ReadVal.U32_Val;
 1872              		.loc 1 622 35 view .LVU507
 1873              	.LBE198:
 1874              	.LBB199:
 613:Src/register_interface.c ****               ReadVal.Float_Val = MC_Perf_GetMinCPU_Load(pMCIN->pPerfMeasure);
 1875              		.loc 1 613 15 is_stmt 1 view .LVU508
 614:Src/register_interface.c ****               *regdataU32 = ReadVal.U32_Val;
 1876              		.loc 1 614 15 view .LVU509
 614:Src/register_interface.c ****               *regdataU32 = ReadVal.U32_Val;
 1877              		.loc 1 614 63 is_stmt 0 view .LVU510
 1878 0114 0449     		ldr	r1, .L192+4
 614:Src/register_interface.c ****               *regdataU32 = ReadVal.U32_Val;
 1879              		.loc 1 614 35 view .LVU511
 1880 0116 886A     		ldr	r0, [r1, #40]
 1881              	.LVL245:
 614:Src/register_interface.c ****               *regdataU32 = ReadVal.U32_Val;
 1882              		.loc 1 614 35 view .LVU512
 1883 0118 CDE90223 		strd	r2, r3, [sp, #8]
 1884 011c FFF7FEFF 		bl	MC_Perf_GetMinCPU_Load
 1885              	.LVL246:
 614:Src/register_interface.c ****               *regdataU32 = ReadVal.U32_Val;
 1886              		.loc 1 614 35 view .LVU513
 1887 0120 E9E7     		b	.L189
 1888              	.L193:
 1889 0122 00BF     		.align	2
 1890              	.L192:
 1891 0124 00000000 		.word	globalConfig_reg
 1892 0128 00000000 		.word	Mci
 1893              	.LBE199:
 1894              	.LBE203:
 1895              		.cfi_endproc
 1896              	.LFE1715:
 1898              		.section	.text.RI_GetRegisterMotor1,"ax",%progbits
 1899              		.align	1
 1900              		.p2align 2,,3
 1901              		.global	RI_GetRegisterMotor1
 1902              		.syntax unified
 1903              		.thumb
 1904              		.thumb_func
 1905              		.fpu fpv4-sp-d16
 1907              	RI_GetRegisterMotor1:
 1908              	.LVL247:
 1909              	.LFB1716:
 704:Src/register_interface.c **** 
 705:Src/register_interface.c ****   uint8_t RI_GetRegisterMotor1(uint16_t regID,uint8_t typeID,uint8_t * data,uint16_t *size,int16_t 
ARM GAS  /tmp/ccKFuU3x.s 			page 69


 1910              		.loc 1 705 111 is_stmt 1 view -0
 1911              		.cfi_startproc
 1912              		@ args = 4, pretend = 0, frame = 48
 1913              		@ frame_needed = 0, uses_anonymous_args = 0
 706:Src/register_interface.c ****     uint8_t retVal = MCP_CMD_OK;
 1914              		.loc 1 706 5 view .LVU515
 707:Src/register_interface.c ****     uint8_t motorID=0;
 1915              		.loc 1 707 5 view .LVU516
 708:Src/register_interface.c ****     MCI_Handle_t *pMCIN = &Mci[motorID];
 1916              		.loc 1 708 5 view .LVU517
 709:Src/register_interface.c ****     BusVoltageSensor_Handle_t* BusVoltageSensor= &BusVoltageSensor_M1._Super;
 1917              		.loc 1 709 5 view .LVU518
 710:Src/register_interface.c ****     switch (typeID)
 1918              		.loc 1 710 5 view .LVU519
 705:Src/register_interface.c ****     uint8_t retVal = MCP_CMD_OK;
 1919              		.loc 1 705 111 is_stmt 0 view .LVU520
 1920 0000 30B5     		push	{r4, r5, lr}
 1921              	.LCFI26:
 1922              		.cfi_def_cfa_offset 12
 1923              		.cfi_offset 4, -12
 1924              		.cfi_offset 5, -8
 1925              		.cfi_offset 14, -4
 1926 0002 8DB0     		sub	sp, sp, #52
 1927              	.LCFI27:
 1928              		.cfi_def_cfa_offset 64
 1929 0004 A1F1080C 		sub	ip, r1, #8
 705:Src/register_interface.c ****     uint8_t retVal = MCP_CMD_OK;
 1930              		.loc 1 705 111 view .LVU521
 1931 0008 BDF940E0 		ldrsh	lr, [sp, #64]
 1932 000c 1446     		mov	r4, r2
 1933 000e 1D46     		mov	r5, r3
 1934 0010 BCF1200F 		cmp	ip, #32
 1935 0014 12D8     		bhi	.L286
 1936 0016 DFE80CF0 		tbb	[pc, ip]
 1937              	.LVL248:
 1938              	.L197:
 1939 001a 2E       		.byte	(.L201-.L197)/2
 1940 001b 11       		.byte	(.L286-.L197)/2
 1941 001c 11       		.byte	(.L286-.L197)/2
 1942 001d 11       		.byte	(.L286-.L197)/2
 1943 001e 11       		.byte	(.L286-.L197)/2
 1944 001f 11       		.byte	(.L286-.L197)/2
 1945 0020 11       		.byte	(.L286-.L197)/2
 1946 0021 11       		.byte	(.L286-.L197)/2
 1947 0022 46       		.byte	(.L200-.L197)/2
 1948 0023 11       		.byte	(.L286-.L197)/2
 1949 0024 11       		.byte	(.L286-.L197)/2
 1950 0025 11       		.byte	(.L286-.L197)/2
 1951 0026 11       		.byte	(.L286-.L197)/2
 1952 0027 11       		.byte	(.L286-.L197)/2
 1953 0028 11       		.byte	(.L286-.L197)/2
 1954 0029 11       		.byte	(.L286-.L197)/2
 1955 002a 6B       		.byte	(.L199-.L197)/2
 1956 002b 11       		.byte	(.L286-.L197)/2
 1957 002c 11       		.byte	(.L286-.L197)/2
 1958 002d 11       		.byte	(.L286-.L197)/2
 1959 002e 11       		.byte	(.L286-.L197)/2
ARM GAS  /tmp/ccKFuU3x.s 			page 70


 1960 002f 11       		.byte	(.L286-.L197)/2
 1961 0030 11       		.byte	(.L286-.L197)/2
 1962 0031 11       		.byte	(.L286-.L197)/2
 1963 0032 91       		.byte	(.L198-.L197)/2
 1964 0033 11       		.byte	(.L286-.L197)/2
 1965 0034 11       		.byte	(.L286-.L197)/2
 1966 0035 11       		.byte	(.L286-.L197)/2
 1967 0036 11       		.byte	(.L286-.L197)/2
 1968 0037 11       		.byte	(.L286-.L197)/2
 1969 0038 11       		.byte	(.L286-.L197)/2
 1970 0039 11       		.byte	(.L286-.L197)/2
 1971 003a 14       		.byte	(.L196-.L197)/2
 1972 003b 00       		.p2align 1
 1973              	.L286:
 711:Src/register_interface.c ****     {
 712:Src/register_interface.c ****       case TYPE_DATA_8BIT:
 713:Src/register_interface.c ****       {
 714:Src/register_interface.c ****         if (freeSpace > 0)
 715:Src/register_interface.c ****         {
 716:Src/register_interface.c ****           switch (regID)
 717:Src/register_interface.c ****           {
 718:Src/register_interface.c ****             case MC_REG_STATUS:
 719:Src/register_interface.c ****             {
 720:Src/register_interface.c ****               *data = (uint8_t)MCI_GetSTMState(pMCIN);
 721:Src/register_interface.c ****               break;
 722:Src/register_interface.c ****             }
 723:Src/register_interface.c **** 
 724:Src/register_interface.c ****             case MC_REG_CONTROL_MODE:
 725:Src/register_interface.c ****             {
 726:Src/register_interface.c ****               *data = (uint8_t)MCI_GetControlMode(pMCIN);
 727:Src/register_interface.c ****               break;
 728:Src/register_interface.c ****             }
 729:Src/register_interface.c **** 
 730:Src/register_interface.c ****             case MC_REG_RUC_STAGE_NBR:
 731:Src/register_interface.c ****             {
 732:Src/register_interface.c ****               *data = (uint8_t)RUC_GetNumberOfPhases(&RevUpControlM1);
 733:Src/register_interface.c ****               break;
 734:Src/register_interface.c ****             }
 735:Src/register_interface.c **** 
 736:Src/register_interface.c ****             case MC_REG_SC_CHECK:
 737:Src/register_interface.c ****             {
 738:Src/register_interface.c ****               *data = (uint8_t) 1u;
 739:Src/register_interface.c ****               break;
 740:Src/register_interface.c ****             }
 741:Src/register_interface.c **** 
 742:Src/register_interface.c ****             case MC_REG_SC_STATE:
 743:Src/register_interface.c ****             {
 744:Src/register_interface.c ****               uint8_t state ;
 745:Src/register_interface.c ****               state = SCC_GetState(&SCC);
 746:Src/register_interface.c ****               state += OTT_GetState (&OTT);
 747:Src/register_interface.c ****               *data = state;
 748:Src/register_interface.c ****               break;
 749:Src/register_interface.c ****             }
 750:Src/register_interface.c **** 
 751:Src/register_interface.c ****             case MC_REG_SC_STEPS:
 752:Src/register_interface.c ****             {
 753:Src/register_interface.c ****               uint8_t steps ;
ARM GAS  /tmp/ccKFuU3x.s 			page 71


 754:Src/register_interface.c ****               steps = SCC_GetSteps(&SCC);
 755:Src/register_interface.c ****               steps += OTT_GetSteps (&OTT);
 756:Src/register_interface.c ****               *data = steps-1u;
 757:Src/register_interface.c ****               break;
 758:Src/register_interface.c ****             }
 759:Src/register_interface.c **** 
 760:Src/register_interface.c ****             case MC_REG_SC_PP:
 761:Src/register_interface.c ****             {
 762:Src/register_interface.c ****               *data = SPD_GetElToMecRatio(&STO_PLL_M1._Super);
 763:Src/register_interface.c ****               break;
 764:Src/register_interface.c ****             }
 765:Src/register_interface.c **** 
 766:Src/register_interface.c ****             case MC_REG_SC_FOC_REP_RATE:
 767:Src/register_interface.c ****             {
 768:Src/register_interface.c ****               *data = SCC_GetFOCRepRate(&SCC);
 769:Src/register_interface.c ****               break;
 770:Src/register_interface.c ****             }
 771:Src/register_interface.c **** 
 772:Src/register_interface.c ****             case MC_REG_SC_COMPLETED:
 773:Src/register_interface.c ****             {
 774:Src/register_interface.c ****               *data = OTT_IsMotorAlreadyProfiled(&OTT);
 775:Src/register_interface.c ****               break;
 776:Src/register_interface.c ****              }
 777:Src/register_interface.c **** 
 778:Src/register_interface.c ****             default:
 779:Src/register_interface.c ****             {
 780:Src/register_interface.c ****               retVal = MCP_ERROR_UNKNOWN_REG;
 781:Src/register_interface.c ****               break;
 782:Src/register_interface.c ****             }
 783:Src/register_interface.c ****           }
 784:Src/register_interface.c ****           *size = 1;
 785:Src/register_interface.c ****         }
 786:Src/register_interface.c ****         else
 787:Src/register_interface.c ****         {
 788:Src/register_interface.c ****           retVal = MCP_ERROR_NO_TXSYNC_SPACE;
 1974              		.loc 1 788 18 view .LVU522
 1975 003c 0720     		movs	r0, #7
 1976              	.LVL249:
 1977              	.L195:
 789:Src/register_interface.c ****         }
 790:Src/register_interface.c ****         break;
 791:Src/register_interface.c ****       }
 792:Src/register_interface.c **** 
 793:Src/register_interface.c ****       case TYPE_DATA_16BIT:
 794:Src/register_interface.c ****       {
 795:Src/register_interface.c ****         uint16_t *regdataU16 = (uint16_t *)data; //cstat !MISRAC2012-Rule-11.3
 796:Src/register_interface.c ****         int16_t *regdata16 = (int16_t *) data; //cstat !MISRAC2012-Rule-11.3
 797:Src/register_interface.c **** 
 798:Src/register_interface.c ****         if (freeSpace >= 2)
 799:Src/register_interface.c ****         {
 800:Src/register_interface.c ****           switch (regID)
 801:Src/register_interface.c ****           {
 802:Src/register_interface.c ****             case MC_REG_SPEED_KP:
 803:Src/register_interface.c ****             {
 804:Src/register_interface.c ****               *regdata16 = PID_GetKP(&PIDSpeedHandle_M1);
 805:Src/register_interface.c ****               break;
 806:Src/register_interface.c ****             }
ARM GAS  /tmp/ccKFuU3x.s 			page 72


 807:Src/register_interface.c **** 
 808:Src/register_interface.c ****             case MC_REG_SPEED_KI:
 809:Src/register_interface.c ****             {
 810:Src/register_interface.c ****               *regdata16 = PID_GetKI(&PIDSpeedHandle_M1);
 811:Src/register_interface.c ****               break;
 812:Src/register_interface.c ****             }
 813:Src/register_interface.c **** 
 814:Src/register_interface.c ****             case MC_REG_SPEED_KD:
 815:Src/register_interface.c ****             {
 816:Src/register_interface.c ****               *regdata16 = PID_GetKD(&PIDSpeedHandle_M1);
 817:Src/register_interface.c ****               break;
 818:Src/register_interface.c ****             }
 819:Src/register_interface.c **** 
 820:Src/register_interface.c ****             case MC_REG_BUS_VOLTAGE:
 821:Src/register_interface.c ****             {
 822:Src/register_interface.c ****               *regdataU16 = VBS_GetAvBusVoltage_V(BusVoltageSensor);
 823:Src/register_interface.c ****               break;
 824:Src/register_interface.c ****             }
 825:Src/register_interface.c **** 
 826:Src/register_interface.c ****             case MC_REG_HEATS_TEMP:
 827:Src/register_interface.c ****             {
 828:Src/register_interface.c ****               *regdata16 = NTC_GetAvTemp_C(&TempSensor_M1);
 829:Src/register_interface.c ****               break;
 830:Src/register_interface.c ****             }
 831:Src/register_interface.c **** 
 832:Src/register_interface.c ****             case MC_REG_V_Q:
 833:Src/register_interface.c ****             {
 834:Src/register_interface.c ****               *regdata16 = MCI_GetVqd(pMCIN).q;
 835:Src/register_interface.c ****               break;
 836:Src/register_interface.c ****             }
 837:Src/register_interface.c **** 
 838:Src/register_interface.c ****             case MC_REG_V_D:
 839:Src/register_interface.c ****             {
 840:Src/register_interface.c ****               *regdata16 = MCI_GetVqd(pMCIN).d;
 841:Src/register_interface.c ****               break;
 842:Src/register_interface.c ****             }
 843:Src/register_interface.c **** 
 844:Src/register_interface.c ****             case MC_REG_V_ALPHA:
 845:Src/register_interface.c ****             {
 846:Src/register_interface.c ****               *regdata16 = MCI_GetValphabeta(pMCIN).alpha;
 847:Src/register_interface.c ****               break;
 848:Src/register_interface.c ****             }
 849:Src/register_interface.c **** 
 850:Src/register_interface.c ****             case MC_REG_V_BETA:
 851:Src/register_interface.c ****             {
 852:Src/register_interface.c ****               *regdata16 = MCI_GetValphabeta(pMCIN).beta;
 853:Src/register_interface.c ****               break;
 854:Src/register_interface.c ****             }
 855:Src/register_interface.c **** 
 856:Src/register_interface.c ****             case MC_REG_STOPLL_EL_ANGLE:
 857:Src/register_interface.c ****             {
 858:Src/register_interface.c ****               //cstat !MISRAC2012-Rule-11.3
 859:Src/register_interface.c ****               *regdata16 = SPD_GetElAngle((SpeednPosFdbk_Handle_t *)&STO_PLL_M1);
 860:Src/register_interface.c ****               break;
 861:Src/register_interface.c ****             }
 862:Src/register_interface.c **** 
 863:Src/register_interface.c ****             case MC_REG_STOPLL_ROT_SPEED:
ARM GAS  /tmp/ccKFuU3x.s 			page 73


 864:Src/register_interface.c ****             {
 865:Src/register_interface.c ****               //cstat !MISRAC2012-Rule-11.3
 866:Src/register_interface.c ****               *regdata16 = SPD_GetS16Speed((SpeednPosFdbk_Handle_t *)&STO_PLL_M1);
 867:Src/register_interface.c ****               break;
 868:Src/register_interface.c ****             }
 869:Src/register_interface.c **** 
 870:Src/register_interface.c ****             case MC_REG_STOPLL_BEMF_ALPHA:
 871:Src/register_interface.c ****             {
 872:Src/register_interface.c ****               *regdata16 = STO_PLL_GetEstimatedBemf(&STO_PLL_M1).alpha;
 873:Src/register_interface.c ****               break;
 874:Src/register_interface.c ****             }
 875:Src/register_interface.c **** 
 876:Src/register_interface.c ****             case MC_REG_STOPLL_BEMF_BETA:
 877:Src/register_interface.c ****             {
 878:Src/register_interface.c ****               *regdata16 = STO_PLL_GetEstimatedBemf(&STO_PLL_M1).beta;
 879:Src/register_interface.c ****               break;
 880:Src/register_interface.c ****             }
 881:Src/register_interface.c **** 
 882:Src/register_interface.c ****             case MC_REG_STOPLL_C1:
 883:Src/register_interface.c ****             {
 884:Src/register_interface.c ****               int16_t hC1;
 885:Src/register_interface.c ****               int16_t hC2;
 886:Src/register_interface.c ****               STO_PLL_GetObserverGains(&STO_PLL_M1, &hC1, &hC2);
 887:Src/register_interface.c ****               *regdata16 = hC1;
 888:Src/register_interface.c ****               break;
 889:Src/register_interface.c ****             }
 890:Src/register_interface.c **** 
 891:Src/register_interface.c ****             case MC_REG_STOPLL_C2:
 892:Src/register_interface.c ****             {
 893:Src/register_interface.c ****               int16_t hC1;
 894:Src/register_interface.c ****               int16_t hC2;
 895:Src/register_interface.c ****               STO_PLL_GetObserverGains(&STO_PLL_M1, &hC1, &hC2);
 896:Src/register_interface.c ****               *regdata16 = hC2;
 897:Src/register_interface.c ****               break;
 898:Src/register_interface.c ****             }
 899:Src/register_interface.c **** 
 900:Src/register_interface.c ****             case MC_REG_STOPLL_KI:
 901:Src/register_interface.c ****             {
 902:Src/register_interface.c ****               *regdata16 = PID_GetKI (&(&STO_PLL_M1)->PIRegulator);
 903:Src/register_interface.c ****               break;
 904:Src/register_interface.c ****             }
 905:Src/register_interface.c **** 
 906:Src/register_interface.c ****             case MC_REG_STOPLL_KP:
 907:Src/register_interface.c ****             {
 908:Src/register_interface.c ****               *regdata16 = PID_GetKP (&(&STO_PLL_M1)->PIRegulator);
 909:Src/register_interface.c ****               break;
 910:Src/register_interface.c ****             }
 911:Src/register_interface.c **** 
 912:Src/register_interface.c ****             case MC_REG_DAC_USER1:
 913:Src/register_interface.c ****             case MC_REG_DAC_USER2:
 914:Src/register_interface.c ****               break;
 915:Src/register_interface.c **** 
 916:Src/register_interface.c ****             case MC_REG_FF_VQ:
 917:Src/register_interface.c ****             {
 918:Src/register_interface.c ****               *regdata16 = FF_GetVqdff(&FF_M1).q;
 919:Src/register_interface.c ****               break;
 920:Src/register_interface.c ****             }
ARM GAS  /tmp/ccKFuU3x.s 			page 74


 921:Src/register_interface.c **** 
 922:Src/register_interface.c ****             case MC_REG_FF_VD:
 923:Src/register_interface.c ****             {
 924:Src/register_interface.c ****               *regdata16 = FF_GetVqdff(&FF_M1).d;
 925:Src/register_interface.c ****               break;
 926:Src/register_interface.c ****             }
 927:Src/register_interface.c **** 
 928:Src/register_interface.c ****             case MC_REG_FF_VQ_PIOUT:
 929:Src/register_interface.c ****             {
 930:Src/register_interface.c ****               *regdata16 = FF_GetVqdAvPIout(&FF_M1).q;
 931:Src/register_interface.c ****               break;
 932:Src/register_interface.c ****             }
 933:Src/register_interface.c **** 
 934:Src/register_interface.c ****             case MC_REG_FF_VD_PIOUT:
 935:Src/register_interface.c ****             {
 936:Src/register_interface.c ****               *regdata16 = FF_GetVqdAvPIout(&FF_M1).d;
 937:Src/register_interface.c ****               break;
 938:Src/register_interface.c ****             }
 939:Src/register_interface.c **** 
 940:Src/register_interface.c ****             case MC_REG_SC_PWM_FREQUENCY:
 941:Src/register_interface.c ****               *regdataU16 = SCC_GetPWMFrequencyHz(&SCC);
 942:Src/register_interface.c ****               break;
 943:Src/register_interface.c ****             case MC_REG_OVERVOLTAGETHRESHOLD:
 944:Src/register_interface.c ****             {
 945:Src/register_interface.c ****               *regdataU16 = SCC_GetOverVoltageThreshold(&SCC);
 946:Src/register_interface.c ****               break;
 947:Src/register_interface.c ****             }
 948:Src/register_interface.c **** 
 949:Src/register_interface.c ****             case MC_REG_UNDERVOLTAGETHRESHOLD:
 950:Src/register_interface.c ****               {
 951:Src/register_interface.c ****                 *regdata16 = SCC_GetUnderVoltageThreshold(&SCC);
 952:Src/register_interface.c ****               break;
 953:Src/register_interface.c ****             }
 954:Src/register_interface.c **** 
 955:Src/register_interface.c ****             default:
 956:Src/register_interface.c ****             {
 957:Src/register_interface.c ****               retVal = MCP_ERROR_UNKNOWN_REG;
 958:Src/register_interface.c ****               break;
 959:Src/register_interface.c ****             }
 960:Src/register_interface.c ****           }
 961:Src/register_interface.c ****           *size = 2;
 962:Src/register_interface.c ****         }
 963:Src/register_interface.c ****         else
 964:Src/register_interface.c ****         {
 965:Src/register_interface.c ****           retVal = MCP_ERROR_NO_TXSYNC_SPACE;
 966:Src/register_interface.c ****         }
 967:Src/register_interface.c ****         break;
 968:Src/register_interface.c ****       }
 969:Src/register_interface.c **** 
 970:Src/register_interface.c ****       case TYPE_DATA_32BIT:
 971:Src/register_interface.c ****       {
 972:Src/register_interface.c ****         uint32_t *regdataU32 = (uint32_t *)data; //cstat !MISRAC2012-Rule-11.3
 973:Src/register_interface.c ****         int32_t *regdata32 = (int32_t *)data; //cstat !MISRAC2012-Rule-11.3
 974:Src/register_interface.c **** 
 975:Src/register_interface.c ****         if (freeSpace >= 4)
 976:Src/register_interface.c ****         {
 977:Src/register_interface.c ****           switch (regID)
ARM GAS  /tmp/ccKFuU3x.s 			page 75


 978:Src/register_interface.c ****           {
 979:Src/register_interface.c ****             case MC_REG_FAULTS_FLAGS:
 980:Src/register_interface.c ****             {
 981:Src/register_interface.c ****               *regdataU32 = MCI_GetFaultState(pMCIN);
 982:Src/register_interface.c ****               break;
 983:Src/register_interface.c ****             }
 984:Src/register_interface.c ****             case MC_REG_SPEED_MEAS:
 985:Src/register_interface.c ****             {
 986:Src/register_interface.c ****               *regdata32 = (((int32_t)MCI_GetAvrgMecSpeedUnit(pMCIN) * U_RPM) / SPEED_UNIT);
 987:Src/register_interface.c ****               break;
 988:Src/register_interface.c ****             }
 989:Src/register_interface.c **** 
 990:Src/register_interface.c ****             case MC_REG_SPEED_REF:
 991:Src/register_interface.c ****             {
 992:Src/register_interface.c ****               *regdata32 = (((int32_t)MCI_GetMecSpeedRefUnit(pMCIN) * U_RPM) / SPEED_UNIT);
 993:Src/register_interface.c ****               break;
 994:Src/register_interface.c ****             }
 995:Src/register_interface.c **** 
 996:Src/register_interface.c ****             case MC_REG_STOPLL_EST_BEMF:
 997:Src/register_interface.c ****             {
 998:Src/register_interface.c ****               *regdata32 = STO_PLL_GetEstimatedBemfLevel(&STO_PLL_M1);
 999:Src/register_interface.c ****               break;
1000:Src/register_interface.c ****             }
1001:Src/register_interface.c **** 
1002:Src/register_interface.c ****             case MC_REG_STOPLL_OBS_BEMF:
1003:Src/register_interface.c ****             {
1004:Src/register_interface.c ****               *regdata32 = STO_PLL_GetObservedBemfLevel(&STO_PLL_M1);
1005:Src/register_interface.c ****               break;
1006:Src/register_interface.c ****             }
1007:Src/register_interface.c **** 
1008:Src/register_interface.c ****             case MC_REG_FF_1Q:
1009:Src/register_interface.c ****             {
1010:Src/register_interface.c ****               *regdata32 = FF_M1.wConstant_1Q;
1011:Src/register_interface.c ****               break;
1012:Src/register_interface.c ****             }
1013:Src/register_interface.c **** 
1014:Src/register_interface.c ****             case MC_REG_FF_1D:
1015:Src/register_interface.c ****             {
1016:Src/register_interface.c ****               *regdata32 = FF_M1.wConstant_1D;
1017:Src/register_interface.c ****               break;
1018:Src/register_interface.c ****             }
1019:Src/register_interface.c **** 
1020:Src/register_interface.c ****             case MC_REG_FF_2:
1021:Src/register_interface.c ****             {
1022:Src/register_interface.c ****               *regdata32 = FF_M1.wConstant_2;
1023:Src/register_interface.c ****               break;
1024:Src/register_interface.c ****             }
1025:Src/register_interface.c **** 
1026:Src/register_interface.c ****             case MC_REG_MOTOR_POWER:
1027:Src/register_interface.c ****             {
1028:Src/register_interface.c ****               FloatToU32 ReadVal; //cstat !MISRAC2012-Rule-19.2
1029:Src/register_interface.c ****               ReadVal.Float_Val = PQD_GetAvrgElMotorPowerW(pMPM[M1]);
1030:Src/register_interface.c ****               *regdataU32 = ReadVal.U32_Val; //cstat !UNION-type-punning
1031:Src/register_interface.c ****               break;
1032:Src/register_interface.c ****             }
1033:Src/register_interface.c **** 
1034:Src/register_interface.c ****             case MC_REG_SC_RS:
ARM GAS  /tmp/ccKFuU3x.s 			page 76


1035:Src/register_interface.c ****             {
1036:Src/register_interface.c ****               *regdataU32 = SCC_GetRs(&SCC);
1037:Src/register_interface.c ****               break;
1038:Src/register_interface.c ****             }
1039:Src/register_interface.c **** 
1040:Src/register_interface.c ****             case MC_REG_SC_LS:
1041:Src/register_interface.c ****             {
1042:Src/register_interface.c ****               *regdataU32 = SCC_GetLs(&SCC);
1043:Src/register_interface.c ****               break;
1044:Src/register_interface.c ****             }
1045:Src/register_interface.c **** 
1046:Src/register_interface.c ****             case MC_REG_SC_KE:
1047:Src/register_interface.c ****             {
1048:Src/register_interface.c ****               *regdataU32 = SCC_GetKe(&SCC);
1049:Src/register_interface.c ****               break;
1050:Src/register_interface.c ****             }
1051:Src/register_interface.c **** 
1052:Src/register_interface.c ****             case MC_REG_SC_VBUS:
1053:Src/register_interface.c ****             {
1054:Src/register_interface.c ****               *regdataU32 = SCC_GetVbus(&SCC);
1055:Src/register_interface.c ****               break;
1056:Src/register_interface.c ****             }
1057:Src/register_interface.c **** 
1058:Src/register_interface.c ****             case MC_REG_SC_MEAS_NOMINALSPEED:
1059:Src/register_interface.c ****             {
1060:Src/register_interface.c ****               *regdataU32 = OTT_GetNominalSpeed(&OTT);
1061:Src/register_interface.c ****               break;
1062:Src/register_interface.c ****             }
1063:Src/register_interface.c **** 
1064:Src/register_interface.c ****             case MC_REG_SC_CURRENT:
1065:Src/register_interface.c ****             {
1066:Src/register_interface.c ****               FloatToU32 ReadVal;
1067:Src/register_interface.c ****               ReadVal.Float_Val = SCC_GetNominalCurrent(&SCC);
1068:Src/register_interface.c ****               *regdataU32 = ReadVal.U32_Val;
1069:Src/register_interface.c ****               break;
1070:Src/register_interface.c ****             }
1071:Src/register_interface.c **** 
1072:Src/register_interface.c ****             case MC_REG_SC_SPDBANDWIDTH:
1073:Src/register_interface.c ****             {
1074:Src/register_interface.c ****               FloatToU32 ReadVal;
1075:Src/register_interface.c ****               ReadVal.Float_Val = OTT_GetSpeedRegulatorBandwidth(&OTT);
1076:Src/register_interface.c ****               *regdataU32 = ReadVal.U32_Val;
1077:Src/register_interface.c ****               break;
1078:Src/register_interface.c ****             }
1079:Src/register_interface.c **** 
1080:Src/register_interface.c ****             case MC_REG_SC_LDLQRATIO:
1081:Src/register_interface.c ****             {
1082:Src/register_interface.c ****               FloatToU32 ReadVal;
1083:Src/register_interface.c ****               ReadVal.Float_Val = SCC_GetLdLqRatio(&SCC);
1084:Src/register_interface.c ****               *regdataU32 = ReadVal.U32_Val;
1085:Src/register_interface.c ****               break;
1086:Src/register_interface.c ****             }
1087:Src/register_interface.c **** 
1088:Src/register_interface.c ****             case MC_REG_SC_NOMINAL_SPEED:
1089:Src/register_interface.c ****             {
1090:Src/register_interface.c ****               *regdata32 = SCC_GetNominalSpeed(&SCC);
1091:Src/register_interface.c ****               break;
ARM GAS  /tmp/ccKFuU3x.s 			page 77


1092:Src/register_interface.c ****             }
1093:Src/register_interface.c **** 
1094:Src/register_interface.c ****             case MC_REG_SC_CURRBANDWIDTH:
1095:Src/register_interface.c ****             {
1096:Src/register_interface.c ****               FloatToU32 ReadVal;
1097:Src/register_interface.c ****               ReadVal.Float_Val = SCC_GetCurrentBandwidth(&SCC);
1098:Src/register_interface.c ****               *regdataU32 = ReadVal.U32_Val;
1099:Src/register_interface.c ****               break;
1100:Src/register_interface.c ****             }
1101:Src/register_interface.c **** 
1102:Src/register_interface.c ****             case MC_REG_SC_J:
1103:Src/register_interface.c ****             {
1104:Src/register_interface.c ****               FloatToU32 ReadVal;
1105:Src/register_interface.c ****               ReadVal.Float_Val = OTT_GetJ(&OTT);
1106:Src/register_interface.c ****               *regdataU32 = ReadVal.U32_Val;
1107:Src/register_interface.c ****               break;
1108:Src/register_interface.c ****             }
1109:Src/register_interface.c **** 
1110:Src/register_interface.c ****             case MC_REG_SC_F:
1111:Src/register_interface.c ****             {
1112:Src/register_interface.c ****               FloatToU32 ReadVal;
1113:Src/register_interface.c ****               ReadVal.Float_Val = OTT_GetF(&OTT);
1114:Src/register_interface.c ****               *regdataU32 = ReadVal.U32_Val;
1115:Src/register_interface.c ****               break;
1116:Src/register_interface.c ****             }
1117:Src/register_interface.c **** 
1118:Src/register_interface.c ****             case MC_REG_SC_MAX_CURRENT:
1119:Src/register_interface.c ****             {
1120:Src/register_interface.c ****               FloatToU32 ReadVal;
1121:Src/register_interface.c ****               ReadVal.Float_Val = SCC_GetStartupCurrentAmp(&SCC);
1122:Src/register_interface.c ****               *regdataU32 = ReadVal.U32_Val;
1123:Src/register_interface.c ****               break;
1124:Src/register_interface.c ****             }
1125:Src/register_interface.c **** 
1126:Src/register_interface.c ****             case MC_REG_SC_STARTUP_SPEED:
1127:Src/register_interface.c ****             {
1128:Src/register_interface.c ****               *regdata32 = SCC_GetEstMaxOLSpeed(&SCC);
1129:Src/register_interface.c ****               break;
1130:Src/register_interface.c ****             }
1131:Src/register_interface.c **** 
1132:Src/register_interface.c ****             case MC_REG_SC_STARTUP_ACC:
1133:Src/register_interface.c ****             {
1134:Src/register_interface.c ****               *regdata32 = SCC_GetEstMaxAcceleration(&SCC);
1135:Src/register_interface.c ****               break;
1136:Src/register_interface.c ****             }
1137:Src/register_interface.c ****             case MC_REG_RESISTOR_OFFSET:
1138:Src/register_interface.c ****             {
1139:Src/register_interface.c ****               FloatToU32 ReadVal;
1140:Src/register_interface.c ****               ReadVal.Float_Val=SCC_GetResistorOffset(&SCC);
1141:Src/register_interface.c ****               *regdata32 =ReadVal.U32_Val;
1142:Src/register_interface.c ****               break;
1143:Src/register_interface.c ****             }
1144:Src/register_interface.c **** 
1145:Src/register_interface.c ****             default:
1146:Src/register_interface.c ****             {
1147:Src/register_interface.c ****               retVal = MCP_ERROR_UNKNOWN_REG;
1148:Src/register_interface.c ****               break;
ARM GAS  /tmp/ccKFuU3x.s 			page 78


1149:Src/register_interface.c ****             }
1150:Src/register_interface.c ****           }
1151:Src/register_interface.c ****           *size = 4;
1152:Src/register_interface.c ****         }
1153:Src/register_interface.c ****         else
1154:Src/register_interface.c ****         {
1155:Src/register_interface.c ****           retVal = MCP_ERROR_NO_TXSYNC_SPACE;
1156:Src/register_interface.c ****         }
1157:Src/register_interface.c ****         break;
1158:Src/register_interface.c ****       }
1159:Src/register_interface.c **** 
1160:Src/register_interface.c ****       case TYPE_DATA_STRING:
1161:Src/register_interface.c ****       {
1162:Src/register_interface.c ****         switch (regID)
1163:Src/register_interface.c ****         {
1164:Src/register_interface.c **** 
1165:Src/register_interface.c ****           default:
1166:Src/register_interface.c ****           {
1167:Src/register_interface.c ****             retVal = MCP_ERROR_UNKNOWN_REG;
1168:Src/register_interface.c ****             *size= 0 ; /* */
1169:Src/register_interface.c ****             break;
1170:Src/register_interface.c ****           }
1171:Src/register_interface.c ****         }
1172:Src/register_interface.c ****         break;
1173:Src/register_interface.c ****       }
1174:Src/register_interface.c **** 
1175:Src/register_interface.c ****       case TYPE_DATA_RAW:
1176:Src/register_interface.c ****       {
1177:Src/register_interface.c ****         /* First 2 bytes of the answer is reserved to the size */
1178:Src/register_interface.c ****         uint16_t *rawSize = (uint16_t *)data; //cstat !MISRAC2012-Rule-11.3
1179:Src/register_interface.c ****         uint8_t * rawData = data;
1180:Src/register_interface.c ****         rawData++;
1181:Src/register_interface.c ****         rawData++;
1182:Src/register_interface.c **** 
1183:Src/register_interface.c ****         switch (regID)
1184:Src/register_interface.c ****         {
1185:Src/register_interface.c ****           case MC_REG_APPLICATION_CONFIG:
1186:Src/register_interface.c ****           {
1187:Src/register_interface.c ****             *rawSize = (uint16_t)sizeof(ApplicationConfig_reg_t);
1188:Src/register_interface.c ****             if (((*rawSize) + 2U) > (uint16_t)freeSpace)
1189:Src/register_interface.c ****             {
1190:Src/register_interface.c ****               retVal = MCP_ERROR_NO_TXSYNC_SPACE;
1191:Src/register_interface.c ****             }
1192:Src/register_interface.c ****             else
1193:Src/register_interface.c ****             {
1194:Src/register_interface.c ****               ApplicationConfig_reg_t const *pApplicationConfig_reg = ApplicationConfig_reg[motorID
1195:Src/register_interface.c ****               (void)memcpy(rawData, (const uint8_t *)pApplicationConfig_reg, sizeof(ApplicationConf
1196:Src/register_interface.c ****             }
1197:Src/register_interface.c ****             break;
1198:Src/register_interface.c ****           }
1199:Src/register_interface.c **** 
1200:Src/register_interface.c ****           case MC_REG_FOCFW_CONFIG:
1201:Src/register_interface.c ****           {
1202:Src/register_interface.c ****             *rawSize = (uint16_t)sizeof(FOCFwConfig_reg_t);
1203:Src/register_interface.c ****             if (((*rawSize) + 2U) > (uint16_t)freeSpace)
1204:Src/register_interface.c ****             {
1205:Src/register_interface.c ****               retVal = MCP_ERROR_NO_TXSYNC_SPACE;
ARM GAS  /tmp/ccKFuU3x.s 			page 79


1206:Src/register_interface.c ****             }
1207:Src/register_interface.c ****             else
1208:Src/register_interface.c ****             {
1209:Src/register_interface.c ****               FOCFwConfig_reg_t const *pFOCConfig_reg = FOCConfig_reg[motorID];
1210:Src/register_interface.c ****               (void)memcpy(rawData, (const uint8_t *)pFOCConfig_reg, sizeof(FOCFwConfig_reg_t));
1211:Src/register_interface.c ****             }
1212:Src/register_interface.c **** 
1213:Src/register_interface.c ****             break;
1214:Src/register_interface.c ****           }
1215:Src/register_interface.c ****           case MC_REG_SCALE_CONFIG:
1216:Src/register_interface.c ****           {
1217:Src/register_interface.c ****             *rawSize = 12;
1218:Src/register_interface.c ****             if ((*rawSize) +2U > (uint16_t)freeSpace)
1219:Src/register_interface.c ****             {
1220:Src/register_interface.c ****               retVal = MCP_ERROR_NO_TXSYNC_SPACE;
1221:Src/register_interface.c ****             }
1222:Src/register_interface.c ****             else
1223:Src/register_interface.c ****             {
1224:Src/register_interface.c ****               memcpy(rawData, &scaleParams_M1, sizeof(ScaleParams_t) );
1225:Src/register_interface.c ****             }
1226:Src/register_interface.c ****             break;
1227:Src/register_interface.c ****           }
1228:Src/register_interface.c ****           case MC_REG_SPEED_RAMP:
1229:Src/register_interface.c ****           {
1230:Src/register_interface.c ****             int32_t *rpm = (int32_t *)rawData; //cstat !MISRAC2012-Rule-11.3
1231:Src/register_interface.c ****             uint16_t *duration = (uint16_t *)&rawData[4]; //cstat !MISRAC2012-Rule-11.3
1232:Src/register_interface.c ****             *rpm = (((int32_t)MCI_GetLastRampFinalSpeed(pMCIN) * U_RPM) / (int32_t)SPEED_UNIT);
1233:Src/register_interface.c ****             *duration = MCI_GetLastRampFinalDuration(pMCIN);
1234:Src/register_interface.c ****             *rawSize = 6;
1235:Src/register_interface.c ****             break;
1236:Src/register_interface.c ****           }
1237:Src/register_interface.c **** 
1238:Src/register_interface.c ****           case MC_REG_ASYNC_UARTA:
1239:Src/register_interface.c ****           case MC_REG_ASYNC_UARTB:
1240:Src/register_interface.c ****           case MC_REG_ASYNC_STLNK:
1241:Src/register_interface.c ****           default:
1242:Src/register_interface.c ****           {
1243:Src/register_interface.c ****             retVal = MCP_ERROR_UNKNOWN_REG;
1244:Src/register_interface.c ****             break;
1245:Src/register_interface.c ****           }
1246:Src/register_interface.c ****         }
1247:Src/register_interface.c **** 
1248:Src/register_interface.c ****         /* Size of the answer is size of the data + 2 bytes containing data size */
1249:Src/register_interface.c ****         *size = (*rawSize) + 2U;
1250:Src/register_interface.c ****         break;
1251:Src/register_interface.c ****       }
1252:Src/register_interface.c **** 
1253:Src/register_interface.c ****       default:
1254:Src/register_interface.c ****       {
1255:Src/register_interface.c ****         retVal = MCP_ERROR_BAD_DATA_TYPE;
1256:Src/register_interface.c ****         break;
1257:Src/register_interface.c ****       }
1258:Src/register_interface.c ****     }
1259:Src/register_interface.c ****     return (retVal);
 1978              		.loc 1 1259 5 is_stmt 1 view .LVU523
1260:Src/register_interface.c ****   }
 1979              		.loc 1 1260 3 is_stmt 0 view .LVU524
ARM GAS  /tmp/ccKFuU3x.s 			page 80


 1980 003e 0DB0     		add	sp, sp, #52
 1981              	.LCFI28:
 1982              		.cfi_remember_state
 1983              		.cfi_def_cfa_offset 12
 1984              		@ sp needed
 1985 0040 30BD     		pop	{r4, r5, pc}
 1986              	.LVL250:
 1987              	.L196:
 1988              	.LCFI29:
 1989              		.cfi_restore_state
 1990              	.LBB204:
1178:Src/register_interface.c ****         uint8_t * rawData = data;
 1991              		.loc 1 1178 9 is_stmt 1 view .LVU525
1179:Src/register_interface.c ****         rawData++;
 1992              		.loc 1 1179 9 view .LVU526
1180:Src/register_interface.c ****         rawData++;
 1993              		.loc 1 1180 9 view .LVU527
1181:Src/register_interface.c **** 
 1994              		.loc 1 1181 9 view .LVU528
 1995 0042 B0F5947F 		cmp	r0, #296
1181:Src/register_interface.c **** 
 1996              		.loc 1 1181 16 is_stmt 0 view .LVU529
 1997 0046 02F10203 		add	r3, r2, #2
 1998              	.LVL251:
1183:Src/register_interface.c ****         {
 1999              		.loc 1 1183 9 is_stmt 1 view .LVU530
 2000 004a 00F03C82 		beq	.L279
 2001 004e 7AD8     		bhi	.L280
 2002 0050 A828     		cmp	r0, #168
 2003 0052 00F02E82 		beq	.L281
 2004 0056 E828     		cmp	r0, #232
 2005 0058 40F02682 		bne	.L283
1202:Src/register_interface.c ****             if (((*rawSize) + 2U) > (uint16_t)freeSpace)
 2006              		.loc 1 1202 13 view .LVU531
1203:Src/register_interface.c ****             {
 2007              		.loc 1 1203 16 is_stmt 0 view .LVU532
 2008 005c 1FFA8EFE 		uxth	lr, lr
1202:Src/register_interface.c ****             if (((*rawSize) + 2U) > (uint16_t)freeSpace)
 2009              		.loc 1 1202 22 view .LVU533
 2010 0060 0E22     		movs	r2, #14
 2011              	.LVL252:
1203:Src/register_interface.c ****             {
 2012              		.loc 1 1203 16 view .LVU534
 2013 0062 BEF10F0F 		cmp	lr, #15
1202:Src/register_interface.c ****             if (((*rawSize) + 2U) > (uint16_t)freeSpace)
 2014              		.loc 1 1202 22 view .LVU535
 2015 0066 2280     		strh	r2, [r4]	@ movhi
1203:Src/register_interface.c ****             {
 2016              		.loc 1 1203 13 is_stmt 1 view .LVU536
1203:Src/register_interface.c ****             {
 2017              		.loc 1 1203 16 is_stmt 0 view .LVU537
 2018 0068 00F20B82 		bhi	.L301
 2019 006c 1023     		movs	r3, #16
 2020              	.LVL253:
1205:Src/register_interface.c ****             }
 2021              		.loc 1 1205 22 view .LVU538
 2022 006e 0820     		movs	r0, #8
ARM GAS  /tmp/ccKFuU3x.s 			page 81


 2023              	.LVL254:
 2024              	.L285:
1249:Src/register_interface.c ****         break;
 2025              		.loc 1 1249 9 is_stmt 1 view .LVU539
1249:Src/register_interface.c ****         break;
 2026              		.loc 1 1249 15 is_stmt 0 view .LVU540
 2027 0070 2B80     		strh	r3, [r5]	@ movhi
1250:Src/register_interface.c ****       }
 2028              		.loc 1 1250 9 is_stmt 1 view .LVU541
1250:Src/register_interface.c ****       }
 2029              		.loc 1 1250 9 is_stmt 0 view .LVU542
 2030              	.LBE204:
1259:Src/register_interface.c ****   }
 2031              		.loc 1 1259 5 is_stmt 1 view .LVU543
 2032              		.loc 1 1260 3 is_stmt 0 view .LVU544
 2033 0072 0DB0     		add	sp, sp, #52
 2034              	.LCFI30:
 2035              		.cfi_remember_state
 2036              		.cfi_def_cfa_offset 12
 2037              		@ sp needed
 2038 0074 30BD     		pop	{r4, r5, pc}
 2039              	.LVL255:
 2040              	.L201:
 2041              	.LCFI31:
 2042              		.cfi_restore_state
 714:Src/register_interface.c ****         {
 2043              		.loc 1 714 9 is_stmt 1 view .LVU545
 714:Src/register_interface.c ****         {
 2044              		.loc 1 714 12 is_stmt 0 view .LVU546
 2045 0076 BEF1000F 		cmp	lr, #0
 2046 007a 40F31382 		ble	.L287
 716:Src/register_interface.c ****           {
 2047              		.loc 1 716 11 is_stmt 1 view .LVU547
 2048 007e B0F5816F 		cmp	r0, #1032
 2049 0082 00F03E82 		beq	.L202
 2050 0086 7FD8     		bhi	.L203
 2051 0088 C828     		cmp	r0, #200
 2052 008a 00F03482 		beq	.L204
 2053 008e 6FD9     		bls	.L302
 2054 0090 B0F5727F 		cmp	r0, #968
 2055 0094 40F00482 		bne	.L297
 738:Src/register_interface.c ****               break;
 2056              		.loc 1 738 15 view .LVU548
 738:Src/register_interface.c ****               break;
 2057              		.loc 1 738 21 is_stmt 0 view .LVU549
 2058 0098 0123     		movs	r3, #1
 2059 009a 1370     		strb	r3, [r2]
 739:Src/register_interface.c ****             }
 2060              		.loc 1 739 15 is_stmt 1 view .LVU550
 706:Src/register_interface.c ****     uint8_t motorID=0;
 2061              		.loc 1 706 13 is_stmt 0 view .LVU551
 2062 009c 0020     		movs	r0, #0
 2063              	.LVL256:
 2064              	.L208:
 784:Src/register_interface.c ****         }
 2065              		.loc 1 784 11 is_stmt 1 view .LVU552
 784:Src/register_interface.c ****         }
ARM GAS  /tmp/ccKFuU3x.s 			page 82


 2066              		.loc 1 784 17 is_stmt 0 view .LVU553
 2067 009e 0123     		movs	r3, #1
 2068 00a0 2B80     		strh	r3, [r5]	@ movhi
1259:Src/register_interface.c ****   }
 2069              		.loc 1 1259 5 is_stmt 1 view .LVU554
 2070              		.loc 1 1260 3 is_stmt 0 view .LVU555
 2071 00a2 0DB0     		add	sp, sp, #52
 2072              	.LCFI32:
 2073              		.cfi_remember_state
 2074              		.cfi_def_cfa_offset 12
 2075              		@ sp needed
 2076 00a4 30BD     		pop	{r4, r5, pc}
 2077              	.LVL257:
 2078              	.L200:
 2079              	.LCFI33:
 2080              		.cfi_restore_state
 2081              	.LBB211:
 795:Src/register_interface.c ****         int16_t *regdata16 = (int16_t *) data; //cstat !MISRAC2012-Rule-11.3
 2082              		.loc 1 795 9 is_stmt 1 view .LVU556
 796:Src/register_interface.c **** 
 2083              		.loc 1 796 9 view .LVU557
 798:Src/register_interface.c ****         {
 2084              		.loc 1 798 9 view .LVU558
 798:Src/register_interface.c ****         {
 2085              		.loc 1 798 12 is_stmt 0 view .LVU559
 2086 00a6 BEF1010F 		cmp	lr, #1
 2087 00aa 40F3E581 		ble	.L292
 800:Src/register_interface.c ****           {
 2088              		.loc 1 800 11 is_stmt 1 view .LVU560
 2089 00ae B0F5296F 		cmp	r0, #2704
 2090 00b2 00F06482 		beq	.L215
 2091 00b6 00F28380 		bhi	.L216
 2092 00ba B0F5926F 		cmp	r0, #1168
 2093 00be 00F08A82 		beq	.L217
 2094 00c2 00F2DE80 		bhi	.L218
 2095 00c6 B0F5547F 		cmp	r0, #848
 2096 00ca 00F07A82 		beq	.L219
 2097 00ce 6BD9     		bls	.L303
 2098 00d0 B0F5647F 		cmp	r0, #912
 2099 00d4 00F04182 		beq	.L225
 2100 00d8 B0F58A6F 		cmp	r0, #1104
 2101 00dc 7FD1     		bne	.L289
 902:Src/register_interface.c ****               break;
 2102              		.loc 1 902 15 view .LVU561
 902:Src/register_interface.c ****               break;
 2103              		.loc 1 902 28 is_stmt 0 view .LVU562
 2104 00de B348     		ldr	r0, .L319
 2105              	.LVL258:
 902:Src/register_interface.c ****               break;
 2106              		.loc 1 902 28 view .LVU563
 2107 00e0 FFF7FEFF 		bl	PID_GetKI
 2108              	.LVL259:
 902:Src/register_interface.c ****               break;
 2109              		.loc 1 902 26 view .LVU564
 2110 00e4 2080     		strh	r0, [r4]	@ movhi
 2111              	.LVL260:
 903:Src/register_interface.c ****             }
ARM GAS  /tmp/ccKFuU3x.s 			page 83


 2112              		.loc 1 903 15 is_stmt 1 view .LVU565
 2113              	.LBE211:
 706:Src/register_interface.c ****     uint8_t motorID=0;
 2114              		.loc 1 706 13 is_stmt 0 view .LVU566
 2115 00e6 0020     		movs	r0, #0
 2116              	.L224:
 2117              	.LVL261:
 2118              	.LBB222:
 961:Src/register_interface.c ****         }
 2119              		.loc 1 961 11 is_stmt 1 view .LVU567
 961:Src/register_interface.c ****         }
 2120              		.loc 1 961 17 is_stmt 0 view .LVU568
 2121 00e8 0223     		movs	r3, #2
 2122 00ea 2B80     		strh	r3, [r5]	@ movhi
 2123              	.L309:
 961:Src/register_interface.c ****         }
 2124              		.loc 1 961 17 view .LVU569
 2125              	.LBE222:
1259:Src/register_interface.c ****   }
 2126              		.loc 1 1259 5 is_stmt 1 view .LVU570
 2127              		.loc 1 1260 3 is_stmt 0 view .LVU571
 2128 00ec 0DB0     		add	sp, sp, #52
 2129              	.LCFI34:
 2130              		.cfi_remember_state
 2131              		.cfi_def_cfa_offset 12
 2132              		@ sp needed
 2133 00ee 30BD     		pop	{r4, r5, pc}
 2134              	.LVL262:
 2135              	.L199:
 2136              	.LCFI35:
 2137              		.cfi_restore_state
 2138              	.LBB223:
 972:Src/register_interface.c ****         int32_t *regdata32 = (int32_t *)data; //cstat !MISRAC2012-Rule-11.3
 2139              		.loc 1 972 9 is_stmt 1 view .LVU572
 973:Src/register_interface.c **** 
 2140              		.loc 1 973 9 view .LVU573
 975:Src/register_interface.c ****         {
 2141              		.loc 1 975 9 view .LVU574
 975:Src/register_interface.c ****         {
 2142              		.loc 1 975 12 is_stmt 0 view .LVU575
 2143 00f0 BEF1030F 		cmp	lr, #3
 2144 00f4 40F3C081 		ble	.L292
 977:Src/register_interface.c ****           {
 2145              		.loc 1 977 11 is_stmt 1 view .LVU576
 2146 00f8 41F2D873 		movw	r3, #6104
 2147 00fc 9842     		cmp	r0, r3
 2148 00fe 00F00B83 		beq	.L247
 2149 0102 00F21B81 		bhi	.L248
 2150 0106 B0F5067F 		cmp	r0, #536
 2151 010a 00F00083 		beq	.L249
 2152 010e 00F2FC80 		bhi	.L250
 2153 0112 D828     		cmp	r0, #216
 2154 0114 00F0F582 		beq	.L251
 2155 0118 40F2E980 		bls	.L304
 2156 011c B0F58C7F 		cmp	r0, #280
 2157 0120 00F0AD82 		beq	.L257
 2158 0124 B0F5EC7F 		cmp	r0, #472
ARM GAS  /tmp/ccKFuU3x.s 			page 84


 2159 0128 40F0FE82 		bne	.L300
1010:Src/register_interface.c ****               break;
 2160              		.loc 1 1010 15 view .LVU577
1010:Src/register_interface.c ****               break;
 2161              		.loc 1 1010 33 is_stmt 0 view .LVU578
 2162 012c A04B     		ldr	r3, .L319+4
 2163 012e 1B69     		ldr	r3, [r3, #16]
1010:Src/register_interface.c ****               break;
 2164              		.loc 1 1010 26 view .LVU579
 2165 0130 1360     		str	r3, [r2]
1011:Src/register_interface.c ****             }
 2166              		.loc 1 1011 15 is_stmt 1 view .LVU580
 2167              	.LBE223:
 706:Src/register_interface.c ****     uint8_t motorID=0;
 2168              		.loc 1 706 13 is_stmt 0 view .LVU581
 2169 0132 0020     		movs	r0, #0
 2170              	.LVL263:
 2171              	.L256:
 2172              	.LBB280:
1151:Src/register_interface.c ****         }
 2173              		.loc 1 1151 11 is_stmt 1 view .LVU582
1151:Src/register_interface.c ****         }
 2174              		.loc 1 1151 17 is_stmt 0 view .LVU583
 2175 0134 0423     		movs	r3, #4
 2176 0136 2B80     		strh	r3, [r5]	@ movhi
1151:Src/register_interface.c ****         }
 2177              		.loc 1 1151 17 view .LVU584
 2178              	.LBE280:
1259:Src/register_interface.c ****   }
 2179              		.loc 1 1259 5 is_stmt 1 view .LVU585
 2180              		.loc 1 1260 3 is_stmt 0 view .LVU586
 2181 0138 0DB0     		add	sp, sp, #52
 2182              	.LCFI36:
 2183              		.cfi_remember_state
 2184              		.cfi_def_cfa_offset 12
 2185              		@ sp needed
 2186 013a 30BD     		pop	{r4, r5, pc}
 2187              	.LVL264:
 2188              	.L198:
 2189              	.LCFI37:
 2190              		.cfi_restore_state
1162:Src/register_interface.c ****         {
 2191              		.loc 1 1162 9 is_stmt 1 view .LVU587
1167:Src/register_interface.c ****             *size= 0 ; /* */
 2192              		.loc 1 1167 13 view .LVU588
1168:Src/register_interface.c ****             break;
 2193              		.loc 1 1168 13 view .LVU589
1168:Src/register_interface.c ****             break;
 2194              		.loc 1 1168 18 is_stmt 0 view .LVU590
 2195 013c 0023     		movs	r3, #0
1167:Src/register_interface.c ****             *size= 0 ; /* */
 2196              		.loc 1 1167 20 view .LVU591
 2197 013e 0520     		movs	r0, #5
 2198              	.LVL265:
1168:Src/register_interface.c ****             break;
 2199              		.loc 1 1168 18 view .LVU592
 2200 0140 2B80     		strh	r3, [r5]	@ movhi
ARM GAS  /tmp/ccKFuU3x.s 			page 85


1169:Src/register_interface.c ****           }
 2201              		.loc 1 1169 13 is_stmt 1 view .LVU593
 2202              	.LVL266:
1259:Src/register_interface.c ****   }
 2203              		.loc 1 1259 5 view .LVU594
 2204              		.loc 1 1260 3 is_stmt 0 view .LVU595
 2205 0142 0DB0     		add	sp, sp, #52
 2206              	.LCFI38:
 2207              		.cfi_remember_state
 2208              		.cfi_def_cfa_offset 12
 2209              		@ sp needed
 2210 0144 30BD     		pop	{r4, r5, pc}
 2211              	.LVL267:
 2212              	.L280:
 2213              	.LCFI39:
 2214              		.cfi_restore_state
 2215              	.LBB281:
 2216              		.loc 1 1260 3 view .LVU596
 2217 0146 B0F5D47F 		cmp	r0, #424
 2218 014a 40F0AD81 		bne	.L283
 2219              	.LBB205:
1230:Src/register_interface.c ****             uint16_t *duration = (uint16_t *)&rawData[4]; //cstat !MISRAC2012-Rule-11.3
 2220              		.loc 1 1230 13 is_stmt 1 view .LVU597
 2221              	.LVL268:
1231:Src/register_interface.c ****             *rpm = (((int32_t)MCI_GetLastRampFinalSpeed(pMCIN) * U_RPM) / (int32_t)SPEED_UNIT);
 2222              		.loc 1 1231 13 view .LVU598
1232:Src/register_interface.c ****             *duration = MCI_GetLastRampFinalDuration(pMCIN);
 2223              		.loc 1 1232 13 view .LVU599
1232:Src/register_interface.c ****             *duration = MCI_GetLastRampFinalDuration(pMCIN);
 2224              		.loc 1 1232 31 is_stmt 0 view .LVU600
 2225 014e 9948     		ldr	r0, .L319+8
 2226              	.LVL269:
1232:Src/register_interface.c ****             *duration = MCI_GetLastRampFinalDuration(pMCIN);
 2227              		.loc 1 1232 31 view .LVU601
 2228 0150 FFF7FEFF 		bl	MCI_GetLastRampFinalSpeed
 2229              	.LVL270:
1232:Src/register_interface.c ****             *duration = MCI_GetLastRampFinalDuration(pMCIN);
 2230              		.loc 1 1232 73 view .LVU602
 2231 0154 00EB4000 		add	r0, r0, r0, lsl #1
 2232 0158 4300     		lsls	r3, r0, #1
1232:Src/register_interface.c ****             *duration = MCI_GetLastRampFinalDuration(pMCIN);
 2233              		.loc 1 1232 18 view .LVU603
 2234 015a C4F80230 		str	r3, [r4, #2]
1233:Src/register_interface.c ****             *rawSize = 6;
 2235              		.loc 1 1233 13 is_stmt 1 view .LVU604
1233:Src/register_interface.c ****             *rawSize = 6;
 2236              		.loc 1 1233 25 is_stmt 0 view .LVU605
 2237 015e 9548     		ldr	r0, .L319+8
 2238 0160 FFF7FEFF 		bl	MCI_GetLastRampFinalDuration
 2239              	.LVL271:
1234:Src/register_interface.c ****             break;
 2240              		.loc 1 1234 22 view .LVU606
 2241 0164 0623     		movs	r3, #6
1233:Src/register_interface.c ****             *rawSize = 6;
 2242              		.loc 1 1233 23 view .LVU607
 2243 0166 E080     		strh	r0, [r4, #6]	@ movhi
1234:Src/register_interface.c ****             break;
ARM GAS  /tmp/ccKFuU3x.s 			page 86


 2244              		.loc 1 1234 13 is_stmt 1 view .LVU608
1234:Src/register_interface.c ****             break;
 2245              		.loc 1 1234 22 is_stmt 0 view .LVU609
 2246 0168 2380     		strh	r3, [r4]	@ movhi
1235:Src/register_interface.c ****           }
 2247              		.loc 1 1235 13 is_stmt 1 view .LVU610
 2248              	.LBE205:
 2249              	.LBE281:
 706:Src/register_interface.c ****     uint8_t motorID=0;
 2250              		.loc 1 706 13 is_stmt 0 view .LVU611
 2251 016a 0020     		movs	r0, #0
 2252              	.LBB282:
 2253              	.LBB206:
1235:Src/register_interface.c ****           }
 2254              		.loc 1 1235 13 view .LVU612
 2255 016c 0823     		movs	r3, #8
 2256 016e 7FE7     		b	.L285
 2257              	.LVL272:
 2258              	.L302:
1235:Src/register_interface.c ****           }
 2259              		.loc 1 1235 13 view .LVU613
 2260              	.LBE206:
 2261              	.LBE282:
 2262 0170 4828     		cmp	r0, #72
 2263 0172 00F0DD81 		beq	.L206
 2264 0176 8828     		cmp	r0, #136
 2265 0178 40F09281 		bne	.L297
 726:Src/register_interface.c ****               break;
 2266              		.loc 1 726 15 is_stmt 1 view .LVU614
 726:Src/register_interface.c ****               break;
 2267              		.loc 1 726 32 is_stmt 0 view .LVU615
 2268 017c 8D48     		ldr	r0, .L319+8
 2269              	.LVL273:
 726:Src/register_interface.c ****               break;
 2270              		.loc 1 726 32 view .LVU616
 2271 017e FFF7FEFF 		bl	MCI_GetControlMode
 2272              	.LVL274:
 726:Src/register_interface.c ****               break;
 2273              		.loc 1 726 21 view .LVU617
 2274 0182 2070     		strb	r0, [r4]
 727:Src/register_interface.c ****             }
 2275              		.loc 1 727 15 is_stmt 1 view .LVU618
 706:Src/register_interface.c ****     uint8_t motorID=0;
 2276              		.loc 1 706 13 is_stmt 0 view .LVU619
 2277 0184 0020     		movs	r0, #0
 727:Src/register_interface.c ****             }
 2278              		.loc 1 727 15 view .LVU620
 2279 0186 8AE7     		b	.L208
 2280              	.LVL275:
 2281              	.L203:
 727:Src/register_interface.c ****             }
 2282              		.loc 1 727 15 view .LVU621
 2283 0188 B0F5996F 		cmp	r0, #1224
 2284 018c 00F0C481 		beq	.L210
 2285 0190 40F29180 		bls	.L305
 2286 0194 B0F5A16F 		cmp	r0, #1288
 2287 0198 40F08281 		bne	.L297
ARM GAS  /tmp/ccKFuU3x.s 			page 87


 774:Src/register_interface.c ****               break;
 2288              		.loc 1 774 15 is_stmt 1 view .LVU622
 2289              	.LVL276:
 2290              	.LBB283:
 2291              	.LBI283:
 298:MCSDK_v6.3.2-Full/MotorControl/MCSDK/MCLib/Any/Inc/mp_one_touch_tuning.h **** 
 299:MCSDK_v6.3.2-Full/MotorControl/MCSDK/MCLib/Any/Inc/mp_one_touch_tuning.h **** /**
 300:MCSDK_v6.3.2-Full/MotorControl/MCSDK/MCLib/Any/Inc/mp_one_touch_tuning.h ****   * @brief  Get the speed regulator bandwidth.
 301:MCSDK_v6.3.2-Full/MotorControl/MCSDK/MCLib/Any/Inc/mp_one_touch_tuning.h ****   * @param  this related object of class COTT.
 302:MCSDK_v6.3.2-Full/MotorControl/MCSDK/MCLib/Any/Inc/mp_one_touch_tuning.h ****   * @retval float Current regulator bandwidth espressed in rad/s.
 303:MCSDK_v6.3.2-Full/MotorControl/MCSDK/MCLib/Any/Inc/mp_one_touch_tuning.h ****   */
 304:MCSDK_v6.3.2-Full/MotorControl/MCSDK/MCLib/Any/Inc/mp_one_touch_tuning.h **** static inline float OTT_GetSpeedRegulatorBandwidth(OTT_Handle_t *pHandle)
 305:MCSDK_v6.3.2-Full/MotorControl/MCSDK/MCLib/Any/Inc/mp_one_touch_tuning.h **** {
 306:MCSDK_v6.3.2-Full/MotorControl/MCSDK/MCLib/Any/Inc/mp_one_touch_tuning.h ****   return pHandle->fBW;
 307:MCSDK_v6.3.2-Full/MotorControl/MCSDK/MCLib/Any/Inc/mp_one_touch_tuning.h **** }
 308:MCSDK_v6.3.2-Full/MotorControl/MCSDK/MCLib/Any/Inc/mp_one_touch_tuning.h **** 
 309:MCSDK_v6.3.2-Full/MotorControl/MCSDK/MCLib/Any/Inc/mp_one_touch_tuning.h **** /**
 310:MCSDK_v6.3.2-Full/MotorControl/MCSDK/MCLib/Any/Inc/mp_one_touch_tuning.h ****   * @brief  Get the measured inertia of the motor.
 311:MCSDK_v6.3.2-Full/MotorControl/MCSDK/MCLib/Any/Inc/mp_one_touch_tuning.h ****   * @param  this related object of class COTT.
 312:MCSDK_v6.3.2-Full/MotorControl/MCSDK/MCLib/Any/Inc/mp_one_touch_tuning.h ****   * @retval float Measured inertia of the motor expressed in Kgm^2.
 313:MCSDK_v6.3.2-Full/MotorControl/MCSDK/MCLib/Any/Inc/mp_one_touch_tuning.h ****   */
 314:MCSDK_v6.3.2-Full/MotorControl/MCSDK/MCLib/Any/Inc/mp_one_touch_tuning.h **** static inline float OTT_GetJ(OTT_Handle_t *pHandle)
 315:MCSDK_v6.3.2-Full/MotorControl/MCSDK/MCLib/Any/Inc/mp_one_touch_tuning.h **** {
 316:MCSDK_v6.3.2-Full/MotorControl/MCSDK/MCLib/Any/Inc/mp_one_touch_tuning.h ****   float fFact = 5.88913e-7;
 317:MCSDK_v6.3.2-Full/MotorControl/MCSDK/MCLib/Any/Inc/mp_one_touch_tuning.h ****   return (pHandle->fJ * fFact * pHandle->fKe) / (pHandle->pOTT_Params_str->fRshunt 
 318:MCSDK_v6.3.2-Full/MotorControl/MCSDK/MCLib/Any/Inc/mp_one_touch_tuning.h ****                                                 * pHandle->pOTT_Params_str->fAmplificationGain);
 319:MCSDK_v6.3.2-Full/MotorControl/MCSDK/MCLib/Any/Inc/mp_one_touch_tuning.h **** }
 320:MCSDK_v6.3.2-Full/MotorControl/MCSDK/MCLib/Any/Inc/mp_one_touch_tuning.h **** 
 321:MCSDK_v6.3.2-Full/MotorControl/MCSDK/MCLib/Any/Inc/mp_one_touch_tuning.h **** /**
 322:MCSDK_v6.3.2-Full/MotorControl/MCSDK/MCLib/Any/Inc/mp_one_touch_tuning.h ****   * @brief  Get the measured friction of the motor.
 323:MCSDK_v6.3.2-Full/MotorControl/MCSDK/MCLib/Any/Inc/mp_one_touch_tuning.h ****   * @param  this related object of class COTT.
 324:MCSDK_v6.3.2-Full/MotorControl/MCSDK/MCLib/Any/Inc/mp_one_touch_tuning.h ****   * @retval float Measured friction of the motor expressed in Nms.
 325:MCSDK_v6.3.2-Full/MotorControl/MCSDK/MCLib/Any/Inc/mp_one_touch_tuning.h ****   */
 326:MCSDK_v6.3.2-Full/MotorControl/MCSDK/MCLib/Any/Inc/mp_one_touch_tuning.h **** static inline float OTT_GetF( OTT_Handle_t * pHandle )
 327:MCSDK_v6.3.2-Full/MotorControl/MCSDK/MCLib/Any/Inc/mp_one_touch_tuning.h **** {
 328:MCSDK_v6.3.2-Full/MotorControl/MCSDK/MCLib/Any/Inc/mp_one_touch_tuning.h ****   float fFact = 5.88913e-7;
 329:MCSDK_v6.3.2-Full/MotorControl/MCSDK/MCLib/Any/Inc/mp_one_touch_tuning.h ****   return (pHandle->fF * fFact * pHandle->fKe) / (pHandle->pOTT_Params_str->fRshunt 
 330:MCSDK_v6.3.2-Full/MotorControl/MCSDK/MCLib/Any/Inc/mp_one_touch_tuning.h ****                                                 * pHandle->pOTT_Params_str->fAmplificationGain);
 331:MCSDK_v6.3.2-Full/MotorControl/MCSDK/MCLib/Any/Inc/mp_one_touch_tuning.h **** }
 332:MCSDK_v6.3.2-Full/MotorControl/MCSDK/MCLib/Any/Inc/mp_one_touch_tuning.h **** 
 333:MCSDK_v6.3.2-Full/MotorControl/MCSDK/MCLib/Any/Inc/mp_one_touch_tuning.h **** /**
 334:MCSDK_v6.3.2-Full/MotorControl/MCSDK/MCLib/Any/Inc/mp_one_touch_tuning.h ****   * @brief  Set the nominal speed according motor datasheet.
 335:MCSDK_v6.3.2-Full/MotorControl/MCSDK/MCLib/Any/Inc/mp_one_touch_tuning.h ****   *         This function shall be called before the start
 336:MCSDK_v6.3.2-Full/MotorControl/MCSDK/MCLib/Any/Inc/mp_one_touch_tuning.h ****   *         of the MP procedure.
 337:MCSDK_v6.3.2-Full/MotorControl/MCSDK/MCLib/Any/Inc/mp_one_touch_tuning.h ****   * @param  this related object of class COTT.
 338:MCSDK_v6.3.2-Full/MotorControl/MCSDK/MCLib/Any/Inc/mp_one_touch_tuning.h ****   * @param  wNominalSpeed Nominal speed expressed in RPM.
 339:MCSDK_v6.3.2-Full/MotorControl/MCSDK/MCLib/Any/Inc/mp_one_touch_tuning.h ****   * @retval none
 340:MCSDK_v6.3.2-Full/MotorControl/MCSDK/MCLib/Any/Inc/mp_one_touch_tuning.h ****   */
 341:MCSDK_v6.3.2-Full/MotorControl/MCSDK/MCLib/Any/Inc/mp_one_touch_tuning.h **** static inline void OTT_SetNominalSpeed(OTT_Handle_t *pHandle, int32_t wNominalSpeed)
 342:MCSDK_v6.3.2-Full/MotorControl/MCSDK/MCLib/Any/Inc/mp_one_touch_tuning.h **** {
 343:MCSDK_v6.3.2-Full/MotorControl/MCSDK/MCLib/Any/Inc/mp_one_touch_tuning.h ****   pHandle->wNominalSpeed = wNominalSpeed;
 344:MCSDK_v6.3.2-Full/MotorControl/MCSDK/MCLib/Any/Inc/mp_one_touch_tuning.h **** }
 345:MCSDK_v6.3.2-Full/MotorControl/MCSDK/MCLib/Any/Inc/mp_one_touch_tuning.h **** 
 346:MCSDK_v6.3.2-Full/MotorControl/MCSDK/MCLib/Any/Inc/mp_one_touch_tuning.h **** /**
 347:MCSDK_v6.3.2-Full/MotorControl/MCSDK/MCLib/Any/Inc/mp_one_touch_tuning.h ****   * @brief  Store the Ke measured by the SCC for the OTT purpouses.
 348:MCSDK_v6.3.2-Full/MotorControl/MCSDK/MCLib/Any/Inc/mp_one_touch_tuning.h ****   * @param  this related object of class COTT.
 349:MCSDK_v6.3.2-Full/MotorControl/MCSDK/MCLib/Any/Inc/mp_one_touch_tuning.h ****   * @param  fKe Last measured Ke.
ARM GAS  /tmp/ccKFuU3x.s 			page 88


 350:MCSDK_v6.3.2-Full/MotorControl/MCSDK/MCLib/Any/Inc/mp_one_touch_tuning.h ****   * @retval none
 351:MCSDK_v6.3.2-Full/MotorControl/MCSDK/MCLib/Any/Inc/mp_one_touch_tuning.h ****   */
 352:MCSDK_v6.3.2-Full/MotorControl/MCSDK/MCLib/Any/Inc/mp_one_touch_tuning.h **** static inline void OTT_SetKe(OTT_Handle_t *pHandle, float fKe)
 353:MCSDK_v6.3.2-Full/MotorControl/MCSDK/MCLib/Any/Inc/mp_one_touch_tuning.h **** {
 354:MCSDK_v6.3.2-Full/MotorControl/MCSDK/MCLib/Any/Inc/mp_one_touch_tuning.h ****   pHandle->fKe = fKe;
 355:MCSDK_v6.3.2-Full/MotorControl/MCSDK/MCLib/Any/Inc/mp_one_touch_tuning.h **** }
 356:MCSDK_v6.3.2-Full/MotorControl/MCSDK/MCLib/Any/Inc/mp_one_touch_tuning.h **** 
 357:MCSDK_v6.3.2-Full/MotorControl/MCSDK/MCLib/Any/Inc/mp_one_touch_tuning.h **** /**
 358:MCSDK_v6.3.2-Full/MotorControl/MCSDK/MCLib/Any/Inc/mp_one_touch_tuning.h ****   * @brief  Return true if the motor has been already profiled.
 359:MCSDK_v6.3.2-Full/MotorControl/MCSDK/MCLib/Any/Inc/mp_one_touch_tuning.h ****   * @param  this related object of class COTT.
 360:MCSDK_v6.3.2-Full/MotorControl/MCSDK/MCLib/Any/Inc/mp_one_touch_tuning.h ****   * @retval bool TRUE if the if the motor has been already profiled,
 361:MCSDK_v6.3.2-Full/MotorControl/MCSDK/MCLib/Any/Inc/mp_one_touch_tuning.h ****   *         FALSE otherwise.
 362:MCSDK_v6.3.2-Full/MotorControl/MCSDK/MCLib/Any/Inc/mp_one_touch_tuning.h ****   */
 363:MCSDK_v6.3.2-Full/MotorControl/MCSDK/MCLib/Any/Inc/mp_one_touch_tuning.h **** static inline bool OTT_IsMotorAlreadyProfiled(OTT_Handle_t *pHandle)
 2292              		.loc 3 363 20 view .LVU623
 2293              	.LBB284:
 364:MCSDK_v6.3.2-Full/MotorControl/MCSDK/MCLib/Any/Inc/mp_one_touch_tuning.h **** {
 365:MCSDK_v6.3.2-Full/MotorControl/MCSDK/MCLib/Any/Inc/mp_one_touch_tuning.h ****   return pHandle->bPI_Tuned;
 2294              		.loc 3 365 3 view .LVU624
 2295              		.loc 3 365 17 is_stmt 0 view .LVU625
 2296 019c 864B     		ldr	r3, .L319+12
 2297              	.LBE284:
 2298              	.LBE283:
 774:Src/register_interface.c ****               break;
 2299              		.loc 1 774 21 view .LVU626
 2300 019e 93F86230 		ldrb	r3, [r3, #98]	@ zero_extendqisi2
 2301 01a2 1370     		strb	r3, [r2]
 775:Src/register_interface.c ****              }
 2302              		.loc 1 775 15 is_stmt 1 view .LVU627
 706:Src/register_interface.c ****     uint8_t motorID=0;
 2303              		.loc 1 706 13 is_stmt 0 view .LVU628
 2304 01a4 0020     		movs	r0, #0
 2305              	.LVL277:
 775:Src/register_interface.c ****              }
 2306              		.loc 1 775 15 view .LVU629
 2307 01a6 7AE7     		b	.L208
 2308              	.LVL278:
 2309              	.L303:
 2310              	.LBB285:
 775:Src/register_interface.c ****              }
 2311              		.loc 1 775 15 view .LVU630
 2312 01a8 D028     		cmp	r0, #208
 2313 01aa 00F0F681 		beq	.L221
 2314 01ae B0F5887F 		cmp	r0, #272
 2315 01b2 78D1     		bne	.L306
 816:Src/register_interface.c ****               break;
 2316              		.loc 1 816 15 is_stmt 1 view .LVU631
 816:Src/register_interface.c ****               break;
 2317              		.loc 1 816 28 is_stmt 0 view .LVU632
 2318 01b4 8148     		ldr	r0, .L319+16
 2319              	.LVL279:
 816:Src/register_interface.c ****               break;
 2320              		.loc 1 816 28 view .LVU633
 2321 01b6 FFF7FEFF 		bl	PID_GetKD
 2322              	.LVL280:
 816:Src/register_interface.c ****               break;
 2323              		.loc 1 816 26 view .LVU634
ARM GAS  /tmp/ccKFuU3x.s 			page 89


 2324 01ba 2080     		strh	r0, [r4]	@ movhi
 2325              	.LVL281:
 817:Src/register_interface.c ****             }
 2326              		.loc 1 817 15 is_stmt 1 view .LVU635
 2327              	.LBE285:
 706:Src/register_interface.c ****     uint8_t motorID=0;
 2328              		.loc 1 706 13 is_stmt 0 view .LVU636
 2329 01bc 0020     		movs	r0, #0
 2330              	.LBB286:
 817:Src/register_interface.c ****             }
 2331              		.loc 1 817 15 view .LVU637
 2332 01be 93E7     		b	.L224
 2333              	.LVL282:
 2334              	.L216:
 817:Src/register_interface.c ****             }
 2335              		.loc 1 817 15 view .LVU638
 2336 01c0 B0F57D6F 		cmp	r0, #4048
 2337 01c4 00F01582 		beq	.L233
 2338 01c8 25D8     		bhi	.L234
 2339 01ca B0F5496F 		cmp	r0, #3216
 2340 01ce 00F00882 		beq	.L235
 2341 01d2 13D9     		bls	.L307
 2342 01d4 B0F5796F 		cmp	r0, #3984
 2343 01d8 00F01382 		beq	.L240
 2344 01dc 01D9     		bls	.L308
 2345              	.L289:
 817:Src/register_interface.c ****             }
 2346              		.loc 1 817 15 view .LVU639
 2347 01de 0520     		movs	r0, #5
 2348              	.LVL283:
 817:Src/register_interface.c ****             }
 2349              		.loc 1 817 15 view .LVU640
 2350 01e0 82E7     		b	.L224
 2351              	.LVL284:
 2352              	.L308:
 817:Src/register_interface.c ****             }
 2353              		.loc 1 817 15 view .LVU641
 2354 01e2 B0F5656F 		cmp	r0, #3664
 2355 01e6 00F04A81 		beq	.L290
 2356              	.LBE286:
 706:Src/register_interface.c ****     uint8_t motorID=0;
 2357              		.loc 1 706 13 view .LVU642
 2358 01ea B0F5696F 		cmp	r0, #3728
 2359              	.LBB287:
 961:Src/register_interface.c ****         }
 2360              		.loc 1 961 17 view .LVU643
 2361 01ee 4FF00203 		mov	r3, #2
 2362              	.LBE287:
 706:Src/register_interface.c ****     uint8_t motorID=0;
 2363              		.loc 1 706 13 view .LVU644
 2364 01f2 14BF     		ite	ne
 2365 01f4 0520     		movne	r0, #5
 2366              	.LVL285:
 706:Src/register_interface.c ****     uint8_t motorID=0;
 2367              		.loc 1 706 13 view .LVU645
 2368 01f6 0020     		moveq	r0, #0
 2369              	.LVL286:
ARM GAS  /tmp/ccKFuU3x.s 			page 90


 2370              	.LBB288:
 961:Src/register_interface.c ****         }
 2371              		.loc 1 961 11 is_stmt 1 view .LVU646
 961:Src/register_interface.c ****         }
 2372              		.loc 1 961 17 is_stmt 0 view .LVU647
 2373 01f8 2B80     		strh	r3, [r5]	@ movhi
 2374 01fa 77E7     		b	.L309
 2375              	.LVL287:
 2376              	.L307:
 961:Src/register_interface.c ****         }
 2377              		.loc 1 961 17 view .LVU648
 2378 01fc B0F5396F 		cmp	r0, #2960
 2379 0200 00F0D981 		beq	.L237
 2380 0204 B0F5456F 		cmp	r0, #3152
 2381 0208 21D1     		bne	.L310
 872:Src/register_interface.c ****               break;
 2382              		.loc 1 872 15 is_stmt 1 view .LVU649
 872:Src/register_interface.c ****               break;
 2383              		.loc 1 872 28 is_stmt 0 view .LVU650
 2384 020a 6D48     		ldr	r0, .L319+20
 2385              	.LVL288:
 872:Src/register_interface.c ****               break;
 2386              		.loc 1 872 28 view .LVU651
 2387 020c FFF7FEFF 		bl	STO_PLL_GetEstimatedBemf
 2388              	.LVL289:
 872:Src/register_interface.c ****               break;
 2389              		.loc 1 872 26 view .LVU652
 2390 0210 2080     		strh	r0, [r4]	@ movhi
 2391              	.LVL290:
 873:Src/register_interface.c ****             }
 2392              		.loc 1 873 15 is_stmt 1 view .LVU653
 2393              	.LBE288:
 706:Src/register_interface.c ****     uint8_t motorID=0;
 2394              		.loc 1 706 13 is_stmt 0 view .LVU654
 2395 0212 0020     		movs	r0, #0
 2396              	.LBB289:
 873:Src/register_interface.c ****             }
 2397              		.loc 1 873 15 view .LVU655
 2398 0214 68E7     		b	.L224
 2399              	.LVL291:
 2400              	.L234:
 873:Src/register_interface.c ****             }
 2401              		.loc 1 873 15 view .LVU656
 2402 0216 41F25033 		movw	r3, #4944
 2403 021a 9842     		cmp	r0, r3
 2404 021c 00F0C381 		beq	.L241
 2405 0220 1ED9     		bls	.L311
 2406 0222 41F61043 		movw	r3, #7184
 2407 0226 9842     		cmp	r0, r3
 2408 0228 00F0FD81 		beq	.L245
 2409 022c 41F65043 		movw	r3, #7248
 2410 0230 9842     		cmp	r0, r3
 2411 0232 D4D1     		bne	.L289
 951:Src/register_interface.c ****               break;
 2412              		.loc 1 951 17 is_stmt 1 view .LVU657
 2413              	.LVL292:
 2414              	.LBB212:
ARM GAS  /tmp/ccKFuU3x.s 			page 91


 2415              	.LBI212:
 517:MCSDK_v6.3.2-Full/MotorControl/MCSDK/MCLib/Any/Inc/mp_self_com_ctrl.h **** {
 2416              		.loc 2 517 24 view .LVU658
 2417              	.LBB213:
 519:MCSDK_v6.3.2-Full/MotorControl/MCSDK/MCLib/Any/Inc/mp_self_com_ctrl.h **** }
 2418              		.loc 2 519 3 view .LVU659
 519:MCSDK_v6.3.2-Full/MotorControl/MCSDK/MCLib/Any/Inc/mp_self_com_ctrl.h **** }
 2419              		.loc 2 519 34 is_stmt 0 view .LVU660
 2420 0234 634B     		ldr	r3, .L319+24
 2421 0236 5A68     		ldr	r2, [r3, #4]
 2422              	.LVL293:
 519:MCSDK_v6.3.2-Full/MotorControl/MCSDK/MCLib/Any/Inc/mp_self_com_ctrl.h **** }
 2423              		.loc 2 519 40 view .LVU661
 2424 0238 538A     		ldrh	r3, [r2, #18]
 2425              	.L298:
 519:MCSDK_v6.3.2-Full/MotorControl/MCSDK/MCLib/Any/Inc/mp_self_com_ctrl.h **** }
 2426              		.loc 2 519 85 view .LVU662
 2427 023a 5288     		ldrh	r2, [r2, #2]
 519:MCSDK_v6.3.2-Full/MotorControl/MCSDK/MCLib/Any/Inc/mp_self_com_ctrl.h **** }
 2428              		.loc 2 519 63 view .LVU663
 2429 023c 02FB03F3 		mul	r3, r2, r3
 519:MCSDK_v6.3.2-Full/MotorControl/MCSDK/MCLib/Any/Inc/mp_self_com_ctrl.h **** }
 2430              		.loc 2 519 102 view .LVU664
 2431 0240 614A     		ldr	r2, .L319+28
 2432 0242 A2FB0323 		umull	r2, r3, r2, r3
 2433 0246 DB0B     		lsrs	r3, r3, #15
 2434              	.LBE213:
 2435              	.LBE212:
 2436              	.LBE289:
 706:Src/register_interface.c ****     uint8_t motorID=0;
 2437              		.loc 1 706 13 view .LVU665
 2438 0248 0020     		movs	r0, #0
 2439              	.LVL294:
 2440              	.LBB290:
 951:Src/register_interface.c ****               break;
 2441              		.loc 1 951 30 view .LVU666
 2442 024a 2380     		strh	r3, [r4]	@ movhi
 2443              	.LVL295:
 952:Src/register_interface.c ****             }
 2444              		.loc 1 952 15 is_stmt 1 view .LVU667
 2445 024c 4CE7     		b	.L224
 2446              	.LVL296:
 2447              	.L310:
 952:Src/register_interface.c ****             }
 2448              		.loc 1 952 15 is_stmt 0 view .LVU668
 2449 024e B0F5356F 		cmp	r0, #2896
 2450 0252 C4D1     		bne	.L289
 859:Src/register_interface.c ****               break;
 2451              		.loc 1 859 15 is_stmt 1 view .LVU669
 2452              	.LVL297:
 2453              	.LBB214:
 2454              	.LBI214:
 2455              		.file 4 "MCSDK_v6.3.2-Full/MotorControl/MCSDK/MCLib/Any/Inc/speed_pos_fdbk.h"
   1:MCSDK_v6.3.2-Full/MotorControl/MCSDK/MCLib/Any/Inc/speed_pos_fdbk.h **** /**
   2:MCSDK_v6.3.2-Full/MotorControl/MCSDK/MCLib/Any/Inc/speed_pos_fdbk.h ****   ******************************************************************************
   3:MCSDK_v6.3.2-Full/MotorControl/MCSDK/MCLib/Any/Inc/speed_pos_fdbk.h ****   * @file    speed_pos_fdbk.h
   4:MCSDK_v6.3.2-Full/MotorControl/MCSDK/MCLib/Any/Inc/speed_pos_fdbk.h ****   * @author  Motor Control SDK Team, ST Microelectronics
ARM GAS  /tmp/ccKFuU3x.s 			page 92


   5:MCSDK_v6.3.2-Full/MotorControl/MCSDK/MCLib/Any/Inc/speed_pos_fdbk.h ****   * @brief   This file provides all definitions and functions prototypes
   6:MCSDK_v6.3.2-Full/MotorControl/MCSDK/MCLib/Any/Inc/speed_pos_fdbk.h ****   *          of the Speed & Position Feedback component of the Motor Control SDK.
   7:MCSDK_v6.3.2-Full/MotorControl/MCSDK/MCLib/Any/Inc/speed_pos_fdbk.h ****   *
   8:MCSDK_v6.3.2-Full/MotorControl/MCSDK/MCLib/Any/Inc/speed_pos_fdbk.h ****   ******************************************************************************
   9:MCSDK_v6.3.2-Full/MotorControl/MCSDK/MCLib/Any/Inc/speed_pos_fdbk.h ****   * @attention
  10:MCSDK_v6.3.2-Full/MotorControl/MCSDK/MCLib/Any/Inc/speed_pos_fdbk.h ****   *
  11:MCSDK_v6.3.2-Full/MotorControl/MCSDK/MCLib/Any/Inc/speed_pos_fdbk.h ****   * <h2><center>&copy; Copyright (c) 2024 STMicroelectronics.
  12:MCSDK_v6.3.2-Full/MotorControl/MCSDK/MCLib/Any/Inc/speed_pos_fdbk.h ****   * All rights reserved.</center></h2>
  13:MCSDK_v6.3.2-Full/MotorControl/MCSDK/MCLib/Any/Inc/speed_pos_fdbk.h ****   *
  14:MCSDK_v6.3.2-Full/MotorControl/MCSDK/MCLib/Any/Inc/speed_pos_fdbk.h ****   * This software component is licensed by ST under Ultimate Liberty license
  15:MCSDK_v6.3.2-Full/MotorControl/MCSDK/MCLib/Any/Inc/speed_pos_fdbk.h ****   * SLA0044, the "License"; You may not use this file except in compliance with
  16:MCSDK_v6.3.2-Full/MotorControl/MCSDK/MCLib/Any/Inc/speed_pos_fdbk.h ****   * the License. You may obtain a copy of the License at:
  17:MCSDK_v6.3.2-Full/MotorControl/MCSDK/MCLib/Any/Inc/speed_pos_fdbk.h ****   *                             www.st.com/SLA0044
  18:MCSDK_v6.3.2-Full/MotorControl/MCSDK/MCLib/Any/Inc/speed_pos_fdbk.h ****   *
  19:MCSDK_v6.3.2-Full/MotorControl/MCSDK/MCLib/Any/Inc/speed_pos_fdbk.h ****   ******************************************************************************
  20:MCSDK_v6.3.2-Full/MotorControl/MCSDK/MCLib/Any/Inc/speed_pos_fdbk.h ****   * @ingroup SpeednPosFdbk
  21:MCSDK_v6.3.2-Full/MotorControl/MCSDK/MCLib/Any/Inc/speed_pos_fdbk.h ****   */
  22:MCSDK_v6.3.2-Full/MotorControl/MCSDK/MCLib/Any/Inc/speed_pos_fdbk.h **** 
  23:MCSDK_v6.3.2-Full/MotorControl/MCSDK/MCLib/Any/Inc/speed_pos_fdbk.h **** /* Define to prevent recursive inclusion -------------------------------------*/
  24:MCSDK_v6.3.2-Full/MotorControl/MCSDK/MCLib/Any/Inc/speed_pos_fdbk.h **** #ifndef SPEEDNPOSFDBK_H
  25:MCSDK_v6.3.2-Full/MotorControl/MCSDK/MCLib/Any/Inc/speed_pos_fdbk.h **** #define SPEEDNPOSFDBK_H
  26:MCSDK_v6.3.2-Full/MotorControl/MCSDK/MCLib/Any/Inc/speed_pos_fdbk.h **** 
  27:MCSDK_v6.3.2-Full/MotorControl/MCSDK/MCLib/Any/Inc/speed_pos_fdbk.h **** #ifdef __cplusplus
  28:MCSDK_v6.3.2-Full/MotorControl/MCSDK/MCLib/Any/Inc/speed_pos_fdbk.h **** extern "C" {
  29:MCSDK_v6.3.2-Full/MotorControl/MCSDK/MCLib/Any/Inc/speed_pos_fdbk.h **** #endif /* __cplusplus */
  30:MCSDK_v6.3.2-Full/MotorControl/MCSDK/MCLib/Any/Inc/speed_pos_fdbk.h **** 
  31:MCSDK_v6.3.2-Full/MotorControl/MCSDK/MCLib/Any/Inc/speed_pos_fdbk.h **** /* Includes ------------------------------------------------------------------*/
  32:MCSDK_v6.3.2-Full/MotorControl/MCSDK/MCLib/Any/Inc/speed_pos_fdbk.h **** /* Already into mc_type.h */
  33:MCSDK_v6.3.2-Full/MotorControl/MCSDK/MCLib/Any/Inc/speed_pos_fdbk.h **** /* #include "stdint.h" */
  34:MCSDK_v6.3.2-Full/MotorControl/MCSDK/MCLib/Any/Inc/speed_pos_fdbk.h **** #include "mc_type.h"
  35:MCSDK_v6.3.2-Full/MotorControl/MCSDK/MCLib/Any/Inc/speed_pos_fdbk.h **** 
  36:MCSDK_v6.3.2-Full/MotorControl/MCSDK/MCLib/Any/Inc/speed_pos_fdbk.h **** /** @addtogroup MCSDK
  37:MCSDK_v6.3.2-Full/MotorControl/MCSDK/MCLib/Any/Inc/speed_pos_fdbk.h ****   * @{
  38:MCSDK_v6.3.2-Full/MotorControl/MCSDK/MCLib/Any/Inc/speed_pos_fdbk.h ****   */
  39:MCSDK_v6.3.2-Full/MotorControl/MCSDK/MCLib/Any/Inc/speed_pos_fdbk.h **** 
  40:MCSDK_v6.3.2-Full/MotorControl/MCSDK/MCLib/Any/Inc/speed_pos_fdbk.h **** /** @addtogroup SpeednPosFdbk
  41:MCSDK_v6.3.2-Full/MotorControl/MCSDK/MCLib/Any/Inc/speed_pos_fdbk.h ****   * @{
  42:MCSDK_v6.3.2-Full/MotorControl/MCSDK/MCLib/Any/Inc/speed_pos_fdbk.h ****   */
  43:MCSDK_v6.3.2-Full/MotorControl/MCSDK/MCLib/Any/Inc/speed_pos_fdbk.h **** 
  44:MCSDK_v6.3.2-Full/MotorControl/MCSDK/MCLib/Any/Inc/speed_pos_fdbk.h **** /* Exported types ------------------------------------------------------------*/
  45:MCSDK_v6.3.2-Full/MotorControl/MCSDK/MCLib/Any/Inc/speed_pos_fdbk.h **** /**
  46:MCSDK_v6.3.2-Full/MotorControl/MCSDK/MCLib/Any/Inc/speed_pos_fdbk.h ****   * @brief  SpeednPosFdbk  handles definitions of mechanical and electrical speed, mechanical accel
  47:MCSDK_v6.3.2-Full/MotorControl/MCSDK/MCLib/Any/Inc/speed_pos_fdbk.h ****   *                        and electrical angle and all constants and scale values for a reliable m
  48:MCSDK_v6.3.2-Full/MotorControl/MCSDK/MCLib/Any/Inc/speed_pos_fdbk.h ****   *                        computation in appropriated unit.
  49:MCSDK_v6.3.2-Full/MotorControl/MCSDK/MCLib/Any/Inc/speed_pos_fdbk.h ****   */
  50:MCSDK_v6.3.2-Full/MotorControl/MCSDK/MCLib/Any/Inc/speed_pos_fdbk.h **** typedef struct
  51:MCSDK_v6.3.2-Full/MotorControl/MCSDK/MCLib/Any/Inc/speed_pos_fdbk.h **** {
  52:MCSDK_v6.3.2-Full/MotorControl/MCSDK/MCLib/Any/Inc/speed_pos_fdbk.h **** 
  53:MCSDK_v6.3.2-Full/MotorControl/MCSDK/MCLib/Any/Inc/speed_pos_fdbk.h ****   uint8_t bSpeedErrorNumber;          /*!< Number of time the average mechanical speed is not valid
  54:MCSDK_v6.3.2-Full/MotorControl/MCSDK/MCLib/Any/Inc/speed_pos_fdbk.h ****   uint8_t bElToMecRatio;              /*!< Coefficient used to transform electrical to mechanical q
  55:MCSDK_v6.3.2-Full/MotorControl/MCSDK/MCLib/Any/Inc/speed_pos_fdbk.h ****                                            viceversa. It usually coincides with motor pole pairs nu
  56:MCSDK_v6.3.2-Full/MotorControl/MCSDK/MCLib/Any/Inc/speed_pos_fdbk.h ****   uint8_t SpeedUnit;                  /*!< The speed unit value is defined into mc_stm_types.h by
  57:MCSDK_v6.3.2-Full/MotorControl/MCSDK/MCLib/Any/Inc/speed_pos_fdbk.h ****                                            [SPEED_UNIT](measurement_units.md) in tenth of Hertz.*/
  58:MCSDK_v6.3.2-Full/MotorControl/MCSDK/MCLib/Any/Inc/speed_pos_fdbk.h ****   uint8_t bMaximumSpeedErrorsNumber;  /*!< Maximum value of not valid speed measurements before an 
  59:MCSDK_v6.3.2-Full/MotorControl/MCSDK/MCLib/Any/Inc/speed_pos_fdbk.h ****   int16_t hElAngle;                   /*!< Estimated electrical angle reported by the implemented s
  60:MCSDK_v6.3.2-Full/MotorControl/MCSDK/MCLib/Any/Inc/speed_pos_fdbk.h ****                                            method. */
  61:MCSDK_v6.3.2-Full/MotorControl/MCSDK/MCLib/Any/Inc/speed_pos_fdbk.h ****   int16_t hMecAngle;                  /*!< Instantaneous measure of rotor mechanical angle. */
ARM GAS  /tmp/ccKFuU3x.s 			page 93


  62:MCSDK_v6.3.2-Full/MotorControl/MCSDK/MCLib/Any/Inc/speed_pos_fdbk.h ****   int32_t wMecAngle;                  /*!< Mechanical angle frame based on coefficient #bElToMecRat
  63:MCSDK_v6.3.2-Full/MotorControl/MCSDK/MCLib/Any/Inc/speed_pos_fdbk.h ****   int16_t hAvrMecSpeedUnit;           /*!< Average mechanical speed expressed in the unit defined b
  64:MCSDK_v6.3.2-Full/MotorControl/MCSDK/MCLib/Any/Inc/speed_pos_fdbk.h ****                                            [SPEED_UNIT](measurement_units.md). */
  65:MCSDK_v6.3.2-Full/MotorControl/MCSDK/MCLib/Any/Inc/speed_pos_fdbk.h ****   int16_t hElSpeedDpp;                /*!< Instantaneous electrical speed expressed in Digit Per co
  66:MCSDK_v6.3.2-Full/MotorControl/MCSDK/MCLib/Any/Inc/speed_pos_fdbk.h ****                                            ([dpp](measurement_units.md)),
  67:MCSDK_v6.3.2-Full/MotorControl/MCSDK/MCLib/Any/Inc/speed_pos_fdbk.h ****                                            expresses the angular speed as the variation of the elec
  68:MCSDK_v6.3.2-Full/MotorControl/MCSDK/MCLib/Any/Inc/speed_pos_fdbk.h ****   int16_t InstantaneousElSpeedDpp;    /*!< Instantaneous computed electrical speed, expressed in
  69:MCSDK_v6.3.2-Full/MotorControl/MCSDK/MCLib/Any/Inc/speed_pos_fdbk.h ****                                            [dpp](measurement_units.md). */
  70:MCSDK_v6.3.2-Full/MotorControl/MCSDK/MCLib/Any/Inc/speed_pos_fdbk.h ****   int16_t hMecAccelUnitP;             /*!< Average mechanical acceleration expressed in the unit de
  71:MCSDK_v6.3.2-Full/MotorControl/MCSDK/MCLib/Any/Inc/speed_pos_fdbk.h ****                                            only reported with encoder implementation */
  72:MCSDK_v6.3.2-Full/MotorControl/MCSDK/MCLib/Any/Inc/speed_pos_fdbk.h ****   uint16_t hMaxReliableMecSpeedUnit;  /*!< Maximum value of measured mechanical speed that is consi
  73:MCSDK_v6.3.2-Full/MotorControl/MCSDK/MCLib/Any/Inc/speed_pos_fdbk.h ****                                            Expressed in the unit defined by [SPEED_UNIT](measuremen
  74:MCSDK_v6.3.2-Full/MotorControl/MCSDK/MCLib/Any/Inc/speed_pos_fdbk.h ****   uint16_t hMinReliableMecSpeedUnit;  /*!< Minimum value of measured mechanical speed that is consi
  75:MCSDK_v6.3.2-Full/MotorControl/MCSDK/MCLib/Any/Inc/speed_pos_fdbk.h ****                                            Expressed in the unit defined by [SPEED_UNIT](measuremen
  76:MCSDK_v6.3.2-Full/MotorControl/MCSDK/MCLib/Any/Inc/speed_pos_fdbk.h ****   uint16_t hMaxReliableMecAccelUnitP; /*!< Maximum value of measured acceleration that is considere
  77:MCSDK_v6.3.2-Full/MotorControl/MCSDK/MCLib/Any/Inc/speed_pos_fdbk.h ****                                            Constant value equal to 65535, expressed in the unit def
  78:MCSDK_v6.3.2-Full/MotorControl/MCSDK/MCLib/Any/Inc/speed_pos_fdbk.h ****                                            [SPEED_UNIT](measurement_units.md). */
  79:MCSDK_v6.3.2-Full/MotorControl/MCSDK/MCLib/Any/Inc/speed_pos_fdbk.h ****   uint16_t hMeasurementFrequency;     /*!< Frequency at which the user will request a measurement o
  80:MCSDK_v6.3.2-Full/MotorControl/MCSDK/MCLib/Any/Inc/speed_pos_fdbk.h ****                                            electrical angle. Expressed in PWM_FREQ_SCALING * Hz. */
  81:MCSDK_v6.3.2-Full/MotorControl/MCSDK/MCLib/Any/Inc/speed_pos_fdbk.h ****   uint32_t DPPConvFactor;             /*!< Conversion factor (65536/#PWM_FREQ_SCALING) used to conv
  82:MCSDK_v6.3.2-Full/MotorControl/MCSDK/MCLib/Any/Inc/speed_pos_fdbk.h ****                                            from the unit defined by [SPEED_UNIT](measurement_units.
  83:MCSDK_v6.3.2-Full/MotorControl/MCSDK/MCLib/Any/Inc/speed_pos_fdbk.h ****                                            [dpp](measurement_units.md). */
  84:MCSDK_v6.3.2-Full/MotorControl/MCSDK/MCLib/Any/Inc/speed_pos_fdbk.h **** 
  85:MCSDK_v6.3.2-Full/MotorControl/MCSDK/MCLib/Any/Inc/speed_pos_fdbk.h **** 
  86:MCSDK_v6.3.2-Full/MotorControl/MCSDK/MCLib/Any/Inc/speed_pos_fdbk.h **** } SpeednPosFdbk_Handle_t;
  87:MCSDK_v6.3.2-Full/MotorControl/MCSDK/MCLib/Any/Inc/speed_pos_fdbk.h **** 
  88:MCSDK_v6.3.2-Full/MotorControl/MCSDK/MCLib/Any/Inc/speed_pos_fdbk.h **** /**
  89:MCSDK_v6.3.2-Full/MotorControl/MCSDK/MCLib/Any/Inc/speed_pos_fdbk.h ****   * @brief input structure type definition for SPD_CalcAngle
  90:MCSDK_v6.3.2-Full/MotorControl/MCSDK/MCLib/Any/Inc/speed_pos_fdbk.h ****   */
  91:MCSDK_v6.3.2-Full/MotorControl/MCSDK/MCLib/Any/Inc/speed_pos_fdbk.h **** typedef struct
  92:MCSDK_v6.3.2-Full/MotorControl/MCSDK/MCLib/Any/Inc/speed_pos_fdbk.h **** {
  93:MCSDK_v6.3.2-Full/MotorControl/MCSDK/MCLib/Any/Inc/speed_pos_fdbk.h ****   alphabeta_t  Valfa_beta;            /*!< Voltage Components in alfa beta reference frame */
  94:MCSDK_v6.3.2-Full/MotorControl/MCSDK/MCLib/Any/Inc/speed_pos_fdbk.h ****   alphabeta_t  Ialfa_beta;            /*!< Current Components in alfa beta reference frame */
  95:MCSDK_v6.3.2-Full/MotorControl/MCSDK/MCLib/Any/Inc/speed_pos_fdbk.h ****   uint16_t     Vbus;                  /*!< Virtual Bus Voltage information */
  96:MCSDK_v6.3.2-Full/MotorControl/MCSDK/MCLib/Any/Inc/speed_pos_fdbk.h **** } Observer_Inputs_t;
  97:MCSDK_v6.3.2-Full/MotorControl/MCSDK/MCLib/Any/Inc/speed_pos_fdbk.h **** 
  98:MCSDK_v6.3.2-Full/MotorControl/MCSDK/MCLib/Any/Inc/speed_pos_fdbk.h **** 
  99:MCSDK_v6.3.2-Full/MotorControl/MCSDK/MCLib/Any/Inc/speed_pos_fdbk.h **** int32_t SPD_GetMecAngle(const SpeednPosFdbk_Handle_t *pHandle);
 100:MCSDK_v6.3.2-Full/MotorControl/MCSDK/MCLib/Any/Inc/speed_pos_fdbk.h **** 
 101:MCSDK_v6.3.2-Full/MotorControl/MCSDK/MCLib/Any/Inc/speed_pos_fdbk.h **** int16_t SPD_GetAvrgMecSpeedUnit(const SpeednPosFdbk_Handle_t *pHandle);
 102:MCSDK_v6.3.2-Full/MotorControl/MCSDK/MCLib/Any/Inc/speed_pos_fdbk.h **** 
 103:MCSDK_v6.3.2-Full/MotorControl/MCSDK/MCLib/Any/Inc/speed_pos_fdbk.h **** int16_t SPD_GetElSpeedDpp(const SpeednPosFdbk_Handle_t *pHandle);
 104:MCSDK_v6.3.2-Full/MotorControl/MCSDK/MCLib/Any/Inc/speed_pos_fdbk.h **** 
 105:MCSDK_v6.3.2-Full/MotorControl/MCSDK/MCLib/Any/Inc/speed_pos_fdbk.h **** bool SPD_IsMecSpeedReliable(SpeednPosFdbk_Handle_t *pHandle, const int16_t *pMecSpeedUnit);
 106:MCSDK_v6.3.2-Full/MotorControl/MCSDK/MCLib/Any/Inc/speed_pos_fdbk.h **** 
 107:MCSDK_v6.3.2-Full/MotorControl/MCSDK/MCLib/Any/Inc/speed_pos_fdbk.h **** int16_t SPD_GetS16Speed(const SpeednPosFdbk_Handle_t *pHandle);
 108:MCSDK_v6.3.2-Full/MotorControl/MCSDK/MCLib/Any/Inc/speed_pos_fdbk.h **** 
 109:MCSDK_v6.3.2-Full/MotorControl/MCSDK/MCLib/Any/Inc/speed_pos_fdbk.h **** uint8_t SPD_GetElToMecRatio(const SpeednPosFdbk_Handle_t *pHandle);
 110:MCSDK_v6.3.2-Full/MotorControl/MCSDK/MCLib/Any/Inc/speed_pos_fdbk.h **** 
 111:MCSDK_v6.3.2-Full/MotorControl/MCSDK/MCLib/Any/Inc/speed_pos_fdbk.h **** void SPD_SetElToMecRatio(SpeednPosFdbk_Handle_t *pHandle, uint8_t bPP);
 112:MCSDK_v6.3.2-Full/MotorControl/MCSDK/MCLib/Any/Inc/speed_pos_fdbk.h **** 
 113:MCSDK_v6.3.2-Full/MotorControl/MCSDK/MCLib/Any/Inc/speed_pos_fdbk.h **** /**
 114:MCSDK_v6.3.2-Full/MotorControl/MCSDK/MCLib/Any/Inc/speed_pos_fdbk.h ****   * @brief  Returns the last computed rotor electrical angle, expressed in [s16degrees](measurement
 115:MCSDK_v6.3.2-Full/MotorControl/MCSDK/MCLib/Any/Inc/speed_pos_fdbk.h ****   * @param  pHandle: handler of the current instance of the SpeednPosFdbk component.
 116:MCSDK_v6.3.2-Full/MotorControl/MCSDK/MCLib/Any/Inc/speed_pos_fdbk.h ****   * @retval int16_t rotor electrical angle.
 117:MCSDK_v6.3.2-Full/MotorControl/MCSDK/MCLib/Any/Inc/speed_pos_fdbk.h ****   */
 118:MCSDK_v6.3.2-Full/MotorControl/MCSDK/MCLib/Any/Inc/speed_pos_fdbk.h **** static inline int16_t SPD_GetElAngle(const SpeednPosFdbk_Handle_t *pHandle)
ARM GAS  /tmp/ccKFuU3x.s 			page 94


 2456              		.loc 4 118 23 view .LVU670
 2457              	.LBB215:
 119:MCSDK_v6.3.2-Full/MotorControl/MCSDK/MCLib/Any/Inc/speed_pos_fdbk.h **** {
 120:MCSDK_v6.3.2-Full/MotorControl/MCSDK/MCLib/Any/Inc/speed_pos_fdbk.h **** #ifdef NULL_PTR_CHECK_SPD_POS_FBK
 121:MCSDK_v6.3.2-Full/MotorControl/MCSDK/MCLib/Any/Inc/speed_pos_fdbk.h ****   return ((MC_NULL == pHandle) ? 0 : pHandle->hElAngle);
 122:MCSDK_v6.3.2-Full/MotorControl/MCSDK/MCLib/Any/Inc/speed_pos_fdbk.h **** #else
 123:MCSDK_v6.3.2-Full/MotorControl/MCSDK/MCLib/Any/Inc/speed_pos_fdbk.h ****   return (pHandle->hElAngle);
 2458              		.loc 4 123 3 view .LVU671
 2459              		.loc 4 123 18 is_stmt 0 view .LVU672
 2460 0254 5A4B     		ldr	r3, .L319+20
 2461 0256 B3F90430 		ldrsh	r3, [r3, #4]
 2462              	.LVL298:
 2463              		.loc 4 123 18 view .LVU673
 2464              	.LBE215:
 2465              	.LBE214:
 859:Src/register_interface.c ****               break;
 2466              		.loc 1 859 26 view .LVU674
 2467 025a 1380     		strh	r3, [r2]	@ movhi
 2468              	.LVL299:
 860:Src/register_interface.c ****             }
 2469              		.loc 1 860 15 is_stmt 1 view .LVU675
 2470              	.LBE290:
 706:Src/register_interface.c ****     uint8_t motorID=0;
 2471              		.loc 1 706 13 is_stmt 0 view .LVU676
 2472 025c 0020     		movs	r0, #0
 2473              	.LVL300:
 2474              	.LBB291:
 860:Src/register_interface.c ****             }
 2475              		.loc 1 860 15 view .LVU677
 2476 025e 43E7     		b	.L224
 2477              	.LVL301:
 2478              	.L311:
 860:Src/register_interface.c ****             }
 2479              		.loc 1 860 15 view .LVU678
 2480 0260 41F21003 		movw	r3, #4112
 2481 0264 9842     		cmp	r0, r3
 2482 0266 00F0D281 		beq	.L243
 2483 026a 41F25003 		movw	r3, #4176
 2484 026e 9842     		cmp	r0, r3
 2485 0270 B5D1     		bne	.L289
 936:Src/register_interface.c ****               break;
 2486              		.loc 1 936 15 is_stmt 1 view .LVU679
 936:Src/register_interface.c ****               break;
 2487              		.loc 1 936 28 is_stmt 0 view .LVU680
 2488 0272 4F48     		ldr	r0, .L319+4
 2489              	.LVL302:
 936:Src/register_interface.c ****               break;
 2490              		.loc 1 936 28 view .LVU681
 2491 0274 FFF7FEFF 		bl	FF_GetVqdAvPIout
 2492              	.LVL303:
 936:Src/register_interface.c ****               break;
 2493              		.loc 1 936 28 view .LVU682
 2494 0278 C0F30F40 		ubfx	r0, r0, #16, #16
 936:Src/register_interface.c ****               break;
 2495              		.loc 1 936 26 view .LVU683
 2496 027c 2080     		strh	r0, [r4]	@ movhi
 2497              	.LVL304:
ARM GAS  /tmp/ccKFuU3x.s 			page 95


 937:Src/register_interface.c ****             }
 2498              		.loc 1 937 15 is_stmt 1 view .LVU684
 2499              	.LBE291:
 706:Src/register_interface.c ****     uint8_t motorID=0;
 2500              		.loc 1 706 13 is_stmt 0 view .LVU685
 2501 027e 0020     		movs	r0, #0
 2502              	.LBB292:
 937:Src/register_interface.c ****             }
 2503              		.loc 1 937 15 view .LVU686
 2504 0280 32E7     		b	.L224
 2505              	.LVL305:
 2506              	.L218:
 937:Src/register_interface.c ****             }
 2507              		.loc 1 937 15 view .LVU687
 2508 0282 B0F51D6F 		cmp	r0, #2512
 2509 0286 00F08281 		beq	.L227
 2510 028a 22D9     		bls	.L312
 2511 028c B0F5216F 		cmp	r0, #2576
 2512 0290 00F06D81 		beq	.L231
 2513 0294 B0F5256F 		cmp	r0, #2640
 2514 0298 A1D1     		bne	.L289
 846:Src/register_interface.c ****               break;
 2515              		.loc 1 846 15 is_stmt 1 view .LVU688
 846:Src/register_interface.c ****               break;
 2516              		.loc 1 846 28 is_stmt 0 view .LVU689
 2517 029a 4648     		ldr	r0, .L319+8
 2518              	.LVL306:
 846:Src/register_interface.c ****               break;
 2519              		.loc 1 846 28 view .LVU690
 2520 029c FFF7FEFF 		bl	MCI_GetValphabeta
 2521              	.LVL307:
 846:Src/register_interface.c ****               break;
 2522              		.loc 1 846 26 view .LVU691
 2523 02a0 2080     		strh	r0, [r4]	@ movhi
 2524              	.LVL308:
 847:Src/register_interface.c ****             }
 2525              		.loc 1 847 15 is_stmt 1 view .LVU692
 2526              	.LBE292:
 706:Src/register_interface.c ****     uint8_t motorID=0;
 2527              		.loc 1 706 13 is_stmt 0 view .LVU693
 2528 02a2 0020     		movs	r0, #0
 2529              	.LBB293:
 847:Src/register_interface.c ****             }
 2530              		.loc 1 847 15 view .LVU694
 2531 02a4 20E7     		b	.L224
 2532              	.LVL309:
 2533              	.L306:
 847:Src/register_interface.c ****             }
 2534              		.loc 1 847 15 view .LVU695
 2535 02a6 9028     		cmp	r0, #144
 2536 02a8 99D1     		bne	.L289
 804:Src/register_interface.c ****               break;
 2537              		.loc 1 804 15 is_stmt 1 view .LVU696
 804:Src/register_interface.c ****               break;
 2538              		.loc 1 804 28 is_stmt 0 view .LVU697
 2539 02aa 4448     		ldr	r0, .L319+16
 2540              	.LVL310:
ARM GAS  /tmp/ccKFuU3x.s 			page 96


 804:Src/register_interface.c ****               break;
 2541              		.loc 1 804 28 view .LVU698
 2542 02ac FFF7FEFF 		bl	PID_GetKP
 2543              	.LVL311:
 804:Src/register_interface.c ****               break;
 2544              		.loc 1 804 26 view .LVU699
 2545 02b0 2080     		strh	r0, [r4]	@ movhi
 2546              	.LVL312:
 805:Src/register_interface.c ****             }
 2547              		.loc 1 805 15 is_stmt 1 view .LVU700
 2548              	.LBE293:
 706:Src/register_interface.c ****     uint8_t motorID=0;
 2549              		.loc 1 706 13 is_stmt 0 view .LVU701
 2550 02b2 0020     		movs	r0, #0
 2551              	.LBB294:
 805:Src/register_interface.c ****             }
 2552              		.loc 1 805 15 view .LVU702
 2553 02b4 18E7     		b	.L224
 2554              	.LVL313:
 2555              	.L305:
 805:Src/register_interface.c ****             }
 2556              		.loc 1 805 15 view .LVU703
 2557              	.LBE294:
 2558 02b6 B0F5896F 		cmp	r0, #1096
 2559 02ba 00F03581 		beq	.L212
 2560 02be B0F5916F 		cmp	r0, #1160
 2561 02c2 40F0ED80 		bne	.L297
 762:Src/register_interface.c ****               break;
 2562              		.loc 1 762 15 is_stmt 1 view .LVU704
 762:Src/register_interface.c ****               break;
 2563              		.loc 1 762 23 is_stmt 0 view .LVU705
 2564 02c6 3E48     		ldr	r0, .L319+20
 2565              	.LVL314:
 762:Src/register_interface.c ****               break;
 2566              		.loc 1 762 23 view .LVU706
 2567 02c8 FFF7FEFF 		bl	SPD_GetElToMecRatio
 2568              	.LVL315:
 762:Src/register_interface.c ****               break;
 2569              		.loc 1 762 21 view .LVU707
 2570 02cc 2070     		strb	r0, [r4]
 763:Src/register_interface.c ****             }
 2571              		.loc 1 763 15 is_stmt 1 view .LVU708
 706:Src/register_interface.c ****     uint8_t motorID=0;
 2572              		.loc 1 706 13 is_stmt 0 view .LVU709
 2573 02ce 0020     		movs	r0, #0
 763:Src/register_interface.c ****             }
 2574              		.loc 1 763 15 view .LVU710
 2575 02d0 E5E6     		b	.L208
 2576              	.LVL316:
 2577              	.L312:
 2578              	.LBB295:
 763:Src/register_interface.c ****             }
 2579              		.loc 1 763 15 view .LVU711
 2580 02d2 B0F5B26F 		cmp	r0, #1424
 2581 02d6 00F0A081 		beq	.L229
 2582 02da B0F5BA6F 		cmp	r0, #1488
 2583 02de 7FF47EAF 		bne	.L289
ARM GAS  /tmp/ccKFuU3x.s 			page 97


 828:Src/register_interface.c ****               break;
 2584              		.loc 1 828 15 is_stmt 1 view .LVU712
 828:Src/register_interface.c ****               break;
 2585              		.loc 1 828 28 is_stmt 0 view .LVU713
 2586 02e2 3A48     		ldr	r0, .L319+32
 2587              	.LVL317:
 828:Src/register_interface.c ****               break;
 2588              		.loc 1 828 28 view .LVU714
 2589 02e4 FFF7FEFF 		bl	NTC_GetAvTemp_C
 2590              	.LVL318:
 828:Src/register_interface.c ****               break;
 2591              		.loc 1 828 26 view .LVU715
 2592 02e8 2080     		strh	r0, [r4]	@ movhi
 2593              	.LVL319:
 829:Src/register_interface.c ****             }
 2594              		.loc 1 829 15 is_stmt 1 view .LVU716
 2595              	.LBE295:
 706:Src/register_interface.c ****     uint8_t motorID=0;
 2596              		.loc 1 706 13 is_stmt 0 view .LVU717
 2597 02ea 0020     		movs	r0, #0
 2598              	.LBB296:
 829:Src/register_interface.c ****             }
 2599              		.loc 1 829 15 view .LVU718
 2600 02ec FCE6     		b	.L224
 2601              	.LVL320:
 2602              	.L304:
 829:Src/register_interface.c ****             }
 2603              		.loc 1 829 15 view .LVU719
 2604              	.LBE296:
 2605              	.LBB297:
 2606 02ee 5828     		cmp	r0, #88
 2607 02f0 00F0FE81 		beq	.L253
 2608 02f4 9828     		cmp	r0, #152
 2609 02f6 50D1     		bne	.L313
 992:Src/register_interface.c ****               break;
 2610              		.loc 1 992 15 is_stmt 1 view .LVU720
 992:Src/register_interface.c ****               break;
 2611              		.loc 1 992 39 is_stmt 0 view .LVU721
 2612 02f8 2E48     		ldr	r0, .L319+8
 2613              	.LVL321:
 992:Src/register_interface.c ****               break;
 2614              		.loc 1 992 39 view .LVU722
 2615 02fa FFF7FEFF 		bl	MCI_GetMecSpeedRefUnit
 2616              	.LVL322:
 992:Src/register_interface.c ****               break;
 2617              		.loc 1 992 78 view .LVU723
 2618 02fe 00EB4000 		add	r0, r0, r0, lsl #1
 2619 0302 4000     		lsls	r0, r0, #1
 992:Src/register_interface.c ****               break;
 2620              		.loc 1 992 26 view .LVU724
 2621 0304 2060     		str	r0, [r4]
 993:Src/register_interface.c ****             }
 2622              		.loc 1 993 15 is_stmt 1 view .LVU725
 2623              	.LBE297:
 706:Src/register_interface.c ****     uint8_t motorID=0;
 2624              		.loc 1 706 13 is_stmt 0 view .LVU726
 2625 0306 0020     		movs	r0, #0
ARM GAS  /tmp/ccKFuU3x.s 			page 98


 2626              	.LBB298:
 993:Src/register_interface.c ****             }
 2627              		.loc 1 993 15 view .LVU727
 2628 0308 14E7     		b	.L256
 2629              	.LVL323:
 2630              	.L250:
 993:Src/register_interface.c ****             }
 2631              		.loc 1 993 15 view .LVU728
 2632 030a 41F21873 		movw	r3, #5912
 2633 030e 9842     		cmp	r0, r3
 2634 0310 00F0C981 		beq	.L259
 2635 0314 40F28680 		bls	.L314
 2636 0318 41F25873 		movw	r3, #5976
 2637 031c 9842     		cmp	r0, r3
 2638 031e 00F0A681 		beq	.L263
 2639 0322 41F29873 		movw	r3, #6040
 2640 0326 9842     		cmp	r0, r3
 2641 0328 40F0FE81 		bne	.L300
1054:Src/register_interface.c ****               break;
 2642              		.loc 1 1054 15 is_stmt 1 view .LVU729
 2643              	.LVL324:
 2644              	.LBB224:
 2645              	.LBI224:
 347:MCSDK_v6.3.2-Full/MotorControl/MCSDK/MCLib/Any/Inc/mp_self_com_ctrl.h **** {
 2646              		.loc 2 347 24 view .LVU730
 2647              	.LBB225:
 349:MCSDK_v6.3.2-Full/MotorControl/MCSDK/MCLib/Any/Inc/mp_self_com_ctrl.h **** }
 2648              		.loc 2 349 3 view .LVU731
 349:MCSDK_v6.3.2-Full/MotorControl/MCSDK/MCLib/Any/Inc/mp_self_com_ctrl.h **** }
 2649              		.loc 2 349 10 is_stmt 0 view .LVU732
 2650 032c 254B     		ldr	r3, .L319+24
 2651 032e 93ED180A 		vldr.32	s0, [r3, #96]
 2652 0332 FFF7FEFF 		bl	MCM_floatToIntBit
 2653              	.LVL325:
 349:MCSDK_v6.3.2-Full/MotorControl/MCSDK/MCLib/Any/Inc/mp_self_com_ctrl.h **** }
 2654              		.loc 2 349 10 view .LVU733
 2655              	.LBE225:
 2656              	.LBE224:
1054:Src/register_interface.c ****               break;
 2657              		.loc 1 1054 27 view .LVU734
 2658 0336 2060     		str	r0, [r4]
1055:Src/register_interface.c ****             }
 2659              		.loc 1 1055 15 is_stmt 1 view .LVU735
 2660              	.LBE298:
 706:Src/register_interface.c ****     uint8_t motorID=0;
 2661              		.loc 1 706 13 is_stmt 0 view .LVU736
 2662 0338 0020     		movs	r0, #0
 2663              	.LBB299:
1055:Src/register_interface.c ****             }
 2664              		.loc 1 1055 15 view .LVU737
 2665 033a FBE6     		b	.L256
 2666              	.LVL326:
 2667              	.L248:
1055:Src/register_interface.c ****             }
 2668              		.loc 1 1055 15 view .LVU738
 2669 033c 41F69813 		movw	r3, #6552
 2670 0340 9842     		cmp	r0, r3
ARM GAS  /tmp/ccKFuU3x.s 			page 99


 2671 0342 00F0A881 		beq	.L265
 2672 0346 54D8     		bhi	.L266
 2673 0348 41F6D803 		movw	r3, #6360
 2674 034c 9842     		cmp	r0, r3
 2675 034e 00F09C81 		beq	.L267
 2676 0352 3FD9     		bls	.L315
 2677 0354 41F61813 		movw	r3, #6424
 2678 0358 9842     		cmp	r0, r3
 2679 035a 00F07881 		beq	.L272
 2680 035e 41F65813 		movw	r3, #6488
 2681 0362 9842     		cmp	r0, r3
 2682 0364 40F0E081 		bne	.L300
 2683              	.LBB226:
1104:Src/register_interface.c ****               ReadVal.Float_Val = OTT_GetJ(&OTT);
 2684              		.loc 1 1104 15 is_stmt 1 view .LVU739
1105:Src/register_interface.c ****               *regdataU32 = ReadVal.U32_Val;
 2685              		.loc 1 1105 15 view .LVU740
 2686              	.LVL327:
 2687              	.LBB227:
 2688              	.LBI227:
 314:MCSDK_v6.3.2-Full/MotorControl/MCSDK/MCLib/Any/Inc/mp_one_touch_tuning.h **** {
 2689              		.loc 3 314 21 view .LVU741
 2690              	.LBB228:
 316:MCSDK_v6.3.2-Full/MotorControl/MCSDK/MCLib/Any/Inc/mp_one_touch_tuning.h ****   return (pHandle->fJ * fFact * pHandle->fKe) / (pHandle->pOTT_Params_str->fRshunt 
 2691              		.loc 3 316 3 view .LVU742
 317:MCSDK_v6.3.2-Full/MotorControl/MCSDK/MCLib/Any/Inc/mp_one_touch_tuning.h ****                                                 * pHandle->pOTT_Params_str->fAmplificationGain);
 2692              		.loc 3 317 3 view .LVU743
 317:MCSDK_v6.3.2-Full/MotorControl/MCSDK/MCLib/Any/Inc/mp_one_touch_tuning.h ****                                                 * pHandle->pOTT_Params_str->fAmplificationGain);
 2693              		.loc 3 317 57 is_stmt 0 view .LVU744
 2694 0368 134B     		ldr	r3, .L319+12
 317:MCSDK_v6.3.2-Full/MotorControl/MCSDK/MCLib/Any/Inc/mp_one_touch_tuning.h ****                                                 * pHandle->pOTT_Params_str->fAmplificationGain);
 2695              		.loc 3 317 23 view .LVU745
 2696 036a DFED195A 		vldr.32	s11, .L319+36
 317:MCSDK_v6.3.2-Full/MotorControl/MCSDK/MCLib/Any/Inc/mp_one_touch_tuning.h ****                                                 * pHandle->pOTT_Params_str->fAmplificationGain);
 2697              		.loc 3 317 57 view .LVU746
 2698 036e D3F89C20 		ldr	r2, [r3, #156]
 2699              	.LVL328:
 317:MCSDK_v6.3.2-Full/MotorControl/MCSDK/MCLib/Any/Inc/mp_one_touch_tuning.h ****                                                 * pHandle->pOTT_Params_str->fAmplificationGain);
 2700              		.loc 3 317 57 view .LVU747
 2701              	.LBE228:
 2702              	.LBE227:
1106:Src/register_interface.c ****               break;
 2703              		.loc 1 1106 15 is_stmt 1 view .LVU748
 2704              	.LBB230:
 2705              	.LBB229:
 317:MCSDK_v6.3.2-Full/MotorControl/MCSDK/MCLib/Any/Inc/mp_one_touch_tuning.h ****                                                 * pHandle->pOTT_Params_str->fAmplificationGain);
 2706              		.loc 3 317 23 is_stmt 0 view .LVU749
 2707 0372 D3ED0B7A 		vldr.32	s15, [r3, #44]
 2708              	.LVL329:
 2709              	.L299:
 317:MCSDK_v6.3.2-Full/MotorControl/MCSDK/MCLib/Any/Inc/mp_one_touch_tuning.h ****                                                 * pHandle->pOTT_Params_str->fAmplificationGain);
 2710              		.loc 3 317 23 view .LVU750
 2711              	.LBE229:
 2712              	.LBE230:
 2713              	.LBE226:
 2714              	.LBB231:
 2715              	.LBB232:
ARM GAS  /tmp/ccKFuU3x.s 			page 100


 2716              	.LBB233:
 329:MCSDK_v6.3.2-Full/MotorControl/MCSDK/MCLib/Any/Inc/mp_one_touch_tuning.h ****                                                 * pHandle->pOTT_Params_str->fAmplificationGain);
 2717              		.loc 3 329 31 view .LVU751
 2718 0376 D3ED266A 		vldr.32	s13, [r3, #152]
 330:MCSDK_v6.3.2-Full/MotorControl/MCSDK/MCLib/Any/Inc/mp_one_touch_tuning.h **** }
 2719              		.loc 3 330 49 view .LVU752
 2720 037a 92ED137A 		vldr.32	s14, [r2, #76]
 2721 037e 92ED146A 		vldr.32	s12, [r2, #80]
 329:MCSDK_v6.3.2-Full/MotorControl/MCSDK/MCLib/Any/Inc/mp_one_touch_tuning.h ****                                                 * pHandle->pOTT_Params_str->fAmplificationGain);
 2722              		.loc 3 329 23 view .LVU753
 2723 0382 67EEA57A 		vmul.f32	s15, s15, s11
 330:MCSDK_v6.3.2-Full/MotorControl/MCSDK/MCLib/Any/Inc/mp_one_touch_tuning.h **** }
 2724              		.loc 3 330 49 view .LVU754
 2725 0386 27EE067A 		vmul.f32	s14, s14, s12
 329:MCSDK_v6.3.2-Full/MotorControl/MCSDK/MCLib/Any/Inc/mp_one_touch_tuning.h ****                                                 * pHandle->pOTT_Params_str->fAmplificationGain);
 2726              		.loc 3 329 31 view .LVU755
 2727 038a 67EEA67A 		vmul.f32	s15, s15, s13
 2728              	.LBE233:
 2729              	.LBE232:
 2730              	.LBE231:
 2731              	.LBE299:
 706:Src/register_interface.c ****     uint8_t motorID=0;
 2732              		.loc 1 706 13 view .LVU756
 2733 038e 0020     		movs	r0, #0
 2734              	.LVL330:
 2735              	.LBB300:
 2736              	.LBB238:
1114:Src/register_interface.c ****               break;
 2737              		.loc 1 1114 27 view .LVU757
 2738 0390 C7EE877A 		vdiv.f32	s15, s15, s14
 2739 0394 C4ED007A 		vstr.32	s15, [r4]	@ int
1115:Src/register_interface.c ****             }
 2740              		.loc 1 1115 15 is_stmt 1 view .LVU758
 2741 0398 CCE6     		b	.L256
 2742              	.LVL331:
 2743              	.L313:
1115:Src/register_interface.c ****             }
 2744              		.loc 1 1115 15 is_stmt 0 view .LVU759
 2745              	.LBE238:
 2746 039a 1828     		cmp	r0, #24
 2747 039c 40F0C481 		bne	.L300
 981:Src/register_interface.c ****               break;
 2748              		.loc 1 981 15 is_stmt 1 view .LVU760
 981:Src/register_interface.c ****               break;
 2749              		.loc 1 981 29 is_stmt 0 view .LVU761
 2750 03a0 0448     		ldr	r0, .L319+8
 2751              	.LVL332:
 981:Src/register_interface.c ****               break;
 2752              		.loc 1 981 29 view .LVU762
 2753 03a2 FFF7FEFF 		bl	MCI_GetFaultState
 2754              	.LVL333:
 981:Src/register_interface.c ****               break;
 2755              		.loc 1 981 27 view .LVU763
 2756 03a6 2060     		str	r0, [r4]
 982:Src/register_interface.c ****             }
 2757              		.loc 1 982 15 is_stmt 1 view .LVU764
 2758              	.LBE300:
ARM GAS  /tmp/ccKFuU3x.s 			page 101


 706:Src/register_interface.c ****     uint8_t motorID=0;
 2759              		.loc 1 706 13 is_stmt 0 view .LVU765
 2760 03a8 0020     		movs	r0, #0
 2761              	.LBB301:
 982:Src/register_interface.c ****             }
 2762              		.loc 1 982 15 view .LVU766
 2763 03aa C3E6     		b	.L256
 2764              	.L320:
 2765              		.align	2
 2766              	.L319:
 2767 03ac 34000000 		.word	STO_PLL_M1+52
 2768 03b0 00000000 		.word	FF_M1
 2769 03b4 00000000 		.word	Mci
 2770 03b8 00000000 		.word	OTT
 2771 03bc 00000000 		.word	PIDSpeedHandle_M1
 2772 03c0 00000000 		.word	STO_PLL_M1
 2773 03c4 00000000 		.word	SCC
 2774 03c8 01800080 		.word	-2147450879
 2775 03cc 00000000 		.word	TempSensor_M1
 2776 03d0 CB151E35 		.word	891164107
 2777              	.LVL334:
 2778              	.L315:
 982:Src/register_interface.c ****             }
 2779              		.loc 1 982 15 view .LVU767
 2780 03d4 41F65803 		movw	r3, #6232
 2781 03d8 9842     		cmp	r0, r3
 2782 03da 00F03381 		beq	.L269
 2783 03de 41F69803 		movw	r3, #6296
 2784 03e2 9842     		cmp	r0, r3
 2785 03e4 2FD1     		bne	.L316
 2786              	.LBB239:
1082:Src/register_interface.c ****               ReadVal.Float_Val = SCC_GetLdLqRatio(&SCC);
 2787              		.loc 1 1082 15 is_stmt 1 view .LVU768
1083:Src/register_interface.c ****               *regdataU32 = ReadVal.U32_Val;
 2788              		.loc 1 1083 15 view .LVU769
 2789              	.LVL335:
 2790              	.LBB240:
 2791              	.LBI240:
 395:MCSDK_v6.3.2-Full/MotorControl/MCSDK/MCLib/Any/Inc/mp_self_com_ctrl.h **** {
 2792              		.loc 2 395 21 view .LVU770
 2793              	.LBB241:
 397:MCSDK_v6.3.2-Full/MotorControl/MCSDK/MCLib/Any/Inc/mp_self_com_ctrl.h **** }
 2794              		.loc 2 397 3 view .LVU771
 397:MCSDK_v6.3.2-Full/MotorControl/MCSDK/MCLib/Any/Inc/mp_self_com_ctrl.h **** }
 2795              		.loc 2 397 3 is_stmt 0 view .LVU772
 2796              	.LBE241:
 2797              	.LBE240:
1084:Src/register_interface.c ****               break;
 2798              		.loc 1 1084 15 is_stmt 1 view .LVU773
 2799              	.LBB243:
 2800              	.LBB242:
 397:MCSDK_v6.3.2-Full/MotorControl/MCSDK/MCLib/Any/Inc/mp_self_com_ctrl.h **** }
 2801              		.loc 2 397 17 is_stmt 0 view .LVU774
 2802 03e6 B44B     		ldr	r3, .L321
 2803              	.LBE242:
 2804              	.LBE243:
1084:Src/register_interface.c ****               break;
ARM GAS  /tmp/ccKFuU3x.s 			page 102


 2805              		.loc 1 1084 27 view .LVU775
 2806 03e8 D3F8E030 		ldr	r3, [r3, #224]
 2807 03ec 1360     		str	r3, [r2]
1085:Src/register_interface.c ****             }
 2808              		.loc 1 1085 15 is_stmt 1 view .LVU776
 2809              	.LVL336:
1085:Src/register_interface.c ****             }
 2810              		.loc 1 1085 15 is_stmt 0 view .LVU777
 2811              	.LBE239:
 2812              	.LBE301:
 706:Src/register_interface.c ****     uint8_t motorID=0;
 2813              		.loc 1 706 13 view .LVU778
 2814 03ee 0020     		movs	r0, #0
 2815              	.LVL337:
 706:Src/register_interface.c ****     uint8_t motorID=0;
 2816              		.loc 1 706 13 view .LVU779
 2817 03f0 A0E6     		b	.L256
 2818              	.LVL338:
 2819              	.L266:
 2820              	.LBB302:
 706:Src/register_interface.c ****     uint8_t motorID=0;
 2821              		.loc 1 706 13 view .LVU780
 2822 03f2 41F65823 		movw	r3, #6744
 2823 03f6 9842     		cmp	r0, r3
 2824 03f8 00F01E81 		beq	.L274
 2825 03fc 2DD9     		bls	.L317
 2826 03fe 41F65833 		movw	r3, #7000
 2827 0402 9842     		cmp	r0, r3
 2828 0404 00F02981 		beq	.L277
 2829 0408 41F61853 		movw	r3, #7448
 2830 040c 9842     		cmp	r0, r3
 2831 040e 40F08B81 		bne	.L300
 2832              	.LBB244:
1139:Src/register_interface.c ****               ReadVal.Float_Val=SCC_GetResistorOffset(&SCC);
 2833              		.loc 1 1139 15 is_stmt 1 view .LVU781
1140:Src/register_interface.c ****               *regdata32 =ReadVal.U32_Val;
 2834              		.loc 1 1140 15 view .LVU782
1140:Src/register_interface.c ****               *regdata32 =ReadVal.U32_Val;
 2835              		.loc 1 1140 33 is_stmt 0 view .LVU783
 2836 0412 A948     		ldr	r0, .L321
 2837              	.LVL339:
1140:Src/register_interface.c ****               *regdata32 =ReadVal.U32_Val;
 2838              		.loc 1 1140 33 view .LVU784
 2839 0414 FFF7FEFF 		bl	SCC_GetResistorOffset
 2840              	.LVL340:
1140:Src/register_interface.c ****               *regdata32 =ReadVal.U32_Val;
 2841              		.loc 1 1140 33 view .LVU785
 2842 0418 8DED010A 		vstr.32	s0, [sp, #4]
 2843              	.LVL341:
1141:Src/register_interface.c ****               break;
 2844              		.loc 1 1141 15 is_stmt 1 view .LVU786
1141:Src/register_interface.c ****               break;
 2845              		.loc 1 1141 26 is_stmt 0 view .LVU787
 2846 041c 019B     		ldr	r3, [sp, #4]
 2847 041e 2360     		str	r3, [r4]
1142:Src/register_interface.c ****             }
 2848              		.loc 1 1142 15 is_stmt 1 view .LVU788
ARM GAS  /tmp/ccKFuU3x.s 			page 103


 2849              	.LVL342:
1142:Src/register_interface.c ****             }
 2850              		.loc 1 1142 15 is_stmt 0 view .LVU789
 2851              	.LBE244:
 2852              	.LBE302:
 706:Src/register_interface.c ****     uint8_t motorID=0;
 2853              		.loc 1 706 13 view .LVU790
 2854 0420 0020     		movs	r0, #0
 2855 0422 87E6     		b	.L256
 2856              	.LVL343:
 2857              	.L314:
 2858              	.LBB303:
 706:Src/register_interface.c ****     uint8_t motorID=0;
 2859              		.loc 1 706 13 view .LVU791
 2860 0424 B0F5167F 		cmp	r0, #600
 2861 0428 00F00181 		beq	.L261
 2862 042c 41F2D863 		movw	r3, #5848
 2863 0430 9842     		cmp	r0, r3
 2864 0432 40F07981 		bne	.L300
1036:Src/register_interface.c ****               break;
 2865              		.loc 1 1036 15 is_stmt 1 view .LVU792
 2866              	.LVL344:
 2867              	.LBB245:
 2868              	.LBI245:
 314:MCSDK_v6.3.2-Full/MotorControl/MCSDK/MCLib/Any/Inc/mp_self_com_ctrl.h **** {
 2869              		.loc 2 314 24 view .LVU793
 2870              	.LBB246:
 316:MCSDK_v6.3.2-Full/MotorControl/MCSDK/MCLib/Any/Inc/mp_self_com_ctrl.h **** }
 2871              		.loc 2 316 3 view .LVU794
 316:MCSDK_v6.3.2-Full/MotorControl/MCSDK/MCLib/Any/Inc/mp_self_com_ctrl.h **** }
 2872              		.loc 2 316 10 is_stmt 0 view .LVU795
 2873 0436 A04B     		ldr	r3, .L321
 2874 0438 93ED190A 		vldr.32	s0, [r3, #100]
 2875 043c FFF7FEFF 		bl	MCM_floatToIntBit
 2876              	.LVL345:
 316:MCSDK_v6.3.2-Full/MotorControl/MCSDK/MCLib/Any/Inc/mp_self_com_ctrl.h **** }
 2877              		.loc 2 316 10 view .LVU796
 2878              	.LBE246:
 2879              	.LBE245:
1036:Src/register_interface.c ****               break;
 2880              		.loc 1 1036 27 view .LVU797
 2881 0440 2060     		str	r0, [r4]
1037:Src/register_interface.c ****             }
 2882              		.loc 1 1037 15 is_stmt 1 view .LVU798
 2883              	.LBE303:
 706:Src/register_interface.c ****     uint8_t motorID=0;
 2884              		.loc 1 706 13 is_stmt 0 view .LVU799
 2885 0442 0020     		movs	r0, #0
 2886              	.LBB304:
1037:Src/register_interface.c ****             }
 2887              		.loc 1 1037 15 view .LVU800
 2888 0444 76E6     		b	.L256
 2889              	.LVL346:
 2890              	.L316:
1037:Src/register_interface.c ****             }
 2891              		.loc 1 1037 15 view .LVU801
 2892 0446 41F61803 		movw	r3, #6168
ARM GAS  /tmp/ccKFuU3x.s 			page 104


 2893 044a 9842     		cmp	r0, r3
 2894 044c 40F06C81 		bne	.L300
 2895              	.L271:
 2896              	.LBB247:
1066:Src/register_interface.c ****               ReadVal.Float_Val = SCC_GetNominalCurrent(&SCC);
 2897              		.loc 1 1066 15 is_stmt 1 view .LVU802
1067:Src/register_interface.c ****               *regdataU32 = ReadVal.U32_Val;
 2898              		.loc 1 1067 15 view .LVU803
 2899              	.LVL347:
 2900              	.LBB248:
 2901              	.LBI248:
 370:MCSDK_v6.3.2-Full/MotorControl/MCSDK/MCLib/Any/Inc/mp_self_com_ctrl.h **** {
 2902              		.loc 2 370 21 view .LVU804
 2903              	.LBB249:
 372:MCSDK_v6.3.2-Full/MotorControl/MCSDK/MCLib/Any/Inc/mp_self_com_ctrl.h **** }
 2904              		.loc 2 372 3 view .LVU805
 372:MCSDK_v6.3.2-Full/MotorControl/MCSDK/MCLib/Any/Inc/mp_self_com_ctrl.h **** }
 2905              		.loc 2 372 3 is_stmt 0 view .LVU806
 2906              	.LBE249:
 2907              	.LBE248:
1068:Src/register_interface.c ****               break;
 2908              		.loc 1 1068 15 is_stmt 1 view .LVU807
 2909              	.LBB251:
 2910              	.LBB250:
 372:MCSDK_v6.3.2-Full/MotorControl/MCSDK/MCLib/Any/Inc/mp_self_com_ctrl.h **** }
 2911              		.loc 2 372 17 is_stmt 0 view .LVU808
 2912 0450 994B     		ldr	r3, .L321
 2913              	.LBE250:
 2914              	.LBE251:
1068:Src/register_interface.c ****               break;
 2915              		.loc 1 1068 27 view .LVU809
 2916 0452 9B6D     		ldr	r3, [r3, #88]
 2917 0454 2360     		str	r3, [r4]
1069:Src/register_interface.c ****             }
 2918              		.loc 1 1069 15 is_stmt 1 view .LVU810
 2919              	.LVL348:
1069:Src/register_interface.c ****             }
 2920              		.loc 1 1069 15 is_stmt 0 view .LVU811
 2921              	.LBE247:
 2922              	.LBE304:
 706:Src/register_interface.c ****     uint8_t motorID=0;
 2923              		.loc 1 706 13 view .LVU812
 2924 0456 0020     		movs	r0, #0
 2925              	.LVL349:
 706:Src/register_interface.c ****     uint8_t motorID=0;
 2926              		.loc 1 706 13 view .LVU813
 2927 0458 6CE6     		b	.L256
 2928              	.LVL350:
 2929              	.L317:
 2930              	.LBB305:
 706:Src/register_interface.c ****     uint8_t motorID=0;
 2931              		.loc 1 706 13 view .LVU814
 2932 045a 41F6D813 		movw	r3, #6616
 2933 045e 9842     		cmp	r0, r3
 2934 0460 F6D0     		beq	.L271
 2935 0462 41F61823 		movw	r3, #6680
 2936 0466 9842     		cmp	r0, r3
ARM GAS  /tmp/ccKFuU3x.s 			page 105


 2937 0468 40F05E81 		bne	.L300
1128:Src/register_interface.c ****               break;
 2938              		.loc 1 1128 15 is_stmt 1 view .LVU815
 2939              	.LVL351:
 2940              	.LBB252:
 2941              	.LBI252:
 419:MCSDK_v6.3.2-Full/MotorControl/MCSDK/MCLib/Any/Inc/mp_self_com_ctrl.h **** {
 2942              		.loc 2 419 23 view .LVU816
 2943              	.LBB253:
 421:MCSDK_v6.3.2-Full/MotorControl/MCSDK/MCLib/Any/Inc/mp_self_com_ctrl.h **** }
 2944              		.loc 2 421 3 view .LVU817
 421:MCSDK_v6.3.2-Full/MotorControl/MCSDK/MCLib/Any/Inc/mp_self_com_ctrl.h **** }
 2945              		.loc 2 421 17 is_stmt 0 view .LVU818
 2946 046c 924B     		ldr	r3, .L321
 2947 046e D3F8E830 		ldr	r3, [r3, #232]
 2948              	.LVL352:
 421:MCSDK_v6.3.2-Full/MotorControl/MCSDK/MCLib/Any/Inc/mp_self_com_ctrl.h **** }
 2949              		.loc 2 421 17 view .LVU819
 2950              	.LBE253:
 2951              	.LBE252:
1128:Src/register_interface.c ****               break;
 2952              		.loc 1 1128 26 view .LVU820
 2953 0472 1360     		str	r3, [r2]
1129:Src/register_interface.c ****             }
 2954              		.loc 1 1129 15 is_stmt 1 view .LVU821
 2955              	.LBE305:
 706:Src/register_interface.c ****     uint8_t motorID=0;
 2956              		.loc 1 706 13 is_stmt 0 view .LVU822
 2957 0474 0020     		movs	r0, #0
 2958              	.LVL353:
 2959              	.LBB306:
1129:Src/register_interface.c ****             }
 2960              		.loc 1 1129 15 view .LVU823
 2961 0476 5DE6     		b	.L256
 2962              	.LVL354:
 2963              	.L292:
1129:Src/register_interface.c ****             }
 2964              		.loc 1 1129 15 view .LVU824
 2965              	.LBE306:
 788:Src/register_interface.c ****         }
 2966              		.loc 1 788 18 view .LVU825
 2967 0478 0820     		movs	r0, #8
 2968              	.LVL355:
1259:Src/register_interface.c ****   }
 2969              		.loc 1 1259 5 is_stmt 1 view .LVU826
 2970              		.loc 1 1260 3 is_stmt 0 view .LVU827
 2971 047a 0DB0     		add	sp, sp, #52
 2972              	.LCFI40:
 2973              		.cfi_remember_state
 2974              		.cfi_def_cfa_offset 12
 2975              		@ sp needed
 2976 047c 30BD     		pop	{r4, r5, pc}
 2977              	.LVL356:
 2978              	.L290:
 2979              	.LCFI41:
 2980              		.cfi_restore_state
 706:Src/register_interface.c ****     uint8_t motorID=0;
ARM GAS  /tmp/ccKFuU3x.s 			page 106


 2981              		.loc 1 706 13 view .LVU828
 2982 047e 0020     		movs	r0, #0
 2983              	.LVL357:
 706:Src/register_interface.c ****     uint8_t motorID=0;
 2984              		.loc 1 706 13 view .LVU829
 2985 0480 32E6     		b	.L224
 2986              	.LVL358:
 2987              	.L301:
 2988              	.LBB307:
 2989              	.LBB207:
1209:Src/register_interface.c ****               (void)memcpy(rawData, (const uint8_t *)pFOCConfig_reg, sizeof(FOCFwConfig_reg_t));
 2990              		.loc 1 1209 15 is_stmt 1 view .LVU830
1210:Src/register_interface.c ****             }
 2991              		.loc 1 1210 15 view .LVU831
1209:Src/register_interface.c ****               (void)memcpy(rawData, (const uint8_t *)pFOCConfig_reg, sizeof(FOCFwConfig_reg_t));
 2992              		.loc 1 1209 40 is_stmt 0 view .LVU832
 2993 0482 8E4A     		ldr	r2, .L321+4
 2994              	.LVL359:
1210:Src/register_interface.c ****             }
 2995              		.loc 1 1210 21 view .LVU833
 2996 0484 1268     		ldr	r2, [r2]
 2997              	.LVL360:
1210:Src/register_interface.c ****             }
 2998              		.loc 1 1210 21 view .LVU834
 2999 0486 5068     		ldr	r0, [r2, #4]	@ unaligned
 3000              	.LVL361:
1210:Src/register_interface.c ****             }
 3001              		.loc 1 1210 21 view .LVU835
 3002 0488 D2F800C0 		ldr	ip, [r2]	@ unaligned
 3003 048c 9168     		ldr	r1, [r2, #8]	@ unaligned
 3004              	.LVL362:
1210:Src/register_interface.c ****             }
 3005              		.loc 1 1210 21 view .LVU836
 3006 048e C4F802C0 		str	ip, [r4, #2]	@ unaligned
 3007 0492 5860     		str	r0, [r3, #4]	@ unaligned
 3008 0494 9960     		str	r1, [r3, #8]	@ unaligned
 3009 0496 9289     		ldrh	r2, [r2, #12]	@ unaligned
 3010              	.LVL363:
1210:Src/register_interface.c ****             }
 3011              		.loc 1 1210 21 view .LVU837
 3012 0498 9A81     		strh	r2, [r3, #12]	@ unaligned
 3013              	.LBE207:
 3014              	.LBE307:
 706:Src/register_interface.c ****     uint8_t motorID=0;
 3015              		.loc 1 706 13 view .LVU838
 3016 049a 0020     		movs	r0, #0
 3017              	.LBB308:
 3018              	.LBB208:
1210:Src/register_interface.c ****             }
 3019              		.loc 1 1210 21 view .LVU839
 3020 049c 1023     		movs	r3, #16
 3021              	.LVL364:
1210:Src/register_interface.c ****             }
 3022              		.loc 1 1210 21 view .LVU840
 3023 049e E7E5     		b	.L285
 3024              	.LVL365:
 3025              	.L297:
ARM GAS  /tmp/ccKFuU3x.s 			page 107


1210:Src/register_interface.c ****             }
 3026              		.loc 1 1210 21 view .LVU841
 3027              	.LBE208:
 3028              	.LBE308:
 3029 04a0 0520     		movs	r0, #5
 3030              	.LVL366:
1210:Src/register_interface.c ****             }
 3031              		.loc 1 1210 21 view .LVU842
 3032 04a2 FCE5     		b	.L208
 3033              	.LVL367:
 3034              	.L287:
 788:Src/register_interface.c ****         }
 3035              		.loc 1 788 18 view .LVU843
 3036 04a4 0846     		mov	r0, r1
 3037              	.LVL368:
 788:Src/register_interface.c ****         }
 3038              		.loc 1 788 18 view .LVU844
 3039 04a6 CAE5     		b	.L195
 3040              	.LVL369:
 3041              	.L283:
 3042              	.LBB309:
1249:Src/register_interface.c ****         break;
 3043              		.loc 1 1249 28 view .LVU845
 3044 04a8 2388     		ldrh	r3, [r4]
 3045              	.LVL370:
1249:Src/register_interface.c ****         break;
 3046              		.loc 1 1249 28 view .LVU846
 3047 04aa 0233     		adds	r3, r3, #2
1243:Src/register_interface.c ****             break;
 3048              		.loc 1 1243 20 view .LVU847
 3049 04ac 0520     		movs	r0, #5
 3050              	.LVL371:
1249:Src/register_interface.c ****         break;
 3051              		.loc 1 1249 28 view .LVU848
 3052 04ae 9BB2     		uxth	r3, r3
 3053 04b0 DEE5     		b	.L285
 3054              	.LVL372:
 3055              	.L281:
1187:Src/register_interface.c ****             if (((*rawSize) + 2U) > (uint16_t)freeSpace)
 3056              		.loc 1 1187 13 is_stmt 1 view .LVU849
1188:Src/register_interface.c ****             {
 3057              		.loc 1 1188 16 is_stmt 0 view .LVU850
 3058 04b2 1FFA8EFE 		uxth	lr, lr
1187:Src/register_interface.c ****             if (((*rawSize) + 2U) > (uint16_t)freeSpace)
 3059              		.loc 1 1187 22 view .LVU851
 3060 04b6 1022     		movs	r2, #16
 3061              	.LVL373:
1188:Src/register_interface.c ****             {
 3062              		.loc 1 1188 16 view .LVU852
 3063 04b8 BEF1110F 		cmp	lr, #17
1187:Src/register_interface.c ****             if (((*rawSize) + 2U) > (uint16_t)freeSpace)
 3064              		.loc 1 1187 22 view .LVU853
 3065 04bc 2280     		strh	r2, [r4]	@ movhi
1188:Src/register_interface.c ****             {
 3066              		.loc 1 1188 13 is_stmt 1 view .LVU854
1188:Src/register_interface.c ****             {
 3067              		.loc 1 1188 16 is_stmt 0 view .LVU855
ARM GAS  /tmp/ccKFuU3x.s 			page 108


 3068 04be 3DD8     		bhi	.L318
 3069 04c0 1223     		movs	r3, #18
 3070              	.LVL374:
1190:Src/register_interface.c ****             }
 3071              		.loc 1 1190 22 view .LVU856
 3072 04c2 0820     		movs	r0, #8
 3073              	.LVL375:
1190:Src/register_interface.c ****             }
 3074              		.loc 1 1190 22 view .LVU857
 3075 04c4 D4E5     		b	.L285
 3076              	.LVL376:
 3077              	.L279:
1217:Src/register_interface.c ****             if ((*rawSize) +2U > (uint16_t)freeSpace)
 3078              		.loc 1 1217 13 is_stmt 1 view .LVU858
1218:Src/register_interface.c ****             {
 3079              		.loc 1 1218 16 is_stmt 0 view .LVU859
 3080 04c6 1FFA8EFE 		uxth	lr, lr
1217:Src/register_interface.c ****             if ((*rawSize) +2U > (uint16_t)freeSpace)
 3081              		.loc 1 1217 22 view .LVU860
 3082 04ca 0C22     		movs	r2, #12
 3083              	.LVL377:
1218:Src/register_interface.c ****             {
 3084              		.loc 1 1218 16 view .LVU861
 3085 04cc BEF10D0F 		cmp	lr, #13
1217:Src/register_interface.c ****             if ((*rawSize) +2U > (uint16_t)freeSpace)
 3086              		.loc 1 1217 22 view .LVU862
 3087 04d0 2280     		strh	r2, [r4]	@ movhi
1218:Src/register_interface.c ****             {
 3088              		.loc 1 1218 13 is_stmt 1 view .LVU863
1218:Src/register_interface.c ****             {
 3089              		.loc 1 1218 16 is_stmt 0 view .LVU864
 3090 04d2 0DD9     		bls	.L295
1224:Src/register_interface.c ****             }
 3091              		.loc 1 1224 15 is_stmt 1 view .LVU865
 3092 04d4 7A4A     		ldr	r2, .L321+8
 3093 04d6 5068     		ldr	r0, [r2, #4]	@ unaligned
 3094              	.LVL378:
1224:Src/register_interface.c ****             }
 3095              		.loc 1 1224 15 is_stmt 0 view .LVU866
 3096 04d8 D2F800C0 		ldr	ip, [r2]	@ unaligned
 3097 04dc 9168     		ldr	r1, [r2, #8]	@ unaligned
 3098              	.LVL379:
1224:Src/register_interface.c ****             }
 3099              		.loc 1 1224 15 view .LVU867
 3100 04de D268     		ldr	r2, [r2, #12]	@ unaligned
 3101 04e0 C4F802C0 		str	ip, [r4, #2]	@ unaligned
 3102 04e4 5860     		str	r0, [r3, #4]	@ unaligned
 3103 04e6 9960     		str	r1, [r3, #8]	@ unaligned
 3104 04e8 DA60     		str	r2, [r3, #12]	@ unaligned
 3105              	.LBE309:
 706:Src/register_interface.c ****     uint8_t motorID=0;
 3106              		.loc 1 706 13 view .LVU868
 3107 04ea 0020     		movs	r0, #0
 3108              	.LBB310:
1224:Src/register_interface.c ****             }
 3109              		.loc 1 1224 15 view .LVU869
 3110 04ec 0E23     		movs	r3, #14
ARM GAS  /tmp/ccKFuU3x.s 			page 109


 3111              	.LVL380:
1224:Src/register_interface.c ****             }
 3112              		.loc 1 1224 15 view .LVU870
 3113 04ee BFE5     		b	.L285
 3114              	.LVL381:
 3115              	.L295:
1224:Src/register_interface.c ****             }
 3116              		.loc 1 1224 15 view .LVU871
 3117 04f0 0E23     		movs	r3, #14
 3118              	.LVL382:
1220:Src/register_interface.c ****             }
 3119              		.loc 1 1220 22 view .LVU872
 3120 04f2 0820     		movs	r0, #8
 3121              	.LVL383:
1220:Src/register_interface.c ****             }
 3122              		.loc 1 1220 22 view .LVU873
 3123 04f4 BCE5     		b	.L285
 3124              	.LVL384:
 3125              	.L204:
1220:Src/register_interface.c ****             }
 3126              		.loc 1 1220 22 view .LVU874
 3127              	.LBE310:
 732:Src/register_interface.c ****               break;
 3128              		.loc 1 732 15 is_stmt 1 view .LVU875
 3129              	.LBB311:
 3130              	.LBI311:
 3131              		.file 5 "MCSDK_v6.3.2-Full/MotorControl/MCSDK/MCLib/Any/Inc/revup_ctrl.h"
   1:MCSDK_v6.3.2-Full/MotorControl/MCSDK/MCLib/Any/Inc/revup_ctrl.h **** /**
   2:MCSDK_v6.3.2-Full/MotorControl/MCSDK/MCLib/Any/Inc/revup_ctrl.h ****   ******************************************************************************
   3:MCSDK_v6.3.2-Full/MotorControl/MCSDK/MCLib/Any/Inc/revup_ctrl.h ****   * @file    revup_ctrl.h
   4:MCSDK_v6.3.2-Full/MotorControl/MCSDK/MCLib/Any/Inc/revup_ctrl.h ****   * @author  Motor Control SDK Team, ST Microelectronics
   5:MCSDK_v6.3.2-Full/MotorControl/MCSDK/MCLib/Any/Inc/revup_ctrl.h ****   * @brief   This file contains all definitions and functions prototypes for the
   6:MCSDK_v6.3.2-Full/MotorControl/MCSDK/MCLib/Any/Inc/revup_ctrl.h ****   *          RevUpCtrl component of the Motor Control SDK.
   7:MCSDK_v6.3.2-Full/MotorControl/MCSDK/MCLib/Any/Inc/revup_ctrl.h ****   ******************************************************************************
   8:MCSDK_v6.3.2-Full/MotorControl/MCSDK/MCLib/Any/Inc/revup_ctrl.h ****   * @attention
   9:MCSDK_v6.3.2-Full/MotorControl/MCSDK/MCLib/Any/Inc/revup_ctrl.h ****   *
  10:MCSDK_v6.3.2-Full/MotorControl/MCSDK/MCLib/Any/Inc/revup_ctrl.h ****   * <h2><center>&copy; Copyright (c) 2024 STMicroelectronics.
  11:MCSDK_v6.3.2-Full/MotorControl/MCSDK/MCLib/Any/Inc/revup_ctrl.h ****   * All rights reserved.</center></h2>
  12:MCSDK_v6.3.2-Full/MotorControl/MCSDK/MCLib/Any/Inc/revup_ctrl.h ****   *
  13:MCSDK_v6.3.2-Full/MotorControl/MCSDK/MCLib/Any/Inc/revup_ctrl.h ****   * This software component is licensed by ST under Ultimate Liberty license
  14:MCSDK_v6.3.2-Full/MotorControl/MCSDK/MCLib/Any/Inc/revup_ctrl.h ****   * SLA0044, the "License"; You may not use this file except in compliance with
  15:MCSDK_v6.3.2-Full/MotorControl/MCSDK/MCLib/Any/Inc/revup_ctrl.h ****   * the License. You may obtain a copy of the License at:
  16:MCSDK_v6.3.2-Full/MotorControl/MCSDK/MCLib/Any/Inc/revup_ctrl.h ****   *                             www.st.com/SLA0044
  17:MCSDK_v6.3.2-Full/MotorControl/MCSDK/MCLib/Any/Inc/revup_ctrl.h ****   *
  18:MCSDK_v6.3.2-Full/MotorControl/MCSDK/MCLib/Any/Inc/revup_ctrl.h ****   ******************************************************************************
  19:MCSDK_v6.3.2-Full/MotorControl/MCSDK/MCLib/Any/Inc/revup_ctrl.h ****   * @ingroup RevUpCtrlFOC
  20:MCSDK_v6.3.2-Full/MotorControl/MCSDK/MCLib/Any/Inc/revup_ctrl.h ****   */
  21:MCSDK_v6.3.2-Full/MotorControl/MCSDK/MCLib/Any/Inc/revup_ctrl.h **** 
  22:MCSDK_v6.3.2-Full/MotorControl/MCSDK/MCLib/Any/Inc/revup_ctrl.h **** /* Define to prevent recursive inclusion -------------------------------------*/
  23:MCSDK_v6.3.2-Full/MotorControl/MCSDK/MCLib/Any/Inc/revup_ctrl.h **** #ifndef REVUP_CTRL_H
  24:MCSDK_v6.3.2-Full/MotorControl/MCSDK/MCLib/Any/Inc/revup_ctrl.h **** #define REVUP_CTRL_H
  25:MCSDK_v6.3.2-Full/MotorControl/MCSDK/MCLib/Any/Inc/revup_ctrl.h **** 
  26:MCSDK_v6.3.2-Full/MotorControl/MCSDK/MCLib/Any/Inc/revup_ctrl.h **** #ifdef __cplusplus
  27:MCSDK_v6.3.2-Full/MotorControl/MCSDK/MCLib/Any/Inc/revup_ctrl.h **** extern "C" {
  28:MCSDK_v6.3.2-Full/MotorControl/MCSDK/MCLib/Any/Inc/revup_ctrl.h **** #endif /* __cplusplus */
  29:MCSDK_v6.3.2-Full/MotorControl/MCSDK/MCLib/Any/Inc/revup_ctrl.h **** 
  30:MCSDK_v6.3.2-Full/MotorControl/MCSDK/MCLib/Any/Inc/revup_ctrl.h **** /* Includes ------------------------------------------------------------------*/
ARM GAS  /tmp/ccKFuU3x.s 			page 110


  31:MCSDK_v6.3.2-Full/MotorControl/MCSDK/MCLib/Any/Inc/revup_ctrl.h **** #include "mc_type.h"
  32:MCSDK_v6.3.2-Full/MotorControl/MCSDK/MCLib/Any/Inc/revup_ctrl.h **** #include "speed_torq_ctrl.h"
  33:MCSDK_v6.3.2-Full/MotorControl/MCSDK/MCLib/Any/Inc/revup_ctrl.h **** #include "virtual_speed_sensor.h"
  34:MCSDK_v6.3.2-Full/MotorControl/MCSDK/MCLib/Any/Inc/revup_ctrl.h **** #include "sto_speed_pos_fdbk.h"
  35:MCSDK_v6.3.2-Full/MotorControl/MCSDK/MCLib/Any/Inc/revup_ctrl.h **** #include "pwm_curr_fdbk.h"
  36:MCSDK_v6.3.2-Full/MotorControl/MCSDK/MCLib/Any/Inc/revup_ctrl.h **** 
  37:MCSDK_v6.3.2-Full/MotorControl/MCSDK/MCLib/Any/Inc/revup_ctrl.h **** /** @addtogroup MCSDK
  38:MCSDK_v6.3.2-Full/MotorControl/MCSDK/MCLib/Any/Inc/revup_ctrl.h ****   * @{
  39:MCSDK_v6.3.2-Full/MotorControl/MCSDK/MCLib/Any/Inc/revup_ctrl.h ****   */
  40:MCSDK_v6.3.2-Full/MotorControl/MCSDK/MCLib/Any/Inc/revup_ctrl.h **** 
  41:MCSDK_v6.3.2-Full/MotorControl/MCSDK/MCLib/Any/Inc/revup_ctrl.h **** /** @addtogroup RevUpCtrl
  42:MCSDK_v6.3.2-Full/MotorControl/MCSDK/MCLib/Any/Inc/revup_ctrl.h ****   * @{
  43:MCSDK_v6.3.2-Full/MotorControl/MCSDK/MCLib/Any/Inc/revup_ctrl.h ****   */
  44:MCSDK_v6.3.2-Full/MotorControl/MCSDK/MCLib/Any/Inc/revup_ctrl.h **** 
  45:MCSDK_v6.3.2-Full/MotorControl/MCSDK/MCLib/Any/Inc/revup_ctrl.h **** /** @addtogroup RevUpCtrlFOC
  46:MCSDK_v6.3.2-Full/MotorControl/MCSDK/MCLib/Any/Inc/revup_ctrl.h ****   * @{
  47:MCSDK_v6.3.2-Full/MotorControl/MCSDK/MCLib/Any/Inc/revup_ctrl.h ****   */
  48:MCSDK_v6.3.2-Full/MotorControl/MCSDK/MCLib/Any/Inc/revup_ctrl.h **** 
  49:MCSDK_v6.3.2-Full/MotorControl/MCSDK/MCLib/Any/Inc/revup_ctrl.h **** /* Exported constants --------------------------------------------------------*/
  50:MCSDK_v6.3.2-Full/MotorControl/MCSDK/MCLib/Any/Inc/revup_ctrl.h **** /**
  51:MCSDK_v6.3.2-Full/MotorControl/MCSDK/MCLib/Any/Inc/revup_ctrl.h ****   * @brief Maximum number of phases allowed for RevUp process.
  52:MCSDK_v6.3.2-Full/MotorControl/MCSDK/MCLib/Any/Inc/revup_ctrl.h ****   *
  53:MCSDK_v6.3.2-Full/MotorControl/MCSDK/MCLib/Any/Inc/revup_ctrl.h ****   */
  54:MCSDK_v6.3.2-Full/MotorControl/MCSDK/MCLib/Any/Inc/revup_ctrl.h **** #define RUC_MAX_PHASE_NUMBER 5u
  55:MCSDK_v6.3.2-Full/MotorControl/MCSDK/MCLib/Any/Inc/revup_ctrl.h **** 
  56:MCSDK_v6.3.2-Full/MotorControl/MCSDK/MCLib/Any/Inc/revup_ctrl.h **** /**
  57:MCSDK_v6.3.2-Full/MotorControl/MCSDK/MCLib/Any/Inc/revup_ctrl.h ****   * @brief RevUpCtrl_PhaseParams_t structure used for phases definition
  58:MCSDK_v6.3.2-Full/MotorControl/MCSDK/MCLib/Any/Inc/revup_ctrl.h ****   *
  59:MCSDK_v6.3.2-Full/MotorControl/MCSDK/MCLib/Any/Inc/revup_ctrl.h ****   */
  60:MCSDK_v6.3.2-Full/MotorControl/MCSDK/MCLib/Any/Inc/revup_ctrl.h **** typedef struct
  61:MCSDK_v6.3.2-Full/MotorControl/MCSDK/MCLib/Any/Inc/revup_ctrl.h **** {
  62:MCSDK_v6.3.2-Full/MotorControl/MCSDK/MCLib/Any/Inc/revup_ctrl.h ****   uint16_t hDurationms;       /**< @brief Duration of the RevUp phase. This parameter is expressed 
  63:MCSDK_v6.3.2-Full/MotorControl/MCSDK/MCLib/Any/Inc/revup_ctrl.h ****   int16_t hFinalMecSpeedUnit; /**< @brief Mechanical speed assumed by VSS at the end of the RevUp p
  64:MCSDK_v6.3.2-Full/MotorControl/MCSDK/MCLib/Any/Inc/revup_ctrl.h ****                                    the unit defined by #SPEED_UNIT */
  65:MCSDK_v6.3.2-Full/MotorControl/MCSDK/MCLib/Any/Inc/revup_ctrl.h ****   int16_t hFinalTorque;       /**< @brief Motor torque reference imposed by STC at the end of RevUp
  66:MCSDK_v6.3.2-Full/MotorControl/MCSDK/MCLib/Any/Inc/revup_ctrl.h ****                                    represents actually the Iq current expressed in digit.*/
  67:MCSDK_v6.3.2-Full/MotorControl/MCSDK/MCLib/Any/Inc/revup_ctrl.h ****   void *pNext;                /**< @brief Pointer on the next phase section to proceed
  68:MCSDK_v6.3.2-Full/MotorControl/MCSDK/MCLib/Any/Inc/revup_ctrl.h ****                                    This parameter is NULL for the last element. */
  69:MCSDK_v6.3.2-Full/MotorControl/MCSDK/MCLib/Any/Inc/revup_ctrl.h **** } RevUpCtrl_PhaseParams_t;
  70:MCSDK_v6.3.2-Full/MotorControl/MCSDK/MCLib/Any/Inc/revup_ctrl.h **** 
  71:MCSDK_v6.3.2-Full/MotorControl/MCSDK/MCLib/Any/Inc/revup_ctrl.h **** /**
  72:MCSDK_v6.3.2-Full/MotorControl/MCSDK/MCLib/Any/Inc/revup_ctrl.h ****   * @brief  Handle structure of the RevUpCtrl.
  73:MCSDK_v6.3.2-Full/MotorControl/MCSDK/MCLib/Any/Inc/revup_ctrl.h ****   *
  74:MCSDK_v6.3.2-Full/MotorControl/MCSDK/MCLib/Any/Inc/revup_ctrl.h ****   */
  75:MCSDK_v6.3.2-Full/MotorControl/MCSDK/MCLib/Any/Inc/revup_ctrl.h **** 
  76:MCSDK_v6.3.2-Full/MotorControl/MCSDK/MCLib/Any/Inc/revup_ctrl.h **** typedef struct
  77:MCSDK_v6.3.2-Full/MotorControl/MCSDK/MCLib/Any/Inc/revup_ctrl.h **** {
  78:MCSDK_v6.3.2-Full/MotorControl/MCSDK/MCLib/Any/Inc/revup_ctrl.h ****   uint16_t hRUCFrequencyHz;                                 /**< @brief Frequency call to main RevU
  79:MCSDK_v6.3.2-Full/MotorControl/MCSDK/MCLib/Any/Inc/revup_ctrl.h ****                                                                  This parameter is equal to speed l
  80:MCSDK_v6.3.2-Full/MotorControl/MCSDK/MCLib/Any/Inc/revup_ctrl.h **** 
  81:MCSDK_v6.3.2-Full/MotorControl/MCSDK/MCLib/Any/Inc/revup_ctrl.h ****   int16_t hStartingMecAngle;                                /**< @brief Starting angle of programme
  82:MCSDK_v6.3.2-Full/MotorControl/MCSDK/MCLib/Any/Inc/revup_ctrl.h **** 
  83:MCSDK_v6.3.2-Full/MotorControl/MCSDK/MCLib/Any/Inc/revup_ctrl.h ****   uint16_t hPhaseRemainingTicks;                            /**< @brief Number of clock events rema
  84:MCSDK_v6.3.2-Full/MotorControl/MCSDK/MCLib/Any/Inc/revup_ctrl.h ****                                                                  phase. */
  85:MCSDK_v6.3.2-Full/MotorControl/MCSDK/MCLib/Any/Inc/revup_ctrl.h **** 
  86:MCSDK_v6.3.2-Full/MotorControl/MCSDK/MCLib/Any/Inc/revup_ctrl.h ****   int16_t hDirection;                                       /**< @brief Motor direction.
  87:MCSDK_v6.3.2-Full/MotorControl/MCSDK/MCLib/Any/Inc/revup_ctrl.h ****                                                                  This parameter can be any value -1
ARM GAS  /tmp/ccKFuU3x.s 			page 111


  88:MCSDK_v6.3.2-Full/MotorControl/MCSDK/MCLib/Any/Inc/revup_ctrl.h **** 
  89:MCSDK_v6.3.2-Full/MotorControl/MCSDK/MCLib/Any/Inc/revup_ctrl.h ****   RevUpCtrl_PhaseParams_t *pCurrentPhaseParams;             /**< @brief Pointer on the current RevU
  90:MCSDK_v6.3.2-Full/MotorControl/MCSDK/MCLib/Any/Inc/revup_ctrl.h **** 
  91:MCSDK_v6.3.2-Full/MotorControl/MCSDK/MCLib/Any/Inc/revup_ctrl.h ****   RevUpCtrl_PhaseParams_t ParamsData[RUC_MAX_PHASE_NUMBER]; /**< @brief Start up Phases sequences u
  92:MCSDK_v6.3.2-Full/MotorControl/MCSDK/MCLib/Any/Inc/revup_ctrl.h ****                                                                  controller. Up to five phases can 
  93:MCSDK_v6.3.2-Full/MotorControl/MCSDK/MCLib/Any/Inc/revup_ctrl.h ****                                                                   up. */
  94:MCSDK_v6.3.2-Full/MotorControl/MCSDK/MCLib/Any/Inc/revup_ctrl.h **** 
  95:MCSDK_v6.3.2-Full/MotorControl/MCSDK/MCLib/Any/Inc/revup_ctrl.h ****   uint8_t bPhaseNbr;                                        /**< @brief Number of phases relative t
  96:MCSDK_v6.3.2-Full/MotorControl/MCSDK/MCLib/Any/Inc/revup_ctrl.h ****                                                                  RevUp sequence. This parameter can
  97:MCSDK_v6.3.2-Full/MotorControl/MCSDK/MCLib/Any/Inc/revup_ctrl.h ****                                                                  to 5 */
  98:MCSDK_v6.3.2-Full/MotorControl/MCSDK/MCLib/Any/Inc/revup_ctrl.h **** 
  99:MCSDK_v6.3.2-Full/MotorControl/MCSDK/MCLib/Any/Inc/revup_ctrl.h ****   uint8_t bFirstAccelerationStage;                          /**< @brief Indicates the phase to star
 100:MCSDK_v6.3.2-Full/MotorControl/MCSDK/MCLib/Any/Inc/revup_ctrl.h ****                                                                  acceleration.
 101:MCSDK_v6.3.2-Full/MotorControl/MCSDK/MCLib/Any/Inc/revup_ctrl.h ****                                                                  At start of this stage sensor-less
 102:MCSDK_v6.3.2-Full/MotorControl/MCSDK/MCLib/Any/Inc/revup_ctrl.h ****   uint16_t hMinStartUpValidSpeed;                           /**< @brief Minimum rotor speed require
 103:MCSDK_v6.3.2-Full/MotorControl/MCSDK/MCLib/Any/Inc/revup_ctrl.h ****                                                                  startup.
 104:MCSDK_v6.3.2-Full/MotorControl/MCSDK/MCLib/Any/Inc/revup_ctrl.h ****                                                                  This parameter is expressed in SPP
 105:MCSDK_v6.3.2-Full/MotorControl/MCSDK/MCLib/Any/Inc/revup_ctrl.h ****   uint16_t hMinStartUpFlySpeed;                             /**< @brief Minimum rotor speed require
 106:MCSDK_v6.3.2-Full/MotorControl/MCSDK/MCLib/Any/Inc/revup_ctrl.h ****                                                                  the fly. This parameter is express
 107:MCSDK_v6.3.2-Full/MotorControl/MCSDK/MCLib/Any/Inc/revup_ctrl.h ****                                                                  defined by #SPEED_UNIT */
 108:MCSDK_v6.3.2-Full/MotorControl/MCSDK/MCLib/Any/Inc/revup_ctrl.h ****   int16_t hOTFFinalRevUpCurrent;                            /**< @brief Final targetted torque for 
 109:MCSDK_v6.3.2-Full/MotorControl/MCSDK/MCLib/Any/Inc/revup_ctrl.h **** 
 110:MCSDK_v6.3.2-Full/MotorControl/MCSDK/MCLib/Any/Inc/revup_ctrl.h ****   uint16_t hOTFSection1Duration;                            /**< @brief On-the-fly phase duration, 
 111:MCSDK_v6.3.2-Full/MotorControl/MCSDK/MCLib/Any/Inc/revup_ctrl.h ****                                                                  This parameter is expressed in mil
 112:MCSDK_v6.3.2-Full/MotorControl/MCSDK/MCLib/Any/Inc/revup_ctrl.h ****   bool OTFStartupEnabled;                                   /**< @brief Flag for OTF feature activa
 113:MCSDK_v6.3.2-Full/MotorControl/MCSDK/MCLib/Any/Inc/revup_ctrl.h ****                                                                  Feature disabled when set to false
 114:MCSDK_v6.3.2-Full/MotorControl/MCSDK/MCLib/Any/Inc/revup_ctrl.h ****   uint8_t bOTFRelCounter;                                   /**< @brief Counts the number of reliab
 115:MCSDK_v6.3.2-Full/MotorControl/MCSDK/MCLib/Any/Inc/revup_ctrl.h ****                                                                  observer */
 116:MCSDK_v6.3.2-Full/MotorControl/MCSDK/MCLib/Any/Inc/revup_ctrl.h **** 
 117:MCSDK_v6.3.2-Full/MotorControl/MCSDK/MCLib/Any/Inc/revup_ctrl.h ****   bool OTFSCLowside;                                        /**< @brief Flag to indicate status of 
 118:MCSDK_v6.3.2-Full/MotorControl/MCSDK/MCLib/Any/Inc/revup_ctrl.h ****                                                                  This parameter can be true when Lo
 119:MCSDK_v6.3.2-Full/MotorControl/MCSDK/MCLib/Any/Inc/revup_ctrl.h ****                                                                  otherwise set to false. */
 120:MCSDK_v6.3.2-Full/MotorControl/MCSDK/MCLib/Any/Inc/revup_ctrl.h ****   bool EnteredZone1;                                        /**< @brief Flag to indicate that the m
 121:MCSDK_v6.3.2-Full/MotorControl/MCSDK/MCLib/Any/Inc/revup_ctrl.h ****                                                                  has been reached. */
 122:MCSDK_v6.3.2-Full/MotorControl/MCSDK/MCLib/Any/Inc/revup_ctrl.h **** 
 123:MCSDK_v6.3.2-Full/MotorControl/MCSDK/MCLib/Any/Inc/revup_ctrl.h ****   uint8_t bResetPLLTh;                                      /**< @brief Threshold to reset PLL duri
 124:MCSDK_v6.3.2-Full/MotorControl/MCSDK/MCLib/Any/Inc/revup_ctrl.h **** 
 125:MCSDK_v6.3.2-Full/MotorControl/MCSDK/MCLib/Any/Inc/revup_ctrl.h ****   uint8_t bResetPLLCnt;                                     /**< @brief Counter to reset PLL during
 126:MCSDK_v6.3.2-Full/MotorControl/MCSDK/MCLib/Any/Inc/revup_ctrl.h ****                                                                  threshold is reached. */
 127:MCSDK_v6.3.2-Full/MotorControl/MCSDK/MCLib/Any/Inc/revup_ctrl.h **** 
 128:MCSDK_v6.3.2-Full/MotorControl/MCSDK/MCLib/Any/Inc/revup_ctrl.h ****   uint8_t bStageCnt;                                        /**< @brief Counter of executed phases.
 129:MCSDK_v6.3.2-Full/MotorControl/MCSDK/MCLib/Any/Inc/revup_ctrl.h ****                                                                  This parameter can be any value fr
 130:MCSDK_v6.3.2-Full/MotorControl/MCSDK/MCLib/Any/Inc/revup_ctrl.h **** 
 131:MCSDK_v6.3.2-Full/MotorControl/MCSDK/MCLib/Any/Inc/revup_ctrl.h ****   RevUpCtrl_PhaseParams_t OTFPhaseParams;                   /**< @brief RevUp phase parameter of OT
 132:MCSDK_v6.3.2-Full/MotorControl/MCSDK/MCLib/Any/Inc/revup_ctrl.h **** 
 133:MCSDK_v6.3.2-Full/MotorControl/MCSDK/MCLib/Any/Inc/revup_ctrl.h ****   SpeednTorqCtrl_Handle_t *pSTC;                            /**< @brief Speed and torque controller
 134:MCSDK_v6.3.2-Full/MotorControl/MCSDK/MCLib/Any/Inc/revup_ctrl.h ****                                                                  RevUpCtrl.*/
 135:MCSDK_v6.3.2-Full/MotorControl/MCSDK/MCLib/Any/Inc/revup_ctrl.h **** 
 136:MCSDK_v6.3.2-Full/MotorControl/MCSDK/MCLib/Any/Inc/revup_ctrl.h ****   VirtualSpeedSensor_Handle_t *pVSS;                        /**< @brief Virtual speed sensor object
 137:MCSDK_v6.3.2-Full/MotorControl/MCSDK/MCLib/Any/Inc/revup_ctrl.h **** 
 138:MCSDK_v6.3.2-Full/MotorControl/MCSDK/MCLib/Any/Inc/revup_ctrl.h ****   STO_Handle_t *pSNSL;                                      /**< @brief STO sensor object used by O
 139:MCSDK_v6.3.2-Full/MotorControl/MCSDK/MCLib/Any/Inc/revup_ctrl.h **** 
 140:MCSDK_v6.3.2-Full/MotorControl/MCSDK/MCLib/Any/Inc/revup_ctrl.h ****   PWMC_Handle_t *pPWM;                                      /**< @brief PWM object used by OTF star
 141:MCSDK_v6.3.2-Full/MotorControl/MCSDK/MCLib/Any/Inc/revup_ctrl.h **** 
 142:MCSDK_v6.3.2-Full/MotorControl/MCSDK/MCLib/Any/Inc/revup_ctrl.h **** } RevUpCtrl_Handle_t;
 143:MCSDK_v6.3.2-Full/MotorControl/MCSDK/MCLib/Any/Inc/revup_ctrl.h **** 
 144:MCSDK_v6.3.2-Full/MotorControl/MCSDK/MCLib/Any/Inc/revup_ctrl.h **** 
ARM GAS  /tmp/ccKFuU3x.s 			page 112


 145:MCSDK_v6.3.2-Full/MotorControl/MCSDK/MCLib/Any/Inc/revup_ctrl.h **** /* Exported functions ------------------------------------------------------- */
 146:MCSDK_v6.3.2-Full/MotorControl/MCSDK/MCLib/Any/Inc/revup_ctrl.h **** 
 147:MCSDK_v6.3.2-Full/MotorControl/MCSDK/MCLib/Any/Inc/revup_ctrl.h **** /*  Initializes and configures the RevUpCtrl Component */
 148:MCSDK_v6.3.2-Full/MotorControl/MCSDK/MCLib/Any/Inc/revup_ctrl.h **** void RUC_Init(RevUpCtrl_Handle_t *pHandle, SpeednTorqCtrl_Handle_t *pSTC, VirtualSpeedSensor_Handle
 149:MCSDK_v6.3.2-Full/MotorControl/MCSDK/MCLib/Any/Inc/revup_ctrl.h ****               STO_Handle_t *pSNSL, PWMC_Handle_t *pPWM);
 150:MCSDK_v6.3.2-Full/MotorControl/MCSDK/MCLib/Any/Inc/revup_ctrl.h **** 
 151:MCSDK_v6.3.2-Full/MotorControl/MCSDK/MCLib/Any/Inc/revup_ctrl.h **** /* Initializes the internal RevUp controller state */
 152:MCSDK_v6.3.2-Full/MotorControl/MCSDK/MCLib/Any/Inc/revup_ctrl.h **** void RUC_Clear(RevUpCtrl_Handle_t *pHandle, int16_t hMotorDirection);
 153:MCSDK_v6.3.2-Full/MotorControl/MCSDK/MCLib/Any/Inc/revup_ctrl.h **** 
 154:MCSDK_v6.3.2-Full/MotorControl/MCSDK/MCLib/Any/Inc/revup_ctrl.h **** /* Main Rev-Up controller procedure executing overall programmed phases */
 155:MCSDK_v6.3.2-Full/MotorControl/MCSDK/MCLib/Any/Inc/revup_ctrl.h **** bool RUC_Exec(RevUpCtrl_Handle_t *pHandle);
 156:MCSDK_v6.3.2-Full/MotorControl/MCSDK/MCLib/Any/Inc/revup_ctrl.h **** 
 157:MCSDK_v6.3.2-Full/MotorControl/MCSDK/MCLib/Any/Inc/revup_ctrl.h **** /* Main Rev-Up controller procedure that executes overall programmed phases and on-the-fly startup 
 158:MCSDK_v6.3.2-Full/MotorControl/MCSDK/MCLib/Any/Inc/revup_ctrl.h **** bool RUC_OTF_Exec(RevUpCtrl_Handle_t *pHandle);
 159:MCSDK_v6.3.2-Full/MotorControl/MCSDK/MCLib/Any/Inc/revup_ctrl.h **** 
 160:MCSDK_v6.3.2-Full/MotorControl/MCSDK/MCLib/Any/Inc/revup_ctrl.h **** /* Checks that alignment and first acceleration stage are completed */
 161:MCSDK_v6.3.2-Full/MotorControl/MCSDK/MCLib/Any/Inc/revup_ctrl.h **** bool RUC_FirstAccelerationStageReached(RevUpCtrl_Handle_t *pHandle);
 162:MCSDK_v6.3.2-Full/MotorControl/MCSDK/MCLib/Any/Inc/revup_ctrl.h **** 
 163:MCSDK_v6.3.2-Full/MotorControl/MCSDK/MCLib/Any/Inc/revup_ctrl.h **** /* Allows to modify duration (ms unit) of a selected phase */
 164:MCSDK_v6.3.2-Full/MotorControl/MCSDK/MCLib/Any/Inc/revup_ctrl.h **** void RUC_SetPhaseDurationms(RevUpCtrl_Handle_t *pHandle, uint8_t bPhase, uint16_t hDurationms);
 165:MCSDK_v6.3.2-Full/MotorControl/MCSDK/MCLib/Any/Inc/revup_ctrl.h **** 
 166:MCSDK_v6.3.2-Full/MotorControl/MCSDK/MCLib/Any/Inc/revup_ctrl.h **** /* Allows to modify targeted mechanical speed of a selected phase */
 167:MCSDK_v6.3.2-Full/MotorControl/MCSDK/MCLib/Any/Inc/revup_ctrl.h **** void RUC_SetPhaseFinalMecSpeedUnit(RevUpCtrl_Handle_t *pHandle, uint8_t bPhase, int16_t hFinalMecSp
 168:MCSDK_v6.3.2-Full/MotorControl/MCSDK/MCLib/Any/Inc/revup_ctrl.h **** 
 169:MCSDK_v6.3.2-Full/MotorControl/MCSDK/MCLib/Any/Inc/revup_ctrl.h **** /* Allows to modify targeted the motor torque of a selected phase */
 170:MCSDK_v6.3.2-Full/MotorControl/MCSDK/MCLib/Any/Inc/revup_ctrl.h **** void RUC_SetPhaseFinalTorque(RevUpCtrl_Handle_t *pHandle, uint8_t bPhase, int16_t hFinalTorque);
 171:MCSDK_v6.3.2-Full/MotorControl/MCSDK/MCLib/Any/Inc/revup_ctrl.h **** 
 172:MCSDK_v6.3.2-Full/MotorControl/MCSDK/MCLib/Any/Inc/revup_ctrl.h **** /* Allows to read duration set in selected phase */
 173:MCSDK_v6.3.2-Full/MotorControl/MCSDK/MCLib/Any/Inc/revup_ctrl.h **** uint16_t RUC_GetPhaseDurationms(RevUpCtrl_Handle_t *pHandle, uint8_t bPhase);
 174:MCSDK_v6.3.2-Full/MotorControl/MCSDK/MCLib/Any/Inc/revup_ctrl.h **** 
 175:MCSDK_v6.3.2-Full/MotorControl/MCSDK/MCLib/Any/Inc/revup_ctrl.h **** /* Allows to read targeted Rotor speed set in selected phase */
 176:MCSDK_v6.3.2-Full/MotorControl/MCSDK/MCLib/Any/Inc/revup_ctrl.h **** int16_t RUC_GetPhaseFinalMecSpeedUnit(RevUpCtrl_Handle_t *pHandle, uint8_t bPhase);
 177:MCSDK_v6.3.2-Full/MotorControl/MCSDK/MCLib/Any/Inc/revup_ctrl.h **** 
 178:MCSDK_v6.3.2-Full/MotorControl/MCSDK/MCLib/Any/Inc/revup_ctrl.h **** /* Allows to read targeted motor torque set in selected phase */
 179:MCSDK_v6.3.2-Full/MotorControl/MCSDK/MCLib/Any/Inc/revup_ctrl.h **** int16_t RUC_GetPhaseFinalTorque(RevUpCtrl_Handle_t *pHandle, uint8_t bPhase);
 180:MCSDK_v6.3.2-Full/MotorControl/MCSDK/MCLib/Any/Inc/revup_ctrl.h **** 
 181:MCSDK_v6.3.2-Full/MotorControl/MCSDK/MCLib/Any/Inc/revup_ctrl.h **** /* @brief  It checks if this stage is used for align motor. */
 182:MCSDK_v6.3.2-Full/MotorControl/MCSDK/MCLib/Any/Inc/revup_ctrl.h **** uint8_t RUC_IsAlignStageNow(RevUpCtrl_Handle_t *pHandle);
 183:MCSDK_v6.3.2-Full/MotorControl/MCSDK/MCLib/Any/Inc/revup_ctrl.h **** 
 184:MCSDK_v6.3.2-Full/MotorControl/MCSDK/MCLib/Any/Inc/revup_ctrl.h **** /**
 185:MCSDK_v6.3.2-Full/MotorControl/MCSDK/MCLib/Any/Inc/revup_ctrl.h ****   * @brief  Allow to exit from Rev-Up process at the current rotor speed.
 186:MCSDK_v6.3.2-Full/MotorControl/MCSDK/MCLib/Any/Inc/revup_ctrl.h ****   * @param  pHandle: Pointer on Handle structure of RevUp controller.
 187:MCSDK_v6.3.2-Full/MotorControl/MCSDK/MCLib/Any/Inc/revup_ctrl.h ****   */
 188:MCSDK_v6.3.2-Full/MotorControl/MCSDK/MCLib/Any/Inc/revup_ctrl.h **** static inline void RUC_Stop(RevUpCtrl_Handle_t *pHandle)
 189:MCSDK_v6.3.2-Full/MotorControl/MCSDK/MCLib/Any/Inc/revup_ctrl.h **** {
 190:MCSDK_v6.3.2-Full/MotorControl/MCSDK/MCLib/Any/Inc/revup_ctrl.h **** #ifdef NULL_PTR_CHECK_REV_UP_CTL
 191:MCSDK_v6.3.2-Full/MotorControl/MCSDK/MCLib/Any/Inc/revup_ctrl.h ****   if (MC_NULL == pHandle)
 192:MCSDK_v6.3.2-Full/MotorControl/MCSDK/MCLib/Any/Inc/revup_ctrl.h ****   {
 193:MCSDK_v6.3.2-Full/MotorControl/MCSDK/MCLib/Any/Inc/revup_ctrl.h ****     /* Nothing to do */
 194:MCSDK_v6.3.2-Full/MotorControl/MCSDK/MCLib/Any/Inc/revup_ctrl.h ****   }
 195:MCSDK_v6.3.2-Full/MotorControl/MCSDK/MCLib/Any/Inc/revup_ctrl.h ****   else
 196:MCSDK_v6.3.2-Full/MotorControl/MCSDK/MCLib/Any/Inc/revup_ctrl.h ****   {
 197:MCSDK_v6.3.2-Full/MotorControl/MCSDK/MCLib/Any/Inc/revup_ctrl.h **** #endif
 198:MCSDK_v6.3.2-Full/MotorControl/MCSDK/MCLib/Any/Inc/revup_ctrl.h ****     VirtualSpeedSensor_Handle_t *pVSS = pHandle->pVSS;
 199:MCSDK_v6.3.2-Full/MotorControl/MCSDK/MCLib/Any/Inc/revup_ctrl.h ****     pHandle->pCurrentPhaseParams = MC_NULL;
 200:MCSDK_v6.3.2-Full/MotorControl/MCSDK/MCLib/Any/Inc/revup_ctrl.h ****     pHandle->hPhaseRemainingTicks = 0U;
 201:MCSDK_v6.3.2-Full/MotorControl/MCSDK/MCLib/Any/Inc/revup_ctrl.h ****     VSS_SetMecAcceleration(pVSS, SPD_GetAvrgMecSpeedUnit(&pVSS->_Super), 0U);
ARM GAS  /tmp/ccKFuU3x.s 			page 113


 202:MCSDK_v6.3.2-Full/MotorControl/MCSDK/MCLib/Any/Inc/revup_ctrl.h **** #ifdef NULL_PTR_CHECK_REV_UP_CTL
 203:MCSDK_v6.3.2-Full/MotorControl/MCSDK/MCLib/Any/Inc/revup_ctrl.h ****   }
 204:MCSDK_v6.3.2-Full/MotorControl/MCSDK/MCLib/Any/Inc/revup_ctrl.h **** #endif
 205:MCSDK_v6.3.2-Full/MotorControl/MCSDK/MCLib/Any/Inc/revup_ctrl.h **** }
 206:MCSDK_v6.3.2-Full/MotorControl/MCSDK/MCLib/Any/Inc/revup_ctrl.h **** 
 207:MCSDK_v6.3.2-Full/MotorControl/MCSDK/MCLib/Any/Inc/revup_ctrl.h **** /**
 208:MCSDK_v6.3.2-Full/MotorControl/MCSDK/MCLib/Any/Inc/revup_ctrl.h ****   * @brief  Provide current state of Rev-Up controller procedure.
 209:MCSDK_v6.3.2-Full/MotorControl/MCSDK/MCLib/Any/Inc/revup_ctrl.h ****   * @param  pHandle: Pointer on Handle structure of RevUp controller.
 210:MCSDK_v6.3.2-Full/MotorControl/MCSDK/MCLib/Any/Inc/revup_ctrl.h ****   *  @retval Boolean set to true when entire Rev-Up phases have been completed.
 211:MCSDK_v6.3.2-Full/MotorControl/MCSDK/MCLib/Any/Inc/revup_ctrl.h ****   */
 212:MCSDK_v6.3.2-Full/MotorControl/MCSDK/MCLib/Any/Inc/revup_ctrl.h **** static inline bool RUC_Completed(RevUpCtrl_Handle_t *pHandle)
 213:MCSDK_v6.3.2-Full/MotorControl/MCSDK/MCLib/Any/Inc/revup_ctrl.h **** {
 214:MCSDK_v6.3.2-Full/MotorControl/MCSDK/MCLib/Any/Inc/revup_ctrl.h ****   bool retVal = false;
 215:MCSDK_v6.3.2-Full/MotorControl/MCSDK/MCLib/Any/Inc/revup_ctrl.h **** #ifdef NULL_PTR_CHECK_REV_UP_CTL
 216:MCSDK_v6.3.2-Full/MotorControl/MCSDK/MCLib/Any/Inc/revup_ctrl.h ****   if (MC_NULL == pHandle)
 217:MCSDK_v6.3.2-Full/MotorControl/MCSDK/MCLib/Any/Inc/revup_ctrl.h ****   {
 218:MCSDK_v6.3.2-Full/MotorControl/MCSDK/MCLib/Any/Inc/revup_ctrl.h ****     /* Nothing to do */
 219:MCSDK_v6.3.2-Full/MotorControl/MCSDK/MCLib/Any/Inc/revup_ctrl.h ****   }
 220:MCSDK_v6.3.2-Full/MotorControl/MCSDK/MCLib/Any/Inc/revup_ctrl.h ****   else
 221:MCSDK_v6.3.2-Full/MotorControl/MCSDK/MCLib/Any/Inc/revup_ctrl.h ****   {
 222:MCSDK_v6.3.2-Full/MotorControl/MCSDK/MCLib/Any/Inc/revup_ctrl.h **** #endif
 223:MCSDK_v6.3.2-Full/MotorControl/MCSDK/MCLib/Any/Inc/revup_ctrl.h ****     if (MC_NULL == pHandle->pCurrentPhaseParams)
 224:MCSDK_v6.3.2-Full/MotorControl/MCSDK/MCLib/Any/Inc/revup_ctrl.h ****     {
 225:MCSDK_v6.3.2-Full/MotorControl/MCSDK/MCLib/Any/Inc/revup_ctrl.h ****       retVal = true;
 226:MCSDK_v6.3.2-Full/MotorControl/MCSDK/MCLib/Any/Inc/revup_ctrl.h ****     }
 227:MCSDK_v6.3.2-Full/MotorControl/MCSDK/MCLib/Any/Inc/revup_ctrl.h ****     else
 228:MCSDK_v6.3.2-Full/MotorControl/MCSDK/MCLib/Any/Inc/revup_ctrl.h ****     {
 229:MCSDK_v6.3.2-Full/MotorControl/MCSDK/MCLib/Any/Inc/revup_ctrl.h ****       /* Nothing to do */
 230:MCSDK_v6.3.2-Full/MotorControl/MCSDK/MCLib/Any/Inc/revup_ctrl.h ****     }
 231:MCSDK_v6.3.2-Full/MotorControl/MCSDK/MCLib/Any/Inc/revup_ctrl.h **** #ifdef NULL_PTR_CHECK_REV_UP_CTL
 232:MCSDK_v6.3.2-Full/MotorControl/MCSDK/MCLib/Any/Inc/revup_ctrl.h ****   }
 233:MCSDK_v6.3.2-Full/MotorControl/MCSDK/MCLib/Any/Inc/revup_ctrl.h **** #endif
 234:MCSDK_v6.3.2-Full/MotorControl/MCSDK/MCLib/Any/Inc/revup_ctrl.h ****   return (retVal);
 235:MCSDK_v6.3.2-Full/MotorControl/MCSDK/MCLib/Any/Inc/revup_ctrl.h **** }
 236:MCSDK_v6.3.2-Full/MotorControl/MCSDK/MCLib/Any/Inc/revup_ctrl.h **** 
 237:MCSDK_v6.3.2-Full/MotorControl/MCSDK/MCLib/Any/Inc/revup_ctrl.h **** /**
 238:MCSDK_v6.3.2-Full/MotorControl/MCSDK/MCLib/Any/Inc/revup_ctrl.h ****   * @brief  Allow to configure a Rev-Up phase.
 239:MCSDK_v6.3.2-Full/MotorControl/MCSDK/MCLib/Any/Inc/revup_ctrl.h ****   * @param  pHandle: Pointer on Handle structure of Rev-Up controller.
 240:MCSDK_v6.3.2-Full/MotorControl/MCSDK/MCLib/Any/Inc/revup_ctrl.h ****   * @param  phaseNumber : number of phases relative to the programmed Rev-Up
 241:MCSDK_v6.3.2-Full/MotorControl/MCSDK/MCLib/Any/Inc/revup_ctrl.h ****   * @param  phaseData:
 242:MCSDK_v6.3.2-Full/MotorControl/MCSDK/MCLib/Any/Inc/revup_ctrl.h ****   *       - RevUp phase where new motor torque shall be modified.
 243:MCSDK_v6.3.2-Full/MotorControl/MCSDK/MCLib/Any/Inc/revup_ctrl.h ****   *              This parameter must be a number between 0 and 6.
 244:MCSDK_v6.3.2-Full/MotorControl/MCSDK/MCLib/Any/Inc/revup_ctrl.h ****   *            - RevUp phase where new mechanical speed shall be modified.
 245:MCSDK_v6.3.2-Full/MotorControl/MCSDK/MCLib/Any/Inc/revup_ctrl.h ****   *             This parameter must be a number between 0 and 6.
 246:MCSDK_v6.3.2-Full/MotorControl/MCSDK/MCLib/Any/Inc/revup_ctrl.h ****   *            - New duration value required for associated phase in ms unit.
 247:MCSDK_v6.3.2-Full/MotorControl/MCSDK/MCLib/Any/Inc/revup_ctrl.h ****   *  @retval Boolean set to true
 248:MCSDK_v6.3.2-Full/MotorControl/MCSDK/MCLib/Any/Inc/revup_ctrl.h ****   */
 249:MCSDK_v6.3.2-Full/MotorControl/MCSDK/MCLib/Any/Inc/revup_ctrl.h **** static inline bool RUC_SetPhase(RevUpCtrl_Handle_t *pHandle, uint8_t phaseNumber, RevUpCtrl_PhasePa
 250:MCSDK_v6.3.2-Full/MotorControl/MCSDK/MCLib/Any/Inc/revup_ctrl.h **** {
 251:MCSDK_v6.3.2-Full/MotorControl/MCSDK/MCLib/Any/Inc/revup_ctrl.h ****   bool retValue = true;
 252:MCSDK_v6.3.2-Full/MotorControl/MCSDK/MCLib/Any/Inc/revup_ctrl.h **** #ifdef NULL_PTR_CHECK_REV_UP_CTL
 253:MCSDK_v6.3.2-Full/MotorControl/MCSDK/MCLib/Any/Inc/revup_ctrl.h ****   if ((MC_NULL == pHandle) || (MC_NULL == phaseData))
 254:MCSDK_v6.3.2-Full/MotorControl/MCSDK/MCLib/Any/Inc/revup_ctrl.h ****   {
 255:MCSDK_v6.3.2-Full/MotorControl/MCSDK/MCLib/Any/Inc/revup_ctrl.h ****     retValue = false;
 256:MCSDK_v6.3.2-Full/MotorControl/MCSDK/MCLib/Any/Inc/revup_ctrl.h ****   }
 257:MCSDK_v6.3.2-Full/MotorControl/MCSDK/MCLib/Any/Inc/revup_ctrl.h ****   else
 258:MCSDK_v6.3.2-Full/MotorControl/MCSDK/MCLib/Any/Inc/revup_ctrl.h ****   {
ARM GAS  /tmp/ccKFuU3x.s 			page 114


 259:MCSDK_v6.3.2-Full/MotorControl/MCSDK/MCLib/Any/Inc/revup_ctrl.h **** #endif
 260:MCSDK_v6.3.2-Full/MotorControl/MCSDK/MCLib/Any/Inc/revup_ctrl.h ****     pHandle->ParamsData[phaseNumber].hFinalTorque = phaseData->hFinalTorque;
 261:MCSDK_v6.3.2-Full/MotorControl/MCSDK/MCLib/Any/Inc/revup_ctrl.h ****     pHandle->ParamsData[phaseNumber].hFinalMecSpeedUnit = phaseData->hFinalMecSpeedUnit;
 262:MCSDK_v6.3.2-Full/MotorControl/MCSDK/MCLib/Any/Inc/revup_ctrl.h ****     pHandle->ParamsData[phaseNumber].hDurationms = phaseData->hDurationms;
 263:MCSDK_v6.3.2-Full/MotorControl/MCSDK/MCLib/Any/Inc/revup_ctrl.h **** #ifdef NULL_PTR_CHECK_REV_UP_CTL
 264:MCSDK_v6.3.2-Full/MotorControl/MCSDK/MCLib/Any/Inc/revup_ctrl.h ****   }
 265:MCSDK_v6.3.2-Full/MotorControl/MCSDK/MCLib/Any/Inc/revup_ctrl.h **** #endif
 266:MCSDK_v6.3.2-Full/MotorControl/MCSDK/MCLib/Any/Inc/revup_ctrl.h ****   return (retValue);
 267:MCSDK_v6.3.2-Full/MotorControl/MCSDK/MCLib/Any/Inc/revup_ctrl.h **** }
 268:MCSDK_v6.3.2-Full/MotorControl/MCSDK/MCLib/Any/Inc/revup_ctrl.h **** 
 269:MCSDK_v6.3.2-Full/MotorControl/MCSDK/MCLib/Any/Inc/revup_ctrl.h **** /**
 270:MCSDK_v6.3.2-Full/MotorControl/MCSDK/MCLib/Any/Inc/revup_ctrl.h ****   * @brief  Allow to read total number of programmed phases.
 271:MCSDK_v6.3.2-Full/MotorControl/MCSDK/MCLib/Any/Inc/revup_ctrl.h ****   * @param  pHandle: Pointer on Handle structure of RevUp controller.
 272:MCSDK_v6.3.2-Full/MotorControl/MCSDK/MCLib/Any/Inc/revup_ctrl.h ****   *  @retval Returns number of phases relative to the programmed Rev-Up.
 273:MCSDK_v6.3.2-Full/MotorControl/MCSDK/MCLib/Any/Inc/revup_ctrl.h ****   *
 274:MCSDK_v6.3.2-Full/MotorControl/MCSDK/MCLib/Any/Inc/revup_ctrl.h ****   */
 275:MCSDK_v6.3.2-Full/MotorControl/MCSDK/MCLib/Any/Inc/revup_ctrl.h **** 
 276:MCSDK_v6.3.2-Full/MotorControl/MCSDK/MCLib/Any/Inc/revup_ctrl.h **** static inline uint8_t RUC_GetNumberOfPhases(RevUpCtrl_Handle_t *pHandle)
 3132              		.loc 5 276 23 view .LVU876
 3133              	.LBB312:
 277:MCSDK_v6.3.2-Full/MotorControl/MCSDK/MCLib/Any/Inc/revup_ctrl.h **** {
 278:MCSDK_v6.3.2-Full/MotorControl/MCSDK/MCLib/Any/Inc/revup_ctrl.h **** #ifdef NULL_PTR_CHECK_REV_UP_CTL
 279:MCSDK_v6.3.2-Full/MotorControl/MCSDK/MCLib/Any/Inc/revup_ctrl.h ****   return ((MC_NULL == pHandle) ? 0U : (uint8_t)pHandle->bPhaseNbr);
 280:MCSDK_v6.3.2-Full/MotorControl/MCSDK/MCLib/Any/Inc/revup_ctrl.h **** #else
 281:MCSDK_v6.3.2-Full/MotorControl/MCSDK/MCLib/Any/Inc/revup_ctrl.h ****   return ((uint8_t)pHandle->bPhaseNbr);
 3134              		.loc 5 281 3 view .LVU877
 3135              		.loc 5 281 11 is_stmt 0 view .LVU878
 3136 04f6 734B     		ldr	r3, .L321+12
 3137 04f8 93F84830 		ldrb	r3, [r3, #72]	@ zero_extendqisi2
 3138              	.LVL385:
 3139              		.loc 5 281 11 view .LVU879
 3140              	.LBE312:
 3141              	.LBE311:
 732:Src/register_interface.c ****               break;
 3142              		.loc 1 732 21 view .LVU880
 3143 04fc 1370     		strb	r3, [r2]
 733:Src/register_interface.c ****             }
 3144              		.loc 1 733 15 is_stmt 1 view .LVU881
 706:Src/register_interface.c ****     uint8_t motorID=0;
 3145              		.loc 1 706 13 is_stmt 0 view .LVU882
 3146 04fe 0020     		movs	r0, #0
 3147              	.LVL386:
 733:Src/register_interface.c ****             }
 3148              		.loc 1 733 15 view .LVU883
 3149 0500 CDE5     		b	.L208
 3150              	.LVL387:
 3151              	.L202:
 3152              	.LBB313:
 744:Src/register_interface.c ****               state = SCC_GetState(&SCC);
 3153              		.loc 1 744 15 is_stmt 1 view .LVU884
 745:Src/register_interface.c ****               state += OTT_GetState (&OTT);
 3154              		.loc 1 745 15 view .LVU885
 745:Src/register_interface.c ****               state += OTT_GetState (&OTT);
 3155              		.loc 1 745 23 is_stmt 0 view .LVU886
 3156 0502 6D48     		ldr	r0, .L321
 3157              	.LVL388:
 745:Src/register_interface.c ****               state += OTT_GetState (&OTT);
ARM GAS  /tmp/ccKFuU3x.s 			page 115


 3158              		.loc 1 745 23 view .LVU887
 3159 0504 FFF7FEFF 		bl	SCC_GetState
 3160              	.LVL389:
 3161              	.LBB314:
 3162              	.LBB315:
 245:MCSDK_v6.3.2-Full/MotorControl/MCSDK/MCLib/Any/Inc/mp_one_touch_tuning.h ****   return (uint8_t)(retVal);
 3163              		.loc 3 245 11 view .LVU888
 3164 0508 6F4A     		ldr	r2, .L321+16
 3165              	.LBE315:
 3166              	.LBE314:
 746:Src/register_interface.c ****               *data = state;
 3167              		.loc 1 746 21 view .LVU889
 3168 050a 92F83420 		ldrb	r2, [r2, #52]	@ zero_extendqisi2
 745:Src/register_interface.c ****               state += OTT_GetState (&OTT);
 3169              		.loc 1 745 23 view .LVU890
 3170 050e 0346     		mov	r3, r0
 3171              	.LVL390:
 746:Src/register_interface.c ****               *data = state;
 3172              		.loc 1 746 15 is_stmt 1 view .LVU891
 3173              	.LBB317:
 3174              	.LBI314:
 243:MCSDK_v6.3.2-Full/MotorControl/MCSDK/MCLib/Any/Inc/mp_one_touch_tuning.h **** {
 3175              		.loc 3 243 23 view .LVU892
 3176              	.LBB316:
 245:MCSDK_v6.3.2-Full/MotorControl/MCSDK/MCLib/Any/Inc/mp_one_touch_tuning.h ****   return (uint8_t)(retVal);
 3177              		.loc 3 245 3 view .LVU893
 246:MCSDK_v6.3.2-Full/MotorControl/MCSDK/MCLib/Any/Inc/mp_one_touch_tuning.h **** }
 3178              		.loc 3 246 3 view .LVU894
 246:MCSDK_v6.3.2-Full/MotorControl/MCSDK/MCLib/Any/Inc/mp_one_touch_tuning.h **** }
 3179              		.loc 3 246 3 is_stmt 0 view .LVU895
 3180              	.LBE316:
 3181              	.LBE317:
 747:Src/register_interface.c ****               break;
 3182              		.loc 1 747 15 is_stmt 1 view .LVU896
 746:Src/register_interface.c ****               *data = state;
 3183              		.loc 1 746 21 is_stmt 0 view .LVU897
 3184 0510 1344     		add	r3, r3, r2
 3185              	.LVL391:
 746:Src/register_interface.c ****               *data = state;
 3186              		.loc 1 746 21 view .LVU898
 3187              	.LBE313:
 706:Src/register_interface.c ****     uint8_t motorID=0;
 3188              		.loc 1 706 13 view .LVU899
 3189 0512 0020     		movs	r0, #0
 3190              	.LBB318:
 747:Src/register_interface.c ****               break;
 3191              		.loc 1 747 21 view .LVU900
 3192 0514 2370     		strb	r3, [r4]
 748:Src/register_interface.c ****             }
 3193              		.loc 1 748 15 is_stmt 1 view .LVU901
 3194 0516 C2E5     		b	.L208
 3195              	.LVL392:
 3196              	.L210:
 748:Src/register_interface.c ****             }
 3197              		.loc 1 748 15 is_stmt 0 view .LVU902
 3198              	.LBE318:
 768:Src/register_interface.c ****               break;
ARM GAS  /tmp/ccKFuU3x.s 			page 116


 3199              		.loc 1 768 15 is_stmt 1 view .LVU903
 3200              	.LBB319:
 3201              	.LBI319:
 496:MCSDK_v6.3.2-Full/MotorControl/MCSDK/MCLib/Any/Inc/mp_self_com_ctrl.h **** {
 3202              		.loc 2 496 23 view .LVU904
 3203              	.LBB320:
 498:MCSDK_v6.3.2-Full/MotorControl/MCSDK/MCLib/Any/Inc/mp_self_com_ctrl.h **** }
 3204              		.loc 2 498 3 view .LVU905
 498:MCSDK_v6.3.2-Full/MotorControl/MCSDK/MCLib/Any/Inc/mp_self_com_ctrl.h **** }
 3205              		.loc 2 498 17 is_stmt 0 view .LVU906
 3206 0518 674B     		ldr	r3, .L321
 498:MCSDK_v6.3.2-Full/MotorControl/MCSDK/MCLib/Any/Inc/mp_self_com_ctrl.h **** }
 3207              		.loc 2 498 34 view .LVU907
 3208 051a D3F84835 		ldr	r3, [r3, #1352]
 3209 051e 93F84A30 		ldrb	r3, [r3, #74]	@ zero_extendqisi2
 3210              	.LVL393:
 498:MCSDK_v6.3.2-Full/MotorControl/MCSDK/MCLib/Any/Inc/mp_self_com_ctrl.h **** }
 3211              		.loc 2 498 34 view .LVU908
 3212              	.LBE320:
 3213              	.LBE319:
 768:Src/register_interface.c ****               break;
 3214              		.loc 1 768 21 view .LVU909
 3215 0522 1370     		strb	r3, [r2]
 769:Src/register_interface.c ****             }
 3216              		.loc 1 769 15 is_stmt 1 view .LVU910
 706:Src/register_interface.c ****     uint8_t motorID=0;
 3217              		.loc 1 706 13 is_stmt 0 view .LVU911
 3218 0524 0020     		movs	r0, #0
 3219              	.LVL394:
 769:Src/register_interface.c ****             }
 3220              		.loc 1 769 15 view .LVU912
 3221 0526 BAE5     		b	.L208
 3222              	.LVL395:
 3223              	.L212:
 3224              	.LBB321:
 753:Src/register_interface.c ****               steps = SCC_GetSteps(&SCC);
 3225              		.loc 1 753 15 is_stmt 1 view .LVU913
 754:Src/register_interface.c ****               steps += OTT_GetSteps (&OTT);
 3226              		.loc 1 754 15 view .LVU914
 754:Src/register_interface.c ****               steps += OTT_GetSteps (&OTT);
 3227              		.loc 1 754 15 is_stmt 0 view .LVU915
 3228              	.LBE321:
 305:MCSDK_v6.3.2-Full/MotorControl/MCSDK/MCLib/Any/Inc/mp_self_com_ctrl.h **** }
 3229              		.loc 2 305 3 is_stmt 1 view .LVU916
 3230              	.LBB322:
 755:Src/register_interface.c ****               *data = steps-1u;
 3231              		.loc 1 755 15 view .LVU917
 755:Src/register_interface.c ****               *data = steps-1u;
 3232              		.loc 1 755 15 is_stmt 0 view .LVU918
 3233              	.LBE322:
 235:MCSDK_v6.3.2-Full/MotorControl/MCSDK/MCLib/Any/Inc/mp_one_touch_tuning.h **** }
 3234              		.loc 3 235 3 is_stmt 1 view .LVU919
 3235              	.LBB323:
 756:Src/register_interface.c ****               break;
 3236              		.loc 1 756 15 view .LVU920
 756:Src/register_interface.c ****               break;
 3237              		.loc 1 756 21 is_stmt 0 view .LVU921
ARM GAS  /tmp/ccKFuU3x.s 			page 117


 3238 0528 0F23     		movs	r3, #15
 3239 052a 1370     		strb	r3, [r2]
 757:Src/register_interface.c ****             }
 3240              		.loc 1 757 15 is_stmt 1 view .LVU922
 3241              	.LBE323:
 706:Src/register_interface.c ****     uint8_t motorID=0;
 3242              		.loc 1 706 13 is_stmt 0 view .LVU923
 3243 052c 0020     		movs	r0, #0
 3244              	.LVL396:
 3245              	.LBB324:
 757:Src/register_interface.c ****             }
 3246              		.loc 1 757 15 view .LVU924
 3247 052e B6E5     		b	.L208
 3248              	.LVL397:
 3249              	.L206:
 757:Src/register_interface.c ****             }
 3250              		.loc 1 757 15 view .LVU925
 3251              	.LBE324:
 720:Src/register_interface.c ****               break;
 3252              		.loc 1 720 15 is_stmt 1 view .LVU926
 720:Src/register_interface.c ****               break;
 3253              		.loc 1 720 32 is_stmt 0 view .LVU927
 3254 0530 6648     		ldr	r0, .L321+20
 3255              	.LVL398:
 720:Src/register_interface.c ****               break;
 3256              		.loc 1 720 32 view .LVU928
 3257 0532 FFF7FEFF 		bl	MCI_GetSTMState
 3258              	.LVL399:
 720:Src/register_interface.c ****               break;
 3259              		.loc 1 720 21 view .LVU929
 3260 0536 2070     		strb	r0, [r4]
 721:Src/register_interface.c ****             }
 3261              		.loc 1 721 15 is_stmt 1 view .LVU930
 706:Src/register_interface.c ****     uint8_t motorID=0;
 3262              		.loc 1 706 13 is_stmt 0 view .LVU931
 3263 0538 0020     		movs	r0, #0
 721:Src/register_interface.c ****             }
 3264              		.loc 1 721 15 view .LVU932
 3265 053a B0E5     		b	.L208
 3266              	.LVL400:
 3267              	.L318:
 3268              	.LBB325:
 3269              	.LBB209:
1194:Src/register_interface.c ****               (void)memcpy(rawData, (const uint8_t *)pApplicationConfig_reg, sizeof(ApplicationConf
 3270              		.loc 1 1194 15 is_stmt 1 view .LVU933
1195:Src/register_interface.c ****             }
 3271              		.loc 1 1195 15 view .LVU934
1194:Src/register_interface.c ****               (void)memcpy(rawData, (const uint8_t *)pApplicationConfig_reg, sizeof(ApplicationConf
 3272              		.loc 1 1194 46 is_stmt 0 view .LVU935
 3273 053c 644A     		ldr	r2, .L321+24
 3274              	.LVL401:
1195:Src/register_interface.c ****             }
 3275              		.loc 1 1195 21 view .LVU936
 3276 053e 1268     		ldr	r2, [r2]
 3277              	.LVL402:
1195:Src/register_interface.c ****             }
 3278              		.loc 1 1195 21 view .LVU937
ARM GAS  /tmp/ccKFuU3x.s 			page 118


 3279 0540 5068     		ldr	r0, [r2, #4]	@ unaligned
 3280              	.LVL403:
1195:Src/register_interface.c ****             }
 3281              		.loc 1 1195 21 view .LVU938
 3282 0542 D2F800C0 		ldr	ip, [r2]	@ unaligned
 3283 0546 9168     		ldr	r1, [r2, #8]	@ unaligned
 3284              	.LVL404:
1195:Src/register_interface.c ****             }
 3285              		.loc 1 1195 21 view .LVU939
 3286 0548 D268     		ldr	r2, [r2, #12]	@ unaligned
 3287              	.LVL405:
1195:Src/register_interface.c ****             }
 3288              		.loc 1 1195 21 view .LVU940
 3289 054a C4F802C0 		str	ip, [r4, #2]	@ unaligned
 3290              	.LVL406:
1195:Src/register_interface.c ****             }
 3291              		.loc 1 1195 21 view .LVU941
 3292 054e 5860     		str	r0, [r3, #4]	@ unaligned
 3293 0550 9960     		str	r1, [r3, #8]	@ unaligned
 3294 0552 DA60     		str	r2, [r3, #12]	@ unaligned
 3295              	.LBE209:
 3296              	.LBE325:
 706:Src/register_interface.c ****     uint8_t motorID=0;
 3297              		.loc 1 706 13 view .LVU942
 3298 0554 0020     		movs	r0, #0
 3299              	.LBB326:
 3300              	.LBB210:
1195:Src/register_interface.c ****             }
 3301              		.loc 1 1195 21 view .LVU943
 3302 0556 1223     		movs	r3, #18
 3303              	.LVL407:
1195:Src/register_interface.c ****             }
 3304              		.loc 1 1195 21 view .LVU944
 3305 0558 8AE5     		b	.L285
 3306              	.LVL408:
 3307              	.L225:
1195:Src/register_interface.c ****             }
 3308              		.loc 1 1195 21 view .LVU945
 3309              	.LBE210:
 3310              	.LBE326:
 3311              	.LBB327:
 3312              	.LBB216:
 893:Src/register_interface.c ****               int16_t hC2;
 3313              		.loc 1 893 15 is_stmt 1 view .LVU946
 894:Src/register_interface.c ****               STO_PLL_GetObserverGains(&STO_PLL_M1, &hC1, &hC2);
 3314              		.loc 1 894 15 view .LVU947
 895:Src/register_interface.c ****               *regdata16 = hC2;
 3315              		.loc 1 895 15 view .LVU948
 3316 055a 5E48     		ldr	r0, .L321+28
 3317              	.LVL409:
 895:Src/register_interface.c ****               *regdata16 = hC2;
 3318              		.loc 1 895 15 is_stmt 0 view .LVU949
 3319 055c 0BAA     		add	r2, sp, #44
 3320              	.LVL410:
 895:Src/register_interface.c ****               *regdata16 = hC2;
 3321              		.loc 1 895 15 view .LVU950
 3322 055e 0AA9     		add	r1, sp, #40
ARM GAS  /tmp/ccKFuU3x.s 			page 119


 3323              	.LVL411:
 895:Src/register_interface.c ****               *regdata16 = hC2;
 3324              		.loc 1 895 15 view .LVU951
 3325 0560 FFF7FEFF 		bl	STO_PLL_GetObserverGains
 3326              	.LVL412:
 896:Src/register_interface.c ****               break;
 3327              		.loc 1 896 15 is_stmt 1 view .LVU952
 896:Src/register_interface.c ****               break;
 3328              		.loc 1 896 26 is_stmt 0 view .LVU953
 3329 0564 BDF82C30 		ldrh	r3, [sp, #44]
 3330 0568 2380     		strh	r3, [r4]	@ movhi
 897:Src/register_interface.c ****             }
 3331              		.loc 1 897 15 is_stmt 1 view .LVU954
 3332              	.LBE216:
 3333              	.LBE327:
 706:Src/register_interface.c ****     uint8_t motorID=0;
 3334              		.loc 1 706 13 is_stmt 0 view .LVU955
 3335 056a 0020     		movs	r0, #0
 3336 056c BCE5     		b	.L224
 3337              	.LVL413:
 3338              	.L231:
 3339              	.LBB328:
 840:Src/register_interface.c ****               break;
 3340              		.loc 1 840 15 is_stmt 1 view .LVU956
 840:Src/register_interface.c ****               break;
 3341              		.loc 1 840 28 is_stmt 0 view .LVU957
 3342 056e 5748     		ldr	r0, .L321+20
 3343              	.LVL414:
 840:Src/register_interface.c ****               break;
 3344              		.loc 1 840 28 view .LVU958
 3345 0570 FFF7FEFF 		bl	MCI_GetVqd
 3346              	.LVL415:
 840:Src/register_interface.c ****               break;
 3347              		.loc 1 840 28 view .LVU959
 3348 0574 C0F30F40 		ubfx	r0, r0, #16, #16
 840:Src/register_interface.c ****               break;
 3349              		.loc 1 840 26 view .LVU960
 3350 0578 2080     		strh	r0, [r4]	@ movhi
 3351              	.LVL416:
 841:Src/register_interface.c ****             }
 3352              		.loc 1 841 15 is_stmt 1 view .LVU961
 3353              	.LBE328:
 706:Src/register_interface.c ****     uint8_t motorID=0;
 3354              		.loc 1 706 13 is_stmt 0 view .LVU962
 3355 057a 0020     		movs	r0, #0
 3356              	.LBB329:
 841:Src/register_interface.c ****             }
 3357              		.loc 1 841 15 view .LVU963
 3358 057c B4E5     		b	.L224
 3359              	.LVL417:
 3360              	.L215:
 852:Src/register_interface.c ****               break;
 3361              		.loc 1 852 15 is_stmt 1 view .LVU964
 852:Src/register_interface.c ****               break;
 3362              		.loc 1 852 28 is_stmt 0 view .LVU965
 3363 057e 5348     		ldr	r0, .L321+20
 3364              	.LVL418:
ARM GAS  /tmp/ccKFuU3x.s 			page 120


 852:Src/register_interface.c ****               break;
 3365              		.loc 1 852 28 view .LVU966
 3366 0580 FFF7FEFF 		bl	MCI_GetValphabeta
 3367              	.LVL419:
 852:Src/register_interface.c ****               break;
 3368              		.loc 1 852 28 view .LVU967
 3369 0584 C0F30F40 		ubfx	r0, r0, #16, #16
 852:Src/register_interface.c ****               break;
 3370              		.loc 1 852 26 view .LVU968
 3371 0588 2080     		strh	r0, [r4]	@ movhi
 3372              	.LVL420:
 853:Src/register_interface.c ****             }
 3373              		.loc 1 853 15 is_stmt 1 view .LVU969
 3374              	.LBE329:
 706:Src/register_interface.c ****     uint8_t motorID=0;
 3375              		.loc 1 706 13 is_stmt 0 view .LVU970
 3376 058a 0020     		movs	r0, #0
 3377              	.LBB330:
 853:Src/register_interface.c ****             }
 3378              		.loc 1 853 15 view .LVU971
 3379 058c ACE5     		b	.L224
 3380              	.LVL421:
 3381              	.L227:
 834:Src/register_interface.c ****               break;
 3382              		.loc 1 834 15 is_stmt 1 view .LVU972
 834:Src/register_interface.c ****               break;
 3383              		.loc 1 834 28 is_stmt 0 view .LVU973
 3384 058e 4F48     		ldr	r0, .L321+20
 3385              	.LVL422:
 834:Src/register_interface.c ****               break;
 3386              		.loc 1 834 28 view .LVU974
 3387 0590 FFF7FEFF 		bl	MCI_GetVqd
 3388              	.LVL423:
 834:Src/register_interface.c ****               break;
 3389              		.loc 1 834 26 view .LVU975
 3390 0594 2080     		strh	r0, [r4]	@ movhi
 3391              	.LVL424:
 835:Src/register_interface.c ****             }
 3392              		.loc 1 835 15 is_stmt 1 view .LVU976
 3393              	.LBE330:
 706:Src/register_interface.c ****     uint8_t motorID=0;
 3394              		.loc 1 706 13 is_stmt 0 view .LVU977
 3395 0596 0020     		movs	r0, #0
 3396              	.LBB331:
 835:Src/register_interface.c ****             }
 3397              		.loc 1 835 15 view .LVU978
 3398 0598 A6E5     		b	.L224
 3399              	.LVL425:
 3400              	.L221:
 810:Src/register_interface.c ****               break;
 3401              		.loc 1 810 15 is_stmt 1 view .LVU979
 810:Src/register_interface.c ****               break;
 3402              		.loc 1 810 28 is_stmt 0 view .LVU980
 3403 059a 4F48     		ldr	r0, .L321+32
 3404              	.LVL426:
 810:Src/register_interface.c ****               break;
 3405              		.loc 1 810 28 view .LVU981
ARM GAS  /tmp/ccKFuU3x.s 			page 121


 3406 059c FFF7FEFF 		bl	PID_GetKI
 3407              	.LVL427:
 810:Src/register_interface.c ****               break;
 3408              		.loc 1 810 26 view .LVU982
 3409 05a0 2080     		strh	r0, [r4]	@ movhi
 3410              	.LVL428:
 811:Src/register_interface.c ****             }
 3411              		.loc 1 811 15 is_stmt 1 view .LVU983
 3412              	.LBE331:
 706:Src/register_interface.c ****     uint8_t motorID=0;
 3413              		.loc 1 706 13 is_stmt 0 view .LVU984
 3414 05a2 0020     		movs	r0, #0
 3415              	.LBB332:
 811:Src/register_interface.c ****             }
 3416              		.loc 1 811 15 view .LVU985
 3417 05a4 A0E5     		b	.L224
 3418              	.LVL429:
 3419              	.L241:
 941:Src/register_interface.c ****               break;
 3420              		.loc 1 941 15 is_stmt 1 view .LVU986
 3421              	.LBB217:
 3422              	.LBI217:
 485:MCSDK_v6.3.2-Full/MotorControl/MCSDK/MCLib/Any/Inc/mp_self_com_ctrl.h **** {
 3423              		.loc 2 485 24 view .LVU987
 3424              	.LBB218:
 487:MCSDK_v6.3.2-Full/MotorControl/MCSDK/MCLib/Any/Inc/mp_self_com_ctrl.h **** }
 3425              		.loc 2 487 3 view .LVU988
 487:MCSDK_v6.3.2-Full/MotorControl/MCSDK/MCLib/Any/Inc/mp_self_com_ctrl.h **** }
 3426              		.loc 2 487 17 is_stmt 0 view .LVU989
 3427 05a6 444B     		ldr	r3, .L321
 487:MCSDK_v6.3.2-Full/MotorControl/MCSDK/MCLib/Any/Inc/mp_self_com_ctrl.h **** }
 3428              		.loc 2 487 34 view .LVU990
 3429 05a8 D3F84835 		ldr	r3, [r3, #1352]
 3430 05ac B3F84830 		ldrh	r3, [r3, #72]
 3431              	.LVL430:
 487:MCSDK_v6.3.2-Full/MotorControl/MCSDK/MCLib/Any/Inc/mp_self_com_ctrl.h **** }
 3432              		.loc 2 487 34 view .LVU991
 3433              	.LBE218:
 3434              	.LBE217:
 941:Src/register_interface.c ****               break;
 3435              		.loc 1 941 27 view .LVU992
 3436 05b0 1380     		strh	r3, [r2]	@ movhi
 3437              	.LVL431:
 942:Src/register_interface.c ****             case MC_REG_OVERVOLTAGETHRESHOLD:
 3438              		.loc 1 942 15 is_stmt 1 view .LVU993
 3439              	.LBE332:
 706:Src/register_interface.c ****     uint8_t motorID=0;
 3440              		.loc 1 706 13 is_stmt 0 view .LVU994
 3441 05b2 0020     		movs	r0, #0
 3442              	.LVL432:
 3443              	.LBB333:
 942:Src/register_interface.c ****             case MC_REG_OVERVOLTAGETHRESHOLD:
 3444              		.loc 1 942 15 view .LVU995
 3445 05b4 98E5     		b	.L224
 3446              	.LVL433:
 3447              	.L237:
 866:Src/register_interface.c ****               break;
ARM GAS  /tmp/ccKFuU3x.s 			page 122


 3448              		.loc 1 866 15 is_stmt 1 view .LVU996
 866:Src/register_interface.c ****               break;
 3449              		.loc 1 866 28 is_stmt 0 view .LVU997
 3450 05b6 4748     		ldr	r0, .L321+28
 3451              	.LVL434:
 866:Src/register_interface.c ****               break;
 3452              		.loc 1 866 28 view .LVU998
 3453 05b8 FFF7FEFF 		bl	SPD_GetS16Speed
 3454              	.LVL435:
 866:Src/register_interface.c ****               break;
 3455              		.loc 1 866 26 view .LVU999
 3456 05bc 2080     		strh	r0, [r4]	@ movhi
 3457              	.LVL436:
 867:Src/register_interface.c ****             }
 3458              		.loc 1 867 15 is_stmt 1 view .LVU1000
 3459              	.LBE333:
 706:Src/register_interface.c ****     uint8_t motorID=0;
 3460              		.loc 1 706 13 is_stmt 0 view .LVU1001
 3461 05be 0020     		movs	r0, #0
 3462              	.LBB334:
 867:Src/register_interface.c ****             }
 3463              		.loc 1 867 15 view .LVU1002
 3464 05c0 92E5     		b	.L224
 3465              	.LVL437:
 3466              	.L219:
 3467              	.LBB219:
 884:Src/register_interface.c ****               int16_t hC2;
 3468              		.loc 1 884 15 is_stmt 1 view .LVU1003
 885:Src/register_interface.c ****               STO_PLL_GetObserverGains(&STO_PLL_M1, &hC1, &hC2);
 3469              		.loc 1 885 15 view .LVU1004
 886:Src/register_interface.c ****               *regdata16 = hC1;
 3470              		.loc 1 886 15 view .LVU1005
 3471 05c2 4448     		ldr	r0, .L321+28
 3472              	.LVL438:
 886:Src/register_interface.c ****               *regdata16 = hC1;
 3473              		.loc 1 886 15 is_stmt 0 view .LVU1006
 3474 05c4 0BAA     		add	r2, sp, #44
 3475              	.LVL439:
 886:Src/register_interface.c ****               *regdata16 = hC1;
 3476              		.loc 1 886 15 view .LVU1007
 3477 05c6 0AA9     		add	r1, sp, #40
 3478              	.LVL440:
 886:Src/register_interface.c ****               *regdata16 = hC1;
 3479              		.loc 1 886 15 view .LVU1008
 3480 05c8 FFF7FEFF 		bl	STO_PLL_GetObserverGains
 3481              	.LVL441:
 887:Src/register_interface.c ****               break;
 3482              		.loc 1 887 15 is_stmt 1 view .LVU1009
 887:Src/register_interface.c ****               break;
 3483              		.loc 1 887 26 is_stmt 0 view .LVU1010
 3484 05cc BDF82830 		ldrh	r3, [sp, #40]
 3485 05d0 2380     		strh	r3, [r4]	@ movhi
 888:Src/register_interface.c ****             }
 3486              		.loc 1 888 15 is_stmt 1 view .LVU1011
 3487              	.LBE219:
 3488              	.LBE334:
 706:Src/register_interface.c ****     uint8_t motorID=0;
ARM GAS  /tmp/ccKFuU3x.s 			page 123


 3489              		.loc 1 706 13 is_stmt 0 view .LVU1012
 3490 05d2 0020     		movs	r0, #0
 3491 05d4 88E5     		b	.L224
 3492              	.LVL442:
 3493              	.L217:
 3494              	.LBB335:
 908:Src/register_interface.c ****               break;
 3495              		.loc 1 908 15 is_stmt 1 view .LVU1013
 908:Src/register_interface.c ****               break;
 3496              		.loc 1 908 28 is_stmt 0 view .LVU1014
 3497 05d6 4148     		ldr	r0, .L321+36
 3498              	.LVL443:
 908:Src/register_interface.c ****               break;
 3499              		.loc 1 908 28 view .LVU1015
 3500 05d8 FFF7FEFF 		bl	PID_GetKP
 3501              	.LVL444:
 908:Src/register_interface.c ****               break;
 3502              		.loc 1 908 26 view .LVU1016
 3503 05dc 2080     		strh	r0, [r4]	@ movhi
 3504              	.LVL445:
 909:Src/register_interface.c ****             }
 3505              		.loc 1 909 15 is_stmt 1 view .LVU1017
 3506              	.LBE335:
 706:Src/register_interface.c ****     uint8_t motorID=0;
 3507              		.loc 1 706 13 is_stmt 0 view .LVU1018
 3508 05de 0020     		movs	r0, #0
 3509              	.LBB336:
 909:Src/register_interface.c ****             }
 3510              		.loc 1 909 15 view .LVU1019
 3511 05e0 82E5     		b	.L224
 3512              	.LVL446:
 3513              	.L235:
 878:Src/register_interface.c ****               break;
 3514              		.loc 1 878 15 is_stmt 1 view .LVU1020
 878:Src/register_interface.c ****               break;
 3515              		.loc 1 878 28 is_stmt 0 view .LVU1021
 3516 05e2 3C48     		ldr	r0, .L321+28
 3517              	.LVL447:
 878:Src/register_interface.c ****               break;
 3518              		.loc 1 878 28 view .LVU1022
 3519 05e4 FFF7FEFF 		bl	STO_PLL_GetEstimatedBemf
 3520              	.LVL448:
 878:Src/register_interface.c ****               break;
 3521              		.loc 1 878 28 view .LVU1023
 3522 05e8 C0F30F40 		ubfx	r0, r0, #16, #16
 878:Src/register_interface.c ****               break;
 3523              		.loc 1 878 26 view .LVU1024
 3524 05ec 2080     		strh	r0, [r4]	@ movhi
 3525              	.LVL449:
 879:Src/register_interface.c ****             }
 3526              		.loc 1 879 15 is_stmt 1 view .LVU1025
 3527              	.LBE336:
 706:Src/register_interface.c ****     uint8_t motorID=0;
 3528              		.loc 1 706 13 is_stmt 0 view .LVU1026
 3529 05ee 0020     		movs	r0, #0
 3530              	.LBB337:
 879:Src/register_interface.c ****             }
ARM GAS  /tmp/ccKFuU3x.s 			page 124


 3531              		.loc 1 879 15 view .LVU1027
 3532 05f0 7AE5     		b	.L224
 3533              	.LVL450:
 3534              	.L233:
 924:Src/register_interface.c ****               break;
 3535              		.loc 1 924 15 is_stmt 1 view .LVU1028
 924:Src/register_interface.c ****               break;
 3536              		.loc 1 924 28 is_stmt 0 view .LVU1029
 3537 05f2 3B48     		ldr	r0, .L321+40
 3538              	.LVL451:
 924:Src/register_interface.c ****               break;
 3539              		.loc 1 924 28 view .LVU1030
 3540 05f4 FFF7FEFF 		bl	FF_GetVqdff
 3541              	.LVL452:
 924:Src/register_interface.c ****               break;
 3542              		.loc 1 924 28 view .LVU1031
 3543 05f8 C0F30F40 		ubfx	r0, r0, #16, #16
 924:Src/register_interface.c ****               break;
 3544              		.loc 1 924 26 view .LVU1032
 3545 05fc 2080     		strh	r0, [r4]	@ movhi
 3546              	.LVL453:
 925:Src/register_interface.c ****             }
 3547              		.loc 1 925 15 is_stmt 1 view .LVU1033
 3548              	.LBE337:
 706:Src/register_interface.c ****     uint8_t motorID=0;
 3549              		.loc 1 706 13 is_stmt 0 view .LVU1034
 3550 05fe 0020     		movs	r0, #0
 3551              	.LBB338:
 925:Src/register_interface.c ****             }
 3552              		.loc 1 925 15 view .LVU1035
 3553 0600 72E5     		b	.L224
 3554              	.LVL454:
 3555              	.L240:
 918:Src/register_interface.c ****               break;
 3556              		.loc 1 918 15 is_stmt 1 view .LVU1036
 918:Src/register_interface.c ****               break;
 3557              		.loc 1 918 28 is_stmt 0 view .LVU1037
 3558 0602 3748     		ldr	r0, .L321+40
 3559              	.LVL455:
 918:Src/register_interface.c ****               break;
 3560              		.loc 1 918 28 view .LVU1038
 3561 0604 FFF7FEFF 		bl	FF_GetVqdff
 3562              	.LVL456:
 918:Src/register_interface.c ****               break;
 3563              		.loc 1 918 26 view .LVU1039
 3564 0608 2080     		strh	r0, [r4]	@ movhi
 3565              	.LVL457:
 919:Src/register_interface.c ****             }
 3566              		.loc 1 919 15 is_stmt 1 view .LVU1040
 3567              	.LBE338:
 706:Src/register_interface.c ****     uint8_t motorID=0;
 3568              		.loc 1 706 13 is_stmt 0 view .LVU1041
 3569 060a 0020     		movs	r0, #0
 3570              	.LBB339:
 919:Src/register_interface.c ****             }
 3571              		.loc 1 919 15 view .LVU1042
 3572 060c 6CE5     		b	.L224
ARM GAS  /tmp/ccKFuU3x.s 			page 125


 3573              	.LVL458:
 3574              	.L243:
 930:Src/register_interface.c ****               break;
 3575              		.loc 1 930 15 is_stmt 1 view .LVU1043
 930:Src/register_interface.c ****               break;
 3576              		.loc 1 930 28 is_stmt 0 view .LVU1044
 3577 060e 3448     		ldr	r0, .L321+40
 3578              	.LVL459:
 930:Src/register_interface.c ****               break;
 3579              		.loc 1 930 28 view .LVU1045
 3580 0610 FFF7FEFF 		bl	FF_GetVqdAvPIout
 3581              	.LVL460:
 930:Src/register_interface.c ****               break;
 3582              		.loc 1 930 26 view .LVU1046
 3583 0614 2080     		strh	r0, [r4]	@ movhi
 3584              	.LVL461:
 931:Src/register_interface.c ****             }
 3585              		.loc 1 931 15 is_stmt 1 view .LVU1047
 3586              	.LBE339:
 706:Src/register_interface.c ****     uint8_t motorID=0;
 3587              		.loc 1 706 13 is_stmt 0 view .LVU1048
 3588 0616 0020     		movs	r0, #0
 3589              	.LBB340:
 931:Src/register_interface.c ****             }
 3590              		.loc 1 931 15 view .LVU1049
 3591 0618 66E5     		b	.L224
 3592              	.LVL462:
 3593              	.L229:
 822:Src/register_interface.c ****               break;
 3594              		.loc 1 822 15 is_stmt 1 view .LVU1050
 822:Src/register_interface.c ****               break;
 3595              		.loc 1 822 29 is_stmt 0 view .LVU1051
 3596 061a 3248     		ldr	r0, .L321+44
 3597              	.LVL463:
 822:Src/register_interface.c ****               break;
 3598              		.loc 1 822 29 view .LVU1052
 3599 061c FFF7FEFF 		bl	VBS_GetAvBusVoltage_V
 3600              	.LVL464:
 822:Src/register_interface.c ****               break;
 3601              		.loc 1 822 27 view .LVU1053
 3602 0620 2080     		strh	r0, [r4]	@ movhi
 3603              	.LVL465:
 823:Src/register_interface.c ****             }
 3604              		.loc 1 823 15 is_stmt 1 view .LVU1054
 3605              	.LBE340:
 706:Src/register_interface.c ****     uint8_t motorID=0;
 3606              		.loc 1 706 13 is_stmt 0 view .LVU1055
 3607 0622 0020     		movs	r0, #0
 3608              	.LBB341:
 823:Src/register_interface.c ****             }
 3609              		.loc 1 823 15 view .LVU1056
 3610 0624 60E5     		b	.L224
 3611              	.LVL466:
 3612              	.L245:
 945:Src/register_interface.c ****               break;
 3613              		.loc 1 945 15 is_stmt 1 view .LVU1057
 3614              	.LBB220:
ARM GAS  /tmp/ccKFuU3x.s 			page 126


 3615              	.LBI220:
 507:MCSDK_v6.3.2-Full/MotorControl/MCSDK/MCLib/Any/Inc/mp_self_com_ctrl.h **** {
 3616              		.loc 2 507 24 view .LVU1058
 3617              	.LBB221:
 509:MCSDK_v6.3.2-Full/MotorControl/MCSDK/MCLib/Any/Inc/mp_self_com_ctrl.h **** }
 3618              		.loc 2 509 3 view .LVU1059
 509:MCSDK_v6.3.2-Full/MotorControl/MCSDK/MCLib/Any/Inc/mp_self_com_ctrl.h **** }
 3619              		.loc 2 509 34 is_stmt 0 view .LVU1060
 3620 0626 244B     		ldr	r3, .L321
 3621 0628 5A68     		ldr	r2, [r3, #4]
 3622              	.LVL467:
 509:MCSDK_v6.3.2-Full/MotorControl/MCSDK/MCLib/Any/Inc/mp_self_com_ctrl.h **** }
 3623              		.loc 2 509 40 view .LVU1061
 3624 062a 9389     		ldrh	r3, [r2, #12]
 3625 062c 05E6     		b	.L298
 3626              	.LVL468:
 3627              	.L261:
 509:MCSDK_v6.3.2-Full/MotorControl/MCSDK/MCLib/Any/Inc/mp_self_com_ctrl.h **** }
 3628              		.loc 2 509 40 view .LVU1062
 3629              	.LBE221:
 3630              	.LBE220:
 3631              	.LBE341:
 3632              	.LBB342:
1022:Src/register_interface.c ****               break;
 3633              		.loc 1 1022 15 is_stmt 1 view .LVU1063
1022:Src/register_interface.c ****               break;
 3634              		.loc 1 1022 33 is_stmt 0 view .LVU1064
 3635 062e 2C4B     		ldr	r3, .L321+40
 3636 0630 5B69     		ldr	r3, [r3, #20]
1022:Src/register_interface.c ****               break;
 3637              		.loc 1 1022 26 view .LVU1065
 3638 0632 1360     		str	r3, [r2]
1023:Src/register_interface.c ****             }
 3639              		.loc 1 1023 15 is_stmt 1 view .LVU1066
 3640              	.LBE342:
 706:Src/register_interface.c ****     uint8_t motorID=0;
 3641              		.loc 1 706 13 is_stmt 0 view .LVU1067
 3642 0634 0020     		movs	r0, #0
 3643              	.LVL469:
 3644              	.LBB343:
1023:Src/register_interface.c ****             }
 3645              		.loc 1 1023 15 view .LVU1068
 3646 0636 7DE5     		b	.L256
 3647              	.LVL470:
 3648              	.L274:
1134:Src/register_interface.c ****               break;
 3649              		.loc 1 1134 15 is_stmt 1 view .LVU1069
 3650              	.LBB254:
 3651              	.LBI254:
 435:MCSDK_v6.3.2-Full/MotorControl/MCSDK/MCLib/Any/Inc/mp_self_com_ctrl.h **** {
 3652              		.loc 2 435 23 view .LVU1070
 3653              	.LBB255:
 437:MCSDK_v6.3.2-Full/MotorControl/MCSDK/MCLib/Any/Inc/mp_self_com_ctrl.h **** }
 3654              		.loc 2 437 3 view .LVU1071
 437:MCSDK_v6.3.2-Full/MotorControl/MCSDK/MCLib/Any/Inc/mp_self_com_ctrl.h **** }
 3655              		.loc 2 437 17 is_stmt 0 view .LVU1072
 3656 0638 1F4B     		ldr	r3, .L321
ARM GAS  /tmp/ccKFuU3x.s 			page 127


 3657              	.LBE255:
 3658              	.LBE254:
1134:Src/register_interface.c ****               break;
 3659              		.loc 1 1134 26 view .LVU1073
 3660 063a D3F8EC30 		ldr	r3, [r3, #236]
 3661 063e 1360     		str	r3, [r2]
1135:Src/register_interface.c ****             }
 3662              		.loc 1 1135 15 is_stmt 1 view .LVU1074
 3663              	.LBE343:
 706:Src/register_interface.c ****     uint8_t motorID=0;
 3664              		.loc 1 706 13 is_stmt 0 view .LVU1075
 3665 0640 0020     		movs	r0, #0
 3666              	.LVL471:
 3667              	.LBB344:
1135:Src/register_interface.c ****             }
 3668              		.loc 1 1135 15 view .LVU1076
 3669 0642 77E5     		b	.L256
 3670              	.LVL472:
 3671              	.L269:
 3672              	.LBB256:
1074:Src/register_interface.c ****               ReadVal.Float_Val = OTT_GetSpeedRegulatorBandwidth(&OTT);
 3673              		.loc 1 1074 15 is_stmt 1 view .LVU1077
1075:Src/register_interface.c ****               *regdataU32 = ReadVal.U32_Val;
 3674              		.loc 1 1075 15 view .LVU1078
 3675              	.LBB257:
 3676              	.LBI257:
 304:MCSDK_v6.3.2-Full/MotorControl/MCSDK/MCLib/Any/Inc/mp_one_touch_tuning.h **** {
 3677              		.loc 3 304 21 view .LVU1079
 3678              	.LBB258:
 306:MCSDK_v6.3.2-Full/MotorControl/MCSDK/MCLib/Any/Inc/mp_one_touch_tuning.h **** }
 3679              		.loc 3 306 3 view .LVU1080
 306:MCSDK_v6.3.2-Full/MotorControl/MCSDK/MCLib/Any/Inc/mp_one_touch_tuning.h **** }
 3680              		.loc 3 306 3 is_stmt 0 view .LVU1081
 3681              	.LBE258:
 3682              	.LBE257:
1076:Src/register_interface.c ****               break;
 3683              		.loc 1 1076 15 is_stmt 1 view .LVU1082
 3684              	.LBB260:
 3685              	.LBB259:
 306:MCSDK_v6.3.2-Full/MotorControl/MCSDK/MCLib/Any/Inc/mp_one_touch_tuning.h **** }
 3686              		.loc 3 306 17 is_stmt 0 view .LVU1083
 3687 0644 204B     		ldr	r3, .L321+16
 3688              	.LBE259:
 3689              	.LBE260:
1076:Src/register_interface.c ****               break;
 3690              		.loc 1 1076 27 view .LVU1084
 3691 0646 1B6B     		ldr	r3, [r3, #48]
 3692 0648 1360     		str	r3, [r2]
1077:Src/register_interface.c ****             }
 3693              		.loc 1 1077 15 is_stmt 1 view .LVU1085
 3694              	.LVL473:
1077:Src/register_interface.c ****             }
 3695              		.loc 1 1077 15 is_stmt 0 view .LVU1086
 3696              	.LBE256:
 3697              	.LBE344:
 706:Src/register_interface.c ****     uint8_t motorID=0;
 3698              		.loc 1 706 13 view .LVU1087
ARM GAS  /tmp/ccKFuU3x.s 			page 128


 3699 064a 0020     		movs	r0, #0
 3700              	.LVL474:
 706:Src/register_interface.c ****     uint8_t motorID=0;
 3701              		.loc 1 706 13 view .LVU1088
 3702 064c 72E5     		b	.L256
 3703              	.LVL475:
 3704              	.L272:
 3705              	.LBB345:
 3706              	.LBB261:
1096:Src/register_interface.c ****               ReadVal.Float_Val = SCC_GetCurrentBandwidth(&SCC);
 3707              		.loc 1 1096 15 is_stmt 1 view .LVU1089
1097:Src/register_interface.c ****               *regdataU32 = ReadVal.U32_Val;
 3708              		.loc 1 1097 15 view .LVU1090
 3709              	.LBB262:
 3710              	.LBI262:
 475:MCSDK_v6.3.2-Full/MotorControl/MCSDK/MCLib/Any/Inc/mp_self_com_ctrl.h **** {
 3711              		.loc 2 475 21 view .LVU1091
 3712              	.LBB263:
 477:MCSDK_v6.3.2-Full/MotorControl/MCSDK/MCLib/Any/Inc/mp_self_com_ctrl.h **** }
 3713              		.loc 2 477 3 view .LVU1092
 477:MCSDK_v6.3.2-Full/MotorControl/MCSDK/MCLib/Any/Inc/mp_self_com_ctrl.h **** }
 3714              		.loc 2 477 3 is_stmt 0 view .LVU1093
 3715              	.LBE263:
 3716              	.LBE262:
1098:Src/register_interface.c ****               break;
 3717              		.loc 1 1098 15 is_stmt 1 view .LVU1094
 3718              	.LBB265:
 3719              	.LBB264:
 477:MCSDK_v6.3.2-Full/MotorControl/MCSDK/MCLib/Any/Inc/mp_self_com_ctrl.h **** }
 3720              		.loc 2 477 17 is_stmt 0 view .LVU1095
 3721 064e 1A4B     		ldr	r3, .L321
 3722              	.LBE264:
 3723              	.LBE265:
1098:Src/register_interface.c ****               break;
 3724              		.loc 1 1098 27 view .LVU1096
 3725 0650 D3F83431 		ldr	r3, [r3, #308]
 3726 0654 1360     		str	r3, [r2]
1099:Src/register_interface.c ****             }
 3727              		.loc 1 1099 15 is_stmt 1 view .LVU1097
 3728              	.LVL476:
1099:Src/register_interface.c ****             }
 3729              		.loc 1 1099 15 is_stmt 0 view .LVU1098
 3730              	.LBE261:
 3731              	.LBE345:
 706:Src/register_interface.c ****     uint8_t motorID=0;
 3732              		.loc 1 706 13 view .LVU1099
 3733 0656 0020     		movs	r0, #0
 3734              	.LVL477:
 706:Src/register_interface.c ****     uint8_t motorID=0;
 3735              		.loc 1 706 13 view .LVU1100
 3736 0658 6CE5     		b	.L256
 3737              	.LVL478:
 3738              	.L277:
 3739              	.LBB346:
 3740              	.LBB266:
1028:Src/register_interface.c ****               ReadVal.Float_Val = PQD_GetAvrgElMotorPowerW(pMPM[M1]);
 3741              		.loc 1 1028 15 is_stmt 1 view .LVU1101
ARM GAS  /tmp/ccKFuU3x.s 			page 129


1029:Src/register_interface.c ****               *regdataU32 = ReadVal.U32_Val; //cstat !UNION-type-punning
 3742              		.loc 1 1029 15 view .LVU1102
1029:Src/register_interface.c ****               *regdataU32 = ReadVal.U32_Val; //cstat !UNION-type-punning
 3743              		.loc 1 1029 64 is_stmt 0 view .LVU1103
 3744 065a 234B     		ldr	r3, .L321+48
1029:Src/register_interface.c ****               *regdataU32 = ReadVal.U32_Val; //cstat !UNION-type-punning
 3745              		.loc 1 1029 35 view .LVU1104
 3746 065c 1868     		ldr	r0, [r3]
 3747              	.LVL479:
1029:Src/register_interface.c ****               *regdataU32 = ReadVal.U32_Val; //cstat !UNION-type-punning
 3748              		.loc 1 1029 35 view .LVU1105
 3749 065e FFF7FEFF 		bl	PQD_GetAvrgElMotorPowerW
 3750              	.LVL480:
1029:Src/register_interface.c ****               *regdataU32 = ReadVal.U32_Val; //cstat !UNION-type-punning
 3751              		.loc 1 1029 35 view .LVU1106
 3752 0662 8DED010A 		vstr.32	s0, [sp, #4]
 3753              	.LVL481:
1030:Src/register_interface.c ****               break;
 3754              		.loc 1 1030 15 is_stmt 1 view .LVU1107
1030:Src/register_interface.c ****               break;
 3755              		.loc 1 1030 27 is_stmt 0 view .LVU1108
 3756 0666 019B     		ldr	r3, [sp, #4]
 3757 0668 2360     		str	r3, [r4]
1031:Src/register_interface.c ****             }
 3758              		.loc 1 1031 15 is_stmt 1 view .LVU1109
 3759              	.LVL482:
1031:Src/register_interface.c ****             }
 3760              		.loc 1 1031 15 is_stmt 0 view .LVU1110
 3761              	.LBE266:
 3762              	.LBE346:
 706:Src/register_interface.c ****     uint8_t motorID=0;
 3763              		.loc 1 706 13 view .LVU1111
 3764 066a 0020     		movs	r0, #0
 3765 066c 62E5     		b	.L256
 3766              	.LVL483:
 3767              	.L263:
 3768              	.LBB347:
1048:Src/register_interface.c ****               break;
 3769              		.loc 1 1048 15 is_stmt 1 view .LVU1112
 3770              	.LBB267:
 3771              	.LBI267:
 336:MCSDK_v6.3.2-Full/MotorControl/MCSDK/MCLib/Any/Inc/mp_self_com_ctrl.h **** {
 3772              		.loc 2 336 24 view .LVU1113
 3773              	.LBB268:
 338:MCSDK_v6.3.2-Full/MotorControl/MCSDK/MCLib/Any/Inc/mp_self_com_ctrl.h **** }
 3774              		.loc 2 338 3 view .LVU1114
 338:MCSDK_v6.3.2-Full/MotorControl/MCSDK/MCLib/Any/Inc/mp_self_com_ctrl.h **** }
 3775              		.loc 2 338 10 is_stmt 0 view .LVU1115
 3776 066e 124B     		ldr	r3, .L321
 3777 0670 93ED1B0A 		vldr.32	s0, [r3, #108]
 3778 0674 FFF7FEFF 		bl	MCM_floatToIntBit
 3779              	.LVL484:
 338:MCSDK_v6.3.2-Full/MotorControl/MCSDK/MCLib/Any/Inc/mp_self_com_ctrl.h **** }
 3780              		.loc 2 338 10 view .LVU1116
 3781              	.LBE268:
 3782              	.LBE267:
1048:Src/register_interface.c ****               break;
ARM GAS  /tmp/ccKFuU3x.s 			page 130


 3783              		.loc 1 1048 27 view .LVU1117
 3784 0678 2060     		str	r0, [r4]
1049:Src/register_interface.c ****             }
 3785              		.loc 1 1049 15 is_stmt 1 view .LVU1118
 3786              	.LBE347:
 706:Src/register_interface.c ****     uint8_t motorID=0;
 3787              		.loc 1 706 13 is_stmt 0 view .LVU1119
 3788 067a 0020     		movs	r0, #0
 3789              	.LBB348:
1049:Src/register_interface.c ****             }
 3790              		.loc 1 1049 15 view .LVU1120
 3791 067c 5AE5     		b	.L256
 3792              	.LVL485:
 3793              	.L257:
1004:Src/register_interface.c ****               break;
 3794              		.loc 1 1004 15 is_stmt 1 view .LVU1121
 3795              	.LBB269:
 3796              	.LBI269:
 3797              		.file 6 "MCSDK_v6.3.2-Full/MotorControl/MCSDK/MCLib/Any/Inc/sto_pll_speed_pos_fdbk.h"
   1:MCSDK_v6.3.2-Full/MotorControl/MCSDK/MCLib/Any/Inc/sto_pll_speed_pos_fdbk.h **** /**
   2:MCSDK_v6.3.2-Full/MotorControl/MCSDK/MCLib/Any/Inc/sto_pll_speed_pos_fdbk.h ****   ******************************************************************************
   3:MCSDK_v6.3.2-Full/MotorControl/MCSDK/MCLib/Any/Inc/sto_pll_speed_pos_fdbk.h ****   * @file    sto_pll_speed_pos_fdbk.h
   4:MCSDK_v6.3.2-Full/MotorControl/MCSDK/MCLib/Any/Inc/sto_pll_speed_pos_fdbk.h ****   * @author  Motor Control SDK Team, ST Microelectronics
   5:MCSDK_v6.3.2-Full/MotorControl/MCSDK/MCLib/Any/Inc/sto_pll_speed_pos_fdbk.h ****   * @brief   This file contains all definitions and functions prototypes for the
   6:MCSDK_v6.3.2-Full/MotorControl/MCSDK/MCLib/Any/Inc/sto_pll_speed_pos_fdbk.h ****   *          State Observer + PLL Speed & Position Feedback component of the Motor
   7:MCSDK_v6.3.2-Full/MotorControl/MCSDK/MCLib/Any/Inc/sto_pll_speed_pos_fdbk.h ****   *          Control SDK.
   8:MCSDK_v6.3.2-Full/MotorControl/MCSDK/MCLib/Any/Inc/sto_pll_speed_pos_fdbk.h ****   ******************************************************************************
   9:MCSDK_v6.3.2-Full/MotorControl/MCSDK/MCLib/Any/Inc/sto_pll_speed_pos_fdbk.h ****   * @attention
  10:MCSDK_v6.3.2-Full/MotorControl/MCSDK/MCLib/Any/Inc/sto_pll_speed_pos_fdbk.h ****   *
  11:MCSDK_v6.3.2-Full/MotorControl/MCSDK/MCLib/Any/Inc/sto_pll_speed_pos_fdbk.h ****   * <h2><center>&copy; Copyright (c) 2024 STMicroelectronics.
  12:MCSDK_v6.3.2-Full/MotorControl/MCSDK/MCLib/Any/Inc/sto_pll_speed_pos_fdbk.h ****   * All rights reserved.</center></h2>
  13:MCSDK_v6.3.2-Full/MotorControl/MCSDK/MCLib/Any/Inc/sto_pll_speed_pos_fdbk.h ****   *
  14:MCSDK_v6.3.2-Full/MotorControl/MCSDK/MCLib/Any/Inc/sto_pll_speed_pos_fdbk.h ****   * This software component is licensed by ST under Ultimate Liberty license
  15:MCSDK_v6.3.2-Full/MotorControl/MCSDK/MCLib/Any/Inc/sto_pll_speed_pos_fdbk.h ****   * SLA0044, the "License"; You may not use this file except in compliance with
  16:MCSDK_v6.3.2-Full/MotorControl/MCSDK/MCLib/Any/Inc/sto_pll_speed_pos_fdbk.h ****   * the License. You may obtain a copy of the License at:
  17:MCSDK_v6.3.2-Full/MotorControl/MCSDK/MCLib/Any/Inc/sto_pll_speed_pos_fdbk.h ****   *                             www.st.com/SLA0044
  18:MCSDK_v6.3.2-Full/MotorControl/MCSDK/MCLib/Any/Inc/sto_pll_speed_pos_fdbk.h ****   *
  19:MCSDK_v6.3.2-Full/MotorControl/MCSDK/MCLib/Any/Inc/sto_pll_speed_pos_fdbk.h ****   ******************************************************************************
  20:MCSDK_v6.3.2-Full/MotorControl/MCSDK/MCLib/Any/Inc/sto_pll_speed_pos_fdbk.h ****   * @ingroup SpeednPosFdbk_STO_PLL
  21:MCSDK_v6.3.2-Full/MotorControl/MCSDK/MCLib/Any/Inc/sto_pll_speed_pos_fdbk.h ****   */
  22:MCSDK_v6.3.2-Full/MotorControl/MCSDK/MCLib/Any/Inc/sto_pll_speed_pos_fdbk.h **** 
  23:MCSDK_v6.3.2-Full/MotorControl/MCSDK/MCLib/Any/Inc/sto_pll_speed_pos_fdbk.h **** /* Define to prevent recursive inclusion -------------------------------------*/
  24:MCSDK_v6.3.2-Full/MotorControl/MCSDK/MCLib/Any/Inc/sto_pll_speed_pos_fdbk.h **** #ifndef STO_PLL_SPEEDNPOSFDBK_H
  25:MCSDK_v6.3.2-Full/MotorControl/MCSDK/MCLib/Any/Inc/sto_pll_speed_pos_fdbk.h **** #define STO_PLL_SPEEDNPOSFDBK_H
  26:MCSDK_v6.3.2-Full/MotorControl/MCSDK/MCLib/Any/Inc/sto_pll_speed_pos_fdbk.h **** 
  27:MCSDK_v6.3.2-Full/MotorControl/MCSDK/MCLib/Any/Inc/sto_pll_speed_pos_fdbk.h **** /* Includes ------------------------------------------------------------------*/
  28:MCSDK_v6.3.2-Full/MotorControl/MCSDK/MCLib/Any/Inc/sto_pll_speed_pos_fdbk.h **** #include "speed_pos_fdbk.h"
  29:MCSDK_v6.3.2-Full/MotorControl/MCSDK/MCLib/Any/Inc/sto_pll_speed_pos_fdbk.h **** #include "sto_speed_pos_fdbk.h"
  30:MCSDK_v6.3.2-Full/MotorControl/MCSDK/MCLib/Any/Inc/sto_pll_speed_pos_fdbk.h **** #include "pid_regulator.h"
  31:MCSDK_v6.3.2-Full/MotorControl/MCSDK/MCLib/Any/Inc/sto_pll_speed_pos_fdbk.h **** 
  32:MCSDK_v6.3.2-Full/MotorControl/MCSDK/MCLib/Any/Inc/sto_pll_speed_pos_fdbk.h **** /** @addtogroup MCSDK
  33:MCSDK_v6.3.2-Full/MotorControl/MCSDK/MCLib/Any/Inc/sto_pll_speed_pos_fdbk.h ****   * @{
  34:MCSDK_v6.3.2-Full/MotorControl/MCSDK/MCLib/Any/Inc/sto_pll_speed_pos_fdbk.h ****   */
  35:MCSDK_v6.3.2-Full/MotorControl/MCSDK/MCLib/Any/Inc/sto_pll_speed_pos_fdbk.h **** 
  36:MCSDK_v6.3.2-Full/MotorControl/MCSDK/MCLib/Any/Inc/sto_pll_speed_pos_fdbk.h **** /** @addtogroup SpeednPosFdbk_STO_PLL
  37:MCSDK_v6.3.2-Full/MotorControl/MCSDK/MCLib/Any/Inc/sto_pll_speed_pos_fdbk.h ****   * @{
  38:MCSDK_v6.3.2-Full/MotorControl/MCSDK/MCLib/Any/Inc/sto_pll_speed_pos_fdbk.h ****   */
ARM GAS  /tmp/ccKFuU3x.s 			page 131


  39:MCSDK_v6.3.2-Full/MotorControl/MCSDK/MCLib/Any/Inc/sto_pll_speed_pos_fdbk.h **** 
  40:MCSDK_v6.3.2-Full/MotorControl/MCSDK/MCLib/Any/Inc/sto_pll_speed_pos_fdbk.h **** 
  41:MCSDK_v6.3.2-Full/MotorControl/MCSDK/MCLib/Any/Inc/sto_pll_speed_pos_fdbk.h **** /**
  42:MCSDK_v6.3.2-Full/MotorControl/MCSDK/MCLib/Any/Inc/sto_pll_speed_pos_fdbk.h ****   * @brief Handle of the Speed and Position Feedback STO PLL component.
  43:MCSDK_v6.3.2-Full/MotorControl/MCSDK/MCLib/Any/Inc/sto_pll_speed_pos_fdbk.h ****   *
  44:MCSDK_v6.3.2-Full/MotorControl/MCSDK/MCLib/Any/Inc/sto_pll_speed_pos_fdbk.h ****   */
  45:MCSDK_v6.3.2-Full/MotorControl/MCSDK/MCLib/Any/Inc/sto_pll_speed_pos_fdbk.h **** 
  46:MCSDK_v6.3.2-Full/MotorControl/MCSDK/MCLib/Any/Inc/sto_pll_speed_pos_fdbk.h **** typedef struct
  47:MCSDK_v6.3.2-Full/MotorControl/MCSDK/MCLib/Any/Inc/sto_pll_speed_pos_fdbk.h **** {
  48:MCSDK_v6.3.2-Full/MotorControl/MCSDK/MCLib/Any/Inc/sto_pll_speed_pos_fdbk.h ****   SpeednPosFdbk_Handle_t _Super;          /**< @brief Speed and torque component handler. */
  49:MCSDK_v6.3.2-Full/MotorControl/MCSDK/MCLib/Any/Inc/sto_pll_speed_pos_fdbk.h **** 
  50:MCSDK_v6.3.2-Full/MotorControl/MCSDK/MCLib/Any/Inc/sto_pll_speed_pos_fdbk.h ****   int16_t  hC1;                           /*!< @brief State observer constant @f$ C_1 @f$.
  51:MCSDK_v6.3.2-Full/MotorControl/MCSDK/MCLib/Any/Inc/sto_pll_speed_pos_fdbk.h ****                                             *
  52:MCSDK_v6.3.2-Full/MotorControl/MCSDK/MCLib/Any/Inc/sto_pll_speed_pos_fdbk.h ****                                             *  Can be computed as : @f$ (F_1  R_s) / (L_s  Stat
  53:MCSDK_v6.3.2-Full/MotorControl/MCSDK/MCLib/Any/Inc/sto_pll_speed_pos_fdbk.h ****                                             *  @f$ F_1 @f$ in Hertz [**Hz**]. \n
  54:MCSDK_v6.3.2-Full/MotorControl/MCSDK/MCLib/Any/Inc/sto_pll_speed_pos_fdbk.h ****                                             *  @f$ R_s @f$ in Ohm @f$[\Omega]@f$. \n
  55:MCSDK_v6.3.2-Full/MotorControl/MCSDK/MCLib/Any/Inc/sto_pll_speed_pos_fdbk.h ****                                             *  @f$ L_s @f$ in Henry [**H**]. \n
  56:MCSDK_v6.3.2-Full/MotorControl/MCSDK/MCLib/Any/Inc/sto_pll_speed_pos_fdbk.h ****                                             *  State Observer Execution Rate in Hertz [**Hz**].
  57:MCSDK_v6.3.2-Full/MotorControl/MCSDK/MCLib/Any/Inc/sto_pll_speed_pos_fdbk.h ****                                             */
  58:MCSDK_v6.3.2-Full/MotorControl/MCSDK/MCLib/Any/Inc/sto_pll_speed_pos_fdbk.h ****   int16_t  hC2;                           /**< @brief State observer constant @f$ C_2 @f$.
  59:MCSDK_v6.3.2-Full/MotorControl/MCSDK/MCLib/Any/Inc/sto_pll_speed_pos_fdbk.h ****                                             *
  60:MCSDK_v6.3.2-Full/MotorControl/MCSDK/MCLib/Any/Inc/sto_pll_speed_pos_fdbk.h ****                                             *  Can be computed as : @f$ (F_1  K_1) / (State Obser
  61:MCSDK_v6.3.2-Full/MotorControl/MCSDK/MCLib/Any/Inc/sto_pll_speed_pos_fdbk.h ****                                             *  @f$ F_1 @f$ in Hertz [**Hz**]. \n 
  62:MCSDK_v6.3.2-Full/MotorControl/MCSDK/MCLib/Any/Inc/sto_pll_speed_pos_fdbk.h ****                                             *  @f$ K_1 @f$ being one of the two observer gains. \n
  63:MCSDK_v6.3.2-Full/MotorControl/MCSDK/MCLib/Any/Inc/sto_pll_speed_pos_fdbk.h ****                                      observer execution rate [Hz] being K1 one
  64:MCSDK_v6.3.2-Full/MotorControl/MCSDK/MCLib/Any/Inc/sto_pll_speed_pos_fdbk.h ****                                      of the two observer gains   */
  65:MCSDK_v6.3.2-Full/MotorControl/MCSDK/MCLib/Any/Inc/sto_pll_speed_pos_fdbk.h ****   int16_t  hC3;                 /*!< Variable containing state observer constant
  66:MCSDK_v6.3.2-Full/MotorControl/MCSDK/MCLib/Any/Inc/sto_pll_speed_pos_fdbk.h ****                                             *
  67:MCSDK_v6.3.2-Full/MotorControl/MCSDK/MCLib/Any/Inc/sto_pll_speed_pos_fdbk.h ****                                             *  Can be computed as : @f$ (F_1  Max Application Spe
  68:MCSDK_v6.3.2-Full/MotorControl/MCSDK/MCLib/Any/Inc/sto_pll_speed_pos_fdbk.h ****                                             *  @f$ F_1 @f$ in Hertz [**Hz**]. \n
  69:MCSDK_v6.3.2-Full/MotorControl/MCSDK/MCLib/Any/Inc/sto_pll_speed_pos_fdbk.h ****                                             *  Max Application Speed in Rotation per minute [**rpm*
  70:MCSDK_v6.3.2-Full/MotorControl/MCSDK/MCLib/Any/Inc/sto_pll_speed_pos_fdbk.h ****                                             *  Motor Bemf Constant in Voltage line to line root mea
  71:MCSDK_v6.3.2-Full/MotorControl/MCSDK/MCLib/Any/Inc/sto_pll_speed_pos_fdbk.h ****                                             *  @f$ L_s @f$ in Henry [**H**]. \n
  72:MCSDK_v6.3.2-Full/MotorControl/MCSDK/MCLib/Any/Inc/sto_pll_speed_pos_fdbk.h ****                                             *  Max Measurable Current in Ampere [**A**]. \n
  73:MCSDK_v6.3.2-Full/MotorControl/MCSDK/MCLib/Any/Inc/sto_pll_speed_pos_fdbk.h ****                                             *  State Observer Execution Rate in Hertz [**Hz**].
  74:MCSDK_v6.3.2-Full/MotorControl/MCSDK/MCLib/Any/Inc/sto_pll_speed_pos_fdbk.h ****                                             */
  75:MCSDK_v6.3.2-Full/MotorControl/MCSDK/MCLib/Any/Inc/sto_pll_speed_pos_fdbk.h ****   int16_t  hC4;                           /**< @brief State Observer constant @f$ C_4 @f$.
  76:MCSDK_v6.3.2-Full/MotorControl/MCSDK/MCLib/Any/Inc/sto_pll_speed_pos_fdbk.h ****                                             *
  77:MCSDK_v6.3.2-Full/MotorControl/MCSDK/MCLib/Any/Inc/sto_pll_speed_pos_fdbk.h ****                                             *  Can be computed as @f$ K_2  Max Measurable Current
  78:MCSDK_v6.3.2-Full/MotorControl/MCSDK/MCLib/Any/Inc/sto_pll_speed_pos_fdbk.h ****                                             *  @f$ K_2 @f$ being one of the two observer gains. \n
  79:MCSDK_v6.3.2-Full/MotorControl/MCSDK/MCLib/Any/Inc/sto_pll_speed_pos_fdbk.h ****                                             *  Max Measurable Current in Ampere [**A**]. \n
  80:MCSDK_v6.3.2-Full/MotorControl/MCSDK/MCLib/Any/Inc/sto_pll_speed_pos_fdbk.h ****                                             *  Max Application Speed in Rotation per minute [**rpm*
  81:MCSDK_v6.3.2-Full/MotorControl/MCSDK/MCLib/Any/Inc/sto_pll_speed_pos_fdbk.h ****                                             *  Motor Bemf Constant in Voltage line to line root mea
  82:MCSDK_v6.3.2-Full/MotorControl/MCSDK/MCLib/Any/Inc/sto_pll_speed_pos_fdbk.h ****                                             *  State Observer Execution Rate in Hertz [**Hz**]. \n
  83:MCSDK_v6.3.2-Full/MotorControl/MCSDK/MCLib/Any/Inc/sto_pll_speed_pos_fdbk.h ****                                             */
  84:MCSDK_v6.3.2-Full/MotorControl/MCSDK/MCLib/Any/Inc/sto_pll_speed_pos_fdbk.h ****   int16_t  hC5;                           /**< @brief State observer constant @f$ C_5 @f$. 
  85:MCSDK_v6.3.2-Full/MotorControl/MCSDK/MCLib/Any/Inc/sto_pll_speed_pos_fdbk.h ****                                             *
  86:MCSDK_v6.3.2-Full/MotorControl/MCSDK/MCLib/Any/Inc/sto_pll_speed_pos_fdbk.h ****                                             *  Can be computed as @f$ F_1  Max Measurable Voltage
  87:MCSDK_v6.3.2-Full/MotorControl/MCSDK/MCLib/Any/Inc/sto_pll_speed_pos_fdbk.h ****                                             *  @f$ F_1 @f$ in Hertz [**Hz**]. \n
  88:MCSDK_v6.3.2-Full/MotorControl/MCSDK/MCLib/Any/Inc/sto_pll_speed_pos_fdbk.h ****                                             *  Max Measurable Voltage in Volt [**V**]. \n
  89:MCSDK_v6.3.2-Full/MotorControl/MCSDK/MCLib/Any/Inc/sto_pll_speed_pos_fdbk.h ****                                             *  @f$ L_s @f$ in Henry [**H**]. \n
  90:MCSDK_v6.3.2-Full/MotorControl/MCSDK/MCLib/Any/Inc/sto_pll_speed_pos_fdbk.h ****                                             *  Max Measurable Current in Ampere [**A**]. \n
  91:MCSDK_v6.3.2-Full/MotorControl/MCSDK/MCLib/Any/Inc/sto_pll_speed_pos_fdbk.h ****                                             *  State Observer Execution Rate in Hertz [**Hz**].
  92:MCSDK_v6.3.2-Full/MotorControl/MCSDK/MCLib/Any/Inc/sto_pll_speed_pos_fdbk.h ****                                             */
  93:MCSDK_v6.3.2-Full/MotorControl/MCSDK/MCLib/Any/Inc/sto_pll_speed_pos_fdbk.h ****   int16_t  hC6;                           /**< @brief State observer constant @f$ C_6 @f$. Computed
  94:MCSDK_v6.3.2-Full/MotorControl/MCSDK/MCLib/Any/Inc/sto_pll_speed_pos_fdbk.h ****   
  95:MCSDK_v6.3.2-Full/MotorControl/MCSDK/MCLib/Any/Inc/sto_pll_speed_pos_fdbk.h ****   int16_t  hF1;                           /**< @brief State observer scaling factor @f$ F_1 @f$. */
ARM GAS  /tmp/ccKFuU3x.s 			page 132


  96:MCSDK_v6.3.2-Full/MotorControl/MCSDK/MCLib/Any/Inc/sto_pll_speed_pos_fdbk.h ****   int16_t  hF2;                           /**< @brief State observer scaling factor @f$ F_2 @f$. */
  97:MCSDK_v6.3.2-Full/MotorControl/MCSDK/MCLib/Any/Inc/sto_pll_speed_pos_fdbk.h ****   int16_t  hF3;                           /**< @brief State observer scaling factor @f$ F_3 @f$. */
  98:MCSDK_v6.3.2-Full/MotorControl/MCSDK/MCLib/Any/Inc/sto_pll_speed_pos_fdbk.h ****   uint16_t F3POW2;                        /**< @brief State observer scaling factor @f$ F_3 @f$ exp
  99:MCSDK_v6.3.2-Full/MotorControl/MCSDK/MCLib/Any/Inc/sto_pll_speed_pos_fdbk.h ****                                             *
 100:MCSDK_v6.3.2-Full/MotorControl/MCSDK/MCLib/Any/Inc/sto_pll_speed_pos_fdbk.h ****                                             *  E.g. If gain divisor is 512 the value must be 9 beca
 101:MCSDK_v6.3.2-Full/MotorControl/MCSDK/MCLib/Any/Inc/sto_pll_speed_pos_fdbk.h ****                                             */
 102:MCSDK_v6.3.2-Full/MotorControl/MCSDK/MCLib/Any/Inc/sto_pll_speed_pos_fdbk.h ****   PID_Handle_t PIRegulator;               /**< @brief PI regulator component handle, used for PLL i
 103:MCSDK_v6.3.2-Full/MotorControl/MCSDK/MCLib/Any/Inc/sto_pll_speed_pos_fdbk.h ****   int32_t Ialfa_est;                      /**< @brief Estimated @f$ I_{alpha} @f$ current. */
 104:MCSDK_v6.3.2-Full/MotorControl/MCSDK/MCLib/Any/Inc/sto_pll_speed_pos_fdbk.h ****   int32_t Ibeta_est;                      /**< @brief Estimated @f$ I_{beta} @f$ current. */
 105:MCSDK_v6.3.2-Full/MotorControl/MCSDK/MCLib/Any/Inc/sto_pll_speed_pos_fdbk.h ****   int32_t wBemf_alfa_est;                 /**< @brief Estimated Bemf alpha. */
 106:MCSDK_v6.3.2-Full/MotorControl/MCSDK/MCLib/Any/Inc/sto_pll_speed_pos_fdbk.h ****   int32_t wBemf_beta_est;                 /**< @brief Estimated Bemf beta. */
 107:MCSDK_v6.3.2-Full/MotorControl/MCSDK/MCLib/Any/Inc/sto_pll_speed_pos_fdbk.h ****   int16_t hBemf_alfa_est;                 /**< @brief Estimated Bemf alpha in int16_t format. */
 108:MCSDK_v6.3.2-Full/MotorControl/MCSDK/MCLib/Any/Inc/sto_pll_speed_pos_fdbk.h ****   int16_t hBemf_beta_est;                 /**< @brief Estimated Bemf beta in int16_t format. */
 109:MCSDK_v6.3.2-Full/MotorControl/MCSDK/MCLib/Any/Inc/sto_pll_speed_pos_fdbk.h ****   int16_t Speed_Buffer[64];               /**< @brief Estimated speed FIFO, it contains latest Spee
 110:MCSDK_v6.3.2-Full/MotorControl/MCSDK/MCLib/Any/Inc/sto_pll_speed_pos_fdbk.h ****   uint8_t Speed_Buffer_Index;             /**< @brief Index of latest estimated speed in buffer Spe
 111:MCSDK_v6.3.2-Full/MotorControl/MCSDK/MCLib/Any/Inc/sto_pll_speed_pos_fdbk.h ****   bool IsSpeedReliable;                   /**< @brief Estimated speed reliability information.
 112:MCSDK_v6.3.2-Full/MotorControl/MCSDK/MCLib/Any/Inc/sto_pll_speed_pos_fdbk.h ****                                             *
 113:MCSDK_v6.3.2-Full/MotorControl/MCSDK/MCLib/Any/Inc/sto_pll_speed_pos_fdbk.h ****                                             *  Updated during speed average computation in STO_PLL_
 114:MCSDK_v6.3.2-Full/MotorControl/MCSDK/MCLib/Any/Inc/sto_pll_speed_pos_fdbk.h ****                                             *  True if the speed measurement variance is lower than
 115:MCSDK_v6.3.2-Full/MotorControl/MCSDK/MCLib/Any/Inc/sto_pll_speed_pos_fdbk.h ****                                             */
 116:MCSDK_v6.3.2-Full/MotorControl/MCSDK/MCLib/Any/Inc/sto_pll_speed_pos_fdbk.h ****   uint8_t ConsistencyCounter;             /**< @brief Counter of passed tests for start-up validati
 117:MCSDK_v6.3.2-Full/MotorControl/MCSDK/MCLib/Any/Inc/sto_pll_speed_pos_fdbk.h ****   uint8_t ReliabilityCounter;             /**< @brief Counter for checking reliability of Bemf and 
 118:MCSDK_v6.3.2-Full/MotorControl/MCSDK/MCLib/Any/Inc/sto_pll_speed_pos_fdbk.h ****   bool IsAlgorithmConverged;              /**< @brief Observer convergence flag. */
 119:MCSDK_v6.3.2-Full/MotorControl/MCSDK/MCLib/Any/Inc/sto_pll_speed_pos_fdbk.h ****   bool IsBemfConsistent;                  /**< @brief Reliability of estimated Bemf flag.
 120:MCSDK_v6.3.2-Full/MotorControl/MCSDK/MCLib/Any/Inc/sto_pll_speed_pos_fdbk.h ****                                             *
 121:MCSDK_v6.3.2-Full/MotorControl/MCSDK/MCLib/Any/Inc/sto_pll_speed_pos_fdbk.h ****                                             *  Updated by STO_PLL_CalcAvrgMecSpeedUnit, set to true
 122:MCSDK_v6.3.2-Full/MotorControl/MCSDK/MCLib/Any/Inc/sto_pll_speed_pos_fdbk.h ****                                             */
 123:MCSDK_v6.3.2-Full/MotorControl/MCSDK/MCLib/Any/Inc/sto_pll_speed_pos_fdbk.h ****   int32_t Obs_Bemf_Level;                 /**< @brief Magnitude of observed Bemf level squared. */
 124:MCSDK_v6.3.2-Full/MotorControl/MCSDK/MCLib/Any/Inc/sto_pll_speed_pos_fdbk.h ****   int32_t Est_Bemf_Level;                 /**< @brief Magnitude of estimated Bemf Level squared bas
 125:MCSDK_v6.3.2-Full/MotorControl/MCSDK/MCLib/Any/Inc/sto_pll_speed_pos_fdbk.h ****   bool EnableDualCheck;                   /**< @brief Enable additional reliability check based on 
 126:MCSDK_v6.3.2-Full/MotorControl/MCSDK/MCLib/Any/Inc/sto_pll_speed_pos_fdbk.h ****   int32_t DppBufferSum;                   /**< @brief Sum of speed buffer elements [**DPP**]. */
 127:MCSDK_v6.3.2-Full/MotorControl/MCSDK/MCLib/Any/Inc/sto_pll_speed_pos_fdbk.h ****   int16_t SpeedBufferOldestEl;            /**< @brief Oldest element of the speed buffer. */
 128:MCSDK_v6.3.2-Full/MotorControl/MCSDK/MCLib/Any/Inc/sto_pll_speed_pos_fdbk.h **** 
 129:MCSDK_v6.3.2-Full/MotorControl/MCSDK/MCLib/Any/Inc/sto_pll_speed_pos_fdbk.h ****   uint8_t SpeedBufferSizeUnit;            /**< @brief Depth of FIFO used to calculate the average e
 130:MCSDK_v6.3.2-Full/MotorControl/MCSDK/MCLib/Any/Inc/sto_pll_speed_pos_fdbk.h ****                                             *         Must be an integer number in range[1..64].
 131:MCSDK_v6.3.2-Full/MotorControl/MCSDK/MCLib/Any/Inc/sto_pll_speed_pos_fdbk.h ****                                             */
 132:MCSDK_v6.3.2-Full/MotorControl/MCSDK/MCLib/Any/Inc/sto_pll_speed_pos_fdbk.h ****   uint8_t SpeedBufferSizeDpp;             /**< @brief Depth of FIFO used to calculate both average 
 133:MCSDK_v6.3.2-Full/MotorControl/MCSDK/MCLib/Any/Inc/sto_pll_speed_pos_fdbk.h ****                                             *         Must be an integer number between 1 and Speed
 134:MCSDK_v6.3.2-Full/MotorControl/MCSDK/MCLib/Any/Inc/sto_pll_speed_pos_fdbk.h ****                                             */
 135:MCSDK_v6.3.2-Full/MotorControl/MCSDK/MCLib/Any/Inc/sto_pll_speed_pos_fdbk.h ****   uint16_t VariancePercentage;            /**< @brief Maximum allowed variance of speed estimation.
 136:MCSDK_v6.3.2-Full/MotorControl/MCSDK/MCLib/Any/Inc/sto_pll_speed_pos_fdbk.h **** 
 137:MCSDK_v6.3.2-Full/MotorControl/MCSDK/MCLib/Any/Inc/sto_pll_speed_pos_fdbk.h ****   uint8_t SpeedValidationBand_H;          /**< @brief Upper bound below which the estimated speed i
 138:MCSDK_v6.3.2-Full/MotorControl/MCSDK/MCLib/Any/Inc/sto_pll_speed_pos_fdbk.h ****                                             *         despite exceeding the force stator electrical
 139:MCSDK_v6.3.2-Full/MotorControl/MCSDK/MCLib/Any/Inc/sto_pll_speed_pos_fdbk.h ****                                             *         during start-up. The measurement unit is 1/16
 140:MCSDK_v6.3.2-Full/MotorControl/MCSDK/MCLib/Any/Inc/sto_pll_speed_pos_fdbk.h ****                                             *         speed.
 141:MCSDK_v6.3.2-Full/MotorControl/MCSDK/MCLib/Any/Inc/sto_pll_speed_pos_fdbk.h ****                                             */
 142:MCSDK_v6.3.2-Full/MotorControl/MCSDK/MCLib/Any/Inc/sto_pll_speed_pos_fdbk.h ****   uint8_t SpeedValidationBand_L;          /**< @brief Lower bound above which the estimated speed i
 143:MCSDK_v6.3.2-Full/MotorControl/MCSDK/MCLib/Any/Inc/sto_pll_speed_pos_fdbk.h ****                                             *         despite subceeding the force stator electrica
 144:MCSDK_v6.3.2-Full/MotorControl/MCSDK/MCLib/Any/Inc/sto_pll_speed_pos_fdbk.h ****                                             *         during start-up. The measurement unit is 1/16
 145:MCSDK_v6.3.2-Full/MotorControl/MCSDK/MCLib/Any/Inc/sto_pll_speed_pos_fdbk.h ****                                             *         speed.
 146:MCSDK_v6.3.2-Full/MotorControl/MCSDK/MCLib/Any/Inc/sto_pll_speed_pos_fdbk.h ****                                             */
 147:MCSDK_v6.3.2-Full/MotorControl/MCSDK/MCLib/Any/Inc/sto_pll_speed_pos_fdbk.h ****   uint16_t MinStartUpValidSpeed;          /**< @brief Absolute value of minimum mechanical
 148:MCSDK_v6.3.2-Full/MotorControl/MCSDK/MCLib/Any/Inc/sto_pll_speed_pos_fdbk.h ****                                             *         speed required to validate the start-up.
 149:MCSDK_v6.3.2-Full/MotorControl/MCSDK/MCLib/Any/Inc/sto_pll_speed_pos_fdbk.h ****                                             *         Expressed in the unit defined by #SPEED_UNIT.
 150:MCSDK_v6.3.2-Full/MotorControl/MCSDK/MCLib/Any/Inc/sto_pll_speed_pos_fdbk.h ****                                             */
 151:MCSDK_v6.3.2-Full/MotorControl/MCSDK/MCLib/Any/Inc/sto_pll_speed_pos_fdbk.h ****   uint8_t StartUpConsistThreshold;        /**< @brief Number of consecutive tests on speed
 152:MCSDK_v6.3.2-Full/MotorControl/MCSDK/MCLib/Any/Inc/sto_pll_speed_pos_fdbk.h ****                                             *         consistency to be passed before
ARM GAS  /tmp/ccKFuU3x.s 			page 133


 153:MCSDK_v6.3.2-Full/MotorControl/MCSDK/MCLib/Any/Inc/sto_pll_speed_pos_fdbk.h ****                                             *         validating the start-up.
 154:MCSDK_v6.3.2-Full/MotorControl/MCSDK/MCLib/Any/Inc/sto_pll_speed_pos_fdbk.h ****                                             */
 155:MCSDK_v6.3.2-Full/MotorControl/MCSDK/MCLib/Any/Inc/sto_pll_speed_pos_fdbk.h ****   uint8_t BemfConsistencyCheck;           /**< @brief Degree of consistency of the observed Bemfs. 
 156:MCSDK_v6.3.2-Full/MotorControl/MCSDK/MCLib/Any/Inc/sto_pll_speed_pos_fdbk.h ****                                             *         Must be an integer number ranging from 1 (ver
 157:MCSDK_v6.3.2-Full/MotorControl/MCSDK/MCLib/Any/Inc/sto_pll_speed_pos_fdbk.h ****                                             *         consistency) down to 64 (very poor consistenc
 158:MCSDK_v6.3.2-Full/MotorControl/MCSDK/MCLib/Any/Inc/sto_pll_speed_pos_fdbk.h ****                                             */
 159:MCSDK_v6.3.2-Full/MotorControl/MCSDK/MCLib/Any/Inc/sto_pll_speed_pos_fdbk.h ****   uint8_t BemfConsistencyGain;            /**< @brief Gain to be applied when checking Bemfs consis
 160:MCSDK_v6.3.2-Full/MotorControl/MCSDK/MCLib/Any/Inc/sto_pll_speed_pos_fdbk.h ****                                             *         Default value is 64 (neutral), max value 105
 161:MCSDK_v6.3.2-Full/MotorControl/MCSDK/MCLib/Any/Inc/sto_pll_speed_pos_fdbk.h ****                                             *         (x1.64 amplification), min value 1 (/64 atten
 162:MCSDK_v6.3.2-Full/MotorControl/MCSDK/MCLib/Any/Inc/sto_pll_speed_pos_fdbk.h ****                                             */
 163:MCSDK_v6.3.2-Full/MotorControl/MCSDK/MCLib/Any/Inc/sto_pll_speed_pos_fdbk.h ****   uint16_t MaxAppPositiveMecSpeedUnit;    /**< @brief Maximum positive value of rotor speed. \n
 164:MCSDK_v6.3.2-Full/MotorControl/MCSDK/MCLib/Any/Inc/sto_pll_speed_pos_fdbk.h ****                                             *         Expressed in the unit defined by #SPEED_UNIT.
 165:MCSDK_v6.3.2-Full/MotorControl/MCSDK/MCLib/Any/Inc/sto_pll_speed_pos_fdbk.h ****                                             *         Can be x1.1 greater than max application spee
 166:MCSDK_v6.3.2-Full/MotorControl/MCSDK/MCLib/Any/Inc/sto_pll_speed_pos_fdbk.h ****                                             */
 167:MCSDK_v6.3.2-Full/MotorControl/MCSDK/MCLib/Any/Inc/sto_pll_speed_pos_fdbk.h ****   uint16_t F1LOG;                         /**< @brief @f$ F_1 @f$ gain divisor expressed as power o
 168:MCSDK_v6.3.2-Full/MotorControl/MCSDK/MCLib/Any/Inc/sto_pll_speed_pos_fdbk.h ****                                             *
 169:MCSDK_v6.3.2-Full/MotorControl/MCSDK/MCLib/Any/Inc/sto_pll_speed_pos_fdbk.h ****                                             *  E.g. if gain divisor is 512 the value must be 9 beca
 170:MCSDK_v6.3.2-Full/MotorControl/MCSDK/MCLib/Any/Inc/sto_pll_speed_pos_fdbk.h ****                                             */
 171:MCSDK_v6.3.2-Full/MotorControl/MCSDK/MCLib/Any/Inc/sto_pll_speed_pos_fdbk.h ****   uint16_t F2LOG;                         /**< @brief @f$ F_2 @f$ gain divisor expressed as power o
 172:MCSDK_v6.3.2-Full/MotorControl/MCSDK/MCLib/Any/Inc/sto_pll_speed_pos_fdbk.h ****                                             *
 173:MCSDK_v6.3.2-Full/MotorControl/MCSDK/MCLib/Any/Inc/sto_pll_speed_pos_fdbk.h ****                                             *  E.g. if gain divisor is 512 the value must be 9 beca
 174:MCSDK_v6.3.2-Full/MotorControl/MCSDK/MCLib/Any/Inc/sto_pll_speed_pos_fdbk.h ****                                             */
 175:MCSDK_v6.3.2-Full/MotorControl/MCSDK/MCLib/Any/Inc/sto_pll_speed_pos_fdbk.h ****   uint16_t SpeedBufferSizeDppLOG;         /**< @brief bSpeedBufferSizedpp expressed as power of 2.
 176:MCSDK_v6.3.2-Full/MotorControl/MCSDK/MCLib/Any/Inc/sto_pll_speed_pos_fdbk.h ****                                             *
 177:MCSDK_v6.3.2-Full/MotorControl/MCSDK/MCLib/Any/Inc/sto_pll_speed_pos_fdbk.h ****                                             *  E.g. if gain divisor is 512 the value must be 9 beca
 178:MCSDK_v6.3.2-Full/MotorControl/MCSDK/MCLib/Any/Inc/sto_pll_speed_pos_fdbk.h ****                                             */
 179:MCSDK_v6.3.2-Full/MotorControl/MCSDK/MCLib/Any/Inc/sto_pll_speed_pos_fdbk.h ****   bool ForceConvergency;                  /**< @brief Variable to force observer convergence. */
 180:MCSDK_v6.3.2-Full/MotorControl/MCSDK/MCLib/Any/Inc/sto_pll_speed_pos_fdbk.h ****   bool ForceConvergency2;                 /**< @brief Variable to force observer convergence. */
 181:MCSDK_v6.3.2-Full/MotorControl/MCSDK/MCLib/Any/Inc/sto_pll_speed_pos_fdbk.h **** 
 182:MCSDK_v6.3.2-Full/MotorControl/MCSDK/MCLib/Any/Inc/sto_pll_speed_pos_fdbk.h ****   int8_t hForcedDirection;                /**< @brief Variable to force rotation direction. */
 183:MCSDK_v6.3.2-Full/MotorControl/MCSDK/MCLib/Any/Inc/sto_pll_speed_pos_fdbk.h **** 
 184:MCSDK_v6.3.2-Full/MotorControl/MCSDK/MCLib/Any/Inc/sto_pll_speed_pos_fdbk.h **** } STO_PLL_Handle_t;
 185:MCSDK_v6.3.2-Full/MotorControl/MCSDK/MCLib/Any/Inc/sto_pll_speed_pos_fdbk.h **** 
 186:MCSDK_v6.3.2-Full/MotorControl/MCSDK/MCLib/Any/Inc/sto_pll_speed_pos_fdbk.h **** 
 187:MCSDK_v6.3.2-Full/MotorControl/MCSDK/MCLib/Any/Inc/sto_pll_speed_pos_fdbk.h **** /* Exported functions ------------------------------------------------------- */
 188:MCSDK_v6.3.2-Full/MotorControl/MCSDK/MCLib/Any/Inc/sto_pll_speed_pos_fdbk.h **** 
 189:MCSDK_v6.3.2-Full/MotorControl/MCSDK/MCLib/Any/Inc/sto_pll_speed_pos_fdbk.h **** /* Initializes the handler of STate Observer (STO) PLL component */
 190:MCSDK_v6.3.2-Full/MotorControl/MCSDK/MCLib/Any/Inc/sto_pll_speed_pos_fdbk.h **** void STO_PLL_Init(STO_PLL_Handle_t *pHandle);
 191:MCSDK_v6.3.2-Full/MotorControl/MCSDK/MCLib/Any/Inc/sto_pll_speed_pos_fdbk.h **** 
 192:MCSDK_v6.3.2-Full/MotorControl/MCSDK/MCLib/Any/Inc/sto_pll_speed_pos_fdbk.h **** /* Necessary empty return to implement fictitious IRQ_Handler */
 193:MCSDK_v6.3.2-Full/MotorControl/MCSDK/MCLib/Any/Inc/sto_pll_speed_pos_fdbk.h **** void STO_PLL_Return(STO_PLL_Handle_t *pHandle, uint8_t flag);
 194:MCSDK_v6.3.2-Full/MotorControl/MCSDK/MCLib/Any/Inc/sto_pll_speed_pos_fdbk.h **** 
 195:MCSDK_v6.3.2-Full/MotorControl/MCSDK/MCLib/Any/Inc/sto_pll_speed_pos_fdbk.h **** /* Clears state observer component by re-initializing private variables in the handler */
 196:MCSDK_v6.3.2-Full/MotorControl/MCSDK/MCLib/Any/Inc/sto_pll_speed_pos_fdbk.h **** void STO_PLL_Clear(STO_PLL_Handle_t *pHandle);
 197:MCSDK_v6.3.2-Full/MotorControl/MCSDK/MCLib/Any/Inc/sto_pll_speed_pos_fdbk.h **** 
 198:MCSDK_v6.3.2-Full/MotorControl/MCSDK/MCLib/Any/Inc/sto_pll_speed_pos_fdbk.h **** /* Calculates the estimated electrical angle */
 199:MCSDK_v6.3.2-Full/MotorControl/MCSDK/MCLib/Any/Inc/sto_pll_speed_pos_fdbk.h **** int16_t STO_PLL_CalcElAngle(STO_PLL_Handle_t *pHandle, Observer_Inputs_t *pInputs);
 200:MCSDK_v6.3.2-Full/MotorControl/MCSDK/MCLib/Any/Inc/sto_pll_speed_pos_fdbk.h **** 
 201:MCSDK_v6.3.2-Full/MotorControl/MCSDK/MCLib/Any/Inc/sto_pll_speed_pos_fdbk.h **** /* Computes and returns the average mechanical speed */
 202:MCSDK_v6.3.2-Full/MotorControl/MCSDK/MCLib/Any/Inc/sto_pll_speed_pos_fdbk.h **** bool STO_PLL_CalcAvrgMecSpeedUnit(STO_PLL_Handle_t *pHandle, int16_t *pMecSpeedUnit);
 203:MCSDK_v6.3.2-Full/MotorControl/MCSDK/MCLib/Any/Inc/sto_pll_speed_pos_fdbk.h **** 
 204:MCSDK_v6.3.2-Full/MotorControl/MCSDK/MCLib/Any/Inc/sto_pll_speed_pos_fdbk.h **** /* Resets the PLL integral term during on-the-fly startup */
 205:MCSDK_v6.3.2-Full/MotorControl/MCSDK/MCLib/Any/Inc/sto_pll_speed_pos_fdbk.h **** void STO_OTF_ResetPLL(STO_Handle_t *pHandle);
 206:MCSDK_v6.3.2-Full/MotorControl/MCSDK/MCLib/Any/Inc/sto_pll_speed_pos_fdbk.h **** 
 207:MCSDK_v6.3.2-Full/MotorControl/MCSDK/MCLib/Any/Inc/sto_pll_speed_pos_fdbk.h **** /* Checks if the state observer algorithm converged */
 208:MCSDK_v6.3.2-Full/MotorControl/MCSDK/MCLib/Any/Inc/sto_pll_speed_pos_fdbk.h **** bool STO_PLL_IsObserverConverged(STO_PLL_Handle_t *pHandle, int16_t *phForcedMecSpeedUnit);
 209:MCSDK_v6.3.2-Full/MotorControl/MCSDK/MCLib/Any/Inc/sto_pll_speed_pos_fdbk.h **** 
ARM GAS  /tmp/ccKFuU3x.s 			page 134


 210:MCSDK_v6.3.2-Full/MotorControl/MCSDK/MCLib/Any/Inc/sto_pll_speed_pos_fdbk.h **** /* Computes and updates the average electrical speed */
 211:MCSDK_v6.3.2-Full/MotorControl/MCSDK/MCLib/Any/Inc/sto_pll_speed_pos_fdbk.h **** void STO_PLL_CalcAvrgElSpeedDpp(STO_PLL_Handle_t *pHandle);
 212:MCSDK_v6.3.2-Full/MotorControl/MCSDK/MCLib/Any/Inc/sto_pll_speed_pos_fdbk.h **** 
 213:MCSDK_v6.3.2-Full/MotorControl/MCSDK/MCLib/Any/Inc/sto_pll_speed_pos_fdbk.h **** /* Exports estimated Bemf alpha-beta from the handler */
 214:MCSDK_v6.3.2-Full/MotorControl/MCSDK/MCLib/Any/Inc/sto_pll_speed_pos_fdbk.h **** alphabeta_t STO_PLL_GetEstimatedBemf(STO_PLL_Handle_t *pHandle);
 215:MCSDK_v6.3.2-Full/MotorControl/MCSDK/MCLib/Any/Inc/sto_pll_speed_pos_fdbk.h **** 
 216:MCSDK_v6.3.2-Full/MotorControl/MCSDK/MCLib/Any/Inc/sto_pll_speed_pos_fdbk.h **** /* Exports from the handler the stator current alpha-beta as estimated by state observer */
 217:MCSDK_v6.3.2-Full/MotorControl/MCSDK/MCLib/Any/Inc/sto_pll_speed_pos_fdbk.h **** alphabeta_t STO_PLL_GetEstimatedCurrent(STO_PLL_Handle_t *pHandle);
 218:MCSDK_v6.3.2-Full/MotorControl/MCSDK/MCLib/Any/Inc/sto_pll_speed_pos_fdbk.h **** 
 219:MCSDK_v6.3.2-Full/MotorControl/MCSDK/MCLib/Any/Inc/sto_pll_speed_pos_fdbk.h **** /* Stores in the handler the new values for observer gains */
 220:MCSDK_v6.3.2-Full/MotorControl/MCSDK/MCLib/Any/Inc/sto_pll_speed_pos_fdbk.h **** void STO_PLL_SetObserverGains(STO_PLL_Handle_t *pHandle, int16_t hhC1, int16_t hhC2);
 221:MCSDK_v6.3.2-Full/MotorControl/MCSDK/MCLib/Any/Inc/sto_pll_speed_pos_fdbk.h **** 
 222:MCSDK_v6.3.2-Full/MotorControl/MCSDK/MCLib/Any/Inc/sto_pll_speed_pos_fdbk.h **** /* Exports current observer gains from the handler to parameters hhC2 and hhC4 */
 223:MCSDK_v6.3.2-Full/MotorControl/MCSDK/MCLib/Any/Inc/sto_pll_speed_pos_fdbk.h **** void STO_PLL_GetObserverGains(STO_PLL_Handle_t *pHandle, int16_t *phC2, int16_t *phC4);
 224:MCSDK_v6.3.2-Full/MotorControl/MCSDK/MCLib/Any/Inc/sto_pll_speed_pos_fdbk.h **** 
 225:MCSDK_v6.3.2-Full/MotorControl/MCSDK/MCLib/Any/Inc/sto_pll_speed_pos_fdbk.h **** /* Exports the current PLL gains from the handler to parameters pPgain and pIgain */
 226:MCSDK_v6.3.2-Full/MotorControl/MCSDK/MCLib/Any/Inc/sto_pll_speed_pos_fdbk.h **** void STO_GetPLLGains(STO_PLL_Handle_t *pHandle, int16_t *pPgain, int16_t *pIgain);
 227:MCSDK_v6.3.2-Full/MotorControl/MCSDK/MCLib/Any/Inc/sto_pll_speed_pos_fdbk.h **** 
 228:MCSDK_v6.3.2-Full/MotorControl/MCSDK/MCLib/Any/Inc/sto_pll_speed_pos_fdbk.h **** /* Empty function. Could be declared to set instantaneous information on rotor mechanical angle */
 229:MCSDK_v6.3.2-Full/MotorControl/MCSDK/MCLib/Any/Inc/sto_pll_speed_pos_fdbk.h **** void STO_PLL_SetMecAngle(STO_PLL_Handle_t *pHandle, int16_t hMecAngle);
 230:MCSDK_v6.3.2-Full/MotorControl/MCSDK/MCLib/Any/Inc/sto_pll_speed_pos_fdbk.h **** 
 231:MCSDK_v6.3.2-Full/MotorControl/MCSDK/MCLib/Any/Inc/sto_pll_speed_pos_fdbk.h **** /* Enables/Disables additional reliability check based on observed Bemf */
 232:MCSDK_v6.3.2-Full/MotorControl/MCSDK/MCLib/Any/Inc/sto_pll_speed_pos_fdbk.h **** void STO_PLL_BemfConsistencyCheckSwitch(STO_PLL_Handle_t *pHandle, bool bSel);
 233:MCSDK_v6.3.2-Full/MotorControl/MCSDK/MCLib/Any/Inc/sto_pll_speed_pos_fdbk.h **** 
 234:MCSDK_v6.3.2-Full/MotorControl/MCSDK/MCLib/Any/Inc/sto_pll_speed_pos_fdbk.h **** /* Checks if the Bemf is consistent */
 235:MCSDK_v6.3.2-Full/MotorControl/MCSDK/MCLib/Any/Inc/sto_pll_speed_pos_fdbk.h **** bool STO_PLL_IsBemfConsistent(STO_PLL_Handle_t *pHandle);
 236:MCSDK_v6.3.2-Full/MotorControl/MCSDK/MCLib/Any/Inc/sto_pll_speed_pos_fdbk.h **** 
 237:MCSDK_v6.3.2-Full/MotorControl/MCSDK/MCLib/Any/Inc/sto_pll_speed_pos_fdbk.h **** /* Checks the value of the variance */
 238:MCSDK_v6.3.2-Full/MotorControl/MCSDK/MCLib/Any/Inc/sto_pll_speed_pos_fdbk.h **** bool STO_PLL_IsVarianceTight(const STO_Handle_t *pHandle);
 239:MCSDK_v6.3.2-Full/MotorControl/MCSDK/MCLib/Any/Inc/sto_pll_speed_pos_fdbk.h **** 
 240:MCSDK_v6.3.2-Full/MotorControl/MCSDK/MCLib/Any/Inc/sto_pll_speed_pos_fdbk.h **** /* Forces the state-observer to declare convergency */
 241:MCSDK_v6.3.2-Full/MotorControl/MCSDK/MCLib/Any/Inc/sto_pll_speed_pos_fdbk.h **** void STO_PLL_ForceConvergency1(STO_Handle_t *pHandle);
 242:MCSDK_v6.3.2-Full/MotorControl/MCSDK/MCLib/Any/Inc/sto_pll_speed_pos_fdbk.h **** 
 243:MCSDK_v6.3.2-Full/MotorControl/MCSDK/MCLib/Any/Inc/sto_pll_speed_pos_fdbk.h **** /* Forces the state-observer to declare convergency */
 244:MCSDK_v6.3.2-Full/MotorControl/MCSDK/MCLib/Any/Inc/sto_pll_speed_pos_fdbk.h **** void STO_PLL_ForceConvergency2(STO_Handle_t *pHandle);
 245:MCSDK_v6.3.2-Full/MotorControl/MCSDK/MCLib/Any/Inc/sto_pll_speed_pos_fdbk.h **** 
 246:MCSDK_v6.3.2-Full/MotorControl/MCSDK/MCLib/Any/Inc/sto_pll_speed_pos_fdbk.h **** /* Sets the rotation direction in the handler */
 247:MCSDK_v6.3.2-Full/MotorControl/MCSDK/MCLib/Any/Inc/sto_pll_speed_pos_fdbk.h **** __weak void STO_SetDirection(STO_PLL_Handle_t *pHandle, int8_t direction);
 248:MCSDK_v6.3.2-Full/MotorControl/MCSDK/MCLib/Any/Inc/sto_pll_speed_pos_fdbk.h **** 
 249:MCSDK_v6.3.2-Full/MotorControl/MCSDK/MCLib/Any/Inc/sto_pll_speed_pos_fdbk.h **** /**
 250:MCSDK_v6.3.2-Full/MotorControl/MCSDK/MCLib/Any/Inc/sto_pll_speed_pos_fdbk.h ****   * @brief  Stores in @p pHandle the new values @p hPgain and @p hIgain for PLL gains.
 251:MCSDK_v6.3.2-Full/MotorControl/MCSDK/MCLib/Any/Inc/sto_pll_speed_pos_fdbk.h ****   * 
 252:MCSDK_v6.3.2-Full/MotorControl/MCSDK/MCLib/Any/Inc/sto_pll_speed_pos_fdbk.h ****   */
 253:MCSDK_v6.3.2-Full/MotorControl/MCSDK/MCLib/Any/Inc/sto_pll_speed_pos_fdbk.h **** static inline void STO_SetPLLGains(STO_PLL_Handle_t *pHandle, int16_t hPgain, int16_t hIgain)
 254:MCSDK_v6.3.2-Full/MotorControl/MCSDK/MCLib/Any/Inc/sto_pll_speed_pos_fdbk.h **** {
 255:MCSDK_v6.3.2-Full/MotorControl/MCSDK/MCLib/Any/Inc/sto_pll_speed_pos_fdbk.h **** #ifdef NULL_PTR_CHECK_STO_PLL_SPD_POS_FDB
 256:MCSDK_v6.3.2-Full/MotorControl/MCSDK/MCLib/Any/Inc/sto_pll_speed_pos_fdbk.h ****   if (MC_NULL == pHandle)
 257:MCSDK_v6.3.2-Full/MotorControl/MCSDK/MCLib/Any/Inc/sto_pll_speed_pos_fdbk.h ****   {
 258:MCSDK_v6.3.2-Full/MotorControl/MCSDK/MCLib/Any/Inc/sto_pll_speed_pos_fdbk.h ****     /* Nothing to do */
 259:MCSDK_v6.3.2-Full/MotorControl/MCSDK/MCLib/Any/Inc/sto_pll_speed_pos_fdbk.h ****   }
 260:MCSDK_v6.3.2-Full/MotorControl/MCSDK/MCLib/Any/Inc/sto_pll_speed_pos_fdbk.h ****   else
 261:MCSDK_v6.3.2-Full/MotorControl/MCSDK/MCLib/Any/Inc/sto_pll_speed_pos_fdbk.h ****   {
 262:MCSDK_v6.3.2-Full/MotorControl/MCSDK/MCLib/Any/Inc/sto_pll_speed_pos_fdbk.h **** #endif
 263:MCSDK_v6.3.2-Full/MotorControl/MCSDK/MCLib/Any/Inc/sto_pll_speed_pos_fdbk.h ****     PID_SetKP(&pHandle->PIRegulator, hPgain);
 264:MCSDK_v6.3.2-Full/MotorControl/MCSDK/MCLib/Any/Inc/sto_pll_speed_pos_fdbk.h ****     PID_SetKI(&pHandle->PIRegulator, hIgain);
 265:MCSDK_v6.3.2-Full/MotorControl/MCSDK/MCLib/Any/Inc/sto_pll_speed_pos_fdbk.h **** #ifdef NULL_PTR_CHECK_STO_PLL_SPD_POS_FDB
 266:MCSDK_v6.3.2-Full/MotorControl/MCSDK/MCLib/Any/Inc/sto_pll_speed_pos_fdbk.h ****   }
ARM GAS  /tmp/ccKFuU3x.s 			page 135


 267:MCSDK_v6.3.2-Full/MotorControl/MCSDK/MCLib/Any/Inc/sto_pll_speed_pos_fdbk.h **** #endif
 268:MCSDK_v6.3.2-Full/MotorControl/MCSDK/MCLib/Any/Inc/sto_pll_speed_pos_fdbk.h **** }
 269:MCSDK_v6.3.2-Full/MotorControl/MCSDK/MCLib/Any/Inc/sto_pll_speed_pos_fdbk.h **** 
 270:MCSDK_v6.3.2-Full/MotorControl/MCSDK/MCLib/Any/Inc/sto_pll_speed_pos_fdbk.h **** /**
 271:MCSDK_v6.3.2-Full/MotorControl/MCSDK/MCLib/Any/Inc/sto_pll_speed_pos_fdbk.h ****   * @brief  Resets the PLL integral term.
 272:MCSDK_v6.3.2-Full/MotorControl/MCSDK/MCLib/Any/Inc/sto_pll_speed_pos_fdbk.h ****   * 
 273:MCSDK_v6.3.2-Full/MotorControl/MCSDK/MCLib/Any/Inc/sto_pll_speed_pos_fdbk.h ****   * @param  pHandle: Handler of the current instance of the STO component.
 274:MCSDK_v6.3.2-Full/MotorControl/MCSDK/MCLib/Any/Inc/sto_pll_speed_pos_fdbk.h ****   */
 275:MCSDK_v6.3.2-Full/MotorControl/MCSDK/MCLib/Any/Inc/sto_pll_speed_pos_fdbk.h **** static inline void STO_ResetPLL(STO_PLL_Handle_t *pHandle)
 276:MCSDK_v6.3.2-Full/MotorControl/MCSDK/MCLib/Any/Inc/sto_pll_speed_pos_fdbk.h **** {
 277:MCSDK_v6.3.2-Full/MotorControl/MCSDK/MCLib/Any/Inc/sto_pll_speed_pos_fdbk.h **** #ifdef NULL_PTR_CHECK_STO_PLL_SPD_POS_FDB
 278:MCSDK_v6.3.2-Full/MotorControl/MCSDK/MCLib/Any/Inc/sto_pll_speed_pos_fdbk.h ****   if (MC_NULL == pHandle)
 279:MCSDK_v6.3.2-Full/MotorControl/MCSDK/MCLib/Any/Inc/sto_pll_speed_pos_fdbk.h ****   {
 280:MCSDK_v6.3.2-Full/MotorControl/MCSDK/MCLib/Any/Inc/sto_pll_speed_pos_fdbk.h ****     /* Nothing to do */
 281:MCSDK_v6.3.2-Full/MotorControl/MCSDK/MCLib/Any/Inc/sto_pll_speed_pos_fdbk.h ****   }
 282:MCSDK_v6.3.2-Full/MotorControl/MCSDK/MCLib/Any/Inc/sto_pll_speed_pos_fdbk.h ****   else
 283:MCSDK_v6.3.2-Full/MotorControl/MCSDK/MCLib/Any/Inc/sto_pll_speed_pos_fdbk.h ****   {
 284:MCSDK_v6.3.2-Full/MotorControl/MCSDK/MCLib/Any/Inc/sto_pll_speed_pos_fdbk.h **** #endif
 285:MCSDK_v6.3.2-Full/MotorControl/MCSDK/MCLib/Any/Inc/sto_pll_speed_pos_fdbk.h ****     PID_SetIntegralTerm(&pHandle->PIRegulator, (int32_t)0);
 286:MCSDK_v6.3.2-Full/MotorControl/MCSDK/MCLib/Any/Inc/sto_pll_speed_pos_fdbk.h **** #ifdef NULL_PTR_CHECK_STO_PLL_SPD_POS_FDB
 287:MCSDK_v6.3.2-Full/MotorControl/MCSDK/MCLib/Any/Inc/sto_pll_speed_pos_fdbk.h ****   }
 288:MCSDK_v6.3.2-Full/MotorControl/MCSDK/MCLib/Any/Inc/sto_pll_speed_pos_fdbk.h **** #endif
 289:MCSDK_v6.3.2-Full/MotorControl/MCSDK/MCLib/Any/Inc/sto_pll_speed_pos_fdbk.h **** }
 290:MCSDK_v6.3.2-Full/MotorControl/MCSDK/MCLib/Any/Inc/sto_pll_speed_pos_fdbk.h **** 
 291:MCSDK_v6.3.2-Full/MotorControl/MCSDK/MCLib/Any/Inc/sto_pll_speed_pos_fdbk.h **** /**
 292:MCSDK_v6.3.2-Full/MotorControl/MCSDK/MCLib/Any/Inc/sto_pll_speed_pos_fdbk.h ****   * @brief  Sends locking info for PLL.
 293:MCSDK_v6.3.2-Full/MotorControl/MCSDK/MCLib/Any/Inc/sto_pll_speed_pos_fdbk.h ****   * 
 294:MCSDK_v6.3.2-Full/MotorControl/MCSDK/MCLib/Any/Inc/sto_pll_speed_pos_fdbk.h ****   * @param  pHandle: Handler of the current instance of the STO component.
 295:MCSDK_v6.3.2-Full/MotorControl/MCSDK/MCLib/Any/Inc/sto_pll_speed_pos_fdbk.h ****   * @param  hElSpeedDpp: Estimated average electrical speed expressed in dpp.
 296:MCSDK_v6.3.2-Full/MotorControl/MCSDK/MCLib/Any/Inc/sto_pll_speed_pos_fdbk.h ****   * @param  hElAngle: Estimated electrical angle expressed in s16Degrees.
 297:MCSDK_v6.3.2-Full/MotorControl/MCSDK/MCLib/Any/Inc/sto_pll_speed_pos_fdbk.h ****   */
 298:MCSDK_v6.3.2-Full/MotorControl/MCSDK/MCLib/Any/Inc/sto_pll_speed_pos_fdbk.h **** static inline void STO_SetPLL(STO_PLL_Handle_t *pHandle, int16_t hElSpeedDpp, int16_t hElAngle)
 299:MCSDK_v6.3.2-Full/MotorControl/MCSDK/MCLib/Any/Inc/sto_pll_speed_pos_fdbk.h **** {
 300:MCSDK_v6.3.2-Full/MotorControl/MCSDK/MCLib/Any/Inc/sto_pll_speed_pos_fdbk.h **** #ifdef NULL_PTR_CHECK_STO_PLL_SPD_POS_FDB
 301:MCSDK_v6.3.2-Full/MotorControl/MCSDK/MCLib/Any/Inc/sto_pll_speed_pos_fdbk.h ****   if (MC_NULL == pHandle)
 302:MCSDK_v6.3.2-Full/MotorControl/MCSDK/MCLib/Any/Inc/sto_pll_speed_pos_fdbk.h ****   {
 303:MCSDK_v6.3.2-Full/MotorControl/MCSDK/MCLib/Any/Inc/sto_pll_speed_pos_fdbk.h ****     /* Nothing to do */
 304:MCSDK_v6.3.2-Full/MotorControl/MCSDK/MCLib/Any/Inc/sto_pll_speed_pos_fdbk.h ****   }
 305:MCSDK_v6.3.2-Full/MotorControl/MCSDK/MCLib/Any/Inc/sto_pll_speed_pos_fdbk.h ****   else
 306:MCSDK_v6.3.2-Full/MotorControl/MCSDK/MCLib/Any/Inc/sto_pll_speed_pos_fdbk.h ****   {
 307:MCSDK_v6.3.2-Full/MotorControl/MCSDK/MCLib/Any/Inc/sto_pll_speed_pos_fdbk.h **** #endif
 308:MCSDK_v6.3.2-Full/MotorControl/MCSDK/MCLib/Any/Inc/sto_pll_speed_pos_fdbk.h ****     PID_SetIntegralTerm(&pHandle->PIRegulator, ((int32_t)hElSpeedDpp)
 309:MCSDK_v6.3.2-Full/MotorControl/MCSDK/MCLib/Any/Inc/sto_pll_speed_pos_fdbk.h ****                                               * (int32_t)(PID_GetKIDivisor(&pHandle->PIRegulator)))
 310:MCSDK_v6.3.2-Full/MotorControl/MCSDK/MCLib/Any/Inc/sto_pll_speed_pos_fdbk.h ****     pHandle->_Super.hElAngle = hElAngle;
 311:MCSDK_v6.3.2-Full/MotorControl/MCSDK/MCLib/Any/Inc/sto_pll_speed_pos_fdbk.h **** #ifdef NULL_PTR_CHECK_STO_PLL_SPD_POS_FDB
 312:MCSDK_v6.3.2-Full/MotorControl/MCSDK/MCLib/Any/Inc/sto_pll_speed_pos_fdbk.h ****   }
 313:MCSDK_v6.3.2-Full/MotorControl/MCSDK/MCLib/Any/Inc/sto_pll_speed_pos_fdbk.h **** #endif
 314:MCSDK_v6.3.2-Full/MotorControl/MCSDK/MCLib/Any/Inc/sto_pll_speed_pos_fdbk.h **** }
 315:MCSDK_v6.3.2-Full/MotorControl/MCSDK/MCLib/Any/Inc/sto_pll_speed_pos_fdbk.h **** 
 316:MCSDK_v6.3.2-Full/MotorControl/MCSDK/MCLib/Any/Inc/sto_pll_speed_pos_fdbk.h **** /**
 317:MCSDK_v6.3.2-Full/MotorControl/MCSDK/MCLib/Any/Inc/sto_pll_speed_pos_fdbk.h ****   * @brief  Exports estimated Bemf squared level stored in @p pHandle.
 318:MCSDK_v6.3.2-Full/MotorControl/MCSDK/MCLib/Any/Inc/sto_pll_speed_pos_fdbk.h ****   * 
 319:MCSDK_v6.3.2-Full/MotorControl/MCSDK/MCLib/Any/Inc/sto_pll_speed_pos_fdbk.h ****   * @retval int32_t Magnitude of estimated Bemf Level squared based on speed measurement.
 320:MCSDK_v6.3.2-Full/MotorControl/MCSDK/MCLib/Any/Inc/sto_pll_speed_pos_fdbk.h ****   */
 321:MCSDK_v6.3.2-Full/MotorControl/MCSDK/MCLib/Any/Inc/sto_pll_speed_pos_fdbk.h **** static inline int32_t STO_PLL_GetEstimatedBemfLevel(STO_PLL_Handle_t *pHandle)
 322:MCSDK_v6.3.2-Full/MotorControl/MCSDK/MCLib/Any/Inc/sto_pll_speed_pos_fdbk.h **** {
 323:MCSDK_v6.3.2-Full/MotorControl/MCSDK/MCLib/Any/Inc/sto_pll_speed_pos_fdbk.h **** #ifdef NULL_PTR_CHECK_STO_PLL_SPD_POS_FDB
ARM GAS  /tmp/ccKFuU3x.s 			page 136


 324:MCSDK_v6.3.2-Full/MotorControl/MCSDK/MCLib/Any/Inc/sto_pll_speed_pos_fdbk.h ****   return ((MC_NULL == pHandle) ? 0 : pHandle->Est_Bemf_Level);
 325:MCSDK_v6.3.2-Full/MotorControl/MCSDK/MCLib/Any/Inc/sto_pll_speed_pos_fdbk.h **** #else
 326:MCSDK_v6.3.2-Full/MotorControl/MCSDK/MCLib/Any/Inc/sto_pll_speed_pos_fdbk.h ****   return (pHandle->Est_Bemf_Level);
 327:MCSDK_v6.3.2-Full/MotorControl/MCSDK/MCLib/Any/Inc/sto_pll_speed_pos_fdbk.h **** #endif
 328:MCSDK_v6.3.2-Full/MotorControl/MCSDK/MCLib/Any/Inc/sto_pll_speed_pos_fdbk.h **** }
 329:MCSDK_v6.3.2-Full/MotorControl/MCSDK/MCLib/Any/Inc/sto_pll_speed_pos_fdbk.h **** 
 330:MCSDK_v6.3.2-Full/MotorControl/MCSDK/MCLib/Any/Inc/sto_pll_speed_pos_fdbk.h **** /**
 331:MCSDK_v6.3.2-Full/MotorControl/MCSDK/MCLib/Any/Inc/sto_pll_speed_pos_fdbk.h ****   * @brief  Exports observed Bemf squared level stored in @p pHandle.
 332:MCSDK_v6.3.2-Full/MotorControl/MCSDK/MCLib/Any/Inc/sto_pll_speed_pos_fdbk.h ****   *
 333:MCSDK_v6.3.2-Full/MotorControl/MCSDK/MCLib/Any/Inc/sto_pll_speed_pos_fdbk.h ****   * @retval int32_t Magnitude of observed Bemf level squared.
 334:MCSDK_v6.3.2-Full/MotorControl/MCSDK/MCLib/Any/Inc/sto_pll_speed_pos_fdbk.h ****   */
 335:MCSDK_v6.3.2-Full/MotorControl/MCSDK/MCLib/Any/Inc/sto_pll_speed_pos_fdbk.h **** static inline int32_t STO_PLL_GetObservedBemfLevel(STO_PLL_Handle_t *pHandle)
 3798              		.loc 6 335 23 view .LVU1122
 3799              	.LBB270:
 336:MCSDK_v6.3.2-Full/MotorControl/MCSDK/MCLib/Any/Inc/sto_pll_speed_pos_fdbk.h **** {
 337:MCSDK_v6.3.2-Full/MotorControl/MCSDK/MCLib/Any/Inc/sto_pll_speed_pos_fdbk.h **** #ifdef NULL_PTR_CHECK_STO_PLL_SPD_POS_FDB
 338:MCSDK_v6.3.2-Full/MotorControl/MCSDK/MCLib/Any/Inc/sto_pll_speed_pos_fdbk.h ****   return ((MC_NULL == pHandle) ? 0 : pHandle->Obs_Bemf_Level);
 339:MCSDK_v6.3.2-Full/MotorControl/MCSDK/MCLib/Any/Inc/sto_pll_speed_pos_fdbk.h **** #else
 340:MCSDK_v6.3.2-Full/MotorControl/MCSDK/MCLib/Any/Inc/sto_pll_speed_pos_fdbk.h ****   return (pHandle->Obs_Bemf_Level);
 3800              		.loc 6 340 3 view .LVU1123
 3801              		.loc 6 340 18 is_stmt 0 view .LVU1124
 3802 067e 154B     		ldr	r3, .L321+28
 3803 0680 D3F8FC30 		ldr	r3, [r3, #252]
 3804              	.LVL486:
 3805              		.loc 6 340 18 view .LVU1125
 3806              	.LBE270:
 3807              	.LBE269:
1004:Src/register_interface.c ****               break;
 3808              		.loc 1 1004 26 view .LVU1126
 3809 0684 1360     		str	r3, [r2]
1005:Src/register_interface.c ****             }
 3810              		.loc 1 1005 15 is_stmt 1 view .LVU1127
 3811              	.LBE348:
 706:Src/register_interface.c ****     uint8_t motorID=0;
 3812              		.loc 1 706 13 is_stmt 0 view .LVU1128
 3813 0686 0020     		movs	r0, #0
 3814              	.LVL487:
 3815              	.LBB349:
1005:Src/register_interface.c ****             }
 3816              		.loc 1 1005 15 view .LVU1129
 3817 0688 54E5     		b	.L256
 3818              	.LVL488:
 3819              	.L267:
1090:Src/register_interface.c ****               break;
 3820              		.loc 1 1090 15 is_stmt 1 view .LVU1130
 3821              	.LBB271:
 3822              	.LBI271:
 406:MCSDK_v6.3.2-Full/MotorControl/MCSDK/MCLib/Any/Inc/mp_self_com_ctrl.h **** {
 3823              		.loc 2 406 23 view .LVU1131
 3824              	.LBB272:
 408:MCSDK_v6.3.2-Full/MotorControl/MCSDK/MCLib/Any/Inc/mp_self_com_ctrl.h **** }
 3825              		.loc 2 408 3 view .LVU1132
 408:MCSDK_v6.3.2-Full/MotorControl/MCSDK/MCLib/Any/Inc/mp_self_com_ctrl.h **** }
 3826              		.loc 2 408 17 is_stmt 0 view .LVU1133
 3827 068a 0B4B     		ldr	r3, .L321
 3828 068c D3F8E430 		ldr	r3, [r3, #228]
 3829              	.LVL489:
ARM GAS  /tmp/ccKFuU3x.s 			page 137


 408:MCSDK_v6.3.2-Full/MotorControl/MCSDK/MCLib/Any/Inc/mp_self_com_ctrl.h **** }
 3830              		.loc 2 408 17 view .LVU1134
 3831              	.LBE272:
 3832              	.LBE271:
1090:Src/register_interface.c ****               break;
 3833              		.loc 1 1090 26 view .LVU1135
 3834 0690 1360     		str	r3, [r2]
1091:Src/register_interface.c ****             }
 3835              		.loc 1 1091 15 is_stmt 1 view .LVU1136
 3836              	.LBE349:
 706:Src/register_interface.c ****     uint8_t motorID=0;
 3837              		.loc 1 706 13 is_stmt 0 view .LVU1137
 3838 0692 0020     		movs	r0, #0
 3839              	.LVL490:
 3840              	.LBB350:
1091:Src/register_interface.c ****             }
 3841              		.loc 1 1091 15 view .LVU1138
 3842 0694 4EE5     		b	.L256
 3843              	.LVL491:
 3844              	.L265:
 3845              	.LBB273:
1112:Src/register_interface.c ****               ReadVal.Float_Val = OTT_GetF(&OTT);
 3846              		.loc 1 1112 15 is_stmt 1 view .LVU1139
1113:Src/register_interface.c ****               *regdataU32 = ReadVal.U32_Val;
 3847              		.loc 1 1113 15 view .LVU1140
 3848              	.LBB236:
 3849              	.LBI232:
 326:MCSDK_v6.3.2-Full/MotorControl/MCSDK/MCLib/Any/Inc/mp_one_touch_tuning.h **** {
 3850              		.loc 3 326 21 view .LVU1141
 3851              	.LBB234:
 328:MCSDK_v6.3.2-Full/MotorControl/MCSDK/MCLib/Any/Inc/mp_one_touch_tuning.h ****   return (pHandle->fF * fFact * pHandle->fKe) / (pHandle->pOTT_Params_str->fRshunt 
 3852              		.loc 3 328 3 view .LVU1142
 329:MCSDK_v6.3.2-Full/MotorControl/MCSDK/MCLib/Any/Inc/mp_one_touch_tuning.h ****                                                 * pHandle->pOTT_Params_str->fAmplificationGain);
 3853              		.loc 3 329 3 view .LVU1143
 329:MCSDK_v6.3.2-Full/MotorControl/MCSDK/MCLib/Any/Inc/mp_one_touch_tuning.h ****                                                 * pHandle->pOTT_Params_str->fAmplificationGain);
 3854              		.loc 3 329 57 is_stmt 0 view .LVU1144
 3855 0696 0C4B     		ldr	r3, .L321+16
 329:MCSDK_v6.3.2-Full/MotorControl/MCSDK/MCLib/Any/Inc/mp_one_touch_tuning.h ****                                                 * pHandle->pOTT_Params_str->fAmplificationGain);
 3856              		.loc 3 329 23 view .LVU1145
 3857 0698 DFED145A 		vldr.32	s11, .L321+52
 329:MCSDK_v6.3.2-Full/MotorControl/MCSDK/MCLib/Any/Inc/mp_one_touch_tuning.h ****                                                 * pHandle->pOTT_Params_str->fAmplificationGain);
 3858              		.loc 3 329 57 view .LVU1146
 3859 069c D3F89C20 		ldr	r2, [r3, #156]
 3860              	.LVL492:
 329:MCSDK_v6.3.2-Full/MotorControl/MCSDK/MCLib/Any/Inc/mp_one_touch_tuning.h ****                                                 * pHandle->pOTT_Params_str->fAmplificationGain);
 3861              		.loc 3 329 57 view .LVU1147
 3862              	.LBE234:
 3863              	.LBE236:
1114:Src/register_interface.c ****               break;
 3864              		.loc 1 1114 15 is_stmt 1 view .LVU1148
 3865              	.LBB237:
 3866              	.LBB235:
 329:MCSDK_v6.3.2-Full/MotorControl/MCSDK/MCLib/Any/Inc/mp_one_touch_tuning.h ****                                                 * pHandle->pOTT_Params_str->fAmplificationGain);
 3867              		.loc 3 329 23 is_stmt 0 view .LVU1149
 3868 06a0 D3ED087A 		vldr.32	s15, [r3, #32]
 3869 06a4 67E6     		b	.L299
 3870              	.LVL493:
ARM GAS  /tmp/ccKFuU3x.s 			page 138


 3871              	.L259:
 329:MCSDK_v6.3.2-Full/MotorControl/MCSDK/MCLib/Any/Inc/mp_one_touch_tuning.h ****                                                 * pHandle->pOTT_Params_str->fAmplificationGain);
 3872              		.loc 3 329 23 view .LVU1150
 3873              	.LBE235:
 3874              	.LBE237:
 3875              	.LBE273:
1042:Src/register_interface.c ****               break;
 3876              		.loc 1 1042 15 is_stmt 1 view .LVU1151
 3877              	.LBB274:
 3878              	.LBI274:
 325:MCSDK_v6.3.2-Full/MotorControl/MCSDK/MCLib/Any/Inc/mp_self_com_ctrl.h **** {
 3879              		.loc 2 325 24 view .LVU1152
 3880              	.LBB275:
 327:MCSDK_v6.3.2-Full/MotorControl/MCSDK/MCLib/Any/Inc/mp_self_com_ctrl.h **** }
 3881              		.loc 2 327 3 view .LVU1153
 327:MCSDK_v6.3.2-Full/MotorControl/MCSDK/MCLib/Any/Inc/mp_self_com_ctrl.h **** }
 3882              		.loc 2 327 10 is_stmt 0 view .LVU1154
 3883 06a6 044B     		ldr	r3, .L321
 3884 06a8 93ED1A0A 		vldr.32	s0, [r3, #104]
 3885 06ac FFF7FEFF 		bl	MCM_floatToIntBit
 3886              	.LVL494:
 327:MCSDK_v6.3.2-Full/MotorControl/MCSDK/MCLib/Any/Inc/mp_self_com_ctrl.h **** }
 3887              		.loc 2 327 10 view .LVU1155
 3888              	.LBE275:
 3889              	.LBE274:
1042:Src/register_interface.c ****               break;
 3890              		.loc 1 1042 27 view .LVU1156
 3891 06b0 2060     		str	r0, [r4]
1043:Src/register_interface.c ****             }
 3892              		.loc 1 1043 15 is_stmt 1 view .LVU1157
 3893              	.LBE350:
 706:Src/register_interface.c ****     uint8_t motorID=0;
 3894              		.loc 1 706 13 is_stmt 0 view .LVU1158
 3895 06b2 0020     		movs	r0, #0
 3896              	.LBB351:
1043:Src/register_interface.c ****             }
 3897              		.loc 1 1043 15 view .LVU1159
 3898 06b4 3EE5     		b	.L256
 3899              	.L322:
 3900 06b6 00BF     		.align	2
 3901              	.L321:
 3902 06b8 00000000 		.word	SCC
 3903 06bc 00000000 		.word	FOCConfig_reg
 3904 06c0 00000000 		.word	scaleParams_M1
 3905 06c4 00000000 		.word	RevUpControlM1
 3906 06c8 00000000 		.word	OTT
 3907 06cc 00000000 		.word	Mci
 3908 06d0 00000000 		.word	ApplicationConfig_reg
 3909 06d4 00000000 		.word	STO_PLL_M1
 3910 06d8 00000000 		.word	PIDSpeedHandle_M1
 3911 06dc 34000000 		.word	STO_PLL_M1+52
 3912 06e0 00000000 		.word	FF_M1
 3913 06e4 00000000 		.word	BusVoltageSensor_M1
 3914 06e8 00000000 		.word	pMPM
 3915 06ec CB151E35 		.word	891164107
 3916              	.LVL495:
 3917              	.L253:
ARM GAS  /tmp/ccKFuU3x.s 			page 139


 986:Src/register_interface.c ****               break;
 3918              		.loc 1 986 15 is_stmt 1 view .LVU1160
 986:Src/register_interface.c ****               break;
 3919              		.loc 1 986 39 is_stmt 0 view .LVU1161
 3920 06f0 0E48     		ldr	r0, .L323
 3921              	.LVL496:
 986:Src/register_interface.c ****               break;
 3922              		.loc 1 986 39 view .LVU1162
 3923 06f2 FFF7FEFF 		bl	MCI_GetAvrgMecSpeedUnit
 3924              	.LVL497:
 986:Src/register_interface.c ****               break;
 3925              		.loc 1 986 79 view .LVU1163
 3926 06f6 00EB4000 		add	r0, r0, r0, lsl #1
 3927 06fa 4000     		lsls	r0, r0, #1
 986:Src/register_interface.c ****               break;
 3928              		.loc 1 986 26 view .LVU1164
 3929 06fc 2060     		str	r0, [r4]
 987:Src/register_interface.c ****             }
 3930              		.loc 1 987 15 is_stmt 1 view .LVU1165
 3931              	.LBE351:
 706:Src/register_interface.c ****     uint8_t motorID=0;
 3932              		.loc 1 706 13 is_stmt 0 view .LVU1166
 3933 06fe 0020     		movs	r0, #0
 3934              	.LBB352:
 987:Src/register_interface.c ****             }
 3935              		.loc 1 987 15 view .LVU1167
 3936 0700 18E5     		b	.L256
 3937              	.LVL498:
 3938              	.L251:
 998:Src/register_interface.c ****               break;
 3939              		.loc 1 998 15 is_stmt 1 view .LVU1168
 3940              	.LBB276:
 3941              	.LBI276:
 321:MCSDK_v6.3.2-Full/MotorControl/MCSDK/MCLib/Any/Inc/sto_pll_speed_pos_fdbk.h **** {
 3942              		.loc 6 321 23 view .LVU1169
 3943              	.LBB277:
 326:MCSDK_v6.3.2-Full/MotorControl/MCSDK/MCLib/Any/Inc/sto_pll_speed_pos_fdbk.h **** #endif
 3944              		.loc 6 326 3 view .LVU1170
 326:MCSDK_v6.3.2-Full/MotorControl/MCSDK/MCLib/Any/Inc/sto_pll_speed_pos_fdbk.h **** #endif
 3945              		.loc 6 326 18 is_stmt 0 view .LVU1171
 3946 0702 0B4B     		ldr	r3, .L323+4
 3947 0704 D3F80031 		ldr	r3, [r3, #256]
 3948              	.LVL499:
 326:MCSDK_v6.3.2-Full/MotorControl/MCSDK/MCLib/Any/Inc/sto_pll_speed_pos_fdbk.h **** #endif
 3949              		.loc 6 326 18 view .LVU1172
 3950              	.LBE277:
 3951              	.LBE276:
 998:Src/register_interface.c ****               break;
 3952              		.loc 1 998 26 view .LVU1173
 3953 0708 1360     		str	r3, [r2]
 999:Src/register_interface.c ****             }
 3954              		.loc 1 999 15 is_stmt 1 view .LVU1174
 3955              	.LBE352:
 706:Src/register_interface.c ****     uint8_t motorID=0;
 3956              		.loc 1 706 13 is_stmt 0 view .LVU1175
 3957 070a 0020     		movs	r0, #0
 3958              	.LVL500:
ARM GAS  /tmp/ccKFuU3x.s 			page 140


 3959              	.LBB353:
 999:Src/register_interface.c ****             }
 3960              		.loc 1 999 15 view .LVU1176
 3961 070c 12E5     		b	.L256
 3962              	.LVL501:
 3963              	.L249:
1016:Src/register_interface.c ****               break;
 3964              		.loc 1 1016 15 is_stmt 1 view .LVU1177
1016:Src/register_interface.c ****               break;
 3965              		.loc 1 1016 33 is_stmt 0 view .LVU1178
 3966 070e 094B     		ldr	r3, .L323+8
 3967 0710 DB68     		ldr	r3, [r3, #12]
1016:Src/register_interface.c ****               break;
 3968              		.loc 1 1016 26 view .LVU1179
 3969 0712 1360     		str	r3, [r2]
1017:Src/register_interface.c ****             }
 3970              		.loc 1 1017 15 is_stmt 1 view .LVU1180
 3971              	.LBE353:
 706:Src/register_interface.c ****     uint8_t motorID=0;
 3972              		.loc 1 706 13 is_stmt 0 view .LVU1181
 3973 0714 0020     		movs	r0, #0
 3974              	.LVL502:
 3975              	.LBB354:
1017:Src/register_interface.c ****             }
 3976              		.loc 1 1017 15 view .LVU1182
 3977 0716 0DE5     		b	.L256
 3978              	.LVL503:
 3979              	.L247:
1060:Src/register_interface.c ****               break;
 3980              		.loc 1 1060 15 is_stmt 1 view .LVU1183
 3981              	.LBB278:
 3982              	.LBI278:
 223:MCSDK_v6.3.2-Full/MotorControl/MCSDK/MCLib/Any/Inc/mp_one_touch_tuning.h **** {
 3983              		.loc 3 223 24 view .LVU1184
 3984              	.LBB279:
 225:MCSDK_v6.3.2-Full/MotorControl/MCSDK/MCLib/Any/Inc/mp_one_touch_tuning.h **** }
 3985              		.loc 3 225 3 view .LVU1185
 225:MCSDK_v6.3.2-Full/MotorControl/MCSDK/MCLib/Any/Inc/mp_one_touch_tuning.h **** }
 3986              		.loc 3 225 10 is_stmt 0 view .LVU1186
 3987 0718 074B     		ldr	r3, .L323+12
 3988 071a 93ED140A 		vldr.32	s0, [r3, #80]
 3989 071e FFF7FEFF 		bl	MCM_floatToIntBit
 3990              	.LVL504:
 225:MCSDK_v6.3.2-Full/MotorControl/MCSDK/MCLib/Any/Inc/mp_one_touch_tuning.h **** }
 3991              		.loc 3 225 10 view .LVU1187
 3992              	.LBE279:
 3993              	.LBE278:
1060:Src/register_interface.c ****               break;
 3994              		.loc 1 1060 27 view .LVU1188
 3995 0722 2060     		str	r0, [r4]
1061:Src/register_interface.c ****             }
 3996              		.loc 1 1061 15 is_stmt 1 view .LVU1189
 3997              	.LBE354:
 706:Src/register_interface.c ****     uint8_t motorID=0;
 3998              		.loc 1 706 13 is_stmt 0 view .LVU1190
 3999 0724 0020     		movs	r0, #0
 4000              	.LBB355:
ARM GAS  /tmp/ccKFuU3x.s 			page 141


1061:Src/register_interface.c ****             }
 4001              		.loc 1 1061 15 view .LVU1191
 4002 0726 05E5     		b	.L256
 4003              	.LVL505:
 4004              	.L300:
1061:Src/register_interface.c ****             }
 4005              		.loc 1 1061 15 view .LVU1192
 4006 0728 0520     		movs	r0, #5
 4007              	.LVL506:
1061:Src/register_interface.c ****             }
 4008              		.loc 1 1061 15 view .LVU1193
 4009 072a 03E5     		b	.L256
 4010              	.L324:
 4011              		.align	2
 4012              	.L323:
 4013 072c 00000000 		.word	Mci
 4014 0730 00000000 		.word	STO_PLL_M1
 4015 0734 00000000 		.word	FF_M1
 4016 0738 00000000 		.word	OTT
 4017              	.LBE355:
 4018              		.cfi_endproc
 4019              	.LFE1716:
 4021              		.section	.text.RI_GetIDSize,"ax",%progbits
 4022              		.align	1
 4023              		.p2align 2,,3
 4024              		.global	RI_GetIDSize
 4025              		.syntax unified
 4026              		.thumb
 4027              		.thumb_func
 4028              		.fpu fpv4-sp-d16
 4030              	RI_GetIDSize:
 4031              	.LVL507:
 4032              	.LFB1717:
1261:Src/register_interface.c **** 
1262:Src/register_interface.c **** uint8_t RI_GetIDSize(uint16_t dataID)
1263:Src/register_interface.c **** {
 4033              		.loc 1 1263 1 is_stmt 1 view -0
 4034              		.cfi_startproc
 4035              		@ args = 0, pretend = 0, frame = 0
 4036              		@ frame_needed = 0, uses_anonymous_args = 0
 4037              		@ link register save eliminated.
1264:Src/register_interface.c ****   uint8_t typeID = ((uint8_t)dataID) & TYPE_MASK;
 4038              		.loc 1 1264 3 view .LVU1195
1265:Src/register_interface.c ****   uint8_t result;
 4039              		.loc 1 1265 3 view .LVU1196
1266:Src/register_interface.c **** 
1267:Src/register_interface.c ****   switch (typeID)
 4040              		.loc 1 1267 3 view .LVU1197
1264:Src/register_interface.c ****   uint8_t result;
 4041              		.loc 1 1264 11 is_stmt 0 view .LVU1198
 4042 0000 00F03800 		and	r0, r0, #56
 4043              	.LVL508:
1264:Src/register_interface.c ****   uint8_t result;
 4044              		.loc 1 1264 11 view .LVU1199
 4045 0004 0838     		subs	r0, r0, #8
 4046 0006 C0B2     		uxtb	r0, r0
 4047 0008 1028     		cmp	r0, #16
ARM GAS  /tmp/ccKFuU3x.s 			page 142


 4048 000a 9ABF     		itte	ls
 4049 000c 014B     		ldrls	r3, .L328
 4050 000e 185C     		ldrbls	r0, [r3, r0]	@ zero_extendqisi2
 4051 0010 0020     		movhi	r0, #0
 4052              	.LVL509:
1268:Src/register_interface.c ****   {
1269:Src/register_interface.c ****     case TYPE_DATA_8BIT:
1270:Src/register_interface.c ****     {
1271:Src/register_interface.c ****       result = 1;
1272:Src/register_interface.c ****       break;
1273:Src/register_interface.c ****     }
1274:Src/register_interface.c **** 
1275:Src/register_interface.c ****     case TYPE_DATA_16BIT:
1276:Src/register_interface.c ****     {
1277:Src/register_interface.c ****       result = 2;
1278:Src/register_interface.c ****       break;
1279:Src/register_interface.c ****     }
1280:Src/register_interface.c **** 
1281:Src/register_interface.c ****     case TYPE_DATA_32BIT:
1282:Src/register_interface.c ****     {
1283:Src/register_interface.c ****       result = 4;
1284:Src/register_interface.c ****       break;
1285:Src/register_interface.c ****     }
1286:Src/register_interface.c **** 
1287:Src/register_interface.c ****     default:
1288:Src/register_interface.c ****     {
1289:Src/register_interface.c ****       result=0;
1290:Src/register_interface.c ****       break;
1291:Src/register_interface.c ****     }
1292:Src/register_interface.c ****   }
1293:Src/register_interface.c **** 
1294:Src/register_interface.c ****   return (result);
 4053              		.loc 1 1294 3 is_stmt 1 view .LVU1200
1295:Src/register_interface.c **** }
 4054              		.loc 1 1295 1 is_stmt 0 view .LVU1201
 4055 0012 7047     		bx	lr
 4056              	.L329:
 4057              		.align	2
 4058              	.L328:
 4059 0014 00000000 		.word	.LANCHOR0
 4060              		.cfi_endproc
 4061              	.LFE1717:
 4063              		.section	.text.RI_GetPtrReg,"ax",%progbits
 4064              		.align	1
 4065              		.p2align 2,,3
 4066              		.weak	RI_GetPtrReg
 4067              		.syntax unified
 4068              		.thumb
 4069              		.thumb_func
 4070              		.fpu fpv4-sp-d16
 4072              	RI_GetPtrReg:
 4073              	.LVL510:
 4074              	.LFB1718:
1296:Src/register_interface.c **** 
1297:Src/register_interface.c **** __weak uint8_t RI_GetPtrReg(uint16_t dataID, void **dataPtr)
1298:Src/register_interface.c **** {
 4075              		.loc 1 1298 1 is_stmt 1 view -0
ARM GAS  /tmp/ccKFuU3x.s 			page 143


 4076              		.cfi_startproc
 4077              		@ args = 0, pretend = 0, frame = 0
 4078              		@ frame_needed = 0, uses_anonymous_args = 0
 4079              		@ link register save eliminated.
1299:Src/register_interface.c **** 
1300:Src/register_interface.c ****   uint8_t retVal = MCP_CMD_OK;
 4080              		.loc 1 1300 3 view .LVU1203
1301:Src/register_interface.c ****   static uint16_t nullData16=0;
 4081              		.loc 1 1301 3 view .LVU1204
1302:Src/register_interface.c **** 
1303:Src/register_interface.c **** #ifdef NULL_PTR_CHECK_REG_INT
1304:Src/register_interface.c ****   if (MC_NULL == dataPtr)
1305:Src/register_interface.c ****   {
1306:Src/register_interface.c ****     retVal = MCP_CMD_NOK;
1307:Src/register_interface.c ****   }
1308:Src/register_interface.c ****   else
1309:Src/register_interface.c ****   {
1310:Src/register_interface.c **** #endif
1311:Src/register_interface.c **** 
1312:Src/register_interface.c ****     MCI_Handle_t *pMCIN = &Mci[0];
 4082              		.loc 1 1312 5 view .LVU1205
1313:Src/register_interface.c ****     uint16_t regID = dataID & REG_MASK;
 4083              		.loc 1 1313 5 view .LVU1206
1314:Src/register_interface.c ****     uint8_t typeID = ((uint8_t)dataID) & TYPE_MASK;
 4084              		.loc 1 1314 5 view .LVU1207
1315:Src/register_interface.c **** 
1316:Src/register_interface.c ****     switch (typeID)
 4085              		.loc 1 1316 5 view .LVU1208
 4086 0000 00F03803 		and	r3, r0, #56
 4087 0004 102B     		cmp	r3, #16
 4088 0006 03D0     		beq	.L343
 4089              	.LVL511:
 4090              	.L331:
1317:Src/register_interface.c ****     {
1318:Src/register_interface.c ****       case TYPE_DATA_16BIT:
1319:Src/register_interface.c ****       {
1320:Src/register_interface.c ****         switch (regID)
1321:Src/register_interface.c ****         {
1322:Src/register_interface.c **** 
1323:Src/register_interface.c ****           case MC_REG_V_Q:
1324:Src/register_interface.c ****           {
1325:Src/register_interface.c ****             *dataPtr = &(pMCIN->pFOCVars->Vqd.q);
1326:Src/register_interface.c ****             break;
1327:Src/register_interface.c ****           }
1328:Src/register_interface.c **** 
1329:Src/register_interface.c ****           case MC_REG_V_D:
1330:Src/register_interface.c ****           {
1331:Src/register_interface.c ****             *dataPtr = &(pMCIN->pFOCVars->Vqd.d);
1332:Src/register_interface.c ****             break;
1333:Src/register_interface.c ****           }
1334:Src/register_interface.c **** 
1335:Src/register_interface.c ****           case MC_REG_V_ALPHA:
1336:Src/register_interface.c ****           {
1337:Src/register_interface.c ****             *dataPtr = &(pMCIN->pFOCVars->Valphabeta.alpha);
1338:Src/register_interface.c ****             break;
1339:Src/register_interface.c ****           }
1340:Src/register_interface.c **** 
ARM GAS  /tmp/ccKFuU3x.s 			page 144


1341:Src/register_interface.c ****           case MC_REG_V_BETA:
1342:Src/register_interface.c ****           {
1343:Src/register_interface.c ****             *dataPtr = &(pMCIN->pFOCVars->Valphabeta.beta);
1344:Src/register_interface.c ****             break;
1345:Src/register_interface.c ****           }
1346:Src/register_interface.c **** 
1347:Src/register_interface.c ****           case MC_REG_STOPLL_ROT_SPEED:
1348:Src/register_interface.c ****           {
1349:Src/register_interface.c ****             *dataPtr = &((&STO_PLL_M1)->_Super.hAvrMecSpeedUnit);
1350:Src/register_interface.c ****             break;
1351:Src/register_interface.c ****           }
1352:Src/register_interface.c **** 
1353:Src/register_interface.c ****           case MC_REG_STOPLL_EL_ANGLE:
1354:Src/register_interface.c ****           {
1355:Src/register_interface.c ****             *dataPtr = &((&STO_PLL_M1)->_Super.hElAngle);
1356:Src/register_interface.c ****             break;
1357:Src/register_interface.c ****           }
1358:Src/register_interface.c **** 
1359:Src/register_interface.c **** #ifdef NOT_IMPLEMENTED /* Not yet implemented */
1360:Src/register_interface.c ****           case MC_REG_STOPLL_I_ALPHA:
1361:Src/register_interface.c ****           case MC_REG_STOPLL_I_BETA:
1362:Src/register_interface.c ****             break;
1363:Src/register_interface.c **** #endif
1364:Src/register_interface.c **** 
1365:Src/register_interface.c ****           case MC_REG_STOPLL_BEMF_ALPHA:
1366:Src/register_interface.c ****           {
1367:Src/register_interface.c ****             *dataPtr = &((&STO_PLL_M1)->hBemf_alfa_est);
1368:Src/register_interface.c ****             break;
1369:Src/register_interface.c ****           }
1370:Src/register_interface.c **** 
1371:Src/register_interface.c ****           case MC_REG_STOPLL_BEMF_BETA:
1372:Src/register_interface.c ****           {
1373:Src/register_interface.c ****             *dataPtr = &((&STO_PLL_M1)->hBemf_beta_est);
1374:Src/register_interface.c ****             break;
1375:Src/register_interface.c ****           }
1376:Src/register_interface.c **** 
1377:Src/register_interface.c ****           default:
1378:Src/register_interface.c ****           {
1379:Src/register_interface.c ****             *dataPtr = &nullData16;
 4091              		.loc 1 1379 13 view .LVU1209
 4092              		.loc 1 1379 22 is_stmt 0 view .LVU1210
 4093 0008 244B     		ldr	r3, .L345
 4094 000a 0B60     		str	r3, [r1]
1380:Src/register_interface.c ****             retVal = MCP_ERROR_UNKNOWN_REG;
 4095              		.loc 1 1380 13 is_stmt 1 view .LVU1211
 4096              	.LVL512:
1381:Src/register_interface.c ****             break;
 4097              		.loc 1 1381 13 view .LVU1212
1380:Src/register_interface.c ****             retVal = MCP_ERROR_UNKNOWN_REG;
 4098              		.loc 1 1380 20 is_stmt 0 view .LVU1213
 4099 000c 0520     		movs	r0, #5
 4100              	.LVL513:
1382:Src/register_interface.c ****           }
1383:Src/register_interface.c ****         }
1384:Src/register_interface.c ****         break;
1385:Src/register_interface.c ****       }
1386:Src/register_interface.c **** 
ARM GAS  /tmp/ccKFuU3x.s 			page 145


1387:Src/register_interface.c ****       default:
1388:Src/register_interface.c ****       {
1389:Src/register_interface.c ****         *dataPtr = &nullData16;
1390:Src/register_interface.c ****         retVal = MCP_ERROR_UNKNOWN_REG;
1391:Src/register_interface.c ****         break;
1392:Src/register_interface.c ****       }
1393:Src/register_interface.c ****     }
1394:Src/register_interface.c **** #ifdef NULL_PTR_CHECK_REG_INT
1395:Src/register_interface.c ****   }
1396:Src/register_interface.c **** #endif
1397:Src/register_interface.c ****   return (retVal);
 4101              		.loc 1 1397 3 is_stmt 1 view .LVU1214
1398:Src/register_interface.c **** }
 4102              		.loc 1 1398 1 is_stmt 0 view .LVU1215
 4103 000e 7047     		bx	lr
 4104              	.LVL514:
 4105              	.L343:
1320:Src/register_interface.c ****         {
 4106              		.loc 1 1320 9 is_stmt 1 view .LVU1216
1313:Src/register_interface.c ****     uint8_t typeID = ((uint8_t)dataID) & TYPE_MASK;
 4107              		.loc 1 1313 14 is_stmt 0 view .LVU1217
 4108 0010 20F00700 		bic	r0, r0, #7
 4109              	.LVL515:
1313:Src/register_interface.c ****     uint8_t typeID = ((uint8_t)dataID) & TYPE_MASK;
 4110              		.loc 1 1313 14 view .LVU1218
 4111 0014 B0F5356F 		cmp	r0, #2896
 4112 0018 83B2     		uxth	r3, r0
 4113 001a 2AD0     		beq	.L332
 4114 001c 0FD8     		bhi	.L333
 4115 001e B3F5256F 		cmp	r3, #2640
 4116 0022 34D0     		beq	.L334
 4117 0024 15D8     		bhi	.L335
 4118 0026 B3F51D6F 		cmp	r3, #2512
 4119 002a 26D0     		beq	.L336
 4120 002c B3F5216F 		cmp	r3, #2576
 4121 0030 EAD1     		bne	.L331
1331:Src/register_interface.c ****             break;
 4122              		.loc 1 1331 13 is_stmt 1 view .LVU1219
1331:Src/register_interface.c ****             break;
 4123              		.loc 1 1331 31 is_stmt 0 view .LVU1220
 4124 0032 1B4B     		ldr	r3, .L345+4
1331:Src/register_interface.c ****             break;
 4125              		.loc 1 1331 24 view .LVU1221
 4126 0034 5B68     		ldr	r3, [r3, #4]
 4127 0036 1833     		adds	r3, r3, #24
1300:Src/register_interface.c ****   static uint16_t nullData16=0;
 4128              		.loc 1 1300 11 view .LVU1222
 4129 0038 0020     		movs	r0, #0
1331:Src/register_interface.c ****             break;
 4130              		.loc 1 1331 22 view .LVU1223
 4131 003a 0B60     		str	r3, [r1]
1332:Src/register_interface.c ****           }
 4132              		.loc 1 1332 13 is_stmt 1 view .LVU1224
 4133 003c 7047     		bx	lr
 4134              	.L333:
1332:Src/register_interface.c ****           }
 4135              		.loc 1 1332 13 is_stmt 0 view .LVU1225
ARM GAS  /tmp/ccKFuU3x.s 			page 146


 4136 003e B3F5456F 		cmp	r3, #3152
 4137 0042 20D0     		beq	.L339
 4138 0044 B3F5496F 		cmp	r3, #3216
 4139 0048 0CD1     		bne	.L344
1373:Src/register_interface.c ****             break;
 4140              		.loc 1 1373 13 is_stmt 1 view .LVU1226
1373:Src/register_interface.c ****             break;
 4141              		.loc 1 1373 22 is_stmt 0 view .LVU1227
 4142 004a 164B     		ldr	r3, .L345+8
 4143 004c 0B60     		str	r3, [r1]
1374:Src/register_interface.c ****           }
 4144              		.loc 1 1374 13 is_stmt 1 view .LVU1228
1300:Src/register_interface.c ****   static uint16_t nullData16=0;
 4145              		.loc 1 1300 11 is_stmt 0 view .LVU1229
 4146 004e 0020     		movs	r0, #0
1374:Src/register_interface.c ****           }
 4147              		.loc 1 1374 13 view .LVU1230
 4148 0050 7047     		bx	lr
 4149              	.L335:
1374:Src/register_interface.c ****           }
 4150              		.loc 1 1374 13 view .LVU1231
 4151 0052 B3F5296F 		cmp	r3, #2704
 4152 0056 D7D1     		bne	.L331
1343:Src/register_interface.c ****             break;
 4153              		.loc 1 1343 13 is_stmt 1 view .LVU1232
1343:Src/register_interface.c ****             break;
 4154              		.loc 1 1343 31 is_stmt 0 view .LVU1233
 4155 0058 114B     		ldr	r3, .L345+4
1343:Src/register_interface.c ****             break;
 4156              		.loc 1 1343 24 view .LVU1234
 4157 005a 5B68     		ldr	r3, [r3, #4]
 4158 005c 1C33     		adds	r3, r3, #28
1300:Src/register_interface.c ****   static uint16_t nullData16=0;
 4159              		.loc 1 1300 11 view .LVU1235
 4160 005e 0020     		movs	r0, #0
1343:Src/register_interface.c ****             break;
 4161              		.loc 1 1343 22 view .LVU1236
 4162 0060 0B60     		str	r3, [r1]
1344:Src/register_interface.c ****           }
 4163              		.loc 1 1344 13 is_stmt 1 view .LVU1237
 4164 0062 7047     		bx	lr
 4165              	.L344:
1344:Src/register_interface.c ****           }
 4166              		.loc 1 1344 13 is_stmt 0 view .LVU1238
 4167 0064 B3F5396F 		cmp	r3, #2960
 4168 0068 CED1     		bne	.L331
1349:Src/register_interface.c ****             break;
 4169              		.loc 1 1349 13 is_stmt 1 view .LVU1239
1349:Src/register_interface.c ****             break;
 4170              		.loc 1 1349 22 is_stmt 0 view .LVU1240
 4171 006a 0F4B     		ldr	r3, .L345+12
 4172 006c 0B60     		str	r3, [r1]
1350:Src/register_interface.c ****           }
 4173              		.loc 1 1350 13 is_stmt 1 view .LVU1241
1300:Src/register_interface.c ****   static uint16_t nullData16=0;
 4174              		.loc 1 1300 11 is_stmt 0 view .LVU1242
 4175 006e 0020     		movs	r0, #0
ARM GAS  /tmp/ccKFuU3x.s 			page 147


1350:Src/register_interface.c ****           }
 4176              		.loc 1 1350 13 view .LVU1243
 4177 0070 7047     		bx	lr
 4178              	.L332:
1355:Src/register_interface.c ****             break;
 4179              		.loc 1 1355 13 is_stmt 1 view .LVU1244
1355:Src/register_interface.c ****             break;
 4180              		.loc 1 1355 22 is_stmt 0 view .LVU1245
 4181 0072 0E4B     		ldr	r3, .L345+16
 4182 0074 0B60     		str	r3, [r1]
1356:Src/register_interface.c ****           }
 4183              		.loc 1 1356 13 is_stmt 1 view .LVU1246
1300:Src/register_interface.c ****   static uint16_t nullData16=0;
 4184              		.loc 1 1300 11 is_stmt 0 view .LVU1247
 4185 0076 0020     		movs	r0, #0
1356:Src/register_interface.c ****           }
 4186              		.loc 1 1356 13 view .LVU1248
 4187 0078 7047     		bx	lr
 4188              	.L336:
1325:Src/register_interface.c ****             break;
 4189              		.loc 1 1325 13 is_stmt 1 view .LVU1249
1325:Src/register_interface.c ****             break;
 4190              		.loc 1 1325 31 is_stmt 0 view .LVU1250
 4191 007a 094B     		ldr	r3, .L345+4
1325:Src/register_interface.c ****             break;
 4192              		.loc 1 1325 24 view .LVU1251
 4193 007c 5B68     		ldr	r3, [r3, #4]
 4194 007e 1633     		adds	r3, r3, #22
1300:Src/register_interface.c ****   static uint16_t nullData16=0;
 4195              		.loc 1 1300 11 view .LVU1252
 4196 0080 0020     		movs	r0, #0
1325:Src/register_interface.c ****             break;
 4197              		.loc 1 1325 22 view .LVU1253
 4198 0082 0B60     		str	r3, [r1]
1326:Src/register_interface.c ****           }
 4199              		.loc 1 1326 13 is_stmt 1 view .LVU1254
 4200 0084 7047     		bx	lr
 4201              	.L339:
1367:Src/register_interface.c ****             break;
 4202              		.loc 1 1367 13 view .LVU1255
1367:Src/register_interface.c ****             break;
 4203              		.loc 1 1367 22 is_stmt 0 view .LVU1256
 4204 0086 0A4B     		ldr	r3, .L345+20
 4205 0088 0B60     		str	r3, [r1]
1368:Src/register_interface.c ****           }
 4206              		.loc 1 1368 13 is_stmt 1 view .LVU1257
1300:Src/register_interface.c ****   static uint16_t nullData16=0;
 4207              		.loc 1 1300 11 is_stmt 0 view .LVU1258
 4208 008a 0020     		movs	r0, #0
1368:Src/register_interface.c ****           }
 4209              		.loc 1 1368 13 view .LVU1259
 4210 008c 7047     		bx	lr
 4211              	.L334:
1337:Src/register_interface.c ****             break;
 4212              		.loc 1 1337 13 is_stmt 1 view .LVU1260
1337:Src/register_interface.c ****             break;
 4213              		.loc 1 1337 31 is_stmt 0 view .LVU1261
ARM GAS  /tmp/ccKFuU3x.s 			page 148


 4214 008e 044B     		ldr	r3, .L345+4
1337:Src/register_interface.c ****             break;
 4215              		.loc 1 1337 24 view .LVU1262
 4216 0090 5B68     		ldr	r3, [r3, #4]
 4217 0092 1A33     		adds	r3, r3, #26
1300:Src/register_interface.c ****   static uint16_t nullData16=0;
 4218              		.loc 1 1300 11 view .LVU1263
 4219 0094 0020     		movs	r0, #0
1337:Src/register_interface.c ****             break;
 4220              		.loc 1 1337 22 view .LVU1264
 4221 0096 0B60     		str	r3, [r1]
1338:Src/register_interface.c ****           }
 4222              		.loc 1 1338 13 is_stmt 1 view .LVU1265
 4223 0098 7047     		bx	lr
 4224              	.L346:
 4225 009a 00BF     		.align	2
 4226              	.L345:
 4227 009c 00000000 		.word	.LANCHOR1
 4228 00a0 00000000 		.word	Mci
 4229 00a4 72000000 		.word	STO_PLL_M1+114
 4230 00a8 0C000000 		.word	STO_PLL_M1+12
 4231 00ac 04000000 		.word	STO_PLL_M1+4
 4232 00b0 70000000 		.word	STO_PLL_M1+112
 4233              		.cfi_endproc
 4234              	.LFE1718:
 4236              		.section	.bss.nullData16.0,"aw",%nobits
 4237              		.align	1
 4238              		.set	.LANCHOR1,. + 0
 4241              	nullData16.0:
 4242 0000 0000     		.space	2
 4243              		.section	.rodata.CSWTCH.72,"a"
 4244              		.align	2
 4245              		.set	.LANCHOR0,. + 0
 4248              	CSWTCH.72:
 4249 0000 01       		.byte	1
 4250 0001 00       		.byte	0
 4251 0002 00       		.byte	0
 4252 0003 00       		.byte	0
 4253 0004 00       		.byte	0
 4254 0005 00       		.byte	0
 4255 0006 00       		.byte	0
 4256 0007 00       		.byte	0
 4257 0008 02       		.byte	2
 4258 0009 00       		.byte	0
 4259 000a 00       		.byte	0
 4260 000b 00       		.byte	0
 4261 000c 00       		.byte	0
 4262 000d 00       		.byte	0
 4263 000e 00       		.byte	0
 4264 000f 00       		.byte	0
 4265 0010 04       		.byte	4
 4266              		.text
 4267              	.Letext0:
 4268              		.file 7 "/usr/share/gcc-arm-none-eabi-10-2020-q4-major/arm-none-eabi/include/machine/_default_type
 4269              		.file 8 "/usr/share/gcc-arm-none-eabi-10-2020-q4-major/arm-none-eabi/include/sys/_stdint.h"
 4270              		.file 9 "Drivers/CMSIS/Device/ST/STM32G4xx/Include/stm32g431xx.h"
 4271              		.file 10 "Drivers/STM32G4xx_HAL_Driver/Inc/stm32g4xx_ll_tim.h"
ARM GAS  /tmp/ccKFuU3x.s 			page 149


 4272              		.file 11 "Drivers/STM32G4xx_HAL_Driver/Inc/stm32g4xx_ll_usart.h"
 4273              		.file 12 "Drivers/STM32G4xx_HAL_Driver/Inc/stm32g4xx_ll_dma.h"
 4274              		.file 13 "Inc/mc_type.h"
 4275              		.file 14 "Inc/pwm_curr_fdbk.h"
 4276              		.file 15 "MCSDK_v6.3.2-Full/MotorControl/MCSDK/MCLib/Any/Inc/pid_regulator.h"
 4277              		.file 16 "MCSDK_v6.3.2-Full/MotorControl/MCSDK/MCLib/Any/Inc/speed_torq_ctrl.h"
 4278              		.file 17 "Inc/mc_perf.h"
 4279              		.file 18 "Inc/mc_interface.h"
 4280              		.file 19 "MCSDK_v6.3.2-Full/MotorControl/MCSDK/MCLib/Any/Inc/ramp_ext_mngr.h"
 4281              		.file 20 "MCSDK_v6.3.2-Full/MotorControl/MCSDK/MCLib/Any/Inc/bus_voltage_sensor.h"
 4282              		.file 21 "MCSDK_v6.3.2-Full/MotorControl/MCSDK/MCLib/Any/Inc/virtual_speed_sensor.h"
 4283              		.file 22 "MCSDK_v6.3.2-Full/MotorControl/MCSDK/MCLib/Any/Inc/circle_limitation.h"
 4284              		.file 23 "MCSDK_v6.3.2-Full/MotorControl/MCSDK/MCLib/Any/Inc/sto_speed_pos_fdbk.h"
 4285              		.file 24 "MCSDK_v6.3.2-Full/MotorControl/MCSDK/MCLib/Any/Inc/r_divider_bus_voltage_sensor.h"
 4286              		.file 25 "Inc/hall_speed_pos_fdbk.h"
 4287              		.file 26 "MCSDK_v6.3.2-Full/MotorControl/MCSDK/MCLib/Any/Inc/mp_hall_tuning.h"
 4288              		.file 27 "MCSDK_v6.3.2-Full/MotorControl/MCSDK/MCLib/Any/Inc/ntc_temperature_sensor.h"
 4289              		.file 28 "Inc/mc_configuration_registers.h"
 4290              		.file 29 "Inc/mc_parameters.h"
 4291              		.file 30 "Inc/mc_config_common.h"
 4292              		.file 31 "MCSDK_v6.3.2-Full/MotorControl/MCSDK/MCLib/Any/Inc/feed_forward_ctrl.h"
 4293              		.file 32 "MCSDK_v6.3.2-Full/MotorControl/MCSDK/MCLib/Any/Inc/pqd_motor_power_measurement.h"
 4294              		.file 33 "Inc/mc_config.h"
 4295              		.file 34 "Inc/mc_math.h"
ARM GAS  /tmp/ccKFuU3x.s 			page 150


DEFINED SYMBOLS
                            *ABS*:0000000000000000 register_interface.c
     /tmp/ccKFuU3x.s:18     .text.RI_SetRegisterGlobal:0000000000000000 $t
     /tmp/ccKFuU3x.s:27     .text.RI_SetRegisterGlobal:0000000000000000 RI_SetRegisterGlobal
     /tmp/ccKFuU3x.s:218    .text.RI_SetRegisterMotor1:0000000000000000 $t
     /tmp/ccKFuU3x.s:226    .text.RI_SetRegisterMotor1:0000000000000000 RI_SetRegisterMotor1
     /tmp/ccKFuU3x.s:909    .text.RI_SetRegisterMotor1:00000000000002d0 $d
     /tmp/ccKFuU3x.s:922    .text.RI_SetRegisterMotor1:00000000000002ec $t
     /tmp/ccKFuU3x.s:1488   .text.RI_SetRegisterMotor1:00000000000004a0 $d
     /tmp/ccKFuU3x.s:1501   .text.RI_GetRegisterGlobal:0000000000000000 $t
     /tmp/ccKFuU3x.s:1509   .text.RI_GetRegisterGlobal:0000000000000000 RI_GetRegisterGlobal
     /tmp/ccKFuU3x.s:1536   .text.RI_GetRegisterGlobal:0000000000000016 $d
     /tmp/ccKFuU3x.s:1891   .text.RI_GetRegisterGlobal:0000000000000124 $d
     /tmp/ccKFuU3x.s:1899   .text.RI_GetRegisterMotor1:0000000000000000 $t
     /tmp/ccKFuU3x.s:1907   .text.RI_GetRegisterMotor1:0000000000000000 RI_GetRegisterMotor1
     /tmp/ccKFuU3x.s:1939   .text.RI_GetRegisterMotor1:000000000000001a $d
     /tmp/ccKFuU3x.s:2767   .text.RI_GetRegisterMotor1:00000000000003ac $d
     /tmp/ccKFuU3x.s:2780   .text.RI_GetRegisterMotor1:00000000000003d4 $t
     /tmp/ccKFuU3x.s:3902   .text.RI_GetRegisterMotor1:00000000000006b8 $d
     /tmp/ccKFuU3x.s:3920   .text.RI_GetRegisterMotor1:00000000000006f0 $t
     /tmp/ccKFuU3x.s:4013   .text.RI_GetRegisterMotor1:000000000000072c $d
     /tmp/ccKFuU3x.s:4022   .text.RI_GetIDSize:0000000000000000 $t
     /tmp/ccKFuU3x.s:4030   .text.RI_GetIDSize:0000000000000000 RI_GetIDSize
     /tmp/ccKFuU3x.s:4059   .text.RI_GetIDSize:0000000000000014 $d
     /tmp/ccKFuU3x.s:4064   .text.RI_GetPtrReg:0000000000000000 $t
     /tmp/ccKFuU3x.s:4072   .text.RI_GetPtrReg:0000000000000000 RI_GetPtrReg
     /tmp/ccKFuU3x.s:4227   .text.RI_GetPtrReg:000000000000009c $d
     /tmp/ccKFuU3x.s:4237   .bss.nullData16.0:0000000000000000 $d
     /tmp/ccKFuU3x.s:4241   .bss.nullData16.0:0000000000000000 nullData16.0
     /tmp/ccKFuU3x.s:4244   .rodata.CSWTCH.72:0000000000000000 $d
     /tmp/ccKFuU3x.s:4248   .rodata.CSWTCH.72:0000000000000000 CSWTCH.72
     /tmp/ccKFuU3x.s:1569   .text.RI_GetRegisterGlobal:0000000000000037 $d
     /tmp/ccKFuU3x.s:1569   .text.RI_GetRegisterGlobal:0000000000000038 $t
     /tmp/ccKFuU3x.s:1972   .text.RI_GetRegisterMotor1:000000000000003b $d
     /tmp/ccKFuU3x.s:1972   .text.RI_GetRegisterMotor1:000000000000003c $t

UNDEFINED SYMBOLS
PID_SetKP
PID_SetKD
STO_PLL_GetObserverGains
STO_PLL_SetObserverGains
SCC_SetPBCharacterization
SCC_SetResistorOffset
MCI_ExecSpeedRamp
SCC
STO_PLL_M1
PIDSpeedHandle_M1
FF_M1
Mci
PID_SetKI
SPD_SetElToMecRatio
SCC_SetNominalSpeed
SCC_SetNominalCurrent
MCI_GetMecSpeedRefUnit
MCI_GetTeref
MCI_ExecTorqueRamp
OTT
ARM GAS  /tmp/ccKFuU3x.s 			page 151


VirtualSpeedSensorM1
MC_Perf_GetCPU_Load
MC_Perf_GetMaxCPU_Load
MC_Perf_GetMinCPU_Load
globalConfig_reg
PID_GetKI
MCI_GetLastRampFinalSpeed
MCI_GetLastRampFinalDuration
MCI_GetControlMode
PID_GetKD
STO_PLL_GetEstimatedBemf
FF_GetVqdAvPIout
MCI_GetValphabeta
PID_GetKP
SPD_GetElToMecRatio
NTC_GetAvTemp_C
MCM_floatToIntBit
MCI_GetFaultState
TempSensor_M1
SCC_GetResistorOffset
SCC_GetState
MCI_GetSTMState
MCI_GetVqd
SPD_GetS16Speed
FF_GetVqdff
VBS_GetAvBusVoltage_V
PQD_GetAvrgElMotorPowerW
FOCConfig_reg
scaleParams_M1
RevUpControlM1
ApplicationConfig_reg
BusVoltageSensor_M1
pMPM
MCI_GetAvrgMecSpeedUnit
