ARM GAS  /tmp/ccKFuU3x.s 			page 1


   1              		.cpu cortex-m4
   2              		.eabi_attribute 27, 1
   3              		.eabi_attribute 28, 1
   4              		.eabi_attribute 20, 1
   5              		.eabi_attribute 21, 1
   6              		.eabi_attribute 23, 3
   7              		.eabi_attribute 24, 1
   8              		.eabi_attribute 25, 1
   9              		.eabi_attribute 26, 1
  10              		.eabi_attribute 30, 2
  11              		.eabi_attribute 34, 1
  12              		.eabi_attribute 18, 2
  13              		.file	"register_interface.c"
  14              		.text
  15              	.Ltext0:
  16              		.cfi_sections	.debug_frame
  17              		.section	.text.RI_SetRegisterGlobal,"ax",%progbits
  18              		.align	1
  19              		.p2align 2,,3
  20              		.global	RI_SetRegisterGlobal
  21              		.arch armv7e-m
  22              		.syntax unified
  23              		.thumb
  24              		.thumb_func
  25              		.fpu fpv4-sp-d16
  27              	RI_SetRegisterGlobal:
  28              	.LVL0:
  29              	.LFB1713:
  30              		.file 1 "Src/register_interface.c"
   1:Src/register_interface.c **** 
   2:Src/register_interface.c **** /**
   3:Src/register_interface.c ****   ******************************************************************************
   4:Src/register_interface.c ****   * @file    register_interface.c
   5:Src/register_interface.c ****   * @author  Motor Control SDK Team, ST Microelectronics
   6:Src/register_interface.c ****   * @brief   This file provides firmware functions that implement the register access for the MCP p
   7:Src/register_interface.c ****   *
   8:Src/register_interface.c ****   *
   9:Src/register_interface.c ****   ******************************************************************************
  10:Src/register_interface.c ****   * @attention
  11:Src/register_interface.c ****   *
  12:Src/register_interface.c ****   * <h2><center>&copy; Copyright (c) 2024 STMicroelectronics.
  13:Src/register_interface.c ****   * All rights reserved.</center></h2>
  14:Src/register_interface.c ****   *
  15:Src/register_interface.c ****   * This software component is licensed by ST under Ultimate Liberty license
  16:Src/register_interface.c ****   * SLA0044, the "License"; You may not use this file except in compliance with
  17:Src/register_interface.c ****   * the License. You may obtain a copy of the License at:
  18:Src/register_interface.c ****   *                             www.st.com/SLA0044
  19:Src/register_interface.c ****   *
  20:Src/register_interface.c ****   ******************************************************************************
  21:Src/register_interface.c ****   */
  22:Src/register_interface.c **** 
  23:Src/register_interface.c **** #include "mc_type.h"
  24:Src/register_interface.c **** #include "string.h"
  25:Src/register_interface.c **** #include "register_interface.h"
  26:Src/register_interface.c **** #include "mc_config.h"
  27:Src/register_interface.c **** #include "mcp.h"
  28:Src/register_interface.c **** #include "mcp_config.h"
ARM GAS  /tmp/ccKFuU3x.s 			page 2


  29:Src/register_interface.c **** #include "mcpa.h"
  30:Src/register_interface.c **** #include "mp_one_touch_tuning.h"
  31:Src/register_interface.c **** #include "mp_self_com_ctrl.h"
  32:Src/register_interface.c **** #include "mc_configuration_registers.h"
  33:Src/register_interface.c **** 
  34:Src/register_interface.c **** uint8_t RI_SetRegisterGlobal(uint16_t regID, uint8_t typeID, uint8_t *data, uint16_t *size, int16_t
  35:Src/register_interface.c **** {
  31              		.loc 1 35 1 view -0
  32              		.cfi_startproc
  33              		@ args = 4, pretend = 0, frame = 0
  34              		@ frame_needed = 0, uses_anonymous_args = 0
  35              		@ link register save eliminated.
  36:Src/register_interface.c ****   uint8_t retVal = MCP_CMD_OK;
  36              		.loc 1 36 3 view .LVU1
  37:Src/register_interface.c ****   switch(typeID)
  37              		.loc 1 37 3 view .LVU2
  38 0000 1829     		cmp	r1, #24
  35:Src/register_interface.c ****   uint8_t retVal = MCP_CMD_OK;
  39              		.loc 1 35 1 is_stmt 0 view .LVU3
  40 0002 BDF900C0 		ldrsh	ip, [sp]
  41              		.loc 1 37 3 view .LVU4
  42 0006 32D0     		beq	.L2
  43 0008 13D8     		bhi	.L3
  44 000a 0829     		cmp	r1, #8
  45 000c 3BD0     		beq	.L4
  46 000e 1029     		cmp	r1, #16
  47 0010 35D1     		bne	.L6
  38:Src/register_interface.c ****   {
  39:Src/register_interface.c ****     case TYPE_DATA_8BIT:
  40:Src/register_interface.c ****     {
  41:Src/register_interface.c ****       switch (regID)
  42:Src/register_interface.c ****       {
  43:Src/register_interface.c ****         case MC_REG_STATUS:
  44:Src/register_interface.c ****         {
  45:Src/register_interface.c ****           retVal = MCP_ERROR_RO_REG;
  46:Src/register_interface.c ****           break;
  47:Src/register_interface.c ****         }
  48:Src/register_interface.c **** 
  49:Src/register_interface.c ****         default:
  50:Src/register_interface.c ****         {
  51:Src/register_interface.c ****           retVal = MCP_ERROR_UNKNOWN_REG;
  52:Src/register_interface.c ****           break;
  53:Src/register_interface.c ****         }
  54:Src/register_interface.c ****       }
  55:Src/register_interface.c ****       *size = 1;
  56:Src/register_interface.c ****       break;
  57:Src/register_interface.c ****     }
  58:Src/register_interface.c **** 
  59:Src/register_interface.c ****     case TYPE_DATA_16BIT:
  60:Src/register_interface.c ****     {
  61:Src/register_interface.c ****       switch (regID)
  48              		.loc 1 61 7 is_stmt 1 view .LVU5
  49 0012 B0F5656F 		cmp	r0, #3664
  50 0016 3ED0     		beq	.L17
  51 0018 1ED9     		bls	.L23
  52 001a B0F5696F 		cmp	r0, #3728
  53 001e 3AD0     		beq	.L17
ARM GAS  /tmp/ccKFuU3x.s 			page 3


  54 0020 41F65832 		movw	r2, #7000
  55              	.LVL1:
  56              		.loc 1 61 7 is_stmt 0 view .LVU6
  57 0024 9042     		cmp	r0, r2
  58 0026 14BF     		ite	ne
  59 0028 0520     		movne	r0, #5
  60 002a 0420     		moveq	r0, #4
  61              	.LVL2:
  62              	.L10:
  62:Src/register_interface.c ****       {
  63:Src/register_interface.c **** 
  64:Src/register_interface.c ****         case MC_REG_BUS_VOLTAGE:
  65:Src/register_interface.c ****         case MC_REG_HEATS_TEMP:
  66:Src/register_interface.c ****         case MC_REG_MOTOR_POWER:
  67:Src/register_interface.c ****         {
  68:Src/register_interface.c ****           retVal = MCP_ERROR_RO_REG;
  69:Src/register_interface.c ****           break;
  70:Src/register_interface.c ****         }
  71:Src/register_interface.c **** 
  72:Src/register_interface.c ****         case MC_REG_DAC_USER1:
  73:Src/register_interface.c ****         case MC_REG_DAC_USER2:
  74:Src/register_interface.c ****         break;
  75:Src/register_interface.c **** 
  76:Src/register_interface.c ****         default:
  77:Src/register_interface.c ****         {
  78:Src/register_interface.c ****           retVal = MCP_ERROR_UNKNOWN_REG;
  79:Src/register_interface.c ****           break;
  80:Src/register_interface.c ****         }
  81:Src/register_interface.c ****       }
  82:Src/register_interface.c ****       *size = 2;
  63              		.loc 1 82 7 is_stmt 1 view .LVU7
  64              		.loc 1 82 13 is_stmt 0 view .LVU8
  65 002c 0222     		movs	r2, #2
  66 002e 1A80     		strh	r2, [r3]	@ movhi
  83:Src/register_interface.c ****       break;
  67              		.loc 1 83 7 is_stmt 1 view .LVU9
  68 0030 7047     		bx	lr
  69              	.LVL3:
  70              	.L3:
  37:Src/register_interface.c ****   {
  71              		.loc 1 37 3 is_stmt 0 view .LVU10
  72 0032 2829     		cmp	r1, #40
  73 0034 23D1     		bne	.L6
  74              	.LBB103:
  84:Src/register_interface.c ****     }
  85:Src/register_interface.c **** 
  86:Src/register_interface.c ****     case TYPE_DATA_32BIT:
  87:Src/register_interface.c ****     {
  88:Src/register_interface.c **** 
  89:Src/register_interface.c ****       switch (regID)
  90:Src/register_interface.c ****       {
  91:Src/register_interface.c ****         case MC_REG_FAULTS_FLAGS:
  92:Src/register_interface.c ****         {
  93:Src/register_interface.c ****           retVal = MCP_ERROR_RO_REG;
  94:Src/register_interface.c ****           break;
  95:Src/register_interface.c ****         }
  96:Src/register_interface.c **** 
ARM GAS  /tmp/ccKFuU3x.s 			page 4


  97:Src/register_interface.c ****         default:
  98:Src/register_interface.c ****         {
  99:Src/register_interface.c ****           retVal = MCP_ERROR_UNKNOWN_REG;
 100:Src/register_interface.c ****           break;
 101:Src/register_interface.c ****         }
 102:Src/register_interface.c ****       }
 103:Src/register_interface.c ****       *size = 4;
 104:Src/register_interface.c ****       break;
 105:Src/register_interface.c ****     }
 106:Src/register_interface.c **** 
 107:Src/register_interface.c ****     case TYPE_DATA_RAW:
 108:Src/register_interface.c ****     {
 109:Src/register_interface.c ****       uint16_t rawSize = *(uint16_t *)data; //cstat !MISRAC2012-Rule-11.3
  75              		.loc 1 109 7 is_stmt 1 view .LVU11
  76              	.LVL4:
 110:Src/register_interface.c ****       /* The size consumed by the structure is the structure size + 2 bytes used to store the size 
 111:Src/register_interface.c ****       *size = rawSize + 2U;
  77              		.loc 1 111 7 view .LVU12
  78              		.loc 1 111 23 is_stmt 0 view .LVU13
  79 0036 1288     		ldrh	r2, [r2]
  80              	.LVL5:
  81              		.loc 1 111 23 view .LVU14
  82 0038 0232     		adds	r2, r2, #2
  83 003a 92B2     		uxth	r2, r2
 112:Src/register_interface.c ****       uint8_t *rawData = data; /* rawData points to the first data (after size extraction) */
 113:Src/register_interface.c ****       rawData++;
 114:Src/register_interface.c ****       rawData++;
 115:Src/register_interface.c **** 
 116:Src/register_interface.c ****       if (*size > (uint16_t)dataAvailable)
  84              		.loc 1 116 10 view .LVU15
  85 003c 1FFA8CFC 		uxth	ip, ip
  86 0040 6245     		cmp	r2, ip
 111:Src/register_interface.c ****       uint8_t *rawData = data; /* rawData points to the first data (after size extraction) */
  87              		.loc 1 111 13 view .LVU16
  88 0042 1A80     		strh	r2, [r3]	@ movhi
  89              	.LVL6:
 112:Src/register_interface.c ****       uint8_t *rawData = data; /* rawData points to the first data (after size extraction) */
  90              		.loc 1 112 7 is_stmt 1 view .LVU17
 113:Src/register_interface.c ****       rawData++;
  91              		.loc 1 113 7 view .LVU18
 114:Src/register_interface.c **** 
  92              		.loc 1 114 7 view .LVU19
  93              		.loc 1 116 7 view .LVU20
  94              		.loc 1 116 10 is_stmt 0 view .LVU21
  95 0044 29D8     		bhi	.L24
 117:Src/register_interface.c ****       {
 118:Src/register_interface.c ****         /* The decoded size of the raw structure can not match with transmitted buffer, error in bu
 119:Src/register_interface.c ****            construction */
 120:Src/register_interface.c ****         *size = 0;
 121:Src/register_interface.c ****         retVal = MCP_ERROR_BAD_RAW_FORMAT; /* This error stop the parsing of the CMD buffer */
 122:Src/register_interface.c ****       }
 123:Src/register_interface.c ****       else
 124:Src/register_interface.c ****       {
 125:Src/register_interface.c ****         switch (regID)
  96              		.loc 1 125 9 is_stmt 1 view .LVU22
  97 0046 E828     		cmp	r0, #232
  98 0048 2BD0     		beq	.L20
ARM GAS  /tmp/ccKFuU3x.s 			page 5


  99 004a 20F08000 		bic	r0, r0, #128
 100              	.LVL7:
 126:Src/register_interface.c ****         {
 127:Src/register_interface.c ****           case MC_REG_APPLICATION_CONFIG:
 128:Src/register_interface.c ****           case MC_REG_GLOBAL_CONFIG:
 129:Src/register_interface.c ****           case MC_REG_FOCFW_CONFIG:
 130:Src/register_interface.c ****           {
 131:Src/register_interface.c ****             retVal = MCP_ERROR_RO_REG;
 101              		.loc 1 131 20 is_stmt 0 view .LVU23
 102 004e 2828     		cmp	r0, #40
 103 0050 14BF     		ite	ne
 104 0052 0520     		movne	r0, #5
 105 0054 0420     		moveq	r0, #4
 106 0056 7047     		bx	lr
 107              	.LVL8:
 108              	.L23:
 109              		.loc 1 131 20 view .LVU24
 110              	.LBE103:
 111 0058 20F04000 		bic	r0, r0, #64
 112              	.LVL9:
 113              		.loc 1 131 20 view .LVU25
 114 005c B0F5B26F 		cmp	r0, #1424
  82:Src/register_interface.c ****       break;
 115              		.loc 1 82 13 view .LVU26
 116 0060 4FF00202 		mov	r2, #2
 117              	.LVL10:
  82:Src/register_interface.c ****       break;
 118              		.loc 1 82 13 view .LVU27
 119 0064 14BF     		ite	ne
 120 0066 0520     		movne	r0, #5
 121 0068 0420     		moveq	r0, #4
 122              	.LVL11:
  82:Src/register_interface.c ****       break;
 123              		.loc 1 82 7 is_stmt 1 view .LVU28
  82:Src/register_interface.c ****       break;
 124              		.loc 1 82 13 is_stmt 0 view .LVU29
 125 006a 1A80     		strh	r2, [r3]	@ movhi
  83:Src/register_interface.c ****     }
 126              		.loc 1 83 7 is_stmt 1 view .LVU30
 127 006c 7047     		bx	lr
 128              	.LVL12:
 129              	.L2:
  89:Src/register_interface.c ****       {
 130              		.loc 1 89 7 view .LVU31
  99:Src/register_interface.c ****           break;
 131              		.loc 1 99 18 is_stmt 0 view .LVU32
 132 006e 1828     		cmp	r0, #24
 103:Src/register_interface.c ****       break;
 133              		.loc 1 103 13 view .LVU33
 134 0070 4FF00402 		mov	r2, #4
 135              	.LVL13:
  99:Src/register_interface.c ****           break;
 136              		.loc 1 99 18 view .LVU34
 137 0074 0CBF     		ite	eq
 138 0076 1046     		moveq	r0, r2
 139              	.LVL14:
  99:Src/register_interface.c ****           break;
ARM GAS  /tmp/ccKFuU3x.s 			page 6


 140              		.loc 1 99 18 view .LVU35
 141 0078 0520     		movne	r0, #5
 142              	.LVL15:
 103:Src/register_interface.c ****       break;
 143              		.loc 1 103 7 is_stmt 1 view .LVU36
 103:Src/register_interface.c ****       break;
 144              		.loc 1 103 13 is_stmt 0 view .LVU37
 145 007a 1A80     		strh	r2, [r3]	@ movhi
 104:Src/register_interface.c ****     }
 146              		.loc 1 104 7 is_stmt 1 view .LVU38
 147 007c 7047     		bx	lr
 148              	.LVL16:
 149              	.L6:
 132:Src/register_interface.c ****             break;
 133:Src/register_interface.c ****           }
 134:Src/register_interface.c **** 
 135:Src/register_interface.c ****           default:
 136:Src/register_interface.c ****           {
 137:Src/register_interface.c ****             retVal = MCP_ERROR_UNKNOWN_REG;
 138:Src/register_interface.c ****             break;
 139:Src/register_interface.c ****           }
 140:Src/register_interface.c ****         }
 141:Src/register_interface.c **** 
 142:Src/register_interface.c ****       }
 143:Src/register_interface.c ****       break;
 144:Src/register_interface.c ****     }
 145:Src/register_interface.c **** 
 146:Src/register_interface.c ****     default:
 147:Src/register_interface.c ****     {
 148:Src/register_interface.c ****       retVal = MCP_ERROR_BAD_DATA_TYPE;
 150              		.loc 1 148 7 view .LVU39
 149:Src/register_interface.c ****       *size =0; /* From this point we are not able anymore to decode the RX buffer */
 151              		.loc 1 149 7 view .LVU40
 152              		.loc 1 149 13 is_stmt 0 view .LVU41
 153 007e 0022     		movs	r2, #0
 154              	.LVL17:
 155              		.loc 1 149 13 view .LVU42
 156 0080 1A80     		strh	r2, [r3]	@ movhi
 150:Src/register_interface.c ****       break;
 157              		.loc 1 150 7 is_stmt 1 view .LVU43
 148:Src/register_interface.c ****       *size =0; /* From this point we are not able anymore to decode the RX buffer */
 158              		.loc 1 148 14 is_stmt 0 view .LVU44
 159 0082 0720     		movs	r0, #7
 160              	.LVL18:
 161              		.loc 1 150 7 view .LVU45
 162 0084 7047     		bx	lr
 163              	.LVL19:
 164              	.L4:
  41:Src/register_interface.c ****       {
 165              		.loc 1 41 7 is_stmt 1 view .LVU46
  51:Src/register_interface.c ****           break;
 166              		.loc 1 51 18 is_stmt 0 view .LVU47
 167 0086 4828     		cmp	r0, #72
  55:Src/register_interface.c ****       break;
 168              		.loc 1 55 13 view .LVU48
 169 0088 4FF00102 		mov	r2, #1
 170              	.LVL20:
ARM GAS  /tmp/ccKFuU3x.s 			page 7


  51:Src/register_interface.c ****           break;
 171              		.loc 1 51 18 view .LVU49
 172 008c 0CBF     		ite	eq
 173 008e 0420     		moveq	r0, #4
 174              	.LVL21:
  51:Src/register_interface.c ****           break;
 175              		.loc 1 51 18 view .LVU50
 176 0090 0520     		movne	r0, #5
 177              	.LVL22:
  55:Src/register_interface.c ****       break;
 178              		.loc 1 55 7 is_stmt 1 view .LVU51
  55:Src/register_interface.c ****       break;
 179              		.loc 1 55 13 is_stmt 0 view .LVU52
 180 0092 1A80     		strh	r2, [r3]	@ movhi
  56:Src/register_interface.c ****     }
 181              		.loc 1 56 7 is_stmt 1 view .LVU53
 182 0094 7047     		bx	lr
 183              	.LVL23:
 184              	.L17:
  36:Src/register_interface.c ****   switch(typeID)
 185              		.loc 1 36 11 is_stmt 0 view .LVU54
 186 0096 0020     		movs	r0, #0
 187              	.LVL24:
  36:Src/register_interface.c ****   switch(typeID)
 188              		.loc 1 36 11 view .LVU55
 189 0098 C8E7     		b	.L10
 190              	.LVL25:
 191              	.L24:
 192              	.LBB104:
 120:Src/register_interface.c ****         retVal = MCP_ERROR_BAD_RAW_FORMAT; /* This error stop the parsing of the CMD buffer */
 193              		.loc 1 120 9 is_stmt 1 view .LVU56
 120:Src/register_interface.c ****         retVal = MCP_ERROR_BAD_RAW_FORMAT; /* This error stop the parsing of the CMD buffer */
 194              		.loc 1 120 15 is_stmt 0 view .LVU57
 195 009a 0022     		movs	r2, #0
 196 009c 1A80     		strh	r2, [r3]	@ movhi
 121:Src/register_interface.c ****       }
 197              		.loc 1 121 9 is_stmt 1 view .LVU58
 198              	.LVL26:
 121:Src/register_interface.c ****       }
 199              		.loc 1 121 16 is_stmt 0 view .LVU59
 200 009e 0A20     		movs	r0, #10
 201              	.LVL27:
 121:Src/register_interface.c ****       }
 202              		.loc 1 121 16 view .LVU60
 203 00a0 7047     		bx	lr
 204              	.LVL28:
 205              	.L20:
 131:Src/register_interface.c ****             break;
 206              		.loc 1 131 20 view .LVU61
 207 00a2 0420     		movs	r0, #4
 208              	.LVL29:
 131:Src/register_interface.c ****             break;
 209              		.loc 1 131 20 view .LVU62
 210              	.LBE104:
 151:Src/register_interface.c ****     }
 152:Src/register_interface.c ****   }
 153:Src/register_interface.c ****   return (retVal);
ARM GAS  /tmp/ccKFuU3x.s 			page 8


 211              		.loc 1 153 3 is_stmt 1 view .LVU63
 154:Src/register_interface.c **** }
 212              		.loc 1 154 1 is_stmt 0 view .LVU64
 213 00a4 7047     		bx	lr
 214              		.cfi_endproc
 215              	.LFE1713:
 217 00a6 00BF     		.section	.text.RI_SetRegisterMotor1,"ax",%progbits
 218              		.align	1
 219              		.p2align 2,,3
 220              		.global	RI_SetRegisterMotor1
 221              		.syntax unified
 222              		.thumb
 223              		.thumb_func
 224              		.fpu fpv4-sp-d16
 226              	RI_SetRegisterMotor1:
 227              	.LVL30:
 228              	.LFB1714:
 155:Src/register_interface.c **** 
 156:Src/register_interface.c **** uint8_t RI_SetRegisterMotor1(uint16_t regID, uint8_t typeID, uint8_t *data, uint16_t *size, int16_t
 157:Src/register_interface.c **** {
 229              		.loc 1 157 1 is_stmt 1 view -0
 230              		.cfi_startproc
 231              		@ args = 4, pretend = 0, frame = 8
 232              		@ frame_needed = 0, uses_anonymous_args = 0
 158:Src/register_interface.c ****   uint8_t retVal = MCP_CMD_OK;
 233              		.loc 1 158 3 view .LVU66
 159:Src/register_interface.c ****   uint8_t motorID=0;
 234              		.loc 1 159 3 view .LVU67
 160:Src/register_interface.c ****   MCI_Handle_t *pMCIN = &Mci[motorID];
 235              		.loc 1 160 3 view .LVU68
 161:Src/register_interface.c **** 
 162:Src/register_interface.c ****   switch(typeID)
 236              		.loc 1 162 3 view .LVU69
 157:Src/register_interface.c ****   uint8_t retVal = MCP_CMD_OK;
 237              		.loc 1 157 1 is_stmt 0 view .LVU70
 238 0000 30B5     		push	{r4, r5, lr}
 239              	.LCFI0:
 240              		.cfi_def_cfa_offset 12
 241              		.cfi_offset 4, -12
 242              		.cfi_offset 5, -8
 243              		.cfi_offset 14, -4
 244 0002 83B0     		sub	sp, sp, #12
 245              	.LCFI1:
 246              		.cfi_def_cfa_offset 24
 247              		.loc 1 162 3 view .LVU71
 248 0004 1829     		cmp	r1, #24
 157:Src/register_interface.c ****   uint8_t retVal = MCP_CMD_OK;
 249              		.loc 1 157 1 view .LVU72
 250 0006 BDF918C0 		ldrsh	ip, [sp, #24]
 251 000a 1C46     		mov	r4, r3
 252              		.loc 1 162 3 view .LVU73
 253 000c 00F00B81 		beq	.L26
 254 0010 30D8     		bhi	.L27
 255 0012 0829     		cmp	r1, #8
 256 0014 00F0C680 		beq	.L28
 257 0018 1029     		cmp	r1, #16
 258 001a 40F0F680 		bne	.L30
ARM GAS  /tmp/ccKFuU3x.s 			page 9


 259              	.LBB105:
 163:Src/register_interface.c ****   {
 164:Src/register_interface.c ****     case TYPE_DATA_8BIT:
 165:Src/register_interface.c ****     {
 166:Src/register_interface.c ****       switch (regID)
 167:Src/register_interface.c ****       {
 168:Src/register_interface.c ****         case MC_REG_STATUS:
 169:Src/register_interface.c ****           {
 170:Src/register_interface.c ****             retVal = MCP_ERROR_RO_REG;
 171:Src/register_interface.c ****             break;
 172:Src/register_interface.c ****           }
 173:Src/register_interface.c ****         case MC_REG_CONTROL_MODE:
 174:Src/register_interface.c ****         {
 175:Src/register_interface.c ****           uint8_t regdata8 = *data;
 176:Src/register_interface.c **** 
 177:Src/register_interface.c ****           if ((uint8_t)MCM_TORQUE_MODE == regdata8)
 178:Src/register_interface.c ****           {
 179:Src/register_interface.c **** 
 180:Src/register_interface.c ****             MCI_ExecTorqueRamp(pMCIN, MCI_GetTeref(pMCIN), 0);
 181:Src/register_interface.c ****           }
 182:Src/register_interface.c ****           else
 183:Src/register_interface.c ****           {
 184:Src/register_interface.c ****             /* Nothing to do */
 185:Src/register_interface.c ****           }
 186:Src/register_interface.c **** 
 187:Src/register_interface.c ****           if ((uint8_t)MCM_SPEED_MODE == regdata8)
 188:Src/register_interface.c ****           {
 189:Src/register_interface.c ****             MCI_ExecSpeedRamp(pMCIN, MCI_GetMecSpeedRefUnit(pMCIN), 0);
 190:Src/register_interface.c ****           }
 191:Src/register_interface.c ****           else
 192:Src/register_interface.c ****           {
 193:Src/register_interface.c ****             /* Nothing to do */
 194:Src/register_interface.c ****           }
 195:Src/register_interface.c ****           break;
 196:Src/register_interface.c ****         }
 197:Src/register_interface.c **** 
 198:Src/register_interface.c ****         case MC_REG_RUC_STAGE_NBR:
 199:Src/register_interface.c ****         {
 200:Src/register_interface.c ****           retVal = MCP_ERROR_RO_REG;
 201:Src/register_interface.c ****           break;
 202:Src/register_interface.c ****         }
 203:Src/register_interface.c ****         case MC_REG_SC_PP:
 204:Src/register_interface.c ****         {
 205:Src/register_interface.c ****           uint8_t regdataU8 = *(uint8_t *)data;
 206:Src/register_interface.c ****           SPD_SetElToMecRatio(&STO_PLL_M1._Super, regdataU8);
 207:Src/register_interface.c ****           SPD_SetElToMecRatio(&VirtualSpeedSensorM1._Super, regdataU8);
 208:Src/register_interface.c ****           SCC_SetPolesPairs(&SCC, regdataU8);
 209:Src/register_interface.c ****           OTT_SetPolesPairs(&OTT, regdataU8);
 210:Src/register_interface.c ****           break;
 211:Src/register_interface.c ****         }
 212:Src/register_interface.c **** 
 213:Src/register_interface.c ****         case MC_REG_SC_CHECK:
 214:Src/register_interface.c ****         case MC_REG_SC_STATE:
 215:Src/register_interface.c ****         case MC_REG_SC_STEPS:
 216:Src/register_interface.c ****         case MC_REG_SC_FOC_REP_RATE:
 217:Src/register_interface.c ****         case MC_REG_SC_COMPLETED:
 218:Src/register_interface.c ****         {
ARM GAS  /tmp/ccKFuU3x.s 			page 10


 219:Src/register_interface.c ****           retVal = MCP_ERROR_RO_REG;
 220:Src/register_interface.c ****           break;
 221:Src/register_interface.c ****         }
 222:Src/register_interface.c **** 
 223:Src/register_interface.c ****           case MC_REG_PB_CHARACTERIZATION:
 224:Src/register_interface.c ****         {
 225:Src/register_interface.c ****           uint8_t regdataU8 = *(uint8_t *)data;
 226:Src/register_interface.c ****           SCC_SetPBCharacterization(&SCC,regdataU8);
 227:Src/register_interface.c ****           break;
 228:Src/register_interface.c ****         }
 229:Src/register_interface.c **** 
 230:Src/register_interface.c ****         default:
 231:Src/register_interface.c ****         {
 232:Src/register_interface.c ****           retVal = MCP_ERROR_UNKNOWN_REG;
 233:Src/register_interface.c ****           break;
 234:Src/register_interface.c ****         }
 235:Src/register_interface.c ****       }
 236:Src/register_interface.c ****       *size = 1;
 237:Src/register_interface.c ****       break;
 238:Src/register_interface.c ****     }
 239:Src/register_interface.c **** 
 240:Src/register_interface.c ****     case TYPE_DATA_16BIT:
 241:Src/register_interface.c ****     {
 242:Src/register_interface.c ****       uint16_t regdata16 = *(uint16_t *)data; //cstat !MISRAC2012-Rule-11.3
 260              		.loc 1 242 7 is_stmt 1 view .LVU74
 261 001e B0F5F26F 		cmp	r0, #1936
 262              		.loc 1 242 16 is_stmt 0 view .LVU75
 263 0022 1588     		ldrh	r5, [r2]
 264              	.LVL31:
 243:Src/register_interface.c ****       switch (regID)
 265              		.loc 1 243 7 is_stmt 1 view .LVU76
 266 0024 21D0     		beq	.L106
 267 0026 42D9     		bls	.L131
 268 0028 B0F5796F 		cmp	r0, #3984
 269 002c 1DD0     		beq	.L106
 270 002e 51D9     		bls	.L132
 271 0030 41F61043 		movw	r3, #7184
 272              	.LVL32:
 273              		.loc 1 243 7 is_stmt 0 view .LVU77
 274 0034 9842     		cmp	r0, r3
 275 0036 00F0CB81 		beq	.L56
 276 003a 0DD9     		bls	.L133
 277 003c 41F65043 		movw	r3, #7248
 278 0040 9842     		cmp	r0, r3
 279 0042 57D1     		bne	.L90
 244:Src/register_interface.c ****       {
 245:Src/register_interface.c ****         case MC_REG_SPEED_KP:
 246:Src/register_interface.c ****         {
 247:Src/register_interface.c ****           PID_SetKP(&PIDSpeedHandle_M1, (int16_t)regdata16);
 248:Src/register_interface.c ****           break;
 249:Src/register_interface.c ****         }
 250:Src/register_interface.c **** 
 251:Src/register_interface.c ****         case MC_REG_SPEED_KI:
 252:Src/register_interface.c ****         {
 253:Src/register_interface.c ****           PID_SetKI(&PIDSpeedHandle_M1, (int16_t)regdata16);
 254:Src/register_interface.c ****           break;
 255:Src/register_interface.c ****         }
ARM GAS  /tmp/ccKFuU3x.s 			page 11


 256:Src/register_interface.c **** 
 257:Src/register_interface.c ****         case MC_REG_SPEED_KD:
 258:Src/register_interface.c ****         {
 259:Src/register_interface.c ****           PID_SetKD(&PIDSpeedHandle_M1, (int16_t)regdata16);
 260:Src/register_interface.c ****           break;
 261:Src/register_interface.c ****         }
 262:Src/register_interface.c **** 
 263:Src/register_interface.c ****         case MC_REG_BUS_VOLTAGE:
 264:Src/register_interface.c ****         case MC_REG_HEATS_TEMP:
 265:Src/register_interface.c ****         case MC_REG_MOTOR_POWER:
 266:Src/register_interface.c ****         {
 267:Src/register_interface.c ****           retVal = MCP_ERROR_RO_REG;
 268:Src/register_interface.c ****           break;
 269:Src/register_interface.c ****         }
 270:Src/register_interface.c **** 
 271:Src/register_interface.c ****         case MC_REG_FLUXWK_BUS_MEAS:
 272:Src/register_interface.c ****         {
 273:Src/register_interface.c ****           retVal = MCP_ERROR_RO_REG;
 274:Src/register_interface.c ****           break;
 275:Src/register_interface.c ****         }
 276:Src/register_interface.c **** 
 277:Src/register_interface.c ****         case MC_REG_V_Q:
 278:Src/register_interface.c ****         case MC_REG_V_D:
 279:Src/register_interface.c ****         case MC_REG_V_ALPHA:
 280:Src/register_interface.c ****         case MC_REG_V_BETA:
 281:Src/register_interface.c ****         {
 282:Src/register_interface.c ****           retVal = MCP_ERROR_RO_REG;
 283:Src/register_interface.c ****           break;
 284:Src/register_interface.c ****         }
 285:Src/register_interface.c **** 
 286:Src/register_interface.c ****         case MC_REG_STOPLL_C1:
 287:Src/register_interface.c ****         {
 288:Src/register_interface.c ****           int16_t hC1;
 289:Src/register_interface.c ****           int16_t hC2;
 290:Src/register_interface.c ****           STO_PLL_GetObserverGains(&STO_PLL_M1, &hC1, &hC2);
 291:Src/register_interface.c ****           STO_PLL_SetObserverGains(&STO_PLL_M1, (int16_t)regdata16, hC2);
 292:Src/register_interface.c ****           break;
 293:Src/register_interface.c ****         }
 294:Src/register_interface.c **** 
 295:Src/register_interface.c ****         case MC_REG_STOPLL_C2:
 296:Src/register_interface.c ****         {
 297:Src/register_interface.c ****           int16_t hC1;
 298:Src/register_interface.c ****           int16_t hC2;
 299:Src/register_interface.c ****           STO_PLL_GetObserverGains(&STO_PLL_M1, &hC1, &hC2);
 300:Src/register_interface.c ****           STO_PLL_SetObserverGains(&STO_PLL_M1, hC1, (int16_t)regdata16);
 301:Src/register_interface.c ****           break;
 302:Src/register_interface.c ****         }
 303:Src/register_interface.c **** 
 304:Src/register_interface.c ****         case MC_REG_STOPLL_KI:
 305:Src/register_interface.c ****         {
 306:Src/register_interface.c ****           PID_SetKI (&(&STO_PLL_M1)->PIRegulator, (int16_t)regdata16);
 307:Src/register_interface.c ****           break;
 308:Src/register_interface.c ****         }
 309:Src/register_interface.c **** 
 310:Src/register_interface.c ****         case MC_REG_STOPLL_KP:
 311:Src/register_interface.c ****         {
 312:Src/register_interface.c ****           PID_SetKP (&(&STO_PLL_M1)->PIRegulator, (int16_t)regdata16);
ARM GAS  /tmp/ccKFuU3x.s 			page 12


 313:Src/register_interface.c ****           break;
 314:Src/register_interface.c ****         }
 315:Src/register_interface.c **** 
 316:Src/register_interface.c ****         case MC_REG_STOPLL_EL_ANGLE:
 317:Src/register_interface.c ****         case MC_REG_STOPLL_ROT_SPEED:
 318:Src/register_interface.c ****         case MC_REG_STOPLL_BEMF_ALPHA:
 319:Src/register_interface.c ****         case MC_REG_STOPLL_BEMF_BETA:
 320:Src/register_interface.c ****         {
 321:Src/register_interface.c ****           retVal = MCP_ERROR_RO_REG;
 322:Src/register_interface.c ****           break;
 323:Src/register_interface.c ****         }
 324:Src/register_interface.c **** 
 325:Src/register_interface.c ****         case MC_REG_DAC_USER1:
 326:Src/register_interface.c ****         case MC_REG_DAC_USER2:
 327:Src/register_interface.c ****           break;
 328:Src/register_interface.c **** 
 329:Src/register_interface.c ****         case MC_REG_FF_VQ:
 330:Src/register_interface.c ****         case MC_REG_FF_VD:
 331:Src/register_interface.c ****         case MC_REG_FF_VQ_PIOUT:
 332:Src/register_interface.c ****         case MC_REG_FF_VD_PIOUT:
 333:Src/register_interface.c ****         {
 334:Src/register_interface.c ****           retVal = MCP_ERROR_RO_REG;
 335:Src/register_interface.c ****           break;
 336:Src/register_interface.c ****         }
 337:Src/register_interface.c **** 
 338:Src/register_interface.c ****         case MC_REG_OVERVOLTAGETHRESHOLD:
 339:Src/register_interface.c ****         {
 340:Src/register_interface.c ****           SCC_SetOverVoltageThreshold(&SCC,regdata16);
 341:Src/register_interface.c ****           break;
 342:Src/register_interface.c ****         }
 343:Src/register_interface.c **** 
 344:Src/register_interface.c ****         case MC_REG_UNDERVOLTAGETHRESHOLD:
 345:Src/register_interface.c ****         {
 346:Src/register_interface.c ****           SCC_SetUnderVoltageThreshold(&SCC,regdata16);
 280              		.loc 1 346 11 is_stmt 1 view .LVU78
 281              	.LVL33:
 282              	.LBB106:
 283              	.LBI106:
 284              		.file 2 "MCSDK_v6.3.2-Full/MotorControl/MCSDK/MCLib/Any/Inc/mp_self_com_ctrl.h"
   1:MCSDK_v6.3.2-Full/MotorControl/MCSDK/MCLib/Any/Inc/mp_self_com_ctrl.h **** /**
   2:MCSDK_v6.3.2-Full/MotorControl/MCSDK/MCLib/Any/Inc/mp_self_com_ctrl.h ****   ******************************************************************************
   3:MCSDK_v6.3.2-Full/MotorControl/MCSDK/MCLib/Any/Inc/mp_self_com_ctrl.h ****   * @file    mp_self_com_ctrl.h
   4:MCSDK_v6.3.2-Full/MotorControl/MCSDK/MCLib/Any/Inc/mp_self_com_ctrl.h ****   * @author  Motor Control SDK Team, ST Microelectronics
   5:MCSDK_v6.3.2-Full/MotorControl/MCSDK/MCLib/Any/Inc/mp_self_com_ctrl.h ****   * @brief   This file contains all definitions and functions prototypes for
   6:MCSDK_v6.3.2-Full/MotorControl/MCSDK/MCLib/Any/Inc/mp_self_com_ctrl.h ****   *          for the SelfComCtrl component
   7:MCSDK_v6.3.2-Full/MotorControl/MCSDK/MCLib/Any/Inc/mp_self_com_ctrl.h ****   ******************************************************************************
   8:MCSDK_v6.3.2-Full/MotorControl/MCSDK/MCLib/Any/Inc/mp_self_com_ctrl.h ****   * @attention
   9:MCSDK_v6.3.2-Full/MotorControl/MCSDK/MCLib/Any/Inc/mp_self_com_ctrl.h ****   *
  10:MCSDK_v6.3.2-Full/MotorControl/MCSDK/MCLib/Any/Inc/mp_self_com_ctrl.h ****   * <h2><center>&copy; Copyright (c) 2024 STMicroelectronics.
  11:MCSDK_v6.3.2-Full/MotorControl/MCSDK/MCLib/Any/Inc/mp_self_com_ctrl.h ****   * All rights reserved.</center></h2>
  12:MCSDK_v6.3.2-Full/MotorControl/MCSDK/MCLib/Any/Inc/mp_self_com_ctrl.h ****   *
  13:MCSDK_v6.3.2-Full/MotorControl/MCSDK/MCLib/Any/Inc/mp_self_com_ctrl.h ****   * This software component is licensed by ST under Ultimate Liberty license
  14:MCSDK_v6.3.2-Full/MotorControl/MCSDK/MCLib/Any/Inc/mp_self_com_ctrl.h ****   * SLA0044, the "License"; You may not use this file except in compliance with
  15:MCSDK_v6.3.2-Full/MotorControl/MCSDK/MCLib/Any/Inc/mp_self_com_ctrl.h ****   * the License. You may obtain a copy of the License at:
  16:MCSDK_v6.3.2-Full/MotorControl/MCSDK/MCLib/Any/Inc/mp_self_com_ctrl.h ****   *                             www.st.com/SLA0044
  17:MCSDK_v6.3.2-Full/MotorControl/MCSDK/MCLib/Any/Inc/mp_self_com_ctrl.h ****   *
  18:MCSDK_v6.3.2-Full/MotorControl/MCSDK/MCLib/Any/Inc/mp_self_com_ctrl.h ****   ******************************************************************************
ARM GAS  /tmp/ccKFuU3x.s 			page 13


  19:MCSDK_v6.3.2-Full/MotorControl/MCSDK/MCLib/Any/Inc/mp_self_com_ctrl.h ****   */
  20:MCSDK_v6.3.2-Full/MotorControl/MCSDK/MCLib/Any/Inc/mp_self_com_ctrl.h **** /* Define to prevent recursive inclusion -------------------------------------*/
  21:MCSDK_v6.3.2-Full/MotorControl/MCSDK/MCLib/Any/Inc/mp_self_com_ctrl.h **** #ifndef MP_SELF_COM_CTRL_H
  22:MCSDK_v6.3.2-Full/MotorControl/MCSDK/MCLib/Any/Inc/mp_self_com_ctrl.h **** #define MP_SELF_COM_CTRL_H
  23:MCSDK_v6.3.2-Full/MotorControl/MCSDK/MCLib/Any/Inc/mp_self_com_ctrl.h **** 
  24:MCSDK_v6.3.2-Full/MotorControl/MCSDK/MCLib/Any/Inc/mp_self_com_ctrl.h **** /* Includes ------------------------------------------------------------------*/
  25:MCSDK_v6.3.2-Full/MotorControl/MCSDK/MCLib/Any/Inc/mp_self_com_ctrl.h **** #include "mc_type.h"
  26:MCSDK_v6.3.2-Full/MotorControl/MCSDK/MCLib/Any/Inc/mp_self_com_ctrl.h **** #include "pwm_curr_fdbk.h"
  27:MCSDK_v6.3.2-Full/MotorControl/MCSDK/MCLib/Any/Inc/mp_self_com_ctrl.h **** #include "ramp_ext_mngr.h"
  28:MCSDK_v6.3.2-Full/MotorControl/MCSDK/MCLib/Any/Inc/mp_self_com_ctrl.h **** #include "bus_voltage_sensor.h"
  29:MCSDK_v6.3.2-Full/MotorControl/MCSDK/MCLib/Any/Inc/mp_self_com_ctrl.h **** #include "speed_pos_fdbk.h"
  30:MCSDK_v6.3.2-Full/MotorControl/MCSDK/MCLib/Any/Inc/mp_self_com_ctrl.h **** #include "virtual_speed_sensor.h"
  31:MCSDK_v6.3.2-Full/MotorControl/MCSDK/MCLib/Any/Inc/mp_self_com_ctrl.h **** #include "open_loop.h"
  32:MCSDK_v6.3.2-Full/MotorControl/MCSDK/MCLib/Any/Inc/mp_self_com_ctrl.h **** #include "circle_limitation.h"
  33:MCSDK_v6.3.2-Full/MotorControl/MCSDK/MCLib/Any/Inc/mp_self_com_ctrl.h **** #include "pid_regulator.h"
  34:MCSDK_v6.3.2-Full/MotorControl/MCSDK/MCLib/Any/Inc/mp_self_com_ctrl.h **** #include "revup_ctrl.h"
  35:MCSDK_v6.3.2-Full/MotorControl/MCSDK/MCLib/Any/Inc/mp_self_com_ctrl.h **** #include "speed_torq_ctrl.h"
  36:MCSDK_v6.3.2-Full/MotorControl/MCSDK/MCLib/Any/Inc/mp_self_com_ctrl.h **** #include "r_divider_bus_voltage_sensor.h"
  37:MCSDK_v6.3.2-Full/MotorControl/MCSDK/MCLib/Any/Inc/mp_self_com_ctrl.h **** #include "sto_pll_speed_pos_fdbk.h"
  38:MCSDK_v6.3.2-Full/MotorControl/MCSDK/MCLib/Any/Inc/mp_self_com_ctrl.h **** #include "mp_one_touch_tuning.h"
  39:MCSDK_v6.3.2-Full/MotorControl/MCSDK/MCLib/Any/Inc/mp_self_com_ctrl.h **** #include "mp_hall_tuning.h"
  40:MCSDK_v6.3.2-Full/MotorControl/MCSDK/MCLib/Any/Inc/mp_self_com_ctrl.h **** #include "mc_math.h"
  41:MCSDK_v6.3.2-Full/MotorControl/MCSDK/MCLib/Any/Inc/mp_self_com_ctrl.h **** #include "arm_math.h"
  42:MCSDK_v6.3.2-Full/MotorControl/MCSDK/MCLib/Any/Inc/mp_self_com_ctrl.h **** 
  43:MCSDK_v6.3.2-Full/MotorControl/MCSDK/MCLib/Any/Inc/mp_self_com_ctrl.h **** 
  44:MCSDK_v6.3.2-Full/MotorControl/MCSDK/MCLib/Any/Inc/mp_self_com_ctrl.h **** /** @addtogroup STM32_PMSM_MC_Library
  45:MCSDK_v6.3.2-Full/MotorControl/MCSDK/MCLib/Any/Inc/mp_self_com_ctrl.h ****   * @{
  46:MCSDK_v6.3.2-Full/MotorControl/MCSDK/MCLib/Any/Inc/mp_self_com_ctrl.h ****   */
  47:MCSDK_v6.3.2-Full/MotorControl/MCSDK/MCLib/Any/Inc/mp_self_com_ctrl.h **** 
  48:MCSDK_v6.3.2-Full/MotorControl/MCSDK/MCLib/Any/Inc/mp_self_com_ctrl.h **** /** @addtogroup SelfComCtrl
  49:MCSDK_v6.3.2-Full/MotorControl/MCSDK/MCLib/Any/Inc/mp_self_com_ctrl.h ****   * @{
  50:MCSDK_v6.3.2-Full/MotorControl/MCSDK/MCLib/Any/Inc/mp_self_com_ctrl.h ****   */
  51:MCSDK_v6.3.2-Full/MotorControl/MCSDK/MCLib/Any/Inc/mp_self_com_ctrl.h **** 
  52:MCSDK_v6.3.2-Full/MotorControl/MCSDK/MCLib/Any/Inc/mp_self_com_ctrl.h **** #define RSCURRLEVELNUM 4u
  53:MCSDK_v6.3.2-Full/MotorControl/MCSDK/MCLib/Any/Inc/mp_self_com_ctrl.h **** #define EMF_BUFF_VAL 5u
  54:MCSDK_v6.3.2-Full/MotorControl/MCSDK/MCLib/Any/Inc/mp_self_com_ctrl.h **** #define CMD_SC_STOP 0u
  55:MCSDK_v6.3.2-Full/MotorControl/MCSDK/MCLib/Any/Inc/mp_self_com_ctrl.h **** #define CMD_SC_START 1u
  56:MCSDK_v6.3.2-Full/MotorControl/MCSDK/MCLib/Any/Inc/mp_self_com_ctrl.h **** #define CMD_HT_START 2u
  57:MCSDK_v6.3.2-Full/MotorControl/MCSDK/MCLib/Any/Inc/mp_self_com_ctrl.h **** #define CMD_HT_RESTART 3u
  58:MCSDK_v6.3.2-Full/MotorControl/MCSDK/MCLib/Any/Inc/mp_self_com_ctrl.h **** #define CMD_HT_ABORT 4u
  59:MCSDK_v6.3.2-Full/MotorControl/MCSDK/MCLib/Any/Inc/mp_self_com_ctrl.h **** #define CMD_HT_END 5u
  60:MCSDK_v6.3.2-Full/MotorControl/MCSDK/MCLib/Any/Inc/mp_self_com_ctrl.h **** #define CMD_PPD_START 6u
  61:MCSDK_v6.3.2-Full/MotorControl/MCSDK/MCLib/Any/Inc/mp_self_com_ctrl.h **** #define PB_CHARACTERIZATION_DISABLE 0
  62:MCSDK_v6.3.2-Full/MotorControl/MCSDK/MCLib/Any/Inc/mp_self_com_ctrl.h **** 
  63:MCSDK_v6.3.2-Full/MotorControl/MCSDK/MCLib/Any/Inc/mp_self_com_ctrl.h **** /** @defgroup SelfComCtrl_class_private_types SelfComCtrl class private types
  64:MCSDK_v6.3.2-Full/MotorControl/MCSDK/MCLib/Any/Inc/mp_self_com_ctrl.h ****   * @{
  65:MCSDK_v6.3.2-Full/MotorControl/MCSDK/MCLib/Any/Inc/mp_self_com_ctrl.h ****   */
  66:MCSDK_v6.3.2-Full/MotorControl/MCSDK/MCLib/Any/Inc/mp_self_com_ctrl.h **** 
  67:MCSDK_v6.3.2-Full/MotorControl/MCSDK/MCLib/Any/Inc/mp_self_com_ctrl.h **** /**
  68:MCSDK_v6.3.2-Full/MotorControl/MCSDK/MCLib/Any/Inc/mp_self_com_ctrl.h ****   * @brief  LS detection states
  69:MCSDK_v6.3.2-Full/MotorControl/MCSDK/MCLib/Any/Inc/mp_self_com_ctrl.h ****   */
  70:MCSDK_v6.3.2-Full/MotorControl/MCSDK/MCLib/Any/Inc/mp_self_com_ctrl.h **** typedef enum
  71:MCSDK_v6.3.2-Full/MotorControl/MCSDK/MCLib/Any/Inc/mp_self_com_ctrl.h **** {
  72:MCSDK_v6.3.2-Full/MotorControl/MCSDK/MCLib/Any/Inc/mp_self_com_ctrl.h ****   LSDET_DECAY,
  73:MCSDK_v6.3.2-Full/MotorControl/MCSDK/MCLib/Any/Inc/mp_self_com_ctrl.h ****   LSDET_HOLD,
  74:MCSDK_v6.3.2-Full/MotorControl/MCSDK/MCLib/Any/Inc/mp_self_com_ctrl.h ****   LSDET_RISE
  75:MCSDK_v6.3.2-Full/MotorControl/MCSDK/MCLib/Any/Inc/mp_self_com_ctrl.h **** } LSDetState_t;
ARM GAS  /tmp/ccKFuU3x.s 			page 14


  76:MCSDK_v6.3.2-Full/MotorControl/MCSDK/MCLib/Any/Inc/mp_self_com_ctrl.h **** 
  77:MCSDK_v6.3.2-Full/MotorControl/MCSDK/MCLib/Any/Inc/mp_self_com_ctrl.h **** /**
  78:MCSDK_v6.3.2-Full/MotorControl/MCSDK/MCLib/Any/Inc/mp_self_com_ctrl.h ****   * @brief  KE detection states
  79:MCSDK_v6.3.2-Full/MotorControl/MCSDK/MCLib/Any/Inc/mp_self_com_ctrl.h ****   */
  80:MCSDK_v6.3.2-Full/MotorControl/MCSDK/MCLib/Any/Inc/mp_self_com_ctrl.h **** typedef enum
  81:MCSDK_v6.3.2-Full/MotorControl/MCSDK/MCLib/Any/Inc/mp_self_com_ctrl.h **** {
  82:MCSDK_v6.3.2-Full/MotorControl/MCSDK/MCLib/Any/Inc/mp_self_com_ctrl.h ****   KEDET_REVUP,
  83:MCSDK_v6.3.2-Full/MotorControl/MCSDK/MCLib/Any/Inc/mp_self_com_ctrl.h ****   KEDET_DETECTION,
  84:MCSDK_v6.3.2-Full/MotorControl/MCSDK/MCLib/Any/Inc/mp_self_com_ctrl.h ****   KEDET_SET_OBS_PARAMS,
  85:MCSDK_v6.3.2-Full/MotorControl/MCSDK/MCLib/Any/Inc/mp_self_com_ctrl.h ****   KEDET_STABILIZEPLL,
  86:MCSDK_v6.3.2-Full/MotorControl/MCSDK/MCLib/Any/Inc/mp_self_com_ctrl.h ****   KEDET_RUN,
  87:MCSDK_v6.3.2-Full/MotorControl/MCSDK/MCLib/Any/Inc/mp_self_com_ctrl.h ****   KEDET_RESTART
  88:MCSDK_v6.3.2-Full/MotorControl/MCSDK/MCLib/Any/Inc/mp_self_com_ctrl.h **** } KEDetState_t;
  89:MCSDK_v6.3.2-Full/MotorControl/MCSDK/MCLib/Any/Inc/mp_self_com_ctrl.h **** 
  90:MCSDK_v6.3.2-Full/MotorControl/MCSDK/MCLib/Any/Inc/mp_self_com_ctrl.h **** /**
  91:MCSDK_v6.3.2-Full/MotorControl/MCSDK/MCLib/Any/Inc/mp_self_com_ctrl.h ****   * @brief  SCC_State_t enum type definition, it lists all the possible SCC state
  92:MCSDK_v6.3.2-Full/MotorControl/MCSDK/MCLib/Any/Inc/mp_self_com_ctrl.h ****           machine states.
  93:MCSDK_v6.3.2-Full/MotorControl/MCSDK/MCLib/Any/Inc/mp_self_com_ctrl.h ****   */
  94:MCSDK_v6.3.2-Full/MotorControl/MCSDK/MCLib/Any/Inc/mp_self_com_ctrl.h **** typedef enum
  95:MCSDK_v6.3.2-Full/MotorControl/MCSDK/MCLib/Any/Inc/mp_self_com_ctrl.h **** {
  96:MCSDK_v6.3.2-Full/MotorControl/MCSDK/MCLib/Any/Inc/mp_self_com_ctrl.h ****   SCC_IDLE,
  97:MCSDK_v6.3.2-Full/MotorControl/MCSDK/MCLib/Any/Inc/mp_self_com_ctrl.h ****   SCC_DUTY_DETECTING_PHASE,
  98:MCSDK_v6.3.2-Full/MotorControl/MCSDK/MCLib/Any/Inc/mp_self_com_ctrl.h ****   SCC_ALIGN_PHASE,
  99:MCSDK_v6.3.2-Full/MotorControl/MCSDK/MCLib/Any/Inc/mp_self_com_ctrl.h ****   SCC_RS_DETECTING_PHASE_RAMP,
 100:MCSDK_v6.3.2-Full/MotorControl/MCSDK/MCLib/Any/Inc/mp_self_com_ctrl.h ****   SCC_RS_DETECTING_PHASE,
 101:MCSDK_v6.3.2-Full/MotorControl/MCSDK/MCLib/Any/Inc/mp_self_com_ctrl.h ****   SCC_LS_DETECTING_PHASE,
 102:MCSDK_v6.3.2-Full/MotorControl/MCSDK/MCLib/Any/Inc/mp_self_com_ctrl.h ****   SCC_WAIT_RESTART,
 103:MCSDK_v6.3.2-Full/MotorControl/MCSDK/MCLib/Any/Inc/mp_self_com_ctrl.h ****   SCC_RESTART_SCC,
 104:MCSDK_v6.3.2-Full/MotorControl/MCSDK/MCLib/Any/Inc/mp_self_com_ctrl.h ****   SCC_KE_DETECTING_PHASE,
 105:MCSDK_v6.3.2-Full/MotorControl/MCSDK/MCLib/Any/Inc/mp_self_com_ctrl.h ****   SCC_PHASE_STOP,
 106:MCSDK_v6.3.2-Full/MotorControl/MCSDK/MCLib/Any/Inc/mp_self_com_ctrl.h ****   SCC_CALIBRATION_END,
 107:MCSDK_v6.3.2-Full/MotorControl/MCSDK/MCLib/Any/Inc/mp_self_com_ctrl.h ****   SCC_PP_DETECTION_RAMP,
 108:MCSDK_v6.3.2-Full/MotorControl/MCSDK/MCLib/Any/Inc/mp_self_com_ctrl.h ****   SCC_PP_DETECTION_PHASE_RAMP,
 109:MCSDK_v6.3.2-Full/MotorControl/MCSDK/MCLib/Any/Inc/mp_self_com_ctrl.h ****   SCC_PP_DETECTION_PHASE
 110:MCSDK_v6.3.2-Full/MotorControl/MCSDK/MCLib/Any/Inc/mp_self_com_ctrl.h **** } SCC_State_t;
 111:MCSDK_v6.3.2-Full/MotorControl/MCSDK/MCLib/Any/Inc/mp_self_com_ctrl.h **** 
 112:MCSDK_v6.3.2-Full/MotorControl/MCSDK/MCLib/Any/Inc/mp_self_com_ctrl.h **** /**
 113:MCSDK_v6.3.2-Full/MotorControl/MCSDK/MCLib/Any/Inc/mp_self_com_ctrl.h ****   * @brief  KE detection speed ramp status
 114:MCSDK_v6.3.2-Full/MotorControl/MCSDK/MCLib/Any/Inc/mp_self_com_ctrl.h ****   */
 115:MCSDK_v6.3.2-Full/MotorControl/MCSDK/MCLib/Any/Inc/mp_self_com_ctrl.h **** typedef enum
 116:MCSDK_v6.3.2-Full/MotorControl/MCSDK/MCLib/Any/Inc/mp_self_com_ctrl.h **** {
 117:MCSDK_v6.3.2-Full/MotorControl/MCSDK/MCLib/Any/Inc/mp_self_com_ctrl.h ****   RampIdle,    /* Ramp not started yet */
 118:MCSDK_v6.3.2-Full/MotorControl/MCSDK/MCLib/Any/Inc/mp_self_com_ctrl.h ****   RampOngoing, /* Ramp is ongoing */
 119:MCSDK_v6.3.2-Full/MotorControl/MCSDK/MCLib/Any/Inc/mp_self_com_ctrl.h ****   RampSucces,  /* The motor has been accelerated up to the target speed */
 120:MCSDK_v6.3.2-Full/MotorControl/MCSDK/MCLib/Any/Inc/mp_self_com_ctrl.h ****   MotorStill,  /* Motor didn't move at all */
 121:MCSDK_v6.3.2-Full/MotorControl/MCSDK/MCLib/Any/Inc/mp_self_com_ctrl.h ****   LoseControl, /* Motor start to follow acceleration but didn't reach the target speed */
 122:MCSDK_v6.3.2-Full/MotorControl/MCSDK/MCLib/Any/Inc/mp_self_com_ctrl.h **** } AccResult_t;
 123:MCSDK_v6.3.2-Full/MotorControl/MCSDK/MCLib/Any/Inc/mp_self_com_ctrl.h **** 
 124:MCSDK_v6.3.2-Full/MotorControl/MCSDK/MCLib/Any/Inc/mp_self_com_ctrl.h **** 
 125:MCSDK_v6.3.2-Full/MotorControl/MCSDK/MCLib/Any/Inc/mp_self_com_ctrl.h **** /**
 126:MCSDK_v6.3.2-Full/MotorControl/MCSDK/MCLib/Any/Inc/mp_self_com_ctrl.h ****   * @brief  SelfComCtrl parameters definition
 127:MCSDK_v6.3.2-Full/MotorControl/MCSDK/MCLib/Any/Inc/mp_self_com_ctrl.h ****   */
 128:MCSDK_v6.3.2-Full/MotorControl/MCSDK/MCLib/Any/Inc/mp_self_com_ctrl.h **** typedef struct
 129:MCSDK_v6.3.2-Full/MotorControl/MCSDK/MCLib/Any/Inc/mp_self_com_ctrl.h **** {
 130:MCSDK_v6.3.2-Full/MotorControl/MCSDK/MCLib/Any/Inc/mp_self_com_ctrl.h ****   RampExtMngr_Handle_t rampExtMngrParams; /*!< Ramp manager used by SCC.*/
 131:MCSDK_v6.3.2-Full/MotorControl/MCSDK/MCLib/Any/Inc/mp_self_com_ctrl.h ****   float fRshunt;                         /*!< Value of shunt resistor.*/
 132:MCSDK_v6.3.2-Full/MotorControl/MCSDK/MCLib/Any/Inc/mp_self_com_ctrl.h ****   float fAmplificationGain;              /*!< Current sensing amplification gain.*/
ARM GAS  /tmp/ccKFuU3x.s 			page 15


 133:MCSDK_v6.3.2-Full/MotorControl/MCSDK/MCLib/Any/Inc/mp_self_com_ctrl.h ****   float fVbusConvFactor;                 /*!< Bus voltage conversion factor.*/
 134:MCSDK_v6.3.2-Full/MotorControl/MCSDK/MCLib/Any/Inc/mp_self_com_ctrl.h ****   float fVbusPartitioningFactor;         /*!< Bus voltage partitioning factor.
 135:MCSDK_v6.3.2-Full/MotorControl/MCSDK/MCLib/Any/Inc/mp_self_com_ctrl.h ****                                               (Vmcu / Bus voltage conversion factor).*/
 136:MCSDK_v6.3.2-Full/MotorControl/MCSDK/MCLib/Any/Inc/mp_self_com_ctrl.h ****   float fRVNK;                           /*!< Power stage calibration factor.
 137:MCSDK_v6.3.2-Full/MotorControl/MCSDK/MCLib/Any/Inc/mp_self_com_ctrl.h ****                                               (Measured experimentally).*/
 138:MCSDK_v6.3.2-Full/MotorControl/MCSDK/MCLib/Any/Inc/mp_self_com_ctrl.h ****   float fRSMeasCurrLevelMax;             /*!< Maximum level of DC current used
 139:MCSDK_v6.3.2-Full/MotorControl/MCSDK/MCLib/Any/Inc/mp_self_com_ctrl.h ****                                               for RS measurement.*/
 140:MCSDK_v6.3.2-Full/MotorControl/MCSDK/MCLib/Any/Inc/mp_self_com_ctrl.h ****   uint16_t hDutyRampDuration;            /*!< Duration of voltage ramp executed
 141:MCSDK_v6.3.2-Full/MotorControl/MCSDK/MCLib/Any/Inc/mp_self_com_ctrl.h ****                                               for the duty cycle determination
 142:MCSDK_v6.3.2-Full/MotorControl/MCSDK/MCLib/Any/Inc/mp_self_com_ctrl.h ****                                               stage.*/
 143:MCSDK_v6.3.2-Full/MotorControl/MCSDK/MCLib/Any/Inc/mp_self_com_ctrl.h ****   uint16_t hAlignmentDuration;           /*!< Duration of the alignment stage.*/
 144:MCSDK_v6.3.2-Full/MotorControl/MCSDK/MCLib/Any/Inc/mp_self_com_ctrl.h ****   uint16_t hRSDetectionDuration;         /*!< Duration of R detection stage.*/
 145:MCSDK_v6.3.2-Full/MotorControl/MCSDK/MCLib/Any/Inc/mp_self_com_ctrl.h ****   float fLdLqRatio;                      /*!< Ld vs Lq ratio.*/
 146:MCSDK_v6.3.2-Full/MotorControl/MCSDK/MCLib/Any/Inc/mp_self_com_ctrl.h ****   float fCurrentBW;                      /*!< Bandwidth of current regulator.*/
 147:MCSDK_v6.3.2-Full/MotorControl/MCSDK/MCLib/Any/Inc/mp_self_com_ctrl.h ****   uint8_t bPBCharacterization;           /*!< Set to 1 for characterization
 148:MCSDK_v6.3.2-Full/MotorControl/MCSDK/MCLib/Any/Inc/mp_self_com_ctrl.h ****                                               of power board, otherwise false.*/
 149:MCSDK_v6.3.2-Full/MotorControl/MCSDK/MCLib/Any/Inc/mp_self_com_ctrl.h ****   int32_t wNominalSpeed;                 /*!< Nominal speed set by the user expressed in RPM.*/
 150:MCSDK_v6.3.2-Full/MotorControl/MCSDK/MCLib/Any/Inc/mp_self_com_ctrl.h ****   uint16_t hPWMFreqHz;                   /*!< PWM frequency used for the test.*/
 151:MCSDK_v6.3.2-Full/MotorControl/MCSDK/MCLib/Any/Inc/mp_self_com_ctrl.h ****   uint8_t bFOCRepRate;                   /*!< FOC repetition rate used for the test.*/
 152:MCSDK_v6.3.2-Full/MotorControl/MCSDK/MCLib/Any/Inc/mp_self_com_ctrl.h ****   float fMCUPowerSupply;                 /*!< MCU Power Supply */
 153:MCSDK_v6.3.2-Full/MotorControl/MCSDK/MCLib/Any/Inc/mp_self_com_ctrl.h ****   float IThreshold;
 154:MCSDK_v6.3.2-Full/MotorControl/MCSDK/MCLib/Any/Inc/mp_self_com_ctrl.h **** } SCC_Params_t, *pSCC_Params_t;
 155:MCSDK_v6.3.2-Full/MotorControl/MCSDK/MCLib/Any/Inc/mp_self_com_ctrl.h **** 
 156:MCSDK_v6.3.2-Full/MotorControl/MCSDK/MCLib/Any/Inc/mp_self_com_ctrl.h **** /**
 157:MCSDK_v6.3.2-Full/MotorControl/MCSDK/MCLib/Any/Inc/mp_self_com_ctrl.h ****   * * @brief  Handle structure of the SelfComCtrl.
 158:MCSDK_v6.3.2-Full/MotorControl/MCSDK/MCLib/Any/Inc/mp_self_com_ctrl.h ****   */
 159:MCSDK_v6.3.2-Full/MotorControl/MCSDK/MCLib/Any/Inc/mp_self_com_ctrl.h **** typedef struct
 160:MCSDK_v6.3.2-Full/MotorControl/MCSDK/MCLib/Any/Inc/mp_self_com_ctrl.h **** {
 161:MCSDK_v6.3.2-Full/MotorControl/MCSDK/MCLib/Any/Inc/mp_self_com_ctrl.h ****   PWMC_Handle_t *pPWMC;          /*!< Current feedback and PWM object used.*/
 162:MCSDK_v6.3.2-Full/MotorControl/MCSDK/MCLib/Any/Inc/mp_self_com_ctrl.h ****   RDivider_Handle_t *pVBS;           /*!< Bus voltage sensor used.*/
 163:MCSDK_v6.3.2-Full/MotorControl/MCSDK/MCLib/Any/Inc/mp_self_com_ctrl.h ****   pFOCVars_t pFOCVars;  /*!< Related structure of FOC vars.*/
 164:MCSDK_v6.3.2-Full/MotorControl/MCSDK/MCLib/Any/Inc/mp_self_com_ctrl.h ****   MCI_Handle_t  *pMCI;           /*!< State machine of related MC.*/
 165:MCSDK_v6.3.2-Full/MotorControl/MCSDK/MCLib/Any/Inc/mp_self_com_ctrl.h ****   VirtualSpeedSensor_Handle_t *pVSS;            /*!< VSS used.*/
 166:MCSDK_v6.3.2-Full/MotorControl/MCSDK/MCLib/Any/Inc/mp_self_com_ctrl.h ****   CircleLimitation_Handle_t *pCLM;            /*!< Circle limitation used.*/
 167:MCSDK_v6.3.2-Full/MotorControl/MCSDK/MCLib/Any/Inc/mp_self_com_ctrl.h ****   PID_Handle_t *pPIDIq;           /*!< Iq PID used.*/
 168:MCSDK_v6.3.2-Full/MotorControl/MCSDK/MCLib/Any/Inc/mp_self_com_ctrl.h ****   PID_Handle_t *pPIDId;           /*!< Id PID used.*/
 169:MCSDK_v6.3.2-Full/MotorControl/MCSDK/MCLib/Any/Inc/mp_self_com_ctrl.h ****   RevUpCtrl_Handle_t *pRevupCtrl; /*!< RUC used.*/
 170:MCSDK_v6.3.2-Full/MotorControl/MCSDK/MCLib/Any/Inc/mp_self_com_ctrl.h ****   STO_PLL_Handle_t *pSTO;            /*!< State Observer used.*/
 171:MCSDK_v6.3.2-Full/MotorControl/MCSDK/MCLib/Any/Inc/mp_self_com_ctrl.h ****   SpeednTorqCtrl_Handle_t *pSTC;            /*!< Speed and torque controller used.*/
 172:MCSDK_v6.3.2-Full/MotorControl/MCSDK/MCLib/Any/Inc/mp_self_com_ctrl.h ****   OTT_Handle_t *pOTT;
 173:MCSDK_v6.3.2-Full/MotorControl/MCSDK/MCLib/Any/Inc/mp_self_com_ctrl.h ****   HT_Handle_t *pHT;
 174:MCSDK_v6.3.2-Full/MotorControl/MCSDK/MCLib/Any/Inc/mp_self_com_ctrl.h **** 
 175:MCSDK_v6.3.2-Full/MotorControl/MCSDK/MCLib/Any/Inc/mp_self_com_ctrl.h ****   SCC_State_t sm_state; /*!< SCC state machine state.*/
 176:MCSDK_v6.3.2-Full/MotorControl/MCSDK/MCLib/Any/Inc/mp_self_com_ctrl.h ****   RampExtMngr_Handle_t *pREMng;        /*!< Ramp manager used.*/
 177:MCSDK_v6.3.2-Full/MotorControl/MCSDK/MCLib/Any/Inc/mp_self_com_ctrl.h ****   uint16_t hDutyMax;    /*!< Duty cycle to be applied to reach the target current.*/
 178:MCSDK_v6.3.2-Full/MotorControl/MCSDK/MCLib/Any/Inc/mp_self_com_ctrl.h ****   LSDetState_t LSDetState;/*!< Internal state during LS detection. */
 179:MCSDK_v6.3.2-Full/MotorControl/MCSDK/MCLib/Any/Inc/mp_self_com_ctrl.h ****   KEDetState_t KEDetState;/*!< Internal state during KE detection. */
 180:MCSDK_v6.3.2-Full/MotorControl/MCSDK/MCLib/Any/Inc/mp_self_com_ctrl.h **** 
 181:MCSDK_v6.3.2-Full/MotorControl/MCSDK/MCLib/Any/Inc/mp_self_com_ctrl.h ****   float fTPWM;            /*!< PWM period in second. */
 182:MCSDK_v6.3.2-Full/MotorControl/MCSDK/MCLib/Any/Inc/mp_self_com_ctrl.h ****   float fFocRate;         /*!< FOC execution rate. */
 183:MCSDK_v6.3.2-Full/MotorControl/MCSDK/MCLib/Any/Inc/mp_self_com_ctrl.h ****   float fPP;              /*!< Motor poles pairs. */
 184:MCSDK_v6.3.2-Full/MotorControl/MCSDK/MCLib/Any/Inc/mp_self_com_ctrl.h ****   int16_t hMax_voltage;   /*!< Maximum readable voltage. */
 185:MCSDK_v6.3.2-Full/MotorControl/MCSDK/MCLib/Any/Inc/mp_self_com_ctrl.h ****   float fMax_current;     /*!< Maximum readable current. */
 186:MCSDK_v6.3.2-Full/MotorControl/MCSDK/MCLib/Any/Inc/mp_self_com_ctrl.h ****   float fTargetCurr;      /*!< Instantaneous value of target current used for R
 187:MCSDK_v6.3.2-Full/MotorControl/MCSDK/MCLib/Any/Inc/mp_self_com_ctrl.h ****                                estimation.*/
 188:MCSDK_v6.3.2-Full/MotorControl/MCSDK/MCLib/Any/Inc/mp_self_com_ctrl.h ****   float fLastTargetCurr;  /*!< Last value of set nominal current used for R
 189:MCSDK_v6.3.2-Full/MotorControl/MCSDK/MCLib/Any/Inc/mp_self_com_ctrl.h ****                                estimation.*/
ARM GAS  /tmp/ccKFuU3x.s 			page 16


 190:MCSDK_v6.3.2-Full/MotorControl/MCSDK/MCLib/Any/Inc/mp_self_com_ctrl.h ****   float fRSCurrLevelStep; /*!< Step of current used for R estimation.*/
 191:MCSDK_v6.3.2-Full/MotorControl/MCSDK/MCLib/Any/Inc/mp_self_com_ctrl.h ****   float fBusV;            /*!< Stores the last Vbus measurement.*/
 192:MCSDK_v6.3.2-Full/MotorControl/MCSDK/MCLib/Any/Inc/mp_self_com_ctrl.h ****   float fRS;              /*!< Stores the last R estimation.*/
 193:MCSDK_v6.3.2-Full/MotorControl/MCSDK/MCLib/Any/Inc/mp_self_com_ctrl.h ****   float fLS;              /*!< Stores the last L estimation.*/
 194:MCSDK_v6.3.2-Full/MotorControl/MCSDK/MCLib/Any/Inc/mp_self_com_ctrl.h ****   float fKe;              /*!< Stores the last Ke estimation.*/
 195:MCSDK_v6.3.2-Full/MotorControl/MCSDK/MCLib/Any/Inc/mp_self_com_ctrl.h ****   float fImaxArray[RSCURRLEVELNUM]; /*!< Array to store current measurement
 196:MCSDK_v6.3.2-Full/MotorControl/MCSDK/MCLib/Any/Inc/mp_self_com_ctrl.h ****                                          values for R estimation.*/
 197:MCSDK_v6.3.2-Full/MotorControl/MCSDK/MCLib/Any/Inc/mp_self_com_ctrl.h ****   float fVmaxArray[RSCURRLEVELNUM]; /*!< Array to store voltage measurement
 198:MCSDK_v6.3.2-Full/MotorControl/MCSDK/MCLib/Any/Inc/mp_self_com_ctrl.h ****                                          values for R estimation.*/
 199:MCSDK_v6.3.2-Full/MotorControl/MCSDK/MCLib/Any/Inc/mp_self_com_ctrl.h ****   uint8_t bRSCurrLevelTests;        /*!< Counter to store I and V values for R
 200:MCSDK_v6.3.2-Full/MotorControl/MCSDK/MCLib/Any/Inc/mp_self_com_ctrl.h ****                                          estimation.*/
 201:MCSDK_v6.3.2-Full/MotorControl/MCSDK/MCLib/Any/Inc/mp_self_com_ctrl.h ****   float fImax;            /*!< Stores the last current measurement done, it
 202:MCSDK_v6.3.2-Full/MotorControl/MCSDK/MCLib/Any/Inc/mp_self_com_ctrl.h ****                                will be used to compute the 63% for electrical
 203:MCSDK_v6.3.2-Full/MotorControl/MCSDK/MCLib/Any/Inc/mp_self_com_ctrl.h ****                                time constant measurement.*/
 204:MCSDK_v6.3.2-Full/MotorControl/MCSDK/MCLib/Any/Inc/mp_self_com_ctrl.h ****   float fItau;            /*!< Stores the last computed electrical time constant.*/
 205:MCSDK_v6.3.2-Full/MotorControl/MCSDK/MCLib/Any/Inc/mp_self_com_ctrl.h ****   uint8_t  bDutyDetTest;  /*!< Number of test done in duty determination phase.*/
 206:MCSDK_v6.3.2-Full/MotorControl/MCSDK/MCLib/Any/Inc/mp_self_com_ctrl.h ****   uint32_t wLSTimeCnt;    /*!< Time counter for LS determination.*/
 207:MCSDK_v6.3.2-Full/MotorControl/MCSDK/MCLib/Any/Inc/mp_self_com_ctrl.h ****   uint32_t wLSTestCnt;    /*!< Counter for LS tests. */
 208:MCSDK_v6.3.2-Full/MotorControl/MCSDK/MCLib/Any/Inc/mp_self_com_ctrl.h ****   float fLSsum;           /*!< Sum of estimated LS for mean.*/
 209:MCSDK_v6.3.2-Full/MotorControl/MCSDK/MCLib/Any/Inc/mp_self_com_ctrl.h ****   float fIsum;            /*!< Sum of measured current for mean.*/
 210:MCSDK_v6.3.2-Full/MotorControl/MCSDK/MCLib/Any/Inc/mp_self_com_ctrl.h ****   float fVsum;            /*!< Sum of estimated voltage for mean.*/
 211:MCSDK_v6.3.2-Full/MotorControl/MCSDK/MCLib/Any/Inc/mp_self_com_ctrl.h ****   uint32_t wICnt;         /*!< Counter of I and V acquired.*/
 212:MCSDK_v6.3.2-Full/MotorControl/MCSDK/MCLib/Any/Inc/mp_self_com_ctrl.h ****   uint32_t index;         /*!< Counter of I and V acquired.*/
 213:MCSDK_v6.3.2-Full/MotorControl/MCSDK/MCLib/Any/Inc/mp_self_com_ctrl.h ****   float fIqsum;           /*!< Sum of measured Iq for mean.*/
 214:MCSDK_v6.3.2-Full/MotorControl/MCSDK/MCLib/Any/Inc/mp_self_com_ctrl.h ****   float fVqsum;           /*!< Sum of measured Vq for mean.*/
 215:MCSDK_v6.3.2-Full/MotorControl/MCSDK/MCLib/Any/Inc/mp_self_com_ctrl.h ****   float fVdsum;           /*!< Sum of measured Vd for mean.*/
 216:MCSDK_v6.3.2-Full/MotorControl/MCSDK/MCLib/Any/Inc/mp_self_com_ctrl.h ****   float fFesum;           /*!< Sum of electrical frequency for mean.*/
 217:MCSDK_v6.3.2-Full/MotorControl/MCSDK/MCLib/Any/Inc/mp_self_com_ctrl.h ****   uint32_t wKeAcqCnt;     /*!< Counter of Iq, Vq and Vd acquired.*/
 218:MCSDK_v6.3.2-Full/MotorControl/MCSDK/MCLib/Any/Inc/mp_self_com_ctrl.h ****   float fEstNominalSpdRPM;/*!< Estimated nominal speed.*/
 219:MCSDK_v6.3.2-Full/MotorControl/MCSDK/MCLib/Any/Inc/mp_self_com_ctrl.h ****   float k1, k2;           /*!< Coefficient computed for state observer tuning.*/
 220:MCSDK_v6.3.2-Full/MotorControl/MCSDK/MCLib/Any/Inc/mp_self_com_ctrl.h ****   int8_t stabCnt;         /*!< Stabilization counter.*/
 221:MCSDK_v6.3.2-Full/MotorControl/MCSDK/MCLib/Any/Inc/mp_self_com_ctrl.h ****   float fLdLqRatio;       /*!< Ld vs Lq ratio.*/
 222:MCSDK_v6.3.2-Full/MotorControl/MCSDK/MCLib/Any/Inc/mp_self_com_ctrl.h ****   int32_t wNominalSpeed;  /*!< Nominal speed set by the user expressed in RPM.*/
 223:MCSDK_v6.3.2-Full/MotorControl/MCSDK/MCLib/Any/Inc/mp_self_com_ctrl.h ****   int32_t wMaxOLSpeed;    /*!< Maximum speed that can be sustained in the startup.*/
 224:MCSDK_v6.3.2-Full/MotorControl/MCSDK/MCLib/Any/Inc/mp_self_com_ctrl.h ****   uint32_t wAccRPMs;      /*!< Acceleration ramp for the motor expressed in
 225:MCSDK_v6.3.2-Full/MotorControl/MCSDK/MCLib/Any/Inc/mp_self_com_ctrl.h ****                                RMP/s.*/
 226:MCSDK_v6.3.2-Full/MotorControl/MCSDK/MCLib/Any/Inc/mp_self_com_ctrl.h ****   bool accRampLock;       /*!< It become true if the motor follow the acceleration. */
 227:MCSDK_v6.3.2-Full/MotorControl/MCSDK/MCLib/Any/Inc/mp_self_com_ctrl.h ****   float fEm_val[EMF_BUFF_VAL]; /*!< Buffer used for linear regression (BEMF amplitude).*/
 228:MCSDK_v6.3.2-Full/MotorControl/MCSDK/MCLib/Any/Inc/mp_self_com_ctrl.h ****   float fw_val[EMF_BUFF_VAL]; /*!< Buffer used for linear regression (Angular velocity).*/
 229:MCSDK_v6.3.2-Full/MotorControl/MCSDK/MCLib/Any/Inc/mp_self_com_ctrl.h ****   uint16_t hVal_ctn;       /*!< Counter for the buffer used for linear regression.*/
 230:MCSDK_v6.3.2-Full/MotorControl/MCSDK/MCLib/Any/Inc/mp_self_com_ctrl.h ****   bool startComputation;  /*!< It becomes true if the buffer used for linear
 231:MCSDK_v6.3.2-Full/MotorControl/MCSDK/MCLib/Any/Inc/mp_self_com_ctrl.h ****                                regression has been filled.*/
 232:MCSDK_v6.3.2-Full/MotorControl/MCSDK/MCLib/Any/Inc/mp_self_com_ctrl.h ****   uint16_t hTimeOutCnt;    /*!< Time out counter to assert the motor still
 233:MCSDK_v6.3.2-Full/MotorControl/MCSDK/MCLib/Any/Inc/mp_self_com_ctrl.h ****                                condition during acceleration ramp.*/
 234:MCSDK_v6.3.2-Full/MotorControl/MCSDK/MCLib/Any/Inc/mp_self_com_ctrl.h ****   uint32_t wLoseControlAtRPM; /*!< Last speed forced before loosing control during
 235:MCSDK_v6.3.2-Full/MotorControl/MCSDK/MCLib/Any/Inc/mp_self_com_ctrl.h ****                                  acceleration ramp.*/
 236:MCSDK_v6.3.2-Full/MotorControl/MCSDK/MCLib/Any/Inc/mp_self_com_ctrl.h ****   AccResult_t res;        /*!< Result state of the last acceleration ramp.*/
 237:MCSDK_v6.3.2-Full/MotorControl/MCSDK/MCLib/Any/Inc/mp_self_com_ctrl.h ****   float fLastValidI;      /*!< Last valid current measurement during SCC_DUTY_DETECTING_PHASE */
 238:MCSDK_v6.3.2-Full/MotorControl/MCSDK/MCLib/Any/Inc/mp_self_com_ctrl.h ****   uint16_t hMFCount;      /*!< Counter of MF to be wait after OC or loose control.*/
 239:MCSDK_v6.3.2-Full/MotorControl/MCSDK/MCLib/Any/Inc/mp_self_com_ctrl.h ****   uint16_t hMFTimeout;      /*!< Counter of MF to be wait after OC or loose control.*/
 240:MCSDK_v6.3.2-Full/MotorControl/MCSDK/MCLib/Any/Inc/mp_self_com_ctrl.h ****   float fCurrentBW;       /*!< Bandwidth of speed regulator.*/
 241:MCSDK_v6.3.2-Full/MotorControl/MCSDK/MCLib/Any/Inc/mp_self_com_ctrl.h ****   uint8_t bMPOngoing;     /*!< It is 1 if MP is ongoing, 0 otherwise.*/
 242:MCSDK_v6.3.2-Full/MotorControl/MCSDK/MCLib/Any/Inc/mp_self_com_ctrl.h ****   uint32_t wSpeedThToValidateStartupRPM; /*!< Speed threshold to validate the startup.*/
 243:MCSDK_v6.3.2-Full/MotorControl/MCSDK/MCLib/Any/Inc/mp_self_com_ctrl.h ****   float IaBuff[256];
 244:MCSDK_v6.3.2-Full/MotorControl/MCSDK/MCLib/Any/Inc/mp_self_com_ctrl.h ****   bool detectBemfState;
 245:MCSDK_v6.3.2-Full/MotorControl/MCSDK/MCLib/Any/Inc/mp_self_com_ctrl.h ****   
 246:MCSDK_v6.3.2-Full/MotorControl/MCSDK/MCLib/Any/Inc/mp_self_com_ctrl.h ****   bool polePairDetection; //profiler ppDetection
ARM GAS  /tmp/ccKFuU3x.s 			page 17


 247:MCSDK_v6.3.2-Full/MotorControl/MCSDK/MCLib/Any/Inc/mp_self_com_ctrl.h ****   uint32_t ppDtcCnt;           /*!< Counter of pole pairs detection time.*/
 248:MCSDK_v6.3.2-Full/MotorControl/MCSDK/MCLib/Any/Inc/mp_self_com_ctrl.h **** 
 249:MCSDK_v6.3.2-Full/MotorControl/MCSDK/MCLib/Any/Inc/mp_self_com_ctrl.h ****   pSCC_Params_t pSCC_Params_str;  /**< SelfComCtrl parameters */
 250:MCSDK_v6.3.2-Full/MotorControl/MCSDK/MCLib/Any/Inc/mp_self_com_ctrl.h **** 
 251:MCSDK_v6.3.2-Full/MotorControl/MCSDK/MCLib/Any/Inc/mp_self_com_ctrl.h **** } SCC_Handle_t;
 252:MCSDK_v6.3.2-Full/MotorControl/MCSDK/MCLib/Any/Inc/mp_self_com_ctrl.h **** 
 253:MCSDK_v6.3.2-Full/MotorControl/MCSDK/MCLib/Any/Inc/mp_self_com_ctrl.h **** 
 254:MCSDK_v6.3.2-Full/MotorControl/MCSDK/MCLib/Any/Inc/mp_self_com_ctrl.h **** /**
 255:MCSDK_v6.3.2-Full/MotorControl/MCSDK/MCLib/Any/Inc/mp_self_com_ctrl.h ****   * @brief  Initializes all the object variables, usually it has to be called
 256:MCSDK_v6.3.2-Full/MotorControl/MCSDK/MCLib/Any/Inc/mp_self_com_ctrl.h ****   *         once right after object creation.
 257:MCSDK_v6.3.2-Full/MotorControl/MCSDK/MCLib/Any/Inc/mp_self_com_ctrl.h ****   * @param  this related object of class CSCC.
 258:MCSDK_v6.3.2-Full/MotorControl/MCSDK/MCLib/Any/Inc/mp_self_com_ctrl.h ****   * @retval none.
 259:MCSDK_v6.3.2-Full/MotorControl/MCSDK/MCLib/Any/Inc/mp_self_com_ctrl.h ****   */
 260:MCSDK_v6.3.2-Full/MotorControl/MCSDK/MCLib/Any/Inc/mp_self_com_ctrl.h **** void SCC_Init(SCC_Handle_t *pHandle);
 261:MCSDK_v6.3.2-Full/MotorControl/MCSDK/MCLib/Any/Inc/mp_self_com_ctrl.h **** /**
 262:MCSDK_v6.3.2-Full/MotorControl/MCSDK/MCLib/Any/Inc/mp_self_com_ctrl.h ****   * @brief  It should be called before each motor restart.
 263:MCSDK_v6.3.2-Full/MotorControl/MCSDK/MCLib/Any/Inc/mp_self_com_ctrl.h ****   * @param this related object of class CSCC.
 264:MCSDK_v6.3.2-Full/MotorControl/MCSDK/MCLib/Any/Inc/mp_self_com_ctrl.h ****   * @retval bool It return false if function fails to start the SCC.
 265:MCSDK_v6.3.2-Full/MotorControl/MCSDK/MCLib/Any/Inc/mp_self_com_ctrl.h ****   */
 266:MCSDK_v6.3.2-Full/MotorControl/MCSDK/MCLib/Any/Inc/mp_self_com_ctrl.h **** bool SCC_Start(SCC_Handle_t *pHandle);
 267:MCSDK_v6.3.2-Full/MotorControl/MCSDK/MCLib/Any/Inc/mp_self_com_ctrl.h **** 
 268:MCSDK_v6.3.2-Full/MotorControl/MCSDK/MCLib/Any/Inc/mp_self_com_ctrl.h **** /**
 269:MCSDK_v6.3.2-Full/MotorControl/MCSDK/MCLib/Any/Inc/mp_self_com_ctrl.h ****   * @brief  It should be called before each motor stop.
 270:MCSDK_v6.3.2-Full/MotorControl/MCSDK/MCLib/Any/Inc/mp_self_com_ctrl.h ****   * @param this related object of class CSCC.
 271:MCSDK_v6.3.2-Full/MotorControl/MCSDK/MCLib/Any/Inc/mp_self_com_ctrl.h ****   * @retval none.
 272:MCSDK_v6.3.2-Full/MotorControl/MCSDK/MCLib/Any/Inc/mp_self_com_ctrl.h ****   */
 273:MCSDK_v6.3.2-Full/MotorControl/MCSDK/MCLib/Any/Inc/mp_self_com_ctrl.h **** void SCC_Stop(SCC_Handle_t *pHandle);
 274:MCSDK_v6.3.2-Full/MotorControl/MCSDK/MCLib/Any/Inc/mp_self_com_ctrl.h **** 
 275:MCSDK_v6.3.2-Full/MotorControl/MCSDK/MCLib/Any/Inc/mp_self_com_ctrl.h **** /**
 276:MCSDK_v6.3.2-Full/MotorControl/MCSDK/MCLib/Any/Inc/mp_self_com_ctrl.h ****   * @brief  It feed the required phase voltage to the inverter.
 277:MCSDK_v6.3.2-Full/MotorControl/MCSDK/MCLib/Any/Inc/mp_self_com_ctrl.h ****   * @param  this related object of class CSCC.
 278:MCSDK_v6.3.2-Full/MotorControl/MCSDK/MCLib/Any/Inc/mp_self_com_ctrl.h ****   * @retval It returns the code error 'MC_DURATION' if any, 'MC_NO_ERROR'
 279:MCSDK_v6.3.2-Full/MotorControl/MCSDK/MCLib/Any/Inc/mp_self_com_ctrl.h ****   *         otherwise. These error codes are defined in mc_type.h
 280:MCSDK_v6.3.2-Full/MotorControl/MCSDK/MCLib/Any/Inc/mp_self_com_ctrl.h ****   */
 281:MCSDK_v6.3.2-Full/MotorControl/MCSDK/MCLib/Any/Inc/mp_self_com_ctrl.h **** uint16_t SCC_SetPhaseVoltage(SCC_Handle_t *pHandle);
 282:MCSDK_v6.3.2-Full/MotorControl/MCSDK/MCLib/Any/Inc/mp_self_com_ctrl.h **** 
 283:MCSDK_v6.3.2-Full/MotorControl/MCSDK/MCLib/Any/Inc/mp_self_com_ctrl.h **** /**
 284:MCSDK_v6.3.2-Full/MotorControl/MCSDK/MCLib/Any/Inc/mp_self_com_ctrl.h ****   * @brief  Medium frequency task.
 285:MCSDK_v6.3.2-Full/MotorControl/MCSDK/MCLib/Any/Inc/mp_self_com_ctrl.h ****   * @param  this related object of class CSCC.
 286:MCSDK_v6.3.2-Full/MotorControl/MCSDK/MCLib/Any/Inc/mp_self_com_ctrl.h ****   * @retval none
 287:MCSDK_v6.3.2-Full/MotorControl/MCSDK/MCLib/Any/Inc/mp_self_com_ctrl.h ****   */
 288:MCSDK_v6.3.2-Full/MotorControl/MCSDK/MCLib/Any/Inc/mp_self_com_ctrl.h **** void SCC_MF(SCC_Handle_t *pHandle);
 289:MCSDK_v6.3.2-Full/MotorControl/MCSDK/MCLib/Any/Inc/mp_self_com_ctrl.h **** 
 290:MCSDK_v6.3.2-Full/MotorControl/MCSDK/MCLib/Any/Inc/mp_self_com_ctrl.h **** /**
 291:MCSDK_v6.3.2-Full/MotorControl/MCSDK/MCLib/Any/Inc/mp_self_com_ctrl.h ****   * @brief  Check overcurrent during RL detetction and restart the procedure
 292:MCSDK_v6.3.2-Full/MotorControl/MCSDK/MCLib/Any/Inc/mp_self_com_ctrl.h ****   *         with less current.
 293:MCSDK_v6.3.2-Full/MotorControl/MCSDK/MCLib/Any/Inc/mp_self_com_ctrl.h ****   * @param  this related object of class CSCC.
 294:MCSDK_v6.3.2-Full/MotorControl/MCSDK/MCLib/Any/Inc/mp_self_com_ctrl.h ****   * @retval none.
 295:MCSDK_v6.3.2-Full/MotorControl/MCSDK/MCLib/Any/Inc/mp_self_com_ctrl.h ****   */
 296:MCSDK_v6.3.2-Full/MotorControl/MCSDK/MCLib/Any/Inc/mp_self_com_ctrl.h **** void SCC_CheckOC_RL(SCC_Handle_t *pHandle);
 297:MCSDK_v6.3.2-Full/MotorControl/MCSDK/MCLib/Any/Inc/mp_self_com_ctrl.h **** 
 298:MCSDK_v6.3.2-Full/MotorControl/MCSDK/MCLib/Any/Inc/mp_self_com_ctrl.h **** /**
 299:MCSDK_v6.3.2-Full/MotorControl/MCSDK/MCLib/Any/Inc/mp_self_com_ctrl.h ****   * @brief  It returns the number of states of Selfcommissioning procedure.
 300:MCSDK_v6.3.2-Full/MotorControl/MCSDK/MCLib/Any/Inc/mp_self_com_ctrl.h ****   * @param  pHandle: handler of SCC component.
 301:MCSDK_v6.3.2-Full/MotorControl/MCSDK/MCLib/Any/Inc/mp_self_com_ctrl.h ****   * @retval uint8_t It returns the state of Selfcommissioning procedure.
 302:MCSDK_v6.3.2-Full/MotorControl/MCSDK/MCLib/Any/Inc/mp_self_com_ctrl.h ****   */
 303:MCSDK_v6.3.2-Full/MotorControl/MCSDK/MCLib/Any/Inc/mp_self_com_ctrl.h **** static inline uint8_t SCC_GetSteps(SCC_Handle_t *pHandle)
ARM GAS  /tmp/ccKFuU3x.s 			page 18


 304:MCSDK_v6.3.2-Full/MotorControl/MCSDK/MCLib/Any/Inc/mp_self_com_ctrl.h **** {
 305:MCSDK_v6.3.2-Full/MotorControl/MCSDK/MCLib/Any/Inc/mp_self_com_ctrl.h ****   return 5u;
 306:MCSDK_v6.3.2-Full/MotorControl/MCSDK/MCLib/Any/Inc/mp_self_com_ctrl.h **** }
 307:MCSDK_v6.3.2-Full/MotorControl/MCSDK/MCLib/Any/Inc/mp_self_com_ctrl.h **** 
 308:MCSDK_v6.3.2-Full/MotorControl/MCSDK/MCLib/Any/Inc/mp_self_com_ctrl.h **** /**
 309:MCSDK_v6.3.2-Full/MotorControl/MCSDK/MCLib/Any/Inc/mp_self_com_ctrl.h ****   * @brief  It returns the measured Rs.
 310:MCSDK_v6.3.2-Full/MotorControl/MCSDK/MCLib/Any/Inc/mp_self_com_ctrl.h ****   * @param  pHandle: handler of SCC component.
 311:MCSDK_v6.3.2-Full/MotorControl/MCSDK/MCLib/Any/Inc/mp_self_com_ctrl.h ****   * @retval uint32_t It returns the measured Rs, it is a floating point number
 312:MCSDK_v6.3.2-Full/MotorControl/MCSDK/MCLib/Any/Inc/mp_self_com_ctrl.h ****   *         codified into a 32bit integer.
 313:MCSDK_v6.3.2-Full/MotorControl/MCSDK/MCLib/Any/Inc/mp_self_com_ctrl.h ****   */
 314:MCSDK_v6.3.2-Full/MotorControl/MCSDK/MCLib/Any/Inc/mp_self_com_ctrl.h **** static inline uint32_t SCC_GetRs(SCC_Handle_t *pHandle)
 315:MCSDK_v6.3.2-Full/MotorControl/MCSDK/MCLib/Any/Inc/mp_self_com_ctrl.h **** {
 316:MCSDK_v6.3.2-Full/MotorControl/MCSDK/MCLib/Any/Inc/mp_self_com_ctrl.h ****   return MCM_floatToIntBit(pHandle->fRS);
 317:MCSDK_v6.3.2-Full/MotorControl/MCSDK/MCLib/Any/Inc/mp_self_com_ctrl.h **** }
 318:MCSDK_v6.3.2-Full/MotorControl/MCSDK/MCLib/Any/Inc/mp_self_com_ctrl.h **** 
 319:MCSDK_v6.3.2-Full/MotorControl/MCSDK/MCLib/Any/Inc/mp_self_com_ctrl.h **** /**
 320:MCSDK_v6.3.2-Full/MotorControl/MCSDK/MCLib/Any/Inc/mp_self_com_ctrl.h ****   * @brief  It returns the measured Ls.
 321:MCSDK_v6.3.2-Full/MotorControl/MCSDK/MCLib/Any/Inc/mp_self_com_ctrl.h ****   * @param  pHandle: handler of SCC component.
 322:MCSDK_v6.3.2-Full/MotorControl/MCSDK/MCLib/Any/Inc/mp_self_com_ctrl.h ****   * @retval uint32_t It returns the measured Ls, it is a floating point number
 323:MCSDK_v6.3.2-Full/MotorControl/MCSDK/MCLib/Any/Inc/mp_self_com_ctrl.h ****   *         codified into a 32bit integer.
 324:MCSDK_v6.3.2-Full/MotorControl/MCSDK/MCLib/Any/Inc/mp_self_com_ctrl.h ****   */
 325:MCSDK_v6.3.2-Full/MotorControl/MCSDK/MCLib/Any/Inc/mp_self_com_ctrl.h **** static inline uint32_t SCC_GetLs(SCC_Handle_t *pHandle)
 326:MCSDK_v6.3.2-Full/MotorControl/MCSDK/MCLib/Any/Inc/mp_self_com_ctrl.h **** {
 327:MCSDK_v6.3.2-Full/MotorControl/MCSDK/MCLib/Any/Inc/mp_self_com_ctrl.h ****   return MCM_floatToIntBit(pHandle->fLS);
 328:MCSDK_v6.3.2-Full/MotorControl/MCSDK/MCLib/Any/Inc/mp_self_com_ctrl.h **** }
 329:MCSDK_v6.3.2-Full/MotorControl/MCSDK/MCLib/Any/Inc/mp_self_com_ctrl.h **** 
 330:MCSDK_v6.3.2-Full/MotorControl/MCSDK/MCLib/Any/Inc/mp_self_com_ctrl.h **** /**
 331:MCSDK_v6.3.2-Full/MotorControl/MCSDK/MCLib/Any/Inc/mp_self_com_ctrl.h ****   * @brief  It returns the measured Ke.
 332:MCSDK_v6.3.2-Full/MotorControl/MCSDK/MCLib/Any/Inc/mp_self_com_ctrl.h ****   * @param  pHandle: handler of SCC component.
 333:MCSDK_v6.3.2-Full/MotorControl/MCSDK/MCLib/Any/Inc/mp_self_com_ctrl.h ****   * @retval uint32_t It returns the measured Ke, it is a floating point number
 334:MCSDK_v6.3.2-Full/MotorControl/MCSDK/MCLib/Any/Inc/mp_self_com_ctrl.h ****   *         codified into a 32bit integer.
 335:MCSDK_v6.3.2-Full/MotorControl/MCSDK/MCLib/Any/Inc/mp_self_com_ctrl.h ****   */
 336:MCSDK_v6.3.2-Full/MotorControl/MCSDK/MCLib/Any/Inc/mp_self_com_ctrl.h **** static inline uint32_t SCC_GetKe(SCC_Handle_t *pHandle)
 337:MCSDK_v6.3.2-Full/MotorControl/MCSDK/MCLib/Any/Inc/mp_self_com_ctrl.h **** {
 338:MCSDK_v6.3.2-Full/MotorControl/MCSDK/MCLib/Any/Inc/mp_self_com_ctrl.h ****   return MCM_floatToIntBit(pHandle->fKe);
 339:MCSDK_v6.3.2-Full/MotorControl/MCSDK/MCLib/Any/Inc/mp_self_com_ctrl.h **** }
 340:MCSDK_v6.3.2-Full/MotorControl/MCSDK/MCLib/Any/Inc/mp_self_com_ctrl.h **** 
 341:MCSDK_v6.3.2-Full/MotorControl/MCSDK/MCLib/Any/Inc/mp_self_com_ctrl.h **** /**
 342:MCSDK_v6.3.2-Full/MotorControl/MCSDK/MCLib/Any/Inc/mp_self_com_ctrl.h ****   * @brief  It returns the measured VBus.
 343:MCSDK_v6.3.2-Full/MotorControl/MCSDK/MCLib/Any/Inc/mp_self_com_ctrl.h ****   * @param  pHandle: handler of SCC component.
 344:MCSDK_v6.3.2-Full/MotorControl/MCSDK/MCLib/Any/Inc/mp_self_com_ctrl.h ****   * @retval uint32_t It returns the measured Vbus, it is a floating point number
 345:MCSDK_v6.3.2-Full/MotorControl/MCSDK/MCLib/Any/Inc/mp_self_com_ctrl.h ****   *         codified into a 32bit integer.
 346:MCSDK_v6.3.2-Full/MotorControl/MCSDK/MCLib/Any/Inc/mp_self_com_ctrl.h ****   */
 347:MCSDK_v6.3.2-Full/MotorControl/MCSDK/MCLib/Any/Inc/mp_self_com_ctrl.h **** static inline uint32_t SCC_GetVbus(SCC_Handle_t *pHandle)
 348:MCSDK_v6.3.2-Full/MotorControl/MCSDK/MCLib/Any/Inc/mp_self_com_ctrl.h **** {
 349:MCSDK_v6.3.2-Full/MotorControl/MCSDK/MCLib/Any/Inc/mp_self_com_ctrl.h ****   return MCM_floatToIntBit(pHandle->fBusV);
 350:MCSDK_v6.3.2-Full/MotorControl/MCSDK/MCLib/Any/Inc/mp_self_com_ctrl.h **** }
 351:MCSDK_v6.3.2-Full/MotorControl/MCSDK/MCLib/Any/Inc/mp_self_com_ctrl.h **** 
 352:MCSDK_v6.3.2-Full/MotorControl/MCSDK/MCLib/Any/Inc/mp_self_com_ctrl.h **** /**
 353:MCSDK_v6.3.2-Full/MotorControl/MCSDK/MCLib/Any/Inc/mp_self_com_ctrl.h ****   * @brief  Sets the number of motor poles pairs.
 354:MCSDK_v6.3.2-Full/MotorControl/MCSDK/MCLib/Any/Inc/mp_self_com_ctrl.h ****   *         This function shall be called before the start
 355:MCSDK_v6.3.2-Full/MotorControl/MCSDK/MCLib/Any/Inc/mp_self_com_ctrl.h ****   *         of the MP procedure.
 356:MCSDK_v6.3.2-Full/MotorControl/MCSDK/MCLib/Any/Inc/mp_self_com_ctrl.h ****   * @param  pHandle: handler of SCC component.
 357:MCSDK_v6.3.2-Full/MotorControl/MCSDK/MCLib/Any/Inc/mp_self_com_ctrl.h ****   * @param  bPP Number of motor poles pairs to be set.
 358:MCSDK_v6.3.2-Full/MotorControl/MCSDK/MCLib/Any/Inc/mp_self_com_ctrl.h ****   * @retval none
 359:MCSDK_v6.3.2-Full/MotorControl/MCSDK/MCLib/Any/Inc/mp_self_com_ctrl.h ****   */
 360:MCSDK_v6.3.2-Full/MotorControl/MCSDK/MCLib/Any/Inc/mp_self_com_ctrl.h **** static inline void SCC_SetPolesPairs(SCC_Handle_t *pHandle, uint8_t bPP)
ARM GAS  /tmp/ccKFuU3x.s 			page 19


 361:MCSDK_v6.3.2-Full/MotorControl/MCSDK/MCLib/Any/Inc/mp_self_com_ctrl.h **** {
 362:MCSDK_v6.3.2-Full/MotorControl/MCSDK/MCLib/Any/Inc/mp_self_com_ctrl.h ****   pHandle->fPP = (float)(bPP);
 363:MCSDK_v6.3.2-Full/MotorControl/MCSDK/MCLib/Any/Inc/mp_self_com_ctrl.h **** }
 364:MCSDK_v6.3.2-Full/MotorControl/MCSDK/MCLib/Any/Inc/mp_self_com_ctrl.h **** 
 365:MCSDK_v6.3.2-Full/MotorControl/MCSDK/MCLib/Any/Inc/mp_self_com_ctrl.h **** /**
 366:MCSDK_v6.3.2-Full/MotorControl/MCSDK/MCLib/Any/Inc/mp_self_com_ctrl.h ****   * @brief  Get the nominal current used for RL determination.
 367:MCSDK_v6.3.2-Full/MotorControl/MCSDK/MCLib/Any/Inc/mp_self_com_ctrl.h ****   * @param  pHandle: handler of SCC component.
 368:MCSDK_v6.3.2-Full/MotorControl/MCSDK/MCLib/Any/Inc/mp_self_com_ctrl.h ****   * @retval float Nominal current used for RL determination.
 369:MCSDK_v6.3.2-Full/MotorControl/MCSDK/MCLib/Any/Inc/mp_self_com_ctrl.h ****   */
 370:MCSDK_v6.3.2-Full/MotorControl/MCSDK/MCLib/Any/Inc/mp_self_com_ctrl.h **** static inline float SCC_GetNominalCurrent(SCC_Handle_t *pHandle)
 371:MCSDK_v6.3.2-Full/MotorControl/MCSDK/MCLib/Any/Inc/mp_self_com_ctrl.h **** {
 372:MCSDK_v6.3.2-Full/MotorControl/MCSDK/MCLib/Any/Inc/mp_self_com_ctrl.h ****   return pHandle->fLastTargetCurr;
 373:MCSDK_v6.3.2-Full/MotorControl/MCSDK/MCLib/Any/Inc/mp_self_com_ctrl.h **** }
 374:MCSDK_v6.3.2-Full/MotorControl/MCSDK/MCLib/Any/Inc/mp_self_com_ctrl.h **** 
 375:MCSDK_v6.3.2-Full/MotorControl/MCSDK/MCLib/Any/Inc/mp_self_com_ctrl.h **** /**
 376:MCSDK_v6.3.2-Full/MotorControl/MCSDK/MCLib/Any/Inc/mp_self_com_ctrl.h ****   * @brief  Set the Ld/Lq ratio.
 377:MCSDK_v6.3.2-Full/MotorControl/MCSDK/MCLib/Any/Inc/mp_self_com_ctrl.h ****   *         This function shall be called before the start
 378:MCSDK_v6.3.2-Full/MotorControl/MCSDK/MCLib/Any/Inc/mp_self_com_ctrl.h ****   *         of the MP procedure.
 379:MCSDK_v6.3.2-Full/MotorControl/MCSDK/MCLib/Any/Inc/mp_self_com_ctrl.h ****   * @param  pHandle: handler of SCC component.
 380:MCSDK_v6.3.2-Full/MotorControl/MCSDK/MCLib/Any/Inc/mp_self_com_ctrl.h ****   * @param  fLdLqRatio New value of Lq/Lq ratio used by MP for tuning of
 381:MCSDK_v6.3.2-Full/MotorControl/MCSDK/MCLib/Any/Inc/mp_self_com_ctrl.h ****             current regulators.
 382:MCSDK_v6.3.2-Full/MotorControl/MCSDK/MCLib/Any/Inc/mp_self_com_ctrl.h ****   * @retval none
 383:MCSDK_v6.3.2-Full/MotorControl/MCSDK/MCLib/Any/Inc/mp_self_com_ctrl.h ****   */
 384:MCSDK_v6.3.2-Full/MotorControl/MCSDK/MCLib/Any/Inc/mp_self_com_ctrl.h **** static inline void SCC_SetLdLqRatio(SCC_Handle_t *pHandle, float fLdLqRatio)
 385:MCSDK_v6.3.2-Full/MotorControl/MCSDK/MCLib/Any/Inc/mp_self_com_ctrl.h **** {
 386:MCSDK_v6.3.2-Full/MotorControl/MCSDK/MCLib/Any/Inc/mp_self_com_ctrl.h ****   pHandle->fLdLqRatio = fLdLqRatio;
 387:MCSDK_v6.3.2-Full/MotorControl/MCSDK/MCLib/Any/Inc/mp_self_com_ctrl.h **** }
 388:MCSDK_v6.3.2-Full/MotorControl/MCSDK/MCLib/Any/Inc/mp_self_com_ctrl.h **** 
 389:MCSDK_v6.3.2-Full/MotorControl/MCSDK/MCLib/Any/Inc/mp_self_com_ctrl.h **** /**
 390:MCSDK_v6.3.2-Full/MotorControl/MCSDK/MCLib/Any/Inc/mp_self_com_ctrl.h ****   * @brief  Get the Ld/Lq ratio.
 391:MCSDK_v6.3.2-Full/MotorControl/MCSDK/MCLib/Any/Inc/mp_self_com_ctrl.h ****   * @param  pHandle: handler of SCC component.
 392:MCSDK_v6.3.2-Full/MotorControl/MCSDK/MCLib/Any/Inc/mp_self_com_ctrl.h ****   * @retval float New value of Lq/Lq ratio used by MP for tuning of
 393:MCSDK_v6.3.2-Full/MotorControl/MCSDK/MCLib/Any/Inc/mp_self_com_ctrl.h ****             current regulators.
 394:MCSDK_v6.3.2-Full/MotorControl/MCSDK/MCLib/Any/Inc/mp_self_com_ctrl.h ****   */
 395:MCSDK_v6.3.2-Full/MotorControl/MCSDK/MCLib/Any/Inc/mp_self_com_ctrl.h **** static inline float SCC_GetLdLqRatio(SCC_Handle_t *pHandle)
 396:MCSDK_v6.3.2-Full/MotorControl/MCSDK/MCLib/Any/Inc/mp_self_com_ctrl.h **** {
 397:MCSDK_v6.3.2-Full/MotorControl/MCSDK/MCLib/Any/Inc/mp_self_com_ctrl.h ****   return pHandle->fLdLqRatio;
 398:MCSDK_v6.3.2-Full/MotorControl/MCSDK/MCLib/Any/Inc/mp_self_com_ctrl.h **** }
 399:MCSDK_v6.3.2-Full/MotorControl/MCSDK/MCLib/Any/Inc/mp_self_com_ctrl.h **** 
 400:MCSDK_v6.3.2-Full/MotorControl/MCSDK/MCLib/Any/Inc/mp_self_com_ctrl.h **** /**
 401:MCSDK_v6.3.2-Full/MotorControl/MCSDK/MCLib/Any/Inc/mp_self_com_ctrl.h ****   * @brief  Get the last nominal speed set by SCC_SetNominalSpeed.
 402:MCSDK_v6.3.2-Full/MotorControl/MCSDK/MCLib/Any/Inc/mp_self_com_ctrl.h ****   *         Note that this is not the estimated one.
 403:MCSDK_v6.3.2-Full/MotorControl/MCSDK/MCLib/Any/Inc/mp_self_com_ctrl.h ****   * @param  pHandle: handler of SCC component.
 404:MCSDK_v6.3.2-Full/MotorControl/MCSDK/MCLib/Any/Inc/mp_self_com_ctrl.h ****   * @retval int32_t Nominal speed expressed in RPM.
 405:MCSDK_v6.3.2-Full/MotorControl/MCSDK/MCLib/Any/Inc/mp_self_com_ctrl.h ****   */
 406:MCSDK_v6.3.2-Full/MotorControl/MCSDK/MCLib/Any/Inc/mp_self_com_ctrl.h **** static inline int32_t SCC_GetNominalSpeed(SCC_Handle_t *pHandle)
 407:MCSDK_v6.3.2-Full/MotorControl/MCSDK/MCLib/Any/Inc/mp_self_com_ctrl.h **** {
 408:MCSDK_v6.3.2-Full/MotorControl/MCSDK/MCLib/Any/Inc/mp_self_com_ctrl.h ****   return pHandle->wNominalSpeed;
 409:MCSDK_v6.3.2-Full/MotorControl/MCSDK/MCLib/Any/Inc/mp_self_com_ctrl.h **** }
 410:MCSDK_v6.3.2-Full/MotorControl/MCSDK/MCLib/Any/Inc/mp_self_com_ctrl.h **** 
 411:MCSDK_v6.3.2-Full/MotorControl/MCSDK/MCLib/Any/Inc/mp_self_com_ctrl.h **** /**
 412:MCSDK_v6.3.2-Full/MotorControl/MCSDK/MCLib/Any/Inc/mp_self_com_ctrl.h ****   * @brief  Get the estimated maximum speed that can be
 413:MCSDK_v6.3.2-Full/MotorControl/MCSDK/MCLib/Any/Inc/mp_self_com_ctrl.h ****   *         sustained in the startup open loop acceleration.
 414:MCSDK_v6.3.2-Full/MotorControl/MCSDK/MCLib/Any/Inc/mp_self_com_ctrl.h ****   *         This function must be called only after that the
 415:MCSDK_v6.3.2-Full/MotorControl/MCSDK/MCLib/Any/Inc/mp_self_com_ctrl.h ****   *         MP procedure is completed successfully.
 416:MCSDK_v6.3.2-Full/MotorControl/MCSDK/MCLib/Any/Inc/mp_self_com_ctrl.h ****   * @param  pHandle: handler of SCC component.
 417:MCSDK_v6.3.2-Full/MotorControl/MCSDK/MCLib/Any/Inc/mp_self_com_ctrl.h ****   * @retval int32_t Estimated maximum open loop speed expressed in RPM.
ARM GAS  /tmp/ccKFuU3x.s 			page 20


 418:MCSDK_v6.3.2-Full/MotorControl/MCSDK/MCLib/Any/Inc/mp_self_com_ctrl.h ****   */
 419:MCSDK_v6.3.2-Full/MotorControl/MCSDK/MCLib/Any/Inc/mp_self_com_ctrl.h **** static inline int32_t SCC_GetEstMaxOLSpeed(SCC_Handle_t *pHandle)
 420:MCSDK_v6.3.2-Full/MotorControl/MCSDK/MCLib/Any/Inc/mp_self_com_ctrl.h **** {
 421:MCSDK_v6.3.2-Full/MotorControl/MCSDK/MCLib/Any/Inc/mp_self_com_ctrl.h ****   return pHandle->wMaxOLSpeed;
 422:MCSDK_v6.3.2-Full/MotorControl/MCSDK/MCLib/Any/Inc/mp_self_com_ctrl.h **** }
 423:MCSDK_v6.3.2-Full/MotorControl/MCSDK/MCLib/Any/Inc/mp_self_com_ctrl.h **** 
 424:MCSDK_v6.3.2-Full/MotorControl/MCSDK/MCLib/Any/Inc/mp_self_com_ctrl.h **** /**
 425:MCSDK_v6.3.2-Full/MotorControl/MCSDK/MCLib/Any/Inc/mp_self_com_ctrl.h ****   * @brief  Get the estimated maximum acceleration that can be
 426:MCSDK_v6.3.2-Full/MotorControl/MCSDK/MCLib/Any/Inc/mp_self_com_ctrl.h ****   *         sustained in the startup using the estimated
 427:MCSDK_v6.3.2-Full/MotorControl/MCSDK/MCLib/Any/Inc/mp_self_com_ctrl.h ****   *         startup current. You can retrieve the max startup
 428:MCSDK_v6.3.2-Full/MotorControl/MCSDK/MCLib/Any/Inc/mp_self_com_ctrl.h ****   *         current using the SCC_GetStartupCurrentX function.
 429:MCSDK_v6.3.2-Full/MotorControl/MCSDK/MCLib/Any/Inc/mp_self_com_ctrl.h ****   *         This function must be called only after that the
 430:MCSDK_v6.3.2-Full/MotorControl/MCSDK/MCLib/Any/Inc/mp_self_com_ctrl.h ****   *         MP procedure is completed successfully.
 431:MCSDK_v6.3.2-Full/MotorControl/MCSDK/MCLib/Any/Inc/mp_self_com_ctrl.h ****   * @param  pHandle: handler of SCC component.
 432:MCSDK_v6.3.2-Full/MotorControl/MCSDK/MCLib/Any/Inc/mp_self_com_ctrl.h ****   * @retval int32_t Estimated maximum open loop acceleration
 433:MCSDK_v6.3.2-Full/MotorControl/MCSDK/MCLib/Any/Inc/mp_self_com_ctrl.h ****   *         expressed in RPM/s.
 434:MCSDK_v6.3.2-Full/MotorControl/MCSDK/MCLib/Any/Inc/mp_self_com_ctrl.h ****   */
 435:MCSDK_v6.3.2-Full/MotorControl/MCSDK/MCLib/Any/Inc/mp_self_com_ctrl.h **** static inline int32_t SCC_GetEstMaxAcceleration(SCC_Handle_t *pHandle)
 436:MCSDK_v6.3.2-Full/MotorControl/MCSDK/MCLib/Any/Inc/mp_self_com_ctrl.h **** {
 437:MCSDK_v6.3.2-Full/MotorControl/MCSDK/MCLib/Any/Inc/mp_self_com_ctrl.h ****   return pHandle->wAccRPMs;
 438:MCSDK_v6.3.2-Full/MotorControl/MCSDK/MCLib/Any/Inc/mp_self_com_ctrl.h **** }
 439:MCSDK_v6.3.2-Full/MotorControl/MCSDK/MCLib/Any/Inc/mp_self_com_ctrl.h **** 
 440:MCSDK_v6.3.2-Full/MotorControl/MCSDK/MCLib/Any/Inc/mp_self_com_ctrl.h **** /**
 441:MCSDK_v6.3.2-Full/MotorControl/MCSDK/MCLib/Any/Inc/mp_self_com_ctrl.h ****   * @brief  Get the estimated maximum startup current that
 442:MCSDK_v6.3.2-Full/MotorControl/MCSDK/MCLib/Any/Inc/mp_self_com_ctrl.h ****   *         can be applied to the selected motor.
 443:MCSDK_v6.3.2-Full/MotorControl/MCSDK/MCLib/Any/Inc/mp_self_com_ctrl.h ****   *         This function must be called only after that the
 444:MCSDK_v6.3.2-Full/MotorControl/MCSDK/MCLib/Any/Inc/mp_self_com_ctrl.h ****   *         MP procedure is completed successfully.
 445:MCSDK_v6.3.2-Full/MotorControl/MCSDK/MCLib/Any/Inc/mp_self_com_ctrl.h ****   * @param  pHandle: handler of SCC component.
 446:MCSDK_v6.3.2-Full/MotorControl/MCSDK/MCLib/Any/Inc/mp_self_com_ctrl.h ****   * @retval int16_t Estimated maximum open loop current
 447:MCSDK_v6.3.2-Full/MotorControl/MCSDK/MCLib/Any/Inc/mp_self_com_ctrl.h ****   *         expressed in Ampere.
 448:MCSDK_v6.3.2-Full/MotorControl/MCSDK/MCLib/Any/Inc/mp_self_com_ctrl.h ****   */
 449:MCSDK_v6.3.2-Full/MotorControl/MCSDK/MCLib/Any/Inc/mp_self_com_ctrl.h **** static inline float SCC_GetStartupCurrentAmp(SCC_Handle_t *pHandle)
 450:MCSDK_v6.3.2-Full/MotorControl/MCSDK/MCLib/Any/Inc/mp_self_com_ctrl.h **** {
 451:MCSDK_v6.3.2-Full/MotorControl/MCSDK/MCLib/Any/Inc/mp_self_com_ctrl.h ****   return pHandle->fLastTargetCurr;
 452:MCSDK_v6.3.2-Full/MotorControl/MCSDK/MCLib/Any/Inc/mp_self_com_ctrl.h **** }
 453:MCSDK_v6.3.2-Full/MotorControl/MCSDK/MCLib/Any/Inc/mp_self_com_ctrl.h **** 
 454:MCSDK_v6.3.2-Full/MotorControl/MCSDK/MCLib/Any/Inc/mp_self_com_ctrl.h **** /**
 455:MCSDK_v6.3.2-Full/MotorControl/MCSDK/MCLib/Any/Inc/mp_self_com_ctrl.h ****   * @brief  Set the bandwidth used to tune the current regulators.
 456:MCSDK_v6.3.2-Full/MotorControl/MCSDK/MCLib/Any/Inc/mp_self_com_ctrl.h ****   *         This function shall be called before the start
 457:MCSDK_v6.3.2-Full/MotorControl/MCSDK/MCLib/Any/Inc/mp_self_com_ctrl.h ****   *         of the MP procedure.
 458:MCSDK_v6.3.2-Full/MotorControl/MCSDK/MCLib/Any/Inc/mp_self_com_ctrl.h ****   * @param  pHandle: handler of SCC component.
 459:MCSDK_v6.3.2-Full/MotorControl/MCSDK/MCLib/Any/Inc/mp_self_com_ctrl.h ****   * @param  fCurrentBW Bandwidth used to tune the current regulators expressed in rad/s.
 460:MCSDK_v6.3.2-Full/MotorControl/MCSDK/MCLib/Any/Inc/mp_self_com_ctrl.h ****   * @retval none
 461:MCSDK_v6.3.2-Full/MotorControl/MCSDK/MCLib/Any/Inc/mp_self_com_ctrl.h ****   */
 462:MCSDK_v6.3.2-Full/MotorControl/MCSDK/MCLib/Any/Inc/mp_self_com_ctrl.h **** static inline void SCC_SetCurrentBandwidth(SCC_Handle_t *pHandle, float fCurrentBW)
 463:MCSDK_v6.3.2-Full/MotorControl/MCSDK/MCLib/Any/Inc/mp_self_com_ctrl.h **** {
 464:MCSDK_v6.3.2-Full/MotorControl/MCSDK/MCLib/Any/Inc/mp_self_com_ctrl.h ****   pHandle->fCurrentBW = fCurrentBW;
 465:MCSDK_v6.3.2-Full/MotorControl/MCSDK/MCLib/Any/Inc/mp_self_com_ctrl.h **** }
 466:MCSDK_v6.3.2-Full/MotorControl/MCSDK/MCLib/Any/Inc/mp_self_com_ctrl.h **** 
 467:MCSDK_v6.3.2-Full/MotorControl/MCSDK/MCLib/Any/Inc/mp_self_com_ctrl.h **** /**
 468:MCSDK_v6.3.2-Full/MotorControl/MCSDK/MCLib/Any/Inc/mp_self_com_ctrl.h ****   * @brief  Get the bandwidth used to tune the current regulators.
 469:MCSDK_v6.3.2-Full/MotorControl/MCSDK/MCLib/Any/Inc/mp_self_com_ctrl.h ****   * @param  pHandle: handler of SCC component.
 470:MCSDK_v6.3.2-Full/MotorControl/MCSDK/MCLib/Any/Inc/mp_self_com_ctrl.h ****   *         This function must be called only after that the
 471:MCSDK_v6.3.2-Full/MotorControl/MCSDK/MCLib/Any/Inc/mp_self_com_ctrl.h ****   *         MP procedure is completed successfully.
 472:MCSDK_v6.3.2-Full/MotorControl/MCSDK/MCLib/Any/Inc/mp_self_com_ctrl.h ****   * @retval float Bandwidth used to tune the current regulators expressed in
 473:MCSDK_v6.3.2-Full/MotorControl/MCSDK/MCLib/Any/Inc/mp_self_com_ctrl.h ****   *         rad/s.
 474:MCSDK_v6.3.2-Full/MotorControl/MCSDK/MCLib/Any/Inc/mp_self_com_ctrl.h ****   */
ARM GAS  /tmp/ccKFuU3x.s 			page 21


 475:MCSDK_v6.3.2-Full/MotorControl/MCSDK/MCLib/Any/Inc/mp_self_com_ctrl.h **** static inline float SCC_GetCurrentBandwidth(SCC_Handle_t *pHandle)
 476:MCSDK_v6.3.2-Full/MotorControl/MCSDK/MCLib/Any/Inc/mp_self_com_ctrl.h **** {
 477:MCSDK_v6.3.2-Full/MotorControl/MCSDK/MCLib/Any/Inc/mp_self_com_ctrl.h ****   return pHandle->fCurrentBW;
 478:MCSDK_v6.3.2-Full/MotorControl/MCSDK/MCLib/Any/Inc/mp_self_com_ctrl.h **** }
 479:MCSDK_v6.3.2-Full/MotorControl/MCSDK/MCLib/Any/Inc/mp_self_com_ctrl.h **** 
 480:MCSDK_v6.3.2-Full/MotorControl/MCSDK/MCLib/Any/Inc/mp_self_com_ctrl.h **** /**
 481:MCSDK_v6.3.2-Full/MotorControl/MCSDK/MCLib/Any/Inc/mp_self_com_ctrl.h ****   * @brief  Get the PWM frequency used by the test.
 482:MCSDK_v6.3.2-Full/MotorControl/MCSDK/MCLib/Any/Inc/mp_self_com_ctrl.h ****   * @param  pHandle: handler of SCC component.
 483:MCSDK_v6.3.2-Full/MotorControl/MCSDK/MCLib/Any/Inc/mp_self_com_ctrl.h ****   * @retval uint16_t PWM frequency used by the test expressed in Hz.
 484:MCSDK_v6.3.2-Full/MotorControl/MCSDK/MCLib/Any/Inc/mp_self_com_ctrl.h ****   */
 485:MCSDK_v6.3.2-Full/MotorControl/MCSDK/MCLib/Any/Inc/mp_self_com_ctrl.h **** static inline uint16_t SCC_GetPWMFrequencyHz(SCC_Handle_t *pHandle)
 486:MCSDK_v6.3.2-Full/MotorControl/MCSDK/MCLib/Any/Inc/mp_self_com_ctrl.h **** {
 487:MCSDK_v6.3.2-Full/MotorControl/MCSDK/MCLib/Any/Inc/mp_self_com_ctrl.h ****   return pHandle->pSCC_Params_str->hPWMFreqHz;
 488:MCSDK_v6.3.2-Full/MotorControl/MCSDK/MCLib/Any/Inc/mp_self_com_ctrl.h **** }
 489:MCSDK_v6.3.2-Full/MotorControl/MCSDK/MCLib/Any/Inc/mp_self_com_ctrl.h **** 
 490:MCSDK_v6.3.2-Full/MotorControl/MCSDK/MCLib/Any/Inc/mp_self_com_ctrl.h **** /**
 491:MCSDK_v6.3.2-Full/MotorControl/MCSDK/MCLib/Any/Inc/mp_self_com_ctrl.h ****   * @brief  Get the FOC repetition rate. It is the number of PWM
 492:MCSDK_v6.3.2-Full/MotorControl/MCSDK/MCLib/Any/Inc/mp_self_com_ctrl.h ****   *         periods elapsed before executing one FOC control cycle.
 493:MCSDK_v6.3.2-Full/MotorControl/MCSDK/MCLib/Any/Inc/mp_self_com_ctrl.h ****   * @param  pHandle: handler of SCC component.
 494:MCSDK_v6.3.2-Full/MotorControl/MCSDK/MCLib/Any/Inc/mp_self_com_ctrl.h ****   * @retval uint8_t FOC repetition used by the test.
 495:MCSDK_v6.3.2-Full/MotorControl/MCSDK/MCLib/Any/Inc/mp_self_com_ctrl.h ****   */
 496:MCSDK_v6.3.2-Full/MotorControl/MCSDK/MCLib/Any/Inc/mp_self_com_ctrl.h **** static inline uint8_t SCC_GetFOCRepRate(SCC_Handle_t *pHandle)
 497:MCSDK_v6.3.2-Full/MotorControl/MCSDK/MCLib/Any/Inc/mp_self_com_ctrl.h **** {
 498:MCSDK_v6.3.2-Full/MotorControl/MCSDK/MCLib/Any/Inc/mp_self_com_ctrl.h ****   return pHandle->pSCC_Params_str->bFOCRepRate;
 499:MCSDK_v6.3.2-Full/MotorControl/MCSDK/MCLib/Any/Inc/mp_self_com_ctrl.h **** }
 500:MCSDK_v6.3.2-Full/MotorControl/MCSDK/MCLib/Any/Inc/mp_self_com_ctrl.h **** 
 501:MCSDK_v6.3.2-Full/MotorControl/MCSDK/MCLib/Any/Inc/mp_self_com_ctrl.h **** 
 502:MCSDK_v6.3.2-Full/MotorControl/MCSDK/MCLib/Any/Inc/mp_self_com_ctrl.h **** /**
 503:MCSDK_v6.3.2-Full/MotorControl/MCSDK/MCLib/Any/Inc/mp_self_com_ctrl.h ****   * @brief  get OverVoltageThreshold
 504:MCSDK_v6.3.2-Full/MotorControl/MCSDK/MCLib/Any/Inc/mp_self_com_ctrl.h ****   * @param  pHandle: handler of SCC component.
 505:MCSDK_v6.3.2-Full/MotorControl/MCSDK/MCLib/Any/Inc/mp_self_com_ctrl.h ****   * @retval 
 506:MCSDK_v6.3.2-Full/MotorControl/MCSDK/MCLib/Any/Inc/mp_self_com_ctrl.h ****   */
 507:MCSDK_v6.3.2-Full/MotorControl/MCSDK/MCLib/Any/Inc/mp_self_com_ctrl.h **** static inline uint16_t SCC_GetOverVoltageThreshold(SCC_Handle_t *pHandle)
 508:MCSDK_v6.3.2-Full/MotorControl/MCSDK/MCLib/Any/Inc/mp_self_com_ctrl.h **** {
 509:MCSDK_v6.3.2-Full/MotorControl/MCSDK/MCLib/Any/Inc/mp_self_com_ctrl.h ****   return (uint16_t) round(pHandle->pVBS->OverVoltageThreshold*pHandle->pVBS->_Super.ConversionFacto
 510:MCSDK_v6.3.2-Full/MotorControl/MCSDK/MCLib/Any/Inc/mp_self_com_ctrl.h **** }
 511:MCSDK_v6.3.2-Full/MotorControl/MCSDK/MCLib/Any/Inc/mp_self_com_ctrl.h **** 
 512:MCSDK_v6.3.2-Full/MotorControl/MCSDK/MCLib/Any/Inc/mp_self_com_ctrl.h **** /**
 513:MCSDK_v6.3.2-Full/MotorControl/MCSDK/MCLib/Any/Inc/mp_self_com_ctrl.h ****   * @brief  get UnderVoltageThreshold
 514:MCSDK_v6.3.2-Full/MotorControl/MCSDK/MCLib/Any/Inc/mp_self_com_ctrl.h ****   * @param  pHandle: handler of SCC component. 
 515:MCSDK_v6.3.2-Full/MotorControl/MCSDK/MCLib/Any/Inc/mp_self_com_ctrl.h ****   * @retval 
 516:MCSDK_v6.3.2-Full/MotorControl/MCSDK/MCLib/Any/Inc/mp_self_com_ctrl.h ****   */
 517:MCSDK_v6.3.2-Full/MotorControl/MCSDK/MCLib/Any/Inc/mp_self_com_ctrl.h **** static inline uint16_t SCC_GetUnderVoltageThreshold(SCC_Handle_t *pHandle)
 518:MCSDK_v6.3.2-Full/MotorControl/MCSDK/MCLib/Any/Inc/mp_self_com_ctrl.h **** {
 519:MCSDK_v6.3.2-Full/MotorControl/MCSDK/MCLib/Any/Inc/mp_self_com_ctrl.h ****   return (uint16_t) round(pHandle->pVBS->UnderVoltageThreshold*pHandle->pVBS->_Super.ConversionFact
 520:MCSDK_v6.3.2-Full/MotorControl/MCSDK/MCLib/Any/Inc/mp_self_com_ctrl.h **** }
 521:MCSDK_v6.3.2-Full/MotorControl/MCSDK/MCLib/Any/Inc/mp_self_com_ctrl.h **** 
 522:MCSDK_v6.3.2-Full/MotorControl/MCSDK/MCLib/Any/Inc/mp_self_com_ctrl.h **** /**
 523:MCSDK_v6.3.2-Full/MotorControl/MCSDK/MCLib/Any/Inc/mp_self_com_ctrl.h ****   * @brief  set OverVoltage Threshold
 524:MCSDK_v6.3.2-Full/MotorControl/MCSDK/MCLib/Any/Inc/mp_self_com_ctrl.h ****   * @param  pHandle: handler of SCC component. 
 525:MCSDK_v6.3.2-Full/MotorControl/MCSDK/MCLib/Any/Inc/mp_self_com_ctrl.h ****   * @param value: value of new overvoltage Threshold
 526:MCSDK_v6.3.2-Full/MotorControl/MCSDK/MCLib/Any/Inc/mp_self_com_ctrl.h ****   * @retval 
 527:MCSDK_v6.3.2-Full/MotorControl/MCSDK/MCLib/Any/Inc/mp_self_com_ctrl.h ****   */
 528:MCSDK_v6.3.2-Full/MotorControl/MCSDK/MCLib/Any/Inc/mp_self_com_ctrl.h **** static inline void SCC_SetOverVoltageThreshold(SCC_Handle_t *pHandle,uint16_t value)
 529:MCSDK_v6.3.2-Full/MotorControl/MCSDK/MCLib/Any/Inc/mp_self_com_ctrl.h **** {
 530:MCSDK_v6.3.2-Full/MotorControl/MCSDK/MCLib/Any/Inc/mp_self_com_ctrl.h ****   pHandle->pVBS->OverVoltageThreshold = (uint16_t)((value*65535)/pHandle->pVBS->_Super.ConversionFa
 531:MCSDK_v6.3.2-Full/MotorControl/MCSDK/MCLib/Any/Inc/mp_self_com_ctrl.h **** }
ARM GAS  /tmp/ccKFuU3x.s 			page 22


 532:MCSDK_v6.3.2-Full/MotorControl/MCSDK/MCLib/Any/Inc/mp_self_com_ctrl.h **** 
 533:MCSDK_v6.3.2-Full/MotorControl/MCSDK/MCLib/Any/Inc/mp_self_com_ctrl.h **** /**
 534:MCSDK_v6.3.2-Full/MotorControl/MCSDK/MCLib/Any/Inc/mp_self_com_ctrl.h ****   * @brief  set UnderVoltage Threshold
 535:MCSDK_v6.3.2-Full/MotorControl/MCSDK/MCLib/Any/Inc/mp_self_com_ctrl.h ****   * @param  pHandle: handler of SCC component.
 536:MCSDK_v6.3.2-Full/MotorControl/MCSDK/MCLib/Any/Inc/mp_self_com_ctrl.h ****   * @param value: value of new UnderVoltage Threshold 
 537:MCSDK_v6.3.2-Full/MotorControl/MCSDK/MCLib/Any/Inc/mp_self_com_ctrl.h ****   * @retval 
 538:MCSDK_v6.3.2-Full/MotorControl/MCSDK/MCLib/Any/Inc/mp_self_com_ctrl.h ****   */
 539:MCSDK_v6.3.2-Full/MotorControl/MCSDK/MCLib/Any/Inc/mp_self_com_ctrl.h **** static inline void SCC_SetUnderVoltageThreshold(SCC_Handle_t *pHandle,uint16_t value)
 285              		.loc 2 539 20 view .LVU79
 286              	.LBB107:
 540:MCSDK_v6.3.2-Full/MotorControl/MCSDK/MCLib/Any/Inc/mp_self_com_ctrl.h **** {
 541:MCSDK_v6.3.2-Full/MotorControl/MCSDK/MCLib/Any/Inc/mp_self_com_ctrl.h ****   pHandle->pVBS->UnderVoltageThreshold = (uint16_t)((value*65535)/pHandle->pVBS->_Super.ConversionF
 287              		.loc 2 541 3 view .LVU80
 288              		.loc 2 541 74 is_stmt 0 view .LVU81
 289 0044 A24B     		ldr	r3, .L162
 290 0046 5A68     		ldr	r2, [r3, #4]
 291              	.LVL34:
 292              		.loc 2 541 59 view .LVU82
 293 0048 C5EB0545 		rsb	r5, r5, r5, lsl #16
 294              	.LVL35:
 295              		.loc 2 541 88 view .LVU83
 296 004c 5388     		ldrh	r3, [r2, #2]
 297              		.loc 2 541 66 view .LVU84
 298 004e B5FBF3F3 		udiv	r3, r5, r3
 299              	.LBE107:
 300              	.LBE106:
 301              	.LBE105:
 158:Src/register_interface.c ****   uint8_t motorID=0;
 302              		.loc 1 158 11 view .LVU85
 303 0052 0020     		movs	r0, #0
 304              	.LVL36:
 305              	.LBB116:
 306              	.LBB109:
 307              	.LBB108:
 308              		.loc 2 541 42 view .LVU86
 309 0054 5382     		strh	r3, [r2, #18]	@ movhi
 310              	.LVL37:
 542:MCSDK_v6.3.2-Full/MotorControl/MCSDK/MCLib/Any/Inc/mp_self_com_ctrl.h **** }
 311              		.loc 2 542 1 view .LVU87
 312 0056 09E0     		b	.L41
 313              	.LVL38:
 314              	.L133:
 315              		.loc 2 542 1 view .LVU88
 316              	.LBE108:
 317              	.LBE109:
 318 0058 41F25003 		movw	r3, #4176
 319 005c 9842     		cmp	r0, r3
 320 005e 04D0     		beq	.L106
 321 0060 7BD9     		bls	.L134
 322 0062 41F25033 		movw	r3, #4944
 323 0066 9842     		cmp	r0, r3
 324 0068 70D1     		bne	.L135
 325              	.L106:
 326 006a 0420     		movs	r0, #4
 327              	.LVL39:
 328              	.L41:
 347:Src/register_interface.c ****           break;
ARM GAS  /tmp/ccKFuU3x.s 			page 23


 348:Src/register_interface.c ****         }
 349:Src/register_interface.c **** 
 350:Src/register_interface.c ****         case MC_REG_SC_PWM_FREQUENCY:
 351:Src/register_interface.c ****         {
 352:Src/register_interface.c ****           retVal = MCP_ERROR_RO_REG;
 353:Src/register_interface.c ****           break;
 354:Src/register_interface.c ****         }
 355:Src/register_interface.c **** 
 356:Src/register_interface.c ****         default:
 357:Src/register_interface.c ****         {
 358:Src/register_interface.c ****           retVal = MCP_ERROR_UNKNOWN_REG;
 359:Src/register_interface.c ****           break;
 360:Src/register_interface.c ****         }
 361:Src/register_interface.c ****       }
 362:Src/register_interface.c ****       *size = 2;
 329              		.loc 1 362 7 is_stmt 1 view .LVU89
 330              		.loc 1 362 13 is_stmt 0 view .LVU90
 331 006c 0223     		movs	r3, #2
 332 006e 2380     		strh	r3, [r4]	@ movhi
 363:Src/register_interface.c ****       break;
 333              		.loc 1 363 7 is_stmt 1 view .LVU91
 334              	.LVL40:
 335              	.L40:
 336              		.loc 1 363 7 is_stmt 0 view .LVU92
 337              	.LBE116:
 364:Src/register_interface.c ****     }
 365:Src/register_interface.c **** 
 366:Src/register_interface.c ****     case TYPE_DATA_32BIT:
 367:Src/register_interface.c ****     {
 368:Src/register_interface.c ****       uint32_t regdata32 = *(uint32_t *)data; //cstat !MISRAC2012-Rule-11.3
 369:Src/register_interface.c **** 
 370:Src/register_interface.c ****       switch (regID)
 371:Src/register_interface.c ****       {
 372:Src/register_interface.c ****         case MC_REG_FAULTS_FLAGS:
 373:Src/register_interface.c ****         case MC_REG_SPEED_MEAS:
 374:Src/register_interface.c ****         {
 375:Src/register_interface.c ****           retVal = MCP_ERROR_RO_REG;
 376:Src/register_interface.c ****           break;
 377:Src/register_interface.c ****         }
 378:Src/register_interface.c **** 
 379:Src/register_interface.c ****         case MC_REG_SPEED_REF:
 380:Src/register_interface.c ****         {
 381:Src/register_interface.c ****           MCI_ExecSpeedRamp(pMCIN,((((int16_t)regdata32) * ((int16_t)SPEED_UNIT)) / (int16_t)U_RPM)
 382:Src/register_interface.c ****           break;
 383:Src/register_interface.c ****         }
 384:Src/register_interface.c **** 
 385:Src/register_interface.c ****         case MC_REG_STOPLL_EST_BEMF:
 386:Src/register_interface.c ****         case MC_REG_STOPLL_OBS_BEMF:
 387:Src/register_interface.c ****         {
 388:Src/register_interface.c ****           retVal = MCP_ERROR_RO_REG;
 389:Src/register_interface.c ****           break;
 390:Src/register_interface.c ****         }
 391:Src/register_interface.c **** 
 392:Src/register_interface.c ****         case MC_REG_FF_1Q:
 393:Src/register_interface.c ****         {
 394:Src/register_interface.c ****           FF_M1.wConstant_1Q = (int32_t)regdata32;
 395:Src/register_interface.c ****           break;
ARM GAS  /tmp/ccKFuU3x.s 			page 24


 396:Src/register_interface.c ****         }
 397:Src/register_interface.c **** 
 398:Src/register_interface.c ****         case MC_REG_FF_1D:
 399:Src/register_interface.c ****         {
 400:Src/register_interface.c ****           FF_M1.wConstant_1D = (int32_t)regdata32;
 401:Src/register_interface.c ****           break;
 402:Src/register_interface.c ****         }
 403:Src/register_interface.c **** 
 404:Src/register_interface.c ****         case MC_REG_FF_2:
 405:Src/register_interface.c ****         {
 406:Src/register_interface.c ****           FF_M1.wConstant_2 = (int32_t)regdata32;
 407:Src/register_interface.c ****           break;
 408:Src/register_interface.c ****         }
 409:Src/register_interface.c **** 
 410:Src/register_interface.c ****         case MC_REG_SC_RS:
 411:Src/register_interface.c ****         case MC_REG_SC_LS:
 412:Src/register_interface.c ****         case MC_REG_SC_KE:
 413:Src/register_interface.c ****         case MC_REG_SC_VBUS:
 414:Src/register_interface.c ****         case MC_REG_SC_MEAS_NOMINALSPEED:
 415:Src/register_interface.c ****         {
 416:Src/register_interface.c ****           retVal = MCP_ERROR_RO_REG;
 417:Src/register_interface.c ****           break;
 418:Src/register_interface.c ****         }
 419:Src/register_interface.c **** 
 420:Src/register_interface.c ****         case MC_REG_SC_CURRENT:
 421:Src/register_interface.c ****         { /* Profiler is supported only by series supporting unaligned access */
 422:Src/register_interface.c ****           if(SCC.sm_state==SCC_IDLE || SCC_CALIBRATION_END==SCC.sm_state)
 423:Src/register_interface.c ****           {
 424:Src/register_interface.c ****             float fregdata = *(float*)data; //cstat !MISRAC2012-Rule-11.3
 425:Src/register_interface.c ****             SCC_SetNominalCurrent(&SCC, fregdata);
 426:Src/register_interface.c ****           }
 427:Src/register_interface.c ****           else{
 428:Src/register_interface.c ****               retVal = MCP_ERROR_RO_REG;
 429:Src/register_interface.c ****           }
 430:Src/register_interface.c ****           break;
 431:Src/register_interface.c ****         }
 432:Src/register_interface.c **** 
 433:Src/register_interface.c ****         case MC_REG_SC_SPDBANDWIDTH:
 434:Src/register_interface.c ****         {
 435:Src/register_interface.c ****           float fregdata = *(float*)data; //cstat !MISRAC2012-Rule-11.3
 436:Src/register_interface.c ****           OTT_SetSpeedRegulatorBandwidth(&OTT, fregdata);
 437:Src/register_interface.c ****           break;
 438:Src/register_interface.c ****         }
 439:Src/register_interface.c **** 
 440:Src/register_interface.c ****         case MC_REG_SC_LDLQRATIO:
 441:Src/register_interface.c ****         {
 442:Src/register_interface.c ****           float fregdata = *(float*)data; //cstat !MISRAC2012-Rule-11.3
 443:Src/register_interface.c ****           SCC_SetLdLqRatio(&SCC, fregdata);
 444:Src/register_interface.c ****           break;
 445:Src/register_interface.c ****         }
 446:Src/register_interface.c **** 
 447:Src/register_interface.c ****         case MC_REG_SC_NOMINAL_SPEED:
 448:Src/register_interface.c ****         {
 449:Src/register_interface.c ****           SCC_SetNominalSpeed (&SCC, (int32_t) regdata32);
 450:Src/register_interface.c ****           break;
 451:Src/register_interface.c ****         }
 452:Src/register_interface.c **** 
ARM GAS  /tmp/ccKFuU3x.s 			page 25


 453:Src/register_interface.c ****         case MC_REG_SC_CURRBANDWIDTH:
 454:Src/register_interface.c ****         {
 455:Src/register_interface.c ****           float fregdata = *(float*)data; //cstat !MISRAC2012-Rule-11.3
 456:Src/register_interface.c ****           SCC_SetCurrentBandwidth(&SCC, fregdata);
 457:Src/register_interface.c ****           break;
 458:Src/register_interface.c ****         }
 459:Src/register_interface.c ****         case MC_REG_RESISTOR_OFFSET:
 460:Src/register_interface.c ****         {
 461:Src/register_interface.c ****           float fregdata = *(float*)data;
 462:Src/register_interface.c ****           SCC_SetResistorOffset(&SCC,fregdata);
 463:Src/register_interface.c ****           break;
 464:Src/register_interface.c ****         }
 465:Src/register_interface.c ****         case MC_REG_SC_J:
 466:Src/register_interface.c ****         case MC_REG_SC_F:
 467:Src/register_interface.c ****         case MC_REG_SC_MAX_CURRENT:
 468:Src/register_interface.c ****         case MC_REG_SC_STARTUP_SPEED:
 469:Src/register_interface.c ****         case MC_REG_SC_STARTUP_ACC:
 470:Src/register_interface.c ****         {
 471:Src/register_interface.c ****           retVal = MCP_ERROR_RO_REG;
 472:Src/register_interface.c ****           break;
 473:Src/register_interface.c ****         }
 474:Src/register_interface.c **** 
 475:Src/register_interface.c ****         default:
 476:Src/register_interface.c ****         {
 477:Src/register_interface.c ****           retVal = MCP_ERROR_UNKNOWN_REG;
 478:Src/register_interface.c ****           break;
 479:Src/register_interface.c ****         }
 480:Src/register_interface.c ****       }
 481:Src/register_interface.c ****       *size = 4;
 482:Src/register_interface.c ****       break;
 483:Src/register_interface.c ****     }
 484:Src/register_interface.c **** 
 485:Src/register_interface.c ****     case TYPE_DATA_RAW:
 486:Src/register_interface.c ****     {
 487:Src/register_interface.c ****       uint16_t rawSize = *(uint16_t *)data; //cstat !MISRAC2012-Rule-11.3
 488:Src/register_interface.c ****       /* The size consumed by the structure is the structure size + 2 bytes used to store the size 
 489:Src/register_interface.c ****       *size = rawSize + 2U;
 490:Src/register_interface.c ****       uint8_t *rawData = data; /* rawData points to the first data (after size extraction) */
 491:Src/register_interface.c ****       rawData++;
 492:Src/register_interface.c ****       rawData++;
 493:Src/register_interface.c **** 
 494:Src/register_interface.c ****       if (*size > (uint16_t)dataAvailable)
 495:Src/register_interface.c ****       {
 496:Src/register_interface.c ****         /* The decoded size of the raw structure can not match with transmitted buffer, error in bu
 497:Src/register_interface.c ****            construction */
 498:Src/register_interface.c ****         *size = 0;
 499:Src/register_interface.c ****         retVal = MCP_ERROR_BAD_RAW_FORMAT; /* This error stop the parsing of the CMD buffer */
 500:Src/register_interface.c ****       }
 501:Src/register_interface.c ****       else
 502:Src/register_interface.c ****       {
 503:Src/register_interface.c ****         switch (regID)
 504:Src/register_interface.c ****         {
 505:Src/register_interface.c ****           case MC_REG_APPLICATION_CONFIG:
 506:Src/register_interface.c ****           case MC_REG_GLOBAL_CONFIG:
 507:Src/register_interface.c ****           case MC_REG_FOCFW_CONFIG:
 508:Src/register_interface.c ****           {
 509:Src/register_interface.c ****             retVal = MCP_ERROR_RO_REG;
ARM GAS  /tmp/ccKFuU3x.s 			page 26


 510:Src/register_interface.c ****             break;
 511:Src/register_interface.c ****           }
 512:Src/register_interface.c **** 
 513:Src/register_interface.c ****           case MC_REG_SPEED_RAMP:
 514:Src/register_interface.c ****           {
 515:Src/register_interface.c ****             int32_t rpm;
 516:Src/register_interface.c ****             uint16_t duration;
 517:Src/register_interface.c **** 
 518:Src/register_interface.c ****             rpm = *(int32_t *)rawData; //cstat !MISRAC2012-Rule-11.3
 519:Src/register_interface.c ****             duration = *(uint16_t *)&rawData[4]; //cstat !MISRAC2012-Rule-11.3
 520:Src/register_interface.c ****             MCI_ExecSpeedRamp(pMCIN, (int16_t)((rpm * SPEED_UNIT) / U_RPM), duration);
 521:Src/register_interface.c ****             break;
 522:Src/register_interface.c ****           }
 523:Src/register_interface.c **** 
 524:Src/register_interface.c ****           default:
 525:Src/register_interface.c ****           {
 526:Src/register_interface.c ****             retVal = MCP_ERROR_UNKNOWN_REG;
 527:Src/register_interface.c ****             break;
 528:Src/register_interface.c ****           }
 529:Src/register_interface.c ****         }
 530:Src/register_interface.c ****       }
 531:Src/register_interface.c ****       break;
 532:Src/register_interface.c ****     }
 533:Src/register_interface.c **** 
 534:Src/register_interface.c ****     default:
 535:Src/register_interface.c ****     {
 536:Src/register_interface.c ****       retVal = MCP_ERROR_BAD_DATA_TYPE;
 537:Src/register_interface.c ****       *size =0; /* From this point we are not able anymore to decode the RX buffer */
 538:Src/register_interface.c ****       break;
 539:Src/register_interface.c ****     }
 540:Src/register_interface.c ****   }
 541:Src/register_interface.c ****   return (retVal);
 338              		.loc 1 541 3 is_stmt 1 view .LVU93
 542:Src/register_interface.c **** }
 339              		.loc 1 542 1 is_stmt 0 view .LVU94
 340 0070 03B0     		add	sp, sp, #12
 341              	.LCFI2:
 342              		.cfi_remember_state
 343              		.cfi_def_cfa_offset 12
 344              		@ sp needed
 345 0072 30BD     		pop	{r4, r5, pc}
 346              	.LVL41:
 347              	.L27:
 348              	.LCFI3:
 349              		.cfi_restore_state
 162:Src/register_interface.c ****   {
 350              		.loc 1 162 3 view .LVU95
 351 0074 2829     		cmp	r1, #40
 352 0076 40F0C880 		bne	.L30
 353              	.LBB117:
 487:Src/register_interface.c ****       /* The size consumed by the structure is the structure size + 2 bytes used to store the size 
 354              		.loc 1 487 7 is_stmt 1 view .LVU96
 355              	.LVL42:
 489:Src/register_interface.c ****       uint8_t *rawData = data; /* rawData points to the first data (after size extraction) */
 356              		.loc 1 489 7 view .LVU97
 489:Src/register_interface.c ****       uint8_t *rawData = data; /* rawData points to the first data (after size extraction) */
 357              		.loc 1 489 23 is_stmt 0 view .LVU98
ARM GAS  /tmp/ccKFuU3x.s 			page 27


 358 007a 1388     		ldrh	r3, [r2]
 359              	.LVL43:
 489:Src/register_interface.c ****       uint8_t *rawData = data; /* rawData points to the first data (after size extraction) */
 360              		.loc 1 489 23 view .LVU99
 361 007c 0233     		adds	r3, r3, #2
 362 007e 9BB2     		uxth	r3, r3
 494:Src/register_interface.c ****       {
 363              		.loc 1 494 10 view .LVU100
 364 0080 1FFA8CFC 		uxth	ip, ip
 365 0084 6345     		cmp	r3, ip
 489:Src/register_interface.c ****       uint8_t *rawData = data; /* rawData points to the first data (after size extraction) */
 366              		.loc 1 489 13 view .LVU101
 367 0086 2380     		strh	r3, [r4]	@ movhi
 368              	.LVL44:
 490:Src/register_interface.c ****       rawData++;
 369              		.loc 1 490 7 is_stmt 1 view .LVU102
 491:Src/register_interface.c ****       rawData++;
 370              		.loc 1 491 7 view .LVU103
 492:Src/register_interface.c **** 
 371              		.loc 1 492 7 view .LVU104
 494:Src/register_interface.c ****       {
 372              		.loc 1 494 7 view .LVU105
 494:Src/register_interface.c ****       {
 373              		.loc 1 494 10 is_stmt 0 view .LVU106
 374 0088 00F28381 		bhi	.L136
 503:Src/register_interface.c ****         {
 375              		.loc 1 503 9 is_stmt 1 view .LVU107
 376 008c B0F5D47F 		cmp	r0, #424
 377 0090 00F0E181 		beq	.L79
 378 0094 00F2ED81 		bhi	.L124
 379 0098 E828     		cmp	r0, #232
 380 009a 00F08081 		beq	.L125
 381 009e 20F08000 		bic	r0, r0, #128
 382              	.LVL45:
 509:Src/register_interface.c ****             break;
 383              		.loc 1 509 20 is_stmt 0 view .LVU108
 384 00a2 2828     		cmp	r0, #40
 385 00a4 14BF     		ite	ne
 386 00a6 0520     		movne	r0, #5
 387 00a8 0420     		moveq	r0, #4
 388              	.LVL46:
 509:Src/register_interface.c ****             break;
 389              		.loc 1 509 20 view .LVU109
 390              	.LBE117:
 541:Src/register_interface.c **** }
 391              		.loc 1 541 3 is_stmt 1 view .LVU110
 392              		.loc 1 542 1 is_stmt 0 view .LVU111
 393 00aa 03B0     		add	sp, sp, #12
 394              	.LCFI4:
 395              		.cfi_remember_state
 396              		.cfi_def_cfa_offset 12
 397              		@ sp needed
 398 00ac 30BD     		pop	{r4, r5, pc}
 399              	.LVL47:
 400              	.L131:
 401              	.LCFI5:
 402              		.cfi_restore_state
ARM GAS  /tmp/ccKFuU3x.s 			page 28


 403              	.LBB120:
 404              		.loc 1 542 1 view .LVU112
 405 00ae B0F5547F 		cmp	r0, #848
 406 00b2 00F0B581 		beq	.L43
 407 00b6 27D9     		bls	.L137
 408 00b8 B0F58A6F 		cmp	r0, #1104
 409 00bc 00F08281 		beq	.L48
 410 00c0 55D9     		bls	.L138
 411 00c2 B0F5926F 		cmp	r0, #1168
 412 00c6 14D1     		bne	.L139
 312:Src/register_interface.c ****           break;
 413              		.loc 1 312 11 is_stmt 1 view .LVU113
 414 00c8 8248     		ldr	r0, .L162+4
 415              	.LVL48:
 312:Src/register_interface.c ****           break;
 416              		.loc 1 312 11 is_stmt 0 view .LVU114
 417 00ca 29B2     		sxth	r1, r5
 418              	.LVL49:
 312:Src/register_interface.c ****           break;
 419              		.loc 1 312 11 view .LVU115
 420 00cc FFF7FEFF 		bl	PID_SetKP
 421              	.LVL50:
 313:Src/register_interface.c ****         }
 422              		.loc 1 313 11 is_stmt 1 view .LVU116
 423              	.LBE120:
 158:Src/register_interface.c ****   uint8_t motorID=0;
 424              		.loc 1 158 11 is_stmt 0 view .LVU117
 425 00d0 0020     		movs	r0, #0
 426              	.LBB121:
 313:Src/register_interface.c ****         }
 427              		.loc 1 313 11 view .LVU118
 428 00d2 CBE7     		b	.L41
 429              	.LVL51:
 430              	.L132:
 313:Src/register_interface.c ****         }
 431              		.loc 1 313 11 view .LVU119
 432 00d4 B0F5396F 		cmp	r0, #2960
 433 00d8 C7D0     		beq	.L106
 434 00da 21D9     		bls	.L140
 435 00dc B0F5656F 		cmp	r0, #3664
 436 00e0 00F05B81 		beq	.L99
 437 00e4 54D9     		bls	.L141
 438              	.LBE121:
 158:Src/register_interface.c ****   uint8_t motorID=0;
 439              		.loc 1 158 11 view .LVU120
 440 00e6 B0F5696F 		cmp	r0, #3728
 441 00ea 14BF     		ite	ne
 442 00ec 0520     		movne	r0, #5
 443              	.LVL52:
 158:Src/register_interface.c ****   uint8_t motorID=0;
 444              		.loc 1 158 11 view .LVU121
 445 00ee 0020     		moveq	r0, #0
 446 00f0 BCE7     		b	.L41
 447              	.LVL53:
 448              	.L139:
 449              	.LBB122:
 158:Src/register_interface.c ****   uint8_t motorID=0;
ARM GAS  /tmp/ccKFuU3x.s 			page 29


 450              		.loc 1 158 11 view .LVU122
 451 00f2 01D2     		bcs	.L142
 452              	.LVL54:
 453              	.L90:
 358:Src/register_interface.c ****           break;
 454              		.loc 1 358 18 view .LVU123
 455 00f4 0520     		movs	r0, #5
 456              	.LVL55:
 358:Src/register_interface.c ****           break;
 457              		.loc 1 358 18 view .LVU124
 458 00f6 B9E7     		b	.L41
 459              	.LVL56:
 460              	.L142:
 358:Src/register_interface.c ****           break;
 461              		.loc 1 358 18 view .LVU125
 462 00f8 20F04000 		bic	r0, r0, #64
 463              	.LVL57:
 358:Src/register_interface.c ****           break;
 464              		.loc 1 358 18 view .LVU126
 465 00fc B0F5B26F 		cmp	r0, #1424
 466 0100 14BF     		ite	ne
 467 0102 0520     		movne	r0, #5
 468 0104 0420     		moveq	r0, #4
 469 0106 B1E7     		b	.L41
 470              	.LVL58:
 471              	.L137:
 358:Src/register_interface.c ****           break;
 472              		.loc 1 358 18 view .LVU127
 473 0108 D028     		cmp	r0, #208
 474 010a 00F05581 		beq	.L45
 475 010e B0F5887F 		cmp	r0, #272
 476 0112 7FD1     		bne	.L143
 259:Src/register_interface.c ****           break;
 477              		.loc 1 259 11 is_stmt 1 view .LVU128
 478 0114 7048     		ldr	r0, .L162+8
 479              	.LVL59:
 259:Src/register_interface.c ****           break;
 480              		.loc 1 259 11 is_stmt 0 view .LVU129
 481 0116 29B2     		sxth	r1, r5
 482              	.LVL60:
 259:Src/register_interface.c ****           break;
 483              		.loc 1 259 11 view .LVU130
 484 0118 FFF7FEFF 		bl	PID_SetKD
 485              	.LVL61:
 260:Src/register_interface.c ****         }
 486              		.loc 1 260 11 is_stmt 1 view .LVU131
 487              	.LBE122:
 158:Src/register_interface.c ****   uint8_t motorID=0;
 488              		.loc 1 158 11 is_stmt 0 view .LVU132
 489 011c 0020     		movs	r0, #0
 490              	.LBB123:
 260:Src/register_interface.c ****         }
 491              		.loc 1 260 11 view .LVU133
 492 011e A5E7     		b	.L41
 493              	.LVL62:
 494              	.L140:
 260:Src/register_interface.c ****         }
ARM GAS  /tmp/ccKFuU3x.s 			page 30


 495              		.loc 1 260 11 view .LVU134
 496 0120 B0F5256F 		cmp	r0, #2640
 497 0124 A1D0     		beq	.L106
 498 0126 08D9     		bls	.L144
 499 0128 B0F5296F 		cmp	r0, #2704
 500 012c 9DD0     		beq	.L106
 501 012e B0F5356F 		cmp	r0, #2896
 502 0132 14BF     		ite	ne
 503 0134 0520     		movne	r0, #5
 504              	.LVL63:
 260:Src/register_interface.c ****         }
 505              		.loc 1 260 11 view .LVU135
 506 0136 0420     		moveq	r0, #4
 507 0138 98E7     		b	.L41
 508              	.LVL64:
 509              	.L144:
 260:Src/register_interface.c ****         }
 510              		.loc 1 260 11 view .LVU136
 511 013a B0F51D6F 		cmp	r0, #2512
 512 013e 94D0     		beq	.L106
 513 0140 B0F5216F 		cmp	r0, #2576
 514 0144 14BF     		ite	ne
 515 0146 0520     		movne	r0, #5
 516              	.LVL65:
 260:Src/register_interface.c ****         }
 517              		.loc 1 260 11 view .LVU137
 518 0148 0420     		moveq	r0, #4
 519 014a 8FE7     		b	.L41
 520              	.LVL66:
 521              	.L135:
 260:Src/register_interface.c ****         }
 522              		.loc 1 260 11 view .LVU138
 523 014c 41F65833 		movw	r3, #7000
 524 0150 9842     		cmp	r0, r3
 525 0152 14BF     		ite	ne
 526 0154 0520     		movne	r0, #5
 527 0156 0420     		moveq	r0, #4
 528              	.LVL67:
 260:Src/register_interface.c ****         }
 529              		.loc 1 260 11 view .LVU139
 530 0158 88E7     		b	.L41
 531              	.LVL68:
 532              	.L134:
 260:Src/register_interface.c ****         }
 533              		.loc 1 260 11 view .LVU140
 534 015a B0F57D6F 		cmp	r0, #4048
 535 015e 84D0     		beq	.L106
 536 0160 41F21003 		movw	r3, #4112
 537 0164 9842     		cmp	r0, r3
 538 0166 14BF     		ite	ne
 539 0168 0520     		movne	r0, #5
 540 016a 0420     		moveq	r0, #4
 541              	.LVL69:
 260:Src/register_interface.c ****         }
 542              		.loc 1 260 11 view .LVU141
 543 016c 7EE7     		b	.L41
 544              	.LVL70:
ARM GAS  /tmp/ccKFuU3x.s 			page 31


 545              	.L138:
 260:Src/register_interface.c ****         }
 546              		.loc 1 260 11 view .LVU142
 547 016e B0F5647F 		cmp	r0, #912
 548 0172 BFD1     		bne	.L90
 549              	.LBB110:
 297:Src/register_interface.c ****           int16_t hC2;
 550              		.loc 1 297 11 is_stmt 1 view .LVU143
 298:Src/register_interface.c ****           STO_PLL_GetObserverGains(&STO_PLL_M1, &hC1, &hC2);
 551              		.loc 1 298 11 view .LVU144
 299:Src/register_interface.c ****           STO_PLL_SetObserverGains(&STO_PLL_M1, hC1, (int16_t)regdata16);
 552              		.loc 1 299 11 view .LVU145
 553 0174 5948     		ldr	r0, .L162+12
 554              	.LVL71:
 299:Src/register_interface.c ****           STO_PLL_SetObserverGains(&STO_PLL_M1, hC1, (int16_t)regdata16);
 555              		.loc 1 299 11 is_stmt 0 view .LVU146
 556 0176 0DF10602 		add	r2, sp, #6
 557              	.LVL72:
 299:Src/register_interface.c ****           STO_PLL_SetObserverGains(&STO_PLL_M1, hC1, (int16_t)regdata16);
 558              		.loc 1 299 11 view .LVU147
 559 017a 01A9     		add	r1, sp, #4
 560              	.LVL73:
 299:Src/register_interface.c ****           STO_PLL_SetObserverGains(&STO_PLL_M1, hC1, (int16_t)regdata16);
 561              		.loc 1 299 11 view .LVU148
 562 017c FFF7FEFF 		bl	STO_PLL_GetObserverGains
 563              	.LVL74:
 300:Src/register_interface.c ****           break;
 564              		.loc 1 300 11 is_stmt 1 view .LVU149
 565 0180 5648     		ldr	r0, .L162+12
 566 0182 BDF90410 		ldrsh	r1, [sp, #4]
 567 0186 2AB2     		sxth	r2, r5
 568 0188 FFF7FEFF 		bl	STO_PLL_SetObserverGains
 569              	.LVL75:
 301:Src/register_interface.c ****         }
 570              		.loc 1 301 11 view .LVU150
 571              	.LBE110:
 572              	.LBE123:
 158:Src/register_interface.c ****   uint8_t motorID=0;
 573              		.loc 1 158 11 is_stmt 0 view .LVU151
 574 018c 0020     		movs	r0, #0
 575 018e 6DE7     		b	.L41
 576              	.LVL76:
 577              	.L141:
 578              	.LBB124:
 158:Src/register_interface.c ****   uint8_t motorID=0;
 579              		.loc 1 158 11 view .LVU152
 580 0190 B0F5456F 		cmp	r0, #3152
 581 0194 3FF469AF 		beq	.L106
 582 0198 B0F5496F 		cmp	r0, #3216
 583 019c 14BF     		ite	ne
 584 019e 0520     		movne	r0, #5
 585              	.LVL77:
 158:Src/register_interface.c ****   uint8_t motorID=0;
 586              		.loc 1 158 11 view .LVU153
 587 01a0 0420     		moveq	r0, #4
 588 01a2 63E7     		b	.L41
 589              	.LVL78:
ARM GAS  /tmp/ccKFuU3x.s 			page 32


 590              	.L28:
 158:Src/register_interface.c ****   uint8_t motorID=0;
 591              		.loc 1 158 11 view .LVU154
 592              	.LBE124:
 166:Src/register_interface.c ****       {
 593              		.loc 1 166 7 is_stmt 1 view .LVU155
 594 01a4 B0F5916F 		cmp	r0, #1160
 595 01a8 00F01C81 		beq	.L32
 596 01ac 12D8     		bhi	.L33
 597 01ae 8828     		cmp	r0, #136
 598 01b0 00F0F780 		beq	.L34
 599 01b4 24D9     		bls	.L145
 600 01b6 B0F5816F 		cmp	r0, #1032
 601 01ba 00F0E880 		beq	.L86
 602 01be 40F2D180 		bls	.L146
 170:Src/register_interface.c ****             break;
 603              		.loc 1 170 20 is_stmt 0 view .LVU156
 604 01c2 B0F5896F 		cmp	r0, #1096
 605 01c6 14BF     		ite	ne
 606 01c8 0520     		movne	r0, #5
 607              	.LVL79:
 170:Src/register_interface.c ****             break;
 608              		.loc 1 170 20 view .LVU157
 609 01ca 0420     		moveq	r0, #4
 610              	.LVL80:
 611              	.L36:
 236:Src/register_interface.c ****       break;
 612              		.loc 1 236 7 is_stmt 1 view .LVU158
 236:Src/register_interface.c ****       break;
 613              		.loc 1 236 13 is_stmt 0 view .LVU159
 614 01cc 0123     		movs	r3, #1
 615 01ce 2380     		strh	r3, [r4]	@ movhi
 237:Src/register_interface.c ****     }
 616              		.loc 1 237 7 is_stmt 1 view .LVU160
 541:Src/register_interface.c **** }
 617              		.loc 1 541 3 view .LVU161
 618              		.loc 1 542 1 is_stmt 0 view .LVU162
 619 01d0 03B0     		add	sp, sp, #12
 620              	.LCFI6:
 621              		.cfi_remember_state
 622              		.cfi_def_cfa_offset 12
 623              		@ sp needed
 624 01d2 30BD     		pop	{r4, r5, pc}
 625              	.LVL81:
 626              	.L33:
 627              	.LCFI7:
 628              		.cfi_restore_state
 629              		.loc 1 542 1 view .LVU163
 630 01d4 B0F5E96F 		cmp	r0, #1864
 631 01d8 05D1     		bne	.L147
 632              	.LBB125:
 225:Src/register_interface.c ****           SCC_SetPBCharacterization(&SCC,regdataU8);
 633              		.loc 1 225 11 is_stmt 1 view .LVU164
 634              	.LVL82:
 226:Src/register_interface.c ****           break;
 635              		.loc 1 226 11 view .LVU165
 636 01da 3D48     		ldr	r0, .L162
ARM GAS  /tmp/ccKFuU3x.s 			page 33


 637              	.LVL83:
 226:Src/register_interface.c ****           break;
 638              		.loc 1 226 11 is_stmt 0 view .LVU166
 639 01dc 1178     		ldrb	r1, [r2]	@ zero_extendqisi2
 640              	.LVL84:
 226:Src/register_interface.c ****           break;
 641              		.loc 1 226 11 view .LVU167
 642 01de FFF7FEFF 		bl	SCC_SetPBCharacterization
 643              	.LVL85:
 227:Src/register_interface.c ****         }
 644              		.loc 1 227 11 is_stmt 1 view .LVU168
 645              	.LBE125:
 158:Src/register_interface.c ****   uint8_t motorID=0;
 646              		.loc 1 158 11 is_stmt 0 view .LVU169
 647 01e2 0020     		movs	r0, #0
 648              	.LBB126:
 227:Src/register_interface.c ****         }
 649              		.loc 1 227 11 view .LVU170
 650 01e4 F2E7     		b	.L36
 651              	.LVL86:
 652              	.L147:
 227:Src/register_interface.c ****         }
 653              		.loc 1 227 11 view .LVU171
 654              	.LBE126:
 655 01e6 01D9     		bls	.L148
 656 01e8 0520     		movs	r0, #5
 657              	.LVL87:
 227:Src/register_interface.c ****         }
 658              		.loc 1 227 11 view .LVU172
 659 01ea EFE7     		b	.L36
 660              	.LVL88:
 661              	.L148:
 227:Src/register_interface.c ****         }
 662              		.loc 1 227 11 view .LVU173
 663 01ec B0F5996F 		cmp	r0, #1224
 664 01f0 00F0CD80 		beq	.L86
 170:Src/register_interface.c ****             break;
 665              		.loc 1 170 20 view .LVU174
 666 01f4 B0F5A16F 		cmp	r0, #1288
 667 01f8 14BF     		ite	ne
 668 01fa 0520     		movne	r0, #5
 669              	.LVL89:
 170:Src/register_interface.c ****             break;
 670              		.loc 1 170 20 view .LVU175
 671 01fc 0420     		moveq	r0, #4
 672 01fe E5E7     		b	.L36
 673              	.LVL90:
 674              	.L145:
 170:Src/register_interface.c ****             break;
 675              		.loc 1 170 20 view .LVU176
 676 0200 4828     		cmp	r0, #72
 677 0202 14BF     		ite	ne
 678 0204 0520     		movne	r0, #5
 679              	.LVL91:
 170:Src/register_interface.c ****             break;
 680              		.loc 1 170 20 view .LVU177
 681 0206 0420     		moveq	r0, #4
ARM GAS  /tmp/ccKFuU3x.s 			page 34


 682 0208 E0E7     		b	.L36
 683              	.LVL92:
 684              	.L30:
 536:Src/register_interface.c ****       *size =0; /* From this point we are not able anymore to decode the RX buffer */
 685              		.loc 1 536 7 is_stmt 1 view .LVU178
 537:Src/register_interface.c ****       break;
 686              		.loc 1 537 7 view .LVU179
 537:Src/register_interface.c ****       break;
 687              		.loc 1 537 13 is_stmt 0 view .LVU180
 688 020a 0023     		movs	r3, #0
 689              	.LVL93:
 536:Src/register_interface.c ****       *size =0; /* From this point we are not able anymore to decode the RX buffer */
 690              		.loc 1 536 14 view .LVU181
 691 020c 0720     		movs	r0, #7
 692              	.LVL94:
 537:Src/register_interface.c ****       break;
 693              		.loc 1 537 13 view .LVU182
 694 020e 2380     		strh	r3, [r4]	@ movhi
 538:Src/register_interface.c ****     }
 695              		.loc 1 538 7 is_stmt 1 view .LVU183
 696              	.LVL95:
 541:Src/register_interface.c **** }
 697              		.loc 1 541 3 view .LVU184
 698              		.loc 1 542 1 is_stmt 0 view .LVU185
 699 0210 03B0     		add	sp, sp, #12
 700              	.LCFI8:
 701              		.cfi_remember_state
 702              		.cfi_def_cfa_offset 12
 703              		@ sp needed
 704 0212 30BD     		pop	{r4, r5, pc}
 705              	.LVL96:
 706              	.L143:
 707              	.LCFI9:
 708              		.cfi_restore_state
 709              	.LBB127:
 710              		.loc 1 542 1 view .LVU186
 711 0214 9028     		cmp	r0, #144
 712 0216 7FF46DAF 		bne	.L90
 247:Src/register_interface.c ****           break;
 713              		.loc 1 247 11 is_stmt 1 view .LVU187
 714 021a 2F48     		ldr	r0, .L162+8
 715              	.LVL97:
 247:Src/register_interface.c ****           break;
 716              		.loc 1 247 11 is_stmt 0 view .LVU188
 717 021c 29B2     		sxth	r1, r5
 718              	.LVL98:
 247:Src/register_interface.c ****           break;
 719              		.loc 1 247 11 view .LVU189
 720 021e FFF7FEFF 		bl	PID_SetKP
 721              	.LVL99:
 248:Src/register_interface.c ****         }
 722              		.loc 1 248 11 is_stmt 1 view .LVU190
 723              	.LBE127:
 158:Src/register_interface.c ****   uint8_t motorID=0;
 724              		.loc 1 158 11 is_stmt 0 view .LVU191
 725 0222 0020     		movs	r0, #0
 726              	.LBB128:
ARM GAS  /tmp/ccKFuU3x.s 			page 35


 248:Src/register_interface.c ****         }
 727              		.loc 1 248 11 view .LVU192
 728 0224 22E7     		b	.L41
 729              	.LVL100:
 730              	.L26:
 248:Src/register_interface.c ****         }
 731              		.loc 1 248 11 view .LVU193
 732              	.LBE128:
 733              	.LBB129:
 368:Src/register_interface.c **** 
 734              		.loc 1 368 7 is_stmt 1 view .LVU194
 735 0226 41F61803 		movw	r3, #6168
 736              	.LVL101:
 368:Src/register_interface.c **** 
 737              		.loc 1 368 7 is_stmt 0 view .LVU195
 738 022a 9842     		cmp	r0, r3
 368:Src/register_interface.c **** 
 739              		.loc 1 368 16 view .LVU196
 740 022c 1168     		ldr	r1, [r2]
 741              	.LVL102:
 370:Src/register_interface.c ****       {
 742              		.loc 1 370 7 is_stmt 1 view .LVU197
 743 022e 00F00581 		beq	.L60
 744 0232 16D9     		bls	.L149
 745 0234 41F6D803 		movw	r3, #6360
 746 0238 9842     		cmp	r0, r3
 747 023a 00F0EC80 		beq	.L70
 748 023e 63D9     		bls	.L150
 749 0240 41F6D813 		movw	r3, #6616
 750 0244 9842     		cmp	r0, r3
 751 0246 00F0A080 		beq	.L123
 752 024a 16D9     		bls	.L151
 753 024c 41F61853 		movw	r3, #7448
 754 0250 9842     		cmp	r0, r3
 755 0252 75D1     		bne	.L152
 756              	.LBB130:
 461:Src/register_interface.c ****           SCC_SetResistorOffset(&SCC,fregdata);
 757              		.loc 1 461 11 view .LVU198
 758              	.LVL103:
 462:Src/register_interface.c ****           break;
 759              		.loc 1 462 11 view .LVU199
 760 0254 1E48     		ldr	r0, .L162
 761              	.LVL104:
 462:Src/register_interface.c ****           break;
 762              		.loc 1 462 11 is_stmt 0 view .LVU200
 763 0256 00EE101A 		vmov	s0, r1
 764 025a FFF7FEFF 		bl	SCC_SetResistorOffset
 765              	.LVL105:
 463:Src/register_interface.c ****         }
 766              		.loc 1 463 11 is_stmt 1 view .LVU201
 767              	.LBE130:
 768              	.LBE129:
 158:Src/register_interface.c ****   uint8_t motorID=0;
 769              		.loc 1 158 11 is_stmt 0 view .LVU202
 770 025e 0020     		movs	r0, #0
 771              	.LBB151:
 772              	.LBB131:
ARM GAS  /tmp/ccKFuU3x.s 			page 36


 463:Src/register_interface.c ****         }
 773              		.loc 1 463 11 view .LVU203
 774 0260 32E0     		b	.L64
 775              	.LVL106:
 776              	.L149:
 463:Src/register_interface.c ****         }
 777              		.loc 1 463 11 view .LVU204
 778              	.LBE131:
 779 0262 B0F5067F 		cmp	r0, #536
 780 0266 00F0D280 		beq	.L62
 781 026a 0FD9     		bls	.L153
 782 026c B0F5167F 		cmp	r0, #600
 783 0270 28D1     		bne	.L154
 406:Src/register_interface.c ****           break;
 784              		.loc 1 406 11 is_stmt 1 view .LVU205
 406:Src/register_interface.c ****           break;
 785              		.loc 1 406 29 is_stmt 0 view .LVU206
 786 0272 1B4B     		ldr	r3, .L162+16
 787              	.LBE151:
 158:Src/register_interface.c ****   uint8_t motorID=0;
 788              		.loc 1 158 11 view .LVU207
 789 0274 0020     		movs	r0, #0
 790              	.LVL107:
 791              	.LBB152:
 406:Src/register_interface.c ****           break;
 792              		.loc 1 406 29 view .LVU208
 793 0276 5961     		str	r1, [r3, #20]
 407:Src/register_interface.c ****         }
 794              		.loc 1 407 11 is_stmt 1 view .LVU209
 795 0278 26E0     		b	.L64
 796              	.LVL108:
 797              	.L151:
 407:Src/register_interface.c ****         }
 798              		.loc 1 407 11 is_stmt 0 view .LVU210
 799 027a 41F61813 		movw	r3, #6424
 800 027e 9842     		cmp	r0, r3
 801 0280 4FD1     		bne	.L155
 802              	.LBB132:
 455:Src/register_interface.c ****           SCC_SetCurrentBandwidth(&SCC, fregdata);
 803              		.loc 1 455 11 is_stmt 1 view .LVU211
 804              	.LVL109:
 456:Src/register_interface.c ****           break;
 805              		.loc 1 456 11 view .LVU212
 806              	.LBB133:
 807              	.LBI133:
 462:MCSDK_v6.3.2-Full/MotorControl/MCSDK/MCLib/Any/Inc/mp_self_com_ctrl.h **** {
 808              		.loc 2 462 20 view .LVU213
 809              	.LBB134:
 464:MCSDK_v6.3.2-Full/MotorControl/MCSDK/MCLib/Any/Inc/mp_self_com_ctrl.h **** }
 810              		.loc 2 464 3 view .LVU214
 464:MCSDK_v6.3.2-Full/MotorControl/MCSDK/MCLib/Any/Inc/mp_self_com_ctrl.h **** }
 811              		.loc 2 464 23 is_stmt 0 view .LVU215
 812 0282 134B     		ldr	r3, .L162
 813              	.LBE134:
 814              	.LBE133:
 815              	.LBE132:
 816              	.LBE152:
ARM GAS  /tmp/ccKFuU3x.s 			page 37


 158:Src/register_interface.c ****   uint8_t motorID=0;
 817              		.loc 1 158 11 view .LVU216
 818 0284 0020     		movs	r0, #0
 819              	.LVL110:
 820              	.LBB153:
 821              	.LBB137:
 822              	.LBB136:
 823              	.LBB135:
 464:MCSDK_v6.3.2-Full/MotorControl/MCSDK/MCLib/Any/Inc/mp_self_com_ctrl.h **** }
 824              		.loc 2 464 23 view .LVU217
 825 0286 C3F83411 		str	r1, [r3, #308]	@ float
 465:MCSDK_v6.3.2-Full/MotorControl/MCSDK/MCLib/Any/Inc/mp_self_com_ctrl.h **** 
 826              		.loc 2 465 1 view .LVU218
 827 028a 1DE0     		b	.L64
 828              	.LVL111:
 829              	.L153:
 465:MCSDK_v6.3.2-Full/MotorControl/MCSDK/MCLib/Any/Inc/mp_self_com_ctrl.h **** 
 830              		.loc 2 465 1 view .LVU219
 831              	.LBE135:
 832              	.LBE136:
 833              	.LBE137:
 834 028c D828     		cmp	r0, #216
 835 028e 7CD0     		beq	.L123
 836 0290 09D9     		bls	.L156
 837 0292 B0F58C7F 		cmp	r0, #280
 838 0296 78D0     		beq	.L123
 839 0298 B0F5EC7F 		cmp	r0, #472
 840 029c 13D1     		bne	.L121
 394:Src/register_interface.c ****           break;
 841              		.loc 1 394 11 is_stmt 1 view .LVU220
 394:Src/register_interface.c ****           break;
 842              		.loc 1 394 30 is_stmt 0 view .LVU221
 843 029e 104B     		ldr	r3, .L162+16
 844              	.LBE153:
 158:Src/register_interface.c ****   uint8_t motorID=0;
 845              		.loc 1 158 11 view .LVU222
 846 02a0 0020     		movs	r0, #0
 847              	.LVL112:
 848              	.LBB154:
 394:Src/register_interface.c ****           break;
 849              		.loc 1 394 30 view .LVU223
 850 02a2 1961     		str	r1, [r3, #16]
 395:Src/register_interface.c ****         }
 851              		.loc 1 395 11 is_stmt 1 view .LVU224
 852 02a4 10E0     		b	.L64
 853              	.LVL113:
 854              	.L156:
 395:Src/register_interface.c ****         }
 855              		.loc 1 395 11 is_stmt 0 view .LVU225
 856 02a6 9828     		cmp	r0, #152
 857 02a8 54D1     		bne	.L157
 381:Src/register_interface.c ****           break;
 858              		.loc 1 381 11 is_stmt 1 view .LVU226
 859 02aa 0E4B     		ldr	r3, .L162+20
 860 02ac 0E48     		ldr	r0, .L162+24
 861              	.LVL114:
 381:Src/register_interface.c ****           break;
ARM GAS  /tmp/ccKFuU3x.s 			page 38


 862              		.loc 1 381 11 is_stmt 0 view .LVU227
 863 02ae 09B2     		sxth	r1, r1
 864              	.LVL115:
 381:Src/register_interface.c ****           break;
 865              		.loc 1 381 11 view .LVU228
 866 02b0 83FB0123 		smull	r2, r3, r3, r1
 867              	.LVL116:
 381:Src/register_interface.c ****           break;
 868              		.loc 1 381 11 view .LVU229
 869 02b4 A3EBE171 		sub	r1, r3, r1, asr #31
 870 02b8 0022     		movs	r2, #0
 871 02ba 09B2     		sxth	r1, r1
 872 02bc FFF7FEFF 		bl	MCI_ExecSpeedRamp
 873              	.LVL117:
 382:Src/register_interface.c ****         }
 874              		.loc 1 382 11 is_stmt 1 view .LVU230
 875              	.LBE154:
 158:Src/register_interface.c ****   uint8_t motorID=0;
 876              		.loc 1 158 11 is_stmt 0 view .LVU231
 877 02c0 0020     		movs	r0, #0
 878              	.LBB155:
 382:Src/register_interface.c ****         }
 879              		.loc 1 382 11 view .LVU232
 880 02c2 01E0     		b	.L64
 881              	.LVL118:
 882              	.L154:
 382:Src/register_interface.c ****         }
 883              		.loc 1 382 11 view .LVU233
 884 02c4 12D2     		bcs	.L158
 885              	.L121:
 886 02c6 0520     		movs	r0, #5
 887              	.LVL119:
 888              	.L64:
 481:Src/register_interface.c ****       break;
 889              		.loc 1 481 7 is_stmt 1 view .LVU234
 481:Src/register_interface.c ****       break;
 890              		.loc 1 481 13 is_stmt 0 view .LVU235
 891 02c8 0423     		movs	r3, #4
 892 02ca 2380     		strh	r3, [r4]	@ movhi
 482:Src/register_interface.c ****     }
 893              		.loc 1 482 7 is_stmt 1 view .LVU236
 482:Src/register_interface.c ****     }
 894              		.loc 1 482 7 is_stmt 0 view .LVU237
 895              	.LBE155:
 541:Src/register_interface.c **** }
 896              		.loc 1 541 3 is_stmt 1 view .LVU238
 897              		.loc 1 542 1 is_stmt 0 view .LVU239
 898 02cc 03B0     		add	sp, sp, #12
 899              	.LCFI10:
 900              		.cfi_remember_state
 901              		.cfi_def_cfa_offset 12
 902              		@ sp needed
 903 02ce 30BD     		pop	{r4, r5, pc}
 904              	.LVL120:
 905              	.L163:
 906              		.loc 1 542 1 view .LVU240
 907              		.align	2
ARM GAS  /tmp/ccKFuU3x.s 			page 39


 908              	.L162:
 909 02d0 00000000 		.word	SCC
 910 02d4 34000000 		.word	STO_PLL_M1+52
 911 02d8 00000000 		.word	PIDSpeedHandle_M1
 912 02dc 00000000 		.word	STO_PLL_M1
 913 02e0 00000000 		.word	FF_M1
 914 02e4 ABAAAA2A 		.word	715827883
 915 02e8 00000000 		.word	Mci
 916              	.LVL121:
 917              	.L158:
 918              	.LCFI11:
 919              		.cfi_restore_state
 920              	.LBB156:
 921              		.loc 1 542 1 view .LVU241
 922 02ec 41F25873 		movw	r3, #5976
 923 02f0 9842     		cmp	r0, r3
 924 02f2 4AD0     		beq	.L123
 925 02f4 3ED9     		bls	.L159
 926 02f6 20F04000 		bic	r0, r0, #64
 927              	.LVL122:
 928              		.loc 1 542 1 view .LVU242
 929 02fa 41F29873 		movw	r3, #6040
 375:Src/register_interface.c ****           break;
 930              		.loc 1 375 18 view .LVU243
 931 02fe 9842     		cmp	r0, r3
 932 0300 14BF     		ite	ne
 933 0302 0520     		movne	r0, #5
 934 0304 0420     		moveq	r0, #4
 935 0306 DFE7     		b	.L64
 936              	.LVL123:
 937              	.L150:
 375:Src/register_interface.c ****           break;
 938              		.loc 1 375 18 view .LVU244
 939 0308 41F65803 		movw	r3, #6232
 940 030c 9842     		cmp	r0, r3
 941 030e 4FD0     		beq	.L72
 942 0310 41F69803 		movw	r3, #6296
 943 0314 9842     		cmp	r0, r3
 944 0316 D6D1     		bne	.L121
 945              	.LBB138:
 442:Src/register_interface.c ****           SCC_SetLdLqRatio(&SCC, fregdata);
 946              		.loc 1 442 11 is_stmt 1 view .LVU245
 947              	.LVL124:
 443:Src/register_interface.c ****           break;
 948              		.loc 1 443 11 view .LVU246
 949              	.LBB139:
 950              	.LBI139:
 384:MCSDK_v6.3.2-Full/MotorControl/MCSDK/MCLib/Any/Inc/mp_self_com_ctrl.h **** {
 951              		.loc 2 384 20 view .LVU247
 952              	.LBB140:
 386:MCSDK_v6.3.2-Full/MotorControl/MCSDK/MCLib/Any/Inc/mp_self_com_ctrl.h **** }
 953              		.loc 2 386 3 view .LVU248
 386:MCSDK_v6.3.2-Full/MotorControl/MCSDK/MCLib/Any/Inc/mp_self_com_ctrl.h **** }
 954              		.loc 2 386 23 is_stmt 0 view .LVU249
 955 0318 614B     		ldr	r3, .L164
 956              	.LBE140:
 957              	.LBE139:
ARM GAS  /tmp/ccKFuU3x.s 			page 40


 958              	.LBE138:
 959              	.LBE156:
 158:Src/register_interface.c ****   uint8_t motorID=0;
 960              		.loc 1 158 11 view .LVU250
 961 031a 0020     		movs	r0, #0
 962              	.LVL125:
 963              	.LBB157:
 964              	.LBB143:
 965              	.LBB142:
 966              	.LBB141:
 386:MCSDK_v6.3.2-Full/MotorControl/MCSDK/MCLib/Any/Inc/mp_self_com_ctrl.h **** }
 967              		.loc 2 386 23 view .LVU251
 968 031c C3F8E010 		str	r1, [r3, #224]	@ float
 387:MCSDK_v6.3.2-Full/MotorControl/MCSDK/MCLib/Any/Inc/mp_self_com_ctrl.h **** 
 969              		.loc 2 387 1 view .LVU252
 970 0320 D2E7     		b	.L64
 971              	.LVL126:
 972              	.L155:
 387:MCSDK_v6.3.2-Full/MotorControl/MCSDK/MCLib/Any/Inc/mp_self_com_ctrl.h **** 
 973              		.loc 2 387 1 view .LVU253
 974              	.LBE141:
 975              	.LBE142:
 976              	.LBE143:
 977 0322 41F61713 		movw	r3, #6423
 978 0326 9842     		cmp	r0, r3
 979 0328 CDD9     		bls	.L121
 980 032a 41F65813 		movw	r3, #6488
 981 032e 9842     		cmp	r0, r3
 982 0330 2BD0     		beq	.L123
 983 0332 41F69813 		movw	r3, #6552
 375:Src/register_interface.c ****           break;
 984              		.loc 1 375 18 view .LVU254
 985 0336 9842     		cmp	r0, r3
 986 0338 14BF     		ite	ne
 987 033a 0520     		movne	r0, #5
 988 033c 0420     		moveq	r0, #4
 989              	.LVL127:
 375:Src/register_interface.c ****           break;
 990              		.loc 1 375 18 view .LVU255
 991 033e C3E7     		b	.L64
 992              	.LVL128:
 993              	.L152:
 375:Src/register_interface.c ****           break;
 994              		.loc 1 375 18 view .LVU256
 995 0340 C1D8     		bhi	.L121
 996 0342 20F04000 		bic	r0, r0, #64
 997              	.LVL129:
 375:Src/register_interface.c ****           break;
 998              		.loc 1 375 18 view .LVU257
 999 0346 41F61823 		movw	r3, #6680
 1000 034a 9842     		cmp	r0, r3
 1001 034c 14BF     		ite	ne
 1002 034e 0520     		movne	r0, #5
 1003 0350 0420     		moveq	r0, #4
 1004 0352 B9E7     		b	.L64
 1005              	.LVL130:
 1006              	.L157:
ARM GAS  /tmp/ccKFuU3x.s 			page 41


 375:Src/register_interface.c ****           break;
 1007              		.loc 1 375 18 view .LVU258
 1008 0354 B7D8     		bhi	.L121
 1009 0356 20F04000 		bic	r0, r0, #64
 1010              	.LVL131:
 375:Src/register_interface.c ****           break;
 1011              		.loc 1 375 18 view .LVU259
 1012 035a 1828     		cmp	r0, #24
 1013 035c 14BF     		ite	ne
 1014 035e 0520     		movne	r0, #5
 1015 0360 0420     		moveq	r0, #4
 1016 0362 B1E7     		b	.L64
 1017              	.LVL132:
 1018              	.L146:
 375:Src/register_interface.c ****           break;
 1019              		.loc 1 375 18 view .LVU260
 1020              	.LBE157:
 1021 0364 C828     		cmp	r0, #200
 1022 0366 12D0     		beq	.L86
 170:Src/register_interface.c ****             break;
 1023              		.loc 1 170 20 view .LVU261
 1024 0368 B0F5727F 		cmp	r0, #968
 1025 036c 14BF     		ite	ne
 1026 036e 0520     		movne	r0, #5
 1027              	.LVL133:
 170:Src/register_interface.c ****             break;
 1028              		.loc 1 170 20 view .LVU262
 1029 0370 0420     		moveq	r0, #4
 1030 0372 2BE7     		b	.L36
 1031              	.LVL134:
 1032              	.L159:
 1033              	.LBB158:
 170:Src/register_interface.c ****             break;
 1034              		.loc 1 170 20 view .LVU263
 1035 0374 41F2D863 		movw	r3, #5848
 1036 0378 9842     		cmp	r0, r3
 1037 037a 06D0     		beq	.L123
 1038 037c 41F21873 		movw	r3, #5912
 375:Src/register_interface.c ****           break;
 1039              		.loc 1 375 18 view .LVU264
 1040 0380 9842     		cmp	r0, r3
 1041 0382 14BF     		ite	ne
 1042 0384 0520     		movne	r0, #5
 1043 0386 0420     		moveq	r0, #4
 1044              	.LVL135:
 375:Src/register_interface.c ****           break;
 1045              		.loc 1 375 18 view .LVU265
 1046 0388 9EE7     		b	.L64
 1047              	.LVL136:
 1048              	.L123:
 428:Src/register_interface.c ****           }
 1049              		.loc 1 428 22 view .LVU266
 1050 038a 0420     		movs	r0, #4
 1051              	.LVL137:
 428:Src/register_interface.c ****           }
 1052              		.loc 1 428 22 view .LVU267
 1053 038c 9CE7     		b	.L64
ARM GAS  /tmp/ccKFuU3x.s 			page 42


 1054              	.LVL138:
 1055              	.L86:
 428:Src/register_interface.c ****           }
 1056              		.loc 1 428 22 view .LVU268
 1057              	.LBE158:
 170:Src/register_interface.c ****             break;
 1058              		.loc 1 170 20 view .LVU269
 1059 038e 0420     		movs	r0, #4
 1060              	.LVL139:
 170:Src/register_interface.c ****             break;
 1061              		.loc 1 170 20 view .LVU270
 1062 0390 1CE7     		b	.L36
 1063              	.LVL140:
 1064              	.L136:
 1065              	.LBB159:
 498:Src/register_interface.c ****         retVal = MCP_ERROR_BAD_RAW_FORMAT; /* This error stop the parsing of the CMD buffer */
 1066              		.loc 1 498 9 is_stmt 1 view .LVU271
 498:Src/register_interface.c ****         retVal = MCP_ERROR_BAD_RAW_FORMAT; /* This error stop the parsing of the CMD buffer */
 1067              		.loc 1 498 15 is_stmt 0 view .LVU272
 1068 0392 0023     		movs	r3, #0
 1069 0394 2380     		strh	r3, [r4]	@ movhi
 499:Src/register_interface.c ****       }
 1070              		.loc 1 499 9 is_stmt 1 view .LVU273
 1071              	.LVL141:
 499:Src/register_interface.c ****       }
 1072              		.loc 1 499 16 is_stmt 0 view .LVU274
 1073 0396 0A20     		movs	r0, #10
 1074              	.LVL142:
 499:Src/register_interface.c ****       }
 1075              		.loc 1 499 16 view .LVU275
 1076 0398 6AE6     		b	.L40
 1077              	.LVL143:
 1078              	.L99:
 499:Src/register_interface.c ****       }
 1079              		.loc 1 499 16 view .LVU276
 1080              	.LBE159:
 158:Src/register_interface.c ****   uint8_t motorID=0;
 1081              		.loc 1 158 11 view .LVU277
 1082 039a 0020     		movs	r0, #0
 1083              	.LVL144:
 158:Src/register_interface.c ****   uint8_t motorID=0;
 1084              		.loc 1 158 11 view .LVU278
 1085 039c 66E6     		b	.L41
 1086              	.LVL145:
 1087              	.L125:
 1088              	.LBB160:
 509:Src/register_interface.c ****             break;
 1089              		.loc 1 509 20 view .LVU279
 1090 039e 0420     		movs	r0, #4
 1091              	.LVL146:
 509:Src/register_interface.c ****             break;
 1092              		.loc 1 509 20 view .LVU280
 1093 03a0 66E6     		b	.L40
 1094              	.LVL147:
 1095              	.L34:
 509:Src/register_interface.c ****             break;
 1096              		.loc 1 509 20 view .LVU281
ARM GAS  /tmp/ccKFuU3x.s 			page 43


 1097              	.LBE160:
 1098              	.LBB161:
 175:Src/register_interface.c **** 
 1099              		.loc 1 175 11 is_stmt 1 view .LVU282
 175:Src/register_interface.c **** 
 1100              		.loc 1 175 19 is_stmt 0 view .LVU283
 1101 03a2 1378     		ldrb	r3, [r2]	@ zero_extendqisi2
 1102              	.LVL148:
 177:Src/register_interface.c ****           {
 1103              		.loc 1 177 11 is_stmt 1 view .LVU284
 177:Src/register_interface.c ****           {
 1104              		.loc 1 177 14 is_stmt 0 view .LVU285
 1105 03a4 042B     		cmp	r3, #4
 1106 03a6 70D0     		beq	.L160
 185:Src/register_interface.c **** 
 1107              		.loc 1 185 11 is_stmt 1 view .LVU286
 187:Src/register_interface.c ****           {
 1108              		.loc 1 187 11 view .LVU287
 187:Src/register_interface.c ****           {
 1109              		.loc 1 187 14 is_stmt 0 view .LVU288
 1110 03a8 032B     		cmp	r3, #3
 1111 03aa 64D0     		beq	.L161
 1112              	.LBE161:
 158:Src/register_interface.c ****   uint8_t motorID=0;
 1113              		.loc 1 158 11 view .LVU289
 1114 03ac 0020     		movs	r0, #0
 1115              	.LVL149:
 158:Src/register_interface.c ****   uint8_t motorID=0;
 1116              		.loc 1 158 11 view .LVU290
 1117 03ae 0DE7     		b	.L36
 1118              	.LVL150:
 1119              	.L72:
 1120              	.LBB162:
 1121              	.LBB144:
 435:Src/register_interface.c ****           OTT_SetSpeedRegulatorBandwidth(&OTT, fregdata);
 1122              		.loc 1 435 11 is_stmt 1 view .LVU291
 436:Src/register_interface.c ****           break;
 1123              		.loc 1 436 11 view .LVU292
 1124              	.LBB145:
 1125              	.LBI145:
 1126              		.file 3 "MCSDK_v6.3.2-Full/MotorControl/MCSDK/MCLib/Any/Inc/mp_one_touch_tuning.h"
   1:MCSDK_v6.3.2-Full/MotorControl/MCSDK/MCLib/Any/Inc/mp_one_touch_tuning.h **** /**
   2:MCSDK_v6.3.2-Full/MotorControl/MCSDK/MCLib/Any/Inc/mp_one_touch_tuning.h ****   ******************************************************************************
   3:MCSDK_v6.3.2-Full/MotorControl/MCSDK/MCLib/Any/Inc/mp_one_touch_tuning.h ****   * @file    mp_one_touch_tuning.h
   4:MCSDK_v6.3.2-Full/MotorControl/MCSDK/MCLib/Any/Inc/mp_one_touch_tuning.h ****   * @author  Motor Control SDK Team, ST Microelectronics
   5:MCSDK_v6.3.2-Full/MotorControl/MCSDK/MCLib/Any/Inc/mp_one_touch_tuning.h ****   * @brief   This file contains all definitions and functions prototypes for
   6:MCSDK_v6.3.2-Full/MotorControl/MCSDK/MCLib/Any/Inc/mp_one_touch_tuning.h ****   *          for the One Touch Tuning component
   7:MCSDK_v6.3.2-Full/MotorControl/MCSDK/MCLib/Any/Inc/mp_one_touch_tuning.h ****   ******************************************************************************
   8:MCSDK_v6.3.2-Full/MotorControl/MCSDK/MCLib/Any/Inc/mp_one_touch_tuning.h ****   * @attention
   9:MCSDK_v6.3.2-Full/MotorControl/MCSDK/MCLib/Any/Inc/mp_one_touch_tuning.h ****   *
  10:MCSDK_v6.3.2-Full/MotorControl/MCSDK/MCLib/Any/Inc/mp_one_touch_tuning.h ****   * <h2><center>&copy; Copyright (c) 2024 STMicroelectronics.
  11:MCSDK_v6.3.2-Full/MotorControl/MCSDK/MCLib/Any/Inc/mp_one_touch_tuning.h ****   * All rights reserved.</center></h2>
  12:MCSDK_v6.3.2-Full/MotorControl/MCSDK/MCLib/Any/Inc/mp_one_touch_tuning.h ****   *
  13:MCSDK_v6.3.2-Full/MotorControl/MCSDK/MCLib/Any/Inc/mp_one_touch_tuning.h ****   * This software component is licensed by ST under Ultimate Liberty license
  14:MCSDK_v6.3.2-Full/MotorControl/MCSDK/MCLib/Any/Inc/mp_one_touch_tuning.h ****   * SLA0044, the "License"; You may not use this file except in compliance with
  15:MCSDK_v6.3.2-Full/MotorControl/MCSDK/MCLib/Any/Inc/mp_one_touch_tuning.h ****   * the License. You may obtain a copy of the License at:
  16:MCSDK_v6.3.2-Full/MotorControl/MCSDK/MCLib/Any/Inc/mp_one_touch_tuning.h ****   *                             www.st.com/SLA0044
ARM GAS  /tmp/ccKFuU3x.s 			page 44


  17:MCSDK_v6.3.2-Full/MotorControl/MCSDK/MCLib/Any/Inc/mp_one_touch_tuning.h ****   *
  18:MCSDK_v6.3.2-Full/MotorControl/MCSDK/MCLib/Any/Inc/mp_one_touch_tuning.h ****   ******************************************************************************
  19:MCSDK_v6.3.2-Full/MotorControl/MCSDK/MCLib/Any/Inc/mp_one_touch_tuning.h ****   * @ingroup OneTouchTuning
  20:MCSDK_v6.3.2-Full/MotorControl/MCSDK/MCLib/Any/Inc/mp_one_touch_tuning.h ****   */
  21:MCSDK_v6.3.2-Full/MotorControl/MCSDK/MCLib/Any/Inc/mp_one_touch_tuning.h **** 
  22:MCSDK_v6.3.2-Full/MotorControl/MCSDK/MCLib/Any/Inc/mp_one_touch_tuning.h **** /* Define to prevent recursive inclusion -------------------------------------*/
  23:MCSDK_v6.3.2-Full/MotorControl/MCSDK/MCLib/Any/Inc/mp_one_touch_tuning.h **** #ifndef MP_ONE_TOUCH_TUNING_H
  24:MCSDK_v6.3.2-Full/MotorControl/MCSDK/MCLib/Any/Inc/mp_one_touch_tuning.h **** #define MP_ONE_TOUCH_TUNING_H
  25:MCSDK_v6.3.2-Full/MotorControl/MCSDK/MCLib/Any/Inc/mp_one_touch_tuning.h **** 
  26:MCSDK_v6.3.2-Full/MotorControl/MCSDK/MCLib/Any/Inc/mp_one_touch_tuning.h **** /* Includes ------------------------------------------------------------------*/
  27:MCSDK_v6.3.2-Full/MotorControl/MCSDK/MCLib/Any/Inc/mp_one_touch_tuning.h **** #include "mc_type.h"
  28:MCSDK_v6.3.2-Full/MotorControl/MCSDK/MCLib/Any/Inc/mp_one_touch_tuning.h **** #include "pid_regulator.h"
  29:MCSDK_v6.3.2-Full/MotorControl/MCSDK/MCLib/Any/Inc/mp_one_touch_tuning.h **** #include "sto_pll_speed_pos_fdbk.h"
  30:MCSDK_v6.3.2-Full/MotorControl/MCSDK/MCLib/Any/Inc/mp_one_touch_tuning.h **** #include "speed_torq_ctrl.h"
  31:MCSDK_v6.3.2-Full/MotorControl/MCSDK/MCLib/Any/Inc/mp_one_touch_tuning.h **** #include "ramp_ext_mngr.h"
  32:MCSDK_v6.3.2-Full/MotorControl/MCSDK/MCLib/Any/Inc/mp_one_touch_tuning.h **** #include "mc_math.h"
  33:MCSDK_v6.3.2-Full/MotorControl/MCSDK/MCLib/Any/Inc/mp_one_touch_tuning.h **** #include "arm_math.h"
  34:MCSDK_v6.3.2-Full/MotorControl/MCSDK/MCLib/Any/Inc/mp_one_touch_tuning.h **** 
  35:MCSDK_v6.3.2-Full/MotorControl/MCSDK/MCLib/Any/Inc/mp_one_touch_tuning.h **** /** @addtogroup STM32_PMSM_MC_Library
  36:MCSDK_v6.3.2-Full/MotorControl/MCSDK/MCLib/Any/Inc/mp_one_touch_tuning.h ****   * @{
  37:MCSDK_v6.3.2-Full/MotorControl/MCSDK/MCLib/Any/Inc/mp_one_touch_tuning.h ****   */
  38:MCSDK_v6.3.2-Full/MotorControl/MCSDK/MCLib/Any/Inc/mp_one_touch_tuning.h **** 
  39:MCSDK_v6.3.2-Full/MotorControl/MCSDK/MCLib/Any/Inc/mp_one_touch_tuning.h **** /** @addtogroup OneTouchTuning
  40:MCSDK_v6.3.2-Full/MotorControl/MCSDK/MCLib/Any/Inc/mp_one_touch_tuning.h ****   * @{
  41:MCSDK_v6.3.2-Full/MotorControl/MCSDK/MCLib/Any/Inc/mp_one_touch_tuning.h ****   */
  42:MCSDK_v6.3.2-Full/MotorControl/MCSDK/MCLib/Any/Inc/mp_one_touch_tuning.h **** 
  43:MCSDK_v6.3.2-Full/MotorControl/MCSDK/MCLib/Any/Inc/mp_one_touch_tuning.h **** /** @defgroup OneTouchTuning_class_exported_types OneTouchTuning class exported types
  44:MCSDK_v6.3.2-Full/MotorControl/MCSDK/MCLib/Any/Inc/mp_one_touch_tuning.h ****   * @{
  45:MCSDK_v6.3.2-Full/MotorControl/MCSDK/MCLib/Any/Inc/mp_one_touch_tuning.h ****   */
  46:MCSDK_v6.3.2-Full/MotorControl/MCSDK/MCLib/Any/Inc/mp_one_touch_tuning.h **** 
  47:MCSDK_v6.3.2-Full/MotorControl/MCSDK/MCLib/Any/Inc/mp_one_touch_tuning.h **** /**
  48:MCSDK_v6.3.2-Full/MotorControl/MCSDK/MCLib/Any/Inc/mp_one_touch_tuning.h ****   * @brief  Public OneTouchTuning class definition
  49:MCSDK_v6.3.2-Full/MotorControl/MCSDK/MCLib/Any/Inc/mp_one_touch_tuning.h ****   */
  50:MCSDK_v6.3.2-Full/MotorControl/MCSDK/MCLib/Any/Inc/mp_one_touch_tuning.h **** 
  51:MCSDK_v6.3.2-Full/MotorControl/MCSDK/MCLib/Any/Inc/mp_one_touch_tuning.h **** 
  52:MCSDK_v6.3.2-Full/MotorControl/MCSDK/MCLib/Any/Inc/mp_one_touch_tuning.h **** /**
  53:MCSDK_v6.3.2-Full/MotorControl/MCSDK/MCLib/Any/Inc/mp_one_touch_tuning.h ****   * @brief  OneTouchTuning class parameters definition
  54:MCSDK_v6.3.2-Full/MotorControl/MCSDK/MCLib/Any/Inc/mp_one_touch_tuning.h ****   */
  55:MCSDK_v6.3.2-Full/MotorControl/MCSDK/MCLib/Any/Inc/mp_one_touch_tuning.h **** typedef const struct
  56:MCSDK_v6.3.2-Full/MotorControl/MCSDK/MCLib/Any/Inc/mp_one_touch_tuning.h **** {
  57:MCSDK_v6.3.2-Full/MotorControl/MCSDK/MCLib/Any/Inc/mp_one_touch_tuning.h ****   RampExtMngr_Handle_t rampExtMngrParams; /*!< Ramp manager used by SCC.*/
  58:MCSDK_v6.3.2-Full/MotorControl/MCSDK/MCLib/Any/Inc/mp_one_touch_tuning.h ****   float fBWdef;               /*!< Default bandwidth of speed regulator.*/
  59:MCSDK_v6.3.2-Full/MotorControl/MCSDK/MCLib/Any/Inc/mp_one_touch_tuning.h ****   float fMeasWin;             /*!< Duration of measurement window for speed and
  60:MCSDK_v6.3.2-Full/MotorControl/MCSDK/MCLib/Any/Inc/mp_one_touch_tuning.h ****                                    current Iq, expressed in seconds.*/
  61:MCSDK_v6.3.2-Full/MotorControl/MCSDK/MCLib/Any/Inc/mp_one_touch_tuning.h ****   uint8_t bPolesPairs;        /*!< Number of motor poles pairs.*/
  62:MCSDK_v6.3.2-Full/MotorControl/MCSDK/MCLib/Any/Inc/mp_one_touch_tuning.h ****   uint16_t hMaxPositiveTorque;/*!< Maximum positive value of motor
  63:MCSDK_v6.3.2-Full/MotorControl/MCSDK/MCLib/Any/Inc/mp_one_touch_tuning.h ****                                    torque. This value represents
  64:MCSDK_v6.3.2-Full/MotorControl/MCSDK/MCLib/Any/Inc/mp_one_touch_tuning.h ****                                    actually the maximum Iq current
  65:MCSDK_v6.3.2-Full/MotorControl/MCSDK/MCLib/Any/Inc/mp_one_touch_tuning.h ****                                    expressed in digit.*/
  66:MCSDK_v6.3.2-Full/MotorControl/MCSDK/MCLib/Any/Inc/mp_one_touch_tuning.h ****   float fCurrtRegStabTimeSec; /*!< Current regulation stabilization time in seconds.*/
  67:MCSDK_v6.3.2-Full/MotorControl/MCSDK/MCLib/Any/Inc/mp_one_touch_tuning.h ****   float fOttLowSpeedPerc;     /*!< OTT lower speed percentage.*/
  68:MCSDK_v6.3.2-Full/MotorControl/MCSDK/MCLib/Any/Inc/mp_one_touch_tuning.h ****   float fOttHighSpeedPerc;    /*!< OTT higher speed percentage.*/
  69:MCSDK_v6.3.2-Full/MotorControl/MCSDK/MCLib/Any/Inc/mp_one_touch_tuning.h ****   float fSpeedStabTimeSec;    /*!< Speed stabilization time in seconds.*/
  70:MCSDK_v6.3.2-Full/MotorControl/MCSDK/MCLib/Any/Inc/mp_one_touch_tuning.h ****   float fTimeOutSec;          /*!< Timeout for speed stabilization.*/
  71:MCSDK_v6.3.2-Full/MotorControl/MCSDK/MCLib/Any/Inc/mp_one_touch_tuning.h ****   float fSpeedMargin;         /*!< Speed margin percentage to validate speed ctrl.*/
  72:MCSDK_v6.3.2-Full/MotorControl/MCSDK/MCLib/Any/Inc/mp_one_touch_tuning.h ****   int32_t wNominalSpeed;      /*!< Nominal speed set by the user expressed in RPM.*/
  73:MCSDK_v6.3.2-Full/MotorControl/MCSDK/MCLib/Any/Inc/mp_one_touch_tuning.h ****   float spdKp;                /*!< Initial KP factor of the speed regulator to be tuned.*/
ARM GAS  /tmp/ccKFuU3x.s 			page 45


  74:MCSDK_v6.3.2-Full/MotorControl/MCSDK/MCLib/Any/Inc/mp_one_touch_tuning.h ****   float spdKi;                /*!< Initial KI factor of the speed regulator to be tuned.*/
  75:MCSDK_v6.3.2-Full/MotorControl/MCSDK/MCLib/Any/Inc/mp_one_touch_tuning.h ****   float spdKs;                /*!< Initial antiwindup factor of the speed regulator to be tuned.*/
  76:MCSDK_v6.3.2-Full/MotorControl/MCSDK/MCLib/Any/Inc/mp_one_touch_tuning.h ****   float fRshunt;              /*!< Value of shunt resistor.*/
  77:MCSDK_v6.3.2-Full/MotorControl/MCSDK/MCLib/Any/Inc/mp_one_touch_tuning.h ****   float fAmplificationGain;   /*!< Current sensing amplification gain.*/
  78:MCSDK_v6.3.2-Full/MotorControl/MCSDK/MCLib/Any/Inc/mp_one_touch_tuning.h **** } OTT_Params_t, *pOTT_Params_t;
  79:MCSDK_v6.3.2-Full/MotorControl/MCSDK/MCLib/Any/Inc/mp_one_touch_tuning.h **** 
  80:MCSDK_v6.3.2-Full/MotorControl/MCSDK/MCLib/Any/Inc/mp_one_touch_tuning.h **** /**
  81:MCSDK_v6.3.2-Full/MotorControl/MCSDK/MCLib/Any/Inc/mp_one_touch_tuning.h ****   * @brief  OTT_State_t enum type definition, it lists all the possible OTT state
  82:MCSDK_v6.3.2-Full/MotorControl/MCSDK/MCLib/Any/Inc/mp_one_touch_tuning.h ****           machine states.
  83:MCSDK_v6.3.2-Full/MotorControl/MCSDK/MCLib/Any/Inc/mp_one_touch_tuning.h ****   */
  84:MCSDK_v6.3.2-Full/MotorControl/MCSDK/MCLib/Any/Inc/mp_one_touch_tuning.h **** typedef enum
  85:MCSDK_v6.3.2-Full/MotorControl/MCSDK/MCLib/Any/Inc/mp_one_touch_tuning.h **** {
  86:MCSDK_v6.3.2-Full/MotorControl/MCSDK/MCLib/Any/Inc/mp_one_touch_tuning.h ****   OTT_IDLE,
  87:MCSDK_v6.3.2-Full/MotorControl/MCSDK/MCLib/Any/Inc/mp_one_touch_tuning.h ****   OTT_NOMINAL_SPEED_DET,
  88:MCSDK_v6.3.2-Full/MotorControl/MCSDK/MCLib/Any/Inc/mp_one_touch_tuning.h ****   OTT_DYNAMICS_DET_RAMP_DOWN,
  89:MCSDK_v6.3.2-Full/MotorControl/MCSDK/MCLib/Any/Inc/mp_one_touch_tuning.h ****   OTT_DYNAMICS_DET_SET_TORQUE,
  90:MCSDK_v6.3.2-Full/MotorControl/MCSDK/MCLib/Any/Inc/mp_one_touch_tuning.h ****   OTT_DYNAMICS_DETECTION,
  91:MCSDK_v6.3.2-Full/MotorControl/MCSDK/MCLib/Any/Inc/mp_one_touch_tuning.h ****   OTT_RAMP_DOWN_H_SPEED,
  92:MCSDK_v6.3.2-Full/MotorControl/MCSDK/MCLib/Any/Inc/mp_one_touch_tuning.h ****   OTT_H_SPEED_TEST,
  93:MCSDK_v6.3.2-Full/MotorControl/MCSDK/MCLib/Any/Inc/mp_one_touch_tuning.h ****   OTT_RAMP_DOWN_L_SPEED,
  94:MCSDK_v6.3.2-Full/MotorControl/MCSDK/MCLib/Any/Inc/mp_one_touch_tuning.h ****   OTT_L_SPEED_TEST,
  95:MCSDK_v6.3.2-Full/MotorControl/MCSDK/MCLib/Any/Inc/mp_one_touch_tuning.h ****   OTT_TORQUE_STEP,
  96:MCSDK_v6.3.2-Full/MotorControl/MCSDK/MCLib/Any/Inc/mp_one_touch_tuning.h ****   OTT_END
  97:MCSDK_v6.3.2-Full/MotorControl/MCSDK/MCLib/Any/Inc/mp_one_touch_tuning.h **** } OTT_State_t;
  98:MCSDK_v6.3.2-Full/MotorControl/MCSDK/MCLib/Any/Inc/mp_one_touch_tuning.h **** 
  99:MCSDK_v6.3.2-Full/MotorControl/MCSDK/MCLib/Any/Inc/mp_one_touch_tuning.h **** /**
 100:MCSDK_v6.3.2-Full/MotorControl/MCSDK/MCLib/Any/Inc/mp_one_touch_tuning.h ****   * @brief  OneTouchTuning class members definition
 101:MCSDK_v6.3.2-Full/MotorControl/MCSDK/MCLib/Any/Inc/mp_one_touch_tuning.h ****   */
 102:MCSDK_v6.3.2-Full/MotorControl/MCSDK/MCLib/Any/Inc/mp_one_touch_tuning.h **** typedef struct
 103:MCSDK_v6.3.2-Full/MotorControl/MCSDK/MCLib/Any/Inc/mp_one_touch_tuning.h **** {
 104:MCSDK_v6.3.2-Full/MotorControl/MCSDK/MCLib/Any/Inc/mp_one_touch_tuning.h ****   SpeednPosFdbk_Handle_t *pSpeedSensor;       /*!< Related speed sensor used. */
 105:MCSDK_v6.3.2-Full/MotorControl/MCSDK/MCLib/Any/Inc/mp_one_touch_tuning.h ****   pFOCVars_t pFOCVars;  /*!< Related structure of FOC vars.*/
 106:MCSDK_v6.3.2-Full/MotorControl/MCSDK/MCLib/Any/Inc/mp_one_touch_tuning.h ****   PID_Handle_t *pPIDSpeed;           /*!< Related speed controller used. */
 107:MCSDK_v6.3.2-Full/MotorControl/MCSDK/MCLib/Any/Inc/mp_one_touch_tuning.h ****   SpeednTorqCtrl_Handle_t *pSTC;            /*!< Speed and torque controller used.*/
 108:MCSDK_v6.3.2-Full/MotorControl/MCSDK/MCLib/Any/Inc/mp_one_touch_tuning.h **** 
 109:MCSDK_v6.3.2-Full/MotorControl/MCSDK/MCLib/Any/Inc/mp_one_touch_tuning.h ****   RampExtMngr_Handle_t *pREMng;           /*!< Ramp manager used.*/
 110:MCSDK_v6.3.2-Full/MotorControl/MCSDK/MCLib/Any/Inc/mp_one_touch_tuning.h ****   int16_t hFDetIq[2];      /*!< Array used to store Iq measurements done during F estimation.*/
 111:MCSDK_v6.3.2-Full/MotorControl/MCSDK/MCLib/Any/Inc/mp_one_touch_tuning.h ****   float fFDetOmega[2];     /*!< Array used to store Omega values during F estimation.*/
 112:MCSDK_v6.3.2-Full/MotorControl/MCSDK/MCLib/Any/Inc/mp_one_touch_tuning.h ****   float fF;                /*!< Stores the last F estimation.*/
 113:MCSDK_v6.3.2-Full/MotorControl/MCSDK/MCLib/Any/Inc/mp_one_touch_tuning.h ****   float fOmegaTh;          /*!< Stores the last omega threshold.*/
 114:MCSDK_v6.3.2-Full/MotorControl/MCSDK/MCLib/Any/Inc/mp_one_touch_tuning.h ****   float fTau;              /*!< Stores the last computed mechanical time constant.*/
 115:MCSDK_v6.3.2-Full/MotorControl/MCSDK/MCLib/Any/Inc/mp_one_touch_tuning.h ****   float fJ;                /*!< Stores the last J estimation.*/
 116:MCSDK_v6.3.2-Full/MotorControl/MCSDK/MCLib/Any/Inc/mp_one_touch_tuning.h ****   float fBW;               /*!< Bandwidth of speed regulator.*/
 117:MCSDK_v6.3.2-Full/MotorControl/MCSDK/MCLib/Any/Inc/mp_one_touch_tuning.h ****   OTT_State_t bState;      /*!< State macchine state.*/
 118:MCSDK_v6.3.2-Full/MotorControl/MCSDK/MCLib/Any/Inc/mp_one_touch_tuning.h ****   int32_t wIqsum;          /*!< Sum of measured Iq.*/
 119:MCSDK_v6.3.2-Full/MotorControl/MCSDK/MCLib/Any/Inc/mp_one_touch_tuning.h ****   int32_t wSpeed01Hzsum;   /*!< Sum of average mechanical speed.*/
 120:MCSDK_v6.3.2-Full/MotorControl/MCSDK/MCLib/Any/Inc/mp_one_touch_tuning.h ****   uint16_t hIqCnt;         /*!< Counter for Iq acquisitions.*/
 121:MCSDK_v6.3.2-Full/MotorControl/MCSDK/MCLib/Any/Inc/mp_one_touch_tuning.h ****   int32_t wCnt;            /*!< 32bit counter.*/
 122:MCSDK_v6.3.2-Full/MotorControl/MCSDK/MCLib/Any/Inc/mp_one_touch_tuning.h ****   int16_t hSpeed01HzMean;  /*!< Mean value of mechanical speed.*/
 123:MCSDK_v6.3.2-Full/MotorControl/MCSDK/MCLib/Any/Inc/mp_one_touch_tuning.h ****   int16_t hSpeed01HzDelta; /*!< Delta speed between mechanical speed.*/
 124:MCSDK_v6.3.2-Full/MotorControl/MCSDK/MCLib/Any/Inc/mp_one_touch_tuning.h ****   uint16_t hCurRegStabCnt; /*!< Stabilization counter.*/
 125:MCSDK_v6.3.2-Full/MotorControl/MCSDK/MCLib/Any/Inc/mp_one_touch_tuning.h ****   uint16_t hJdetCnt;       /*!< Counter to measure the mechanical time constant.*/
 126:MCSDK_v6.3.2-Full/MotorControl/MCSDK/MCLib/Any/Inc/mp_one_touch_tuning.h ****   float fEstNominalSpdRPM; /*!< Estimated nominal speed.*/
 127:MCSDK_v6.3.2-Full/MotorControl/MCSDK/MCLib/Any/Inc/mp_one_touch_tuning.h ****   int16_t hIqNominal;      /*!< Current measured at nominal speed steady state.*/
 128:MCSDK_v6.3.2-Full/MotorControl/MCSDK/MCLib/Any/Inc/mp_one_touch_tuning.h ****   int16_t hIqAcc;          /*!< Current used to accelerate the motor.*/
 129:MCSDK_v6.3.2-Full/MotorControl/MCSDK/MCLib/Any/Inc/mp_one_touch_tuning.h ****   int16_t hTargetLRPM;     /*!< Lower speed used for OTT.*/
 130:MCSDK_v6.3.2-Full/MotorControl/MCSDK/MCLib/Any/Inc/mp_one_touch_tuning.h ****   int16_t hTargetHRPM;     /*!< Higher speed used for OTT.*/
ARM GAS  /tmp/ccKFuU3x.s 			page 46


 131:MCSDK_v6.3.2-Full/MotorControl/MCSDK/MCLib/Any/Inc/mp_one_touch_tuning.h ****   uint16_t hMeasWinTicks;  /*!< Number of ticks of the measurement window.*/
 132:MCSDK_v6.3.2-Full/MotorControl/MCSDK/MCLib/Any/Inc/mp_one_touch_tuning.h ****   uint16_t hCurRegStabTks; /*!< Number of ticks for current regulation stabilization time.*/
 133:MCSDK_v6.3.2-Full/MotorControl/MCSDK/MCLib/Any/Inc/mp_one_touch_tuning.h ****   uint16_t hSpeedStabTks;  /*!< Number of ticks for speed stabilization time.*/
 134:MCSDK_v6.3.2-Full/MotorControl/MCSDK/MCLib/Any/Inc/mp_one_touch_tuning.h ****   bool bPI_Tuned;          /*!< True is PI is tuned, false otherwise.*/
 135:MCSDK_v6.3.2-Full/MotorControl/MCSDK/MCLib/Any/Inc/mp_one_touch_tuning.h ****   float fKp;               /*!< Computed Kp.*/
 136:MCSDK_v6.3.2-Full/MotorControl/MCSDK/MCLib/Any/Inc/mp_one_touch_tuning.h ****   float fKi;               /*!< Computed Ki.*/
 137:MCSDK_v6.3.2-Full/MotorControl/MCSDK/MCLib/Any/Inc/mp_one_touch_tuning.h ****   int8_t stabCnt;          /*!< Stabilization counter.*/
 138:MCSDK_v6.3.2-Full/MotorControl/MCSDK/MCLib/Any/Inc/mp_one_touch_tuning.h ****   float fSpeed;            /*!< Internal target reference.*/
 139:MCSDK_v6.3.2-Full/MotorControl/MCSDK/MCLib/Any/Inc/mp_one_touch_tuning.h ****   uint16_t hTimeOutTks;    /*!< Number of tick for timeout.*/
 140:MCSDK_v6.3.2-Full/MotorControl/MCSDK/MCLib/Any/Inc/mp_one_touch_tuning.h ****   uint8_t bPolesPairs;     /*!< Motor poles pairs.*/
 141:MCSDK_v6.3.2-Full/MotorControl/MCSDK/MCLib/Any/Inc/mp_one_touch_tuning.h ****   uint16_t hMaxPositiveTorque;/*!< Maximum positive value of motor
 142:MCSDK_v6.3.2-Full/MotorControl/MCSDK/MCLib/Any/Inc/mp_one_touch_tuning.h ****                                    torque. This value represents
 143:MCSDK_v6.3.2-Full/MotorControl/MCSDK/MCLib/Any/Inc/mp_one_touch_tuning.h ****                                    actually the maximum Iq current
 144:MCSDK_v6.3.2-Full/MotorControl/MCSDK/MCLib/Any/Inc/mp_one_touch_tuning.h ****                                    expressed in digit.*/
 145:MCSDK_v6.3.2-Full/MotorControl/MCSDK/MCLib/Any/Inc/mp_one_touch_tuning.h ****   float fRPMTh;            /*!< Speed threshold for mecchanical constant
 146:MCSDK_v6.3.2-Full/MotorControl/MCSDK/MCLib/Any/Inc/mp_one_touch_tuning.h ****                                 time estimation.*/
 147:MCSDK_v6.3.2-Full/MotorControl/MCSDK/MCLib/Any/Inc/mp_one_touch_tuning.h ****   int32_t wNominalSpeed;   /*!< Nominal speed set by the user expressed in RPM.*/
 148:MCSDK_v6.3.2-Full/MotorControl/MCSDK/MCLib/Any/Inc/mp_one_touch_tuning.h ****   float spdKp;             /*!< KP factor of the speed regulator to be tuned.*/
 149:MCSDK_v6.3.2-Full/MotorControl/MCSDK/MCLib/Any/Inc/mp_one_touch_tuning.h ****   float spdKi;             /*!< KI factor of the speed regulator to be tuned.*/
 150:MCSDK_v6.3.2-Full/MotorControl/MCSDK/MCLib/Any/Inc/mp_one_touch_tuning.h ****   float spdKs;             /*!< Antiwindup factor of the speed regulator to be tuned.*/
 151:MCSDK_v6.3.2-Full/MotorControl/MCSDK/MCLib/Any/Inc/mp_one_touch_tuning.h ****   float spdIntTerm;        /*!< Integral term of the speed regulator to be tuned.*/
 152:MCSDK_v6.3.2-Full/MotorControl/MCSDK/MCLib/Any/Inc/mp_one_touch_tuning.h ****   float spdAntiWindTerm;   /*!< Antiwindup term of the speed regulator to be tuned.*/
 153:MCSDK_v6.3.2-Full/MotorControl/MCSDK/MCLib/Any/Inc/mp_one_touch_tuning.h ****   float fKe;               /*!< Stores the last Ke estimation.*/
 154:MCSDK_v6.3.2-Full/MotorControl/MCSDK/MCLib/Any/Inc/mp_one_touch_tuning.h **** 
 155:MCSDK_v6.3.2-Full/MotorControl/MCSDK/MCLib/Any/Inc/mp_one_touch_tuning.h ****   pOTT_Params_t pOTT_Params_str;  /**< OTT parameters */
 156:MCSDK_v6.3.2-Full/MotorControl/MCSDK/MCLib/Any/Inc/mp_one_touch_tuning.h **** 
 157:MCSDK_v6.3.2-Full/MotorControl/MCSDK/MCLib/Any/Inc/mp_one_touch_tuning.h **** } OTT_Handle_t;
 158:MCSDK_v6.3.2-Full/MotorControl/MCSDK/MCLib/Any/Inc/mp_one_touch_tuning.h **** 
 159:MCSDK_v6.3.2-Full/MotorControl/MCSDK/MCLib/Any/Inc/mp_one_touch_tuning.h **** 
 160:MCSDK_v6.3.2-Full/MotorControl/MCSDK/MCLib/Any/Inc/mp_one_touch_tuning.h **** /**
 161:MCSDK_v6.3.2-Full/MotorControl/MCSDK/MCLib/Any/Inc/mp_one_touch_tuning.h ****   * @}
 162:MCSDK_v6.3.2-Full/MotorControl/MCSDK/MCLib/Any/Inc/mp_one_touch_tuning.h ****   */
 163:MCSDK_v6.3.2-Full/MotorControl/MCSDK/MCLib/Any/Inc/mp_one_touch_tuning.h **** 
 164:MCSDK_v6.3.2-Full/MotorControl/MCSDK/MCLib/Any/Inc/mp_one_touch_tuning.h **** 
 165:MCSDK_v6.3.2-Full/MotorControl/MCSDK/MCLib/Any/Inc/mp_one_touch_tuning.h **** /**
 166:MCSDK_v6.3.2-Full/MotorControl/MCSDK/MCLib/Any/Inc/mp_one_touch_tuning.h ****   * @brief  Initializes all the object variables, usually it has to be called
 167:MCSDK_v6.3.2-Full/MotorControl/MCSDK/MCLib/Any/Inc/mp_one_touch_tuning.h ****   *         once right after object creation.
 168:MCSDK_v6.3.2-Full/MotorControl/MCSDK/MCLib/Any/Inc/mp_one_touch_tuning.h ****   * @param  this related object of class COTT.
 169:MCSDK_v6.3.2-Full/MotorControl/MCSDK/MCLib/Any/Inc/mp_one_touch_tuning.h ****   * @param  pOTT_Init pointer to the OTT init structure.
 170:MCSDK_v6.3.2-Full/MotorControl/MCSDK/MCLib/Any/Inc/mp_one_touch_tuning.h ****   * @retval none.
 171:MCSDK_v6.3.2-Full/MotorControl/MCSDK/MCLib/Any/Inc/mp_one_touch_tuning.h ****   */
 172:MCSDK_v6.3.2-Full/MotorControl/MCSDK/MCLib/Any/Inc/mp_one_touch_tuning.h **** void OTT_Init(OTT_Handle_t *pHandle);
 173:MCSDK_v6.3.2-Full/MotorControl/MCSDK/MCLib/Any/Inc/mp_one_touch_tuning.h **** 
 174:MCSDK_v6.3.2-Full/MotorControl/MCSDK/MCLib/Any/Inc/mp_one_touch_tuning.h **** /**
 175:MCSDK_v6.3.2-Full/MotorControl/MCSDK/MCLib/Any/Inc/mp_one_touch_tuning.h ****   * @brief  It should be called before each motor restart. It initialize
 176:MCSDK_v6.3.2-Full/MotorControl/MCSDK/MCLib/Any/Inc/mp_one_touch_tuning.h ****   *         internal state of OTT.
 177:MCSDK_v6.3.2-Full/MotorControl/MCSDK/MCLib/Any/Inc/mp_one_touch_tuning.h ****   * @param  this related object of class COTT.
 178:MCSDK_v6.3.2-Full/MotorControl/MCSDK/MCLib/Any/Inc/mp_one_touch_tuning.h ****   * @retval none.
 179:MCSDK_v6.3.2-Full/MotorControl/MCSDK/MCLib/Any/Inc/mp_one_touch_tuning.h ****   */
 180:MCSDK_v6.3.2-Full/MotorControl/MCSDK/MCLib/Any/Inc/mp_one_touch_tuning.h **** void OTT_Clear(OTT_Handle_t *pHandle);
 181:MCSDK_v6.3.2-Full/MotorControl/MCSDK/MCLib/Any/Inc/mp_one_touch_tuning.h **** 
 182:MCSDK_v6.3.2-Full/MotorControl/MCSDK/MCLib/Any/Inc/mp_one_touch_tuning.h **** /**
 183:MCSDK_v6.3.2-Full/MotorControl/MCSDK/MCLib/Any/Inc/mp_one_touch_tuning.h ****   * @brief  It should be called at MF and execute the OTT algorithm.
 184:MCSDK_v6.3.2-Full/MotorControl/MCSDK/MCLib/Any/Inc/mp_one_touch_tuning.h ****   * @param  this related object of class COTT.
 185:MCSDK_v6.3.2-Full/MotorControl/MCSDK/MCLib/Any/Inc/mp_one_touch_tuning.h ****   * @retval none.
 186:MCSDK_v6.3.2-Full/MotorControl/MCSDK/MCLib/Any/Inc/mp_one_touch_tuning.h ****   */
 187:MCSDK_v6.3.2-Full/MotorControl/MCSDK/MCLib/Any/Inc/mp_one_touch_tuning.h **** void OTT_MF(OTT_Handle_t *pHandle);
ARM GAS  /tmp/ccKFuU3x.s 			page 47


 188:MCSDK_v6.3.2-Full/MotorControl/MCSDK/MCLib/Any/Inc/mp_one_touch_tuning.h **** 
 189:MCSDK_v6.3.2-Full/MotorControl/MCSDK/MCLib/Any/Inc/mp_one_touch_tuning.h **** /**
 190:MCSDK_v6.3.2-Full/MotorControl/MCSDK/MCLib/Any/Inc/mp_one_touch_tuning.h ****   * @brief  It should be called in START_RUN state. It begins the OTT procedure.
 191:MCSDK_v6.3.2-Full/MotorControl/MCSDK/MCLib/Any/Inc/mp_one_touch_tuning.h ****   * @param  this related object of class COTT.
 192:MCSDK_v6.3.2-Full/MotorControl/MCSDK/MCLib/Any/Inc/mp_one_touch_tuning.h ****   * @retval none.
 193:MCSDK_v6.3.2-Full/MotorControl/MCSDK/MCLib/Any/Inc/mp_one_touch_tuning.h ****   */
 194:MCSDK_v6.3.2-Full/MotorControl/MCSDK/MCLib/Any/Inc/mp_one_touch_tuning.h **** void OTT_SR(OTT_Handle_t *pHandle);
 195:MCSDK_v6.3.2-Full/MotorControl/MCSDK/MCLib/Any/Inc/mp_one_touch_tuning.h **** 
 196:MCSDK_v6.3.2-Full/MotorControl/MCSDK/MCLib/Any/Inc/mp_one_touch_tuning.h **** /**
 197:MCSDK_v6.3.2-Full/MotorControl/MCSDK/MCLib/Any/Inc/mp_one_touch_tuning.h ****   * @brief  Call this method before start motor to force new OTT procedure.
 198:MCSDK_v6.3.2-Full/MotorControl/MCSDK/MCLib/Any/Inc/mp_one_touch_tuning.h ****   * @param  this related object of class COTT.
 199:MCSDK_v6.3.2-Full/MotorControl/MCSDK/MCLib/Any/Inc/mp_one_touch_tuning.h ****   * @retval none.
 200:MCSDK_v6.3.2-Full/MotorControl/MCSDK/MCLib/Any/Inc/mp_one_touch_tuning.h ****   */
 201:MCSDK_v6.3.2-Full/MotorControl/MCSDK/MCLib/Any/Inc/mp_one_touch_tuning.h **** void OTT_ForceTuning(OTT_Handle_t *pHandle);
 202:MCSDK_v6.3.2-Full/MotorControl/MCSDK/MCLib/Any/Inc/mp_one_touch_tuning.h **** 
 203:MCSDK_v6.3.2-Full/MotorControl/MCSDK/MCLib/Any/Inc/mp_one_touch_tuning.h **** /**
 204:MCSDK_v6.3.2-Full/MotorControl/MCSDK/MCLib/Any/Inc/mp_one_touch_tuning.h ****   * @brief  It returns the nominal speed estimated by OTT in RPM.
 205:MCSDK_v6.3.2-Full/MotorControl/MCSDK/MCLib/Any/Inc/mp_one_touch_tuning.h ****   * @param  this related object of class COTT.
 206:MCSDK_v6.3.2-Full/MotorControl/MCSDK/MCLib/Any/Inc/mp_one_touch_tuning.h ****   * @retval float It returns the nominal speed in RPM estimated by OTT.
 207:MCSDK_v6.3.2-Full/MotorControl/MCSDK/MCLib/Any/Inc/mp_one_touch_tuning.h ****   */
 208:MCSDK_v6.3.2-Full/MotorControl/MCSDK/MCLib/Any/Inc/mp_one_touch_tuning.h **** float OTT_fGetNominalSpeedRPM(OTT_Handle_t *pHandle);
 209:MCSDK_v6.3.2-Full/MotorControl/MCSDK/MCLib/Any/Inc/mp_one_touch_tuning.h **** 
 210:MCSDK_v6.3.2-Full/MotorControl/MCSDK/MCLib/Any/Inc/mp_one_touch_tuning.h **** /**
 211:MCSDK_v6.3.2-Full/MotorControl/MCSDK/MCLib/Any/Inc/mp_one_touch_tuning.h ****   * @brief  It should be called before each motor stop.
 212:MCSDK_v6.3.2-Full/MotorControl/MCSDK/MCLib/Any/Inc/mp_one_touch_tuning.h ****   * @param  this related object of class COTT.
 213:MCSDK_v6.3.2-Full/MotorControl/MCSDK/MCLib/Any/Inc/mp_one_touch_tuning.h ****   * @retval none.
 214:MCSDK_v6.3.2-Full/MotorControl/MCSDK/MCLib/Any/Inc/mp_one_touch_tuning.h ****   */
 215:MCSDK_v6.3.2-Full/MotorControl/MCSDK/MCLib/Any/Inc/mp_one_touch_tuning.h **** void OTT_Stop(OTT_Handle_t *pHandle);
 216:MCSDK_v6.3.2-Full/MotorControl/MCSDK/MCLib/Any/Inc/mp_one_touch_tuning.h **** 
 217:MCSDK_v6.3.2-Full/MotorControl/MCSDK/MCLib/Any/Inc/mp_one_touch_tuning.h **** /**
 218:MCSDK_v6.3.2-Full/MotorControl/MCSDK/MCLib/Any/Inc/mp_one_touch_tuning.h ****   * @brief  It returns the nominal speed estimated by OTT.
 219:MCSDK_v6.3.2-Full/MotorControl/MCSDK/MCLib/Any/Inc/mp_one_touch_tuning.h ****   * @param  this related object of class COTT.
 220:MCSDK_v6.3.2-Full/MotorControl/MCSDK/MCLib/Any/Inc/mp_one_touch_tuning.h ****   * @retval uint32_t It returns the nominal speed estimated by OTT, it is a
 221:MCSDK_v6.3.2-Full/MotorControl/MCSDK/MCLib/Any/Inc/mp_one_touch_tuning.h ****   *         floating point number codified into a 32bit integer.
 222:MCSDK_v6.3.2-Full/MotorControl/MCSDK/MCLib/Any/Inc/mp_one_touch_tuning.h ****   */
 223:MCSDK_v6.3.2-Full/MotorControl/MCSDK/MCLib/Any/Inc/mp_one_touch_tuning.h **** static inline uint32_t OTT_GetNominalSpeed(OTT_Handle_t *pHandle)
 224:MCSDK_v6.3.2-Full/MotorControl/MCSDK/MCLib/Any/Inc/mp_one_touch_tuning.h **** {
 225:MCSDK_v6.3.2-Full/MotorControl/MCSDK/MCLib/Any/Inc/mp_one_touch_tuning.h ****   return MCM_floatToIntBit(pHandle->fEstNominalSpdRPM);
 226:MCSDK_v6.3.2-Full/MotorControl/MCSDK/MCLib/Any/Inc/mp_one_touch_tuning.h **** }
 227:MCSDK_v6.3.2-Full/MotorControl/MCSDK/MCLib/Any/Inc/mp_one_touch_tuning.h **** 
 228:MCSDK_v6.3.2-Full/MotorControl/MCSDK/MCLib/Any/Inc/mp_one_touch_tuning.h **** /**
 229:MCSDK_v6.3.2-Full/MotorControl/MCSDK/MCLib/Any/Inc/mp_one_touch_tuning.h ****   * @brief  It returns the number of states of OTT.
 230:MCSDK_v6.3.2-Full/MotorControl/MCSDK/MCLib/Any/Inc/mp_one_touch_tuning.h ****   * @param  this related object of class COTT.
 231:MCSDK_v6.3.2-Full/MotorControl/MCSDK/MCLib/Any/Inc/mp_one_touch_tuning.h ****   * @retval uint8_t It returns the number of states of Selfcommissioning procedure.
 232:MCSDK_v6.3.2-Full/MotorControl/MCSDK/MCLib/Any/Inc/mp_one_touch_tuning.h ****   */
 233:MCSDK_v6.3.2-Full/MotorControl/MCSDK/MCLib/Any/Inc/mp_one_touch_tuning.h **** static inline uint8_t OTT_GetSteps(OTT_Handle_t *pHandle)
 234:MCSDK_v6.3.2-Full/MotorControl/MCSDK/MCLib/Any/Inc/mp_one_touch_tuning.h **** {
 235:MCSDK_v6.3.2-Full/MotorControl/MCSDK/MCLib/Any/Inc/mp_one_touch_tuning.h ****   return ((uint8_t)(OTT_END) + 1u);
 236:MCSDK_v6.3.2-Full/MotorControl/MCSDK/MCLib/Any/Inc/mp_one_touch_tuning.h **** }
 237:MCSDK_v6.3.2-Full/MotorControl/MCSDK/MCLib/Any/Inc/mp_one_touch_tuning.h **** 
 238:MCSDK_v6.3.2-Full/MotorControl/MCSDK/MCLib/Any/Inc/mp_one_touch_tuning.h **** /**
 239:MCSDK_v6.3.2-Full/MotorControl/MCSDK/MCLib/Any/Inc/mp_one_touch_tuning.h ****   * @brief  It returns the state of OTT.
 240:MCSDK_v6.3.2-Full/MotorControl/MCSDK/MCLib/Any/Inc/mp_one_touch_tuning.h ****   * @param  this related object of class COTT.
 241:MCSDK_v6.3.2-Full/MotorControl/MCSDK/MCLib/Any/Inc/mp_one_touch_tuning.h ****   * @retval uint8_t It returns the state of OTT.
 242:MCSDK_v6.3.2-Full/MotorControl/MCSDK/MCLib/Any/Inc/mp_one_touch_tuning.h ****   */
 243:MCSDK_v6.3.2-Full/MotorControl/MCSDK/MCLib/Any/Inc/mp_one_touch_tuning.h **** static inline uint8_t OTT_GetState(OTT_Handle_t *pHandle)
 244:MCSDK_v6.3.2-Full/MotorControl/MCSDK/MCLib/Any/Inc/mp_one_touch_tuning.h **** {
ARM GAS  /tmp/ccKFuU3x.s 			page 48


 245:MCSDK_v6.3.2-Full/MotorControl/MCSDK/MCLib/Any/Inc/mp_one_touch_tuning.h ****   uint8_t retVal = pHandle->bState;
 246:MCSDK_v6.3.2-Full/MotorControl/MCSDK/MCLib/Any/Inc/mp_one_touch_tuning.h ****   return (uint8_t)(retVal);
 247:MCSDK_v6.3.2-Full/MotorControl/MCSDK/MCLib/Any/Inc/mp_one_touch_tuning.h **** }
 248:MCSDK_v6.3.2-Full/MotorControl/MCSDK/MCLib/Any/Inc/mp_one_touch_tuning.h **** 
 249:MCSDK_v6.3.2-Full/MotorControl/MCSDK/MCLib/Any/Inc/mp_one_touch_tuning.h **** /**
 250:MCSDK_v6.3.2-Full/MotorControl/MCSDK/MCLib/Any/Inc/mp_one_touch_tuning.h ****   * @brief  It returns true if OTT procedure has been completed, false otherwise.
 251:MCSDK_v6.3.2-Full/MotorControl/MCSDK/MCLib/Any/Inc/mp_one_touch_tuning.h ****   * @param  this related object of class COTT.
 252:MCSDK_v6.3.2-Full/MotorControl/MCSDK/MCLib/Any/Inc/mp_one_touch_tuning.h ****   * @retval bool It returns true if OTT procedure has been completed, false otherwise.
 253:MCSDK_v6.3.2-Full/MotorControl/MCSDK/MCLib/Any/Inc/mp_one_touch_tuning.h ****   */
 254:MCSDK_v6.3.2-Full/MotorControl/MCSDK/MCLib/Any/Inc/mp_one_touch_tuning.h **** static inline bool OTT_IsSpeedPITuned(OTT_Handle_t *pHandle)
 255:MCSDK_v6.3.2-Full/MotorControl/MCSDK/MCLib/Any/Inc/mp_one_touch_tuning.h **** {
 256:MCSDK_v6.3.2-Full/MotorControl/MCSDK/MCLib/Any/Inc/mp_one_touch_tuning.h ****   bool retVal = false;
 257:MCSDK_v6.3.2-Full/MotorControl/MCSDK/MCLib/Any/Inc/mp_one_touch_tuning.h **** 
 258:MCSDK_v6.3.2-Full/MotorControl/MCSDK/MCLib/Any/Inc/mp_one_touch_tuning.h ****   if (pHandle->bState == OTT_END)
 259:MCSDK_v6.3.2-Full/MotorControl/MCSDK/MCLib/Any/Inc/mp_one_touch_tuning.h ****   {
 260:MCSDK_v6.3.2-Full/MotorControl/MCSDK/MCLib/Any/Inc/mp_one_touch_tuning.h ****     retVal = true;
 261:MCSDK_v6.3.2-Full/MotorControl/MCSDK/MCLib/Any/Inc/mp_one_touch_tuning.h ****   }
 262:MCSDK_v6.3.2-Full/MotorControl/MCSDK/MCLib/Any/Inc/mp_one_touch_tuning.h ****   return retVal;
 263:MCSDK_v6.3.2-Full/MotorControl/MCSDK/MCLib/Any/Inc/mp_one_touch_tuning.h **** }
 264:MCSDK_v6.3.2-Full/MotorControl/MCSDK/MCLib/Any/Inc/mp_one_touch_tuning.h **** 
 265:MCSDK_v6.3.2-Full/MotorControl/MCSDK/MCLib/Any/Inc/mp_one_touch_tuning.h **** /**
 266:MCSDK_v6.3.2-Full/MotorControl/MCSDK/MCLib/Any/Inc/mp_one_touch_tuning.h ****   * @brief  Sets the number of motor poles pairs.
 267:MCSDK_v6.3.2-Full/MotorControl/MCSDK/MCLib/Any/Inc/mp_one_touch_tuning.h ****   * @param  this related object of class COTT.
 268:MCSDK_v6.3.2-Full/MotorControl/MCSDK/MCLib/Any/Inc/mp_one_touch_tuning.h ****   * @param  bPP Number of motor poles pairs to be set.
 269:MCSDK_v6.3.2-Full/MotorControl/MCSDK/MCLib/Any/Inc/mp_one_touch_tuning.h ****   * @retval none
 270:MCSDK_v6.3.2-Full/MotorControl/MCSDK/MCLib/Any/Inc/mp_one_touch_tuning.h ****   */
 271:MCSDK_v6.3.2-Full/MotorControl/MCSDK/MCLib/Any/Inc/mp_one_touch_tuning.h **** static inline void OTT_SetPolesPairs(OTT_Handle_t *pHandle, uint8_t bPP)
 272:MCSDK_v6.3.2-Full/MotorControl/MCSDK/MCLib/Any/Inc/mp_one_touch_tuning.h **** {
 273:MCSDK_v6.3.2-Full/MotorControl/MCSDK/MCLib/Any/Inc/mp_one_touch_tuning.h ****   pHandle->bPolesPairs = bPP;
 274:MCSDK_v6.3.2-Full/MotorControl/MCSDK/MCLib/Any/Inc/mp_one_touch_tuning.h **** }
 275:MCSDK_v6.3.2-Full/MotorControl/MCSDK/MCLib/Any/Inc/mp_one_touch_tuning.h **** 
 276:MCSDK_v6.3.2-Full/MotorControl/MCSDK/MCLib/Any/Inc/mp_one_touch_tuning.h **** /**
 277:MCSDK_v6.3.2-Full/MotorControl/MCSDK/MCLib/Any/Inc/mp_one_touch_tuning.h ****   * @brief  Change the nominal current.
 278:MCSDK_v6.3.2-Full/MotorControl/MCSDK/MCLib/Any/Inc/mp_one_touch_tuning.h ****   * @param  this related object of class COTT.
 279:MCSDK_v6.3.2-Full/MotorControl/MCSDK/MCLib/Any/Inc/mp_one_touch_tuning.h ****   * @param  hNominalCurrent This value represents actually the maximum Iq current
 280:MCSDK_v6.3.2-Full/MotorControl/MCSDK/MCLib/Any/Inc/mp_one_touch_tuning.h ****             expressed in digit.
 281:MCSDK_v6.3.2-Full/MotorControl/MCSDK/MCLib/Any/Inc/mp_one_touch_tuning.h ****   * @retval none
 282:MCSDK_v6.3.2-Full/MotorControl/MCSDK/MCLib/Any/Inc/mp_one_touch_tuning.h ****   */
 283:MCSDK_v6.3.2-Full/MotorControl/MCSDK/MCLib/Any/Inc/mp_one_touch_tuning.h **** static inline void OTT_SetNominalCurrent(OTT_Handle_t *pHandle, uint16_t hNominalCurrent)
 284:MCSDK_v6.3.2-Full/MotorControl/MCSDK/MCLib/Any/Inc/mp_one_touch_tuning.h **** {
 285:MCSDK_v6.3.2-Full/MotorControl/MCSDK/MCLib/Any/Inc/mp_one_touch_tuning.h ****   pHandle->hMaxPositiveTorque = hNominalCurrent;
 286:MCSDK_v6.3.2-Full/MotorControl/MCSDK/MCLib/Any/Inc/mp_one_touch_tuning.h **** }
 287:MCSDK_v6.3.2-Full/MotorControl/MCSDK/MCLib/Any/Inc/mp_one_touch_tuning.h **** 
 288:MCSDK_v6.3.2-Full/MotorControl/MCSDK/MCLib/Any/Inc/mp_one_touch_tuning.h **** /**
 289:MCSDK_v6.3.2-Full/MotorControl/MCSDK/MCLib/Any/Inc/mp_one_touch_tuning.h ****   * @brief  Change the speed regulator bandwidth.
 290:MCSDK_v6.3.2-Full/MotorControl/MCSDK/MCLib/Any/Inc/mp_one_touch_tuning.h ****   * @param  this related object of class COTT.
 291:MCSDK_v6.3.2-Full/MotorControl/MCSDK/MCLib/Any/Inc/mp_one_touch_tuning.h ****   * @param  fBW Current regulator bandwidth espressed in rad/s.
 292:MCSDK_v6.3.2-Full/MotorControl/MCSDK/MCLib/Any/Inc/mp_one_touch_tuning.h ****   * @retval none
 293:MCSDK_v6.3.2-Full/MotorControl/MCSDK/MCLib/Any/Inc/mp_one_touch_tuning.h ****   */
 294:MCSDK_v6.3.2-Full/MotorControl/MCSDK/MCLib/Any/Inc/mp_one_touch_tuning.h **** static inline void OTT_SetSpeedRegulatorBandwidth(OTT_Handle_t *pHandle, float fBW)
 1127              		.loc 3 294 20 view .LVU293
 1128              	.LBB146:
 295:MCSDK_v6.3.2-Full/MotorControl/MCSDK/MCLib/Any/Inc/mp_one_touch_tuning.h **** {
 296:MCSDK_v6.3.2-Full/MotorControl/MCSDK/MCLib/Any/Inc/mp_one_touch_tuning.h ****   pHandle->fBW = fBW;
 1129              		.loc 3 296 3 view .LVU294
 1130              		.loc 3 296 16 is_stmt 0 view .LVU295
 1131 03b0 3C4B     		ldr	r3, .L164+4
ARM GAS  /tmp/ccKFuU3x.s 			page 49


 1132              	.LBE146:
 1133              	.LBE145:
 1134              	.LBE144:
 1135              	.LBE162:
 158:Src/register_interface.c ****   uint8_t motorID=0;
 1136              		.loc 1 158 11 view .LVU296
 1137 03b2 0020     		movs	r0, #0
 1138              	.LVL151:
 1139              	.LBB163:
 1140              	.LBB149:
 1141              	.LBB148:
 1142              	.LBB147:
 1143              		.loc 3 296 16 view .LVU297
 1144 03b4 1963     		str	r1, [r3, #48]	@ float
 297:MCSDK_v6.3.2-Full/MotorControl/MCSDK/MCLib/Any/Inc/mp_one_touch_tuning.h **** }
 1145              		.loc 3 297 1 view .LVU298
 1146 03b6 87E7     		b	.L64
 1147              	.LVL152:
 1148              	.L45:
 1149              		.loc 3 297 1 view .LVU299
 1150              	.LBE147:
 1151              	.LBE148:
 1152              	.LBE149:
 1153              	.LBE163:
 1154              	.LBB164:
 253:Src/register_interface.c ****           break;
 1155              		.loc 1 253 11 is_stmt 1 view .LVU300
 1156 03b8 3B48     		ldr	r0, .L164+8
 1157              	.LVL153:
 253:Src/register_interface.c ****           break;
 1158              		.loc 1 253 11 is_stmt 0 view .LVU301
 1159 03ba 29B2     		sxth	r1, r5
 1160              	.LVL154:
 253:Src/register_interface.c ****           break;
 1161              		.loc 1 253 11 view .LVU302
 1162 03bc FFF7FEFF 		bl	PID_SetKI
 1163              	.LVL155:
 254:Src/register_interface.c ****         }
 1164              		.loc 1 254 11 is_stmt 1 view .LVU303
 1165              	.LBE164:
 158:Src/register_interface.c ****   uint8_t motorID=0;
 1166              		.loc 1 158 11 is_stmt 0 view .LVU304
 1167 03c0 0020     		movs	r0, #0
 1168              	.LBB165:
 254:Src/register_interface.c ****         }
 1169              		.loc 1 254 11 view .LVU305
 1170 03c2 53E6     		b	.L41
 1171              	.LVL156:
 1172              	.L48:
 306:Src/register_interface.c ****           break;
 1173              		.loc 1 306 11 is_stmt 1 view .LVU306
 1174 03c4 3948     		ldr	r0, .L164+12
 1175              	.LVL157:
 306:Src/register_interface.c ****           break;
 1176              		.loc 1 306 11 is_stmt 0 view .LVU307
 1177 03c6 29B2     		sxth	r1, r5
 1178              	.LVL158:
ARM GAS  /tmp/ccKFuU3x.s 			page 50


 306:Src/register_interface.c ****           break;
 1179              		.loc 1 306 11 view .LVU308
 1180 03c8 FFF7FEFF 		bl	PID_SetKI
 1181              	.LVL159:
 307:Src/register_interface.c ****         }
 1182              		.loc 1 307 11 is_stmt 1 view .LVU309
 1183              	.LBE165:
 158:Src/register_interface.c ****   uint8_t motorID=0;
 1184              		.loc 1 158 11 is_stmt 0 view .LVU310
 1185 03cc 0020     		movs	r0, #0
 1186              	.LBB166:
 307:Src/register_interface.c ****         }
 1187              		.loc 1 307 11 view .LVU311
 1188 03ce 4DE6     		b	.L41
 1189              	.LVL160:
 1190              	.L56:
 340:Src/register_interface.c ****           break;
 1191              		.loc 1 340 11 is_stmt 1 view .LVU312
 1192              	.LBB111:
 1193              	.LBI111:
 528:MCSDK_v6.3.2-Full/MotorControl/MCSDK/MCLib/Any/Inc/mp_self_com_ctrl.h **** {
 1194              		.loc 2 528 20 view .LVU313
 1195              	.LBB112:
 530:MCSDK_v6.3.2-Full/MotorControl/MCSDK/MCLib/Any/Inc/mp_self_com_ctrl.h **** }
 1196              		.loc 2 530 3 view .LVU314
 530:MCSDK_v6.3.2-Full/MotorControl/MCSDK/MCLib/Any/Inc/mp_self_com_ctrl.h **** }
 1197              		.loc 2 530 73 is_stmt 0 view .LVU315
 1198 03d0 334B     		ldr	r3, .L164
 1199 03d2 5A68     		ldr	r2, [r3, #4]
 1200              	.LVL161:
 530:MCSDK_v6.3.2-Full/MotorControl/MCSDK/MCLib/Any/Inc/mp_self_com_ctrl.h **** }
 1201              		.loc 2 530 58 view .LVU316
 1202 03d4 C5EB0545 		rsb	r5, r5, r5, lsl #16
 1203              	.LVL162:
 530:MCSDK_v6.3.2-Full/MotorControl/MCSDK/MCLib/Any/Inc/mp_self_com_ctrl.h **** }
 1204              		.loc 2 530 87 view .LVU317
 1205 03d8 5388     		ldrh	r3, [r2, #2]
 530:MCSDK_v6.3.2-Full/MotorControl/MCSDK/MCLib/Any/Inc/mp_self_com_ctrl.h **** }
 1206              		.loc 2 530 65 view .LVU318
 1207 03da B5FBF3F3 		udiv	r3, r5, r3
 1208              	.LBE112:
 1209              	.LBE111:
 1210              	.LBE166:
 158:Src/register_interface.c ****   uint8_t motorID=0;
 1211              		.loc 1 158 11 view .LVU319
 1212 03de 0020     		movs	r0, #0
 1213              	.LVL163:
 1214              	.LBB167:
 1215              	.LBB114:
 1216              	.LBB113:
 530:MCSDK_v6.3.2-Full/MotorControl/MCSDK/MCLib/Any/Inc/mp_self_com_ctrl.h **** }
 1217              		.loc 2 530 41 view .LVU320
 1218 03e0 9381     		strh	r3, [r2, #12]	@ movhi
 1219              	.LVL164:
 531:MCSDK_v6.3.2-Full/MotorControl/MCSDK/MCLib/Any/Inc/mp_self_com_ctrl.h **** 
 1220              		.loc 2 531 1 view .LVU321
 1221 03e2 43E6     		b	.L41
ARM GAS  /tmp/ccKFuU3x.s 			page 51


 1222              	.LVL165:
 1223              	.L32:
 531:MCSDK_v6.3.2-Full/MotorControl/MCSDK/MCLib/Any/Inc/mp_self_com_ctrl.h **** 
 1224              		.loc 2 531 1 view .LVU322
 1225              	.LBE113:
 1226              	.LBE114:
 1227              	.LBE167:
 1228              	.LBB168:
 205:Src/register_interface.c ****           SPD_SetElToMecRatio(&STO_PLL_M1._Super, regdataU8);
 1229              		.loc 1 205 11 is_stmt 1 view .LVU323
 205:Src/register_interface.c ****           SPD_SetElToMecRatio(&STO_PLL_M1._Super, regdataU8);
 1230              		.loc 1 205 19 is_stmt 0 view .LVU324
 1231 03e4 1578     		ldrb	r5, [r2]	@ zero_extendqisi2
 1232              	.LVL166:
 206:Src/register_interface.c ****           SPD_SetElToMecRatio(&VirtualSpeedSensorM1._Super, regdataU8);
 1233              		.loc 1 206 11 is_stmt 1 view .LVU325
 1234 03e6 3248     		ldr	r0, .L164+16
 1235              	.LVL167:
 206:Src/register_interface.c ****           SPD_SetElToMecRatio(&VirtualSpeedSensorM1._Super, regdataU8);
 1236              		.loc 1 206 11 is_stmt 0 view .LVU326
 1237 03e8 2946     		mov	r1, r5
 1238              	.LVL168:
 206:Src/register_interface.c ****           SPD_SetElToMecRatio(&VirtualSpeedSensorM1._Super, regdataU8);
 1239              		.loc 1 206 11 view .LVU327
 1240 03ea FFF7FEFF 		bl	SPD_SetElToMecRatio
 1241              	.LVL169:
 207:Src/register_interface.c ****           SCC_SetPolesPairs(&SCC, regdataU8);
 1242              		.loc 1 207 11 is_stmt 1 view .LVU328
 1243 03ee 3148     		ldr	r0, .L164+20
 1244 03f0 2946     		mov	r1, r5
 1245 03f2 FFF7FEFF 		bl	SPD_SetElToMecRatio
 1246              	.LVL170:
 208:Src/register_interface.c ****           OTT_SetPolesPairs(&OTT, regdataU8);
 1247              		.loc 1 208 11 view .LVU329
 1248              	.LBB169:
 1249              	.LBI169:
 360:MCSDK_v6.3.2-Full/MotorControl/MCSDK/MCLib/Any/Inc/mp_self_com_ctrl.h **** {
 1250              		.loc 2 360 20 view .LVU330
 1251              	.LBB170:
 362:MCSDK_v6.3.2-Full/MotorControl/MCSDK/MCLib/Any/Inc/mp_self_com_ctrl.h **** }
 1252              		.loc 2 362 3 view .LVU331
 362:MCSDK_v6.3.2-Full/MotorControl/MCSDK/MCLib/Any/Inc/mp_self_com_ctrl.h **** }
 1253              		.loc 2 362 18 is_stmt 0 view .LVU332
 1254 03f6 07EE905A 		vmov	s15, r5	@ int
 362:MCSDK_v6.3.2-Full/MotorControl/MCSDK/MCLib/Any/Inc/mp_self_com_ctrl.h **** }
 1255              		.loc 2 362 16 view .LVU333
 1256 03fa 294A     		ldr	r2, .L164
 1257              	.LBE170:
 1258              	.LBE169:
 1259              	.LBB173:
 1260              	.LBB174:
 273:MCSDK_v6.3.2-Full/MotorControl/MCSDK/MCLib/Any/Inc/mp_one_touch_tuning.h **** }
 1261              		.loc 3 273 24 view .LVU334
 1262 03fc 294B     		ldr	r3, .L164+4
 1263              	.LBE174:
 1264              	.LBE173:
 1265              	.LBB178:
ARM GAS  /tmp/ccKFuU3x.s 			page 52


 1266              	.LBB171:
 362:MCSDK_v6.3.2-Full/MotorControl/MCSDK/MCLib/Any/Inc/mp_self_com_ctrl.h **** }
 1267              		.loc 2 362 18 view .LVU335
 1268 03fe F8EE677A 		vcvt.f32.u32	s15, s15
 1269              	.LBE171:
 1270              	.LBE178:
 1271              	.LBB179:
 1272              	.LBB175:
 273:MCSDK_v6.3.2-Full/MotorControl/MCSDK/MCLib/Any/Inc/mp_one_touch_tuning.h **** }
 1273              		.loc 3 273 24 view .LVU336
 1274 0402 83F87650 		strb	r5, [r3, #118]
 1275              	.LBE175:
 1276              	.LBE179:
 1277              	.LBB180:
 1278              	.LBB172:
 362:MCSDK_v6.3.2-Full/MotorControl/MCSDK/MCLib/Any/Inc/mp_self_com_ctrl.h **** }
 1279              		.loc 2 362 18 view .LVU337
 1280 0406 C2ED127A 		vstr.32	s15, [r2, #72]
 1281              	.LVL171:
 362:MCSDK_v6.3.2-Full/MotorControl/MCSDK/MCLib/Any/Inc/mp_self_com_ctrl.h **** }
 1282              		.loc 2 362 18 view .LVU338
 1283              	.LBE172:
 1284              	.LBE180:
 209:Src/register_interface.c ****           break;
 1285              		.loc 1 209 11 is_stmt 1 view .LVU339
 1286              	.LBB181:
 1287              	.LBI173:
 271:MCSDK_v6.3.2-Full/MotorControl/MCSDK/MCLib/Any/Inc/mp_one_touch_tuning.h **** {
 1288              		.loc 3 271 20 view .LVU340
 1289              	.LBB176:
 273:MCSDK_v6.3.2-Full/MotorControl/MCSDK/MCLib/Any/Inc/mp_one_touch_tuning.h **** }
 1290              		.loc 3 273 3 view .LVU341
 1291              	.LBE176:
 1292              	.LBE181:
 1293              	.LBE168:
 158:Src/register_interface.c ****   uint8_t motorID=0;
 1294              		.loc 1 158 11 is_stmt 0 view .LVU342
 1295 040a 0020     		movs	r0, #0
 1296              	.LBB183:
 1297              	.LBB182:
 1298              	.LBB177:
 274:MCSDK_v6.3.2-Full/MotorControl/MCSDK/MCLib/Any/Inc/mp_one_touch_tuning.h **** 
 1299              		.loc 3 274 1 view .LVU343
 1300 040c DEE6     		b	.L36
 1301              	.LVL172:
 1302              	.L62:
 274:MCSDK_v6.3.2-Full/MotorControl/MCSDK/MCLib/Any/Inc/mp_one_touch_tuning.h **** 
 1303              		.loc 3 274 1 view .LVU344
 1304              	.LBE177:
 1305              	.LBE182:
 1306              	.LBE183:
 1307              	.LBB184:
 400:Src/register_interface.c ****           break;
 1308              		.loc 1 400 11 is_stmt 1 view .LVU345
 400:Src/register_interface.c ****           break;
 1309              		.loc 1 400 30 is_stmt 0 view .LVU346
 1310 040e 2A4B     		ldr	r3, .L164+24
ARM GAS  /tmp/ccKFuU3x.s 			page 53


 1311              	.LBE184:
 158:Src/register_interface.c ****   uint8_t motorID=0;
 1312              		.loc 1 158 11 view .LVU347
 1313 0410 0020     		movs	r0, #0
 1314              	.LVL173:
 1315              	.LBB185:
 400:Src/register_interface.c ****           break;
 1316              		.loc 1 400 30 view .LVU348
 1317 0412 D960     		str	r1, [r3, #12]
 401:Src/register_interface.c ****         }
 1318              		.loc 1 401 11 is_stmt 1 view .LVU349
 1319 0414 58E7     		b	.L64
 1320              	.LVL174:
 1321              	.L70:
 449:Src/register_interface.c ****           break;
 1322              		.loc 1 449 11 view .LVU350
 1323 0416 2248     		ldr	r0, .L164
 1324              	.LVL175:
 449:Src/register_interface.c ****           break;
 1325              		.loc 1 449 11 is_stmt 0 view .LVU351
 1326 0418 FFF7FEFF 		bl	SCC_SetNominalSpeed
 1327              	.LVL176:
 450:Src/register_interface.c ****         }
 1328              		.loc 1 450 11 is_stmt 1 view .LVU352
 1329              	.LBE185:
 158:Src/register_interface.c ****   uint8_t motorID=0;
 1330              		.loc 1 158 11 is_stmt 0 view .LVU353
 1331 041c 0020     		movs	r0, #0
 1332              	.LBB186:
 450:Src/register_interface.c ****         }
 1333              		.loc 1 450 11 view .LVU354
 1334 041e 53E7     		b	.L64
 1335              	.LVL177:
 1336              	.L43:
 450:Src/register_interface.c ****         }
 1337              		.loc 1 450 11 view .LVU355
 1338              	.LBE186:
 1339              	.LBB187:
 1340              	.LBB115:
 288:Src/register_interface.c ****           int16_t hC2;
 1341              		.loc 1 288 11 is_stmt 1 view .LVU356
 289:Src/register_interface.c ****           STO_PLL_GetObserverGains(&STO_PLL_M1, &hC1, &hC2);
 1342              		.loc 1 289 11 view .LVU357
 290:Src/register_interface.c ****           STO_PLL_SetObserverGains(&STO_PLL_M1, (int16_t)regdata16, hC2);
 1343              		.loc 1 290 11 view .LVU358
 1344 0420 2348     		ldr	r0, .L164+16
 1345              	.LVL178:
 290:Src/register_interface.c ****           STO_PLL_SetObserverGains(&STO_PLL_M1, (int16_t)regdata16, hC2);
 1346              		.loc 1 290 11 is_stmt 0 view .LVU359
 1347 0422 0DF10602 		add	r2, sp, #6
 1348              	.LVL179:
 290:Src/register_interface.c ****           STO_PLL_SetObserverGains(&STO_PLL_M1, (int16_t)regdata16, hC2);
 1349              		.loc 1 290 11 view .LVU360
 1350 0426 01A9     		add	r1, sp, #4
 1351              	.LVL180:
 290:Src/register_interface.c ****           STO_PLL_SetObserverGains(&STO_PLL_M1, (int16_t)regdata16, hC2);
 1352              		.loc 1 290 11 view .LVU361
ARM GAS  /tmp/ccKFuU3x.s 			page 54


 1353 0428 FFF7FEFF 		bl	STO_PLL_GetObserverGains
 1354              	.LVL181:
 291:Src/register_interface.c ****           break;
 1355              		.loc 1 291 11 is_stmt 1 view .LVU362
 1356 042c 2048     		ldr	r0, .L164+16
 1357 042e BDF90620 		ldrsh	r2, [sp, #6]
 1358 0432 29B2     		sxth	r1, r5
 1359 0434 FFF7FEFF 		bl	STO_PLL_SetObserverGains
 1360              	.LVL182:
 292:Src/register_interface.c ****         }
 1361              		.loc 1 292 11 view .LVU363
 1362              	.LBE115:
 1363              	.LBE187:
 158:Src/register_interface.c ****   uint8_t motorID=0;
 1364              		.loc 1 158 11 is_stmt 0 view .LVU364
 1365 0438 0020     		movs	r0, #0
 1366 043a 17E6     		b	.L41
 1367              	.LVL183:
 1368              	.L60:
 1369              	.LBB188:
 422:Src/register_interface.c ****           {
 1370              		.loc 1 422 11 is_stmt 1 view .LVU365
 422:Src/register_interface.c ****           {
 1371              		.loc 1 422 17 is_stmt 0 view .LVU366
 1372 043c 184B     		ldr	r3, .L164
 1373 043e 93F83430 		ldrb	r3, [r3, #52]	@ zero_extendqisi2
 422:Src/register_interface.c ****           {
 1374              		.loc 1 422 13 view .LVU367
 1375 0442 0BB1     		cbz	r3, .L77
 422:Src/register_interface.c ****           {
 1376              		.loc 1 422 37 discriminator 1 view .LVU368
 1377 0444 0A2B     		cmp	r3, #10
 1378 0446 A0D1     		bne	.L123
 1379              	.L77:
 1380              	.LBB150:
 424:Src/register_interface.c ****             SCC_SetNominalCurrent(&SCC, fregdata);
 1381              		.loc 1 424 13 is_stmt 1 view .LVU369
 1382              	.LVL184:
 425:Src/register_interface.c ****           }
 1383              		.loc 1 425 13 view .LVU370
 1384 0448 1548     		ldr	r0, .L164
 1385              	.LVL185:
 425:Src/register_interface.c ****           }
 1386              		.loc 1 425 13 is_stmt 0 view .LVU371
 1387 044a 00EE101A 		vmov	s0, r1
 1388 044e FFF7FEFF 		bl	SCC_SetNominalCurrent
 1389              	.LVL186:
 425:Src/register_interface.c ****           }
 1390              		.loc 1 425 13 view .LVU372
 1391              	.LBE150:
 1392              	.LBE188:
 158:Src/register_interface.c ****   uint8_t motorID=0;
 1393              		.loc 1 158 11 view .LVU373
 1394 0452 0020     		movs	r0, #0
 1395              	.LBB189:
 423:Src/register_interface.c ****             float fregdata = *(float*)data; //cstat !MISRAC2012-Rule-11.3
 1396              		.loc 1 423 11 view .LVU374
ARM GAS  /tmp/ccKFuU3x.s 			page 55


 1397 0454 38E7     		b	.L64
 1398              	.LVL187:
 1399              	.L79:
 423:Src/register_interface.c ****             float fregdata = *(float*)data; //cstat !MISRAC2012-Rule-11.3
 1400              		.loc 1 423 11 view .LVU375
 1401              	.LBE189:
 1402              	.LBB190:
 1403              	.LBB118:
 515:Src/register_interface.c ****             uint16_t duration;
 1404              		.loc 1 515 13 is_stmt 1 view .LVU376
 516:Src/register_interface.c **** 
 1405              		.loc 1 516 13 view .LVU377
 518:Src/register_interface.c ****             duration = *(uint16_t *)&rawData[4]; //cstat !MISRAC2012-Rule-11.3
 1406              		.loc 1 518 13 view .LVU378
 519:Src/register_interface.c ****             MCI_ExecSpeedRamp(pMCIN, (int16_t)((rpm * SPEED_UNIT) / U_RPM), duration);
 1407              		.loc 1 519 13 view .LVU379
 520:Src/register_interface.c ****             break;
 1408              		.loc 1 520 13 view .LVU380
 520:Src/register_interface.c ****             break;
 1409              		.loc 1 520 67 is_stmt 0 view .LVU381
 1410 0456 D2F80230 		ldr	r3, [r2, #2]
 1411 045a 1849     		ldr	r1, .L164+28
 1412              	.LVL188:
 520:Src/register_interface.c ****             break;
 1413              		.loc 1 520 13 view .LVU382
 1414 045c D288     		ldrh	r2, [r2, #6]
 1415              	.LVL189:
 520:Src/register_interface.c ****             break;
 1416              		.loc 1 520 67 view .LVU383
 1417 045e 81FB0301 		smull	r0, r1, r1, r3
 1418              	.LVL190:
 520:Src/register_interface.c ****             break;
 1419              		.loc 1 520 67 view .LVU384
 1420 0462 A1EBE371 		sub	r1, r1, r3, asr #31
 520:Src/register_interface.c ****             break;
 1421              		.loc 1 520 13 view .LVU385
 1422 0466 1648     		ldr	r0, .L164+32
 1423 0468 09B2     		sxth	r1, r1
 1424 046a FFF7FEFF 		bl	MCI_ExecSpeedRamp
 1425              	.LVL191:
 521:Src/register_interface.c ****           }
 1426              		.loc 1 521 13 is_stmt 1 view .LVU386
 1427              	.LBE118:
 1428              	.LBE190:
 158:Src/register_interface.c ****   uint8_t motorID=0;
 1429              		.loc 1 158 11 is_stmt 0 view .LVU387
 1430 046e 0020     		movs	r0, #0
 1431              	.LBB191:
 1432              	.LBB119:
 521:Src/register_interface.c ****           }
 1433              		.loc 1 521 13 view .LVU388
 1434 0470 FEE5     		b	.L40
 1435              	.LVL192:
 1436              	.L124:
 521:Src/register_interface.c ****           }
 1437              		.loc 1 521 13 view .LVU389
 1438              	.LBE119:
ARM GAS  /tmp/ccKFuU3x.s 			page 56


 1439 0472 0520     		movs	r0, #5
 1440              	.LVL193:
 521:Src/register_interface.c ****           }
 1441              		.loc 1 521 13 view .LVU390
 1442 0474 FCE5     		b	.L40
 1443              	.LVL194:
 1444              	.L161:
 521:Src/register_interface.c ****           }
 1445              		.loc 1 521 13 view .LVU391
 1446              	.LBE191:
 1447              	.LBB192:
 189:Src/register_interface.c ****           }
 1448              		.loc 1 189 13 is_stmt 1 view .LVU392
 1449 0476 1248     		ldr	r0, .L164+32
 1450              	.LVL195:
 189:Src/register_interface.c ****           }
 1451              		.loc 1 189 13 is_stmt 0 view .LVU393
 1452 0478 FFF7FEFF 		bl	MCI_GetMecSpeedRefUnit
 1453              	.LVL196:
 189:Src/register_interface.c ****           }
 1454              		.loc 1 189 13 view .LVU394
 1455 047c 0022     		movs	r2, #0
 1456 047e 0146     		mov	r1, r0
 1457 0480 0F48     		ldr	r0, .L164+32
 1458 0482 FFF7FEFF 		bl	MCI_ExecSpeedRamp
 1459              	.LVL197:
 1460              	.LBE192:
 158:Src/register_interface.c ****   uint8_t motorID=0;
 1461              		.loc 1 158 11 view .LVU395
 1462 0486 0020     		movs	r0, #0
 1463              	.LBB193:
 1464 0488 A0E6     		b	.L36
 1465              	.LVL198:
 1466              	.L160:
 180:Src/register_interface.c ****           }
 1467              		.loc 1 180 13 is_stmt 1 view .LVU396
 1468 048a 0D48     		ldr	r0, .L164+32
 1469              	.LVL199:
 180:Src/register_interface.c ****           }
 1470              		.loc 1 180 13 is_stmt 0 view .LVU397
 1471 048c FFF7FEFF 		bl	MCI_GetTeref
 1472              	.LVL200:
 180:Src/register_interface.c ****           }
 1473              		.loc 1 180 13 view .LVU398
 1474 0490 0022     		movs	r2, #0
 1475 0492 0146     		mov	r1, r0
 1476 0494 0A48     		ldr	r0, .L164+32
 1477 0496 FFF7FEFF 		bl	MCI_ExecTorqueRamp
 1478              	.LVL201:
 185:Src/register_interface.c **** 
 1479              		.loc 1 185 11 is_stmt 1 view .LVU399
 187:Src/register_interface.c ****           {
 1480              		.loc 1 187 11 view .LVU400
 1481              	.LBE193:
 158:Src/register_interface.c ****   uint8_t motorID=0;
 1482              		.loc 1 158 11 is_stmt 0 view .LVU401
 1483 049a 0020     		movs	r0, #0
ARM GAS  /tmp/ccKFuU3x.s 			page 57


 1484 049c 96E6     		b	.L36
 1485              	.L165:
 1486 049e 00BF     		.align	2
 1487              	.L164:
 1488 04a0 00000000 		.word	SCC
 1489 04a4 00000000 		.word	OTT
 1490 04a8 00000000 		.word	PIDSpeedHandle_M1
 1491 04ac 34000000 		.word	STO_PLL_M1+52
 1492 04b0 00000000 		.word	STO_PLL_M1
 1493 04b4 00000000 		.word	VirtualSpeedSensorM1
 1494 04b8 00000000 		.word	FF_M1
 1495 04bc ABAAAA2A 		.word	715827883
 1496 04c0 00000000 		.word	Mci
 1497              		.cfi_endproc
 1498              	.LFE1714:
 1500              		.section	.text.RI_GetRegisterGlobal,"ax",%progbits
 1501              		.align	1
 1502              		.p2align 2,,3
 1503              		.global	RI_GetRegisterGlobal
 1504              		.syntax unified
 1505              		.thumb
 1506              		.thumb_func
 1507              		.fpu fpv4-sp-d16
 1509              	RI_GetRegisterGlobal:
 1510              	.LVL202:
 1511              	.LFB1715:
 543:Src/register_interface.c **** 
 544:Src/register_interface.c **** uint8_t RI_GetRegisterGlobal(uint16_t regID,uint8_t typeID,uint8_t * data,uint16_t *size,int16_t fr
 1512              		.loc 1 544 108 is_stmt 1 view -0
 1513              		.cfi_startproc
 1514              		@ args = 4, pretend = 0, frame = 16
 1515              		@ frame_needed = 0, uses_anonymous_args = 0
 545:Src/register_interface.c ****     uint8_t retVal = MCP_CMD_OK;
 1516              		.loc 1 545 5 view .LVU403
 546:Src/register_interface.c ****     uint8_t motorID=0;
 1517              		.loc 1 546 5 view .LVU404
 547:Src/register_interface.c ****     MCI_Handle_t *pMCIN = &Mci[motorID];
 1518              		.loc 1 547 5 view .LVU405
 548:Src/register_interface.c ****     switch (typeID)
 1519              		.loc 1 548 5 view .LVU406
 544:Src/register_interface.c ****     uint8_t retVal = MCP_CMD_OK;
 1520              		.loc 1 544 108 is_stmt 0 view .LVU407
 1521 0000 10B5     		push	{r4, lr}
 1522              	.LCFI12:
 1523              		.cfi_def_cfa_offset 8
 1524              		.cfi_offset 4, -8
 1525              		.cfi_offset 14, -4
 1526 0002 84B0     		sub	sp, sp, #16
 1527              	.LCFI13:
 1528              		.cfi_def_cfa_offset 24
 1529 0004 A1F1080C 		sub	ip, r1, #8
 544:Src/register_interface.c ****     uint8_t retVal = MCP_CMD_OK;
 1530              		.loc 1 544 108 view .LVU408
 1531 0008 BDF918E0 		ldrsh	lr, [sp, #24]
 1532 000c BCF1200F 		cmp	ip, #32
 1533 0010 12D8     		bhi	.L180
 1534 0012 DFE80CF0 		tbb	[pc, ip]
ARM GAS  /tmp/ccKFuU3x.s 			page 58


 1535              	.L169:
 1536 0016 1D       		.byte	(.L173-.L169)/2
 1537 0017 11       		.byte	(.L180-.L169)/2
 1538 0018 11       		.byte	(.L180-.L169)/2
 1539 0019 11       		.byte	(.L180-.L169)/2
 1540 001a 11       		.byte	(.L180-.L169)/2
 1541 001b 11       		.byte	(.L180-.L169)/2
 1542 001c 11       		.byte	(.L180-.L169)/2
 1543 001d 11       		.byte	(.L180-.L169)/2
 1544 001e 38       		.byte	(.L172-.L169)/2
 1545 001f 11       		.byte	(.L180-.L169)/2
 1546 0020 11       		.byte	(.L180-.L169)/2
 1547 0021 11       		.byte	(.L180-.L169)/2
 1548 0022 11       		.byte	(.L180-.L169)/2
 1549 0023 11       		.byte	(.L180-.L169)/2
 1550 0024 11       		.byte	(.L180-.L169)/2
 1551 0025 11       		.byte	(.L180-.L169)/2
 1552 0026 24       		.byte	(.L171-.L169)/2
 1553 0027 11       		.byte	(.L180-.L169)/2
 1554 0028 11       		.byte	(.L180-.L169)/2
 1555 0029 11       		.byte	(.L180-.L169)/2
 1556 002a 11       		.byte	(.L180-.L169)/2
 1557 002b 11       		.byte	(.L180-.L169)/2
 1558 002c 11       		.byte	(.L180-.L169)/2
 1559 002d 11       		.byte	(.L180-.L169)/2
 1560 002e 47       		.byte	(.L170-.L169)/2
 1561 002f 11       		.byte	(.L180-.L169)/2
 1562 0030 11       		.byte	(.L180-.L169)/2
 1563 0031 11       		.byte	(.L180-.L169)/2
 1564 0032 11       		.byte	(.L180-.L169)/2
 1565 0033 11       		.byte	(.L180-.L169)/2
 1566 0034 11       		.byte	(.L180-.L169)/2
 1567 0035 11       		.byte	(.L180-.L169)/2
 1568 0036 14       		.byte	(.L168-.L169)/2
 1569 0037 00       		.p2align 1
 1570              	.L180:
 549:Src/register_interface.c ****     {
 550:Src/register_interface.c ****       case TYPE_DATA_8BIT:
 551:Src/register_interface.c ****       {
 552:Src/register_interface.c ****         if (freeSpace > 0)
 553:Src/register_interface.c ****         {
 554:Src/register_interface.c ****           switch (regID)
 555:Src/register_interface.c ****           {
 556:Src/register_interface.c ****             default:
 557:Src/register_interface.c ****             {
 558:Src/register_interface.c ****               retVal = MCP_ERROR_UNKNOWN_REG;
 559:Src/register_interface.c ****               break;
 560:Src/register_interface.c ****             }
 561:Src/register_interface.c ****           }
 562:Src/register_interface.c ****           *size = 1;
 563:Src/register_interface.c ****         }
 564:Src/register_interface.c ****         else
 565:Src/register_interface.c ****         {
 566:Src/register_interface.c ****           retVal = MCP_ERROR_NO_TXSYNC_SPACE;
 1571              		.loc 1 566 18 view .LVU409
 1572 0038 0720     		movs	r0, #7
 1573              	.LVL203:
ARM GAS  /tmp/ccKFuU3x.s 			page 59


 1574              	.L167:
 567:Src/register_interface.c ****         }
 568:Src/register_interface.c ****         break;
 569:Src/register_interface.c ****       }
 570:Src/register_interface.c **** 
 571:Src/register_interface.c ****       case TYPE_DATA_16BIT:
 572:Src/register_interface.c ****       {
 573:Src/register_interface.c ****         if (freeSpace >= 2)
 574:Src/register_interface.c ****         {
 575:Src/register_interface.c ****           switch (regID)
 576:Src/register_interface.c ****           {
 577:Src/register_interface.c ****             case MC_REG_DAC_USER1:
 578:Src/register_interface.c ****             case MC_REG_DAC_USER2:
 579:Src/register_interface.c ****               break;
 580:Src/register_interface.c **** 
 581:Src/register_interface.c ****             default:
 582:Src/register_interface.c ****             {
 583:Src/register_interface.c ****               retVal = MCP_ERROR_UNKNOWN_REG;
 584:Src/register_interface.c ****               break;
 585:Src/register_interface.c ****             }
 586:Src/register_interface.c ****           }
 587:Src/register_interface.c ****           *size = 2;
 588:Src/register_interface.c ****         }
 589:Src/register_interface.c ****         else
 590:Src/register_interface.c ****         {
 591:Src/register_interface.c ****           retVal = MCP_ERROR_NO_TXSYNC_SPACE;
 592:Src/register_interface.c ****         }
 593:Src/register_interface.c ****         break;
 594:Src/register_interface.c ****       }
 595:Src/register_interface.c **** 
 596:Src/register_interface.c ****       case TYPE_DATA_32BIT:
 597:Src/register_interface.c ****       {
 598:Src/register_interface.c ****         uint32_t *regdataU32 = (uint32_t *)data; //cstat !MISRAC2012-Rule-11.3
 599:Src/register_interface.c ****         if (freeSpace >= 4)
 600:Src/register_interface.c ****         {
 601:Src/register_interface.c ****           switch (regID)
 602:Src/register_interface.c ****           {
 603:Src/register_interface.c ****             case MC_REG_PERF_CPU_LOAD:
 604:Src/register_interface.c ****             {
 605:Src/register_interface.c ****               FloatToU32 ReadVal;
 606:Src/register_interface.c ****               ReadVal.Float_Val = MC_Perf_GetCPU_Load(pMCIN->pPerfMeasure);
 607:Src/register_interface.c ****               *regdataU32 = ReadVal.U32_Val;
 608:Src/register_interface.c ****               break;
 609:Src/register_interface.c ****             }
 610:Src/register_interface.c **** 
 611:Src/register_interface.c ****             case MC_REG_PERF_MIN_CPU_LOAD:
 612:Src/register_interface.c ****             {
 613:Src/register_interface.c ****               FloatToU32 ReadVal;
 614:Src/register_interface.c ****               ReadVal.Float_Val = MC_Perf_GetMinCPU_Load(pMCIN->pPerfMeasure);
 615:Src/register_interface.c ****               *regdataU32 = ReadVal.U32_Val;
 616:Src/register_interface.c ****               break;
 617:Src/register_interface.c ****             }
 618:Src/register_interface.c **** 
 619:Src/register_interface.c ****             case MC_REG_PERF_MAX_CPU_LOAD:
 620:Src/register_interface.c ****             {
 621:Src/register_interface.c ****               FloatToU32 ReadVal;
 622:Src/register_interface.c ****               ReadVal.Float_Val = MC_Perf_GetMaxCPU_Load(pMCIN->pPerfMeasure);
ARM GAS  /tmp/ccKFuU3x.s 			page 60


 623:Src/register_interface.c ****               *regdataU32 = ReadVal.U32_Val;
 624:Src/register_interface.c ****               break;
 625:Src/register_interface.c ****             }
 626:Src/register_interface.c **** 
 627:Src/register_interface.c ****             default:
 628:Src/register_interface.c ****             {
 629:Src/register_interface.c ****               retVal = MCP_ERROR_UNKNOWN_REG;
 630:Src/register_interface.c ****               break;
 631:Src/register_interface.c ****             }
 632:Src/register_interface.c ****           }
 633:Src/register_interface.c ****           *size = 4;
 634:Src/register_interface.c ****         }
 635:Src/register_interface.c ****         else
 636:Src/register_interface.c ****         {
 637:Src/register_interface.c ****           retVal = MCP_ERROR_NO_TXSYNC_SPACE;
 638:Src/register_interface.c ****         }
 639:Src/register_interface.c ****         break;
 640:Src/register_interface.c ****       }
 641:Src/register_interface.c **** 
 642:Src/register_interface.c ****       case TYPE_DATA_STRING:
 643:Src/register_interface.c ****       {
 644:Src/register_interface.c ****         switch (regID)
 645:Src/register_interface.c ****         {
 646:Src/register_interface.c ****           default:
 647:Src/register_interface.c ****           {
 648:Src/register_interface.c **** 
 649:Src/register_interface.c ****             retVal = MCP_ERROR_UNKNOWN_REG;
 650:Src/register_interface.c ****             *size= 0 ; /* */
 651:Src/register_interface.c **** 
 652:Src/register_interface.c ****             break;
 653:Src/register_interface.c ****           }
 654:Src/register_interface.c ****         }
 655:Src/register_interface.c ****         break;
 656:Src/register_interface.c **** 
 657:Src/register_interface.c ****       }
 658:Src/register_interface.c ****       case TYPE_DATA_RAW:
 659:Src/register_interface.c ****       {
 660:Src/register_interface.c ****         /* First 2 bytes of the answer is reserved to the size */
 661:Src/register_interface.c ****         uint16_t *rawSize = (uint16_t *)data; //cstat !MISRAC2012-Rule-11.3
 662:Src/register_interface.c ****         uint8_t * rawData = data;
 663:Src/register_interface.c ****         rawData++;
 664:Src/register_interface.c ****         rawData++;
 665:Src/register_interface.c **** 
 666:Src/register_interface.c ****         switch (regID)
 667:Src/register_interface.c ****         {
 668:Src/register_interface.c ****           case MC_REG_GLOBAL_CONFIG:
 669:Src/register_interface.c ****           {
 670:Src/register_interface.c ****             *rawSize = (uint16_t)sizeof(GlobalConfig_reg_t);
 671:Src/register_interface.c ****             if (((*rawSize) + 2U) > (uint16_t)freeSpace)
 672:Src/register_interface.c ****             {
 673:Src/register_interface.c ****               retVal = MCP_ERROR_NO_TXSYNC_SPACE;
 674:Src/register_interface.c ****             }
 675:Src/register_interface.c ****             else
 676:Src/register_interface.c ****             {
 677:Src/register_interface.c ****               (void)memcpy(rawData, &globalConfig_reg, sizeof(GlobalConfig_reg_t));
 678:Src/register_interface.c ****             }
 679:Src/register_interface.c ****             break;
ARM GAS  /tmp/ccKFuU3x.s 			page 61


 680:Src/register_interface.c ****           }
 681:Src/register_interface.c ****           case MC_REG_ASYNC_UARTA:
 682:Src/register_interface.c ****           case MC_REG_ASYNC_UARTB:
 683:Src/register_interface.c ****           case MC_REG_ASYNC_STLNK:
 684:Src/register_interface.c ****           default:
 685:Src/register_interface.c ****           {
 686:Src/register_interface.c ****             retVal = MCP_ERROR_UNKNOWN_REG;
 687:Src/register_interface.c ****             break;
 688:Src/register_interface.c ****           }
 689:Src/register_interface.c ****         }
 690:Src/register_interface.c **** 
 691:Src/register_interface.c ****         /* Size of the answer is size of the data + 2 bytes containing data size */
 692:Src/register_interface.c ****         *size = (*rawSize) + 2U;
 693:Src/register_interface.c ****         break;
 694:Src/register_interface.c ****       }
 695:Src/register_interface.c **** 
 696:Src/register_interface.c ****       default:
 697:Src/register_interface.c ****       {
 698:Src/register_interface.c ****         retVal = MCP_ERROR_BAD_DATA_TYPE;
 699:Src/register_interface.c ****         break;
 700:Src/register_interface.c ****       }
 701:Src/register_interface.c ****     }
 702:Src/register_interface.c ****   return (retVal);
 1575              		.loc 1 702 3 is_stmt 1 view .LVU410
 703:Src/register_interface.c **** }
 1576              		.loc 1 703 1 is_stmt 0 view .LVU411
 1577 003a 04B0     		add	sp, sp, #16
 1578              	.LCFI14:
 1579              		.cfi_remember_state
 1580              		.cfi_def_cfa_offset 8
 1581              		@ sp needed
 1582 003c 10BD     		pop	{r4, pc}
 1583              	.LVL204:
 1584              	.L168:
 1585              	.LCFI15:
 1586              		.cfi_restore_state
 1587              	.LBB194:
 661:Src/register_interface.c ****         uint8_t * rawData = data;
 1588              		.loc 1 661 9 is_stmt 1 view .LVU412
 662:Src/register_interface.c ****         rawData++;
 1589              		.loc 1 662 9 view .LVU413
 663:Src/register_interface.c ****         rawData++;
 1590              		.loc 1 663 9 view .LVU414
 664:Src/register_interface.c **** 
 1591              		.loc 1 664 9 view .LVU415
 666:Src/register_interface.c ****         {
 1592              		.loc 1 666 9 view .LVU416
 1593 003e 2828     		cmp	r0, #40
 1594 0040 3AD0     		beq	.L178
 692:Src/register_interface.c ****         break;
 1595              		.loc 1 692 28 is_stmt 0 view .LVU417
 1596 0042 1288     		ldrh	r2, [r2]
 1597              	.LVL205:
 692:Src/register_interface.c ****         break;
 1598              		.loc 1 692 28 view .LVU418
 1599 0044 0232     		adds	r2, r2, #2
 686:Src/register_interface.c ****             break;
ARM GAS  /tmp/ccKFuU3x.s 			page 62


 1600              		.loc 1 686 20 view .LVU419
 1601 0046 0520     		movs	r0, #5
 1602              	.LVL206:
 692:Src/register_interface.c ****         break;
 1603              		.loc 1 692 28 view .LVU420
 1604 0048 92B2     		uxth	r2, r2
 1605              	.LVL207:
 1606              	.L179:
 692:Src/register_interface.c ****         break;
 1607              		.loc 1 692 9 is_stmt 1 view .LVU421
 692:Src/register_interface.c ****         break;
 1608              		.loc 1 692 15 is_stmt 0 view .LVU422
 1609 004a 1A80     		strh	r2, [r3]	@ movhi
 693:Src/register_interface.c ****       }
 1610              		.loc 1 693 9 is_stmt 1 view .LVU423
 693:Src/register_interface.c ****       }
 1611              		.loc 1 693 9 is_stmt 0 view .LVU424
 1612              	.LBE194:
 702:Src/register_interface.c **** }
 1613              		.loc 1 702 3 is_stmt 1 view .LVU425
 1614              		.loc 1 703 1 is_stmt 0 view .LVU426
 1615 004c 04B0     		add	sp, sp, #16
 1616              	.LCFI16:
 1617              		.cfi_remember_state
 1618              		.cfi_def_cfa_offset 8
 1619              		@ sp needed
 1620 004e 10BD     		pop	{r4, pc}
 1621              	.LVL208:
 1622              	.L173:
 1623              	.LCFI17:
 1624              		.cfi_restore_state
 552:Src/register_interface.c ****         {
 1625              		.loc 1 552 9 is_stmt 1 view .LVU427
 552:Src/register_interface.c ****         {
 1626              		.loc 1 552 12 is_stmt 0 view .LVU428
 1627 0050 BEF1000F 		cmp	lr, #0
 1628 0054 2EDD     		ble	.L181
 554:Src/register_interface.c ****           {
 1629              		.loc 1 554 11 is_stmt 1 view .LVU429
 558:Src/register_interface.c ****               break;
 1630              		.loc 1 558 15 view .LVU430
 1631              	.LVL209:
 559:Src/register_interface.c ****             }
 1632              		.loc 1 559 15 view .LVU431
 562:Src/register_interface.c ****         }
 1633              		.loc 1 562 11 view .LVU432
 562:Src/register_interface.c ****         }
 1634              		.loc 1 562 17 is_stmt 0 view .LVU433
 1635 0056 0122     		movs	r2, #1
 1636              	.LVL210:
 562:Src/register_interface.c ****         }
 1637              		.loc 1 562 17 view .LVU434
 1638 0058 1A80     		strh	r2, [r3]	@ movhi
 558:Src/register_interface.c ****               break;
 1639              		.loc 1 558 22 view .LVU435
 1640 005a 0520     		movs	r0, #5
 1641              	.LVL211:
ARM GAS  /tmp/ccKFuU3x.s 			page 63


 558:Src/register_interface.c ****               break;
 1642              		.loc 1 558 22 view .LVU436
 1643 005c EDE7     		b	.L167
 1644              	.LVL212:
 1645              	.L171:
 1646              	.LBB195:
 598:Src/register_interface.c ****         if (freeSpace >= 4)
 1647              		.loc 1 598 9 is_stmt 1 view .LVU437
 599:Src/register_interface.c ****         {
 1648              		.loc 1 599 9 view .LVU438
 599:Src/register_interface.c ****         {
 1649              		.loc 1 599 12 is_stmt 0 view .LVU439
 1650 005e BEF1030F 		cmp	lr, #3
 1651 0062 24DD     		ble	.L185
 601:Src/register_interface.c ****           {
 1652              		.loc 1 601 11 is_stmt 1 view .LVU440
 1653 0064 41F25861 		movw	r1, #5720
 1654              	.LVL213:
 601:Src/register_interface.c ****           {
 1655              		.loc 1 601 11 is_stmt 0 view .LVU441
 1656 0068 8842     		cmp	r0, r1
 1657 006a 53D0     		beq	.L175
 1658 006c 41F29861 		movw	r1, #5784
 1659 0070 8842     		cmp	r0, r1
 1660 0072 48D0     		beq	.L176
 1661 0074 41F21861 		movw	r1, #5656
 1662 0078 8842     		cmp	r0, r1
 1663 007a 36D0     		beq	.L190
 1664 007c 0520     		movs	r0, #5
 1665              	.LVL214:
 1666              	.L177:
 633:Src/register_interface.c ****         }
 1667              		.loc 1 633 11 is_stmt 1 view .LVU442
 633:Src/register_interface.c ****         }
 1668              		.loc 1 633 17 is_stmt 0 view .LVU443
 1669 007e 0422     		movs	r2, #4
 1670 0080 1A80     		strh	r2, [r3]	@ movhi
 633:Src/register_interface.c ****         }
 1671              		.loc 1 633 17 view .LVU444
 1672              	.LBE195:
 702:Src/register_interface.c **** }
 1673              		.loc 1 702 3 is_stmt 1 view .LVU445
 1674              		.loc 1 703 1 is_stmt 0 view .LVU446
 1675 0082 04B0     		add	sp, sp, #16
 1676              	.LCFI18:
 1677              		.cfi_remember_state
 1678              		.cfi_def_cfa_offset 8
 1679              		@ sp needed
 1680 0084 10BD     		pop	{r4, pc}
 1681              	.LVL215:
 1682              	.L172:
 1683              	.LCFI19:
 1684              		.cfi_restore_state
 573:Src/register_interface.c ****         {
 1685              		.loc 1 573 9 is_stmt 1 view .LVU447
 573:Src/register_interface.c ****         {
 1686              		.loc 1 573 12 is_stmt 0 view .LVU448
ARM GAS  /tmp/ccKFuU3x.s 			page 64


 1687 0086 BEF1010F 		cmp	lr, #1
 1688 008a 10DD     		ble	.L185
 575:Src/register_interface.c ****           {
 1689              		.loc 1 575 11 is_stmt 1 view .LVU449
 1690 008c B0F5656F 		cmp	r0, #3664
 1691 0090 29D0     		beq	.L183
 545:Src/register_interface.c ****     uint8_t motorID=0;
 1692              		.loc 1 545 13 is_stmt 0 view .LVU450
 1693 0092 B0F5696F 		cmp	r0, #3728
 1694 0096 14BF     		ite	ne
 1695 0098 0520     		movne	r0, #5
 1696              	.LVL216:
 545:Src/register_interface.c ****     uint8_t motorID=0;
 1697              		.loc 1 545 13 view .LVU451
 1698 009a 0020     		moveq	r0, #0
 1699              	.L174:
 1700              	.LVL217:
 587:Src/register_interface.c ****         }
 1701              		.loc 1 587 11 is_stmt 1 view .LVU452
 587:Src/register_interface.c ****         }
 1702              		.loc 1 587 17 is_stmt 0 view .LVU453
 1703 009c 0222     		movs	r2, #2
 1704              	.LVL218:
 587:Src/register_interface.c ****         }
 1705              		.loc 1 587 17 view .LVU454
 1706 009e 1A80     		strh	r2, [r3]	@ movhi
 702:Src/register_interface.c **** }
 1707              		.loc 1 702 3 is_stmt 1 view .LVU455
 1708              		.loc 1 703 1 is_stmt 0 view .LVU456
 1709 00a0 04B0     		add	sp, sp, #16
 1710              	.LCFI20:
 1711              		.cfi_remember_state
 1712              		.cfi_def_cfa_offset 8
 1713              		@ sp needed
 1714 00a2 10BD     		pop	{r4, pc}
 1715              	.LVL219:
 1716              	.L170:
 1717              	.LCFI21:
 1718              		.cfi_restore_state
 644:Src/register_interface.c ****         {
 1719              		.loc 1 644 9 is_stmt 1 view .LVU457
 649:Src/register_interface.c ****             *size= 0 ; /* */
 1720              		.loc 1 649 13 view .LVU458
 650:Src/register_interface.c **** 
 1721              		.loc 1 650 13 view .LVU459
 650:Src/register_interface.c **** 
 1722              		.loc 1 650 18 is_stmt 0 view .LVU460
 1723 00a4 0022     		movs	r2, #0
 1724              	.LVL220:
 649:Src/register_interface.c ****             *size= 0 ; /* */
 1725              		.loc 1 649 20 view .LVU461
 1726 00a6 0520     		movs	r0, #5
 1727              	.LVL221:
 650:Src/register_interface.c **** 
 1728              		.loc 1 650 18 view .LVU462
 1729 00a8 1A80     		strh	r2, [r3]	@ movhi
 652:Src/register_interface.c ****           }
ARM GAS  /tmp/ccKFuU3x.s 			page 65


 1730              		.loc 1 652 13 is_stmt 1 view .LVU463
 1731              	.LVL222:
 702:Src/register_interface.c **** }
 1732              		.loc 1 702 3 view .LVU464
 1733              		.loc 1 703 1 is_stmt 0 view .LVU465
 1734 00aa 04B0     		add	sp, sp, #16
 1735              	.LCFI22:
 1736              		.cfi_remember_state
 1737              		.cfi_def_cfa_offset 8
 1738              		@ sp needed
 1739 00ac 10BD     		pop	{r4, pc}
 1740              	.LVL223:
 1741              	.L185:
 1742              	.LCFI23:
 1743              		.cfi_restore_state
 566:Src/register_interface.c ****         }
 1744              		.loc 1 566 18 view .LVU466
 1745 00ae 0820     		movs	r0, #8
 1746              	.LVL224:
 702:Src/register_interface.c **** }
 1747              		.loc 1 702 3 is_stmt 1 view .LVU467
 1748              		.loc 1 703 1 is_stmt 0 view .LVU468
 1749 00b0 04B0     		add	sp, sp, #16
 1750              	.LCFI24:
 1751              		.cfi_remember_state
 1752              		.cfi_def_cfa_offset 8
 1753              		@ sp needed
 1754 00b2 10BD     		pop	{r4, pc}
 1755              	.LVL225:
 1756              	.L181:
 1757              	.LCFI25:
 1758              		.cfi_restore_state
 566:Src/register_interface.c ****         }
 1759              		.loc 1 566 18 view .LVU469
 1760 00b4 0846     		mov	r0, r1
 1761              	.LVL226:
 566:Src/register_interface.c ****         }
 1762              		.loc 1 566 18 view .LVU470
 1763 00b6 C0E7     		b	.L167
 1764              	.LVL227:
 1765              	.L178:
 1766              	.LBB200:
 670:Src/register_interface.c ****             if (((*rawSize) + 2U) > (uint16_t)freeSpace)
 1767              		.loc 1 670 13 is_stmt 1 view .LVU471
 671:Src/register_interface.c ****             {
 1768              		.loc 1 671 16 is_stmt 0 view .LVU472
 1769 00b8 1FFA8EFE 		uxth	lr, lr
 670:Src/register_interface.c ****             if (((*rawSize) + 2U) > (uint16_t)freeSpace)
 1770              		.loc 1 670 22 view .LVU473
 1771 00bc 0A21     		movs	r1, #10
 1772              	.LVL228:
 671:Src/register_interface.c ****             {
 1773              		.loc 1 671 16 view .LVU474
 1774 00be BEF10B0F 		cmp	lr, #11
 670:Src/register_interface.c ****             if (((*rawSize) + 2U) > (uint16_t)freeSpace)
 1775              		.loc 1 670 22 view .LVU475
 1776 00c2 1180     		strh	r1, [r2]	@ movhi
ARM GAS  /tmp/ccKFuU3x.s 			page 66


 671:Src/register_interface.c ****             {
 1777              		.loc 1 671 13 is_stmt 1 view .LVU476
 671:Src/register_interface.c ****             {
 1778              		.loc 1 671 16 is_stmt 0 view .LVU477
 1779 00c4 02D8     		bhi	.L191
 1780 00c6 0C22     		movs	r2, #12
 1781              	.LVL229:
 673:Src/register_interface.c ****             }
 1782              		.loc 1 673 22 view .LVU478
 1783 00c8 0820     		movs	r0, #8
 1784              	.LVL230:
 673:Src/register_interface.c ****             }
 1785              		.loc 1 673 22 view .LVU479
 1786 00ca BEE7     		b	.L179
 1787              	.LVL231:
 1788              	.L191:
 677:Src/register_interface.c ****             }
 1789              		.loc 1 677 15 is_stmt 1 view .LVU480
 677:Src/register_interface.c ****             }
 1790              		.loc 1 677 21 is_stmt 0 view .LVU481
 1791 00cc 1549     		ldr	r1, .L192
 1792 00ce 4868     		ldr	r0, [r1, #4]	@ unaligned
 1793              	.LVL232:
 677:Src/register_interface.c ****             }
 1794              		.loc 1 677 21 view .LVU482
 1795 00d0 D1F800C0 		ldr	ip, [r1]	@ unaligned
 1796 00d4 0989     		ldrh	r1, [r1, #8]	@ unaligned
 1797 00d6 C2F80600 		str	r0, [r2, #6]	@ unaligned
 1798 00da C2F802C0 		str	ip, [r2, #2]	@ unaligned
 1799 00de 5181     		strh	r1, [r2, #10]	@ unaligned
 1800              	.LBE200:
 545:Src/register_interface.c ****     uint8_t motorID=0;
 1801              		.loc 1 545 13 view .LVU483
 1802 00e0 0020     		movs	r0, #0
 1803              	.LBB201:
 677:Src/register_interface.c ****             }
 1804              		.loc 1 677 21 view .LVU484
 1805 00e2 0C22     		movs	r2, #12
 1806              	.LVL233:
 677:Src/register_interface.c ****             }
 1807              		.loc 1 677 21 view .LVU485
 1808 00e4 B1E7     		b	.L179
 1809              	.LVL234:
 1810              	.L183:
 677:Src/register_interface.c ****             }
 1811              		.loc 1 677 21 view .LVU486
 1812              	.LBE201:
 545:Src/register_interface.c ****     uint8_t motorID=0;
 1813              		.loc 1 545 13 view .LVU487
 1814 00e6 0020     		movs	r0, #0
 1815              	.LVL235:
 545:Src/register_interface.c ****     uint8_t motorID=0;
 1816              		.loc 1 545 13 view .LVU488
 1817 00e8 D8E7     		b	.L174
 1818              	.LVL236:
 1819              	.L190:
 1820              	.LBB202:
ARM GAS  /tmp/ccKFuU3x.s 			page 67


 1821              	.LBB196:
 605:Src/register_interface.c ****               ReadVal.Float_Val = MC_Perf_GetCPU_Load(pMCIN->pPerfMeasure);
 1822              		.loc 1 605 15 is_stmt 1 view .LVU489
 606:Src/register_interface.c ****               *regdataU32 = ReadVal.U32_Val;
 1823              		.loc 1 606 15 view .LVU490
 606:Src/register_interface.c ****               *regdataU32 = ReadVal.U32_Val;
 1824              		.loc 1 606 60 is_stmt 0 view .LVU491
 1825 00ea 0F49     		ldr	r1, .L192+4
 606:Src/register_interface.c ****               *regdataU32 = ReadVal.U32_Val;
 1826              		.loc 1 606 35 view .LVU492
 1827 00ec 886A     		ldr	r0, [r1, #40]
 1828              	.LVL237:
 606:Src/register_interface.c ****               *regdataU32 = ReadVal.U32_Val;
 1829              		.loc 1 606 35 view .LVU493
 1830 00ee CDE90223 		strd	r2, r3, [sp, #8]
 1831 00f2 FFF7FEFF 		bl	MC_Perf_GetCPU_Load
 1832              	.LVL238:
 1833              	.L189:
 606:Src/register_interface.c ****               *regdataU32 = ReadVal.U32_Val;
 1834              		.loc 1 606 35 view .LVU494
 1835              	.LBE196:
 1836              	.LBB197:
 622:Src/register_interface.c ****               *regdataU32 = ReadVal.U32_Val;
 1837              		.loc 1 622 35 view .LVU495
 1838 00f6 8DED010A 		vstr.32	s0, [sp, #4]
 1839              	.LVL239:
 623:Src/register_interface.c ****               break;
 1840              		.loc 1 623 15 is_stmt 1 view .LVU496
 623:Src/register_interface.c ****               break;
 1841              		.loc 1 623 27 is_stmt 0 view .LVU497
 1842 00fa DDE90112 		ldrd	r1, r2, [sp, #4]
 1843 00fe 039B     		ldr	r3, [sp, #12]
 1844 0100 1160     		str	r1, [r2]
 624:Src/register_interface.c ****             }
 1845              		.loc 1 624 15 is_stmt 1 view .LVU498
 1846              	.LVL240:
 624:Src/register_interface.c ****             }
 1847              		.loc 1 624 15 is_stmt 0 view .LVU499
 1848              	.LBE197:
 1849              	.LBE202:
 545:Src/register_interface.c ****     uint8_t motorID=0;
 1850              		.loc 1 545 13 view .LVU500
 1851 0102 0020     		movs	r0, #0
 1852 0104 BBE7     		b	.L177
 1853              	.LVL241:
 1854              	.L176:
 1855              	.LBB203:
 1856              	.LBB198:
 621:Src/register_interface.c ****               ReadVal.Float_Val = MC_Perf_GetMaxCPU_Load(pMCIN->pPerfMeasure);
 1857              		.loc 1 621 15 is_stmt 1 view .LVU501
 622:Src/register_interface.c ****               *regdataU32 = ReadVal.U32_Val;
 1858              		.loc 1 622 15 view .LVU502
 622:Src/register_interface.c ****               *regdataU32 = ReadVal.U32_Val;
 1859              		.loc 1 622 63 is_stmt 0 view .LVU503
 1860 0106 0849     		ldr	r1, .L192+4
 622:Src/register_interface.c ****               *regdataU32 = ReadVal.U32_Val;
 1861              		.loc 1 622 35 view .LVU504
ARM GAS  /tmp/ccKFuU3x.s 			page 68


 1862 0108 886A     		ldr	r0, [r1, #40]
 1863              	.LVL242:
 622:Src/register_interface.c ****               *regdataU32 = ReadVal.U32_Val;
 1864              		.loc 1 622 35 view .LVU505
 1865 010a CDE90223 		strd	r2, r3, [sp, #8]
 1866 010e FFF7FEFF 		bl	MC_Perf_GetMaxCPU_Load
 1867              	.LVL243:
 622:Src/register_interface.c ****               *regdataU32 = ReadVal.U32_Val;
 1868              		.loc 1 622 35 view .LVU506
 1869 0112 F0E7     		b	.L189
 1870              	.LVL244:
 1871              	.L175:
 622:Src/register_interface.c ****               *regdataU32 = ReadVal.U32_Val;
 1872              		.loc 1 622 35 view .LVU507
 1873              	.LBE198:
 1874              	.LBB199:
 613:Src/register_interface.c ****               ReadVal.Float_Val = MC_Perf_GetMinCPU_Load(pMCIN->pPerfMeasure);
 1875              		.loc 1 613 15 is_stmt 1 view .LVU508
 614:Src/register_interface.c ****               *regdataU32 = ReadVal.U32_Val;
 1876              		.loc 1 614 15 view .LVU509
 614:Src/register_interface.c ****               *regdataU32 = ReadVal.U32_Val;
 1877              		.loc 1 614 63 is_stmt 0 view .LVU510
 1878 0114 0449     		ldr	r1, .L192+4
 614:Src/register_interface.c ****               *regdataU32 = ReadVal.U32_Val;
 1879              		.loc 1 614 35 view .LVU511
 1880 0116 886A     		ldr	r0, [r1, #40]
 1881              	.LVL245:
 614:Src/register_interface.c ****               *regdataU32 = ReadVal.U32_Val;
 1882              		.loc 1 614 35 view .LVU512
 1883 0118 CDE90223 		strd	r2, r3, [sp, #8]
 1884 011c FFF7FEFF 		bl	MC_Perf_GetMinCPU_Load
 1885              	.LVL246:
 614:Src/register_interface.c ****               *regdataU32 = ReadVal.U32_Val;
 1886              		.loc 1 614 35 view .LVU513
 1887 0120 E9E7     		b	.L189
 1888              	.L193:
 1889 0122 00BF     		.align	2
 1890              	.L192:
 1891 0124 00000000 		.word	globalConfig_reg
 1892 0128 00000000 		.word	Mci
 1893              	.LBE199:
 1894              	.LBE203:
 1895              		.cfi_endproc
 1896              	.LFE1715:
 1898              		.section	.text.RI_GetRegisterMotor1,"ax",%progbits
 1899              		.align	1
 1900              		.p2align 2,,3
 1901              		.global	RI_GetRegisterMotor1
 1902              		.syntax unified
 1903              		.thumb
 1904              		.thumb_func
 1905              		.fpu fpv4-sp-d16
 1907              	RI_GetRegisterMotor1:
 1908              	.LVL247:
 1909              	.LFB1716:
 704:Src/register_interface.c **** 
 705:Src/register_interface.c ****   uint8_t RI_GetRegisterMotor1(uint16_t regID,uint8_t typeID,uint8_t * data,uint16_t *size,int16_t 
ARM GAS  /tmp/ccKFuU3x.s 			page 69


 1910              		.loc 1 705 111 is_stmt 1 view -0
 1911              		.cfi_startproc
 1912              		@ args = 4, pretend = 0, frame = 48
 1913              		@ frame_needed = 0, uses_anonymous_args = 0
 706:Src/register_interface.c ****     uint8_t retVal = MCP_CMD_OK;
 1914              		.loc 1 706 5 view .LVU515
 707:Src/register_interface.c ****     uint8_t motorID=0;
 1915              		.loc 1 707 5 view .LVU516
 708:Src/register_interface.c ****     MCI_Handle_t *pMCIN = &Mci[motorID];
 1916              		.loc 1 708 5 view .LVU517
 709:Src/register_interface.c ****     BusVoltageSensor_Handle_t* BusVoltageSensor= &BusVoltageSensor_M1._Super;
 1917              		.loc 1 709 5 view .LVU518
 710:Src/register_interface.c ****     switch (typeID)
 1918              		.loc 1 710 5 view .LVU519
 705:Src/register_interface.c ****     uint8_t retVal = MCP_CMD_OK;
 1919              		.loc 1 705 111 is_stmt 0 view .LVU520
 1920 0000 30B5     		push	{r4, r5, lr}
 1921              	.LCFI26:
 1922              		.cfi_def_cfa_offset 12
 1923              		.cfi_offset 4, -12
 1924              		.cfi_offset 5, -8
 1925              		.cfi_offset 14, -4
 1926 0002 8DB0     		sub	sp, sp, #52
 1927              	.LCFI27:
 1928              		.cfi_def_cfa_offset 64
 1929 0004 A1F1080C 		sub	ip, r1, #8
 705:Src/register_interface.c ****     uint8_t retVal = MCP_CMD_OK;
 1930              		.loc 1 705 111 view .LVU521
 1931 0008 BDF940E0 		ldrsh	lr, [sp, #64]
 1932 000c 1446     		mov	r4, r2
 1933 000e 1D46     		mov	r5, r3
 1934 0010 BCF1200F 		cmp	ip, #32
 1935 0014 12D8     		bhi	.L286
 1936 0016 DFE80CF0 		tbb	[pc, ip]
 1937              	.LVL248:
 1938              	.L197:
 1939 001a 2E       		.byte	(.L201-.L197)/2
 1940 001b 11       		.byte	(.L286-.L197)/2
 1941 001c 11       		.byte	(.L286-.L197)/2
 1942 001d 11       		.byte	(.L286-.L197)/2
 1943 001e 11       		.byte	(.L286-.L197)/2
 1944 001f 11       		.byte	(.L286-.L197)/2
 1945 0020 11       		.byte	(.L286-.L197)/2
 1946 0021 11       		.byte	(.L286-.L197)/2
 1947 0022 46       		.byte	(.L200-.L197)/2
 1948 0023 11       		.byte	(.L286-.L197)/2
 1949 0024 11       		.byte	(.L286-.L197)/2
 1950 0025 11       		.byte	(.L286-.L197)/2
 1951 0026 11       		.byte	(.L286-.L197)/2
 1952 0027 11       		.byte	(.L286-.L197)/2
 1953 0028 11       		.byte	(.L286-.L197)/2
 1954 0029 11       		.byte	(.L286-.L197)/2
 1955 002a 6B       		.byte	(.L199-.L197)/2
 1956 002b 11       		.byte	(.L286-.L197)/2
 1957 002c 11       		.byte	(.L286-.L197)/2
 1958 002d 11       		.byte	(.L286-.L197)/2
 1959 002e 11       		.byte	(.L286-.L197)/2
ARM GAS  /tmp/ccKFuU3x.s 			page 70


 1960 002f 11       		.byte	(.L286-.L197)/2
 1961 0030 11       		.byte	(.L286-.L197)/2
 1962 0031 11       		.byte	(.L286-.L197)/2
 1963 0032 91       		.byte	(.L198-.L197)/2
 1964 0033 11       		.byte	(.L286-.L197)/2
 1965 0034 11       		.byte	(.L286-.L197)/2
 1966 0035 11       		.byte	(.L286-.L197)/2
 1967 0036 11       		.byte	(.L286-.L197)/2
 1968 0037 11       		.byte	(.L286-.L197)/2
 1969 0038 11       		.byte	(.L286-.L197)/2
 1970 0039 11       		.byte	(.L286-.L197)/2
 1971 003a 14       		.byte	(.L196-.L197)/2
 1972 003b 00       		.p2align 1
 1973              	.L286:
 711:Src/register_interface.c ****     {
 712:Src/register_interface.c ****       case TYPE_DATA_8BIT:
 713:Src/register_interface.c ****       {
 714:Src/register_interface.c ****         if (freeSpace > 0)
 715:Src/register_interface.c ****         {
 716:Src/register_interface.c ****           switch (regID)
 717:Src/register_interface.c ****           {
 718:Src/register_interface.c ****             case MC_REG_STATUS:
 719:Src/register_interface.c ****             {
 720:Src/register_interface.c ****               *data = (uint8_t)MCI_GetSTMState(pMCIN);
 721:Src/register_interface.c ****               break;
 722:Src/register_interface.c ****             }
 723:Src/register_interface.c **** 
 724:Src/register_interface.c ****             case MC_REG_CONTROL_MODE:
 725:Src/register_interface.c ****             {
 726:Src/register_interface.c ****               *data = (uint8_t)MCI_GetControlMode(pMCIN);
 727:Src/register_interface.c ****               break;
 728:Src/register_interface.c ****             }
 729:Src/register_interface.c **** 
 730:Src/register_interface.c ****             case MC_REG_RUC_STAGE_NBR:
 731:Src/register_interface.c ****             {
 732:Src/register_interface.c ****               *data = (uint8_t)RUC_GetNumberOfPhases(&RevUpControlM1);
 733:Src/register_interface.c ****               break;
 734:Src/register_interface.c ****             }
 735:Src/register_interface.c **** 
 736:Src/register_interface.c ****             case MC_REG_SC_CHECK:
 737:Src/register_interface.c ****             {
 738:Src/register_interface.c ****               *data = (uint8_t) 1u;
 739:Src/register_interface.c ****               break;
 740:Src/register_interface.c ****             }
 741:Src/register_interface.c **** 
 742:Src/register_interface.c ****             case MC_REG_SC_STATE:
 743:Src/register_interface.c ****             {
 744:Src/register_interface.c ****               uint8_t state ;
 745:Src/register_interface.c ****               state = SCC_GetState(&SCC);
 746:Src/register_interface.c ****               state += OTT_GetState (&OTT);
 747:Src/register_interface.c ****               *data = state;
 748:Src/register_interface.c ****               break;
 749:Src/register_interface.c ****             }
 750:Src/register_interface.c **** 
 751:Src/register_interface.c ****             case MC_REG_SC_STEPS:
 752:Src/register_interface.c ****             {
 753:Src/register_interface.c ****               uint8_t steps ;
ARM GAS  /tmp/ccKFuU3x.s 			page 71


 754:Src/register_interface.c ****               steps = SCC_GetSteps(&SCC);
 755:Src/register_interface.c ****               steps += OTT_GetSteps (&OTT);
 756:Src/register_interface.c ****               *data = steps-1u;
 757:Src/register_interface.c ****               break;
 758:Src/register_interface.c ****             }
 759:Src/register_interface.c **** 
 760:Src/register_interface.c ****             case MC_REG_SC_PP:
 761:Src/register_interface.c ****             {
 762:Src/register_interface.c ****               *data = SPD_GetElToMecRatio(&STO_PLL_M1._Super);
 763:Src/register_interface.c ****               break;
 764:Src/register_interface.c ****             }
 765:Src/register_interface.c **** 
 766:Src/register_interface.c ****             case MC_REG_SC_FOC_REP_RATE:
 767:Src/register_interface.c ****             {
 768:Src/register_interface.c ****               *data = SCC_GetFOCRepRate(&SCC);
 769:Src/register_interface.c ****               break;
 770:Src/register_interface.c ****             }
 771:Src/register_interface.c **** 
 772:Src/register_interface.c ****             case MC_REG_SC_COMPLETED:
 773:Src/register_interface.c ****             {
 774:Src/register_interface.c ****               *data = OTT_IsMotorAlreadyProfiled(&OTT);
 775:Src/register_interface.c ****               break;
 776:Src/register_interface.c ****              }
 777:Src/register_interface.c **** 
 778:Src/register_interface.c ****             default:
 779:Src/register_interface.c ****             {
 780:Src/register_interface.c ****               retVal = MCP_ERROR_UNKNOWN_REG;
 781:Src/register_interface.c ****               break;
 782:Src/register_interface.c ****             }
 783:Src/register_interface.c ****           }
 784:Src/register_interface.c ****           *size = 1;
 785:Src/register_interface.c ****         }
 786:Src/register_interface.c ****         else
 787:Src/register_interface.c ****         {
 788:Src/register_interface.c ****           retVal = MCP_ERROR_NO_TXSYNC_SPACE;
 1974              		.loc 1 788 18 view .LVU522
 1975 003c 0720     		movs	r0, #7
 1976              	.LVL249:
 1977              	.L195:
 789:Src/register_interface.c ****         }
 790:Src/register_interface.c ****         break;
 791:Src/register_interface.c ****       }
 792:Src/register_interface.c **** 
 793:Src/register_interface.c ****       case TYPE_DATA_16BIT:
 794:Src/register_interface.c ****       {
 795:Src/register_interface.c ****         uint16_t *regdataU16 = (uint16_t *)data; //cstat !MISRAC2012-Rule-11.3
 796:Src/register_interface.c ****         int16_t *regdata16 = (int16_t *) data; //cstat !MISRAC2012-Rule-11.3
 797:Src/register_interface.c **** 
 798:Src/register_interface.c ****         if (freeSpace >= 2)
 799:Src/register_interface.c ****         {
 800:Src/register_interface.c ****           switch (regID)
 801:Src/register_interface.c ****           {
 802:Src/register_interface.c ****             case MC_REG_SPEED_KP:
 803:Src/register_interface.c ****             {
 804:Src/register_interface.c ****               *regdata16 = PID_GetKP(&PIDSpeedHandle_M1);
 805:Src/register_interface.c ****               break;
 806:Src/register_interface.c ****             }
ARM GAS  /tmp/ccKFuU3x.s 			page 72


 807:Src/register_interface.c **** 
 808:Src/register_interface.c ****             case MC_REG_SPEED_KI:
 809:Src/register_interface.c ****             {
 810:Src/register_interface.c ****               *regdata16 = PID_GetKI(&PIDSpeedHandle_M1);
 811:Src/register_interface.c ****               break;
 812:Src/register_interface.c ****             }
 813:Src/register_interface.c **** 
 814:Src/register_interface.c ****             case MC_REG_SPEED_KD:
 815:Src/register_interface.c ****             {
 816:Src/register_interface.c ****               *regdata16 = PID_GetKD(&PIDSpeedHandle_M1);
 817:Src/register_interface.c ****               break;
 818:Src/register_interface.c ****             }
 819:Src/register_interface.c **** 
 820:Src/register_interface.c ****             case MC_REG_BUS_VOLTAGE:
 821:Src/register_interface.c ****             {
