ARM GAS  /tmp/ccCWj51Y.s 			page 1


   1              		.cpu cortex-m4
   2              		.eabi_attribute 27, 1
   3              		.eabi_attribute 28, 1
   4              		.eabi_attribute 20, 1
   5              		.eabi_attribute 21, 1
   6              		.eabi_attribute 23, 3
   7              		.eabi_attribute 24, 1
   8              		.eabi_attribute 25, 1
   9              		.eabi_attribute 26, 1
  10              		.eabi_attribute 30, 1
  11              		.eabi_attribute 34, 1
  12              		.eabi_attribute 18, 2
  13              		.file	"revup_ctrl.c"
  14              		.text
  15              	.Ltext0:
  16              		.cfi_sections	.debug_frame
  17              		.section	.text.RUC_Init,"ax",%progbits
  18              		.align	1
  19              		.weak	RUC_Init
  20              		.arch armv7e-m
  21              		.syntax unified
  22              		.thumb
  23              		.thumb_func
  24              		.fpu fpv4-sp-d16
  26              	RUC_Init:
  27              	.LVL0:
  28              	.LFB1457:
  29              		.file 1 "MCSDK_v6.3.2-Full/MotorControl/MCSDK/MCLib/Any/Src/revup_ctrl.c"
   1:MCSDK_v6.3.2-Full/MotorControl/MCSDK/MCLib/Any/Src/revup_ctrl.c **** /**
   2:MCSDK_v6.3.2-Full/MotorControl/MCSDK/MCLib/Any/Src/revup_ctrl.c ****   ******************************************************************************
   3:MCSDK_v6.3.2-Full/MotorControl/MCSDK/MCLib/Any/Src/revup_ctrl.c ****   * @file    revup_ctrl.c
   4:MCSDK_v6.3.2-Full/MotorControl/MCSDK/MCLib/Any/Src/revup_ctrl.c ****   * @author  Motor Control SDK Team, ST Microelectronics
   5:MCSDK_v6.3.2-Full/MotorControl/MCSDK/MCLib/Any/Src/revup_ctrl.c ****   * @brief   This file provides firmware functions that implement the features
   6:MCSDK_v6.3.2-Full/MotorControl/MCSDK/MCLib/Any/Src/revup_ctrl.c ****   *          of the Rev-Up Control component of the Motor Control SDK:
   7:MCSDK_v6.3.2-Full/MotorControl/MCSDK/MCLib/Any/Src/revup_ctrl.c ****   *
   8:MCSDK_v6.3.2-Full/MotorControl/MCSDK/MCLib/Any/Src/revup_ctrl.c ****   *          * Main Rev-Up procedure to execute programmed phases
   9:MCSDK_v6.3.2-Full/MotorControl/MCSDK/MCLib/Any/Src/revup_ctrl.c ****   *          * On the Fly (OTF)
  10:MCSDK_v6.3.2-Full/MotorControl/MCSDK/MCLib/Any/Src/revup_ctrl.c ****   *
  11:MCSDK_v6.3.2-Full/MotorControl/MCSDK/MCLib/Any/Src/revup_ctrl.c ****   ******************************************************************************
  12:MCSDK_v6.3.2-Full/MotorControl/MCSDK/MCLib/Any/Src/revup_ctrl.c ****   * @attention
  13:MCSDK_v6.3.2-Full/MotorControl/MCSDK/MCLib/Any/Src/revup_ctrl.c ****   *
  14:MCSDK_v6.3.2-Full/MotorControl/MCSDK/MCLib/Any/Src/revup_ctrl.c ****   * <h2><center>&copy; Copyright (c) 2024 STMicroelectronics International N.V.
  15:MCSDK_v6.3.2-Full/MotorControl/MCSDK/MCLib/Any/Src/revup_ctrl.c ****   * All rights reserved.</center></h2>
  16:MCSDK_v6.3.2-Full/MotorControl/MCSDK/MCLib/Any/Src/revup_ctrl.c ****   *
  17:MCSDK_v6.3.2-Full/MotorControl/MCSDK/MCLib/Any/Src/revup_ctrl.c ****   * Redistribution and use in source and binary forms, with or without
  18:MCSDK_v6.3.2-Full/MotorControl/MCSDK/MCLib/Any/Src/revup_ctrl.c ****   * modification, are permitted, provided that the following conditions are met:
  19:MCSDK_v6.3.2-Full/MotorControl/MCSDK/MCLib/Any/Src/revup_ctrl.c ****   *
  20:MCSDK_v6.3.2-Full/MotorControl/MCSDK/MCLib/Any/Src/revup_ctrl.c ****   * 1. Redistribution of source code must retain the above copyright notice,
  21:MCSDK_v6.3.2-Full/MotorControl/MCSDK/MCLib/Any/Src/revup_ctrl.c ****   *    this list of conditions and the following disclaimer.
  22:MCSDK_v6.3.2-Full/MotorControl/MCSDK/MCLib/Any/Src/revup_ctrl.c ****   * 2. Redistributions in binary form must reproduce the above copyright notice,
  23:MCSDK_v6.3.2-Full/MotorControl/MCSDK/MCLib/Any/Src/revup_ctrl.c ****   *    this list of conditions and the following disclaimer in the documentation
  24:MCSDK_v6.3.2-Full/MotorControl/MCSDK/MCLib/Any/Src/revup_ctrl.c ****   *    and/or other materials provided with the distribution.
  25:MCSDK_v6.3.2-Full/MotorControl/MCSDK/MCLib/Any/Src/revup_ctrl.c ****   * 3. Neither the name of STMicroelectronics nor the names of other
  26:MCSDK_v6.3.2-Full/MotorControl/MCSDK/MCLib/Any/Src/revup_ctrl.c ****   *    contributors to this software may be used to endorse or promote products
  27:MCSDK_v6.3.2-Full/MotorControl/MCSDK/MCLib/Any/Src/revup_ctrl.c ****   *    derived from this software without specific written permission.
  28:MCSDK_v6.3.2-Full/MotorControl/MCSDK/MCLib/Any/Src/revup_ctrl.c ****   * 4. This software, including modifications and/or derivative works of this
  29:MCSDK_v6.3.2-Full/MotorControl/MCSDK/MCLib/Any/Src/revup_ctrl.c ****   *    software, must execute solely and exclusively on microcontroller or
ARM GAS  /tmp/ccCWj51Y.s 			page 2


  30:MCSDK_v6.3.2-Full/MotorControl/MCSDK/MCLib/Any/Src/revup_ctrl.c ****   *    microprocessor devices manufactured by or for STMicroelectronics.
  31:MCSDK_v6.3.2-Full/MotorControl/MCSDK/MCLib/Any/Src/revup_ctrl.c ****   * 5. Redistribution and use of this software other than as permitted under
  32:MCSDK_v6.3.2-Full/MotorControl/MCSDK/MCLib/Any/Src/revup_ctrl.c ****   *    this license is void and will automatically terminate your rights under
  33:MCSDK_v6.3.2-Full/MotorControl/MCSDK/MCLib/Any/Src/revup_ctrl.c ****   *    this license.
  34:MCSDK_v6.3.2-Full/MotorControl/MCSDK/MCLib/Any/Src/revup_ctrl.c ****   *
  35:MCSDK_v6.3.2-Full/MotorControl/MCSDK/MCLib/Any/Src/revup_ctrl.c ****   * THIS SOFTWARE IS PROVIDED BY STMICROELECTRONICS AND CONTRIBUTORS "AS IS"
  36:MCSDK_v6.3.2-Full/MotorControl/MCSDK/MCLib/Any/Src/revup_ctrl.c ****   * AND ANY EXPRESS, IMPLIED OR STATUTORY WARRANTIES, INCLUDING, BUT NOT
  37:MCSDK_v6.3.2-Full/MotorControl/MCSDK/MCLib/Any/Src/revup_ctrl.c ****   * LIMITED TO, THE IMPLIED WARRANTIES OF MERCHANTABILITY, FITNESS FOR A
  38:MCSDK_v6.3.2-Full/MotorControl/MCSDK/MCLib/Any/Src/revup_ctrl.c ****   * PARTICULAR PURPOSE AND NON-INFRINGEMENT OF THIRD PARTY INTELLECTUAL PROPERTY
  39:MCSDK_v6.3.2-Full/MotorControl/MCSDK/MCLib/Any/Src/revup_ctrl.c ****   * RIGHTS ARE DISCLAIMED TO THE FULLEST EXTENT PERMITTED BY LAW. IN NO EVENT
  40:MCSDK_v6.3.2-Full/MotorControl/MCSDK/MCLib/Any/Src/revup_ctrl.c ****   * SHALL STMICROELECTRONICS OR CONTRIBUTORS BE LIABLE FOR ANY DIRECT, INDIRECT,
  41:MCSDK_v6.3.2-Full/MotorControl/MCSDK/MCLib/Any/Src/revup_ctrl.c ****   * INCIDENTAL, SPECIAL, EXEMPLARY, OR CONSEQUENTIAL DAMAGES (INCLUDING, BUT NOT
  42:MCSDK_v6.3.2-Full/MotorControl/MCSDK/MCLib/Any/Src/revup_ctrl.c ****   * LIMITED TO, PROCUREMENT OF SUBSTITUTE GOODS OR SERVICES; LOSS OF USE, DATA,
  43:MCSDK_v6.3.2-Full/MotorControl/MCSDK/MCLib/Any/Src/revup_ctrl.c ****   * OR PROFITS; OR BUSINESS INTERRUPTION) HOWEVER CAUSED AND ON ANY THEORY OF
  44:MCSDK_v6.3.2-Full/MotorControl/MCSDK/MCLib/Any/Src/revup_ctrl.c ****   * LIABILITY, WHETHER IN CONTRACT, STRICT LIABILITY, OR TORT (INCLUDING
  45:MCSDK_v6.3.2-Full/MotorControl/MCSDK/MCLib/Any/Src/revup_ctrl.c ****   * NEGLIGENCE OR OTHERWISE) ARISING IN ANY WAY OUT OF THE USE OF THIS SOFTWARE,
  46:MCSDK_v6.3.2-Full/MotorControl/MCSDK/MCLib/Any/Src/revup_ctrl.c ****   * EVEN IF ADVISED OF THE POSSIBILITY OF SUCH DAMAGE.
  47:MCSDK_v6.3.2-Full/MotorControl/MCSDK/MCLib/Any/Src/revup_ctrl.c ****   *
  48:MCSDK_v6.3.2-Full/MotorControl/MCSDK/MCLib/Any/Src/revup_ctrl.c ****   ******************************************************************************
  49:MCSDK_v6.3.2-Full/MotorControl/MCSDK/MCLib/Any/Src/revup_ctrl.c ****   * @ingroup RevUpCtrlFOC
  50:MCSDK_v6.3.2-Full/MotorControl/MCSDK/MCLib/Any/Src/revup_ctrl.c ****   */
  51:MCSDK_v6.3.2-Full/MotorControl/MCSDK/MCLib/Any/Src/revup_ctrl.c **** 
  52:MCSDK_v6.3.2-Full/MotorControl/MCSDK/MCLib/Any/Src/revup_ctrl.c **** /* Includes ------------------------------------------------------------------*/
  53:MCSDK_v6.3.2-Full/MotorControl/MCSDK/MCLib/Any/Src/revup_ctrl.c **** #include "revup_ctrl.h"
  54:MCSDK_v6.3.2-Full/MotorControl/MCSDK/MCLib/Any/Src/revup_ctrl.c **** 
  55:MCSDK_v6.3.2-Full/MotorControl/MCSDK/MCLib/Any/Src/revup_ctrl.c **** /** @addtogroup MCSDK
  56:MCSDK_v6.3.2-Full/MotorControl/MCSDK/MCLib/Any/Src/revup_ctrl.c ****   * @{
  57:MCSDK_v6.3.2-Full/MotorControl/MCSDK/MCLib/Any/Src/revup_ctrl.c ****   */
  58:MCSDK_v6.3.2-Full/MotorControl/MCSDK/MCLib/Any/Src/revup_ctrl.c **** 
  59:MCSDK_v6.3.2-Full/MotorControl/MCSDK/MCLib/Any/Src/revup_ctrl.c **** 
  60:MCSDK_v6.3.2-Full/MotorControl/MCSDK/MCLib/Any/Src/revup_ctrl.c **** /** @defgroup RevUpCtrl Rev-Up Control
  61:MCSDK_v6.3.2-Full/MotorControl/MCSDK/MCLib/Any/Src/revup_ctrl.c ****   * @brief Rev-Up Control component of the Motor Control SDK
  62:MCSDK_v6.3.2-Full/MotorControl/MCSDK/MCLib/Any/Src/revup_ctrl.c ****   *
  63:MCSDK_v6.3.2-Full/MotorControl/MCSDK/MCLib/Any/Src/revup_ctrl.c ****   * Used to start up the motor with a set of pre-programmed phases.
  64:MCSDK_v6.3.2-Full/MotorControl/MCSDK/MCLib/Any/Src/revup_ctrl.c ****   *
  65:MCSDK_v6.3.2-Full/MotorControl/MCSDK/MCLib/Any/Src/revup_ctrl.c ****   * The number of phases of the Rev-Up procedure range is from 0 to 5.
  66:MCSDK_v6.3.2-Full/MotorControl/MCSDK/MCLib/Any/Src/revup_ctrl.c ****   * The Rev-Up controller must be called at speed loop frequency.
  67:MCSDK_v6.3.2-Full/MotorControl/MCSDK/MCLib/Any/Src/revup_ctrl.c ****   *
  68:MCSDK_v6.3.2-Full/MotorControl/MCSDK/MCLib/Any/Src/revup_ctrl.c ****   * @{
  69:MCSDK_v6.3.2-Full/MotorControl/MCSDK/MCLib/Any/Src/revup_ctrl.c ****   */
  70:MCSDK_v6.3.2-Full/MotorControl/MCSDK/MCLib/Any/Src/revup_ctrl.c ****   
  71:MCSDK_v6.3.2-Full/MotorControl/MCSDK/MCLib/Any/Src/revup_ctrl.c ****   
  72:MCSDK_v6.3.2-Full/MotorControl/MCSDK/MCLib/Any/Src/revup_ctrl.c ****   
  73:MCSDK_v6.3.2-Full/MotorControl/MCSDK/MCLib/Any/Src/revup_ctrl.c **** 
  74:MCSDK_v6.3.2-Full/MotorControl/MCSDK/MCLib/Any/Src/revup_ctrl.c **** /** @defgroup RevUpCtrlFOC FOC Rev-Up Control component
  75:MCSDK_v6.3.2-Full/MotorControl/MCSDK/MCLib/Any/Src/revup_ctrl.c ****   * @brief Rev-Up control component used to start motor driven with 
  76:MCSDK_v6.3.2-Full/MotorControl/MCSDK/MCLib/Any/Src/revup_ctrl.c ****   *        the Field Oriented Control technique
  77:MCSDK_v6.3.2-Full/MotorControl/MCSDK/MCLib/Any/Src/revup_ctrl.c ****   *
  78:MCSDK_v6.3.2-Full/MotorControl/MCSDK/MCLib/Any/Src/revup_ctrl.c ****   * @{
  79:MCSDK_v6.3.2-Full/MotorControl/MCSDK/MCLib/Any/Src/revup_ctrl.c ****   */
  80:MCSDK_v6.3.2-Full/MotorControl/MCSDK/MCLib/Any/Src/revup_ctrl.c **** 
  81:MCSDK_v6.3.2-Full/MotorControl/MCSDK/MCLib/Any/Src/revup_ctrl.c **** /* Private defines -----------------------------------------------------------*/
  82:MCSDK_v6.3.2-Full/MotorControl/MCSDK/MCLib/Any/Src/revup_ctrl.c **** 
  83:MCSDK_v6.3.2-Full/MotorControl/MCSDK/MCLib/Any/Src/revup_ctrl.c **** /**
  84:MCSDK_v6.3.2-Full/MotorControl/MCSDK/MCLib/Any/Src/revup_ctrl.c ****   * @brief Timeout used to reset integral term of PLL.
  85:MCSDK_v6.3.2-Full/MotorControl/MCSDK/MCLib/Any/Src/revup_ctrl.c ****   *  It is expressed in ms.
  86:MCSDK_v6.3.2-Full/MotorControl/MCSDK/MCLib/Any/Src/revup_ctrl.c ****   *
ARM GAS  /tmp/ccCWj51Y.s 			page 3


  87:MCSDK_v6.3.2-Full/MotorControl/MCSDK/MCLib/Any/Src/revup_ctrl.c ****   */
  88:MCSDK_v6.3.2-Full/MotorControl/MCSDK/MCLib/Any/Src/revup_ctrl.c **** #define RUC_OTF_PLL_RESET_TIMEOUT 100u
  89:MCSDK_v6.3.2-Full/MotorControl/MCSDK/MCLib/Any/Src/revup_ctrl.c **** 
  90:MCSDK_v6.3.2-Full/MotorControl/MCSDK/MCLib/Any/Src/revup_ctrl.c **** 
  91:MCSDK_v6.3.2-Full/MotorControl/MCSDK/MCLib/Any/Src/revup_ctrl.c **** /* Private functions ----------------------------------------------------------*/
  92:MCSDK_v6.3.2-Full/MotorControl/MCSDK/MCLib/Any/Src/revup_ctrl.c **** 
  93:MCSDK_v6.3.2-Full/MotorControl/MCSDK/MCLib/Any/Src/revup_ctrl.c **** 
  94:MCSDK_v6.3.2-Full/MotorControl/MCSDK/MCLib/Any/Src/revup_ctrl.c **** /* Returns the  mechanical speed of a selected phase */
  95:MCSDK_v6.3.2-Full/MotorControl/MCSDK/MCLib/Any/Src/revup_ctrl.c **** static inline int16_t RUC_GetPhaseFinalMecSpeed01Hz(RevUpCtrl_Handle_t *pHandle, uint8_t bPhase)
  96:MCSDK_v6.3.2-Full/MotorControl/MCSDK/MCLib/Any/Src/revup_ctrl.c **** {
  97:MCSDK_v6.3.2-Full/MotorControl/MCSDK/MCLib/Any/Src/revup_ctrl.c ****   return (pHandle->ParamsData[bPhase].hFinalMecSpeedUnit);
  98:MCSDK_v6.3.2-Full/MotorControl/MCSDK/MCLib/Any/Src/revup_ctrl.c **** }
  99:MCSDK_v6.3.2-Full/MotorControl/MCSDK/MCLib/Any/Src/revup_ctrl.c **** 
 100:MCSDK_v6.3.2-Full/MotorControl/MCSDK/MCLib/Any/Src/revup_ctrl.c **** 
 101:MCSDK_v6.3.2-Full/MotorControl/MCSDK/MCLib/Any/Src/revup_ctrl.c **** /**
 102:MCSDK_v6.3.2-Full/MotorControl/MCSDK/MCLib/Any/Src/revup_ctrl.c ****   * @brief  Initialize and configure the FOC RevUpCtrl Component
 103:MCSDK_v6.3.2-Full/MotorControl/MCSDK/MCLib/Any/Src/revup_ctrl.c ****   * @param  pHandle: Pointer on Handle structure of FOC RevUp controller.
 104:MCSDK_v6.3.2-Full/MotorControl/MCSDK/MCLib/Any/Src/revup_ctrl.c ****   * @param  pSTC: Pointer on speed and torque controller structure.
 105:MCSDK_v6.3.2-Full/MotorControl/MCSDK/MCLib/Any/Src/revup_ctrl.c ****   * @param  pVSS: Pointer on virtual speed sensor structure.
 106:MCSDK_v6.3.2-Full/MotorControl/MCSDK/MCLib/Any/Src/revup_ctrl.c ****   * @param  pSNSL: Pointer on sensorless state observer structure.
 107:MCSDK_v6.3.2-Full/MotorControl/MCSDK/MCLib/Any/Src/revup_ctrl.c ****   * @param  pPWM: Pointer on the PWM structure.
 108:MCSDK_v6.3.2-Full/MotorControl/MCSDK/MCLib/Any/Src/revup_ctrl.c ****   */
 109:MCSDK_v6.3.2-Full/MotorControl/MCSDK/MCLib/Any/Src/revup_ctrl.c **** __weak void RUC_Init(RevUpCtrl_Handle_t *pHandle,
 110:MCSDK_v6.3.2-Full/MotorControl/MCSDK/MCLib/Any/Src/revup_ctrl.c ****                      SpeednTorqCtrl_Handle_t *pSTC,
 111:MCSDK_v6.3.2-Full/MotorControl/MCSDK/MCLib/Any/Src/revup_ctrl.c ****                      VirtualSpeedSensor_Handle_t *pVSS,
 112:MCSDK_v6.3.2-Full/MotorControl/MCSDK/MCLib/Any/Src/revup_ctrl.c ****                      STO_Handle_t *pSNSL,
 113:MCSDK_v6.3.2-Full/MotorControl/MCSDK/MCLib/Any/Src/revup_ctrl.c ****                      PWMC_Handle_t *pPWM)
 114:MCSDK_v6.3.2-Full/MotorControl/MCSDK/MCLib/Any/Src/revup_ctrl.c **** {
  30              		.loc 1 114 1 view -0
  31              		.cfi_startproc
  32              		@ args = 4, pretend = 0, frame = 0
  33              		@ frame_needed = 0, uses_anonymous_args = 0
  34              		@ link register save eliminated.
  35              		.loc 1 114 1 is_stmt 0 view .LVU1
  36 0000 10B4     		push	{r4}
  37              	.LCFI0:
  38              		.cfi_def_cfa_offset 4
  39              		.cfi_offset 4, -4
 115:MCSDK_v6.3.2-Full/MotorControl/MCSDK/MCLib/Any/Src/revup_ctrl.c **** #ifdef NULL_PTR_CHECK_REV_UP_CTL
 116:MCSDK_v6.3.2-Full/MotorControl/MCSDK/MCLib/Any/Src/revup_ctrl.c ****   if (MC_NULL == pHandle)
 117:MCSDK_v6.3.2-Full/MotorControl/MCSDK/MCLib/Any/Src/revup_ctrl.c ****   {
 118:MCSDK_v6.3.2-Full/MotorControl/MCSDK/MCLib/Any/Src/revup_ctrl.c ****     /* Nothing to do */
 119:MCSDK_v6.3.2-Full/MotorControl/MCSDK/MCLib/Any/Src/revup_ctrl.c ****   }
 120:MCSDK_v6.3.2-Full/MotorControl/MCSDK/MCLib/Any/Src/revup_ctrl.c ****   else
 121:MCSDK_v6.3.2-Full/MotorControl/MCSDK/MCLib/Any/Src/revup_ctrl.c ****   {
 122:MCSDK_v6.3.2-Full/MotorControl/MCSDK/MCLib/Any/Src/revup_ctrl.c **** #endif
 123:MCSDK_v6.3.2-Full/MotorControl/MCSDK/MCLib/Any/Src/revup_ctrl.c ****     RevUpCtrl_PhaseParams_t *pRUCPhaseParams = &pHandle->ParamsData[0];
  40              		.loc 1 123 5 is_stmt 1 view .LVU2
  41              		.loc 1 123 30 is_stmt 0 view .LVU3
  42 0002 00F10C04 		add	r4, r0, #12
  43              	.LVL1:
 124:MCSDK_v6.3.2-Full/MotorControl/MCSDK/MCLib/Any/Src/revup_ctrl.c ****     uint8_t bPhase = 0U;
  44              		.loc 1 124 5 is_stmt 1 view .LVU4
 125:MCSDK_v6.3.2-Full/MotorControl/MCSDK/MCLib/Any/Src/revup_ctrl.c **** 
 126:MCSDK_v6.3.2-Full/MotorControl/MCSDK/MCLib/Any/Src/revup_ctrl.c ****     pHandle->pSTC = pSTC;
  45              		.loc 1 126 5 view .LVU5
  46              		.loc 1 126 19 is_stmt 0 view .LVU6
ARM GAS  /tmp/ccCWj51Y.s 			page 4


  47 0006 8166     		str	r1, [r0, #104]
 127:MCSDK_v6.3.2-Full/MotorControl/MCSDK/MCLib/Any/Src/revup_ctrl.c ****     pHandle->pVSS = pVSS;
  48              		.loc 1 127 5 is_stmt 1 view .LVU7
  49              		.loc 1 127 19 is_stmt 0 view .LVU8
  50 0008 C266     		str	r2, [r0, #108]
 128:MCSDK_v6.3.2-Full/MotorControl/MCSDK/MCLib/Any/Src/revup_ctrl.c ****     pHandle->pSNSL = pSNSL;
  51              		.loc 1 128 5 is_stmt 1 view .LVU9
  52              		.loc 1 128 20 is_stmt 0 view .LVU10
  53 000a 0367     		str	r3, [r0, #112]
 129:MCSDK_v6.3.2-Full/MotorControl/MCSDK/MCLib/Any/Src/revup_ctrl.c ****     pHandle->pPWM = pPWM;
  54              		.loc 1 129 5 is_stmt 1 view .LVU11
  55              		.loc 1 129 19 is_stmt 0 view .LVU12
  56 000c 019B     		ldr	r3, [sp, #4]
  57              	.LVL2:
  58              		.loc 1 129 19 view .LVU13
  59 000e 4367     		str	r3, [r0, #116]
 130:MCSDK_v6.3.2-Full/MotorControl/MCSDK/MCLib/Any/Src/revup_ctrl.c ****     pHandle->OTFSCLowside = false;
  60              		.loc 1 130 5 is_stmt 1 view .LVU14
  61              		.loc 1 130 27 is_stmt 0 view .LVU15
  62 0010 0023     		movs	r3, #0
  63 0012 80F85430 		strb	r3, [r0, #84]
 131:MCSDK_v6.3.2-Full/MotorControl/MCSDK/MCLib/Any/Src/revup_ctrl.c ****     pHandle->EnteredZone1 = false;
  64              		.loc 1 131 5 is_stmt 1 view .LVU16
  65              		.loc 1 131 27 is_stmt 0 view .LVU17
  66 0016 80F85530 		strb	r3, [r0, #85]
 132:MCSDK_v6.3.2-Full/MotorControl/MCSDK/MCLib/Any/Src/revup_ctrl.c **** 
 133:MCSDK_v6.3.2-Full/MotorControl/MCSDK/MCLib/Any/Src/revup_ctrl.c ****     while ((pRUCPhaseParams != MC_NULL) && (bPhase < RUC_MAX_PHASE_NUMBER))
  67              		.loc 1 133 5 is_stmt 1 view .LVU18
  68              		.loc 1 133 11 view .LVU19
  69              	.LVL3:
  70              	.L3:
 134:MCSDK_v6.3.2-Full/MotorControl/MCSDK/MCLib/Any/Src/revup_ctrl.c ****     {
 135:MCSDK_v6.3.2-Full/MotorControl/MCSDK/MCLib/Any/Src/revup_ctrl.c ****       /* Dump HF data for now HF data are forced to 16 bits */
 136:MCSDK_v6.3.2-Full/MotorControl/MCSDK/MCLib/Any/Src/revup_ctrl.c ****       pRUCPhaseParams = (RevUpCtrl_PhaseParams_t *)pRUCPhaseParams->pNext;  //cstat !MISRAC2012-Rul
  71              		.loc 1 136 7 view .LVU20
  72              		.loc 1 136 23 is_stmt 0 view .LVU21
  73 001a A468     		ldr	r4, [r4, #8]
  74              	.LVL4:
 137:MCSDK_v6.3.2-Full/MotorControl/MCSDK/MCLib/Any/Src/revup_ctrl.c ****       bPhase++;
  75              		.loc 1 137 7 is_stmt 1 view .LVU22
  76              		.loc 1 137 13 is_stmt 0 view .LVU23
  77 001c 0133     		adds	r3, r3, #1
  78              	.LVL5:
  79              		.loc 1 137 13 view .LVU24
  80 001e DBB2     		uxtb	r3, r3
  81              	.LVL6:
 133:MCSDK_v6.3.2-Full/MotorControl/MCSDK/MCLib/Any/Src/revup_ctrl.c ****     {
  82              		.loc 1 133 11 is_stmt 1 view .LVU25
  83 0020 ACB1     		cbz	r4, .L2
 133:MCSDK_v6.3.2-Full/MotorControl/MCSDK/MCLib/Any/Src/revup_ctrl.c ****     {
  84              		.loc 1 133 41 is_stmt 0 discriminator 1 view .LVU26
  85 0022 052B     		cmp	r3, #5
  86 0024 F9D1     		bne	.L3
  87              	.L4:
 138:MCSDK_v6.3.2-Full/MotorControl/MCSDK/MCLib/Any/Src/revup_ctrl.c ****     }
 139:MCSDK_v6.3.2-Full/MotorControl/MCSDK/MCLib/Any/Src/revup_ctrl.c **** 
 140:MCSDK_v6.3.2-Full/MotorControl/MCSDK/MCLib/Any/Src/revup_ctrl.c ****     if (0U == bPhase)
ARM GAS  /tmp/ccCWj51Y.s 			page 5


 141:MCSDK_v6.3.2-Full/MotorControl/MCSDK/MCLib/Any/Src/revup_ctrl.c ****     {
 142:MCSDK_v6.3.2-Full/MotorControl/MCSDK/MCLib/Any/Src/revup_ctrl.c ****       /* nothing to do error */
 143:MCSDK_v6.3.2-Full/MotorControl/MCSDK/MCLib/Any/Src/revup_ctrl.c ****     }
 144:MCSDK_v6.3.2-Full/MotorControl/MCSDK/MCLib/Any/Src/revup_ctrl.c ****     else
 145:MCSDK_v6.3.2-Full/MotorControl/MCSDK/MCLib/Any/Src/revup_ctrl.c ****     {
 146:MCSDK_v6.3.2-Full/MotorControl/MCSDK/MCLib/Any/Src/revup_ctrl.c ****       pHandle->ParamsData[bPhase - 1u].pNext = MC_NULL;
  88              		.loc 1 146 7 is_stmt 1 view .LVU27
  89              		.loc 1 146 46 is_stmt 0 view .LVU28
  90 0026 5A1E     		subs	r2, r3, #1
  91              	.LVL7:
  92              		.loc 1 146 46 view .LVU29
  93 0028 02EB4202 		add	r2, r2, r2, lsl #1
  94 002c 00EB8202 		add	r2, r0, r2, lsl #2
  95 0030 0021     		movs	r1, #0
  96              	.LVL8:
  97              		.loc 1 146 46 view .LVU30
  98 0032 5161     		str	r1, [r2, #20]
  99              	.LVL9:
 147:MCSDK_v6.3.2-Full/MotorControl/MCSDK/MCLib/Any/Src/revup_ctrl.c **** 
 148:MCSDK_v6.3.2-Full/MotorControl/MCSDK/MCLib/Any/Src/revup_ctrl.c ****       pHandle->bPhaseNbr = bPhase;
 100              		.loc 1 148 7 is_stmt 1 view .LVU31
 101              		.loc 1 148 26 is_stmt 0 view .LVU32
 102 0034 80F84830 		strb	r3, [r0, #72]
 149:MCSDK_v6.3.2-Full/MotorControl/MCSDK/MCLib/Any/Src/revup_ctrl.c **** 
 150:MCSDK_v6.3.2-Full/MotorControl/MCSDK/MCLib/Any/Src/revup_ctrl.c ****       pHandle->bResetPLLTh = (uint8_t)((RUC_OTF_PLL_RESET_TIMEOUT * pHandle->hRUCFrequencyHz) / 100
 103              		.loc 1 150 7 is_stmt 1 view .LVU33
 104              		.loc 1 150 76 is_stmt 0 view .LVU34
 105 0038 0388     		ldrh	r3, [r0]
 106              	.LVL10:
 107              		.loc 1 150 67 view .LVU35
 108 003a 6422     		movs	r2, #100
 109 003c 02FB03F3 		mul	r3, r2, r3
 110              		.loc 1 150 95 view .LVU36
 111 0040 054A     		ldr	r2, .L8
 112 0042 A2FB0323 		umull	r2, r3, r2, r3
 113 0046 9B09     		lsrs	r3, r3, #6
 114              		.loc 1 150 30 view .LVU37
 115 0048 80F85630 		strb	r3, [r0, #86]
 151:MCSDK_v6.3.2-Full/MotorControl/MCSDK/MCLib/Any/Src/revup_ctrl.c ****     }
 152:MCSDK_v6.3.2-Full/MotorControl/MCSDK/MCLib/Any/Src/revup_ctrl.c **** #ifdef NULL_PTR_CHECK_REV_UP_CTL
 153:MCSDK_v6.3.2-Full/MotorControl/MCSDK/MCLib/Any/Src/revup_ctrl.c ****   }
 154:MCSDK_v6.3.2-Full/MotorControl/MCSDK/MCLib/Any/Src/revup_ctrl.c **** #endif
 155:MCSDK_v6.3.2-Full/MotorControl/MCSDK/MCLib/Any/Src/revup_ctrl.c **** }
 116              		.loc 1 155 1 view .LVU38
 117 004c 01E0     		b	.L1
 118              	.LVL11:
 119              	.L2:
 140:MCSDK_v6.3.2-Full/MotorControl/MCSDK/MCLib/Any/Src/revup_ctrl.c ****     {
 120              		.loc 1 140 5 is_stmt 1 view .LVU39
 140:MCSDK_v6.3.2-Full/MotorControl/MCSDK/MCLib/Any/Src/revup_ctrl.c ****     {
 121              		.loc 1 140 8 is_stmt 0 view .LVU40
 122 004e 002B     		cmp	r3, #0
 123 0050 E9D1     		bne	.L4
 124              	.LVL12:
 125              	.L1:
 126              		.loc 1 155 1 view .LVU41
 127 0052 5DF8044B 		ldr	r4, [sp], #4
ARM GAS  /tmp/ccCWj51Y.s 			page 6


 128              	.LCFI1:
 129              		.cfi_restore 4
 130              		.cfi_def_cfa_offset 0
 131              	.LVL13:
 132              		.loc 1 155 1 view .LVU42
 133 0056 7047     		bx	lr
 134              	.L9:
 135              		.align	2
 136              	.L8:
 137 0058 D34D6210 		.word	274877907
 138              		.cfi_endproc
 139              	.LFE1457:
 141              		.section	.text.RUC_Clear,"ax",%progbits
 142              		.align	1
 143              		.weak	RUC_Clear
 144              		.syntax unified
 145              		.thumb
 146              		.thumb_func
 147              		.fpu fpv4-sp-d16
 149              	RUC_Clear:
 150              	.LVL14:
 151              	.LFB1458:
 156:MCSDK_v6.3.2-Full/MotorControl/MCSDK/MCLib/Any/Src/revup_ctrl.c **** 
 157:MCSDK_v6.3.2-Full/MotorControl/MCSDK/MCLib/Any/Src/revup_ctrl.c **** /**
 158:MCSDK_v6.3.2-Full/MotorControl/MCSDK/MCLib/Any/Src/revup_ctrl.c ****   * @brief  Initialize internal FOC RevUp controller state.
 159:MCSDK_v6.3.2-Full/MotorControl/MCSDK/MCLib/Any/Src/revup_ctrl.c ****   * @param  pHandle: Pointer on Handle structure of RevUp controller.
 160:MCSDK_v6.3.2-Full/MotorControl/MCSDK/MCLib/Any/Src/revup_ctrl.c ****   * @param  hMotorDirection: Rotor rotation direction.
 161:MCSDK_v6.3.2-Full/MotorControl/MCSDK/MCLib/Any/Src/revup_ctrl.c ****   *         This parameter must be -1 or +1.
 162:MCSDK_v6.3.2-Full/MotorControl/MCSDK/MCLib/Any/Src/revup_ctrl.c ****   */
 163:MCSDK_v6.3.2-Full/MotorControl/MCSDK/MCLib/Any/Src/revup_ctrl.c **** __weak void RUC_Clear(RevUpCtrl_Handle_t *pHandle, int16_t hMotorDirection)
 164:MCSDK_v6.3.2-Full/MotorControl/MCSDK/MCLib/Any/Src/revup_ctrl.c **** {
 152              		.loc 1 164 1 is_stmt 1 view -0
 153              		.cfi_startproc
 154              		@ args = 0, pretend = 0, frame = 0
 155              		@ frame_needed = 0, uses_anonymous_args = 0
 156              		.loc 1 164 1 is_stmt 0 view .LVU44
 157 0000 2DE9F041 		push	{r4, r5, r6, r7, r8, lr}
 158              	.LCFI2:
 159              		.cfi_def_cfa_offset 24
 160              		.cfi_offset 4, -24
 161              		.cfi_offset 5, -20
 162              		.cfi_offset 6, -16
 163              		.cfi_offset 7, -12
 164              		.cfi_offset 8, -8
 165              		.cfi_offset 14, -4
 166 0004 0446     		mov	r4, r0
 167 0006 0D46     		mov	r5, r1
 165:MCSDK_v6.3.2-Full/MotorControl/MCSDK/MCLib/Any/Src/revup_ctrl.c **** #ifdef NULL_PTR_CHECK_REV_UP_CTL
 166:MCSDK_v6.3.2-Full/MotorControl/MCSDK/MCLib/Any/Src/revup_ctrl.c ****   if (MC_NULL == pHandle)
 167:MCSDK_v6.3.2-Full/MotorControl/MCSDK/MCLib/Any/Src/revup_ctrl.c ****   {
 168:MCSDK_v6.3.2-Full/MotorControl/MCSDK/MCLib/Any/Src/revup_ctrl.c ****     /* Nothing to do */
 169:MCSDK_v6.3.2-Full/MotorControl/MCSDK/MCLib/Any/Src/revup_ctrl.c ****   }
 170:MCSDK_v6.3.2-Full/MotorControl/MCSDK/MCLib/Any/Src/revup_ctrl.c ****   else
 171:MCSDK_v6.3.2-Full/MotorControl/MCSDK/MCLib/Any/Src/revup_ctrl.c ****   {
 172:MCSDK_v6.3.2-Full/MotorControl/MCSDK/MCLib/Any/Src/revup_ctrl.c **** #endif
 173:MCSDK_v6.3.2-Full/MotorControl/MCSDK/MCLib/Any/Src/revup_ctrl.c ****     VirtualSpeedSensor_Handle_t *pVSS = pHandle->pVSS;
 168              		.loc 1 173 5 is_stmt 1 view .LVU45
ARM GAS  /tmp/ccCWj51Y.s 			page 7


 169              		.loc 1 173 34 is_stmt 0 view .LVU46
 170 0008 C76E     		ldr	r7, [r0, #108]
 171              	.LVL15:
 174:MCSDK_v6.3.2-Full/MotorControl/MCSDK/MCLib/Any/Src/revup_ctrl.c ****     SpeednTorqCtrl_Handle_t *pSTC = pHandle->pSTC;
 172              		.loc 1 174 5 is_stmt 1 view .LVU47
 173              		.loc 1 174 30 is_stmt 0 view .LVU48
 174 000a D0F86880 		ldr	r8, [r0, #104]
 175              	.LVL16:
 175:MCSDK_v6.3.2-Full/MotorControl/MCSDK/MCLib/Any/Src/revup_ctrl.c ****     RevUpCtrl_PhaseParams_t *pPhaseParams = pHandle->ParamsData;
 176              		.loc 1 175 5 is_stmt 1 view .LVU49
 176:MCSDK_v6.3.2-Full/MotorControl/MCSDK/MCLib/Any/Src/revup_ctrl.c **** 
 177:MCSDK_v6.3.2-Full/MotorControl/MCSDK/MCLib/Any/Src/revup_ctrl.c ****     pHandle->hDirection = hMotorDirection;
 177              		.loc 1 177 5 view .LVU50
 178              		.loc 1 177 25 is_stmt 0 view .LVU51
 179 000e C180     		strh	r1, [r0, #6]	@ movhi
 178:MCSDK_v6.3.2-Full/MotorControl/MCSDK/MCLib/Any/Src/revup_ctrl.c ****     pHandle->EnteredZone1 = false;
 180              		.loc 1 178 5 is_stmt 1 view .LVU52
 181              		.loc 1 178 27 is_stmt 0 view .LVU53
 182 0010 0026     		movs	r6, #0
 183 0012 80F85560 		strb	r6, [r0, #85]
 179:MCSDK_v6.3.2-Full/MotorControl/MCSDK/MCLib/Any/Src/revup_ctrl.c **** 
 180:MCSDK_v6.3.2-Full/MotorControl/MCSDK/MCLib/Any/Src/revup_ctrl.c ****     /* Initializes the rev up stages counter */
 181:MCSDK_v6.3.2-Full/MotorControl/MCSDK/MCLib/Any/Src/revup_ctrl.c ****     pHandle->bStageCnt = 0U;
 184              		.loc 1 181 5 is_stmt 1 view .LVU54
 185              		.loc 1 181 24 is_stmt 0 view .LVU55
 186 0016 80F85860 		strb	r6, [r0, #88]
 182:MCSDK_v6.3.2-Full/MotorControl/MCSDK/MCLib/Any/Src/revup_ctrl.c ****     pHandle->bOTFRelCounter = 0U;
 187              		.loc 1 182 5 is_stmt 1 view .LVU56
 188              		.loc 1 182 29 is_stmt 0 view .LVU57
 189 001a 80F85360 		strb	r6, [r0, #83]
 183:MCSDK_v6.3.2-Full/MotorControl/MCSDK/MCLib/Any/Src/revup_ctrl.c ****     pHandle->OTFSCLowside = false;
 190              		.loc 1 183 5 is_stmt 1 view .LVU58
 191              		.loc 1 183 27 is_stmt 0 view .LVU59
 192 001e 80F85460 		strb	r6, [r0, #84]
 184:MCSDK_v6.3.2-Full/MotorControl/MCSDK/MCLib/Any/Src/revup_ctrl.c **** 
 185:MCSDK_v6.3.2-Full/MotorControl/MCSDK/MCLib/Any/Src/revup_ctrl.c ****     /* Calls the clear method of VSS */
 186:MCSDK_v6.3.2-Full/MotorControl/MCSDK/MCLib/Any/Src/revup_ctrl.c ****     VSS_Clear(pVSS);
 193              		.loc 1 186 5 is_stmt 1 view .LVU60
 194 0022 3846     		mov	r0, r7
 195              	.LVL17:
 196              		.loc 1 186 5 is_stmt 0 view .LVU61
 197 0024 FFF7FEFF 		bl	VSS_Clear
 198              	.LVL18:
 187:MCSDK_v6.3.2-Full/MotorControl/MCSDK/MCLib/Any/Src/revup_ctrl.c **** 
 188:MCSDK_v6.3.2-Full/MotorControl/MCSDK/MCLib/Any/Src/revup_ctrl.c ****     /* Sets the STC in torque mode */
 189:MCSDK_v6.3.2-Full/MotorControl/MCSDK/MCLib/Any/Src/revup_ctrl.c ****     STC_SetControlMode(pSTC, MCM_TORQUE_MODE);
 199              		.loc 1 189 5 is_stmt 1 view .LVU62
 200 0028 0421     		movs	r1, #4
 201 002a 4046     		mov	r0, r8
 202 002c FFF7FEFF 		bl	STC_SetControlMode
 203              	.LVL19:
 190:MCSDK_v6.3.2-Full/MotorControl/MCSDK/MCLib/Any/Src/revup_ctrl.c **** 
 191:MCSDK_v6.3.2-Full/MotorControl/MCSDK/MCLib/Any/Src/revup_ctrl.c ****     /* Sets the mechanical starting angle of VSS */
 192:MCSDK_v6.3.2-Full/MotorControl/MCSDK/MCLib/Any/Src/revup_ctrl.c ****     VSS_SetMecAngle(pVSS, pHandle->hStartingMecAngle * hMotorDirection);
 204              		.loc 1 192 5 view .LVU63
 205              		.loc 1 192 54 is_stmt 0 view .LVU64
 206 0030 ADB2     		uxth	r5, r5
ARM GAS  /tmp/ccCWj51Y.s 			page 8


 207 0032 6388     		ldrh	r3, [r4, #2]
 208 0034 13FB05F3 		smulbb	r3, r3, r5
 209              		.loc 1 192 5 view .LVU65
 210 0038 1BB2     		sxth	r3, r3
 211              	.LVL20:
 212              	.LBB11:
 213              	.LBI11:
 214              		.file 2 "MCSDK_v6.3.2-Full/MotorControl/MCSDK/MCLib/Any/Inc/virtual_speed_sensor.h"
   1:MCSDK_v6.3.2-Full/MotorControl/MCSDK/MCLib/Any/Inc/virtual_speed_sensor.h **** /**
   2:MCSDK_v6.3.2-Full/MotorControl/MCSDK/MCLib/Any/Inc/virtual_speed_sensor.h ****   ******************************************************************************
   3:MCSDK_v6.3.2-Full/MotorControl/MCSDK/MCLib/Any/Inc/virtual_speed_sensor.h ****   * @file    virtual_speed_sensor.h
   4:MCSDK_v6.3.2-Full/MotorControl/MCSDK/MCLib/Any/Inc/virtual_speed_sensor.h ****   * @author  Motor Control SDK Team, ST Microelectronics
   5:MCSDK_v6.3.2-Full/MotorControl/MCSDK/MCLib/Any/Inc/virtual_speed_sensor.h ****   * @brief   This file contains all definitions and functions prototypes for the
   6:MCSDK_v6.3.2-Full/MotorControl/MCSDK/MCLib/Any/Inc/virtual_speed_sensor.h ****   *          Virtual Speed Sensor component of the Motor Control SDK.
   7:MCSDK_v6.3.2-Full/MotorControl/MCSDK/MCLib/Any/Inc/virtual_speed_sensor.h ****   ******************************************************************************
   8:MCSDK_v6.3.2-Full/MotorControl/MCSDK/MCLib/Any/Inc/virtual_speed_sensor.h ****   * @attention
   9:MCSDK_v6.3.2-Full/MotorControl/MCSDK/MCLib/Any/Inc/virtual_speed_sensor.h ****   *
  10:MCSDK_v6.3.2-Full/MotorControl/MCSDK/MCLib/Any/Inc/virtual_speed_sensor.h ****   * <h2><center>&copy; Copyright (c) 2024 STMicroelectronics.
  11:MCSDK_v6.3.2-Full/MotorControl/MCSDK/MCLib/Any/Inc/virtual_speed_sensor.h ****   * All rights reserved.</center></h2>
  12:MCSDK_v6.3.2-Full/MotorControl/MCSDK/MCLib/Any/Inc/virtual_speed_sensor.h ****   *
  13:MCSDK_v6.3.2-Full/MotorControl/MCSDK/MCLib/Any/Inc/virtual_speed_sensor.h ****   * This software component is licensed by ST under Ultimate Liberty license
  14:MCSDK_v6.3.2-Full/MotorControl/MCSDK/MCLib/Any/Inc/virtual_speed_sensor.h ****   * SLA0044, the "License"; You may not use this file except in compliance with
  15:MCSDK_v6.3.2-Full/MotorControl/MCSDK/MCLib/Any/Inc/virtual_speed_sensor.h ****   * the License. You may obtain a copy of the License at:
  16:MCSDK_v6.3.2-Full/MotorControl/MCSDK/MCLib/Any/Inc/virtual_speed_sensor.h ****   *                             www.st.com/SLA0044
  17:MCSDK_v6.3.2-Full/MotorControl/MCSDK/MCLib/Any/Inc/virtual_speed_sensor.h ****   *
  18:MCSDK_v6.3.2-Full/MotorControl/MCSDK/MCLib/Any/Inc/virtual_speed_sensor.h ****   ******************************************************************************
  19:MCSDK_v6.3.2-Full/MotorControl/MCSDK/MCLib/Any/Inc/virtual_speed_sensor.h ****   * @ingroup VirtualSpeedSensor
  20:MCSDK_v6.3.2-Full/MotorControl/MCSDK/MCLib/Any/Inc/virtual_speed_sensor.h ****   */
  21:MCSDK_v6.3.2-Full/MotorControl/MCSDK/MCLib/Any/Inc/virtual_speed_sensor.h **** /* Define to prevent recursive inclusion -------------------------------------*/
  22:MCSDK_v6.3.2-Full/MotorControl/MCSDK/MCLib/Any/Inc/virtual_speed_sensor.h **** #ifndef VIRTUALSPEEDSENSOR_H
  23:MCSDK_v6.3.2-Full/MotorControl/MCSDK/MCLib/Any/Inc/virtual_speed_sensor.h **** #define VIRTUALSPEEDSENSOR_H
  24:MCSDK_v6.3.2-Full/MotorControl/MCSDK/MCLib/Any/Inc/virtual_speed_sensor.h **** 
  25:MCSDK_v6.3.2-Full/MotorControl/MCSDK/MCLib/Any/Inc/virtual_speed_sensor.h **** #ifdef __cplusplus
  26:MCSDK_v6.3.2-Full/MotorControl/MCSDK/MCLib/Any/Inc/virtual_speed_sensor.h **** extern "C" {
  27:MCSDK_v6.3.2-Full/MotorControl/MCSDK/MCLib/Any/Inc/virtual_speed_sensor.h **** #endif /* __cplusplus */
  28:MCSDK_v6.3.2-Full/MotorControl/MCSDK/MCLib/Any/Inc/virtual_speed_sensor.h **** 
  29:MCSDK_v6.3.2-Full/MotorControl/MCSDK/MCLib/Any/Inc/virtual_speed_sensor.h **** /* Includes ------------------------------------------------------------------*/
  30:MCSDK_v6.3.2-Full/MotorControl/MCSDK/MCLib/Any/Inc/virtual_speed_sensor.h **** #include "speed_pos_fdbk.h"
  31:MCSDK_v6.3.2-Full/MotorControl/MCSDK/MCLib/Any/Inc/virtual_speed_sensor.h **** 
  32:MCSDK_v6.3.2-Full/MotorControl/MCSDK/MCLib/Any/Inc/virtual_speed_sensor.h **** /** @addtogroup MCSDK
  33:MCSDK_v6.3.2-Full/MotorControl/MCSDK/MCLib/Any/Inc/virtual_speed_sensor.h ****   * @{
  34:MCSDK_v6.3.2-Full/MotorControl/MCSDK/MCLib/Any/Inc/virtual_speed_sensor.h ****   */
  35:MCSDK_v6.3.2-Full/MotorControl/MCSDK/MCLib/Any/Inc/virtual_speed_sensor.h **** 
  36:MCSDK_v6.3.2-Full/MotorControl/MCSDK/MCLib/Any/Inc/virtual_speed_sensor.h **** /** @addtogroup SpeednPosFdbk
  37:MCSDK_v6.3.2-Full/MotorControl/MCSDK/MCLib/Any/Inc/virtual_speed_sensor.h ****   * @{
  38:MCSDK_v6.3.2-Full/MotorControl/MCSDK/MCLib/Any/Inc/virtual_speed_sensor.h ****   */
  39:MCSDK_v6.3.2-Full/MotorControl/MCSDK/MCLib/Any/Inc/virtual_speed_sensor.h **** 
  40:MCSDK_v6.3.2-Full/MotorControl/MCSDK/MCLib/Any/Inc/virtual_speed_sensor.h **** /** @addtogroup VirtualSpeedSensor
  41:MCSDK_v6.3.2-Full/MotorControl/MCSDK/MCLib/Any/Inc/virtual_speed_sensor.h ****   * @{
  42:MCSDK_v6.3.2-Full/MotorControl/MCSDK/MCLib/Any/Inc/virtual_speed_sensor.h ****   */
  43:MCSDK_v6.3.2-Full/MotorControl/MCSDK/MCLib/Any/Inc/virtual_speed_sensor.h **** 
  44:MCSDK_v6.3.2-Full/MotorControl/MCSDK/MCLib/Any/Inc/virtual_speed_sensor.h **** /* Exported types ------------------------------------------------------------*/
  45:MCSDK_v6.3.2-Full/MotorControl/MCSDK/MCLib/Any/Inc/virtual_speed_sensor.h **** 
  46:MCSDK_v6.3.2-Full/MotorControl/MCSDK/MCLib/Any/Inc/virtual_speed_sensor.h **** /**
  47:MCSDK_v6.3.2-Full/MotorControl/MCSDK/MCLib/Any/Inc/virtual_speed_sensor.h ****   * @brief  This structure is used to handle an instance of the Virtual Speed
  48:MCSDK_v6.3.2-Full/MotorControl/MCSDK/MCLib/Any/Inc/virtual_speed_sensor.h ****   *         sensor component.
  49:MCSDK_v6.3.2-Full/MotorControl/MCSDK/MCLib/Any/Inc/virtual_speed_sensor.h ****   */
ARM GAS  /tmp/ccCWj51Y.s 			page 9


  50:MCSDK_v6.3.2-Full/MotorControl/MCSDK/MCLib/Any/Inc/virtual_speed_sensor.h **** typedef struct
  51:MCSDK_v6.3.2-Full/MotorControl/MCSDK/MCLib/Any/Inc/virtual_speed_sensor.h **** {
  52:MCSDK_v6.3.2-Full/MotorControl/MCSDK/MCLib/Any/Inc/virtual_speed_sensor.h ****   SpeednPosFdbk_Handle_t _Super;
  53:MCSDK_v6.3.2-Full/MotorControl/MCSDK/MCLib/Any/Inc/virtual_speed_sensor.h ****   int32_t wElAccDppP32;              /*!< Delta electrical speed expressed in [dpp](measurement_uni
  54:MCSDK_v6.3.2-Full/MotorControl/MCSDK/MCLib/Any/Inc/virtual_speed_sensor.h ****                                           sampling period to be applied each time is called
  55:MCSDK_v6.3.2-Full/MotorControl/MCSDK/MCLib/Any/Inc/virtual_speed_sensor.h ****                                           SPD_calcAvrgMecSpeedUnit multiplied by scaling
  56:MCSDK_v6.3.2-Full/MotorControl/MCSDK/MCLib/Any/Inc/virtual_speed_sensor.h ****                                           factor of 65536. */
  57:MCSDK_v6.3.2-Full/MotorControl/MCSDK/MCLib/Any/Inc/virtual_speed_sensor.h ****   int32_t wElSpeedDpp32;             /*!< Electrical speed expressed in [dpp](measurement_units.md)
  58:MCSDK_v6.3.2-Full/MotorControl/MCSDK/MCLib/Any/Inc/virtual_speed_sensor.h ****                                           scaling factor 65536. */
  59:MCSDK_v6.3.2-Full/MotorControl/MCSDK/MCLib/Any/Inc/virtual_speed_sensor.h ****   uint16_t hRemainingStep;           /*!< Number of steps remaining to reach the final
  60:MCSDK_v6.3.2-Full/MotorControl/MCSDK/MCLib/Any/Inc/virtual_speed_sensor.h ****                                           speed. */
  61:MCSDK_v6.3.2-Full/MotorControl/MCSDK/MCLib/Any/Inc/virtual_speed_sensor.h ****   int16_t hFinalMecSpeedUnit;        /*!< Backup of hFinalMecSpeedUnit to be applied in
  62:MCSDK_v6.3.2-Full/MotorControl/MCSDK/MCLib/Any/Inc/virtual_speed_sensor.h ****                                           the last step.*/
  63:MCSDK_v6.3.2-Full/MotorControl/MCSDK/MCLib/Any/Inc/virtual_speed_sensor.h ****   bool bTransitionStarted;           /*!< Retaining information about started Transition status.*/
  64:MCSDK_v6.3.2-Full/MotorControl/MCSDK/MCLib/Any/Inc/virtual_speed_sensor.h ****   bool bTransitionEnded;             /*!< Retaining information about ended transition status.*/
  65:MCSDK_v6.3.2-Full/MotorControl/MCSDK/MCLib/Any/Inc/virtual_speed_sensor.h ****   int16_t hTransitionRemainingSteps; /*!< Number of steps remaining to end
  66:MCSDK_v6.3.2-Full/MotorControl/MCSDK/MCLib/Any/Inc/virtual_speed_sensor.h ****                                           transition from Virtual Speed Sensor module to other spee
  67:MCSDK_v6.3.2-Full/MotorControl/MCSDK/MCLib/Any/Inc/virtual_speed_sensor.h ****   int16_t hElAngleAccu;              /*!< Electrical angle accumulator */
  68:MCSDK_v6.3.2-Full/MotorControl/MCSDK/MCLib/Any/Inc/virtual_speed_sensor.h ****   bool bTransitionLocked;            /*!< Transition acceleration started */
  69:MCSDK_v6.3.2-Full/MotorControl/MCSDK/MCLib/Any/Inc/virtual_speed_sensor.h ****   bool bCopyObserver;                /*!< Command to set Virtual Speed Sensor module output same as
  70:MCSDK_v6.3.2-Full/MotorControl/MCSDK/MCLib/Any/Inc/virtual_speed_sensor.h **** 
  71:MCSDK_v6.3.2-Full/MotorControl/MCSDK/MCLib/Any/Inc/virtual_speed_sensor.h ****   uint16_t hSpeedSamplingFreqHz;     /*!< Frequency (Hz) at which motor speed is to
  72:MCSDK_v6.3.2-Full/MotorControl/MCSDK/MCLib/Any/Inc/virtual_speed_sensor.h ****                                           be computed. It must be equal to the frequency
  73:MCSDK_v6.3.2-Full/MotorControl/MCSDK/MCLib/Any/Inc/virtual_speed_sensor.h ****                                           at which function SPD_calcAvrgMecSpeedUnit
  74:MCSDK_v6.3.2-Full/MotorControl/MCSDK/MCLib/Any/Inc/virtual_speed_sensor.h ****                                           is called. */
  75:MCSDK_v6.3.2-Full/MotorControl/MCSDK/MCLib/Any/Inc/virtual_speed_sensor.h ****   int16_t hTransitionSteps;          /*< Number of steps to perform the transition phase
  76:MCSDK_v6.3.2-Full/MotorControl/MCSDK/MCLib/Any/Inc/virtual_speed_sensor.h ****                                          from from Virtual Speed Sensor module to other speed senso
  77:MCSDK_v6.3.2-Full/MotorControl/MCSDK/MCLib/Any/Inc/virtual_speed_sensor.h ****                                          If the Transition PHase should last TPH milliseconds, and 
  78:MCSDK_v6.3.2-Full/MotorControl/MCSDK/MCLib/Any/Inc/virtual_speed_sensor.h ****                                          Frequency is set to FEF kHz, then #hTransitionSteps = TPH 
  79:MCSDK_v6.3.2-Full/MotorControl/MCSDK/MCLib/Any/Inc/virtual_speed_sensor.h **** } VirtualSpeedSensor_Handle_t;
  80:MCSDK_v6.3.2-Full/MotorControl/MCSDK/MCLib/Any/Inc/virtual_speed_sensor.h **** 
  81:MCSDK_v6.3.2-Full/MotorControl/MCSDK/MCLib/Any/Inc/virtual_speed_sensor.h **** /* It initializes the Virtual Speed Sensor component */
  82:MCSDK_v6.3.2-Full/MotorControl/MCSDK/MCLib/Any/Inc/virtual_speed_sensor.h **** void VSS_Init(VirtualSpeedSensor_Handle_t *pHandle);
  83:MCSDK_v6.3.2-Full/MotorControl/MCSDK/MCLib/Any/Inc/virtual_speed_sensor.h **** 
  84:MCSDK_v6.3.2-Full/MotorControl/MCSDK/MCLib/Any/Inc/virtual_speed_sensor.h **** /* It clears Virtual Speed Sensor by re-initializing private variables*/
  85:MCSDK_v6.3.2-Full/MotorControl/MCSDK/MCLib/Any/Inc/virtual_speed_sensor.h **** void VSS_Clear(VirtualSpeedSensor_Handle_t *pHandle);
  86:MCSDK_v6.3.2-Full/MotorControl/MCSDK/MCLib/Any/Inc/virtual_speed_sensor.h **** 
  87:MCSDK_v6.3.2-Full/MotorControl/MCSDK/MCLib/Any/Inc/virtual_speed_sensor.h **** /* It compute a theorical speed and update the theorical electrical angle */
  88:MCSDK_v6.3.2-Full/MotorControl/MCSDK/MCLib/Any/Inc/virtual_speed_sensor.h **** int16_t VSS_CalcElAngle(VirtualSpeedSensor_Handle_t *pHandle, int16_t *pInputVars_str);
  89:MCSDK_v6.3.2-Full/MotorControl/MCSDK/MCLib/Any/Inc/virtual_speed_sensor.h **** 
  90:MCSDK_v6.3.2-Full/MotorControl/MCSDK/MCLib/Any/Inc/virtual_speed_sensor.h **** /* Computes the rotor average theoretical mechanical speed in the unit defined by SPEED_UNIT and
  91:MCSDK_v6.3.2-Full/MotorControl/MCSDK/MCLib/Any/Inc/virtual_speed_sensor.h ****  * returns it in pMecSpeedUnit */
  92:MCSDK_v6.3.2-Full/MotorControl/MCSDK/MCLib/Any/Inc/virtual_speed_sensor.h **** bool VSS_CalcAvrgMecSpeedUnit(VirtualSpeedSensor_Handle_t *pHandle, int16_t *hMecSpeedUnit);
  93:MCSDK_v6.3.2-Full/MotorControl/MCSDK/MCLib/Any/Inc/virtual_speed_sensor.h **** 
  94:MCSDK_v6.3.2-Full/MotorControl/MCSDK/MCLib/Any/Inc/virtual_speed_sensor.h **** /* Set the mechanical acceleration of virtual sensor */
  95:MCSDK_v6.3.2-Full/MotorControl/MCSDK/MCLib/Any/Inc/virtual_speed_sensor.h **** void  VSS_SetMecAcceleration(VirtualSpeedSensor_Handle_t *pHandle, int16_t  hFinalMecSpeedUnit, uin
  96:MCSDK_v6.3.2-Full/MotorControl/MCSDK/MCLib/Any/Inc/virtual_speed_sensor.h **** /* Checks if the ramp executed after a VSPD_SetMecAcceleration command has been completed */
  97:MCSDK_v6.3.2-Full/MotorControl/MCSDK/MCLib/Any/Inc/virtual_speed_sensor.h **** bool VSS_RampCompleted(VirtualSpeedSensor_Handle_t *pHandle);
  98:MCSDK_v6.3.2-Full/MotorControl/MCSDK/MCLib/Any/Inc/virtual_speed_sensor.h **** 
  99:MCSDK_v6.3.2-Full/MotorControl/MCSDK/MCLib/Any/Inc/virtual_speed_sensor.h **** /* Get the final speed of last setled ramp of virtual sensor expressed in 0.1Hz */
 100:MCSDK_v6.3.2-Full/MotorControl/MCSDK/MCLib/Any/Inc/virtual_speed_sensor.h **** int16_t  VSS_GetLastRampFinalSpeed(VirtualSpeedSensor_Handle_t *pHandle);
 101:MCSDK_v6.3.2-Full/MotorControl/MCSDK/MCLib/Any/Inc/virtual_speed_sensor.h **** 
 102:MCSDK_v6.3.2-Full/MotorControl/MCSDK/MCLib/Any/Inc/virtual_speed_sensor.h **** /* Set the command to Start the transition phase from VirtualSpeedSensor to other SpeedSensor */
 103:MCSDK_v6.3.2-Full/MotorControl/MCSDK/MCLib/Any/Inc/virtual_speed_sensor.h **** bool VSS_SetStartTransition(VirtualSpeedSensor_Handle_t *pHandle, bool bCommand);
 104:MCSDK_v6.3.2-Full/MotorControl/MCSDK/MCLib/Any/Inc/virtual_speed_sensor.h **** 
 105:MCSDK_v6.3.2-Full/MotorControl/MCSDK/MCLib/Any/Inc/virtual_speed_sensor.h **** /* Return the status of the transition phase */
 106:MCSDK_v6.3.2-Full/MotorControl/MCSDK/MCLib/Any/Inc/virtual_speed_sensor.h **** bool VSS_IsTransitionOngoing(VirtualSpeedSensor_Handle_t *pHandle);
ARM GAS  /tmp/ccCWj51Y.s 			page 10


 107:MCSDK_v6.3.2-Full/MotorControl/MCSDK/MCLib/Any/Inc/virtual_speed_sensor.h **** 
 108:MCSDK_v6.3.2-Full/MotorControl/MCSDK/MCLib/Any/Inc/virtual_speed_sensor.h **** bool VSS_TransitionEnded(VirtualSpeedSensor_Handle_t *pHandle);
 109:MCSDK_v6.3.2-Full/MotorControl/MCSDK/MCLib/Any/Inc/virtual_speed_sensor.h **** 
 110:MCSDK_v6.3.2-Full/MotorControl/MCSDK/MCLib/Any/Inc/virtual_speed_sensor.h **** /* It sets istantaneous information on rotor electrical angle */
 111:MCSDK_v6.3.2-Full/MotorControl/MCSDK/MCLib/Any/Inc/virtual_speed_sensor.h **** void VSS_SetElAngle(VirtualSpeedSensor_Handle_t *pHandle, int16_t hElAngle);
 112:MCSDK_v6.3.2-Full/MotorControl/MCSDK/MCLib/Any/Inc/virtual_speed_sensor.h **** 
 113:MCSDK_v6.3.2-Full/MotorControl/MCSDK/MCLib/Any/Inc/virtual_speed_sensor.h **** /**
 114:MCSDK_v6.3.2-Full/MotorControl/MCSDK/MCLib/Any/Inc/virtual_speed_sensor.h ****   * @brief  Sets instantaneous information on VSS mechanical and electrical angle.
 115:MCSDK_v6.3.2-Full/MotorControl/MCSDK/MCLib/Any/Inc/virtual_speed_sensor.h ****   * @param  pHandle: handler of the current instance of the VirtualSpeedSensor component.
 116:MCSDK_v6.3.2-Full/MotorControl/MCSDK/MCLib/Any/Inc/virtual_speed_sensor.h ****   * @param  hMecAngle: instantaneous measure of rotor mechanical angle.
 117:MCSDK_v6.3.2-Full/MotorControl/MCSDK/MCLib/Any/Inc/virtual_speed_sensor.h ****   * @retval none
 118:MCSDK_v6.3.2-Full/MotorControl/MCSDK/MCLib/Any/Inc/virtual_speed_sensor.h ****   *
 119:MCSDK_v6.3.2-Full/MotorControl/MCSDK/MCLib/Any/Inc/virtual_speed_sensor.h ****   * - Called during @ref RevUpCtrl "Rev-Up Control" and
 120:MCSDK_v6.3.2-Full/MotorControl/MCSDK/MCLib/Any/Inc/virtual_speed_sensor.h ****   * @ref EncAlignCtrl "Encoder Alignment Controller procedure" initialization.
 121:MCSDK_v6.3.2-Full/MotorControl/MCSDK/MCLib/Any/Inc/virtual_speed_sensor.h ****   */
 122:MCSDK_v6.3.2-Full/MotorControl/MCSDK/MCLib/Any/Inc/virtual_speed_sensor.h **** static inline void VSS_SetMecAngle(VirtualSpeedSensor_Handle_t *pHandle, int16_t hMecAngle)
 215              		.loc 2 122 20 is_stmt 1 view .LVU66
 216              	.LBB12:
 123:MCSDK_v6.3.2-Full/MotorControl/MCSDK/MCLib/Any/Inc/virtual_speed_sensor.h **** {
 124:MCSDK_v6.3.2-Full/MotorControl/MCSDK/MCLib/Any/Inc/virtual_speed_sensor.h **** #ifdef NULL_PTR_CHECK_VIR_SPD_SEN
 125:MCSDK_v6.3.2-Full/MotorControl/MCSDK/MCLib/Any/Inc/virtual_speed_sensor.h ****   if (MC_NULL == pHandle)
 126:MCSDK_v6.3.2-Full/MotorControl/MCSDK/MCLib/Any/Inc/virtual_speed_sensor.h ****   {
 127:MCSDK_v6.3.2-Full/MotorControl/MCSDK/MCLib/Any/Inc/virtual_speed_sensor.h ****     /* Nothing to do */
 128:MCSDK_v6.3.2-Full/MotorControl/MCSDK/MCLib/Any/Inc/virtual_speed_sensor.h ****   }
 129:MCSDK_v6.3.2-Full/MotorControl/MCSDK/MCLib/Any/Inc/virtual_speed_sensor.h ****   else
 130:MCSDK_v6.3.2-Full/MotorControl/MCSDK/MCLib/Any/Inc/virtual_speed_sensor.h ****   {
 131:MCSDK_v6.3.2-Full/MotorControl/MCSDK/MCLib/Any/Inc/virtual_speed_sensor.h **** #endif
 132:MCSDK_v6.3.2-Full/MotorControl/MCSDK/MCLib/Any/Inc/virtual_speed_sensor.h ****     pHandle->hElAngleAccu = hMecAngle;
 217              		.loc 2 132 5 view .LVU67
 218              		.loc 2 132 27 is_stmt 0 view .LVU68
 219 003a 3B86     		strh	r3, [r7, #48]	@ movhi
 133:MCSDK_v6.3.2-Full/MotorControl/MCSDK/MCLib/Any/Inc/virtual_speed_sensor.h ****     pHandle->_Super.hMecAngle = pHandle->hElAngleAccu / ((int16_t)pHandle->_Super.bElToMecRatio);
 220              		.loc 2 133 5 is_stmt 1 view .LVU69
 221              		.loc 2 133 58 is_stmt 0 view .LVU70
 222 003c 7A78     		ldrb	r2, [r7, #1]	@ zero_extendqisi2
 223              		.loc 2 133 55 view .LVU71
 224 003e 93FBF2F2 		sdiv	r2, r3, r2
 225              		.loc 2 133 31 view .LVU72
 226 0042 FA80     		strh	r2, [r7, #6]	@ movhi
 134:MCSDK_v6.3.2-Full/MotorControl/MCSDK/MCLib/Any/Inc/virtual_speed_sensor.h ****     pHandle->_Super.hElAngle = hMecAngle;
 227              		.loc 2 134 5 is_stmt 1 view .LVU73
 228              		.loc 2 134 30 is_stmt 0 view .LVU74
 229 0044 BB80     		strh	r3, [r7, #4]	@ movhi
 230              	.LVL21:
 231              		.loc 2 134 30 view .LVU75
 232              	.LBE12:
 233              	.LBE11:
 193:MCSDK_v6.3.2-Full/MotorControl/MCSDK/MCLib/Any/Src/revup_ctrl.c **** 
 194:MCSDK_v6.3.2-Full/MotorControl/MCSDK/MCLib/Any/Src/revup_ctrl.c ****     /* Sets to zero the starting torque of STC */
 195:MCSDK_v6.3.2-Full/MotorControl/MCSDK/MCLib/Any/Src/revup_ctrl.c ****     (void)STC_ExecRamp(pSTC, 0, 0U);
 234              		.loc 1 195 5 is_stmt 1 view .LVU76
 235              		.loc 1 195 11 is_stmt 0 view .LVU77
 236 0046 3246     		mov	r2, r6
 237 0048 3146     		mov	r1, r6
 238 004a 4046     		mov	r0, r8
 239 004c FFF7FEFF 		bl	STC_ExecRamp
 240              	.LVL22:
ARM GAS  /tmp/ccCWj51Y.s 			page 11


 196:MCSDK_v6.3.2-Full/MotorControl/MCSDK/MCLib/Any/Src/revup_ctrl.c **** 
 197:MCSDK_v6.3.2-Full/MotorControl/MCSDK/MCLib/Any/Src/revup_ctrl.c ****     /* Gives the first command to STC and VSS */
 198:MCSDK_v6.3.2-Full/MotorControl/MCSDK/MCLib/Any/Src/revup_ctrl.c ****     (void)STC_ExecRamp(pSTC, pPhaseParams->hFinalTorque * hMotorDirection, (uint32_t)(pPhaseParams-
 241              		.loc 1 198 5 is_stmt 1 view .LVU78
 242              		.loc 1 198 57 is_stmt 0 view .LVU79
 243 0050 218A     		ldrh	r1, [r4, #16]
 244 0052 11FB05F1 		smulbb	r1, r1, r5
 245              		.loc 1 198 11 view .LVU80
 246 0056 A289     		ldrh	r2, [r4, #12]
 247 0058 09B2     		sxth	r1, r1
 248 005a 4046     		mov	r0, r8
 249 005c FFF7FEFF 		bl	STC_ExecRamp
 250              	.LVL23:
 199:MCSDK_v6.3.2-Full/MotorControl/MCSDK/MCLib/Any/Src/revup_ctrl.c **** 
 200:MCSDK_v6.3.2-Full/MotorControl/MCSDK/MCLib/Any/Src/revup_ctrl.c ****     VSS_SetMecAcceleration(pVSS, pPhaseParams->hFinalMecSpeedUnit * hMotorDirection, pPhaseParams->
 251              		.loc 1 200 5 is_stmt 1 view .LVU81
 252              		.loc 1 200 67 is_stmt 0 view .LVU82
 253 0060 E189     		ldrh	r1, [r4, #14]
 254 0062 11FB05F1 		smulbb	r1, r1, r5
 255              		.loc 1 200 5 view .LVU83
 256 0066 A289     		ldrh	r2, [r4, #12]
 257 0068 09B2     		sxth	r1, r1
 258 006a 3846     		mov	r0, r7
 259 006c FFF7FEFF 		bl	VSS_SetMecAcceleration
 260              	.LVL24:
 201:MCSDK_v6.3.2-Full/MotorControl/MCSDK/MCLib/Any/Src/revup_ctrl.c **** 
 202:MCSDK_v6.3.2-Full/MotorControl/MCSDK/MCLib/Any/Src/revup_ctrl.c ****     /* Compute hPhaseRemainingTicks */
 203:MCSDK_v6.3.2-Full/MotorControl/MCSDK/MCLib/Any/Src/revup_ctrl.c ****     pHandle->hPhaseRemainingTicks = (uint16_t)((((uint32_t)pPhaseParams->hDurationms)
 261              		.loc 1 203 5 is_stmt 1 view .LVU84
 204:MCSDK_v6.3.2-Full/MotorControl/MCSDK/MCLib/Any/Src/revup_ctrl.c ****                                               * ((uint32_t)pHandle->hRUCFrequencyHz))
 205:MCSDK_v6.3.2-Full/MotorControl/MCSDK/MCLib/Any/Src/revup_ctrl.c ****                                               / 1000U );
 206:MCSDK_v6.3.2-Full/MotorControl/MCSDK/MCLib/Any/Src/revup_ctrl.c **** 
 207:MCSDK_v6.3.2-Full/MotorControl/MCSDK/MCLib/Any/Src/revup_ctrl.c ****     pHandle->hPhaseRemainingTicks++;
 262              		.loc 1 207 5 view .LVU85
 203:MCSDK_v6.3.2-Full/MotorControl/MCSDK/MCLib/Any/Src/revup_ctrl.c ****                                               * ((uint32_t)pHandle->hRUCFrequencyHz))
 263              		.loc 1 203 50 is_stmt 0 view .LVU86
 264 0070 A389     		ldrh	r3, [r4, #12]
 204:MCSDK_v6.3.2-Full/MotorControl/MCSDK/MCLib/Any/Src/revup_ctrl.c ****                                               * ((uint32_t)pHandle->hRUCFrequencyHz))
 265              		.loc 1 204 50 view .LVU87
 266 0072 2288     		ldrh	r2, [r4]
 204:MCSDK_v6.3.2-Full/MotorControl/MCSDK/MCLib/Any/Src/revup_ctrl.c ****                                               * ((uint32_t)pHandle->hRUCFrequencyHz))
 267              		.loc 1 204 47 view .LVU88
 268 0074 02FB03F3 		mul	r3, r2, r3
 205:MCSDK_v6.3.2-Full/MotorControl/MCSDK/MCLib/Any/Src/revup_ctrl.c **** 
 269              		.loc 1 205 47 view .LVU89
 270 0078 054A     		ldr	r2, .L12
 271 007a A2FB0323 		umull	r2, r3, r2, r3
 272 007e 9B09     		lsrs	r3, r3, #6
 273              		.loc 1 207 34 view .LVU90
 274 0080 0133     		adds	r3, r3, #1
 275 0082 A380     		strh	r3, [r4, #4]	@ movhi
 208:MCSDK_v6.3.2-Full/MotorControl/MCSDK/MCLib/Any/Src/revup_ctrl.c **** 
 209:MCSDK_v6.3.2-Full/MotorControl/MCSDK/MCLib/Any/Src/revup_ctrl.c ****     /* Set the next phases parameter pointer */
 210:MCSDK_v6.3.2-Full/MotorControl/MCSDK/MCLib/Any/Src/revup_ctrl.c ****     pHandle->pCurrentPhaseParams = (RevUpCtrl_PhaseParams_t *)pPhaseParams->pNext;  //cstat !MISRAC
 276              		.loc 1 210 5 is_stmt 1 view .LVU91
 277              		.loc 1 210 34 is_stmt 0 view .LVU92
 278 0084 6369     		ldr	r3, [r4, #20]
ARM GAS  /tmp/ccCWj51Y.s 			page 12


 279 0086 A360     		str	r3, [r4, #8]
 211:MCSDK_v6.3.2-Full/MotorControl/MCSDK/MCLib/Any/Src/revup_ctrl.c **** 
 212:MCSDK_v6.3.2-Full/MotorControl/MCSDK/MCLib/Any/Src/revup_ctrl.c ****     /* Timeout counter for PLL reset during OTF */
 213:MCSDK_v6.3.2-Full/MotorControl/MCSDK/MCLib/Any/Src/revup_ctrl.c ****     pHandle->bResetPLLCnt = 0U;
 280              		.loc 1 213 5 is_stmt 1 view .LVU93
 281              		.loc 1 213 27 is_stmt 0 view .LVU94
 282 0088 84F85760 		strb	r6, [r4, #87]
 214:MCSDK_v6.3.2-Full/MotorControl/MCSDK/MCLib/Any/Src/revup_ctrl.c **** #ifdef NULL_PTR_CHECK_REV_UP_CTL
 215:MCSDK_v6.3.2-Full/MotorControl/MCSDK/MCLib/Any/Src/revup_ctrl.c ****   }
 216:MCSDK_v6.3.2-Full/MotorControl/MCSDK/MCLib/Any/Src/revup_ctrl.c **** #endif
 217:MCSDK_v6.3.2-Full/MotorControl/MCSDK/MCLib/Any/Src/revup_ctrl.c **** }
 283              		.loc 1 217 1 view .LVU95
 284 008c BDE8F081 		pop	{r4, r5, r6, r7, r8, pc}
 285              	.LVL25:
 286              	.L13:
 287              		.loc 1 217 1 view .LVU96
 288              		.align	2
 289              	.L12:
 290 0090 D34D6210 		.word	274877907
 291              		.cfi_endproc
 292              	.LFE1458:
 294              		.section	.text.RUC_OTF_Exec,"ax",%progbits
 295              		.align	1
 296              		.weak	RUC_OTF_Exec
 297              		.syntax unified
 298              		.thumb
 299              		.thumb_func
 300              		.fpu fpv4-sp-d16
 302              	RUC_OTF_Exec:
 303              	.LVL26:
 304              	.LFB1459:
 218:MCSDK_v6.3.2-Full/MotorControl/MCSDK/MCLib/Any/Src/revup_ctrl.c **** 
 219:MCSDK_v6.3.2-Full/MotorControl/MCSDK/MCLib/Any/Src/revup_ctrl.c **** /**
 220:MCSDK_v6.3.2-Full/MotorControl/MCSDK/MCLib/Any/Src/revup_ctrl.c ****   * @brief  FOC Main Rev-Up controller procedure executing overall programmed phases and
 221:MCSDK_v6.3.2-Full/MotorControl/MCSDK/MCLib/Any/Src/revup_ctrl.c ****   *         on-the-fly startup handling.
 222:MCSDK_v6.3.2-Full/MotorControl/MCSDK/MCLib/Any/Src/revup_ctrl.c ****   * @param  pHandle: Pointer on Handle structure of RevUp controller.
 223:MCSDK_v6.3.2-Full/MotorControl/MCSDK/MCLib/Any/Src/revup_ctrl.c ****   *  @retval Boolean set to false when entire Rev-Up phases have been completed.
 224:MCSDK_v6.3.2-Full/MotorControl/MCSDK/MCLib/Any/Src/revup_ctrl.c ****   */
 225:MCSDK_v6.3.2-Full/MotorControl/MCSDK/MCLib/Any/Src/revup_ctrl.c **** __weak bool RUC_OTF_Exec(RevUpCtrl_Handle_t *pHandle)
 226:MCSDK_v6.3.2-Full/MotorControl/MCSDK/MCLib/Any/Src/revup_ctrl.c **** {
 305              		.loc 1 226 1 is_stmt 1 view -0
 306              		.cfi_startproc
 307              		@ args = 0, pretend = 0, frame = 0
 308              		@ frame_needed = 0, uses_anonymous_args = 0
 309              		.loc 1 226 1 is_stmt 0 view .LVU98
 310 0000 70B5     		push	{r4, r5, r6, lr}
 311              	.LCFI3:
 312              		.cfi_def_cfa_offset 16
 313              		.cfi_offset 4, -16
 314              		.cfi_offset 5, -12
 315              		.cfi_offset 6, -8
 316              		.cfi_offset 14, -4
 317 0002 0446     		mov	r4, r0
 227:MCSDK_v6.3.2-Full/MotorControl/MCSDK/MCLib/Any/Src/revup_ctrl.c ****   bool retVal = true;
 318              		.loc 1 227 3 is_stmt 1 view .LVU99
 319              	.LVL27:
 228:MCSDK_v6.3.2-Full/MotorControl/MCSDK/MCLib/Any/Src/revup_ctrl.c **** #ifdef NULL_PTR_CHECK_REV_UP_CTL
ARM GAS  /tmp/ccCWj51Y.s 			page 13


 229:MCSDK_v6.3.2-Full/MotorControl/MCSDK/MCLib/Any/Src/revup_ctrl.c ****   if (MC_NULL == pHandle)
 230:MCSDK_v6.3.2-Full/MotorControl/MCSDK/MCLib/Any/Src/revup_ctrl.c ****   {
 231:MCSDK_v6.3.2-Full/MotorControl/MCSDK/MCLib/Any/Src/revup_ctrl.c ****     /* Nothing to do */
 232:MCSDK_v6.3.2-Full/MotorControl/MCSDK/MCLib/Any/Src/revup_ctrl.c ****   }
 233:MCSDK_v6.3.2-Full/MotorControl/MCSDK/MCLib/Any/Src/revup_ctrl.c ****   else
 234:MCSDK_v6.3.2-Full/MotorControl/MCSDK/MCLib/Any/Src/revup_ctrl.c ****   {
 235:MCSDK_v6.3.2-Full/MotorControl/MCSDK/MCLib/Any/Src/revup_ctrl.c **** #endif
 236:MCSDK_v6.3.2-Full/MotorControl/MCSDK/MCLib/Any/Src/revup_ctrl.c ****     bool IsSpeedReliable;
 320              		.loc 1 236 5 view .LVU100
 237:MCSDK_v6.3.2-Full/MotorControl/MCSDK/MCLib/Any/Src/revup_ctrl.c ****     bool condition = false;
 321              		.loc 1 237 5 view .LVU101
 238:MCSDK_v6.3.2-Full/MotorControl/MCSDK/MCLib/Any/Src/revup_ctrl.c **** 
 239:MCSDK_v6.3.2-Full/MotorControl/MCSDK/MCLib/Any/Src/revup_ctrl.c ****     if (pHandle->hPhaseRemainingTicks > 0u)
 322              		.loc 1 239 5 view .LVU102
 323              		.loc 1 239 16 is_stmt 0 view .LVU103
 324 0004 8388     		ldrh	r3, [r0, #4]
 325              		.loc 1 239 8 view .LVU104
 326 0006 002B     		cmp	r3, #0
 327 0008 00F09A80 		beq	.L15
 240:MCSDK_v6.3.2-Full/MotorControl/MCSDK/MCLib/Any/Src/revup_ctrl.c ****     {
 241:MCSDK_v6.3.2-Full/MotorControl/MCSDK/MCLib/Any/Src/revup_ctrl.c ****       /* Decrease the hPhaseRemainingTicks */
 242:MCSDK_v6.3.2-Full/MotorControl/MCSDK/MCLib/Any/Src/revup_ctrl.c ****       pHandle->hPhaseRemainingTicks--;
 328              		.loc 1 242 7 is_stmt 1 view .LVU105
 329              		.loc 1 242 36 is_stmt 0 view .LVU106
 330 000c 013B     		subs	r3, r3, #1
 331 000e 8380     		strh	r3, [r0, #4]	@ movhi
 243:MCSDK_v6.3.2-Full/MotorControl/MCSDK/MCLib/Any/Src/revup_ctrl.c **** 
 244:MCSDK_v6.3.2-Full/MotorControl/MCSDK/MCLib/Any/Src/revup_ctrl.c ****       /* OTF start-up */
 245:MCSDK_v6.3.2-Full/MotorControl/MCSDK/MCLib/Any/Src/revup_ctrl.c ****       if (0U == pHandle->bStageCnt)
 332              		.loc 1 245 7 is_stmt 1 view .LVU107
 333              		.loc 1 245 10 is_stmt 0 view .LVU108
 334 0010 90F85830 		ldrb	r3, [r0, #88]	@ zero_extendqisi2
 335 0014 002B     		cmp	r3, #0
 336 0016 40F0D880 		bne	.L16
 246:MCSDK_v6.3.2-Full/MotorControl/MCSDK/MCLib/Any/Src/revup_ctrl.c ****       {
 247:MCSDK_v6.3.2-Full/MotorControl/MCSDK/MCLib/Any/Src/revup_ctrl.c ****         if (false ==  pHandle->EnteredZone1)
 337              		.loc 1 247 9 is_stmt 1 view .LVU109
 338              		.loc 1 247 12 is_stmt 0 view .LVU110
 339 001a 90F85530 		ldrb	r3, [r0, #85]	@ zero_extendqisi2
 340 001e 002B     		cmp	r3, #0
 341 0020 40F0D080 		bne	.L17
 248:MCSDK_v6.3.2-Full/MotorControl/MCSDK/MCLib/Any/Src/revup_ctrl.c ****         {
 249:MCSDK_v6.3.2-Full/MotorControl/MCSDK/MCLib/Any/Src/revup_ctrl.c ****           if (pHandle->pSNSL->pFctStoOtfResetPLL != MC_NULL)
 342              		.loc 1 249 11 is_stmt 1 view .LVU111
 343              		.loc 1 249 22 is_stmt 0 view .LVU112
 344 0024 006F     		ldr	r0, [r0, #112]
 345              	.LVL28:
 346              		.loc 1 249 14 view .LVU113
 347 0026 C368     		ldr	r3, [r0, #12]
 348 0028 83B1     		cbz	r3, .L18
 250:MCSDK_v6.3.2-Full/MotorControl/MCSDK/MCLib/Any/Src/revup_ctrl.c ****           {
 251:MCSDK_v6.3.2-Full/MotorControl/MCSDK/MCLib/Any/Src/revup_ctrl.c ****             pHandle->bResetPLLCnt++;
 349              		.loc 1 251 13 is_stmt 1 view .LVU114
 350              		.loc 1 251 34 is_stmt 0 view .LVU115
 351 002a 94F85730 		ldrb	r3, [r4, #87]	@ zero_extendqisi2
 352 002e 0133     		adds	r3, r3, #1
 353 0030 DBB2     		uxtb	r3, r3
ARM GAS  /tmp/ccCWj51Y.s 			page 14


 354 0032 84F85730 		strb	r3, [r4, #87]
 252:MCSDK_v6.3.2-Full/MotorControl/MCSDK/MCLib/Any/Src/revup_ctrl.c ****             if (pHandle->bResetPLLCnt > pHandle->bResetPLLTh)
 355              		.loc 1 252 13 is_stmt 1 view .LVU116
 356              		.loc 1 252 16 is_stmt 0 view .LVU117
 357 0036 94F85620 		ldrb	r2, [r4, #86]	@ zero_extendqisi2
 358 003a 9A42     		cmp	r2, r3
 359 003c 06D2     		bcs	.L18
 253:MCSDK_v6.3.2-Full/MotorControl/MCSDK/MCLib/Any/Src/revup_ctrl.c ****             {
 254:MCSDK_v6.3.2-Full/MotorControl/MCSDK/MCLib/Any/Src/revup_ctrl.c ****               pHandle->pSNSL->pFctStoOtfResetPLL(pHandle->pSNSL);
 360              		.loc 1 254 15 is_stmt 1 view .LVU118
 361 003e C368     		ldr	r3, [r0, #12]
 362 0040 9847     		blx	r3
 363              	.LVL29:
 255:MCSDK_v6.3.2-Full/MotorControl/MCSDK/MCLib/Any/Src/revup_ctrl.c ****               pHandle->bOTFRelCounter = 0U;
 364              		.loc 1 255 15 view .LVU119
 365              		.loc 1 255 39 is_stmt 0 view .LVU120
 366 0042 0023     		movs	r3, #0
 367 0044 84F85330 		strb	r3, [r4, #83]
 256:MCSDK_v6.3.2-Full/MotorControl/MCSDK/MCLib/Any/Src/revup_ctrl.c ****               pHandle->bResetPLLCnt = 0U;
 368              		.loc 1 256 15 is_stmt 1 view .LVU121
 369              		.loc 1 256 37 is_stmt 0 view .LVU122
 370 0048 84F85730 		strb	r3, [r4, #87]
 371              	.L18:
 257:MCSDK_v6.3.2-Full/MotorControl/MCSDK/MCLib/Any/Src/revup_ctrl.c ****             }
 258:MCSDK_v6.3.2-Full/MotorControl/MCSDK/MCLib/Any/Src/revup_ctrl.c ****             else
 259:MCSDK_v6.3.2-Full/MotorControl/MCSDK/MCLib/Any/Src/revup_ctrl.c ****             {
 260:MCSDK_v6.3.2-Full/MotorControl/MCSDK/MCLib/Any/Src/revup_ctrl.c ****               /* Nothing to do */
 261:MCSDK_v6.3.2-Full/MotorControl/MCSDK/MCLib/Any/Src/revup_ctrl.c ****             }
 262:MCSDK_v6.3.2-Full/MotorControl/MCSDK/MCLib/Any/Src/revup_ctrl.c ****           }
 263:MCSDK_v6.3.2-Full/MotorControl/MCSDK/MCLib/Any/Src/revup_ctrl.c ****           else
 264:MCSDK_v6.3.2-Full/MotorControl/MCSDK/MCLib/Any/Src/revup_ctrl.c ****           {
 265:MCSDK_v6.3.2-Full/MotorControl/MCSDK/MCLib/Any/Src/revup_ctrl.c ****             /* Nothing to do */
 266:MCSDK_v6.3.2-Full/MotorControl/MCSDK/MCLib/Any/Src/revup_ctrl.c ****           }
 372              		.loc 1 266 11 is_stmt 1 view .LVU123
 267:MCSDK_v6.3.2-Full/MotorControl/MCSDK/MCLib/Any/Src/revup_ctrl.c **** 
 268:MCSDK_v6.3.2-Full/MotorControl/MCSDK/MCLib/Any/Src/revup_ctrl.c ****           IsSpeedReliable = pHandle->pSNSL->pFctSTO_SpeedReliabilityCheck(pHandle->pSNSL);
 373              		.loc 1 268 11 view .LVU124
 374              		.loc 1 268 36 is_stmt 0 view .LVU125
 375 004c 206F     		ldr	r0, [r4, #112]
 376              		.loc 1 268 29 view .LVU126
 377 004e 0369     		ldr	r3, [r0, #16]
 378 0050 9847     		blx	r3
 379              	.LVL30:
 269:MCSDK_v6.3.2-Full/MotorControl/MCSDK/MCLib/Any/Src/revup_ctrl.c **** 
 270:MCSDK_v6.3.2-Full/MotorControl/MCSDK/MCLib/Any/Src/revup_ctrl.c ****           if (IsSpeedReliable)
 380              		.loc 1 270 11 is_stmt 1 view .LVU127
 381              		.loc 1 270 14 is_stmt 0 view .LVU128
 382 0052 70B1     		cbz	r0, .L19
 271:MCSDK_v6.3.2-Full/MotorControl/MCSDK/MCLib/Any/Src/revup_ctrl.c ****           {
 272:MCSDK_v6.3.2-Full/MotorControl/MCSDK/MCLib/Any/Src/revup_ctrl.c ****             if (pHandle->bOTFRelCounter < 127U)
 383              		.loc 1 272 13 is_stmt 1 view .LVU129
 384              		.loc 1 272 24 is_stmt 0 view .LVU130
 385 0054 94F85330 		ldrb	r3, [r4, #83]	@ zero_extendqisi2
 386              		.loc 1 272 16 view .LVU131
 387 0058 7E2B     		cmp	r3, #126
 388 005a 02D8     		bhi	.L20
 273:MCSDK_v6.3.2-Full/MotorControl/MCSDK/MCLib/Any/Src/revup_ctrl.c ****             {
ARM GAS  /tmp/ccCWj51Y.s 			page 15


 274:MCSDK_v6.3.2-Full/MotorControl/MCSDK/MCLib/Any/Src/revup_ctrl.c ****               pHandle->bOTFRelCounter++;
 389              		.loc 1 274 15 is_stmt 1 view .LVU132
 390              		.loc 1 274 38 is_stmt 0 view .LVU133
 391 005c 0133     		adds	r3, r3, #1
 392 005e 84F85330 		strb	r3, [r4, #83]
 393              	.L20:
 275:MCSDK_v6.3.2-Full/MotorControl/MCSDK/MCLib/Any/Src/revup_ctrl.c ****             }
 276:MCSDK_v6.3.2-Full/MotorControl/MCSDK/MCLib/Any/Src/revup_ctrl.c ****             else
 277:MCSDK_v6.3.2-Full/MotorControl/MCSDK/MCLib/Any/Src/revup_ctrl.c ****             {
 278:MCSDK_v6.3.2-Full/MotorControl/MCSDK/MCLib/Any/Src/revup_ctrl.c ****               /* Nothing to do */
 279:MCSDK_v6.3.2-Full/MotorControl/MCSDK/MCLib/Any/Src/revup_ctrl.c ****             }
 280:MCSDK_v6.3.2-Full/MotorControl/MCSDK/MCLib/Any/Src/revup_ctrl.c ****           }
 281:MCSDK_v6.3.2-Full/MotorControl/MCSDK/MCLib/Any/Src/revup_ctrl.c ****           else
 282:MCSDK_v6.3.2-Full/MotorControl/MCSDK/MCLib/Any/Src/revup_ctrl.c ****           {
 283:MCSDK_v6.3.2-Full/MotorControl/MCSDK/MCLib/Any/Src/revup_ctrl.c ****             pHandle->bOTFRelCounter = 0U;
 284:MCSDK_v6.3.2-Full/MotorControl/MCSDK/MCLib/Any/Src/revup_ctrl.c ****           }
 285:MCSDK_v6.3.2-Full/MotorControl/MCSDK/MCLib/Any/Src/revup_ctrl.c **** 
 286:MCSDK_v6.3.2-Full/MotorControl/MCSDK/MCLib/Any/Src/revup_ctrl.c ****           if (pHandle->pSNSL->pFctStoOtfResetPLL != MC_NULL)
 394              		.loc 1 286 11 is_stmt 1 view .LVU134
 395              		.loc 1 286 22 is_stmt 0 view .LVU135
 396 0062 236F     		ldr	r3, [r4, #112]
 397              		.loc 1 286 14 view .LVU136
 398 0064 DA68     		ldr	r2, [r3, #12]
 399 0066 62B9     		cbnz	r2, .L21
 287:MCSDK_v6.3.2-Full/MotorControl/MCSDK/MCLib/Any/Src/revup_ctrl.c ****           {
 288:MCSDK_v6.3.2-Full/MotorControl/MCSDK/MCLib/Any/Src/revup_ctrl.c ****             if (pHandle->bOTFRelCounter == (pHandle->bResetPLLTh >> 1))
 289:MCSDK_v6.3.2-Full/MotorControl/MCSDK/MCLib/Any/Src/revup_ctrl.c ****             {
 290:MCSDK_v6.3.2-Full/MotorControl/MCSDK/MCLib/Any/Src/revup_ctrl.c ****               condition = true;
 291:MCSDK_v6.3.2-Full/MotorControl/MCSDK/MCLib/Any/Src/revup_ctrl.c ****             }
 292:MCSDK_v6.3.2-Full/MotorControl/MCSDK/MCLib/Any/Src/revup_ctrl.c ****             else
 293:MCSDK_v6.3.2-Full/MotorControl/MCSDK/MCLib/Any/Src/revup_ctrl.c ****             {
 294:MCSDK_v6.3.2-Full/MotorControl/MCSDK/MCLib/Any/Src/revup_ctrl.c ****               /* Nothing to do */
 295:MCSDK_v6.3.2-Full/MotorControl/MCSDK/MCLib/Any/Src/revup_ctrl.c ****             }
 296:MCSDK_v6.3.2-Full/MotorControl/MCSDK/MCLib/Any/Src/revup_ctrl.c ****           }
 297:MCSDK_v6.3.2-Full/MotorControl/MCSDK/MCLib/Any/Src/revup_ctrl.c ****           else
 298:MCSDK_v6.3.2-Full/MotorControl/MCSDK/MCLib/Any/Src/revup_ctrl.c ****           {
 299:MCSDK_v6.3.2-Full/MotorControl/MCSDK/MCLib/Any/Src/revup_ctrl.c ****             if (127U == pHandle->bOTFRelCounter)
 400              		.loc 1 299 13 is_stmt 1 view .LVU137
 401              		.loc 1 299 16 is_stmt 0 view .LVU138
 402 0068 94F85320 		ldrb	r2, [r4, #83]	@ zero_extendqisi2
 403 006c 7F2A     		cmp	r2, #127
 404 006e 10D0     		beq	.L23
 405 0070 ABE0     		b	.L16
 406              	.L19:
 283:MCSDK_v6.3.2-Full/MotorControl/MCSDK/MCLib/Any/Src/revup_ctrl.c ****           }
 407              		.loc 1 283 13 is_stmt 1 view .LVU139
 283:MCSDK_v6.3.2-Full/MotorControl/MCSDK/MCLib/Any/Src/revup_ctrl.c ****           }
 408              		.loc 1 283 37 is_stmt 0 view .LVU140
 409 0072 0023     		movs	r3, #0
 410 0074 84F85330 		strb	r3, [r4, #83]
 286:MCSDK_v6.3.2-Full/MotorControl/MCSDK/MCLib/Any/Src/revup_ctrl.c ****           {
 411              		.loc 1 286 11 is_stmt 1 view .LVU141
 286:MCSDK_v6.3.2-Full/MotorControl/MCSDK/MCLib/Any/Src/revup_ctrl.c ****           {
 412              		.loc 1 286 22 is_stmt 0 view .LVU142
 413 0078 236F     		ldr	r3, [r4, #112]
 286:MCSDK_v6.3.2-Full/MotorControl/MCSDK/MCLib/Any/Src/revup_ctrl.c ****           {
 414              		.loc 1 286 14 view .LVU143
ARM GAS  /tmp/ccCWj51Y.s 			page 16


 415 007a DA68     		ldr	r2, [r3, #12]
 416 007c 002A     		cmp	r2, #0
 417 007e 00F0A480 		beq	.L16
 418              	.L21:
 288:MCSDK_v6.3.2-Full/MotorControl/MCSDK/MCLib/Any/Src/revup_ctrl.c ****             {
 419              		.loc 1 288 13 is_stmt 1 view .LVU144
 288:MCSDK_v6.3.2-Full/MotorControl/MCSDK/MCLib/Any/Src/revup_ctrl.c ****             {
 420              		.loc 1 288 41 is_stmt 0 view .LVU145
 421 0082 94F85610 		ldrb	r1, [r4, #86]	@ zero_extendqisi2
 288:MCSDK_v6.3.2-Full/MotorControl/MCSDK/MCLib/Any/Src/revup_ctrl.c ****             {
 422              		.loc 1 288 16 view .LVU146
 423 0086 94F85320 		ldrb	r2, [r4, #83]	@ zero_extendqisi2
 424 008a B2EB510F 		cmp	r2, r1, lsr #1
 425 008e 40F09C80 		bne	.L16
 426              	.L23:
 427              	.LVL31:
 428              	.LBB13:
 300:MCSDK_v6.3.2-Full/MotorControl/MCSDK/MCLib/Any/Src/revup_ctrl.c ****             {
 301:MCSDK_v6.3.2-Full/MotorControl/MCSDK/MCLib/Any/Src/revup_ctrl.c ****               condition = true;
 302:MCSDK_v6.3.2-Full/MotorControl/MCSDK/MCLib/Any/Src/revup_ctrl.c ****             }
 303:MCSDK_v6.3.2-Full/MotorControl/MCSDK/MCLib/Any/Src/revup_ctrl.c ****             else
 304:MCSDK_v6.3.2-Full/MotorControl/MCSDK/MCLib/Any/Src/revup_ctrl.c ****             {
 305:MCSDK_v6.3.2-Full/MotorControl/MCSDK/MCLib/Any/Src/revup_ctrl.c ****               /* Nothing to do */
 306:MCSDK_v6.3.2-Full/MotorControl/MCSDK/MCLib/Any/Src/revup_ctrl.c ****             }
 307:MCSDK_v6.3.2-Full/MotorControl/MCSDK/MCLib/Any/Src/revup_ctrl.c ****           }
 308:MCSDK_v6.3.2-Full/MotorControl/MCSDK/MCLib/Any/Src/revup_ctrl.c **** 
 309:MCSDK_v6.3.2-Full/MotorControl/MCSDK/MCLib/Any/Src/revup_ctrl.c ****           if (true == condition)
 310:MCSDK_v6.3.2-Full/MotorControl/MCSDK/MCLib/Any/Src/revup_ctrl.c ****           {
 311:MCSDK_v6.3.2-Full/MotorControl/MCSDK/MCLib/Any/Src/revup_ctrl.c ****             bool bCollinearSpeed = false;
 429              		.loc 1 311 13 is_stmt 1 view .LVU147
 312:MCSDK_v6.3.2-Full/MotorControl/MCSDK/MCLib/Any/Src/revup_ctrl.c ****             int16_t hObsSpeedUnit = SPD_GetAvrgMecSpeedUnit(pHandle->pSNSL->_Super);
 430              		.loc 1 312 13 view .LVU148
 431              		.loc 1 312 37 is_stmt 0 view .LVU149
 432 0092 1868     		ldr	r0, [r3]
 433              	.LVL32:
 434              		.loc 1 312 37 view .LVU150
 435 0094 FFF7FEFF 		bl	SPD_GetAvrgMecSpeedUnit
 436              	.LVL33:
 437 0098 0546     		mov	r5, r0
 438              	.LVL34:
 313:MCSDK_v6.3.2-Full/MotorControl/MCSDK/MCLib/Any/Src/revup_ctrl.c ****             int16_t hObsSpeedUnitAbsValue =
 439              		.loc 1 313 13 is_stmt 1 view .LVU151
 314:MCSDK_v6.3.2-Full/MotorControl/MCSDK/MCLib/Any/Src/revup_ctrl.c ****                     ((hObsSpeedUnit < 0) ? (-hObsSpeedUnit) : (hObsSpeedUnit)); /* hObsSpeedUnit ab
 315:MCSDK_v6.3.2-Full/MotorControl/MCSDK/MCLib/Any/Src/revup_ctrl.c **** 
 316:MCSDK_v6.3.2-Full/MotorControl/MCSDK/MCLib/Any/Src/revup_ctrl.c ****             if (pHandle->hDirection > 0)
 440              		.loc 1 316 13 view .LVU152
 441              		.loc 1 316 16 is_stmt 0 view .LVU153
 442 009a B4F90630 		ldrsh	r3, [r4, #6]
 443 009e 002B     		cmp	r3, #0
 444 00a0 11DD     		ble	.L24
 317:MCSDK_v6.3.2-Full/MotorControl/MCSDK/MCLib/Any/Src/revup_ctrl.c ****             {
 318:MCSDK_v6.3.2-Full/MotorControl/MCSDK/MCLib/Any/Src/revup_ctrl.c ****               if (hObsSpeedUnit > 0)
 445              		.loc 1 318 15 is_stmt 1 view .LVU154
 446              		.loc 1 318 18 is_stmt 0 view .LVU155
 447 00a2 0028     		cmp	r0, #0
 448 00a4 11DD     		ble	.L26
 449              	.L25:
ARM GAS  /tmp/ccCWj51Y.s 			page 17


 314:MCSDK_v6.3.2-Full/MotorControl/MCSDK/MCLib/Any/Src/revup_ctrl.c ****                     ((hObsSpeedUnit < 0) ? (-hObsSpeedUnit) : (hObsSpeedUnit)); /* hObsSpeedUnit ab
 450              		.loc 1 314 61 view .LVU156
 451 00a6 85EAE576 		eor	r6, r5, r5, asr #31
 452 00aa A6EBE576 		sub	r6, r6, r5, asr #31
 453 00ae B6B2     		uxth	r6, r6
 454              	.LVL35:
 319:MCSDK_v6.3.2-Full/MotorControl/MCSDK/MCLib/Any/Src/revup_ctrl.c ****               {
 320:MCSDK_v6.3.2-Full/MotorControl/MCSDK/MCLib/Any/Src/revup_ctrl.c ****                 bCollinearSpeed = true; /* Actual and reference speed are collinear */
 321:MCSDK_v6.3.2-Full/MotorControl/MCSDK/MCLib/Any/Src/revup_ctrl.c ****               }
 322:MCSDK_v6.3.2-Full/MotorControl/MCSDK/MCLib/Any/Src/revup_ctrl.c ****               else
 323:MCSDK_v6.3.2-Full/MotorControl/MCSDK/MCLib/Any/Src/revup_ctrl.c ****               {
 324:MCSDK_v6.3.2-Full/MotorControl/MCSDK/MCLib/Any/Src/revup_ctrl.c ****                 /* Nothing to do */
 325:MCSDK_v6.3.2-Full/MotorControl/MCSDK/MCLib/Any/Src/revup_ctrl.c ****               }
 326:MCSDK_v6.3.2-Full/MotorControl/MCSDK/MCLib/Any/Src/revup_ctrl.c ****             }
 327:MCSDK_v6.3.2-Full/MotorControl/MCSDK/MCLib/Any/Src/revup_ctrl.c ****             else
 328:MCSDK_v6.3.2-Full/MotorControl/MCSDK/MCLib/Any/Src/revup_ctrl.c ****             {
 329:MCSDK_v6.3.2-Full/MotorControl/MCSDK/MCLib/Any/Src/revup_ctrl.c ****               if (hObsSpeedUnit < 0)
 330:MCSDK_v6.3.2-Full/MotorControl/MCSDK/MCLib/Any/Src/revup_ctrl.c ****               {
 331:MCSDK_v6.3.2-Full/MotorControl/MCSDK/MCLib/Any/Src/revup_ctrl.c ****                 bCollinearSpeed = true; /* Actual and reference speed are collinear */
 332:MCSDK_v6.3.2-Full/MotorControl/MCSDK/MCLib/Any/Src/revup_ctrl.c ****               }
 333:MCSDK_v6.3.2-Full/MotorControl/MCSDK/MCLib/Any/Src/revup_ctrl.c ****               else
 334:MCSDK_v6.3.2-Full/MotorControl/MCSDK/MCLib/Any/Src/revup_ctrl.c ****               {
 335:MCSDK_v6.3.2-Full/MotorControl/MCSDK/MCLib/Any/Src/revup_ctrl.c ****                 /* Nothing to do */
 336:MCSDK_v6.3.2-Full/MotorControl/MCSDK/MCLib/Any/Src/revup_ctrl.c ****               }
 337:MCSDK_v6.3.2-Full/MotorControl/MCSDK/MCLib/Any/Src/revup_ctrl.c ****             }
 338:MCSDK_v6.3.2-Full/MotorControl/MCSDK/MCLib/Any/Src/revup_ctrl.c **** 
 339:MCSDK_v6.3.2-Full/MotorControl/MCSDK/MCLib/Any/Src/revup_ctrl.c ****             if (false == bCollinearSpeed)
 340:MCSDK_v6.3.2-Full/MotorControl/MCSDK/MCLib/Any/Src/revup_ctrl.c ****             {
 341:MCSDK_v6.3.2-Full/MotorControl/MCSDK/MCLib/Any/Src/revup_ctrl.c ****               /*reverse speed management*/
 342:MCSDK_v6.3.2-Full/MotorControl/MCSDK/MCLib/Any/Src/revup_ctrl.c ****               pHandle->bOTFRelCounter = 0U;
 343:MCSDK_v6.3.2-Full/MotorControl/MCSDK/MCLib/Any/Src/revup_ctrl.c ****             }
 344:MCSDK_v6.3.2-Full/MotorControl/MCSDK/MCLib/Any/Src/revup_ctrl.c ****             else /* Speeds are collinear */
 345:MCSDK_v6.3.2-Full/MotorControl/MCSDK/MCLib/Any/Src/revup_ctrl.c ****             {
 346:MCSDK_v6.3.2-Full/MotorControl/MCSDK/MCLib/Any/Src/revup_ctrl.c ****               if ((uint16_t)(hObsSpeedUnitAbsValue) > pHandle->hMinStartUpValidSpeed)
 455              		.loc 1 346 15 is_stmt 1 view .LVU157
 456              		.loc 1 346 18 is_stmt 0 view .LVU158
 457 00b0 B4F84A30 		ldrh	r3, [r4, #74]
 458 00b4 B342     		cmp	r3, r6
 459 00b6 0CD2     		bcs	.L27
 347:MCSDK_v6.3.2-Full/MotorControl/MCSDK/MCLib/Any/Src/revup_ctrl.c ****               {
 348:MCSDK_v6.3.2-Full/MotorControl/MCSDK/MCLib/Any/Src/revup_ctrl.c ****                 /* Startup end, go to run */
 349:MCSDK_v6.3.2-Full/MotorControl/MCSDK/MCLib/Any/Src/revup_ctrl.c ****                 pHandle->pSNSL->pFctForceConvergency1(pHandle->pSNSL);
 460              		.loc 1 349 17 is_stmt 1 view .LVU159
 461              		.loc 1 349 24 is_stmt 0 view .LVU160
 462 00b8 206F     		ldr	r0, [r4, #112]
 463              	.LVL36:
 464              		.loc 1 349 17 view .LVU161
 465 00ba 4368     		ldr	r3, [r0, #4]
 466 00bc 9847     		blx	r3
 467              	.LVL37:
 350:MCSDK_v6.3.2-Full/MotorControl/MCSDK/MCLib/Any/Src/revup_ctrl.c ****                 pHandle->EnteredZone1 = true;
 468              		.loc 1 350 17 is_stmt 1 view .LVU162
 469              		.loc 1 350 39 is_stmt 0 view .LVU163
 470 00be 0123     		movs	r3, #1
 471 00c0 84F85530 		strb	r3, [r4, #85]
 472 00c4 81E0     		b	.L16
 473              	.LVL38:
ARM GAS  /tmp/ccCWj51Y.s 			page 18


 474              	.L24:
 329:MCSDK_v6.3.2-Full/MotorControl/MCSDK/MCLib/Any/Src/revup_ctrl.c ****               {
 475              		.loc 1 329 15 is_stmt 1 view .LVU164
 329:MCSDK_v6.3.2-Full/MotorControl/MCSDK/MCLib/Any/Src/revup_ctrl.c ****               {
 476              		.loc 1 329 18 is_stmt 0 view .LVU165
 477 00c6 0028     		cmp	r0, #0
 478 00c8 EDDB     		blt	.L25
 479              	.L26:
 480              	.LVL39:
 342:MCSDK_v6.3.2-Full/MotorControl/MCSDK/MCLib/Any/Src/revup_ctrl.c ****             }
 481              		.loc 1 342 15 is_stmt 1 view .LVU166
 342:MCSDK_v6.3.2-Full/MotorControl/MCSDK/MCLib/Any/Src/revup_ctrl.c ****             }
 482              		.loc 1 342 39 is_stmt 0 view .LVU167
 483 00ca 0023     		movs	r3, #0
 484 00cc 84F85330 		strb	r3, [r4, #83]
 485 00d0 7BE0     		b	.L16
 486              	.L27:
 351:MCSDK_v6.3.2-Full/MotorControl/MCSDK/MCLib/Any/Src/revup_ctrl.c ****               }
 352:MCSDK_v6.3.2-Full/MotorControl/MCSDK/MCLib/Any/Src/revup_ctrl.c ****               else if ((uint16_t)(hObsSpeedUnitAbsValue) > pHandle->hMinStartUpFlySpeed)
 487              		.loc 1 352 20 is_stmt 1 view .LVU168
 488              		.loc 1 352 23 is_stmt 0 view .LVU169
 489 00d2 B4F84C30 		ldrh	r3, [r4, #76]
 490 00d6 B342     		cmp	r3, r6
 491 00d8 77D2     		bcs	.L16
 492              	.LBB14:
 353:MCSDK_v6.3.2-Full/MotorControl/MCSDK/MCLib/Any/Src/revup_ctrl.c ****               {
 354:MCSDK_v6.3.2-Full/MotorControl/MCSDK/MCLib/Any/Src/revup_ctrl.c ****                 /* Synch with startup */
 355:MCSDK_v6.3.2-Full/MotorControl/MCSDK/MCLib/Any/Src/revup_ctrl.c ****                 /* Nearest phase search */
 356:MCSDK_v6.3.2-Full/MotorControl/MCSDK/MCLib/Any/Src/revup_ctrl.c ****                 int16_t hOldFinalMecSpeedUnit = 0;
 493              		.loc 1 356 17 is_stmt 1 view .LVU170
 494              	.LVL40:
 357:MCSDK_v6.3.2-Full/MotorControl/MCSDK/MCLib/Any/Src/revup_ctrl.c ****                 int16_t hOldFinalTorque = 0;
 495              		.loc 1 357 17 view .LVU171
 358:MCSDK_v6.3.2-Full/MotorControl/MCSDK/MCLib/Any/Src/revup_ctrl.c ****                 int32_t wDeltaSpeedRevUp;
 496              		.loc 1 358 17 view .LVU172
 359:MCSDK_v6.3.2-Full/MotorControl/MCSDK/MCLib/Any/Src/revup_ctrl.c ****                 int32_t wDeltaTorqueRevUp;
 497              		.loc 1 359 17 view .LVU173
 360:MCSDK_v6.3.2-Full/MotorControl/MCSDK/MCLib/Any/Src/revup_ctrl.c ****                 bool bError = false;
 498              		.loc 1 360 17 view .LVU174
 361:MCSDK_v6.3.2-Full/MotorControl/MCSDK/MCLib/Any/Src/revup_ctrl.c ****                 VSS_SetCopyObserver(pHandle->pVSS);
 499              		.loc 1 361 17 view .LVU175
 500 00da E36E     		ldr	r3, [r4, #108]
 501              	.LVL41:
 502              	.LBB15:
 503              	.LBI15:
 135:MCSDK_v6.3.2-Full/MotorControl/MCSDK/MCLib/Any/Inc/virtual_speed_sensor.h **** #ifdef NULL_PTR_CHECK_VIR_SPD_SEN
 136:MCSDK_v6.3.2-Full/MotorControl/MCSDK/MCLib/Any/Inc/virtual_speed_sensor.h ****   }
 137:MCSDK_v6.3.2-Full/MotorControl/MCSDK/MCLib/Any/Inc/virtual_speed_sensor.h **** #endif
 138:MCSDK_v6.3.2-Full/MotorControl/MCSDK/MCLib/Any/Inc/virtual_speed_sensor.h **** }
 139:MCSDK_v6.3.2-Full/MotorControl/MCSDK/MCLib/Any/Inc/virtual_speed_sensor.h **** 
 140:MCSDK_v6.3.2-Full/MotorControl/MCSDK/MCLib/Any/Inc/virtual_speed_sensor.h **** /**
 141:MCSDK_v6.3.2-Full/MotorControl/MCSDK/MCLib/Any/Inc/virtual_speed_sensor.h ****   * @brief  Sets instantaneous information on rotor electrical angle same as copied by state observ
 142:MCSDK_v6.3.2-Full/MotorControl/MCSDK/MCLib/Any/Inc/virtual_speed_sensor.h ****   * @param  pHandle: handler of the current instance of the VirtualSpeedSensor component.
 143:MCSDK_v6.3.2-Full/MotorControl/MCSDK/MCLib/Any/Inc/virtual_speed_sensor.h ****   * @retval none
 144:MCSDK_v6.3.2-Full/MotorControl/MCSDK/MCLib/Any/Inc/virtual_speed_sensor.h ****   *
 145:MCSDK_v6.3.2-Full/MotorControl/MCSDK/MCLib/Any/Inc/virtual_speed_sensor.h ****   * - Not used into current implementation.
 146:MCSDK_v6.3.2-Full/MotorControl/MCSDK/MCLib/Any/Inc/virtual_speed_sensor.h ****   */
ARM GAS  /tmp/ccCWj51Y.s 			page 19


 147:MCSDK_v6.3.2-Full/MotorControl/MCSDK/MCLib/Any/Inc/virtual_speed_sensor.h **** static inline void VSS_SetCopyObserver(VirtualSpeedSensor_Handle_t *pHandle)
 504              		.loc 2 147 20 view .LVU176
 505              	.LBB16:
 148:MCSDK_v6.3.2-Full/MotorControl/MCSDK/MCLib/Any/Inc/virtual_speed_sensor.h **** {
 149:MCSDK_v6.3.2-Full/MotorControl/MCSDK/MCLib/Any/Inc/virtual_speed_sensor.h **** #ifdef NULL_PTR_CHECK_VIR_SPD_SEN
 150:MCSDK_v6.3.2-Full/MotorControl/MCSDK/MCLib/Any/Inc/virtual_speed_sensor.h ****   if (MC_NULL == pHandle)
 151:MCSDK_v6.3.2-Full/MotorControl/MCSDK/MCLib/Any/Inc/virtual_speed_sensor.h ****   {
 152:MCSDK_v6.3.2-Full/MotorControl/MCSDK/MCLib/Any/Inc/virtual_speed_sensor.h ****     /* Nothing to do */
 153:MCSDK_v6.3.2-Full/MotorControl/MCSDK/MCLib/Any/Inc/virtual_speed_sensor.h ****   }
 154:MCSDK_v6.3.2-Full/MotorControl/MCSDK/MCLib/Any/Inc/virtual_speed_sensor.h ****   else
 155:MCSDK_v6.3.2-Full/MotorControl/MCSDK/MCLib/Any/Inc/virtual_speed_sensor.h ****   {
 156:MCSDK_v6.3.2-Full/MotorControl/MCSDK/MCLib/Any/Inc/virtual_speed_sensor.h **** #endif
 157:MCSDK_v6.3.2-Full/MotorControl/MCSDK/MCLib/Any/Inc/virtual_speed_sensor.h ****     pHandle->bCopyObserver = true;
 506              		.loc 2 157 5 view .LVU177
 507              		.loc 2 157 28 is_stmt 0 view .LVU178
 508 00dc 0122     		movs	r2, #1
 509 00de 83F83320 		strb	r2, [r3, #51]
 510              	.LVL42:
 511              		.loc 2 157 28 view .LVU179
 512              	.LBE16:
 513              	.LBE15:
 362:MCSDK_v6.3.2-Full/MotorControl/MCSDK/MCLib/Any/Src/revup_ctrl.c ****                 pHandle->pSNSL->pFctForceConvergency2(pHandle->pSNSL);
 514              		.loc 1 362 17 is_stmt 1 view .LVU180
 515              		.loc 1 362 24 is_stmt 0 view .LVU181
 516 00e2 206F     		ldr	r0, [r4, #112]
 517              	.LVL43:
 518              		.loc 1 362 17 view .LVU182
 519 00e4 8368     		ldr	r3, [r0, #8]
 520 00e6 9847     		blx	r3
 521              	.LVL44:
 363:MCSDK_v6.3.2-Full/MotorControl/MCSDK/MCLib/Any/Src/revup_ctrl.c **** 
 364:MCSDK_v6.3.2-Full/MotorControl/MCSDK/MCLib/Any/Src/revup_ctrl.c ****                 if (MC_NULL == pHandle->pCurrentPhaseParams)
 522              		.loc 1 364 17 is_stmt 1 view .LVU183
 523              		.loc 1 364 39 is_stmt 0 view .LVU184
 524 00e8 A368     		ldr	r3, [r4, #8]
 525              		.loc 1 364 20 view .LVU185
 526 00ea 3BB1     		cbz	r3, .L28
 527              	.LBE14:
 313:MCSDK_v6.3.2-Full/MotorControl/MCSDK/MCLib/Any/Src/revup_ctrl.c ****                     ((hObsSpeedUnit < 0) ? (-hObsSpeedUnit) : (hObsSpeedUnit)); /* hObsSpeedUnit ab
 528              		.loc 1 313 21 view .LVU186
 529 00ec 36B2     		sxth	r6, r6
 530              	.LBB19:
 365:MCSDK_v6.3.2-Full/MotorControl/MCSDK/MCLib/Any/Src/revup_ctrl.c ****                 {
 366:MCSDK_v6.3.2-Full/MotorControl/MCSDK/MCLib/Any/Src/revup_ctrl.c ****                   bError = true;
 367:MCSDK_v6.3.2-Full/MotorControl/MCSDK/MCLib/Any/Src/revup_ctrl.c ****                   pHandle->hPhaseRemainingTicks = 0U;
 368:MCSDK_v6.3.2-Full/MotorControl/MCSDK/MCLib/Any/Src/revup_ctrl.c ****                 }
 369:MCSDK_v6.3.2-Full/MotorControl/MCSDK/MCLib/Any/Src/revup_ctrl.c ****                 else
 370:MCSDK_v6.3.2-Full/MotorControl/MCSDK/MCLib/Any/Src/revup_ctrl.c ****                 {
 371:MCSDK_v6.3.2-Full/MotorControl/MCSDK/MCLib/Any/Src/revup_ctrl.c ****                   while (pHandle->pCurrentPhaseParams->hFinalMecSpeedUnit < hObsSpeedUnitAbsValue)
 531              		.loc 1 371 25 is_stmt 1 view .LVU187
 532              		.loc 1 371 54 is_stmt 0 view .LVU188
 533 00ee B3F90210 		ldrsh	r1, [r3, #2]
 534              		.loc 1 371 25 view .LVU189
 535 00f2 8E42     		cmp	r6, r1
 536 00f4 06DC     		bgt	.L29
 357:MCSDK_v6.3.2-Full/MotorControl/MCSDK/MCLib/Any/Src/revup_ctrl.c ****                 int32_t wDeltaSpeedRevUp;
 537              		.loc 1 357 25 view .LVU190
ARM GAS  /tmp/ccCWj51Y.s 			page 20


 538 00f6 0020     		movs	r0, #0
 356:MCSDK_v6.3.2-Full/MotorControl/MCSDK/MCLib/Any/Src/revup_ctrl.c ****                 int16_t hOldFinalTorque = 0;
 539              		.loc 1 356 25 view .LVU191
 540 00f8 0146     		mov	r1, r0
 541 00fa 12E0     		b	.L30
 542              	.L28:
 366:MCSDK_v6.3.2-Full/MotorControl/MCSDK/MCLib/Any/Src/revup_ctrl.c ****                   pHandle->hPhaseRemainingTicks = 0U;
 543              		.loc 1 366 19 is_stmt 1 view .LVU192
 544              	.LVL45:
 367:MCSDK_v6.3.2-Full/MotorControl/MCSDK/MCLib/Any/Src/revup_ctrl.c ****                 }
 545              		.loc 1 367 19 view .LVU193
 367:MCSDK_v6.3.2-Full/MotorControl/MCSDK/MCLib/Any/Src/revup_ctrl.c ****                 }
 546              		.loc 1 367 49 is_stmt 0 view .LVU194
 547 00fc 0023     		movs	r3, #0
 548 00fe A380     		strh	r3, [r4, #4]	@ movhi
 549 0100 1EE0     		b	.L15
 550              	.LVL46:
 551              	.L39:
 552              		.loc 1 371 54 view .LVU195
 553 0102 1146     		mov	r1, r2
 554              	.LVL47:
 555              	.L29:
 372:MCSDK_v6.3.2-Full/MotorControl/MCSDK/MCLib/Any/Src/revup_ctrl.c ****                   {
 373:MCSDK_v6.3.2-Full/MotorControl/MCSDK/MCLib/Any/Src/revup_ctrl.c ****                     if (pHandle->pCurrentPhaseParams->pNext == MC_NULL)
 556              		.loc 1 373 21 is_stmt 1 view .LVU196
 557 0104 1A46     		mov	r2, r3
 558              		.loc 1 373 53 is_stmt 0 view .LVU197
 559 0106 9B68     		ldr	r3, [r3, #8]
 560              		.loc 1 373 24 view .LVU198
 561 0108 CBB1     		cbz	r3, .L47
 374:MCSDK_v6.3.2-Full/MotorControl/MCSDK/MCLib/Any/Src/revup_ctrl.c ****                     {
 375:MCSDK_v6.3.2-Full/MotorControl/MCSDK/MCLib/Any/Src/revup_ctrl.c ****                       /* Sets for Revup fail error */
 376:MCSDK_v6.3.2-Full/MotorControl/MCSDK/MCLib/Any/Src/revup_ctrl.c ****                       bError = true;
 377:MCSDK_v6.3.2-Full/MotorControl/MCSDK/MCLib/Any/Src/revup_ctrl.c ****                       pHandle->hPhaseRemainingTicks = 0U;
 378:MCSDK_v6.3.2-Full/MotorControl/MCSDK/MCLib/Any/Src/revup_ctrl.c ****                       break;
 379:MCSDK_v6.3.2-Full/MotorControl/MCSDK/MCLib/Any/Src/revup_ctrl.c ****                     }
 380:MCSDK_v6.3.2-Full/MotorControl/MCSDK/MCLib/Any/Src/revup_ctrl.c ****                     else
 381:MCSDK_v6.3.2-Full/MotorControl/MCSDK/MCLib/Any/Src/revup_ctrl.c ****                     {
 382:MCSDK_v6.3.2-Full/MotorControl/MCSDK/MCLib/Any/Src/revup_ctrl.c ****                       /* Skips this phase */
 383:MCSDK_v6.3.2-Full/MotorControl/MCSDK/MCLib/Any/Src/revup_ctrl.c ****                       hOldFinalMecSpeedUnit = pHandle->pCurrentPhaseParams->hFinalMecSpeedUnit;
 562              		.loc 1 383 23 is_stmt 1 view .LVU199
 384:MCSDK_v6.3.2-Full/MotorControl/MCSDK/MCLib/Any/Src/revup_ctrl.c ****                       hOldFinalTorque = pHandle->pCurrentPhaseParams->hFinalTorque;
 563              		.loc 1 384 23 view .LVU200
 564              		.loc 1 384 39 is_stmt 0 view .LVU201
 565 010a B2F90400 		ldrsh	r0, [r2, #4]
 566              	.LVL48:
 385:MCSDK_v6.3.2-Full/MotorControl/MCSDK/MCLib/Any/Src/revup_ctrl.c ****                       //cstat !MISRAC2012-Rule-11.5
 386:MCSDK_v6.3.2-Full/MotorControl/MCSDK/MCLib/Any/Src/revup_ctrl.c ****                       pHandle->pCurrentPhaseParams = (RevUpCtrl_PhaseParams_t *)pHandle->pCurrentPh
 567              		.loc 1 386 23 is_stmt 1 view .LVU202
 568              		.loc 1 386 52 is_stmt 0 view .LVU203
 569 010e A360     		str	r3, [r4, #8]
 387:MCSDK_v6.3.2-Full/MotorControl/MCSDK/MCLib/Any/Src/revup_ctrl.c ****                       pHandle->bStageCnt++;
 570              		.loc 1 387 23 is_stmt 1 view .LVU204
 571              		.loc 1 387 41 is_stmt 0 view .LVU205
 572 0110 94F85820 		ldrb	r2, [r4, #88]	@ zero_extendqisi2
 573 0114 0132     		adds	r2, r2, #1
 574 0116 84F85820 		strb	r2, [r4, #88]
ARM GAS  /tmp/ccCWj51Y.s 			page 21


 371:MCSDK_v6.3.2-Full/MotorControl/MCSDK/MCLib/Any/Src/revup_ctrl.c ****                   {
 575              		.loc 1 371 25 is_stmt 1 view .LVU206
 371:MCSDK_v6.3.2-Full/MotorControl/MCSDK/MCLib/Any/Src/revup_ctrl.c ****                   {
 576              		.loc 1 371 54 is_stmt 0 view .LVU207
 577 011a B3F90220 		ldrsh	r2, [r3, #2]
 371:MCSDK_v6.3.2-Full/MotorControl/MCSDK/MCLib/Any/Src/revup_ctrl.c ****                   {
 578              		.loc 1 371 25 view .LVU208
 579 011e B242     		cmp	r2, r6
 580 0120 EFDB     		blt	.L39
 581              	.LVL49:
 582              	.L30:
 388:MCSDK_v6.3.2-Full/MotorControl/MCSDK/MCLib/Any/Src/revup_ctrl.c ****                     }
 389:MCSDK_v6.3.2-Full/MotorControl/MCSDK/MCLib/Any/Src/revup_ctrl.c ****                   }
 390:MCSDK_v6.3.2-Full/MotorControl/MCSDK/MCLib/Any/Src/revup_ctrl.c ****                 }
 391:MCSDK_v6.3.2-Full/MotorControl/MCSDK/MCLib/Any/Src/revup_ctrl.c ****                 if (false == bError)
 583              		.loc 1 391 17 is_stmt 1 view .LVU209
 584              	.LBB17:
 392:MCSDK_v6.3.2-Full/MotorControl/MCSDK/MCLib/Any/Src/revup_ctrl.c ****                 {
 393:MCSDK_v6.3.2-Full/MotorControl/MCSDK/MCLib/Any/Src/revup_ctrl.c ****                   /* Calculation of the transition phase from OTF to standard revup */
 394:MCSDK_v6.3.2-Full/MotorControl/MCSDK/MCLib/Any/Src/revup_ctrl.c ****                   int16_t hTorqueReference;
 585              		.loc 1 394 19 view .LVU210
 395:MCSDK_v6.3.2-Full/MotorControl/MCSDK/MCLib/Any/Src/revup_ctrl.c **** 
 396:MCSDK_v6.3.2-Full/MotorControl/MCSDK/MCLib/Any/Src/revup_ctrl.c ****                   wDeltaSpeedRevUp = ((int32_t)(pHandle->pCurrentPhaseParams->hFinalMecSpeedUnit))
 586              		.loc 1 396 19 view .LVU211
 587              		.loc 1 396 56 is_stmt 0 view .LVU212
 588 0122 A268     		ldr	r2, [r4, #8]
 589              		.loc 1 396 39 view .LVU213
 590 0124 B2F90230 		ldrsh	r3, [r2, #2]
 591              	.LVL50:
 397:MCSDK_v6.3.2-Full/MotorControl/MCSDK/MCLib/Any/Src/revup_ctrl.c ****                                    - ((int32_t)(hOldFinalMecSpeedUnit));
 398:MCSDK_v6.3.2-Full/MotorControl/MCSDK/MCLib/Any/Src/revup_ctrl.c ****                   wDeltaTorqueRevUp = ((int32_t)(pHandle->pCurrentPhaseParams->hFinalTorque))
 592              		.loc 1 398 19 is_stmt 1 view .LVU214
 399:MCSDK_v6.3.2-Full/MotorControl/MCSDK/MCLib/Any/Src/revup_ctrl.c ****                                     - ((int32_t)(hOldFinalTorque));
 400:MCSDK_v6.3.2-Full/MotorControl/MCSDK/MCLib/Any/Src/revup_ctrl.c **** 
 401:MCSDK_v6.3.2-Full/MotorControl/MCSDK/MCLib/Any/Src/revup_ctrl.c ****                   if ((int32_t)0 == wDeltaSpeedRevUp)
 593              		.loc 1 401 19 view .LVU215
 594              		.loc 1 401 22 is_stmt 0 view .LVU216
 595 0128 591A     		subs	r1, r3, r1
 596              	.LVL51:
 597              		.loc 1 401 22 view .LVU217
 598 012a 3AD1     		bne	.L48
 599              	.LVL52:
 600              	.L37:
 402:MCSDK_v6.3.2-Full/MotorControl/MCSDK/MCLib/Any/Src/revup_ctrl.c ****                   {
 403:MCSDK_v6.3.2-Full/MotorControl/MCSDK/MCLib/Any/Src/revup_ctrl.c ****                     /* Nothing to do */
 404:MCSDK_v6.3.2-Full/MotorControl/MCSDK/MCLib/Any/Src/revup_ctrl.c ****                   }
 405:MCSDK_v6.3.2-Full/MotorControl/MCSDK/MCLib/Any/Src/revup_ctrl.c ****                   else
 406:MCSDK_v6.3.2-Full/MotorControl/MCSDK/MCLib/Any/Src/revup_ctrl.c ****                   {
 407:MCSDK_v6.3.2-Full/MotorControl/MCSDK/MCLib/Any/Src/revup_ctrl.c ****                     hTorqueReference = (int16_t)((((int32_t)hObsSpeedUnit) * wDeltaTorqueRevUp) / w
 408:MCSDK_v6.3.2-Full/MotorControl/MCSDK/MCLib/Any/Src/revup_ctrl.c ****                                      + hOldFinalTorque;
 409:MCSDK_v6.3.2-Full/MotorControl/MCSDK/MCLib/Any/Src/revup_ctrl.c **** 
 410:MCSDK_v6.3.2-Full/MotorControl/MCSDK/MCLib/Any/Src/revup_ctrl.c ****                     (void)STC_ExecRamp(pHandle->pSTC, pHandle->hDirection * hTorqueReference, 0U);
 411:MCSDK_v6.3.2-Full/MotorControl/MCSDK/MCLib/Any/Src/revup_ctrl.c ****                   }
 412:MCSDK_v6.3.2-Full/MotorControl/MCSDK/MCLib/Any/Src/revup_ctrl.c **** 
 413:MCSDK_v6.3.2-Full/MotorControl/MCSDK/MCLib/Any/Src/revup_ctrl.c ****                   pHandle->hPhaseRemainingTicks = 1U;
 601              		.loc 1 413 19 is_stmt 1 view .LVU218
 602              		.loc 1 413 49 is_stmt 0 view .LVU219
ARM GAS  /tmp/ccCWj51Y.s 			page 22


 603 012c 0120     		movs	r0, #1
 604 012e A080     		strh	r0, [r4, #4]	@ movhi
 414:MCSDK_v6.3.2-Full/MotorControl/MCSDK/MCLib/Any/Src/revup_ctrl.c **** 
 415:MCSDK_v6.3.2-Full/MotorControl/MCSDK/MCLib/Any/Src/revup_ctrl.c ****                   pHandle->pCurrentPhaseParams = &pHandle->OTFPhaseParams;
 605              		.loc 1 415 19 is_stmt 1 view .LVU220
 606              		.loc 1 415 50 is_stmt 0 view .LVU221
 607 0130 04F15C03 		add	r3, r4, #92
 608              		.loc 1 415 48 view .LVU222
 609 0134 A360     		str	r3, [r4, #8]
 416:MCSDK_v6.3.2-Full/MotorControl/MCSDK/MCLib/Any/Src/revup_ctrl.c **** 
 417:MCSDK_v6.3.2-Full/MotorControl/MCSDK/MCLib/Any/Src/revup_ctrl.c ****                   pHandle->bStageCnt = 6U;
 610              		.loc 1 417 19 is_stmt 1 view .LVU223
 611              		.loc 1 417 38 is_stmt 0 view .LVU224
 612 0136 0623     		movs	r3, #6
 613 0138 84F85830 		strb	r3, [r4, #88]
 614              	.LBE17:
 615              	.LBE19:
 616              	.LBE13:
 418:MCSDK_v6.3.2-Full/MotorControl/MCSDK/MCLib/Any/Src/revup_ctrl.c ****                 } /* No MC_NULL error */
 419:MCSDK_v6.3.2-Full/MotorControl/MCSDK/MCLib/Any/Src/revup_ctrl.c ****               } /* Speed > MinStartupFly */
 420:MCSDK_v6.3.2-Full/MotorControl/MCSDK/MCLib/Any/Src/revup_ctrl.c ****               else
 421:MCSDK_v6.3.2-Full/MotorControl/MCSDK/MCLib/Any/Src/revup_ctrl.c ****               {
 422:MCSDK_v6.3.2-Full/MotorControl/MCSDK/MCLib/Any/Src/revup_ctrl.c ****                 /* Nothing to do */
 423:MCSDK_v6.3.2-Full/MotorControl/MCSDK/MCLib/Any/Src/revup_ctrl.c ****               }
 424:MCSDK_v6.3.2-Full/MotorControl/MCSDK/MCLib/Any/Src/revup_ctrl.c ****             } /* Speeds are collinear */
 425:MCSDK_v6.3.2-Full/MotorControl/MCSDK/MCLib/Any/Src/revup_ctrl.c ****           } /* Speed is reliable */
 426:MCSDK_v6.3.2-Full/MotorControl/MCSDK/MCLib/Any/Src/revup_ctrl.c ****         }/* EnteredZone1 1 is false */
 427:MCSDK_v6.3.2-Full/MotorControl/MCSDK/MCLib/Any/Src/revup_ctrl.c ****         else
 428:MCSDK_v6.3.2-Full/MotorControl/MCSDK/MCLib/Any/Src/revup_ctrl.c ****         {
 429:MCSDK_v6.3.2-Full/MotorControl/MCSDK/MCLib/Any/Src/revup_ctrl.c ****           pHandle->pSNSL->pFctForceConvergency1(pHandle->pSNSL);
 430:MCSDK_v6.3.2-Full/MotorControl/MCSDK/MCLib/Any/Src/revup_ctrl.c ****         }
 431:MCSDK_v6.3.2-Full/MotorControl/MCSDK/MCLib/Any/Src/revup_ctrl.c ****       } /* Stage 0 */
 432:MCSDK_v6.3.2-Full/MotorControl/MCSDK/MCLib/Any/Src/revup_ctrl.c ****     } /* hPhaseRemainingTicks > 0 */
 433:MCSDK_v6.3.2-Full/MotorControl/MCSDK/MCLib/Any/Src/revup_ctrl.c **** 
 434:MCSDK_v6.3.2-Full/MotorControl/MCSDK/MCLib/Any/Src/revup_ctrl.c ****     if (0U == pHandle->hPhaseRemainingTicks)
 617              		.loc 1 434 5 is_stmt 1 view .LVU225
 618 013c 49E0     		b	.L44
 619              	.L47:
 620              	.LBB22:
 621              	.LBB20:
 376:MCSDK_v6.3.2-Full/MotorControl/MCSDK/MCLib/Any/Src/revup_ctrl.c ****                       pHandle->hPhaseRemainingTicks = 0U;
 622              		.loc 1 376 23 view .LVU226
 623              	.LVL53:
 377:MCSDK_v6.3.2-Full/MotorControl/MCSDK/MCLib/Any/Src/revup_ctrl.c ****                       break;
 624              		.loc 1 377 23 view .LVU227
 377:MCSDK_v6.3.2-Full/MotorControl/MCSDK/MCLib/Any/Src/revup_ctrl.c ****                       break;
 625              		.loc 1 377 53 is_stmt 0 view .LVU228
 626 013e A380     		strh	r3, [r4, #4]	@ movhi
 378:MCSDK_v6.3.2-Full/MotorControl/MCSDK/MCLib/Any/Src/revup_ctrl.c ****                     }
 627              		.loc 1 378 23 is_stmt 1 view .LVU229
 628              	.LVL54:
 629              	.L15:
 378:MCSDK_v6.3.2-Full/MotorControl/MCSDK/MCLib/Any/Src/revup_ctrl.c ****                     }
 630              		.loc 1 378 23 is_stmt 0 view .LVU230
 631              	.LBE20:
 632              	.LBE22:
 435:MCSDK_v6.3.2-Full/MotorControl/MCSDK/MCLib/Any/Src/revup_ctrl.c ****     {
ARM GAS  /tmp/ccCWj51Y.s 			page 23


 436:MCSDK_v6.3.2-Full/MotorControl/MCSDK/MCLib/Any/Src/revup_ctrl.c ****       if (pHandle->pCurrentPhaseParams != MC_NULL)
 633              		.loc 1 436 7 is_stmt 1 view .LVU231
 634              		.loc 1 436 10 is_stmt 0 view .LVU232
 635 0140 A368     		ldr	r3, [r4, #8]
 636 0142 002B     		cmp	r3, #0
 637 0144 5BD0     		beq	.L34
 437:MCSDK_v6.3.2-Full/MotorControl/MCSDK/MCLib/Any/Src/revup_ctrl.c ****       {
 438:MCSDK_v6.3.2-Full/MotorControl/MCSDK/MCLib/Any/Src/revup_ctrl.c ****         if (0U == pHandle->bStageCnt)
 638              		.loc 1 438 9 is_stmt 1 view .LVU233
 639              		.loc 1 438 26 is_stmt 0 view .LVU234
 640 0146 94F85830 		ldrb	r3, [r4, #88]	@ zero_extendqisi2
 641              		.loc 1 438 12 view .LVU235
 642 014a 002B     		cmp	r3, #0
 643 014c 42D0     		beq	.L49
 439:MCSDK_v6.3.2-Full/MotorControl/MCSDK/MCLib/Any/Src/revup_ctrl.c ****         {
 440:MCSDK_v6.3.2-Full/MotorControl/MCSDK/MCLib/Any/Src/revup_ctrl.c ****           /* End of OTF */
 441:MCSDK_v6.3.2-Full/MotorControl/MCSDK/MCLib/Any/Src/revup_ctrl.c ****           PWMC_SwitchOffPWM(pHandle->pPWM);
 442:MCSDK_v6.3.2-Full/MotorControl/MCSDK/MCLib/Any/Src/revup_ctrl.c ****           pHandle->OTFSCLowside = true;
 443:MCSDK_v6.3.2-Full/MotorControl/MCSDK/MCLib/Any/Src/revup_ctrl.c ****           PWMC_TurnOnLowSides(pHandle->pPWM, 0u);
 444:MCSDK_v6.3.2-Full/MotorControl/MCSDK/MCLib/Any/Src/revup_ctrl.c ****           pHandle->bOTFRelCounter = 0U;
 445:MCSDK_v6.3.2-Full/MotorControl/MCSDK/MCLib/Any/Src/revup_ctrl.c ****         }
 446:MCSDK_v6.3.2-Full/MotorControl/MCSDK/MCLib/Any/Src/revup_ctrl.c ****         else if (1U == pHandle->bStageCnt)
 644              		.loc 1 446 14 is_stmt 1 view .LVU236
 645              		.loc 1 446 17 is_stmt 0 view .LVU237
 646 014e 012B     		cmp	r3, #1
 647 0150 4ED0     		beq	.L50
 648              	.L36:
 447:MCSDK_v6.3.2-Full/MotorControl/MCSDK/MCLib/Any/Src/revup_ctrl.c ****         {
 448:MCSDK_v6.3.2-Full/MotorControl/MCSDK/MCLib/Any/Src/revup_ctrl.c ****           PWMC_SwitchOnPWM(pHandle->pPWM);
 449:MCSDK_v6.3.2-Full/MotorControl/MCSDK/MCLib/Any/Src/revup_ctrl.c ****           pHandle->OTFSCLowside = false;
 450:MCSDK_v6.3.2-Full/MotorControl/MCSDK/MCLib/Any/Src/revup_ctrl.c ****         }
 451:MCSDK_v6.3.2-Full/MotorControl/MCSDK/MCLib/Any/Src/revup_ctrl.c ****         else
 452:MCSDK_v6.3.2-Full/MotorControl/MCSDK/MCLib/Any/Src/revup_ctrl.c ****         {
 453:MCSDK_v6.3.2-Full/MotorControl/MCSDK/MCLib/Any/Src/revup_ctrl.c ****           /* Nothing to do */
 454:MCSDK_v6.3.2-Full/MotorControl/MCSDK/MCLib/Any/Src/revup_ctrl.c ****         }
 649              		.loc 1 454 9 is_stmt 1 view .LVU238
 455:MCSDK_v6.3.2-Full/MotorControl/MCSDK/MCLib/Any/Src/revup_ctrl.c **** 
 456:MCSDK_v6.3.2-Full/MotorControl/MCSDK/MCLib/Any/Src/revup_ctrl.c **** 
 457:MCSDK_v6.3.2-Full/MotorControl/MCSDK/MCLib/Any/Src/revup_ctrl.c ****         /* If it becomes zero the current phase has been completed */
 458:MCSDK_v6.3.2-Full/MotorControl/MCSDK/MCLib/Any/Src/revup_ctrl.c ****         /* Gives the next command to STC and VSS */
 459:MCSDK_v6.3.2-Full/MotorControl/MCSDK/MCLib/Any/Src/revup_ctrl.c ****         (void)STC_ExecRamp(pHandle->pSTC, pHandle->pCurrentPhaseParams->hFinalTorque * pHandle->hDi
 650              		.loc 1 459 9 view .LVU239
 651              		.loc 1 459 50 is_stmt 0 view .LVU240
 652 0152 A368     		ldr	r3, [r4, #8]
 653              		.loc 1 459 86 view .LVU241
 654 0154 9988     		ldrh	r1, [r3, #4]
 655 0156 E288     		ldrh	r2, [r4, #6]
 656 0158 11FB02F1 		smulbb	r1, r1, r2
 657              		.loc 1 459 15 view .LVU242
 658 015c 1A88     		ldrh	r2, [r3]
 659 015e 09B2     		sxth	r1, r1
 660 0160 A06E     		ldr	r0, [r4, #104]
 661 0162 FFF7FEFF 		bl	STC_ExecRamp
 662              	.LVL55:
 460:MCSDK_v6.3.2-Full/MotorControl/MCSDK/MCLib/Any/Src/revup_ctrl.c ****                            (uint32_t)(pHandle->pCurrentPhaseParams->hDurationms));
 461:MCSDK_v6.3.2-Full/MotorControl/MCSDK/MCLib/Any/Src/revup_ctrl.c **** 
 462:MCSDK_v6.3.2-Full/MotorControl/MCSDK/MCLib/Any/Src/revup_ctrl.c ****         VSS_SetMecAcceleration(pHandle->pVSS,
ARM GAS  /tmp/ccCWj51Y.s 			page 24


 663              		.loc 1 462 9 is_stmt 1 view .LVU243
 463:MCSDK_v6.3.2-Full/MotorControl/MCSDK/MCLib/Any/Src/revup_ctrl.c ****                                pHandle->pCurrentPhaseParams->hFinalMecSpeedUnit * pHandle->hDirecti
 664              		.loc 1 463 39 is_stmt 0 view .LVU244
 665 0166 A368     		ldr	r3, [r4, #8]
 666              		.loc 1 463 81 view .LVU245
 667 0168 5988     		ldrh	r1, [r3, #2]
 668 016a E288     		ldrh	r2, [r4, #6]
 669 016c 11FB02F1 		smulbb	r1, r1, r2
 462:MCSDK_v6.3.2-Full/MotorControl/MCSDK/MCLib/Any/Src/revup_ctrl.c ****                                pHandle->pCurrentPhaseParams->hFinalMecSpeedUnit * pHandle->hDirecti
 670              		.loc 1 462 9 view .LVU246
 671 0170 1A88     		ldrh	r2, [r3]
 672 0172 09B2     		sxth	r1, r1
 673 0174 E06E     		ldr	r0, [r4, #108]
 674 0176 FFF7FEFF 		bl	VSS_SetMecAcceleration
 675              	.LVL56:
 464:MCSDK_v6.3.2-Full/MotorControl/MCSDK/MCLib/Any/Src/revup_ctrl.c ****                                pHandle->pCurrentPhaseParams->hDurationms);
 465:MCSDK_v6.3.2-Full/MotorControl/MCSDK/MCLib/Any/Src/revup_ctrl.c **** 
 466:MCSDK_v6.3.2-Full/MotorControl/MCSDK/MCLib/Any/Src/revup_ctrl.c ****         /* Compute hPhaseRemainingTicks */
 467:MCSDK_v6.3.2-Full/MotorControl/MCSDK/MCLib/Any/Src/revup_ctrl.c ****         pHandle->hPhaseRemainingTicks = (uint16_t)((((uint32_t)pHandle->pCurrentPhaseParams->hDurat
 676              		.loc 1 467 9 is_stmt 1 view .LVU247
 677              		.loc 1 467 71 is_stmt 0 view .LVU248
 678 017a A268     		ldr	r2, [r4, #8]
 468:MCSDK_v6.3.2-Full/MotorControl/MCSDK/MCLib/Any/Src/revup_ctrl.c ****                                                  * (uint32_t)pHandle->hRUCFrequencyHz) / 1000U);
 469:MCSDK_v6.3.2-Full/MotorControl/MCSDK/MCLib/Any/Src/revup_ctrl.c ****         pHandle->hPhaseRemainingTicks++;
 679              		.loc 1 469 9 is_stmt 1 view .LVU249
 467:MCSDK_v6.3.2-Full/MotorControl/MCSDK/MCLib/Any/Src/revup_ctrl.c ****                                                  * (uint32_t)pHandle->hRUCFrequencyHz) / 1000U);
 680              		.loc 1 467 54 is_stmt 0 view .LVU250
 681 017c 1388     		ldrh	r3, [r2]
 468:MCSDK_v6.3.2-Full/MotorControl/MCSDK/MCLib/Any/Src/revup_ctrl.c ****                                                  * (uint32_t)pHandle->hRUCFrequencyHz) / 1000U);
 682              		.loc 1 468 52 view .LVU251
 683 017e 2188     		ldrh	r1, [r4]
 468:MCSDK_v6.3.2-Full/MotorControl/MCSDK/MCLib/Any/Src/revup_ctrl.c ****                                                  * (uint32_t)pHandle->hRUCFrequencyHz) / 1000U);
 684              		.loc 1 468 50 view .LVU252
 685 0180 01FB03F3 		mul	r3, r1, r3
 468:MCSDK_v6.3.2-Full/MotorControl/MCSDK/MCLib/Any/Src/revup_ctrl.c ****                                                  * (uint32_t)pHandle->hRUCFrequencyHz) / 1000U);
 686              		.loc 1 468 88 view .LVU253
 687 0184 2749     		ldr	r1, .L52
 688 0186 A1FB0313 		umull	r1, r3, r1, r3
 689 018a 9B09     		lsrs	r3, r3, #6
 690              		.loc 1 469 38 view .LVU254
 691 018c 0133     		adds	r3, r3, #1
 692 018e A380     		strh	r3, [r4, #4]	@ movhi
 470:MCSDK_v6.3.2-Full/MotorControl/MCSDK/MCLib/Any/Src/revup_ctrl.c **** 
 471:MCSDK_v6.3.2-Full/MotorControl/MCSDK/MCLib/Any/Src/revup_ctrl.c ****         /* Set the next phases parameter pointer */
 472:MCSDK_v6.3.2-Full/MotorControl/MCSDK/MCLib/Any/Src/revup_ctrl.c ****         pHandle->pCurrentPhaseParams = pHandle->pCurrentPhaseParams->pNext; //cstat !MISRAC2012-Rul
 693              		.loc 1 472 9 is_stmt 1 view .LVU255
 694              		.loc 1 472 68 is_stmt 0 view .LVU256
 695 0190 9368     		ldr	r3, [r2, #8]
 696              		.loc 1 472 38 view .LVU257
 697 0192 A360     		str	r3, [r4, #8]
 473:MCSDK_v6.3.2-Full/MotorControl/MCSDK/MCLib/Any/Src/revup_ctrl.c **** 
 474:MCSDK_v6.3.2-Full/MotorControl/MCSDK/MCLib/Any/Src/revup_ctrl.c ****         /* Increases the rev up stages counter */
 475:MCSDK_v6.3.2-Full/MotorControl/MCSDK/MCLib/Any/Src/revup_ctrl.c ****         pHandle->bStageCnt++;
 698              		.loc 1 475 9 is_stmt 1 view .LVU258
 699              		.loc 1 475 27 is_stmt 0 view .LVU259
 700 0194 94F85830 		ldrb	r3, [r4, #88]	@ zero_extendqisi2
 701 0198 0133     		adds	r3, r3, #1
ARM GAS  /tmp/ccCWj51Y.s 			page 25


 702 019a 84F85830 		strb	r3, [r4, #88]
 227:MCSDK_v6.3.2-Full/MotorControl/MCSDK/MCLib/Any/Src/revup_ctrl.c **** #ifdef NULL_PTR_CHECK_REV_UP_CTL
 703              		.loc 1 227 8 view .LVU260
 704 019e 0120     		movs	r0, #1
 705 01a0 17E0     		b	.L44
 706              	.LVL57:
 707              	.L48:
 708              	.LBB23:
 709              	.LBB21:
 710              	.LBB18:
 407:MCSDK_v6.3.2-Full/MotorControl/MCSDK/MCLib/Any/Src/revup_ctrl.c ****                                      + hOldFinalTorque;
 711              		.loc 1 407 21 is_stmt 1 view .LVU261
 410:MCSDK_v6.3.2-Full/MotorControl/MCSDK/MCLib/Any/Src/revup_ctrl.c ****                   }
 712              		.loc 1 410 21 view .LVU262
 398:MCSDK_v6.3.2-Full/MotorControl/MCSDK/MCLib/Any/Src/revup_ctrl.c ****                                     - ((int32_t)(hOldFinalTorque));
 713              		.loc 1 398 40 is_stmt 0 view .LVU263
 714 01a2 B2F90430 		ldrsh	r3, [r2, #4]
 398:MCSDK_v6.3.2-Full/MotorControl/MCSDK/MCLib/Any/Src/revup_ctrl.c ****                                     - ((int32_t)(hOldFinalTorque));
 715              		.loc 1 398 37 view .LVU264
 716 01a6 1B1A     		subs	r3, r3, r0
 407:MCSDK_v6.3.2-Full/MotorControl/MCSDK/MCLib/Any/Src/revup_ctrl.c ****                                      + hOldFinalTorque;
 717              		.loc 1 407 76 view .LVU265
 718 01a8 05FB03F3 		mul	r3, r5, r3
 407:MCSDK_v6.3.2-Full/MotorControl/MCSDK/MCLib/Any/Src/revup_ctrl.c ****                                      + hOldFinalTorque;
 719              		.loc 1 407 97 view .LVU266
 720 01ac 93FBF1F3 		sdiv	r3, r3, r1
 408:MCSDK_v6.3.2-Full/MotorControl/MCSDK/MCLib/Any/Src/revup_ctrl.c **** 
 721              		.loc 1 408 38 view .LVU267
 722 01b0 1844     		add	r0, r0, r3
 723              	.LVL58:
 410:MCSDK_v6.3.2-Full/MotorControl/MCSDK/MCLib/Any/Src/revup_ctrl.c ****                   }
 724              		.loc 1 410 75 view .LVU268
 725 01b2 E388     		ldrh	r3, [r4, #6]
 726 01b4 13FB00F0 		smulbb	r0, r3, r0
 410:MCSDK_v6.3.2-Full/MotorControl/MCSDK/MCLib/Any/Src/revup_ctrl.c ****                   }
 727              		.loc 1 410 27 view .LVU269
 728 01b8 0022     		movs	r2, #0
 410:MCSDK_v6.3.2-Full/MotorControl/MCSDK/MCLib/Any/Src/revup_ctrl.c ****                   }
 729              		.loc 1 410 27 view .LVU270
 730 01ba 01B2     		sxth	r1, r0
 731              	.LVL59:
 410:MCSDK_v6.3.2-Full/MotorControl/MCSDK/MCLib/Any/Src/revup_ctrl.c ****                   }
 732              		.loc 1 410 27 view .LVU271
 733 01bc A06E     		ldr	r0, [r4, #104]
 734 01be FFF7FEFF 		bl	STC_ExecRamp
 735              	.LVL60:
 410:MCSDK_v6.3.2-Full/MotorControl/MCSDK/MCLib/Any/Src/revup_ctrl.c ****                   }
 736              		.loc 1 410 27 view .LVU272
 737 01c2 B3E7     		b	.L37
 738              	.LVL61:
 739              	.L17:
 410:MCSDK_v6.3.2-Full/MotorControl/MCSDK/MCLib/Any/Src/revup_ctrl.c ****                   }
 740              		.loc 1 410 27 view .LVU273
 741              	.LBE18:
 742              	.LBE21:
 743              	.LBE23:
 429:MCSDK_v6.3.2-Full/MotorControl/MCSDK/MCLib/Any/Src/revup_ctrl.c ****         }
ARM GAS  /tmp/ccCWj51Y.s 			page 26


 744              		.loc 1 429 11 is_stmt 1 view .LVU274
 429:MCSDK_v6.3.2-Full/MotorControl/MCSDK/MCLib/Any/Src/revup_ctrl.c ****         }
 745              		.loc 1 429 18 is_stmt 0 view .LVU275
 746 01c4 006F     		ldr	r0, [r0, #112]
 747              	.LVL62:
 429:MCSDK_v6.3.2-Full/MotorControl/MCSDK/MCLib/Any/Src/revup_ctrl.c ****         }
 748              		.loc 1 429 11 view .LVU276
 749 01c6 4368     		ldr	r3, [r0, #4]
 750 01c8 9847     		blx	r3
 751              	.LVL63:
 752              	.L16:
 434:MCSDK_v6.3.2-Full/MotorControl/MCSDK/MCLib/Any/Src/revup_ctrl.c ****     {
 753              		.loc 1 434 5 is_stmt 1 view .LVU277
 434:MCSDK_v6.3.2-Full/MotorControl/MCSDK/MCLib/Any/Src/revup_ctrl.c ****     {
 754              		.loc 1 434 8 is_stmt 0 view .LVU278
 755 01ca A388     		ldrh	r3, [r4, #4]
 227:MCSDK_v6.3.2-Full/MotorControl/MCSDK/MCLib/Any/Src/revup_ctrl.c **** #ifdef NULL_PTR_CHECK_REV_UP_CTL
 756              		.loc 1 227 8 view .LVU279
 757 01cc 0120     		movs	r0, #1
 434:MCSDK_v6.3.2-Full/MotorControl/MCSDK/MCLib/Any/Src/revup_ctrl.c ****     {
 758              		.loc 1 434 8 view .LVU280
 759 01ce 002B     		cmp	r3, #0
 760 01d0 B6D0     		beq	.L15
 761              	.L44:
 476:MCSDK_v6.3.2-Full/MotorControl/MCSDK/MCLib/Any/Src/revup_ctrl.c ****       }
 477:MCSDK_v6.3.2-Full/MotorControl/MCSDK/MCLib/Any/Src/revup_ctrl.c ****       else
 478:MCSDK_v6.3.2-Full/MotorControl/MCSDK/MCLib/Any/Src/revup_ctrl.c ****       {
 479:MCSDK_v6.3.2-Full/MotorControl/MCSDK/MCLib/Any/Src/revup_ctrl.c ****         if (pHandle->bStageCnt == (pHandle->bPhaseNbr - (uint8_t)1)) /* End of user programmed revu
 480:MCSDK_v6.3.2-Full/MotorControl/MCSDK/MCLib/Any/Src/revup_ctrl.c ****         {
 481:MCSDK_v6.3.2-Full/MotorControl/MCSDK/MCLib/Any/Src/revup_ctrl.c ****           retVal = false;
 482:MCSDK_v6.3.2-Full/MotorControl/MCSDK/MCLib/Any/Src/revup_ctrl.c ****         }
 483:MCSDK_v6.3.2-Full/MotorControl/MCSDK/MCLib/Any/Src/revup_ctrl.c ****         else if (7U == pHandle->bStageCnt) /* End of first OTF runs */
 484:MCSDK_v6.3.2-Full/MotorControl/MCSDK/MCLib/Any/Src/revup_ctrl.c ****         {
 485:MCSDK_v6.3.2-Full/MotorControl/MCSDK/MCLib/Any/Src/revup_ctrl.c ****           pHandle->bStageCnt = 0U; /* Breaking state */
 486:MCSDK_v6.3.2-Full/MotorControl/MCSDK/MCLib/Any/Src/revup_ctrl.c ****           pHandle->hPhaseRemainingTicks = 0U;
 487:MCSDK_v6.3.2-Full/MotorControl/MCSDK/MCLib/Any/Src/revup_ctrl.c ****         }
 488:MCSDK_v6.3.2-Full/MotorControl/MCSDK/MCLib/Any/Src/revup_ctrl.c ****         else
 489:MCSDK_v6.3.2-Full/MotorControl/MCSDK/MCLib/Any/Src/revup_ctrl.c ****         {
 490:MCSDK_v6.3.2-Full/MotorControl/MCSDK/MCLib/Any/Src/revup_ctrl.c ****           /* Nothing to do */
 491:MCSDK_v6.3.2-Full/MotorControl/MCSDK/MCLib/Any/Src/revup_ctrl.c ****         }
 492:MCSDK_v6.3.2-Full/MotorControl/MCSDK/MCLib/Any/Src/revup_ctrl.c ****       }
 493:MCSDK_v6.3.2-Full/MotorControl/MCSDK/MCLib/Any/Src/revup_ctrl.c ****     }
 494:MCSDK_v6.3.2-Full/MotorControl/MCSDK/MCLib/Any/Src/revup_ctrl.c **** #ifdef NULL_PTR_CHECK_REV_UP_CTL
 495:MCSDK_v6.3.2-Full/MotorControl/MCSDK/MCLib/Any/Src/revup_ctrl.c ****   }
 496:MCSDK_v6.3.2-Full/MotorControl/MCSDK/MCLib/Any/Src/revup_ctrl.c **** #endif
 497:MCSDK_v6.3.2-Full/MotorControl/MCSDK/MCLib/Any/Src/revup_ctrl.c ****   return (retVal);
 498:MCSDK_v6.3.2-Full/MotorControl/MCSDK/MCLib/Any/Src/revup_ctrl.c **** }
 762              		.loc 1 498 1 view .LVU281
 763 01d2 70BD     		pop	{r4, r5, r6, pc}
 764              	.LVL64:
 765              	.L49:
 441:MCSDK_v6.3.2-Full/MotorControl/MCSDK/MCLib/Any/Src/revup_ctrl.c ****           pHandle->OTFSCLowside = true;
 766              		.loc 1 441 11 is_stmt 1 view .LVU282
 767 01d4 606F     		ldr	r0, [r4, #116]
 768 01d6 FFF7FEFF 		bl	PWMC_SwitchOffPWM
 769              	.LVL65:
 442:MCSDK_v6.3.2-Full/MotorControl/MCSDK/MCLib/Any/Src/revup_ctrl.c ****           PWMC_TurnOnLowSides(pHandle->pPWM, 0u);
ARM GAS  /tmp/ccCWj51Y.s 			page 27


 770              		.loc 1 442 11 view .LVU283
 442:MCSDK_v6.3.2-Full/MotorControl/MCSDK/MCLib/Any/Src/revup_ctrl.c ****           PWMC_TurnOnLowSides(pHandle->pPWM, 0u);
 771              		.loc 1 442 33 is_stmt 0 view .LVU284
 772 01da 0123     		movs	r3, #1
 773 01dc 84F85430 		strb	r3, [r4, #84]
 443:MCSDK_v6.3.2-Full/MotorControl/MCSDK/MCLib/Any/Src/revup_ctrl.c ****           pHandle->bOTFRelCounter = 0U;
 774              		.loc 1 443 11 is_stmt 1 view .LVU285
 775 01e0 0021     		movs	r1, #0
 776 01e2 606F     		ldr	r0, [r4, #116]
 777 01e4 FFF7FEFF 		bl	PWMC_TurnOnLowSides
 778              	.LVL66:
 444:MCSDK_v6.3.2-Full/MotorControl/MCSDK/MCLib/Any/Src/revup_ctrl.c ****         }
 779              		.loc 1 444 11 view .LVU286
 444:MCSDK_v6.3.2-Full/MotorControl/MCSDK/MCLib/Any/Src/revup_ctrl.c ****         }
 780              		.loc 1 444 35 is_stmt 0 view .LVU287
 781 01e8 0023     		movs	r3, #0
 782 01ea 84F85330 		strb	r3, [r4, #83]
 783 01ee B0E7     		b	.L36
 784              	.L50:
 448:MCSDK_v6.3.2-Full/MotorControl/MCSDK/MCLib/Any/Src/revup_ctrl.c ****           pHandle->OTFSCLowside = false;
 785              		.loc 1 448 11 is_stmt 1 view .LVU288
 786 01f0 606F     		ldr	r0, [r4, #116]
 787 01f2 FFF7FEFF 		bl	PWMC_SwitchOnPWM
 788              	.LVL67:
 449:MCSDK_v6.3.2-Full/MotorControl/MCSDK/MCLib/Any/Src/revup_ctrl.c ****         }
 789              		.loc 1 449 11 view .LVU289
 449:MCSDK_v6.3.2-Full/MotorControl/MCSDK/MCLib/Any/Src/revup_ctrl.c ****         }
 790              		.loc 1 449 33 is_stmt 0 view .LVU290
 791 01f6 0023     		movs	r3, #0
 792 01f8 84F85430 		strb	r3, [r4, #84]
 793 01fc A9E7     		b	.L36
 794              	.L34:
 479:MCSDK_v6.3.2-Full/MotorControl/MCSDK/MCLib/Any/Src/revup_ctrl.c ****         {
 795              		.loc 1 479 9 is_stmt 1 view .LVU291
 479:MCSDK_v6.3.2-Full/MotorControl/MCSDK/MCLib/Any/Src/revup_ctrl.c ****         {
 796              		.loc 1 479 20 is_stmt 0 view .LVU292
 797 01fe 94F85820 		ldrb	r2, [r4, #88]	@ zero_extendqisi2
 479:MCSDK_v6.3.2-Full/MotorControl/MCSDK/MCLib/Any/Src/revup_ctrl.c ****         {
 798              		.loc 1 479 43 view .LVU293
 799 0202 94F84830 		ldrb	r3, [r4, #72]	@ zero_extendqisi2
 479:MCSDK_v6.3.2-Full/MotorControl/MCSDK/MCLib/Any/Src/revup_ctrl.c ****         {
 800              		.loc 1 479 55 view .LVU294
 801 0206 013B     		subs	r3, r3, #1
 479:MCSDK_v6.3.2-Full/MotorControl/MCSDK/MCLib/Any/Src/revup_ctrl.c ****         {
 802              		.loc 1 479 12 view .LVU295
 803 0208 9A42     		cmp	r2, r3
 804 020a 09D0     		beq	.L41
 483:MCSDK_v6.3.2-Full/MotorControl/MCSDK/MCLib/Any/Src/revup_ctrl.c ****         {
 805              		.loc 1 483 14 is_stmt 1 view .LVU296
 483:MCSDK_v6.3.2-Full/MotorControl/MCSDK/MCLib/Any/Src/revup_ctrl.c ****         {
 806              		.loc 1 483 17 is_stmt 0 view .LVU297
 807 020c 072A     		cmp	r2, #7
 808 020e 01D0     		beq	.L51
 227:MCSDK_v6.3.2-Full/MotorControl/MCSDK/MCLib/Any/Src/revup_ctrl.c **** #ifdef NULL_PTR_CHECK_REV_UP_CTL
 809              		.loc 1 227 8 view .LVU298
 810 0210 0120     		movs	r0, #1
 491:MCSDK_v6.3.2-Full/MotorControl/MCSDK/MCLib/Any/Src/revup_ctrl.c ****       }
ARM GAS  /tmp/ccCWj51Y.s 			page 28


 811              		.loc 1 491 9 is_stmt 1 view .LVU299
 497:MCSDK_v6.3.2-Full/MotorControl/MCSDK/MCLib/Any/Src/revup_ctrl.c **** }
 812              		.loc 1 497 3 view .LVU300
 497:MCSDK_v6.3.2-Full/MotorControl/MCSDK/MCLib/Any/Src/revup_ctrl.c **** }
 813              		.loc 1 497 10 is_stmt 0 view .LVU301
 814 0212 DEE7     		b	.L44
 815              	.L51:
 485:MCSDK_v6.3.2-Full/MotorControl/MCSDK/MCLib/Any/Src/revup_ctrl.c ****           pHandle->hPhaseRemainingTicks = 0U;
 816              		.loc 1 485 11 is_stmt 1 view .LVU302
 485:MCSDK_v6.3.2-Full/MotorControl/MCSDK/MCLib/Any/Src/revup_ctrl.c ****           pHandle->hPhaseRemainingTicks = 0U;
 817              		.loc 1 485 30 is_stmt 0 view .LVU303
 818 0214 0023     		movs	r3, #0
 819 0216 84F85830 		strb	r3, [r4, #88]
 486:MCSDK_v6.3.2-Full/MotorControl/MCSDK/MCLib/Any/Src/revup_ctrl.c ****         }
 820              		.loc 1 486 11 is_stmt 1 view .LVU304
 486:MCSDK_v6.3.2-Full/MotorControl/MCSDK/MCLib/Any/Src/revup_ctrl.c ****         }
 821              		.loc 1 486 41 is_stmt 0 view .LVU305
 822 021a A380     		strh	r3, [r4, #4]	@ movhi
 227:MCSDK_v6.3.2-Full/MotorControl/MCSDK/MCLib/Any/Src/revup_ctrl.c **** #ifdef NULL_PTR_CHECK_REV_UP_CTL
 823              		.loc 1 227 8 view .LVU306
 824 021c 0120     		movs	r0, #1
 825 021e D8E7     		b	.L44
 826              	.L41:
 481:MCSDK_v6.3.2-Full/MotorControl/MCSDK/MCLib/Any/Src/revup_ctrl.c ****         }
 827              		.loc 1 481 18 view .LVU307
 828 0220 0020     		movs	r0, #0
 829 0222 D6E7     		b	.L44
 830              	.L53:
 831              		.align	2
 832              	.L52:
 833 0224 D34D6210 		.word	274877907
 834              		.cfi_endproc
 835              	.LFE1459:
 837              		.section	.text.RUC_Exec,"ax",%progbits
 838              		.align	1
 839              		.weak	RUC_Exec
 840              		.syntax unified
 841              		.thumb
 842              		.thumb_func
 843              		.fpu fpv4-sp-d16
 845              	RUC_Exec:
 846              	.LVL68:
 847              	.LFB1460:
 499:MCSDK_v6.3.2-Full/MotorControl/MCSDK/MCLib/Any/Src/revup_ctrl.c **** 
 500:MCSDK_v6.3.2-Full/MotorControl/MCSDK/MCLib/Any/Src/revup_ctrl.c **** /**
 501:MCSDK_v6.3.2-Full/MotorControl/MCSDK/MCLib/Any/Src/revup_ctrl.c ****   * @brief  FOC Main Rev-Up controller procedure executing overall programmed phases.
 502:MCSDK_v6.3.2-Full/MotorControl/MCSDK/MCLib/Any/Src/revup_ctrl.c ****   * @param  pHandle: Pointer on Handle structure of RevUp controller.
 503:MCSDK_v6.3.2-Full/MotorControl/MCSDK/MCLib/Any/Src/revup_ctrl.c ****   *  @retval Boolean set to false when entire Rev-Up phases have been completed.
 504:MCSDK_v6.3.2-Full/MotorControl/MCSDK/MCLib/Any/Src/revup_ctrl.c ****   */
 505:MCSDK_v6.3.2-Full/MotorControl/MCSDK/MCLib/Any/Src/revup_ctrl.c **** __weak bool RUC_Exec(RevUpCtrl_Handle_t *pHandle)
 506:MCSDK_v6.3.2-Full/MotorControl/MCSDK/MCLib/Any/Src/revup_ctrl.c **** {
 848              		.loc 1 506 1 is_stmt 1 view -0
 849              		.cfi_startproc
 850              		@ args = 0, pretend = 0, frame = 0
 851              		@ frame_needed = 0, uses_anonymous_args = 0
 852              		.loc 1 506 1 is_stmt 0 view .LVU309
 853 0000 10B5     		push	{r4, lr}
ARM GAS  /tmp/ccCWj51Y.s 			page 29


 854              	.LCFI4:
 855              		.cfi_def_cfa_offset 8
 856              		.cfi_offset 4, -8
 857              		.cfi_offset 14, -4
 858 0002 0446     		mov	r4, r0
 507:MCSDK_v6.3.2-Full/MotorControl/MCSDK/MCLib/Any/Src/revup_ctrl.c ****   bool retVal = true;
 859              		.loc 1 507 3 is_stmt 1 view .LVU310
 860              	.LVL69:
 508:MCSDK_v6.3.2-Full/MotorControl/MCSDK/MCLib/Any/Src/revup_ctrl.c **** #ifdef NULL_PTR_CHECK_REV_UP_CTL
 509:MCSDK_v6.3.2-Full/MotorControl/MCSDK/MCLib/Any/Src/revup_ctrl.c ****   if (MC_NULL == pHandle)
 510:MCSDK_v6.3.2-Full/MotorControl/MCSDK/MCLib/Any/Src/revup_ctrl.c ****   {
 511:MCSDK_v6.3.2-Full/MotorControl/MCSDK/MCLib/Any/Src/revup_ctrl.c ****     retVal = false;
 512:MCSDK_v6.3.2-Full/MotorControl/MCSDK/MCLib/Any/Src/revup_ctrl.c ****   }
 513:MCSDK_v6.3.2-Full/MotorControl/MCSDK/MCLib/Any/Src/revup_ctrl.c ****   else
 514:MCSDK_v6.3.2-Full/MotorControl/MCSDK/MCLib/Any/Src/revup_ctrl.c ****   {
 515:MCSDK_v6.3.2-Full/MotorControl/MCSDK/MCLib/Any/Src/revup_ctrl.c **** #endif
 516:MCSDK_v6.3.2-Full/MotorControl/MCSDK/MCLib/Any/Src/revup_ctrl.c ****     if (pHandle->hPhaseRemainingTicks > 0U)
 861              		.loc 1 516 5 view .LVU311
 862              		.loc 1 516 16 is_stmt 0 view .LVU312
 863 0004 8388     		ldrh	r3, [r0, #4]
 864              		.loc 1 516 8 view .LVU313
 865 0006 2BB1     		cbz	r3, .L55
 517:MCSDK_v6.3.2-Full/MotorControl/MCSDK/MCLib/Any/Src/revup_ctrl.c ****     {
 518:MCSDK_v6.3.2-Full/MotorControl/MCSDK/MCLib/Any/Src/revup_ctrl.c ****       /* Decrease the hPhaseRemainingTicks */
 519:MCSDK_v6.3.2-Full/MotorControl/MCSDK/MCLib/Any/Src/revup_ctrl.c ****       pHandle->hPhaseRemainingTicks--;
 866              		.loc 1 519 7 is_stmt 1 view .LVU314
 867              		.loc 1 519 36 is_stmt 0 view .LVU315
 868 0008 013B     		subs	r3, r3, #1
 869 000a 9BB2     		uxth	r3, r3
 870 000c 8380     		strh	r3, [r0, #4]	@ movhi
 520:MCSDK_v6.3.2-Full/MotorControl/MCSDK/MCLib/Any/Src/revup_ctrl.c **** 
 521:MCSDK_v6.3.2-Full/MotorControl/MCSDK/MCLib/Any/Src/revup_ctrl.c ****     } /* hPhaseRemainingTicks > 0 */
 522:MCSDK_v6.3.2-Full/MotorControl/MCSDK/MCLib/Any/Src/revup_ctrl.c ****     else
 523:MCSDK_v6.3.2-Full/MotorControl/MCSDK/MCLib/Any/Src/revup_ctrl.c ****     {
 524:MCSDK_v6.3.2-Full/MotorControl/MCSDK/MCLib/Any/Src/revup_ctrl.c ****       /* Nothing to do */
 525:MCSDK_v6.3.2-Full/MotorControl/MCSDK/MCLib/Any/Src/revup_ctrl.c ****     }
 871              		.loc 1 525 5 is_stmt 1 view .LVU316
 526:MCSDK_v6.3.2-Full/MotorControl/MCSDK/MCLib/Any/Src/revup_ctrl.c **** 
 527:MCSDK_v6.3.2-Full/MotorControl/MCSDK/MCLib/Any/Src/revup_ctrl.c ****     if (0U == pHandle->hPhaseRemainingTicks)
 872              		.loc 1 527 5 view .LVU317
 507:MCSDK_v6.3.2-Full/MotorControl/MCSDK/MCLib/Any/Src/revup_ctrl.c **** #ifdef NULL_PTR_CHECK_REV_UP_CTL
 873              		.loc 1 507 8 is_stmt 0 view .LVU318
 874 000e 0120     		movs	r0, #1
 875              	.LVL70:
 876              		.loc 1 527 8 view .LVU319
 877 0010 03B1     		cbz	r3, .L55
 878              	.L56:
 879              	.LVL71:
 528:MCSDK_v6.3.2-Full/MotorControl/MCSDK/MCLib/Any/Src/revup_ctrl.c ****     {
 529:MCSDK_v6.3.2-Full/MotorControl/MCSDK/MCLib/Any/Src/revup_ctrl.c ****       if (pHandle->pCurrentPhaseParams != MC_NULL)
 530:MCSDK_v6.3.2-Full/MotorControl/MCSDK/MCLib/Any/Src/revup_ctrl.c ****       {
 531:MCSDK_v6.3.2-Full/MotorControl/MCSDK/MCLib/Any/Src/revup_ctrl.c ****         /* If it becomes zero the current phase has been completed */
 532:MCSDK_v6.3.2-Full/MotorControl/MCSDK/MCLib/Any/Src/revup_ctrl.c ****         /* Gives the next command to STC and VSS */
 533:MCSDK_v6.3.2-Full/MotorControl/MCSDK/MCLib/Any/Src/revup_ctrl.c ****         (void)STC_ExecRamp(pHandle->pSTC, pHandle->pCurrentPhaseParams->hFinalTorque * pHandle->hDi
 534:MCSDK_v6.3.2-Full/MotorControl/MCSDK/MCLib/Any/Src/revup_ctrl.c ****                            (uint32_t)(pHandle->pCurrentPhaseParams->hDurationms));
 535:MCSDK_v6.3.2-Full/MotorControl/MCSDK/MCLib/Any/Src/revup_ctrl.c **** 
 536:MCSDK_v6.3.2-Full/MotorControl/MCSDK/MCLib/Any/Src/revup_ctrl.c ****         VSS_SetMecAcceleration(pHandle->pVSS,
ARM GAS  /tmp/ccCWj51Y.s 			page 30


 537:MCSDK_v6.3.2-Full/MotorControl/MCSDK/MCLib/Any/Src/revup_ctrl.c ****                                pHandle->pCurrentPhaseParams->hFinalMecSpeedUnit * pHandle->hDirecti
 538:MCSDK_v6.3.2-Full/MotorControl/MCSDK/MCLib/Any/Src/revup_ctrl.c ****                                pHandle->pCurrentPhaseParams->hDurationms);
 539:MCSDK_v6.3.2-Full/MotorControl/MCSDK/MCLib/Any/Src/revup_ctrl.c **** 
 540:MCSDK_v6.3.2-Full/MotorControl/MCSDK/MCLib/Any/Src/revup_ctrl.c ****         /* Compute hPhaseRemainingTicks */
 541:MCSDK_v6.3.2-Full/MotorControl/MCSDK/MCLib/Any/Src/revup_ctrl.c ****         pHandle->hPhaseRemainingTicks = (uint16_t)((((uint32_t)pHandle->pCurrentPhaseParams->hDurat
 542:MCSDK_v6.3.2-Full/MotorControl/MCSDK/MCLib/Any/Src/revup_ctrl.c ****                                                   * ((uint32_t)pHandle->hRUCFrequencyHz)) / 1000U )
 543:MCSDK_v6.3.2-Full/MotorControl/MCSDK/MCLib/Any/Src/revup_ctrl.c ****         pHandle->hPhaseRemainingTicks++;
 544:MCSDK_v6.3.2-Full/MotorControl/MCSDK/MCLib/Any/Src/revup_ctrl.c **** 
 545:MCSDK_v6.3.2-Full/MotorControl/MCSDK/MCLib/Any/Src/revup_ctrl.c ****         /* Set the next phases parameter pointer */
 546:MCSDK_v6.3.2-Full/MotorControl/MCSDK/MCLib/Any/Src/revup_ctrl.c ****         pHandle->pCurrentPhaseParams = pHandle->pCurrentPhaseParams->pNext; //cstat !MISRAC2012-Rul
 547:MCSDK_v6.3.2-Full/MotorControl/MCSDK/MCLib/Any/Src/revup_ctrl.c **** 
 548:MCSDK_v6.3.2-Full/MotorControl/MCSDK/MCLib/Any/Src/revup_ctrl.c ****         /* Increases the rev up stages counter */
 549:MCSDK_v6.3.2-Full/MotorControl/MCSDK/MCLib/Any/Src/revup_ctrl.c ****         pHandle->bStageCnt++;
 550:MCSDK_v6.3.2-Full/MotorControl/MCSDK/MCLib/Any/Src/revup_ctrl.c ****       }
 551:MCSDK_v6.3.2-Full/MotorControl/MCSDK/MCLib/Any/Src/revup_ctrl.c ****       else
 552:MCSDK_v6.3.2-Full/MotorControl/MCSDK/MCLib/Any/Src/revup_ctrl.c ****       {
 553:MCSDK_v6.3.2-Full/MotorControl/MCSDK/MCLib/Any/Src/revup_ctrl.c ****         retVal = false;
 554:MCSDK_v6.3.2-Full/MotorControl/MCSDK/MCLib/Any/Src/revup_ctrl.c ****       }
 555:MCSDK_v6.3.2-Full/MotorControl/MCSDK/MCLib/Any/Src/revup_ctrl.c ****     }
 556:MCSDK_v6.3.2-Full/MotorControl/MCSDK/MCLib/Any/Src/revup_ctrl.c ****     else
 557:MCSDK_v6.3.2-Full/MotorControl/MCSDK/MCLib/Any/Src/revup_ctrl.c ****     {
 558:MCSDK_v6.3.2-Full/MotorControl/MCSDK/MCLib/Any/Src/revup_ctrl.c ****       /* Nothing to do */
 559:MCSDK_v6.3.2-Full/MotorControl/MCSDK/MCLib/Any/Src/revup_ctrl.c ****     }
 880              		.loc 1 559 5 is_stmt 1 view .LVU320
 560:MCSDK_v6.3.2-Full/MotorControl/MCSDK/MCLib/Any/Src/revup_ctrl.c **** #ifdef NULL_PTR_CHECK_REV_UP_CTL
 561:MCSDK_v6.3.2-Full/MotorControl/MCSDK/MCLib/Any/Src/revup_ctrl.c ****   }
 562:MCSDK_v6.3.2-Full/MotorControl/MCSDK/MCLib/Any/Src/revup_ctrl.c **** #endif
 563:MCSDK_v6.3.2-Full/MotorControl/MCSDK/MCLib/Any/Src/revup_ctrl.c ****   return (retVal);
 881              		.loc 1 563 3 view .LVU321
 564:MCSDK_v6.3.2-Full/MotorControl/MCSDK/MCLib/Any/Src/revup_ctrl.c **** }
 882              		.loc 1 564 1 is_stmt 0 view .LVU322
 883 0012 10BD     		pop	{r4, pc}
 884              	.LVL72:
 885              	.L55:
 529:MCSDK_v6.3.2-Full/MotorControl/MCSDK/MCLib/Any/Src/revup_ctrl.c ****       {
 886              		.loc 1 529 7 is_stmt 1 view .LVU323
 529:MCSDK_v6.3.2-Full/MotorControl/MCSDK/MCLib/Any/Src/revup_ctrl.c ****       {
 887              		.loc 1 529 18 is_stmt 0 view .LVU324
 888 0014 A368     		ldr	r3, [r4, #8]
 529:MCSDK_v6.3.2-Full/MotorControl/MCSDK/MCLib/Any/Src/revup_ctrl.c ****       {
 889              		.loc 1 529 10 view .LVU325
 890 0016 33B3     		cbz	r3, .L58
 533:MCSDK_v6.3.2-Full/MotorControl/MCSDK/MCLib/Any/Src/revup_ctrl.c ****                            (uint32_t)(pHandle->pCurrentPhaseParams->hDurationms));
 891              		.loc 1 533 9 is_stmt 1 view .LVU326
 533:MCSDK_v6.3.2-Full/MotorControl/MCSDK/MCLib/Any/Src/revup_ctrl.c ****                            (uint32_t)(pHandle->pCurrentPhaseParams->hDurationms));
 892              		.loc 1 533 86 is_stmt 0 view .LVU327
 893 0018 9988     		ldrh	r1, [r3, #4]
 894 001a E288     		ldrh	r2, [r4, #6]
 895 001c 11FB02F1 		smulbb	r1, r1, r2
 533:MCSDK_v6.3.2-Full/MotorControl/MCSDK/MCLib/Any/Src/revup_ctrl.c ****                            (uint32_t)(pHandle->pCurrentPhaseParams->hDurationms));
 896              		.loc 1 533 15 view .LVU328
 897 0020 1A88     		ldrh	r2, [r3]
 898 0022 09B2     		sxth	r1, r1
 899 0024 A06E     		ldr	r0, [r4, #104]
 900 0026 FFF7FEFF 		bl	STC_ExecRamp
 901              	.LVL73:
 536:MCSDK_v6.3.2-Full/MotorControl/MCSDK/MCLib/Any/Src/revup_ctrl.c ****                                pHandle->pCurrentPhaseParams->hFinalMecSpeedUnit * pHandle->hDirecti
ARM GAS  /tmp/ccCWj51Y.s 			page 31


 902              		.loc 1 536 9 is_stmt 1 view .LVU329
 537:MCSDK_v6.3.2-Full/MotorControl/MCSDK/MCLib/Any/Src/revup_ctrl.c ****                                pHandle->pCurrentPhaseParams->hDurationms);
 903              		.loc 1 537 39 is_stmt 0 view .LVU330
 904 002a A368     		ldr	r3, [r4, #8]
 537:MCSDK_v6.3.2-Full/MotorControl/MCSDK/MCLib/Any/Src/revup_ctrl.c ****                                pHandle->pCurrentPhaseParams->hDurationms);
 905              		.loc 1 537 81 view .LVU331
 906 002c 5988     		ldrh	r1, [r3, #2]
 907 002e E288     		ldrh	r2, [r4, #6]
 908 0030 11FB02F1 		smulbb	r1, r1, r2
 536:MCSDK_v6.3.2-Full/MotorControl/MCSDK/MCLib/Any/Src/revup_ctrl.c ****                                pHandle->pCurrentPhaseParams->hFinalMecSpeedUnit * pHandle->hDirecti
 909              		.loc 1 536 9 view .LVU332
 910 0034 1A88     		ldrh	r2, [r3]
 911 0036 09B2     		sxth	r1, r1
 912 0038 E06E     		ldr	r0, [r4, #108]
 913 003a FFF7FEFF 		bl	VSS_SetMecAcceleration
 914              	.LVL74:
 541:MCSDK_v6.3.2-Full/MotorControl/MCSDK/MCLib/Any/Src/revup_ctrl.c ****                                                   * ((uint32_t)pHandle->hRUCFrequencyHz)) / 1000U )
 915              		.loc 1 541 9 is_stmt 1 view .LVU333
 541:MCSDK_v6.3.2-Full/MotorControl/MCSDK/MCLib/Any/Src/revup_ctrl.c ****                                                   * ((uint32_t)pHandle->hRUCFrequencyHz)) / 1000U )
 916              		.loc 1 541 71 is_stmt 0 view .LVU334
 917 003e A268     		ldr	r2, [r4, #8]
 543:MCSDK_v6.3.2-Full/MotorControl/MCSDK/MCLib/Any/Src/revup_ctrl.c **** 
 918              		.loc 1 543 9 is_stmt 1 view .LVU335
 541:MCSDK_v6.3.2-Full/MotorControl/MCSDK/MCLib/Any/Src/revup_ctrl.c ****                                                   * ((uint32_t)pHandle->hRUCFrequencyHz)) / 1000U )
 919              		.loc 1 541 54 is_stmt 0 view .LVU336
 920 0040 1388     		ldrh	r3, [r2]
 542:MCSDK_v6.3.2-Full/MotorControl/MCSDK/MCLib/Any/Src/revup_ctrl.c ****         pHandle->hPhaseRemainingTicks++;
 921              		.loc 1 542 54 view .LVU337
 922 0042 2188     		ldrh	r1, [r4]
 542:MCSDK_v6.3.2-Full/MotorControl/MCSDK/MCLib/Any/Src/revup_ctrl.c ****         pHandle->hPhaseRemainingTicks++;
 923              		.loc 1 542 51 view .LVU338
 924 0044 01FB03F3 		mul	r3, r1, r3
 542:MCSDK_v6.3.2-Full/MotorControl/MCSDK/MCLib/Any/Src/revup_ctrl.c ****         pHandle->hPhaseRemainingTicks++;
 925              		.loc 1 542 91 view .LVU339
 926 0048 0849     		ldr	r1, .L60
 927 004a A1FB0313 		umull	r1, r3, r1, r3
 928 004e 9B09     		lsrs	r3, r3, #6
 543:MCSDK_v6.3.2-Full/MotorControl/MCSDK/MCLib/Any/Src/revup_ctrl.c **** 
 929              		.loc 1 543 38 view .LVU340
 930 0050 0133     		adds	r3, r3, #1
 931 0052 A380     		strh	r3, [r4, #4]	@ movhi
 546:MCSDK_v6.3.2-Full/MotorControl/MCSDK/MCLib/Any/Src/revup_ctrl.c **** 
 932              		.loc 1 546 9 is_stmt 1 view .LVU341
 546:MCSDK_v6.3.2-Full/MotorControl/MCSDK/MCLib/Any/Src/revup_ctrl.c **** 
 933              		.loc 1 546 68 is_stmt 0 view .LVU342
 934 0054 9368     		ldr	r3, [r2, #8]
 546:MCSDK_v6.3.2-Full/MotorControl/MCSDK/MCLib/Any/Src/revup_ctrl.c **** 
 935              		.loc 1 546 38 view .LVU343
 936 0056 A360     		str	r3, [r4, #8]
 549:MCSDK_v6.3.2-Full/MotorControl/MCSDK/MCLib/Any/Src/revup_ctrl.c ****       }
 937              		.loc 1 549 9 is_stmt 1 view .LVU344
 549:MCSDK_v6.3.2-Full/MotorControl/MCSDK/MCLib/Any/Src/revup_ctrl.c ****       }
 938              		.loc 1 549 27 is_stmt 0 view .LVU345
 939 0058 94F85830 		ldrb	r3, [r4, #88]	@ zero_extendqisi2
 940 005c 0133     		adds	r3, r3, #1
 941 005e 84F85830 		strb	r3, [r4, #88]
 507:MCSDK_v6.3.2-Full/MotorControl/MCSDK/MCLib/Any/Src/revup_ctrl.c **** #ifdef NULL_PTR_CHECK_REV_UP_CTL
ARM GAS  /tmp/ccCWj51Y.s 			page 32


 942              		.loc 1 507 8 view .LVU346
 943 0062 0120     		movs	r0, #1
 944 0064 D5E7     		b	.L56
 945              	.L58:
 553:MCSDK_v6.3.2-Full/MotorControl/MCSDK/MCLib/Any/Src/revup_ctrl.c ****       }
 946              		.loc 1 553 16 view .LVU347
 947 0066 0020     		movs	r0, #0
 948 0068 D3E7     		b	.L56
 949              	.L61:
 950 006a 00BF     		.align	2
 951              	.L60:
 952 006c D34D6210 		.word	274877907
 953              		.cfi_endproc
 954              	.LFE1460:
 956              		.section	.text.RUC_IsAlignStageNow,"ax",%progbits
 957              		.align	1
 958              		.global	RUC_IsAlignStageNow
 959              		.syntax unified
 960              		.thumb
 961              		.thumb_func
 962              		.fpu fpv4-sp-d16
 964              	RUC_IsAlignStageNow:
 965              	.LVL75:
 966              	.LFB1461:
 565:MCSDK_v6.3.2-Full/MotorControl/MCSDK/MCLib/Any/Src/revup_ctrl.c **** 
 566:MCSDK_v6.3.2-Full/MotorControl/MCSDK/MCLib/Any/Src/revup_ctrl.c **** /**
 567:MCSDK_v6.3.2-Full/MotorControl/MCSDK/MCLib/Any/Src/revup_ctrl.c ****   * @brief  It checks if this stage is used for align motor.
 568:MCSDK_v6.3.2-Full/MotorControl/MCSDK/MCLib/Any/Src/revup_ctrl.c ****   * @param  pHandle: Pointer on Handle structure of RevUp controller.
 569:MCSDK_v6.3.2-Full/MotorControl/MCSDK/MCLib/Any/Src/revup_ctrl.c ****   * @retval Returns 1 if the alignment is correct otherwise it returns 0
 570:MCSDK_v6.3.2-Full/MotorControl/MCSDK/MCLib/Any/Src/revup_ctrl.c ****   */
 571:MCSDK_v6.3.2-Full/MotorControl/MCSDK/MCLib/Any/Src/revup_ctrl.c **** //cstat !MISRAC2012-Rule-8.13
 572:MCSDK_v6.3.2-Full/MotorControl/MCSDK/MCLib/Any/Src/revup_ctrl.c **** uint8_t RUC_IsAlignStageNow(RevUpCtrl_Handle_t *pHandle)
 573:MCSDK_v6.3.2-Full/MotorControl/MCSDK/MCLib/Any/Src/revup_ctrl.c **** {
 967              		.loc 1 573 1 is_stmt 1 view -0
 968              		.cfi_startproc
 969              		@ args = 0, pretend = 0, frame = 0
 970              		@ frame_needed = 0, uses_anonymous_args = 0
 971              		@ link register save eliminated.
 574:MCSDK_v6.3.2-Full/MotorControl/MCSDK/MCLib/Any/Src/revup_ctrl.c ****   uint8_t align_flag = 0;
 972              		.loc 1 574 3 view .LVU349
 575:MCSDK_v6.3.2-Full/MotorControl/MCSDK/MCLib/Any/Src/revup_ctrl.c **** #ifdef NULL_PTR_CHECK_REV_UP_CTL
 576:MCSDK_v6.3.2-Full/MotorControl/MCSDK/MCLib/Any/Src/revup_ctrl.c ****   if (MC_NULL == pHandle)
 577:MCSDK_v6.3.2-Full/MotorControl/MCSDK/MCLib/Any/Src/revup_ctrl.c ****   {
 578:MCSDK_v6.3.2-Full/MotorControl/MCSDK/MCLib/Any/Src/revup_ctrl.c ****     /* Nothing to do */
 579:MCSDK_v6.3.2-Full/MotorControl/MCSDK/MCLib/Any/Src/revup_ctrl.c ****   }
 580:MCSDK_v6.3.2-Full/MotorControl/MCSDK/MCLib/Any/Src/revup_ctrl.c ****   else
 581:MCSDK_v6.3.2-Full/MotorControl/MCSDK/MCLib/Any/Src/revup_ctrl.c ****   {
 582:MCSDK_v6.3.2-Full/MotorControl/MCSDK/MCLib/Any/Src/revup_ctrl.c **** #endif
 583:MCSDK_v6.3.2-Full/MotorControl/MCSDK/MCLib/Any/Src/revup_ctrl.c ****     int16_t speed;
 973              		.loc 1 583 5 view .LVU350
 584:MCSDK_v6.3.2-Full/MotorControl/MCSDK/MCLib/Any/Src/revup_ctrl.c ****     speed = RUC_GetPhaseFinalMecSpeed01Hz(pHandle, pHandle->bStageCnt);
 974              		.loc 1 584 5 view .LVU351
 975              	.LBB24:
 976              	.LBI24:
  95:MCSDK_v6.3.2-Full/MotorControl/MCSDK/MCLib/Any/Src/revup_ctrl.c **** {
 977              		.loc 1 95 23 view .LVU352
 978              	.LBB25:
ARM GAS  /tmp/ccCWj51Y.s 			page 33


  97:MCSDK_v6.3.2-Full/MotorControl/MCSDK/MCLib/Any/Src/revup_ctrl.c **** }
 979              		.loc 1 97 3 view .LVU353
  97:MCSDK_v6.3.2-Full/MotorControl/MCSDK/MCLib/Any/Src/revup_ctrl.c **** }
 980              		.loc 1 97 3 is_stmt 0 view .LVU354
 981              	.LBE25:
 982              	.LBE24:
 585:MCSDK_v6.3.2-Full/MotorControl/MCSDK/MCLib/Any/Src/revup_ctrl.c ****     if (0 == speed)
 983              		.loc 1 585 5 is_stmt 1 view .LVU355
 586:MCSDK_v6.3.2-Full/MotorControl/MCSDK/MCLib/Any/Src/revup_ctrl.c ****     {
 587:MCSDK_v6.3.2-Full/MotorControl/MCSDK/MCLib/Any/Src/revup_ctrl.c ****       align_flag = 1;
 588:MCSDK_v6.3.2-Full/MotorControl/MCSDK/MCLib/Any/Src/revup_ctrl.c ****     }
 589:MCSDK_v6.3.2-Full/MotorControl/MCSDK/MCLib/Any/Src/revup_ctrl.c ****     else
 590:MCSDK_v6.3.2-Full/MotorControl/MCSDK/MCLib/Any/Src/revup_ctrl.c ****     {
 591:MCSDK_v6.3.2-Full/MotorControl/MCSDK/MCLib/Any/Src/revup_ctrl.c ****       /* Nothing to do */
 592:MCSDK_v6.3.2-Full/MotorControl/MCSDK/MCLib/Any/Src/revup_ctrl.c ****     }
 984              		.loc 1 592 5 view .LVU356
 593:MCSDK_v6.3.2-Full/MotorControl/MCSDK/MCLib/Any/Src/revup_ctrl.c **** #ifdef NULL_PTR_CHECK_REV_UP_CTL
 594:MCSDK_v6.3.2-Full/MotorControl/MCSDK/MCLib/Any/Src/revup_ctrl.c ****   }
 595:MCSDK_v6.3.2-Full/MotorControl/MCSDK/MCLib/Any/Src/revup_ctrl.c **** #endif
 596:MCSDK_v6.3.2-Full/MotorControl/MCSDK/MCLib/Any/Src/revup_ctrl.c ****   return (align_flag);
 985              		.loc 1 596 3 view .LVU357
 986              	.LBB27:
 987              	.LBB26:
  97:MCSDK_v6.3.2-Full/MotorControl/MCSDK/MCLib/Any/Src/revup_ctrl.c **** }
 988              		.loc 1 97 38 is_stmt 0 view .LVU358
 989 0000 90F85830 		ldrb	r3, [r0, #88]	@ zero_extendqisi2
 990              	.LVL76:
  97:MCSDK_v6.3.2-Full/MotorControl/MCSDK/MCLib/Any/Src/revup_ctrl.c **** }
 991              		.loc 1 97 38 view .LVU359
 992 0004 03EB4303 		add	r3, r3, r3, lsl #1
 993              	.LVL77:
  97:MCSDK_v6.3.2-Full/MotorControl/MCSDK/MCLib/Any/Src/revup_ctrl.c **** }
 994              		.loc 1 97 38 view .LVU360
 995 0008 00EB8300 		add	r0, r0, r3, lsl #2
 996              	.LVL78:
  97:MCSDK_v6.3.2-Full/MotorControl/MCSDK/MCLib/Any/Src/revup_ctrl.c **** }
 997              		.loc 1 97 38 view .LVU361
 998              	.LBE26:
 999              	.LBE27:
 585:MCSDK_v6.3.2-Full/MotorControl/MCSDK/MCLib/Any/Src/revup_ctrl.c ****     {
 1000              		.loc 1 585 8 view .LVU362
 1001 000c B0F90E00 		ldrsh	r0, [r0, #14]
 597:MCSDK_v6.3.2-Full/MotorControl/MCSDK/MCLib/Any/Src/revup_ctrl.c **** }
 1002              		.loc 1 597 1 view .LVU363
 1003 0010 B0FA80F0 		clz	r0, r0
 1004 0014 4009     		lsrs	r0, r0, #5
 1005 0016 7047     		bx	lr
 1006              		.cfi_endproc
 1007              	.LFE1461:
 1009              		.section	.text.RUC_FirstAccelerationStageReached,"ax",%progbits
 1010              		.align	1
 1011              		.weak	RUC_FirstAccelerationStageReached
 1012              		.syntax unified
 1013              		.thumb
 1014              		.thumb_func
 1015              		.fpu fpv4-sp-d16
 1017              	RUC_FirstAccelerationStageReached:
ARM GAS  /tmp/ccCWj51Y.s 			page 34


 1018              	.LVL79:
 1019              	.LFB1462:
 598:MCSDK_v6.3.2-Full/MotorControl/MCSDK/MCLib/Any/Src/revup_ctrl.c **** 
 599:MCSDK_v6.3.2-Full/MotorControl/MCSDK/MCLib/Any/Src/revup_ctrl.c **** #if defined (CCMRAM)
 600:MCSDK_v6.3.2-Full/MotorControl/MCSDK/MCLib/Any/Src/revup_ctrl.c **** #if defined (__ICCARM__)
 601:MCSDK_v6.3.2-Full/MotorControl/MCSDK/MCLib/Any/Src/revup_ctrl.c **** #pragma location = ".ccmram"
 602:MCSDK_v6.3.2-Full/MotorControl/MCSDK/MCLib/Any/Src/revup_ctrl.c **** #elif defined (__CC_ARM) || defined(__GNUC__)
 603:MCSDK_v6.3.2-Full/MotorControl/MCSDK/MCLib/Any/Src/revup_ctrl.c **** __attribute__((section(".ccmram")))
 604:MCSDK_v6.3.2-Full/MotorControl/MCSDK/MCLib/Any/Src/revup_ctrl.c **** #endif
 605:MCSDK_v6.3.2-Full/MotorControl/MCSDK/MCLib/Any/Src/revup_ctrl.c **** #endif
 606:MCSDK_v6.3.2-Full/MotorControl/MCSDK/MCLib/Any/Src/revup_ctrl.c **** 
 607:MCSDK_v6.3.2-Full/MotorControl/MCSDK/MCLib/Any/Src/revup_ctrl.c **** /**
 608:MCSDK_v6.3.2-Full/MotorControl/MCSDK/MCLib/Any/Src/revup_ctrl.c ****   * @brief  Check that alignment and first acceleration stage are completed.
 609:MCSDK_v6.3.2-Full/MotorControl/MCSDK/MCLib/Any/Src/revup_ctrl.c ****   * @param  pHandle: Pointer on Handle structure of RevUp controller.
 610:MCSDK_v6.3.2-Full/MotorControl/MCSDK/MCLib/Any/Src/revup_ctrl.c ****   *  @retval Boolean set to true when first acceleration stage has been reached.
 611:MCSDK_v6.3.2-Full/MotorControl/MCSDK/MCLib/Any/Src/revup_ctrl.c ****   */
 612:MCSDK_v6.3.2-Full/MotorControl/MCSDK/MCLib/Any/Src/revup_ctrl.c **** __weak bool RUC_FirstAccelerationStageReached(RevUpCtrl_Handle_t *pHandle)
 613:MCSDK_v6.3.2-Full/MotorControl/MCSDK/MCLib/Any/Src/revup_ctrl.c **** {
 1020              		.loc 1 613 1 is_stmt 1 view -0
 1021              		.cfi_startproc
 1022              		@ args = 0, pretend = 0, frame = 0
 1023              		@ frame_needed = 0, uses_anonymous_args = 0
 1024              		@ link register save eliminated.
 614:MCSDK_v6.3.2-Full/MotorControl/MCSDK/MCLib/Any/Src/revup_ctrl.c ****   bool retVal = false;
 1025              		.loc 1 614 3 view .LVU365
 615:MCSDK_v6.3.2-Full/MotorControl/MCSDK/MCLib/Any/Src/revup_ctrl.c **** #ifdef NULL_PTR_CHECK_REV_UP_CTL
 616:MCSDK_v6.3.2-Full/MotorControl/MCSDK/MCLib/Any/Src/revup_ctrl.c ****   if (MC_NULL == pHandle)
 617:MCSDK_v6.3.2-Full/MotorControl/MCSDK/MCLib/Any/Src/revup_ctrl.c ****   {
 618:MCSDK_v6.3.2-Full/MotorControl/MCSDK/MCLib/Any/Src/revup_ctrl.c ****     /* Nothing to do */
 619:MCSDK_v6.3.2-Full/MotorControl/MCSDK/MCLib/Any/Src/revup_ctrl.c ****   }
 620:MCSDK_v6.3.2-Full/MotorControl/MCSDK/MCLib/Any/Src/revup_ctrl.c ****   else
 621:MCSDK_v6.3.2-Full/MotorControl/MCSDK/MCLib/Any/Src/revup_ctrl.c ****   {
 622:MCSDK_v6.3.2-Full/MotorControl/MCSDK/MCLib/Any/Src/revup_ctrl.c **** #endif
 623:MCSDK_v6.3.2-Full/MotorControl/MCSDK/MCLib/Any/Src/revup_ctrl.c ****     if (pHandle->bStageCnt >= pHandle->bFirstAccelerationStage)
 1026              		.loc 1 623 5 view .LVU366
 624:MCSDK_v6.3.2-Full/MotorControl/MCSDK/MCLib/Any/Src/revup_ctrl.c ****     {
 625:MCSDK_v6.3.2-Full/MotorControl/MCSDK/MCLib/Any/Src/revup_ctrl.c ****       retVal = true;
 626:MCSDK_v6.3.2-Full/MotorControl/MCSDK/MCLib/Any/Src/revup_ctrl.c ****     }
 627:MCSDK_v6.3.2-Full/MotorControl/MCSDK/MCLib/Any/Src/revup_ctrl.c ****     else
 628:MCSDK_v6.3.2-Full/MotorControl/MCSDK/MCLib/Any/Src/revup_ctrl.c ****     {
 629:MCSDK_v6.3.2-Full/MotorControl/MCSDK/MCLib/Any/Src/revup_ctrl.c ****       /* Nothing to do */
 630:MCSDK_v6.3.2-Full/MotorControl/MCSDK/MCLib/Any/Src/revup_ctrl.c ****     }
 1027              		.loc 1 630 5 view .LVU367
 631:MCSDK_v6.3.2-Full/MotorControl/MCSDK/MCLib/Any/Src/revup_ctrl.c **** #ifdef NULL_PTR_CHECK_REV_UP_CTL
 632:MCSDK_v6.3.2-Full/MotorControl/MCSDK/MCLib/Any/Src/revup_ctrl.c ****   }
 633:MCSDK_v6.3.2-Full/MotorControl/MCSDK/MCLib/Any/Src/revup_ctrl.c **** #endif
 634:MCSDK_v6.3.2-Full/MotorControl/MCSDK/MCLib/Any/Src/revup_ctrl.c ****   return (retVal);
 1028              		.loc 1 634 3 view .LVU368
 623:MCSDK_v6.3.2-Full/MotorControl/MCSDK/MCLib/Any/Src/revup_ctrl.c ****     {
 1029              		.loc 1 623 8 is_stmt 0 view .LVU369
 1030 0000 90F85820 		ldrb	r2, [r0, #88]	@ zero_extendqisi2
 1031 0004 90F84900 		ldrb	r0, [r0, #73]	@ zero_extendqisi2
 1032              	.LVL80:
 635:MCSDK_v6.3.2-Full/MotorControl/MCSDK/MCLib/Any/Src/revup_ctrl.c **** }
 1033              		.loc 1 635 1 view .LVU370
 1034 0008 8242     		cmp	r2, r0
 1035 000a 34BF     		ite	cc
ARM GAS  /tmp/ccCWj51Y.s 			page 35


 1036 000c 0020     		movcc	r0, #0
 1037              	.LVL81:
 1038              		.loc 1 635 1 view .LVU371
 1039 000e 0120     		movcs	r0, #1
 1040 0010 7047     		bx	lr
 1041              		.cfi_endproc
 1042              	.LFE1462:
 1044              		.section	.text.RUC_SetPhaseDurationms,"ax",%progbits
 1045              		.align	1
 1046              		.weak	RUC_SetPhaseDurationms
 1047              		.syntax unified
 1048              		.thumb
 1049              		.thumb_func
 1050              		.fpu fpv4-sp-d16
 1052              	RUC_SetPhaseDurationms:
 1053              	.LVL82:
 1054              	.LFB1463:
 636:MCSDK_v6.3.2-Full/MotorControl/MCSDK/MCLib/Any/Src/revup_ctrl.c **** 
 637:MCSDK_v6.3.2-Full/MotorControl/MCSDK/MCLib/Any/Src/revup_ctrl.c **** /**
 638:MCSDK_v6.3.2-Full/MotorControl/MCSDK/MCLib/Any/Src/revup_ctrl.c ****   * @brief  Allow to modify duration of a selected phase.
 639:MCSDK_v6.3.2-Full/MotorControl/MCSDK/MCLib/Any/Src/revup_ctrl.c ****   * @param  pHandle: Pointer on Handle structure of RevUp controller.
 640:MCSDK_v6.3.2-Full/MotorControl/MCSDK/MCLib/Any/Src/revup_ctrl.c ****   * @param  bPhase: RevUp phase where new duration shall be modified.
 641:MCSDK_v6.3.2-Full/MotorControl/MCSDK/MCLib/Any/Src/revup_ctrl.c ****   *         This parameter must be a number between 0 and 6.
 642:MCSDK_v6.3.2-Full/MotorControl/MCSDK/MCLib/Any/Src/revup_ctrl.c ****   * @param  hDurationms: new duration value required for associated phase.
 643:MCSDK_v6.3.2-Full/MotorControl/MCSDK/MCLib/Any/Src/revup_ctrl.c ****   *         This parameter must be set in millisecond.
 644:MCSDK_v6.3.2-Full/MotorControl/MCSDK/MCLib/Any/Src/revup_ctrl.c ****   */
 645:MCSDK_v6.3.2-Full/MotorControl/MCSDK/MCLib/Any/Src/revup_ctrl.c **** __weak void RUC_SetPhaseDurationms(RevUpCtrl_Handle_t *pHandle, uint8_t bPhase, uint16_t hDurationm
 646:MCSDK_v6.3.2-Full/MotorControl/MCSDK/MCLib/Any/Src/revup_ctrl.c **** {
 1055              		.loc 1 646 1 is_stmt 1 view -0
 1056              		.cfi_startproc
 1057              		@ args = 0, pretend = 0, frame = 0
 1058              		@ frame_needed = 0, uses_anonymous_args = 0
 1059              		@ link register save eliminated.
 647:MCSDK_v6.3.2-Full/MotorControl/MCSDK/MCLib/Any/Src/revup_ctrl.c **** #ifdef NULL_PTR_CHECK_REV_UP_CTL
 648:MCSDK_v6.3.2-Full/MotorControl/MCSDK/MCLib/Any/Src/revup_ctrl.c ****   if (MC_NULL == pHandle)
 649:MCSDK_v6.3.2-Full/MotorControl/MCSDK/MCLib/Any/Src/revup_ctrl.c ****   {
 650:MCSDK_v6.3.2-Full/MotorControl/MCSDK/MCLib/Any/Src/revup_ctrl.c ****     /* Nothing to do */
 651:MCSDK_v6.3.2-Full/MotorControl/MCSDK/MCLib/Any/Src/revup_ctrl.c ****   }
 652:MCSDK_v6.3.2-Full/MotorControl/MCSDK/MCLib/Any/Src/revup_ctrl.c ****   else
 653:MCSDK_v6.3.2-Full/MotorControl/MCSDK/MCLib/Any/Src/revup_ctrl.c ****   {
 654:MCSDK_v6.3.2-Full/MotorControl/MCSDK/MCLib/Any/Src/revup_ctrl.c **** #endif
 655:MCSDK_v6.3.2-Full/MotorControl/MCSDK/MCLib/Any/Src/revup_ctrl.c ****     pHandle->ParamsData[bPhase].hDurationms = hDurationms;
 1060              		.loc 1 655 5 view .LVU373
 1061              		.loc 1 655 45 is_stmt 0 view .LVU374
 1062 0000 01EB4101 		add	r1, r1, r1, lsl #1
 1063              	.LVL83:
 1064              		.loc 1 655 45 view .LVU375
 1065 0004 00EB8101 		add	r1, r0, r1, lsl #2
 1066 0008 8A81     		strh	r2, [r1, #12]	@ movhi
 656:MCSDK_v6.3.2-Full/MotorControl/MCSDK/MCLib/Any/Src/revup_ctrl.c **** #ifdef NULL_PTR_CHECK_REV_UP_CTL
 657:MCSDK_v6.3.2-Full/MotorControl/MCSDK/MCLib/Any/Src/revup_ctrl.c ****   }
 658:MCSDK_v6.3.2-Full/MotorControl/MCSDK/MCLib/Any/Src/revup_ctrl.c **** #endif
 659:MCSDK_v6.3.2-Full/MotorControl/MCSDK/MCLib/Any/Src/revup_ctrl.c **** }
 1067              		.loc 1 659 1 view .LVU376
 1068 000a 7047     		bx	lr
 1069              		.cfi_endproc
 1070              	.LFE1463:
ARM GAS  /tmp/ccCWj51Y.s 			page 36


 1072              		.section	.text.RUC_SetPhaseFinalMecSpeedUnit,"ax",%progbits
 1073              		.align	1
 1074              		.weak	RUC_SetPhaseFinalMecSpeedUnit
 1075              		.syntax unified
 1076              		.thumb
 1077              		.thumb_func
 1078              		.fpu fpv4-sp-d16
 1080              	RUC_SetPhaseFinalMecSpeedUnit:
 1081              	.LVL84:
 1082              	.LFB1464:
 660:MCSDK_v6.3.2-Full/MotorControl/MCSDK/MCLib/Any/Src/revup_ctrl.c **** 
 661:MCSDK_v6.3.2-Full/MotorControl/MCSDK/MCLib/Any/Src/revup_ctrl.c **** /**
 662:MCSDK_v6.3.2-Full/MotorControl/MCSDK/MCLib/Any/Src/revup_ctrl.c ****   * @brief  Allow to modify targeted mechanical speed of a selected phase.
 663:MCSDK_v6.3.2-Full/MotorControl/MCSDK/MCLib/Any/Src/revup_ctrl.c ****   * @param  pHandle: Pointer on Handle structure of RevUp controller.
 664:MCSDK_v6.3.2-Full/MotorControl/MCSDK/MCLib/Any/Src/revup_ctrl.c ****   * @param  bPhase: RevUp phase where new mechanical speed shall be modified.
 665:MCSDK_v6.3.2-Full/MotorControl/MCSDK/MCLib/Any/Src/revup_ctrl.c ****   *         This parameter must be a number between 0 and 6.
 666:MCSDK_v6.3.2-Full/MotorControl/MCSDK/MCLib/Any/Src/revup_ctrl.c ****   * @param  hFinalMecSpeedUnit: new targeted mechanical speed.
 667:MCSDK_v6.3.2-Full/MotorControl/MCSDK/MCLib/Any/Src/revup_ctrl.c ****   *         This parameter must be expressed in 0.1Hz.
 668:MCSDK_v6.3.2-Full/MotorControl/MCSDK/MCLib/Any/Src/revup_ctrl.c ****   */
 669:MCSDK_v6.3.2-Full/MotorControl/MCSDK/MCLib/Any/Src/revup_ctrl.c **** __weak void RUC_SetPhaseFinalMecSpeedUnit(RevUpCtrl_Handle_t *pHandle, uint8_t bPhase, int16_t hFin
 670:MCSDK_v6.3.2-Full/MotorControl/MCSDK/MCLib/Any/Src/revup_ctrl.c **** {
 1083              		.loc 1 670 1 is_stmt 1 view -0
 1084              		.cfi_startproc
 1085              		@ args = 0, pretend = 0, frame = 0
 1086              		@ frame_needed = 0, uses_anonymous_args = 0
 1087              		@ link register save eliminated.
 671:MCSDK_v6.3.2-Full/MotorControl/MCSDK/MCLib/Any/Src/revup_ctrl.c **** #ifdef NULL_PTR_CHECK_REV_UP_CTL
 672:MCSDK_v6.3.2-Full/MotorControl/MCSDK/MCLib/Any/Src/revup_ctrl.c ****   if (MC_NULL == pHandle)
 673:MCSDK_v6.3.2-Full/MotorControl/MCSDK/MCLib/Any/Src/revup_ctrl.c ****   {
 674:MCSDK_v6.3.2-Full/MotorControl/MCSDK/MCLib/Any/Src/revup_ctrl.c ****     /* Nothing to do */
 675:MCSDK_v6.3.2-Full/MotorControl/MCSDK/MCLib/Any/Src/revup_ctrl.c ****   }
 676:MCSDK_v6.3.2-Full/MotorControl/MCSDK/MCLib/Any/Src/revup_ctrl.c ****   else
 677:MCSDK_v6.3.2-Full/MotorControl/MCSDK/MCLib/Any/Src/revup_ctrl.c ****   {
 678:MCSDK_v6.3.2-Full/MotorControl/MCSDK/MCLib/Any/Src/revup_ctrl.c **** #endif
 679:MCSDK_v6.3.2-Full/MotorControl/MCSDK/MCLib/Any/Src/revup_ctrl.c ****     pHandle->ParamsData[bPhase].hFinalMecSpeedUnit = hFinalMecSpeedUnit;
 1088              		.loc 1 679 5 view .LVU378
 1089              		.loc 1 679 52 is_stmt 0 view .LVU379
 1090 0000 01EB4101 		add	r1, r1, r1, lsl #1
 1091              	.LVL85:
 1092              		.loc 1 679 52 view .LVU380
 1093 0004 00EB8101 		add	r1, r0, r1, lsl #2
 1094 0008 CA81     		strh	r2, [r1, #14]	@ movhi
 680:MCSDK_v6.3.2-Full/MotorControl/MCSDK/MCLib/Any/Src/revup_ctrl.c **** #ifdef NULL_PTR_CHECK_REV_UP_CTL
 681:MCSDK_v6.3.2-Full/MotorControl/MCSDK/MCLib/Any/Src/revup_ctrl.c ****   }
 682:MCSDK_v6.3.2-Full/MotorControl/MCSDK/MCLib/Any/Src/revup_ctrl.c **** #endif
 683:MCSDK_v6.3.2-Full/MotorControl/MCSDK/MCLib/Any/Src/revup_ctrl.c **** }
 1095              		.loc 1 683 1 view .LVU381
 1096 000a 7047     		bx	lr
 1097              		.cfi_endproc
 1098              	.LFE1464:
 1100              		.section	.text.RUC_SetPhaseFinalTorque,"ax",%progbits
 1101              		.align	1
 1102              		.weak	RUC_SetPhaseFinalTorque
 1103              		.syntax unified
 1104              		.thumb
 1105              		.thumb_func
 1106              		.fpu fpv4-sp-d16
ARM GAS  /tmp/ccCWj51Y.s 			page 37


 1108              	RUC_SetPhaseFinalTorque:
 1109              	.LVL86:
 1110              	.LFB1465:
 684:MCSDK_v6.3.2-Full/MotorControl/MCSDK/MCLib/Any/Src/revup_ctrl.c **** 
 685:MCSDK_v6.3.2-Full/MotorControl/MCSDK/MCLib/Any/Src/revup_ctrl.c **** /**
 686:MCSDK_v6.3.2-Full/MotorControl/MCSDK/MCLib/Any/Src/revup_ctrl.c ****   * @brief  Allow to modify targeted the motor torque of a selected phase.
 687:MCSDK_v6.3.2-Full/MotorControl/MCSDK/MCLib/Any/Src/revup_ctrl.c ****   * @param  pHandle: Pointer on Handle structure of RevUp controller.
 688:MCSDK_v6.3.2-Full/MotorControl/MCSDK/MCLib/Any/Src/revup_ctrl.c ****   * @param  bPhase: RevUp phase where new the motor torque shall be modified.
 689:MCSDK_v6.3.2-Full/MotorControl/MCSDK/MCLib/Any/Src/revup_ctrl.c ****   *         This parameter must be a number between 0 and 6.
 690:MCSDK_v6.3.2-Full/MotorControl/MCSDK/MCLib/Any/Src/revup_ctrl.c ****   * @param  hFinalTorque: new targeted motor torque.
 691:MCSDK_v6.3.2-Full/MotorControl/MCSDK/MCLib/Any/Src/revup_ctrl.c ****   */
 692:MCSDK_v6.3.2-Full/MotorControl/MCSDK/MCLib/Any/Src/revup_ctrl.c **** __weak void RUC_SetPhaseFinalTorque(RevUpCtrl_Handle_t *pHandle, uint8_t bPhase, int16_t hFinalTorq
 693:MCSDK_v6.3.2-Full/MotorControl/MCSDK/MCLib/Any/Src/revup_ctrl.c **** {
 1111              		.loc 1 693 1 is_stmt 1 view -0
 1112              		.cfi_startproc
 1113              		@ args = 0, pretend = 0, frame = 0
 1114              		@ frame_needed = 0, uses_anonymous_args = 0
 1115              		@ link register save eliminated.
 694:MCSDK_v6.3.2-Full/MotorControl/MCSDK/MCLib/Any/Src/revup_ctrl.c **** #ifdef NULL_PTR_CHECK_REV_UP_CTL
 695:MCSDK_v6.3.2-Full/MotorControl/MCSDK/MCLib/Any/Src/revup_ctrl.c ****   if (MC_NULL == pHandle)
 696:MCSDK_v6.3.2-Full/MotorControl/MCSDK/MCLib/Any/Src/revup_ctrl.c ****   {
 697:MCSDK_v6.3.2-Full/MotorControl/MCSDK/MCLib/Any/Src/revup_ctrl.c ****     /* Nothing to do */
 698:MCSDK_v6.3.2-Full/MotorControl/MCSDK/MCLib/Any/Src/revup_ctrl.c ****   }
 699:MCSDK_v6.3.2-Full/MotorControl/MCSDK/MCLib/Any/Src/revup_ctrl.c ****   else
 700:MCSDK_v6.3.2-Full/MotorControl/MCSDK/MCLib/Any/Src/revup_ctrl.c ****   {
 701:MCSDK_v6.3.2-Full/MotorControl/MCSDK/MCLib/Any/Src/revup_ctrl.c **** #endif
 702:MCSDK_v6.3.2-Full/MotorControl/MCSDK/MCLib/Any/Src/revup_ctrl.c ****     pHandle->ParamsData[bPhase].hFinalTorque = hFinalTorque;
 1116              		.loc 1 702 5 view .LVU383
 1117              		.loc 1 702 46 is_stmt 0 view .LVU384
 1118 0000 01EB4101 		add	r1, r1, r1, lsl #1
 1119              	.LVL87:
 1120              		.loc 1 702 46 view .LVU385
 1121 0004 00EB8101 		add	r1, r0, r1, lsl #2
 1122 0008 0A82     		strh	r2, [r1, #16]	@ movhi
 703:MCSDK_v6.3.2-Full/MotorControl/MCSDK/MCLib/Any/Src/revup_ctrl.c **** #ifdef NULL_PTR_CHECK_REV_UP_CTL
 704:MCSDK_v6.3.2-Full/MotorControl/MCSDK/MCLib/Any/Src/revup_ctrl.c ****   }
 705:MCSDK_v6.3.2-Full/MotorControl/MCSDK/MCLib/Any/Src/revup_ctrl.c **** #endif
 706:MCSDK_v6.3.2-Full/MotorControl/MCSDK/MCLib/Any/Src/revup_ctrl.c **** }
 1123              		.loc 1 706 1 view .LVU386
 1124 000a 7047     		bx	lr
 1125              		.cfi_endproc
 1126              	.LFE1465:
 1128              		.section	.text.RUC_GetPhaseDurationms,"ax",%progbits
 1129              		.align	1
 1130              		.weak	RUC_GetPhaseDurationms
 1131              		.syntax unified
 1132              		.thumb
 1133              		.thumb_func
 1134              		.fpu fpv4-sp-d16
 1136              	RUC_GetPhaseDurationms:
 1137              	.LVL88:
 1138              	.LFB1466:
 707:MCSDK_v6.3.2-Full/MotorControl/MCSDK/MCLib/Any/Src/revup_ctrl.c **** 
 708:MCSDK_v6.3.2-Full/MotorControl/MCSDK/MCLib/Any/Src/revup_ctrl.c **** /**
 709:MCSDK_v6.3.2-Full/MotorControl/MCSDK/MCLib/Any/Src/revup_ctrl.c ****   * @brief  Allow to read duration set in selected phase.
 710:MCSDK_v6.3.2-Full/MotorControl/MCSDK/MCLib/Any/Src/revup_ctrl.c ****   * @param  pHandle: Pointer on Handle structure of RevUp controller.
 711:MCSDK_v6.3.2-Full/MotorControl/MCSDK/MCLib/Any/Src/revup_ctrl.c ****   * @param  bPhase: RevUp phase from where duration is read.
ARM GAS  /tmp/ccCWj51Y.s 			page 38


 712:MCSDK_v6.3.2-Full/MotorControl/MCSDK/MCLib/Any/Src/revup_ctrl.c ****   *         This parameter must be a number between 0 and 6.
 713:MCSDK_v6.3.2-Full/MotorControl/MCSDK/MCLib/Any/Src/revup_ctrl.c ****   *  @retval Returns duration used in selected phase in ms unit.
 714:MCSDK_v6.3.2-Full/MotorControl/MCSDK/MCLib/Any/Src/revup_ctrl.c ****   */
 715:MCSDK_v6.3.2-Full/MotorControl/MCSDK/MCLib/Any/Src/revup_ctrl.c **** __weak uint16_t RUC_GetPhaseDurationms(RevUpCtrl_Handle_t *pHandle, uint8_t bPhase)
 716:MCSDK_v6.3.2-Full/MotorControl/MCSDK/MCLib/Any/Src/revup_ctrl.c **** {
 1139              		.loc 1 716 1 is_stmt 1 view -0
 1140              		.cfi_startproc
 1141              		@ args = 0, pretend = 0, frame = 0
 1142              		@ frame_needed = 0, uses_anonymous_args = 0
 1143              		@ link register save eliminated.
 717:MCSDK_v6.3.2-Full/MotorControl/MCSDK/MCLib/Any/Src/revup_ctrl.c **** #ifdef NULL_PTR_CHECK_REV_UP_CTL
 718:MCSDK_v6.3.2-Full/MotorControl/MCSDK/MCLib/Any/Src/revup_ctrl.c ****   return ((MC_NULL == pHandle) ? 0U : (uint16_t)pHandle->ParamsData[bPhase].hDurationms);
 719:MCSDK_v6.3.2-Full/MotorControl/MCSDK/MCLib/Any/Src/revup_ctrl.c **** #else
 720:MCSDK_v6.3.2-Full/MotorControl/MCSDK/MCLib/Any/Src/revup_ctrl.c ****   return ((uint16_t)pHandle->ParamsData[bPhase].hDurationms);
 1144              		.loc 1 720 3 view .LVU388
 1145              		.loc 1 720 11 is_stmt 0 view .LVU389
 1146 0000 01EB4101 		add	r1, r1, r1, lsl #1
 1147              	.LVL89:
 1148              		.loc 1 720 11 view .LVU390
 1149 0004 00EB8101 		add	r1, r0, r1, lsl #2
 721:MCSDK_v6.3.2-Full/MotorControl/MCSDK/MCLib/Any/Src/revup_ctrl.c **** #endif
 722:MCSDK_v6.3.2-Full/MotorControl/MCSDK/MCLib/Any/Src/revup_ctrl.c **** }
 1150              		.loc 1 722 1 view .LVU391
 1151 0008 8889     		ldrh	r0, [r1, #12]
 1152              	.LVL90:
 1153              		.loc 1 722 1 view .LVU392
 1154 000a 7047     		bx	lr
 1155              		.cfi_endproc
 1156              	.LFE1466:
 1158              		.section	.text.RUC_GetPhaseFinalMecSpeedUnit,"ax",%progbits
 1159              		.align	1
 1160              		.weak	RUC_GetPhaseFinalMecSpeedUnit
 1161              		.syntax unified
 1162              		.thumb
 1163              		.thumb_func
 1164              		.fpu fpv4-sp-d16
 1166              	RUC_GetPhaseFinalMecSpeedUnit:
 1167              	.LVL91:
 1168              	.LFB1467:
 723:MCSDK_v6.3.2-Full/MotorControl/MCSDK/MCLib/Any/Src/revup_ctrl.c **** 
 724:MCSDK_v6.3.2-Full/MotorControl/MCSDK/MCLib/Any/Src/revup_ctrl.c **** /**
 725:MCSDK_v6.3.2-Full/MotorControl/MCSDK/MCLib/Any/Src/revup_ctrl.c ****   * @brief  Allow to read targeted rotor speed set in selected phase.
 726:MCSDK_v6.3.2-Full/MotorControl/MCSDK/MCLib/Any/Src/revup_ctrl.c ****   * @param  pHandle: Pointer on Handle structure of RevUp controller.
 727:MCSDK_v6.3.2-Full/MotorControl/MCSDK/MCLib/Any/Src/revup_ctrl.c ****   * @param  bPhase: RevUp phase from where targeted rotor speed is read.
 728:MCSDK_v6.3.2-Full/MotorControl/MCSDK/MCLib/Any/Src/revup_ctrl.c ****   *         This parameter must be a number between 0 and 6.
 729:MCSDK_v6.3.2-Full/MotorControl/MCSDK/MCLib/Any/Src/revup_ctrl.c ****   *  @retval Returns targeted rotor speed set for a selected phase.
 730:MCSDK_v6.3.2-Full/MotorControl/MCSDK/MCLib/Any/Src/revup_ctrl.c ****   */
 731:MCSDK_v6.3.2-Full/MotorControl/MCSDK/MCLib/Any/Src/revup_ctrl.c **** __weak int16_t RUC_GetPhaseFinalMecSpeedUnit(RevUpCtrl_Handle_t *pHandle, uint8_t bPhase)
 732:MCSDK_v6.3.2-Full/MotorControl/MCSDK/MCLib/Any/Src/revup_ctrl.c **** {
 1169              		.loc 1 732 1 is_stmt 1 view -0
 1170              		.cfi_startproc
 1171              		@ args = 0, pretend = 0, frame = 0
 1172              		@ frame_needed = 0, uses_anonymous_args = 0
 1173              		@ link register save eliminated.
 733:MCSDK_v6.3.2-Full/MotorControl/MCSDK/MCLib/Any/Src/revup_ctrl.c **** #ifdef NULL_PTR_CHECK_REV_UP_CTL
 734:MCSDK_v6.3.2-Full/MotorControl/MCSDK/MCLib/Any/Src/revup_ctrl.c ****   return ((MC_NULL == pHandle) ? 0 : (int16_t)pHandle->ParamsData[bPhase].hFinalMecSpeedUnit);
 735:MCSDK_v6.3.2-Full/MotorControl/MCSDK/MCLib/Any/Src/revup_ctrl.c **** #else
ARM GAS  /tmp/ccCWj51Y.s 			page 39


 736:MCSDK_v6.3.2-Full/MotorControl/MCSDK/MCLib/Any/Src/revup_ctrl.c ****   return ((int16_t)pHandle->ParamsData[bPhase].hFinalMecSpeedUnit);
 1174              		.loc 1 736 3 view .LVU394
 1175              		.loc 1 736 11 is_stmt 0 view .LVU395
 1176 0000 01EB4101 		add	r1, r1, r1, lsl #1
 1177              	.LVL92:
 1178              		.loc 1 736 11 view .LVU396
 1179 0004 00EB8101 		add	r1, r0, r1, lsl #2
 737:MCSDK_v6.3.2-Full/MotorControl/MCSDK/MCLib/Any/Src/revup_ctrl.c **** #endif
 738:MCSDK_v6.3.2-Full/MotorControl/MCSDK/MCLib/Any/Src/revup_ctrl.c **** }
 1180              		.loc 1 738 1 view .LVU397
 1181 0008 B1F90E00 		ldrsh	r0, [r1, #14]
 1182              	.LVL93:
 1183              		.loc 1 738 1 view .LVU398
 1184 000c 7047     		bx	lr
 1185              		.cfi_endproc
 1186              	.LFE1467:
 1188              		.section	.text.RUC_GetPhaseFinalTorque,"ax",%progbits
 1189              		.align	1
 1190              		.weak	RUC_GetPhaseFinalTorque
 1191              		.syntax unified
 1192              		.thumb
 1193              		.thumb_func
 1194              		.fpu fpv4-sp-d16
 1196              	RUC_GetPhaseFinalTorque:
 1197              	.LVL94:
 1198              	.LFB1468:
 739:MCSDK_v6.3.2-Full/MotorControl/MCSDK/MCLib/Any/Src/revup_ctrl.c **** 
 740:MCSDK_v6.3.2-Full/MotorControl/MCSDK/MCLib/Any/Src/revup_ctrl.c **** /**
 741:MCSDK_v6.3.2-Full/MotorControl/MCSDK/MCLib/Any/Src/revup_ctrl.c ****   * @brief  Allow to read targeted motor torque set in selected phase.
 742:MCSDK_v6.3.2-Full/MotorControl/MCSDK/MCLib/Any/Src/revup_ctrl.c ****   * @param  pHandle: Pointer on Handle structure of RevUp controller.
 743:MCSDK_v6.3.2-Full/MotorControl/MCSDK/MCLib/Any/Src/revup_ctrl.c ****   * @param  bPhase: RevUp phase from where targeted motor torque is read.
 744:MCSDK_v6.3.2-Full/MotorControl/MCSDK/MCLib/Any/Src/revup_ctrl.c ****   *         This parameter must be a number between 0 and 6.
 745:MCSDK_v6.3.2-Full/MotorControl/MCSDK/MCLib/Any/Src/revup_ctrl.c ****   *  @retval Returns targeted motor torque set for a selected phase.
 746:MCSDK_v6.3.2-Full/MotorControl/MCSDK/MCLib/Any/Src/revup_ctrl.c ****   */
 747:MCSDK_v6.3.2-Full/MotorControl/MCSDK/MCLib/Any/Src/revup_ctrl.c **** __weak int16_t RUC_GetPhaseFinalTorque(RevUpCtrl_Handle_t *pHandle, uint8_t bPhase)
 748:MCSDK_v6.3.2-Full/MotorControl/MCSDK/MCLib/Any/Src/revup_ctrl.c **** {
 1199              		.loc 1 748 1 is_stmt 1 view -0
 1200              		.cfi_startproc
 1201              		@ args = 0, pretend = 0, frame = 0
 1202              		@ frame_needed = 0, uses_anonymous_args = 0
 1203              		@ link register save eliminated.
 749:MCSDK_v6.3.2-Full/MotorControl/MCSDK/MCLib/Any/Src/revup_ctrl.c **** 
 750:MCSDK_v6.3.2-Full/MotorControl/MCSDK/MCLib/Any/Src/revup_ctrl.c **** #ifdef NULL_PTR_CHECK_REV_UP_CTL
 751:MCSDK_v6.3.2-Full/MotorControl/MCSDK/MCLib/Any/Src/revup_ctrl.c ****   return ((MC_NULL == pHandle) ? 0 : (int16_t)pHandle->ParamsData[bPhase].hFinalTorque);
 752:MCSDK_v6.3.2-Full/MotorControl/MCSDK/MCLib/Any/Src/revup_ctrl.c **** #else
 753:MCSDK_v6.3.2-Full/MotorControl/MCSDK/MCLib/Any/Src/revup_ctrl.c ****   return ((int16_t)pHandle->ParamsData[bPhase].hFinalTorque);
 1204              		.loc 1 753 3 view .LVU400
 1205              		.loc 1 753 11 is_stmt 0 view .LVU401
 1206 0000 01EB4101 		add	r1, r1, r1, lsl #1
 1207              	.LVL95:
 1208              		.loc 1 753 11 view .LVU402
 1209 0004 00EB8101 		add	r1, r0, r1, lsl #2
 754:MCSDK_v6.3.2-Full/MotorControl/MCSDK/MCLib/Any/Src/revup_ctrl.c **** #endif
 755:MCSDK_v6.3.2-Full/MotorControl/MCSDK/MCLib/Any/Src/revup_ctrl.c **** }
 1210              		.loc 1 755 1 view .LVU403
 1211 0008 B1F91000 		ldrsh	r0, [r1, #16]
 1212              	.LVL96:
ARM GAS  /tmp/ccCWj51Y.s 			page 40


 1213              		.loc 1 755 1 view .LVU404
 1214 000c 7047     		bx	lr
 1215              		.cfi_endproc
 1216              	.LFE1468:
 1218              		.text
 1219              	.Letext0:
 1220              		.file 3 "/usr/share/gcc-arm-none-eabi-10-2020-q4-major/arm-none-eabi/include/machine/_default_type
 1221              		.file 4 "/usr/share/gcc-arm-none-eabi-10-2020-q4-major/arm-none-eabi/include/sys/_stdint.h"
 1222              		.file 5 "Drivers/CMSIS/Device/ST/STM32G4xx/Include/stm32g431xx.h"
 1223              		.file 6 "Drivers/STM32G4xx_HAL_Driver/Inc/stm32g4xx_ll_tim.h"
 1224              		.file 7 "Drivers/STM32G4xx_HAL_Driver/Inc/stm32g4xx_ll_usart.h"
 1225              		.file 8 "Drivers/STM32G4xx_HAL_Driver/Inc/stm32g4xx_ll_dma.h"
 1226              		.file 9 "Inc/mc_type.h"
 1227              		.file 10 "MCSDK_v6.3.2-Full/MotorControl/MCSDK/MCLib/Any/Inc/pid_regulator.h"
 1228              		.file 11 "MCSDK_v6.3.2-Full/MotorControl/MCSDK/MCLib/Any/Inc/speed_pos_fdbk.h"
 1229              		.file 12 "MCSDK_v6.3.2-Full/MotorControl/MCSDK/MCLib/Any/Inc/speed_torq_ctrl.h"
 1230              		.file 13 "MCSDK_v6.3.2-Full/MotorControl/MCSDK/MCLib/Any/Inc/sto_speed_pos_fdbk.h"
 1231              		.file 14 "Inc/pwm_curr_fdbk.h"
 1232              		.file 15 "MCSDK_v6.3.2-Full/MotorControl/MCSDK/MCLib/Any/Inc/revup_ctrl.h"
ARM GAS  /tmp/ccCWj51Y.s 			page 41


DEFINED SYMBOLS
                            *ABS*:0000000000000000 revup_ctrl.c
     /tmp/ccCWj51Y.s:18     .text.RUC_Init:0000000000000000 $t
     /tmp/ccCWj51Y.s:26     .text.RUC_Init:0000000000000000 RUC_Init
     /tmp/ccCWj51Y.s:137    .text.RUC_Init:0000000000000058 $d
     /tmp/ccCWj51Y.s:142    .text.RUC_Clear:0000000000000000 $t
     /tmp/ccCWj51Y.s:149    .text.RUC_Clear:0000000000000000 RUC_Clear
     /tmp/ccCWj51Y.s:290    .text.RUC_Clear:0000000000000090 $d
     /tmp/ccCWj51Y.s:295    .text.RUC_OTF_Exec:0000000000000000 $t
     /tmp/ccCWj51Y.s:302    .text.RUC_OTF_Exec:0000000000000000 RUC_OTF_Exec
     /tmp/ccCWj51Y.s:833    .text.RUC_OTF_Exec:0000000000000224 $d
     /tmp/ccCWj51Y.s:838    .text.RUC_Exec:0000000000000000 $t
     /tmp/ccCWj51Y.s:845    .text.RUC_Exec:0000000000000000 RUC_Exec
     /tmp/ccCWj51Y.s:952    .text.RUC_Exec:000000000000006c $d
     /tmp/ccCWj51Y.s:957    .text.RUC_IsAlignStageNow:0000000000000000 $t
     /tmp/ccCWj51Y.s:964    .text.RUC_IsAlignStageNow:0000000000000000 RUC_IsAlignStageNow
     /tmp/ccCWj51Y.s:1010   .text.RUC_FirstAccelerationStageReached:0000000000000000 $t
     /tmp/ccCWj51Y.s:1017   .text.RUC_FirstAccelerationStageReached:0000000000000000 RUC_FirstAccelerationStageReached
     /tmp/ccCWj51Y.s:1045   .text.RUC_SetPhaseDurationms:0000000000000000 $t
     /tmp/ccCWj51Y.s:1052   .text.RUC_SetPhaseDurationms:0000000000000000 RUC_SetPhaseDurationms
     /tmp/ccCWj51Y.s:1073   .text.RUC_SetPhaseFinalMecSpeedUnit:0000000000000000 $t
     /tmp/ccCWj51Y.s:1080   .text.RUC_SetPhaseFinalMecSpeedUnit:0000000000000000 RUC_SetPhaseFinalMecSpeedUnit
     /tmp/ccCWj51Y.s:1101   .text.RUC_SetPhaseFinalTorque:0000000000000000 $t
     /tmp/ccCWj51Y.s:1108   .text.RUC_SetPhaseFinalTorque:0000000000000000 RUC_SetPhaseFinalTorque
     /tmp/ccCWj51Y.s:1129   .text.RUC_GetPhaseDurationms:0000000000000000 $t
     /tmp/ccCWj51Y.s:1136   .text.RUC_GetPhaseDurationms:0000000000000000 RUC_GetPhaseDurationms
     /tmp/ccCWj51Y.s:1159   .text.RUC_GetPhaseFinalMecSpeedUnit:0000000000000000 $t
     /tmp/ccCWj51Y.s:1166   .text.RUC_GetPhaseFinalMecSpeedUnit:0000000000000000 RUC_GetPhaseFinalMecSpeedUnit
     /tmp/ccCWj51Y.s:1189   .text.RUC_GetPhaseFinalTorque:0000000000000000 $t
     /tmp/ccCWj51Y.s:1196   .text.RUC_GetPhaseFinalTorque:0000000000000000 RUC_GetPhaseFinalTorque

UNDEFINED SYMBOLS
VSS_Clear
STC_SetControlMode
STC_ExecRamp
VSS_SetMecAcceleration
SPD_GetAvrgMecSpeedUnit
PWMC_SwitchOffPWM
PWMC_TurnOnLowSides
PWMC_SwitchOnPWM
