ARM GAS  /tmp/ccZpGKc6.s 			page 1


   1              		.cpu cortex-m4
   2              		.eabi_attribute 27, 1
   3              		.eabi_attribute 28, 1
   4              		.eabi_attribute 20, 1
   5              		.eabi_attribute 21, 1
   6              		.eabi_attribute 23, 3
   7              		.eabi_attribute 24, 1
   8              		.eabi_attribute 25, 1
   9              		.eabi_attribute 26, 1
  10              		.eabi_attribute 30, 2
  11              		.eabi_attribute 34, 1
  12              		.eabi_attribute 18, 2
  13              		.file	"revup_ctrl.c"
  14              		.text
  15              	.Ltext0:
  16              		.cfi_sections	.debug_frame
  17              		.section	.text.RUC_Init,"ax",%progbits
  18              		.align	1
  19              		.p2align 2,,3
  20              		.weak	RUC_Init
  21              		.arch armv7e-m
  22              		.syntax unified
  23              		.thumb
  24              		.thumb_func
  25              		.fpu fpv4-sp-d16
  27              	RUC_Init:
  28              	.LVL0:
  29              	.LFB1457:
  30              		.file 1 "MCSDK_v6.3.2-Full/MotorControl/MCSDK/MCLib/Any/Src/revup_ctrl.c"
   1:MCSDK_v6.3.2-Full/MotorControl/MCSDK/MCLib/Any/Src/revup_ctrl.c **** /**
   2:MCSDK_v6.3.2-Full/MotorControl/MCSDK/MCLib/Any/Src/revup_ctrl.c ****   ******************************************************************************
   3:MCSDK_v6.3.2-Full/MotorControl/MCSDK/MCLib/Any/Src/revup_ctrl.c ****   * @file    revup_ctrl.c
   4:MCSDK_v6.3.2-Full/MotorControl/MCSDK/MCLib/Any/Src/revup_ctrl.c ****   * @author  Motor Control SDK Team, ST Microelectronics
   5:MCSDK_v6.3.2-Full/MotorControl/MCSDK/MCLib/Any/Src/revup_ctrl.c ****   * @brief   This file provides firmware functions that implement the features
   6:MCSDK_v6.3.2-Full/MotorControl/MCSDK/MCLib/Any/Src/revup_ctrl.c ****   *          of the Rev-Up Control component of the Motor Control SDK:
   7:MCSDK_v6.3.2-Full/MotorControl/MCSDK/MCLib/Any/Src/revup_ctrl.c ****   *
   8:MCSDK_v6.3.2-Full/MotorControl/MCSDK/MCLib/Any/Src/revup_ctrl.c ****   *          * Main Rev-Up procedure to execute programmed phases
   9:MCSDK_v6.3.2-Full/MotorControl/MCSDK/MCLib/Any/Src/revup_ctrl.c ****   *          * On the Fly (OTF)
  10:MCSDK_v6.3.2-Full/MotorControl/MCSDK/MCLib/Any/Src/revup_ctrl.c ****   *
  11:MCSDK_v6.3.2-Full/MotorControl/MCSDK/MCLib/Any/Src/revup_ctrl.c ****   ******************************************************************************
  12:MCSDK_v6.3.2-Full/MotorControl/MCSDK/MCLib/Any/Src/revup_ctrl.c ****   * @attention
  13:MCSDK_v6.3.2-Full/MotorControl/MCSDK/MCLib/Any/Src/revup_ctrl.c ****   *
  14:MCSDK_v6.3.2-Full/MotorControl/MCSDK/MCLib/Any/Src/revup_ctrl.c ****   * <h2><center>&copy; Copyright (c) 2024 STMicroelectronics International N.V.
  15:MCSDK_v6.3.2-Full/MotorControl/MCSDK/MCLib/Any/Src/revup_ctrl.c ****   * All rights reserved.</center></h2>
  16:MCSDK_v6.3.2-Full/MotorControl/MCSDK/MCLib/Any/Src/revup_ctrl.c ****   *
  17:MCSDK_v6.3.2-Full/MotorControl/MCSDK/MCLib/Any/Src/revup_ctrl.c ****   * Redistribution and use in source and binary forms, with or without
  18:MCSDK_v6.3.2-Full/MotorControl/MCSDK/MCLib/Any/Src/revup_ctrl.c ****   * modification, are permitted, provided that the following conditions are met:
  19:MCSDK_v6.3.2-Full/MotorControl/MCSDK/MCLib/Any/Src/revup_ctrl.c ****   *
  20:MCSDK_v6.3.2-Full/MotorControl/MCSDK/MCLib/Any/Src/revup_ctrl.c ****   * 1. Redistribution of source code must retain the above copyright notice,
  21:MCSDK_v6.3.2-Full/MotorControl/MCSDK/MCLib/Any/Src/revup_ctrl.c ****   *    this list of conditions and the following disclaimer.
  22:MCSDK_v6.3.2-Full/MotorControl/MCSDK/MCLib/Any/Src/revup_ctrl.c ****   * 2. Redistributions in binary form must reproduce the above copyright notice,
  23:MCSDK_v6.3.2-Full/MotorControl/MCSDK/MCLib/Any/Src/revup_ctrl.c ****   *    this list of conditions and the following disclaimer in the documentation
  24:MCSDK_v6.3.2-Full/MotorControl/MCSDK/MCLib/Any/Src/revup_ctrl.c ****   *    and/or other materials provided with the distribution.
  25:MCSDK_v6.3.2-Full/MotorControl/MCSDK/MCLib/Any/Src/revup_ctrl.c ****   * 3. Neither the name of STMicroelectronics nor the names of other
  26:MCSDK_v6.3.2-Full/MotorControl/MCSDK/MCLib/Any/Src/revup_ctrl.c ****   *    contributors to this software may be used to endorse or promote products
  27:MCSDK_v6.3.2-Full/MotorControl/MCSDK/MCLib/Any/Src/revup_ctrl.c ****   *    derived from this software without specific written permission.
  28:MCSDK_v6.3.2-Full/MotorControl/MCSDK/MCLib/Any/Src/revup_ctrl.c ****   * 4. This software, including modifications and/or derivative works of this
ARM GAS  /tmp/ccZpGKc6.s 			page 2


  29:MCSDK_v6.3.2-Full/MotorControl/MCSDK/MCLib/Any/Src/revup_ctrl.c ****   *    software, must execute solely and exclusively on microcontroller or
  30:MCSDK_v6.3.2-Full/MotorControl/MCSDK/MCLib/Any/Src/revup_ctrl.c ****   *    microprocessor devices manufactured by or for STMicroelectronics.
  31:MCSDK_v6.3.2-Full/MotorControl/MCSDK/MCLib/Any/Src/revup_ctrl.c ****   * 5. Redistribution and use of this software other than as permitted under
  32:MCSDK_v6.3.2-Full/MotorControl/MCSDK/MCLib/Any/Src/revup_ctrl.c ****   *    this license is void and will automatically terminate your rights under
  33:MCSDK_v6.3.2-Full/MotorControl/MCSDK/MCLib/Any/Src/revup_ctrl.c ****   *    this license.
  34:MCSDK_v6.3.2-Full/MotorControl/MCSDK/MCLib/Any/Src/revup_ctrl.c ****   *
  35:MCSDK_v6.3.2-Full/MotorControl/MCSDK/MCLib/Any/Src/revup_ctrl.c ****   * THIS SOFTWARE IS PROVIDED BY STMICROELECTRONICS AND CONTRIBUTORS "AS IS"
  36:MCSDK_v6.3.2-Full/MotorControl/MCSDK/MCLib/Any/Src/revup_ctrl.c ****   * AND ANY EXPRESS, IMPLIED OR STATUTORY WARRANTIES, INCLUDING, BUT NOT
  37:MCSDK_v6.3.2-Full/MotorControl/MCSDK/MCLib/Any/Src/revup_ctrl.c ****   * LIMITED TO, THE IMPLIED WARRANTIES OF MERCHANTABILITY, FITNESS FOR A
  38:MCSDK_v6.3.2-Full/MotorControl/MCSDK/MCLib/Any/Src/revup_ctrl.c ****   * PARTICULAR PURPOSE AND NON-INFRINGEMENT OF THIRD PARTY INTELLECTUAL PROPERTY
  39:MCSDK_v6.3.2-Full/MotorControl/MCSDK/MCLib/Any/Src/revup_ctrl.c ****   * RIGHTS ARE DISCLAIMED TO THE FULLEST EXTENT PERMITTED BY LAW. IN NO EVENT
  40:MCSDK_v6.3.2-Full/MotorControl/MCSDK/MCLib/Any/Src/revup_ctrl.c ****   * SHALL STMICROELECTRONICS OR CONTRIBUTORS BE LIABLE FOR ANY DIRECT, INDIRECT,
  41:MCSDK_v6.3.2-Full/MotorControl/MCSDK/MCLib/Any/Src/revup_ctrl.c ****   * INCIDENTAL, SPECIAL, EXEMPLARY, OR CONSEQUENTIAL DAMAGES (INCLUDING, BUT NOT
  42:MCSDK_v6.3.2-Full/MotorControl/MCSDK/MCLib/Any/Src/revup_ctrl.c ****   * LIMITED TO, PROCUREMENT OF SUBSTITUTE GOODS OR SERVICES; LOSS OF USE, DATA,
  43:MCSDK_v6.3.2-Full/MotorControl/MCSDK/MCLib/Any/Src/revup_ctrl.c ****   * OR PROFITS; OR BUSINESS INTERRUPTION) HOWEVER CAUSED AND ON ANY THEORY OF
  44:MCSDK_v6.3.2-Full/MotorControl/MCSDK/MCLib/Any/Src/revup_ctrl.c ****   * LIABILITY, WHETHER IN CONTRACT, STRICT LIABILITY, OR TORT (INCLUDING
  45:MCSDK_v6.3.2-Full/MotorControl/MCSDK/MCLib/Any/Src/revup_ctrl.c ****   * NEGLIGENCE OR OTHERWISE) ARISING IN ANY WAY OUT OF THE USE OF THIS SOFTWARE,
  46:MCSDK_v6.3.2-Full/MotorControl/MCSDK/MCLib/Any/Src/revup_ctrl.c ****   * EVEN IF ADVISED OF THE POSSIBILITY OF SUCH DAMAGE.
  47:MCSDK_v6.3.2-Full/MotorControl/MCSDK/MCLib/Any/Src/revup_ctrl.c ****   *
  48:MCSDK_v6.3.2-Full/MotorControl/MCSDK/MCLib/Any/Src/revup_ctrl.c ****   ******************************************************************************
  49:MCSDK_v6.3.2-Full/MotorControl/MCSDK/MCLib/Any/Src/revup_ctrl.c ****   * @ingroup RevUpCtrlFOC
  50:MCSDK_v6.3.2-Full/MotorControl/MCSDK/MCLib/Any/Src/revup_ctrl.c ****   */
  51:MCSDK_v6.3.2-Full/MotorControl/MCSDK/MCLib/Any/Src/revup_ctrl.c **** 
  52:MCSDK_v6.3.2-Full/MotorControl/MCSDK/MCLib/Any/Src/revup_ctrl.c **** /* Includes ------------------------------------------------------------------*/
  53:MCSDK_v6.3.2-Full/MotorControl/MCSDK/MCLib/Any/Src/revup_ctrl.c **** #include "revup_ctrl.h"
  54:MCSDK_v6.3.2-Full/MotorControl/MCSDK/MCLib/Any/Src/revup_ctrl.c **** 
  55:MCSDK_v6.3.2-Full/MotorControl/MCSDK/MCLib/Any/Src/revup_ctrl.c **** /** @addtogroup MCSDK
  56:MCSDK_v6.3.2-Full/MotorControl/MCSDK/MCLib/Any/Src/revup_ctrl.c ****   * @{
  57:MCSDK_v6.3.2-Full/MotorControl/MCSDK/MCLib/Any/Src/revup_ctrl.c ****   */
  58:MCSDK_v6.3.2-Full/MotorControl/MCSDK/MCLib/Any/Src/revup_ctrl.c **** 
  59:MCSDK_v6.3.2-Full/MotorControl/MCSDK/MCLib/Any/Src/revup_ctrl.c **** 
  60:MCSDK_v6.3.2-Full/MotorControl/MCSDK/MCLib/Any/Src/revup_ctrl.c **** /** @defgroup RevUpCtrl Rev-Up Control
  61:MCSDK_v6.3.2-Full/MotorControl/MCSDK/MCLib/Any/Src/revup_ctrl.c ****   * @brief Rev-Up Control component of the Motor Control SDK
  62:MCSDK_v6.3.2-Full/MotorControl/MCSDK/MCLib/Any/Src/revup_ctrl.c ****   *
  63:MCSDK_v6.3.2-Full/MotorControl/MCSDK/MCLib/Any/Src/revup_ctrl.c ****   * Used to start up the motor with a set of pre-programmed phases.
  64:MCSDK_v6.3.2-Full/MotorControl/MCSDK/MCLib/Any/Src/revup_ctrl.c ****   *
  65:MCSDK_v6.3.2-Full/MotorControl/MCSDK/MCLib/Any/Src/revup_ctrl.c ****   * The number of phases of the Rev-Up procedure range is from 0 to 5.
  66:MCSDK_v6.3.2-Full/MotorControl/MCSDK/MCLib/Any/Src/revup_ctrl.c ****   * The Rev-Up controller must be called at speed loop frequency.
  67:MCSDK_v6.3.2-Full/MotorControl/MCSDK/MCLib/Any/Src/revup_ctrl.c ****   *
  68:MCSDK_v6.3.2-Full/MotorControl/MCSDK/MCLib/Any/Src/revup_ctrl.c ****   * @{
  69:MCSDK_v6.3.2-Full/MotorControl/MCSDK/MCLib/Any/Src/revup_ctrl.c ****   */
  70:MCSDK_v6.3.2-Full/MotorControl/MCSDK/MCLib/Any/Src/revup_ctrl.c ****   
  71:MCSDK_v6.3.2-Full/MotorControl/MCSDK/MCLib/Any/Src/revup_ctrl.c ****   
  72:MCSDK_v6.3.2-Full/MotorControl/MCSDK/MCLib/Any/Src/revup_ctrl.c ****   
  73:MCSDK_v6.3.2-Full/MotorControl/MCSDK/MCLib/Any/Src/revup_ctrl.c **** 
  74:MCSDK_v6.3.2-Full/MotorControl/MCSDK/MCLib/Any/Src/revup_ctrl.c **** /** @defgroup RevUpCtrlFOC FOC Rev-Up Control component
  75:MCSDK_v6.3.2-Full/MotorControl/MCSDK/MCLib/Any/Src/revup_ctrl.c ****   * @brief Rev-Up control component used to start motor driven with 
  76:MCSDK_v6.3.2-Full/MotorControl/MCSDK/MCLib/Any/Src/revup_ctrl.c ****   *        the Field Oriented Control technique
  77:MCSDK_v6.3.2-Full/MotorControl/MCSDK/MCLib/Any/Src/revup_ctrl.c ****   *
  78:MCSDK_v6.3.2-Full/MotorControl/MCSDK/MCLib/Any/Src/revup_ctrl.c ****   * @{
  79:MCSDK_v6.3.2-Full/MotorControl/MCSDK/MCLib/Any/Src/revup_ctrl.c ****   */
  80:MCSDK_v6.3.2-Full/MotorControl/MCSDK/MCLib/Any/Src/revup_ctrl.c **** 
  81:MCSDK_v6.3.2-Full/MotorControl/MCSDK/MCLib/Any/Src/revup_ctrl.c **** /* Private defines -----------------------------------------------------------*/
  82:MCSDK_v6.3.2-Full/MotorControl/MCSDK/MCLib/Any/Src/revup_ctrl.c **** 
  83:MCSDK_v6.3.2-Full/MotorControl/MCSDK/MCLib/Any/Src/revup_ctrl.c **** /**
  84:MCSDK_v6.3.2-Full/MotorControl/MCSDK/MCLib/Any/Src/revup_ctrl.c ****   * @brief Timeout used to reset integral term of PLL.
  85:MCSDK_v6.3.2-Full/MotorControl/MCSDK/MCLib/Any/Src/revup_ctrl.c ****   *  It is expressed in ms.
ARM GAS  /tmp/ccZpGKc6.s 			page 3


  86:MCSDK_v6.3.2-Full/MotorControl/MCSDK/MCLib/Any/Src/revup_ctrl.c ****   *
  87:MCSDK_v6.3.2-Full/MotorControl/MCSDK/MCLib/Any/Src/revup_ctrl.c ****   */
  88:MCSDK_v6.3.2-Full/MotorControl/MCSDK/MCLib/Any/Src/revup_ctrl.c **** #define RUC_OTF_PLL_RESET_TIMEOUT 100u
  89:MCSDK_v6.3.2-Full/MotorControl/MCSDK/MCLib/Any/Src/revup_ctrl.c **** 
  90:MCSDK_v6.3.2-Full/MotorControl/MCSDK/MCLib/Any/Src/revup_ctrl.c **** 
  91:MCSDK_v6.3.2-Full/MotorControl/MCSDK/MCLib/Any/Src/revup_ctrl.c **** /* Private functions ----------------------------------------------------------*/
  92:MCSDK_v6.3.2-Full/MotorControl/MCSDK/MCLib/Any/Src/revup_ctrl.c **** 
  93:MCSDK_v6.3.2-Full/MotorControl/MCSDK/MCLib/Any/Src/revup_ctrl.c **** 
  94:MCSDK_v6.3.2-Full/MotorControl/MCSDK/MCLib/Any/Src/revup_ctrl.c **** /* Returns the  mechanical speed of a selected phase */
  95:MCSDK_v6.3.2-Full/MotorControl/MCSDK/MCLib/Any/Src/revup_ctrl.c **** static inline int16_t RUC_GetPhaseFinalMecSpeed01Hz(RevUpCtrl_Handle_t *pHandle, uint8_t bPhase)
  96:MCSDK_v6.3.2-Full/MotorControl/MCSDK/MCLib/Any/Src/revup_ctrl.c **** {
  97:MCSDK_v6.3.2-Full/MotorControl/MCSDK/MCLib/Any/Src/revup_ctrl.c ****   return (pHandle->ParamsData[bPhase].hFinalMecSpeedUnit);
  98:MCSDK_v6.3.2-Full/MotorControl/MCSDK/MCLib/Any/Src/revup_ctrl.c **** }
  99:MCSDK_v6.3.2-Full/MotorControl/MCSDK/MCLib/Any/Src/revup_ctrl.c **** 
 100:MCSDK_v6.3.2-Full/MotorControl/MCSDK/MCLib/Any/Src/revup_ctrl.c **** 
 101:MCSDK_v6.3.2-Full/MotorControl/MCSDK/MCLib/Any/Src/revup_ctrl.c **** /**
 102:MCSDK_v6.3.2-Full/MotorControl/MCSDK/MCLib/Any/Src/revup_ctrl.c ****   * @brief  Initialize and configure the FOC RevUpCtrl Component
 103:MCSDK_v6.3.2-Full/MotorControl/MCSDK/MCLib/Any/Src/revup_ctrl.c ****   * @param  pHandle: Pointer on Handle structure of FOC RevUp controller.
 104:MCSDK_v6.3.2-Full/MotorControl/MCSDK/MCLib/Any/Src/revup_ctrl.c ****   * @param  pSTC: Pointer on speed and torque controller structure.
 105:MCSDK_v6.3.2-Full/MotorControl/MCSDK/MCLib/Any/Src/revup_ctrl.c ****   * @param  pVSS: Pointer on virtual speed sensor structure.
 106:MCSDK_v6.3.2-Full/MotorControl/MCSDK/MCLib/Any/Src/revup_ctrl.c ****   * @param  pSNSL: Pointer on sensorless state observer structure.
 107:MCSDK_v6.3.2-Full/MotorControl/MCSDK/MCLib/Any/Src/revup_ctrl.c ****   * @param  pPWM: Pointer on the PWM structure.
 108:MCSDK_v6.3.2-Full/MotorControl/MCSDK/MCLib/Any/Src/revup_ctrl.c ****   */
 109:MCSDK_v6.3.2-Full/MotorControl/MCSDK/MCLib/Any/Src/revup_ctrl.c **** __weak void RUC_Init(RevUpCtrl_Handle_t *pHandle,
 110:MCSDK_v6.3.2-Full/MotorControl/MCSDK/MCLib/Any/Src/revup_ctrl.c ****                      SpeednTorqCtrl_Handle_t *pSTC,
 111:MCSDK_v6.3.2-Full/MotorControl/MCSDK/MCLib/Any/Src/revup_ctrl.c ****                      VirtualSpeedSensor_Handle_t *pVSS,
 112:MCSDK_v6.3.2-Full/MotorControl/MCSDK/MCLib/Any/Src/revup_ctrl.c ****                      STO_Handle_t *pSNSL,
 113:MCSDK_v6.3.2-Full/MotorControl/MCSDK/MCLib/Any/Src/revup_ctrl.c ****                      PWMC_Handle_t *pPWM)
 114:MCSDK_v6.3.2-Full/MotorControl/MCSDK/MCLib/Any/Src/revup_ctrl.c **** {
  31              		.loc 1 114 1 view -0
  32              		.cfi_startproc
  33              		@ args = 4, pretend = 0, frame = 0
  34              		@ frame_needed = 0, uses_anonymous_args = 0
  35              		@ link register save eliminated.
 115:MCSDK_v6.3.2-Full/MotorControl/MCSDK/MCLib/Any/Src/revup_ctrl.c **** #ifdef NULL_PTR_CHECK_REV_UP_CTL
 116:MCSDK_v6.3.2-Full/MotorControl/MCSDK/MCLib/Any/Src/revup_ctrl.c ****   if (MC_NULL == pHandle)
 117:MCSDK_v6.3.2-Full/MotorControl/MCSDK/MCLib/Any/Src/revup_ctrl.c ****   {
 118:MCSDK_v6.3.2-Full/MotorControl/MCSDK/MCLib/Any/Src/revup_ctrl.c ****     /* Nothing to do */
 119:MCSDK_v6.3.2-Full/MotorControl/MCSDK/MCLib/Any/Src/revup_ctrl.c ****   }
 120:MCSDK_v6.3.2-Full/MotorControl/MCSDK/MCLib/Any/Src/revup_ctrl.c ****   else
 121:MCSDK_v6.3.2-Full/MotorControl/MCSDK/MCLib/Any/Src/revup_ctrl.c ****   {
 122:MCSDK_v6.3.2-Full/MotorControl/MCSDK/MCLib/Any/Src/revup_ctrl.c **** #endif
 123:MCSDK_v6.3.2-Full/MotorControl/MCSDK/MCLib/Any/Src/revup_ctrl.c ****     RevUpCtrl_PhaseParams_t *pRUCPhaseParams = &pHandle->ParamsData[0];
  36              		.loc 1 123 5 view .LVU1
 124:MCSDK_v6.3.2-Full/MotorControl/MCSDK/MCLib/Any/Src/revup_ctrl.c ****     uint8_t bPhase = 0U;
  37              		.loc 1 124 5 view .LVU2
 125:MCSDK_v6.3.2-Full/MotorControl/MCSDK/MCLib/Any/Src/revup_ctrl.c **** 
 126:MCSDK_v6.3.2-Full/MotorControl/MCSDK/MCLib/Any/Src/revup_ctrl.c ****     pHandle->pSTC = pSTC;
  38              		.loc 1 126 5 view .LVU3
 114:MCSDK_v6.3.2-Full/MotorControl/MCSDK/MCLib/Any/Src/revup_ctrl.c **** #ifdef NULL_PTR_CHECK_REV_UP_CTL
  39              		.loc 1 114 1 is_stmt 0 view .LVU4
  40 0000 10B4     		push	{r4}
  41              	.LCFI0:
  42              		.cfi_def_cfa_offset 4
  43              		.cfi_offset 4, -4
  44              		.loc 1 126 19 view .LVU5
  45 0002 8166     		str	r1, [r0, #104]
ARM GAS  /tmp/ccZpGKc6.s 			page 4


 127:MCSDK_v6.3.2-Full/MotorControl/MCSDK/MCLib/Any/Src/revup_ctrl.c ****     pHandle->pVSS = pVSS;
  46              		.loc 1 127 5 is_stmt 1 view .LVU6
 128:MCSDK_v6.3.2-Full/MotorControl/MCSDK/MCLib/Any/Src/revup_ctrl.c ****     pHandle->pSNSL = pSNSL;
 129:MCSDK_v6.3.2-Full/MotorControl/MCSDK/MCLib/Any/Src/revup_ctrl.c ****     pHandle->pPWM = pPWM;
 130:MCSDK_v6.3.2-Full/MotorControl/MCSDK/MCLib/Any/Src/revup_ctrl.c ****     pHandle->OTFSCLowside = false;
 131:MCSDK_v6.3.2-Full/MotorControl/MCSDK/MCLib/Any/Src/revup_ctrl.c ****     pHandle->EnteredZone1 = false;
 132:MCSDK_v6.3.2-Full/MotorControl/MCSDK/MCLib/Any/Src/revup_ctrl.c **** 
 133:MCSDK_v6.3.2-Full/MotorControl/MCSDK/MCLib/Any/Src/revup_ctrl.c ****     while ((pRUCPhaseParams != MC_NULL) && (bPhase < RUC_MAX_PHASE_NUMBER))
 134:MCSDK_v6.3.2-Full/MotorControl/MCSDK/MCLib/Any/Src/revup_ctrl.c ****     {
 135:MCSDK_v6.3.2-Full/MotorControl/MCSDK/MCLib/Any/Src/revup_ctrl.c ****       /* Dump HF data for now HF data are forced to 16 bits */
 136:MCSDK_v6.3.2-Full/MotorControl/MCSDK/MCLib/Any/Src/revup_ctrl.c ****       pRUCPhaseParams = (RevUpCtrl_PhaseParams_t *)pRUCPhaseParams->pNext;  //cstat !MISRAC2012-Rul
  47              		.loc 1 136 23 is_stmt 0 view .LVU7
  48 0004 4169     		ldr	r1, [r0, #20]
  49              	.LVL1:
 114:MCSDK_v6.3.2-Full/MotorControl/MCSDK/MCLib/Any/Src/revup_ctrl.c **** #ifdef NULL_PTR_CHECK_REV_UP_CTL
  50              		.loc 1 114 1 view .LVU8
  51 0006 019C     		ldr	r4, [sp, #4]
 129:MCSDK_v6.3.2-Full/MotorControl/MCSDK/MCLib/Any/Src/revup_ctrl.c ****     pHandle->OTFSCLowside = false;
  52              		.loc 1 129 19 view .LVU9
  53 0008 4467     		str	r4, [r0, #116]
 130:MCSDK_v6.3.2-Full/MotorControl/MCSDK/MCLib/Any/Src/revup_ctrl.c ****     pHandle->EnteredZone1 = false;
  54              		.loc 1 130 27 view .LVU10
  55 000a 4FF0000C 		mov	ip, #0
 128:MCSDK_v6.3.2-Full/MotorControl/MCSDK/MCLib/Any/Src/revup_ctrl.c ****     pHandle->pPWM = pPWM;
  56              		.loc 1 128 20 view .LVU11
  57 000e C0E91B23 		strd	r2, r3, [r0, #108]
 129:MCSDK_v6.3.2-Full/MotorControl/MCSDK/MCLib/Any/Src/revup_ctrl.c ****     pHandle->OTFSCLowside = false;
  58              		.loc 1 129 5 is_stmt 1 view .LVU12
 130:MCSDK_v6.3.2-Full/MotorControl/MCSDK/MCLib/Any/Src/revup_ctrl.c ****     pHandle->EnteredZone1 = false;
  59              		.loc 1 130 5 view .LVU13
 131:MCSDK_v6.3.2-Full/MotorControl/MCSDK/MCLib/Any/Src/revup_ctrl.c **** 
  60              		.loc 1 131 5 view .LVU14
 133:MCSDK_v6.3.2-Full/MotorControl/MCSDK/MCLib/Any/Src/revup_ctrl.c ****     {
  61              		.loc 1 133 5 view .LVU15
 133:MCSDK_v6.3.2-Full/MotorControl/MCSDK/MCLib/Any/Src/revup_ctrl.c ****     {
  62              		.loc 1 133 11 view .LVU16
  63              		.loc 1 136 7 view .LVU17
  64              	.LVL2:
 137:MCSDK_v6.3.2-Full/MotorControl/MCSDK/MCLib/Any/Src/revup_ctrl.c ****       bPhase++;
  65              		.loc 1 137 7 view .LVU18
 133:MCSDK_v6.3.2-Full/MotorControl/MCSDK/MCLib/Any/Src/revup_ctrl.c ****     {
  66              		.loc 1 133 11 view .LVU19
 130:MCSDK_v6.3.2-Full/MotorControl/MCSDK/MCLib/Any/Src/revup_ctrl.c ****     pHandle->EnteredZone1 = false;
  67              		.loc 1 130 27 is_stmt 0 view .LVU20
  68 0012 A0F854C0 		strh	ip, [r0, #84]	@ movhi
 133:MCSDK_v6.3.2-Full/MotorControl/MCSDK/MCLib/Any/Src/revup_ctrl.c ****     {
  69              		.loc 1 133 11 view .LVU21
  70 0016 01B3     		cbz	r1, .L4
 136:MCSDK_v6.3.2-Full/MotorControl/MCSDK/MCLib/Any/Src/revup_ctrl.c ****       bPhase++;
  71              		.loc 1 136 7 is_stmt 1 view .LVU22
 136:MCSDK_v6.3.2-Full/MotorControl/MCSDK/MCLib/Any/Src/revup_ctrl.c ****       bPhase++;
  72              		.loc 1 136 23 is_stmt 0 view .LVU23
  73 0018 8B68     		ldr	r3, [r1, #8]
  74              	.LVL3:
  75              		.loc 1 137 7 is_stmt 1 view .LVU24
 133:MCSDK_v6.3.2-Full/MotorControl/MCSDK/MCLib/Any/Src/revup_ctrl.c ****     {
  76              		.loc 1 133 11 view .LVU25
ARM GAS  /tmp/ccZpGKc6.s 			page 5


  77 001a 0BB3     		cbz	r3, .L5
 136:MCSDK_v6.3.2-Full/MotorControl/MCSDK/MCLib/Any/Src/revup_ctrl.c ****       bPhase++;
  78              		.loc 1 136 7 view .LVU26
 136:MCSDK_v6.3.2-Full/MotorControl/MCSDK/MCLib/Any/Src/revup_ctrl.c ****       bPhase++;
  79              		.loc 1 136 23 is_stmt 0 view .LVU27
  80 001c 9B68     		ldr	r3, [r3, #8]
  81              	.LVL4:
  82              		.loc 1 137 7 is_stmt 1 view .LVU28
 133:MCSDK_v6.3.2-Full/MotorControl/MCSDK/MCLib/Any/Src/revup_ctrl.c ****     {
  83              		.loc 1 133 11 view .LVU29
  84 001e 0BB3     		cbz	r3, .L6
 136:MCSDK_v6.3.2-Full/MotorControl/MCSDK/MCLib/Any/Src/revup_ctrl.c ****       bPhase++;
  85              		.loc 1 136 7 view .LVU30
 136:MCSDK_v6.3.2-Full/MotorControl/MCSDK/MCLib/Any/Src/revup_ctrl.c ****       bPhase++;
  86              		.loc 1 136 23 is_stmt 0 view .LVU31
  87 0020 9B68     		ldr	r3, [r3, #8]
  88              	.LVL5:
  89              		.loc 1 137 7 is_stmt 1 view .LVU32
 133:MCSDK_v6.3.2-Full/MotorControl/MCSDK/MCLib/Any/Src/revup_ctrl.c ****     {
  90              		.loc 1 133 11 view .LVU33
  91 0022 0BB3     		cbz	r3, .L7
 136:MCSDK_v6.3.2-Full/MotorControl/MCSDK/MCLib/Any/Src/revup_ctrl.c ****       bPhase++;
  92              		.loc 1 136 7 view .LVU34
  93              	.LVL6:
  94              		.loc 1 137 7 view .LVU35
 133:MCSDK_v6.3.2-Full/MotorControl/MCSDK/MCLib/Any/Src/revup_ctrl.c ****     {
  95              		.loc 1 133 11 view .LVU36
  96 0024 9B68     		ldr	r3, [r3, #8]
  97              	.LVL7:
  98              		.loc 1 137 13 is_stmt 0 view .LVU37
  99 0026 0521     		movs	r1, #5
 133:MCSDK_v6.3.2-Full/MotorControl/MCSDK/MCLib/Any/Src/revup_ctrl.c ****     {
 100              		.loc 1 133 11 view .LVU38
 101 0028 C3B1     		cbz	r3, .L2
 102 002a 0422     		movs	r2, #4
 103              	.LVL8:
 133:MCSDK_v6.3.2-Full/MotorControl/MCSDK/MCLib/Any/Src/revup_ctrl.c ****     {
 104              		.loc 1 133 11 view .LVU39
 105 002c 0521     		movs	r1, #5
 106              	.LVL9:
 107              	.L3:
 138:MCSDK_v6.3.2-Full/MotorControl/MCSDK/MCLib/Any/Src/revup_ctrl.c ****     }
 139:MCSDK_v6.3.2-Full/MotorControl/MCSDK/MCLib/Any/Src/revup_ctrl.c **** 
 140:MCSDK_v6.3.2-Full/MotorControl/MCSDK/MCLib/Any/Src/revup_ctrl.c ****     if (0U == bPhase)
 141:MCSDK_v6.3.2-Full/MotorControl/MCSDK/MCLib/Any/Src/revup_ctrl.c ****     {
 142:MCSDK_v6.3.2-Full/MotorControl/MCSDK/MCLib/Any/Src/revup_ctrl.c ****       /* nothing to do error */
 143:MCSDK_v6.3.2-Full/MotorControl/MCSDK/MCLib/Any/Src/revup_ctrl.c ****     }
 144:MCSDK_v6.3.2-Full/MotorControl/MCSDK/MCLib/Any/Src/revup_ctrl.c ****     else
 145:MCSDK_v6.3.2-Full/MotorControl/MCSDK/MCLib/Any/Src/revup_ctrl.c ****     {
 146:MCSDK_v6.3.2-Full/MotorControl/MCSDK/MCLib/Any/Src/revup_ctrl.c ****       pHandle->ParamsData[bPhase - 1u].pNext = MC_NULL;
 108              		.loc 1 146 7 is_stmt 1 view .LVU40
 147:MCSDK_v6.3.2-Full/MotorControl/MCSDK/MCLib/Any/Src/revup_ctrl.c **** 
 148:MCSDK_v6.3.2-Full/MotorControl/MCSDK/MCLib/Any/Src/revup_ctrl.c ****       pHandle->bPhaseNbr = bPhase;
 149:MCSDK_v6.3.2-Full/MotorControl/MCSDK/MCLib/Any/Src/revup_ctrl.c **** 
 150:MCSDK_v6.3.2-Full/MotorControl/MCSDK/MCLib/Any/Src/revup_ctrl.c ****       pHandle->bResetPLLTh = (uint8_t)((RUC_OTF_PLL_RESET_TIMEOUT * pHandle->hRUCFrequencyHz) / 100
 109              		.loc 1 150 76 is_stmt 0 view .LVU41
 110 002e 0388     		ldrh	r3, [r0]
ARM GAS  /tmp/ccZpGKc6.s 			page 6


 111              		.loc 1 150 95 view .LVU42
 112 0030 0E4C     		ldr	r4, .L11
 113              		.loc 1 150 67 view .LVU43
 114 0032 4FF0640C 		mov	ip, #100
 115 0036 0CFB03F3 		mul	r3, ip, r3
 146:MCSDK_v6.3.2-Full/MotorControl/MCSDK/MCLib/Any/Src/revup_ctrl.c **** 
 116              		.loc 1 146 46 view .LVU44
 117 003a 02EB4202 		add	r2, r2, r2, lsl #1
 118              		.loc 1 150 95 view .LVU45
 119 003e A4FB0343 		umull	r4, r3, r4, r3
 146:MCSDK_v6.3.2-Full/MotorControl/MCSDK/MCLib/Any/Src/revup_ctrl.c **** 
 120              		.loc 1 146 46 view .LVU46
 121 0042 00EB8202 		add	r2, r0, r2, lsl #2
 122 0046 0024     		movs	r4, #0
 123              		.loc 1 150 95 view .LVU47
 124 0048 9B09     		lsrs	r3, r3, #6
 146:MCSDK_v6.3.2-Full/MotorControl/MCSDK/MCLib/Any/Src/revup_ctrl.c **** 
 125              		.loc 1 146 46 view .LVU48
 126 004a 5461     		str	r4, [r2, #20]
 148:MCSDK_v6.3.2-Full/MotorControl/MCSDK/MCLib/Any/Src/revup_ctrl.c **** 
 127              		.loc 1 148 7 is_stmt 1 view .LVU49
 151:MCSDK_v6.3.2-Full/MotorControl/MCSDK/MCLib/Any/Src/revup_ctrl.c ****     }
 152:MCSDK_v6.3.2-Full/MotorControl/MCSDK/MCLib/Any/Src/revup_ctrl.c **** #ifdef NULL_PTR_CHECK_REV_UP_CTL
 153:MCSDK_v6.3.2-Full/MotorControl/MCSDK/MCLib/Any/Src/revup_ctrl.c ****   }
 154:MCSDK_v6.3.2-Full/MotorControl/MCSDK/MCLib/Any/Src/revup_ctrl.c **** #endif
 155:MCSDK_v6.3.2-Full/MotorControl/MCSDK/MCLib/Any/Src/revup_ctrl.c **** }
 128              		.loc 1 155 1 is_stmt 0 view .LVU50
 129 004c 5DF8044B 		ldr	r4, [sp], #4
 130              	.LCFI1:
 131              		.cfi_remember_state
 132              		.cfi_restore 4
 133              		.cfi_def_cfa_offset 0
 134              	.LVL10:
 148:MCSDK_v6.3.2-Full/MotorControl/MCSDK/MCLib/Any/Src/revup_ctrl.c **** 
 135              		.loc 1 148 26 view .LVU51
 136 0050 80F84810 		strb	r1, [r0, #72]
 150:MCSDK_v6.3.2-Full/MotorControl/MCSDK/MCLib/Any/Src/revup_ctrl.c ****     }
 137              		.loc 1 150 7 is_stmt 1 view .LVU52
 150:MCSDK_v6.3.2-Full/MotorControl/MCSDK/MCLib/Any/Src/revup_ctrl.c ****     }
 138              		.loc 1 150 30 is_stmt 0 view .LVU53
 139 0054 80F85630 		strb	r3, [r0, #86]
 140              		.loc 1 155 1 view .LVU54
 141 0058 7047     		bx	lr
 142              	.LVL11:
 143              	.L4:
 144              	.LCFI2:
 145              		.cfi_restore_state
 137:MCSDK_v6.3.2-Full/MotorControl/MCSDK/MCLib/Any/Src/revup_ctrl.c ****     }
 146              		.loc 1 137 13 view .LVU55
 147 005a 0121     		movs	r1, #1
 148              	.LVL12:
 149              	.L2:
 146:MCSDK_v6.3.2-Full/MotorControl/MCSDK/MCLib/Any/Src/revup_ctrl.c **** 
 150              		.loc 1 146 34 view .LVU56
 151 005c 4A1E     		subs	r2, r1, #1
 152              	.LVL13:
 146:MCSDK_v6.3.2-Full/MotorControl/MCSDK/MCLib/Any/Src/revup_ctrl.c **** 
ARM GAS  /tmp/ccZpGKc6.s 			page 7


 153              		.loc 1 146 34 view .LVU57
 154 005e E6E7     		b	.L3
 155              	.LVL14:
 156              	.L5:
 137:MCSDK_v6.3.2-Full/MotorControl/MCSDK/MCLib/Any/Src/revup_ctrl.c ****     }
 157              		.loc 1 137 13 view .LVU58
 158 0060 0221     		movs	r1, #2
 159 0062 FBE7     		b	.L2
 160              	.LVL15:
 161              	.L6:
 137:MCSDK_v6.3.2-Full/MotorControl/MCSDK/MCLib/Any/Src/revup_ctrl.c ****     }
 162              		.loc 1 137 13 view .LVU59
 163 0064 0321     		movs	r1, #3
 164 0066 F9E7     		b	.L2
 165              	.LVL16:
 166              	.L7:
 137:MCSDK_v6.3.2-Full/MotorControl/MCSDK/MCLib/Any/Src/revup_ctrl.c ****     }
 167              		.loc 1 137 13 view .LVU60
 168 0068 0421     		movs	r1, #4
 169 006a F7E7     		b	.L2
 170              	.L12:
 171              		.align	2
 172              	.L11:
 173 006c D34D6210 		.word	274877907
 174              		.cfi_endproc
 175              	.LFE1457:
 177              		.section	.text.RUC_Clear,"ax",%progbits
 178              		.align	1
 179              		.p2align 2,,3
 180              		.weak	RUC_Clear
 181              		.syntax unified
 182              		.thumb
 183              		.thumb_func
 184              		.fpu fpv4-sp-d16
 186              	RUC_Clear:
 187              	.LVL17:
 188              	.LFB1458:
 156:MCSDK_v6.3.2-Full/MotorControl/MCSDK/MCLib/Any/Src/revup_ctrl.c **** 
 157:MCSDK_v6.3.2-Full/MotorControl/MCSDK/MCLib/Any/Src/revup_ctrl.c **** /**
 158:MCSDK_v6.3.2-Full/MotorControl/MCSDK/MCLib/Any/Src/revup_ctrl.c ****   * @brief  Initialize internal FOC RevUp controller state.
 159:MCSDK_v6.3.2-Full/MotorControl/MCSDK/MCLib/Any/Src/revup_ctrl.c ****   * @param  pHandle: Pointer on Handle structure of RevUp controller.
 160:MCSDK_v6.3.2-Full/MotorControl/MCSDK/MCLib/Any/Src/revup_ctrl.c ****   * @param  hMotorDirection: Rotor rotation direction.
 161:MCSDK_v6.3.2-Full/MotorControl/MCSDK/MCLib/Any/Src/revup_ctrl.c ****   *         This parameter must be -1 or +1.
 162:MCSDK_v6.3.2-Full/MotorControl/MCSDK/MCLib/Any/Src/revup_ctrl.c ****   */
 163:MCSDK_v6.3.2-Full/MotorControl/MCSDK/MCLib/Any/Src/revup_ctrl.c **** __weak void RUC_Clear(RevUpCtrl_Handle_t *pHandle, int16_t hMotorDirection)
 164:MCSDK_v6.3.2-Full/MotorControl/MCSDK/MCLib/Any/Src/revup_ctrl.c **** {
 189              		.loc 1 164 1 is_stmt 1 view -0
 190              		.cfi_startproc
 191              		@ args = 0, pretend = 0, frame = 0
 192              		@ frame_needed = 0, uses_anonymous_args = 0
 165:MCSDK_v6.3.2-Full/MotorControl/MCSDK/MCLib/Any/Src/revup_ctrl.c **** #ifdef NULL_PTR_CHECK_REV_UP_CTL
 166:MCSDK_v6.3.2-Full/MotorControl/MCSDK/MCLib/Any/Src/revup_ctrl.c ****   if (MC_NULL == pHandle)
 167:MCSDK_v6.3.2-Full/MotorControl/MCSDK/MCLib/Any/Src/revup_ctrl.c ****   {
 168:MCSDK_v6.3.2-Full/MotorControl/MCSDK/MCLib/Any/Src/revup_ctrl.c ****     /* Nothing to do */
 169:MCSDK_v6.3.2-Full/MotorControl/MCSDK/MCLib/Any/Src/revup_ctrl.c ****   }
 170:MCSDK_v6.3.2-Full/MotorControl/MCSDK/MCLib/Any/Src/revup_ctrl.c ****   else
 171:MCSDK_v6.3.2-Full/MotorControl/MCSDK/MCLib/Any/Src/revup_ctrl.c ****   {
ARM GAS  /tmp/ccZpGKc6.s 			page 8


 172:MCSDK_v6.3.2-Full/MotorControl/MCSDK/MCLib/Any/Src/revup_ctrl.c **** #endif
 173:MCSDK_v6.3.2-Full/MotorControl/MCSDK/MCLib/Any/Src/revup_ctrl.c ****     VirtualSpeedSensor_Handle_t *pVSS = pHandle->pVSS;
 193              		.loc 1 173 5 view .LVU62
 164:MCSDK_v6.3.2-Full/MotorControl/MCSDK/MCLib/Any/Src/revup_ctrl.c **** #ifdef NULL_PTR_CHECK_REV_UP_CTL
 194              		.loc 1 164 1 is_stmt 0 view .LVU63
 195 0000 2DE9F041 		push	{r4, r5, r6, r7, r8, lr}
 196              	.LCFI3:
 197              		.cfi_def_cfa_offset 24
 198              		.cfi_offset 4, -24
 199              		.cfi_offset 5, -20
 200              		.cfi_offset 6, -16
 201              		.cfi_offset 7, -12
 202              		.cfi_offset 8, -8
 203              		.cfi_offset 14, -4
 204              		.loc 1 173 34 view .LVU64
 205 0004 C76E     		ldr	r7, [r0, #108]
 206              	.LVL18:
 174:MCSDK_v6.3.2-Full/MotorControl/MCSDK/MCLib/Any/Src/revup_ctrl.c ****     SpeednTorqCtrl_Handle_t *pSTC = pHandle->pSTC;
 207              		.loc 1 174 5 is_stmt 1 view .LVU65
 208              		.loc 1 174 30 is_stmt 0 view .LVU66
 209 0006 D0F86880 		ldr	r8, [r0, #104]
 210              	.LVL19:
 175:MCSDK_v6.3.2-Full/MotorControl/MCSDK/MCLib/Any/Src/revup_ctrl.c ****     RevUpCtrl_PhaseParams_t *pPhaseParams = pHandle->ParamsData;
 211              		.loc 1 175 5 is_stmt 1 view .LVU67
 176:MCSDK_v6.3.2-Full/MotorControl/MCSDK/MCLib/Any/Src/revup_ctrl.c **** 
 177:MCSDK_v6.3.2-Full/MotorControl/MCSDK/MCLib/Any/Src/revup_ctrl.c ****     pHandle->hDirection = hMotorDirection;
 212              		.loc 1 177 5 view .LVU68
 213              		.loc 1 177 25 is_stmt 0 view .LVU69
 214 000a C180     		strh	r1, [r0, #6]	@ movhi
 178:MCSDK_v6.3.2-Full/MotorControl/MCSDK/MCLib/Any/Src/revup_ctrl.c ****     pHandle->EnteredZone1 = false;
 215              		.loc 1 178 5 is_stmt 1 view .LVU70
 179:MCSDK_v6.3.2-Full/MotorControl/MCSDK/MCLib/Any/Src/revup_ctrl.c **** 
 180:MCSDK_v6.3.2-Full/MotorControl/MCSDK/MCLib/Any/Src/revup_ctrl.c ****     /* Initializes the rev up stages counter */
 181:MCSDK_v6.3.2-Full/MotorControl/MCSDK/MCLib/Any/Src/revup_ctrl.c ****     pHandle->bStageCnt = 0U;
 216              		.loc 1 181 5 view .LVU71
 217              		.loc 1 181 24 is_stmt 0 view .LVU72
 218 000c 0025     		movs	r5, #0
 164:MCSDK_v6.3.2-Full/MotorControl/MCSDK/MCLib/Any/Src/revup_ctrl.c **** #ifdef NULL_PTR_CHECK_REV_UP_CTL
 219              		.loc 1 164 1 view .LVU73
 220 000e 0446     		mov	r4, r0
 221              		.loc 1 181 24 view .LVU74
 222 0010 80F85850 		strb	r5, [r0, #88]
 182:MCSDK_v6.3.2-Full/MotorControl/MCSDK/MCLib/Any/Src/revup_ctrl.c ****     pHandle->bOTFRelCounter = 0U;
 223              		.loc 1 182 5 is_stmt 1 view .LVU75
 224              		.loc 1 182 29 is_stmt 0 view .LVU76
 225 0014 80F85350 		strb	r5, [r0, #83]
 183:MCSDK_v6.3.2-Full/MotorControl/MCSDK/MCLib/Any/Src/revup_ctrl.c ****     pHandle->OTFSCLowside = false;
 226              		.loc 1 183 5 is_stmt 1 view .LVU77
 227              		.loc 1 183 27 is_stmt 0 view .LVU78
 228 0018 A0F85450 		strh	r5, [r0, #84]	@ movhi
 184:MCSDK_v6.3.2-Full/MotorControl/MCSDK/MCLib/Any/Src/revup_ctrl.c **** 
 185:MCSDK_v6.3.2-Full/MotorControl/MCSDK/MCLib/Any/Src/revup_ctrl.c ****     /* Calls the clear method of VSS */
 186:MCSDK_v6.3.2-Full/MotorControl/MCSDK/MCLib/Any/Src/revup_ctrl.c ****     VSS_Clear(pVSS);
 229              		.loc 1 186 5 is_stmt 1 view .LVU79
 230 001c 3846     		mov	r0, r7
 231              	.LVL20:
 187:MCSDK_v6.3.2-Full/MotorControl/MCSDK/MCLib/Any/Src/revup_ctrl.c **** 
ARM GAS  /tmp/ccZpGKc6.s 			page 9


 188:MCSDK_v6.3.2-Full/MotorControl/MCSDK/MCLib/Any/Src/revup_ctrl.c ****     /* Sets the STC in torque mode */
 189:MCSDK_v6.3.2-Full/MotorControl/MCSDK/MCLib/Any/Src/revup_ctrl.c ****     STC_SetControlMode(pSTC, MCM_TORQUE_MODE);
 190:MCSDK_v6.3.2-Full/MotorControl/MCSDK/MCLib/Any/Src/revup_ctrl.c **** 
 191:MCSDK_v6.3.2-Full/MotorControl/MCSDK/MCLib/Any/Src/revup_ctrl.c ****     /* Sets the mechanical starting angle of VSS */
 192:MCSDK_v6.3.2-Full/MotorControl/MCSDK/MCLib/Any/Src/revup_ctrl.c ****     VSS_SetMecAngle(pVSS, pHandle->hStartingMecAngle * hMotorDirection);
 232              		.loc 1 192 54 is_stmt 0 view .LVU80
 233 001e 8EB2     		uxth	r6, r1
 186:MCSDK_v6.3.2-Full/MotorControl/MCSDK/MCLib/Any/Src/revup_ctrl.c **** 
 234              		.loc 1 186 5 view .LVU81
 235 0020 FFF7FEFF 		bl	VSS_Clear
 236              	.LVL21:
 189:MCSDK_v6.3.2-Full/MotorControl/MCSDK/MCLib/Any/Src/revup_ctrl.c **** 
 237              		.loc 1 189 5 is_stmt 1 view .LVU82
 238 0024 0421     		movs	r1, #4
 239 0026 4046     		mov	r0, r8
 240 0028 FFF7FEFF 		bl	STC_SetControlMode
 241              	.LVL22:
 242              		.loc 1 192 5 view .LVU83
 243              		.loc 1 192 54 is_stmt 0 view .LVU84
 244 002c 6388     		ldrh	r3, [r4, #2]
 245              	.LBB11:
 246              	.LBB12:
 247              		.file 2 "MCSDK_v6.3.2-Full/MotorControl/MCSDK/MCLib/Any/Inc/virtual_speed_sensor.h"
   1:MCSDK_v6.3.2-Full/MotorControl/MCSDK/MCLib/Any/Inc/virtual_speed_sensor.h **** /**
   2:MCSDK_v6.3.2-Full/MotorControl/MCSDK/MCLib/Any/Inc/virtual_speed_sensor.h ****   ******************************************************************************
   3:MCSDK_v6.3.2-Full/MotorControl/MCSDK/MCLib/Any/Inc/virtual_speed_sensor.h ****   * @file    virtual_speed_sensor.h
   4:MCSDK_v6.3.2-Full/MotorControl/MCSDK/MCLib/Any/Inc/virtual_speed_sensor.h ****   * @author  Motor Control SDK Team, ST Microelectronics
   5:MCSDK_v6.3.2-Full/MotorControl/MCSDK/MCLib/Any/Inc/virtual_speed_sensor.h ****   * @brief   This file contains all definitions and functions prototypes for the
   6:MCSDK_v6.3.2-Full/MotorControl/MCSDK/MCLib/Any/Inc/virtual_speed_sensor.h ****   *          Virtual Speed Sensor component of the Motor Control SDK.
   7:MCSDK_v6.3.2-Full/MotorControl/MCSDK/MCLib/Any/Inc/virtual_speed_sensor.h ****   ******************************************************************************
   8:MCSDK_v6.3.2-Full/MotorControl/MCSDK/MCLib/Any/Inc/virtual_speed_sensor.h ****   * @attention
   9:MCSDK_v6.3.2-Full/MotorControl/MCSDK/MCLib/Any/Inc/virtual_speed_sensor.h ****   *
  10:MCSDK_v6.3.2-Full/MotorControl/MCSDK/MCLib/Any/Inc/virtual_speed_sensor.h ****   * <h2><center>&copy; Copyright (c) 2024 STMicroelectronics.
  11:MCSDK_v6.3.2-Full/MotorControl/MCSDK/MCLib/Any/Inc/virtual_speed_sensor.h ****   * All rights reserved.</center></h2>
  12:MCSDK_v6.3.2-Full/MotorControl/MCSDK/MCLib/Any/Inc/virtual_speed_sensor.h ****   *
  13:MCSDK_v6.3.2-Full/MotorControl/MCSDK/MCLib/Any/Inc/virtual_speed_sensor.h ****   * This software component is licensed by ST under Ultimate Liberty license
  14:MCSDK_v6.3.2-Full/MotorControl/MCSDK/MCLib/Any/Inc/virtual_speed_sensor.h ****   * SLA0044, the "License"; You may not use this file except in compliance with
  15:MCSDK_v6.3.2-Full/MotorControl/MCSDK/MCLib/Any/Inc/virtual_speed_sensor.h ****   * the License. You may obtain a copy of the License at:
  16:MCSDK_v6.3.2-Full/MotorControl/MCSDK/MCLib/Any/Inc/virtual_speed_sensor.h ****   *                             www.st.com/SLA0044
  17:MCSDK_v6.3.2-Full/MotorControl/MCSDK/MCLib/Any/Inc/virtual_speed_sensor.h ****   *
  18:MCSDK_v6.3.2-Full/MotorControl/MCSDK/MCLib/Any/Inc/virtual_speed_sensor.h ****   ******************************************************************************
  19:MCSDK_v6.3.2-Full/MotorControl/MCSDK/MCLib/Any/Inc/virtual_speed_sensor.h ****   * @ingroup VirtualSpeedSensor
  20:MCSDK_v6.3.2-Full/MotorControl/MCSDK/MCLib/Any/Inc/virtual_speed_sensor.h ****   */
  21:MCSDK_v6.3.2-Full/MotorControl/MCSDK/MCLib/Any/Inc/virtual_speed_sensor.h **** /* Define to prevent recursive inclusion -------------------------------------*/
  22:MCSDK_v6.3.2-Full/MotorControl/MCSDK/MCLib/Any/Inc/virtual_speed_sensor.h **** #ifndef VIRTUALSPEEDSENSOR_H
  23:MCSDK_v6.3.2-Full/MotorControl/MCSDK/MCLib/Any/Inc/virtual_speed_sensor.h **** #define VIRTUALSPEEDSENSOR_H
  24:MCSDK_v6.3.2-Full/MotorControl/MCSDK/MCLib/Any/Inc/virtual_speed_sensor.h **** 
  25:MCSDK_v6.3.2-Full/MotorControl/MCSDK/MCLib/Any/Inc/virtual_speed_sensor.h **** #ifdef __cplusplus
  26:MCSDK_v6.3.2-Full/MotorControl/MCSDK/MCLib/Any/Inc/virtual_speed_sensor.h **** extern "C" {
  27:MCSDK_v6.3.2-Full/MotorControl/MCSDK/MCLib/Any/Inc/virtual_speed_sensor.h **** #endif /* __cplusplus */
  28:MCSDK_v6.3.2-Full/MotorControl/MCSDK/MCLib/Any/Inc/virtual_speed_sensor.h **** 
  29:MCSDK_v6.3.2-Full/MotorControl/MCSDK/MCLib/Any/Inc/virtual_speed_sensor.h **** /* Includes ------------------------------------------------------------------*/
  30:MCSDK_v6.3.2-Full/MotorControl/MCSDK/MCLib/Any/Inc/virtual_speed_sensor.h **** #include "speed_pos_fdbk.h"
  31:MCSDK_v6.3.2-Full/MotorControl/MCSDK/MCLib/Any/Inc/virtual_speed_sensor.h **** 
  32:MCSDK_v6.3.2-Full/MotorControl/MCSDK/MCLib/Any/Inc/virtual_speed_sensor.h **** /** @addtogroup MCSDK
  33:MCSDK_v6.3.2-Full/MotorControl/MCSDK/MCLib/Any/Inc/virtual_speed_sensor.h ****   * @{
  34:MCSDK_v6.3.2-Full/MotorControl/MCSDK/MCLib/Any/Inc/virtual_speed_sensor.h ****   */
ARM GAS  /tmp/ccZpGKc6.s 			page 10


  35:MCSDK_v6.3.2-Full/MotorControl/MCSDK/MCLib/Any/Inc/virtual_speed_sensor.h **** 
  36:MCSDK_v6.3.2-Full/MotorControl/MCSDK/MCLib/Any/Inc/virtual_speed_sensor.h **** /** @addtogroup SpeednPosFdbk
  37:MCSDK_v6.3.2-Full/MotorControl/MCSDK/MCLib/Any/Inc/virtual_speed_sensor.h ****   * @{
  38:MCSDK_v6.3.2-Full/MotorControl/MCSDK/MCLib/Any/Inc/virtual_speed_sensor.h ****   */
  39:MCSDK_v6.3.2-Full/MotorControl/MCSDK/MCLib/Any/Inc/virtual_speed_sensor.h **** 
  40:MCSDK_v6.3.2-Full/MotorControl/MCSDK/MCLib/Any/Inc/virtual_speed_sensor.h **** /** @addtogroup VirtualSpeedSensor
  41:MCSDK_v6.3.2-Full/MotorControl/MCSDK/MCLib/Any/Inc/virtual_speed_sensor.h ****   * @{
  42:MCSDK_v6.3.2-Full/MotorControl/MCSDK/MCLib/Any/Inc/virtual_speed_sensor.h ****   */
  43:MCSDK_v6.3.2-Full/MotorControl/MCSDK/MCLib/Any/Inc/virtual_speed_sensor.h **** 
  44:MCSDK_v6.3.2-Full/MotorControl/MCSDK/MCLib/Any/Inc/virtual_speed_sensor.h **** /* Exported types ------------------------------------------------------------*/
  45:MCSDK_v6.3.2-Full/MotorControl/MCSDK/MCLib/Any/Inc/virtual_speed_sensor.h **** 
  46:MCSDK_v6.3.2-Full/MotorControl/MCSDK/MCLib/Any/Inc/virtual_speed_sensor.h **** /**
  47:MCSDK_v6.3.2-Full/MotorControl/MCSDK/MCLib/Any/Inc/virtual_speed_sensor.h ****   * @brief  This structure is used to handle an instance of the Virtual Speed
  48:MCSDK_v6.3.2-Full/MotorControl/MCSDK/MCLib/Any/Inc/virtual_speed_sensor.h ****   *         sensor component.
  49:MCSDK_v6.3.2-Full/MotorControl/MCSDK/MCLib/Any/Inc/virtual_speed_sensor.h ****   */
  50:MCSDK_v6.3.2-Full/MotorControl/MCSDK/MCLib/Any/Inc/virtual_speed_sensor.h **** typedef struct
  51:MCSDK_v6.3.2-Full/MotorControl/MCSDK/MCLib/Any/Inc/virtual_speed_sensor.h **** {
  52:MCSDK_v6.3.2-Full/MotorControl/MCSDK/MCLib/Any/Inc/virtual_speed_sensor.h ****   SpeednPosFdbk_Handle_t _Super;
  53:MCSDK_v6.3.2-Full/MotorControl/MCSDK/MCLib/Any/Inc/virtual_speed_sensor.h ****   int32_t wElAccDppP32;              /*!< Delta electrical speed expressed in [dpp](measurement_uni
  54:MCSDK_v6.3.2-Full/MotorControl/MCSDK/MCLib/Any/Inc/virtual_speed_sensor.h ****                                           sampling period to be applied each time is called
  55:MCSDK_v6.3.2-Full/MotorControl/MCSDK/MCLib/Any/Inc/virtual_speed_sensor.h ****                                           SPD_calcAvrgMecSpeedUnit multiplied by scaling
  56:MCSDK_v6.3.2-Full/MotorControl/MCSDK/MCLib/Any/Inc/virtual_speed_sensor.h ****                                           factor of 65536. */
  57:MCSDK_v6.3.2-Full/MotorControl/MCSDK/MCLib/Any/Inc/virtual_speed_sensor.h ****   int32_t wElSpeedDpp32;             /*!< Electrical speed expressed in [dpp](measurement_units.md)
  58:MCSDK_v6.3.2-Full/MotorControl/MCSDK/MCLib/Any/Inc/virtual_speed_sensor.h ****                                           scaling factor 65536. */
  59:MCSDK_v6.3.2-Full/MotorControl/MCSDK/MCLib/Any/Inc/virtual_speed_sensor.h ****   uint16_t hRemainingStep;           /*!< Number of steps remaining to reach the final
  60:MCSDK_v6.3.2-Full/MotorControl/MCSDK/MCLib/Any/Inc/virtual_speed_sensor.h ****                                           speed. */
  61:MCSDK_v6.3.2-Full/MotorControl/MCSDK/MCLib/Any/Inc/virtual_speed_sensor.h ****   int16_t hFinalMecSpeedUnit;        /*!< Backup of hFinalMecSpeedUnit to be applied in
  62:MCSDK_v6.3.2-Full/MotorControl/MCSDK/MCLib/Any/Inc/virtual_speed_sensor.h ****                                           the last step.*/
  63:MCSDK_v6.3.2-Full/MotorControl/MCSDK/MCLib/Any/Inc/virtual_speed_sensor.h ****   bool bTransitionStarted;           /*!< Retaining information about started Transition status.*/
  64:MCSDK_v6.3.2-Full/MotorControl/MCSDK/MCLib/Any/Inc/virtual_speed_sensor.h ****   bool bTransitionEnded;             /*!< Retaining information about ended transition status.*/
  65:MCSDK_v6.3.2-Full/MotorControl/MCSDK/MCLib/Any/Inc/virtual_speed_sensor.h ****   int16_t hTransitionRemainingSteps; /*!< Number of steps remaining to end
  66:MCSDK_v6.3.2-Full/MotorControl/MCSDK/MCLib/Any/Inc/virtual_speed_sensor.h ****                                           transition from Virtual Speed Sensor module to other spee
  67:MCSDK_v6.3.2-Full/MotorControl/MCSDK/MCLib/Any/Inc/virtual_speed_sensor.h ****   int16_t hElAngleAccu;              /*!< Electrical angle accumulator */
  68:MCSDK_v6.3.2-Full/MotorControl/MCSDK/MCLib/Any/Inc/virtual_speed_sensor.h ****   bool bTransitionLocked;            /*!< Transition acceleration started */
  69:MCSDK_v6.3.2-Full/MotorControl/MCSDK/MCLib/Any/Inc/virtual_speed_sensor.h ****   bool bCopyObserver;                /*!< Command to set Virtual Speed Sensor module output same as
  70:MCSDK_v6.3.2-Full/MotorControl/MCSDK/MCLib/Any/Inc/virtual_speed_sensor.h **** 
  71:MCSDK_v6.3.2-Full/MotorControl/MCSDK/MCLib/Any/Inc/virtual_speed_sensor.h ****   uint16_t hSpeedSamplingFreqHz;     /*!< Frequency (Hz) at which motor speed is to
  72:MCSDK_v6.3.2-Full/MotorControl/MCSDK/MCLib/Any/Inc/virtual_speed_sensor.h ****                                           be computed. It must be equal to the frequency
  73:MCSDK_v6.3.2-Full/MotorControl/MCSDK/MCLib/Any/Inc/virtual_speed_sensor.h ****                                           at which function SPD_calcAvrgMecSpeedUnit
  74:MCSDK_v6.3.2-Full/MotorControl/MCSDK/MCLib/Any/Inc/virtual_speed_sensor.h ****                                           is called. */
  75:MCSDK_v6.3.2-Full/MotorControl/MCSDK/MCLib/Any/Inc/virtual_speed_sensor.h ****   int16_t hTransitionSteps;          /*< Number of steps to perform the transition phase
  76:MCSDK_v6.3.2-Full/MotorControl/MCSDK/MCLib/Any/Inc/virtual_speed_sensor.h ****                                          from from Virtual Speed Sensor module to other speed senso
  77:MCSDK_v6.3.2-Full/MotorControl/MCSDK/MCLib/Any/Inc/virtual_speed_sensor.h ****                                          If the Transition PHase should last TPH milliseconds, and 
  78:MCSDK_v6.3.2-Full/MotorControl/MCSDK/MCLib/Any/Inc/virtual_speed_sensor.h ****                                          Frequency is set to FEF kHz, then #hTransitionSteps = TPH 
  79:MCSDK_v6.3.2-Full/MotorControl/MCSDK/MCLib/Any/Inc/virtual_speed_sensor.h **** } VirtualSpeedSensor_Handle_t;
  80:MCSDK_v6.3.2-Full/MotorControl/MCSDK/MCLib/Any/Inc/virtual_speed_sensor.h **** 
  81:MCSDK_v6.3.2-Full/MotorControl/MCSDK/MCLib/Any/Inc/virtual_speed_sensor.h **** /* It initializes the Virtual Speed Sensor component */
  82:MCSDK_v6.3.2-Full/MotorControl/MCSDK/MCLib/Any/Inc/virtual_speed_sensor.h **** void VSS_Init(VirtualSpeedSensor_Handle_t *pHandle);
  83:MCSDK_v6.3.2-Full/MotorControl/MCSDK/MCLib/Any/Inc/virtual_speed_sensor.h **** 
  84:MCSDK_v6.3.2-Full/MotorControl/MCSDK/MCLib/Any/Inc/virtual_speed_sensor.h **** /* It clears Virtual Speed Sensor by re-initializing private variables*/
  85:MCSDK_v6.3.2-Full/MotorControl/MCSDK/MCLib/Any/Inc/virtual_speed_sensor.h **** void VSS_Clear(VirtualSpeedSensor_Handle_t *pHandle);
  86:MCSDK_v6.3.2-Full/MotorControl/MCSDK/MCLib/Any/Inc/virtual_speed_sensor.h **** 
  87:MCSDK_v6.3.2-Full/MotorControl/MCSDK/MCLib/Any/Inc/virtual_speed_sensor.h **** /* It compute a theorical speed and update the theorical electrical angle */
  88:MCSDK_v6.3.2-Full/MotorControl/MCSDK/MCLib/Any/Inc/virtual_speed_sensor.h **** int16_t VSS_CalcElAngle(VirtualSpeedSensor_Handle_t *pHandle, int16_t *pInputVars_str);
  89:MCSDK_v6.3.2-Full/MotorControl/MCSDK/MCLib/Any/Inc/virtual_speed_sensor.h **** 
  90:MCSDK_v6.3.2-Full/MotorControl/MCSDK/MCLib/Any/Inc/virtual_speed_sensor.h **** /* Computes the rotor average theoretical mechanical speed in the unit defined by SPEED_UNIT and
  91:MCSDK_v6.3.2-Full/MotorControl/MCSDK/MCLib/Any/Inc/virtual_speed_sensor.h ****  * returns it in pMecSpeedUnit */
ARM GAS  /tmp/ccZpGKc6.s 			page 11


  92:MCSDK_v6.3.2-Full/MotorControl/MCSDK/MCLib/Any/Inc/virtual_speed_sensor.h **** bool VSS_CalcAvrgMecSpeedUnit(VirtualSpeedSensor_Handle_t *pHandle, int16_t *hMecSpeedUnit);
  93:MCSDK_v6.3.2-Full/MotorControl/MCSDK/MCLib/Any/Inc/virtual_speed_sensor.h **** 
  94:MCSDK_v6.3.2-Full/MotorControl/MCSDK/MCLib/Any/Inc/virtual_speed_sensor.h **** /* Set the mechanical acceleration of virtual sensor */
  95:MCSDK_v6.3.2-Full/MotorControl/MCSDK/MCLib/Any/Inc/virtual_speed_sensor.h **** void  VSS_SetMecAcceleration(VirtualSpeedSensor_Handle_t *pHandle, int16_t  hFinalMecSpeedUnit, uin
  96:MCSDK_v6.3.2-Full/MotorControl/MCSDK/MCLib/Any/Inc/virtual_speed_sensor.h **** /* Checks if the ramp executed after a VSPD_SetMecAcceleration command has been completed */
  97:MCSDK_v6.3.2-Full/MotorControl/MCSDK/MCLib/Any/Inc/virtual_speed_sensor.h **** bool VSS_RampCompleted(VirtualSpeedSensor_Handle_t *pHandle);
  98:MCSDK_v6.3.2-Full/MotorControl/MCSDK/MCLib/Any/Inc/virtual_speed_sensor.h **** 
  99:MCSDK_v6.3.2-Full/MotorControl/MCSDK/MCLib/Any/Inc/virtual_speed_sensor.h **** /* Get the final speed of last setled ramp of virtual sensor expressed in 0.1Hz */
 100:MCSDK_v6.3.2-Full/MotorControl/MCSDK/MCLib/Any/Inc/virtual_speed_sensor.h **** int16_t  VSS_GetLastRampFinalSpeed(VirtualSpeedSensor_Handle_t *pHandle);
 101:MCSDK_v6.3.2-Full/MotorControl/MCSDK/MCLib/Any/Inc/virtual_speed_sensor.h **** 
 102:MCSDK_v6.3.2-Full/MotorControl/MCSDK/MCLib/Any/Inc/virtual_speed_sensor.h **** /* Set the command to Start the transition phase from VirtualSpeedSensor to other SpeedSensor */
 103:MCSDK_v6.3.2-Full/MotorControl/MCSDK/MCLib/Any/Inc/virtual_speed_sensor.h **** bool VSS_SetStartTransition(VirtualSpeedSensor_Handle_t *pHandle, bool bCommand);
 104:MCSDK_v6.3.2-Full/MotorControl/MCSDK/MCLib/Any/Inc/virtual_speed_sensor.h **** 
 105:MCSDK_v6.3.2-Full/MotorControl/MCSDK/MCLib/Any/Inc/virtual_speed_sensor.h **** /* Return the status of the transition phase */
 106:MCSDK_v6.3.2-Full/MotorControl/MCSDK/MCLib/Any/Inc/virtual_speed_sensor.h **** bool VSS_IsTransitionOngoing(VirtualSpeedSensor_Handle_t *pHandle);
 107:MCSDK_v6.3.2-Full/MotorControl/MCSDK/MCLib/Any/Inc/virtual_speed_sensor.h **** 
 108:MCSDK_v6.3.2-Full/MotorControl/MCSDK/MCLib/Any/Inc/virtual_speed_sensor.h **** bool VSS_TransitionEnded(VirtualSpeedSensor_Handle_t *pHandle);
 109:MCSDK_v6.3.2-Full/MotorControl/MCSDK/MCLib/Any/Inc/virtual_speed_sensor.h **** 
 110:MCSDK_v6.3.2-Full/MotorControl/MCSDK/MCLib/Any/Inc/virtual_speed_sensor.h **** /* It sets istantaneous information on rotor electrical angle */
 111:MCSDK_v6.3.2-Full/MotorControl/MCSDK/MCLib/Any/Inc/virtual_speed_sensor.h **** void VSS_SetElAngle(VirtualSpeedSensor_Handle_t *pHandle, int16_t hElAngle);
 112:MCSDK_v6.3.2-Full/MotorControl/MCSDK/MCLib/Any/Inc/virtual_speed_sensor.h **** 
 113:MCSDK_v6.3.2-Full/MotorControl/MCSDK/MCLib/Any/Inc/virtual_speed_sensor.h **** /**
 114:MCSDK_v6.3.2-Full/MotorControl/MCSDK/MCLib/Any/Inc/virtual_speed_sensor.h ****   * @brief  Sets instantaneous information on VSS mechanical and electrical angle.
 115:MCSDK_v6.3.2-Full/MotorControl/MCSDK/MCLib/Any/Inc/virtual_speed_sensor.h ****   * @param  pHandle: handler of the current instance of the VirtualSpeedSensor component.
 116:MCSDK_v6.3.2-Full/MotorControl/MCSDK/MCLib/Any/Inc/virtual_speed_sensor.h ****   * @param  hMecAngle: instantaneous measure of rotor mechanical angle.
 117:MCSDK_v6.3.2-Full/MotorControl/MCSDK/MCLib/Any/Inc/virtual_speed_sensor.h ****   * @retval none
 118:MCSDK_v6.3.2-Full/MotorControl/MCSDK/MCLib/Any/Inc/virtual_speed_sensor.h ****   *
 119:MCSDK_v6.3.2-Full/MotorControl/MCSDK/MCLib/Any/Inc/virtual_speed_sensor.h ****   * - Called during @ref RevUpCtrl "Rev-Up Control" and
 120:MCSDK_v6.3.2-Full/MotorControl/MCSDK/MCLib/Any/Inc/virtual_speed_sensor.h ****   * @ref EncAlignCtrl "Encoder Alignment Controller procedure" initialization.
 121:MCSDK_v6.3.2-Full/MotorControl/MCSDK/MCLib/Any/Inc/virtual_speed_sensor.h ****   */
 122:MCSDK_v6.3.2-Full/MotorControl/MCSDK/MCLib/Any/Inc/virtual_speed_sensor.h **** static inline void VSS_SetMecAngle(VirtualSpeedSensor_Handle_t *pHandle, int16_t hMecAngle)
 123:MCSDK_v6.3.2-Full/MotorControl/MCSDK/MCLib/Any/Inc/virtual_speed_sensor.h **** {
 124:MCSDK_v6.3.2-Full/MotorControl/MCSDK/MCLib/Any/Inc/virtual_speed_sensor.h **** #ifdef NULL_PTR_CHECK_VIR_SPD_SEN
 125:MCSDK_v6.3.2-Full/MotorControl/MCSDK/MCLib/Any/Inc/virtual_speed_sensor.h ****   if (MC_NULL == pHandle)
 126:MCSDK_v6.3.2-Full/MotorControl/MCSDK/MCLib/Any/Inc/virtual_speed_sensor.h ****   {
 127:MCSDK_v6.3.2-Full/MotorControl/MCSDK/MCLib/Any/Inc/virtual_speed_sensor.h ****     /* Nothing to do */
 128:MCSDK_v6.3.2-Full/MotorControl/MCSDK/MCLib/Any/Inc/virtual_speed_sensor.h ****   }
 129:MCSDK_v6.3.2-Full/MotorControl/MCSDK/MCLib/Any/Inc/virtual_speed_sensor.h ****   else
 130:MCSDK_v6.3.2-Full/MotorControl/MCSDK/MCLib/Any/Inc/virtual_speed_sensor.h ****   {
 131:MCSDK_v6.3.2-Full/MotorControl/MCSDK/MCLib/Any/Inc/virtual_speed_sensor.h **** #endif
 132:MCSDK_v6.3.2-Full/MotorControl/MCSDK/MCLib/Any/Inc/virtual_speed_sensor.h ****     pHandle->hElAngleAccu = hMecAngle;
 133:MCSDK_v6.3.2-Full/MotorControl/MCSDK/MCLib/Any/Inc/virtual_speed_sensor.h ****     pHandle->_Super.hMecAngle = pHandle->hElAngleAccu / ((int16_t)pHandle->_Super.bElToMecRatio);
 248              		.loc 2 133 58 view .LVU85
 249 002e 7A78     		ldrb	r2, [r7, #1]	@ zero_extendqisi2
 250              	.LBE12:
 251              	.LBE11:
 252              		.loc 1 192 54 view .LVU86
 253 0030 13FB06F3 		smulbb	r3, r3, r6
 254              		.loc 1 192 5 view .LVU87
 255 0034 1BB2     		sxth	r3, r3
 256              	.LVL23:
 257              	.LBB16:
 258              	.LBI11:
 122:MCSDK_v6.3.2-Full/MotorControl/MCSDK/MCLib/Any/Inc/virtual_speed_sensor.h **** {
 259              		.loc 2 122 20 is_stmt 1 view .LVU88
 260              	.LBB13:
 132:MCSDK_v6.3.2-Full/MotorControl/MCSDK/MCLib/Any/Inc/virtual_speed_sensor.h ****     pHandle->_Super.hMecAngle = pHandle->hElAngleAccu / ((int16_t)pHandle->_Super.bElToMecRatio);
ARM GAS  /tmp/ccZpGKc6.s 			page 12


 261              		.loc 2 132 5 view .LVU89
 132:MCSDK_v6.3.2-Full/MotorControl/MCSDK/MCLib/Any/Inc/virtual_speed_sensor.h ****     pHandle->_Super.hMecAngle = pHandle->hElAngleAccu / ((int16_t)pHandle->_Super.bElToMecRatio);
 262              		.loc 2 132 27 is_stmt 0 view .LVU90
 263 0036 3B86     		strh	r3, [r7, #48]	@ movhi
 264              		.loc 2 133 5 is_stmt 1 view .LVU91
 134:MCSDK_v6.3.2-Full/MotorControl/MCSDK/MCLib/Any/Inc/virtual_speed_sensor.h ****     pHandle->_Super.hElAngle = hMecAngle;
 265              		.loc 2 134 30 is_stmt 0 view .LVU92
 266 0038 BB80     		strh	r3, [r7, #4]	@ movhi
 267              	.LBE13:
 268              	.LBE16:
 193:MCSDK_v6.3.2-Full/MotorControl/MCSDK/MCLib/Any/Src/revup_ctrl.c **** 
 194:MCSDK_v6.3.2-Full/MotorControl/MCSDK/MCLib/Any/Src/revup_ctrl.c ****     /* Sets to zero the starting torque of STC */
 195:MCSDK_v6.3.2-Full/MotorControl/MCSDK/MCLib/Any/Src/revup_ctrl.c ****     (void)STC_ExecRamp(pSTC, 0, 0U);
 269              		.loc 1 195 11 view .LVU93
 270 003a 2946     		mov	r1, r5
 271              	.LBB17:
 272              	.LBB14:
 133:MCSDK_v6.3.2-Full/MotorControl/MCSDK/MCLib/Any/Inc/virtual_speed_sensor.h ****     pHandle->_Super.hElAngle = hMecAngle;
 273              		.loc 2 133 55 view .LVU94
 274 003c 93FBF2F3 		sdiv	r3, r3, r2
 275              	.LVL24:
 133:MCSDK_v6.3.2-Full/MotorControl/MCSDK/MCLib/Any/Inc/virtual_speed_sensor.h ****     pHandle->_Super.hElAngle = hMecAngle;
 276              		.loc 2 133 55 view .LVU95
 277              	.LBE14:
 278              	.LBE17:
 279              		.loc 1 195 11 view .LVU96
 280 0040 4046     		mov	r0, r8
 281              	.LBB18:
 282              	.LBB15:
 133:MCSDK_v6.3.2-Full/MotorControl/MCSDK/MCLib/Any/Inc/virtual_speed_sensor.h ****     pHandle->_Super.hElAngle = hMecAngle;
 283              		.loc 2 133 31 view .LVU97
 284 0042 FB80     		strh	r3, [r7, #6]	@ movhi
 285              		.loc 2 134 5 is_stmt 1 view .LVU98
 286              	.LVL25:
 287              		.loc 2 134 5 is_stmt 0 view .LVU99
 288              	.LBE15:
 289              	.LBE18:
 290              		.loc 1 195 5 is_stmt 1 view .LVU100
 291              		.loc 1 195 11 is_stmt 0 view .LVU101
 292 0044 2A46     		mov	r2, r5
 293 0046 FFF7FEFF 		bl	STC_ExecRamp
 294              	.LVL26:
 196:MCSDK_v6.3.2-Full/MotorControl/MCSDK/MCLib/Any/Src/revup_ctrl.c **** 
 197:MCSDK_v6.3.2-Full/MotorControl/MCSDK/MCLib/Any/Src/revup_ctrl.c ****     /* Gives the first command to STC and VSS */
 198:MCSDK_v6.3.2-Full/MotorControl/MCSDK/MCLib/Any/Src/revup_ctrl.c ****     (void)STC_ExecRamp(pSTC, pPhaseParams->hFinalTorque * hMotorDirection, (uint32_t)(pPhaseParams-
 295              		.loc 1 198 5 is_stmt 1 view .LVU102
 296              		.loc 1 198 57 is_stmt 0 view .LVU103
 297 004a 218A     		ldrh	r1, [r4, #16]
 298              		.loc 1 198 11 view .LVU104
 299 004c A289     		ldrh	r2, [r4, #12]
 300              		.loc 1 198 57 view .LVU105
 301 004e 11FB06F1 		smulbb	r1, r1, r6
 302              		.loc 1 198 11 view .LVU106
 303 0052 09B2     		sxth	r1, r1
 304 0054 4046     		mov	r0, r8
 305 0056 FFF7FEFF 		bl	STC_ExecRamp
 306              	.LVL27:
ARM GAS  /tmp/ccZpGKc6.s 			page 13


 199:MCSDK_v6.3.2-Full/MotorControl/MCSDK/MCLib/Any/Src/revup_ctrl.c **** 
 200:MCSDK_v6.3.2-Full/MotorControl/MCSDK/MCLib/Any/Src/revup_ctrl.c ****     VSS_SetMecAcceleration(pVSS, pPhaseParams->hFinalMecSpeedUnit * hMotorDirection, pPhaseParams->
 307              		.loc 1 200 5 is_stmt 1 view .LVU107
 308              		.loc 1 200 67 is_stmt 0 view .LVU108
 309 005a E189     		ldrh	r1, [r4, #14]
 310              		.loc 1 200 5 view .LVU109
 311 005c A289     		ldrh	r2, [r4, #12]
 312              		.loc 1 200 67 view .LVU110
 313 005e 11FB06F1 		smulbb	r1, r1, r6
 314              		.loc 1 200 5 view .LVU111
 315 0062 09B2     		sxth	r1, r1
 316 0064 3846     		mov	r0, r7
 317 0066 FFF7FEFF 		bl	VSS_SetMecAcceleration
 318              	.LVL28:
 201:MCSDK_v6.3.2-Full/MotorControl/MCSDK/MCLib/Any/Src/revup_ctrl.c **** 
 202:MCSDK_v6.3.2-Full/MotorControl/MCSDK/MCLib/Any/Src/revup_ctrl.c ****     /* Compute hPhaseRemainingTicks */
 203:MCSDK_v6.3.2-Full/MotorControl/MCSDK/MCLib/Any/Src/revup_ctrl.c ****     pHandle->hPhaseRemainingTicks = (uint16_t)((((uint32_t)pPhaseParams->hDurationms)
 319              		.loc 1 203 5 is_stmt 1 view .LVU112
 204:MCSDK_v6.3.2-Full/MotorControl/MCSDK/MCLib/Any/Src/revup_ctrl.c ****                                               * ((uint32_t)pHandle->hRUCFrequencyHz))
 205:MCSDK_v6.3.2-Full/MotorControl/MCSDK/MCLib/Any/Src/revup_ctrl.c ****                                               / 1000U );
 206:MCSDK_v6.3.2-Full/MotorControl/MCSDK/MCLib/Any/Src/revup_ctrl.c **** 
 207:MCSDK_v6.3.2-Full/MotorControl/MCSDK/MCLib/Any/Src/revup_ctrl.c ****     pHandle->hPhaseRemainingTicks++;
 320              		.loc 1 207 5 view .LVU113
 203:MCSDK_v6.3.2-Full/MotorControl/MCSDK/MCLib/Any/Src/revup_ctrl.c ****                                               * ((uint32_t)pHandle->hRUCFrequencyHz))
 321              		.loc 1 203 50 is_stmt 0 view .LVU114
 322 006a A389     		ldrh	r3, [r4, #12]
 204:MCSDK_v6.3.2-Full/MotorControl/MCSDK/MCLib/Any/Src/revup_ctrl.c ****                                               * ((uint32_t)pHandle->hRUCFrequencyHz))
 323              		.loc 1 204 50 view .LVU115
 324 006c 2188     		ldrh	r1, [r4]
 205:MCSDK_v6.3.2-Full/MotorControl/MCSDK/MCLib/Any/Src/revup_ctrl.c **** 
 325              		.loc 1 205 47 view .LVU116
 326 006e 074A     		ldr	r2, .L15
 208:MCSDK_v6.3.2-Full/MotorControl/MCSDK/MCLib/Any/Src/revup_ctrl.c **** 
 209:MCSDK_v6.3.2-Full/MotorControl/MCSDK/MCLib/Any/Src/revup_ctrl.c ****     /* Set the next phases parameter pointer */
 210:MCSDK_v6.3.2-Full/MotorControl/MCSDK/MCLib/Any/Src/revup_ctrl.c ****     pHandle->pCurrentPhaseParams = (RevUpCtrl_PhaseParams_t *)pPhaseParams->pNext;  //cstat !MISRAC
 211:MCSDK_v6.3.2-Full/MotorControl/MCSDK/MCLib/Any/Src/revup_ctrl.c **** 
 212:MCSDK_v6.3.2-Full/MotorControl/MCSDK/MCLib/Any/Src/revup_ctrl.c ****     /* Timeout counter for PLL reset during OTF */
 213:MCSDK_v6.3.2-Full/MotorControl/MCSDK/MCLib/Any/Src/revup_ctrl.c ****     pHandle->bResetPLLCnt = 0U;
 327              		.loc 1 213 27 view .LVU117
 328 0070 84F85750 		strb	r5, [r4, #87]
 204:MCSDK_v6.3.2-Full/MotorControl/MCSDK/MCLib/Any/Src/revup_ctrl.c ****                                               / 1000U );
 329              		.loc 1 204 47 view .LVU118
 330 0074 01FB03F3 		mul	r3, r1, r3
 205:MCSDK_v6.3.2-Full/MotorControl/MCSDK/MCLib/Any/Src/revup_ctrl.c **** 
 331              		.loc 1 205 47 view .LVU119
 332 0078 A2FB0323 		umull	r2, r3, r2, r3
 333 007c 9B09     		lsrs	r3, r3, #6
 210:MCSDK_v6.3.2-Full/MotorControl/MCSDK/MCLib/Any/Src/revup_ctrl.c **** 
 334              		.loc 1 210 34 view .LVU120
 335 007e 6269     		ldr	r2, [r4, #20]
 336 0080 A260     		str	r2, [r4, #8]
 207:MCSDK_v6.3.2-Full/MotorControl/MCSDK/MCLib/Any/Src/revup_ctrl.c **** 
 337              		.loc 1 207 34 view .LVU121
 338 0082 0133     		adds	r3, r3, #1
 339 0084 A380     		strh	r3, [r4, #4]	@ movhi
 210:MCSDK_v6.3.2-Full/MotorControl/MCSDK/MCLib/Any/Src/revup_ctrl.c **** 
 340              		.loc 1 210 5 is_stmt 1 view .LVU122
ARM GAS  /tmp/ccZpGKc6.s 			page 14


 341              		.loc 1 213 5 view .LVU123
 214:MCSDK_v6.3.2-Full/MotorControl/MCSDK/MCLib/Any/Src/revup_ctrl.c **** #ifdef NULL_PTR_CHECK_REV_UP_CTL
 215:MCSDK_v6.3.2-Full/MotorControl/MCSDK/MCLib/Any/Src/revup_ctrl.c ****   }
 216:MCSDK_v6.3.2-Full/MotorControl/MCSDK/MCLib/Any/Src/revup_ctrl.c **** #endif
 217:MCSDK_v6.3.2-Full/MotorControl/MCSDK/MCLib/Any/Src/revup_ctrl.c **** }
 342              		.loc 1 217 1 is_stmt 0 view .LVU124
 343 0086 BDE8F081 		pop	{r4, r5, r6, r7, r8, pc}
 344              	.LVL29:
 345              	.L16:
 346              		.loc 1 217 1 view .LVU125
 347 008a 00BF     		.align	2
 348              	.L15:
 349 008c D34D6210 		.word	274877907
 350              		.cfi_endproc
 351              	.LFE1458:
 353              		.section	.text.RUC_OTF_Exec,"ax",%progbits
 354              		.align	1
 355              		.p2align 2,,3
 356              		.weak	RUC_OTF_Exec
 357              		.syntax unified
 358              		.thumb
 359              		.thumb_func
 360              		.fpu fpv4-sp-d16
 362              	RUC_OTF_Exec:
 363              	.LVL30:
 364              	.LFB1459:
 218:MCSDK_v6.3.2-Full/MotorControl/MCSDK/MCLib/Any/Src/revup_ctrl.c **** 
 219:MCSDK_v6.3.2-Full/MotorControl/MCSDK/MCLib/Any/Src/revup_ctrl.c **** /**
 220:MCSDK_v6.3.2-Full/MotorControl/MCSDK/MCLib/Any/Src/revup_ctrl.c ****   * @brief  FOC Main Rev-Up controller procedure executing overall programmed phases and
 221:MCSDK_v6.3.2-Full/MotorControl/MCSDK/MCLib/Any/Src/revup_ctrl.c ****   *         on-the-fly startup handling.
 222:MCSDK_v6.3.2-Full/MotorControl/MCSDK/MCLib/Any/Src/revup_ctrl.c ****   * @param  pHandle: Pointer on Handle structure of RevUp controller.
 223:MCSDK_v6.3.2-Full/MotorControl/MCSDK/MCLib/Any/Src/revup_ctrl.c ****   *  @retval Boolean set to false when entire Rev-Up phases have been completed.
 224:MCSDK_v6.3.2-Full/MotorControl/MCSDK/MCLib/Any/Src/revup_ctrl.c ****   */
 225:MCSDK_v6.3.2-Full/MotorControl/MCSDK/MCLib/Any/Src/revup_ctrl.c **** __weak bool RUC_OTF_Exec(RevUpCtrl_Handle_t *pHandle)
 226:MCSDK_v6.3.2-Full/MotorControl/MCSDK/MCLib/Any/Src/revup_ctrl.c **** {
 365              		.loc 1 226 1 is_stmt 1 view -0
 366              		.cfi_startproc
 367              		@ args = 0, pretend = 0, frame = 0
 368              		@ frame_needed = 0, uses_anonymous_args = 0
 227:MCSDK_v6.3.2-Full/MotorControl/MCSDK/MCLib/Any/Src/revup_ctrl.c ****   bool retVal = true;
 369              		.loc 1 227 3 view .LVU127
 228:MCSDK_v6.3.2-Full/MotorControl/MCSDK/MCLib/Any/Src/revup_ctrl.c **** #ifdef NULL_PTR_CHECK_REV_UP_CTL
 229:MCSDK_v6.3.2-Full/MotorControl/MCSDK/MCLib/Any/Src/revup_ctrl.c ****   if (MC_NULL == pHandle)
 230:MCSDK_v6.3.2-Full/MotorControl/MCSDK/MCLib/Any/Src/revup_ctrl.c ****   {
 231:MCSDK_v6.3.2-Full/MotorControl/MCSDK/MCLib/Any/Src/revup_ctrl.c ****     /* Nothing to do */
 232:MCSDK_v6.3.2-Full/MotorControl/MCSDK/MCLib/Any/Src/revup_ctrl.c ****   }
 233:MCSDK_v6.3.2-Full/MotorControl/MCSDK/MCLib/Any/Src/revup_ctrl.c ****   else
 234:MCSDK_v6.3.2-Full/MotorControl/MCSDK/MCLib/Any/Src/revup_ctrl.c ****   {
 235:MCSDK_v6.3.2-Full/MotorControl/MCSDK/MCLib/Any/Src/revup_ctrl.c **** #endif
 236:MCSDK_v6.3.2-Full/MotorControl/MCSDK/MCLib/Any/Src/revup_ctrl.c ****     bool IsSpeedReliable;
 370              		.loc 1 236 5 view .LVU128
 237:MCSDK_v6.3.2-Full/MotorControl/MCSDK/MCLib/Any/Src/revup_ctrl.c ****     bool condition = false;
 371              		.loc 1 237 5 view .LVU129
 238:MCSDK_v6.3.2-Full/MotorControl/MCSDK/MCLib/Any/Src/revup_ctrl.c **** 
 239:MCSDK_v6.3.2-Full/MotorControl/MCSDK/MCLib/Any/Src/revup_ctrl.c ****     if (pHandle->hPhaseRemainingTicks > 0u)
 372              		.loc 1 239 5 view .LVU130
 373              		.loc 1 239 16 is_stmt 0 view .LVU131
ARM GAS  /tmp/ccZpGKc6.s 			page 15


 374 0000 8388     		ldrh	r3, [r0, #4]
 226:MCSDK_v6.3.2-Full/MotorControl/MCSDK/MCLib/Any/Src/revup_ctrl.c ****   bool retVal = true;
 375              		.loc 1 226 1 view .LVU132
 376 0002 70B5     		push	{r4, r5, r6, lr}
 377              	.LCFI4:
 378              		.cfi_def_cfa_offset 16
 379              		.cfi_offset 4, -16
 380              		.cfi_offset 5, -12
 381              		.cfi_offset 6, -8
 382              		.cfi_offset 14, -4
 226:MCSDK_v6.3.2-Full/MotorControl/MCSDK/MCLib/Any/Src/revup_ctrl.c ****   bool retVal = true;
 383              		.loc 1 226 1 view .LVU133
 384 0004 0446     		mov	r4, r0
 385              		.loc 1 239 8 view .LVU134
 386 0006 4BB1     		cbz	r3, .L41
 240:MCSDK_v6.3.2-Full/MotorControl/MCSDK/MCLib/Any/Src/revup_ctrl.c ****     {
 241:MCSDK_v6.3.2-Full/MotorControl/MCSDK/MCLib/Any/Src/revup_ctrl.c ****       /* Decrease the hPhaseRemainingTicks */
 242:MCSDK_v6.3.2-Full/MotorControl/MCSDK/MCLib/Any/Src/revup_ctrl.c ****       pHandle->hPhaseRemainingTicks--;
 387              		.loc 1 242 7 is_stmt 1 view .LVU135
 388              		.loc 1 242 36 is_stmt 0 view .LVU136
 389 0008 013B     		subs	r3, r3, #1
 243:MCSDK_v6.3.2-Full/MotorControl/MCSDK/MCLib/Any/Src/revup_ctrl.c **** 
 244:MCSDK_v6.3.2-Full/MotorControl/MCSDK/MCLib/Any/Src/revup_ctrl.c ****       /* OTF start-up */
 245:MCSDK_v6.3.2-Full/MotorControl/MCSDK/MCLib/Any/Src/revup_ctrl.c ****       if (0U == pHandle->bStageCnt)
 390              		.loc 1 245 24 view .LVU137
 391 000a 90F85850 		ldrb	r5, [r0, #88]	@ zero_extendqisi2
 242:MCSDK_v6.3.2-Full/MotorControl/MCSDK/MCLib/Any/Src/revup_ctrl.c **** 
 392              		.loc 1 242 36 view .LVU138
 393 000e 9BB2     		uxth	r3, r3
 394 0010 8380     		strh	r3, [r0, #4]	@ movhi
 395              		.loc 1 245 7 is_stmt 1 view .LVU139
 396              		.loc 1 245 10 is_stmt 0 view .LVU140
 397 0012 002D     		cmp	r5, #0
 398 0014 33D0     		beq	.L64
 399              	.LVL31:
 400              	.L19:
 246:MCSDK_v6.3.2-Full/MotorControl/MCSDK/MCLib/Any/Src/revup_ctrl.c ****       {
 247:MCSDK_v6.3.2-Full/MotorControl/MCSDK/MCLib/Any/Src/revup_ctrl.c ****         if (false ==  pHandle->EnteredZone1)
 248:MCSDK_v6.3.2-Full/MotorControl/MCSDK/MCLib/Any/Src/revup_ctrl.c ****         {
 249:MCSDK_v6.3.2-Full/MotorControl/MCSDK/MCLib/Any/Src/revup_ctrl.c ****           if (pHandle->pSNSL->pFctStoOtfResetPLL != MC_NULL)
 250:MCSDK_v6.3.2-Full/MotorControl/MCSDK/MCLib/Any/Src/revup_ctrl.c ****           {
 251:MCSDK_v6.3.2-Full/MotorControl/MCSDK/MCLib/Any/Src/revup_ctrl.c ****             pHandle->bResetPLLCnt++;
 252:MCSDK_v6.3.2-Full/MotorControl/MCSDK/MCLib/Any/Src/revup_ctrl.c ****             if (pHandle->bResetPLLCnt > pHandle->bResetPLLTh)
 253:MCSDK_v6.3.2-Full/MotorControl/MCSDK/MCLib/Any/Src/revup_ctrl.c ****             {
 254:MCSDK_v6.3.2-Full/MotorControl/MCSDK/MCLib/Any/Src/revup_ctrl.c ****               pHandle->pSNSL->pFctStoOtfResetPLL(pHandle->pSNSL);
 255:MCSDK_v6.3.2-Full/MotorControl/MCSDK/MCLib/Any/Src/revup_ctrl.c ****               pHandle->bOTFRelCounter = 0U;
 256:MCSDK_v6.3.2-Full/MotorControl/MCSDK/MCLib/Any/Src/revup_ctrl.c ****               pHandle->bResetPLLCnt = 0U;
 257:MCSDK_v6.3.2-Full/MotorControl/MCSDK/MCLib/Any/Src/revup_ctrl.c ****             }
 258:MCSDK_v6.3.2-Full/MotorControl/MCSDK/MCLib/Any/Src/revup_ctrl.c ****             else
 259:MCSDK_v6.3.2-Full/MotorControl/MCSDK/MCLib/Any/Src/revup_ctrl.c ****             {
 260:MCSDK_v6.3.2-Full/MotorControl/MCSDK/MCLib/Any/Src/revup_ctrl.c ****               /* Nothing to do */
 261:MCSDK_v6.3.2-Full/MotorControl/MCSDK/MCLib/Any/Src/revup_ctrl.c ****             }
 262:MCSDK_v6.3.2-Full/MotorControl/MCSDK/MCLib/Any/Src/revup_ctrl.c ****           }
 263:MCSDK_v6.3.2-Full/MotorControl/MCSDK/MCLib/Any/Src/revup_ctrl.c ****           else
 264:MCSDK_v6.3.2-Full/MotorControl/MCSDK/MCLib/Any/Src/revup_ctrl.c ****           {
 265:MCSDK_v6.3.2-Full/MotorControl/MCSDK/MCLib/Any/Src/revup_ctrl.c ****             /* Nothing to do */
 266:MCSDK_v6.3.2-Full/MotorControl/MCSDK/MCLib/Any/Src/revup_ctrl.c ****           }
ARM GAS  /tmp/ccZpGKc6.s 			page 16


 267:MCSDK_v6.3.2-Full/MotorControl/MCSDK/MCLib/Any/Src/revup_ctrl.c **** 
 268:MCSDK_v6.3.2-Full/MotorControl/MCSDK/MCLib/Any/Src/revup_ctrl.c ****           IsSpeedReliable = pHandle->pSNSL->pFctSTO_SpeedReliabilityCheck(pHandle->pSNSL);
 269:MCSDK_v6.3.2-Full/MotorControl/MCSDK/MCLib/Any/Src/revup_ctrl.c **** 
 270:MCSDK_v6.3.2-Full/MotorControl/MCSDK/MCLib/Any/Src/revup_ctrl.c ****           if (IsSpeedReliable)
 271:MCSDK_v6.3.2-Full/MotorControl/MCSDK/MCLib/Any/Src/revup_ctrl.c ****           {
 272:MCSDK_v6.3.2-Full/MotorControl/MCSDK/MCLib/Any/Src/revup_ctrl.c ****             if (pHandle->bOTFRelCounter < 127U)
 273:MCSDK_v6.3.2-Full/MotorControl/MCSDK/MCLib/Any/Src/revup_ctrl.c ****             {
 274:MCSDK_v6.3.2-Full/MotorControl/MCSDK/MCLib/Any/Src/revup_ctrl.c ****               pHandle->bOTFRelCounter++;
 275:MCSDK_v6.3.2-Full/MotorControl/MCSDK/MCLib/Any/Src/revup_ctrl.c ****             }
 276:MCSDK_v6.3.2-Full/MotorControl/MCSDK/MCLib/Any/Src/revup_ctrl.c ****             else
 277:MCSDK_v6.3.2-Full/MotorControl/MCSDK/MCLib/Any/Src/revup_ctrl.c ****             {
 278:MCSDK_v6.3.2-Full/MotorControl/MCSDK/MCLib/Any/Src/revup_ctrl.c ****               /* Nothing to do */
 279:MCSDK_v6.3.2-Full/MotorControl/MCSDK/MCLib/Any/Src/revup_ctrl.c ****             }
 280:MCSDK_v6.3.2-Full/MotorControl/MCSDK/MCLib/Any/Src/revup_ctrl.c ****           }
 281:MCSDK_v6.3.2-Full/MotorControl/MCSDK/MCLib/Any/Src/revup_ctrl.c ****           else
 282:MCSDK_v6.3.2-Full/MotorControl/MCSDK/MCLib/Any/Src/revup_ctrl.c ****           {
 283:MCSDK_v6.3.2-Full/MotorControl/MCSDK/MCLib/Any/Src/revup_ctrl.c ****             pHandle->bOTFRelCounter = 0U;
 284:MCSDK_v6.3.2-Full/MotorControl/MCSDK/MCLib/Any/Src/revup_ctrl.c ****           }
 285:MCSDK_v6.3.2-Full/MotorControl/MCSDK/MCLib/Any/Src/revup_ctrl.c **** 
 286:MCSDK_v6.3.2-Full/MotorControl/MCSDK/MCLib/Any/Src/revup_ctrl.c ****           if (pHandle->pSNSL->pFctStoOtfResetPLL != MC_NULL)
 287:MCSDK_v6.3.2-Full/MotorControl/MCSDK/MCLib/Any/Src/revup_ctrl.c ****           {
 288:MCSDK_v6.3.2-Full/MotorControl/MCSDK/MCLib/Any/Src/revup_ctrl.c ****             if (pHandle->bOTFRelCounter == (pHandle->bResetPLLTh >> 1))
 289:MCSDK_v6.3.2-Full/MotorControl/MCSDK/MCLib/Any/Src/revup_ctrl.c ****             {
 290:MCSDK_v6.3.2-Full/MotorControl/MCSDK/MCLib/Any/Src/revup_ctrl.c ****               condition = true;
 291:MCSDK_v6.3.2-Full/MotorControl/MCSDK/MCLib/Any/Src/revup_ctrl.c ****             }
 292:MCSDK_v6.3.2-Full/MotorControl/MCSDK/MCLib/Any/Src/revup_ctrl.c ****             else
 293:MCSDK_v6.3.2-Full/MotorControl/MCSDK/MCLib/Any/Src/revup_ctrl.c ****             {
 294:MCSDK_v6.3.2-Full/MotorControl/MCSDK/MCLib/Any/Src/revup_ctrl.c ****               /* Nothing to do */
 295:MCSDK_v6.3.2-Full/MotorControl/MCSDK/MCLib/Any/Src/revup_ctrl.c ****             }
 296:MCSDK_v6.3.2-Full/MotorControl/MCSDK/MCLib/Any/Src/revup_ctrl.c ****           }
 297:MCSDK_v6.3.2-Full/MotorControl/MCSDK/MCLib/Any/Src/revup_ctrl.c ****           else
 298:MCSDK_v6.3.2-Full/MotorControl/MCSDK/MCLib/Any/Src/revup_ctrl.c ****           {
 299:MCSDK_v6.3.2-Full/MotorControl/MCSDK/MCLib/Any/Src/revup_ctrl.c ****             if (127U == pHandle->bOTFRelCounter)
 300:MCSDK_v6.3.2-Full/MotorControl/MCSDK/MCLib/Any/Src/revup_ctrl.c ****             {
 301:MCSDK_v6.3.2-Full/MotorControl/MCSDK/MCLib/Any/Src/revup_ctrl.c ****               condition = true;
 302:MCSDK_v6.3.2-Full/MotorControl/MCSDK/MCLib/Any/Src/revup_ctrl.c ****             }
 303:MCSDK_v6.3.2-Full/MotorControl/MCSDK/MCLib/Any/Src/revup_ctrl.c ****             else
 304:MCSDK_v6.3.2-Full/MotorControl/MCSDK/MCLib/Any/Src/revup_ctrl.c ****             {
 305:MCSDK_v6.3.2-Full/MotorControl/MCSDK/MCLib/Any/Src/revup_ctrl.c ****               /* Nothing to do */
 306:MCSDK_v6.3.2-Full/MotorControl/MCSDK/MCLib/Any/Src/revup_ctrl.c ****             }
 307:MCSDK_v6.3.2-Full/MotorControl/MCSDK/MCLib/Any/Src/revup_ctrl.c ****           }
 308:MCSDK_v6.3.2-Full/MotorControl/MCSDK/MCLib/Any/Src/revup_ctrl.c **** 
 309:MCSDK_v6.3.2-Full/MotorControl/MCSDK/MCLib/Any/Src/revup_ctrl.c ****           if (true == condition)
 310:MCSDK_v6.3.2-Full/MotorControl/MCSDK/MCLib/Any/Src/revup_ctrl.c ****           {
 311:MCSDK_v6.3.2-Full/MotorControl/MCSDK/MCLib/Any/Src/revup_ctrl.c ****             bool bCollinearSpeed = false;
 312:MCSDK_v6.3.2-Full/MotorControl/MCSDK/MCLib/Any/Src/revup_ctrl.c ****             int16_t hObsSpeedUnit = SPD_GetAvrgMecSpeedUnit(pHandle->pSNSL->_Super);
 313:MCSDK_v6.3.2-Full/MotorControl/MCSDK/MCLib/Any/Src/revup_ctrl.c ****             int16_t hObsSpeedUnitAbsValue =
 314:MCSDK_v6.3.2-Full/MotorControl/MCSDK/MCLib/Any/Src/revup_ctrl.c ****                     ((hObsSpeedUnit < 0) ? (-hObsSpeedUnit) : (hObsSpeedUnit)); /* hObsSpeedUnit ab
 315:MCSDK_v6.3.2-Full/MotorControl/MCSDK/MCLib/Any/Src/revup_ctrl.c **** 
 316:MCSDK_v6.3.2-Full/MotorControl/MCSDK/MCLib/Any/Src/revup_ctrl.c ****             if (pHandle->hDirection > 0)
 317:MCSDK_v6.3.2-Full/MotorControl/MCSDK/MCLib/Any/Src/revup_ctrl.c ****             {
 318:MCSDK_v6.3.2-Full/MotorControl/MCSDK/MCLib/Any/Src/revup_ctrl.c ****               if (hObsSpeedUnit > 0)
 319:MCSDK_v6.3.2-Full/MotorControl/MCSDK/MCLib/Any/Src/revup_ctrl.c ****               {
 320:MCSDK_v6.3.2-Full/MotorControl/MCSDK/MCLib/Any/Src/revup_ctrl.c ****                 bCollinearSpeed = true; /* Actual and reference speed are collinear */
 321:MCSDK_v6.3.2-Full/MotorControl/MCSDK/MCLib/Any/Src/revup_ctrl.c ****               }
 322:MCSDK_v6.3.2-Full/MotorControl/MCSDK/MCLib/Any/Src/revup_ctrl.c ****               else
 323:MCSDK_v6.3.2-Full/MotorControl/MCSDK/MCLib/Any/Src/revup_ctrl.c ****               {
ARM GAS  /tmp/ccZpGKc6.s 			page 17


 324:MCSDK_v6.3.2-Full/MotorControl/MCSDK/MCLib/Any/Src/revup_ctrl.c ****                 /* Nothing to do */
 325:MCSDK_v6.3.2-Full/MotorControl/MCSDK/MCLib/Any/Src/revup_ctrl.c ****               }
 326:MCSDK_v6.3.2-Full/MotorControl/MCSDK/MCLib/Any/Src/revup_ctrl.c ****             }
 327:MCSDK_v6.3.2-Full/MotorControl/MCSDK/MCLib/Any/Src/revup_ctrl.c ****             else
 328:MCSDK_v6.3.2-Full/MotorControl/MCSDK/MCLib/Any/Src/revup_ctrl.c ****             {
 329:MCSDK_v6.3.2-Full/MotorControl/MCSDK/MCLib/Any/Src/revup_ctrl.c ****               if (hObsSpeedUnit < 0)
 330:MCSDK_v6.3.2-Full/MotorControl/MCSDK/MCLib/Any/Src/revup_ctrl.c ****               {
 331:MCSDK_v6.3.2-Full/MotorControl/MCSDK/MCLib/Any/Src/revup_ctrl.c ****                 bCollinearSpeed = true; /* Actual and reference speed are collinear */
 332:MCSDK_v6.3.2-Full/MotorControl/MCSDK/MCLib/Any/Src/revup_ctrl.c ****               }
 333:MCSDK_v6.3.2-Full/MotorControl/MCSDK/MCLib/Any/Src/revup_ctrl.c ****               else
 334:MCSDK_v6.3.2-Full/MotorControl/MCSDK/MCLib/Any/Src/revup_ctrl.c ****               {
 335:MCSDK_v6.3.2-Full/MotorControl/MCSDK/MCLib/Any/Src/revup_ctrl.c ****                 /* Nothing to do */
 336:MCSDK_v6.3.2-Full/MotorControl/MCSDK/MCLib/Any/Src/revup_ctrl.c ****               }
 337:MCSDK_v6.3.2-Full/MotorControl/MCSDK/MCLib/Any/Src/revup_ctrl.c ****             }
 338:MCSDK_v6.3.2-Full/MotorControl/MCSDK/MCLib/Any/Src/revup_ctrl.c **** 
 339:MCSDK_v6.3.2-Full/MotorControl/MCSDK/MCLib/Any/Src/revup_ctrl.c ****             if (false == bCollinearSpeed)
 340:MCSDK_v6.3.2-Full/MotorControl/MCSDK/MCLib/Any/Src/revup_ctrl.c ****             {
 341:MCSDK_v6.3.2-Full/MotorControl/MCSDK/MCLib/Any/Src/revup_ctrl.c ****               /*reverse speed management*/
 342:MCSDK_v6.3.2-Full/MotorControl/MCSDK/MCLib/Any/Src/revup_ctrl.c ****               pHandle->bOTFRelCounter = 0U;
 343:MCSDK_v6.3.2-Full/MotorControl/MCSDK/MCLib/Any/Src/revup_ctrl.c ****             }
 344:MCSDK_v6.3.2-Full/MotorControl/MCSDK/MCLib/Any/Src/revup_ctrl.c ****             else /* Speeds are collinear */
 345:MCSDK_v6.3.2-Full/MotorControl/MCSDK/MCLib/Any/Src/revup_ctrl.c ****             {
 346:MCSDK_v6.3.2-Full/MotorControl/MCSDK/MCLib/Any/Src/revup_ctrl.c ****               if ((uint16_t)(hObsSpeedUnitAbsValue) > pHandle->hMinStartUpValidSpeed)
 347:MCSDK_v6.3.2-Full/MotorControl/MCSDK/MCLib/Any/Src/revup_ctrl.c ****               {
 348:MCSDK_v6.3.2-Full/MotorControl/MCSDK/MCLib/Any/Src/revup_ctrl.c ****                 /* Startup end, go to run */
 349:MCSDK_v6.3.2-Full/MotorControl/MCSDK/MCLib/Any/Src/revup_ctrl.c ****                 pHandle->pSNSL->pFctForceConvergency1(pHandle->pSNSL);
 350:MCSDK_v6.3.2-Full/MotorControl/MCSDK/MCLib/Any/Src/revup_ctrl.c ****                 pHandle->EnteredZone1 = true;
 351:MCSDK_v6.3.2-Full/MotorControl/MCSDK/MCLib/Any/Src/revup_ctrl.c ****               }
 352:MCSDK_v6.3.2-Full/MotorControl/MCSDK/MCLib/Any/Src/revup_ctrl.c ****               else if ((uint16_t)(hObsSpeedUnitAbsValue) > pHandle->hMinStartUpFlySpeed)
 353:MCSDK_v6.3.2-Full/MotorControl/MCSDK/MCLib/Any/Src/revup_ctrl.c ****               {
 354:MCSDK_v6.3.2-Full/MotorControl/MCSDK/MCLib/Any/Src/revup_ctrl.c ****                 /* Synch with startup */
 355:MCSDK_v6.3.2-Full/MotorControl/MCSDK/MCLib/Any/Src/revup_ctrl.c ****                 /* Nearest phase search */
 356:MCSDK_v6.3.2-Full/MotorControl/MCSDK/MCLib/Any/Src/revup_ctrl.c ****                 int16_t hOldFinalMecSpeedUnit = 0;
 357:MCSDK_v6.3.2-Full/MotorControl/MCSDK/MCLib/Any/Src/revup_ctrl.c ****                 int16_t hOldFinalTorque = 0;
 358:MCSDK_v6.3.2-Full/MotorControl/MCSDK/MCLib/Any/Src/revup_ctrl.c ****                 int32_t wDeltaSpeedRevUp;
 359:MCSDK_v6.3.2-Full/MotorControl/MCSDK/MCLib/Any/Src/revup_ctrl.c ****                 int32_t wDeltaTorqueRevUp;
 360:MCSDK_v6.3.2-Full/MotorControl/MCSDK/MCLib/Any/Src/revup_ctrl.c ****                 bool bError = false;
 361:MCSDK_v6.3.2-Full/MotorControl/MCSDK/MCLib/Any/Src/revup_ctrl.c ****                 VSS_SetCopyObserver(pHandle->pVSS);
 362:MCSDK_v6.3.2-Full/MotorControl/MCSDK/MCLib/Any/Src/revup_ctrl.c ****                 pHandle->pSNSL->pFctForceConvergency2(pHandle->pSNSL);
 363:MCSDK_v6.3.2-Full/MotorControl/MCSDK/MCLib/Any/Src/revup_ctrl.c **** 
 364:MCSDK_v6.3.2-Full/MotorControl/MCSDK/MCLib/Any/Src/revup_ctrl.c ****                 if (MC_NULL == pHandle->pCurrentPhaseParams)
 365:MCSDK_v6.3.2-Full/MotorControl/MCSDK/MCLib/Any/Src/revup_ctrl.c ****                 {
 366:MCSDK_v6.3.2-Full/MotorControl/MCSDK/MCLib/Any/Src/revup_ctrl.c ****                   bError = true;
 367:MCSDK_v6.3.2-Full/MotorControl/MCSDK/MCLib/Any/Src/revup_ctrl.c ****                   pHandle->hPhaseRemainingTicks = 0U;
 368:MCSDK_v6.3.2-Full/MotorControl/MCSDK/MCLib/Any/Src/revup_ctrl.c ****                 }
 369:MCSDK_v6.3.2-Full/MotorControl/MCSDK/MCLib/Any/Src/revup_ctrl.c ****                 else
 370:MCSDK_v6.3.2-Full/MotorControl/MCSDK/MCLib/Any/Src/revup_ctrl.c ****                 {
 371:MCSDK_v6.3.2-Full/MotorControl/MCSDK/MCLib/Any/Src/revup_ctrl.c ****                   while (pHandle->pCurrentPhaseParams->hFinalMecSpeedUnit < hObsSpeedUnitAbsValue)
 372:MCSDK_v6.3.2-Full/MotorControl/MCSDK/MCLib/Any/Src/revup_ctrl.c ****                   {
 373:MCSDK_v6.3.2-Full/MotorControl/MCSDK/MCLib/Any/Src/revup_ctrl.c ****                     if (pHandle->pCurrentPhaseParams->pNext == MC_NULL)
 374:MCSDK_v6.3.2-Full/MotorControl/MCSDK/MCLib/Any/Src/revup_ctrl.c ****                     {
 375:MCSDK_v6.3.2-Full/MotorControl/MCSDK/MCLib/Any/Src/revup_ctrl.c ****                       /* Sets for Revup fail error */
 376:MCSDK_v6.3.2-Full/MotorControl/MCSDK/MCLib/Any/Src/revup_ctrl.c ****                       bError = true;
 377:MCSDK_v6.3.2-Full/MotorControl/MCSDK/MCLib/Any/Src/revup_ctrl.c ****                       pHandle->hPhaseRemainingTicks = 0U;
 378:MCSDK_v6.3.2-Full/MotorControl/MCSDK/MCLib/Any/Src/revup_ctrl.c ****                       break;
 379:MCSDK_v6.3.2-Full/MotorControl/MCSDK/MCLib/Any/Src/revup_ctrl.c ****                     }
 380:MCSDK_v6.3.2-Full/MotorControl/MCSDK/MCLib/Any/Src/revup_ctrl.c ****                     else
ARM GAS  /tmp/ccZpGKc6.s 			page 18


 381:MCSDK_v6.3.2-Full/MotorControl/MCSDK/MCLib/Any/Src/revup_ctrl.c ****                     {
 382:MCSDK_v6.3.2-Full/MotorControl/MCSDK/MCLib/Any/Src/revup_ctrl.c ****                       /* Skips this phase */
 383:MCSDK_v6.3.2-Full/MotorControl/MCSDK/MCLib/Any/Src/revup_ctrl.c ****                       hOldFinalMecSpeedUnit = pHandle->pCurrentPhaseParams->hFinalMecSpeedUnit;
 384:MCSDK_v6.3.2-Full/MotorControl/MCSDK/MCLib/Any/Src/revup_ctrl.c ****                       hOldFinalTorque = pHandle->pCurrentPhaseParams->hFinalTorque;
 385:MCSDK_v6.3.2-Full/MotorControl/MCSDK/MCLib/Any/Src/revup_ctrl.c ****                       //cstat !MISRAC2012-Rule-11.5
 386:MCSDK_v6.3.2-Full/MotorControl/MCSDK/MCLib/Any/Src/revup_ctrl.c ****                       pHandle->pCurrentPhaseParams = (RevUpCtrl_PhaseParams_t *)pHandle->pCurrentPh
 387:MCSDK_v6.3.2-Full/MotorControl/MCSDK/MCLib/Any/Src/revup_ctrl.c ****                       pHandle->bStageCnt++;
 388:MCSDK_v6.3.2-Full/MotorControl/MCSDK/MCLib/Any/Src/revup_ctrl.c ****                     }
 389:MCSDK_v6.3.2-Full/MotorControl/MCSDK/MCLib/Any/Src/revup_ctrl.c ****                   }
 390:MCSDK_v6.3.2-Full/MotorControl/MCSDK/MCLib/Any/Src/revup_ctrl.c ****                 }
 391:MCSDK_v6.3.2-Full/MotorControl/MCSDK/MCLib/Any/Src/revup_ctrl.c ****                 if (false == bError)
 392:MCSDK_v6.3.2-Full/MotorControl/MCSDK/MCLib/Any/Src/revup_ctrl.c ****                 {
 393:MCSDK_v6.3.2-Full/MotorControl/MCSDK/MCLib/Any/Src/revup_ctrl.c ****                   /* Calculation of the transition phase from OTF to standard revup */
 394:MCSDK_v6.3.2-Full/MotorControl/MCSDK/MCLib/Any/Src/revup_ctrl.c ****                   int16_t hTorqueReference;
 395:MCSDK_v6.3.2-Full/MotorControl/MCSDK/MCLib/Any/Src/revup_ctrl.c **** 
 396:MCSDK_v6.3.2-Full/MotorControl/MCSDK/MCLib/Any/Src/revup_ctrl.c ****                   wDeltaSpeedRevUp = ((int32_t)(pHandle->pCurrentPhaseParams->hFinalMecSpeedUnit))
 397:MCSDK_v6.3.2-Full/MotorControl/MCSDK/MCLib/Any/Src/revup_ctrl.c ****                                    - ((int32_t)(hOldFinalMecSpeedUnit));
 398:MCSDK_v6.3.2-Full/MotorControl/MCSDK/MCLib/Any/Src/revup_ctrl.c ****                   wDeltaTorqueRevUp = ((int32_t)(pHandle->pCurrentPhaseParams->hFinalTorque))
 399:MCSDK_v6.3.2-Full/MotorControl/MCSDK/MCLib/Any/Src/revup_ctrl.c ****                                     - ((int32_t)(hOldFinalTorque));
 400:MCSDK_v6.3.2-Full/MotorControl/MCSDK/MCLib/Any/Src/revup_ctrl.c **** 
 401:MCSDK_v6.3.2-Full/MotorControl/MCSDK/MCLib/Any/Src/revup_ctrl.c ****                   if ((int32_t)0 == wDeltaSpeedRevUp)
 402:MCSDK_v6.3.2-Full/MotorControl/MCSDK/MCLib/Any/Src/revup_ctrl.c ****                   {
 403:MCSDK_v6.3.2-Full/MotorControl/MCSDK/MCLib/Any/Src/revup_ctrl.c ****                     /* Nothing to do */
 404:MCSDK_v6.3.2-Full/MotorControl/MCSDK/MCLib/Any/Src/revup_ctrl.c ****                   }
 405:MCSDK_v6.3.2-Full/MotorControl/MCSDK/MCLib/Any/Src/revup_ctrl.c ****                   else
 406:MCSDK_v6.3.2-Full/MotorControl/MCSDK/MCLib/Any/Src/revup_ctrl.c ****                   {
 407:MCSDK_v6.3.2-Full/MotorControl/MCSDK/MCLib/Any/Src/revup_ctrl.c ****                     hTorqueReference = (int16_t)((((int32_t)hObsSpeedUnit) * wDeltaTorqueRevUp) / w
 408:MCSDK_v6.3.2-Full/MotorControl/MCSDK/MCLib/Any/Src/revup_ctrl.c ****                                      + hOldFinalTorque;
 409:MCSDK_v6.3.2-Full/MotorControl/MCSDK/MCLib/Any/Src/revup_ctrl.c **** 
 410:MCSDK_v6.3.2-Full/MotorControl/MCSDK/MCLib/Any/Src/revup_ctrl.c ****                     (void)STC_ExecRamp(pHandle->pSTC, pHandle->hDirection * hTorqueReference, 0U);
 411:MCSDK_v6.3.2-Full/MotorControl/MCSDK/MCLib/Any/Src/revup_ctrl.c ****                   }
 412:MCSDK_v6.3.2-Full/MotorControl/MCSDK/MCLib/Any/Src/revup_ctrl.c **** 
 413:MCSDK_v6.3.2-Full/MotorControl/MCSDK/MCLib/Any/Src/revup_ctrl.c ****                   pHandle->hPhaseRemainingTicks = 1U;
 414:MCSDK_v6.3.2-Full/MotorControl/MCSDK/MCLib/Any/Src/revup_ctrl.c **** 
 415:MCSDK_v6.3.2-Full/MotorControl/MCSDK/MCLib/Any/Src/revup_ctrl.c ****                   pHandle->pCurrentPhaseParams = &pHandle->OTFPhaseParams;
 416:MCSDK_v6.3.2-Full/MotorControl/MCSDK/MCLib/Any/Src/revup_ctrl.c **** 
 417:MCSDK_v6.3.2-Full/MotorControl/MCSDK/MCLib/Any/Src/revup_ctrl.c ****                   pHandle->bStageCnt = 6U;
 418:MCSDK_v6.3.2-Full/MotorControl/MCSDK/MCLib/Any/Src/revup_ctrl.c ****                 } /* No MC_NULL error */
 419:MCSDK_v6.3.2-Full/MotorControl/MCSDK/MCLib/Any/Src/revup_ctrl.c ****               } /* Speed > MinStartupFly */
 420:MCSDK_v6.3.2-Full/MotorControl/MCSDK/MCLib/Any/Src/revup_ctrl.c ****               else
 421:MCSDK_v6.3.2-Full/MotorControl/MCSDK/MCLib/Any/Src/revup_ctrl.c ****               {
 422:MCSDK_v6.3.2-Full/MotorControl/MCSDK/MCLib/Any/Src/revup_ctrl.c ****                 /* Nothing to do */
 423:MCSDK_v6.3.2-Full/MotorControl/MCSDK/MCLib/Any/Src/revup_ctrl.c ****               }
 424:MCSDK_v6.3.2-Full/MotorControl/MCSDK/MCLib/Any/Src/revup_ctrl.c ****             } /* Speeds are collinear */
 425:MCSDK_v6.3.2-Full/MotorControl/MCSDK/MCLib/Any/Src/revup_ctrl.c ****           } /* Speed is reliable */
 426:MCSDK_v6.3.2-Full/MotorControl/MCSDK/MCLib/Any/Src/revup_ctrl.c ****         }/* EnteredZone1 1 is false */
 427:MCSDK_v6.3.2-Full/MotorControl/MCSDK/MCLib/Any/Src/revup_ctrl.c ****         else
 428:MCSDK_v6.3.2-Full/MotorControl/MCSDK/MCLib/Any/Src/revup_ctrl.c ****         {
 429:MCSDK_v6.3.2-Full/MotorControl/MCSDK/MCLib/Any/Src/revup_ctrl.c ****           pHandle->pSNSL->pFctForceConvergency1(pHandle->pSNSL);
 430:MCSDK_v6.3.2-Full/MotorControl/MCSDK/MCLib/Any/Src/revup_ctrl.c ****         }
 431:MCSDK_v6.3.2-Full/MotorControl/MCSDK/MCLib/Any/Src/revup_ctrl.c ****       } /* Stage 0 */
 432:MCSDK_v6.3.2-Full/MotorControl/MCSDK/MCLib/Any/Src/revup_ctrl.c ****     } /* hPhaseRemainingTicks > 0 */
 433:MCSDK_v6.3.2-Full/MotorControl/MCSDK/MCLib/Any/Src/revup_ctrl.c **** 
 434:MCSDK_v6.3.2-Full/MotorControl/MCSDK/MCLib/Any/Src/revup_ctrl.c ****     if (0U == pHandle->hPhaseRemainingTicks)
 401              		.loc 1 434 5 is_stmt 1 view .LVU141
 402              		.loc 1 434 8 is_stmt 0 view .LVU142
 403 0016 0BB1     		cbz	r3, .L41
ARM GAS  /tmp/ccZpGKc6.s 			page 19


 404              	.L63:
 227:MCSDK_v6.3.2-Full/MotorControl/MCSDK/MCLib/Any/Src/revup_ctrl.c **** #ifdef NULL_PTR_CHECK_REV_UP_CTL
 405              		.loc 1 227 8 view .LVU143
 406 0018 0120     		movs	r0, #1
 435:MCSDK_v6.3.2-Full/MotorControl/MCSDK/MCLib/Any/Src/revup_ctrl.c ****     {
 436:MCSDK_v6.3.2-Full/MotorControl/MCSDK/MCLib/Any/Src/revup_ctrl.c ****       if (pHandle->pCurrentPhaseParams != MC_NULL)
 437:MCSDK_v6.3.2-Full/MotorControl/MCSDK/MCLib/Any/Src/revup_ctrl.c ****       {
 438:MCSDK_v6.3.2-Full/MotorControl/MCSDK/MCLib/Any/Src/revup_ctrl.c ****         if (0U == pHandle->bStageCnt)
 439:MCSDK_v6.3.2-Full/MotorControl/MCSDK/MCLib/Any/Src/revup_ctrl.c ****         {
 440:MCSDK_v6.3.2-Full/MotorControl/MCSDK/MCLib/Any/Src/revup_ctrl.c ****           /* End of OTF */
 441:MCSDK_v6.3.2-Full/MotorControl/MCSDK/MCLib/Any/Src/revup_ctrl.c ****           PWMC_SwitchOffPWM(pHandle->pPWM);
 442:MCSDK_v6.3.2-Full/MotorControl/MCSDK/MCLib/Any/Src/revup_ctrl.c ****           pHandle->OTFSCLowside = true;
 443:MCSDK_v6.3.2-Full/MotorControl/MCSDK/MCLib/Any/Src/revup_ctrl.c ****           PWMC_TurnOnLowSides(pHandle->pPWM, 0u);
 444:MCSDK_v6.3.2-Full/MotorControl/MCSDK/MCLib/Any/Src/revup_ctrl.c ****           pHandle->bOTFRelCounter = 0U;
 445:MCSDK_v6.3.2-Full/MotorControl/MCSDK/MCLib/Any/Src/revup_ctrl.c ****         }
 446:MCSDK_v6.3.2-Full/MotorControl/MCSDK/MCLib/Any/Src/revup_ctrl.c ****         else if (1U == pHandle->bStageCnt)
 447:MCSDK_v6.3.2-Full/MotorControl/MCSDK/MCLib/Any/Src/revup_ctrl.c ****         {
 448:MCSDK_v6.3.2-Full/MotorControl/MCSDK/MCLib/Any/Src/revup_ctrl.c ****           PWMC_SwitchOnPWM(pHandle->pPWM);
 449:MCSDK_v6.3.2-Full/MotorControl/MCSDK/MCLib/Any/Src/revup_ctrl.c ****           pHandle->OTFSCLowside = false;
 450:MCSDK_v6.3.2-Full/MotorControl/MCSDK/MCLib/Any/Src/revup_ctrl.c ****         }
 451:MCSDK_v6.3.2-Full/MotorControl/MCSDK/MCLib/Any/Src/revup_ctrl.c ****         else
 452:MCSDK_v6.3.2-Full/MotorControl/MCSDK/MCLib/Any/Src/revup_ctrl.c ****         {
 453:MCSDK_v6.3.2-Full/MotorControl/MCSDK/MCLib/Any/Src/revup_ctrl.c ****           /* Nothing to do */
 454:MCSDK_v6.3.2-Full/MotorControl/MCSDK/MCLib/Any/Src/revup_ctrl.c ****         }
 455:MCSDK_v6.3.2-Full/MotorControl/MCSDK/MCLib/Any/Src/revup_ctrl.c **** 
 456:MCSDK_v6.3.2-Full/MotorControl/MCSDK/MCLib/Any/Src/revup_ctrl.c **** 
 457:MCSDK_v6.3.2-Full/MotorControl/MCSDK/MCLib/Any/Src/revup_ctrl.c ****         /* If it becomes zero the current phase has been completed */
 458:MCSDK_v6.3.2-Full/MotorControl/MCSDK/MCLib/Any/Src/revup_ctrl.c ****         /* Gives the next command to STC and VSS */
 459:MCSDK_v6.3.2-Full/MotorControl/MCSDK/MCLib/Any/Src/revup_ctrl.c ****         (void)STC_ExecRamp(pHandle->pSTC, pHandle->pCurrentPhaseParams->hFinalTorque * pHandle->hDi
 460:MCSDK_v6.3.2-Full/MotorControl/MCSDK/MCLib/Any/Src/revup_ctrl.c ****                            (uint32_t)(pHandle->pCurrentPhaseParams->hDurationms));
 461:MCSDK_v6.3.2-Full/MotorControl/MCSDK/MCLib/Any/Src/revup_ctrl.c **** 
 462:MCSDK_v6.3.2-Full/MotorControl/MCSDK/MCLib/Any/Src/revup_ctrl.c ****         VSS_SetMecAcceleration(pHandle->pVSS,
 463:MCSDK_v6.3.2-Full/MotorControl/MCSDK/MCLib/Any/Src/revup_ctrl.c ****                                pHandle->pCurrentPhaseParams->hFinalMecSpeedUnit * pHandle->hDirecti
 464:MCSDK_v6.3.2-Full/MotorControl/MCSDK/MCLib/Any/Src/revup_ctrl.c ****                                pHandle->pCurrentPhaseParams->hDurationms);
 465:MCSDK_v6.3.2-Full/MotorControl/MCSDK/MCLib/Any/Src/revup_ctrl.c **** 
 466:MCSDK_v6.3.2-Full/MotorControl/MCSDK/MCLib/Any/Src/revup_ctrl.c ****         /* Compute hPhaseRemainingTicks */
 467:MCSDK_v6.3.2-Full/MotorControl/MCSDK/MCLib/Any/Src/revup_ctrl.c ****         pHandle->hPhaseRemainingTicks = (uint16_t)((((uint32_t)pHandle->pCurrentPhaseParams->hDurat
 468:MCSDK_v6.3.2-Full/MotorControl/MCSDK/MCLib/Any/Src/revup_ctrl.c ****                                                  * (uint32_t)pHandle->hRUCFrequencyHz) / 1000U);
 469:MCSDK_v6.3.2-Full/MotorControl/MCSDK/MCLib/Any/Src/revup_ctrl.c ****         pHandle->hPhaseRemainingTicks++;
 470:MCSDK_v6.3.2-Full/MotorControl/MCSDK/MCLib/Any/Src/revup_ctrl.c **** 
 471:MCSDK_v6.3.2-Full/MotorControl/MCSDK/MCLib/Any/Src/revup_ctrl.c ****         /* Set the next phases parameter pointer */
 472:MCSDK_v6.3.2-Full/MotorControl/MCSDK/MCLib/Any/Src/revup_ctrl.c ****         pHandle->pCurrentPhaseParams = pHandle->pCurrentPhaseParams->pNext; //cstat !MISRAC2012-Rul
 473:MCSDK_v6.3.2-Full/MotorControl/MCSDK/MCLib/Any/Src/revup_ctrl.c **** 
 474:MCSDK_v6.3.2-Full/MotorControl/MCSDK/MCLib/Any/Src/revup_ctrl.c ****         /* Increases the rev up stages counter */
 475:MCSDK_v6.3.2-Full/MotorControl/MCSDK/MCLib/Any/Src/revup_ctrl.c ****         pHandle->bStageCnt++;
 476:MCSDK_v6.3.2-Full/MotorControl/MCSDK/MCLib/Any/Src/revup_ctrl.c ****       }
 477:MCSDK_v6.3.2-Full/MotorControl/MCSDK/MCLib/Any/Src/revup_ctrl.c ****       else
 478:MCSDK_v6.3.2-Full/MotorControl/MCSDK/MCLib/Any/Src/revup_ctrl.c ****       {
 479:MCSDK_v6.3.2-Full/MotorControl/MCSDK/MCLib/Any/Src/revup_ctrl.c ****         if (pHandle->bStageCnt == (pHandle->bPhaseNbr - (uint8_t)1)) /* End of user programmed revu
 480:MCSDK_v6.3.2-Full/MotorControl/MCSDK/MCLib/Any/Src/revup_ctrl.c ****         {
 481:MCSDK_v6.3.2-Full/MotorControl/MCSDK/MCLib/Any/Src/revup_ctrl.c ****           retVal = false;
 482:MCSDK_v6.3.2-Full/MotorControl/MCSDK/MCLib/Any/Src/revup_ctrl.c ****         }
 483:MCSDK_v6.3.2-Full/MotorControl/MCSDK/MCLib/Any/Src/revup_ctrl.c ****         else if (7U == pHandle->bStageCnt) /* End of first OTF runs */
 484:MCSDK_v6.3.2-Full/MotorControl/MCSDK/MCLib/Any/Src/revup_ctrl.c ****         {
 485:MCSDK_v6.3.2-Full/MotorControl/MCSDK/MCLib/Any/Src/revup_ctrl.c ****           pHandle->bStageCnt = 0U; /* Breaking state */
 486:MCSDK_v6.3.2-Full/MotorControl/MCSDK/MCLib/Any/Src/revup_ctrl.c ****           pHandle->hPhaseRemainingTicks = 0U;
 487:MCSDK_v6.3.2-Full/MotorControl/MCSDK/MCLib/Any/Src/revup_ctrl.c ****         }
ARM GAS  /tmp/ccZpGKc6.s 			page 20


 488:MCSDK_v6.3.2-Full/MotorControl/MCSDK/MCLib/Any/Src/revup_ctrl.c ****         else
 489:MCSDK_v6.3.2-Full/MotorControl/MCSDK/MCLib/Any/Src/revup_ctrl.c ****         {
 490:MCSDK_v6.3.2-Full/MotorControl/MCSDK/MCLib/Any/Src/revup_ctrl.c ****           /* Nothing to do */
 491:MCSDK_v6.3.2-Full/MotorControl/MCSDK/MCLib/Any/Src/revup_ctrl.c ****         }
 492:MCSDK_v6.3.2-Full/MotorControl/MCSDK/MCLib/Any/Src/revup_ctrl.c ****       }
 493:MCSDK_v6.3.2-Full/MotorControl/MCSDK/MCLib/Any/Src/revup_ctrl.c ****     }
 494:MCSDK_v6.3.2-Full/MotorControl/MCSDK/MCLib/Any/Src/revup_ctrl.c **** #ifdef NULL_PTR_CHECK_REV_UP_CTL
 495:MCSDK_v6.3.2-Full/MotorControl/MCSDK/MCLib/Any/Src/revup_ctrl.c ****   }
 496:MCSDK_v6.3.2-Full/MotorControl/MCSDK/MCLib/Any/Src/revup_ctrl.c **** #endif
 497:MCSDK_v6.3.2-Full/MotorControl/MCSDK/MCLib/Any/Src/revup_ctrl.c ****   return (retVal);
 498:MCSDK_v6.3.2-Full/MotorControl/MCSDK/MCLib/Any/Src/revup_ctrl.c **** }
 407              		.loc 1 498 1 view .LVU144
 408 001a 70BD     		pop	{r4, r5, r6, pc}
 409              	.LVL32:
 410              	.L41:
 436:MCSDK_v6.3.2-Full/MotorControl/MCSDK/MCLib/Any/Src/revup_ctrl.c ****       {
 411              		.loc 1 436 18 view .LVU145
 412 001c A368     		ldr	r3, [r4, #8]
 438:MCSDK_v6.3.2-Full/MotorControl/MCSDK/MCLib/Any/Src/revup_ctrl.c ****         {
 413              		.loc 1 438 26 view .LVU146
 414 001e 94F85850 		ldrb	r5, [r4, #88]	@ zero_extendqisi2
 415              	.L45:
 436:MCSDK_v6.3.2-Full/MotorControl/MCSDK/MCLib/Any/Src/revup_ctrl.c ****       {
 416              		.loc 1 436 7 is_stmt 1 view .LVU147
 436:MCSDK_v6.3.2-Full/MotorControl/MCSDK/MCLib/Any/Src/revup_ctrl.c ****       {
 417              		.loc 1 436 10 is_stmt 0 view .LVU148
 418 0022 002B     		cmp	r3, #0
 419 0024 73D0     		beq	.L35
 438:MCSDK_v6.3.2-Full/MotorControl/MCSDK/MCLib/Any/Src/revup_ctrl.c ****         {
 420              		.loc 1 438 9 is_stmt 1 view .LVU149
 438:MCSDK_v6.3.2-Full/MotorControl/MCSDK/MCLib/Any/Src/revup_ctrl.c ****         {
 421              		.loc 1 438 12 is_stmt 0 view .LVU150
 422 0026 002D     		cmp	r5, #0
 423 0028 7ED0     		beq	.L65
 446:MCSDK_v6.3.2-Full/MotorControl/MCSDK/MCLib/Any/Src/revup_ctrl.c ****         {
 424              		.loc 1 446 14 is_stmt 1 view .LVU151
 446:MCSDK_v6.3.2-Full/MotorControl/MCSDK/MCLib/Any/Src/revup_ctrl.c ****         {
 425              		.loc 1 446 17 is_stmt 0 view .LVU152
 426 002a 012D     		cmp	r5, #1
 427 002c 00F09380 		beq	.L66
 428              	.L43:
 454:MCSDK_v6.3.2-Full/MotorControl/MCSDK/MCLib/Any/Src/revup_ctrl.c **** 
 429              		.loc 1 454 9 is_stmt 1 view .LVU153
 459:MCSDK_v6.3.2-Full/MotorControl/MCSDK/MCLib/Any/Src/revup_ctrl.c ****                            (uint32_t)(pHandle->pCurrentPhaseParams->hDurationms));
 430              		.loc 1 459 9 view .LVU154
 459:MCSDK_v6.3.2-Full/MotorControl/MCSDK/MCLib/Any/Src/revup_ctrl.c ****                            (uint32_t)(pHandle->pCurrentPhaseParams->hDurationms));
 431              		.loc 1 459 86 is_stmt 0 view .LVU155
 432 0030 E088     		ldrh	r0, [r4, #6]
 433 0032 9988     		ldrh	r1, [r3, #4]
 459:MCSDK_v6.3.2-Full/MotorControl/MCSDK/MCLib/Any/Src/revup_ctrl.c ****                            (uint32_t)(pHandle->pCurrentPhaseParams->hDurationms));
 434              		.loc 1 459 15 view .LVU156
 435 0034 1A88     		ldrh	r2, [r3]
 459:MCSDK_v6.3.2-Full/MotorControl/MCSDK/MCLib/Any/Src/revup_ctrl.c ****                            (uint32_t)(pHandle->pCurrentPhaseParams->hDurationms));
 436              		.loc 1 459 86 view .LVU157
 437 0036 11FB00F1 		smulbb	r1, r1, r0
 459:MCSDK_v6.3.2-Full/MotorControl/MCSDK/MCLib/Any/Src/revup_ctrl.c ****                            (uint32_t)(pHandle->pCurrentPhaseParams->hDurationms));
 438              		.loc 1 459 15 view .LVU158
ARM GAS  /tmp/ccZpGKc6.s 			page 21


 439 003a 09B2     		sxth	r1, r1
 440 003c A06E     		ldr	r0, [r4, #104]
 441 003e FFF7FEFF 		bl	STC_ExecRamp
 442              	.LVL33:
 462:MCSDK_v6.3.2-Full/MotorControl/MCSDK/MCLib/Any/Src/revup_ctrl.c ****                                pHandle->pCurrentPhaseParams->hFinalMecSpeedUnit * pHandle->hDirecti
 443              		.loc 1 462 9 is_stmt 1 view .LVU159
 463:MCSDK_v6.3.2-Full/MotorControl/MCSDK/MCLib/Any/Src/revup_ctrl.c ****                                pHandle->pCurrentPhaseParams->hDurationms);
 444              		.loc 1 463 39 is_stmt 0 view .LVU160
 445 0042 A368     		ldr	r3, [r4, #8]
 463:MCSDK_v6.3.2-Full/MotorControl/MCSDK/MCLib/Any/Src/revup_ctrl.c ****                                pHandle->pCurrentPhaseParams->hDurationms);
 446              		.loc 1 463 81 view .LVU161
 447 0044 E088     		ldrh	r0, [r4, #6]
 448 0046 5988     		ldrh	r1, [r3, #2]
 462:MCSDK_v6.3.2-Full/MotorControl/MCSDK/MCLib/Any/Src/revup_ctrl.c ****                                pHandle->pCurrentPhaseParams->hFinalMecSpeedUnit * pHandle->hDirecti
 449              		.loc 1 462 9 view .LVU162
 450 0048 1A88     		ldrh	r2, [r3]
 463:MCSDK_v6.3.2-Full/MotorControl/MCSDK/MCLib/Any/Src/revup_ctrl.c ****                                pHandle->pCurrentPhaseParams->hDurationms);
 451              		.loc 1 463 81 view .LVU163
 452 004a 11FB00F1 		smulbb	r1, r1, r0
 462:MCSDK_v6.3.2-Full/MotorControl/MCSDK/MCLib/Any/Src/revup_ctrl.c ****                                pHandle->pCurrentPhaseParams->hFinalMecSpeedUnit * pHandle->hDirecti
 453              		.loc 1 462 9 view .LVU164
 454 004e 09B2     		sxth	r1, r1
 455 0050 E06E     		ldr	r0, [r4, #108]
 456 0052 FFF7FEFF 		bl	VSS_SetMecAcceleration
 457              	.LVL34:
 467:MCSDK_v6.3.2-Full/MotorControl/MCSDK/MCLib/Any/Src/revup_ctrl.c ****                                                  * (uint32_t)pHandle->hRUCFrequencyHz) / 1000U);
 458              		.loc 1 467 9 is_stmt 1 view .LVU165
 467:MCSDK_v6.3.2-Full/MotorControl/MCSDK/MCLib/Any/Src/revup_ctrl.c ****                                                  * (uint32_t)pHandle->hRUCFrequencyHz) / 1000U);
 459              		.loc 1 467 71 is_stmt 0 view .LVU166
 460 0056 A168     		ldr	r1, [r4, #8]
 469:MCSDK_v6.3.2-Full/MotorControl/MCSDK/MCLib/Any/Src/revup_ctrl.c **** 
 461              		.loc 1 469 9 is_stmt 1 view .LVU167
 468:MCSDK_v6.3.2-Full/MotorControl/MCSDK/MCLib/Any/Src/revup_ctrl.c ****         pHandle->hPhaseRemainingTicks++;
 462              		.loc 1 468 52 is_stmt 0 view .LVU168
 463 0058 2088     		ldrh	r0, [r4]
 467:MCSDK_v6.3.2-Full/MotorControl/MCSDK/MCLib/Any/Src/revup_ctrl.c ****                                                  * (uint32_t)pHandle->hRUCFrequencyHz) / 1000U);
 464              		.loc 1 467 54 view .LVU169
 465 005a 0B88     		ldrh	r3, [r1]
 468:MCSDK_v6.3.2-Full/MotorControl/MCSDK/MCLib/Any/Src/revup_ctrl.c ****         pHandle->hPhaseRemainingTicks++;
 466              		.loc 1 468 88 view .LVU170
 467 005c 6F4A     		ldr	r2, .L70
 472:MCSDK_v6.3.2-Full/MotorControl/MCSDK/MCLib/Any/Src/revup_ctrl.c **** 
 468              		.loc 1 472 38 view .LVU171
 469 005e 8968     		ldr	r1, [r1, #8]
 470 0060 A160     		str	r1, [r4, #8]
 468:MCSDK_v6.3.2-Full/MotorControl/MCSDK/MCLib/Any/Src/revup_ctrl.c ****         pHandle->hPhaseRemainingTicks++;
 471              		.loc 1 468 50 view .LVU172
 472 0062 00FB03F3 		mul	r3, r0, r3
 468:MCSDK_v6.3.2-Full/MotorControl/MCSDK/MCLib/Any/Src/revup_ctrl.c ****         pHandle->hPhaseRemainingTicks++;
 473              		.loc 1 468 88 view .LVU173
 474 0066 A2FB0323 		umull	r2, r3, r2, r3
 475:MCSDK_v6.3.2-Full/MotorControl/MCSDK/MCLib/Any/Src/revup_ctrl.c ****       }
 475              		.loc 1 475 27 view .LVU174
 476 006a 94F85820 		ldrb	r2, [r4, #88]	@ zero_extendqisi2
 468:MCSDK_v6.3.2-Full/MotorControl/MCSDK/MCLib/Any/Src/revup_ctrl.c ****         pHandle->hPhaseRemainingTicks++;
 477              		.loc 1 468 88 view .LVU175
 478 006e 9B09     		lsrs	r3, r3, #6
ARM GAS  /tmp/ccZpGKc6.s 			page 22


 475:MCSDK_v6.3.2-Full/MotorControl/MCSDK/MCLib/Any/Src/revup_ctrl.c ****       }
 479              		.loc 1 475 27 view .LVU176
 480 0070 0132     		adds	r2, r2, #1
 469:MCSDK_v6.3.2-Full/MotorControl/MCSDK/MCLib/Any/Src/revup_ctrl.c **** 
 481              		.loc 1 469 38 view .LVU177
 482 0072 0133     		adds	r3, r3, #1
 475:MCSDK_v6.3.2-Full/MotorControl/MCSDK/MCLib/Any/Src/revup_ctrl.c ****       }
 483              		.loc 1 475 27 view .LVU178
 484 0074 84F85820 		strb	r2, [r4, #88]
 469:MCSDK_v6.3.2-Full/MotorControl/MCSDK/MCLib/Any/Src/revup_ctrl.c **** 
 485              		.loc 1 469 38 view .LVU179
 486 0078 A380     		strh	r3, [r4, #4]	@ movhi
 472:MCSDK_v6.3.2-Full/MotorControl/MCSDK/MCLib/Any/Src/revup_ctrl.c **** 
 487              		.loc 1 472 9 is_stmt 1 view .LVU180
 475:MCSDK_v6.3.2-Full/MotorControl/MCSDK/MCLib/Any/Src/revup_ctrl.c ****       }
 488              		.loc 1 475 9 view .LVU181
 227:MCSDK_v6.3.2-Full/MotorControl/MCSDK/MCLib/Any/Src/revup_ctrl.c **** #ifdef NULL_PTR_CHECK_REV_UP_CTL
 489              		.loc 1 227 8 is_stmt 0 view .LVU182
 490 007a 0120     		movs	r0, #1
 491              		.loc 1 498 1 view .LVU183
 492 007c 70BD     		pop	{r4, r5, r6, pc}
 493              	.LVL35:
 494              	.L64:
 247:MCSDK_v6.3.2-Full/MotorControl/MCSDK/MCLib/Any/Src/revup_ctrl.c ****         {
 495              		.loc 1 247 9 is_stmt 1 view .LVU184
 247:MCSDK_v6.3.2-Full/MotorControl/MCSDK/MCLib/Any/Src/revup_ctrl.c ****         {
 496              		.loc 1 247 12 is_stmt 0 view .LVU185
 497 007e 90F85530 		ldrb	r3, [r0, #85]	@ zero_extendqisi2
 249:MCSDK_v6.3.2-Full/MotorControl/MCSDK/MCLib/Any/Src/revup_ctrl.c ****           {
 498              		.loc 1 249 22 view .LVU186
 499 0082 006F     		ldr	r0, [r0, #112]
 500              	.LVL36:
 247:MCSDK_v6.3.2-Full/MotorControl/MCSDK/MCLib/Any/Src/revup_ctrl.c ****         {
 501              		.loc 1 247 12 view .LVU187
 502 0084 002B     		cmp	r3, #0
 503 0086 3BD1     		bne	.L20
 249:MCSDK_v6.3.2-Full/MotorControl/MCSDK/MCLib/Any/Src/revup_ctrl.c ****           {
 504              		.loc 1 249 11 is_stmt 1 view .LVU188
 249:MCSDK_v6.3.2-Full/MotorControl/MCSDK/MCLib/Any/Src/revup_ctrl.c ****           {
 505              		.loc 1 249 29 is_stmt 0 view .LVU189
 506 0088 C268     		ldr	r2, [r0, #12]
 249:MCSDK_v6.3.2-Full/MotorControl/MCSDK/MCLib/Any/Src/revup_ctrl.c ****           {
 507              		.loc 1 249 14 view .LVU190
 508 008a 4AB1     		cbz	r2, .L21
 251:MCSDK_v6.3.2-Full/MotorControl/MCSDK/MCLib/Any/Src/revup_ctrl.c ****             if (pHandle->bResetPLLCnt > pHandle->bResetPLLTh)
 509              		.loc 1 251 13 is_stmt 1 view .LVU191
 251:MCSDK_v6.3.2-Full/MotorControl/MCSDK/MCLib/Any/Src/revup_ctrl.c ****             if (pHandle->bResetPLLCnt > pHandle->bResetPLLTh)
 510              		.loc 1 251 34 is_stmt 0 view .LVU192
 511 008c 94F85730 		ldrb	r3, [r4, #87]	@ zero_extendqisi2
 252:MCSDK_v6.3.2-Full/MotorControl/MCSDK/MCLib/Any/Src/revup_ctrl.c ****             {
 512              		.loc 1 252 16 view .LVU193
 513 0090 94F85610 		ldrb	r1, [r4, #86]	@ zero_extendqisi2
 251:MCSDK_v6.3.2-Full/MotorControl/MCSDK/MCLib/Any/Src/revup_ctrl.c ****             if (pHandle->bResetPLLCnt > pHandle->bResetPLLTh)
 514              		.loc 1 251 34 view .LVU194
 515 0094 0133     		adds	r3, r3, #1
 516 0096 DBB2     		uxtb	r3, r3
 252:MCSDK_v6.3.2-Full/MotorControl/MCSDK/MCLib/Any/Src/revup_ctrl.c ****             {
ARM GAS  /tmp/ccZpGKc6.s 			page 23


 517              		.loc 1 252 16 view .LVU195
 518 0098 9942     		cmp	r1, r3
 251:MCSDK_v6.3.2-Full/MotorControl/MCSDK/MCLib/Any/Src/revup_ctrl.c ****             if (pHandle->bResetPLLCnt > pHandle->bResetPLLTh)
 519              		.loc 1 251 34 view .LVU196
 520 009a 84F85730 		strb	r3, [r4, #87]
 252:MCSDK_v6.3.2-Full/MotorControl/MCSDK/MCLib/Any/Src/revup_ctrl.c ****             {
 521              		.loc 1 252 13 is_stmt 1 view .LVU197
 252:MCSDK_v6.3.2-Full/MotorControl/MCSDK/MCLib/Any/Src/revup_ctrl.c ****             {
 522              		.loc 1 252 16 is_stmt 0 view .LVU198
 523 009e 62D3     		bcc	.L67
 524              	.L21:
 266:MCSDK_v6.3.2-Full/MotorControl/MCSDK/MCLib/Any/Src/revup_ctrl.c **** 
 525              		.loc 1 266 11 is_stmt 1 view .LVU199
 268:MCSDK_v6.3.2-Full/MotorControl/MCSDK/MCLib/Any/Src/revup_ctrl.c **** 
 526              		.loc 1 268 11 view .LVU200
 268:MCSDK_v6.3.2-Full/MotorControl/MCSDK/MCLib/Any/Src/revup_ctrl.c **** 
 527              		.loc 1 268 29 is_stmt 0 view .LVU201
 528 00a0 0369     		ldr	r3, [r0, #16]
 529 00a2 9847     		blx	r3
 530              	.LVL37:
 270:MCSDK_v6.3.2-Full/MotorControl/MCSDK/MCLib/Any/Src/revup_ctrl.c ****           {
 531              		.loc 1 270 11 is_stmt 1 view .LVU202
 270:MCSDK_v6.3.2-Full/MotorControl/MCSDK/MCLib/Any/Src/revup_ctrl.c ****           {
 532              		.loc 1 270 14 is_stmt 0 view .LVU203
 533 00a4 0028     		cmp	r0, #0
 534 00a6 4DD0     		beq	.L22
 272:MCSDK_v6.3.2-Full/MotorControl/MCSDK/MCLib/Any/Src/revup_ctrl.c ****             {
 535              		.loc 1 272 13 is_stmt 1 view .LVU204
 272:MCSDK_v6.3.2-Full/MotorControl/MCSDK/MCLib/Any/Src/revup_ctrl.c ****             {
 536              		.loc 1 272 24 is_stmt 0 view .LVU205
 537 00a8 94F85350 		ldrb	r5, [r4, #83]	@ zero_extendqisi2
 272:MCSDK_v6.3.2-Full/MotorControl/MCSDK/MCLib/Any/Src/revup_ctrl.c ****             {
 538              		.loc 1 272 16 view .LVU206
 539 00ac 7E2D     		cmp	r5, #126
 540 00ae 03D8     		bhi	.L23
 274:MCSDK_v6.3.2-Full/MotorControl/MCSDK/MCLib/Any/Src/revup_ctrl.c ****             }
 541              		.loc 1 274 15 is_stmt 1 view .LVU207
 274:MCSDK_v6.3.2-Full/MotorControl/MCSDK/MCLib/Any/Src/revup_ctrl.c ****             }
 542              		.loc 1 274 38 is_stmt 0 view .LVU208
 543 00b0 0135     		adds	r5, r5, #1
 544 00b2 EDB2     		uxtb	r5, r5
 545 00b4 84F85350 		strb	r5, [r4, #83]
 546              	.L23:
 286:MCSDK_v6.3.2-Full/MotorControl/MCSDK/MCLib/Any/Src/revup_ctrl.c ****           {
 547              		.loc 1 286 11 is_stmt 1 view .LVU209
 286:MCSDK_v6.3.2-Full/MotorControl/MCSDK/MCLib/Any/Src/revup_ctrl.c ****           {
 548              		.loc 1 286 22 is_stmt 0 view .LVU210
 549 00b8 236F     		ldr	r3, [r4, #112]
 286:MCSDK_v6.3.2-Full/MotorControl/MCSDK/MCLib/Any/Src/revup_ctrl.c ****           {
 550              		.loc 1 286 14 view .LVU211
 551 00ba DA68     		ldr	r2, [r3, #12]
 552 00bc 002A     		cmp	r2, #0
 553 00be 59D0     		beq	.L25
 554              	.L24:
 288:MCSDK_v6.3.2-Full/MotorControl/MCSDK/MCLib/Any/Src/revup_ctrl.c ****             {
 555              		.loc 1 288 13 is_stmt 1 view .LVU212
 288:MCSDK_v6.3.2-Full/MotorControl/MCSDK/MCLib/Any/Src/revup_ctrl.c ****             {
ARM GAS  /tmp/ccZpGKc6.s 			page 24


 556              		.loc 1 288 41 is_stmt 0 view .LVU213
 557 00c0 94F85620 		ldrb	r2, [r4, #86]	@ zero_extendqisi2
 288:MCSDK_v6.3.2-Full/MotorControl/MCSDK/MCLib/Any/Src/revup_ctrl.c ****             {
 558              		.loc 1 288 16 view .LVU214
 559 00c4 B5EB520F 		cmp	r5, r2, lsr #1
 560 00c8 1CD1     		bne	.L62
 561              	.L26:
 562              	.LVL38:
 563              	.LBB19:
 311:MCSDK_v6.3.2-Full/MotorControl/MCSDK/MCLib/Any/Src/revup_ctrl.c ****             int16_t hObsSpeedUnit = SPD_GetAvrgMecSpeedUnit(pHandle->pSNSL->_Super);
 564              		.loc 1 311 13 is_stmt 1 view .LVU215
 312:MCSDK_v6.3.2-Full/MotorControl/MCSDK/MCLib/Any/Src/revup_ctrl.c ****             int16_t hObsSpeedUnitAbsValue =
 565              		.loc 1 312 13 view .LVU216
 312:MCSDK_v6.3.2-Full/MotorControl/MCSDK/MCLib/Any/Src/revup_ctrl.c ****             int16_t hObsSpeedUnitAbsValue =
 566              		.loc 1 312 37 is_stmt 0 view .LVU217
 567 00ca 1868     		ldr	r0, [r3]
 568              	.LVL39:
 312:MCSDK_v6.3.2-Full/MotorControl/MCSDK/MCLib/Any/Src/revup_ctrl.c ****             int16_t hObsSpeedUnitAbsValue =
 569              		.loc 1 312 37 view .LVU218
 570 00cc FFF7FEFF 		bl	SPD_GetAvrgMecSpeedUnit
 571              	.LVL40:
 316:MCSDK_v6.3.2-Full/MotorControl/MCSDK/MCLib/Any/Src/revup_ctrl.c ****             {
 572              		.loc 1 316 16 view .LVU219
 573 00d0 B4F90630 		ldrsh	r3, [r4, #6]
 574 00d4 002B     		cmp	r3, #0
 312:MCSDK_v6.3.2-Full/MotorControl/MCSDK/MCLib/Any/Src/revup_ctrl.c ****             int16_t hObsSpeedUnitAbsValue =
 575              		.loc 1 312 37 view .LVU220
 576 00d6 0646     		mov	r6, r0
 577              	.LVL41:
 313:MCSDK_v6.3.2-Full/MotorControl/MCSDK/MCLib/Any/Src/revup_ctrl.c ****                     ((hObsSpeedUnit < 0) ? (-hObsSpeedUnit) : (hObsSpeedUnit)); /* hObsSpeedUnit ab
 578              		.loc 1 313 13 is_stmt 1 view .LVU221
 316:MCSDK_v6.3.2-Full/MotorControl/MCSDK/MCLib/Any/Src/revup_ctrl.c ****             {
 579              		.loc 1 316 13 view .LVU222
 316:MCSDK_v6.3.2-Full/MotorControl/MCSDK/MCLib/Any/Src/revup_ctrl.c ****             {
 580              		.loc 1 316 16 is_stmt 0 view .LVU223
 581 00d8 4FDD     		ble	.L27
 318:MCSDK_v6.3.2-Full/MotorControl/MCSDK/MCLib/Any/Src/revup_ctrl.c ****               {
 582              		.loc 1 318 15 is_stmt 1 view .LVU224
 318:MCSDK_v6.3.2-Full/MotorControl/MCSDK/MCLib/Any/Src/revup_ctrl.c ****               {
 583              		.loc 1 318 18 is_stmt 0 view .LVU225
 584 00da 0028     		cmp	r0, #0
 585 00dc 4FDD     		ble	.L29
 586              	.L28:
 314:MCSDK_v6.3.2-Full/MotorControl/MCSDK/MCLib/Any/Src/revup_ctrl.c **** 
 587              		.loc 1 314 61 view .LVU226
 588 00de 86EAE675 		eor	r5, r6, r6, asr #31
 346:MCSDK_v6.3.2-Full/MotorControl/MCSDK/MCLib/Any/Src/revup_ctrl.c ****               {
 589              		.loc 1 346 18 view .LVU227
 590 00e2 B4F84A30 		ldrh	r3, [r4, #74]
 314:MCSDK_v6.3.2-Full/MotorControl/MCSDK/MCLib/Any/Src/revup_ctrl.c **** 
 591              		.loc 1 314 61 view .LVU228
 592 00e6 A5EBE675 		sub	r5, r5, r6, asr #31
 593 00ea ADB2     		uxth	r5, r5
 594              	.LVL42:
 346:MCSDK_v6.3.2-Full/MotorControl/MCSDK/MCLib/Any/Src/revup_ctrl.c ****               {
 595              		.loc 1 346 15 is_stmt 1 view .LVU229
 346:MCSDK_v6.3.2-Full/MotorControl/MCSDK/MCLib/Any/Src/revup_ctrl.c ****               {
ARM GAS  /tmp/ccZpGKc6.s 			page 25


 596              		.loc 1 346 18 is_stmt 0 view .LVU230
 597 00ec AB42     		cmp	r3, r5
 598 00ee 4BD2     		bcs	.L30
 349:MCSDK_v6.3.2-Full/MotorControl/MCSDK/MCLib/Any/Src/revup_ctrl.c ****                 pHandle->EnteredZone1 = true;
 599              		.loc 1 349 17 is_stmt 1 view .LVU231
 349:MCSDK_v6.3.2-Full/MotorControl/MCSDK/MCLib/Any/Src/revup_ctrl.c ****                 pHandle->EnteredZone1 = true;
 600              		.loc 1 349 24 is_stmt 0 view .LVU232
 601 00f0 206F     		ldr	r0, [r4, #112]
 602              	.LVL43:
 349:MCSDK_v6.3.2-Full/MotorControl/MCSDK/MCLib/Any/Src/revup_ctrl.c ****                 pHandle->EnteredZone1 = true;
 603              		.loc 1 349 17 view .LVU233
 604 00f2 4368     		ldr	r3, [r0, #4]
 605 00f4 9847     		blx	r3
 606              	.LVL44:
 350:MCSDK_v6.3.2-Full/MotorControl/MCSDK/MCLib/Any/Src/revup_ctrl.c ****               }
 607              		.loc 1 350 17 is_stmt 1 view .LVU234
 350:MCSDK_v6.3.2-Full/MotorControl/MCSDK/MCLib/Any/Src/revup_ctrl.c ****               }
 608              		.loc 1 350 39 is_stmt 0 view .LVU235
 609 00f6 0122     		movs	r2, #1
 610              	.LBE19:
 434:MCSDK_v6.3.2-Full/MotorControl/MCSDK/MCLib/Any/Src/revup_ctrl.c ****     {
 611              		.loc 1 434 22 view .LVU236
 612 00f8 A388     		ldrh	r3, [r4, #4]
 613              	.LBB32:
 350:MCSDK_v6.3.2-Full/MotorControl/MCSDK/MCLib/Any/Src/revup_ctrl.c ****               }
 614              		.loc 1 350 39 view .LVU237
 615 00fa 84F85520 		strb	r2, [r4, #85]
 616 00fe 8AE7     		b	.L19
 617              	.LVL45:
 618              	.L20:
 350:MCSDK_v6.3.2-Full/MotorControl/MCSDK/MCLib/Any/Src/revup_ctrl.c ****               }
 619              		.loc 1 350 39 view .LVU238
 620              	.LBE32:
 429:MCSDK_v6.3.2-Full/MotorControl/MCSDK/MCLib/Any/Src/revup_ctrl.c ****         }
 621              		.loc 1 429 11 is_stmt 1 view .LVU239
 622 0100 4368     		ldr	r3, [r0, #4]
 623 0102 9847     		blx	r3
 624              	.LVL46:
 625              	.L62:
 434:MCSDK_v6.3.2-Full/MotorControl/MCSDK/MCLib/Any/Src/revup_ctrl.c ****     {
 626              		.loc 1 434 22 is_stmt 0 view .LVU240
 627 0104 A388     		ldrh	r3, [r4, #4]
 628 0106 86E7     		b	.L19
 629              	.LVL47:
 630              	.L32:
 631              	.LBB33:
 632              	.LBB20:
 366:MCSDK_v6.3.2-Full/MotorControl/MCSDK/MCLib/Any/Src/revup_ctrl.c ****                   pHandle->hPhaseRemainingTicks = 0U;
 633              		.loc 1 366 19 is_stmt 1 view .LVU241
 367:MCSDK_v6.3.2-Full/MotorControl/MCSDK/MCLib/Any/Src/revup_ctrl.c ****                 }
 634              		.loc 1 367 19 view .LVU242
 635              	.LBE20:
 636              	.LBE33:
 438:MCSDK_v6.3.2-Full/MotorControl/MCSDK/MCLib/Any/Src/revup_ctrl.c ****         {
 637              		.loc 1 438 26 is_stmt 0 view .LVU243
 638 0108 94F85850 		ldrb	r5, [r4, #88]	@ zero_extendqisi2
 639              	.LBB34:
ARM GAS  /tmp/ccZpGKc6.s 			page 26


 640              	.LBB27:
 367:MCSDK_v6.3.2-Full/MotorControl/MCSDK/MCLib/Any/Src/revup_ctrl.c ****                 }
 641              		.loc 1 367 49 view .LVU244
 642 010c A280     		strh	r2, [r4, #4]	@ movhi
 391:MCSDK_v6.3.2-Full/MotorControl/MCSDK/MCLib/Any/Src/revup_ctrl.c ****                 {
 643              		.loc 1 391 17 is_stmt 1 view .LVU245
 644              	.LBE27:
 645              	.LBE34:
 434:MCSDK_v6.3.2-Full/MotorControl/MCSDK/MCLib/Any/Src/revup_ctrl.c ****     {
 646              		.loc 1 434 5 view .LVU246
 436:MCSDK_v6.3.2-Full/MotorControl/MCSDK/MCLib/Any/Src/revup_ctrl.c ****       {
 647              		.loc 1 436 7 view .LVU247
 648              	.LVL48:
 649              	.L35:
 479:MCSDK_v6.3.2-Full/MotorControl/MCSDK/MCLib/Any/Src/revup_ctrl.c ****         {
 650              		.loc 1 479 9 view .LVU248
 479:MCSDK_v6.3.2-Full/MotorControl/MCSDK/MCLib/Any/Src/revup_ctrl.c ****         {
 651              		.loc 1 479 43 is_stmt 0 view .LVU249
 652 010e 94F84830 		ldrb	r3, [r4, #72]	@ zero_extendqisi2
 479:MCSDK_v6.3.2-Full/MotorControl/MCSDK/MCLib/Any/Src/revup_ctrl.c ****         {
 653              		.loc 1 479 55 view .LVU250
 654 0112 013B     		subs	r3, r3, #1
 479:MCSDK_v6.3.2-Full/MotorControl/MCSDK/MCLib/Any/Src/revup_ctrl.c ****         {
 655              		.loc 1 479 12 view .LVU251
 656 0114 9D42     		cmp	r5, r3
 657 0116 1CD0     		beq	.L47
 483:MCSDK_v6.3.2-Full/MotorControl/MCSDK/MCLib/Any/Src/revup_ctrl.c ****         {
 658              		.loc 1 483 14 is_stmt 1 view .LVU252
 483:MCSDK_v6.3.2-Full/MotorControl/MCSDK/MCLib/Any/Src/revup_ctrl.c ****         {
 659              		.loc 1 483 17 is_stmt 0 view .LVU253
 660 0118 072D     		cmp	r5, #7
 661 011a 7FF47DAF 		bne	.L63
 485:MCSDK_v6.3.2-Full/MotorControl/MCSDK/MCLib/Any/Src/revup_ctrl.c ****           pHandle->hPhaseRemainingTicks = 0U;
 662              		.loc 1 485 11 is_stmt 1 view .LVU254
 485:MCSDK_v6.3.2-Full/MotorControl/MCSDK/MCLib/Any/Src/revup_ctrl.c ****           pHandle->hPhaseRemainingTicks = 0U;
 663              		.loc 1 485 30 is_stmt 0 view .LVU255
 664 011e 0023     		movs	r3, #0
 665 0120 84F85830 		strb	r3, [r4, #88]
 486:MCSDK_v6.3.2-Full/MotorControl/MCSDK/MCLib/Any/Src/revup_ctrl.c ****         }
 666              		.loc 1 486 11 is_stmt 1 view .LVU256
 486:MCSDK_v6.3.2-Full/MotorControl/MCSDK/MCLib/Any/Src/revup_ctrl.c ****         }
 667              		.loc 1 486 41 is_stmt 0 view .LVU257
 668 0124 A380     		strh	r3, [r4, #4]	@ movhi
 669 0126 77E7     		b	.L63
 670              	.L65:
 441:MCSDK_v6.3.2-Full/MotorControl/MCSDK/MCLib/Any/Src/revup_ctrl.c ****           pHandle->OTFSCLowside = true;
 671              		.loc 1 441 11 is_stmt 1 view .LVU258
 672 0128 606F     		ldr	r0, [r4, #116]
 673 012a FFF7FEFF 		bl	PWMC_SwitchOffPWM
 674              	.LVL49:
 442:MCSDK_v6.3.2-Full/MotorControl/MCSDK/MCLib/Any/Src/revup_ctrl.c ****           PWMC_TurnOnLowSides(pHandle->pPWM, 0u);
 675              		.loc 1 442 11 view .LVU259
 442:MCSDK_v6.3.2-Full/MotorControl/MCSDK/MCLib/Any/Src/revup_ctrl.c ****           PWMC_TurnOnLowSides(pHandle->pPWM, 0u);
 676              		.loc 1 442 33 is_stmt 0 view .LVU260
 677 012e 0123     		movs	r3, #1
 678 0130 84F85430 		strb	r3, [r4, #84]
 443:MCSDK_v6.3.2-Full/MotorControl/MCSDK/MCLib/Any/Src/revup_ctrl.c ****           pHandle->bOTFRelCounter = 0U;
ARM GAS  /tmp/ccZpGKc6.s 			page 27


 679              		.loc 1 443 11 is_stmt 1 view .LVU261
 680 0134 606F     		ldr	r0, [r4, #116]
 681 0136 2946     		mov	r1, r5
 682 0138 FFF7FEFF 		bl	PWMC_TurnOnLowSides
 683              	.LVL50:
 444:MCSDK_v6.3.2-Full/MotorControl/MCSDK/MCLib/Any/Src/revup_ctrl.c ****         }
 684              		.loc 1 444 11 view .LVU262
 459:MCSDK_v6.3.2-Full/MotorControl/MCSDK/MCLib/Any/Src/revup_ctrl.c ****                            (uint32_t)(pHandle->pCurrentPhaseParams->hDurationms));
 685              		.loc 1 459 50 is_stmt 0 view .LVU263
 686 013c A368     		ldr	r3, [r4, #8]
 444:MCSDK_v6.3.2-Full/MotorControl/MCSDK/MCLib/Any/Src/revup_ctrl.c ****         }
 687              		.loc 1 444 35 view .LVU264
 688 013e 84F85350 		strb	r5, [r4, #83]
 689 0142 75E7     		b	.L43
 690              	.LVL51:
 691              	.L22:
 283:MCSDK_v6.3.2-Full/MotorControl/MCSDK/MCLib/Any/Src/revup_ctrl.c ****           }
 692              		.loc 1 283 13 is_stmt 1 view .LVU265
 286:MCSDK_v6.3.2-Full/MotorControl/MCSDK/MCLib/Any/Src/revup_ctrl.c ****           {
 693              		.loc 1 286 22 is_stmt 0 view .LVU266
 694 0144 236F     		ldr	r3, [r4, #112]
 283:MCSDK_v6.3.2-Full/MotorControl/MCSDK/MCLib/Any/Src/revup_ctrl.c ****           }
 695              		.loc 1 283 37 view .LVU267
 696 0146 84F85300 		strb	r0, [r4, #83]
 286:MCSDK_v6.3.2-Full/MotorControl/MCSDK/MCLib/Any/Src/revup_ctrl.c ****           {
 697              		.loc 1 286 11 is_stmt 1 view .LVU268
 286:MCSDK_v6.3.2-Full/MotorControl/MCSDK/MCLib/Any/Src/revup_ctrl.c ****           {
 698              		.loc 1 286 14 is_stmt 0 view .LVU269
 699 014a DA68     		ldr	r2, [r3, #12]
 700 014c 002A     		cmp	r2, #0
 701 014e B7D1     		bne	.L24
 286:MCSDK_v6.3.2-Full/MotorControl/MCSDK/MCLib/Any/Src/revup_ctrl.c ****           {
 702              		.loc 1 286 14 view .LVU270
 703 0150 D8E7     		b	.L62
 704              	.LVL52:
 705              	.L47:
 481:MCSDK_v6.3.2-Full/MotorControl/MCSDK/MCLib/Any/Src/revup_ctrl.c ****         }
 706              		.loc 1 481 18 view .LVU271
 707 0152 0020     		movs	r0, #0
 708              	.LVL53:
 491:MCSDK_v6.3.2-Full/MotorControl/MCSDK/MCLib/Any/Src/revup_ctrl.c ****       }
 709              		.loc 1 491 9 is_stmt 1 view .LVU272
 497:MCSDK_v6.3.2-Full/MotorControl/MCSDK/MCLib/Any/Src/revup_ctrl.c **** }
 710              		.loc 1 497 3 view .LVU273
 711              		.loc 1 498 1 is_stmt 0 view .LVU274
 712 0154 70BD     		pop	{r4, r5, r6, pc}
 713              	.LVL54:
 714              	.L66:
 448:MCSDK_v6.3.2-Full/MotorControl/MCSDK/MCLib/Any/Src/revup_ctrl.c ****           pHandle->OTFSCLowside = false;
 715              		.loc 1 448 11 is_stmt 1 view .LVU275
 716 0156 606F     		ldr	r0, [r4, #116]
 717 0158 FFF7FEFF 		bl	PWMC_SwitchOnPWM
 718              	.LVL55:
 449:MCSDK_v6.3.2-Full/MotorControl/MCSDK/MCLib/Any/Src/revup_ctrl.c ****         }
 719              		.loc 1 449 11 view .LVU276
 449:MCSDK_v6.3.2-Full/MotorControl/MCSDK/MCLib/Any/Src/revup_ctrl.c ****         }
 720              		.loc 1 449 33 is_stmt 0 view .LVU277
ARM GAS  /tmp/ccZpGKc6.s 			page 28


 721 015c 0022     		movs	r2, #0
 459:MCSDK_v6.3.2-Full/MotorControl/MCSDK/MCLib/Any/Src/revup_ctrl.c ****                            (uint32_t)(pHandle->pCurrentPhaseParams->hDurationms));
 722              		.loc 1 459 50 view .LVU278
 723 015e A368     		ldr	r3, [r4, #8]
 449:MCSDK_v6.3.2-Full/MotorControl/MCSDK/MCLib/Any/Src/revup_ctrl.c ****         }
 724              		.loc 1 449 33 view .LVU279
 725 0160 84F85420 		strb	r2, [r4, #84]
 726 0164 64E7     		b	.L43
 727              	.LVL56:
 728              	.L67:
 254:MCSDK_v6.3.2-Full/MotorControl/MCSDK/MCLib/Any/Src/revup_ctrl.c ****               pHandle->bOTFRelCounter = 0U;
 729              		.loc 1 254 15 is_stmt 1 view .LVU280
 730 0166 9047     		blx	r2
 731              	.LVL57:
 255:MCSDK_v6.3.2-Full/MotorControl/MCSDK/MCLib/Any/Src/revup_ctrl.c ****               pHandle->bResetPLLCnt = 0U;
 732              		.loc 1 255 15 view .LVU281
 268:MCSDK_v6.3.2-Full/MotorControl/MCSDK/MCLib/Any/Src/revup_ctrl.c **** 
 733              		.loc 1 268 36 is_stmt 0 view .LVU282
 734 0168 206F     		ldr	r0, [r4, #112]
 255:MCSDK_v6.3.2-Full/MotorControl/MCSDK/MCLib/Any/Src/revup_ctrl.c ****               pHandle->bResetPLLCnt = 0U;
 735              		.loc 1 255 39 view .LVU283
 736 016a 84F85350 		strb	r5, [r4, #83]
 256:MCSDK_v6.3.2-Full/MotorControl/MCSDK/MCLib/Any/Src/revup_ctrl.c ****             }
 737              		.loc 1 256 15 is_stmt 1 view .LVU284
 256:MCSDK_v6.3.2-Full/MotorControl/MCSDK/MCLib/Any/Src/revup_ctrl.c ****             }
 738              		.loc 1 256 37 is_stmt 0 view .LVU285
 739 016e 84F85750 		strb	r5, [r4, #87]
 740 0172 95E7     		b	.L21
 741              	.LVL58:
 742              	.L25:
 299:MCSDK_v6.3.2-Full/MotorControl/MCSDK/MCLib/Any/Src/revup_ctrl.c ****             {
 743              		.loc 1 299 13 is_stmt 1 view .LVU286
 299:MCSDK_v6.3.2-Full/MotorControl/MCSDK/MCLib/Any/Src/revup_ctrl.c ****             {
 744              		.loc 1 299 16 is_stmt 0 view .LVU287
 745 0174 7F2D     		cmp	r5, #127
 746 0176 A8D0     		beq	.L26
 747 0178 C4E7     		b	.L62
 748              	.LVL59:
 749              	.L27:
 750              	.LBB35:
 329:MCSDK_v6.3.2-Full/MotorControl/MCSDK/MCLib/Any/Src/revup_ctrl.c ****               {
 751              		.loc 1 329 15 is_stmt 1 view .LVU288
 329:MCSDK_v6.3.2-Full/MotorControl/MCSDK/MCLib/Any/Src/revup_ctrl.c ****               {
 752              		.loc 1 329 18 is_stmt 0 view .LVU289
 753 017a 0028     		cmp	r0, #0
 754 017c AFDB     		blt	.L28
 755              	.L29:
 756              	.LVL60:
 342:MCSDK_v6.3.2-Full/MotorControl/MCSDK/MCLib/Any/Src/revup_ctrl.c ****             }
 757              		.loc 1 342 15 is_stmt 1 view .LVU290
 342:MCSDK_v6.3.2-Full/MotorControl/MCSDK/MCLib/Any/Src/revup_ctrl.c ****             }
 758              		.loc 1 342 39 is_stmt 0 view .LVU291
 759 017e 0022     		movs	r2, #0
 760              	.LBE35:
 434:MCSDK_v6.3.2-Full/MotorControl/MCSDK/MCLib/Any/Src/revup_ctrl.c ****     {
 761              		.loc 1 434 22 view .LVU292
 762 0180 A388     		ldrh	r3, [r4, #4]
ARM GAS  /tmp/ccZpGKc6.s 			page 29


 763              	.LBB36:
 342:MCSDK_v6.3.2-Full/MotorControl/MCSDK/MCLib/Any/Src/revup_ctrl.c ****             }
 764              		.loc 1 342 39 view .LVU293
 765 0182 84F85320 		strb	r2, [r4, #83]
 766 0186 46E7     		b	.L19
 767              	.L30:
 352:MCSDK_v6.3.2-Full/MotorControl/MCSDK/MCLib/Any/Src/revup_ctrl.c ****               {
 768              		.loc 1 352 20 is_stmt 1 view .LVU294
 352:MCSDK_v6.3.2-Full/MotorControl/MCSDK/MCLib/Any/Src/revup_ctrl.c ****               {
 769              		.loc 1 352 23 is_stmt 0 view .LVU295
 770 0188 B4F84C30 		ldrh	r3, [r4, #76]
 771 018c AB42     		cmp	r3, r5
 772 018e B9D2     		bcs	.L62
 773              	.LBB28:
 356:MCSDK_v6.3.2-Full/MotorControl/MCSDK/MCLib/Any/Src/revup_ctrl.c ****                 int16_t hOldFinalTorque = 0;
 774              		.loc 1 356 17 is_stmt 1 view .LVU296
 775              	.LVL61:
 357:MCSDK_v6.3.2-Full/MotorControl/MCSDK/MCLib/Any/Src/revup_ctrl.c ****                 int32_t wDeltaSpeedRevUp;
 776              		.loc 1 357 17 view .LVU297
 358:MCSDK_v6.3.2-Full/MotorControl/MCSDK/MCLib/Any/Src/revup_ctrl.c ****                 int32_t wDeltaTorqueRevUp;
 777              		.loc 1 358 17 view .LVU298
 359:MCSDK_v6.3.2-Full/MotorControl/MCSDK/MCLib/Any/Src/revup_ctrl.c ****                 bool bError = false;
 778              		.loc 1 359 17 view .LVU299
 360:MCSDK_v6.3.2-Full/MotorControl/MCSDK/MCLib/Any/Src/revup_ctrl.c ****                 VSS_SetCopyObserver(pHandle->pVSS);
 779              		.loc 1 360 17 view .LVU300
 361:MCSDK_v6.3.2-Full/MotorControl/MCSDK/MCLib/Any/Src/revup_ctrl.c ****                 pHandle->pSNSL->pFctForceConvergency2(pHandle->pSNSL);
 780              		.loc 1 361 17 view .LVU301
 781              	.LBB21:
 782              	.LBI21:
 135:MCSDK_v6.3.2-Full/MotorControl/MCSDK/MCLib/Any/Inc/virtual_speed_sensor.h **** #ifdef NULL_PTR_CHECK_VIR_SPD_SEN
 136:MCSDK_v6.3.2-Full/MotorControl/MCSDK/MCLib/Any/Inc/virtual_speed_sensor.h ****   }
 137:MCSDK_v6.3.2-Full/MotorControl/MCSDK/MCLib/Any/Inc/virtual_speed_sensor.h **** #endif
 138:MCSDK_v6.3.2-Full/MotorControl/MCSDK/MCLib/Any/Inc/virtual_speed_sensor.h **** }
 139:MCSDK_v6.3.2-Full/MotorControl/MCSDK/MCLib/Any/Inc/virtual_speed_sensor.h **** 
 140:MCSDK_v6.3.2-Full/MotorControl/MCSDK/MCLib/Any/Inc/virtual_speed_sensor.h **** /**
 141:MCSDK_v6.3.2-Full/MotorControl/MCSDK/MCLib/Any/Inc/virtual_speed_sensor.h ****   * @brief  Sets instantaneous information on rotor electrical angle same as copied by state observ
 142:MCSDK_v6.3.2-Full/MotorControl/MCSDK/MCLib/Any/Inc/virtual_speed_sensor.h ****   * @param  pHandle: handler of the current instance of the VirtualSpeedSensor component.
 143:MCSDK_v6.3.2-Full/MotorControl/MCSDK/MCLib/Any/Inc/virtual_speed_sensor.h ****   * @retval none
 144:MCSDK_v6.3.2-Full/MotorControl/MCSDK/MCLib/Any/Inc/virtual_speed_sensor.h ****   *
 145:MCSDK_v6.3.2-Full/MotorControl/MCSDK/MCLib/Any/Inc/virtual_speed_sensor.h ****   * - Not used into current implementation.
 146:MCSDK_v6.3.2-Full/MotorControl/MCSDK/MCLib/Any/Inc/virtual_speed_sensor.h ****   */
 147:MCSDK_v6.3.2-Full/MotorControl/MCSDK/MCLib/Any/Inc/virtual_speed_sensor.h **** static inline void VSS_SetCopyObserver(VirtualSpeedSensor_Handle_t *pHandle)
 783              		.loc 2 147 20 view .LVU302
 784              	.LBB22:
 148:MCSDK_v6.3.2-Full/MotorControl/MCSDK/MCLib/Any/Inc/virtual_speed_sensor.h **** {
 149:MCSDK_v6.3.2-Full/MotorControl/MCSDK/MCLib/Any/Inc/virtual_speed_sensor.h **** #ifdef NULL_PTR_CHECK_VIR_SPD_SEN
 150:MCSDK_v6.3.2-Full/MotorControl/MCSDK/MCLib/Any/Inc/virtual_speed_sensor.h ****   if (MC_NULL == pHandle)
 151:MCSDK_v6.3.2-Full/MotorControl/MCSDK/MCLib/Any/Inc/virtual_speed_sensor.h ****   {
 152:MCSDK_v6.3.2-Full/MotorControl/MCSDK/MCLib/Any/Inc/virtual_speed_sensor.h ****     /* Nothing to do */
 153:MCSDK_v6.3.2-Full/MotorControl/MCSDK/MCLib/Any/Inc/virtual_speed_sensor.h ****   }
 154:MCSDK_v6.3.2-Full/MotorControl/MCSDK/MCLib/Any/Inc/virtual_speed_sensor.h ****   else
 155:MCSDK_v6.3.2-Full/MotorControl/MCSDK/MCLib/Any/Inc/virtual_speed_sensor.h ****   {
 156:MCSDK_v6.3.2-Full/MotorControl/MCSDK/MCLib/Any/Inc/virtual_speed_sensor.h **** #endif
 157:MCSDK_v6.3.2-Full/MotorControl/MCSDK/MCLib/Any/Inc/virtual_speed_sensor.h ****     pHandle->bCopyObserver = true;
 785              		.loc 2 157 5 view .LVU303
 786              		.loc 2 157 28 is_stmt 0 view .LVU304
 787 0190 E36E     		ldr	r3, [r4, #108]
ARM GAS  /tmp/ccZpGKc6.s 			page 30


 788              	.LBE22:
 789              	.LBE21:
 362:MCSDK_v6.3.2-Full/MotorControl/MCSDK/MCLib/Any/Src/revup_ctrl.c **** 
 790              		.loc 1 362 24 view .LVU305
 791 0192 206F     		ldr	r0, [r4, #112]
 792              	.LVL62:
 793              	.LBB24:
 794              	.LBB23:
 795              		.loc 2 157 28 view .LVU306
 796 0194 0122     		movs	r2, #1
 797 0196 83F83320 		strb	r2, [r3, #51]
 798              	.LVL63:
 799              		.loc 2 157 28 view .LVU307
 800              	.LBE23:
 801              	.LBE24:
 362:MCSDK_v6.3.2-Full/MotorControl/MCSDK/MCLib/Any/Src/revup_ctrl.c **** 
 802              		.loc 1 362 17 is_stmt 1 view .LVU308
 803 019a 8368     		ldr	r3, [r0, #8]
 804 019c 9847     		blx	r3
 805              	.LVL64:
 364:MCSDK_v6.3.2-Full/MotorControl/MCSDK/MCLib/Any/Src/revup_ctrl.c ****                 {
 806              		.loc 1 364 17 view .LVU309
 364:MCSDK_v6.3.2-Full/MotorControl/MCSDK/MCLib/Any/Src/revup_ctrl.c ****                 {
 807              		.loc 1 364 39 is_stmt 0 view .LVU310
 808 019e A268     		ldr	r2, [r4, #8]
 364:MCSDK_v6.3.2-Full/MotorControl/MCSDK/MCLib/Any/Src/revup_ctrl.c ****                 {
 809              		.loc 1 364 20 view .LVU311
 810 01a0 002A     		cmp	r2, #0
 811 01a2 B1D0     		beq	.L32
 371:MCSDK_v6.3.2-Full/MotorControl/MCSDK/MCLib/Any/Src/revup_ctrl.c ****                   {
 812              		.loc 1 371 54 view .LVU312
 813 01a4 B2F902C0 		ldrsh	ip, [r2, #2]
 814              	.LBE28:
 313:MCSDK_v6.3.2-Full/MotorControl/MCSDK/MCLib/Any/Src/revup_ctrl.c ****                     ((hObsSpeedUnit < 0) ? (-hObsSpeedUnit) : (hObsSpeedUnit)); /* hObsSpeedUnit ab
 815              		.loc 1 313 21 view .LVU313
 816 01a8 2BB2     		sxth	r3, r5
 817              	.LBB29:
 371:MCSDK_v6.3.2-Full/MotorControl/MCSDK/MCLib/Any/Src/revup_ctrl.c ****                   {
 818              		.loc 1 371 25 is_stmt 1 view .LVU314
 819 01aa 6345     		cmp	r3, ip
 820 01ac 15DD     		ble	.L68
 387:MCSDK_v6.3.2-Full/MotorControl/MCSDK/MCLib/Any/Src/revup_ctrl.c ****                     }
 821              		.loc 1 387 30 is_stmt 0 view .LVU315
 822 01ae 94F85850 		ldrb	r5, [r4, #88]	@ zero_extendqisi2
 823 01b2 0AE0     		b	.L38
 824              	.LVL65:
 825              	.L36:
 387:MCSDK_v6.3.2-Full/MotorControl/MCSDK/MCLib/Any/Src/revup_ctrl.c ****                     }
 826              		.loc 1 387 41 view .LVU316
 827 01b4 C5B2     		uxtb	r5, r0
 384:MCSDK_v6.3.2-Full/MotorControl/MCSDK/MCLib/Any/Src/revup_ctrl.c ****                       //cstat !MISRAC2012-Rule-11.5
 828              		.loc 1 384 39 view .LVU317
 829 01b6 B1F90400 		ldrsh	r0, [r1, #4]
 830              	.LVL66:
 386:MCSDK_v6.3.2-Full/MotorControl/MCSDK/MCLib/Any/Src/revup_ctrl.c ****                       pHandle->bStageCnt++;
 831              		.loc 1 386 23 is_stmt 1 view .LVU318
 387:MCSDK_v6.3.2-Full/MotorControl/MCSDK/MCLib/Any/Src/revup_ctrl.c ****                     }
ARM GAS  /tmp/ccZpGKc6.s 			page 31


 832              		.loc 1 387 41 is_stmt 0 view .LVU319
 833 01ba 84F85850 		strb	r5, [r4, #88]
 371:MCSDK_v6.3.2-Full/MotorControl/MCSDK/MCLib/Any/Src/revup_ctrl.c ****                   {
 834              		.loc 1 371 54 view .LVU320
 835 01be B2F90210 		ldrsh	r1, [r2, #2]
 386:MCSDK_v6.3.2-Full/MotorControl/MCSDK/MCLib/Any/Src/revup_ctrl.c ****                       pHandle->bStageCnt++;
 836              		.loc 1 386 52 view .LVU321
 837 01c2 A260     		str	r2, [r4, #8]
 387:MCSDK_v6.3.2-Full/MotorControl/MCSDK/MCLib/Any/Src/revup_ctrl.c ****                     }
 838              		.loc 1 387 23 is_stmt 1 view .LVU322
 371:MCSDK_v6.3.2-Full/MotorControl/MCSDK/MCLib/Any/Src/revup_ctrl.c ****                   {
 839              		.loc 1 371 25 view .LVU323
 840 01c4 9942     		cmp	r1, r3
 841 01c6 0ADA     		bge	.L34
 842 01c8 8C46     		mov	ip, r1
 843              	.LVL67:
 844              	.L38:
 373:MCSDK_v6.3.2-Full/MotorControl/MCSDK/MCLib/Any/Src/revup_ctrl.c ****                     {
 845              		.loc 1 373 21 view .LVU324
 383:MCSDK_v6.3.2-Full/MotorControl/MCSDK/MCLib/Any/Src/revup_ctrl.c ****                       hOldFinalTorque = pHandle->pCurrentPhaseParams->hFinalTorque;
 846              		.loc 1 383 23 view .LVU325
 384:MCSDK_v6.3.2-Full/MotorControl/MCSDK/MCLib/Any/Src/revup_ctrl.c ****                       //cstat !MISRAC2012-Rule-11.5
 847              		.loc 1 384 23 view .LVU326
 848 01ca 1146     		mov	r1, r2
 373:MCSDK_v6.3.2-Full/MotorControl/MCSDK/MCLib/Any/Src/revup_ctrl.c ****                     {
 849              		.loc 1 373 53 is_stmt 0 view .LVU327
 850 01cc 9268     		ldr	r2, [r2, #8]
 387:MCSDK_v6.3.2-Full/MotorControl/MCSDK/MCLib/Any/Src/revup_ctrl.c ****                     }
 851              		.loc 1 387 41 view .LVU328
 852 01ce 681C     		adds	r0, r5, #1
 373:MCSDK_v6.3.2-Full/MotorControl/MCSDK/MCLib/Any/Src/revup_ctrl.c ****                     {
 853              		.loc 1 373 24 view .LVU329
 854 01d0 002A     		cmp	r2, #0
 855 01d2 EFD1     		bne	.L36
 376:MCSDK_v6.3.2-Full/MotorControl/MCSDK/MCLib/Any/Src/revup_ctrl.c ****                       pHandle->hPhaseRemainingTicks = 0U;
 856              		.loc 1 376 23 is_stmt 1 view .LVU330
 857              	.LVL68:
 377:MCSDK_v6.3.2-Full/MotorControl/MCSDK/MCLib/Any/Src/revup_ctrl.c ****                       break;
 858              		.loc 1 377 23 view .LVU331
 859              	.LBE29:
 860              	.LBE36:
 436:MCSDK_v6.3.2-Full/MotorControl/MCSDK/MCLib/Any/Src/revup_ctrl.c ****       {
 861              		.loc 1 436 18 is_stmt 0 view .LVU332
 862 01d4 A368     		ldr	r3, [r4, #8]
 863              	.LBB37:
 864              	.LBB30:
 377:MCSDK_v6.3.2-Full/MotorControl/MCSDK/MCLib/Any/Src/revup_ctrl.c ****                       break;
 865              		.loc 1 377 53 view .LVU333
 866 01d6 A280     		strh	r2, [r4, #4]	@ movhi
 378:MCSDK_v6.3.2-Full/MotorControl/MCSDK/MCLib/Any/Src/revup_ctrl.c ****                     }
 867              		.loc 1 378 23 is_stmt 1 view .LVU334
 868              	.LVL69:
 391:MCSDK_v6.3.2-Full/MotorControl/MCSDK/MCLib/Any/Src/revup_ctrl.c ****                 {
 869              		.loc 1 391 17 view .LVU335
 870 01d8 23E7     		b	.L45
 871              	.LVL70:
 872              	.L68:
ARM GAS  /tmp/ccZpGKc6.s 			page 32


 357:MCSDK_v6.3.2-Full/MotorControl/MCSDK/MCLib/Any/Src/revup_ctrl.c ****                 int32_t wDeltaSpeedRevUp;
 873              		.loc 1 357 25 is_stmt 0 view .LVU336
 874 01da 0020     		movs	r0, #0
 356:MCSDK_v6.3.2-Full/MotorControl/MCSDK/MCLib/Any/Src/revup_ctrl.c ****                 int16_t hOldFinalTorque = 0;
 875              		.loc 1 356 25 view .LVU337
 876 01dc 8446     		mov	ip, r0
 877              	.LVL71:
 878              	.L34:
 391:MCSDK_v6.3.2-Full/MotorControl/MCSDK/MCLib/Any/Src/revup_ctrl.c ****                 {
 879              		.loc 1 391 17 is_stmt 1 view .LVU338
 880              	.LBB25:
 394:MCSDK_v6.3.2-Full/MotorControl/MCSDK/MCLib/Any/Src/revup_ctrl.c **** 
 881              		.loc 1 394 19 view .LVU339
 396:MCSDK_v6.3.2-Full/MotorControl/MCSDK/MCLib/Any/Src/revup_ctrl.c ****                                    - ((int32_t)(hOldFinalMecSpeedUnit));
 882              		.loc 1 396 19 view .LVU340
 396:MCSDK_v6.3.2-Full/MotorControl/MCSDK/MCLib/Any/Src/revup_ctrl.c ****                                    - ((int32_t)(hOldFinalMecSpeedUnit));
 883              		.loc 1 396 39 is_stmt 0 view .LVU341
 884 01de B2F90230 		ldrsh	r3, [r2, #2]
 885              	.LVL72:
 398:MCSDK_v6.3.2-Full/MotorControl/MCSDK/MCLib/Any/Src/revup_ctrl.c ****                                     - ((int32_t)(hOldFinalTorque));
 886              		.loc 1 398 19 is_stmt 1 view .LVU342
 401:MCSDK_v6.3.2-Full/MotorControl/MCSDK/MCLib/Any/Src/revup_ctrl.c ****                   {
 887              		.loc 1 401 19 view .LVU343
 401:MCSDK_v6.3.2-Full/MotorControl/MCSDK/MCLib/Any/Src/revup_ctrl.c ****                   {
 888              		.loc 1 401 22 is_stmt 0 view .LVU344
 889 01e2 B3EB0C0C 		subs	ip, r3, ip
 890              	.LVL73:
 401:MCSDK_v6.3.2-Full/MotorControl/MCSDK/MCLib/Any/Src/revup_ctrl.c ****                   {
 891              		.loc 1 401 22 view .LVU345
 892 01e6 08D1     		bne	.L69
 893              	.LVL74:
 894              	.L39:
 413:MCSDK_v6.3.2-Full/MotorControl/MCSDK/MCLib/Any/Src/revup_ctrl.c **** 
 895              		.loc 1 413 19 is_stmt 1 view .LVU346
 417:MCSDK_v6.3.2-Full/MotorControl/MCSDK/MCLib/Any/Src/revup_ctrl.c ****                 } /* No MC_NULL error */
 896              		.loc 1 417 38 is_stmt 0 view .LVU347
 897 01e8 0623     		movs	r3, #6
 413:MCSDK_v6.3.2-Full/MotorControl/MCSDK/MCLib/Any/Src/revup_ctrl.c **** 
 898              		.loc 1 413 49 view .LVU348
 899 01ea 0120     		movs	r0, #1
 415:MCSDK_v6.3.2-Full/MotorControl/MCSDK/MCLib/Any/Src/revup_ctrl.c **** 
 900              		.loc 1 415 50 view .LVU349
 901 01ec 04F15C02 		add	r2, r4, #92
 417:MCSDK_v6.3.2-Full/MotorControl/MCSDK/MCLib/Any/Src/revup_ctrl.c ****                 } /* No MC_NULL error */
 902              		.loc 1 417 38 view .LVU350
 903 01f0 84F85830 		strb	r3, [r4, #88]
 413:MCSDK_v6.3.2-Full/MotorControl/MCSDK/MCLib/Any/Src/revup_ctrl.c **** 
 904              		.loc 1 413 49 view .LVU351
 905 01f4 A080     		strh	r0, [r4, #4]	@ movhi
 415:MCSDK_v6.3.2-Full/MotorControl/MCSDK/MCLib/Any/Src/revup_ctrl.c **** 
 906              		.loc 1 415 19 is_stmt 1 view .LVU352
 415:MCSDK_v6.3.2-Full/MotorControl/MCSDK/MCLib/Any/Src/revup_ctrl.c **** 
 907              		.loc 1 415 48 is_stmt 0 view .LVU353
 908 01f6 A260     		str	r2, [r4, #8]
 417:MCSDK_v6.3.2-Full/MotorControl/MCSDK/MCLib/Any/Src/revup_ctrl.c ****                 } /* No MC_NULL error */
 909              		.loc 1 417 19 is_stmt 1 view .LVU354
 910              	.LBE25:
ARM GAS  /tmp/ccZpGKc6.s 			page 33


 911              	.LBE30:
 912              	.LBE37:
 434:MCSDK_v6.3.2-Full/MotorControl/MCSDK/MCLib/Any/Src/revup_ctrl.c ****     {
 913              		.loc 1 434 5 view .LVU355
 914              		.loc 1 498 1 is_stmt 0 view .LVU356
 915 01f8 70BD     		pop	{r4, r5, r6, pc}
 916              	.LVL75:
 917              	.L69:
 918              	.LBB38:
 919              	.LBB31:
 920              	.LBB26:
 407:MCSDK_v6.3.2-Full/MotorControl/MCSDK/MCLib/Any/Src/revup_ctrl.c ****                                      + hOldFinalTorque;
 921              		.loc 1 407 21 is_stmt 1 view .LVU357
 410:MCSDK_v6.3.2-Full/MotorControl/MCSDK/MCLib/Any/Src/revup_ctrl.c ****                   }
 922              		.loc 1 410 21 view .LVU358
 398:MCSDK_v6.3.2-Full/MotorControl/MCSDK/MCLib/Any/Src/revup_ctrl.c ****                                     - ((int32_t)(hOldFinalTorque));
 923              		.loc 1 398 40 is_stmt 0 view .LVU359
 924 01fa B2F90430 		ldrsh	r3, [r2, #4]
 410:MCSDK_v6.3.2-Full/MotorControl/MCSDK/MCLib/Any/Src/revup_ctrl.c ****                   }
 925              		.loc 1 410 75 view .LVU360
 926 01fe E188     		ldrh	r1, [r4, #6]
 398:MCSDK_v6.3.2-Full/MotorControl/MCSDK/MCLib/Any/Src/revup_ctrl.c ****                                     - ((int32_t)(hOldFinalTorque));
 927              		.loc 1 398 37 view .LVU361
 928 0200 1B1A     		subs	r3, r3, r0
 407:MCSDK_v6.3.2-Full/MotorControl/MCSDK/MCLib/Any/Src/revup_ctrl.c ****                                      + hOldFinalTorque;
 929              		.loc 1 407 76 view .LVU362
 930 0202 06FB03F3 		mul	r3, r6, r3
 407:MCSDK_v6.3.2-Full/MotorControl/MCSDK/MCLib/Any/Src/revup_ctrl.c ****                                      + hOldFinalTorque;
 931              		.loc 1 407 97 view .LVU363
 932 0206 93FBFCF3 		sdiv	r3, r3, ip
 408:MCSDK_v6.3.2-Full/MotorControl/MCSDK/MCLib/Any/Src/revup_ctrl.c **** 
 933              		.loc 1 408 38 view .LVU364
 934 020a 1844     		add	r0, r0, r3
 935              	.LVL76:
 410:MCSDK_v6.3.2-Full/MotorControl/MCSDK/MCLib/Any/Src/revup_ctrl.c ****                   }
 936              		.loc 1 410 75 view .LVU365
 937 020c 11FB00F1 		smulbb	r1, r1, r0
 410:MCSDK_v6.3.2-Full/MotorControl/MCSDK/MCLib/Any/Src/revup_ctrl.c ****                   }
 938              		.loc 1 410 27 view .LVU366
 939 0210 0022     		movs	r2, #0
 410:MCSDK_v6.3.2-Full/MotorControl/MCSDK/MCLib/Any/Src/revup_ctrl.c ****                   }
 940              		.loc 1 410 27 view .LVU367
 941 0212 A06E     		ldr	r0, [r4, #104]
 942 0214 09B2     		sxth	r1, r1
 943 0216 FFF7FEFF 		bl	STC_ExecRamp
 944              	.LVL77:
 410:MCSDK_v6.3.2-Full/MotorControl/MCSDK/MCLib/Any/Src/revup_ctrl.c ****                   }
 945              		.loc 1 410 27 view .LVU368
 946 021a E5E7     		b	.L39
 947              	.L71:
 948              		.align	2
 949              	.L70:
 950 021c D34D6210 		.word	274877907
 951              	.LBE26:
 952              	.LBE31:
 953              	.LBE38:
 954              		.cfi_endproc
ARM GAS  /tmp/ccZpGKc6.s 			page 34


 955              	.LFE1459:
 957              		.section	.text.RUC_Exec,"ax",%progbits
 958              		.align	1
 959              		.p2align 2,,3
 960              		.weak	RUC_Exec
 961              		.syntax unified
 962              		.thumb
 963              		.thumb_func
 964              		.fpu fpv4-sp-d16
 966              	RUC_Exec:
 967              	.LVL78:
 968              	.LFB1460:
 499:MCSDK_v6.3.2-Full/MotorControl/MCSDK/MCLib/Any/Src/revup_ctrl.c **** 
 500:MCSDK_v6.3.2-Full/MotorControl/MCSDK/MCLib/Any/Src/revup_ctrl.c **** /**
 501:MCSDK_v6.3.2-Full/MotorControl/MCSDK/MCLib/Any/Src/revup_ctrl.c ****   * @brief  FOC Main Rev-Up controller procedure executing overall programmed phases.
 502:MCSDK_v6.3.2-Full/MotorControl/MCSDK/MCLib/Any/Src/revup_ctrl.c ****   * @param  pHandle: Pointer on Handle structure of RevUp controller.
 503:MCSDK_v6.3.2-Full/MotorControl/MCSDK/MCLib/Any/Src/revup_ctrl.c ****   *  @retval Boolean set to false when entire Rev-Up phases have been completed.
 504:MCSDK_v6.3.2-Full/MotorControl/MCSDK/MCLib/Any/Src/revup_ctrl.c ****   */
 505:MCSDK_v6.3.2-Full/MotorControl/MCSDK/MCLib/Any/Src/revup_ctrl.c **** __weak bool RUC_Exec(RevUpCtrl_Handle_t *pHandle)
 506:MCSDK_v6.3.2-Full/MotorControl/MCSDK/MCLib/Any/Src/revup_ctrl.c **** {
 969              		.loc 1 506 1 is_stmt 1 view -0
 970              		.cfi_startproc
 971              		@ args = 0, pretend = 0, frame = 0
 972              		@ frame_needed = 0, uses_anonymous_args = 0
 507:MCSDK_v6.3.2-Full/MotorControl/MCSDK/MCLib/Any/Src/revup_ctrl.c ****   bool retVal = true;
 973              		.loc 1 507 3 view .LVU370
 508:MCSDK_v6.3.2-Full/MotorControl/MCSDK/MCLib/Any/Src/revup_ctrl.c **** #ifdef NULL_PTR_CHECK_REV_UP_CTL
 509:MCSDK_v6.3.2-Full/MotorControl/MCSDK/MCLib/Any/Src/revup_ctrl.c ****   if (MC_NULL == pHandle)
 510:MCSDK_v6.3.2-Full/MotorControl/MCSDK/MCLib/Any/Src/revup_ctrl.c ****   {
 511:MCSDK_v6.3.2-Full/MotorControl/MCSDK/MCLib/Any/Src/revup_ctrl.c ****     retVal = false;
 512:MCSDK_v6.3.2-Full/MotorControl/MCSDK/MCLib/Any/Src/revup_ctrl.c ****   }
 513:MCSDK_v6.3.2-Full/MotorControl/MCSDK/MCLib/Any/Src/revup_ctrl.c ****   else
 514:MCSDK_v6.3.2-Full/MotorControl/MCSDK/MCLib/Any/Src/revup_ctrl.c ****   {
 515:MCSDK_v6.3.2-Full/MotorControl/MCSDK/MCLib/Any/Src/revup_ctrl.c **** #endif
 516:MCSDK_v6.3.2-Full/MotorControl/MCSDK/MCLib/Any/Src/revup_ctrl.c ****     if (pHandle->hPhaseRemainingTicks > 0U)
 974              		.loc 1 516 5 view .LVU371
 975              		.loc 1 516 16 is_stmt 0 view .LVU372
 976 0000 8388     		ldrh	r3, [r0, #4]
 506:MCSDK_v6.3.2-Full/MotorControl/MCSDK/MCLib/Any/Src/revup_ctrl.c ****   bool retVal = true;
 977              		.loc 1 506 1 view .LVU373
 978 0002 10B5     		push	{r4, lr}
 979              	.LCFI5:
 980              		.cfi_def_cfa_offset 8
 981              		.cfi_offset 4, -8
 982              		.cfi_offset 14, -4
 506:MCSDK_v6.3.2-Full/MotorControl/MCSDK/MCLib/Any/Src/revup_ctrl.c ****   bool retVal = true;
 983              		.loc 1 506 1 view .LVU374
 984 0004 0446     		mov	r4, r0
 985              		.loc 1 516 8 view .LVU375
 986 0006 43BB     		cbnz	r3, .L73
 987              	.L76:
 517:MCSDK_v6.3.2-Full/MotorControl/MCSDK/MCLib/Any/Src/revup_ctrl.c ****     {
 518:MCSDK_v6.3.2-Full/MotorControl/MCSDK/MCLib/Any/Src/revup_ctrl.c ****       /* Decrease the hPhaseRemainingTicks */
 519:MCSDK_v6.3.2-Full/MotorControl/MCSDK/MCLib/Any/Src/revup_ctrl.c ****       pHandle->hPhaseRemainingTicks--;
 520:MCSDK_v6.3.2-Full/MotorControl/MCSDK/MCLib/Any/Src/revup_ctrl.c **** 
 521:MCSDK_v6.3.2-Full/MotorControl/MCSDK/MCLib/Any/Src/revup_ctrl.c ****     } /* hPhaseRemainingTicks > 0 */
 522:MCSDK_v6.3.2-Full/MotorControl/MCSDK/MCLib/Any/Src/revup_ctrl.c ****     else
ARM GAS  /tmp/ccZpGKc6.s 			page 35


 523:MCSDK_v6.3.2-Full/MotorControl/MCSDK/MCLib/Any/Src/revup_ctrl.c ****     {
 524:MCSDK_v6.3.2-Full/MotorControl/MCSDK/MCLib/Any/Src/revup_ctrl.c ****       /* Nothing to do */
 525:MCSDK_v6.3.2-Full/MotorControl/MCSDK/MCLib/Any/Src/revup_ctrl.c ****     }
 526:MCSDK_v6.3.2-Full/MotorControl/MCSDK/MCLib/Any/Src/revup_ctrl.c **** 
 527:MCSDK_v6.3.2-Full/MotorControl/MCSDK/MCLib/Any/Src/revup_ctrl.c ****     if (0U == pHandle->hPhaseRemainingTicks)
 528:MCSDK_v6.3.2-Full/MotorControl/MCSDK/MCLib/Any/Src/revup_ctrl.c ****     {
 529:MCSDK_v6.3.2-Full/MotorControl/MCSDK/MCLib/Any/Src/revup_ctrl.c ****       if (pHandle->pCurrentPhaseParams != MC_NULL)
 988              		.loc 1 529 7 is_stmt 1 view .LVU376
 989              		.loc 1 529 18 is_stmt 0 view .LVU377
 990 0008 A068     		ldr	r0, [r4, #8]
 991              	.LVL79:
 992              		.loc 1 529 10 view .LVU378
 993 000a 28B3     		cbz	r0, .L75
 530:MCSDK_v6.3.2-Full/MotorControl/MCSDK/MCLib/Any/Src/revup_ctrl.c ****       {
 531:MCSDK_v6.3.2-Full/MotorControl/MCSDK/MCLib/Any/Src/revup_ctrl.c ****         /* If it becomes zero the current phase has been completed */
 532:MCSDK_v6.3.2-Full/MotorControl/MCSDK/MCLib/Any/Src/revup_ctrl.c ****         /* Gives the next command to STC and VSS */
 533:MCSDK_v6.3.2-Full/MotorControl/MCSDK/MCLib/Any/Src/revup_ctrl.c ****         (void)STC_ExecRamp(pHandle->pSTC, pHandle->pCurrentPhaseParams->hFinalTorque * pHandle->hDi
 994              		.loc 1 533 9 is_stmt 1 view .LVU379
 995              		.loc 1 533 86 is_stmt 0 view .LVU380
 996 000c 8188     		ldrh	r1, [r0, #4]
 997 000e E388     		ldrh	r3, [r4, #6]
 998              		.loc 1 533 15 view .LVU381
 999 0010 0288     		ldrh	r2, [r0]
 1000 0012 A06E     		ldr	r0, [r4, #104]
 1001              		.loc 1 533 86 view .LVU382
 1002 0014 11FB03F1 		smulbb	r1, r1, r3
 1003              		.loc 1 533 15 view .LVU383
 1004 0018 09B2     		sxth	r1, r1
 1005 001a FFF7FEFF 		bl	STC_ExecRamp
 1006              	.LVL80:
 534:MCSDK_v6.3.2-Full/MotorControl/MCSDK/MCLib/Any/Src/revup_ctrl.c ****                            (uint32_t)(pHandle->pCurrentPhaseParams->hDurationms));
 535:MCSDK_v6.3.2-Full/MotorControl/MCSDK/MCLib/Any/Src/revup_ctrl.c **** 
 536:MCSDK_v6.3.2-Full/MotorControl/MCSDK/MCLib/Any/Src/revup_ctrl.c ****         VSS_SetMecAcceleration(pHandle->pVSS,
 1007              		.loc 1 536 9 is_stmt 1 view .LVU384
 537:MCSDK_v6.3.2-Full/MotorControl/MCSDK/MCLib/Any/Src/revup_ctrl.c ****                                pHandle->pCurrentPhaseParams->hFinalMecSpeedUnit * pHandle->hDirecti
 1008              		.loc 1 537 39 is_stmt 0 view .LVU385
 1009 001e A368     		ldr	r3, [r4, #8]
 1010              		.loc 1 537 81 view .LVU386
 1011 0020 E088     		ldrh	r0, [r4, #6]
 1012 0022 5988     		ldrh	r1, [r3, #2]
 536:MCSDK_v6.3.2-Full/MotorControl/MCSDK/MCLib/Any/Src/revup_ctrl.c ****                                pHandle->pCurrentPhaseParams->hFinalMecSpeedUnit * pHandle->hDirecti
 1013              		.loc 1 536 9 view .LVU387
 1014 0024 1A88     		ldrh	r2, [r3]
 1015              		.loc 1 537 81 view .LVU388
 1016 0026 11FB00F1 		smulbb	r1, r1, r0
 536:MCSDK_v6.3.2-Full/MotorControl/MCSDK/MCLib/Any/Src/revup_ctrl.c ****                                pHandle->pCurrentPhaseParams->hFinalMecSpeedUnit * pHandle->hDirecti
 1017              		.loc 1 536 9 view .LVU389
 1018 002a 09B2     		sxth	r1, r1
 1019 002c E06E     		ldr	r0, [r4, #108]
 1020 002e FFF7FEFF 		bl	VSS_SetMecAcceleration
 1021              	.LVL81:
 538:MCSDK_v6.3.2-Full/MotorControl/MCSDK/MCLib/Any/Src/revup_ctrl.c ****                                pHandle->pCurrentPhaseParams->hDurationms);
 539:MCSDK_v6.3.2-Full/MotorControl/MCSDK/MCLib/Any/Src/revup_ctrl.c **** 
 540:MCSDK_v6.3.2-Full/MotorControl/MCSDK/MCLib/Any/Src/revup_ctrl.c ****         /* Compute hPhaseRemainingTicks */
 541:MCSDK_v6.3.2-Full/MotorControl/MCSDK/MCLib/Any/Src/revup_ctrl.c ****         pHandle->hPhaseRemainingTicks = (uint16_t)((((uint32_t)pHandle->pCurrentPhaseParams->hDurat
 1022              		.loc 1 541 9 is_stmt 1 view .LVU390
 1023              		.loc 1 541 71 is_stmt 0 view .LVU391
ARM GAS  /tmp/ccZpGKc6.s 			page 36


 1024 0032 A168     		ldr	r1, [r4, #8]
 542:MCSDK_v6.3.2-Full/MotorControl/MCSDK/MCLib/Any/Src/revup_ctrl.c ****                                                   * ((uint32_t)pHandle->hRUCFrequencyHz)) / 1000U )
 543:MCSDK_v6.3.2-Full/MotorControl/MCSDK/MCLib/Any/Src/revup_ctrl.c ****         pHandle->hPhaseRemainingTicks++;
 1025              		.loc 1 543 9 is_stmt 1 view .LVU392
 542:MCSDK_v6.3.2-Full/MotorControl/MCSDK/MCLib/Any/Src/revup_ctrl.c ****                                                   * ((uint32_t)pHandle->hRUCFrequencyHz)) / 1000U )
 1026              		.loc 1 542 54 is_stmt 0 view .LVU393
 1027 0034 2088     		ldrh	r0, [r4]
 541:MCSDK_v6.3.2-Full/MotorControl/MCSDK/MCLib/Any/Src/revup_ctrl.c ****                                                   * ((uint32_t)pHandle->hRUCFrequencyHz)) / 1000U )
 1028              		.loc 1 541 54 view .LVU394
 1029 0036 0B88     		ldrh	r3, [r1]
 542:MCSDK_v6.3.2-Full/MotorControl/MCSDK/MCLib/Any/Src/revup_ctrl.c ****                                                   * ((uint32_t)pHandle->hRUCFrequencyHz)) / 1000U )
 1030              		.loc 1 542 91 view .LVU395
 1031 0038 0B4A     		ldr	r2, .L82
 544:MCSDK_v6.3.2-Full/MotorControl/MCSDK/MCLib/Any/Src/revup_ctrl.c **** 
 545:MCSDK_v6.3.2-Full/MotorControl/MCSDK/MCLib/Any/Src/revup_ctrl.c ****         /* Set the next phases parameter pointer */
 546:MCSDK_v6.3.2-Full/MotorControl/MCSDK/MCLib/Any/Src/revup_ctrl.c ****         pHandle->pCurrentPhaseParams = pHandle->pCurrentPhaseParams->pNext; //cstat !MISRAC2012-Rul
 1032              		.loc 1 546 38 view .LVU396
 1033 003a 8968     		ldr	r1, [r1, #8]
 1034 003c A160     		str	r1, [r4, #8]
 542:MCSDK_v6.3.2-Full/MotorControl/MCSDK/MCLib/Any/Src/revup_ctrl.c ****         pHandle->hPhaseRemainingTicks++;
 1035              		.loc 1 542 51 view .LVU397
 1036 003e 00FB03F3 		mul	r3, r0, r3
 542:MCSDK_v6.3.2-Full/MotorControl/MCSDK/MCLib/Any/Src/revup_ctrl.c ****         pHandle->hPhaseRemainingTicks++;
 1037              		.loc 1 542 91 view .LVU398
 1038 0042 A2FB0323 		umull	r2, r3, r2, r3
 547:MCSDK_v6.3.2-Full/MotorControl/MCSDK/MCLib/Any/Src/revup_ctrl.c **** 
 548:MCSDK_v6.3.2-Full/MotorControl/MCSDK/MCLib/Any/Src/revup_ctrl.c ****         /* Increases the rev up stages counter */
 549:MCSDK_v6.3.2-Full/MotorControl/MCSDK/MCLib/Any/Src/revup_ctrl.c ****         pHandle->bStageCnt++;
 1039              		.loc 1 549 27 view .LVU399
 1040 0046 94F85820 		ldrb	r2, [r4, #88]	@ zero_extendqisi2
 542:MCSDK_v6.3.2-Full/MotorControl/MCSDK/MCLib/Any/Src/revup_ctrl.c ****         pHandle->hPhaseRemainingTicks++;
 1041              		.loc 1 542 91 view .LVU400
 1042 004a 9B09     		lsrs	r3, r3, #6
 543:MCSDK_v6.3.2-Full/MotorControl/MCSDK/MCLib/Any/Src/revup_ctrl.c **** 
 1043              		.loc 1 543 38 view .LVU401
 1044 004c 0133     		adds	r3, r3, #1
 1045              		.loc 1 549 27 view .LVU402
 1046 004e 0132     		adds	r2, r2, #1
 543:MCSDK_v6.3.2-Full/MotorControl/MCSDK/MCLib/Any/Src/revup_ctrl.c **** 
 1047              		.loc 1 543 38 view .LVU403
 1048 0050 A380     		strh	r3, [r4, #4]	@ movhi
 546:MCSDK_v6.3.2-Full/MotorControl/MCSDK/MCLib/Any/Src/revup_ctrl.c **** 
 1049              		.loc 1 546 9 is_stmt 1 view .LVU404
 1050              		.loc 1 549 9 view .LVU405
 1051              		.loc 1 549 27 is_stmt 0 view .LVU406
 1052 0052 84F85820 		strb	r2, [r4, #88]
 507:MCSDK_v6.3.2-Full/MotorControl/MCSDK/MCLib/Any/Src/revup_ctrl.c **** #ifdef NULL_PTR_CHECK_REV_UP_CTL
 1053              		.loc 1 507 8 view .LVU407
 1054 0056 0120     		movs	r0, #1
 1055              	.L75:
 1056              	.LVL82:
 550:MCSDK_v6.3.2-Full/MotorControl/MCSDK/MCLib/Any/Src/revup_ctrl.c ****       }
 551:MCSDK_v6.3.2-Full/MotorControl/MCSDK/MCLib/Any/Src/revup_ctrl.c ****       else
 552:MCSDK_v6.3.2-Full/MotorControl/MCSDK/MCLib/Any/Src/revup_ctrl.c ****       {
 553:MCSDK_v6.3.2-Full/MotorControl/MCSDK/MCLib/Any/Src/revup_ctrl.c ****         retVal = false;
 554:MCSDK_v6.3.2-Full/MotorControl/MCSDK/MCLib/Any/Src/revup_ctrl.c ****       }
 555:MCSDK_v6.3.2-Full/MotorControl/MCSDK/MCLib/Any/Src/revup_ctrl.c ****     }
ARM GAS  /tmp/ccZpGKc6.s 			page 37


 556:MCSDK_v6.3.2-Full/MotorControl/MCSDK/MCLib/Any/Src/revup_ctrl.c ****     else
 557:MCSDK_v6.3.2-Full/MotorControl/MCSDK/MCLib/Any/Src/revup_ctrl.c ****     {
 558:MCSDK_v6.3.2-Full/MotorControl/MCSDK/MCLib/Any/Src/revup_ctrl.c ****       /* Nothing to do */
 559:MCSDK_v6.3.2-Full/MotorControl/MCSDK/MCLib/Any/Src/revup_ctrl.c ****     }
 1057              		.loc 1 559 5 is_stmt 1 view .LVU408
 560:MCSDK_v6.3.2-Full/MotorControl/MCSDK/MCLib/Any/Src/revup_ctrl.c **** #ifdef NULL_PTR_CHECK_REV_UP_CTL
 561:MCSDK_v6.3.2-Full/MotorControl/MCSDK/MCLib/Any/Src/revup_ctrl.c ****   }
 562:MCSDK_v6.3.2-Full/MotorControl/MCSDK/MCLib/Any/Src/revup_ctrl.c **** #endif
 563:MCSDK_v6.3.2-Full/MotorControl/MCSDK/MCLib/Any/Src/revup_ctrl.c ****   return (retVal);
 1058              		.loc 1 563 3 view .LVU409
 564:MCSDK_v6.3.2-Full/MotorControl/MCSDK/MCLib/Any/Src/revup_ctrl.c **** }
 1059              		.loc 1 564 1 is_stmt 0 view .LVU410
 1060 0058 10BD     		pop	{r4, pc}
 1061              	.LVL83:
 1062              	.L73:
 519:MCSDK_v6.3.2-Full/MotorControl/MCSDK/MCLib/Any/Src/revup_ctrl.c **** 
 1063              		.loc 1 519 7 is_stmt 1 view .LVU411
 519:MCSDK_v6.3.2-Full/MotorControl/MCSDK/MCLib/Any/Src/revup_ctrl.c **** 
 1064              		.loc 1 519 36 is_stmt 0 view .LVU412
 1065 005a 013B     		subs	r3, r3, #1
 1066 005c 9BB2     		uxth	r3, r3
 1067 005e 8380     		strh	r3, [r0, #4]	@ movhi
 525:MCSDK_v6.3.2-Full/MotorControl/MCSDK/MCLib/Any/Src/revup_ctrl.c **** 
 1068              		.loc 1 525 5 is_stmt 1 view .LVU413
 527:MCSDK_v6.3.2-Full/MotorControl/MCSDK/MCLib/Any/Src/revup_ctrl.c ****     {
 1069              		.loc 1 527 5 view .LVU414
 527:MCSDK_v6.3.2-Full/MotorControl/MCSDK/MCLib/Any/Src/revup_ctrl.c ****     {
 1070              		.loc 1 527 8 is_stmt 0 view .LVU415
 1071 0060 002B     		cmp	r3, #0
 1072 0062 D1D0     		beq	.L76
 507:MCSDK_v6.3.2-Full/MotorControl/MCSDK/MCLib/Any/Src/revup_ctrl.c **** #ifdef NULL_PTR_CHECK_REV_UP_CTL
 1073              		.loc 1 507 8 view .LVU416
 1074 0064 0120     		movs	r0, #1
 1075              	.LVL84:
 559:MCSDK_v6.3.2-Full/MotorControl/MCSDK/MCLib/Any/Src/revup_ctrl.c **** #ifdef NULL_PTR_CHECK_REV_UP_CTL
 1076              		.loc 1 559 5 is_stmt 1 view .LVU417
 563:MCSDK_v6.3.2-Full/MotorControl/MCSDK/MCLib/Any/Src/revup_ctrl.c **** }
 1077              		.loc 1 563 3 view .LVU418
 1078              		.loc 1 564 1 is_stmt 0 view .LVU419
 1079 0066 10BD     		pop	{r4, pc}
 1080              	.LVL85:
 1081              	.L83:
 1082              		.loc 1 564 1 view .LVU420
 1083              		.align	2
 1084              	.L82:
 1085 0068 D34D6210 		.word	274877907
 1086              		.cfi_endproc
 1087              	.LFE1460:
 1089              		.section	.text.RUC_IsAlignStageNow,"ax",%progbits
 1090              		.align	1
 1091              		.p2align 2,,3
 1092              		.global	RUC_IsAlignStageNow
 1093              		.syntax unified
 1094              		.thumb
 1095              		.thumb_func
 1096              		.fpu fpv4-sp-d16
 1098              	RUC_IsAlignStageNow:
ARM GAS  /tmp/ccZpGKc6.s 			page 38


 1099              	.LVL86:
 1100              	.LFB1461:
 565:MCSDK_v6.3.2-Full/MotorControl/MCSDK/MCLib/Any/Src/revup_ctrl.c **** 
 566:MCSDK_v6.3.2-Full/MotorControl/MCSDK/MCLib/Any/Src/revup_ctrl.c **** /**
 567:MCSDK_v6.3.2-Full/MotorControl/MCSDK/MCLib/Any/Src/revup_ctrl.c ****   * @brief  It checks if this stage is used for align motor.
 568:MCSDK_v6.3.2-Full/MotorControl/MCSDK/MCLib/Any/Src/revup_ctrl.c ****   * @param  pHandle: Pointer on Handle structure of RevUp controller.
 569:MCSDK_v6.3.2-Full/MotorControl/MCSDK/MCLib/Any/Src/revup_ctrl.c ****   * @retval Returns 1 if the alignment is correct otherwise it returns 0
 570:MCSDK_v6.3.2-Full/MotorControl/MCSDK/MCLib/Any/Src/revup_ctrl.c ****   */
 571:MCSDK_v6.3.2-Full/MotorControl/MCSDK/MCLib/Any/Src/revup_ctrl.c **** //cstat !MISRAC2012-Rule-8.13
 572:MCSDK_v6.3.2-Full/MotorControl/MCSDK/MCLib/Any/Src/revup_ctrl.c **** uint8_t RUC_IsAlignStageNow(RevUpCtrl_Handle_t *pHandle)
 573:MCSDK_v6.3.2-Full/MotorControl/MCSDK/MCLib/Any/Src/revup_ctrl.c **** {
 1101              		.loc 1 573 1 is_stmt 1 view -0
 1102              		.cfi_startproc
 1103              		@ args = 0, pretend = 0, frame = 0
 1104              		@ frame_needed = 0, uses_anonymous_args = 0
 1105              		@ link register save eliminated.
 574:MCSDK_v6.3.2-Full/MotorControl/MCSDK/MCLib/Any/Src/revup_ctrl.c ****   uint8_t align_flag = 0;
 1106              		.loc 1 574 3 view .LVU422
 575:MCSDK_v6.3.2-Full/MotorControl/MCSDK/MCLib/Any/Src/revup_ctrl.c **** #ifdef NULL_PTR_CHECK_REV_UP_CTL
 576:MCSDK_v6.3.2-Full/MotorControl/MCSDK/MCLib/Any/Src/revup_ctrl.c ****   if (MC_NULL == pHandle)
 577:MCSDK_v6.3.2-Full/MotorControl/MCSDK/MCLib/Any/Src/revup_ctrl.c ****   {
 578:MCSDK_v6.3.2-Full/MotorControl/MCSDK/MCLib/Any/Src/revup_ctrl.c ****     /* Nothing to do */
 579:MCSDK_v6.3.2-Full/MotorControl/MCSDK/MCLib/Any/Src/revup_ctrl.c ****   }
 580:MCSDK_v6.3.2-Full/MotorControl/MCSDK/MCLib/Any/Src/revup_ctrl.c ****   else
 581:MCSDK_v6.3.2-Full/MotorControl/MCSDK/MCLib/Any/Src/revup_ctrl.c ****   {
 582:MCSDK_v6.3.2-Full/MotorControl/MCSDK/MCLib/Any/Src/revup_ctrl.c **** #endif
 583:MCSDK_v6.3.2-Full/MotorControl/MCSDK/MCLib/Any/Src/revup_ctrl.c ****     int16_t speed;
 1107              		.loc 1 583 5 view .LVU423
 584:MCSDK_v6.3.2-Full/MotorControl/MCSDK/MCLib/Any/Src/revup_ctrl.c ****     speed = RUC_GetPhaseFinalMecSpeed01Hz(pHandle, pHandle->bStageCnt);
 1108              		.loc 1 584 5 view .LVU424
 1109              	.LBB39:
 1110              	.LBI39:
  95:MCSDK_v6.3.2-Full/MotorControl/MCSDK/MCLib/Any/Src/revup_ctrl.c **** {
 1111              		.loc 1 95 23 view .LVU425
 1112              	.LBB40:
  97:MCSDK_v6.3.2-Full/MotorControl/MCSDK/MCLib/Any/Src/revup_ctrl.c **** }
 1113              		.loc 1 97 3 view .LVU426
  97:MCSDK_v6.3.2-Full/MotorControl/MCSDK/MCLib/Any/Src/revup_ctrl.c **** }
 1114              		.loc 1 97 3 is_stmt 0 view .LVU427
 1115              	.LBE40:
 1116              	.LBE39:
 585:MCSDK_v6.3.2-Full/MotorControl/MCSDK/MCLib/Any/Src/revup_ctrl.c ****     if (0 == speed)
 1117              		.loc 1 585 5 is_stmt 1 view .LVU428
 586:MCSDK_v6.3.2-Full/MotorControl/MCSDK/MCLib/Any/Src/revup_ctrl.c ****     {
 587:MCSDK_v6.3.2-Full/MotorControl/MCSDK/MCLib/Any/Src/revup_ctrl.c ****       align_flag = 1;
 588:MCSDK_v6.3.2-Full/MotorControl/MCSDK/MCLib/Any/Src/revup_ctrl.c ****     }
 589:MCSDK_v6.3.2-Full/MotorControl/MCSDK/MCLib/Any/Src/revup_ctrl.c ****     else
 590:MCSDK_v6.3.2-Full/MotorControl/MCSDK/MCLib/Any/Src/revup_ctrl.c ****     {
 591:MCSDK_v6.3.2-Full/MotorControl/MCSDK/MCLib/Any/Src/revup_ctrl.c ****       /* Nothing to do */
 592:MCSDK_v6.3.2-Full/MotorControl/MCSDK/MCLib/Any/Src/revup_ctrl.c ****     }
 1118              		.loc 1 592 5 view .LVU429
 593:MCSDK_v6.3.2-Full/MotorControl/MCSDK/MCLib/Any/Src/revup_ctrl.c **** #ifdef NULL_PTR_CHECK_REV_UP_CTL
 594:MCSDK_v6.3.2-Full/MotorControl/MCSDK/MCLib/Any/Src/revup_ctrl.c ****   }
 595:MCSDK_v6.3.2-Full/MotorControl/MCSDK/MCLib/Any/Src/revup_ctrl.c **** #endif
 596:MCSDK_v6.3.2-Full/MotorControl/MCSDK/MCLib/Any/Src/revup_ctrl.c ****   return (align_flag);
 1119              		.loc 1 596 3 view .LVU430
 1120              	.LBB42:
ARM GAS  /tmp/ccZpGKc6.s 			page 39


 1121              	.LBB41:
  97:MCSDK_v6.3.2-Full/MotorControl/MCSDK/MCLib/Any/Src/revup_ctrl.c **** }
 1122              		.loc 1 97 38 is_stmt 0 view .LVU431
 1123 0000 90F85830 		ldrb	r3, [r0, #88]	@ zero_extendqisi2
 1124              	.LVL87:
  97:MCSDK_v6.3.2-Full/MotorControl/MCSDK/MCLib/Any/Src/revup_ctrl.c **** }
 1125              		.loc 1 97 38 view .LVU432
 1126 0004 03EB4303 		add	r3, r3, r3, lsl #1
 1127              	.LVL88:
  97:MCSDK_v6.3.2-Full/MotorControl/MCSDK/MCLib/Any/Src/revup_ctrl.c **** }
 1128              		.loc 1 97 38 view .LVU433
 1129 0008 00EB8300 		add	r0, r0, r3, lsl #2
 1130              	.LVL89:
  97:MCSDK_v6.3.2-Full/MotorControl/MCSDK/MCLib/Any/Src/revup_ctrl.c **** }
 1131              		.loc 1 97 38 view .LVU434
 1132              	.LBE41:
 1133              	.LBE42:
 585:MCSDK_v6.3.2-Full/MotorControl/MCSDK/MCLib/Any/Src/revup_ctrl.c ****     {
 1134              		.loc 1 585 8 view .LVU435
 1135 000c B0F90E00 		ldrsh	r0, [r0, #14]
 597:MCSDK_v6.3.2-Full/MotorControl/MCSDK/MCLib/Any/Src/revup_ctrl.c **** }
 1136              		.loc 1 597 1 view .LVU436
 1137 0010 B0FA80F0 		clz	r0, r0
 1138 0014 4009     		lsrs	r0, r0, #5
 1139 0016 7047     		bx	lr
 1140              		.cfi_endproc
 1141              	.LFE1461:
 1143              		.section	.text.RUC_FirstAccelerationStageReached,"ax",%progbits
 1144              		.align	1
 1145              		.p2align 2,,3
 1146              		.weak	RUC_FirstAccelerationStageReached
 1147              		.syntax unified
 1148              		.thumb
 1149              		.thumb_func
 1150              		.fpu fpv4-sp-d16
 1152              	RUC_FirstAccelerationStageReached:
 1153              	.LVL90:
 1154              	.LFB1462:
 598:MCSDK_v6.3.2-Full/MotorControl/MCSDK/MCLib/Any/Src/revup_ctrl.c **** 
 599:MCSDK_v6.3.2-Full/MotorControl/MCSDK/MCLib/Any/Src/revup_ctrl.c **** #if defined (CCMRAM)
 600:MCSDK_v6.3.2-Full/MotorControl/MCSDK/MCLib/Any/Src/revup_ctrl.c **** #if defined (__ICCARM__)
 601:MCSDK_v6.3.2-Full/MotorControl/MCSDK/MCLib/Any/Src/revup_ctrl.c **** #pragma location = ".ccmram"
 602:MCSDK_v6.3.2-Full/MotorControl/MCSDK/MCLib/Any/Src/revup_ctrl.c **** #elif defined (__CC_ARM) || defined(__GNUC__)
 603:MCSDK_v6.3.2-Full/MotorControl/MCSDK/MCLib/Any/Src/revup_ctrl.c **** __attribute__((section(".ccmram")))
 604:MCSDK_v6.3.2-Full/MotorControl/MCSDK/MCLib/Any/Src/revup_ctrl.c **** #endif
 605:MCSDK_v6.3.2-Full/MotorControl/MCSDK/MCLib/Any/Src/revup_ctrl.c **** #endif
 606:MCSDK_v6.3.2-Full/MotorControl/MCSDK/MCLib/Any/Src/revup_ctrl.c **** 
 607:MCSDK_v6.3.2-Full/MotorControl/MCSDK/MCLib/Any/Src/revup_ctrl.c **** /**
 608:MCSDK_v6.3.2-Full/MotorControl/MCSDK/MCLib/Any/Src/revup_ctrl.c ****   * @brief  Check that alignment and first acceleration stage are completed.
 609:MCSDK_v6.3.2-Full/MotorControl/MCSDK/MCLib/Any/Src/revup_ctrl.c ****   * @param  pHandle: Pointer on Handle structure of RevUp controller.
 610:MCSDK_v6.3.2-Full/MotorControl/MCSDK/MCLib/Any/Src/revup_ctrl.c ****   *  @retval Boolean set to true when first acceleration stage has been reached.
 611:MCSDK_v6.3.2-Full/MotorControl/MCSDK/MCLib/Any/Src/revup_ctrl.c ****   */
 612:MCSDK_v6.3.2-Full/MotorControl/MCSDK/MCLib/Any/Src/revup_ctrl.c **** __weak bool RUC_FirstAccelerationStageReached(RevUpCtrl_Handle_t *pHandle)
 613:MCSDK_v6.3.2-Full/MotorControl/MCSDK/MCLib/Any/Src/revup_ctrl.c **** {
 1155              		.loc 1 613 1 is_stmt 1 view -0
 1156              		.cfi_startproc
 1157              		@ args = 0, pretend = 0, frame = 0
ARM GAS  /tmp/ccZpGKc6.s 			page 40


 1158              		@ frame_needed = 0, uses_anonymous_args = 0
 1159              		@ link register save eliminated.
 614:MCSDK_v6.3.2-Full/MotorControl/MCSDK/MCLib/Any/Src/revup_ctrl.c ****   bool retVal = false;
 1160              		.loc 1 614 3 view .LVU438
 615:MCSDK_v6.3.2-Full/MotorControl/MCSDK/MCLib/Any/Src/revup_ctrl.c **** #ifdef NULL_PTR_CHECK_REV_UP_CTL
 616:MCSDK_v6.3.2-Full/MotorControl/MCSDK/MCLib/Any/Src/revup_ctrl.c ****   if (MC_NULL == pHandle)
 617:MCSDK_v6.3.2-Full/MotorControl/MCSDK/MCLib/Any/Src/revup_ctrl.c ****   {
 618:MCSDK_v6.3.2-Full/MotorControl/MCSDK/MCLib/Any/Src/revup_ctrl.c ****     /* Nothing to do */
 619:MCSDK_v6.3.2-Full/MotorControl/MCSDK/MCLib/Any/Src/revup_ctrl.c ****   }
 620:MCSDK_v6.3.2-Full/MotorControl/MCSDK/MCLib/Any/Src/revup_ctrl.c ****   else
 621:MCSDK_v6.3.2-Full/MotorControl/MCSDK/MCLib/Any/Src/revup_ctrl.c ****   {
 622:MCSDK_v6.3.2-Full/MotorControl/MCSDK/MCLib/Any/Src/revup_ctrl.c **** #endif
 623:MCSDK_v6.3.2-Full/MotorControl/MCSDK/MCLib/Any/Src/revup_ctrl.c ****     if (pHandle->bStageCnt >= pHandle->bFirstAccelerationStage)
 1161              		.loc 1 623 5 view .LVU439
 624:MCSDK_v6.3.2-Full/MotorControl/MCSDK/MCLib/Any/Src/revup_ctrl.c ****     {
 625:MCSDK_v6.3.2-Full/MotorControl/MCSDK/MCLib/Any/Src/revup_ctrl.c ****       retVal = true;
 626:MCSDK_v6.3.2-Full/MotorControl/MCSDK/MCLib/Any/Src/revup_ctrl.c ****     }
 627:MCSDK_v6.3.2-Full/MotorControl/MCSDK/MCLib/Any/Src/revup_ctrl.c ****     else
 628:MCSDK_v6.3.2-Full/MotorControl/MCSDK/MCLib/Any/Src/revup_ctrl.c ****     {
 629:MCSDK_v6.3.2-Full/MotorControl/MCSDK/MCLib/Any/Src/revup_ctrl.c ****       /* Nothing to do */
 630:MCSDK_v6.3.2-Full/MotorControl/MCSDK/MCLib/Any/Src/revup_ctrl.c ****     }
 1162              		.loc 1 630 5 view .LVU440
 631:MCSDK_v6.3.2-Full/MotorControl/MCSDK/MCLib/Any/Src/revup_ctrl.c **** #ifdef NULL_PTR_CHECK_REV_UP_CTL
 632:MCSDK_v6.3.2-Full/MotorControl/MCSDK/MCLib/Any/Src/revup_ctrl.c ****   }
 633:MCSDK_v6.3.2-Full/MotorControl/MCSDK/MCLib/Any/Src/revup_ctrl.c **** #endif
 634:MCSDK_v6.3.2-Full/MotorControl/MCSDK/MCLib/Any/Src/revup_ctrl.c ****   return (retVal);
 1163              		.loc 1 634 3 view .LVU441
 623:MCSDK_v6.3.2-Full/MotorControl/MCSDK/MCLib/Any/Src/revup_ctrl.c ****     {
 1164              		.loc 1 623 8 is_stmt 0 view .LVU442
 1165 0000 90F85820 		ldrb	r2, [r0, #88]	@ zero_extendqisi2
 1166 0004 90F84900 		ldrb	r0, [r0, #73]	@ zero_extendqisi2
 1167              	.LVL91:
 635:MCSDK_v6.3.2-Full/MotorControl/MCSDK/MCLib/Any/Src/revup_ctrl.c **** }
 1168              		.loc 1 635 1 view .LVU443
 1169 0008 8242     		cmp	r2, r0
 1170 000a 34BF     		ite	cc
 1171 000c 0020     		movcc	r0, #0
 1172              	.LVL92:
 1173              		.loc 1 635 1 view .LVU444
 1174 000e 0120     		movcs	r0, #1
 1175 0010 7047     		bx	lr
 1176              		.cfi_endproc
 1177              	.LFE1462:
 1179 0012 00BF     		.section	.text.RUC_SetPhaseDurationms,"ax",%progbits
 1180              		.align	1
 1181              		.p2align 2,,3
 1182              		.weak	RUC_SetPhaseDurationms
 1183              		.syntax unified
 1184              		.thumb
 1185              		.thumb_func
 1186              		.fpu fpv4-sp-d16
 1188              	RUC_SetPhaseDurationms:
 1189              	.LVL93:
 1190              	.LFB1463:
 636:MCSDK_v6.3.2-Full/MotorControl/MCSDK/MCLib/Any/Src/revup_ctrl.c **** 
 637:MCSDK_v6.3.2-Full/MotorControl/MCSDK/MCLib/Any/Src/revup_ctrl.c **** /**
 638:MCSDK_v6.3.2-Full/MotorControl/MCSDK/MCLib/Any/Src/revup_ctrl.c ****   * @brief  Allow to modify duration of a selected phase.
ARM GAS  /tmp/ccZpGKc6.s 			page 41


 639:MCSDK_v6.3.2-Full/MotorControl/MCSDK/MCLib/Any/Src/revup_ctrl.c ****   * @param  pHandle: Pointer on Handle structure of RevUp controller.
 640:MCSDK_v6.3.2-Full/MotorControl/MCSDK/MCLib/Any/Src/revup_ctrl.c ****   * @param  bPhase: RevUp phase where new duration shall be modified.
 641:MCSDK_v6.3.2-Full/MotorControl/MCSDK/MCLib/Any/Src/revup_ctrl.c ****   *         This parameter must be a number between 0 and 6.
 642:MCSDK_v6.3.2-Full/MotorControl/MCSDK/MCLib/Any/Src/revup_ctrl.c ****   * @param  hDurationms: new duration value required for associated phase.
 643:MCSDK_v6.3.2-Full/MotorControl/MCSDK/MCLib/Any/Src/revup_ctrl.c ****   *         This parameter must be set in millisecond.
 644:MCSDK_v6.3.2-Full/MotorControl/MCSDK/MCLib/Any/Src/revup_ctrl.c ****   */
 645:MCSDK_v6.3.2-Full/MotorControl/MCSDK/MCLib/Any/Src/revup_ctrl.c **** __weak void RUC_SetPhaseDurationms(RevUpCtrl_Handle_t *pHandle, uint8_t bPhase, uint16_t hDurationm
 646:MCSDK_v6.3.2-Full/MotorControl/MCSDK/MCLib/Any/Src/revup_ctrl.c **** {
 1191              		.loc 1 646 1 is_stmt 1 view -0
 1192              		.cfi_startproc
 1193              		@ args = 0, pretend = 0, frame = 0
 1194              		@ frame_needed = 0, uses_anonymous_args = 0
 1195              		@ link register save eliminated.
 647:MCSDK_v6.3.2-Full/MotorControl/MCSDK/MCLib/Any/Src/revup_ctrl.c **** #ifdef NULL_PTR_CHECK_REV_UP_CTL
 648:MCSDK_v6.3.2-Full/MotorControl/MCSDK/MCLib/Any/Src/revup_ctrl.c ****   if (MC_NULL == pHandle)
 649:MCSDK_v6.3.2-Full/MotorControl/MCSDK/MCLib/Any/Src/revup_ctrl.c ****   {
 650:MCSDK_v6.3.2-Full/MotorControl/MCSDK/MCLib/Any/Src/revup_ctrl.c ****     /* Nothing to do */
 651:MCSDK_v6.3.2-Full/MotorControl/MCSDK/MCLib/Any/Src/revup_ctrl.c ****   }
 652:MCSDK_v6.3.2-Full/MotorControl/MCSDK/MCLib/Any/Src/revup_ctrl.c ****   else
 653:MCSDK_v6.3.2-Full/MotorControl/MCSDK/MCLib/Any/Src/revup_ctrl.c ****   {
 654:MCSDK_v6.3.2-Full/MotorControl/MCSDK/MCLib/Any/Src/revup_ctrl.c **** #endif
 655:MCSDK_v6.3.2-Full/MotorControl/MCSDK/MCLib/Any/Src/revup_ctrl.c ****     pHandle->ParamsData[bPhase].hDurationms = hDurationms;
 1196              		.loc 1 655 5 view .LVU446
 1197              		.loc 1 655 45 is_stmt 0 view .LVU447
 1198 0000 01EB4101 		add	r1, r1, r1, lsl #1
 1199              	.LVL94:
 1200              		.loc 1 655 45 view .LVU448
 1201 0004 00EB8101 		add	r1, r0, r1, lsl #2
 1202 0008 8A81     		strh	r2, [r1, #12]	@ movhi
 656:MCSDK_v6.3.2-Full/MotorControl/MCSDK/MCLib/Any/Src/revup_ctrl.c **** #ifdef NULL_PTR_CHECK_REV_UP_CTL
 657:MCSDK_v6.3.2-Full/MotorControl/MCSDK/MCLib/Any/Src/revup_ctrl.c ****   }
 658:MCSDK_v6.3.2-Full/MotorControl/MCSDK/MCLib/Any/Src/revup_ctrl.c **** #endif
 659:MCSDK_v6.3.2-Full/MotorControl/MCSDK/MCLib/Any/Src/revup_ctrl.c **** }
 1203              		.loc 1 659 1 view .LVU449
 1204 000a 7047     		bx	lr
 1205              		.cfi_endproc
 1206              	.LFE1463:
 1208              		.section	.text.RUC_SetPhaseFinalMecSpeedUnit,"ax",%progbits
 1209              		.align	1
 1210              		.p2align 2,,3
 1211              		.weak	RUC_SetPhaseFinalMecSpeedUnit
 1212              		.syntax unified
 1213              		.thumb
 1214              		.thumb_func
 1215              		.fpu fpv4-sp-d16
 1217              	RUC_SetPhaseFinalMecSpeedUnit:
 1218              	.LVL95:
 1219              	.LFB1464:
 660:MCSDK_v6.3.2-Full/MotorControl/MCSDK/MCLib/Any/Src/revup_ctrl.c **** 
 661:MCSDK_v6.3.2-Full/MotorControl/MCSDK/MCLib/Any/Src/revup_ctrl.c **** /**
 662:MCSDK_v6.3.2-Full/MotorControl/MCSDK/MCLib/Any/Src/revup_ctrl.c ****   * @brief  Allow to modify targeted mechanical speed of a selected phase.
 663:MCSDK_v6.3.2-Full/MotorControl/MCSDK/MCLib/Any/Src/revup_ctrl.c ****   * @param  pHandle: Pointer on Handle structure of RevUp controller.
 664:MCSDK_v6.3.2-Full/MotorControl/MCSDK/MCLib/Any/Src/revup_ctrl.c ****   * @param  bPhase: RevUp phase where new mechanical speed shall be modified.
 665:MCSDK_v6.3.2-Full/MotorControl/MCSDK/MCLib/Any/Src/revup_ctrl.c ****   *         This parameter must be a number between 0 and 6.
 666:MCSDK_v6.3.2-Full/MotorControl/MCSDK/MCLib/Any/Src/revup_ctrl.c ****   * @param  hFinalMecSpeedUnit: new targeted mechanical speed.
 667:MCSDK_v6.3.2-Full/MotorControl/MCSDK/MCLib/Any/Src/revup_ctrl.c ****   *         This parameter must be expressed in 0.1Hz.
 668:MCSDK_v6.3.2-Full/MotorControl/MCSDK/MCLib/Any/Src/revup_ctrl.c ****   */
ARM GAS  /tmp/ccZpGKc6.s 			page 42


 669:MCSDK_v6.3.2-Full/MotorControl/MCSDK/MCLib/Any/Src/revup_ctrl.c **** __weak void RUC_SetPhaseFinalMecSpeedUnit(RevUpCtrl_Handle_t *pHandle, uint8_t bPhase, int16_t hFin
 670:MCSDK_v6.3.2-Full/MotorControl/MCSDK/MCLib/Any/Src/revup_ctrl.c **** {
 1220              		.loc 1 670 1 is_stmt 1 view -0
 1221              		.cfi_startproc
 1222              		@ args = 0, pretend = 0, frame = 0
 1223              		@ frame_needed = 0, uses_anonymous_args = 0
 1224              		@ link register save eliminated.
 671:MCSDK_v6.3.2-Full/MotorControl/MCSDK/MCLib/Any/Src/revup_ctrl.c **** #ifdef NULL_PTR_CHECK_REV_UP_CTL
 672:MCSDK_v6.3.2-Full/MotorControl/MCSDK/MCLib/Any/Src/revup_ctrl.c ****   if (MC_NULL == pHandle)
 673:MCSDK_v6.3.2-Full/MotorControl/MCSDK/MCLib/Any/Src/revup_ctrl.c ****   {
 674:MCSDK_v6.3.2-Full/MotorControl/MCSDK/MCLib/Any/Src/revup_ctrl.c ****     /* Nothing to do */
 675:MCSDK_v6.3.2-Full/MotorControl/MCSDK/MCLib/Any/Src/revup_ctrl.c ****   }
 676:MCSDK_v6.3.2-Full/MotorControl/MCSDK/MCLib/Any/Src/revup_ctrl.c ****   else
 677:MCSDK_v6.3.2-Full/MotorControl/MCSDK/MCLib/Any/Src/revup_ctrl.c ****   {
 678:MCSDK_v6.3.2-Full/MotorControl/MCSDK/MCLib/Any/Src/revup_ctrl.c **** #endif
 679:MCSDK_v6.3.2-Full/MotorControl/MCSDK/MCLib/Any/Src/revup_ctrl.c ****     pHandle->ParamsData[bPhase].hFinalMecSpeedUnit = hFinalMecSpeedUnit;
 1225              		.loc 1 679 5 view .LVU451
 1226              		.loc 1 679 52 is_stmt 0 view .LVU452
 1227 0000 01EB4101 		add	r1, r1, r1, lsl #1
 1228              	.LVL96:
 1229              		.loc 1 679 52 view .LVU453
 1230 0004 00EB8101 		add	r1, r0, r1, lsl #2
 1231 0008 CA81     		strh	r2, [r1, #14]	@ movhi
 680:MCSDK_v6.3.2-Full/MotorControl/MCSDK/MCLib/Any/Src/revup_ctrl.c **** #ifdef NULL_PTR_CHECK_REV_UP_CTL
 681:MCSDK_v6.3.2-Full/MotorControl/MCSDK/MCLib/Any/Src/revup_ctrl.c ****   }
 682:MCSDK_v6.3.2-Full/MotorControl/MCSDK/MCLib/Any/Src/revup_ctrl.c **** #endif
 683:MCSDK_v6.3.2-Full/MotorControl/MCSDK/MCLib/Any/Src/revup_ctrl.c **** }
 1232              		.loc 1 683 1 view .LVU454
 1233 000a 7047     		bx	lr
 1234              		.cfi_endproc
 1235              	.LFE1464:
 1237              		.section	.text.RUC_SetPhaseFinalTorque,"ax",%progbits
 1238              		.align	1
 1239              		.p2align 2,,3
 1240              		.weak	RUC_SetPhaseFinalTorque
 1241              		.syntax unified
 1242              		.thumb
 1243              		.thumb_func
 1244              		.fpu fpv4-sp-d16
 1246              	RUC_SetPhaseFinalTorque:
 1247              	.LVL97:
 1248              	.LFB1465:
 684:MCSDK_v6.3.2-Full/MotorControl/MCSDK/MCLib/Any/Src/revup_ctrl.c **** 
 685:MCSDK_v6.3.2-Full/MotorControl/MCSDK/MCLib/Any/Src/revup_ctrl.c **** /**
 686:MCSDK_v6.3.2-Full/MotorControl/MCSDK/MCLib/Any/Src/revup_ctrl.c ****   * @brief  Allow to modify targeted the motor torque of a selected phase.
 687:MCSDK_v6.3.2-Full/MotorControl/MCSDK/MCLib/Any/Src/revup_ctrl.c ****   * @param  pHandle: Pointer on Handle structure of RevUp controller.
 688:MCSDK_v6.3.2-Full/MotorControl/MCSDK/MCLib/Any/Src/revup_ctrl.c ****   * @param  bPhase: RevUp phase where new the motor torque shall be modified.
 689:MCSDK_v6.3.2-Full/MotorControl/MCSDK/MCLib/Any/Src/revup_ctrl.c ****   *         This parameter must be a number between 0 and 6.
 690:MCSDK_v6.3.2-Full/MotorControl/MCSDK/MCLib/Any/Src/revup_ctrl.c ****   * @param  hFinalTorque: new targeted motor torque.
 691:MCSDK_v6.3.2-Full/MotorControl/MCSDK/MCLib/Any/Src/revup_ctrl.c ****   */
 692:MCSDK_v6.3.2-Full/MotorControl/MCSDK/MCLib/Any/Src/revup_ctrl.c **** __weak void RUC_SetPhaseFinalTorque(RevUpCtrl_Handle_t *pHandle, uint8_t bPhase, int16_t hFinalTorq
 693:MCSDK_v6.3.2-Full/MotorControl/MCSDK/MCLib/Any/Src/revup_ctrl.c **** {
 1249              		.loc 1 693 1 is_stmt 1 view -0
 1250              		.cfi_startproc
 1251              		@ args = 0, pretend = 0, frame = 0
 1252              		@ frame_needed = 0, uses_anonymous_args = 0
 1253              		@ link register save eliminated.
ARM GAS  /tmp/ccZpGKc6.s 			page 43


 694:MCSDK_v6.3.2-Full/MotorControl/MCSDK/MCLib/Any/Src/revup_ctrl.c **** #ifdef NULL_PTR_CHECK_REV_UP_CTL
 695:MCSDK_v6.3.2-Full/MotorControl/MCSDK/MCLib/Any/Src/revup_ctrl.c ****   if (MC_NULL == pHandle)
 696:MCSDK_v6.3.2-Full/MotorControl/MCSDK/MCLib/Any/Src/revup_ctrl.c ****   {
 697:MCSDK_v6.3.2-Full/MotorControl/MCSDK/MCLib/Any/Src/revup_ctrl.c ****     /* Nothing to do */
 698:MCSDK_v6.3.2-Full/MotorControl/MCSDK/MCLib/Any/Src/revup_ctrl.c ****   }
 699:MCSDK_v6.3.2-Full/MotorControl/MCSDK/MCLib/Any/Src/revup_ctrl.c ****   else
 700:MCSDK_v6.3.2-Full/MotorControl/MCSDK/MCLib/Any/Src/revup_ctrl.c ****   {
 701:MCSDK_v6.3.2-Full/MotorControl/MCSDK/MCLib/Any/Src/revup_ctrl.c **** #endif
 702:MCSDK_v6.3.2-Full/MotorControl/MCSDK/MCLib/Any/Src/revup_ctrl.c ****     pHandle->ParamsData[bPhase].hFinalTorque = hFinalTorque;
 1254              		.loc 1 702 5 view .LVU456
 1255              		.loc 1 702 46 is_stmt 0 view .LVU457
 1256 0000 01EB4101 		add	r1, r1, r1, lsl #1
 1257              	.LVL98:
 1258              		.loc 1 702 46 view .LVU458
 1259 0004 00EB8101 		add	r1, r0, r1, lsl #2
 1260 0008 0A82     		strh	r2, [r1, #16]	@ movhi
 703:MCSDK_v6.3.2-Full/MotorControl/MCSDK/MCLib/Any/Src/revup_ctrl.c **** #ifdef NULL_PTR_CHECK_REV_UP_CTL
 704:MCSDK_v6.3.2-Full/MotorControl/MCSDK/MCLib/Any/Src/revup_ctrl.c ****   }
 705:MCSDK_v6.3.2-Full/MotorControl/MCSDK/MCLib/Any/Src/revup_ctrl.c **** #endif
 706:MCSDK_v6.3.2-Full/MotorControl/MCSDK/MCLib/Any/Src/revup_ctrl.c **** }
 1261              		.loc 1 706 1 view .LVU459
 1262 000a 7047     		bx	lr
 1263              		.cfi_endproc
 1264              	.LFE1465:
 1266              		.section	.text.RUC_GetPhaseDurationms,"ax",%progbits
 1267              		.align	1
 1268              		.p2align 2,,3
 1269              		.weak	RUC_GetPhaseDurationms
 1270              		.syntax unified
 1271              		.thumb
 1272              		.thumb_func
 1273              		.fpu fpv4-sp-d16
 1275              	RUC_GetPhaseDurationms:
 1276              	.LVL99:
 1277              	.LFB1466:
 707:MCSDK_v6.3.2-Full/MotorControl/MCSDK/MCLib/Any/Src/revup_ctrl.c **** 
 708:MCSDK_v6.3.2-Full/MotorControl/MCSDK/MCLib/Any/Src/revup_ctrl.c **** /**
 709:MCSDK_v6.3.2-Full/MotorControl/MCSDK/MCLib/Any/Src/revup_ctrl.c ****   * @brief  Allow to read duration set in selected phase.
 710:MCSDK_v6.3.2-Full/MotorControl/MCSDK/MCLib/Any/Src/revup_ctrl.c ****   * @param  pHandle: Pointer on Handle structure of RevUp controller.
 711:MCSDK_v6.3.2-Full/MotorControl/MCSDK/MCLib/Any/Src/revup_ctrl.c ****   * @param  bPhase: RevUp phase from where duration is read.
 712:MCSDK_v6.3.2-Full/MotorControl/MCSDK/MCLib/Any/Src/revup_ctrl.c ****   *         This parameter must be a number between 0 and 6.
 713:MCSDK_v6.3.2-Full/MotorControl/MCSDK/MCLib/Any/Src/revup_ctrl.c ****   *  @retval Returns duration used in selected phase in ms unit.
 714:MCSDK_v6.3.2-Full/MotorControl/MCSDK/MCLib/Any/Src/revup_ctrl.c ****   */
 715:MCSDK_v6.3.2-Full/MotorControl/MCSDK/MCLib/Any/Src/revup_ctrl.c **** __weak uint16_t RUC_GetPhaseDurationms(RevUpCtrl_Handle_t *pHandle, uint8_t bPhase)
 716:MCSDK_v6.3.2-Full/MotorControl/MCSDK/MCLib/Any/Src/revup_ctrl.c **** {
 1278              		.loc 1 716 1 is_stmt 1 view -0
 1279              		.cfi_startproc
 1280              		@ args = 0, pretend = 0, frame = 0
 1281              		@ frame_needed = 0, uses_anonymous_args = 0
 1282              		@ link register save eliminated.
 717:MCSDK_v6.3.2-Full/MotorControl/MCSDK/MCLib/Any/Src/revup_ctrl.c **** #ifdef NULL_PTR_CHECK_REV_UP_CTL
 718:MCSDK_v6.3.2-Full/MotorControl/MCSDK/MCLib/Any/Src/revup_ctrl.c ****   return ((MC_NULL == pHandle) ? 0U : (uint16_t)pHandle->ParamsData[bPhase].hDurationms);
 719:MCSDK_v6.3.2-Full/MotorControl/MCSDK/MCLib/Any/Src/revup_ctrl.c **** #else
 720:MCSDK_v6.3.2-Full/MotorControl/MCSDK/MCLib/Any/Src/revup_ctrl.c ****   return ((uint16_t)pHandle->ParamsData[bPhase].hDurationms);
 1283              		.loc 1 720 3 view .LVU461
 1284              		.loc 1 720 11 is_stmt 0 view .LVU462
 1285 0000 01EB4101 		add	r1, r1, r1, lsl #1
ARM GAS  /tmp/ccZpGKc6.s 			page 44


 1286              	.LVL100:
 1287              		.loc 1 720 11 view .LVU463
 1288 0004 00EB8101 		add	r1, r0, r1, lsl #2
 721:MCSDK_v6.3.2-Full/MotorControl/MCSDK/MCLib/Any/Src/revup_ctrl.c **** #endif
 722:MCSDK_v6.3.2-Full/MotorControl/MCSDK/MCLib/Any/Src/revup_ctrl.c **** }
 1289              		.loc 1 722 1 view .LVU464
 1290 0008 8889     		ldrh	r0, [r1, #12]
 1291              	.LVL101:
 1292              		.loc 1 722 1 view .LVU465
 1293 000a 7047     		bx	lr
 1294              		.cfi_endproc
 1295              	.LFE1466:
 1297              		.section	.text.RUC_GetPhaseFinalMecSpeedUnit,"ax",%progbits
 1298              		.align	1
 1299              		.p2align 2,,3
 1300              		.weak	RUC_GetPhaseFinalMecSpeedUnit
 1301              		.syntax unified
 1302              		.thumb
 1303              		.thumb_func
 1304              		.fpu fpv4-sp-d16
 1306              	RUC_GetPhaseFinalMecSpeedUnit:
 1307              	.LVL102:
 1308              	.LFB1467:
 723:MCSDK_v6.3.2-Full/MotorControl/MCSDK/MCLib/Any/Src/revup_ctrl.c **** 
 724:MCSDK_v6.3.2-Full/MotorControl/MCSDK/MCLib/Any/Src/revup_ctrl.c **** /**
 725:MCSDK_v6.3.2-Full/MotorControl/MCSDK/MCLib/Any/Src/revup_ctrl.c ****   * @brief  Allow to read targeted rotor speed set in selected phase.
 726:MCSDK_v6.3.2-Full/MotorControl/MCSDK/MCLib/Any/Src/revup_ctrl.c ****   * @param  pHandle: Pointer on Handle structure of RevUp controller.
 727:MCSDK_v6.3.2-Full/MotorControl/MCSDK/MCLib/Any/Src/revup_ctrl.c ****   * @param  bPhase: RevUp phase from where targeted rotor speed is read.
 728:MCSDK_v6.3.2-Full/MotorControl/MCSDK/MCLib/Any/Src/revup_ctrl.c ****   *         This parameter must be a number between 0 and 6.
 729:MCSDK_v6.3.2-Full/MotorControl/MCSDK/MCLib/Any/Src/revup_ctrl.c ****   *  @retval Returns targeted rotor speed set for a selected phase.
 730:MCSDK_v6.3.2-Full/MotorControl/MCSDK/MCLib/Any/Src/revup_ctrl.c ****   */
 731:MCSDK_v6.3.2-Full/MotorControl/MCSDK/MCLib/Any/Src/revup_ctrl.c **** __weak int16_t RUC_GetPhaseFinalMecSpeedUnit(RevUpCtrl_Handle_t *pHandle, uint8_t bPhase)
 732:MCSDK_v6.3.2-Full/MotorControl/MCSDK/MCLib/Any/Src/revup_ctrl.c **** {
 1309              		.loc 1 732 1 is_stmt 1 view -0
 1310              		.cfi_startproc
 1311              		@ args = 0, pretend = 0, frame = 0
 1312              		@ frame_needed = 0, uses_anonymous_args = 0
 1313              		@ link register save eliminated.
 733:MCSDK_v6.3.2-Full/MotorControl/MCSDK/MCLib/Any/Src/revup_ctrl.c **** #ifdef NULL_PTR_CHECK_REV_UP_CTL
 734:MCSDK_v6.3.2-Full/MotorControl/MCSDK/MCLib/Any/Src/revup_ctrl.c ****   return ((MC_NULL == pHandle) ? 0 : (int16_t)pHandle->ParamsData[bPhase].hFinalMecSpeedUnit);
 735:MCSDK_v6.3.2-Full/MotorControl/MCSDK/MCLib/Any/Src/revup_ctrl.c **** #else
 736:MCSDK_v6.3.2-Full/MotorControl/MCSDK/MCLib/Any/Src/revup_ctrl.c ****   return ((int16_t)pHandle->ParamsData[bPhase].hFinalMecSpeedUnit);
 1314              		.loc 1 736 3 view .LVU467
 1315              		.loc 1 736 11 is_stmt 0 view .LVU468
 1316 0000 01EB4101 		add	r1, r1, r1, lsl #1
 1317              	.LVL103:
 1318              		.loc 1 736 11 view .LVU469
 1319 0004 00EB8101 		add	r1, r0, r1, lsl #2
 737:MCSDK_v6.3.2-Full/MotorControl/MCSDK/MCLib/Any/Src/revup_ctrl.c **** #endif
 738:MCSDK_v6.3.2-Full/MotorControl/MCSDK/MCLib/Any/Src/revup_ctrl.c **** }
 1320              		.loc 1 738 1 view .LVU470
 1321 0008 B1F90E00 		ldrsh	r0, [r1, #14]
 1322              	.LVL104:
 1323              		.loc 1 738 1 view .LVU471
 1324 000c 7047     		bx	lr
 1325              		.cfi_endproc
 1326              	.LFE1467:
ARM GAS  /tmp/ccZpGKc6.s 			page 45


 1328 000e 00BF     		.section	.text.RUC_GetPhaseFinalTorque,"ax",%progbits
 1329              		.align	1
 1330              		.p2align 2,,3
 1331              		.weak	RUC_GetPhaseFinalTorque
 1332              		.syntax unified
 1333              		.thumb
 1334              		.thumb_func
 1335              		.fpu fpv4-sp-d16
 1337              	RUC_GetPhaseFinalTorque:
 1338              	.LVL105:
 1339              	.LFB1468:
 739:MCSDK_v6.3.2-Full/MotorControl/MCSDK/MCLib/Any/Src/revup_ctrl.c **** 
 740:MCSDK_v6.3.2-Full/MotorControl/MCSDK/MCLib/Any/Src/revup_ctrl.c **** /**
 741:MCSDK_v6.3.2-Full/MotorControl/MCSDK/MCLib/Any/Src/revup_ctrl.c ****   * @brief  Allow to read targeted motor torque set in selected phase.
 742:MCSDK_v6.3.2-Full/MotorControl/MCSDK/MCLib/Any/Src/revup_ctrl.c ****   * @param  pHandle: Pointer on Handle structure of RevUp controller.
 743:MCSDK_v6.3.2-Full/MotorControl/MCSDK/MCLib/Any/Src/revup_ctrl.c ****   * @param  bPhase: RevUp phase from where targeted motor torque is read.
 744:MCSDK_v6.3.2-Full/MotorControl/MCSDK/MCLib/Any/Src/revup_ctrl.c ****   *         This parameter must be a number between 0 and 6.
 745:MCSDK_v6.3.2-Full/MotorControl/MCSDK/MCLib/Any/Src/revup_ctrl.c ****   *  @retval Returns targeted motor torque set for a selected phase.
 746:MCSDK_v6.3.2-Full/MotorControl/MCSDK/MCLib/Any/Src/revup_ctrl.c ****   */
 747:MCSDK_v6.3.2-Full/MotorControl/MCSDK/MCLib/Any/Src/revup_ctrl.c **** __weak int16_t RUC_GetPhaseFinalTorque(RevUpCtrl_Handle_t *pHandle, uint8_t bPhase)
 748:MCSDK_v6.3.2-Full/MotorControl/MCSDK/MCLib/Any/Src/revup_ctrl.c **** {
 1340              		.loc 1 748 1 is_stmt 1 view -0
 1341              		.cfi_startproc
 1342              		@ args = 0, pretend = 0, frame = 0
 1343              		@ frame_needed = 0, uses_anonymous_args = 0
 1344              		@ link register save eliminated.
 749:MCSDK_v6.3.2-Full/MotorControl/MCSDK/MCLib/Any/Src/revup_ctrl.c **** 
 750:MCSDK_v6.3.2-Full/MotorControl/MCSDK/MCLib/Any/Src/revup_ctrl.c **** #ifdef NULL_PTR_CHECK_REV_UP_CTL
 751:MCSDK_v6.3.2-Full/MotorControl/MCSDK/MCLib/Any/Src/revup_ctrl.c ****   return ((MC_NULL == pHandle) ? 0 : (int16_t)pHandle->ParamsData[bPhase].hFinalTorque);
 752:MCSDK_v6.3.2-Full/MotorControl/MCSDK/MCLib/Any/Src/revup_ctrl.c **** #else
 753:MCSDK_v6.3.2-Full/MotorControl/MCSDK/MCLib/Any/Src/revup_ctrl.c ****   return ((int16_t)pHandle->ParamsData[bPhase].hFinalTorque);
 1345              		.loc 1 753 3 view .LVU473
 1346              		.loc 1 753 11 is_stmt 0 view .LVU474
 1347 0000 01EB4101 		add	r1, r1, r1, lsl #1
 1348              	.LVL106:
 1349              		.loc 1 753 11 view .LVU475
 1350 0004 00EB8101 		add	r1, r0, r1, lsl #2
 754:MCSDK_v6.3.2-Full/MotorControl/MCSDK/MCLib/Any/Src/revup_ctrl.c **** #endif
 755:MCSDK_v6.3.2-Full/MotorControl/MCSDK/MCLib/Any/Src/revup_ctrl.c **** }
 1351              		.loc 1 755 1 view .LVU476
 1352 0008 B1F91000 		ldrsh	r0, [r1, #16]
 1353              	.LVL107:
 1354              		.loc 1 755 1 view .LVU477
 1355 000c 7047     		bx	lr
 1356              		.cfi_endproc
 1357              	.LFE1468:
 1359 000e 00BF     		.text
 1360              	.Letext0:
 1361              		.file 3 "/usr/share/gcc-arm-none-eabi-10-2020-q4-major/arm-none-eabi/include/machine/_default_type
 1362              		.file 4 "/usr/share/gcc-arm-none-eabi-10-2020-q4-major/arm-none-eabi/include/sys/_stdint.h"
 1363              		.file 5 "Drivers/CMSIS/Device/ST/STM32G4xx/Include/stm32g431xx.h"
 1364              		.file 6 "Drivers/STM32G4xx_HAL_Driver/Inc/stm32g4xx_ll_tim.h"
 1365              		.file 7 "Drivers/STM32G4xx_HAL_Driver/Inc/stm32g4xx_ll_usart.h"
 1366              		.file 8 "Drivers/STM32G4xx_HAL_Driver/Inc/stm32g4xx_ll_dma.h"
 1367              		.file 9 "Inc/mc_type.h"
 1368              		.file 10 "MCSDK_v6.3.2-Full/MotorControl/MCSDK/MCLib/Any/Inc/pid_regulator.h"
 1369              		.file 11 "MCSDK_v6.3.2-Full/MotorControl/MCSDK/MCLib/Any/Inc/speed_pos_fdbk.h"
ARM GAS  /tmp/ccZpGKc6.s 			page 46


 1370              		.file 12 "MCSDK_v6.3.2-Full/MotorControl/MCSDK/MCLib/Any/Inc/speed_torq_ctrl.h"
 1371              		.file 13 "MCSDK_v6.3.2-Full/MotorControl/MCSDK/MCLib/Any/Inc/sto_speed_pos_fdbk.h"
 1372              		.file 14 "Inc/pwm_curr_fdbk.h"
 1373              		.file 15 "MCSDK_v6.3.2-Full/MotorControl/MCSDK/MCLib/Any/Inc/revup_ctrl.h"
ARM GAS  /tmp/ccZpGKc6.s 			page 47

