ARM GAS  /tmp/cc0KPVeN.s 			page 1


   1              		.cpu cortex-m4
   2              		.eabi_attribute 27, 1
   3              		.eabi_attribute 28, 1
   4              		.eabi_attribute 20, 1
   5              		.eabi_attribute 21, 1
   6              		.eabi_attribute 23, 3
   7              		.eabi_attribute 24, 1
   8              		.eabi_attribute 25, 1
   9              		.eabi_attribute 26, 1
  10              		.eabi_attribute 30, 6
  11              		.eabi_attribute 34, 1
  12              		.eabi_attribute 18, 2
  13              		.file	"speed_pos_fdbk.c"
  14              		.text
  15              	.Ltext0:
  16              		.cfi_sections	.debug_frame
  17              		.section	.rodata.OFFSET_TAB_CCMRx,"a"
  18              		.align	2
  21              	OFFSET_TAB_CCMRx:
  22 0000 00000000 		.ascii	"\000\000\000\000\004\004\004\00488"
  22      04040404 
  22      3838
  23              		.section	.rodata.SHIFT_TAB_OCxx,"a"
  24              		.align	2
  27              	SHIFT_TAB_OCxx:
  28 0000 00000800 		.ascii	"\000\000\010\000\000\000\010\000\000\010"
  28      00000800 
  28      0008
  29              		.section	.rodata.SHIFT_TAB_ICxx,"a"
  30              		.align	2
  33              	SHIFT_TAB_ICxx:
  34 0000 00000800 		.ascii	"\000\000\010\000\000\000\010\000\000\000"
  34      00000800 
  34      0000
  35              		.section	.rodata.SHIFT_TAB_CCxP,"a"
  36              		.align	2
  39              	SHIFT_TAB_CCxP:
  40 0000 00020406 		.ascii	"\000\002\004\006\010\012\014\016\020\024"
  40      080A0C0E 
  40      1014
  41              		.section	.rodata.SHIFT_TAB_OISx,"a"
  42              		.align	2
  45              	SHIFT_TAB_OISx:
  46 0000 00010203 		.ascii	"\000\001\002\003\004\005\006\007\010\012"
  46      04050607 
  46      080A
  47              		.section	.rodata.USART_PRESCALER_TAB,"a"
  48              		.align	2
  51              	USART_PRESCALER_TAB:
  52 0000 01000000 		.word	1
  53 0004 02000000 		.word	2
  54 0008 04000000 		.word	4
  55 000c 06000000 		.word	6
  56 0010 08000000 		.word	8
  57 0014 0A000000 		.word	10
  58 0018 0C000000 		.word	12
  59 001c 10000000 		.word	16
ARM GAS  /tmp/cc0KPVeN.s 			page 2


  60 0020 20000000 		.word	32
  61 0024 40000000 		.word	64
  62 0028 80000000 		.word	128
  63 002c 00010000 		.word	256
  64              		.section	.rodata.CHANNEL_OFFSET_TAB,"a"
  65              		.align	2
  68              	CHANNEL_OFFSET_TAB:
  69 0000 081C3044 		.ascii	"\010\0340DXl"
  69      586C
  70              		.section	.text.SPD_GetMecAngle,"ax",%progbits
  71              		.align	1
  72              		.weak	SPD_GetMecAngle
  73              		.arch armv7e-m
  74              		.syntax unified
  75              		.thumb
  76              		.thumb_func
  77              		.fpu fpv4-sp-d16
  79              	SPD_GetMecAngle:
  80              	.LFB1438:
  81              		.file 1 "MCSDK_v6.3.2-Full/MotorControl/MCSDK/MCLib/Any/Src/speed_pos_fdbk.c"
   1:MCSDK_v6.3.2-Full/MotorControl/MCSDK/MCLib/Any/Src/speed_pos_fdbk.c **** /**
   2:MCSDK_v6.3.2-Full/MotorControl/MCSDK/MCLib/Any/Src/speed_pos_fdbk.c ****   ******************************************************************************
   3:MCSDK_v6.3.2-Full/MotorControl/MCSDK/MCLib/Any/Src/speed_pos_fdbk.c ****   * @file    speed_pos_fdbk.c
   4:MCSDK_v6.3.2-Full/MotorControl/MCSDK/MCLib/Any/Src/speed_pos_fdbk.c ****   * @author  Motor Control SDK Team, ST Microelectronics
   5:MCSDK_v6.3.2-Full/MotorControl/MCSDK/MCLib/Any/Src/speed_pos_fdbk.c ****   * @brief   This file provides firmware functions that implement the  features
   6:MCSDK_v6.3.2-Full/MotorControl/MCSDK/MCLib/Any/Src/speed_pos_fdbk.c ****   *          of the Speed & Position Feedback component of the Motor Control SDK.
   7:MCSDK_v6.3.2-Full/MotorControl/MCSDK/MCLib/Any/Src/speed_pos_fdbk.c ****   *
   8:MCSDK_v6.3.2-Full/MotorControl/MCSDK/MCLib/Any/Src/speed_pos_fdbk.c ****   ******************************************************************************
   9:MCSDK_v6.3.2-Full/MotorControl/MCSDK/MCLib/Any/Src/speed_pos_fdbk.c ****   * @attention
  10:MCSDK_v6.3.2-Full/MotorControl/MCSDK/MCLib/Any/Src/speed_pos_fdbk.c ****   *
  11:MCSDK_v6.3.2-Full/MotorControl/MCSDK/MCLib/Any/Src/speed_pos_fdbk.c ****   * <h2><center>&copy; Copyright (c) 2024 STMicroelectronics.
  12:MCSDK_v6.3.2-Full/MotorControl/MCSDK/MCLib/Any/Src/speed_pos_fdbk.c ****   * All rights reserved.</center></h2>
  13:MCSDK_v6.3.2-Full/MotorControl/MCSDK/MCLib/Any/Src/speed_pos_fdbk.c ****   *
  14:MCSDK_v6.3.2-Full/MotorControl/MCSDK/MCLib/Any/Src/speed_pos_fdbk.c ****   * This software component is licensed by ST under Ultimate Liberty license
  15:MCSDK_v6.3.2-Full/MotorControl/MCSDK/MCLib/Any/Src/speed_pos_fdbk.c ****   * SLA0044, the "License"; You may not use this file except in compliance with
  16:MCSDK_v6.3.2-Full/MotorControl/MCSDK/MCLib/Any/Src/speed_pos_fdbk.c ****   * the License. You may obtain a copy of the License at:
  17:MCSDK_v6.3.2-Full/MotorControl/MCSDK/MCLib/Any/Src/speed_pos_fdbk.c ****   *                             www.st.com/SLA0044
  18:MCSDK_v6.3.2-Full/MotorControl/MCSDK/MCLib/Any/Src/speed_pos_fdbk.c ****   *
  19:MCSDK_v6.3.2-Full/MotorControl/MCSDK/MCLib/Any/Src/speed_pos_fdbk.c ****   ******************************************************************************
  20:MCSDK_v6.3.2-Full/MotorControl/MCSDK/MCLib/Any/Src/speed_pos_fdbk.c ****   */
  21:MCSDK_v6.3.2-Full/MotorControl/MCSDK/MCLib/Any/Src/speed_pos_fdbk.c **** 
  22:MCSDK_v6.3.2-Full/MotorControl/MCSDK/MCLib/Any/Src/speed_pos_fdbk.c **** /* Includes ------------------------------------------------------------------*/
  23:MCSDK_v6.3.2-Full/MotorControl/MCSDK/MCLib/Any/Src/speed_pos_fdbk.c **** #include "speed_pos_fdbk.h"
  24:MCSDK_v6.3.2-Full/MotorControl/MCSDK/MCLib/Any/Src/speed_pos_fdbk.c **** 
  25:MCSDK_v6.3.2-Full/MotorControl/MCSDK/MCLib/Any/Src/speed_pos_fdbk.c **** /** @addtogroup MCSDK
  26:MCSDK_v6.3.2-Full/MotorControl/MCSDK/MCLib/Any/Src/speed_pos_fdbk.c ****   * @{
  27:MCSDK_v6.3.2-Full/MotorControl/MCSDK/MCLib/Any/Src/speed_pos_fdbk.c ****   */
  28:MCSDK_v6.3.2-Full/MotorControl/MCSDK/MCLib/Any/Src/speed_pos_fdbk.c **** 
  29:MCSDK_v6.3.2-Full/MotorControl/MCSDK/MCLib/Any/Src/speed_pos_fdbk.c **** /** @defgroup SpeednPosFdbk Speed & Position Feedback
  30:MCSDK_v6.3.2-Full/MotorControl/MCSDK/MCLib/Any/Src/speed_pos_fdbk.c ****   *
  31:MCSDK_v6.3.2-Full/MotorControl/MCSDK/MCLib/Any/Src/speed_pos_fdbk.c ****   * @brief Speed & Position Feedback components of the Motor Control SDK
  32:MCSDK_v6.3.2-Full/MotorControl/MCSDK/MCLib/Any/Src/speed_pos_fdbk.c ****   *
  33:MCSDK_v6.3.2-Full/MotorControl/MCSDK/MCLib/Any/Src/speed_pos_fdbk.c ****   * These components provide the speed and the angular position of the rotor of a motor (both
  34:MCSDK_v6.3.2-Full/MotorControl/MCSDK/MCLib/Any/Src/speed_pos_fdbk.c ****   * electrical and mechanical). These informations are expressed in units defined into [measurement
  35:MCSDK_v6.3.2-Full/MotorControl/MCSDK/MCLib/Any/Src/speed_pos_fdbk.c ****   *
  36:MCSDK_v6.3.2-Full/MotorControl/MCSDK/MCLib/Any/Src/speed_pos_fdbk.c ****   * Several implementations of the Speed and Position Feedback feature are provided by the Motor
  37:MCSDK_v6.3.2-Full/MotorControl/MCSDK/MCLib/Any/Src/speed_pos_fdbk.c ****   * to account for the specificities of the motor used on the application:
ARM GAS  /tmp/cc0KPVeN.s 			page 3


  38:MCSDK_v6.3.2-Full/MotorControl/MCSDK/MCLib/Any/Src/speed_pos_fdbk.c ****   *
  39:MCSDK_v6.3.2-Full/MotorControl/MCSDK/MCLib/Any/Src/speed_pos_fdbk.c ****   * - @ref hall_speed_pos_fdbk "Hall Speed & Position Feedback" for motors with Hall effect sensors
  40:MCSDK_v6.3.2-Full/MotorControl/MCSDK/MCLib/Any/Src/speed_pos_fdbk.c ****   * - @ref Encoder "Encoder Speed & Position Feedback" for motors with a quadrature encoder.
  41:MCSDK_v6.3.2-Full/MotorControl/MCSDK/MCLib/Any/Src/speed_pos_fdbk.c ****   * - Two general purpose sensorless implementations are provided:
  42:MCSDK_v6.3.2-Full/MotorControl/MCSDK/MCLib/Any/Src/speed_pos_fdbk.c ****   *   @ref SpeednPosFdbk_STO "State Observer with PLL" and
  43:MCSDK_v6.3.2-Full/MotorControl/MCSDK/MCLib/Any/Src/speed_pos_fdbk.c ****   *   @ref STO_CORDIC_SpeednPosFdbk "State Observer with CORDIC"
  44:MCSDK_v6.3.2-Full/MotorControl/MCSDK/MCLib/Any/Src/speed_pos_fdbk.c ****   * - A @ref VirtualSpeedSensor "Virtual Speed & Position Feedback" implementation used during the
  45:MCSDK_v6.3.2-Full/MotorControl/MCSDK/MCLib/Any/Src/speed_pos_fdbk.c ****   *   @ref RevUpCtrl "Rev-Up Control" phases of the motor in a sensorless subsystem.
  46:MCSDK_v6.3.2-Full/MotorControl/MCSDK/MCLib/Any/Src/speed_pos_fdbk.c ****   * - @ref In the future a High Frequency Injection for anisotropic I-PMSM motors will be supported
  47:MCSDK_v6.3.2-Full/MotorControl/MCSDK/MCLib/Any/Src/speed_pos_fdbk.c ****   *
  48:MCSDK_v6.3.2-Full/MotorControl/MCSDK/MCLib/Any/Src/speed_pos_fdbk.c ****   *   For more information see the user manual [Speed position and sensorless BEMF reconstruction](
  49:MCSDK_v6.3.2-Full/MotorControl/MCSDK/MCLib/Any/Src/speed_pos_fdbk.c ****   * @{
  50:MCSDK_v6.3.2-Full/MotorControl/MCSDK/MCLib/Any/Src/speed_pos_fdbk.c ****   */
  51:MCSDK_v6.3.2-Full/MotorControl/MCSDK/MCLib/Any/Src/speed_pos_fdbk.c **** 
  52:MCSDK_v6.3.2-Full/MotorControl/MCSDK/MCLib/Any/Src/speed_pos_fdbk.c **** /**
  53:MCSDK_v6.3.2-Full/MotorControl/MCSDK/MCLib/Any/Src/speed_pos_fdbk.c ****   * @brief  Returns the last computed rotor mechanical angle, expressed in [s16degrees](measurement
  54:MCSDK_v6.3.2-Full/MotorControl/MCSDK/MCLib/Any/Src/speed_pos_fdbk.c ****   * @note   Both Hall sensor and Sensor-less application do not implement either mechanical angle c
  55:MCSDK_v6.3.2-Full/MotorControl/MCSDK/MCLib/Any/Src/speed_pos_fdbk.c ****   *         acceleration computation.
  56:MCSDK_v6.3.2-Full/MotorControl/MCSDK/MCLib/Any/Src/speed_pos_fdbk.c ****   * @param  pHandle: handler of the current instance of the SpeednPosFdbk component.
  57:MCSDK_v6.3.2-Full/MotorControl/MCSDK/MCLib/Any/Src/speed_pos_fdbk.c ****   * @retval int16_t rotor mechanical angle.
  58:MCSDK_v6.3.2-Full/MotorControl/MCSDK/MCLib/Any/Src/speed_pos_fdbk.c ****   *
  59:MCSDK_v6.3.2-Full/MotorControl/MCSDK/MCLib/Any/Src/speed_pos_fdbk.c ****   * - Mechanical angle frame is based on parameter @ref SpeednPosFdbk_Handle_t::bElToMecRatio "bElT
  60:MCSDK_v6.3.2-Full/MotorControl/MCSDK/MCLib/Any/Src/speed_pos_fdbk.c ****   * and, if occasionally provided through Encoder function of a measured mechanical angle, on infor
  61:MCSDK_v6.3.2-Full/MotorControl/MCSDK/MCLib/Any/Src/speed_pos_fdbk.c ****   * thereof.
  62:MCSDK_v6.3.2-Full/MotorControl/MCSDK/MCLib/Any/Src/speed_pos_fdbk.c ****   * - Called to set a mechanical position ot the rotor.
  63:MCSDK_v6.3.2-Full/MotorControl/MCSDK/MCLib/Any/Src/speed_pos_fdbk.c ****   */
  64:MCSDK_v6.3.2-Full/MotorControl/MCSDK/MCLib/Any/Src/speed_pos_fdbk.c **** __weak int32_t SPD_GetMecAngle(const SpeednPosFdbk_Handle_t *pHandle)
  65:MCSDK_v6.3.2-Full/MotorControl/MCSDK/MCLib/Any/Src/speed_pos_fdbk.c **** {
  82              		.loc 1 65 1
  83              		.cfi_startproc
  84              		@ args = 0, pretend = 0, frame = 8
  85              		@ frame_needed = 1, uses_anonymous_args = 0
  86              		@ link register save eliminated.
  87 0000 80B4     		push	{r7}
  88              	.LCFI0:
  89              		.cfi_def_cfa_offset 4
  90              		.cfi_offset 7, -4
  91 0002 83B0     		sub	sp, sp, #12
  92              	.LCFI1:
  93              		.cfi_def_cfa_offset 16
  94 0004 00AF     		add	r7, sp, #0
  95              	.LCFI2:
  96              		.cfi_def_cfa_register 7
  97 0006 7860     		str	r0, [r7, #4]
  66:MCSDK_v6.3.2-Full/MotorControl/MCSDK/MCLib/Any/Src/speed_pos_fdbk.c **** #ifdef NULL_PTR_CHECK_SPD_POS_FBK
  67:MCSDK_v6.3.2-Full/MotorControl/MCSDK/MCLib/Any/Src/speed_pos_fdbk.c ****   return ((MC_NULL == pHandle) ? 0 : pHandle->wMecAngle);
  68:MCSDK_v6.3.2-Full/MotorControl/MCSDK/MCLib/Any/Src/speed_pos_fdbk.c **** #else
  69:MCSDK_v6.3.2-Full/MotorControl/MCSDK/MCLib/Any/Src/speed_pos_fdbk.c ****   return (pHandle->wMecAngle);
  98              		.loc 1 69 18
  99 0008 7B68     		ldr	r3, [r7, #4]
 100 000a 9B68     		ldr	r3, [r3, #8]
  70:MCSDK_v6.3.2-Full/MotorControl/MCSDK/MCLib/Any/Src/speed_pos_fdbk.c **** #endif
  71:MCSDK_v6.3.2-Full/MotorControl/MCSDK/MCLib/Any/Src/speed_pos_fdbk.c **** }
 101              		.loc 1 71 1
 102 000c 1846     		mov	r0, r3
 103 000e 0C37     		adds	r7, r7, #12
 104              	.LCFI3:
ARM GAS  /tmp/cc0KPVeN.s 			page 4


 105              		.cfi_def_cfa_offset 4
 106 0010 BD46     		mov	sp, r7
 107              	.LCFI4:
 108              		.cfi_def_cfa_register 13
 109              		@ sp needed
 110 0012 5DF8047B 		ldr	r7, [sp], #4
 111              	.LCFI5:
 112              		.cfi_restore 7
 113              		.cfi_def_cfa_offset 0
 114 0016 7047     		bx	lr
 115              		.cfi_endproc
 116              	.LFE1438:
 118              		.section	.text.SPD_GetAvrgMecSpeedUnit,"ax",%progbits
 119              		.align	1
 120              		.weak	SPD_GetAvrgMecSpeedUnit
 121              		.syntax unified
 122              		.thumb
 123              		.thumb_func
 124              		.fpu fpv4-sp-d16
 126              	SPD_GetAvrgMecSpeedUnit:
 127              	.LFB1439:
  72:MCSDK_v6.3.2-Full/MotorControl/MCSDK/MCLib/Any/Src/speed_pos_fdbk.c **** 
  73:MCSDK_v6.3.2-Full/MotorControl/MCSDK/MCLib/Any/Src/speed_pos_fdbk.c **** /**
  74:MCSDK_v6.3.2-Full/MotorControl/MCSDK/MCLib/Any/Src/speed_pos_fdbk.c ****   * @brief  Returns the last computed average mechanical speed, expressed in
  75:MCSDK_v6.3.2-Full/MotorControl/MCSDK/MCLib/Any/Src/speed_pos_fdbk.c ****   *         the unit defined by [SPEED_UNIT](measurement_units.md).
  76:MCSDK_v6.3.2-Full/MotorControl/MCSDK/MCLib/Any/Src/speed_pos_fdbk.c ****   * @param  pHandle: handler of the current instance of the SpeednPosFdbk component.
  77:MCSDK_v6.3.2-Full/MotorControl/MCSDK/MCLib/Any/Src/speed_pos_fdbk.c ****   */
  78:MCSDK_v6.3.2-Full/MotorControl/MCSDK/MCLib/Any/Src/speed_pos_fdbk.c **** __weak int16_t SPD_GetAvrgMecSpeedUnit(const SpeednPosFdbk_Handle_t *pHandle)
  79:MCSDK_v6.3.2-Full/MotorControl/MCSDK/MCLib/Any/Src/speed_pos_fdbk.c **** {
 128              		.loc 1 79 1
 129              		.cfi_startproc
 130              		@ args = 0, pretend = 0, frame = 8
 131              		@ frame_needed = 1, uses_anonymous_args = 0
 132              		@ link register save eliminated.
 133 0000 80B4     		push	{r7}
 134              	.LCFI6:
 135              		.cfi_def_cfa_offset 4
 136              		.cfi_offset 7, -4
 137 0002 83B0     		sub	sp, sp, #12
 138              	.LCFI7:
 139              		.cfi_def_cfa_offset 16
 140 0004 00AF     		add	r7, sp, #0
 141              	.LCFI8:
 142              		.cfi_def_cfa_register 7
 143 0006 7860     		str	r0, [r7, #4]
  80:MCSDK_v6.3.2-Full/MotorControl/MCSDK/MCLib/Any/Src/speed_pos_fdbk.c **** #ifdef NULL_PTR_CHECK_SPD_POS_FBK
  81:MCSDK_v6.3.2-Full/MotorControl/MCSDK/MCLib/Any/Src/speed_pos_fdbk.c ****   return ((MC_NULL == pHandle) ? 0 : pHandle->hAvrMecSpeedUnit);
  82:MCSDK_v6.3.2-Full/MotorControl/MCSDK/MCLib/Any/Src/speed_pos_fdbk.c **** #else
  83:MCSDK_v6.3.2-Full/MotorControl/MCSDK/MCLib/Any/Src/speed_pos_fdbk.c ****   return (pHandle->hAvrMecSpeedUnit);
 144              		.loc 1 83 18
 145 0008 7B68     		ldr	r3, [r7, #4]
 146 000a B3F90C30 		ldrsh	r3, [r3, #12]
  84:MCSDK_v6.3.2-Full/MotorControl/MCSDK/MCLib/Any/Src/speed_pos_fdbk.c **** #endif
  85:MCSDK_v6.3.2-Full/MotorControl/MCSDK/MCLib/Any/Src/speed_pos_fdbk.c **** }
 147              		.loc 1 85 1
 148 000e 1846     		mov	r0, r3
 149 0010 0C37     		adds	r7, r7, #12
ARM GAS  /tmp/cc0KPVeN.s 			page 5


 150              	.LCFI9:
 151              		.cfi_def_cfa_offset 4
 152 0012 BD46     		mov	sp, r7
 153              	.LCFI10:
 154              		.cfi_def_cfa_register 13
 155              		@ sp needed
 156 0014 5DF8047B 		ldr	r7, [sp], #4
 157              	.LCFI11:
 158              		.cfi_restore 7
 159              		.cfi_def_cfa_offset 0
 160 0018 7047     		bx	lr
 161              		.cfi_endproc
 162              	.LFE1439:
 164              		.section	.text.SPD_GetElSpeedDpp,"ax",%progbits
 165              		.align	1
 166              		.weak	SPD_GetElSpeedDpp
 167              		.syntax unified
 168              		.thumb
 169              		.thumb_func
 170              		.fpu fpv4-sp-d16
 172              	SPD_GetElSpeedDpp:
 173              	.LFB1440:
  86:MCSDK_v6.3.2-Full/MotorControl/MCSDK/MCLib/Any/Src/speed_pos_fdbk.c **** 
  87:MCSDK_v6.3.2-Full/MotorControl/MCSDK/MCLib/Any/Src/speed_pos_fdbk.c **** /**
  88:MCSDK_v6.3.2-Full/MotorControl/MCSDK/MCLib/Any/Src/speed_pos_fdbk.c ****   * @brief  Returns the last computed electrical speed, expressed in [dpp](measurement_units.md).
  89:MCSDK_v6.3.2-Full/MotorControl/MCSDK/MCLib/Any/Src/speed_pos_fdbk.c ****   * @param  pHandle: handler of the current instance of the SpeednPosFdbk component.
  90:MCSDK_v6.3.2-Full/MotorControl/MCSDK/MCLib/Any/Src/speed_pos_fdbk.c ****   * @retval int16_t rotor electrical speed ([dpp](measurement_units.md)).
  91:MCSDK_v6.3.2-Full/MotorControl/MCSDK/MCLib/Any/Src/speed_pos_fdbk.c ****   *
  92:MCSDK_v6.3.2-Full/MotorControl/MCSDK/MCLib/Any/Src/speed_pos_fdbk.c ****   * - The control period is the period on which the rotor electrical angle is computed thanks
  93:MCSDK_v6.3.2-Full/MotorControl/MCSDK/MCLib/Any/Src/speed_pos_fdbk.c ****   *   to HALL effect sensor functions.
  94:MCSDK_v6.3.2-Full/MotorControl/MCSDK/MCLib/Any/Src/speed_pos_fdbk.c ****   * - Called during feed-forward controller computation and during Motor profiling.
  95:MCSDK_v6.3.2-Full/MotorControl/MCSDK/MCLib/Any/Src/speed_pos_fdbk.c ****   */
  96:MCSDK_v6.3.2-Full/MotorControl/MCSDK/MCLib/Any/Src/speed_pos_fdbk.c **** __weak int16_t SPD_GetElSpeedDpp(const SpeednPosFdbk_Handle_t *pHandle)
  97:MCSDK_v6.3.2-Full/MotorControl/MCSDK/MCLib/Any/Src/speed_pos_fdbk.c **** {
 174              		.loc 1 97 1
 175              		.cfi_startproc
 176              		@ args = 0, pretend = 0, frame = 8
 177              		@ frame_needed = 1, uses_anonymous_args = 0
 178              		@ link register save eliminated.
 179 0000 80B4     		push	{r7}
 180              	.LCFI12:
 181              		.cfi_def_cfa_offset 4
 182              		.cfi_offset 7, -4
 183 0002 83B0     		sub	sp, sp, #12
 184              	.LCFI13:
 185              		.cfi_def_cfa_offset 16
 186 0004 00AF     		add	r7, sp, #0
 187              	.LCFI14:
 188              		.cfi_def_cfa_register 7
 189 0006 7860     		str	r0, [r7, #4]
  98:MCSDK_v6.3.2-Full/MotorControl/MCSDK/MCLib/Any/Src/speed_pos_fdbk.c **** #ifdef NULL_PTR_CHECK_SPD_POS_FBK
  99:MCSDK_v6.3.2-Full/MotorControl/MCSDK/MCLib/Any/Src/speed_pos_fdbk.c ****   return ((MC_NULL == pHandle) ? 0 : pHandle->hElSpeedDpp);
 100:MCSDK_v6.3.2-Full/MotorControl/MCSDK/MCLib/Any/Src/speed_pos_fdbk.c **** #else
 101:MCSDK_v6.3.2-Full/MotorControl/MCSDK/MCLib/Any/Src/speed_pos_fdbk.c ****   return (pHandle->hElSpeedDpp);
 190              		.loc 1 101 18
 191 0008 7B68     		ldr	r3, [r7, #4]
 192 000a B3F90E30 		ldrsh	r3, [r3, #14]
ARM GAS  /tmp/cc0KPVeN.s 			page 6


 102:MCSDK_v6.3.2-Full/MotorControl/MCSDK/MCLib/Any/Src/speed_pos_fdbk.c **** #endif
 103:MCSDK_v6.3.2-Full/MotorControl/MCSDK/MCLib/Any/Src/speed_pos_fdbk.c **** }
 193              		.loc 1 103 1
 194 000e 1846     		mov	r0, r3
 195 0010 0C37     		adds	r7, r7, #12
 196              	.LCFI15:
 197              		.cfi_def_cfa_offset 4
 198 0012 BD46     		mov	sp, r7
 199              	.LCFI16:
 200              		.cfi_def_cfa_register 13
 201              		@ sp needed
 202 0014 5DF8047B 		ldr	r7, [sp], #4
 203              	.LCFI17:
 204              		.cfi_restore 7
 205              		.cfi_def_cfa_offset 0
 206 0018 7047     		bx	lr
 207              		.cfi_endproc
 208              	.LFE1440:
 210              		.section	.text.SPD_IsMecSpeedReliable,"ax",%progbits
 211              		.align	1
 212              		.weak	SPD_IsMecSpeedReliable
 213              		.syntax unified
 214              		.thumb
 215              		.thumb_func
 216              		.fpu fpv4-sp-d16
 218              	SPD_IsMecSpeedReliable:
 219              	.LFB1441:
 104:MCSDK_v6.3.2-Full/MotorControl/MCSDK/MCLib/Any/Src/speed_pos_fdbk.c **** 
 105:MCSDK_v6.3.2-Full/MotorControl/MCSDK/MCLib/Any/Src/speed_pos_fdbk.c **** #if defined (CCMRAM)
 106:MCSDK_v6.3.2-Full/MotorControl/MCSDK/MCLib/Any/Src/speed_pos_fdbk.c **** #if defined (__ICCARM__)
 107:MCSDK_v6.3.2-Full/MotorControl/MCSDK/MCLib/Any/Src/speed_pos_fdbk.c **** #pragma location = ".ccmram"
 108:MCSDK_v6.3.2-Full/MotorControl/MCSDK/MCLib/Any/Src/speed_pos_fdbk.c **** #elif defined (__CC_ARM) || defined(__GNUC__)
 109:MCSDK_v6.3.2-Full/MotorControl/MCSDK/MCLib/Any/Src/speed_pos_fdbk.c **** __attribute__((section(".ccmram")))
 110:MCSDK_v6.3.2-Full/MotorControl/MCSDK/MCLib/Any/Src/speed_pos_fdbk.c **** #endif
 111:MCSDK_v6.3.2-Full/MotorControl/MCSDK/MCLib/Any/Src/speed_pos_fdbk.c **** #endif
 112:MCSDK_v6.3.2-Full/MotorControl/MCSDK/MCLib/Any/Src/speed_pos_fdbk.c **** 
 113:MCSDK_v6.3.2-Full/MotorControl/MCSDK/MCLib/Any/Src/speed_pos_fdbk.c **** /**
 114:MCSDK_v6.3.2-Full/MotorControl/MCSDK/MCLib/Any/Src/speed_pos_fdbk.c ****   * @brief  Computes and returns through parameter @ref SpeednPosFdbk_Handle_t::pMecSpeedUnit "pMec
 115:MCSDK_v6.3.2-Full/MotorControl/MCSDK/MCLib/Any/Src/speed_pos_fdbk.c ****   *         the rotor average mechanical speed, expressed in the unit defined by
 116:MCSDK_v6.3.2-Full/MotorControl/MCSDK/MCLib/Any/Src/speed_pos_fdbk.c ****   *         @ref SpeednPosFdbk_Handle_t::SpeedUnit "SpeedUnit".
 117:MCSDK_v6.3.2-Full/MotorControl/MCSDK/MCLib/Any/Src/speed_pos_fdbk.c ****   * @param  pHandle: handler of the current instance of the SpeednPosFdbk component.
 118:MCSDK_v6.3.2-Full/MotorControl/MCSDK/MCLib/Any/Src/speed_pos_fdbk.c ****   * @param  pMecSpeedUnit: pointer to int16_t, used to return the rotor average
 119:MCSDK_v6.3.2-Full/MotorControl/MCSDK/MCLib/Any/Src/speed_pos_fdbk.c ****   *         mechanical speed (expressed in the unit defined by [SPEED_UNIT](measurement_units.md).
 120:MCSDK_v6.3.2-Full/MotorControl/MCSDK/MCLib/Any/Src/speed_pos_fdbk.c ****   * @retval none
 121:MCSDK_v6.3.2-Full/MotorControl/MCSDK/MCLib/Any/Src/speed_pos_fdbk.c ****   *
 122:MCSDK_v6.3.2-Full/MotorControl/MCSDK/MCLib/Any/Src/speed_pos_fdbk.c ****   * - Computes and returns the reliability state of the sensor. Reliability is measured with
 123:MCSDK_v6.3.2-Full/MotorControl/MCSDK/MCLib/Any/Src/speed_pos_fdbk.c ****   * reference to parameters @ref SpeednPosFdbk_Handle_t::hMinReliableMecSpeedUnit "hMinReliableMecS
 124:MCSDK_v6.3.2-Full/MotorControl/MCSDK/MCLib/Any/Src/speed_pos_fdbk.c ****   * @ref SpeednPosFdbk_Handle_t::hMaxReliableMecSpeedUnit "hMaxReliableMecSpeedUnit",
 125:MCSDK_v6.3.2-Full/MotorControl/MCSDK/MCLib/Any/Src/speed_pos_fdbk.c ****   * @ref SpeednPosFdbk_Handle_t::bMaximumSpeedErrorsNumber "bMaximumSpeedErrorsNumber"\n
 126:MCSDK_v6.3.2-Full/MotorControl/MCSDK/MCLib/Any/Src/speed_pos_fdbk.c ****   * -- true  = sensor information is reliable.\n
 127:MCSDK_v6.3.2-Full/MotorControl/MCSDK/MCLib/Any/Src/speed_pos_fdbk.c ****   * -- false = sensor information is not reliable.\n
 128:MCSDK_v6.3.2-Full/MotorControl/MCSDK/MCLib/Any/Src/speed_pos_fdbk.c ****   * - Called at least with the same periodicity on which speed control is executed.
 129:MCSDK_v6.3.2-Full/MotorControl/MCSDK/MCLib/Any/Src/speed_pos_fdbk.c ****   *         -
 130:MCSDK_v6.3.2-Full/MotorControl/MCSDK/MCLib/Any/Src/speed_pos_fdbk.c **** 
 131:MCSDK_v6.3.2-Full/MotorControl/MCSDK/MCLib/Any/Src/speed_pos_fdbk.c ****   */
 132:MCSDK_v6.3.2-Full/MotorControl/MCSDK/MCLib/Any/Src/speed_pos_fdbk.c **** __weak bool SPD_IsMecSpeedReliable(SpeednPosFdbk_Handle_t *pHandle, const int16_t *pMecSpeedUnit)
 133:MCSDK_v6.3.2-Full/MotorControl/MCSDK/MCLib/Any/Src/speed_pos_fdbk.c **** {
ARM GAS  /tmp/cc0KPVeN.s 			page 7


 220              		.loc 1 133 1
 221              		.cfi_startproc
 222              		@ args = 0, pretend = 0, frame = 24
 223              		@ frame_needed = 1, uses_anonymous_args = 0
 224              		@ link register save eliminated.
 225 0000 80B4     		push	{r7}
 226              	.LCFI18:
 227              		.cfi_def_cfa_offset 4
 228              		.cfi_offset 7, -4
 229 0002 87B0     		sub	sp, sp, #28
 230              	.LCFI19:
 231              		.cfi_def_cfa_offset 32
 232 0004 00AF     		add	r7, sp, #0
 233              	.LCFI20:
 234              		.cfi_def_cfa_register 7
 235 0006 7860     		str	r0, [r7, #4]
 236 0008 3960     		str	r1, [r7]
 134:MCSDK_v6.3.2-Full/MotorControl/MCSDK/MCLib/Any/Src/speed_pos_fdbk.c ****   bool SpeedSensorReliability = true;
 237              		.loc 1 134 8
 238 000a 0123     		movs	r3, #1
 239 000c FB75     		strb	r3, [r7, #23]
 135:MCSDK_v6.3.2-Full/MotorControl/MCSDK/MCLib/Any/Src/speed_pos_fdbk.c **** #ifdef NULL_PTR_CHECK_SPD_POS_FBK
 136:MCSDK_v6.3.2-Full/MotorControl/MCSDK/MCLib/Any/Src/speed_pos_fdbk.c ****   if ((MC_NULL == pHandle) || (MC_NULL == pMecSpeedUnit))
 137:MCSDK_v6.3.2-Full/MotorControl/MCSDK/MCLib/Any/Src/speed_pos_fdbk.c ****   {
 138:MCSDK_v6.3.2-Full/MotorControl/MCSDK/MCLib/Any/Src/speed_pos_fdbk.c ****     SpeedSensorReliability = false;
 139:MCSDK_v6.3.2-Full/MotorControl/MCSDK/MCLib/Any/Src/speed_pos_fdbk.c ****   }
 140:MCSDK_v6.3.2-Full/MotorControl/MCSDK/MCLib/Any/Src/speed_pos_fdbk.c ****   else
 141:MCSDK_v6.3.2-Full/MotorControl/MCSDK/MCLib/Any/Src/speed_pos_fdbk.c ****   {
 142:MCSDK_v6.3.2-Full/MotorControl/MCSDK/MCLib/Any/Src/speed_pos_fdbk.c **** #endif
 143:MCSDK_v6.3.2-Full/MotorControl/MCSDK/MCLib/Any/Src/speed_pos_fdbk.c ****     uint16_t hAbsMecSpeedUnit;
 144:MCSDK_v6.3.2-Full/MotorControl/MCSDK/MCLib/Any/Src/speed_pos_fdbk.c ****     uint16_t hAbsMecAccelUnitP;
 145:MCSDK_v6.3.2-Full/MotorControl/MCSDK/MCLib/Any/Src/speed_pos_fdbk.c ****     int16_t hAux;
 146:MCSDK_v6.3.2-Full/MotorControl/MCSDK/MCLib/Any/Src/speed_pos_fdbk.c ****     uint8_t bSpeedErrorNumber;
 147:MCSDK_v6.3.2-Full/MotorControl/MCSDK/MCLib/Any/Src/speed_pos_fdbk.c ****     uint8_t bMaximumSpeedErrorsNumber = pHandle->bMaximumSpeedErrorsNumber;
 240              		.loc 1 147 13
 241 000e 7B68     		ldr	r3, [r7, #4]
 242 0010 DB78     		ldrb	r3, [r3, #3]
 243 0012 FB73     		strb	r3, [r7, #15]
 148:MCSDK_v6.3.2-Full/MotorControl/MCSDK/MCLib/Any/Src/speed_pos_fdbk.c ****     bool SpeedError = false;
 244              		.loc 1 148 10
 245 0014 0023     		movs	r3, #0
 246 0016 3B74     		strb	r3, [r7, #16]
 149:MCSDK_v6.3.2-Full/MotorControl/MCSDK/MCLib/Any/Src/speed_pos_fdbk.c **** 
 150:MCSDK_v6.3.2-Full/MotorControl/MCSDK/MCLib/Any/Src/speed_pos_fdbk.c ****     bSpeedErrorNumber = pHandle->bSpeedErrorNumber;
 247              		.loc 1 150 23
 248 0018 7B68     		ldr	r3, [r7, #4]
 249 001a 1B78     		ldrb	r3, [r3]
 250 001c 7B74     		strb	r3, [r7, #17]
 151:MCSDK_v6.3.2-Full/MotorControl/MCSDK/MCLib/Any/Src/speed_pos_fdbk.c **** 
 152:MCSDK_v6.3.2-Full/MotorControl/MCSDK/MCLib/Any/Src/speed_pos_fdbk.c ****     /* Compute absoulte value of mechanical speed */
 153:MCSDK_v6.3.2-Full/MotorControl/MCSDK/MCLib/Any/Src/speed_pos_fdbk.c ****     if (*pMecSpeedUnit < 0)
 251              		.loc 1 153 9
 252 001e 3B68     		ldr	r3, [r7]
 253 0020 B3F90030 		ldrsh	r3, [r3]
 254              		.loc 1 153 8
 255 0024 002B     		cmp	r3, #0
 256 0026 09DA     		bge	.L8
ARM GAS  /tmp/cc0KPVeN.s 			page 8


 154:MCSDK_v6.3.2-Full/MotorControl/MCSDK/MCLib/Any/Src/speed_pos_fdbk.c ****     {
 155:MCSDK_v6.3.2-Full/MotorControl/MCSDK/MCLib/Any/Src/speed_pos_fdbk.c ****       hAux = -(*pMecSpeedUnit);
 257              		.loc 1 155 16
 258 0028 3B68     		ldr	r3, [r7]
 259 002a B3F90030 		ldrsh	r3, [r3]
 260 002e 9BB2     		uxth	r3, r3
 261              		.loc 1 155 12
 262 0030 5B42     		rsbs	r3, r3, #0
 263 0032 9BB2     		uxth	r3, r3
 264 0034 BB81     		strh	r3, [r7, #12]	@ movhi
 156:MCSDK_v6.3.2-Full/MotorControl/MCSDK/MCLib/Any/Src/speed_pos_fdbk.c ****       hAbsMecSpeedUnit = (uint16_t)hAux;
 265              		.loc 1 156 24
 266 0036 BB89     		ldrh	r3, [r7, #12]	@ movhi
 267 0038 BB82     		strh	r3, [r7, #20]	@ movhi
 268 003a 03E0     		b	.L9
 269              	.L8:
 157:MCSDK_v6.3.2-Full/MotorControl/MCSDK/MCLib/Any/Src/speed_pos_fdbk.c ****     }
 158:MCSDK_v6.3.2-Full/MotorControl/MCSDK/MCLib/Any/Src/speed_pos_fdbk.c ****     else
 159:MCSDK_v6.3.2-Full/MotorControl/MCSDK/MCLib/Any/Src/speed_pos_fdbk.c ****     {
 160:MCSDK_v6.3.2-Full/MotorControl/MCSDK/MCLib/Any/Src/speed_pos_fdbk.c ****       hAbsMecSpeedUnit = (uint16_t)(*pMecSpeedUnit);
 270              		.loc 1 160 37
 271 003c 3B68     		ldr	r3, [r7]
 272 003e B3F90030 		ldrsh	r3, [r3]
 273              		.loc 1 160 24
 274 0042 BB82     		strh	r3, [r7, #20]	@ movhi
 275              	.L9:
 161:MCSDK_v6.3.2-Full/MotorControl/MCSDK/MCLib/Any/Src/speed_pos_fdbk.c ****     }
 162:MCSDK_v6.3.2-Full/MotorControl/MCSDK/MCLib/Any/Src/speed_pos_fdbk.c **** 
 163:MCSDK_v6.3.2-Full/MotorControl/MCSDK/MCLib/Any/Src/speed_pos_fdbk.c ****     if (hAbsMecSpeedUnit > pHandle->hMaxReliableMecSpeedUnit)
 276              		.loc 1 163 35
 277 0044 7B68     		ldr	r3, [r7, #4]
 278 0046 9B8A     		ldrh	r3, [r3, #20]
 279              		.loc 1 163 8
 280 0048 BA8A     		ldrh	r2, [r7, #20]
 281 004a 9A42     		cmp	r2, r3
 282 004c 01D9     		bls	.L10
 164:MCSDK_v6.3.2-Full/MotorControl/MCSDK/MCLib/Any/Src/speed_pos_fdbk.c ****     {
 165:MCSDK_v6.3.2-Full/MotorControl/MCSDK/MCLib/Any/Src/speed_pos_fdbk.c ****       SpeedError = true;
 283              		.loc 1 165 18
 284 004e 0123     		movs	r3, #1
 285 0050 3B74     		strb	r3, [r7, #16]
 286              	.L10:
 166:MCSDK_v6.3.2-Full/MotorControl/MCSDK/MCLib/Any/Src/speed_pos_fdbk.c ****     }
 167:MCSDK_v6.3.2-Full/MotorControl/MCSDK/MCLib/Any/Src/speed_pos_fdbk.c ****     else
 168:MCSDK_v6.3.2-Full/MotorControl/MCSDK/MCLib/Any/Src/speed_pos_fdbk.c ****     {
 169:MCSDK_v6.3.2-Full/MotorControl/MCSDK/MCLib/Any/Src/speed_pos_fdbk.c ****       /* Nothing to do */
 170:MCSDK_v6.3.2-Full/MotorControl/MCSDK/MCLib/Any/Src/speed_pos_fdbk.c ****     }
 171:MCSDK_v6.3.2-Full/MotorControl/MCSDK/MCLib/Any/Src/speed_pos_fdbk.c **** 
 172:MCSDK_v6.3.2-Full/MotorControl/MCSDK/MCLib/Any/Src/speed_pos_fdbk.c ****     if (hAbsMecSpeedUnit < pHandle->hMinReliableMecSpeedUnit)
 287              		.loc 1 172 35
 288 0052 7B68     		ldr	r3, [r7, #4]
 289 0054 DB8A     		ldrh	r3, [r3, #22]
 290              		.loc 1 172 8
 291 0056 BA8A     		ldrh	r2, [r7, #20]
 292 0058 9A42     		cmp	r2, r3
 293 005a 01D2     		bcs	.L11
 173:MCSDK_v6.3.2-Full/MotorControl/MCSDK/MCLib/Any/Src/speed_pos_fdbk.c ****     {
ARM GAS  /tmp/cc0KPVeN.s 			page 9


 174:MCSDK_v6.3.2-Full/MotorControl/MCSDK/MCLib/Any/Src/speed_pos_fdbk.c ****       SpeedError = true;
 294              		.loc 1 174 18
 295 005c 0123     		movs	r3, #1
 296 005e 3B74     		strb	r3, [r7, #16]
 297              	.L11:
 175:MCSDK_v6.3.2-Full/MotorControl/MCSDK/MCLib/Any/Src/speed_pos_fdbk.c ****     }
 176:MCSDK_v6.3.2-Full/MotorControl/MCSDK/MCLib/Any/Src/speed_pos_fdbk.c ****     else
 177:MCSDK_v6.3.2-Full/MotorControl/MCSDK/MCLib/Any/Src/speed_pos_fdbk.c ****     {
 178:MCSDK_v6.3.2-Full/MotorControl/MCSDK/MCLib/Any/Src/speed_pos_fdbk.c ****       /* Nothing to do */
 179:MCSDK_v6.3.2-Full/MotorControl/MCSDK/MCLib/Any/Src/speed_pos_fdbk.c ****     }
 180:MCSDK_v6.3.2-Full/MotorControl/MCSDK/MCLib/Any/Src/speed_pos_fdbk.c **** 
 181:MCSDK_v6.3.2-Full/MotorControl/MCSDK/MCLib/Any/Src/speed_pos_fdbk.c ****     /* Compute absoulte value of mechanical acceleration */
 182:MCSDK_v6.3.2-Full/MotorControl/MCSDK/MCLib/Any/Src/speed_pos_fdbk.c ****     if (pHandle->hMecAccelUnitP < 0)
 298              		.loc 1 182 16
 299 0060 7B68     		ldr	r3, [r7, #4]
 300 0062 B3F91230 		ldrsh	r3, [r3, #18]
 301              		.loc 1 182 8
 302 0066 002B     		cmp	r3, #0
 303 0068 09DA     		bge	.L12
 183:MCSDK_v6.3.2-Full/MotorControl/MCSDK/MCLib/Any/Src/speed_pos_fdbk.c ****     {
 184:MCSDK_v6.3.2-Full/MotorControl/MCSDK/MCLib/Any/Src/speed_pos_fdbk.c ****       hAux = -(pHandle->hMecAccelUnitP);
 304              		.loc 1 184 23
 305 006a 7B68     		ldr	r3, [r7, #4]
 306 006c B3F91230 		ldrsh	r3, [r3, #18]
 307 0070 9BB2     		uxth	r3, r3
 308              		.loc 1 184 12
 309 0072 5B42     		rsbs	r3, r3, #0
 310 0074 9BB2     		uxth	r3, r3
 311 0076 BB81     		strh	r3, [r7, #12]	@ movhi
 185:MCSDK_v6.3.2-Full/MotorControl/MCSDK/MCLib/Any/Src/speed_pos_fdbk.c ****       hAbsMecAccelUnitP = (uint16_t)hAux;
 312              		.loc 1 185 25
 313 0078 BB89     		ldrh	r3, [r7, #12]	@ movhi
 314 007a 7B82     		strh	r3, [r7, #18]	@ movhi
 315 007c 03E0     		b	.L13
 316              	.L12:
 186:MCSDK_v6.3.2-Full/MotorControl/MCSDK/MCLib/Any/Src/speed_pos_fdbk.c ****     }
 187:MCSDK_v6.3.2-Full/MotorControl/MCSDK/MCLib/Any/Src/speed_pos_fdbk.c ****     else
 188:MCSDK_v6.3.2-Full/MotorControl/MCSDK/MCLib/Any/Src/speed_pos_fdbk.c ****     {
 189:MCSDK_v6.3.2-Full/MotorControl/MCSDK/MCLib/Any/Src/speed_pos_fdbk.c ****       hAbsMecAccelUnitP = (uint16_t)pHandle->hMecAccelUnitP;
 317              		.loc 1 189 44
 318 007e 7B68     		ldr	r3, [r7, #4]
 319 0080 B3F91230 		ldrsh	r3, [r3, #18]
 320              		.loc 1 189 25
 321 0084 7B82     		strh	r3, [r7, #18]	@ movhi
 322              	.L13:
 190:MCSDK_v6.3.2-Full/MotorControl/MCSDK/MCLib/Any/Src/speed_pos_fdbk.c ****     }
 191:MCSDK_v6.3.2-Full/MotorControl/MCSDK/MCLib/Any/Src/speed_pos_fdbk.c **** 
 192:MCSDK_v6.3.2-Full/MotorControl/MCSDK/MCLib/Any/Src/speed_pos_fdbk.c ****     if (hAbsMecAccelUnitP > pHandle->hMaxReliableMecAccelUnitP)
 323              		.loc 1 192 36
 324 0086 7B68     		ldr	r3, [r7, #4]
 325 0088 1B8B     		ldrh	r3, [r3, #24]
 326              		.loc 1 192 8
 327 008a 7A8A     		ldrh	r2, [r7, #18]
 328 008c 9A42     		cmp	r2, r3
 329 008e 01D9     		bls	.L14
 193:MCSDK_v6.3.2-Full/MotorControl/MCSDK/MCLib/Any/Src/speed_pos_fdbk.c ****     {
 194:MCSDK_v6.3.2-Full/MotorControl/MCSDK/MCLib/Any/Src/speed_pos_fdbk.c ****       SpeedError = true;
ARM GAS  /tmp/cc0KPVeN.s 			page 10


 330              		.loc 1 194 18
 331 0090 0123     		movs	r3, #1
 332 0092 3B74     		strb	r3, [r7, #16]
 333              	.L14:
 195:MCSDK_v6.3.2-Full/MotorControl/MCSDK/MCLib/Any/Src/speed_pos_fdbk.c ****     }
 196:MCSDK_v6.3.2-Full/MotorControl/MCSDK/MCLib/Any/Src/speed_pos_fdbk.c ****     else
 197:MCSDK_v6.3.2-Full/MotorControl/MCSDK/MCLib/Any/Src/speed_pos_fdbk.c ****     {
 198:MCSDK_v6.3.2-Full/MotorControl/MCSDK/MCLib/Any/Src/speed_pos_fdbk.c ****       /* Nothing to do */
 199:MCSDK_v6.3.2-Full/MotorControl/MCSDK/MCLib/Any/Src/speed_pos_fdbk.c ****     }
 200:MCSDK_v6.3.2-Full/MotorControl/MCSDK/MCLib/Any/Src/speed_pos_fdbk.c **** 
 201:MCSDK_v6.3.2-Full/MotorControl/MCSDK/MCLib/Any/Src/speed_pos_fdbk.c ****     if (true == SpeedError)
 334              		.loc 1 201 8
 335 0094 3B7C     		ldrb	r3, [r7, #16]	@ zero_extendqisi2
 336 0096 002B     		cmp	r3, #0
 337 0098 07D0     		beq	.L15
 202:MCSDK_v6.3.2-Full/MotorControl/MCSDK/MCLib/Any/Src/speed_pos_fdbk.c ****     {
 203:MCSDK_v6.3.2-Full/MotorControl/MCSDK/MCLib/Any/Src/speed_pos_fdbk.c ****       if (bSpeedErrorNumber < bMaximumSpeedErrorsNumber)
 338              		.loc 1 203 10
 339 009a 7A7C     		ldrb	r2, [r7, #17]	@ zero_extendqisi2
 340 009c FB7B     		ldrb	r3, [r7, #15]	@ zero_extendqisi2
 341 009e 9A42     		cmp	r2, r3
 342 00a0 09D2     		bcs	.L16
 204:MCSDK_v6.3.2-Full/MotorControl/MCSDK/MCLib/Any/Src/speed_pos_fdbk.c ****       {
 205:MCSDK_v6.3.2-Full/MotorControl/MCSDK/MCLib/Any/Src/speed_pos_fdbk.c ****         bSpeedErrorNumber++;
 343              		.loc 1 205 26
 344 00a2 7B7C     		ldrb	r3, [r7, #17]	@ zero_extendqisi2
 345 00a4 0133     		adds	r3, r3, #1
 346 00a6 7B74     		strb	r3, [r7, #17]
 347 00a8 05E0     		b	.L16
 348              	.L15:
 206:MCSDK_v6.3.2-Full/MotorControl/MCSDK/MCLib/Any/Src/speed_pos_fdbk.c ****       }
 207:MCSDK_v6.3.2-Full/MotorControl/MCSDK/MCLib/Any/Src/speed_pos_fdbk.c ****       else
 208:MCSDK_v6.3.2-Full/MotorControl/MCSDK/MCLib/Any/Src/speed_pos_fdbk.c ****       {
 209:MCSDK_v6.3.2-Full/MotorControl/MCSDK/MCLib/Any/Src/speed_pos_fdbk.c ****         /* Nothing to do */
 210:MCSDK_v6.3.2-Full/MotorControl/MCSDK/MCLib/Any/Src/speed_pos_fdbk.c ****       }
 211:MCSDK_v6.3.2-Full/MotorControl/MCSDK/MCLib/Any/Src/speed_pos_fdbk.c ****     }
 212:MCSDK_v6.3.2-Full/MotorControl/MCSDK/MCLib/Any/Src/speed_pos_fdbk.c ****     else
 213:MCSDK_v6.3.2-Full/MotorControl/MCSDK/MCLib/Any/Src/speed_pos_fdbk.c ****     {
 214:MCSDK_v6.3.2-Full/MotorControl/MCSDK/MCLib/Any/Src/speed_pos_fdbk.c ****       if (bSpeedErrorNumber < bMaximumSpeedErrorsNumber)
 349              		.loc 1 214 10
 350 00aa 7A7C     		ldrb	r2, [r7, #17]	@ zero_extendqisi2
 351 00ac FB7B     		ldrb	r3, [r7, #15]	@ zero_extendqisi2
 352 00ae 9A42     		cmp	r2, r3
 353 00b0 01D2     		bcs	.L16
 215:MCSDK_v6.3.2-Full/MotorControl/MCSDK/MCLib/Any/Src/speed_pos_fdbk.c ****       {
 216:MCSDK_v6.3.2-Full/MotorControl/MCSDK/MCLib/Any/Src/speed_pos_fdbk.c ****         bSpeedErrorNumber = 0u;
 354              		.loc 1 216 27
 355 00b2 0023     		movs	r3, #0
 356 00b4 7B74     		strb	r3, [r7, #17]
 357              	.L16:
 217:MCSDK_v6.3.2-Full/MotorControl/MCSDK/MCLib/Any/Src/speed_pos_fdbk.c ****       }
 218:MCSDK_v6.3.2-Full/MotorControl/MCSDK/MCLib/Any/Src/speed_pos_fdbk.c ****       else
 219:MCSDK_v6.3.2-Full/MotorControl/MCSDK/MCLib/Any/Src/speed_pos_fdbk.c ****       {
 220:MCSDK_v6.3.2-Full/MotorControl/MCSDK/MCLib/Any/Src/speed_pos_fdbk.c ****         /* Nothing to do */
 221:MCSDK_v6.3.2-Full/MotorControl/MCSDK/MCLib/Any/Src/speed_pos_fdbk.c ****       }
 222:MCSDK_v6.3.2-Full/MotorControl/MCSDK/MCLib/Any/Src/speed_pos_fdbk.c ****     }
 223:MCSDK_v6.3.2-Full/MotorControl/MCSDK/MCLib/Any/Src/speed_pos_fdbk.c **** 
ARM GAS  /tmp/cc0KPVeN.s 			page 11


 224:MCSDK_v6.3.2-Full/MotorControl/MCSDK/MCLib/Any/Src/speed_pos_fdbk.c ****     if (bSpeedErrorNumber == bMaximumSpeedErrorsNumber)
 358              		.loc 1 224 8
 359 00b6 7A7C     		ldrb	r2, [r7, #17]	@ zero_extendqisi2
 360 00b8 FB7B     		ldrb	r3, [r7, #15]	@ zero_extendqisi2
 361 00ba 9A42     		cmp	r2, r3
 362 00bc 01D1     		bne	.L17
 225:MCSDK_v6.3.2-Full/MotorControl/MCSDK/MCLib/Any/Src/speed_pos_fdbk.c ****     {
 226:MCSDK_v6.3.2-Full/MotorControl/MCSDK/MCLib/Any/Src/speed_pos_fdbk.c ****       SpeedSensorReliability = false;
 363              		.loc 1 226 30
 364 00be 0023     		movs	r3, #0
 365 00c0 FB75     		strb	r3, [r7, #23]
 366              	.L17:
 227:MCSDK_v6.3.2-Full/MotorControl/MCSDK/MCLib/Any/Src/speed_pos_fdbk.c ****     }
 228:MCSDK_v6.3.2-Full/MotorControl/MCSDK/MCLib/Any/Src/speed_pos_fdbk.c ****     else
 229:MCSDK_v6.3.2-Full/MotorControl/MCSDK/MCLib/Any/Src/speed_pos_fdbk.c ****     {
 230:MCSDK_v6.3.2-Full/MotorControl/MCSDK/MCLib/Any/Src/speed_pos_fdbk.c ****       /* Nothing to do */
 231:MCSDK_v6.3.2-Full/MotorControl/MCSDK/MCLib/Any/Src/speed_pos_fdbk.c ****     }
 232:MCSDK_v6.3.2-Full/MotorControl/MCSDK/MCLib/Any/Src/speed_pos_fdbk.c **** 
 233:MCSDK_v6.3.2-Full/MotorControl/MCSDK/MCLib/Any/Src/speed_pos_fdbk.c ****     pHandle->bSpeedErrorNumber = bSpeedErrorNumber;
 367              		.loc 1 233 32
 368 00c2 7B68     		ldr	r3, [r7, #4]
 369 00c4 7A7C     		ldrb	r2, [r7, #17]
 370 00c6 1A70     		strb	r2, [r3]
 234:MCSDK_v6.3.2-Full/MotorControl/MCSDK/MCLib/Any/Src/speed_pos_fdbk.c **** #ifdef NULL_PTR_CHECK_SPD_POS_FBK
 235:MCSDK_v6.3.2-Full/MotorControl/MCSDK/MCLib/Any/Src/speed_pos_fdbk.c ****   }
 236:MCSDK_v6.3.2-Full/MotorControl/MCSDK/MCLib/Any/Src/speed_pos_fdbk.c **** #endif
 237:MCSDK_v6.3.2-Full/MotorControl/MCSDK/MCLib/Any/Src/speed_pos_fdbk.c ****   return (SpeedSensorReliability);
 371              		.loc 1 237 10
 372 00c8 FB7D     		ldrb	r3, [r7, #23]	@ zero_extendqisi2
 238:MCSDK_v6.3.2-Full/MotorControl/MCSDK/MCLib/Any/Src/speed_pos_fdbk.c **** }
 373              		.loc 1 238 1
 374 00ca 1846     		mov	r0, r3
 375 00cc 1C37     		adds	r7, r7, #28
 376              	.LCFI21:
 377              		.cfi_def_cfa_offset 4
 378 00ce BD46     		mov	sp, r7
 379              	.LCFI22:
 380              		.cfi_def_cfa_register 13
 381              		@ sp needed
 382 00d0 5DF8047B 		ldr	r7, [sp], #4
 383              	.LCFI23:
 384              		.cfi_restore 7
 385              		.cfi_def_cfa_offset 0
 386 00d4 7047     		bx	lr
 387              		.cfi_endproc
 388              	.LFE1441:
 390              		.section	.text.SPD_GetS16Speed,"ax",%progbits
 391              		.align	1
 392              		.weak	SPD_GetS16Speed
 393              		.syntax unified
 394              		.thumb
 395              		.thumb_func
 396              		.fpu fpv4-sp-d16
 398              	SPD_GetS16Speed:
 399              	.LFB1442:
 239:MCSDK_v6.3.2-Full/MotorControl/MCSDK/MCLib/Any/Src/speed_pos_fdbk.c **** 
 240:MCSDK_v6.3.2-Full/MotorControl/MCSDK/MCLib/Any/Src/speed_pos_fdbk.c **** /**
ARM GAS  /tmp/cc0KPVeN.s 			page 12


 241:MCSDK_v6.3.2-Full/MotorControl/MCSDK/MCLib/Any/Src/speed_pos_fdbk.c ****   * @brief  Returns the average mechanical rotor speed expressed in [S16Speed](measurement_units.md
 242:MCSDK_v6.3.2-Full/MotorControl/MCSDK/MCLib/Any/Src/speed_pos_fdbk.c ****   * @param  pHandle: handler of the current instance of the SpeednPosFdbk component
 243:MCSDK_v6.3.2-Full/MotorControl/MCSDK/MCLib/Any/Src/speed_pos_fdbk.c ****   * @retval int16_t The average mechanical rotor speed.
 244:MCSDK_v6.3.2-Full/MotorControl/MCSDK/MCLib/Any/Src/speed_pos_fdbk.c ****   *
 245:MCSDK_v6.3.2-Full/MotorControl/MCSDK/MCLib/Any/Src/speed_pos_fdbk.c ****   * - The value equals:\n
 246:MCSDK_v6.3.2-Full/MotorControl/MCSDK/MCLib/Any/Src/speed_pos_fdbk.c ****   * -- zero      when the average mechanical speed is equal zero,\n
 247:MCSDK_v6.3.2-Full/MotorControl/MCSDK/MCLib/Any/Src/speed_pos_fdbk.c ****   * -- INT16_MAX when the average mechanical speed is equal to
 248:MCSDK_v6.3.2-Full/MotorControl/MCSDK/MCLib/Any/Src/speed_pos_fdbk.c ****   * @ref SpeednPosFdbk_Handle_t::hMaxReliableMecSpeedUnit "hMaxReliableMecSpeedUnit" ,\n
 249:MCSDK_v6.3.2-Full/MotorControl/MCSDK/MCLib/Any/Src/speed_pos_fdbk.c ****   * - Called for speed monitoring through MotorPilote.
 250:MCSDK_v6.3.2-Full/MotorControl/MCSDK/MCLib/Any/Src/speed_pos_fdbk.c ****   */
 251:MCSDK_v6.3.2-Full/MotorControl/MCSDK/MCLib/Any/Src/speed_pos_fdbk.c **** __weak int16_t SPD_GetS16Speed(const SpeednPosFdbk_Handle_t *pHandle)
 252:MCSDK_v6.3.2-Full/MotorControl/MCSDK/MCLib/Any/Src/speed_pos_fdbk.c **** {
 400              		.loc 1 252 1
 401              		.cfi_startproc
 402              		@ args = 0, pretend = 0, frame = 16
 403              		@ frame_needed = 1, uses_anonymous_args = 0
 404              		@ link register save eliminated.
 405 0000 80B4     		push	{r7}
 406              	.LCFI24:
 407              		.cfi_def_cfa_offset 4
 408              		.cfi_offset 7, -4
 409 0002 85B0     		sub	sp, sp, #20
 410              	.LCFI25:
 411              		.cfi_def_cfa_offset 24
 412 0004 00AF     		add	r7, sp, #0
 413              	.LCFI26:
 414              		.cfi_def_cfa_register 7
 415 0006 7860     		str	r0, [r7, #4]
 253:MCSDK_v6.3.2-Full/MotorControl/MCSDK/MCLib/Any/Src/speed_pos_fdbk.c ****   int16_t tempValue;
 254:MCSDK_v6.3.2-Full/MotorControl/MCSDK/MCLib/Any/Src/speed_pos_fdbk.c **** #ifdef NULL_PTR_CHECK_SPD_POS_FBK
 255:MCSDK_v6.3.2-Full/MotorControl/MCSDK/MCLib/Any/Src/speed_pos_fdbk.c ****   if (MC_NULL == pHandle)
 256:MCSDK_v6.3.2-Full/MotorControl/MCSDK/MCLib/Any/Src/speed_pos_fdbk.c ****   {
 257:MCSDK_v6.3.2-Full/MotorControl/MCSDK/MCLib/Any/Src/speed_pos_fdbk.c ****     tempValue = 0;
 258:MCSDK_v6.3.2-Full/MotorControl/MCSDK/MCLib/Any/Src/speed_pos_fdbk.c ****   }
 259:MCSDK_v6.3.2-Full/MotorControl/MCSDK/MCLib/Any/Src/speed_pos_fdbk.c ****   else
 260:MCSDK_v6.3.2-Full/MotorControl/MCSDK/MCLib/Any/Src/speed_pos_fdbk.c ****   {
 261:MCSDK_v6.3.2-Full/MotorControl/MCSDK/MCLib/Any/Src/speed_pos_fdbk.c **** #endif
 262:MCSDK_v6.3.2-Full/MotorControl/MCSDK/MCLib/Any/Src/speed_pos_fdbk.c ****     int32_t wAux = (int32_t)pHandle->hAvrMecSpeedUnit;
 416              		.loc 1 262 36
 417 0008 7B68     		ldr	r3, [r7, #4]
 418 000a B3F90C30 		ldrsh	r3, [r3, #12]
 419              		.loc 1 262 13
 420 000e FB60     		str	r3, [r7, #12]
 263:MCSDK_v6.3.2-Full/MotorControl/MCSDK/MCLib/Any/Src/speed_pos_fdbk.c ****     wAux *= INT16_MAX;
 421              		.loc 1 263 10
 422 0010 FA68     		ldr	r2, [r7, #12]
 423 0012 1346     		mov	r3, r2
 424 0014 DB03     		lsls	r3, r3, #15
 425 0016 9B1A     		subs	r3, r3, r2
 426 0018 FB60     		str	r3, [r7, #12]
 264:MCSDK_v6.3.2-Full/MotorControl/MCSDK/MCLib/Any/Src/speed_pos_fdbk.c ****     wAux /= (int16_t)pHandle->hMaxReliableMecSpeedUnit;
 427              		.loc 1 264 29
 428 001a 7B68     		ldr	r3, [r7, #4]
 429 001c 9B8A     		ldrh	r3, [r3, #20]
 430              		.loc 1 264 13
 431 001e 1BB2     		sxth	r3, r3
 432 0020 1A46     		mov	r2, r3
ARM GAS  /tmp/cc0KPVeN.s 			page 13


 433              		.loc 1 264 10
 434 0022 FB68     		ldr	r3, [r7, #12]
 435 0024 93FBF2F3 		sdiv	r3, r3, r2
 436 0028 FB60     		str	r3, [r7, #12]
 265:MCSDK_v6.3.2-Full/MotorControl/MCSDK/MCLib/Any/Src/speed_pos_fdbk.c ****     tempValue = (int16_t)wAux;
 437              		.loc 1 265 15
 438 002a FB68     		ldr	r3, [r7, #12]
 439 002c 7B81     		strh	r3, [r7, #10]	@ movhi
 266:MCSDK_v6.3.2-Full/MotorControl/MCSDK/MCLib/Any/Src/speed_pos_fdbk.c **** #ifdef NULL_PTR_CHECK_SPD_POS_FBK
 267:MCSDK_v6.3.2-Full/MotorControl/MCSDK/MCLib/Any/Src/speed_pos_fdbk.c ****   }
 268:MCSDK_v6.3.2-Full/MotorControl/MCSDK/MCLib/Any/Src/speed_pos_fdbk.c **** #endif
 269:MCSDK_v6.3.2-Full/MotorControl/MCSDK/MCLib/Any/Src/speed_pos_fdbk.c ****   return (tempValue);
 440              		.loc 1 269 10
 441 002e B7F90A30 		ldrsh	r3, [r7, #10]
 270:MCSDK_v6.3.2-Full/MotorControl/MCSDK/MCLib/Any/Src/speed_pos_fdbk.c **** }
 442              		.loc 1 270 1
 443 0032 1846     		mov	r0, r3
 444 0034 1437     		adds	r7, r7, #20
 445              	.LCFI27:
 446              		.cfi_def_cfa_offset 4
 447 0036 BD46     		mov	sp, r7
 448              	.LCFI28:
 449              		.cfi_def_cfa_register 13
 450              		@ sp needed
 451 0038 5DF8047B 		ldr	r7, [sp], #4
 452              	.LCFI29:
 453              		.cfi_restore 7
 454              		.cfi_def_cfa_offset 0
 455 003c 7047     		bx	lr
 456              		.cfi_endproc
 457              	.LFE1442:
 459              		.section	.text.SPD_GetElToMecRatio,"ax",%progbits
 460              		.align	1
 461              		.weak	SPD_GetElToMecRatio
 462              		.syntax unified
 463              		.thumb
 464              		.thumb_func
 465              		.fpu fpv4-sp-d16
 467              	SPD_GetElToMecRatio:
 468              	.LFB1443:
 271:MCSDK_v6.3.2-Full/MotorControl/MCSDK/MCLib/Any/Src/speed_pos_fdbk.c **** 
 272:MCSDK_v6.3.2-Full/MotorControl/MCSDK/MCLib/Any/Src/speed_pos_fdbk.c **** /**
 273:MCSDK_v6.3.2-Full/MotorControl/MCSDK/MCLib/Any/Src/speed_pos_fdbk.c ****   * @brief  Returns the coefficient used to transform electrical to
 274:MCSDK_v6.3.2-Full/MotorControl/MCSDK/MCLib/Any/Src/speed_pos_fdbk.c ****   *         mechanical quantities and viceversa. It usually coincides with motor
 275:MCSDK_v6.3.2-Full/MotorControl/MCSDK/MCLib/Any/Src/speed_pos_fdbk.c ****   *         pole pairs number.
 276:MCSDK_v6.3.2-Full/MotorControl/MCSDK/MCLib/Any/Src/speed_pos_fdbk.c ****   * @param  pHandle: handler of the current instance of the SpeednPosFdbk component.
 277:MCSDK_v6.3.2-Full/MotorControl/MCSDK/MCLib/Any/Src/speed_pos_fdbk.c ****   * @retval uint8_t The motor pole pairs number.
 278:MCSDK_v6.3.2-Full/MotorControl/MCSDK/MCLib/Any/Src/speed_pos_fdbk.c ****   *
 279:MCSDK_v6.3.2-Full/MotorControl/MCSDK/MCLib/Any/Src/speed_pos_fdbk.c ****   * - Called by motor profiling functions and for monitoring through motorPilote.
 280:MCSDK_v6.3.2-Full/MotorControl/MCSDK/MCLib/Any/Src/speed_pos_fdbk.c ****   */
 281:MCSDK_v6.3.2-Full/MotorControl/MCSDK/MCLib/Any/Src/speed_pos_fdbk.c **** __weak uint8_t SPD_GetElToMecRatio(const SpeednPosFdbk_Handle_t *pHandle)
 282:MCSDK_v6.3.2-Full/MotorControl/MCSDK/MCLib/Any/Src/speed_pos_fdbk.c **** {
 469              		.loc 1 282 1
 470              		.cfi_startproc
 471              		@ args = 0, pretend = 0, frame = 8
 472              		@ frame_needed = 1, uses_anonymous_args = 0
 473              		@ link register save eliminated.
ARM GAS  /tmp/cc0KPVeN.s 			page 14


 474 0000 80B4     		push	{r7}
 475              	.LCFI30:
 476              		.cfi_def_cfa_offset 4
 477              		.cfi_offset 7, -4
 478 0002 83B0     		sub	sp, sp, #12
 479              	.LCFI31:
 480              		.cfi_def_cfa_offset 16
 481 0004 00AF     		add	r7, sp, #0
 482              	.LCFI32:
 483              		.cfi_def_cfa_register 7
 484 0006 7860     		str	r0, [r7, #4]
 283:MCSDK_v6.3.2-Full/MotorControl/MCSDK/MCLib/Any/Src/speed_pos_fdbk.c **** #ifdef NULL_PTR_CHECK_SPD_POS_FBK
 284:MCSDK_v6.3.2-Full/MotorControl/MCSDK/MCLib/Any/Src/speed_pos_fdbk.c ****   return ((MC_NULL == pHandle) ? 0U : pHandle->bElToMecRatio);
 285:MCSDK_v6.3.2-Full/MotorControl/MCSDK/MCLib/Any/Src/speed_pos_fdbk.c **** #else
 286:MCSDK_v6.3.2-Full/MotorControl/MCSDK/MCLib/Any/Src/speed_pos_fdbk.c ****   return (pHandle->bElToMecRatio);
 485              		.loc 1 286 18
 486 0008 7B68     		ldr	r3, [r7, #4]
 487 000a 5B78     		ldrb	r3, [r3, #1]	@ zero_extendqisi2
 287:MCSDK_v6.3.2-Full/MotorControl/MCSDK/MCLib/Any/Src/speed_pos_fdbk.c **** #endif
 288:MCSDK_v6.3.2-Full/MotorControl/MCSDK/MCLib/Any/Src/speed_pos_fdbk.c **** }
 488              		.loc 1 288 1
 489 000c 1846     		mov	r0, r3
 490 000e 0C37     		adds	r7, r7, #12
 491              	.LCFI33:
 492              		.cfi_def_cfa_offset 4
 493 0010 BD46     		mov	sp, r7
 494              	.LCFI34:
 495              		.cfi_def_cfa_register 13
 496              		@ sp needed
 497 0012 5DF8047B 		ldr	r7, [sp], #4
 498              	.LCFI35:
 499              		.cfi_restore 7
 500              		.cfi_def_cfa_offset 0
 501 0016 7047     		bx	lr
 502              		.cfi_endproc
 503              	.LFE1443:
 505              		.section	.text.SPD_SetElToMecRatio,"ax",%progbits
 506              		.align	1
 507              		.weak	SPD_SetElToMecRatio
 508              		.syntax unified
 509              		.thumb
 510              		.thumb_func
 511              		.fpu fpv4-sp-d16
 513              	SPD_SetElToMecRatio:
 514              	.LFB1444:
 289:MCSDK_v6.3.2-Full/MotorControl/MCSDK/MCLib/Any/Src/speed_pos_fdbk.c **** 
 290:MCSDK_v6.3.2-Full/MotorControl/MCSDK/MCLib/Any/Src/speed_pos_fdbk.c **** /**
 291:MCSDK_v6.3.2-Full/MotorControl/MCSDK/MCLib/Any/Src/speed_pos_fdbk.c ****   * @brief  Sets the coefficient used to transform electrical to
 292:MCSDK_v6.3.2-Full/MotorControl/MCSDK/MCLib/Any/Src/speed_pos_fdbk.c ****   *         mechanical quantities and viceversa. It usually coincides with motor
 293:MCSDK_v6.3.2-Full/MotorControl/MCSDK/MCLib/Any/Src/speed_pos_fdbk.c ****   *         pole pairs number.
 294:MCSDK_v6.3.2-Full/MotorControl/MCSDK/MCLib/Any/Src/speed_pos_fdbk.c ****   * @param  pHandle: handler of the current instance of the SpeednPosFdbk component.
 295:MCSDK_v6.3.2-Full/MotorControl/MCSDK/MCLib/Any/Src/speed_pos_fdbk.c ****   * @param  bPP The motor pole pairs number to be set.
 296:MCSDK_v6.3.2-Full/MotorControl/MCSDK/MCLib/Any/Src/speed_pos_fdbk.c ****   *
 297:MCSDK_v6.3.2-Full/MotorControl/MCSDK/MCLib/Any/Src/speed_pos_fdbk.c ****   * - Called only for monitoring through motorPilote.
 298:MCSDK_v6.3.2-Full/MotorControl/MCSDK/MCLib/Any/Src/speed_pos_fdbk.c ****   */
 299:MCSDK_v6.3.2-Full/MotorControl/MCSDK/MCLib/Any/Src/speed_pos_fdbk.c **** __weak void SPD_SetElToMecRatio(SpeednPosFdbk_Handle_t *pHandle, uint8_t bPP)
 300:MCSDK_v6.3.2-Full/MotorControl/MCSDK/MCLib/Any/Src/speed_pos_fdbk.c **** {
ARM GAS  /tmp/cc0KPVeN.s 			page 15


 515              		.loc 1 300 1
 516              		.cfi_startproc
 517              		@ args = 0, pretend = 0, frame = 8
 518              		@ frame_needed = 1, uses_anonymous_args = 0
 519              		@ link register save eliminated.
 520 0000 80B4     		push	{r7}
 521              	.LCFI36:
 522              		.cfi_def_cfa_offset 4
 523              		.cfi_offset 7, -4
 524 0002 83B0     		sub	sp, sp, #12
 525              	.LCFI37:
 526              		.cfi_def_cfa_offset 16
 527 0004 00AF     		add	r7, sp, #0
 528              	.LCFI38:
 529              		.cfi_def_cfa_register 7
 530 0006 7860     		str	r0, [r7, #4]
 531 0008 0B46     		mov	r3, r1
 532 000a FB70     		strb	r3, [r7, #3]
 301:MCSDK_v6.3.2-Full/MotorControl/MCSDK/MCLib/Any/Src/speed_pos_fdbk.c **** #ifdef NULL_PTR_CHECK_SPD_POS_FBK
 302:MCSDK_v6.3.2-Full/MotorControl/MCSDK/MCLib/Any/Src/speed_pos_fdbk.c ****   if (MC_NULL == pHandle)
 303:MCSDK_v6.3.2-Full/MotorControl/MCSDK/MCLib/Any/Src/speed_pos_fdbk.c ****   {
 304:MCSDK_v6.3.2-Full/MotorControl/MCSDK/MCLib/Any/Src/speed_pos_fdbk.c ****     /* Nothing to do */
 305:MCSDK_v6.3.2-Full/MotorControl/MCSDK/MCLib/Any/Src/speed_pos_fdbk.c ****   }
 306:MCSDK_v6.3.2-Full/MotorControl/MCSDK/MCLib/Any/Src/speed_pos_fdbk.c ****   else
 307:MCSDK_v6.3.2-Full/MotorControl/MCSDK/MCLib/Any/Src/speed_pos_fdbk.c ****   {
 308:MCSDK_v6.3.2-Full/MotorControl/MCSDK/MCLib/Any/Src/speed_pos_fdbk.c **** #endif
 309:MCSDK_v6.3.2-Full/MotorControl/MCSDK/MCLib/Any/Src/speed_pos_fdbk.c ****     pHandle->bElToMecRatio = bPP;
 533              		.loc 1 309 28
 534 000c 7B68     		ldr	r3, [r7, #4]
 535 000e FA78     		ldrb	r2, [r7, #3]
 536 0010 5A70     		strb	r2, [r3, #1]
 310:MCSDK_v6.3.2-Full/MotorControl/MCSDK/MCLib/Any/Src/speed_pos_fdbk.c **** #ifdef NULL_PTR_CHECK_SPD_POS_FBK
 311:MCSDK_v6.3.2-Full/MotorControl/MCSDK/MCLib/Any/Src/speed_pos_fdbk.c ****   }
 312:MCSDK_v6.3.2-Full/MotorControl/MCSDK/MCLib/Any/Src/speed_pos_fdbk.c **** #endif
 313:MCSDK_v6.3.2-Full/MotorControl/MCSDK/MCLib/Any/Src/speed_pos_fdbk.c **** }
 537              		.loc 1 313 1
 538 0012 00BF     		nop
 539 0014 0C37     		adds	r7, r7, #12
 540              	.LCFI39:
 541              		.cfi_def_cfa_offset 4
 542 0016 BD46     		mov	sp, r7
 543              	.LCFI40:
 544              		.cfi_def_cfa_register 13
 545              		@ sp needed
 546 0018 5DF8047B 		ldr	r7, [sp], #4
 547              	.LCFI41:
 548              		.cfi_restore 7
 549              		.cfi_def_cfa_offset 0
 550 001c 7047     		bx	lr
 551              		.cfi_endproc
 552              	.LFE1444:
 554              		.text
 555              	.Letext0:
 556              		.file 2 "/usr/share/gcc-arm-none-eabi-10-2020-q4-major/arm-none-eabi/include/machine/_default_type
 557              		.file 3 "/usr/share/gcc-arm-none-eabi-10-2020-q4-major/arm-none-eabi/include/sys/_stdint.h"
 558              		.file 4 "Drivers/STM32G4xx_HAL_Driver/Inc/stm32g4xx_ll_tim.h"
 559              		.file 5 "Drivers/STM32G4xx_HAL_Driver/Inc/stm32g4xx_ll_usart.h"
ARM GAS  /tmp/cc0KPVeN.s 			page 16


 560              		.file 6 "Drivers/STM32G4xx_HAL_Driver/Inc/stm32g4xx_ll_dma.h"
 561              		.file 7 "MCSDK_v6.3.2-Full/MotorControl/MCSDK/MCLib/Any/Inc/speed_pos_fdbk.h"
ARM GAS  /tmp/cc0KPVeN.s 			page 17

