ARM GAS  /tmp/cc9n8VrH.s 			page 1


   1              		.cpu cortex-m4
   2              		.eabi_attribute 27, 1
   3              		.eabi_attribute 28, 1
   4              		.eabi_attribute 20, 1
   5              		.eabi_attribute 21, 1
   6              		.eabi_attribute 23, 3
   7              		.eabi_attribute 24, 1
   8              		.eabi_attribute 25, 1
   9              		.eabi_attribute 26, 1
  10              		.eabi_attribute 30, 6
  11              		.eabi_attribute 34, 1
  12              		.eabi_attribute 18, 2
  13              		.file	"stm32g4xx_ll_usart.c"
  14              		.text
  15              	.Ltext0:
  16              		.cfi_sections	.debug_frame
  17              		.section	.rodata.USART_PRESCALER_TAB,"a"
  18              		.align	2
  21              	USART_PRESCALER_TAB:
  22 0000 01000000 		.word	1
  23 0004 02000000 		.word	2
  24 0008 04000000 		.word	4
  25 000c 06000000 		.word	6
  26 0010 08000000 		.word	8
  27 0014 0A000000 		.word	10
  28 0018 0C000000 		.word	12
  29 001c 10000000 		.word	16
  30 0020 20000000 		.word	32
  31 0024 40000000 		.word	64
  32 0028 80000000 		.word	128
  33 002c 00010000 		.word	256
  34              		.section	.text.LL_USART_IsEnabled,"ax",%progbits
  35              		.align	1
  36              		.arch armv7e-m
  37              		.syntax unified
  38              		.thumb
  39              		.thumb_func
  40              		.fpu fpv4-sp-d16
  42              	LL_USART_IsEnabled:
  43              	.LFB134:
  44              		.file 1 "Drivers/STM32G4xx_HAL_Driver/Inc/stm32g4xx_ll_usart.h"
   1:Drivers/STM32G4xx_HAL_Driver/Inc/stm32g4xx_ll_usart.h **** /**
   2:Drivers/STM32G4xx_HAL_Driver/Inc/stm32g4xx_ll_usart.h ****   ******************************************************************************
   3:Drivers/STM32G4xx_HAL_Driver/Inc/stm32g4xx_ll_usart.h ****   * @file    stm32g4xx_ll_usart.h
   4:Drivers/STM32G4xx_HAL_Driver/Inc/stm32g4xx_ll_usart.h ****   * @author  MCD Application Team
   5:Drivers/STM32G4xx_HAL_Driver/Inc/stm32g4xx_ll_usart.h ****   * @brief   Header file of USART LL module.
   6:Drivers/STM32G4xx_HAL_Driver/Inc/stm32g4xx_ll_usart.h ****   ******************************************************************************
   7:Drivers/STM32G4xx_HAL_Driver/Inc/stm32g4xx_ll_usart.h ****   * @attention
   8:Drivers/STM32G4xx_HAL_Driver/Inc/stm32g4xx_ll_usart.h ****   *
   9:Drivers/STM32G4xx_HAL_Driver/Inc/stm32g4xx_ll_usart.h ****   * Copyright (c) 2019 STMicroelectronics.
  10:Drivers/STM32G4xx_HAL_Driver/Inc/stm32g4xx_ll_usart.h ****   * All rights reserved.
  11:Drivers/STM32G4xx_HAL_Driver/Inc/stm32g4xx_ll_usart.h ****   *
  12:Drivers/STM32G4xx_HAL_Driver/Inc/stm32g4xx_ll_usart.h ****   * This software is licensed under terms that can be found in the LICENSE file
  13:Drivers/STM32G4xx_HAL_Driver/Inc/stm32g4xx_ll_usart.h ****   * in the root directory of this software component.
  14:Drivers/STM32G4xx_HAL_Driver/Inc/stm32g4xx_ll_usart.h ****   * If no LICENSE file comes with this software, it is provided AS-IS.
  15:Drivers/STM32G4xx_HAL_Driver/Inc/stm32g4xx_ll_usart.h ****   *
  16:Drivers/STM32G4xx_HAL_Driver/Inc/stm32g4xx_ll_usart.h ****   ******************************************************************************
ARM GAS  /tmp/cc9n8VrH.s 			page 2


  17:Drivers/STM32G4xx_HAL_Driver/Inc/stm32g4xx_ll_usart.h ****   */
  18:Drivers/STM32G4xx_HAL_Driver/Inc/stm32g4xx_ll_usart.h **** 
  19:Drivers/STM32G4xx_HAL_Driver/Inc/stm32g4xx_ll_usart.h **** /* Define to prevent recursive inclusion -------------------------------------*/
  20:Drivers/STM32G4xx_HAL_Driver/Inc/stm32g4xx_ll_usart.h **** #ifndef STM32G4xx_LL_USART_H
  21:Drivers/STM32G4xx_HAL_Driver/Inc/stm32g4xx_ll_usart.h **** #define STM32G4xx_LL_USART_H
  22:Drivers/STM32G4xx_HAL_Driver/Inc/stm32g4xx_ll_usart.h **** 
  23:Drivers/STM32G4xx_HAL_Driver/Inc/stm32g4xx_ll_usart.h **** #ifdef __cplusplus
  24:Drivers/STM32G4xx_HAL_Driver/Inc/stm32g4xx_ll_usart.h **** extern "C" {
  25:Drivers/STM32G4xx_HAL_Driver/Inc/stm32g4xx_ll_usart.h **** #endif
  26:Drivers/STM32G4xx_HAL_Driver/Inc/stm32g4xx_ll_usart.h **** 
  27:Drivers/STM32G4xx_HAL_Driver/Inc/stm32g4xx_ll_usart.h **** /* Includes ------------------------------------------------------------------*/
  28:Drivers/STM32G4xx_HAL_Driver/Inc/stm32g4xx_ll_usart.h **** #include "stm32g4xx.h"
  29:Drivers/STM32G4xx_HAL_Driver/Inc/stm32g4xx_ll_usart.h **** 
  30:Drivers/STM32G4xx_HAL_Driver/Inc/stm32g4xx_ll_usart.h **** /** @addtogroup STM32G4xx_LL_Driver
  31:Drivers/STM32G4xx_HAL_Driver/Inc/stm32g4xx_ll_usart.h ****   * @{
  32:Drivers/STM32G4xx_HAL_Driver/Inc/stm32g4xx_ll_usart.h ****   */
  33:Drivers/STM32G4xx_HAL_Driver/Inc/stm32g4xx_ll_usart.h **** 
  34:Drivers/STM32G4xx_HAL_Driver/Inc/stm32g4xx_ll_usart.h **** #if defined(USART1) || defined(USART2) || defined(USART3) || defined(UART4) || defined(UART5)
  35:Drivers/STM32G4xx_HAL_Driver/Inc/stm32g4xx_ll_usart.h **** 
  36:Drivers/STM32G4xx_HAL_Driver/Inc/stm32g4xx_ll_usart.h **** /** @defgroup USART_LL USART
  37:Drivers/STM32G4xx_HAL_Driver/Inc/stm32g4xx_ll_usart.h ****   * @{
  38:Drivers/STM32G4xx_HAL_Driver/Inc/stm32g4xx_ll_usart.h ****   */
  39:Drivers/STM32G4xx_HAL_Driver/Inc/stm32g4xx_ll_usart.h **** 
  40:Drivers/STM32G4xx_HAL_Driver/Inc/stm32g4xx_ll_usart.h **** /* Private types -------------------------------------------------------------*/
  41:Drivers/STM32G4xx_HAL_Driver/Inc/stm32g4xx_ll_usart.h **** /* Private variables ---------------------------------------------------------*/
  42:Drivers/STM32G4xx_HAL_Driver/Inc/stm32g4xx_ll_usart.h **** /** @defgroup USART_LL_Private_Variables USART Private Variables
  43:Drivers/STM32G4xx_HAL_Driver/Inc/stm32g4xx_ll_usart.h ****   * @{
  44:Drivers/STM32G4xx_HAL_Driver/Inc/stm32g4xx_ll_usart.h ****   */
  45:Drivers/STM32G4xx_HAL_Driver/Inc/stm32g4xx_ll_usart.h **** /* Array used to get the USART prescaler division decimal values versus @ref USART_LL_EC_PRESCALER 
  46:Drivers/STM32G4xx_HAL_Driver/Inc/stm32g4xx_ll_usart.h **** static const uint32_t USART_PRESCALER_TAB[] =
  47:Drivers/STM32G4xx_HAL_Driver/Inc/stm32g4xx_ll_usart.h **** {
  48:Drivers/STM32G4xx_HAL_Driver/Inc/stm32g4xx_ll_usart.h ****   1UL,
  49:Drivers/STM32G4xx_HAL_Driver/Inc/stm32g4xx_ll_usart.h ****   2UL,
  50:Drivers/STM32G4xx_HAL_Driver/Inc/stm32g4xx_ll_usart.h ****   4UL,
  51:Drivers/STM32G4xx_HAL_Driver/Inc/stm32g4xx_ll_usart.h ****   6UL,
  52:Drivers/STM32G4xx_HAL_Driver/Inc/stm32g4xx_ll_usart.h ****   8UL,
  53:Drivers/STM32G4xx_HAL_Driver/Inc/stm32g4xx_ll_usart.h ****   10UL,
  54:Drivers/STM32G4xx_HAL_Driver/Inc/stm32g4xx_ll_usart.h ****   12UL,
  55:Drivers/STM32G4xx_HAL_Driver/Inc/stm32g4xx_ll_usart.h ****   16UL,
  56:Drivers/STM32G4xx_HAL_Driver/Inc/stm32g4xx_ll_usart.h ****   32UL,
  57:Drivers/STM32G4xx_HAL_Driver/Inc/stm32g4xx_ll_usart.h ****   64UL,
  58:Drivers/STM32G4xx_HAL_Driver/Inc/stm32g4xx_ll_usart.h ****   128UL,
  59:Drivers/STM32G4xx_HAL_Driver/Inc/stm32g4xx_ll_usart.h ****   256UL
  60:Drivers/STM32G4xx_HAL_Driver/Inc/stm32g4xx_ll_usart.h **** };
  61:Drivers/STM32G4xx_HAL_Driver/Inc/stm32g4xx_ll_usart.h **** /**
  62:Drivers/STM32G4xx_HAL_Driver/Inc/stm32g4xx_ll_usart.h ****   * @}
  63:Drivers/STM32G4xx_HAL_Driver/Inc/stm32g4xx_ll_usart.h ****   */
  64:Drivers/STM32G4xx_HAL_Driver/Inc/stm32g4xx_ll_usart.h **** 
  65:Drivers/STM32G4xx_HAL_Driver/Inc/stm32g4xx_ll_usart.h **** /* Private constants ---------------------------------------------------------*/
  66:Drivers/STM32G4xx_HAL_Driver/Inc/stm32g4xx_ll_usart.h **** /** @defgroup USART_LL_Private_Constants USART Private Constants
  67:Drivers/STM32G4xx_HAL_Driver/Inc/stm32g4xx_ll_usart.h ****   * @{
  68:Drivers/STM32G4xx_HAL_Driver/Inc/stm32g4xx_ll_usart.h ****   */
  69:Drivers/STM32G4xx_HAL_Driver/Inc/stm32g4xx_ll_usart.h **** /**
  70:Drivers/STM32G4xx_HAL_Driver/Inc/stm32g4xx_ll_usart.h ****   * @}
  71:Drivers/STM32G4xx_HAL_Driver/Inc/stm32g4xx_ll_usart.h ****   */
  72:Drivers/STM32G4xx_HAL_Driver/Inc/stm32g4xx_ll_usart.h **** /* Private macros ------------------------------------------------------------*/
  73:Drivers/STM32G4xx_HAL_Driver/Inc/stm32g4xx_ll_usart.h **** #if defined(USE_FULL_LL_DRIVER)
ARM GAS  /tmp/cc9n8VrH.s 			page 3


  74:Drivers/STM32G4xx_HAL_Driver/Inc/stm32g4xx_ll_usart.h **** /** @defgroup USART_LL_Private_Macros USART Private Macros
  75:Drivers/STM32G4xx_HAL_Driver/Inc/stm32g4xx_ll_usart.h ****   * @{
  76:Drivers/STM32G4xx_HAL_Driver/Inc/stm32g4xx_ll_usart.h ****   */
  77:Drivers/STM32G4xx_HAL_Driver/Inc/stm32g4xx_ll_usart.h **** /**
  78:Drivers/STM32G4xx_HAL_Driver/Inc/stm32g4xx_ll_usart.h ****   * @}
  79:Drivers/STM32G4xx_HAL_Driver/Inc/stm32g4xx_ll_usart.h ****   */
  80:Drivers/STM32G4xx_HAL_Driver/Inc/stm32g4xx_ll_usart.h **** #endif /*USE_FULL_LL_DRIVER*/
  81:Drivers/STM32G4xx_HAL_Driver/Inc/stm32g4xx_ll_usart.h **** 
  82:Drivers/STM32G4xx_HAL_Driver/Inc/stm32g4xx_ll_usart.h **** /* Exported types ------------------------------------------------------------*/
  83:Drivers/STM32G4xx_HAL_Driver/Inc/stm32g4xx_ll_usart.h **** #if defined(USE_FULL_LL_DRIVER)
  84:Drivers/STM32G4xx_HAL_Driver/Inc/stm32g4xx_ll_usart.h **** /** @defgroup USART_LL_ES_INIT USART Exported Init structures
  85:Drivers/STM32G4xx_HAL_Driver/Inc/stm32g4xx_ll_usart.h ****   * @{
  86:Drivers/STM32G4xx_HAL_Driver/Inc/stm32g4xx_ll_usart.h ****   */
  87:Drivers/STM32G4xx_HAL_Driver/Inc/stm32g4xx_ll_usart.h **** 
  88:Drivers/STM32G4xx_HAL_Driver/Inc/stm32g4xx_ll_usart.h **** /**
  89:Drivers/STM32G4xx_HAL_Driver/Inc/stm32g4xx_ll_usart.h ****   * @brief LL USART Init Structure definition
  90:Drivers/STM32G4xx_HAL_Driver/Inc/stm32g4xx_ll_usart.h ****   */
  91:Drivers/STM32G4xx_HAL_Driver/Inc/stm32g4xx_ll_usart.h **** typedef struct
  92:Drivers/STM32G4xx_HAL_Driver/Inc/stm32g4xx_ll_usart.h **** {
  93:Drivers/STM32G4xx_HAL_Driver/Inc/stm32g4xx_ll_usart.h ****   uint32_t PrescalerValue;            /*!< Specifies the Prescaler to compute the communication bau
  94:Drivers/STM32G4xx_HAL_Driver/Inc/stm32g4xx_ll_usart.h ****                                            This parameter can be a value of @ref USART_LL_EC_PRESCA
  95:Drivers/STM32G4xx_HAL_Driver/Inc/stm32g4xx_ll_usart.h **** 
  96:Drivers/STM32G4xx_HAL_Driver/Inc/stm32g4xx_ll_usart.h ****                                            This feature can be modified afterwards using unitary
  97:Drivers/STM32G4xx_HAL_Driver/Inc/stm32g4xx_ll_usart.h ****                                            function @ref LL_USART_SetPrescaler().*/
  98:Drivers/STM32G4xx_HAL_Driver/Inc/stm32g4xx_ll_usart.h **** 
  99:Drivers/STM32G4xx_HAL_Driver/Inc/stm32g4xx_ll_usart.h ****   uint32_t BaudRate;                  /*!< This field defines expected Usart communication baud rat
 100:Drivers/STM32G4xx_HAL_Driver/Inc/stm32g4xx_ll_usart.h **** 
 101:Drivers/STM32G4xx_HAL_Driver/Inc/stm32g4xx_ll_usart.h ****                                            This feature can be modified afterwards using unitary
 102:Drivers/STM32G4xx_HAL_Driver/Inc/stm32g4xx_ll_usart.h ****                                            function @ref LL_USART_SetBaudRate().*/
 103:Drivers/STM32G4xx_HAL_Driver/Inc/stm32g4xx_ll_usart.h **** 
 104:Drivers/STM32G4xx_HAL_Driver/Inc/stm32g4xx_ll_usart.h ****   uint32_t DataWidth;                 /*!< Specifies the number of data bits transmitted or receive
 105:Drivers/STM32G4xx_HAL_Driver/Inc/stm32g4xx_ll_usart.h ****                                            This parameter can be a value of @ref USART_LL_EC_DATAWI
 106:Drivers/STM32G4xx_HAL_Driver/Inc/stm32g4xx_ll_usart.h **** 
 107:Drivers/STM32G4xx_HAL_Driver/Inc/stm32g4xx_ll_usart.h ****                                            This feature can be modified afterwards using unitary
 108:Drivers/STM32G4xx_HAL_Driver/Inc/stm32g4xx_ll_usart.h ****                                            function @ref LL_USART_SetDataWidth().*/
 109:Drivers/STM32G4xx_HAL_Driver/Inc/stm32g4xx_ll_usart.h **** 
 110:Drivers/STM32G4xx_HAL_Driver/Inc/stm32g4xx_ll_usart.h ****   uint32_t StopBits;                  /*!< Specifies the number of stop bits transmitted.
 111:Drivers/STM32G4xx_HAL_Driver/Inc/stm32g4xx_ll_usart.h ****                                            This parameter can be a value of @ref USART_LL_EC_STOPBI
 112:Drivers/STM32G4xx_HAL_Driver/Inc/stm32g4xx_ll_usart.h **** 
 113:Drivers/STM32G4xx_HAL_Driver/Inc/stm32g4xx_ll_usart.h ****                                            This feature can be modified afterwards using unitary
 114:Drivers/STM32G4xx_HAL_Driver/Inc/stm32g4xx_ll_usart.h ****                                            function @ref LL_USART_SetStopBitsLength().*/
 115:Drivers/STM32G4xx_HAL_Driver/Inc/stm32g4xx_ll_usart.h **** 
 116:Drivers/STM32G4xx_HAL_Driver/Inc/stm32g4xx_ll_usart.h ****   uint32_t Parity;                    /*!< Specifies the parity mode.
 117:Drivers/STM32G4xx_HAL_Driver/Inc/stm32g4xx_ll_usart.h ****                                            This parameter can be a value of @ref USART_LL_EC_PARITY
 118:Drivers/STM32G4xx_HAL_Driver/Inc/stm32g4xx_ll_usart.h **** 
 119:Drivers/STM32G4xx_HAL_Driver/Inc/stm32g4xx_ll_usart.h ****                                            This feature can be modified afterwards using unitary
 120:Drivers/STM32G4xx_HAL_Driver/Inc/stm32g4xx_ll_usart.h ****                                            function @ref LL_USART_SetParity().*/
 121:Drivers/STM32G4xx_HAL_Driver/Inc/stm32g4xx_ll_usart.h **** 
 122:Drivers/STM32G4xx_HAL_Driver/Inc/stm32g4xx_ll_usart.h ****   uint32_t TransferDirection;         /*!< Specifies whether the Receive and/or Transmit mode is en
 123:Drivers/STM32G4xx_HAL_Driver/Inc/stm32g4xx_ll_usart.h ****                                            This parameter can be a value of @ref USART_LL_EC_DIRECT
 124:Drivers/STM32G4xx_HAL_Driver/Inc/stm32g4xx_ll_usart.h **** 
 125:Drivers/STM32G4xx_HAL_Driver/Inc/stm32g4xx_ll_usart.h ****                                            This feature can be modified afterwards using unitary
 126:Drivers/STM32G4xx_HAL_Driver/Inc/stm32g4xx_ll_usart.h ****                                            function @ref LL_USART_SetTransferDirection().*/
 127:Drivers/STM32G4xx_HAL_Driver/Inc/stm32g4xx_ll_usart.h **** 
 128:Drivers/STM32G4xx_HAL_Driver/Inc/stm32g4xx_ll_usart.h ****   uint32_t HardwareFlowControl;       /*!< Specifies whether the hardware flow control mode is enab
 129:Drivers/STM32G4xx_HAL_Driver/Inc/stm32g4xx_ll_usart.h ****                                            This parameter can be a value of @ref USART_LL_EC_HWCONT
 130:Drivers/STM32G4xx_HAL_Driver/Inc/stm32g4xx_ll_usart.h **** 
ARM GAS  /tmp/cc9n8VrH.s 			page 4


 131:Drivers/STM32G4xx_HAL_Driver/Inc/stm32g4xx_ll_usart.h ****                                            This feature can be modified afterwards using unitary
 132:Drivers/STM32G4xx_HAL_Driver/Inc/stm32g4xx_ll_usart.h ****                                            function @ref LL_USART_SetHWFlowCtrl().*/
 133:Drivers/STM32G4xx_HAL_Driver/Inc/stm32g4xx_ll_usart.h **** 
 134:Drivers/STM32G4xx_HAL_Driver/Inc/stm32g4xx_ll_usart.h ****   uint32_t OverSampling;              /*!< Specifies whether USART oversampling mode is 16 or 8.
 135:Drivers/STM32G4xx_HAL_Driver/Inc/stm32g4xx_ll_usart.h ****                                            This parameter can be a value of @ref USART_LL_EC_OVERSA
 136:Drivers/STM32G4xx_HAL_Driver/Inc/stm32g4xx_ll_usart.h **** 
 137:Drivers/STM32G4xx_HAL_Driver/Inc/stm32g4xx_ll_usart.h ****                                            This feature can be modified afterwards using unitary
 138:Drivers/STM32G4xx_HAL_Driver/Inc/stm32g4xx_ll_usart.h ****                                            function @ref LL_USART_SetOverSampling().*/
 139:Drivers/STM32G4xx_HAL_Driver/Inc/stm32g4xx_ll_usart.h **** 
 140:Drivers/STM32G4xx_HAL_Driver/Inc/stm32g4xx_ll_usart.h **** } LL_USART_InitTypeDef;
 141:Drivers/STM32G4xx_HAL_Driver/Inc/stm32g4xx_ll_usart.h **** 
 142:Drivers/STM32G4xx_HAL_Driver/Inc/stm32g4xx_ll_usart.h **** /**
 143:Drivers/STM32G4xx_HAL_Driver/Inc/stm32g4xx_ll_usart.h ****   * @brief LL USART Clock Init Structure definition
 144:Drivers/STM32G4xx_HAL_Driver/Inc/stm32g4xx_ll_usart.h ****   */
 145:Drivers/STM32G4xx_HAL_Driver/Inc/stm32g4xx_ll_usart.h **** typedef struct
 146:Drivers/STM32G4xx_HAL_Driver/Inc/stm32g4xx_ll_usart.h **** {
 147:Drivers/STM32G4xx_HAL_Driver/Inc/stm32g4xx_ll_usart.h ****   uint32_t ClockOutput;               /*!< Specifies whether the USART clock is enabled or disabled
 148:Drivers/STM32G4xx_HAL_Driver/Inc/stm32g4xx_ll_usart.h ****                                            This parameter can be a value of @ref USART_LL_EC_CLOCK.
 149:Drivers/STM32G4xx_HAL_Driver/Inc/stm32g4xx_ll_usart.h **** 
 150:Drivers/STM32G4xx_HAL_Driver/Inc/stm32g4xx_ll_usart.h ****                                            USART HW configuration can be modified afterwards using 
 151:Drivers/STM32G4xx_HAL_Driver/Inc/stm32g4xx_ll_usart.h ****                                            @ref LL_USART_EnableSCLKOutput() or @ref LL_USART_Disabl
 152:Drivers/STM32G4xx_HAL_Driver/Inc/stm32g4xx_ll_usart.h ****                                            For more details, refer to description of this function.
 153:Drivers/STM32G4xx_HAL_Driver/Inc/stm32g4xx_ll_usart.h **** 
 154:Drivers/STM32G4xx_HAL_Driver/Inc/stm32g4xx_ll_usart.h ****   uint32_t ClockPolarity;             /*!< Specifies the steady state of the serial clock.
 155:Drivers/STM32G4xx_HAL_Driver/Inc/stm32g4xx_ll_usart.h ****                                            This parameter can be a value of @ref USART_LL_EC_POLARI
 156:Drivers/STM32G4xx_HAL_Driver/Inc/stm32g4xx_ll_usart.h **** 
 157:Drivers/STM32G4xx_HAL_Driver/Inc/stm32g4xx_ll_usart.h ****                                            USART HW configuration can be modified afterwards using 
 158:Drivers/STM32G4xx_HAL_Driver/Inc/stm32g4xx_ll_usart.h ****                                            functions @ref LL_USART_SetClockPolarity().
 159:Drivers/STM32G4xx_HAL_Driver/Inc/stm32g4xx_ll_usart.h ****                                            For more details, refer to description of this function.
 160:Drivers/STM32G4xx_HAL_Driver/Inc/stm32g4xx_ll_usart.h **** 
 161:Drivers/STM32G4xx_HAL_Driver/Inc/stm32g4xx_ll_usart.h ****   uint32_t ClockPhase;                /*!< Specifies the clock transition on which the bit capture 
 162:Drivers/STM32G4xx_HAL_Driver/Inc/stm32g4xx_ll_usart.h ****                                            This parameter can be a value of @ref USART_LL_EC_PHASE.
 163:Drivers/STM32G4xx_HAL_Driver/Inc/stm32g4xx_ll_usart.h **** 
 164:Drivers/STM32G4xx_HAL_Driver/Inc/stm32g4xx_ll_usart.h ****                                            USART HW configuration can be modified afterwards using 
 165:Drivers/STM32G4xx_HAL_Driver/Inc/stm32g4xx_ll_usart.h ****                                            functions @ref LL_USART_SetClockPhase().
 166:Drivers/STM32G4xx_HAL_Driver/Inc/stm32g4xx_ll_usart.h ****                                            For more details, refer to description of this function.
 167:Drivers/STM32G4xx_HAL_Driver/Inc/stm32g4xx_ll_usart.h **** 
 168:Drivers/STM32G4xx_HAL_Driver/Inc/stm32g4xx_ll_usart.h ****   uint32_t LastBitClockPulse;         /*!< Specifies whether the clock pulse corresponding to the l
 169:Drivers/STM32G4xx_HAL_Driver/Inc/stm32g4xx_ll_usart.h ****                                            data bit (MSB) has to be output on the SCLK pin in synch
 170:Drivers/STM32G4xx_HAL_Driver/Inc/stm32g4xx_ll_usart.h ****                                            This parameter can be a value of @ref USART_LL_EC_LASTCL
 171:Drivers/STM32G4xx_HAL_Driver/Inc/stm32g4xx_ll_usart.h **** 
 172:Drivers/STM32G4xx_HAL_Driver/Inc/stm32g4xx_ll_usart.h ****                                            USART HW configuration can be modified afterwards using 
 173:Drivers/STM32G4xx_HAL_Driver/Inc/stm32g4xx_ll_usart.h ****                                            functions @ref LL_USART_SetLastClkPulseOutput().
 174:Drivers/STM32G4xx_HAL_Driver/Inc/stm32g4xx_ll_usart.h ****                                            For more details, refer to description of this function.
 175:Drivers/STM32G4xx_HAL_Driver/Inc/stm32g4xx_ll_usart.h **** 
 176:Drivers/STM32G4xx_HAL_Driver/Inc/stm32g4xx_ll_usart.h **** } LL_USART_ClockInitTypeDef;
 177:Drivers/STM32G4xx_HAL_Driver/Inc/stm32g4xx_ll_usart.h **** 
 178:Drivers/STM32G4xx_HAL_Driver/Inc/stm32g4xx_ll_usart.h **** /**
 179:Drivers/STM32G4xx_HAL_Driver/Inc/stm32g4xx_ll_usart.h ****   * @}
 180:Drivers/STM32G4xx_HAL_Driver/Inc/stm32g4xx_ll_usart.h ****   */
 181:Drivers/STM32G4xx_HAL_Driver/Inc/stm32g4xx_ll_usart.h **** #endif /* USE_FULL_LL_DRIVER */
 182:Drivers/STM32G4xx_HAL_Driver/Inc/stm32g4xx_ll_usart.h **** 
 183:Drivers/STM32G4xx_HAL_Driver/Inc/stm32g4xx_ll_usart.h **** /* Exported constants --------------------------------------------------------*/
 184:Drivers/STM32G4xx_HAL_Driver/Inc/stm32g4xx_ll_usart.h **** /** @defgroup USART_LL_Exported_Constants USART Exported Constants
 185:Drivers/STM32G4xx_HAL_Driver/Inc/stm32g4xx_ll_usart.h ****   * @{
 186:Drivers/STM32G4xx_HAL_Driver/Inc/stm32g4xx_ll_usart.h ****   */
 187:Drivers/STM32G4xx_HAL_Driver/Inc/stm32g4xx_ll_usart.h **** 
ARM GAS  /tmp/cc9n8VrH.s 			page 5


 188:Drivers/STM32G4xx_HAL_Driver/Inc/stm32g4xx_ll_usart.h **** /** @defgroup USART_LL_EC_CLEAR_FLAG Clear Flags Defines
 189:Drivers/STM32G4xx_HAL_Driver/Inc/stm32g4xx_ll_usart.h ****   * @brief    Flags defines which can be used with LL_USART_WriteReg function
 190:Drivers/STM32G4xx_HAL_Driver/Inc/stm32g4xx_ll_usart.h ****   * @{
 191:Drivers/STM32G4xx_HAL_Driver/Inc/stm32g4xx_ll_usart.h ****   */
 192:Drivers/STM32G4xx_HAL_Driver/Inc/stm32g4xx_ll_usart.h **** #define LL_USART_ICR_PECF                       USART_ICR_PECF                /*!< Parity error cle
 193:Drivers/STM32G4xx_HAL_Driver/Inc/stm32g4xx_ll_usart.h **** #define LL_USART_ICR_FECF                       USART_ICR_FECF                /*!< Framing error cl
 194:Drivers/STM32G4xx_HAL_Driver/Inc/stm32g4xx_ll_usart.h **** #define LL_USART_ICR_NECF                       USART_ICR_NECF                /*!< Noise error dete
 195:Drivers/STM32G4xx_HAL_Driver/Inc/stm32g4xx_ll_usart.h **** #define LL_USART_ICR_ORECF                      USART_ICR_ORECF               /*!< Overrun error cl
 196:Drivers/STM32G4xx_HAL_Driver/Inc/stm32g4xx_ll_usart.h **** #define LL_USART_ICR_IDLECF                     USART_ICR_IDLECF              /*!< Idle line detect
 197:Drivers/STM32G4xx_HAL_Driver/Inc/stm32g4xx_ll_usart.h **** #define LL_USART_ICR_TXFECF                     USART_ICR_TXFECF              /*!< TX FIFO Empty cl
 198:Drivers/STM32G4xx_HAL_Driver/Inc/stm32g4xx_ll_usart.h **** #define LL_USART_ICR_TCCF                       USART_ICR_TCCF                /*!< Transmission com
 199:Drivers/STM32G4xx_HAL_Driver/Inc/stm32g4xx_ll_usart.h **** #define LL_USART_ICR_TCBGTCF                    USART_ICR_TCBGTCF             /*!< Transmission com
 200:Drivers/STM32G4xx_HAL_Driver/Inc/stm32g4xx_ll_usart.h **** #define LL_USART_ICR_LBDCF                      USART_ICR_LBDCF               /*!< LIN break detect
 201:Drivers/STM32G4xx_HAL_Driver/Inc/stm32g4xx_ll_usart.h **** #define LL_USART_ICR_CTSCF                      USART_ICR_CTSCF               /*!< CTS clear flag *
 202:Drivers/STM32G4xx_HAL_Driver/Inc/stm32g4xx_ll_usart.h **** #define LL_USART_ICR_RTOCF                      USART_ICR_RTOCF               /*!< Receiver timeout
 203:Drivers/STM32G4xx_HAL_Driver/Inc/stm32g4xx_ll_usart.h **** #define LL_USART_ICR_EOBCF                      USART_ICR_EOBCF               /*!< End of block cle
 204:Drivers/STM32G4xx_HAL_Driver/Inc/stm32g4xx_ll_usart.h **** #define LL_USART_ICR_UDRCF                      USART_ICR_UDRCF               /*!< SPI Slave Underr
 205:Drivers/STM32G4xx_HAL_Driver/Inc/stm32g4xx_ll_usart.h **** #define LL_USART_ICR_CMCF                       USART_ICR_CMCF                /*!< Character match 
 206:Drivers/STM32G4xx_HAL_Driver/Inc/stm32g4xx_ll_usart.h **** #define LL_USART_ICR_WUCF                       USART_ICR_WUCF                /*!< Wakeup from Stop
 207:Drivers/STM32G4xx_HAL_Driver/Inc/stm32g4xx_ll_usart.h **** /**
 208:Drivers/STM32G4xx_HAL_Driver/Inc/stm32g4xx_ll_usart.h ****   * @}
 209:Drivers/STM32G4xx_HAL_Driver/Inc/stm32g4xx_ll_usart.h ****   */
 210:Drivers/STM32G4xx_HAL_Driver/Inc/stm32g4xx_ll_usart.h **** 
 211:Drivers/STM32G4xx_HAL_Driver/Inc/stm32g4xx_ll_usart.h **** /** @defgroup USART_LL_EC_GET_FLAG Get Flags Defines
 212:Drivers/STM32G4xx_HAL_Driver/Inc/stm32g4xx_ll_usart.h ****   * @brief    Flags defines which can be used with LL_USART_ReadReg function
 213:Drivers/STM32G4xx_HAL_Driver/Inc/stm32g4xx_ll_usart.h ****   * @{
 214:Drivers/STM32G4xx_HAL_Driver/Inc/stm32g4xx_ll_usart.h ****   */
 215:Drivers/STM32G4xx_HAL_Driver/Inc/stm32g4xx_ll_usart.h **** #define LL_USART_ISR_PE                         USART_ISR_PE                  /*!< Parity error fla
 216:Drivers/STM32G4xx_HAL_Driver/Inc/stm32g4xx_ll_usart.h **** #define LL_USART_ISR_FE                         USART_ISR_FE                  /*!< Framing error fl
 217:Drivers/STM32G4xx_HAL_Driver/Inc/stm32g4xx_ll_usart.h **** #define LL_USART_ISR_NE                         USART_ISR_NE                  /*!< Noise detected f
 218:Drivers/STM32G4xx_HAL_Driver/Inc/stm32g4xx_ll_usart.h **** #define LL_USART_ISR_ORE                        USART_ISR_ORE                 /*!< Overrun error fl
 219:Drivers/STM32G4xx_HAL_Driver/Inc/stm32g4xx_ll_usart.h **** #define LL_USART_ISR_IDLE                       USART_ISR_IDLE                /*!< Idle line detect
 220:Drivers/STM32G4xx_HAL_Driver/Inc/stm32g4xx_ll_usart.h **** #define LL_USART_ISR_RXNE_RXFNE                 USART_ISR_RXNE_RXFNE          /*!< Read data regist
 221:Drivers/STM32G4xx_HAL_Driver/Inc/stm32g4xx_ll_usart.h **** #define LL_USART_ISR_TC                         USART_ISR_TC                  /*!< Transmission com
 222:Drivers/STM32G4xx_HAL_Driver/Inc/stm32g4xx_ll_usart.h **** #define LL_USART_ISR_TXE_TXFNF                  USART_ISR_TXE_TXFNF           /*!< Transmit data re
 223:Drivers/STM32G4xx_HAL_Driver/Inc/stm32g4xx_ll_usart.h **** #define LL_USART_ISR_LBDF                       USART_ISR_LBDF                /*!< LIN break detect
 224:Drivers/STM32G4xx_HAL_Driver/Inc/stm32g4xx_ll_usart.h **** #define LL_USART_ISR_CTSIF                      USART_ISR_CTSIF               /*!< CTS interrupt fl
 225:Drivers/STM32G4xx_HAL_Driver/Inc/stm32g4xx_ll_usart.h **** #define LL_USART_ISR_CTS                        USART_ISR_CTS                 /*!< CTS flag */
 226:Drivers/STM32G4xx_HAL_Driver/Inc/stm32g4xx_ll_usart.h **** #define LL_USART_ISR_RTOF                       USART_ISR_RTOF                /*!< Receiver timeout
 227:Drivers/STM32G4xx_HAL_Driver/Inc/stm32g4xx_ll_usart.h **** #define LL_USART_ISR_EOBF                       USART_ISR_EOBF                /*!< End of block fla
 228:Drivers/STM32G4xx_HAL_Driver/Inc/stm32g4xx_ll_usart.h **** #define LL_USART_ISR_UDR                        USART_ISR_UDR                 /*!< SPI Slave underr
 229:Drivers/STM32G4xx_HAL_Driver/Inc/stm32g4xx_ll_usart.h **** #define LL_USART_ISR_ABRE                       USART_ISR_ABRE                /*!< Auto baud rate e
 230:Drivers/STM32G4xx_HAL_Driver/Inc/stm32g4xx_ll_usart.h **** #define LL_USART_ISR_ABRF                       USART_ISR_ABRF                /*!< Auto baud rate f
 231:Drivers/STM32G4xx_HAL_Driver/Inc/stm32g4xx_ll_usart.h **** #define LL_USART_ISR_BUSY                       USART_ISR_BUSY                /*!< Busy flag */
 232:Drivers/STM32G4xx_HAL_Driver/Inc/stm32g4xx_ll_usart.h **** #define LL_USART_ISR_CMF                        USART_ISR_CMF                 /*!< Character match 
 233:Drivers/STM32G4xx_HAL_Driver/Inc/stm32g4xx_ll_usart.h **** #define LL_USART_ISR_SBKF                       USART_ISR_SBKF                /*!< Send break flag 
 234:Drivers/STM32G4xx_HAL_Driver/Inc/stm32g4xx_ll_usart.h **** #define LL_USART_ISR_RWU                        USART_ISR_RWU                 /*!< Receiver wakeup 
 235:Drivers/STM32G4xx_HAL_Driver/Inc/stm32g4xx_ll_usart.h **** #define LL_USART_ISR_WUF                        USART_ISR_WUF                 /*!< Wakeup from Stop
 236:Drivers/STM32G4xx_HAL_Driver/Inc/stm32g4xx_ll_usart.h **** #define LL_USART_ISR_TEACK                      USART_ISR_TEACK               /*!< Transmit enable 
 237:Drivers/STM32G4xx_HAL_Driver/Inc/stm32g4xx_ll_usart.h **** #define LL_USART_ISR_REACK                      USART_ISR_REACK               /*!< Receive enable a
 238:Drivers/STM32G4xx_HAL_Driver/Inc/stm32g4xx_ll_usart.h **** #define LL_USART_ISR_TXFE                       USART_ISR_TXFE                /*!< TX FIFO empty fl
 239:Drivers/STM32G4xx_HAL_Driver/Inc/stm32g4xx_ll_usart.h **** #define LL_USART_ISR_RXFF                       USART_ISR_RXFF                /*!< RX FIFO full fla
 240:Drivers/STM32G4xx_HAL_Driver/Inc/stm32g4xx_ll_usart.h **** #define LL_USART_ISR_TCBGT                      USART_ISR_TCBGT               /*!< Transmission com
 241:Drivers/STM32G4xx_HAL_Driver/Inc/stm32g4xx_ll_usart.h **** #define LL_USART_ISR_RXFT                       USART_ISR_RXFT                /*!< RX FIFO threshol
 242:Drivers/STM32G4xx_HAL_Driver/Inc/stm32g4xx_ll_usart.h **** #define LL_USART_ISR_TXFT                       USART_ISR_TXFT                /*!< TX FIFO threshol
 243:Drivers/STM32G4xx_HAL_Driver/Inc/stm32g4xx_ll_usart.h **** /**
 244:Drivers/STM32G4xx_HAL_Driver/Inc/stm32g4xx_ll_usart.h ****   * @}
ARM GAS  /tmp/cc9n8VrH.s 			page 6


 245:Drivers/STM32G4xx_HAL_Driver/Inc/stm32g4xx_ll_usart.h ****   */
 246:Drivers/STM32G4xx_HAL_Driver/Inc/stm32g4xx_ll_usart.h **** 
 247:Drivers/STM32G4xx_HAL_Driver/Inc/stm32g4xx_ll_usart.h **** /** @defgroup USART_LL_EC_IT IT Defines
 248:Drivers/STM32G4xx_HAL_Driver/Inc/stm32g4xx_ll_usart.h ****   * @brief    IT defines which can be used with LL_USART_ReadReg and  LL_USART_WriteReg functions
 249:Drivers/STM32G4xx_HAL_Driver/Inc/stm32g4xx_ll_usart.h ****   * @{
 250:Drivers/STM32G4xx_HAL_Driver/Inc/stm32g4xx_ll_usart.h ****   */
 251:Drivers/STM32G4xx_HAL_Driver/Inc/stm32g4xx_ll_usart.h **** #define LL_USART_CR1_IDLEIE                     USART_CR1_IDLEIE              /*!< IDLE interrupt e
 252:Drivers/STM32G4xx_HAL_Driver/Inc/stm32g4xx_ll_usart.h **** #define LL_USART_CR1_RXNEIE_RXFNEIE             USART_CR1_RXNEIE_RXFNEIE      /*!< Read data regist
 253:Drivers/STM32G4xx_HAL_Driver/Inc/stm32g4xx_ll_usart.h **** #define LL_USART_CR1_TCIE                       USART_CR1_TCIE                /*!< Transmission com
 254:Drivers/STM32G4xx_HAL_Driver/Inc/stm32g4xx_ll_usart.h **** #define LL_USART_CR1_TXEIE_TXFNFIE              USART_CR1_TXEIE_TXFNFIE       /*!< Transmit data re
 255:Drivers/STM32G4xx_HAL_Driver/Inc/stm32g4xx_ll_usart.h **** #define LL_USART_CR1_PEIE                       USART_CR1_PEIE                /*!< Parity error */
 256:Drivers/STM32G4xx_HAL_Driver/Inc/stm32g4xx_ll_usart.h **** #define LL_USART_CR1_CMIE                       USART_CR1_CMIE                /*!< Character match 
 257:Drivers/STM32G4xx_HAL_Driver/Inc/stm32g4xx_ll_usart.h **** #define LL_USART_CR1_RTOIE                      USART_CR1_RTOIE               /*!< Receiver timeout
 258:Drivers/STM32G4xx_HAL_Driver/Inc/stm32g4xx_ll_usart.h **** #define LL_USART_CR1_EOBIE                      USART_CR1_EOBIE               /*!< End of Block int
 259:Drivers/STM32G4xx_HAL_Driver/Inc/stm32g4xx_ll_usart.h **** #define LL_USART_CR1_TXFEIE                     USART_CR1_TXFEIE              /*!< TX FIFO empty in
 260:Drivers/STM32G4xx_HAL_Driver/Inc/stm32g4xx_ll_usart.h **** #define LL_USART_CR1_RXFFIE                     USART_CR1_RXFFIE              /*!< RX FIFO full int
 261:Drivers/STM32G4xx_HAL_Driver/Inc/stm32g4xx_ll_usart.h **** #define LL_USART_CR2_LBDIE                      USART_CR2_LBDIE               /*!< LIN break detect
 262:Drivers/STM32G4xx_HAL_Driver/Inc/stm32g4xx_ll_usart.h **** #define LL_USART_CR3_EIE                        USART_CR3_EIE                 /*!< Error interrupt 
 263:Drivers/STM32G4xx_HAL_Driver/Inc/stm32g4xx_ll_usart.h **** #define LL_USART_CR3_CTSIE                      USART_CR3_CTSIE               /*!< CTS interrupt en
 264:Drivers/STM32G4xx_HAL_Driver/Inc/stm32g4xx_ll_usart.h **** #define LL_USART_CR3_WUFIE                      USART_CR3_WUFIE               /*!< Wakeup from Stop
 265:Drivers/STM32G4xx_HAL_Driver/Inc/stm32g4xx_ll_usart.h **** #define LL_USART_CR3_TXFTIE                     USART_CR3_TXFTIE              /*!< TX FIFO threshol
 266:Drivers/STM32G4xx_HAL_Driver/Inc/stm32g4xx_ll_usart.h **** #define LL_USART_CR3_TCBGTIE                    USART_CR3_TCBGTIE             /*!< Transmission com
 267:Drivers/STM32G4xx_HAL_Driver/Inc/stm32g4xx_ll_usart.h **** #define LL_USART_CR3_RXFTIE                     USART_CR3_RXFTIE              /*!< RX FIFO threshol
 268:Drivers/STM32G4xx_HAL_Driver/Inc/stm32g4xx_ll_usart.h **** /**
 269:Drivers/STM32G4xx_HAL_Driver/Inc/stm32g4xx_ll_usart.h ****   * @}
 270:Drivers/STM32G4xx_HAL_Driver/Inc/stm32g4xx_ll_usart.h ****   */
 271:Drivers/STM32G4xx_HAL_Driver/Inc/stm32g4xx_ll_usart.h **** 
 272:Drivers/STM32G4xx_HAL_Driver/Inc/stm32g4xx_ll_usart.h **** /** @defgroup USART_LL_EC_FIFOTHRESHOLD FIFO Threshold
 273:Drivers/STM32G4xx_HAL_Driver/Inc/stm32g4xx_ll_usart.h ****   * @{
 274:Drivers/STM32G4xx_HAL_Driver/Inc/stm32g4xx_ll_usart.h ****   */
 275:Drivers/STM32G4xx_HAL_Driver/Inc/stm32g4xx_ll_usart.h **** #define LL_USART_FIFOTHRESHOLD_1_8              0x00000000U /*!< FIFO reaches 1/8 of its depth */
 276:Drivers/STM32G4xx_HAL_Driver/Inc/stm32g4xx_ll_usart.h **** #define LL_USART_FIFOTHRESHOLD_1_4              0x00000001U /*!< FIFO reaches 1/4 of its depth */
 277:Drivers/STM32G4xx_HAL_Driver/Inc/stm32g4xx_ll_usart.h **** #define LL_USART_FIFOTHRESHOLD_1_2              0x00000002U /*!< FIFO reaches 1/2 of its depth */
 278:Drivers/STM32G4xx_HAL_Driver/Inc/stm32g4xx_ll_usart.h **** #define LL_USART_FIFOTHRESHOLD_3_4              0x00000003U /*!< FIFO reaches 3/4 of its depth */
 279:Drivers/STM32G4xx_HAL_Driver/Inc/stm32g4xx_ll_usart.h **** #define LL_USART_FIFOTHRESHOLD_7_8              0x00000004U /*!< FIFO reaches 7/8 of its depth */
 280:Drivers/STM32G4xx_HAL_Driver/Inc/stm32g4xx_ll_usart.h **** #define LL_USART_FIFOTHRESHOLD_8_8              0x00000005U /*!< FIFO becomes empty for TX and full
 281:Drivers/STM32G4xx_HAL_Driver/Inc/stm32g4xx_ll_usart.h **** /**
 282:Drivers/STM32G4xx_HAL_Driver/Inc/stm32g4xx_ll_usart.h ****   * @}
 283:Drivers/STM32G4xx_HAL_Driver/Inc/stm32g4xx_ll_usart.h ****   */
 284:Drivers/STM32G4xx_HAL_Driver/Inc/stm32g4xx_ll_usart.h **** 
 285:Drivers/STM32G4xx_HAL_Driver/Inc/stm32g4xx_ll_usart.h **** /** @defgroup USART_LL_EC_DIRECTION Communication Direction
 286:Drivers/STM32G4xx_HAL_Driver/Inc/stm32g4xx_ll_usart.h ****   * @{
 287:Drivers/STM32G4xx_HAL_Driver/Inc/stm32g4xx_ll_usart.h ****   */
 288:Drivers/STM32G4xx_HAL_Driver/Inc/stm32g4xx_ll_usart.h **** #define LL_USART_DIRECTION_NONE                 0x00000000U                        /*!< Transmitter
 289:Drivers/STM32G4xx_HAL_Driver/Inc/stm32g4xx_ll_usart.h **** #define LL_USART_DIRECTION_RX                   USART_CR1_RE                       /*!< Transmitter
 290:Drivers/STM32G4xx_HAL_Driver/Inc/stm32g4xx_ll_usart.h **** #define LL_USART_DIRECTION_TX                   USART_CR1_TE                       /*!< Transmitter
 291:Drivers/STM32G4xx_HAL_Driver/Inc/stm32g4xx_ll_usart.h **** #define LL_USART_DIRECTION_TX_RX                (USART_CR1_TE |USART_CR1_RE)       /*!< Transmitter
 292:Drivers/STM32G4xx_HAL_Driver/Inc/stm32g4xx_ll_usart.h **** /**
 293:Drivers/STM32G4xx_HAL_Driver/Inc/stm32g4xx_ll_usart.h ****   * @}
 294:Drivers/STM32G4xx_HAL_Driver/Inc/stm32g4xx_ll_usart.h ****   */
 295:Drivers/STM32G4xx_HAL_Driver/Inc/stm32g4xx_ll_usart.h **** 
 296:Drivers/STM32G4xx_HAL_Driver/Inc/stm32g4xx_ll_usart.h **** /** @defgroup USART_LL_EC_PARITY Parity Control
 297:Drivers/STM32G4xx_HAL_Driver/Inc/stm32g4xx_ll_usart.h ****   * @{
 298:Drivers/STM32G4xx_HAL_Driver/Inc/stm32g4xx_ll_usart.h ****   */
 299:Drivers/STM32G4xx_HAL_Driver/Inc/stm32g4xx_ll_usart.h **** #define LL_USART_PARITY_NONE                    0x00000000U                          /*!< Parity co
 300:Drivers/STM32G4xx_HAL_Driver/Inc/stm32g4xx_ll_usart.h **** #define LL_USART_PARITY_EVEN                    USART_CR1_PCE                        /*!< Parity co
 301:Drivers/STM32G4xx_HAL_Driver/Inc/stm32g4xx_ll_usart.h **** #define LL_USART_PARITY_ODD                     (USART_CR1_PCE | USART_CR1_PS)       /*!< Parity co
ARM GAS  /tmp/cc9n8VrH.s 			page 7


 302:Drivers/STM32G4xx_HAL_Driver/Inc/stm32g4xx_ll_usart.h **** /**
 303:Drivers/STM32G4xx_HAL_Driver/Inc/stm32g4xx_ll_usart.h ****   * @}
 304:Drivers/STM32G4xx_HAL_Driver/Inc/stm32g4xx_ll_usart.h ****   */
 305:Drivers/STM32G4xx_HAL_Driver/Inc/stm32g4xx_ll_usart.h **** 
 306:Drivers/STM32G4xx_HAL_Driver/Inc/stm32g4xx_ll_usart.h **** /** @defgroup USART_LL_EC_WAKEUP Wakeup
 307:Drivers/STM32G4xx_HAL_Driver/Inc/stm32g4xx_ll_usart.h ****   * @{
 308:Drivers/STM32G4xx_HAL_Driver/Inc/stm32g4xx_ll_usart.h ****   */
 309:Drivers/STM32G4xx_HAL_Driver/Inc/stm32g4xx_ll_usart.h **** #define LL_USART_WAKEUP_IDLELINE                0x00000000U           /*!<  USART wake up from Mute
 310:Drivers/STM32G4xx_HAL_Driver/Inc/stm32g4xx_ll_usart.h **** #define LL_USART_WAKEUP_ADDRESSMARK             USART_CR1_WAKE        /*!<  USART wake up from Mute
 311:Drivers/STM32G4xx_HAL_Driver/Inc/stm32g4xx_ll_usart.h **** /**
 312:Drivers/STM32G4xx_HAL_Driver/Inc/stm32g4xx_ll_usart.h ****   * @}
 313:Drivers/STM32G4xx_HAL_Driver/Inc/stm32g4xx_ll_usart.h ****   */
 314:Drivers/STM32G4xx_HAL_Driver/Inc/stm32g4xx_ll_usart.h **** 
 315:Drivers/STM32G4xx_HAL_Driver/Inc/stm32g4xx_ll_usart.h **** /** @defgroup USART_LL_EC_DATAWIDTH Datawidth
 316:Drivers/STM32G4xx_HAL_Driver/Inc/stm32g4xx_ll_usart.h ****   * @{
 317:Drivers/STM32G4xx_HAL_Driver/Inc/stm32g4xx_ll_usart.h ****   */
 318:Drivers/STM32G4xx_HAL_Driver/Inc/stm32g4xx_ll_usart.h **** #define LL_USART_DATAWIDTH_7B                   USART_CR1_M1            /*!< 7 bits word length : S
 319:Drivers/STM32G4xx_HAL_Driver/Inc/stm32g4xx_ll_usart.h **** #define LL_USART_DATAWIDTH_8B                   0x00000000U             /*!< 8 bits word length : S
 320:Drivers/STM32G4xx_HAL_Driver/Inc/stm32g4xx_ll_usart.h **** #define LL_USART_DATAWIDTH_9B                   USART_CR1_M0            /*!< 9 bits word length : S
 321:Drivers/STM32G4xx_HAL_Driver/Inc/stm32g4xx_ll_usart.h **** /**
 322:Drivers/STM32G4xx_HAL_Driver/Inc/stm32g4xx_ll_usart.h ****   * @}
 323:Drivers/STM32G4xx_HAL_Driver/Inc/stm32g4xx_ll_usart.h ****   */
 324:Drivers/STM32G4xx_HAL_Driver/Inc/stm32g4xx_ll_usart.h **** 
 325:Drivers/STM32G4xx_HAL_Driver/Inc/stm32g4xx_ll_usart.h **** /** @defgroup USART_LL_EC_OVERSAMPLING Oversampling
 326:Drivers/STM32G4xx_HAL_Driver/Inc/stm32g4xx_ll_usart.h ****   * @{
 327:Drivers/STM32G4xx_HAL_Driver/Inc/stm32g4xx_ll_usart.h ****   */
 328:Drivers/STM32G4xx_HAL_Driver/Inc/stm32g4xx_ll_usart.h **** #define LL_USART_OVERSAMPLING_16                0x00000000U            /*!< Oversampling by 16 */
 329:Drivers/STM32G4xx_HAL_Driver/Inc/stm32g4xx_ll_usart.h **** #define LL_USART_OVERSAMPLING_8                 USART_CR1_OVER8        /*!< Oversampling by 8 */
 330:Drivers/STM32G4xx_HAL_Driver/Inc/stm32g4xx_ll_usart.h **** /**
 331:Drivers/STM32G4xx_HAL_Driver/Inc/stm32g4xx_ll_usart.h ****   * @}
 332:Drivers/STM32G4xx_HAL_Driver/Inc/stm32g4xx_ll_usart.h ****   */
 333:Drivers/STM32G4xx_HAL_Driver/Inc/stm32g4xx_ll_usart.h **** 
 334:Drivers/STM32G4xx_HAL_Driver/Inc/stm32g4xx_ll_usart.h **** #if defined(USE_FULL_LL_DRIVER)
 335:Drivers/STM32G4xx_HAL_Driver/Inc/stm32g4xx_ll_usart.h **** /** @defgroup USART_LL_EC_CLOCK Clock Signal
 336:Drivers/STM32G4xx_HAL_Driver/Inc/stm32g4xx_ll_usart.h ****   * @{
 337:Drivers/STM32G4xx_HAL_Driver/Inc/stm32g4xx_ll_usart.h ****   */
 338:Drivers/STM32G4xx_HAL_Driver/Inc/stm32g4xx_ll_usart.h **** 
 339:Drivers/STM32G4xx_HAL_Driver/Inc/stm32g4xx_ll_usart.h **** #define LL_USART_CLOCK_DISABLE                  0x00000000U            /*!< Clock signal not provid
 340:Drivers/STM32G4xx_HAL_Driver/Inc/stm32g4xx_ll_usart.h **** #define LL_USART_CLOCK_ENABLE                   USART_CR2_CLKEN        /*!< Clock signal provided *
 341:Drivers/STM32G4xx_HAL_Driver/Inc/stm32g4xx_ll_usart.h **** /**
 342:Drivers/STM32G4xx_HAL_Driver/Inc/stm32g4xx_ll_usart.h ****   * @}
 343:Drivers/STM32G4xx_HAL_Driver/Inc/stm32g4xx_ll_usart.h ****   */
 344:Drivers/STM32G4xx_HAL_Driver/Inc/stm32g4xx_ll_usart.h **** #endif /*USE_FULL_LL_DRIVER*/
 345:Drivers/STM32G4xx_HAL_Driver/Inc/stm32g4xx_ll_usart.h **** 
 346:Drivers/STM32G4xx_HAL_Driver/Inc/stm32g4xx_ll_usart.h **** /** @defgroup USART_LL_EC_LASTCLKPULSE Last Clock Pulse
 347:Drivers/STM32G4xx_HAL_Driver/Inc/stm32g4xx_ll_usart.h ****   * @{
 348:Drivers/STM32G4xx_HAL_Driver/Inc/stm32g4xx_ll_usart.h ****   */
 349:Drivers/STM32G4xx_HAL_Driver/Inc/stm32g4xx_ll_usart.h **** #define LL_USART_LASTCLKPULSE_NO_OUTPUT         0x00000000U           /*!< The clock pulse of the l
 350:Drivers/STM32G4xx_HAL_Driver/Inc/stm32g4xx_ll_usart.h **** #define LL_USART_LASTCLKPULSE_OUTPUT            USART_CR2_LBCL        /*!< The clock pulse of the l
 351:Drivers/STM32G4xx_HAL_Driver/Inc/stm32g4xx_ll_usart.h **** /**
 352:Drivers/STM32G4xx_HAL_Driver/Inc/stm32g4xx_ll_usart.h ****   * @}
 353:Drivers/STM32G4xx_HAL_Driver/Inc/stm32g4xx_ll_usart.h ****   */
 354:Drivers/STM32G4xx_HAL_Driver/Inc/stm32g4xx_ll_usart.h **** 
 355:Drivers/STM32G4xx_HAL_Driver/Inc/stm32g4xx_ll_usart.h **** /** @defgroup USART_LL_EC_PHASE Clock Phase
 356:Drivers/STM32G4xx_HAL_Driver/Inc/stm32g4xx_ll_usart.h ****   * @{
 357:Drivers/STM32G4xx_HAL_Driver/Inc/stm32g4xx_ll_usart.h ****   */
 358:Drivers/STM32G4xx_HAL_Driver/Inc/stm32g4xx_ll_usart.h **** #define LL_USART_PHASE_1EDGE                    0x00000000U           /*!< The first clock transiti
ARM GAS  /tmp/cc9n8VrH.s 			page 8


 359:Drivers/STM32G4xx_HAL_Driver/Inc/stm32g4xx_ll_usart.h **** #define LL_USART_PHASE_2EDGE                    USART_CR2_CPHA        /*!< The second clock transit
 360:Drivers/STM32G4xx_HAL_Driver/Inc/stm32g4xx_ll_usart.h **** /**
 361:Drivers/STM32G4xx_HAL_Driver/Inc/stm32g4xx_ll_usart.h ****   * @}
 362:Drivers/STM32G4xx_HAL_Driver/Inc/stm32g4xx_ll_usart.h ****   */
 363:Drivers/STM32G4xx_HAL_Driver/Inc/stm32g4xx_ll_usart.h **** 
 364:Drivers/STM32G4xx_HAL_Driver/Inc/stm32g4xx_ll_usart.h **** /** @defgroup USART_LL_EC_POLARITY Clock Polarity
 365:Drivers/STM32G4xx_HAL_Driver/Inc/stm32g4xx_ll_usart.h ****   * @{
 366:Drivers/STM32G4xx_HAL_Driver/Inc/stm32g4xx_ll_usart.h ****   */
 367:Drivers/STM32G4xx_HAL_Driver/Inc/stm32g4xx_ll_usart.h **** #define LL_USART_POLARITY_LOW                   0x00000000U           /*!< Steady low value on SCLK
 368:Drivers/STM32G4xx_HAL_Driver/Inc/stm32g4xx_ll_usart.h **** #define LL_USART_POLARITY_HIGH                  USART_CR2_CPOL        /*!< Steady high value on SCL
 369:Drivers/STM32G4xx_HAL_Driver/Inc/stm32g4xx_ll_usart.h **** /**
 370:Drivers/STM32G4xx_HAL_Driver/Inc/stm32g4xx_ll_usart.h ****   * @}
 371:Drivers/STM32G4xx_HAL_Driver/Inc/stm32g4xx_ll_usart.h ****   */
 372:Drivers/STM32G4xx_HAL_Driver/Inc/stm32g4xx_ll_usart.h **** 
 373:Drivers/STM32G4xx_HAL_Driver/Inc/stm32g4xx_ll_usart.h **** /** @defgroup USART_LL_EC_PRESCALER Clock Source Prescaler
 374:Drivers/STM32G4xx_HAL_Driver/Inc/stm32g4xx_ll_usart.h ****   * @{
 375:Drivers/STM32G4xx_HAL_Driver/Inc/stm32g4xx_ll_usart.h ****   */
 376:Drivers/STM32G4xx_HAL_Driver/Inc/stm32g4xx_ll_usart.h **** #define LL_USART_PRESCALER_DIV1                 0x00000000U                                        
 377:Drivers/STM32G4xx_HAL_Driver/Inc/stm32g4xx_ll_usart.h **** #define LL_USART_PRESCALER_DIV2                 (USART_PRESC_PRESCALER_0)                          
 378:Drivers/STM32G4xx_HAL_Driver/Inc/stm32g4xx_ll_usart.h **** #define LL_USART_PRESCALER_DIV4                 (USART_PRESC_PRESCALER_1)                          
 379:Drivers/STM32G4xx_HAL_Driver/Inc/stm32g4xx_ll_usart.h **** #define LL_USART_PRESCALER_DIV6                 (USART_PRESC_PRESCALER_1 | USART_PRESC_PRESCALER_0)
 380:Drivers/STM32G4xx_HAL_Driver/Inc/stm32g4xx_ll_usart.h **** #define LL_USART_PRESCALER_DIV8                 (USART_PRESC_PRESCALER_2)                          
 381:Drivers/STM32G4xx_HAL_Driver/Inc/stm32g4xx_ll_usart.h **** #define LL_USART_PRESCALER_DIV10                (USART_PRESC_PRESCALER_2 | USART_PRESC_PRESCALER_0)
 382:Drivers/STM32G4xx_HAL_Driver/Inc/stm32g4xx_ll_usart.h **** #define LL_USART_PRESCALER_DIV12                (USART_PRESC_PRESCALER_2 | USART_PRESC_PRESCALER_1)
 383:Drivers/STM32G4xx_HAL_Driver/Inc/stm32g4xx_ll_usart.h **** #define LL_USART_PRESCALER_DIV16                (USART_PRESC_PRESCALER_2 | USART_PRESC_PRESCALER_1 
 384:Drivers/STM32G4xx_HAL_Driver/Inc/stm32g4xx_ll_usart.h **** #define LL_USART_PRESCALER_DIV32                (USART_PRESC_PRESCALER_3)                          
 385:Drivers/STM32G4xx_HAL_Driver/Inc/stm32g4xx_ll_usart.h **** #define LL_USART_PRESCALER_DIV64                (USART_PRESC_PRESCALER_3 | USART_PRESC_PRESCALER_0)
 386:Drivers/STM32G4xx_HAL_Driver/Inc/stm32g4xx_ll_usart.h **** #define LL_USART_PRESCALER_DIV128               (USART_PRESC_PRESCALER_3 | USART_PRESC_PRESCALER_1)
 387:Drivers/STM32G4xx_HAL_Driver/Inc/stm32g4xx_ll_usart.h **** #define LL_USART_PRESCALER_DIV256               (USART_PRESC_PRESCALER_3 | USART_PRESC_PRESCALER_1 
 388:Drivers/STM32G4xx_HAL_Driver/Inc/stm32g4xx_ll_usart.h **** /**
 389:Drivers/STM32G4xx_HAL_Driver/Inc/stm32g4xx_ll_usart.h ****   * @}
 390:Drivers/STM32G4xx_HAL_Driver/Inc/stm32g4xx_ll_usart.h ****   */
 391:Drivers/STM32G4xx_HAL_Driver/Inc/stm32g4xx_ll_usart.h **** 
 392:Drivers/STM32G4xx_HAL_Driver/Inc/stm32g4xx_ll_usart.h **** /** @defgroup USART_LL_EC_STOPBITS Stop Bits
 393:Drivers/STM32G4xx_HAL_Driver/Inc/stm32g4xx_ll_usart.h ****   * @{
 394:Drivers/STM32G4xx_HAL_Driver/Inc/stm32g4xx_ll_usart.h ****   */
 395:Drivers/STM32G4xx_HAL_Driver/Inc/stm32g4xx_ll_usart.h **** #define LL_USART_STOPBITS_0_5                   USART_CR2_STOP_0                           /*!< 0.5
 396:Drivers/STM32G4xx_HAL_Driver/Inc/stm32g4xx_ll_usart.h **** #define LL_USART_STOPBITS_1                     0x00000000U                                /*!< 1 s
 397:Drivers/STM32G4xx_HAL_Driver/Inc/stm32g4xx_ll_usart.h **** #define LL_USART_STOPBITS_1_5                   (USART_CR2_STOP_0 | USART_CR2_STOP_1)      /*!< 1.5
 398:Drivers/STM32G4xx_HAL_Driver/Inc/stm32g4xx_ll_usart.h **** #define LL_USART_STOPBITS_2                     USART_CR2_STOP_1                           /*!< 2 s
 399:Drivers/STM32G4xx_HAL_Driver/Inc/stm32g4xx_ll_usart.h **** /**
 400:Drivers/STM32G4xx_HAL_Driver/Inc/stm32g4xx_ll_usart.h ****   * @}
 401:Drivers/STM32G4xx_HAL_Driver/Inc/stm32g4xx_ll_usart.h ****   */
 402:Drivers/STM32G4xx_HAL_Driver/Inc/stm32g4xx_ll_usart.h **** 
 403:Drivers/STM32G4xx_HAL_Driver/Inc/stm32g4xx_ll_usart.h **** /** @defgroup USART_LL_EC_TXRX TX RX Pins Swap
 404:Drivers/STM32G4xx_HAL_Driver/Inc/stm32g4xx_ll_usart.h ****   * @{
 405:Drivers/STM32G4xx_HAL_Driver/Inc/stm32g4xx_ll_usart.h ****   */
 406:Drivers/STM32G4xx_HAL_Driver/Inc/stm32g4xx_ll_usart.h **** #define LL_USART_TXRX_STANDARD                  0x00000000U           /*!< TX/RX pins are used as d
 407:Drivers/STM32G4xx_HAL_Driver/Inc/stm32g4xx_ll_usart.h **** #define LL_USART_TXRX_SWAPPED                   (USART_CR2_SWAP)      /*!< TX and RX pins functions
 408:Drivers/STM32G4xx_HAL_Driver/Inc/stm32g4xx_ll_usart.h **** /**
 409:Drivers/STM32G4xx_HAL_Driver/Inc/stm32g4xx_ll_usart.h ****   * @}
 410:Drivers/STM32G4xx_HAL_Driver/Inc/stm32g4xx_ll_usart.h ****   */
 411:Drivers/STM32G4xx_HAL_Driver/Inc/stm32g4xx_ll_usart.h **** 
 412:Drivers/STM32G4xx_HAL_Driver/Inc/stm32g4xx_ll_usart.h **** /** @defgroup USART_LL_EC_RXPIN_LEVEL RX Pin Active Level Inversion
 413:Drivers/STM32G4xx_HAL_Driver/Inc/stm32g4xx_ll_usart.h ****   * @{
 414:Drivers/STM32G4xx_HAL_Driver/Inc/stm32g4xx_ll_usart.h ****   */
 415:Drivers/STM32G4xx_HAL_Driver/Inc/stm32g4xx_ll_usart.h **** #define LL_USART_RXPIN_LEVEL_STANDARD           0x00000000U           /*!< RX pin signal works usin
ARM GAS  /tmp/cc9n8VrH.s 			page 9


 416:Drivers/STM32G4xx_HAL_Driver/Inc/stm32g4xx_ll_usart.h **** #define LL_USART_RXPIN_LEVEL_INVERTED           (USART_CR2_RXINV)     /*!< RX pin signal values are
 417:Drivers/STM32G4xx_HAL_Driver/Inc/stm32g4xx_ll_usart.h **** /**
 418:Drivers/STM32G4xx_HAL_Driver/Inc/stm32g4xx_ll_usart.h ****   * @}
 419:Drivers/STM32G4xx_HAL_Driver/Inc/stm32g4xx_ll_usart.h ****   */
 420:Drivers/STM32G4xx_HAL_Driver/Inc/stm32g4xx_ll_usart.h **** 
 421:Drivers/STM32G4xx_HAL_Driver/Inc/stm32g4xx_ll_usart.h **** /** @defgroup USART_LL_EC_TXPIN_LEVEL TX Pin Active Level Inversion
 422:Drivers/STM32G4xx_HAL_Driver/Inc/stm32g4xx_ll_usart.h ****   * @{
 423:Drivers/STM32G4xx_HAL_Driver/Inc/stm32g4xx_ll_usart.h ****   */
 424:Drivers/STM32G4xx_HAL_Driver/Inc/stm32g4xx_ll_usart.h **** #define LL_USART_TXPIN_LEVEL_STANDARD           0x00000000U           /*!< TX pin signal works usin
 425:Drivers/STM32G4xx_HAL_Driver/Inc/stm32g4xx_ll_usart.h **** #define LL_USART_TXPIN_LEVEL_INVERTED           (USART_CR2_TXINV)     /*!< TX pin signal values are
 426:Drivers/STM32G4xx_HAL_Driver/Inc/stm32g4xx_ll_usart.h **** /**
 427:Drivers/STM32G4xx_HAL_Driver/Inc/stm32g4xx_ll_usart.h ****   * @}
 428:Drivers/STM32G4xx_HAL_Driver/Inc/stm32g4xx_ll_usart.h ****   */
 429:Drivers/STM32G4xx_HAL_Driver/Inc/stm32g4xx_ll_usart.h **** 
 430:Drivers/STM32G4xx_HAL_Driver/Inc/stm32g4xx_ll_usart.h **** /** @defgroup USART_LL_EC_BINARY_LOGIC Binary Data Inversion
 431:Drivers/STM32G4xx_HAL_Driver/Inc/stm32g4xx_ll_usart.h ****   * @{
 432:Drivers/STM32G4xx_HAL_Driver/Inc/stm32g4xx_ll_usart.h ****   */
 433:Drivers/STM32G4xx_HAL_Driver/Inc/stm32g4xx_ll_usart.h **** #define LL_USART_BINARY_LOGIC_POSITIVE          0x00000000U           /*!< Logical data from the da
 434:Drivers/STM32G4xx_HAL_Driver/Inc/stm32g4xx_ll_usart.h **** #define LL_USART_BINARY_LOGIC_NEGATIVE          USART_CR2_DATAINV     /*!< Logical data from the da
 435:Drivers/STM32G4xx_HAL_Driver/Inc/stm32g4xx_ll_usart.h **** /**
 436:Drivers/STM32G4xx_HAL_Driver/Inc/stm32g4xx_ll_usart.h ****   * @}
 437:Drivers/STM32G4xx_HAL_Driver/Inc/stm32g4xx_ll_usart.h ****   */
 438:Drivers/STM32G4xx_HAL_Driver/Inc/stm32g4xx_ll_usart.h **** 
 439:Drivers/STM32G4xx_HAL_Driver/Inc/stm32g4xx_ll_usart.h **** /** @defgroup USART_LL_EC_BITORDER Bit Order
 440:Drivers/STM32G4xx_HAL_Driver/Inc/stm32g4xx_ll_usart.h ****   * @{
 441:Drivers/STM32G4xx_HAL_Driver/Inc/stm32g4xx_ll_usart.h ****   */
 442:Drivers/STM32G4xx_HAL_Driver/Inc/stm32g4xx_ll_usart.h **** #define LL_USART_BITORDER_LSBFIRST              0x00000000U           /*!< data is transmitted/rece
 443:Drivers/STM32G4xx_HAL_Driver/Inc/stm32g4xx_ll_usart.h **** #define LL_USART_BITORDER_MSBFIRST              USART_CR2_MSBFIRST    /*!< data is transmitted/rece
 444:Drivers/STM32G4xx_HAL_Driver/Inc/stm32g4xx_ll_usart.h **** /**
 445:Drivers/STM32G4xx_HAL_Driver/Inc/stm32g4xx_ll_usart.h ****   * @}
 446:Drivers/STM32G4xx_HAL_Driver/Inc/stm32g4xx_ll_usart.h ****   */
 447:Drivers/STM32G4xx_HAL_Driver/Inc/stm32g4xx_ll_usart.h **** 
 448:Drivers/STM32G4xx_HAL_Driver/Inc/stm32g4xx_ll_usart.h **** /** @defgroup USART_LL_EC_AUTOBAUD_DETECT_ON Autobaud Detection
 449:Drivers/STM32G4xx_HAL_Driver/Inc/stm32g4xx_ll_usart.h ****   * @{
 450:Drivers/STM32G4xx_HAL_Driver/Inc/stm32g4xx_ll_usart.h ****   */
 451:Drivers/STM32G4xx_HAL_Driver/Inc/stm32g4xx_ll_usart.h **** #define LL_USART_AUTOBAUD_DETECT_ON_STARTBIT    0x00000000U                                 /*!< Me
 452:Drivers/STM32G4xx_HAL_Driver/Inc/stm32g4xx_ll_usart.h **** #define LL_USART_AUTOBAUD_DETECT_ON_FALLINGEDGE USART_CR2_ABRMODE_0                         /*!< Fa
 453:Drivers/STM32G4xx_HAL_Driver/Inc/stm32g4xx_ll_usart.h **** #define LL_USART_AUTOBAUD_DETECT_ON_7F_FRAME    USART_CR2_ABRMODE_1                         /*!< 0x
 454:Drivers/STM32G4xx_HAL_Driver/Inc/stm32g4xx_ll_usart.h **** #define LL_USART_AUTOBAUD_DETECT_ON_55_FRAME    (USART_CR2_ABRMODE_1 | USART_CR2_ABRMODE_0) /*!< 0x
 455:Drivers/STM32G4xx_HAL_Driver/Inc/stm32g4xx_ll_usart.h **** /**
 456:Drivers/STM32G4xx_HAL_Driver/Inc/stm32g4xx_ll_usart.h ****   * @}
 457:Drivers/STM32G4xx_HAL_Driver/Inc/stm32g4xx_ll_usart.h ****   */
 458:Drivers/STM32G4xx_HAL_Driver/Inc/stm32g4xx_ll_usart.h **** 
 459:Drivers/STM32G4xx_HAL_Driver/Inc/stm32g4xx_ll_usart.h **** /** @defgroup USART_LL_EC_ADDRESS_DETECT Address Length Detection
 460:Drivers/STM32G4xx_HAL_Driver/Inc/stm32g4xx_ll_usart.h ****   * @{
 461:Drivers/STM32G4xx_HAL_Driver/Inc/stm32g4xx_ll_usart.h ****   */
 462:Drivers/STM32G4xx_HAL_Driver/Inc/stm32g4xx_ll_usart.h **** #define LL_USART_ADDRESS_DETECT_4B              0x00000000U           /*!< 4-bit address detection 
 463:Drivers/STM32G4xx_HAL_Driver/Inc/stm32g4xx_ll_usart.h **** #define LL_USART_ADDRESS_DETECT_7B              USART_CR2_ADDM7       /*!< 7-bit address detection 
 464:Drivers/STM32G4xx_HAL_Driver/Inc/stm32g4xx_ll_usart.h **** /**
 465:Drivers/STM32G4xx_HAL_Driver/Inc/stm32g4xx_ll_usart.h ****   * @}
 466:Drivers/STM32G4xx_HAL_Driver/Inc/stm32g4xx_ll_usart.h ****   */
 467:Drivers/STM32G4xx_HAL_Driver/Inc/stm32g4xx_ll_usart.h **** 
 468:Drivers/STM32G4xx_HAL_Driver/Inc/stm32g4xx_ll_usart.h **** /** @defgroup USART_LL_EC_HWCONTROL Hardware Control
 469:Drivers/STM32G4xx_HAL_Driver/Inc/stm32g4xx_ll_usart.h ****   * @{
 470:Drivers/STM32G4xx_HAL_Driver/Inc/stm32g4xx_ll_usart.h ****   */
 471:Drivers/STM32G4xx_HAL_Driver/Inc/stm32g4xx_ll_usart.h **** #define LL_USART_HWCONTROL_NONE                 0x00000000U                          /*!< CTS and R
 472:Drivers/STM32G4xx_HAL_Driver/Inc/stm32g4xx_ll_usart.h **** #define LL_USART_HWCONTROL_RTS                  USART_CR3_RTSE                       /*!< RTS outpu
ARM GAS  /tmp/cc9n8VrH.s 			page 10


 473:Drivers/STM32G4xx_HAL_Driver/Inc/stm32g4xx_ll_usart.h **** #define LL_USART_HWCONTROL_CTS                  USART_CR3_CTSE                       /*!< CTS mode 
 474:Drivers/STM32G4xx_HAL_Driver/Inc/stm32g4xx_ll_usart.h **** #define LL_USART_HWCONTROL_RTS_CTS              (USART_CR3_RTSE | USART_CR3_CTSE)    /*!< CTS and R
 475:Drivers/STM32G4xx_HAL_Driver/Inc/stm32g4xx_ll_usart.h **** /**
 476:Drivers/STM32G4xx_HAL_Driver/Inc/stm32g4xx_ll_usart.h ****   * @}
 477:Drivers/STM32G4xx_HAL_Driver/Inc/stm32g4xx_ll_usart.h ****   */
 478:Drivers/STM32G4xx_HAL_Driver/Inc/stm32g4xx_ll_usart.h **** 
 479:Drivers/STM32G4xx_HAL_Driver/Inc/stm32g4xx_ll_usart.h **** /** @defgroup USART_LL_EC_WAKEUP_ON Wakeup Activation
 480:Drivers/STM32G4xx_HAL_Driver/Inc/stm32g4xx_ll_usart.h ****   * @{
 481:Drivers/STM32G4xx_HAL_Driver/Inc/stm32g4xx_ll_usart.h ****   */
 482:Drivers/STM32G4xx_HAL_Driver/Inc/stm32g4xx_ll_usart.h **** #define LL_USART_WAKEUP_ON_ADDRESS              0x00000000U                             /*!< Wake u
 483:Drivers/STM32G4xx_HAL_Driver/Inc/stm32g4xx_ll_usart.h **** #define LL_USART_WAKEUP_ON_STARTBIT             USART_CR3_WUS_1                         /*!< Wake u
 484:Drivers/STM32G4xx_HAL_Driver/Inc/stm32g4xx_ll_usart.h **** #define LL_USART_WAKEUP_ON_RXNE                 (USART_CR3_WUS_0 | USART_CR3_WUS_1)     /*!< Wake u
 485:Drivers/STM32G4xx_HAL_Driver/Inc/stm32g4xx_ll_usart.h **** /**
 486:Drivers/STM32G4xx_HAL_Driver/Inc/stm32g4xx_ll_usart.h ****   * @}
 487:Drivers/STM32G4xx_HAL_Driver/Inc/stm32g4xx_ll_usart.h ****   */
 488:Drivers/STM32G4xx_HAL_Driver/Inc/stm32g4xx_ll_usart.h **** 
 489:Drivers/STM32G4xx_HAL_Driver/Inc/stm32g4xx_ll_usart.h **** /** @defgroup USART_LL_EC_IRDA_POWER IrDA Power
 490:Drivers/STM32G4xx_HAL_Driver/Inc/stm32g4xx_ll_usart.h ****   * @{
 491:Drivers/STM32G4xx_HAL_Driver/Inc/stm32g4xx_ll_usart.h ****   */
 492:Drivers/STM32G4xx_HAL_Driver/Inc/stm32g4xx_ll_usart.h **** #define LL_USART_IRDA_POWER_NORMAL              0x00000000U           /*!< IrDA normal power mode *
 493:Drivers/STM32G4xx_HAL_Driver/Inc/stm32g4xx_ll_usart.h **** #define LL_USART_IRDA_POWER_LOW                 USART_CR3_IRLP        /*!< IrDA low power mode */
 494:Drivers/STM32G4xx_HAL_Driver/Inc/stm32g4xx_ll_usart.h **** /**
 495:Drivers/STM32G4xx_HAL_Driver/Inc/stm32g4xx_ll_usart.h ****   * @}
 496:Drivers/STM32G4xx_HAL_Driver/Inc/stm32g4xx_ll_usart.h ****   */
 497:Drivers/STM32G4xx_HAL_Driver/Inc/stm32g4xx_ll_usart.h **** 
 498:Drivers/STM32G4xx_HAL_Driver/Inc/stm32g4xx_ll_usart.h **** /** @defgroup USART_LL_EC_LINBREAK_DETECT LIN Break Detection Length
 499:Drivers/STM32G4xx_HAL_Driver/Inc/stm32g4xx_ll_usart.h ****   * @{
 500:Drivers/STM32G4xx_HAL_Driver/Inc/stm32g4xx_ll_usart.h ****   */
 501:Drivers/STM32G4xx_HAL_Driver/Inc/stm32g4xx_ll_usart.h **** #define LL_USART_LINBREAK_DETECT_10B            0x00000000U           /*!< 10-bit break detection m
 502:Drivers/STM32G4xx_HAL_Driver/Inc/stm32g4xx_ll_usart.h **** #define LL_USART_LINBREAK_DETECT_11B            USART_CR2_LBDL        /*!< 11-bit break detection m
 503:Drivers/STM32G4xx_HAL_Driver/Inc/stm32g4xx_ll_usart.h **** /**
 504:Drivers/STM32G4xx_HAL_Driver/Inc/stm32g4xx_ll_usart.h ****   * @}
 505:Drivers/STM32G4xx_HAL_Driver/Inc/stm32g4xx_ll_usart.h ****   */
 506:Drivers/STM32G4xx_HAL_Driver/Inc/stm32g4xx_ll_usart.h **** 
 507:Drivers/STM32G4xx_HAL_Driver/Inc/stm32g4xx_ll_usart.h **** /** @defgroup USART_LL_EC_DE_POLARITY Driver Enable Polarity
 508:Drivers/STM32G4xx_HAL_Driver/Inc/stm32g4xx_ll_usart.h ****   * @{
 509:Drivers/STM32G4xx_HAL_Driver/Inc/stm32g4xx_ll_usart.h ****   */
 510:Drivers/STM32G4xx_HAL_Driver/Inc/stm32g4xx_ll_usart.h **** #define LL_USART_DE_POLARITY_HIGH               0x00000000U           /*!< DE signal is active high
 511:Drivers/STM32G4xx_HAL_Driver/Inc/stm32g4xx_ll_usart.h **** #define LL_USART_DE_POLARITY_LOW                USART_CR3_DEP         /*!< DE signal is active low 
 512:Drivers/STM32G4xx_HAL_Driver/Inc/stm32g4xx_ll_usart.h **** /**
 513:Drivers/STM32G4xx_HAL_Driver/Inc/stm32g4xx_ll_usart.h ****   * @}
 514:Drivers/STM32G4xx_HAL_Driver/Inc/stm32g4xx_ll_usart.h ****   */
 515:Drivers/STM32G4xx_HAL_Driver/Inc/stm32g4xx_ll_usart.h **** 
 516:Drivers/STM32G4xx_HAL_Driver/Inc/stm32g4xx_ll_usart.h **** /** @defgroup USART_LL_EC_DMA_REG_DATA DMA Register Data
 517:Drivers/STM32G4xx_HAL_Driver/Inc/stm32g4xx_ll_usart.h ****   * @{
 518:Drivers/STM32G4xx_HAL_Driver/Inc/stm32g4xx_ll_usart.h ****   */
 519:Drivers/STM32G4xx_HAL_Driver/Inc/stm32g4xx_ll_usart.h **** #define LL_USART_DMA_REG_DATA_TRANSMIT          0x00000000U          /*!< Get address of data regis
 520:Drivers/STM32G4xx_HAL_Driver/Inc/stm32g4xx_ll_usart.h **** #define LL_USART_DMA_REG_DATA_RECEIVE           0x00000001U          /*!< Get address of data regis
 521:Drivers/STM32G4xx_HAL_Driver/Inc/stm32g4xx_ll_usart.h **** /**
 522:Drivers/STM32G4xx_HAL_Driver/Inc/stm32g4xx_ll_usart.h ****   * @}
 523:Drivers/STM32G4xx_HAL_Driver/Inc/stm32g4xx_ll_usart.h ****   */
 524:Drivers/STM32G4xx_HAL_Driver/Inc/stm32g4xx_ll_usart.h **** 
 525:Drivers/STM32G4xx_HAL_Driver/Inc/stm32g4xx_ll_usart.h **** /**
 526:Drivers/STM32G4xx_HAL_Driver/Inc/stm32g4xx_ll_usart.h ****   * @}
 527:Drivers/STM32G4xx_HAL_Driver/Inc/stm32g4xx_ll_usart.h ****   */
 528:Drivers/STM32G4xx_HAL_Driver/Inc/stm32g4xx_ll_usart.h **** 
 529:Drivers/STM32G4xx_HAL_Driver/Inc/stm32g4xx_ll_usart.h **** /* Exported macro ------------------------------------------------------------*/
ARM GAS  /tmp/cc9n8VrH.s 			page 11


 530:Drivers/STM32G4xx_HAL_Driver/Inc/stm32g4xx_ll_usart.h **** /** @defgroup USART_LL_Exported_Macros USART Exported Macros
 531:Drivers/STM32G4xx_HAL_Driver/Inc/stm32g4xx_ll_usart.h ****   * @{
 532:Drivers/STM32G4xx_HAL_Driver/Inc/stm32g4xx_ll_usart.h ****   */
 533:Drivers/STM32G4xx_HAL_Driver/Inc/stm32g4xx_ll_usart.h **** 
 534:Drivers/STM32G4xx_HAL_Driver/Inc/stm32g4xx_ll_usart.h **** /** @defgroup USART_LL_EM_WRITE_READ Common Write and read registers Macros
 535:Drivers/STM32G4xx_HAL_Driver/Inc/stm32g4xx_ll_usart.h ****   * @{
 536:Drivers/STM32G4xx_HAL_Driver/Inc/stm32g4xx_ll_usart.h ****   */
 537:Drivers/STM32G4xx_HAL_Driver/Inc/stm32g4xx_ll_usart.h **** 
 538:Drivers/STM32G4xx_HAL_Driver/Inc/stm32g4xx_ll_usart.h **** /**
 539:Drivers/STM32G4xx_HAL_Driver/Inc/stm32g4xx_ll_usart.h ****   * @brief  Write a value in USART register
 540:Drivers/STM32G4xx_HAL_Driver/Inc/stm32g4xx_ll_usart.h ****   * @param  __INSTANCE__ USART Instance
 541:Drivers/STM32G4xx_HAL_Driver/Inc/stm32g4xx_ll_usart.h ****   * @param  __REG__ Register to be written
 542:Drivers/STM32G4xx_HAL_Driver/Inc/stm32g4xx_ll_usart.h ****   * @param  __VALUE__ Value to be written in the register
 543:Drivers/STM32G4xx_HAL_Driver/Inc/stm32g4xx_ll_usart.h ****   * @retval None
 544:Drivers/STM32G4xx_HAL_Driver/Inc/stm32g4xx_ll_usart.h ****   */
 545:Drivers/STM32G4xx_HAL_Driver/Inc/stm32g4xx_ll_usart.h **** #define LL_USART_WriteReg(__INSTANCE__, __REG__, __VALUE__) WRITE_REG(__INSTANCE__->__REG__, (__VAL
 546:Drivers/STM32G4xx_HAL_Driver/Inc/stm32g4xx_ll_usart.h **** 
 547:Drivers/STM32G4xx_HAL_Driver/Inc/stm32g4xx_ll_usart.h **** /**
 548:Drivers/STM32G4xx_HAL_Driver/Inc/stm32g4xx_ll_usart.h ****   * @brief  Read a value in USART register
 549:Drivers/STM32G4xx_HAL_Driver/Inc/stm32g4xx_ll_usart.h ****   * @param  __INSTANCE__ USART Instance
 550:Drivers/STM32G4xx_HAL_Driver/Inc/stm32g4xx_ll_usart.h ****   * @param  __REG__ Register to be read
 551:Drivers/STM32G4xx_HAL_Driver/Inc/stm32g4xx_ll_usart.h ****   * @retval Register value
 552:Drivers/STM32G4xx_HAL_Driver/Inc/stm32g4xx_ll_usart.h ****   */
 553:Drivers/STM32G4xx_HAL_Driver/Inc/stm32g4xx_ll_usart.h **** #define LL_USART_ReadReg(__INSTANCE__, __REG__) READ_REG(__INSTANCE__->__REG__)
 554:Drivers/STM32G4xx_HAL_Driver/Inc/stm32g4xx_ll_usart.h **** /**
 555:Drivers/STM32G4xx_HAL_Driver/Inc/stm32g4xx_ll_usart.h ****   * @}
 556:Drivers/STM32G4xx_HAL_Driver/Inc/stm32g4xx_ll_usart.h ****   */
 557:Drivers/STM32G4xx_HAL_Driver/Inc/stm32g4xx_ll_usart.h **** 
 558:Drivers/STM32G4xx_HAL_Driver/Inc/stm32g4xx_ll_usart.h **** /** @defgroup USART_LL_EM_Exported_Macros_Helper Exported_Macros_Helper
 559:Drivers/STM32G4xx_HAL_Driver/Inc/stm32g4xx_ll_usart.h ****   * @{
 560:Drivers/STM32G4xx_HAL_Driver/Inc/stm32g4xx_ll_usart.h ****   */
 561:Drivers/STM32G4xx_HAL_Driver/Inc/stm32g4xx_ll_usart.h **** 
 562:Drivers/STM32G4xx_HAL_Driver/Inc/stm32g4xx_ll_usart.h **** /**
 563:Drivers/STM32G4xx_HAL_Driver/Inc/stm32g4xx_ll_usart.h ****   * @brief  Compute USARTDIV value according to Peripheral Clock and
 564:Drivers/STM32G4xx_HAL_Driver/Inc/stm32g4xx_ll_usart.h ****   *         expected Baud Rate in 8 bits sampling mode (32 bits value of USARTDIV is returned)
 565:Drivers/STM32G4xx_HAL_Driver/Inc/stm32g4xx_ll_usart.h ****   * @param  __PERIPHCLK__ Peripheral Clock frequency used for USART instance
 566:Drivers/STM32G4xx_HAL_Driver/Inc/stm32g4xx_ll_usart.h ****   * @param  __PRESCALER__ This parameter can be one of the following values:
 567:Drivers/STM32G4xx_HAL_Driver/Inc/stm32g4xx_ll_usart.h ****   *         @arg @ref LL_USART_PRESCALER_DIV1
 568:Drivers/STM32G4xx_HAL_Driver/Inc/stm32g4xx_ll_usart.h ****   *         @arg @ref LL_USART_PRESCALER_DIV2
 569:Drivers/STM32G4xx_HAL_Driver/Inc/stm32g4xx_ll_usart.h ****   *         @arg @ref LL_USART_PRESCALER_DIV4
 570:Drivers/STM32G4xx_HAL_Driver/Inc/stm32g4xx_ll_usart.h ****   *         @arg @ref LL_USART_PRESCALER_DIV6
 571:Drivers/STM32G4xx_HAL_Driver/Inc/stm32g4xx_ll_usart.h ****   *         @arg @ref LL_USART_PRESCALER_DIV8
 572:Drivers/STM32G4xx_HAL_Driver/Inc/stm32g4xx_ll_usart.h ****   *         @arg @ref LL_USART_PRESCALER_DIV10
 573:Drivers/STM32G4xx_HAL_Driver/Inc/stm32g4xx_ll_usart.h ****   *         @arg @ref LL_USART_PRESCALER_DIV12
 574:Drivers/STM32G4xx_HAL_Driver/Inc/stm32g4xx_ll_usart.h ****   *         @arg @ref LL_USART_PRESCALER_DIV16
 575:Drivers/STM32G4xx_HAL_Driver/Inc/stm32g4xx_ll_usart.h ****   *         @arg @ref LL_USART_PRESCALER_DIV32
 576:Drivers/STM32G4xx_HAL_Driver/Inc/stm32g4xx_ll_usart.h ****   *         @arg @ref LL_USART_PRESCALER_DIV64
 577:Drivers/STM32G4xx_HAL_Driver/Inc/stm32g4xx_ll_usart.h ****   *         @arg @ref LL_USART_PRESCALER_DIV128
 578:Drivers/STM32G4xx_HAL_Driver/Inc/stm32g4xx_ll_usart.h ****   *         @arg @ref LL_USART_PRESCALER_DIV256
 579:Drivers/STM32G4xx_HAL_Driver/Inc/stm32g4xx_ll_usart.h ****   * @param  __BAUDRATE__ Baud rate value to achieve
 580:Drivers/STM32G4xx_HAL_Driver/Inc/stm32g4xx_ll_usart.h ****   * @retval USARTDIV value to be used for BRR register filling in OverSampling_8 case
 581:Drivers/STM32G4xx_HAL_Driver/Inc/stm32g4xx_ll_usart.h ****   */
 582:Drivers/STM32G4xx_HAL_Driver/Inc/stm32g4xx_ll_usart.h **** #define __LL_USART_DIV_SAMPLING8(__PERIPHCLK__, __PRESCALER__, __BAUDRATE__) \
 583:Drivers/STM32G4xx_HAL_Driver/Inc/stm32g4xx_ll_usart.h ****   (((((__PERIPHCLK__)/(USART_PRESCALER_TAB[(__PRESCALER__)]))*2U)\
 584:Drivers/STM32G4xx_HAL_Driver/Inc/stm32g4xx_ll_usart.h ****     + ((__BAUDRATE__)/2U))/(__BAUDRATE__))
 585:Drivers/STM32G4xx_HAL_Driver/Inc/stm32g4xx_ll_usart.h **** 
 586:Drivers/STM32G4xx_HAL_Driver/Inc/stm32g4xx_ll_usart.h **** /**
ARM GAS  /tmp/cc9n8VrH.s 			page 12


 587:Drivers/STM32G4xx_HAL_Driver/Inc/stm32g4xx_ll_usart.h ****   * @brief  Compute USARTDIV value according to Peripheral Clock and
 588:Drivers/STM32G4xx_HAL_Driver/Inc/stm32g4xx_ll_usart.h ****   *         expected Baud Rate in 16 bits sampling mode (32 bits value of USARTDIV is returned)
 589:Drivers/STM32G4xx_HAL_Driver/Inc/stm32g4xx_ll_usart.h ****   * @param  __PERIPHCLK__ Peripheral Clock frequency used for USART instance
 590:Drivers/STM32G4xx_HAL_Driver/Inc/stm32g4xx_ll_usart.h ****   * @param  __PRESCALER__ This parameter can be one of the following values:
 591:Drivers/STM32G4xx_HAL_Driver/Inc/stm32g4xx_ll_usart.h ****   *         @arg @ref LL_USART_PRESCALER_DIV1
 592:Drivers/STM32G4xx_HAL_Driver/Inc/stm32g4xx_ll_usart.h ****   *         @arg @ref LL_USART_PRESCALER_DIV2
 593:Drivers/STM32G4xx_HAL_Driver/Inc/stm32g4xx_ll_usart.h ****   *         @arg @ref LL_USART_PRESCALER_DIV4
 594:Drivers/STM32G4xx_HAL_Driver/Inc/stm32g4xx_ll_usart.h ****   *         @arg @ref LL_USART_PRESCALER_DIV6
 595:Drivers/STM32G4xx_HAL_Driver/Inc/stm32g4xx_ll_usart.h ****   *         @arg @ref LL_USART_PRESCALER_DIV8
 596:Drivers/STM32G4xx_HAL_Driver/Inc/stm32g4xx_ll_usart.h ****   *         @arg @ref LL_USART_PRESCALER_DIV10
 597:Drivers/STM32G4xx_HAL_Driver/Inc/stm32g4xx_ll_usart.h ****   *         @arg @ref LL_USART_PRESCALER_DIV12
 598:Drivers/STM32G4xx_HAL_Driver/Inc/stm32g4xx_ll_usart.h ****   *         @arg @ref LL_USART_PRESCALER_DIV16
 599:Drivers/STM32G4xx_HAL_Driver/Inc/stm32g4xx_ll_usart.h ****   *         @arg @ref LL_USART_PRESCALER_DIV32
 600:Drivers/STM32G4xx_HAL_Driver/Inc/stm32g4xx_ll_usart.h ****   *         @arg @ref LL_USART_PRESCALER_DIV64
 601:Drivers/STM32G4xx_HAL_Driver/Inc/stm32g4xx_ll_usart.h ****   *         @arg @ref LL_USART_PRESCALER_DIV128
 602:Drivers/STM32G4xx_HAL_Driver/Inc/stm32g4xx_ll_usart.h ****   *         @arg @ref LL_USART_PRESCALER_DIV256
 603:Drivers/STM32G4xx_HAL_Driver/Inc/stm32g4xx_ll_usart.h ****   * @param  __BAUDRATE__ Baud rate value to achieve
 604:Drivers/STM32G4xx_HAL_Driver/Inc/stm32g4xx_ll_usart.h ****   * @retval USARTDIV value to be used for BRR register filling in OverSampling_16 case
 605:Drivers/STM32G4xx_HAL_Driver/Inc/stm32g4xx_ll_usart.h ****   */
 606:Drivers/STM32G4xx_HAL_Driver/Inc/stm32g4xx_ll_usart.h **** #define __LL_USART_DIV_SAMPLING16(__PERIPHCLK__, __PRESCALER__, __BAUDRATE__) \
 607:Drivers/STM32G4xx_HAL_Driver/Inc/stm32g4xx_ll_usart.h ****   ((((__PERIPHCLK__)/(USART_PRESCALER_TAB[(__PRESCALER__)]))\
 608:Drivers/STM32G4xx_HAL_Driver/Inc/stm32g4xx_ll_usart.h ****     + ((__BAUDRATE__)/2U))/(__BAUDRATE__))
 609:Drivers/STM32G4xx_HAL_Driver/Inc/stm32g4xx_ll_usart.h **** 
 610:Drivers/STM32G4xx_HAL_Driver/Inc/stm32g4xx_ll_usart.h **** /**
 611:Drivers/STM32G4xx_HAL_Driver/Inc/stm32g4xx_ll_usart.h ****   * @}
 612:Drivers/STM32G4xx_HAL_Driver/Inc/stm32g4xx_ll_usart.h ****   */
 613:Drivers/STM32G4xx_HAL_Driver/Inc/stm32g4xx_ll_usart.h **** 
 614:Drivers/STM32G4xx_HAL_Driver/Inc/stm32g4xx_ll_usart.h **** /**
 615:Drivers/STM32G4xx_HAL_Driver/Inc/stm32g4xx_ll_usart.h ****   * @}
 616:Drivers/STM32G4xx_HAL_Driver/Inc/stm32g4xx_ll_usart.h ****   */
 617:Drivers/STM32G4xx_HAL_Driver/Inc/stm32g4xx_ll_usart.h **** 
 618:Drivers/STM32G4xx_HAL_Driver/Inc/stm32g4xx_ll_usart.h **** /* Exported functions --------------------------------------------------------*/
 619:Drivers/STM32G4xx_HAL_Driver/Inc/stm32g4xx_ll_usart.h **** 
 620:Drivers/STM32G4xx_HAL_Driver/Inc/stm32g4xx_ll_usart.h **** /** @defgroup USART_LL_Exported_Functions USART Exported Functions
 621:Drivers/STM32G4xx_HAL_Driver/Inc/stm32g4xx_ll_usart.h ****   * @{
 622:Drivers/STM32G4xx_HAL_Driver/Inc/stm32g4xx_ll_usart.h ****   */
 623:Drivers/STM32G4xx_HAL_Driver/Inc/stm32g4xx_ll_usart.h **** 
 624:Drivers/STM32G4xx_HAL_Driver/Inc/stm32g4xx_ll_usart.h **** /** @defgroup USART_LL_EF_Configuration Configuration functions
 625:Drivers/STM32G4xx_HAL_Driver/Inc/stm32g4xx_ll_usart.h ****   * @{
 626:Drivers/STM32G4xx_HAL_Driver/Inc/stm32g4xx_ll_usart.h ****   */
 627:Drivers/STM32G4xx_HAL_Driver/Inc/stm32g4xx_ll_usart.h **** 
 628:Drivers/STM32G4xx_HAL_Driver/Inc/stm32g4xx_ll_usart.h **** /**
 629:Drivers/STM32G4xx_HAL_Driver/Inc/stm32g4xx_ll_usart.h ****   * @brief  USART Enable
 630:Drivers/STM32G4xx_HAL_Driver/Inc/stm32g4xx_ll_usart.h ****   * @rmtoll CR1          UE            LL_USART_Enable
 631:Drivers/STM32G4xx_HAL_Driver/Inc/stm32g4xx_ll_usart.h ****   * @param  USARTx USART Instance
 632:Drivers/STM32G4xx_HAL_Driver/Inc/stm32g4xx_ll_usart.h ****   * @retval None
 633:Drivers/STM32G4xx_HAL_Driver/Inc/stm32g4xx_ll_usart.h ****   */
 634:Drivers/STM32G4xx_HAL_Driver/Inc/stm32g4xx_ll_usart.h **** __STATIC_INLINE void LL_USART_Enable(USART_TypeDef *USARTx)
 635:Drivers/STM32G4xx_HAL_Driver/Inc/stm32g4xx_ll_usart.h **** {
 636:Drivers/STM32G4xx_HAL_Driver/Inc/stm32g4xx_ll_usart.h ****   SET_BIT(USARTx->CR1, USART_CR1_UE);
 637:Drivers/STM32G4xx_HAL_Driver/Inc/stm32g4xx_ll_usart.h **** }
 638:Drivers/STM32G4xx_HAL_Driver/Inc/stm32g4xx_ll_usart.h **** 
 639:Drivers/STM32G4xx_HAL_Driver/Inc/stm32g4xx_ll_usart.h **** /**
 640:Drivers/STM32G4xx_HAL_Driver/Inc/stm32g4xx_ll_usart.h ****   * @brief  USART Disable (all USART prescalers and outputs are disabled)
 641:Drivers/STM32G4xx_HAL_Driver/Inc/stm32g4xx_ll_usart.h ****   * @note   When USART is disabled, USART prescalers and outputs are stopped immediately,
 642:Drivers/STM32G4xx_HAL_Driver/Inc/stm32g4xx_ll_usart.h ****   *         and current operations are discarded. The configuration of the USART is kept, but all t
 643:Drivers/STM32G4xx_HAL_Driver/Inc/stm32g4xx_ll_usart.h ****   *         flags, in the USARTx_ISR are set to their default values.
ARM GAS  /tmp/cc9n8VrH.s 			page 13


 644:Drivers/STM32G4xx_HAL_Driver/Inc/stm32g4xx_ll_usart.h ****   * @rmtoll CR1          UE            LL_USART_Disable
 645:Drivers/STM32G4xx_HAL_Driver/Inc/stm32g4xx_ll_usart.h ****   * @param  USARTx USART Instance
 646:Drivers/STM32G4xx_HAL_Driver/Inc/stm32g4xx_ll_usart.h ****   * @retval None
 647:Drivers/STM32G4xx_HAL_Driver/Inc/stm32g4xx_ll_usart.h ****   */
 648:Drivers/STM32G4xx_HAL_Driver/Inc/stm32g4xx_ll_usart.h **** __STATIC_INLINE void LL_USART_Disable(USART_TypeDef *USARTx)
 649:Drivers/STM32G4xx_HAL_Driver/Inc/stm32g4xx_ll_usart.h **** {
 650:Drivers/STM32G4xx_HAL_Driver/Inc/stm32g4xx_ll_usart.h ****   CLEAR_BIT(USARTx->CR1, USART_CR1_UE);
 651:Drivers/STM32G4xx_HAL_Driver/Inc/stm32g4xx_ll_usart.h **** }
 652:Drivers/STM32G4xx_HAL_Driver/Inc/stm32g4xx_ll_usart.h **** 
 653:Drivers/STM32G4xx_HAL_Driver/Inc/stm32g4xx_ll_usart.h **** /**
 654:Drivers/STM32G4xx_HAL_Driver/Inc/stm32g4xx_ll_usart.h ****   * @brief  Indicate if USART is enabled
 655:Drivers/STM32G4xx_HAL_Driver/Inc/stm32g4xx_ll_usart.h ****   * @rmtoll CR1          UE            LL_USART_IsEnabled
 656:Drivers/STM32G4xx_HAL_Driver/Inc/stm32g4xx_ll_usart.h ****   * @param  USARTx USART Instance
 657:Drivers/STM32G4xx_HAL_Driver/Inc/stm32g4xx_ll_usart.h ****   * @retval State of bit (1 or 0).
 658:Drivers/STM32G4xx_HAL_Driver/Inc/stm32g4xx_ll_usart.h ****   */
 659:Drivers/STM32G4xx_HAL_Driver/Inc/stm32g4xx_ll_usart.h **** __STATIC_INLINE uint32_t LL_USART_IsEnabled(const USART_TypeDef *USARTx)
 660:Drivers/STM32G4xx_HAL_Driver/Inc/stm32g4xx_ll_usart.h **** {
  45              		.loc 1 660 1
  46              		.cfi_startproc
  47              		@ args = 0, pretend = 0, frame = 8
  48              		@ frame_needed = 1, uses_anonymous_args = 0
  49              		@ link register save eliminated.
  50 0000 80B4     		push	{r7}
  51              	.LCFI0:
  52              		.cfi_def_cfa_offset 4
  53              		.cfi_offset 7, -4
  54 0002 83B0     		sub	sp, sp, #12
  55              	.LCFI1:
  56              		.cfi_def_cfa_offset 16
  57 0004 00AF     		add	r7, sp, #0
  58              	.LCFI2:
  59              		.cfi_def_cfa_register 7
  60 0006 7860     		str	r0, [r7, #4]
 661:Drivers/STM32G4xx_HAL_Driver/Inc/stm32g4xx_ll_usart.h ****   return ((READ_BIT(USARTx->CR1, USART_CR1_UE) == (USART_CR1_UE)) ? 1UL : 0UL);
  61              		.loc 1 661 12
  62 0008 7B68     		ldr	r3, [r7, #4]
  63 000a 1B68     		ldr	r3, [r3]
  64 000c 03F00103 		and	r3, r3, #1
  65              		.loc 1 661 73
  66 0010 012B     		cmp	r3, #1
  67 0012 01D1     		bne	.L2
  68              		.loc 1 661 73 is_stmt 0 discriminator 1
  69 0014 0123     		movs	r3, #1
  70 0016 00E0     		b	.L4
  71              	.L2:
  72              		.loc 1 661 73 discriminator 2
  73 0018 0023     		movs	r3, #0
  74              	.L4:
 662:Drivers/STM32G4xx_HAL_Driver/Inc/stm32g4xx_ll_usart.h **** }
  75              		.loc 1 662 1 is_stmt 1 discriminator 5
  76 001a 1846     		mov	r0, r3
  77 001c 0C37     		adds	r7, r7, #12
  78              	.LCFI3:
  79              		.cfi_def_cfa_offset 4
  80 001e BD46     		mov	sp, r7
  81              	.LCFI4:
  82              		.cfi_def_cfa_register 13
ARM GAS  /tmp/cc9n8VrH.s 			page 14


  83              		@ sp needed
  84 0020 5DF8047B 		ldr	r7, [sp], #4
  85              	.LCFI5:
  86              		.cfi_restore 7
  87              		.cfi_def_cfa_offset 0
  88 0024 7047     		bx	lr
  89              		.cfi_endproc
  90              	.LFE134:
  92              		.section	.text.LL_USART_SetPrescaler,"ax",%progbits
  93              		.align	1
  94              		.syntax unified
  95              		.thumb
  96              		.thumb_func
  97              		.fpu fpv4-sp-d16
  99              	LL_USART_SetPrescaler:
 100              	.LFB170:
 663:Drivers/STM32G4xx_HAL_Driver/Inc/stm32g4xx_ll_usart.h **** 
 664:Drivers/STM32G4xx_HAL_Driver/Inc/stm32g4xx_ll_usart.h **** /**
 665:Drivers/STM32G4xx_HAL_Driver/Inc/stm32g4xx_ll_usart.h ****   * @brief  FIFO Mode Enable
 666:Drivers/STM32G4xx_HAL_Driver/Inc/stm32g4xx_ll_usart.h ****   * @note   Macro IS_UART_FIFO_INSTANCE(USARTx) can be used to check whether or not
 667:Drivers/STM32G4xx_HAL_Driver/Inc/stm32g4xx_ll_usart.h ****   *         FIFO mode feature is supported by the USARTx instance.
 668:Drivers/STM32G4xx_HAL_Driver/Inc/stm32g4xx_ll_usart.h ****   * @rmtoll CR1          FIFOEN        LL_USART_EnableFIFO
 669:Drivers/STM32G4xx_HAL_Driver/Inc/stm32g4xx_ll_usart.h ****   * @param  USARTx USART Instance
 670:Drivers/STM32G4xx_HAL_Driver/Inc/stm32g4xx_ll_usart.h ****   * @retval None
 671:Drivers/STM32G4xx_HAL_Driver/Inc/stm32g4xx_ll_usart.h ****   */
 672:Drivers/STM32G4xx_HAL_Driver/Inc/stm32g4xx_ll_usart.h **** __STATIC_INLINE void LL_USART_EnableFIFO(USART_TypeDef *USARTx)
 673:Drivers/STM32G4xx_HAL_Driver/Inc/stm32g4xx_ll_usart.h **** {
 674:Drivers/STM32G4xx_HAL_Driver/Inc/stm32g4xx_ll_usart.h ****   SET_BIT(USARTx->CR1, USART_CR1_FIFOEN);
 675:Drivers/STM32G4xx_HAL_Driver/Inc/stm32g4xx_ll_usart.h **** }
 676:Drivers/STM32G4xx_HAL_Driver/Inc/stm32g4xx_ll_usart.h **** 
 677:Drivers/STM32G4xx_HAL_Driver/Inc/stm32g4xx_ll_usart.h **** /**
 678:Drivers/STM32G4xx_HAL_Driver/Inc/stm32g4xx_ll_usart.h ****   * @brief  FIFO Mode Disable
 679:Drivers/STM32G4xx_HAL_Driver/Inc/stm32g4xx_ll_usart.h ****   * @note   Macro IS_UART_FIFO_INSTANCE(USARTx) can be used to check whether or not
 680:Drivers/STM32G4xx_HAL_Driver/Inc/stm32g4xx_ll_usart.h ****   *         FIFO mode feature is supported by the USARTx instance.
 681:Drivers/STM32G4xx_HAL_Driver/Inc/stm32g4xx_ll_usart.h ****   * @rmtoll CR1          FIFOEN        LL_USART_DisableFIFO
 682:Drivers/STM32G4xx_HAL_Driver/Inc/stm32g4xx_ll_usart.h ****   * @param  USARTx USART Instance
 683:Drivers/STM32G4xx_HAL_Driver/Inc/stm32g4xx_ll_usart.h ****   * @retval None
 684:Drivers/STM32G4xx_HAL_Driver/Inc/stm32g4xx_ll_usart.h ****   */
 685:Drivers/STM32G4xx_HAL_Driver/Inc/stm32g4xx_ll_usart.h **** __STATIC_INLINE void LL_USART_DisableFIFO(USART_TypeDef *USARTx)
 686:Drivers/STM32G4xx_HAL_Driver/Inc/stm32g4xx_ll_usart.h **** {
 687:Drivers/STM32G4xx_HAL_Driver/Inc/stm32g4xx_ll_usart.h ****   CLEAR_BIT(USARTx->CR1, USART_CR1_FIFOEN);
 688:Drivers/STM32G4xx_HAL_Driver/Inc/stm32g4xx_ll_usart.h **** }
 689:Drivers/STM32G4xx_HAL_Driver/Inc/stm32g4xx_ll_usart.h **** 
 690:Drivers/STM32G4xx_HAL_Driver/Inc/stm32g4xx_ll_usart.h **** /**
 691:Drivers/STM32G4xx_HAL_Driver/Inc/stm32g4xx_ll_usart.h ****   * @brief  Indicate if FIFO Mode is enabled
 692:Drivers/STM32G4xx_HAL_Driver/Inc/stm32g4xx_ll_usart.h ****   * @note   Macro IS_UART_FIFO_INSTANCE(USARTx) can be used to check whether or not
 693:Drivers/STM32G4xx_HAL_Driver/Inc/stm32g4xx_ll_usart.h ****   *         FIFO mode feature is supported by the USARTx instance.
 694:Drivers/STM32G4xx_HAL_Driver/Inc/stm32g4xx_ll_usart.h ****   * @rmtoll CR1          FIFOEN        LL_USART_IsEnabledFIFO
 695:Drivers/STM32G4xx_HAL_Driver/Inc/stm32g4xx_ll_usart.h ****   * @param  USARTx USART Instance
 696:Drivers/STM32G4xx_HAL_Driver/Inc/stm32g4xx_ll_usart.h ****   * @retval State of bit (1 or 0).
 697:Drivers/STM32G4xx_HAL_Driver/Inc/stm32g4xx_ll_usart.h ****   */
 698:Drivers/STM32G4xx_HAL_Driver/Inc/stm32g4xx_ll_usart.h **** __STATIC_INLINE uint32_t LL_USART_IsEnabledFIFO(const USART_TypeDef *USARTx)
 699:Drivers/STM32G4xx_HAL_Driver/Inc/stm32g4xx_ll_usart.h **** {
 700:Drivers/STM32G4xx_HAL_Driver/Inc/stm32g4xx_ll_usart.h ****   return ((READ_BIT(USARTx->CR1, USART_CR1_FIFOEN) == (USART_CR1_FIFOEN)) ? 1UL : 0UL);
 701:Drivers/STM32G4xx_HAL_Driver/Inc/stm32g4xx_ll_usart.h **** }
 702:Drivers/STM32G4xx_HAL_Driver/Inc/stm32g4xx_ll_usart.h **** 
 703:Drivers/STM32G4xx_HAL_Driver/Inc/stm32g4xx_ll_usart.h **** /**
ARM GAS  /tmp/cc9n8VrH.s 			page 15


 704:Drivers/STM32G4xx_HAL_Driver/Inc/stm32g4xx_ll_usart.h ****   * @brief  Configure TX FIFO Threshold
 705:Drivers/STM32G4xx_HAL_Driver/Inc/stm32g4xx_ll_usart.h ****   * @note   Macro IS_UART_FIFO_INSTANCE(USARTx) can be used to check whether or not
 706:Drivers/STM32G4xx_HAL_Driver/Inc/stm32g4xx_ll_usart.h ****   *         FIFO mode feature is supported by the USARTx instance.
 707:Drivers/STM32G4xx_HAL_Driver/Inc/stm32g4xx_ll_usart.h ****   * @rmtoll CR3          TXFTCFG       LL_USART_SetTXFIFOThreshold
 708:Drivers/STM32G4xx_HAL_Driver/Inc/stm32g4xx_ll_usart.h ****   * @param  USARTx USART Instance
 709:Drivers/STM32G4xx_HAL_Driver/Inc/stm32g4xx_ll_usart.h ****   * @param  Threshold This parameter can be one of the following values:
 710:Drivers/STM32G4xx_HAL_Driver/Inc/stm32g4xx_ll_usart.h ****   *         @arg @ref LL_USART_FIFOTHRESHOLD_1_8
 711:Drivers/STM32G4xx_HAL_Driver/Inc/stm32g4xx_ll_usart.h ****   *         @arg @ref LL_USART_FIFOTHRESHOLD_1_4
 712:Drivers/STM32G4xx_HAL_Driver/Inc/stm32g4xx_ll_usart.h ****   *         @arg @ref LL_USART_FIFOTHRESHOLD_1_2
 713:Drivers/STM32G4xx_HAL_Driver/Inc/stm32g4xx_ll_usart.h ****   *         @arg @ref LL_USART_FIFOTHRESHOLD_3_4
 714:Drivers/STM32G4xx_HAL_Driver/Inc/stm32g4xx_ll_usart.h ****   *         @arg @ref LL_USART_FIFOTHRESHOLD_7_8
 715:Drivers/STM32G4xx_HAL_Driver/Inc/stm32g4xx_ll_usart.h ****   *         @arg @ref LL_USART_FIFOTHRESHOLD_8_8
 716:Drivers/STM32G4xx_HAL_Driver/Inc/stm32g4xx_ll_usart.h ****   * @retval None
 717:Drivers/STM32G4xx_HAL_Driver/Inc/stm32g4xx_ll_usart.h ****   */
 718:Drivers/STM32G4xx_HAL_Driver/Inc/stm32g4xx_ll_usart.h **** __STATIC_INLINE void LL_USART_SetTXFIFOThreshold(USART_TypeDef *USARTx, uint32_t Threshold)
 719:Drivers/STM32G4xx_HAL_Driver/Inc/stm32g4xx_ll_usart.h **** {
 720:Drivers/STM32G4xx_HAL_Driver/Inc/stm32g4xx_ll_usart.h ****   ATOMIC_MODIFY_REG(USARTx->CR3, USART_CR3_TXFTCFG, Threshold << USART_CR3_TXFTCFG_Pos);
 721:Drivers/STM32G4xx_HAL_Driver/Inc/stm32g4xx_ll_usart.h **** }
 722:Drivers/STM32G4xx_HAL_Driver/Inc/stm32g4xx_ll_usart.h **** 
 723:Drivers/STM32G4xx_HAL_Driver/Inc/stm32g4xx_ll_usart.h **** /**
 724:Drivers/STM32G4xx_HAL_Driver/Inc/stm32g4xx_ll_usart.h ****   * @brief  Return TX FIFO Threshold Configuration
 725:Drivers/STM32G4xx_HAL_Driver/Inc/stm32g4xx_ll_usart.h ****   * @note   Macro IS_UART_FIFO_INSTANCE(USARTx) can be used to check whether or not
 726:Drivers/STM32G4xx_HAL_Driver/Inc/stm32g4xx_ll_usart.h ****   *         FIFO mode feature is supported by the USARTx instance.
 727:Drivers/STM32G4xx_HAL_Driver/Inc/stm32g4xx_ll_usart.h ****   * @rmtoll CR3          TXFTCFG       LL_USART_GetTXFIFOThreshold
 728:Drivers/STM32G4xx_HAL_Driver/Inc/stm32g4xx_ll_usart.h ****   * @param  USARTx USART Instance
 729:Drivers/STM32G4xx_HAL_Driver/Inc/stm32g4xx_ll_usart.h ****   * @retval Returned value can be one of the following values:
 730:Drivers/STM32G4xx_HAL_Driver/Inc/stm32g4xx_ll_usart.h ****   *         @arg @ref LL_USART_FIFOTHRESHOLD_1_8
 731:Drivers/STM32G4xx_HAL_Driver/Inc/stm32g4xx_ll_usart.h ****   *         @arg @ref LL_USART_FIFOTHRESHOLD_1_4
 732:Drivers/STM32G4xx_HAL_Driver/Inc/stm32g4xx_ll_usart.h ****   *         @arg @ref LL_USART_FIFOTHRESHOLD_1_2
 733:Drivers/STM32G4xx_HAL_Driver/Inc/stm32g4xx_ll_usart.h ****   *         @arg @ref LL_USART_FIFOTHRESHOLD_3_4
 734:Drivers/STM32G4xx_HAL_Driver/Inc/stm32g4xx_ll_usart.h ****   *         @arg @ref LL_USART_FIFOTHRESHOLD_7_8
 735:Drivers/STM32G4xx_HAL_Driver/Inc/stm32g4xx_ll_usart.h ****   *         @arg @ref LL_USART_FIFOTHRESHOLD_8_8
 736:Drivers/STM32G4xx_HAL_Driver/Inc/stm32g4xx_ll_usart.h ****   */
 737:Drivers/STM32G4xx_HAL_Driver/Inc/stm32g4xx_ll_usart.h **** __STATIC_INLINE uint32_t LL_USART_GetTXFIFOThreshold(const USART_TypeDef *USARTx)
 738:Drivers/STM32G4xx_HAL_Driver/Inc/stm32g4xx_ll_usart.h **** {
 739:Drivers/STM32G4xx_HAL_Driver/Inc/stm32g4xx_ll_usart.h ****   return (uint32_t)(READ_BIT(USARTx->CR3, USART_CR3_TXFTCFG) >> USART_CR3_TXFTCFG_Pos);
 740:Drivers/STM32G4xx_HAL_Driver/Inc/stm32g4xx_ll_usart.h **** }
 741:Drivers/STM32G4xx_HAL_Driver/Inc/stm32g4xx_ll_usart.h **** 
 742:Drivers/STM32G4xx_HAL_Driver/Inc/stm32g4xx_ll_usart.h **** /**
 743:Drivers/STM32G4xx_HAL_Driver/Inc/stm32g4xx_ll_usart.h ****   * @brief  Configure RX FIFO Threshold
 744:Drivers/STM32G4xx_HAL_Driver/Inc/stm32g4xx_ll_usart.h ****   * @note   Macro IS_UART_FIFO_INSTANCE(USARTx) can be used to check whether or not
 745:Drivers/STM32G4xx_HAL_Driver/Inc/stm32g4xx_ll_usart.h ****   *         FIFO mode feature is supported by the USARTx instance.
 746:Drivers/STM32G4xx_HAL_Driver/Inc/stm32g4xx_ll_usart.h ****   * @rmtoll CR3          RXFTCFG       LL_USART_SetRXFIFOThreshold
 747:Drivers/STM32G4xx_HAL_Driver/Inc/stm32g4xx_ll_usart.h ****   * @param  USARTx USART Instance
 748:Drivers/STM32G4xx_HAL_Driver/Inc/stm32g4xx_ll_usart.h ****   * @param  Threshold This parameter can be one of the following values:
 749:Drivers/STM32G4xx_HAL_Driver/Inc/stm32g4xx_ll_usart.h ****   *         @arg @ref LL_USART_FIFOTHRESHOLD_1_8
 750:Drivers/STM32G4xx_HAL_Driver/Inc/stm32g4xx_ll_usart.h ****   *         @arg @ref LL_USART_FIFOTHRESHOLD_1_4
 751:Drivers/STM32G4xx_HAL_Driver/Inc/stm32g4xx_ll_usart.h ****   *         @arg @ref LL_USART_FIFOTHRESHOLD_1_2
 752:Drivers/STM32G4xx_HAL_Driver/Inc/stm32g4xx_ll_usart.h ****   *         @arg @ref LL_USART_FIFOTHRESHOLD_3_4
 753:Drivers/STM32G4xx_HAL_Driver/Inc/stm32g4xx_ll_usart.h ****   *         @arg @ref LL_USART_FIFOTHRESHOLD_7_8
 754:Drivers/STM32G4xx_HAL_Driver/Inc/stm32g4xx_ll_usart.h ****   *         @arg @ref LL_USART_FIFOTHRESHOLD_8_8
 755:Drivers/STM32G4xx_HAL_Driver/Inc/stm32g4xx_ll_usart.h ****   * @retval None
 756:Drivers/STM32G4xx_HAL_Driver/Inc/stm32g4xx_ll_usart.h ****   */
 757:Drivers/STM32G4xx_HAL_Driver/Inc/stm32g4xx_ll_usart.h **** __STATIC_INLINE void LL_USART_SetRXFIFOThreshold(USART_TypeDef *USARTx, uint32_t Threshold)
 758:Drivers/STM32G4xx_HAL_Driver/Inc/stm32g4xx_ll_usart.h **** {
 759:Drivers/STM32G4xx_HAL_Driver/Inc/stm32g4xx_ll_usart.h ****   ATOMIC_MODIFY_REG(USARTx->CR3, USART_CR3_RXFTCFG, Threshold << USART_CR3_RXFTCFG_Pos);
 760:Drivers/STM32G4xx_HAL_Driver/Inc/stm32g4xx_ll_usart.h **** }
ARM GAS  /tmp/cc9n8VrH.s 			page 16


 761:Drivers/STM32G4xx_HAL_Driver/Inc/stm32g4xx_ll_usart.h **** 
 762:Drivers/STM32G4xx_HAL_Driver/Inc/stm32g4xx_ll_usart.h **** /**
 763:Drivers/STM32G4xx_HAL_Driver/Inc/stm32g4xx_ll_usart.h ****   * @brief  Return RX FIFO Threshold Configuration
 764:Drivers/STM32G4xx_HAL_Driver/Inc/stm32g4xx_ll_usart.h ****   * @note   Macro IS_UART_FIFO_INSTANCE(USARTx) can be used to check whether or not
 765:Drivers/STM32G4xx_HAL_Driver/Inc/stm32g4xx_ll_usart.h ****   *         FIFO mode feature is supported by the USARTx instance.
 766:Drivers/STM32G4xx_HAL_Driver/Inc/stm32g4xx_ll_usart.h ****   * @rmtoll CR3          RXFTCFG       LL_USART_GetRXFIFOThreshold
 767:Drivers/STM32G4xx_HAL_Driver/Inc/stm32g4xx_ll_usart.h ****   * @param  USARTx USART Instance
 768:Drivers/STM32G4xx_HAL_Driver/Inc/stm32g4xx_ll_usart.h ****   * @retval Returned value can be one of the following values:
 769:Drivers/STM32G4xx_HAL_Driver/Inc/stm32g4xx_ll_usart.h ****   *         @arg @ref LL_USART_FIFOTHRESHOLD_1_8
 770:Drivers/STM32G4xx_HAL_Driver/Inc/stm32g4xx_ll_usart.h ****   *         @arg @ref LL_USART_FIFOTHRESHOLD_1_4
 771:Drivers/STM32G4xx_HAL_Driver/Inc/stm32g4xx_ll_usart.h ****   *         @arg @ref LL_USART_FIFOTHRESHOLD_1_2
 772:Drivers/STM32G4xx_HAL_Driver/Inc/stm32g4xx_ll_usart.h ****   *         @arg @ref LL_USART_FIFOTHRESHOLD_3_4
 773:Drivers/STM32G4xx_HAL_Driver/Inc/stm32g4xx_ll_usart.h ****   *         @arg @ref LL_USART_FIFOTHRESHOLD_7_8
 774:Drivers/STM32G4xx_HAL_Driver/Inc/stm32g4xx_ll_usart.h ****   *         @arg @ref LL_USART_FIFOTHRESHOLD_8_8
 775:Drivers/STM32G4xx_HAL_Driver/Inc/stm32g4xx_ll_usart.h ****   */
 776:Drivers/STM32G4xx_HAL_Driver/Inc/stm32g4xx_ll_usart.h **** __STATIC_INLINE uint32_t LL_USART_GetRXFIFOThreshold(const USART_TypeDef *USARTx)
 777:Drivers/STM32G4xx_HAL_Driver/Inc/stm32g4xx_ll_usart.h **** {
 778:Drivers/STM32G4xx_HAL_Driver/Inc/stm32g4xx_ll_usart.h ****   return (uint32_t)(READ_BIT(USARTx->CR3, USART_CR3_RXFTCFG) >> USART_CR3_RXFTCFG_Pos);
 779:Drivers/STM32G4xx_HAL_Driver/Inc/stm32g4xx_ll_usart.h **** }
 780:Drivers/STM32G4xx_HAL_Driver/Inc/stm32g4xx_ll_usart.h **** 
 781:Drivers/STM32G4xx_HAL_Driver/Inc/stm32g4xx_ll_usart.h **** /**
 782:Drivers/STM32G4xx_HAL_Driver/Inc/stm32g4xx_ll_usart.h ****   * @brief  Configure TX and RX FIFOs Threshold
 783:Drivers/STM32G4xx_HAL_Driver/Inc/stm32g4xx_ll_usart.h ****   * @note   Macro IS_UART_FIFO_INSTANCE(USARTx) can be used to check whether or not
 784:Drivers/STM32G4xx_HAL_Driver/Inc/stm32g4xx_ll_usart.h ****   *         FIFO mode feature is supported by the USARTx instance.
 785:Drivers/STM32G4xx_HAL_Driver/Inc/stm32g4xx_ll_usart.h ****   * @rmtoll CR3          TXFTCFG       LL_USART_ConfigFIFOsThreshold\n
 786:Drivers/STM32G4xx_HAL_Driver/Inc/stm32g4xx_ll_usart.h ****   *         CR3          RXFTCFG       LL_USART_ConfigFIFOsThreshold
 787:Drivers/STM32G4xx_HAL_Driver/Inc/stm32g4xx_ll_usart.h ****   * @param  USARTx USART Instance
 788:Drivers/STM32G4xx_HAL_Driver/Inc/stm32g4xx_ll_usart.h ****   * @param  TXThreshold This parameter can be one of the following values:
 789:Drivers/STM32G4xx_HAL_Driver/Inc/stm32g4xx_ll_usart.h ****   *         @arg @ref LL_USART_FIFOTHRESHOLD_1_8
 790:Drivers/STM32G4xx_HAL_Driver/Inc/stm32g4xx_ll_usart.h ****   *         @arg @ref LL_USART_FIFOTHRESHOLD_1_4
 791:Drivers/STM32G4xx_HAL_Driver/Inc/stm32g4xx_ll_usart.h ****   *         @arg @ref LL_USART_FIFOTHRESHOLD_1_2
 792:Drivers/STM32G4xx_HAL_Driver/Inc/stm32g4xx_ll_usart.h ****   *         @arg @ref LL_USART_FIFOTHRESHOLD_3_4
 793:Drivers/STM32G4xx_HAL_Driver/Inc/stm32g4xx_ll_usart.h ****   *         @arg @ref LL_USART_FIFOTHRESHOLD_7_8
 794:Drivers/STM32G4xx_HAL_Driver/Inc/stm32g4xx_ll_usart.h ****   *         @arg @ref LL_USART_FIFOTHRESHOLD_8_8
 795:Drivers/STM32G4xx_HAL_Driver/Inc/stm32g4xx_ll_usart.h ****   * @param  RXThreshold This parameter can be one of the following values:
 796:Drivers/STM32G4xx_HAL_Driver/Inc/stm32g4xx_ll_usart.h ****   *         @arg @ref LL_USART_FIFOTHRESHOLD_1_8
 797:Drivers/STM32G4xx_HAL_Driver/Inc/stm32g4xx_ll_usart.h ****   *         @arg @ref LL_USART_FIFOTHRESHOLD_1_4
 798:Drivers/STM32G4xx_HAL_Driver/Inc/stm32g4xx_ll_usart.h ****   *         @arg @ref LL_USART_FIFOTHRESHOLD_1_2
 799:Drivers/STM32G4xx_HAL_Driver/Inc/stm32g4xx_ll_usart.h ****   *         @arg @ref LL_USART_FIFOTHRESHOLD_3_4
 800:Drivers/STM32G4xx_HAL_Driver/Inc/stm32g4xx_ll_usart.h ****   *         @arg @ref LL_USART_FIFOTHRESHOLD_7_8
 801:Drivers/STM32G4xx_HAL_Driver/Inc/stm32g4xx_ll_usart.h ****   *         @arg @ref LL_USART_FIFOTHRESHOLD_8_8
 802:Drivers/STM32G4xx_HAL_Driver/Inc/stm32g4xx_ll_usart.h ****   * @retval None
 803:Drivers/STM32G4xx_HAL_Driver/Inc/stm32g4xx_ll_usart.h ****   */
 804:Drivers/STM32G4xx_HAL_Driver/Inc/stm32g4xx_ll_usart.h **** __STATIC_INLINE void LL_USART_ConfigFIFOsThreshold(USART_TypeDef *USARTx, uint32_t TXThreshold, uin
 805:Drivers/STM32G4xx_HAL_Driver/Inc/stm32g4xx_ll_usart.h **** {
 806:Drivers/STM32G4xx_HAL_Driver/Inc/stm32g4xx_ll_usart.h ****   ATOMIC_MODIFY_REG(USARTx->CR3, USART_CR3_TXFTCFG | USART_CR3_RXFTCFG, (TXThreshold << USART_CR3_T
 807:Drivers/STM32G4xx_HAL_Driver/Inc/stm32g4xx_ll_usart.h ****                     (RXThreshold << USART_CR3_RXFTCFG_Pos));
 808:Drivers/STM32G4xx_HAL_Driver/Inc/stm32g4xx_ll_usart.h **** }
 809:Drivers/STM32G4xx_HAL_Driver/Inc/stm32g4xx_ll_usart.h **** 
 810:Drivers/STM32G4xx_HAL_Driver/Inc/stm32g4xx_ll_usart.h **** /**
 811:Drivers/STM32G4xx_HAL_Driver/Inc/stm32g4xx_ll_usart.h ****   * @brief  USART enabled in STOP Mode.
 812:Drivers/STM32G4xx_HAL_Driver/Inc/stm32g4xx_ll_usart.h ****   * @note   When this function is enabled, USART is able to wake up the MCU from Stop mode, provide
 813:Drivers/STM32G4xx_HAL_Driver/Inc/stm32g4xx_ll_usart.h ****   *         USART clock selection is HSI or LSE in RCC.
 814:Drivers/STM32G4xx_HAL_Driver/Inc/stm32g4xx_ll_usart.h ****   * @note   Macro IS_UART_WAKEUP_FROMSTOP_INSTANCE(USARTx) can be used to check whether or not
 815:Drivers/STM32G4xx_HAL_Driver/Inc/stm32g4xx_ll_usart.h ****   *         Wake-up from Stop mode feature is supported by the USARTx instance.
 816:Drivers/STM32G4xx_HAL_Driver/Inc/stm32g4xx_ll_usart.h ****   * @rmtoll CR1          UESM          LL_USART_EnableInStopMode
 817:Drivers/STM32G4xx_HAL_Driver/Inc/stm32g4xx_ll_usart.h ****   * @param  USARTx USART Instance
ARM GAS  /tmp/cc9n8VrH.s 			page 17


 818:Drivers/STM32G4xx_HAL_Driver/Inc/stm32g4xx_ll_usart.h ****   * @retval None
 819:Drivers/STM32G4xx_HAL_Driver/Inc/stm32g4xx_ll_usart.h ****   */
 820:Drivers/STM32G4xx_HAL_Driver/Inc/stm32g4xx_ll_usart.h **** __STATIC_INLINE void LL_USART_EnableInStopMode(USART_TypeDef *USARTx)
 821:Drivers/STM32G4xx_HAL_Driver/Inc/stm32g4xx_ll_usart.h **** {
 822:Drivers/STM32G4xx_HAL_Driver/Inc/stm32g4xx_ll_usart.h ****   ATOMIC_SET_BIT(USARTx->CR1, USART_CR1_UESM);
 823:Drivers/STM32G4xx_HAL_Driver/Inc/stm32g4xx_ll_usart.h **** }
 824:Drivers/STM32G4xx_HAL_Driver/Inc/stm32g4xx_ll_usart.h **** 
 825:Drivers/STM32G4xx_HAL_Driver/Inc/stm32g4xx_ll_usart.h **** /**
 826:Drivers/STM32G4xx_HAL_Driver/Inc/stm32g4xx_ll_usart.h ****   * @brief  USART disabled in STOP Mode.
 827:Drivers/STM32G4xx_HAL_Driver/Inc/stm32g4xx_ll_usart.h ****   * @note   When this function is disabled, USART is not able to wake up the MCU from Stop mode
 828:Drivers/STM32G4xx_HAL_Driver/Inc/stm32g4xx_ll_usart.h ****   * @note   Macro IS_UART_WAKEUP_FROMSTOP_INSTANCE(USARTx) can be used to check whether or not
 829:Drivers/STM32G4xx_HAL_Driver/Inc/stm32g4xx_ll_usart.h ****   *         Wake-up from Stop mode feature is supported by the USARTx instance.
 830:Drivers/STM32G4xx_HAL_Driver/Inc/stm32g4xx_ll_usart.h ****   * @rmtoll CR1          UESM          LL_USART_DisableInStopMode
 831:Drivers/STM32G4xx_HAL_Driver/Inc/stm32g4xx_ll_usart.h ****   * @param  USARTx USART Instance
 832:Drivers/STM32G4xx_HAL_Driver/Inc/stm32g4xx_ll_usart.h ****   * @retval None
 833:Drivers/STM32G4xx_HAL_Driver/Inc/stm32g4xx_ll_usart.h ****   */
 834:Drivers/STM32G4xx_HAL_Driver/Inc/stm32g4xx_ll_usart.h **** __STATIC_INLINE void LL_USART_DisableInStopMode(USART_TypeDef *USARTx)
 835:Drivers/STM32G4xx_HAL_Driver/Inc/stm32g4xx_ll_usart.h **** {
 836:Drivers/STM32G4xx_HAL_Driver/Inc/stm32g4xx_ll_usart.h ****   ATOMIC_CLEAR_BIT(USARTx->CR1, USART_CR1_UESM);
 837:Drivers/STM32G4xx_HAL_Driver/Inc/stm32g4xx_ll_usart.h **** }
 838:Drivers/STM32G4xx_HAL_Driver/Inc/stm32g4xx_ll_usart.h **** 
 839:Drivers/STM32G4xx_HAL_Driver/Inc/stm32g4xx_ll_usart.h **** /**
 840:Drivers/STM32G4xx_HAL_Driver/Inc/stm32g4xx_ll_usart.h ****   * @brief  Indicate if USART is enabled in STOP Mode (able to wake up MCU from Stop mode or not)
 841:Drivers/STM32G4xx_HAL_Driver/Inc/stm32g4xx_ll_usart.h ****   * @note   Macro IS_UART_WAKEUP_FROMSTOP_INSTANCE(USARTx) can be used to check whether or not
 842:Drivers/STM32G4xx_HAL_Driver/Inc/stm32g4xx_ll_usart.h ****   *         Wake-up from Stop mode feature is supported by the USARTx instance.
 843:Drivers/STM32G4xx_HAL_Driver/Inc/stm32g4xx_ll_usart.h ****   * @rmtoll CR1          UESM          LL_USART_IsEnabledInStopMode
 844:Drivers/STM32G4xx_HAL_Driver/Inc/stm32g4xx_ll_usart.h ****   * @param  USARTx USART Instance
 845:Drivers/STM32G4xx_HAL_Driver/Inc/stm32g4xx_ll_usart.h ****   * @retval State of bit (1 or 0).
 846:Drivers/STM32G4xx_HAL_Driver/Inc/stm32g4xx_ll_usart.h ****   */
 847:Drivers/STM32G4xx_HAL_Driver/Inc/stm32g4xx_ll_usart.h **** __STATIC_INLINE uint32_t LL_USART_IsEnabledInStopMode(const USART_TypeDef *USARTx)
 848:Drivers/STM32G4xx_HAL_Driver/Inc/stm32g4xx_ll_usart.h **** {
 849:Drivers/STM32G4xx_HAL_Driver/Inc/stm32g4xx_ll_usart.h ****   return ((READ_BIT(USARTx->CR1, USART_CR1_UESM) == (USART_CR1_UESM)) ? 1UL : 0UL);
 850:Drivers/STM32G4xx_HAL_Driver/Inc/stm32g4xx_ll_usart.h **** }
 851:Drivers/STM32G4xx_HAL_Driver/Inc/stm32g4xx_ll_usart.h **** 
 852:Drivers/STM32G4xx_HAL_Driver/Inc/stm32g4xx_ll_usart.h **** /**
 853:Drivers/STM32G4xx_HAL_Driver/Inc/stm32g4xx_ll_usart.h ****   * @brief  Receiver Enable (Receiver is enabled and begins searching for a start bit)
 854:Drivers/STM32G4xx_HAL_Driver/Inc/stm32g4xx_ll_usart.h ****   * @rmtoll CR1          RE            LL_USART_EnableDirectionRx
 855:Drivers/STM32G4xx_HAL_Driver/Inc/stm32g4xx_ll_usart.h ****   * @param  USARTx USART Instance
 856:Drivers/STM32G4xx_HAL_Driver/Inc/stm32g4xx_ll_usart.h ****   * @retval None
 857:Drivers/STM32G4xx_HAL_Driver/Inc/stm32g4xx_ll_usart.h ****   */
 858:Drivers/STM32G4xx_HAL_Driver/Inc/stm32g4xx_ll_usart.h **** __STATIC_INLINE void LL_USART_EnableDirectionRx(USART_TypeDef *USARTx)
 859:Drivers/STM32G4xx_HAL_Driver/Inc/stm32g4xx_ll_usart.h **** {
 860:Drivers/STM32G4xx_HAL_Driver/Inc/stm32g4xx_ll_usart.h ****   ATOMIC_SET_BIT(USARTx->CR1, USART_CR1_RE);
 861:Drivers/STM32G4xx_HAL_Driver/Inc/stm32g4xx_ll_usart.h **** }
 862:Drivers/STM32G4xx_HAL_Driver/Inc/stm32g4xx_ll_usart.h **** 
 863:Drivers/STM32G4xx_HAL_Driver/Inc/stm32g4xx_ll_usart.h **** /**
 864:Drivers/STM32G4xx_HAL_Driver/Inc/stm32g4xx_ll_usart.h ****   * @brief  Receiver Disable
 865:Drivers/STM32G4xx_HAL_Driver/Inc/stm32g4xx_ll_usart.h ****   * @rmtoll CR1          RE            LL_USART_DisableDirectionRx
 866:Drivers/STM32G4xx_HAL_Driver/Inc/stm32g4xx_ll_usart.h ****   * @param  USARTx USART Instance
 867:Drivers/STM32G4xx_HAL_Driver/Inc/stm32g4xx_ll_usart.h ****   * @retval None
 868:Drivers/STM32G4xx_HAL_Driver/Inc/stm32g4xx_ll_usart.h ****   */
 869:Drivers/STM32G4xx_HAL_Driver/Inc/stm32g4xx_ll_usart.h **** __STATIC_INLINE void LL_USART_DisableDirectionRx(USART_TypeDef *USARTx)
 870:Drivers/STM32G4xx_HAL_Driver/Inc/stm32g4xx_ll_usart.h **** {
 871:Drivers/STM32G4xx_HAL_Driver/Inc/stm32g4xx_ll_usart.h ****   ATOMIC_CLEAR_BIT(USARTx->CR1, USART_CR1_RE);
 872:Drivers/STM32G4xx_HAL_Driver/Inc/stm32g4xx_ll_usart.h **** }
 873:Drivers/STM32G4xx_HAL_Driver/Inc/stm32g4xx_ll_usart.h **** 
 874:Drivers/STM32G4xx_HAL_Driver/Inc/stm32g4xx_ll_usart.h **** /**
ARM GAS  /tmp/cc9n8VrH.s 			page 18


 875:Drivers/STM32G4xx_HAL_Driver/Inc/stm32g4xx_ll_usart.h ****   * @brief  Transmitter Enable
 876:Drivers/STM32G4xx_HAL_Driver/Inc/stm32g4xx_ll_usart.h ****   * @rmtoll CR1          TE            LL_USART_EnableDirectionTx
 877:Drivers/STM32G4xx_HAL_Driver/Inc/stm32g4xx_ll_usart.h ****   * @param  USARTx USART Instance
 878:Drivers/STM32G4xx_HAL_Driver/Inc/stm32g4xx_ll_usart.h ****   * @retval None
 879:Drivers/STM32G4xx_HAL_Driver/Inc/stm32g4xx_ll_usart.h ****   */
 880:Drivers/STM32G4xx_HAL_Driver/Inc/stm32g4xx_ll_usart.h **** __STATIC_INLINE void LL_USART_EnableDirectionTx(USART_TypeDef *USARTx)
 881:Drivers/STM32G4xx_HAL_Driver/Inc/stm32g4xx_ll_usart.h **** {
 882:Drivers/STM32G4xx_HAL_Driver/Inc/stm32g4xx_ll_usart.h ****   ATOMIC_SET_BIT(USARTx->CR1, USART_CR1_TE);
 883:Drivers/STM32G4xx_HAL_Driver/Inc/stm32g4xx_ll_usart.h **** }
 884:Drivers/STM32G4xx_HAL_Driver/Inc/stm32g4xx_ll_usart.h **** 
 885:Drivers/STM32G4xx_HAL_Driver/Inc/stm32g4xx_ll_usart.h **** /**
 886:Drivers/STM32G4xx_HAL_Driver/Inc/stm32g4xx_ll_usart.h ****   * @brief  Transmitter Disable
 887:Drivers/STM32G4xx_HAL_Driver/Inc/stm32g4xx_ll_usart.h ****   * @rmtoll CR1          TE            LL_USART_DisableDirectionTx
 888:Drivers/STM32G4xx_HAL_Driver/Inc/stm32g4xx_ll_usart.h ****   * @param  USARTx USART Instance
 889:Drivers/STM32G4xx_HAL_Driver/Inc/stm32g4xx_ll_usart.h ****   * @retval None
 890:Drivers/STM32G4xx_HAL_Driver/Inc/stm32g4xx_ll_usart.h ****   */
 891:Drivers/STM32G4xx_HAL_Driver/Inc/stm32g4xx_ll_usart.h **** __STATIC_INLINE void LL_USART_DisableDirectionTx(USART_TypeDef *USARTx)
 892:Drivers/STM32G4xx_HAL_Driver/Inc/stm32g4xx_ll_usart.h **** {
 893:Drivers/STM32G4xx_HAL_Driver/Inc/stm32g4xx_ll_usart.h ****   ATOMIC_CLEAR_BIT(USARTx->CR1, USART_CR1_TE);
 894:Drivers/STM32G4xx_HAL_Driver/Inc/stm32g4xx_ll_usart.h **** }
 895:Drivers/STM32G4xx_HAL_Driver/Inc/stm32g4xx_ll_usart.h **** 
 896:Drivers/STM32G4xx_HAL_Driver/Inc/stm32g4xx_ll_usart.h **** /**
 897:Drivers/STM32G4xx_HAL_Driver/Inc/stm32g4xx_ll_usart.h ****   * @brief  Configure simultaneously enabled/disabled states
 898:Drivers/STM32G4xx_HAL_Driver/Inc/stm32g4xx_ll_usart.h ****   *         of Transmitter and Receiver
 899:Drivers/STM32G4xx_HAL_Driver/Inc/stm32g4xx_ll_usart.h ****   * @rmtoll CR1          RE            LL_USART_SetTransferDirection\n
 900:Drivers/STM32G4xx_HAL_Driver/Inc/stm32g4xx_ll_usart.h ****   *         CR1          TE            LL_USART_SetTransferDirection
 901:Drivers/STM32G4xx_HAL_Driver/Inc/stm32g4xx_ll_usart.h ****   * @param  USARTx USART Instance
 902:Drivers/STM32G4xx_HAL_Driver/Inc/stm32g4xx_ll_usart.h ****   * @param  TransferDirection This parameter can be one of the following values:
 903:Drivers/STM32G4xx_HAL_Driver/Inc/stm32g4xx_ll_usart.h ****   *         @arg @ref LL_USART_DIRECTION_NONE
 904:Drivers/STM32G4xx_HAL_Driver/Inc/stm32g4xx_ll_usart.h ****   *         @arg @ref LL_USART_DIRECTION_RX
 905:Drivers/STM32G4xx_HAL_Driver/Inc/stm32g4xx_ll_usart.h ****   *         @arg @ref LL_USART_DIRECTION_TX
 906:Drivers/STM32G4xx_HAL_Driver/Inc/stm32g4xx_ll_usart.h ****   *         @arg @ref LL_USART_DIRECTION_TX_RX
 907:Drivers/STM32G4xx_HAL_Driver/Inc/stm32g4xx_ll_usart.h ****   * @retval None
 908:Drivers/STM32G4xx_HAL_Driver/Inc/stm32g4xx_ll_usart.h ****   */
 909:Drivers/STM32G4xx_HAL_Driver/Inc/stm32g4xx_ll_usart.h **** __STATIC_INLINE void LL_USART_SetTransferDirection(USART_TypeDef *USARTx, uint32_t TransferDirectio
 910:Drivers/STM32G4xx_HAL_Driver/Inc/stm32g4xx_ll_usart.h **** {
 911:Drivers/STM32G4xx_HAL_Driver/Inc/stm32g4xx_ll_usart.h ****   ATOMIC_MODIFY_REG(USARTx->CR1, USART_CR1_RE | USART_CR1_TE, TransferDirection);
 912:Drivers/STM32G4xx_HAL_Driver/Inc/stm32g4xx_ll_usart.h **** }
 913:Drivers/STM32G4xx_HAL_Driver/Inc/stm32g4xx_ll_usart.h **** 
 914:Drivers/STM32G4xx_HAL_Driver/Inc/stm32g4xx_ll_usart.h **** /**
 915:Drivers/STM32G4xx_HAL_Driver/Inc/stm32g4xx_ll_usart.h ****   * @brief  Return enabled/disabled states of Transmitter and Receiver
 916:Drivers/STM32G4xx_HAL_Driver/Inc/stm32g4xx_ll_usart.h ****   * @rmtoll CR1          RE            LL_USART_GetTransferDirection\n
 917:Drivers/STM32G4xx_HAL_Driver/Inc/stm32g4xx_ll_usart.h ****   *         CR1          TE            LL_USART_GetTransferDirection
 918:Drivers/STM32G4xx_HAL_Driver/Inc/stm32g4xx_ll_usart.h ****   * @param  USARTx USART Instance
 919:Drivers/STM32G4xx_HAL_Driver/Inc/stm32g4xx_ll_usart.h ****   * @retval Returned value can be one of the following values:
 920:Drivers/STM32G4xx_HAL_Driver/Inc/stm32g4xx_ll_usart.h ****   *         @arg @ref LL_USART_DIRECTION_NONE
 921:Drivers/STM32G4xx_HAL_Driver/Inc/stm32g4xx_ll_usart.h ****   *         @arg @ref LL_USART_DIRECTION_RX
 922:Drivers/STM32G4xx_HAL_Driver/Inc/stm32g4xx_ll_usart.h ****   *         @arg @ref LL_USART_DIRECTION_TX
 923:Drivers/STM32G4xx_HAL_Driver/Inc/stm32g4xx_ll_usart.h ****   *         @arg @ref LL_USART_DIRECTION_TX_RX
 924:Drivers/STM32G4xx_HAL_Driver/Inc/stm32g4xx_ll_usart.h ****   */
 925:Drivers/STM32G4xx_HAL_Driver/Inc/stm32g4xx_ll_usart.h **** __STATIC_INLINE uint32_t LL_USART_GetTransferDirection(const USART_TypeDef *USARTx)
 926:Drivers/STM32G4xx_HAL_Driver/Inc/stm32g4xx_ll_usart.h **** {
 927:Drivers/STM32G4xx_HAL_Driver/Inc/stm32g4xx_ll_usart.h ****   return (uint32_t)(READ_BIT(USARTx->CR1, USART_CR1_RE | USART_CR1_TE));
 928:Drivers/STM32G4xx_HAL_Driver/Inc/stm32g4xx_ll_usart.h **** }
 929:Drivers/STM32G4xx_HAL_Driver/Inc/stm32g4xx_ll_usart.h **** 
 930:Drivers/STM32G4xx_HAL_Driver/Inc/stm32g4xx_ll_usart.h **** /**
 931:Drivers/STM32G4xx_HAL_Driver/Inc/stm32g4xx_ll_usart.h ****   * @brief  Configure Parity (enabled/disabled and parity mode if enabled).
ARM GAS  /tmp/cc9n8VrH.s 			page 19


 932:Drivers/STM32G4xx_HAL_Driver/Inc/stm32g4xx_ll_usart.h ****   * @note   This function selects if hardware parity control (generation and detection) is enabled 
 933:Drivers/STM32G4xx_HAL_Driver/Inc/stm32g4xx_ll_usart.h ****   *         When the parity control is enabled (Odd or Even), computed parity bit is inserted at th
 934:Drivers/STM32G4xx_HAL_Driver/Inc/stm32g4xx_ll_usart.h ****   *         (9th or 8th bit depending on data width) and parity is checked on the received data.
 935:Drivers/STM32G4xx_HAL_Driver/Inc/stm32g4xx_ll_usart.h ****   * @rmtoll CR1          PS            LL_USART_SetParity\n
 936:Drivers/STM32G4xx_HAL_Driver/Inc/stm32g4xx_ll_usart.h ****   *         CR1          PCE           LL_USART_SetParity
 937:Drivers/STM32G4xx_HAL_Driver/Inc/stm32g4xx_ll_usart.h ****   * @param  USARTx USART Instance
 938:Drivers/STM32G4xx_HAL_Driver/Inc/stm32g4xx_ll_usart.h ****   * @param  Parity This parameter can be one of the following values:
 939:Drivers/STM32G4xx_HAL_Driver/Inc/stm32g4xx_ll_usart.h ****   *         @arg @ref LL_USART_PARITY_NONE
 940:Drivers/STM32G4xx_HAL_Driver/Inc/stm32g4xx_ll_usart.h ****   *         @arg @ref LL_USART_PARITY_EVEN
 941:Drivers/STM32G4xx_HAL_Driver/Inc/stm32g4xx_ll_usart.h ****   *         @arg @ref LL_USART_PARITY_ODD
 942:Drivers/STM32G4xx_HAL_Driver/Inc/stm32g4xx_ll_usart.h ****   * @retval None
 943:Drivers/STM32G4xx_HAL_Driver/Inc/stm32g4xx_ll_usart.h ****   */
 944:Drivers/STM32G4xx_HAL_Driver/Inc/stm32g4xx_ll_usart.h **** __STATIC_INLINE void LL_USART_SetParity(USART_TypeDef *USARTx, uint32_t Parity)
 945:Drivers/STM32G4xx_HAL_Driver/Inc/stm32g4xx_ll_usart.h **** {
 946:Drivers/STM32G4xx_HAL_Driver/Inc/stm32g4xx_ll_usart.h ****   MODIFY_REG(USARTx->CR1, USART_CR1_PS | USART_CR1_PCE, Parity);
 947:Drivers/STM32G4xx_HAL_Driver/Inc/stm32g4xx_ll_usart.h **** }
 948:Drivers/STM32G4xx_HAL_Driver/Inc/stm32g4xx_ll_usart.h **** 
 949:Drivers/STM32G4xx_HAL_Driver/Inc/stm32g4xx_ll_usart.h **** /**
 950:Drivers/STM32G4xx_HAL_Driver/Inc/stm32g4xx_ll_usart.h ****   * @brief  Return Parity configuration (enabled/disabled and parity mode if enabled)
 951:Drivers/STM32G4xx_HAL_Driver/Inc/stm32g4xx_ll_usart.h ****   * @rmtoll CR1          PS            LL_USART_GetParity\n
 952:Drivers/STM32G4xx_HAL_Driver/Inc/stm32g4xx_ll_usart.h ****   *         CR1          PCE           LL_USART_GetParity
 953:Drivers/STM32G4xx_HAL_Driver/Inc/stm32g4xx_ll_usart.h ****   * @param  USARTx USART Instance
 954:Drivers/STM32G4xx_HAL_Driver/Inc/stm32g4xx_ll_usart.h ****   * @retval Returned value can be one of the following values:
 955:Drivers/STM32G4xx_HAL_Driver/Inc/stm32g4xx_ll_usart.h ****   *         @arg @ref LL_USART_PARITY_NONE
 956:Drivers/STM32G4xx_HAL_Driver/Inc/stm32g4xx_ll_usart.h ****   *         @arg @ref LL_USART_PARITY_EVEN
 957:Drivers/STM32G4xx_HAL_Driver/Inc/stm32g4xx_ll_usart.h ****   *         @arg @ref LL_USART_PARITY_ODD
 958:Drivers/STM32G4xx_HAL_Driver/Inc/stm32g4xx_ll_usart.h ****   */
 959:Drivers/STM32G4xx_HAL_Driver/Inc/stm32g4xx_ll_usart.h **** __STATIC_INLINE uint32_t LL_USART_GetParity(const USART_TypeDef *USARTx)
 960:Drivers/STM32G4xx_HAL_Driver/Inc/stm32g4xx_ll_usart.h **** {
 961:Drivers/STM32G4xx_HAL_Driver/Inc/stm32g4xx_ll_usart.h ****   return (uint32_t)(READ_BIT(USARTx->CR1, USART_CR1_PS | USART_CR1_PCE));
 962:Drivers/STM32G4xx_HAL_Driver/Inc/stm32g4xx_ll_usart.h **** }
 963:Drivers/STM32G4xx_HAL_Driver/Inc/stm32g4xx_ll_usart.h **** 
 964:Drivers/STM32G4xx_HAL_Driver/Inc/stm32g4xx_ll_usart.h **** /**
 965:Drivers/STM32G4xx_HAL_Driver/Inc/stm32g4xx_ll_usart.h ****   * @brief  Set Receiver Wake Up method from Mute mode.
 966:Drivers/STM32G4xx_HAL_Driver/Inc/stm32g4xx_ll_usart.h ****   * @rmtoll CR1          WAKE          LL_USART_SetWakeUpMethod
 967:Drivers/STM32G4xx_HAL_Driver/Inc/stm32g4xx_ll_usart.h ****   * @param  USARTx USART Instance
 968:Drivers/STM32G4xx_HAL_Driver/Inc/stm32g4xx_ll_usart.h ****   * @param  Method This parameter can be one of the following values:
 969:Drivers/STM32G4xx_HAL_Driver/Inc/stm32g4xx_ll_usart.h ****   *         @arg @ref LL_USART_WAKEUP_IDLELINE
 970:Drivers/STM32G4xx_HAL_Driver/Inc/stm32g4xx_ll_usart.h ****   *         @arg @ref LL_USART_WAKEUP_ADDRESSMARK
 971:Drivers/STM32G4xx_HAL_Driver/Inc/stm32g4xx_ll_usart.h ****   * @retval None
 972:Drivers/STM32G4xx_HAL_Driver/Inc/stm32g4xx_ll_usart.h ****   */
 973:Drivers/STM32G4xx_HAL_Driver/Inc/stm32g4xx_ll_usart.h **** __STATIC_INLINE void LL_USART_SetWakeUpMethod(USART_TypeDef *USARTx, uint32_t Method)
 974:Drivers/STM32G4xx_HAL_Driver/Inc/stm32g4xx_ll_usart.h **** {
 975:Drivers/STM32G4xx_HAL_Driver/Inc/stm32g4xx_ll_usart.h ****   MODIFY_REG(USARTx->CR1, USART_CR1_WAKE, Method);
 976:Drivers/STM32G4xx_HAL_Driver/Inc/stm32g4xx_ll_usart.h **** }
 977:Drivers/STM32G4xx_HAL_Driver/Inc/stm32g4xx_ll_usart.h **** 
 978:Drivers/STM32G4xx_HAL_Driver/Inc/stm32g4xx_ll_usart.h **** /**
 979:Drivers/STM32G4xx_HAL_Driver/Inc/stm32g4xx_ll_usart.h ****   * @brief  Return Receiver Wake Up method from Mute mode
 980:Drivers/STM32G4xx_HAL_Driver/Inc/stm32g4xx_ll_usart.h ****   * @rmtoll CR1          WAKE          LL_USART_GetWakeUpMethod
 981:Drivers/STM32G4xx_HAL_Driver/Inc/stm32g4xx_ll_usart.h ****   * @param  USARTx USART Instance
 982:Drivers/STM32G4xx_HAL_Driver/Inc/stm32g4xx_ll_usart.h ****   * @retval Returned value can be one of the following values:
 983:Drivers/STM32G4xx_HAL_Driver/Inc/stm32g4xx_ll_usart.h ****   *         @arg @ref LL_USART_WAKEUP_IDLELINE
 984:Drivers/STM32G4xx_HAL_Driver/Inc/stm32g4xx_ll_usart.h ****   *         @arg @ref LL_USART_WAKEUP_ADDRESSMARK
 985:Drivers/STM32G4xx_HAL_Driver/Inc/stm32g4xx_ll_usart.h ****   */
 986:Drivers/STM32G4xx_HAL_Driver/Inc/stm32g4xx_ll_usart.h **** __STATIC_INLINE uint32_t LL_USART_GetWakeUpMethod(const USART_TypeDef *USARTx)
 987:Drivers/STM32G4xx_HAL_Driver/Inc/stm32g4xx_ll_usart.h **** {
 988:Drivers/STM32G4xx_HAL_Driver/Inc/stm32g4xx_ll_usart.h ****   return (uint32_t)(READ_BIT(USARTx->CR1, USART_CR1_WAKE));
ARM GAS  /tmp/cc9n8VrH.s 			page 20


 989:Drivers/STM32G4xx_HAL_Driver/Inc/stm32g4xx_ll_usart.h **** }
 990:Drivers/STM32G4xx_HAL_Driver/Inc/stm32g4xx_ll_usart.h **** 
 991:Drivers/STM32G4xx_HAL_Driver/Inc/stm32g4xx_ll_usart.h **** /**
 992:Drivers/STM32G4xx_HAL_Driver/Inc/stm32g4xx_ll_usart.h ****   * @brief  Set Word length (i.e. nb of data bits, excluding start and stop bits)
 993:Drivers/STM32G4xx_HAL_Driver/Inc/stm32g4xx_ll_usart.h ****   * @rmtoll CR1          M0            LL_USART_SetDataWidth\n
 994:Drivers/STM32G4xx_HAL_Driver/Inc/stm32g4xx_ll_usart.h ****   *         CR1          M1            LL_USART_SetDataWidth
 995:Drivers/STM32G4xx_HAL_Driver/Inc/stm32g4xx_ll_usart.h ****   * @param  USARTx USART Instance
 996:Drivers/STM32G4xx_HAL_Driver/Inc/stm32g4xx_ll_usart.h ****   * @param  DataWidth This parameter can be one of the following values:
 997:Drivers/STM32G4xx_HAL_Driver/Inc/stm32g4xx_ll_usart.h ****   *         @arg @ref LL_USART_DATAWIDTH_7B
 998:Drivers/STM32G4xx_HAL_Driver/Inc/stm32g4xx_ll_usart.h ****   *         @arg @ref LL_USART_DATAWIDTH_8B
 999:Drivers/STM32G4xx_HAL_Driver/Inc/stm32g4xx_ll_usart.h ****   *         @arg @ref LL_USART_DATAWIDTH_9B
1000:Drivers/STM32G4xx_HAL_Driver/Inc/stm32g4xx_ll_usart.h ****   * @retval None
1001:Drivers/STM32G4xx_HAL_Driver/Inc/stm32g4xx_ll_usart.h ****   */
1002:Drivers/STM32G4xx_HAL_Driver/Inc/stm32g4xx_ll_usart.h **** __STATIC_INLINE void LL_USART_SetDataWidth(USART_TypeDef *USARTx, uint32_t DataWidth)
1003:Drivers/STM32G4xx_HAL_Driver/Inc/stm32g4xx_ll_usart.h **** {
1004:Drivers/STM32G4xx_HAL_Driver/Inc/stm32g4xx_ll_usart.h ****   MODIFY_REG(USARTx->CR1, USART_CR1_M, DataWidth);
1005:Drivers/STM32G4xx_HAL_Driver/Inc/stm32g4xx_ll_usart.h **** }
1006:Drivers/STM32G4xx_HAL_Driver/Inc/stm32g4xx_ll_usart.h **** 
1007:Drivers/STM32G4xx_HAL_Driver/Inc/stm32g4xx_ll_usart.h **** /**
1008:Drivers/STM32G4xx_HAL_Driver/Inc/stm32g4xx_ll_usart.h ****   * @brief  Return Word length (i.e. nb of data bits, excluding start and stop bits)
1009:Drivers/STM32G4xx_HAL_Driver/Inc/stm32g4xx_ll_usart.h ****   * @rmtoll CR1          M0            LL_USART_GetDataWidth\n
1010:Drivers/STM32G4xx_HAL_Driver/Inc/stm32g4xx_ll_usart.h ****   *         CR1          M1            LL_USART_GetDataWidth
1011:Drivers/STM32G4xx_HAL_Driver/Inc/stm32g4xx_ll_usart.h ****   * @param  USARTx USART Instance
1012:Drivers/STM32G4xx_HAL_Driver/Inc/stm32g4xx_ll_usart.h ****   * @retval Returned value can be one of the following values:
1013:Drivers/STM32G4xx_HAL_Driver/Inc/stm32g4xx_ll_usart.h ****   *         @arg @ref LL_USART_DATAWIDTH_7B
1014:Drivers/STM32G4xx_HAL_Driver/Inc/stm32g4xx_ll_usart.h ****   *         @arg @ref LL_USART_DATAWIDTH_8B
1015:Drivers/STM32G4xx_HAL_Driver/Inc/stm32g4xx_ll_usart.h ****   *         @arg @ref LL_USART_DATAWIDTH_9B
1016:Drivers/STM32G4xx_HAL_Driver/Inc/stm32g4xx_ll_usart.h ****   */
1017:Drivers/STM32G4xx_HAL_Driver/Inc/stm32g4xx_ll_usart.h **** __STATIC_INLINE uint32_t LL_USART_GetDataWidth(const USART_TypeDef *USARTx)
1018:Drivers/STM32G4xx_HAL_Driver/Inc/stm32g4xx_ll_usart.h **** {
1019:Drivers/STM32G4xx_HAL_Driver/Inc/stm32g4xx_ll_usart.h ****   return (uint32_t)(READ_BIT(USARTx->CR1, USART_CR1_M));
1020:Drivers/STM32G4xx_HAL_Driver/Inc/stm32g4xx_ll_usart.h **** }
1021:Drivers/STM32G4xx_HAL_Driver/Inc/stm32g4xx_ll_usart.h **** 
1022:Drivers/STM32G4xx_HAL_Driver/Inc/stm32g4xx_ll_usart.h **** /**
1023:Drivers/STM32G4xx_HAL_Driver/Inc/stm32g4xx_ll_usart.h ****   * @brief  Allow switch between Mute Mode and Active mode
1024:Drivers/STM32G4xx_HAL_Driver/Inc/stm32g4xx_ll_usart.h ****   * @rmtoll CR1          MME           LL_USART_EnableMuteMode
1025:Drivers/STM32G4xx_HAL_Driver/Inc/stm32g4xx_ll_usart.h ****   * @param  USARTx USART Instance
1026:Drivers/STM32G4xx_HAL_Driver/Inc/stm32g4xx_ll_usart.h ****   * @retval None
1027:Drivers/STM32G4xx_HAL_Driver/Inc/stm32g4xx_ll_usart.h ****   */
1028:Drivers/STM32G4xx_HAL_Driver/Inc/stm32g4xx_ll_usart.h **** __STATIC_INLINE void LL_USART_EnableMuteMode(USART_TypeDef *USARTx)
1029:Drivers/STM32G4xx_HAL_Driver/Inc/stm32g4xx_ll_usart.h **** {
1030:Drivers/STM32G4xx_HAL_Driver/Inc/stm32g4xx_ll_usart.h ****   ATOMIC_SET_BIT(USARTx->CR1, USART_CR1_MME);
1031:Drivers/STM32G4xx_HAL_Driver/Inc/stm32g4xx_ll_usart.h **** }
1032:Drivers/STM32G4xx_HAL_Driver/Inc/stm32g4xx_ll_usart.h **** 
1033:Drivers/STM32G4xx_HAL_Driver/Inc/stm32g4xx_ll_usart.h **** /**
1034:Drivers/STM32G4xx_HAL_Driver/Inc/stm32g4xx_ll_usart.h ****   * @brief  Prevent Mute Mode use. Set Receiver in active mode permanently.
1035:Drivers/STM32G4xx_HAL_Driver/Inc/stm32g4xx_ll_usart.h ****   * @rmtoll CR1          MME           LL_USART_DisableMuteMode
1036:Drivers/STM32G4xx_HAL_Driver/Inc/stm32g4xx_ll_usart.h ****   * @param  USARTx USART Instance
1037:Drivers/STM32G4xx_HAL_Driver/Inc/stm32g4xx_ll_usart.h ****   * @retval None
1038:Drivers/STM32G4xx_HAL_Driver/Inc/stm32g4xx_ll_usart.h ****   */
1039:Drivers/STM32G4xx_HAL_Driver/Inc/stm32g4xx_ll_usart.h **** __STATIC_INLINE void LL_USART_DisableMuteMode(USART_TypeDef *USARTx)
1040:Drivers/STM32G4xx_HAL_Driver/Inc/stm32g4xx_ll_usart.h **** {
1041:Drivers/STM32G4xx_HAL_Driver/Inc/stm32g4xx_ll_usart.h ****   ATOMIC_CLEAR_BIT(USARTx->CR1, USART_CR1_MME);
1042:Drivers/STM32G4xx_HAL_Driver/Inc/stm32g4xx_ll_usart.h **** }
1043:Drivers/STM32G4xx_HAL_Driver/Inc/stm32g4xx_ll_usart.h **** 
1044:Drivers/STM32G4xx_HAL_Driver/Inc/stm32g4xx_ll_usart.h **** /**
1045:Drivers/STM32G4xx_HAL_Driver/Inc/stm32g4xx_ll_usart.h ****   * @brief  Indicate if switch between Mute Mode and Active mode is allowed
ARM GAS  /tmp/cc9n8VrH.s 			page 21


1046:Drivers/STM32G4xx_HAL_Driver/Inc/stm32g4xx_ll_usart.h ****   * @rmtoll CR1          MME           LL_USART_IsEnabledMuteMode
1047:Drivers/STM32G4xx_HAL_Driver/Inc/stm32g4xx_ll_usart.h ****   * @param  USARTx USART Instance
1048:Drivers/STM32G4xx_HAL_Driver/Inc/stm32g4xx_ll_usart.h ****   * @retval State of bit (1 or 0).
1049:Drivers/STM32G4xx_HAL_Driver/Inc/stm32g4xx_ll_usart.h ****   */
1050:Drivers/STM32G4xx_HAL_Driver/Inc/stm32g4xx_ll_usart.h **** __STATIC_INLINE uint32_t LL_USART_IsEnabledMuteMode(const USART_TypeDef *USARTx)
1051:Drivers/STM32G4xx_HAL_Driver/Inc/stm32g4xx_ll_usart.h **** {
1052:Drivers/STM32G4xx_HAL_Driver/Inc/stm32g4xx_ll_usart.h ****   return ((READ_BIT(USARTx->CR1, USART_CR1_MME) == (USART_CR1_MME)) ? 1UL : 0UL);
1053:Drivers/STM32G4xx_HAL_Driver/Inc/stm32g4xx_ll_usart.h **** }
1054:Drivers/STM32G4xx_HAL_Driver/Inc/stm32g4xx_ll_usart.h **** 
1055:Drivers/STM32G4xx_HAL_Driver/Inc/stm32g4xx_ll_usart.h **** /**
1056:Drivers/STM32G4xx_HAL_Driver/Inc/stm32g4xx_ll_usart.h ****   * @brief  Set Oversampling to 8-bit or 16-bit mode
1057:Drivers/STM32G4xx_HAL_Driver/Inc/stm32g4xx_ll_usart.h ****   * @rmtoll CR1          OVER8         LL_USART_SetOverSampling
1058:Drivers/STM32G4xx_HAL_Driver/Inc/stm32g4xx_ll_usart.h ****   * @param  USARTx USART Instance
1059:Drivers/STM32G4xx_HAL_Driver/Inc/stm32g4xx_ll_usart.h ****   * @param  OverSampling This parameter can be one of the following values:
1060:Drivers/STM32G4xx_HAL_Driver/Inc/stm32g4xx_ll_usart.h ****   *         @arg @ref LL_USART_OVERSAMPLING_16
1061:Drivers/STM32G4xx_HAL_Driver/Inc/stm32g4xx_ll_usart.h ****   *         @arg @ref LL_USART_OVERSAMPLING_8
1062:Drivers/STM32G4xx_HAL_Driver/Inc/stm32g4xx_ll_usart.h ****   * @retval None
1063:Drivers/STM32G4xx_HAL_Driver/Inc/stm32g4xx_ll_usart.h ****   */
1064:Drivers/STM32G4xx_HAL_Driver/Inc/stm32g4xx_ll_usart.h **** __STATIC_INLINE void LL_USART_SetOverSampling(USART_TypeDef *USARTx, uint32_t OverSampling)
1065:Drivers/STM32G4xx_HAL_Driver/Inc/stm32g4xx_ll_usart.h **** {
1066:Drivers/STM32G4xx_HAL_Driver/Inc/stm32g4xx_ll_usart.h ****   MODIFY_REG(USARTx->CR1, USART_CR1_OVER8, OverSampling);
1067:Drivers/STM32G4xx_HAL_Driver/Inc/stm32g4xx_ll_usart.h **** }
1068:Drivers/STM32G4xx_HAL_Driver/Inc/stm32g4xx_ll_usart.h **** 
1069:Drivers/STM32G4xx_HAL_Driver/Inc/stm32g4xx_ll_usart.h **** /**
1070:Drivers/STM32G4xx_HAL_Driver/Inc/stm32g4xx_ll_usart.h ****   * @brief  Return Oversampling mode
1071:Drivers/STM32G4xx_HAL_Driver/Inc/stm32g4xx_ll_usart.h ****   * @rmtoll CR1          OVER8         LL_USART_GetOverSampling
1072:Drivers/STM32G4xx_HAL_Driver/Inc/stm32g4xx_ll_usart.h ****   * @param  USARTx USART Instance
1073:Drivers/STM32G4xx_HAL_Driver/Inc/stm32g4xx_ll_usart.h ****   * @retval Returned value can be one of the following values:
1074:Drivers/STM32G4xx_HAL_Driver/Inc/stm32g4xx_ll_usart.h ****   *         @arg @ref LL_USART_OVERSAMPLING_16
1075:Drivers/STM32G4xx_HAL_Driver/Inc/stm32g4xx_ll_usart.h ****   *         @arg @ref LL_USART_OVERSAMPLING_8
1076:Drivers/STM32G4xx_HAL_Driver/Inc/stm32g4xx_ll_usart.h ****   */
1077:Drivers/STM32G4xx_HAL_Driver/Inc/stm32g4xx_ll_usart.h **** __STATIC_INLINE uint32_t LL_USART_GetOverSampling(const USART_TypeDef *USARTx)
1078:Drivers/STM32G4xx_HAL_Driver/Inc/stm32g4xx_ll_usart.h **** {
1079:Drivers/STM32G4xx_HAL_Driver/Inc/stm32g4xx_ll_usart.h ****   return (uint32_t)(READ_BIT(USARTx->CR1, USART_CR1_OVER8));
1080:Drivers/STM32G4xx_HAL_Driver/Inc/stm32g4xx_ll_usart.h **** }
1081:Drivers/STM32G4xx_HAL_Driver/Inc/stm32g4xx_ll_usart.h **** 
1082:Drivers/STM32G4xx_HAL_Driver/Inc/stm32g4xx_ll_usart.h **** /**
1083:Drivers/STM32G4xx_HAL_Driver/Inc/stm32g4xx_ll_usart.h ****   * @brief  Configure if Clock pulse of the last data bit is output to the SCLK pin or not
1084:Drivers/STM32G4xx_HAL_Driver/Inc/stm32g4xx_ll_usart.h ****   * @note   Macro IS_USART_INSTANCE(USARTx) can be used to check whether or not
1085:Drivers/STM32G4xx_HAL_Driver/Inc/stm32g4xx_ll_usart.h ****   *         Synchronous mode is supported by the USARTx instance.
1086:Drivers/STM32G4xx_HAL_Driver/Inc/stm32g4xx_ll_usart.h ****   * @rmtoll CR2          LBCL          LL_USART_SetLastClkPulseOutput
1087:Drivers/STM32G4xx_HAL_Driver/Inc/stm32g4xx_ll_usart.h ****   * @param  USARTx USART Instance
1088:Drivers/STM32G4xx_HAL_Driver/Inc/stm32g4xx_ll_usart.h ****   * @param  LastBitClockPulse This parameter can be one of the following values:
1089:Drivers/STM32G4xx_HAL_Driver/Inc/stm32g4xx_ll_usart.h ****   *         @arg @ref LL_USART_LASTCLKPULSE_NO_OUTPUT
1090:Drivers/STM32G4xx_HAL_Driver/Inc/stm32g4xx_ll_usart.h ****   *         @arg @ref LL_USART_LASTCLKPULSE_OUTPUT
1091:Drivers/STM32G4xx_HAL_Driver/Inc/stm32g4xx_ll_usart.h ****   * @retval None
1092:Drivers/STM32G4xx_HAL_Driver/Inc/stm32g4xx_ll_usart.h ****   */
1093:Drivers/STM32G4xx_HAL_Driver/Inc/stm32g4xx_ll_usart.h **** __STATIC_INLINE void LL_USART_SetLastClkPulseOutput(USART_TypeDef *USARTx, uint32_t LastBitClockPul
1094:Drivers/STM32G4xx_HAL_Driver/Inc/stm32g4xx_ll_usart.h **** {
1095:Drivers/STM32G4xx_HAL_Driver/Inc/stm32g4xx_ll_usart.h ****   MODIFY_REG(USARTx->CR2, USART_CR2_LBCL, LastBitClockPulse);
1096:Drivers/STM32G4xx_HAL_Driver/Inc/stm32g4xx_ll_usart.h **** }
1097:Drivers/STM32G4xx_HAL_Driver/Inc/stm32g4xx_ll_usart.h **** 
1098:Drivers/STM32G4xx_HAL_Driver/Inc/stm32g4xx_ll_usart.h **** /**
1099:Drivers/STM32G4xx_HAL_Driver/Inc/stm32g4xx_ll_usart.h ****   * @brief  Retrieve Clock pulse of the last data bit output configuration
1100:Drivers/STM32G4xx_HAL_Driver/Inc/stm32g4xx_ll_usart.h ****   *         (Last bit Clock pulse output to the SCLK pin or not)
1101:Drivers/STM32G4xx_HAL_Driver/Inc/stm32g4xx_ll_usart.h ****   * @note   Macro IS_USART_INSTANCE(USARTx) can be used to check whether or not
1102:Drivers/STM32G4xx_HAL_Driver/Inc/stm32g4xx_ll_usart.h ****   *         Synchronous mode is supported by the USARTx instance.
ARM GAS  /tmp/cc9n8VrH.s 			page 22


1103:Drivers/STM32G4xx_HAL_Driver/Inc/stm32g4xx_ll_usart.h ****   * @rmtoll CR2          LBCL          LL_USART_GetLastClkPulseOutput
1104:Drivers/STM32G4xx_HAL_Driver/Inc/stm32g4xx_ll_usart.h ****   * @param  USARTx USART Instance
1105:Drivers/STM32G4xx_HAL_Driver/Inc/stm32g4xx_ll_usart.h ****   * @retval Returned value can be one of the following values:
1106:Drivers/STM32G4xx_HAL_Driver/Inc/stm32g4xx_ll_usart.h ****   *         @arg @ref LL_USART_LASTCLKPULSE_NO_OUTPUT
1107:Drivers/STM32G4xx_HAL_Driver/Inc/stm32g4xx_ll_usart.h ****   *         @arg @ref LL_USART_LASTCLKPULSE_OUTPUT
1108:Drivers/STM32G4xx_HAL_Driver/Inc/stm32g4xx_ll_usart.h ****   */
1109:Drivers/STM32G4xx_HAL_Driver/Inc/stm32g4xx_ll_usart.h **** __STATIC_INLINE uint32_t LL_USART_GetLastClkPulseOutput(const USART_TypeDef *USARTx)
1110:Drivers/STM32G4xx_HAL_Driver/Inc/stm32g4xx_ll_usart.h **** {
1111:Drivers/STM32G4xx_HAL_Driver/Inc/stm32g4xx_ll_usart.h ****   return (uint32_t)(READ_BIT(USARTx->CR2, USART_CR2_LBCL));
1112:Drivers/STM32G4xx_HAL_Driver/Inc/stm32g4xx_ll_usart.h **** }
1113:Drivers/STM32G4xx_HAL_Driver/Inc/stm32g4xx_ll_usart.h **** 
1114:Drivers/STM32G4xx_HAL_Driver/Inc/stm32g4xx_ll_usart.h **** /**
1115:Drivers/STM32G4xx_HAL_Driver/Inc/stm32g4xx_ll_usart.h ****   * @brief  Select the phase of the clock output on the SCLK pin in synchronous mode
1116:Drivers/STM32G4xx_HAL_Driver/Inc/stm32g4xx_ll_usart.h ****   * @note   Macro IS_USART_INSTANCE(USARTx) can be used to check whether or not
1117:Drivers/STM32G4xx_HAL_Driver/Inc/stm32g4xx_ll_usart.h ****   *         Synchronous mode is supported by the USARTx instance.
1118:Drivers/STM32G4xx_HAL_Driver/Inc/stm32g4xx_ll_usart.h ****   * @rmtoll CR2          CPHA          LL_USART_SetClockPhase
1119:Drivers/STM32G4xx_HAL_Driver/Inc/stm32g4xx_ll_usart.h ****   * @param  USARTx USART Instance
1120:Drivers/STM32G4xx_HAL_Driver/Inc/stm32g4xx_ll_usart.h ****   * @param  ClockPhase This parameter can be one of the following values:
1121:Drivers/STM32G4xx_HAL_Driver/Inc/stm32g4xx_ll_usart.h ****   *         @arg @ref LL_USART_PHASE_1EDGE
1122:Drivers/STM32G4xx_HAL_Driver/Inc/stm32g4xx_ll_usart.h ****   *         @arg @ref LL_USART_PHASE_2EDGE
1123:Drivers/STM32G4xx_HAL_Driver/Inc/stm32g4xx_ll_usart.h ****   * @retval None
1124:Drivers/STM32G4xx_HAL_Driver/Inc/stm32g4xx_ll_usart.h ****   */
1125:Drivers/STM32G4xx_HAL_Driver/Inc/stm32g4xx_ll_usart.h **** __STATIC_INLINE void LL_USART_SetClockPhase(USART_TypeDef *USARTx, uint32_t ClockPhase)
1126:Drivers/STM32G4xx_HAL_Driver/Inc/stm32g4xx_ll_usart.h **** {
1127:Drivers/STM32G4xx_HAL_Driver/Inc/stm32g4xx_ll_usart.h ****   MODIFY_REG(USARTx->CR2, USART_CR2_CPHA, ClockPhase);
1128:Drivers/STM32G4xx_HAL_Driver/Inc/stm32g4xx_ll_usart.h **** }
1129:Drivers/STM32G4xx_HAL_Driver/Inc/stm32g4xx_ll_usart.h **** 
1130:Drivers/STM32G4xx_HAL_Driver/Inc/stm32g4xx_ll_usart.h **** /**
1131:Drivers/STM32G4xx_HAL_Driver/Inc/stm32g4xx_ll_usart.h ****   * @brief  Return phase of the clock output on the SCLK pin in synchronous mode
1132:Drivers/STM32G4xx_HAL_Driver/Inc/stm32g4xx_ll_usart.h ****   * @note   Macro IS_USART_INSTANCE(USARTx) can be used to check whether or not
1133:Drivers/STM32G4xx_HAL_Driver/Inc/stm32g4xx_ll_usart.h ****   *         Synchronous mode is supported by the USARTx instance.
1134:Drivers/STM32G4xx_HAL_Driver/Inc/stm32g4xx_ll_usart.h ****   * @rmtoll CR2          CPHA          LL_USART_GetClockPhase
1135:Drivers/STM32G4xx_HAL_Driver/Inc/stm32g4xx_ll_usart.h ****   * @param  USARTx USART Instance
1136:Drivers/STM32G4xx_HAL_Driver/Inc/stm32g4xx_ll_usart.h ****   * @retval Returned value can be one of the following values:
1137:Drivers/STM32G4xx_HAL_Driver/Inc/stm32g4xx_ll_usart.h ****   *         @arg @ref LL_USART_PHASE_1EDGE
1138:Drivers/STM32G4xx_HAL_Driver/Inc/stm32g4xx_ll_usart.h ****   *         @arg @ref LL_USART_PHASE_2EDGE
1139:Drivers/STM32G4xx_HAL_Driver/Inc/stm32g4xx_ll_usart.h ****   */
1140:Drivers/STM32G4xx_HAL_Driver/Inc/stm32g4xx_ll_usart.h **** __STATIC_INLINE uint32_t LL_USART_GetClockPhase(const USART_TypeDef *USARTx)
1141:Drivers/STM32G4xx_HAL_Driver/Inc/stm32g4xx_ll_usart.h **** {
1142:Drivers/STM32G4xx_HAL_Driver/Inc/stm32g4xx_ll_usart.h ****   return (uint32_t)(READ_BIT(USARTx->CR2, USART_CR2_CPHA));
1143:Drivers/STM32G4xx_HAL_Driver/Inc/stm32g4xx_ll_usart.h **** }
1144:Drivers/STM32G4xx_HAL_Driver/Inc/stm32g4xx_ll_usart.h **** 
1145:Drivers/STM32G4xx_HAL_Driver/Inc/stm32g4xx_ll_usart.h **** /**
1146:Drivers/STM32G4xx_HAL_Driver/Inc/stm32g4xx_ll_usart.h ****   * @brief  Select the polarity of the clock output on the SCLK pin in synchronous mode
1147:Drivers/STM32G4xx_HAL_Driver/Inc/stm32g4xx_ll_usart.h ****   * @note   Macro IS_USART_INSTANCE(USARTx) can be used to check whether or not
1148:Drivers/STM32G4xx_HAL_Driver/Inc/stm32g4xx_ll_usart.h ****   *         Synchronous mode is supported by the USARTx instance.
1149:Drivers/STM32G4xx_HAL_Driver/Inc/stm32g4xx_ll_usart.h ****   * @rmtoll CR2          CPOL          LL_USART_SetClockPolarity
1150:Drivers/STM32G4xx_HAL_Driver/Inc/stm32g4xx_ll_usart.h ****   * @param  USARTx USART Instance
1151:Drivers/STM32G4xx_HAL_Driver/Inc/stm32g4xx_ll_usart.h ****   * @param  ClockPolarity This parameter can be one of the following values:
1152:Drivers/STM32G4xx_HAL_Driver/Inc/stm32g4xx_ll_usart.h ****   *         @arg @ref LL_USART_POLARITY_LOW
1153:Drivers/STM32G4xx_HAL_Driver/Inc/stm32g4xx_ll_usart.h ****   *         @arg @ref LL_USART_POLARITY_HIGH
1154:Drivers/STM32G4xx_HAL_Driver/Inc/stm32g4xx_ll_usart.h ****   * @retval None
1155:Drivers/STM32G4xx_HAL_Driver/Inc/stm32g4xx_ll_usart.h ****   */
1156:Drivers/STM32G4xx_HAL_Driver/Inc/stm32g4xx_ll_usart.h **** __STATIC_INLINE void LL_USART_SetClockPolarity(USART_TypeDef *USARTx, uint32_t ClockPolarity)
1157:Drivers/STM32G4xx_HAL_Driver/Inc/stm32g4xx_ll_usart.h **** {
1158:Drivers/STM32G4xx_HAL_Driver/Inc/stm32g4xx_ll_usart.h ****   MODIFY_REG(USARTx->CR2, USART_CR2_CPOL, ClockPolarity);
1159:Drivers/STM32G4xx_HAL_Driver/Inc/stm32g4xx_ll_usart.h **** }
ARM GAS  /tmp/cc9n8VrH.s 			page 23


1160:Drivers/STM32G4xx_HAL_Driver/Inc/stm32g4xx_ll_usart.h **** 
1161:Drivers/STM32G4xx_HAL_Driver/Inc/stm32g4xx_ll_usart.h **** /**
1162:Drivers/STM32G4xx_HAL_Driver/Inc/stm32g4xx_ll_usart.h ****   * @brief  Return polarity of the clock output on the SCLK pin in synchronous mode
1163:Drivers/STM32G4xx_HAL_Driver/Inc/stm32g4xx_ll_usart.h ****   * @note   Macro IS_USART_INSTANCE(USARTx) can be used to check whether or not
1164:Drivers/STM32G4xx_HAL_Driver/Inc/stm32g4xx_ll_usart.h ****   *         Synchronous mode is supported by the USARTx instance.
1165:Drivers/STM32G4xx_HAL_Driver/Inc/stm32g4xx_ll_usart.h ****   * @rmtoll CR2          CPOL          LL_USART_GetClockPolarity
1166:Drivers/STM32G4xx_HAL_Driver/Inc/stm32g4xx_ll_usart.h ****   * @param  USARTx USART Instance
1167:Drivers/STM32G4xx_HAL_Driver/Inc/stm32g4xx_ll_usart.h ****   * @retval Returned value can be one of the following values:
1168:Drivers/STM32G4xx_HAL_Driver/Inc/stm32g4xx_ll_usart.h ****   *         @arg @ref LL_USART_POLARITY_LOW
1169:Drivers/STM32G4xx_HAL_Driver/Inc/stm32g4xx_ll_usart.h ****   *         @arg @ref LL_USART_POLARITY_HIGH
1170:Drivers/STM32G4xx_HAL_Driver/Inc/stm32g4xx_ll_usart.h ****   */
1171:Drivers/STM32G4xx_HAL_Driver/Inc/stm32g4xx_ll_usart.h **** __STATIC_INLINE uint32_t LL_USART_GetClockPolarity(const USART_TypeDef *USARTx)
1172:Drivers/STM32G4xx_HAL_Driver/Inc/stm32g4xx_ll_usart.h **** {
1173:Drivers/STM32G4xx_HAL_Driver/Inc/stm32g4xx_ll_usart.h ****   return (uint32_t)(READ_BIT(USARTx->CR2, USART_CR2_CPOL));
1174:Drivers/STM32G4xx_HAL_Driver/Inc/stm32g4xx_ll_usart.h **** }
1175:Drivers/STM32G4xx_HAL_Driver/Inc/stm32g4xx_ll_usart.h **** 
1176:Drivers/STM32G4xx_HAL_Driver/Inc/stm32g4xx_ll_usart.h **** /**
1177:Drivers/STM32G4xx_HAL_Driver/Inc/stm32g4xx_ll_usart.h ****   * @brief  Configure Clock signal format (Phase Polarity and choice about output of last bit clock
1178:Drivers/STM32G4xx_HAL_Driver/Inc/stm32g4xx_ll_usart.h ****   * @note   Macro IS_USART_INSTANCE(USARTx) can be used to check whether or not
1179:Drivers/STM32G4xx_HAL_Driver/Inc/stm32g4xx_ll_usart.h ****   *         Synchronous mode is supported by the USARTx instance.
1180:Drivers/STM32G4xx_HAL_Driver/Inc/stm32g4xx_ll_usart.h ****   * @note   Call of this function is equivalent to following function call sequence :
1181:Drivers/STM32G4xx_HAL_Driver/Inc/stm32g4xx_ll_usart.h ****   *         - Clock Phase configuration using @ref LL_USART_SetClockPhase() function
1182:Drivers/STM32G4xx_HAL_Driver/Inc/stm32g4xx_ll_usart.h ****   *         - Clock Polarity configuration using @ref LL_USART_SetClockPolarity() function
1183:Drivers/STM32G4xx_HAL_Driver/Inc/stm32g4xx_ll_usart.h ****   *         - Output of Last bit Clock pulse configuration using @ref LL_USART_SetLastClkPulseOutpu
1184:Drivers/STM32G4xx_HAL_Driver/Inc/stm32g4xx_ll_usart.h ****   * @rmtoll CR2          CPHA          LL_USART_ConfigClock\n
1185:Drivers/STM32G4xx_HAL_Driver/Inc/stm32g4xx_ll_usart.h ****   *         CR2          CPOL          LL_USART_ConfigClock\n
1186:Drivers/STM32G4xx_HAL_Driver/Inc/stm32g4xx_ll_usart.h ****   *         CR2          LBCL          LL_USART_ConfigClock
1187:Drivers/STM32G4xx_HAL_Driver/Inc/stm32g4xx_ll_usart.h ****   * @param  USARTx USART Instance
1188:Drivers/STM32G4xx_HAL_Driver/Inc/stm32g4xx_ll_usart.h ****   * @param  Phase This parameter can be one of the following values:
1189:Drivers/STM32G4xx_HAL_Driver/Inc/stm32g4xx_ll_usart.h ****   *         @arg @ref LL_USART_PHASE_1EDGE
1190:Drivers/STM32G4xx_HAL_Driver/Inc/stm32g4xx_ll_usart.h ****   *         @arg @ref LL_USART_PHASE_2EDGE
1191:Drivers/STM32G4xx_HAL_Driver/Inc/stm32g4xx_ll_usart.h ****   * @param  Polarity This parameter can be one of the following values:
1192:Drivers/STM32G4xx_HAL_Driver/Inc/stm32g4xx_ll_usart.h ****   *         @arg @ref LL_USART_POLARITY_LOW
1193:Drivers/STM32G4xx_HAL_Driver/Inc/stm32g4xx_ll_usart.h ****   *         @arg @ref LL_USART_POLARITY_HIGH
1194:Drivers/STM32G4xx_HAL_Driver/Inc/stm32g4xx_ll_usart.h ****   * @param  LBCPOutput This parameter can be one of the following values:
1195:Drivers/STM32G4xx_HAL_Driver/Inc/stm32g4xx_ll_usart.h ****   *         @arg @ref LL_USART_LASTCLKPULSE_NO_OUTPUT
1196:Drivers/STM32G4xx_HAL_Driver/Inc/stm32g4xx_ll_usart.h ****   *         @arg @ref LL_USART_LASTCLKPULSE_OUTPUT
1197:Drivers/STM32G4xx_HAL_Driver/Inc/stm32g4xx_ll_usart.h ****   * @retval None
1198:Drivers/STM32G4xx_HAL_Driver/Inc/stm32g4xx_ll_usart.h ****   */
1199:Drivers/STM32G4xx_HAL_Driver/Inc/stm32g4xx_ll_usart.h **** __STATIC_INLINE void LL_USART_ConfigClock(USART_TypeDef *USARTx, uint32_t Phase, uint32_t Polarity,
1200:Drivers/STM32G4xx_HAL_Driver/Inc/stm32g4xx_ll_usart.h **** {
1201:Drivers/STM32G4xx_HAL_Driver/Inc/stm32g4xx_ll_usart.h ****   MODIFY_REG(USARTx->CR2, USART_CR2_CPHA | USART_CR2_CPOL | USART_CR2_LBCL, Phase | Polarity | LBCP
1202:Drivers/STM32G4xx_HAL_Driver/Inc/stm32g4xx_ll_usart.h **** }
1203:Drivers/STM32G4xx_HAL_Driver/Inc/stm32g4xx_ll_usart.h **** 
1204:Drivers/STM32G4xx_HAL_Driver/Inc/stm32g4xx_ll_usart.h **** /**
1205:Drivers/STM32G4xx_HAL_Driver/Inc/stm32g4xx_ll_usart.h ****   * @brief  Configure Clock source prescaler for baudrate generator and oversampling
1206:Drivers/STM32G4xx_HAL_Driver/Inc/stm32g4xx_ll_usart.h ****   * @note   Macro IS_UART_FIFO_INSTANCE(USARTx) can be used to check whether or not
1207:Drivers/STM32G4xx_HAL_Driver/Inc/stm32g4xx_ll_usart.h ****   *         FIFO mode feature is supported by the USARTx instance.
1208:Drivers/STM32G4xx_HAL_Driver/Inc/stm32g4xx_ll_usart.h ****   * @rmtoll PRESC        PRESCALER     LL_USART_SetPrescaler
1209:Drivers/STM32G4xx_HAL_Driver/Inc/stm32g4xx_ll_usart.h ****   * @param  USARTx USART Instance
1210:Drivers/STM32G4xx_HAL_Driver/Inc/stm32g4xx_ll_usart.h ****   * @param  PrescalerValue This parameter can be one of the following values:
1211:Drivers/STM32G4xx_HAL_Driver/Inc/stm32g4xx_ll_usart.h ****   *         @arg @ref LL_USART_PRESCALER_DIV1
1212:Drivers/STM32G4xx_HAL_Driver/Inc/stm32g4xx_ll_usart.h ****   *         @arg @ref LL_USART_PRESCALER_DIV2
1213:Drivers/STM32G4xx_HAL_Driver/Inc/stm32g4xx_ll_usart.h ****   *         @arg @ref LL_USART_PRESCALER_DIV4
1214:Drivers/STM32G4xx_HAL_Driver/Inc/stm32g4xx_ll_usart.h ****   *         @arg @ref LL_USART_PRESCALER_DIV6
1215:Drivers/STM32G4xx_HAL_Driver/Inc/stm32g4xx_ll_usart.h ****   *         @arg @ref LL_USART_PRESCALER_DIV8
1216:Drivers/STM32G4xx_HAL_Driver/Inc/stm32g4xx_ll_usart.h ****   *         @arg @ref LL_USART_PRESCALER_DIV10
ARM GAS  /tmp/cc9n8VrH.s 			page 24


1217:Drivers/STM32G4xx_HAL_Driver/Inc/stm32g4xx_ll_usart.h ****   *         @arg @ref LL_USART_PRESCALER_DIV12
1218:Drivers/STM32G4xx_HAL_Driver/Inc/stm32g4xx_ll_usart.h ****   *         @arg @ref LL_USART_PRESCALER_DIV16
1219:Drivers/STM32G4xx_HAL_Driver/Inc/stm32g4xx_ll_usart.h ****   *         @arg @ref LL_USART_PRESCALER_DIV32
1220:Drivers/STM32G4xx_HAL_Driver/Inc/stm32g4xx_ll_usart.h ****   *         @arg @ref LL_USART_PRESCALER_DIV64
1221:Drivers/STM32G4xx_HAL_Driver/Inc/stm32g4xx_ll_usart.h ****   *         @arg @ref LL_USART_PRESCALER_DIV128
1222:Drivers/STM32G4xx_HAL_Driver/Inc/stm32g4xx_ll_usart.h ****   *         @arg @ref LL_USART_PRESCALER_DIV256
1223:Drivers/STM32G4xx_HAL_Driver/Inc/stm32g4xx_ll_usart.h ****   * @retval None
1224:Drivers/STM32G4xx_HAL_Driver/Inc/stm32g4xx_ll_usart.h ****   */
1225:Drivers/STM32G4xx_HAL_Driver/Inc/stm32g4xx_ll_usart.h **** __STATIC_INLINE void LL_USART_SetPrescaler(USART_TypeDef *USARTx, uint32_t PrescalerValue)
1226:Drivers/STM32G4xx_HAL_Driver/Inc/stm32g4xx_ll_usart.h **** {
 101              		.loc 1 1226 1
 102              		.cfi_startproc
 103              		@ args = 0, pretend = 0, frame = 8
 104              		@ frame_needed = 1, uses_anonymous_args = 0
 105              		@ link register save eliminated.
 106 0000 80B4     		push	{r7}
 107              	.LCFI6:
 108              		.cfi_def_cfa_offset 4
 109              		.cfi_offset 7, -4
 110 0002 83B0     		sub	sp, sp, #12
 111              	.LCFI7:
 112              		.cfi_def_cfa_offset 16
 113 0004 00AF     		add	r7, sp, #0
 114              	.LCFI8:
 115              		.cfi_def_cfa_register 7
 116 0006 7860     		str	r0, [r7, #4]
 117 0008 3960     		str	r1, [r7]
1227:Drivers/STM32G4xx_HAL_Driver/Inc/stm32g4xx_ll_usart.h ****   MODIFY_REG(USARTx->PRESC, USART_PRESC_PRESCALER, (uint16_t)PrescalerValue);
 118              		.loc 1 1227 3
 119 000a 7B68     		ldr	r3, [r7, #4]
 120 000c DB6A     		ldr	r3, [r3, #44]
 121 000e 23F00F03 		bic	r3, r3, #15
 122 0012 3A68     		ldr	r2, [r7]
 123 0014 92B2     		uxth	r2, r2
 124 0016 1A43     		orrs	r2, r2, r3
 125 0018 7B68     		ldr	r3, [r7, #4]
 126 001a DA62     		str	r2, [r3, #44]
1228:Drivers/STM32G4xx_HAL_Driver/Inc/stm32g4xx_ll_usart.h **** }
 127              		.loc 1 1228 1
 128 001c 00BF     		nop
 129 001e 0C37     		adds	r7, r7, #12
 130              	.LCFI9:
 131              		.cfi_def_cfa_offset 4
 132 0020 BD46     		mov	sp, r7
 133              	.LCFI10:
 134              		.cfi_def_cfa_register 13
 135              		@ sp needed
 136 0022 5DF8047B 		ldr	r7, [sp], #4
 137              	.LCFI11:
 138              		.cfi_restore 7
 139              		.cfi_def_cfa_offset 0
 140 0026 7047     		bx	lr
 141              		.cfi_endproc
 142              	.LFE170:
 144              		.section	.text.LL_USART_SetStopBitsLength,"ax",%progbits
 145              		.align	1
 146              		.syntax unified
ARM GAS  /tmp/cc9n8VrH.s 			page 25


 147              		.thumb
 148              		.thumb_func
 149              		.fpu fpv4-sp-d16
 151              	LL_USART_SetStopBitsLength:
 152              	.LFB175:
1229:Drivers/STM32G4xx_HAL_Driver/Inc/stm32g4xx_ll_usart.h **** 
1230:Drivers/STM32G4xx_HAL_Driver/Inc/stm32g4xx_ll_usart.h **** /**
1231:Drivers/STM32G4xx_HAL_Driver/Inc/stm32g4xx_ll_usart.h ****   * @brief  Retrieve the Clock source prescaler for baudrate generator and oversampling
1232:Drivers/STM32G4xx_HAL_Driver/Inc/stm32g4xx_ll_usart.h ****   * @note   Macro IS_UART_FIFO_INSTANCE(USARTx) can be used to check whether or not
1233:Drivers/STM32G4xx_HAL_Driver/Inc/stm32g4xx_ll_usart.h ****   *         FIFO mode feature is supported by the USARTx instance.
1234:Drivers/STM32G4xx_HAL_Driver/Inc/stm32g4xx_ll_usart.h ****   * @rmtoll PRESC        PRESCALER     LL_USART_GetPrescaler
1235:Drivers/STM32G4xx_HAL_Driver/Inc/stm32g4xx_ll_usart.h ****   * @param  USARTx USART Instance
1236:Drivers/STM32G4xx_HAL_Driver/Inc/stm32g4xx_ll_usart.h ****   * @retval Returned value can be one of the following values:
1237:Drivers/STM32G4xx_HAL_Driver/Inc/stm32g4xx_ll_usart.h ****   *         @arg @ref LL_USART_PRESCALER_DIV1
1238:Drivers/STM32G4xx_HAL_Driver/Inc/stm32g4xx_ll_usart.h ****   *         @arg @ref LL_USART_PRESCALER_DIV2
1239:Drivers/STM32G4xx_HAL_Driver/Inc/stm32g4xx_ll_usart.h ****   *         @arg @ref LL_USART_PRESCALER_DIV4
1240:Drivers/STM32G4xx_HAL_Driver/Inc/stm32g4xx_ll_usart.h ****   *         @arg @ref LL_USART_PRESCALER_DIV6
1241:Drivers/STM32G4xx_HAL_Driver/Inc/stm32g4xx_ll_usart.h ****   *         @arg @ref LL_USART_PRESCALER_DIV8
1242:Drivers/STM32G4xx_HAL_Driver/Inc/stm32g4xx_ll_usart.h ****   *         @arg @ref LL_USART_PRESCALER_DIV10
1243:Drivers/STM32G4xx_HAL_Driver/Inc/stm32g4xx_ll_usart.h ****   *         @arg @ref LL_USART_PRESCALER_DIV12
1244:Drivers/STM32G4xx_HAL_Driver/Inc/stm32g4xx_ll_usart.h ****   *         @arg @ref LL_USART_PRESCALER_DIV16
1245:Drivers/STM32G4xx_HAL_Driver/Inc/stm32g4xx_ll_usart.h ****   *         @arg @ref LL_USART_PRESCALER_DIV32
1246:Drivers/STM32G4xx_HAL_Driver/Inc/stm32g4xx_ll_usart.h ****   *         @arg @ref LL_USART_PRESCALER_DIV64
1247:Drivers/STM32G4xx_HAL_Driver/Inc/stm32g4xx_ll_usart.h ****   *         @arg @ref LL_USART_PRESCALER_DIV128
1248:Drivers/STM32G4xx_HAL_Driver/Inc/stm32g4xx_ll_usart.h ****   *         @arg @ref LL_USART_PRESCALER_DIV256
1249:Drivers/STM32G4xx_HAL_Driver/Inc/stm32g4xx_ll_usart.h ****   */
1250:Drivers/STM32G4xx_HAL_Driver/Inc/stm32g4xx_ll_usart.h **** __STATIC_INLINE uint32_t LL_USART_GetPrescaler(const USART_TypeDef *USARTx)
1251:Drivers/STM32G4xx_HAL_Driver/Inc/stm32g4xx_ll_usart.h **** {
1252:Drivers/STM32G4xx_HAL_Driver/Inc/stm32g4xx_ll_usart.h ****   return (uint32_t)(READ_BIT(USARTx->PRESC, USART_PRESC_PRESCALER));
1253:Drivers/STM32G4xx_HAL_Driver/Inc/stm32g4xx_ll_usart.h **** }
1254:Drivers/STM32G4xx_HAL_Driver/Inc/stm32g4xx_ll_usart.h **** 
1255:Drivers/STM32G4xx_HAL_Driver/Inc/stm32g4xx_ll_usart.h **** /**
1256:Drivers/STM32G4xx_HAL_Driver/Inc/stm32g4xx_ll_usart.h ****   * @brief  Enable Clock output on SCLK pin
1257:Drivers/STM32G4xx_HAL_Driver/Inc/stm32g4xx_ll_usart.h ****   * @note   Macro IS_USART_INSTANCE(USARTx) can be used to check whether or not
1258:Drivers/STM32G4xx_HAL_Driver/Inc/stm32g4xx_ll_usart.h ****   *         Synchronous mode is supported by the USARTx instance.
1259:Drivers/STM32G4xx_HAL_Driver/Inc/stm32g4xx_ll_usart.h ****   * @rmtoll CR2          CLKEN         LL_USART_EnableSCLKOutput
1260:Drivers/STM32G4xx_HAL_Driver/Inc/stm32g4xx_ll_usart.h ****   * @param  USARTx USART Instance
1261:Drivers/STM32G4xx_HAL_Driver/Inc/stm32g4xx_ll_usart.h ****   * @retval None
1262:Drivers/STM32G4xx_HAL_Driver/Inc/stm32g4xx_ll_usart.h ****   */
1263:Drivers/STM32G4xx_HAL_Driver/Inc/stm32g4xx_ll_usart.h **** __STATIC_INLINE void LL_USART_EnableSCLKOutput(USART_TypeDef *USARTx)
1264:Drivers/STM32G4xx_HAL_Driver/Inc/stm32g4xx_ll_usart.h **** {
1265:Drivers/STM32G4xx_HAL_Driver/Inc/stm32g4xx_ll_usart.h ****   SET_BIT(USARTx->CR2, USART_CR2_CLKEN);
1266:Drivers/STM32G4xx_HAL_Driver/Inc/stm32g4xx_ll_usart.h **** }
1267:Drivers/STM32G4xx_HAL_Driver/Inc/stm32g4xx_ll_usart.h **** 
1268:Drivers/STM32G4xx_HAL_Driver/Inc/stm32g4xx_ll_usart.h **** /**
1269:Drivers/STM32G4xx_HAL_Driver/Inc/stm32g4xx_ll_usart.h ****   * @brief  Disable Clock output on SCLK pin
1270:Drivers/STM32G4xx_HAL_Driver/Inc/stm32g4xx_ll_usart.h ****   * @note   Macro IS_USART_INSTANCE(USARTx) can be used to check whether or not
1271:Drivers/STM32G4xx_HAL_Driver/Inc/stm32g4xx_ll_usart.h ****   *         Synchronous mode is supported by the USARTx instance.
1272:Drivers/STM32G4xx_HAL_Driver/Inc/stm32g4xx_ll_usart.h ****   * @rmtoll CR2          CLKEN         LL_USART_DisableSCLKOutput
1273:Drivers/STM32G4xx_HAL_Driver/Inc/stm32g4xx_ll_usart.h ****   * @param  USARTx USART Instance
1274:Drivers/STM32G4xx_HAL_Driver/Inc/stm32g4xx_ll_usart.h ****   * @retval None
1275:Drivers/STM32G4xx_HAL_Driver/Inc/stm32g4xx_ll_usart.h ****   */
1276:Drivers/STM32G4xx_HAL_Driver/Inc/stm32g4xx_ll_usart.h **** __STATIC_INLINE void LL_USART_DisableSCLKOutput(USART_TypeDef *USARTx)
1277:Drivers/STM32G4xx_HAL_Driver/Inc/stm32g4xx_ll_usart.h **** {
1278:Drivers/STM32G4xx_HAL_Driver/Inc/stm32g4xx_ll_usart.h ****   CLEAR_BIT(USARTx->CR2, USART_CR2_CLKEN);
1279:Drivers/STM32G4xx_HAL_Driver/Inc/stm32g4xx_ll_usart.h **** }
1280:Drivers/STM32G4xx_HAL_Driver/Inc/stm32g4xx_ll_usart.h **** 
ARM GAS  /tmp/cc9n8VrH.s 			page 26


1281:Drivers/STM32G4xx_HAL_Driver/Inc/stm32g4xx_ll_usart.h **** /**
1282:Drivers/STM32G4xx_HAL_Driver/Inc/stm32g4xx_ll_usart.h ****   * @brief  Indicate if Clock output on SCLK pin is enabled
1283:Drivers/STM32G4xx_HAL_Driver/Inc/stm32g4xx_ll_usart.h ****   * @note   Macro IS_USART_INSTANCE(USARTx) can be used to check whether or not
1284:Drivers/STM32G4xx_HAL_Driver/Inc/stm32g4xx_ll_usart.h ****   *         Synchronous mode is supported by the USARTx instance.
1285:Drivers/STM32G4xx_HAL_Driver/Inc/stm32g4xx_ll_usart.h ****   * @rmtoll CR2          CLKEN         LL_USART_IsEnabledSCLKOutput
1286:Drivers/STM32G4xx_HAL_Driver/Inc/stm32g4xx_ll_usart.h ****   * @param  USARTx USART Instance
1287:Drivers/STM32G4xx_HAL_Driver/Inc/stm32g4xx_ll_usart.h ****   * @retval State of bit (1 or 0).
1288:Drivers/STM32G4xx_HAL_Driver/Inc/stm32g4xx_ll_usart.h ****   */
1289:Drivers/STM32G4xx_HAL_Driver/Inc/stm32g4xx_ll_usart.h **** __STATIC_INLINE uint32_t LL_USART_IsEnabledSCLKOutput(const USART_TypeDef *USARTx)
1290:Drivers/STM32G4xx_HAL_Driver/Inc/stm32g4xx_ll_usart.h **** {
1291:Drivers/STM32G4xx_HAL_Driver/Inc/stm32g4xx_ll_usart.h ****   return ((READ_BIT(USARTx->CR2, USART_CR2_CLKEN) == (USART_CR2_CLKEN)) ? 1UL : 0UL);
1292:Drivers/STM32G4xx_HAL_Driver/Inc/stm32g4xx_ll_usart.h **** }
1293:Drivers/STM32G4xx_HAL_Driver/Inc/stm32g4xx_ll_usart.h **** 
1294:Drivers/STM32G4xx_HAL_Driver/Inc/stm32g4xx_ll_usart.h **** /**
1295:Drivers/STM32G4xx_HAL_Driver/Inc/stm32g4xx_ll_usart.h ****   * @brief  Set the length of the stop bits
1296:Drivers/STM32G4xx_HAL_Driver/Inc/stm32g4xx_ll_usart.h ****   * @rmtoll CR2          STOP          LL_USART_SetStopBitsLength
1297:Drivers/STM32G4xx_HAL_Driver/Inc/stm32g4xx_ll_usart.h ****   * @param  USARTx USART Instance
1298:Drivers/STM32G4xx_HAL_Driver/Inc/stm32g4xx_ll_usart.h ****   * @param  StopBits This parameter can be one of the following values:
1299:Drivers/STM32G4xx_HAL_Driver/Inc/stm32g4xx_ll_usart.h ****   *         @arg @ref LL_USART_STOPBITS_0_5
1300:Drivers/STM32G4xx_HAL_Driver/Inc/stm32g4xx_ll_usart.h ****   *         @arg @ref LL_USART_STOPBITS_1
1301:Drivers/STM32G4xx_HAL_Driver/Inc/stm32g4xx_ll_usart.h ****   *         @arg @ref LL_USART_STOPBITS_1_5
1302:Drivers/STM32G4xx_HAL_Driver/Inc/stm32g4xx_ll_usart.h ****   *         @arg @ref LL_USART_STOPBITS_2
1303:Drivers/STM32G4xx_HAL_Driver/Inc/stm32g4xx_ll_usart.h ****   * @retval None
1304:Drivers/STM32G4xx_HAL_Driver/Inc/stm32g4xx_ll_usart.h ****   */
1305:Drivers/STM32G4xx_HAL_Driver/Inc/stm32g4xx_ll_usart.h **** __STATIC_INLINE void LL_USART_SetStopBitsLength(USART_TypeDef *USARTx, uint32_t StopBits)
1306:Drivers/STM32G4xx_HAL_Driver/Inc/stm32g4xx_ll_usart.h **** {
 153              		.loc 1 1306 1
 154              		.cfi_startproc
 155              		@ args = 0, pretend = 0, frame = 8
 156              		@ frame_needed = 1, uses_anonymous_args = 0
 157              		@ link register save eliminated.
 158 0000 80B4     		push	{r7}
 159              	.LCFI12:
 160              		.cfi_def_cfa_offset 4
 161              		.cfi_offset 7, -4
 162 0002 83B0     		sub	sp, sp, #12
 163              	.LCFI13:
 164              		.cfi_def_cfa_offset 16
 165 0004 00AF     		add	r7, sp, #0
 166              	.LCFI14:
 167              		.cfi_def_cfa_register 7
 168 0006 7860     		str	r0, [r7, #4]
 169 0008 3960     		str	r1, [r7]
1307:Drivers/STM32G4xx_HAL_Driver/Inc/stm32g4xx_ll_usart.h ****   MODIFY_REG(USARTx->CR2, USART_CR2_STOP, StopBits);
 170              		.loc 1 1307 3
 171 000a 7B68     		ldr	r3, [r7, #4]
 172 000c 5B68     		ldr	r3, [r3, #4]
 173 000e 23F44052 		bic	r2, r3, #12288
 174 0012 3B68     		ldr	r3, [r7]
 175 0014 1A43     		orrs	r2, r2, r3
 176 0016 7B68     		ldr	r3, [r7, #4]
 177 0018 5A60     		str	r2, [r3, #4]
1308:Drivers/STM32G4xx_HAL_Driver/Inc/stm32g4xx_ll_usart.h **** }
 178              		.loc 1 1308 1
 179 001a 00BF     		nop
 180 001c 0C37     		adds	r7, r7, #12
 181              	.LCFI15:
ARM GAS  /tmp/cc9n8VrH.s 			page 27


 182              		.cfi_def_cfa_offset 4
 183 001e BD46     		mov	sp, r7
 184              	.LCFI16:
 185              		.cfi_def_cfa_register 13
 186              		@ sp needed
 187 0020 5DF8047B 		ldr	r7, [sp], #4
 188              	.LCFI17:
 189              		.cfi_restore 7
 190              		.cfi_def_cfa_offset 0
 191 0024 7047     		bx	lr
 192              		.cfi_endproc
 193              	.LFE175:
 195              		.section	.text.LL_USART_SetHWFlowCtrl,"ax",%progbits
 196              		.align	1
 197              		.syntax unified
 198              		.thumb
 199              		.thumb_func
 200              		.fpu fpv4-sp-d16
 202              	LL_USART_SetHWFlowCtrl:
 203              	.LFB203:
1309:Drivers/STM32G4xx_HAL_Driver/Inc/stm32g4xx_ll_usart.h **** 
1310:Drivers/STM32G4xx_HAL_Driver/Inc/stm32g4xx_ll_usart.h **** /**
1311:Drivers/STM32G4xx_HAL_Driver/Inc/stm32g4xx_ll_usart.h ****   * @brief  Retrieve the length of the stop bits
1312:Drivers/STM32G4xx_HAL_Driver/Inc/stm32g4xx_ll_usart.h ****   * @rmtoll CR2          STOP          LL_USART_GetStopBitsLength
1313:Drivers/STM32G4xx_HAL_Driver/Inc/stm32g4xx_ll_usart.h ****   * @param  USARTx USART Instance
1314:Drivers/STM32G4xx_HAL_Driver/Inc/stm32g4xx_ll_usart.h ****   * @retval Returned value can be one of the following values:
1315:Drivers/STM32G4xx_HAL_Driver/Inc/stm32g4xx_ll_usart.h ****   *         @arg @ref LL_USART_STOPBITS_0_5
1316:Drivers/STM32G4xx_HAL_Driver/Inc/stm32g4xx_ll_usart.h ****   *         @arg @ref LL_USART_STOPBITS_1
1317:Drivers/STM32G4xx_HAL_Driver/Inc/stm32g4xx_ll_usart.h ****   *         @arg @ref LL_USART_STOPBITS_1_5
1318:Drivers/STM32G4xx_HAL_Driver/Inc/stm32g4xx_ll_usart.h ****   *         @arg @ref LL_USART_STOPBITS_2
1319:Drivers/STM32G4xx_HAL_Driver/Inc/stm32g4xx_ll_usart.h ****   */
1320:Drivers/STM32G4xx_HAL_Driver/Inc/stm32g4xx_ll_usart.h **** __STATIC_INLINE uint32_t LL_USART_GetStopBitsLength(const USART_TypeDef *USARTx)
1321:Drivers/STM32G4xx_HAL_Driver/Inc/stm32g4xx_ll_usart.h **** {
1322:Drivers/STM32G4xx_HAL_Driver/Inc/stm32g4xx_ll_usart.h ****   return (uint32_t)(READ_BIT(USARTx->CR2, USART_CR2_STOP));
1323:Drivers/STM32G4xx_HAL_Driver/Inc/stm32g4xx_ll_usart.h **** }
1324:Drivers/STM32G4xx_HAL_Driver/Inc/stm32g4xx_ll_usart.h **** 
1325:Drivers/STM32G4xx_HAL_Driver/Inc/stm32g4xx_ll_usart.h **** /**
1326:Drivers/STM32G4xx_HAL_Driver/Inc/stm32g4xx_ll_usart.h ****   * @brief  Configure Character frame format (Datawidth, Parity control, Stop Bits)
1327:Drivers/STM32G4xx_HAL_Driver/Inc/stm32g4xx_ll_usart.h ****   * @note   Call of this function is equivalent to following function call sequence :
1328:Drivers/STM32G4xx_HAL_Driver/Inc/stm32g4xx_ll_usart.h ****   *         - Data Width configuration using @ref LL_USART_SetDataWidth() function
1329:Drivers/STM32G4xx_HAL_Driver/Inc/stm32g4xx_ll_usart.h ****   *         - Parity Control and mode configuration using @ref LL_USART_SetParity() function
1330:Drivers/STM32G4xx_HAL_Driver/Inc/stm32g4xx_ll_usart.h ****   *         - Stop bits configuration using @ref LL_USART_SetStopBitsLength() function
1331:Drivers/STM32G4xx_HAL_Driver/Inc/stm32g4xx_ll_usart.h ****   * @rmtoll CR1          PS            LL_USART_ConfigCharacter\n
1332:Drivers/STM32G4xx_HAL_Driver/Inc/stm32g4xx_ll_usart.h ****   *         CR1          PCE           LL_USART_ConfigCharacter\n
1333:Drivers/STM32G4xx_HAL_Driver/Inc/stm32g4xx_ll_usart.h ****   *         CR1          M0            LL_USART_ConfigCharacter\n
1334:Drivers/STM32G4xx_HAL_Driver/Inc/stm32g4xx_ll_usart.h ****   *         CR1          M1            LL_USART_ConfigCharacter\n
1335:Drivers/STM32G4xx_HAL_Driver/Inc/stm32g4xx_ll_usart.h ****   *         CR2          STOP          LL_USART_ConfigCharacter
1336:Drivers/STM32G4xx_HAL_Driver/Inc/stm32g4xx_ll_usart.h ****   * @param  USARTx USART Instance
1337:Drivers/STM32G4xx_HAL_Driver/Inc/stm32g4xx_ll_usart.h ****   * @param  DataWidth This parameter can be one of the following values:
1338:Drivers/STM32G4xx_HAL_Driver/Inc/stm32g4xx_ll_usart.h ****   *         @arg @ref LL_USART_DATAWIDTH_7B
1339:Drivers/STM32G4xx_HAL_Driver/Inc/stm32g4xx_ll_usart.h ****   *         @arg @ref LL_USART_DATAWIDTH_8B
1340:Drivers/STM32G4xx_HAL_Driver/Inc/stm32g4xx_ll_usart.h ****   *         @arg @ref LL_USART_DATAWIDTH_9B
1341:Drivers/STM32G4xx_HAL_Driver/Inc/stm32g4xx_ll_usart.h ****   * @param  Parity This parameter can be one of the following values:
1342:Drivers/STM32G4xx_HAL_Driver/Inc/stm32g4xx_ll_usart.h ****   *         @arg @ref LL_USART_PARITY_NONE
1343:Drivers/STM32G4xx_HAL_Driver/Inc/stm32g4xx_ll_usart.h ****   *         @arg @ref LL_USART_PARITY_EVEN
1344:Drivers/STM32G4xx_HAL_Driver/Inc/stm32g4xx_ll_usart.h ****   *         @arg @ref LL_USART_PARITY_ODD
1345:Drivers/STM32G4xx_HAL_Driver/Inc/stm32g4xx_ll_usart.h ****   * @param  StopBits This parameter can be one of the following values:
ARM GAS  /tmp/cc9n8VrH.s 			page 28


1346:Drivers/STM32G4xx_HAL_Driver/Inc/stm32g4xx_ll_usart.h ****   *         @arg @ref LL_USART_STOPBITS_0_5
1347:Drivers/STM32G4xx_HAL_Driver/Inc/stm32g4xx_ll_usart.h ****   *         @arg @ref LL_USART_STOPBITS_1
1348:Drivers/STM32G4xx_HAL_Driver/Inc/stm32g4xx_ll_usart.h ****   *         @arg @ref LL_USART_STOPBITS_1_5
1349:Drivers/STM32G4xx_HAL_Driver/Inc/stm32g4xx_ll_usart.h ****   *         @arg @ref LL_USART_STOPBITS_2
1350:Drivers/STM32G4xx_HAL_Driver/Inc/stm32g4xx_ll_usart.h ****   * @retval None
1351:Drivers/STM32G4xx_HAL_Driver/Inc/stm32g4xx_ll_usart.h ****   */
1352:Drivers/STM32G4xx_HAL_Driver/Inc/stm32g4xx_ll_usart.h **** __STATIC_INLINE void LL_USART_ConfigCharacter(USART_TypeDef *USARTx, uint32_t DataWidth, uint32_t P
1353:Drivers/STM32G4xx_HAL_Driver/Inc/stm32g4xx_ll_usart.h ****                                               uint32_t StopBits)
1354:Drivers/STM32G4xx_HAL_Driver/Inc/stm32g4xx_ll_usart.h **** {
1355:Drivers/STM32G4xx_HAL_Driver/Inc/stm32g4xx_ll_usart.h ****   MODIFY_REG(USARTx->CR1, USART_CR1_PS | USART_CR1_PCE | USART_CR1_M, Parity | DataWidth);
1356:Drivers/STM32G4xx_HAL_Driver/Inc/stm32g4xx_ll_usart.h ****   MODIFY_REG(USARTx->CR2, USART_CR2_STOP, StopBits);
1357:Drivers/STM32G4xx_HAL_Driver/Inc/stm32g4xx_ll_usart.h **** }
1358:Drivers/STM32G4xx_HAL_Driver/Inc/stm32g4xx_ll_usart.h **** 
1359:Drivers/STM32G4xx_HAL_Driver/Inc/stm32g4xx_ll_usart.h **** /**
1360:Drivers/STM32G4xx_HAL_Driver/Inc/stm32g4xx_ll_usart.h ****   * @brief  Configure TX/RX pins swapping setting.
1361:Drivers/STM32G4xx_HAL_Driver/Inc/stm32g4xx_ll_usart.h ****   * @rmtoll CR2          SWAP          LL_USART_SetTXRXSwap
1362:Drivers/STM32G4xx_HAL_Driver/Inc/stm32g4xx_ll_usart.h ****   * @param  USARTx USART Instance
1363:Drivers/STM32G4xx_HAL_Driver/Inc/stm32g4xx_ll_usart.h ****   * @param  SwapConfig This parameter can be one of the following values:
1364:Drivers/STM32G4xx_HAL_Driver/Inc/stm32g4xx_ll_usart.h ****   *         @arg @ref LL_USART_TXRX_STANDARD
1365:Drivers/STM32G4xx_HAL_Driver/Inc/stm32g4xx_ll_usart.h ****   *         @arg @ref LL_USART_TXRX_SWAPPED
1366:Drivers/STM32G4xx_HAL_Driver/Inc/stm32g4xx_ll_usart.h ****   * @retval None
1367:Drivers/STM32G4xx_HAL_Driver/Inc/stm32g4xx_ll_usart.h ****   */
1368:Drivers/STM32G4xx_HAL_Driver/Inc/stm32g4xx_ll_usart.h **** __STATIC_INLINE void LL_USART_SetTXRXSwap(USART_TypeDef *USARTx, uint32_t SwapConfig)
1369:Drivers/STM32G4xx_HAL_Driver/Inc/stm32g4xx_ll_usart.h **** {
1370:Drivers/STM32G4xx_HAL_Driver/Inc/stm32g4xx_ll_usart.h ****   MODIFY_REG(USARTx->CR2, USART_CR2_SWAP, SwapConfig);
1371:Drivers/STM32G4xx_HAL_Driver/Inc/stm32g4xx_ll_usart.h **** }
1372:Drivers/STM32G4xx_HAL_Driver/Inc/stm32g4xx_ll_usart.h **** 
1373:Drivers/STM32G4xx_HAL_Driver/Inc/stm32g4xx_ll_usart.h **** /**
1374:Drivers/STM32G4xx_HAL_Driver/Inc/stm32g4xx_ll_usart.h ****   * @brief  Retrieve TX/RX pins swapping configuration.
1375:Drivers/STM32G4xx_HAL_Driver/Inc/stm32g4xx_ll_usart.h ****   * @rmtoll CR2          SWAP          LL_USART_GetTXRXSwap
1376:Drivers/STM32G4xx_HAL_Driver/Inc/stm32g4xx_ll_usart.h ****   * @param  USARTx USART Instance
1377:Drivers/STM32G4xx_HAL_Driver/Inc/stm32g4xx_ll_usart.h ****   * @retval Returned value can be one of the following values:
1378:Drivers/STM32G4xx_HAL_Driver/Inc/stm32g4xx_ll_usart.h ****   *         @arg @ref LL_USART_TXRX_STANDARD
1379:Drivers/STM32G4xx_HAL_Driver/Inc/stm32g4xx_ll_usart.h ****   *         @arg @ref LL_USART_TXRX_SWAPPED
1380:Drivers/STM32G4xx_HAL_Driver/Inc/stm32g4xx_ll_usart.h ****   */
1381:Drivers/STM32G4xx_HAL_Driver/Inc/stm32g4xx_ll_usart.h **** __STATIC_INLINE uint32_t LL_USART_GetTXRXSwap(const USART_TypeDef *USARTx)
1382:Drivers/STM32G4xx_HAL_Driver/Inc/stm32g4xx_ll_usart.h **** {
1383:Drivers/STM32G4xx_HAL_Driver/Inc/stm32g4xx_ll_usart.h ****   return (uint32_t)(READ_BIT(USARTx->CR2, USART_CR2_SWAP));
1384:Drivers/STM32G4xx_HAL_Driver/Inc/stm32g4xx_ll_usart.h **** }
1385:Drivers/STM32G4xx_HAL_Driver/Inc/stm32g4xx_ll_usart.h **** 
1386:Drivers/STM32G4xx_HAL_Driver/Inc/stm32g4xx_ll_usart.h **** /**
1387:Drivers/STM32G4xx_HAL_Driver/Inc/stm32g4xx_ll_usart.h ****   * @brief  Configure RX pin active level logic
1388:Drivers/STM32G4xx_HAL_Driver/Inc/stm32g4xx_ll_usart.h ****   * @rmtoll CR2          RXINV         LL_USART_SetRXPinLevel
1389:Drivers/STM32G4xx_HAL_Driver/Inc/stm32g4xx_ll_usart.h ****   * @param  USARTx USART Instance
1390:Drivers/STM32G4xx_HAL_Driver/Inc/stm32g4xx_ll_usart.h ****   * @param  PinInvMethod This parameter can be one of the following values:
1391:Drivers/STM32G4xx_HAL_Driver/Inc/stm32g4xx_ll_usart.h ****   *         @arg @ref LL_USART_RXPIN_LEVEL_STANDARD
1392:Drivers/STM32G4xx_HAL_Driver/Inc/stm32g4xx_ll_usart.h ****   *         @arg @ref LL_USART_RXPIN_LEVEL_INVERTED
1393:Drivers/STM32G4xx_HAL_Driver/Inc/stm32g4xx_ll_usart.h ****   * @retval None
1394:Drivers/STM32G4xx_HAL_Driver/Inc/stm32g4xx_ll_usart.h ****   */
1395:Drivers/STM32G4xx_HAL_Driver/Inc/stm32g4xx_ll_usart.h **** __STATIC_INLINE void LL_USART_SetRXPinLevel(USART_TypeDef *USARTx, uint32_t PinInvMethod)
1396:Drivers/STM32G4xx_HAL_Driver/Inc/stm32g4xx_ll_usart.h **** {
1397:Drivers/STM32G4xx_HAL_Driver/Inc/stm32g4xx_ll_usart.h ****   MODIFY_REG(USARTx->CR2, USART_CR2_RXINV, PinInvMethod);
1398:Drivers/STM32G4xx_HAL_Driver/Inc/stm32g4xx_ll_usart.h **** }
1399:Drivers/STM32G4xx_HAL_Driver/Inc/stm32g4xx_ll_usart.h **** 
1400:Drivers/STM32G4xx_HAL_Driver/Inc/stm32g4xx_ll_usart.h **** /**
1401:Drivers/STM32G4xx_HAL_Driver/Inc/stm32g4xx_ll_usart.h ****   * @brief  Retrieve RX pin active level logic configuration
1402:Drivers/STM32G4xx_HAL_Driver/Inc/stm32g4xx_ll_usart.h ****   * @rmtoll CR2          RXINV         LL_USART_GetRXPinLevel
ARM GAS  /tmp/cc9n8VrH.s 			page 29


1403:Drivers/STM32G4xx_HAL_Driver/Inc/stm32g4xx_ll_usart.h ****   * @param  USARTx USART Instance
1404:Drivers/STM32G4xx_HAL_Driver/Inc/stm32g4xx_ll_usart.h ****   * @retval Returned value can be one of the following values:
1405:Drivers/STM32G4xx_HAL_Driver/Inc/stm32g4xx_ll_usart.h ****   *         @arg @ref LL_USART_RXPIN_LEVEL_STANDARD
1406:Drivers/STM32G4xx_HAL_Driver/Inc/stm32g4xx_ll_usart.h ****   *         @arg @ref LL_USART_RXPIN_LEVEL_INVERTED
1407:Drivers/STM32G4xx_HAL_Driver/Inc/stm32g4xx_ll_usart.h ****   */
1408:Drivers/STM32G4xx_HAL_Driver/Inc/stm32g4xx_ll_usart.h **** __STATIC_INLINE uint32_t LL_USART_GetRXPinLevel(const USART_TypeDef *USARTx)
1409:Drivers/STM32G4xx_HAL_Driver/Inc/stm32g4xx_ll_usart.h **** {
1410:Drivers/STM32G4xx_HAL_Driver/Inc/stm32g4xx_ll_usart.h ****   return (uint32_t)(READ_BIT(USARTx->CR2, USART_CR2_RXINV));
1411:Drivers/STM32G4xx_HAL_Driver/Inc/stm32g4xx_ll_usart.h **** }
1412:Drivers/STM32G4xx_HAL_Driver/Inc/stm32g4xx_ll_usart.h **** 
1413:Drivers/STM32G4xx_HAL_Driver/Inc/stm32g4xx_ll_usart.h **** /**
1414:Drivers/STM32G4xx_HAL_Driver/Inc/stm32g4xx_ll_usart.h ****   * @brief  Configure TX pin active level logic
1415:Drivers/STM32G4xx_HAL_Driver/Inc/stm32g4xx_ll_usart.h ****   * @rmtoll CR2          TXINV         LL_USART_SetTXPinLevel
1416:Drivers/STM32G4xx_HAL_Driver/Inc/stm32g4xx_ll_usart.h ****   * @param  USARTx USART Instance
1417:Drivers/STM32G4xx_HAL_Driver/Inc/stm32g4xx_ll_usart.h ****   * @param  PinInvMethod This parameter can be one of the following values:
1418:Drivers/STM32G4xx_HAL_Driver/Inc/stm32g4xx_ll_usart.h ****   *         @arg @ref LL_USART_TXPIN_LEVEL_STANDARD
1419:Drivers/STM32G4xx_HAL_Driver/Inc/stm32g4xx_ll_usart.h ****   *         @arg @ref LL_USART_TXPIN_LEVEL_INVERTED
1420:Drivers/STM32G4xx_HAL_Driver/Inc/stm32g4xx_ll_usart.h ****   * @retval None
1421:Drivers/STM32G4xx_HAL_Driver/Inc/stm32g4xx_ll_usart.h ****   */
1422:Drivers/STM32G4xx_HAL_Driver/Inc/stm32g4xx_ll_usart.h **** __STATIC_INLINE void LL_USART_SetTXPinLevel(USART_TypeDef *USARTx, uint32_t PinInvMethod)
1423:Drivers/STM32G4xx_HAL_Driver/Inc/stm32g4xx_ll_usart.h **** {
1424:Drivers/STM32G4xx_HAL_Driver/Inc/stm32g4xx_ll_usart.h ****   MODIFY_REG(USARTx->CR2, USART_CR2_TXINV, PinInvMethod);
1425:Drivers/STM32G4xx_HAL_Driver/Inc/stm32g4xx_ll_usart.h **** }
1426:Drivers/STM32G4xx_HAL_Driver/Inc/stm32g4xx_ll_usart.h **** 
1427:Drivers/STM32G4xx_HAL_Driver/Inc/stm32g4xx_ll_usart.h **** /**
1428:Drivers/STM32G4xx_HAL_Driver/Inc/stm32g4xx_ll_usart.h ****   * @brief  Retrieve TX pin active level logic configuration
1429:Drivers/STM32G4xx_HAL_Driver/Inc/stm32g4xx_ll_usart.h ****   * @rmtoll CR2          TXINV         LL_USART_GetTXPinLevel
1430:Drivers/STM32G4xx_HAL_Driver/Inc/stm32g4xx_ll_usart.h ****   * @param  USARTx USART Instance
1431:Drivers/STM32G4xx_HAL_Driver/Inc/stm32g4xx_ll_usart.h ****   * @retval Returned value can be one of the following values:
1432:Drivers/STM32G4xx_HAL_Driver/Inc/stm32g4xx_ll_usart.h ****   *         @arg @ref LL_USART_TXPIN_LEVEL_STANDARD
1433:Drivers/STM32G4xx_HAL_Driver/Inc/stm32g4xx_ll_usart.h ****   *         @arg @ref LL_USART_TXPIN_LEVEL_INVERTED
1434:Drivers/STM32G4xx_HAL_Driver/Inc/stm32g4xx_ll_usart.h ****   */
1435:Drivers/STM32G4xx_HAL_Driver/Inc/stm32g4xx_ll_usart.h **** __STATIC_INLINE uint32_t LL_USART_GetTXPinLevel(const USART_TypeDef *USARTx)
1436:Drivers/STM32G4xx_HAL_Driver/Inc/stm32g4xx_ll_usart.h **** {
1437:Drivers/STM32G4xx_HAL_Driver/Inc/stm32g4xx_ll_usart.h ****   return (uint32_t)(READ_BIT(USARTx->CR2, USART_CR2_TXINV));
1438:Drivers/STM32G4xx_HAL_Driver/Inc/stm32g4xx_ll_usart.h **** }
1439:Drivers/STM32G4xx_HAL_Driver/Inc/stm32g4xx_ll_usart.h **** 
1440:Drivers/STM32G4xx_HAL_Driver/Inc/stm32g4xx_ll_usart.h **** /**
1441:Drivers/STM32G4xx_HAL_Driver/Inc/stm32g4xx_ll_usart.h ****   * @brief  Configure Binary data logic.
1442:Drivers/STM32G4xx_HAL_Driver/Inc/stm32g4xx_ll_usart.h ****   * @note   Allow to define how Logical data from the data register are send/received :
1443:Drivers/STM32G4xx_HAL_Driver/Inc/stm32g4xx_ll_usart.h ****   *         either in positive/direct logic (1=H, 0=L) or in negative/inverse logic (1=L, 0=H)
1444:Drivers/STM32G4xx_HAL_Driver/Inc/stm32g4xx_ll_usart.h ****   * @rmtoll CR2          DATAINV       LL_USART_SetBinaryDataLogic
1445:Drivers/STM32G4xx_HAL_Driver/Inc/stm32g4xx_ll_usart.h ****   * @param  USARTx USART Instance
1446:Drivers/STM32G4xx_HAL_Driver/Inc/stm32g4xx_ll_usart.h ****   * @param  DataLogic This parameter can be one of the following values:
1447:Drivers/STM32G4xx_HAL_Driver/Inc/stm32g4xx_ll_usart.h ****   *         @arg @ref LL_USART_BINARY_LOGIC_POSITIVE
1448:Drivers/STM32G4xx_HAL_Driver/Inc/stm32g4xx_ll_usart.h ****   *         @arg @ref LL_USART_BINARY_LOGIC_NEGATIVE
1449:Drivers/STM32G4xx_HAL_Driver/Inc/stm32g4xx_ll_usart.h ****   * @retval None
1450:Drivers/STM32G4xx_HAL_Driver/Inc/stm32g4xx_ll_usart.h ****   */
1451:Drivers/STM32G4xx_HAL_Driver/Inc/stm32g4xx_ll_usart.h **** __STATIC_INLINE void LL_USART_SetBinaryDataLogic(USART_TypeDef *USARTx, uint32_t DataLogic)
1452:Drivers/STM32G4xx_HAL_Driver/Inc/stm32g4xx_ll_usart.h **** {
1453:Drivers/STM32G4xx_HAL_Driver/Inc/stm32g4xx_ll_usart.h ****   MODIFY_REG(USARTx->CR2, USART_CR2_DATAINV, DataLogic);
1454:Drivers/STM32G4xx_HAL_Driver/Inc/stm32g4xx_ll_usart.h **** }
1455:Drivers/STM32G4xx_HAL_Driver/Inc/stm32g4xx_ll_usart.h **** 
1456:Drivers/STM32G4xx_HAL_Driver/Inc/stm32g4xx_ll_usart.h **** /**
1457:Drivers/STM32G4xx_HAL_Driver/Inc/stm32g4xx_ll_usart.h ****   * @brief  Retrieve Binary data configuration
1458:Drivers/STM32G4xx_HAL_Driver/Inc/stm32g4xx_ll_usart.h ****   * @rmtoll CR2          DATAINV       LL_USART_GetBinaryDataLogic
1459:Drivers/STM32G4xx_HAL_Driver/Inc/stm32g4xx_ll_usart.h ****   * @param  USARTx USART Instance
ARM GAS  /tmp/cc9n8VrH.s 			page 30


1460:Drivers/STM32G4xx_HAL_Driver/Inc/stm32g4xx_ll_usart.h ****   * @retval Returned value can be one of the following values:
1461:Drivers/STM32G4xx_HAL_Driver/Inc/stm32g4xx_ll_usart.h ****   *         @arg @ref LL_USART_BINARY_LOGIC_POSITIVE
1462:Drivers/STM32G4xx_HAL_Driver/Inc/stm32g4xx_ll_usart.h ****   *         @arg @ref LL_USART_BINARY_LOGIC_NEGATIVE
1463:Drivers/STM32G4xx_HAL_Driver/Inc/stm32g4xx_ll_usart.h ****   */
1464:Drivers/STM32G4xx_HAL_Driver/Inc/stm32g4xx_ll_usart.h **** __STATIC_INLINE uint32_t LL_USART_GetBinaryDataLogic(const USART_TypeDef *USARTx)
1465:Drivers/STM32G4xx_HAL_Driver/Inc/stm32g4xx_ll_usart.h **** {
1466:Drivers/STM32G4xx_HAL_Driver/Inc/stm32g4xx_ll_usart.h ****   return (uint32_t)(READ_BIT(USARTx->CR2, USART_CR2_DATAINV));
1467:Drivers/STM32G4xx_HAL_Driver/Inc/stm32g4xx_ll_usart.h **** }
1468:Drivers/STM32G4xx_HAL_Driver/Inc/stm32g4xx_ll_usart.h **** 
1469:Drivers/STM32G4xx_HAL_Driver/Inc/stm32g4xx_ll_usart.h **** /**
1470:Drivers/STM32G4xx_HAL_Driver/Inc/stm32g4xx_ll_usart.h ****   * @brief  Configure transfer bit order (either Less or Most Significant Bit First)
1471:Drivers/STM32G4xx_HAL_Driver/Inc/stm32g4xx_ll_usart.h ****   * @note   MSB First means data is transmitted/received with the MSB first, following the start bi
1472:Drivers/STM32G4xx_HAL_Driver/Inc/stm32g4xx_ll_usart.h ****   *         LSB First means data is transmitted/received with data bit 0 first, following the start
1473:Drivers/STM32G4xx_HAL_Driver/Inc/stm32g4xx_ll_usart.h ****   * @rmtoll CR2          MSBFIRST      LL_USART_SetTransferBitOrder
1474:Drivers/STM32G4xx_HAL_Driver/Inc/stm32g4xx_ll_usart.h ****   * @param  USARTx USART Instance
1475:Drivers/STM32G4xx_HAL_Driver/Inc/stm32g4xx_ll_usart.h ****   * @param  BitOrder This parameter can be one of the following values:
1476:Drivers/STM32G4xx_HAL_Driver/Inc/stm32g4xx_ll_usart.h ****   *         @arg @ref LL_USART_BITORDER_LSBFIRST
1477:Drivers/STM32G4xx_HAL_Driver/Inc/stm32g4xx_ll_usart.h ****   *         @arg @ref LL_USART_BITORDER_MSBFIRST
1478:Drivers/STM32G4xx_HAL_Driver/Inc/stm32g4xx_ll_usart.h ****   * @retval None
1479:Drivers/STM32G4xx_HAL_Driver/Inc/stm32g4xx_ll_usart.h ****   */
1480:Drivers/STM32G4xx_HAL_Driver/Inc/stm32g4xx_ll_usart.h **** __STATIC_INLINE void LL_USART_SetTransferBitOrder(USART_TypeDef *USARTx, uint32_t BitOrder)
1481:Drivers/STM32G4xx_HAL_Driver/Inc/stm32g4xx_ll_usart.h **** {
1482:Drivers/STM32G4xx_HAL_Driver/Inc/stm32g4xx_ll_usart.h ****   MODIFY_REG(USARTx->CR2, USART_CR2_MSBFIRST, BitOrder);
1483:Drivers/STM32G4xx_HAL_Driver/Inc/stm32g4xx_ll_usart.h **** }
1484:Drivers/STM32G4xx_HAL_Driver/Inc/stm32g4xx_ll_usart.h **** 
1485:Drivers/STM32G4xx_HAL_Driver/Inc/stm32g4xx_ll_usart.h **** /**
1486:Drivers/STM32G4xx_HAL_Driver/Inc/stm32g4xx_ll_usart.h ****   * @brief  Return transfer bit order (either Less or Most Significant Bit First)
1487:Drivers/STM32G4xx_HAL_Driver/Inc/stm32g4xx_ll_usart.h ****   * @note   MSB First means data is transmitted/received with the MSB first, following the start bi
1488:Drivers/STM32G4xx_HAL_Driver/Inc/stm32g4xx_ll_usart.h ****   *         LSB First means data is transmitted/received with data bit 0 first, following the start
1489:Drivers/STM32G4xx_HAL_Driver/Inc/stm32g4xx_ll_usart.h ****   * @rmtoll CR2          MSBFIRST      LL_USART_GetTransferBitOrder
1490:Drivers/STM32G4xx_HAL_Driver/Inc/stm32g4xx_ll_usart.h ****   * @param  USARTx USART Instance
1491:Drivers/STM32G4xx_HAL_Driver/Inc/stm32g4xx_ll_usart.h ****   * @retval Returned value can be one of the following values:
1492:Drivers/STM32G4xx_HAL_Driver/Inc/stm32g4xx_ll_usart.h ****   *         @arg @ref LL_USART_BITORDER_LSBFIRST
1493:Drivers/STM32G4xx_HAL_Driver/Inc/stm32g4xx_ll_usart.h ****   *         @arg @ref LL_USART_BITORDER_MSBFIRST
1494:Drivers/STM32G4xx_HAL_Driver/Inc/stm32g4xx_ll_usart.h ****   */
1495:Drivers/STM32G4xx_HAL_Driver/Inc/stm32g4xx_ll_usart.h **** __STATIC_INLINE uint32_t LL_USART_GetTransferBitOrder(const USART_TypeDef *USARTx)
1496:Drivers/STM32G4xx_HAL_Driver/Inc/stm32g4xx_ll_usart.h **** {
1497:Drivers/STM32G4xx_HAL_Driver/Inc/stm32g4xx_ll_usart.h ****   return (uint32_t)(READ_BIT(USARTx->CR2, USART_CR2_MSBFIRST));
1498:Drivers/STM32G4xx_HAL_Driver/Inc/stm32g4xx_ll_usart.h **** }
1499:Drivers/STM32G4xx_HAL_Driver/Inc/stm32g4xx_ll_usart.h **** 
1500:Drivers/STM32G4xx_HAL_Driver/Inc/stm32g4xx_ll_usart.h **** /**
1501:Drivers/STM32G4xx_HAL_Driver/Inc/stm32g4xx_ll_usart.h ****   * @brief  Enable Auto Baud-Rate Detection
1502:Drivers/STM32G4xx_HAL_Driver/Inc/stm32g4xx_ll_usart.h ****   * @note   Macro IS_USART_AUTOBAUDRATE_DETECTION_INSTANCE(USARTx) can be used to check whether or 
1503:Drivers/STM32G4xx_HAL_Driver/Inc/stm32g4xx_ll_usart.h ****   *         Auto Baud Rate detection feature is supported by the USARTx instance.
1504:Drivers/STM32G4xx_HAL_Driver/Inc/stm32g4xx_ll_usart.h ****   * @rmtoll CR2          ABREN         LL_USART_EnableAutoBaudRate
1505:Drivers/STM32G4xx_HAL_Driver/Inc/stm32g4xx_ll_usart.h ****   * @param  USARTx USART Instance
1506:Drivers/STM32G4xx_HAL_Driver/Inc/stm32g4xx_ll_usart.h ****   * @retval None
1507:Drivers/STM32G4xx_HAL_Driver/Inc/stm32g4xx_ll_usart.h ****   */
1508:Drivers/STM32G4xx_HAL_Driver/Inc/stm32g4xx_ll_usart.h **** __STATIC_INLINE void LL_USART_EnableAutoBaudRate(USART_TypeDef *USARTx)
1509:Drivers/STM32G4xx_HAL_Driver/Inc/stm32g4xx_ll_usart.h **** {
1510:Drivers/STM32G4xx_HAL_Driver/Inc/stm32g4xx_ll_usart.h ****   SET_BIT(USARTx->CR2, USART_CR2_ABREN);
1511:Drivers/STM32G4xx_HAL_Driver/Inc/stm32g4xx_ll_usart.h **** }
1512:Drivers/STM32G4xx_HAL_Driver/Inc/stm32g4xx_ll_usart.h **** 
1513:Drivers/STM32G4xx_HAL_Driver/Inc/stm32g4xx_ll_usart.h **** /**
1514:Drivers/STM32G4xx_HAL_Driver/Inc/stm32g4xx_ll_usart.h ****   * @brief  Disable Auto Baud-Rate Detection
1515:Drivers/STM32G4xx_HAL_Driver/Inc/stm32g4xx_ll_usart.h ****   * @note   Macro IS_USART_AUTOBAUDRATE_DETECTION_INSTANCE(USARTx) can be used to check whether or 
1516:Drivers/STM32G4xx_HAL_Driver/Inc/stm32g4xx_ll_usart.h ****   *         Auto Baud Rate detection feature is supported by the USARTx instance.
ARM GAS  /tmp/cc9n8VrH.s 			page 31


1517:Drivers/STM32G4xx_HAL_Driver/Inc/stm32g4xx_ll_usart.h ****   * @rmtoll CR2          ABREN         LL_USART_DisableAutoBaudRate
1518:Drivers/STM32G4xx_HAL_Driver/Inc/stm32g4xx_ll_usart.h ****   * @param  USARTx USART Instance
1519:Drivers/STM32G4xx_HAL_Driver/Inc/stm32g4xx_ll_usart.h ****   * @retval None
1520:Drivers/STM32G4xx_HAL_Driver/Inc/stm32g4xx_ll_usart.h ****   */
1521:Drivers/STM32G4xx_HAL_Driver/Inc/stm32g4xx_ll_usart.h **** __STATIC_INLINE void LL_USART_DisableAutoBaudRate(USART_TypeDef *USARTx)
1522:Drivers/STM32G4xx_HAL_Driver/Inc/stm32g4xx_ll_usart.h **** {
1523:Drivers/STM32G4xx_HAL_Driver/Inc/stm32g4xx_ll_usart.h ****   CLEAR_BIT(USARTx->CR2, USART_CR2_ABREN);
1524:Drivers/STM32G4xx_HAL_Driver/Inc/stm32g4xx_ll_usart.h **** }
1525:Drivers/STM32G4xx_HAL_Driver/Inc/stm32g4xx_ll_usart.h **** 
1526:Drivers/STM32G4xx_HAL_Driver/Inc/stm32g4xx_ll_usart.h **** /**
1527:Drivers/STM32G4xx_HAL_Driver/Inc/stm32g4xx_ll_usart.h ****   * @brief  Indicate if Auto Baud-Rate Detection mechanism is enabled
1528:Drivers/STM32G4xx_HAL_Driver/Inc/stm32g4xx_ll_usart.h ****   * @note   Macro IS_USART_AUTOBAUDRATE_DETECTION_INSTANCE(USARTx) can be used to check whether or 
1529:Drivers/STM32G4xx_HAL_Driver/Inc/stm32g4xx_ll_usart.h ****   *         Auto Baud Rate detection feature is supported by the USARTx instance.
1530:Drivers/STM32G4xx_HAL_Driver/Inc/stm32g4xx_ll_usart.h ****   * @rmtoll CR2          ABREN         LL_USART_IsEnabledAutoBaud
1531:Drivers/STM32G4xx_HAL_Driver/Inc/stm32g4xx_ll_usart.h ****   * @param  USARTx USART Instance
1532:Drivers/STM32G4xx_HAL_Driver/Inc/stm32g4xx_ll_usart.h ****   * @retval State of bit (1 or 0).
1533:Drivers/STM32G4xx_HAL_Driver/Inc/stm32g4xx_ll_usart.h ****   */
1534:Drivers/STM32G4xx_HAL_Driver/Inc/stm32g4xx_ll_usart.h **** __STATIC_INLINE uint32_t LL_USART_IsEnabledAutoBaud(const USART_TypeDef *USARTx)
1535:Drivers/STM32G4xx_HAL_Driver/Inc/stm32g4xx_ll_usart.h **** {
1536:Drivers/STM32G4xx_HAL_Driver/Inc/stm32g4xx_ll_usart.h ****   return ((READ_BIT(USARTx->CR2, USART_CR2_ABREN) == (USART_CR2_ABREN)) ? 1UL : 0UL);
1537:Drivers/STM32G4xx_HAL_Driver/Inc/stm32g4xx_ll_usart.h **** }
1538:Drivers/STM32G4xx_HAL_Driver/Inc/stm32g4xx_ll_usart.h **** 
1539:Drivers/STM32G4xx_HAL_Driver/Inc/stm32g4xx_ll_usart.h **** /**
1540:Drivers/STM32G4xx_HAL_Driver/Inc/stm32g4xx_ll_usart.h ****   * @brief  Set Auto Baud-Rate mode bits
1541:Drivers/STM32G4xx_HAL_Driver/Inc/stm32g4xx_ll_usart.h ****   * @note   Macro IS_USART_AUTOBAUDRATE_DETECTION_INSTANCE(USARTx) can be used to check whether or 
1542:Drivers/STM32G4xx_HAL_Driver/Inc/stm32g4xx_ll_usart.h ****   *         Auto Baud Rate detection feature is supported by the USARTx instance.
1543:Drivers/STM32G4xx_HAL_Driver/Inc/stm32g4xx_ll_usart.h ****   * @rmtoll CR2          ABRMODE       LL_USART_SetAutoBaudRateMode
1544:Drivers/STM32G4xx_HAL_Driver/Inc/stm32g4xx_ll_usart.h ****   * @param  USARTx USART Instance
1545:Drivers/STM32G4xx_HAL_Driver/Inc/stm32g4xx_ll_usart.h ****   * @param  AutoBaudRateMode This parameter can be one of the following values:
1546:Drivers/STM32G4xx_HAL_Driver/Inc/stm32g4xx_ll_usart.h ****   *         @arg @ref LL_USART_AUTOBAUD_DETECT_ON_STARTBIT
1547:Drivers/STM32G4xx_HAL_Driver/Inc/stm32g4xx_ll_usart.h ****   *         @arg @ref LL_USART_AUTOBAUD_DETECT_ON_FALLINGEDGE
1548:Drivers/STM32G4xx_HAL_Driver/Inc/stm32g4xx_ll_usart.h ****   *         @arg @ref LL_USART_AUTOBAUD_DETECT_ON_7F_FRAME
1549:Drivers/STM32G4xx_HAL_Driver/Inc/stm32g4xx_ll_usart.h ****   *         @arg @ref LL_USART_AUTOBAUD_DETECT_ON_55_FRAME
1550:Drivers/STM32G4xx_HAL_Driver/Inc/stm32g4xx_ll_usart.h ****   * @retval None
1551:Drivers/STM32G4xx_HAL_Driver/Inc/stm32g4xx_ll_usart.h ****   */
1552:Drivers/STM32G4xx_HAL_Driver/Inc/stm32g4xx_ll_usart.h **** __STATIC_INLINE void LL_USART_SetAutoBaudRateMode(USART_TypeDef *USARTx, uint32_t AutoBaudRateMode)
1553:Drivers/STM32G4xx_HAL_Driver/Inc/stm32g4xx_ll_usart.h **** {
1554:Drivers/STM32G4xx_HAL_Driver/Inc/stm32g4xx_ll_usart.h ****   MODIFY_REG(USARTx->CR2, USART_CR2_ABRMODE, AutoBaudRateMode);
1555:Drivers/STM32G4xx_HAL_Driver/Inc/stm32g4xx_ll_usart.h **** }
1556:Drivers/STM32G4xx_HAL_Driver/Inc/stm32g4xx_ll_usart.h **** 
1557:Drivers/STM32G4xx_HAL_Driver/Inc/stm32g4xx_ll_usart.h **** /**
1558:Drivers/STM32G4xx_HAL_Driver/Inc/stm32g4xx_ll_usart.h ****   * @brief  Return Auto Baud-Rate mode
1559:Drivers/STM32G4xx_HAL_Driver/Inc/stm32g4xx_ll_usart.h ****   * @note   Macro IS_USART_AUTOBAUDRATE_DETECTION_INSTANCE(USARTx) can be used to check whether or 
1560:Drivers/STM32G4xx_HAL_Driver/Inc/stm32g4xx_ll_usart.h ****   *         Auto Baud Rate detection feature is supported by the USARTx instance.
1561:Drivers/STM32G4xx_HAL_Driver/Inc/stm32g4xx_ll_usart.h ****   * @rmtoll CR2          ABRMODE       LL_USART_GetAutoBaudRateMode
1562:Drivers/STM32G4xx_HAL_Driver/Inc/stm32g4xx_ll_usart.h ****   * @param  USARTx USART Instance
1563:Drivers/STM32G4xx_HAL_Driver/Inc/stm32g4xx_ll_usart.h ****   * @retval Returned value can be one of the following values:
1564:Drivers/STM32G4xx_HAL_Driver/Inc/stm32g4xx_ll_usart.h ****   *         @arg @ref LL_USART_AUTOBAUD_DETECT_ON_STARTBIT
1565:Drivers/STM32G4xx_HAL_Driver/Inc/stm32g4xx_ll_usart.h ****   *         @arg @ref LL_USART_AUTOBAUD_DETECT_ON_FALLINGEDGE
1566:Drivers/STM32G4xx_HAL_Driver/Inc/stm32g4xx_ll_usart.h ****   *         @arg @ref LL_USART_AUTOBAUD_DETECT_ON_7F_FRAME
1567:Drivers/STM32G4xx_HAL_Driver/Inc/stm32g4xx_ll_usart.h ****   *         @arg @ref LL_USART_AUTOBAUD_DETECT_ON_55_FRAME
1568:Drivers/STM32G4xx_HAL_Driver/Inc/stm32g4xx_ll_usart.h ****   */
1569:Drivers/STM32G4xx_HAL_Driver/Inc/stm32g4xx_ll_usart.h **** __STATIC_INLINE uint32_t LL_USART_GetAutoBaudRateMode(const USART_TypeDef *USARTx)
1570:Drivers/STM32G4xx_HAL_Driver/Inc/stm32g4xx_ll_usart.h **** {
1571:Drivers/STM32G4xx_HAL_Driver/Inc/stm32g4xx_ll_usart.h ****   return (uint32_t)(READ_BIT(USARTx->CR2, USART_CR2_ABRMODE));
1572:Drivers/STM32G4xx_HAL_Driver/Inc/stm32g4xx_ll_usart.h **** }
1573:Drivers/STM32G4xx_HAL_Driver/Inc/stm32g4xx_ll_usart.h **** 
ARM GAS  /tmp/cc9n8VrH.s 			page 32


1574:Drivers/STM32G4xx_HAL_Driver/Inc/stm32g4xx_ll_usart.h **** /**
1575:Drivers/STM32G4xx_HAL_Driver/Inc/stm32g4xx_ll_usart.h ****   * @brief  Enable Receiver Timeout
1576:Drivers/STM32G4xx_HAL_Driver/Inc/stm32g4xx_ll_usart.h ****   * @rmtoll CR2          RTOEN         LL_USART_EnableRxTimeout
1577:Drivers/STM32G4xx_HAL_Driver/Inc/stm32g4xx_ll_usart.h ****   * @param  USARTx USART Instance
1578:Drivers/STM32G4xx_HAL_Driver/Inc/stm32g4xx_ll_usart.h ****   * @retval None
1579:Drivers/STM32G4xx_HAL_Driver/Inc/stm32g4xx_ll_usart.h ****   */
1580:Drivers/STM32G4xx_HAL_Driver/Inc/stm32g4xx_ll_usart.h **** __STATIC_INLINE void LL_USART_EnableRxTimeout(USART_TypeDef *USARTx)
1581:Drivers/STM32G4xx_HAL_Driver/Inc/stm32g4xx_ll_usart.h **** {
1582:Drivers/STM32G4xx_HAL_Driver/Inc/stm32g4xx_ll_usart.h ****   SET_BIT(USARTx->CR2, USART_CR2_RTOEN);
1583:Drivers/STM32G4xx_HAL_Driver/Inc/stm32g4xx_ll_usart.h **** }
1584:Drivers/STM32G4xx_HAL_Driver/Inc/stm32g4xx_ll_usart.h **** 
1585:Drivers/STM32G4xx_HAL_Driver/Inc/stm32g4xx_ll_usart.h **** /**
1586:Drivers/STM32G4xx_HAL_Driver/Inc/stm32g4xx_ll_usart.h ****   * @brief  Disable Receiver Timeout
1587:Drivers/STM32G4xx_HAL_Driver/Inc/stm32g4xx_ll_usart.h ****   * @rmtoll CR2          RTOEN         LL_USART_DisableRxTimeout
1588:Drivers/STM32G4xx_HAL_Driver/Inc/stm32g4xx_ll_usart.h ****   * @param  USARTx USART Instance
1589:Drivers/STM32G4xx_HAL_Driver/Inc/stm32g4xx_ll_usart.h ****   * @retval None
1590:Drivers/STM32G4xx_HAL_Driver/Inc/stm32g4xx_ll_usart.h ****   */
1591:Drivers/STM32G4xx_HAL_Driver/Inc/stm32g4xx_ll_usart.h **** __STATIC_INLINE void LL_USART_DisableRxTimeout(USART_TypeDef *USARTx)
1592:Drivers/STM32G4xx_HAL_Driver/Inc/stm32g4xx_ll_usart.h **** {
1593:Drivers/STM32G4xx_HAL_Driver/Inc/stm32g4xx_ll_usart.h ****   CLEAR_BIT(USARTx->CR2, USART_CR2_RTOEN);
1594:Drivers/STM32G4xx_HAL_Driver/Inc/stm32g4xx_ll_usart.h **** }
1595:Drivers/STM32G4xx_HAL_Driver/Inc/stm32g4xx_ll_usart.h **** 
1596:Drivers/STM32G4xx_HAL_Driver/Inc/stm32g4xx_ll_usart.h **** /**
1597:Drivers/STM32G4xx_HAL_Driver/Inc/stm32g4xx_ll_usart.h ****   * @brief  Indicate if Receiver Timeout feature is enabled
1598:Drivers/STM32G4xx_HAL_Driver/Inc/stm32g4xx_ll_usart.h ****   * @rmtoll CR2          RTOEN         LL_USART_IsEnabledRxTimeout
1599:Drivers/STM32G4xx_HAL_Driver/Inc/stm32g4xx_ll_usart.h ****   * @param  USARTx USART Instance
1600:Drivers/STM32G4xx_HAL_Driver/Inc/stm32g4xx_ll_usart.h ****   * @retval State of bit (1 or 0).
1601:Drivers/STM32G4xx_HAL_Driver/Inc/stm32g4xx_ll_usart.h ****   */
1602:Drivers/STM32G4xx_HAL_Driver/Inc/stm32g4xx_ll_usart.h **** __STATIC_INLINE uint32_t LL_USART_IsEnabledRxTimeout(const USART_TypeDef *USARTx)
1603:Drivers/STM32G4xx_HAL_Driver/Inc/stm32g4xx_ll_usart.h **** {
1604:Drivers/STM32G4xx_HAL_Driver/Inc/stm32g4xx_ll_usart.h ****   return ((READ_BIT(USARTx->CR2, USART_CR2_RTOEN) == (USART_CR2_RTOEN)) ? 1UL : 0UL);
1605:Drivers/STM32G4xx_HAL_Driver/Inc/stm32g4xx_ll_usart.h **** }
1606:Drivers/STM32G4xx_HAL_Driver/Inc/stm32g4xx_ll_usart.h **** 
1607:Drivers/STM32G4xx_HAL_Driver/Inc/stm32g4xx_ll_usart.h **** /**
1608:Drivers/STM32G4xx_HAL_Driver/Inc/stm32g4xx_ll_usart.h ****   * @brief  Set Address of the USART node.
1609:Drivers/STM32G4xx_HAL_Driver/Inc/stm32g4xx_ll_usart.h ****   * @note   This is used in multiprocessor communication during Mute mode or Stop mode,
1610:Drivers/STM32G4xx_HAL_Driver/Inc/stm32g4xx_ll_usart.h ****   *         for wake up with address mark detection.
1611:Drivers/STM32G4xx_HAL_Driver/Inc/stm32g4xx_ll_usart.h ****   * @note   4bits address node is used when 4-bit Address Detection is selected in ADDM7.
1612:Drivers/STM32G4xx_HAL_Driver/Inc/stm32g4xx_ll_usart.h ****   *         (b7-b4 should be set to 0)
1613:Drivers/STM32G4xx_HAL_Driver/Inc/stm32g4xx_ll_usart.h ****   *         8bits address node is used when 7-bit Address Detection is selected in ADDM7.
1614:Drivers/STM32G4xx_HAL_Driver/Inc/stm32g4xx_ll_usart.h ****   *         (This is used in multiprocessor communication during Mute mode or Stop mode,
1615:Drivers/STM32G4xx_HAL_Driver/Inc/stm32g4xx_ll_usart.h ****   *         for wake up with 7-bit address mark detection.
1616:Drivers/STM32G4xx_HAL_Driver/Inc/stm32g4xx_ll_usart.h ****   *         The MSB of the character sent by the transmitter should be equal to 1.
1617:Drivers/STM32G4xx_HAL_Driver/Inc/stm32g4xx_ll_usart.h ****   *         It may also be used for character detection during normal reception,
1618:Drivers/STM32G4xx_HAL_Driver/Inc/stm32g4xx_ll_usart.h ****   *         Mute mode inactive (for example, end of block detection in ModBus protocol).
1619:Drivers/STM32G4xx_HAL_Driver/Inc/stm32g4xx_ll_usart.h ****   *         In this case, the whole received character (8-bit) is compared to the ADD[7:0]
1620:Drivers/STM32G4xx_HAL_Driver/Inc/stm32g4xx_ll_usart.h ****   *         value and CMF flag is set on match)
1621:Drivers/STM32G4xx_HAL_Driver/Inc/stm32g4xx_ll_usart.h ****   * @rmtoll CR2          ADD           LL_USART_ConfigNodeAddress\n
1622:Drivers/STM32G4xx_HAL_Driver/Inc/stm32g4xx_ll_usart.h ****   *         CR2          ADDM7         LL_USART_ConfigNodeAddress
1623:Drivers/STM32G4xx_HAL_Driver/Inc/stm32g4xx_ll_usart.h ****   * @param  USARTx USART Instance
1624:Drivers/STM32G4xx_HAL_Driver/Inc/stm32g4xx_ll_usart.h ****   * @param  AddressLen This parameter can be one of the following values:
1625:Drivers/STM32G4xx_HAL_Driver/Inc/stm32g4xx_ll_usart.h ****   *         @arg @ref LL_USART_ADDRESS_DETECT_4B
1626:Drivers/STM32G4xx_HAL_Driver/Inc/stm32g4xx_ll_usart.h ****   *         @arg @ref LL_USART_ADDRESS_DETECT_7B
1627:Drivers/STM32G4xx_HAL_Driver/Inc/stm32g4xx_ll_usart.h ****   * @param  NodeAddress 4 or 7 bit Address of the USART node.
1628:Drivers/STM32G4xx_HAL_Driver/Inc/stm32g4xx_ll_usart.h ****   * @retval None
1629:Drivers/STM32G4xx_HAL_Driver/Inc/stm32g4xx_ll_usart.h ****   */
1630:Drivers/STM32G4xx_HAL_Driver/Inc/stm32g4xx_ll_usart.h **** __STATIC_INLINE void LL_USART_ConfigNodeAddress(USART_TypeDef *USARTx, uint32_t AddressLen, uint32_
ARM GAS  /tmp/cc9n8VrH.s 			page 33


1631:Drivers/STM32G4xx_HAL_Driver/Inc/stm32g4xx_ll_usart.h **** {
1632:Drivers/STM32G4xx_HAL_Driver/Inc/stm32g4xx_ll_usart.h ****   MODIFY_REG(USARTx->CR2, USART_CR2_ADD | USART_CR2_ADDM7,
1633:Drivers/STM32G4xx_HAL_Driver/Inc/stm32g4xx_ll_usart.h ****              (uint32_t)(AddressLen | (NodeAddress << USART_CR2_ADD_Pos)));
1634:Drivers/STM32G4xx_HAL_Driver/Inc/stm32g4xx_ll_usart.h **** }
1635:Drivers/STM32G4xx_HAL_Driver/Inc/stm32g4xx_ll_usart.h **** 
1636:Drivers/STM32G4xx_HAL_Driver/Inc/stm32g4xx_ll_usart.h **** /**
1637:Drivers/STM32G4xx_HAL_Driver/Inc/stm32g4xx_ll_usart.h ****   * @brief  Return 8 bit Address of the USART node as set in ADD field of CR2.
1638:Drivers/STM32G4xx_HAL_Driver/Inc/stm32g4xx_ll_usart.h ****   * @note   If 4-bit Address Detection is selected in ADDM7,
1639:Drivers/STM32G4xx_HAL_Driver/Inc/stm32g4xx_ll_usart.h ****   *         only 4bits (b3-b0) of returned value are relevant (b31-b4 are not relevant)
1640:Drivers/STM32G4xx_HAL_Driver/Inc/stm32g4xx_ll_usart.h ****   *         If 7-bit Address Detection is selected in ADDM7,
1641:Drivers/STM32G4xx_HAL_Driver/Inc/stm32g4xx_ll_usart.h ****   *         only 8bits (b7-b0) of returned value are relevant (b31-b8 are not relevant)
1642:Drivers/STM32G4xx_HAL_Driver/Inc/stm32g4xx_ll_usart.h ****   * @rmtoll CR2          ADD           LL_USART_GetNodeAddress
1643:Drivers/STM32G4xx_HAL_Driver/Inc/stm32g4xx_ll_usart.h ****   * @param  USARTx USART Instance
1644:Drivers/STM32G4xx_HAL_Driver/Inc/stm32g4xx_ll_usart.h ****   * @retval Address of the USART node (Value between Min_Data=0 and Max_Data=255)
1645:Drivers/STM32G4xx_HAL_Driver/Inc/stm32g4xx_ll_usart.h ****   */
1646:Drivers/STM32G4xx_HAL_Driver/Inc/stm32g4xx_ll_usart.h **** __STATIC_INLINE uint32_t LL_USART_GetNodeAddress(const USART_TypeDef *USARTx)
1647:Drivers/STM32G4xx_HAL_Driver/Inc/stm32g4xx_ll_usart.h **** {
1648:Drivers/STM32G4xx_HAL_Driver/Inc/stm32g4xx_ll_usart.h ****   return (uint32_t)(READ_BIT(USARTx->CR2, USART_CR2_ADD) >> USART_CR2_ADD_Pos);
1649:Drivers/STM32G4xx_HAL_Driver/Inc/stm32g4xx_ll_usart.h **** }
1650:Drivers/STM32G4xx_HAL_Driver/Inc/stm32g4xx_ll_usart.h **** 
1651:Drivers/STM32G4xx_HAL_Driver/Inc/stm32g4xx_ll_usart.h **** /**
1652:Drivers/STM32G4xx_HAL_Driver/Inc/stm32g4xx_ll_usart.h ****   * @brief  Return Length of Node Address used in Address Detection mode (7-bit or 4-bit)
1653:Drivers/STM32G4xx_HAL_Driver/Inc/stm32g4xx_ll_usart.h ****   * @rmtoll CR2          ADDM7         LL_USART_GetNodeAddressLen
1654:Drivers/STM32G4xx_HAL_Driver/Inc/stm32g4xx_ll_usart.h ****   * @param  USARTx USART Instance
1655:Drivers/STM32G4xx_HAL_Driver/Inc/stm32g4xx_ll_usart.h ****   * @retval Returned value can be one of the following values:
1656:Drivers/STM32G4xx_HAL_Driver/Inc/stm32g4xx_ll_usart.h ****   *         @arg @ref LL_USART_ADDRESS_DETECT_4B
1657:Drivers/STM32G4xx_HAL_Driver/Inc/stm32g4xx_ll_usart.h ****   *         @arg @ref LL_USART_ADDRESS_DETECT_7B
1658:Drivers/STM32G4xx_HAL_Driver/Inc/stm32g4xx_ll_usart.h ****   */
1659:Drivers/STM32G4xx_HAL_Driver/Inc/stm32g4xx_ll_usart.h **** __STATIC_INLINE uint32_t LL_USART_GetNodeAddressLen(const USART_TypeDef *USARTx)
1660:Drivers/STM32G4xx_HAL_Driver/Inc/stm32g4xx_ll_usart.h **** {
1661:Drivers/STM32G4xx_HAL_Driver/Inc/stm32g4xx_ll_usart.h ****   return (uint32_t)(READ_BIT(USARTx->CR2, USART_CR2_ADDM7));
1662:Drivers/STM32G4xx_HAL_Driver/Inc/stm32g4xx_ll_usart.h **** }
1663:Drivers/STM32G4xx_HAL_Driver/Inc/stm32g4xx_ll_usart.h **** 
1664:Drivers/STM32G4xx_HAL_Driver/Inc/stm32g4xx_ll_usart.h **** /**
1665:Drivers/STM32G4xx_HAL_Driver/Inc/stm32g4xx_ll_usart.h ****   * @brief  Enable RTS HW Flow Control
1666:Drivers/STM32G4xx_HAL_Driver/Inc/stm32g4xx_ll_usart.h ****   * @note   Macro IS_UART_HWFLOW_INSTANCE(USARTx) can be used to check whether or not
1667:Drivers/STM32G4xx_HAL_Driver/Inc/stm32g4xx_ll_usart.h ****   *         Hardware Flow control feature is supported by the USARTx instance.
1668:Drivers/STM32G4xx_HAL_Driver/Inc/stm32g4xx_ll_usart.h ****   * @rmtoll CR3          RTSE          LL_USART_EnableRTSHWFlowCtrl
1669:Drivers/STM32G4xx_HAL_Driver/Inc/stm32g4xx_ll_usart.h ****   * @param  USARTx USART Instance
1670:Drivers/STM32G4xx_HAL_Driver/Inc/stm32g4xx_ll_usart.h ****   * @retval None
1671:Drivers/STM32G4xx_HAL_Driver/Inc/stm32g4xx_ll_usart.h ****   */
1672:Drivers/STM32G4xx_HAL_Driver/Inc/stm32g4xx_ll_usart.h **** __STATIC_INLINE void LL_USART_EnableRTSHWFlowCtrl(USART_TypeDef *USARTx)
1673:Drivers/STM32G4xx_HAL_Driver/Inc/stm32g4xx_ll_usart.h **** {
1674:Drivers/STM32G4xx_HAL_Driver/Inc/stm32g4xx_ll_usart.h ****   SET_BIT(USARTx->CR3, USART_CR3_RTSE);
1675:Drivers/STM32G4xx_HAL_Driver/Inc/stm32g4xx_ll_usart.h **** }
1676:Drivers/STM32G4xx_HAL_Driver/Inc/stm32g4xx_ll_usart.h **** 
1677:Drivers/STM32G4xx_HAL_Driver/Inc/stm32g4xx_ll_usart.h **** /**
1678:Drivers/STM32G4xx_HAL_Driver/Inc/stm32g4xx_ll_usart.h ****   * @brief  Disable RTS HW Flow Control
1679:Drivers/STM32G4xx_HAL_Driver/Inc/stm32g4xx_ll_usart.h ****   * @note   Macro IS_UART_HWFLOW_INSTANCE(USARTx) can be used to check whether or not
1680:Drivers/STM32G4xx_HAL_Driver/Inc/stm32g4xx_ll_usart.h ****   *         Hardware Flow control feature is supported by the USARTx instance.
1681:Drivers/STM32G4xx_HAL_Driver/Inc/stm32g4xx_ll_usart.h ****   * @rmtoll CR3          RTSE          LL_USART_DisableRTSHWFlowCtrl
1682:Drivers/STM32G4xx_HAL_Driver/Inc/stm32g4xx_ll_usart.h ****   * @param  USARTx USART Instance
1683:Drivers/STM32G4xx_HAL_Driver/Inc/stm32g4xx_ll_usart.h ****   * @retval None
1684:Drivers/STM32G4xx_HAL_Driver/Inc/stm32g4xx_ll_usart.h ****   */
1685:Drivers/STM32G4xx_HAL_Driver/Inc/stm32g4xx_ll_usart.h **** __STATIC_INLINE void LL_USART_DisableRTSHWFlowCtrl(USART_TypeDef *USARTx)
1686:Drivers/STM32G4xx_HAL_Driver/Inc/stm32g4xx_ll_usart.h **** {
1687:Drivers/STM32G4xx_HAL_Driver/Inc/stm32g4xx_ll_usart.h ****   CLEAR_BIT(USARTx->CR3, USART_CR3_RTSE);
ARM GAS  /tmp/cc9n8VrH.s 			page 34


1688:Drivers/STM32G4xx_HAL_Driver/Inc/stm32g4xx_ll_usart.h **** }
1689:Drivers/STM32G4xx_HAL_Driver/Inc/stm32g4xx_ll_usart.h **** 
1690:Drivers/STM32G4xx_HAL_Driver/Inc/stm32g4xx_ll_usart.h **** /**
1691:Drivers/STM32G4xx_HAL_Driver/Inc/stm32g4xx_ll_usart.h ****   * @brief  Enable CTS HW Flow Control
1692:Drivers/STM32G4xx_HAL_Driver/Inc/stm32g4xx_ll_usart.h ****   * @note   Macro IS_UART_HWFLOW_INSTANCE(USARTx) can be used to check whether or not
1693:Drivers/STM32G4xx_HAL_Driver/Inc/stm32g4xx_ll_usart.h ****   *         Hardware Flow control feature is supported by the USARTx instance.
1694:Drivers/STM32G4xx_HAL_Driver/Inc/stm32g4xx_ll_usart.h ****   * @rmtoll CR3          CTSE          LL_USART_EnableCTSHWFlowCtrl
1695:Drivers/STM32G4xx_HAL_Driver/Inc/stm32g4xx_ll_usart.h ****   * @param  USARTx USART Instance
1696:Drivers/STM32G4xx_HAL_Driver/Inc/stm32g4xx_ll_usart.h ****   * @retval None
1697:Drivers/STM32G4xx_HAL_Driver/Inc/stm32g4xx_ll_usart.h ****   */
1698:Drivers/STM32G4xx_HAL_Driver/Inc/stm32g4xx_ll_usart.h **** __STATIC_INLINE void LL_USART_EnableCTSHWFlowCtrl(USART_TypeDef *USARTx)
1699:Drivers/STM32G4xx_HAL_Driver/Inc/stm32g4xx_ll_usart.h **** {
1700:Drivers/STM32G4xx_HAL_Driver/Inc/stm32g4xx_ll_usart.h ****   SET_BIT(USARTx->CR3, USART_CR3_CTSE);
1701:Drivers/STM32G4xx_HAL_Driver/Inc/stm32g4xx_ll_usart.h **** }
1702:Drivers/STM32G4xx_HAL_Driver/Inc/stm32g4xx_ll_usart.h **** 
1703:Drivers/STM32G4xx_HAL_Driver/Inc/stm32g4xx_ll_usart.h **** /**
1704:Drivers/STM32G4xx_HAL_Driver/Inc/stm32g4xx_ll_usart.h ****   * @brief  Disable CTS HW Flow Control
1705:Drivers/STM32G4xx_HAL_Driver/Inc/stm32g4xx_ll_usart.h ****   * @note   Macro IS_UART_HWFLOW_INSTANCE(USARTx) can be used to check whether or not
1706:Drivers/STM32G4xx_HAL_Driver/Inc/stm32g4xx_ll_usart.h ****   *         Hardware Flow control feature is supported by the USARTx instance.
1707:Drivers/STM32G4xx_HAL_Driver/Inc/stm32g4xx_ll_usart.h ****   * @rmtoll CR3          CTSE          LL_USART_DisableCTSHWFlowCtrl
1708:Drivers/STM32G4xx_HAL_Driver/Inc/stm32g4xx_ll_usart.h ****   * @param  USARTx USART Instance
1709:Drivers/STM32G4xx_HAL_Driver/Inc/stm32g4xx_ll_usart.h ****   * @retval None
1710:Drivers/STM32G4xx_HAL_Driver/Inc/stm32g4xx_ll_usart.h ****   */
1711:Drivers/STM32G4xx_HAL_Driver/Inc/stm32g4xx_ll_usart.h **** __STATIC_INLINE void LL_USART_DisableCTSHWFlowCtrl(USART_TypeDef *USARTx)
1712:Drivers/STM32G4xx_HAL_Driver/Inc/stm32g4xx_ll_usart.h **** {
1713:Drivers/STM32G4xx_HAL_Driver/Inc/stm32g4xx_ll_usart.h ****   CLEAR_BIT(USARTx->CR3, USART_CR3_CTSE);
1714:Drivers/STM32G4xx_HAL_Driver/Inc/stm32g4xx_ll_usart.h **** }
1715:Drivers/STM32G4xx_HAL_Driver/Inc/stm32g4xx_ll_usart.h **** 
1716:Drivers/STM32G4xx_HAL_Driver/Inc/stm32g4xx_ll_usart.h **** /**
1717:Drivers/STM32G4xx_HAL_Driver/Inc/stm32g4xx_ll_usart.h ****   * @brief  Configure HW Flow Control mode (both CTS and RTS)
1718:Drivers/STM32G4xx_HAL_Driver/Inc/stm32g4xx_ll_usart.h ****   * @note   Macro IS_UART_HWFLOW_INSTANCE(USARTx) can be used to check whether or not
1719:Drivers/STM32G4xx_HAL_Driver/Inc/stm32g4xx_ll_usart.h ****   *         Hardware Flow control feature is supported by the USARTx instance.
1720:Drivers/STM32G4xx_HAL_Driver/Inc/stm32g4xx_ll_usart.h ****   * @rmtoll CR3          RTSE          LL_USART_SetHWFlowCtrl\n
1721:Drivers/STM32G4xx_HAL_Driver/Inc/stm32g4xx_ll_usart.h ****   *         CR3          CTSE          LL_USART_SetHWFlowCtrl
1722:Drivers/STM32G4xx_HAL_Driver/Inc/stm32g4xx_ll_usart.h ****   * @param  USARTx USART Instance
1723:Drivers/STM32G4xx_HAL_Driver/Inc/stm32g4xx_ll_usart.h ****   * @param  HardwareFlowControl This parameter can be one of the following values:
1724:Drivers/STM32G4xx_HAL_Driver/Inc/stm32g4xx_ll_usart.h ****   *         @arg @ref LL_USART_HWCONTROL_NONE
1725:Drivers/STM32G4xx_HAL_Driver/Inc/stm32g4xx_ll_usart.h ****   *         @arg @ref LL_USART_HWCONTROL_RTS
1726:Drivers/STM32G4xx_HAL_Driver/Inc/stm32g4xx_ll_usart.h ****   *         @arg @ref LL_USART_HWCONTROL_CTS
1727:Drivers/STM32G4xx_HAL_Driver/Inc/stm32g4xx_ll_usart.h ****   *         @arg @ref LL_USART_HWCONTROL_RTS_CTS
1728:Drivers/STM32G4xx_HAL_Driver/Inc/stm32g4xx_ll_usart.h ****   * @retval None
1729:Drivers/STM32G4xx_HAL_Driver/Inc/stm32g4xx_ll_usart.h ****   */
1730:Drivers/STM32G4xx_HAL_Driver/Inc/stm32g4xx_ll_usart.h **** __STATIC_INLINE void LL_USART_SetHWFlowCtrl(USART_TypeDef *USARTx, uint32_t HardwareFlowControl)
1731:Drivers/STM32G4xx_HAL_Driver/Inc/stm32g4xx_ll_usart.h **** {
 204              		.loc 1 1731 1
 205              		.cfi_startproc
 206              		@ args = 0, pretend = 0, frame = 8
 207              		@ frame_needed = 1, uses_anonymous_args = 0
 208              		@ link register save eliminated.
 209 0000 80B4     		push	{r7}
 210              	.LCFI18:
 211              		.cfi_def_cfa_offset 4
 212              		.cfi_offset 7, -4
 213 0002 83B0     		sub	sp, sp, #12
 214              	.LCFI19:
 215              		.cfi_def_cfa_offset 16
 216 0004 00AF     		add	r7, sp, #0
ARM GAS  /tmp/cc9n8VrH.s 			page 35


 217              	.LCFI20:
 218              		.cfi_def_cfa_register 7
 219 0006 7860     		str	r0, [r7, #4]
 220 0008 3960     		str	r1, [r7]
1732:Drivers/STM32G4xx_HAL_Driver/Inc/stm32g4xx_ll_usart.h ****   MODIFY_REG(USARTx->CR3, USART_CR3_RTSE | USART_CR3_CTSE, HardwareFlowControl);
 221              		.loc 1 1732 3
 222 000a 7B68     		ldr	r3, [r7, #4]
 223 000c 9B68     		ldr	r3, [r3, #8]
 224 000e 23F44072 		bic	r2, r3, #768
 225 0012 3B68     		ldr	r3, [r7]
 226 0014 1A43     		orrs	r2, r2, r3
 227 0016 7B68     		ldr	r3, [r7, #4]
 228 0018 9A60     		str	r2, [r3, #8]
1733:Drivers/STM32G4xx_HAL_Driver/Inc/stm32g4xx_ll_usart.h **** }
 229              		.loc 1 1733 1
 230 001a 00BF     		nop
 231 001c 0C37     		adds	r7, r7, #12
 232              	.LCFI21:
 233              		.cfi_def_cfa_offset 4
 234 001e BD46     		mov	sp, r7
 235              	.LCFI22:
 236              		.cfi_def_cfa_register 13
 237              		@ sp needed
 238 0020 5DF8047B 		ldr	r7, [sp], #4
 239              	.LCFI23:
 240              		.cfi_restore 7
 241              		.cfi_def_cfa_offset 0
 242 0024 7047     		bx	lr
 243              		.cfi_endproc
 244              	.LFE203:
 246              		.section	.text.LL_USART_SetBaudRate,"ax",%progbits
 247              		.align	1
 248              		.syntax unified
 249              		.thumb
 250              		.thumb_func
 251              		.fpu fpv4-sp-d16
 253              	LL_USART_SetBaudRate:
 254              	.LFB213:
1734:Drivers/STM32G4xx_HAL_Driver/Inc/stm32g4xx_ll_usart.h **** 
1735:Drivers/STM32G4xx_HAL_Driver/Inc/stm32g4xx_ll_usart.h **** /**
1736:Drivers/STM32G4xx_HAL_Driver/Inc/stm32g4xx_ll_usart.h ****   * @brief  Return HW Flow Control configuration (both CTS and RTS)
1737:Drivers/STM32G4xx_HAL_Driver/Inc/stm32g4xx_ll_usart.h ****   * @note   Macro IS_UART_HWFLOW_INSTANCE(USARTx) can be used to check whether or not
1738:Drivers/STM32G4xx_HAL_Driver/Inc/stm32g4xx_ll_usart.h ****   *         Hardware Flow control feature is supported by the USARTx instance.
1739:Drivers/STM32G4xx_HAL_Driver/Inc/stm32g4xx_ll_usart.h ****   * @rmtoll CR3          RTSE          LL_USART_GetHWFlowCtrl\n
1740:Drivers/STM32G4xx_HAL_Driver/Inc/stm32g4xx_ll_usart.h ****   *         CR3          CTSE          LL_USART_GetHWFlowCtrl
1741:Drivers/STM32G4xx_HAL_Driver/Inc/stm32g4xx_ll_usart.h ****   * @param  USARTx USART Instance
1742:Drivers/STM32G4xx_HAL_Driver/Inc/stm32g4xx_ll_usart.h ****   * @retval Returned value can be one of the following values:
1743:Drivers/STM32G4xx_HAL_Driver/Inc/stm32g4xx_ll_usart.h ****   *         @arg @ref LL_USART_HWCONTROL_NONE
1744:Drivers/STM32G4xx_HAL_Driver/Inc/stm32g4xx_ll_usart.h ****   *         @arg @ref LL_USART_HWCONTROL_RTS
1745:Drivers/STM32G4xx_HAL_Driver/Inc/stm32g4xx_ll_usart.h ****   *         @arg @ref LL_USART_HWCONTROL_CTS
1746:Drivers/STM32G4xx_HAL_Driver/Inc/stm32g4xx_ll_usart.h ****   *         @arg @ref LL_USART_HWCONTROL_RTS_CTS
1747:Drivers/STM32G4xx_HAL_Driver/Inc/stm32g4xx_ll_usart.h ****   */
1748:Drivers/STM32G4xx_HAL_Driver/Inc/stm32g4xx_ll_usart.h **** __STATIC_INLINE uint32_t LL_USART_GetHWFlowCtrl(const USART_TypeDef *USARTx)
1749:Drivers/STM32G4xx_HAL_Driver/Inc/stm32g4xx_ll_usart.h **** {
1750:Drivers/STM32G4xx_HAL_Driver/Inc/stm32g4xx_ll_usart.h ****   return (uint32_t)(READ_BIT(USARTx->CR3, USART_CR3_RTSE | USART_CR3_CTSE));
1751:Drivers/STM32G4xx_HAL_Driver/Inc/stm32g4xx_ll_usart.h **** }
1752:Drivers/STM32G4xx_HAL_Driver/Inc/stm32g4xx_ll_usart.h **** 
ARM GAS  /tmp/cc9n8VrH.s 			page 36


1753:Drivers/STM32G4xx_HAL_Driver/Inc/stm32g4xx_ll_usart.h **** /**
1754:Drivers/STM32G4xx_HAL_Driver/Inc/stm32g4xx_ll_usart.h ****   * @brief  Enable One bit sampling method
1755:Drivers/STM32G4xx_HAL_Driver/Inc/stm32g4xx_ll_usart.h ****   * @rmtoll CR3          ONEBIT        LL_USART_EnableOneBitSamp
1756:Drivers/STM32G4xx_HAL_Driver/Inc/stm32g4xx_ll_usart.h ****   * @param  USARTx USART Instance
1757:Drivers/STM32G4xx_HAL_Driver/Inc/stm32g4xx_ll_usart.h ****   * @retval None
1758:Drivers/STM32G4xx_HAL_Driver/Inc/stm32g4xx_ll_usart.h ****   */
1759:Drivers/STM32G4xx_HAL_Driver/Inc/stm32g4xx_ll_usart.h **** __STATIC_INLINE void LL_USART_EnableOneBitSamp(USART_TypeDef *USARTx)
1760:Drivers/STM32G4xx_HAL_Driver/Inc/stm32g4xx_ll_usart.h **** {
1761:Drivers/STM32G4xx_HAL_Driver/Inc/stm32g4xx_ll_usart.h ****   SET_BIT(USARTx->CR3, USART_CR3_ONEBIT);
1762:Drivers/STM32G4xx_HAL_Driver/Inc/stm32g4xx_ll_usart.h **** }
1763:Drivers/STM32G4xx_HAL_Driver/Inc/stm32g4xx_ll_usart.h **** 
1764:Drivers/STM32G4xx_HAL_Driver/Inc/stm32g4xx_ll_usart.h **** /**
1765:Drivers/STM32G4xx_HAL_Driver/Inc/stm32g4xx_ll_usart.h ****   * @brief  Disable One bit sampling method
1766:Drivers/STM32G4xx_HAL_Driver/Inc/stm32g4xx_ll_usart.h ****   * @rmtoll CR3          ONEBIT        LL_USART_DisableOneBitSamp
1767:Drivers/STM32G4xx_HAL_Driver/Inc/stm32g4xx_ll_usart.h ****   * @param  USARTx USART Instance
1768:Drivers/STM32G4xx_HAL_Driver/Inc/stm32g4xx_ll_usart.h ****   * @retval None
1769:Drivers/STM32G4xx_HAL_Driver/Inc/stm32g4xx_ll_usart.h ****   */
1770:Drivers/STM32G4xx_HAL_Driver/Inc/stm32g4xx_ll_usart.h **** __STATIC_INLINE void LL_USART_DisableOneBitSamp(USART_TypeDef *USARTx)
1771:Drivers/STM32G4xx_HAL_Driver/Inc/stm32g4xx_ll_usart.h **** {
1772:Drivers/STM32G4xx_HAL_Driver/Inc/stm32g4xx_ll_usart.h ****   CLEAR_BIT(USARTx->CR3, USART_CR3_ONEBIT);
1773:Drivers/STM32G4xx_HAL_Driver/Inc/stm32g4xx_ll_usart.h **** }
1774:Drivers/STM32G4xx_HAL_Driver/Inc/stm32g4xx_ll_usart.h **** 
1775:Drivers/STM32G4xx_HAL_Driver/Inc/stm32g4xx_ll_usart.h **** /**
1776:Drivers/STM32G4xx_HAL_Driver/Inc/stm32g4xx_ll_usart.h ****   * @brief  Indicate if One bit sampling method is enabled
1777:Drivers/STM32G4xx_HAL_Driver/Inc/stm32g4xx_ll_usart.h ****   * @rmtoll CR3          ONEBIT        LL_USART_IsEnabledOneBitSamp
1778:Drivers/STM32G4xx_HAL_Driver/Inc/stm32g4xx_ll_usart.h ****   * @param  USARTx USART Instance
1779:Drivers/STM32G4xx_HAL_Driver/Inc/stm32g4xx_ll_usart.h ****   * @retval State of bit (1 or 0).
1780:Drivers/STM32G4xx_HAL_Driver/Inc/stm32g4xx_ll_usart.h ****   */
1781:Drivers/STM32G4xx_HAL_Driver/Inc/stm32g4xx_ll_usart.h **** __STATIC_INLINE uint32_t LL_USART_IsEnabledOneBitSamp(const USART_TypeDef *USARTx)
1782:Drivers/STM32G4xx_HAL_Driver/Inc/stm32g4xx_ll_usart.h **** {
1783:Drivers/STM32G4xx_HAL_Driver/Inc/stm32g4xx_ll_usart.h ****   return ((READ_BIT(USARTx->CR3, USART_CR3_ONEBIT) == (USART_CR3_ONEBIT)) ? 1UL : 0UL);
1784:Drivers/STM32G4xx_HAL_Driver/Inc/stm32g4xx_ll_usart.h **** }
1785:Drivers/STM32G4xx_HAL_Driver/Inc/stm32g4xx_ll_usart.h **** 
1786:Drivers/STM32G4xx_HAL_Driver/Inc/stm32g4xx_ll_usart.h **** /**
1787:Drivers/STM32G4xx_HAL_Driver/Inc/stm32g4xx_ll_usart.h ****   * @brief  Enable Overrun detection
1788:Drivers/STM32G4xx_HAL_Driver/Inc/stm32g4xx_ll_usart.h ****   * @rmtoll CR3          OVRDIS        LL_USART_EnableOverrunDetect
1789:Drivers/STM32G4xx_HAL_Driver/Inc/stm32g4xx_ll_usart.h ****   * @param  USARTx USART Instance
1790:Drivers/STM32G4xx_HAL_Driver/Inc/stm32g4xx_ll_usart.h ****   * @retval None
1791:Drivers/STM32G4xx_HAL_Driver/Inc/stm32g4xx_ll_usart.h ****   */
1792:Drivers/STM32G4xx_HAL_Driver/Inc/stm32g4xx_ll_usart.h **** __STATIC_INLINE void LL_USART_EnableOverrunDetect(USART_TypeDef *USARTx)
1793:Drivers/STM32G4xx_HAL_Driver/Inc/stm32g4xx_ll_usart.h **** {
1794:Drivers/STM32G4xx_HAL_Driver/Inc/stm32g4xx_ll_usart.h ****   CLEAR_BIT(USARTx->CR3, USART_CR3_OVRDIS);
1795:Drivers/STM32G4xx_HAL_Driver/Inc/stm32g4xx_ll_usart.h **** }
1796:Drivers/STM32G4xx_HAL_Driver/Inc/stm32g4xx_ll_usart.h **** 
1797:Drivers/STM32G4xx_HAL_Driver/Inc/stm32g4xx_ll_usart.h **** /**
1798:Drivers/STM32G4xx_HAL_Driver/Inc/stm32g4xx_ll_usart.h ****   * @brief  Disable Overrun detection
1799:Drivers/STM32G4xx_HAL_Driver/Inc/stm32g4xx_ll_usart.h ****   * @rmtoll CR3          OVRDIS        LL_USART_DisableOverrunDetect
1800:Drivers/STM32G4xx_HAL_Driver/Inc/stm32g4xx_ll_usart.h ****   * @param  USARTx USART Instance
1801:Drivers/STM32G4xx_HAL_Driver/Inc/stm32g4xx_ll_usart.h ****   * @retval None
1802:Drivers/STM32G4xx_HAL_Driver/Inc/stm32g4xx_ll_usart.h ****   */
1803:Drivers/STM32G4xx_HAL_Driver/Inc/stm32g4xx_ll_usart.h **** __STATIC_INLINE void LL_USART_DisableOverrunDetect(USART_TypeDef *USARTx)
1804:Drivers/STM32G4xx_HAL_Driver/Inc/stm32g4xx_ll_usart.h **** {
1805:Drivers/STM32G4xx_HAL_Driver/Inc/stm32g4xx_ll_usart.h ****   SET_BIT(USARTx->CR3, USART_CR3_OVRDIS);
1806:Drivers/STM32G4xx_HAL_Driver/Inc/stm32g4xx_ll_usart.h **** }
1807:Drivers/STM32G4xx_HAL_Driver/Inc/stm32g4xx_ll_usart.h **** 
1808:Drivers/STM32G4xx_HAL_Driver/Inc/stm32g4xx_ll_usart.h **** /**
1809:Drivers/STM32G4xx_HAL_Driver/Inc/stm32g4xx_ll_usart.h ****   * @brief  Indicate if Overrun detection is enabled
ARM GAS  /tmp/cc9n8VrH.s 			page 37


1810:Drivers/STM32G4xx_HAL_Driver/Inc/stm32g4xx_ll_usart.h ****   * @rmtoll CR3          OVRDIS        LL_USART_IsEnabledOverrunDetect
1811:Drivers/STM32G4xx_HAL_Driver/Inc/stm32g4xx_ll_usart.h ****   * @param  USARTx USART Instance
1812:Drivers/STM32G4xx_HAL_Driver/Inc/stm32g4xx_ll_usart.h ****   * @retval State of bit (1 or 0).
1813:Drivers/STM32G4xx_HAL_Driver/Inc/stm32g4xx_ll_usart.h ****   */
1814:Drivers/STM32G4xx_HAL_Driver/Inc/stm32g4xx_ll_usart.h **** __STATIC_INLINE uint32_t LL_USART_IsEnabledOverrunDetect(const USART_TypeDef *USARTx)
1815:Drivers/STM32G4xx_HAL_Driver/Inc/stm32g4xx_ll_usart.h **** {
1816:Drivers/STM32G4xx_HAL_Driver/Inc/stm32g4xx_ll_usart.h ****   return ((READ_BIT(USARTx->CR3, USART_CR3_OVRDIS) != USART_CR3_OVRDIS) ? 1UL : 0UL);
1817:Drivers/STM32G4xx_HAL_Driver/Inc/stm32g4xx_ll_usart.h **** }
1818:Drivers/STM32G4xx_HAL_Driver/Inc/stm32g4xx_ll_usart.h **** 
1819:Drivers/STM32G4xx_HAL_Driver/Inc/stm32g4xx_ll_usart.h **** /**
1820:Drivers/STM32G4xx_HAL_Driver/Inc/stm32g4xx_ll_usart.h ****   * @brief  Select event type for Wake UP Interrupt Flag (WUS[1:0] bits)
1821:Drivers/STM32G4xx_HAL_Driver/Inc/stm32g4xx_ll_usart.h ****   * @note   Macro IS_UART_WAKEUP_FROMSTOP_INSTANCE(USARTx) can be used to check whether or not
1822:Drivers/STM32G4xx_HAL_Driver/Inc/stm32g4xx_ll_usart.h ****   *         Wake-up from Stop mode feature is supported by the USARTx instance.
1823:Drivers/STM32G4xx_HAL_Driver/Inc/stm32g4xx_ll_usart.h ****   * @rmtoll CR3          WUS           LL_USART_SetWKUPType
1824:Drivers/STM32G4xx_HAL_Driver/Inc/stm32g4xx_ll_usart.h ****   * @param  USARTx USART Instance
1825:Drivers/STM32G4xx_HAL_Driver/Inc/stm32g4xx_ll_usart.h ****   * @param  Type This parameter can be one of the following values:
1826:Drivers/STM32G4xx_HAL_Driver/Inc/stm32g4xx_ll_usart.h ****   *         @arg @ref LL_USART_WAKEUP_ON_ADDRESS
1827:Drivers/STM32G4xx_HAL_Driver/Inc/stm32g4xx_ll_usart.h ****   *         @arg @ref LL_USART_WAKEUP_ON_STARTBIT
1828:Drivers/STM32G4xx_HAL_Driver/Inc/stm32g4xx_ll_usart.h ****   *         @arg @ref LL_USART_WAKEUP_ON_RXNE
1829:Drivers/STM32G4xx_HAL_Driver/Inc/stm32g4xx_ll_usart.h ****   * @retval None
1830:Drivers/STM32G4xx_HAL_Driver/Inc/stm32g4xx_ll_usart.h ****   */
1831:Drivers/STM32G4xx_HAL_Driver/Inc/stm32g4xx_ll_usart.h **** __STATIC_INLINE void LL_USART_SetWKUPType(USART_TypeDef *USARTx, uint32_t Type)
1832:Drivers/STM32G4xx_HAL_Driver/Inc/stm32g4xx_ll_usart.h **** {
1833:Drivers/STM32G4xx_HAL_Driver/Inc/stm32g4xx_ll_usart.h ****   MODIFY_REG(USARTx->CR3, USART_CR3_WUS, Type);
1834:Drivers/STM32G4xx_HAL_Driver/Inc/stm32g4xx_ll_usart.h **** }
1835:Drivers/STM32G4xx_HAL_Driver/Inc/stm32g4xx_ll_usart.h **** 
1836:Drivers/STM32G4xx_HAL_Driver/Inc/stm32g4xx_ll_usart.h **** /**
1837:Drivers/STM32G4xx_HAL_Driver/Inc/stm32g4xx_ll_usart.h ****   * @brief  Return event type for Wake UP Interrupt Flag (WUS[1:0] bits)
1838:Drivers/STM32G4xx_HAL_Driver/Inc/stm32g4xx_ll_usart.h ****   * @note   Macro IS_UART_WAKEUP_FROMSTOP_INSTANCE(USARTx) can be used to check whether or not
1839:Drivers/STM32G4xx_HAL_Driver/Inc/stm32g4xx_ll_usart.h ****   *         Wake-up from Stop mode feature is supported by the USARTx instance.
1840:Drivers/STM32G4xx_HAL_Driver/Inc/stm32g4xx_ll_usart.h ****   * @rmtoll CR3          WUS           LL_USART_GetWKUPType
1841:Drivers/STM32G4xx_HAL_Driver/Inc/stm32g4xx_ll_usart.h ****   * @param  USARTx USART Instance
1842:Drivers/STM32G4xx_HAL_Driver/Inc/stm32g4xx_ll_usart.h ****   * @retval Returned value can be one of the following values:
1843:Drivers/STM32G4xx_HAL_Driver/Inc/stm32g4xx_ll_usart.h ****   *         @arg @ref LL_USART_WAKEUP_ON_ADDRESS
1844:Drivers/STM32G4xx_HAL_Driver/Inc/stm32g4xx_ll_usart.h ****   *         @arg @ref LL_USART_WAKEUP_ON_STARTBIT
1845:Drivers/STM32G4xx_HAL_Driver/Inc/stm32g4xx_ll_usart.h ****   *         @arg @ref LL_USART_WAKEUP_ON_RXNE
1846:Drivers/STM32G4xx_HAL_Driver/Inc/stm32g4xx_ll_usart.h ****   */
1847:Drivers/STM32G4xx_HAL_Driver/Inc/stm32g4xx_ll_usart.h **** __STATIC_INLINE uint32_t LL_USART_GetWKUPType(const USART_TypeDef *USARTx)
1848:Drivers/STM32G4xx_HAL_Driver/Inc/stm32g4xx_ll_usart.h **** {
1849:Drivers/STM32G4xx_HAL_Driver/Inc/stm32g4xx_ll_usart.h ****   return (uint32_t)(READ_BIT(USARTx->CR3, USART_CR3_WUS));
1850:Drivers/STM32G4xx_HAL_Driver/Inc/stm32g4xx_ll_usart.h **** }
1851:Drivers/STM32G4xx_HAL_Driver/Inc/stm32g4xx_ll_usart.h **** 
1852:Drivers/STM32G4xx_HAL_Driver/Inc/stm32g4xx_ll_usart.h **** /**
1853:Drivers/STM32G4xx_HAL_Driver/Inc/stm32g4xx_ll_usart.h ****   * @brief  Configure USART BRR register for achieving expected Baud Rate value.
1854:Drivers/STM32G4xx_HAL_Driver/Inc/stm32g4xx_ll_usart.h ****   * @note   Compute and set USARTDIV value in BRR Register (full BRR content)
1855:Drivers/STM32G4xx_HAL_Driver/Inc/stm32g4xx_ll_usart.h ****   *         according to used Peripheral Clock, Oversampling mode, and expected Baud Rate values
1856:Drivers/STM32G4xx_HAL_Driver/Inc/stm32g4xx_ll_usart.h ****   * @note   Peripheral clock and Baud rate values provided as function parameters should be valid
1857:Drivers/STM32G4xx_HAL_Driver/Inc/stm32g4xx_ll_usart.h ****   *         (Baud rate value != 0)
1858:Drivers/STM32G4xx_HAL_Driver/Inc/stm32g4xx_ll_usart.h ****   * @note   In case of oversampling by 16 and 8, BRR content must be greater than or equal to 16d.
1859:Drivers/STM32G4xx_HAL_Driver/Inc/stm32g4xx_ll_usart.h ****   * @rmtoll BRR          BRR           LL_USART_SetBaudRate
1860:Drivers/STM32G4xx_HAL_Driver/Inc/stm32g4xx_ll_usart.h ****   * @param  USARTx USART Instance
1861:Drivers/STM32G4xx_HAL_Driver/Inc/stm32g4xx_ll_usart.h ****   * @param  PeriphClk Peripheral Clock
1862:Drivers/STM32G4xx_HAL_Driver/Inc/stm32g4xx_ll_usart.h ****   * @param  PrescalerValue This parameter can be one of the following values:
1863:Drivers/STM32G4xx_HAL_Driver/Inc/stm32g4xx_ll_usart.h ****   *         @arg @ref LL_USART_PRESCALER_DIV1
1864:Drivers/STM32G4xx_HAL_Driver/Inc/stm32g4xx_ll_usart.h ****   *         @arg @ref LL_USART_PRESCALER_DIV2
1865:Drivers/STM32G4xx_HAL_Driver/Inc/stm32g4xx_ll_usart.h ****   *         @arg @ref LL_USART_PRESCALER_DIV4
1866:Drivers/STM32G4xx_HAL_Driver/Inc/stm32g4xx_ll_usart.h ****   *         @arg @ref LL_USART_PRESCALER_DIV6
ARM GAS  /tmp/cc9n8VrH.s 			page 38


1867:Drivers/STM32G4xx_HAL_Driver/Inc/stm32g4xx_ll_usart.h ****   *         @arg @ref LL_USART_PRESCALER_DIV8
1868:Drivers/STM32G4xx_HAL_Driver/Inc/stm32g4xx_ll_usart.h ****   *         @arg @ref LL_USART_PRESCALER_DIV10
1869:Drivers/STM32G4xx_HAL_Driver/Inc/stm32g4xx_ll_usart.h ****   *         @arg @ref LL_USART_PRESCALER_DIV12
1870:Drivers/STM32G4xx_HAL_Driver/Inc/stm32g4xx_ll_usart.h ****   *         @arg @ref LL_USART_PRESCALER_DIV16
1871:Drivers/STM32G4xx_HAL_Driver/Inc/stm32g4xx_ll_usart.h ****   *         @arg @ref LL_USART_PRESCALER_DIV32
1872:Drivers/STM32G4xx_HAL_Driver/Inc/stm32g4xx_ll_usart.h ****   *         @arg @ref LL_USART_PRESCALER_DIV64
1873:Drivers/STM32G4xx_HAL_Driver/Inc/stm32g4xx_ll_usart.h ****   *         @arg @ref LL_USART_PRESCALER_DIV128
1874:Drivers/STM32G4xx_HAL_Driver/Inc/stm32g4xx_ll_usart.h ****   *         @arg @ref LL_USART_PRESCALER_DIV256
1875:Drivers/STM32G4xx_HAL_Driver/Inc/stm32g4xx_ll_usart.h ****   * @param  OverSampling This parameter can be one of the following values:
1876:Drivers/STM32G4xx_HAL_Driver/Inc/stm32g4xx_ll_usart.h ****   *         @arg @ref LL_USART_OVERSAMPLING_16
1877:Drivers/STM32G4xx_HAL_Driver/Inc/stm32g4xx_ll_usart.h ****   *         @arg @ref LL_USART_OVERSAMPLING_8
1878:Drivers/STM32G4xx_HAL_Driver/Inc/stm32g4xx_ll_usart.h ****   * @param  BaudRate Baud Rate
1879:Drivers/STM32G4xx_HAL_Driver/Inc/stm32g4xx_ll_usart.h ****   * @retval None
1880:Drivers/STM32G4xx_HAL_Driver/Inc/stm32g4xx_ll_usart.h ****   */
1881:Drivers/STM32G4xx_HAL_Driver/Inc/stm32g4xx_ll_usart.h **** __STATIC_INLINE void LL_USART_SetBaudRate(USART_TypeDef *USARTx, uint32_t PeriphClk, uint32_t Presc
1882:Drivers/STM32G4xx_HAL_Driver/Inc/stm32g4xx_ll_usart.h ****                                           uint32_t OverSampling,
1883:Drivers/STM32G4xx_HAL_Driver/Inc/stm32g4xx_ll_usart.h ****                                           uint32_t BaudRate)
1884:Drivers/STM32G4xx_HAL_Driver/Inc/stm32g4xx_ll_usart.h **** {
 255              		.loc 1 1884 1
 256              		.cfi_startproc
 257              		@ args = 4, pretend = 0, frame = 24
 258              		@ frame_needed = 1, uses_anonymous_args = 0
 259              		@ link register save eliminated.
 260 0000 80B4     		push	{r7}
 261              	.LCFI24:
 262              		.cfi_def_cfa_offset 4
 263              		.cfi_offset 7, -4
 264 0002 87B0     		sub	sp, sp, #28
 265              	.LCFI25:
 266              		.cfi_def_cfa_offset 32
 267 0004 00AF     		add	r7, sp, #0
 268              	.LCFI26:
 269              		.cfi_def_cfa_register 7
 270 0006 F860     		str	r0, [r7, #12]
 271 0008 B960     		str	r1, [r7, #8]
 272 000a 7A60     		str	r2, [r7, #4]
 273 000c 3B60     		str	r3, [r7]
1885:Drivers/STM32G4xx_HAL_Driver/Inc/stm32g4xx_ll_usart.h ****   uint32_t usartdiv;
1886:Drivers/STM32G4xx_HAL_Driver/Inc/stm32g4xx_ll_usart.h ****   uint32_t brrtemp;
1887:Drivers/STM32G4xx_HAL_Driver/Inc/stm32g4xx_ll_usart.h **** 
1888:Drivers/STM32G4xx_HAL_Driver/Inc/stm32g4xx_ll_usart.h ****   if (PrescalerValue > LL_USART_PRESCALER_DIV256)
 274              		.loc 1 1888 6
 275 000e 7B68     		ldr	r3, [r7, #4]
 276 0010 0B2B     		cmp	r3, #11
 277 0012 3CD8     		bhi	.L11
1889:Drivers/STM32G4xx_HAL_Driver/Inc/stm32g4xx_ll_usart.h ****   {
1890:Drivers/STM32G4xx_HAL_Driver/Inc/stm32g4xx_ll_usart.h ****     /* Do not overstep the size of USART_PRESCALER_TAB */
1891:Drivers/STM32G4xx_HAL_Driver/Inc/stm32g4xx_ll_usart.h ****   }
1892:Drivers/STM32G4xx_HAL_Driver/Inc/stm32g4xx_ll_usart.h ****   else if (BaudRate == 0U)
 278              		.loc 1 1892 11
 279 0014 3B6A     		ldr	r3, [r7, #32]
 280 0016 002B     		cmp	r3, #0
 281 0018 39D0     		beq	.L11
1893:Drivers/STM32G4xx_HAL_Driver/Inc/stm32g4xx_ll_usart.h ****   {
1894:Drivers/STM32G4xx_HAL_Driver/Inc/stm32g4xx_ll_usart.h ****     /* Can Not divide per 0 */
1895:Drivers/STM32G4xx_HAL_Driver/Inc/stm32g4xx_ll_usart.h ****   }
1896:Drivers/STM32G4xx_HAL_Driver/Inc/stm32g4xx_ll_usart.h ****   else if (OverSampling == LL_USART_OVERSAMPLING_8)
ARM GAS  /tmp/cc9n8VrH.s 			page 39


 282              		.loc 1 1896 11
 283 001a 3B68     		ldr	r3, [r7]
 284 001c B3F5004F 		cmp	r3, #32768
 285 0020 22D1     		bne	.L10
1897:Drivers/STM32G4xx_HAL_Driver/Inc/stm32g4xx_ll_usart.h ****   {
1898:Drivers/STM32G4xx_HAL_Driver/Inc/stm32g4xx_ll_usart.h ****     usartdiv = (uint16_t)(__LL_USART_DIV_SAMPLING8(PeriphClk, (uint8_t)PrescalerValue, BaudRate));
 286              		.loc 1 1898 27
 287 0022 7B68     		ldr	r3, [r7, #4]
 288 0024 DBB2     		uxtb	r3, r3
 289 0026 1A46     		mov	r2, r3
 290 0028 1C4B     		ldr	r3, .L12
 291 002a 53F82230 		ldr	r3, [r3, r2, lsl #2]
 292 002e BA68     		ldr	r2, [r7, #8]
 293 0030 B2FBF3F3 		udiv	r3, r2, r3
 294 0034 5A00     		lsls	r2, r3, #1
 295 0036 3B6A     		ldr	r3, [r7, #32]
 296 0038 5B08     		lsrs	r3, r3, #1
 297 003a 1A44     		add	r2, r2, r3
 298 003c 3B6A     		ldr	r3, [r7, #32]
 299 003e B2FBF3F3 		udiv	r3, r2, r3
 300              		.loc 1 1898 16
 301 0042 9BB2     		uxth	r3, r3
 302              		.loc 1 1898 14
 303 0044 7B61     		str	r3, [r7, #20]
1899:Drivers/STM32G4xx_HAL_Driver/Inc/stm32g4xx_ll_usart.h ****     brrtemp = usartdiv & 0xFFF0U;
 304              		.loc 1 1899 13
 305 0046 7A69     		ldr	r2, [r7, #20]
 306 0048 4FF6F073 		movw	r3, #65520
 307 004c 1340     		ands	r3, r3, r2
 308 004e 3B61     		str	r3, [r7, #16]
1900:Drivers/STM32G4xx_HAL_Driver/Inc/stm32g4xx_ll_usart.h ****     brrtemp |= (uint16_t)((usartdiv & (uint16_t)0x000FU) >> 1U);
 309              		.loc 1 1900 58
 310 0050 7B69     		ldr	r3, [r7, #20]
 311 0052 5B08     		lsrs	r3, r3, #1
 312              		.loc 1 1900 16
 313 0054 9BB2     		uxth	r3, r3
 314 0056 03F00703 		and	r3, r3, #7
 315              		.loc 1 1900 13
 316 005a 3A69     		ldr	r2, [r7, #16]
 317 005c 1343     		orrs	r3, r3, r2
 318 005e 3B61     		str	r3, [r7, #16]
1901:Drivers/STM32G4xx_HAL_Driver/Inc/stm32g4xx_ll_usart.h ****     USARTx->BRR = brrtemp;
 319              		.loc 1 1901 17
 320 0060 FB68     		ldr	r3, [r7, #12]
 321 0062 3A69     		ldr	r2, [r7, #16]
 322 0064 DA60     		str	r2, [r3, #12]
1902:Drivers/STM32G4xx_HAL_Driver/Inc/stm32g4xx_ll_usart.h ****   }
1903:Drivers/STM32G4xx_HAL_Driver/Inc/stm32g4xx_ll_usart.h ****   else
1904:Drivers/STM32G4xx_HAL_Driver/Inc/stm32g4xx_ll_usart.h ****   {
1905:Drivers/STM32G4xx_HAL_Driver/Inc/stm32g4xx_ll_usart.h ****     USARTx->BRR = (uint16_t)(__LL_USART_DIV_SAMPLING16(PeriphClk, (uint8_t)PrescalerValue, BaudRate
1906:Drivers/STM32G4xx_HAL_Driver/Inc/stm32g4xx_ll_usart.h ****   }
1907:Drivers/STM32G4xx_HAL_Driver/Inc/stm32g4xx_ll_usart.h **** }
 323              		.loc 1 1907 1
 324 0066 12E0     		b	.L11
 325              	.L10:
1905:Drivers/STM32G4xx_HAL_Driver/Inc/stm32g4xx_ll_usart.h ****   }
 326              		.loc 1 1905 30
ARM GAS  /tmp/cc9n8VrH.s 			page 40


 327 0068 7B68     		ldr	r3, [r7, #4]
 328 006a DBB2     		uxtb	r3, r3
 329 006c 1A46     		mov	r2, r3
 330 006e 0B4B     		ldr	r3, .L12
 331 0070 53F82230 		ldr	r3, [r3, r2, lsl #2]
 332 0074 BA68     		ldr	r2, [r7, #8]
 333 0076 B2FBF3F2 		udiv	r2, r2, r3
 334 007a 3B6A     		ldr	r3, [r7, #32]
 335 007c 5B08     		lsrs	r3, r3, #1
 336 007e 1A44     		add	r2, r2, r3
 337 0080 3B6A     		ldr	r3, [r7, #32]
 338 0082 B2FBF3F3 		udiv	r3, r2, r3
1905:Drivers/STM32G4xx_HAL_Driver/Inc/stm32g4xx_ll_usart.h ****   }
 339              		.loc 1 1905 19
 340 0086 9BB2     		uxth	r3, r3
 341 0088 1A46     		mov	r2, r3
1905:Drivers/STM32G4xx_HAL_Driver/Inc/stm32g4xx_ll_usart.h ****   }
 342              		.loc 1 1905 17
 343 008a FB68     		ldr	r3, [r7, #12]
 344 008c DA60     		str	r2, [r3, #12]
 345              	.L11:
 346              		.loc 1 1907 1
 347 008e 00BF     		nop
 348 0090 1C37     		adds	r7, r7, #28
 349              	.LCFI27:
 350              		.cfi_def_cfa_offset 4
 351 0092 BD46     		mov	sp, r7
 352              	.LCFI28:
 353              		.cfi_def_cfa_register 13
 354              		@ sp needed
 355 0094 5DF8047B 		ldr	r7, [sp], #4
 356              	.LCFI29:
 357              		.cfi_restore 7
 358              		.cfi_def_cfa_offset 0
 359 0098 7047     		bx	lr
 360              	.L13:
 361 009a 00BF     		.align	2
 362              	.L12:
 363 009c 00000000 		.word	USART_PRESCALER_TAB
 364              		.cfi_endproc
 365              	.LFE213:
 367              		.section	.text.LL_APB1_GRP1_ForceReset,"ax",%progbits
 368              		.align	1
 369              		.syntax unified
 370              		.thumb
 371              		.thumb_func
 372              		.fpu fpv4-sp-d16
 374              	LL_APB1_GRP1_ForceReset:
 375              	.LFB548:
 376              		.file 2 "Drivers/STM32G4xx_HAL_Driver/Inc/stm32g4xx_ll_bus.h"
   1:Drivers/STM32G4xx_HAL_Driver/Inc/stm32g4xx_ll_bus.h **** /**
   2:Drivers/STM32G4xx_HAL_Driver/Inc/stm32g4xx_ll_bus.h ****   ******************************************************************************
   3:Drivers/STM32G4xx_HAL_Driver/Inc/stm32g4xx_ll_bus.h ****   * @file    stm32g4xx_ll_bus.h
   4:Drivers/STM32G4xx_HAL_Driver/Inc/stm32g4xx_ll_bus.h ****   * @author  MCD Application Team
   5:Drivers/STM32G4xx_HAL_Driver/Inc/stm32g4xx_ll_bus.h ****   * @brief   Header file of BUS LL module.
   6:Drivers/STM32G4xx_HAL_Driver/Inc/stm32g4xx_ll_bus.h **** 
   7:Drivers/STM32G4xx_HAL_Driver/Inc/stm32g4xx_ll_bus.h ****   @verbatim
ARM GAS  /tmp/cc9n8VrH.s 			page 41


   8:Drivers/STM32G4xx_HAL_Driver/Inc/stm32g4xx_ll_bus.h ****                       ##### RCC Limitations #####
   9:Drivers/STM32G4xx_HAL_Driver/Inc/stm32g4xx_ll_bus.h ****   ==============================================================================
  10:Drivers/STM32G4xx_HAL_Driver/Inc/stm32g4xx_ll_bus.h ****     [..]
  11:Drivers/STM32G4xx_HAL_Driver/Inc/stm32g4xx_ll_bus.h ****       A delay between an RCC peripheral clock enable and the effective peripheral
  12:Drivers/STM32G4xx_HAL_Driver/Inc/stm32g4xx_ll_bus.h ****       enabling should be taken into account in order to manage the peripheral read/write
  13:Drivers/STM32G4xx_HAL_Driver/Inc/stm32g4xx_ll_bus.h ****       from/to registers.
  14:Drivers/STM32G4xx_HAL_Driver/Inc/stm32g4xx_ll_bus.h ****       (+) This delay depends on the peripheral mapping.
  15:Drivers/STM32G4xx_HAL_Driver/Inc/stm32g4xx_ll_bus.h ****         (++) AHB & APB peripherals, 1 dummy read is necessary
  16:Drivers/STM32G4xx_HAL_Driver/Inc/stm32g4xx_ll_bus.h **** 
  17:Drivers/STM32G4xx_HAL_Driver/Inc/stm32g4xx_ll_bus.h ****     [..]
  18:Drivers/STM32G4xx_HAL_Driver/Inc/stm32g4xx_ll_bus.h ****       Workarounds:
  19:Drivers/STM32G4xx_HAL_Driver/Inc/stm32g4xx_ll_bus.h ****       (#) For AHB & APB peripherals, a dummy read to the peripheral register has been
  20:Drivers/STM32G4xx_HAL_Driver/Inc/stm32g4xx_ll_bus.h ****           inserted in each LL_{BUS}_GRP{x}_EnableClock() function.
  21:Drivers/STM32G4xx_HAL_Driver/Inc/stm32g4xx_ll_bus.h **** 
  22:Drivers/STM32G4xx_HAL_Driver/Inc/stm32g4xx_ll_bus.h ****   @endverbatim
  23:Drivers/STM32G4xx_HAL_Driver/Inc/stm32g4xx_ll_bus.h ****   ******************************************************************************
  24:Drivers/STM32G4xx_HAL_Driver/Inc/stm32g4xx_ll_bus.h ****   * @attention
  25:Drivers/STM32G4xx_HAL_Driver/Inc/stm32g4xx_ll_bus.h ****   *
  26:Drivers/STM32G4xx_HAL_Driver/Inc/stm32g4xx_ll_bus.h ****   * Copyright (c) 2019 STMicroelectronics.
  27:Drivers/STM32G4xx_HAL_Driver/Inc/stm32g4xx_ll_bus.h ****   * All rights reserved.
  28:Drivers/STM32G4xx_HAL_Driver/Inc/stm32g4xx_ll_bus.h ****   *
  29:Drivers/STM32G4xx_HAL_Driver/Inc/stm32g4xx_ll_bus.h ****   * This software is licensed under terms that can be found in the LICENSE file in
  30:Drivers/STM32G4xx_HAL_Driver/Inc/stm32g4xx_ll_bus.h ****   * the root directory of this software component.
  31:Drivers/STM32G4xx_HAL_Driver/Inc/stm32g4xx_ll_bus.h ****   * If no LICENSE file comes with this software, it is provided AS-IS.
  32:Drivers/STM32G4xx_HAL_Driver/Inc/stm32g4xx_ll_bus.h ****   ******************************************************************************
  33:Drivers/STM32G4xx_HAL_Driver/Inc/stm32g4xx_ll_bus.h ****   */
  34:Drivers/STM32G4xx_HAL_Driver/Inc/stm32g4xx_ll_bus.h **** 
  35:Drivers/STM32G4xx_HAL_Driver/Inc/stm32g4xx_ll_bus.h **** /* Define to prevent recursive inclusion -------------------------------------*/
  36:Drivers/STM32G4xx_HAL_Driver/Inc/stm32g4xx_ll_bus.h **** #ifndef STM32G4xx_LL_BUS_H
  37:Drivers/STM32G4xx_HAL_Driver/Inc/stm32g4xx_ll_bus.h **** #define STM32G4xx_LL_BUS_H
  38:Drivers/STM32G4xx_HAL_Driver/Inc/stm32g4xx_ll_bus.h **** 
  39:Drivers/STM32G4xx_HAL_Driver/Inc/stm32g4xx_ll_bus.h **** #ifdef __cplusplus
  40:Drivers/STM32G4xx_HAL_Driver/Inc/stm32g4xx_ll_bus.h **** extern "C" {
  41:Drivers/STM32G4xx_HAL_Driver/Inc/stm32g4xx_ll_bus.h **** #endif
  42:Drivers/STM32G4xx_HAL_Driver/Inc/stm32g4xx_ll_bus.h **** 
  43:Drivers/STM32G4xx_HAL_Driver/Inc/stm32g4xx_ll_bus.h **** /* Includes ------------------------------------------------------------------*/
  44:Drivers/STM32G4xx_HAL_Driver/Inc/stm32g4xx_ll_bus.h **** #include "stm32g4xx.h"
  45:Drivers/STM32G4xx_HAL_Driver/Inc/stm32g4xx_ll_bus.h **** 
  46:Drivers/STM32G4xx_HAL_Driver/Inc/stm32g4xx_ll_bus.h **** /** @addtogroup STM32G4xx_LL_Driver
  47:Drivers/STM32G4xx_HAL_Driver/Inc/stm32g4xx_ll_bus.h ****   * @{
  48:Drivers/STM32G4xx_HAL_Driver/Inc/stm32g4xx_ll_bus.h ****   */
  49:Drivers/STM32G4xx_HAL_Driver/Inc/stm32g4xx_ll_bus.h **** 
  50:Drivers/STM32G4xx_HAL_Driver/Inc/stm32g4xx_ll_bus.h **** #if defined(RCC)
  51:Drivers/STM32G4xx_HAL_Driver/Inc/stm32g4xx_ll_bus.h **** 
  52:Drivers/STM32G4xx_HAL_Driver/Inc/stm32g4xx_ll_bus.h **** /** @defgroup BUS_LL BUS
  53:Drivers/STM32G4xx_HAL_Driver/Inc/stm32g4xx_ll_bus.h ****   * @{
  54:Drivers/STM32G4xx_HAL_Driver/Inc/stm32g4xx_ll_bus.h ****   */
  55:Drivers/STM32G4xx_HAL_Driver/Inc/stm32g4xx_ll_bus.h **** 
  56:Drivers/STM32G4xx_HAL_Driver/Inc/stm32g4xx_ll_bus.h **** /* Private types -------------------------------------------------------------*/
  57:Drivers/STM32G4xx_HAL_Driver/Inc/stm32g4xx_ll_bus.h **** /* Private variables ---------------------------------------------------------*/
  58:Drivers/STM32G4xx_HAL_Driver/Inc/stm32g4xx_ll_bus.h **** 
  59:Drivers/STM32G4xx_HAL_Driver/Inc/stm32g4xx_ll_bus.h **** /* Private constants ---------------------------------------------------------*/
  60:Drivers/STM32G4xx_HAL_Driver/Inc/stm32g4xx_ll_bus.h **** 
  61:Drivers/STM32G4xx_HAL_Driver/Inc/stm32g4xx_ll_bus.h **** /* Private macros ------------------------------------------------------------*/
  62:Drivers/STM32G4xx_HAL_Driver/Inc/stm32g4xx_ll_bus.h **** 
  63:Drivers/STM32G4xx_HAL_Driver/Inc/stm32g4xx_ll_bus.h **** /* Exported types ------------------------------------------------------------*/
  64:Drivers/STM32G4xx_HAL_Driver/Inc/stm32g4xx_ll_bus.h **** /* Exported constants --------------------------------------------------------*/
ARM GAS  /tmp/cc9n8VrH.s 			page 42


  65:Drivers/STM32G4xx_HAL_Driver/Inc/stm32g4xx_ll_bus.h **** /** @defgroup BUS_LL_Exported_Constants BUS Exported Constants
  66:Drivers/STM32G4xx_HAL_Driver/Inc/stm32g4xx_ll_bus.h ****   * @{
  67:Drivers/STM32G4xx_HAL_Driver/Inc/stm32g4xx_ll_bus.h ****   */
  68:Drivers/STM32G4xx_HAL_Driver/Inc/stm32g4xx_ll_bus.h **** 
  69:Drivers/STM32G4xx_HAL_Driver/Inc/stm32g4xx_ll_bus.h **** /** @defgroup BUS_LL_EC_AHB1_GRP1_PERIPH  AHB1 GRP1 PERIPH
  70:Drivers/STM32G4xx_HAL_Driver/Inc/stm32g4xx_ll_bus.h ****   * @{
  71:Drivers/STM32G4xx_HAL_Driver/Inc/stm32g4xx_ll_bus.h ****   */
  72:Drivers/STM32G4xx_HAL_Driver/Inc/stm32g4xx_ll_bus.h **** #define LL_AHB1_GRP1_PERIPH_ALL            0xFFFFFFFFU
  73:Drivers/STM32G4xx_HAL_Driver/Inc/stm32g4xx_ll_bus.h **** #define LL_AHB1_GRP1_PERIPH_DMA1           RCC_AHB1ENR_DMA1EN
  74:Drivers/STM32G4xx_HAL_Driver/Inc/stm32g4xx_ll_bus.h **** #define LL_AHB1_GRP1_PERIPH_DMA2           RCC_AHB1ENR_DMA2EN
  75:Drivers/STM32G4xx_HAL_Driver/Inc/stm32g4xx_ll_bus.h **** #define LL_AHB1_GRP1_PERIPH_DMAMUX1        RCC_AHB1ENR_DMAMUX1EN
  76:Drivers/STM32G4xx_HAL_Driver/Inc/stm32g4xx_ll_bus.h **** #define LL_AHB1_GRP1_PERIPH_CORDIC         RCC_AHB1ENR_CORDICEN
  77:Drivers/STM32G4xx_HAL_Driver/Inc/stm32g4xx_ll_bus.h **** #define LL_AHB1_GRP1_PERIPH_FMAC           RCC_AHB1ENR_FMACEN
  78:Drivers/STM32G4xx_HAL_Driver/Inc/stm32g4xx_ll_bus.h **** #define LL_AHB1_GRP1_PERIPH_FLASH          RCC_AHB1ENR_FLASHEN
  79:Drivers/STM32G4xx_HAL_Driver/Inc/stm32g4xx_ll_bus.h **** #define LL_AHB1_GRP1_PERIPH_SRAM1          RCC_AHB1SMENR_SRAM1SMEN
  80:Drivers/STM32G4xx_HAL_Driver/Inc/stm32g4xx_ll_bus.h **** #define LL_AHB1_GRP1_PERIPH_CRC            RCC_AHB1ENR_CRCEN
  81:Drivers/STM32G4xx_HAL_Driver/Inc/stm32g4xx_ll_bus.h **** /**
  82:Drivers/STM32G4xx_HAL_Driver/Inc/stm32g4xx_ll_bus.h ****   * @}
  83:Drivers/STM32G4xx_HAL_Driver/Inc/stm32g4xx_ll_bus.h ****   */
  84:Drivers/STM32G4xx_HAL_Driver/Inc/stm32g4xx_ll_bus.h **** 
  85:Drivers/STM32G4xx_HAL_Driver/Inc/stm32g4xx_ll_bus.h **** /** @defgroup BUS_LL_EC_AHB2_GRP1_PERIPH  AHB2 GRP1 PERIPH
  86:Drivers/STM32G4xx_HAL_Driver/Inc/stm32g4xx_ll_bus.h ****   * @{
  87:Drivers/STM32G4xx_HAL_Driver/Inc/stm32g4xx_ll_bus.h ****   */
  88:Drivers/STM32G4xx_HAL_Driver/Inc/stm32g4xx_ll_bus.h **** #define LL_AHB2_GRP1_PERIPH_ALL            0xFFFFFFFFU
  89:Drivers/STM32G4xx_HAL_Driver/Inc/stm32g4xx_ll_bus.h **** #define LL_AHB2_GRP1_PERIPH_GPIOA          RCC_AHB2ENR_GPIOAEN
  90:Drivers/STM32G4xx_HAL_Driver/Inc/stm32g4xx_ll_bus.h **** #define LL_AHB2_GRP1_PERIPH_GPIOB          RCC_AHB2ENR_GPIOBEN
  91:Drivers/STM32G4xx_HAL_Driver/Inc/stm32g4xx_ll_bus.h **** #define LL_AHB2_GRP1_PERIPH_GPIOC          RCC_AHB2ENR_GPIOCEN
  92:Drivers/STM32G4xx_HAL_Driver/Inc/stm32g4xx_ll_bus.h **** #define LL_AHB2_GRP1_PERIPH_GPIOD          RCC_AHB2ENR_GPIODEN
  93:Drivers/STM32G4xx_HAL_Driver/Inc/stm32g4xx_ll_bus.h **** #define LL_AHB2_GRP1_PERIPH_GPIOE          RCC_AHB2ENR_GPIOEEN
  94:Drivers/STM32G4xx_HAL_Driver/Inc/stm32g4xx_ll_bus.h **** #define LL_AHB2_GRP1_PERIPH_GPIOF          RCC_AHB2ENR_GPIOFEN
  95:Drivers/STM32G4xx_HAL_Driver/Inc/stm32g4xx_ll_bus.h **** #define LL_AHB2_GRP1_PERIPH_GPIOG          RCC_AHB2ENR_GPIOGEN
  96:Drivers/STM32G4xx_HAL_Driver/Inc/stm32g4xx_ll_bus.h **** #define LL_AHB2_GRP1_PERIPH_CCM            RCC_AHB2SMENR_CCMSMEN
  97:Drivers/STM32G4xx_HAL_Driver/Inc/stm32g4xx_ll_bus.h **** #define LL_AHB2_GRP1_PERIPH_SRAM2          RCC_AHB2SMENR_SRAM2SMEN
  98:Drivers/STM32G4xx_HAL_Driver/Inc/stm32g4xx_ll_bus.h **** #define LL_AHB2_GRP1_PERIPH_ADC12          RCC_AHB2ENR_ADC12EN
  99:Drivers/STM32G4xx_HAL_Driver/Inc/stm32g4xx_ll_bus.h **** #if defined(ADC345_COMMON)
 100:Drivers/STM32G4xx_HAL_Driver/Inc/stm32g4xx_ll_bus.h **** #define LL_AHB2_GRP1_PERIPH_ADC345         RCC_AHB2ENR_ADC345EN
 101:Drivers/STM32G4xx_HAL_Driver/Inc/stm32g4xx_ll_bus.h **** #endif /* ADC345_COMMON */
 102:Drivers/STM32G4xx_HAL_Driver/Inc/stm32g4xx_ll_bus.h **** #define LL_AHB2_GRP1_PERIPH_DAC1           RCC_AHB2ENR_DAC1EN
 103:Drivers/STM32G4xx_HAL_Driver/Inc/stm32g4xx_ll_bus.h **** #if defined(DAC2)
 104:Drivers/STM32G4xx_HAL_Driver/Inc/stm32g4xx_ll_bus.h **** #define LL_AHB2_GRP1_PERIPH_DAC2           RCC_AHB2ENR_DAC2EN
 105:Drivers/STM32G4xx_HAL_Driver/Inc/stm32g4xx_ll_bus.h **** #endif /* DAC2 */
 106:Drivers/STM32G4xx_HAL_Driver/Inc/stm32g4xx_ll_bus.h **** #define LL_AHB2_GRP1_PERIPH_DAC3           RCC_AHB2ENR_DAC3EN
 107:Drivers/STM32G4xx_HAL_Driver/Inc/stm32g4xx_ll_bus.h **** #if defined(DAC4)
 108:Drivers/STM32G4xx_HAL_Driver/Inc/stm32g4xx_ll_bus.h **** #define LL_AHB2_GRP1_PERIPH_DAC4           RCC_AHB2ENR_DAC4EN
 109:Drivers/STM32G4xx_HAL_Driver/Inc/stm32g4xx_ll_bus.h **** #endif /* DAC4 */
 110:Drivers/STM32G4xx_HAL_Driver/Inc/stm32g4xx_ll_bus.h **** #if defined(AES)
 111:Drivers/STM32G4xx_HAL_Driver/Inc/stm32g4xx_ll_bus.h **** #define LL_AHB2_GRP1_PERIPH_AES            RCC_AHB2ENR_AESEN
 112:Drivers/STM32G4xx_HAL_Driver/Inc/stm32g4xx_ll_bus.h **** #endif /* AES */
 113:Drivers/STM32G4xx_HAL_Driver/Inc/stm32g4xx_ll_bus.h **** #define LL_AHB2_GRP1_PERIPH_RNG            RCC_AHB2ENR_RNGEN
 114:Drivers/STM32G4xx_HAL_Driver/Inc/stm32g4xx_ll_bus.h **** /**
 115:Drivers/STM32G4xx_HAL_Driver/Inc/stm32g4xx_ll_bus.h ****   * @}
 116:Drivers/STM32G4xx_HAL_Driver/Inc/stm32g4xx_ll_bus.h ****   */
 117:Drivers/STM32G4xx_HAL_Driver/Inc/stm32g4xx_ll_bus.h **** 
 118:Drivers/STM32G4xx_HAL_Driver/Inc/stm32g4xx_ll_bus.h **** /** @defgroup BUS_LL_EC_AHB3_GRP1_PERIPH  AHB3 GRP1 PERIPH
 119:Drivers/STM32G4xx_HAL_Driver/Inc/stm32g4xx_ll_bus.h ****   * @{
 120:Drivers/STM32G4xx_HAL_Driver/Inc/stm32g4xx_ll_bus.h ****   */
 121:Drivers/STM32G4xx_HAL_Driver/Inc/stm32g4xx_ll_bus.h **** #define LL_AHB3_GRP1_PERIPH_ALL            0xFFFFFFFFU
ARM GAS  /tmp/cc9n8VrH.s 			page 43


 122:Drivers/STM32G4xx_HAL_Driver/Inc/stm32g4xx_ll_bus.h **** #if defined(FMC_Bank1_R)
 123:Drivers/STM32G4xx_HAL_Driver/Inc/stm32g4xx_ll_bus.h **** #define LL_AHB3_GRP1_PERIPH_FMC            RCC_AHB3ENR_FMCEN
 124:Drivers/STM32G4xx_HAL_Driver/Inc/stm32g4xx_ll_bus.h **** #endif /* FMC_Bank1_R */
 125:Drivers/STM32G4xx_HAL_Driver/Inc/stm32g4xx_ll_bus.h **** #if defined(QUADSPI)
 126:Drivers/STM32G4xx_HAL_Driver/Inc/stm32g4xx_ll_bus.h **** #define LL_AHB3_GRP1_PERIPH_QSPI           RCC_AHB3ENR_QSPIEN
 127:Drivers/STM32G4xx_HAL_Driver/Inc/stm32g4xx_ll_bus.h **** #endif /* QUADSPI */
 128:Drivers/STM32G4xx_HAL_Driver/Inc/stm32g4xx_ll_bus.h **** /**
 129:Drivers/STM32G4xx_HAL_Driver/Inc/stm32g4xx_ll_bus.h ****   * @}
 130:Drivers/STM32G4xx_HAL_Driver/Inc/stm32g4xx_ll_bus.h ****   */
 131:Drivers/STM32G4xx_HAL_Driver/Inc/stm32g4xx_ll_bus.h **** 
 132:Drivers/STM32G4xx_HAL_Driver/Inc/stm32g4xx_ll_bus.h **** /** @defgroup BUS_LL_EC_APB1_GRP1_PERIPH  APB1 GRP1 PERIPH
 133:Drivers/STM32G4xx_HAL_Driver/Inc/stm32g4xx_ll_bus.h ****   * @{
 134:Drivers/STM32G4xx_HAL_Driver/Inc/stm32g4xx_ll_bus.h ****   */
 135:Drivers/STM32G4xx_HAL_Driver/Inc/stm32g4xx_ll_bus.h **** #define LL_APB1_GRP1_PERIPH_ALL            0xFFFFFFFFU
 136:Drivers/STM32G4xx_HAL_Driver/Inc/stm32g4xx_ll_bus.h **** #define LL_APB1_GRP1_PERIPH_TIM2           RCC_APB1ENR1_TIM2EN
 137:Drivers/STM32G4xx_HAL_Driver/Inc/stm32g4xx_ll_bus.h **** #define LL_APB1_GRP1_PERIPH_TIM3           RCC_APB1ENR1_TIM3EN
 138:Drivers/STM32G4xx_HAL_Driver/Inc/stm32g4xx_ll_bus.h **** #define LL_APB1_GRP1_PERIPH_TIM4           RCC_APB1ENR1_TIM4EN
 139:Drivers/STM32G4xx_HAL_Driver/Inc/stm32g4xx_ll_bus.h **** #if defined(TIM5)
 140:Drivers/STM32G4xx_HAL_Driver/Inc/stm32g4xx_ll_bus.h **** #define LL_APB1_GRP1_PERIPH_TIM5           RCC_APB1ENR1_TIM5EN
 141:Drivers/STM32G4xx_HAL_Driver/Inc/stm32g4xx_ll_bus.h **** #endif /* TIM5 */
 142:Drivers/STM32G4xx_HAL_Driver/Inc/stm32g4xx_ll_bus.h **** #define LL_APB1_GRP1_PERIPH_TIM6           RCC_APB1ENR1_TIM6EN
 143:Drivers/STM32G4xx_HAL_Driver/Inc/stm32g4xx_ll_bus.h **** #define LL_APB1_GRP1_PERIPH_TIM7           RCC_APB1ENR1_TIM7EN
 144:Drivers/STM32G4xx_HAL_Driver/Inc/stm32g4xx_ll_bus.h **** #define LL_APB1_GRP1_PERIPH_CRS            RCC_APB1ENR1_CRSEN
 145:Drivers/STM32G4xx_HAL_Driver/Inc/stm32g4xx_ll_bus.h **** #define LL_APB1_GRP1_PERIPH_RTCAPB         RCC_APB1ENR1_RTCAPBEN
 146:Drivers/STM32G4xx_HAL_Driver/Inc/stm32g4xx_ll_bus.h **** #define LL_APB1_GRP1_PERIPH_WWDG           RCC_APB1ENR1_WWDGEN
 147:Drivers/STM32G4xx_HAL_Driver/Inc/stm32g4xx_ll_bus.h **** #define LL_APB1_GRP1_PERIPH_SPI2           RCC_APB1ENR1_SPI2EN
 148:Drivers/STM32G4xx_HAL_Driver/Inc/stm32g4xx_ll_bus.h **** #define LL_APB1_GRP1_PERIPH_SPI3           RCC_APB1ENR1_SPI3EN
 149:Drivers/STM32G4xx_HAL_Driver/Inc/stm32g4xx_ll_bus.h **** #define LL_APB1_GRP1_PERIPH_USART2         RCC_APB1ENR1_USART2EN
 150:Drivers/STM32G4xx_HAL_Driver/Inc/stm32g4xx_ll_bus.h **** #define LL_APB1_GRP1_PERIPH_USART3         RCC_APB1ENR1_USART3EN
 151:Drivers/STM32G4xx_HAL_Driver/Inc/stm32g4xx_ll_bus.h **** #if defined(UART4)
 152:Drivers/STM32G4xx_HAL_Driver/Inc/stm32g4xx_ll_bus.h **** #define LL_APB1_GRP1_PERIPH_UART4          RCC_APB1ENR1_UART4EN
 153:Drivers/STM32G4xx_HAL_Driver/Inc/stm32g4xx_ll_bus.h **** #endif /* UART4 */
 154:Drivers/STM32G4xx_HAL_Driver/Inc/stm32g4xx_ll_bus.h **** #if defined(UART5)
 155:Drivers/STM32G4xx_HAL_Driver/Inc/stm32g4xx_ll_bus.h **** #define LL_APB1_GRP1_PERIPH_UART5          RCC_APB1ENR1_UART5EN
 156:Drivers/STM32G4xx_HAL_Driver/Inc/stm32g4xx_ll_bus.h **** #endif /* UART5 */
 157:Drivers/STM32G4xx_HAL_Driver/Inc/stm32g4xx_ll_bus.h **** #define LL_APB1_GRP1_PERIPH_I2C1           RCC_APB1ENR1_I2C1EN
 158:Drivers/STM32G4xx_HAL_Driver/Inc/stm32g4xx_ll_bus.h **** #define LL_APB1_GRP1_PERIPH_I2C2           RCC_APB1ENR1_I2C2EN
 159:Drivers/STM32G4xx_HAL_Driver/Inc/stm32g4xx_ll_bus.h **** #define LL_APB1_GRP1_PERIPH_USB            RCC_APB1ENR1_USBEN
 160:Drivers/STM32G4xx_HAL_Driver/Inc/stm32g4xx_ll_bus.h **** #if defined(FDCAN1)
 161:Drivers/STM32G4xx_HAL_Driver/Inc/stm32g4xx_ll_bus.h **** #define LL_APB1_GRP1_PERIPH_FDCAN          RCC_APB1ENR1_FDCANEN
 162:Drivers/STM32G4xx_HAL_Driver/Inc/stm32g4xx_ll_bus.h **** #endif /* FDCAN1 */
 163:Drivers/STM32G4xx_HAL_Driver/Inc/stm32g4xx_ll_bus.h **** #define LL_APB1_GRP1_PERIPH_PWR            RCC_APB1ENR1_PWREN
 164:Drivers/STM32G4xx_HAL_Driver/Inc/stm32g4xx_ll_bus.h **** #define LL_APB1_GRP1_PERIPH_I2C3           RCC_APB1ENR1_I2C3EN
 165:Drivers/STM32G4xx_HAL_Driver/Inc/stm32g4xx_ll_bus.h **** #define LL_APB1_GRP1_PERIPH_LPTIM1         RCC_APB1ENR1_LPTIM1EN
 166:Drivers/STM32G4xx_HAL_Driver/Inc/stm32g4xx_ll_bus.h **** /**
 167:Drivers/STM32G4xx_HAL_Driver/Inc/stm32g4xx_ll_bus.h ****   * @}
 168:Drivers/STM32G4xx_HAL_Driver/Inc/stm32g4xx_ll_bus.h ****   */
 169:Drivers/STM32G4xx_HAL_Driver/Inc/stm32g4xx_ll_bus.h **** 
 170:Drivers/STM32G4xx_HAL_Driver/Inc/stm32g4xx_ll_bus.h **** 
 171:Drivers/STM32G4xx_HAL_Driver/Inc/stm32g4xx_ll_bus.h **** /** @defgroup BUS_LL_EC_APB1_GRP2_PERIPH  APB1 GRP2 PERIPH
 172:Drivers/STM32G4xx_HAL_Driver/Inc/stm32g4xx_ll_bus.h ****   * @{
 173:Drivers/STM32G4xx_HAL_Driver/Inc/stm32g4xx_ll_bus.h ****   */
 174:Drivers/STM32G4xx_HAL_Driver/Inc/stm32g4xx_ll_bus.h **** #define LL_APB1_GRP2_PERIPH_ALL            0xFFFFFFFFU
 175:Drivers/STM32G4xx_HAL_Driver/Inc/stm32g4xx_ll_bus.h **** #define LL_APB1_GRP2_PERIPH_LPUART1        RCC_APB1ENR2_LPUART1EN
 176:Drivers/STM32G4xx_HAL_Driver/Inc/stm32g4xx_ll_bus.h **** #if defined(I2C4)
 177:Drivers/STM32G4xx_HAL_Driver/Inc/stm32g4xx_ll_bus.h **** #define LL_APB1_GRP2_PERIPH_I2C4           RCC_APB1ENR2_I2C4EN
 178:Drivers/STM32G4xx_HAL_Driver/Inc/stm32g4xx_ll_bus.h **** #endif /* I2C4 */
ARM GAS  /tmp/cc9n8VrH.s 			page 44


 179:Drivers/STM32G4xx_HAL_Driver/Inc/stm32g4xx_ll_bus.h **** #define LL_APB1_GRP2_PERIPH_UCPD1         RCC_APB1ENR2_UCPD1EN
 180:Drivers/STM32G4xx_HAL_Driver/Inc/stm32g4xx_ll_bus.h **** /**
 181:Drivers/STM32G4xx_HAL_Driver/Inc/stm32g4xx_ll_bus.h ****   * @}
 182:Drivers/STM32G4xx_HAL_Driver/Inc/stm32g4xx_ll_bus.h ****   */
 183:Drivers/STM32G4xx_HAL_Driver/Inc/stm32g4xx_ll_bus.h **** 
 184:Drivers/STM32G4xx_HAL_Driver/Inc/stm32g4xx_ll_bus.h **** /** @defgroup BUS_LL_EC_APB2_GRP1_PERIPH  APB2 GRP1 PERIPH
 185:Drivers/STM32G4xx_HAL_Driver/Inc/stm32g4xx_ll_bus.h ****   * @{
 186:Drivers/STM32G4xx_HAL_Driver/Inc/stm32g4xx_ll_bus.h ****   */
 187:Drivers/STM32G4xx_HAL_Driver/Inc/stm32g4xx_ll_bus.h **** #define LL_APB2_GRP1_PERIPH_ALL            0xFFFFFFFFU
 188:Drivers/STM32G4xx_HAL_Driver/Inc/stm32g4xx_ll_bus.h **** #define LL_APB2_GRP1_PERIPH_SYSCFG         RCC_APB2ENR_SYSCFGEN
 189:Drivers/STM32G4xx_HAL_Driver/Inc/stm32g4xx_ll_bus.h **** #define LL_APB2_GRP1_PERIPH_TIM1           RCC_APB2ENR_TIM1EN
 190:Drivers/STM32G4xx_HAL_Driver/Inc/stm32g4xx_ll_bus.h **** #define LL_APB2_GRP1_PERIPH_SPI1           RCC_APB2ENR_SPI1EN
 191:Drivers/STM32G4xx_HAL_Driver/Inc/stm32g4xx_ll_bus.h **** #define LL_APB2_GRP1_PERIPH_TIM8           RCC_APB2ENR_TIM8EN
 192:Drivers/STM32G4xx_HAL_Driver/Inc/stm32g4xx_ll_bus.h **** #define LL_APB2_GRP1_PERIPH_USART1         RCC_APB2ENR_USART1EN
 193:Drivers/STM32G4xx_HAL_Driver/Inc/stm32g4xx_ll_bus.h **** #if defined(SPI4)
 194:Drivers/STM32G4xx_HAL_Driver/Inc/stm32g4xx_ll_bus.h **** #define LL_APB2_GRP1_PERIPH_SPI4           RCC_APB2ENR_SPI4EN
 195:Drivers/STM32G4xx_HAL_Driver/Inc/stm32g4xx_ll_bus.h **** #endif /* SPI4 */
 196:Drivers/STM32G4xx_HAL_Driver/Inc/stm32g4xx_ll_bus.h **** #define LL_APB2_GRP1_PERIPH_TIM15          RCC_APB2ENR_TIM15EN
 197:Drivers/STM32G4xx_HAL_Driver/Inc/stm32g4xx_ll_bus.h **** #define LL_APB2_GRP1_PERIPH_TIM16          RCC_APB2ENR_TIM16EN
 198:Drivers/STM32G4xx_HAL_Driver/Inc/stm32g4xx_ll_bus.h **** #define LL_APB2_GRP1_PERIPH_TIM17          RCC_APB2ENR_TIM17EN
 199:Drivers/STM32G4xx_HAL_Driver/Inc/stm32g4xx_ll_bus.h **** #if defined(TIM20)
 200:Drivers/STM32G4xx_HAL_Driver/Inc/stm32g4xx_ll_bus.h **** #define LL_APB2_GRP1_PERIPH_TIM20          RCC_APB2ENR_TIM20EN
 201:Drivers/STM32G4xx_HAL_Driver/Inc/stm32g4xx_ll_bus.h **** #endif /* TIM20 */
 202:Drivers/STM32G4xx_HAL_Driver/Inc/stm32g4xx_ll_bus.h **** #define LL_APB2_GRP1_PERIPH_SAI1           RCC_APB2ENR_SAI1EN
 203:Drivers/STM32G4xx_HAL_Driver/Inc/stm32g4xx_ll_bus.h **** #if defined(HRTIM1)
 204:Drivers/STM32G4xx_HAL_Driver/Inc/stm32g4xx_ll_bus.h **** #define LL_APB2_GRP1_PERIPH_HRTIM1         RCC_APB2ENR_HRTIM1EN
 205:Drivers/STM32G4xx_HAL_Driver/Inc/stm32g4xx_ll_bus.h **** #endif /* HRTIM1 */
 206:Drivers/STM32G4xx_HAL_Driver/Inc/stm32g4xx_ll_bus.h **** /**
 207:Drivers/STM32G4xx_HAL_Driver/Inc/stm32g4xx_ll_bus.h ****   * @}
 208:Drivers/STM32G4xx_HAL_Driver/Inc/stm32g4xx_ll_bus.h ****   */
 209:Drivers/STM32G4xx_HAL_Driver/Inc/stm32g4xx_ll_bus.h **** 
 210:Drivers/STM32G4xx_HAL_Driver/Inc/stm32g4xx_ll_bus.h **** /**
 211:Drivers/STM32G4xx_HAL_Driver/Inc/stm32g4xx_ll_bus.h ****   * @}
 212:Drivers/STM32G4xx_HAL_Driver/Inc/stm32g4xx_ll_bus.h ****   */
 213:Drivers/STM32G4xx_HAL_Driver/Inc/stm32g4xx_ll_bus.h **** 
 214:Drivers/STM32G4xx_HAL_Driver/Inc/stm32g4xx_ll_bus.h **** /* Exported macro ------------------------------------------------------------*/
 215:Drivers/STM32G4xx_HAL_Driver/Inc/stm32g4xx_ll_bus.h **** /* Exported functions --------------------------------------------------------*/
 216:Drivers/STM32G4xx_HAL_Driver/Inc/stm32g4xx_ll_bus.h **** /** @defgroup BUS_LL_Exported_Functions BUS Exported Functions
 217:Drivers/STM32G4xx_HAL_Driver/Inc/stm32g4xx_ll_bus.h ****   * @{
 218:Drivers/STM32G4xx_HAL_Driver/Inc/stm32g4xx_ll_bus.h ****   */
 219:Drivers/STM32G4xx_HAL_Driver/Inc/stm32g4xx_ll_bus.h **** 
 220:Drivers/STM32G4xx_HAL_Driver/Inc/stm32g4xx_ll_bus.h **** /** @defgroup BUS_LL_EF_AHB1 AHB1
 221:Drivers/STM32G4xx_HAL_Driver/Inc/stm32g4xx_ll_bus.h ****   * @{
 222:Drivers/STM32G4xx_HAL_Driver/Inc/stm32g4xx_ll_bus.h ****   */
 223:Drivers/STM32G4xx_HAL_Driver/Inc/stm32g4xx_ll_bus.h **** 
 224:Drivers/STM32G4xx_HAL_Driver/Inc/stm32g4xx_ll_bus.h **** /**
 225:Drivers/STM32G4xx_HAL_Driver/Inc/stm32g4xx_ll_bus.h ****   * @brief  Enable AHB1 peripherals clock.
 226:Drivers/STM32G4xx_HAL_Driver/Inc/stm32g4xx_ll_bus.h ****   * @rmtoll AHB1ENR      DMA1EN        LL_AHB1_GRP1_EnableClock\n
 227:Drivers/STM32G4xx_HAL_Driver/Inc/stm32g4xx_ll_bus.h ****   *         AHB1ENR      DMA2EN        LL_AHB1_GRP1_EnableClock\n
 228:Drivers/STM32G4xx_HAL_Driver/Inc/stm32g4xx_ll_bus.h ****   *         AHB1ENR      DMAMMUXEN     LL_AHB1_GRP1_EnableClock\n
 229:Drivers/STM32G4xx_HAL_Driver/Inc/stm32g4xx_ll_bus.h ****   *         AHB1ENR      CORDICEN      LL_AHB1_GRP1_EnableClock\n
 230:Drivers/STM32G4xx_HAL_Driver/Inc/stm32g4xx_ll_bus.h ****   *         AHB1ENR      FMACEN        LL_AHB1_GRP1_EnableClock\n
 231:Drivers/STM32G4xx_HAL_Driver/Inc/stm32g4xx_ll_bus.h ****   *         AHB1ENR      FLASHEN       LL_AHB1_GRP1_EnableClock\n
 232:Drivers/STM32G4xx_HAL_Driver/Inc/stm32g4xx_ll_bus.h ****   *         AHB1ENR      CRCEN         LL_AHB1_GRP1_EnableClock
 233:Drivers/STM32G4xx_HAL_Driver/Inc/stm32g4xx_ll_bus.h ****   * @param  Periphs This parameter can be a combination of the following values:
 234:Drivers/STM32G4xx_HAL_Driver/Inc/stm32g4xx_ll_bus.h ****   *         @arg @ref LL_AHB1_GRP1_PERIPH_DMA1
 235:Drivers/STM32G4xx_HAL_Driver/Inc/stm32g4xx_ll_bus.h ****   *         @arg @ref LL_AHB1_GRP1_PERIPH_DMA2
ARM GAS  /tmp/cc9n8VrH.s 			page 45


 236:Drivers/STM32G4xx_HAL_Driver/Inc/stm32g4xx_ll_bus.h ****   *         @arg @ref LL_AHB1_GRP1_PERIPH_DMAMUX1
 237:Drivers/STM32G4xx_HAL_Driver/Inc/stm32g4xx_ll_bus.h ****   *         @arg @ref LL_AHB1_GRP1_PERIPH_CORDIC
 238:Drivers/STM32G4xx_HAL_Driver/Inc/stm32g4xx_ll_bus.h ****   *         @arg @ref LL_AHB1_GRP1_PERIPH_FMAC
 239:Drivers/STM32G4xx_HAL_Driver/Inc/stm32g4xx_ll_bus.h ****   *         @arg @ref LL_AHB1_GRP1_PERIPH_FLASH
 240:Drivers/STM32G4xx_HAL_Driver/Inc/stm32g4xx_ll_bus.h ****   *         @arg @ref LL_AHB1_GRP1_PERIPH_CRC
 241:Drivers/STM32G4xx_HAL_Driver/Inc/stm32g4xx_ll_bus.h ****   * @retval None
 242:Drivers/STM32G4xx_HAL_Driver/Inc/stm32g4xx_ll_bus.h ****   */
 243:Drivers/STM32G4xx_HAL_Driver/Inc/stm32g4xx_ll_bus.h **** __STATIC_INLINE void LL_AHB1_GRP1_EnableClock(uint32_t Periphs)
 244:Drivers/STM32G4xx_HAL_Driver/Inc/stm32g4xx_ll_bus.h **** {
 245:Drivers/STM32G4xx_HAL_Driver/Inc/stm32g4xx_ll_bus.h ****   __IO uint32_t tmpreg;
 246:Drivers/STM32G4xx_HAL_Driver/Inc/stm32g4xx_ll_bus.h ****   SET_BIT(RCC->AHB1ENR, Periphs);
 247:Drivers/STM32G4xx_HAL_Driver/Inc/stm32g4xx_ll_bus.h ****   /* Delay after an RCC peripheral clock enabling */
 248:Drivers/STM32G4xx_HAL_Driver/Inc/stm32g4xx_ll_bus.h ****   tmpreg = READ_BIT(RCC->AHB1ENR, Periphs);
 249:Drivers/STM32G4xx_HAL_Driver/Inc/stm32g4xx_ll_bus.h ****   (void)tmpreg;
 250:Drivers/STM32G4xx_HAL_Driver/Inc/stm32g4xx_ll_bus.h **** }
 251:Drivers/STM32G4xx_HAL_Driver/Inc/stm32g4xx_ll_bus.h **** 
 252:Drivers/STM32G4xx_HAL_Driver/Inc/stm32g4xx_ll_bus.h **** /**
 253:Drivers/STM32G4xx_HAL_Driver/Inc/stm32g4xx_ll_bus.h ****   * @brief  Check if AHB1 peripheral clock is enabled or not
 254:Drivers/STM32G4xx_HAL_Driver/Inc/stm32g4xx_ll_bus.h ****   * @rmtoll AHB1ENR      DMA1EN        LL_AHB1_GRP1_IsEnabledClock\n
 255:Drivers/STM32G4xx_HAL_Driver/Inc/stm32g4xx_ll_bus.h ****   *         AHB1ENR      DMA2EN        LL_AHB1_GRP1_IsEnabledClock\n
 256:Drivers/STM32G4xx_HAL_Driver/Inc/stm32g4xx_ll_bus.h ****   *         AHB1ENR      DMAMUXEN      LL_AHB1_GRP1_IsEnabledClock\n
 257:Drivers/STM32G4xx_HAL_Driver/Inc/stm32g4xx_ll_bus.h ****   *         AHB1ENR      CORDICEN      LL_AHB1_GRP1_IsEnabledClock\n
 258:Drivers/STM32G4xx_HAL_Driver/Inc/stm32g4xx_ll_bus.h ****   *         AHB1ENR      FMACEN        LL_AHB1_GRP1_IsEnabledClock\n
 259:Drivers/STM32G4xx_HAL_Driver/Inc/stm32g4xx_ll_bus.h ****   *         AHB1ENR      FLASHEN       LL_AHB1_GRP1_IsEnabledClock\n
 260:Drivers/STM32G4xx_HAL_Driver/Inc/stm32g4xx_ll_bus.h ****   *         AHB1ENR      CRCEN         LL_AHB1_GRP1_IsEnabledClock
 261:Drivers/STM32G4xx_HAL_Driver/Inc/stm32g4xx_ll_bus.h ****   * @param  Periphs This parameter can be a combination of the following values:
 262:Drivers/STM32G4xx_HAL_Driver/Inc/stm32g4xx_ll_bus.h ****   *         @arg @ref LL_AHB1_GRP1_PERIPH_DMA1
 263:Drivers/STM32G4xx_HAL_Driver/Inc/stm32g4xx_ll_bus.h ****   *         @arg @ref LL_AHB1_GRP1_PERIPH_DMA2
 264:Drivers/STM32G4xx_HAL_Driver/Inc/stm32g4xx_ll_bus.h ****   *         @arg @ref LL_AHB1_GRP1_PERIPH_DMAMUX1
 265:Drivers/STM32G4xx_HAL_Driver/Inc/stm32g4xx_ll_bus.h ****   *         @arg @ref LL_AHB1_GRP1_PERIPH_CORDIC
 266:Drivers/STM32G4xx_HAL_Driver/Inc/stm32g4xx_ll_bus.h ****   *         @arg @ref LL_AHB1_GRP1_PERIPH_FMAC
 267:Drivers/STM32G4xx_HAL_Driver/Inc/stm32g4xx_ll_bus.h ****   *         @arg @ref LL_AHB1_GRP1_PERIPH_FLASH
 268:Drivers/STM32G4xx_HAL_Driver/Inc/stm32g4xx_ll_bus.h ****   *         @arg @ref LL_AHB1_GRP1_PERIPH_CRC
 269:Drivers/STM32G4xx_HAL_Driver/Inc/stm32g4xx_ll_bus.h ****   * @retval State of Periphs (1 or 0).
 270:Drivers/STM32G4xx_HAL_Driver/Inc/stm32g4xx_ll_bus.h ****   */
 271:Drivers/STM32G4xx_HAL_Driver/Inc/stm32g4xx_ll_bus.h **** __STATIC_INLINE uint32_t LL_AHB1_GRP1_IsEnabledClock(uint32_t Periphs)
 272:Drivers/STM32G4xx_HAL_Driver/Inc/stm32g4xx_ll_bus.h **** {
 273:Drivers/STM32G4xx_HAL_Driver/Inc/stm32g4xx_ll_bus.h ****   return ((READ_BIT(RCC->AHB1ENR, Periphs) == Periphs) ? 1UL : 0UL);
 274:Drivers/STM32G4xx_HAL_Driver/Inc/stm32g4xx_ll_bus.h **** }
 275:Drivers/STM32G4xx_HAL_Driver/Inc/stm32g4xx_ll_bus.h **** 
 276:Drivers/STM32G4xx_HAL_Driver/Inc/stm32g4xx_ll_bus.h **** /**
 277:Drivers/STM32G4xx_HAL_Driver/Inc/stm32g4xx_ll_bus.h ****   * @brief  Disable AHB1 peripherals clock.
 278:Drivers/STM32G4xx_HAL_Driver/Inc/stm32g4xx_ll_bus.h ****   * @rmtoll AHB1ENR      DMA1EN        LL_AHB1_GRP1_DisableClock\n
 279:Drivers/STM32G4xx_HAL_Driver/Inc/stm32g4xx_ll_bus.h ****   *         AHB1ENR      DMA2EN        LL_AHB1_GRP1_DisableClock\n
 280:Drivers/STM32G4xx_HAL_Driver/Inc/stm32g4xx_ll_bus.h ****   *         AHB1ENR      DMAMUXEN      LL_AHB1_GRP1_DisableClock\n
 281:Drivers/STM32G4xx_HAL_Driver/Inc/stm32g4xx_ll_bus.h ****   *         AHB1ENR      CORDICEN      LL_AHB1_GRP1_DisableClock\n
 282:Drivers/STM32G4xx_HAL_Driver/Inc/stm32g4xx_ll_bus.h ****   *         AHB1ENR      FMACEN        LL_AHB1_GRP1_DisableClock\n
 283:Drivers/STM32G4xx_HAL_Driver/Inc/stm32g4xx_ll_bus.h ****   *         AHB1ENR      FLASHEN       LL_AHB1_GRP1_DisableClock\n
 284:Drivers/STM32G4xx_HAL_Driver/Inc/stm32g4xx_ll_bus.h ****   *         AHB1ENR      CRCEN         LL_AHB1_GRP1_DisableClock
 285:Drivers/STM32G4xx_HAL_Driver/Inc/stm32g4xx_ll_bus.h ****   * @param  Periphs This parameter can be a combination of the following values:
 286:Drivers/STM32G4xx_HAL_Driver/Inc/stm32g4xx_ll_bus.h ****   *         @arg @ref LL_AHB1_GRP1_PERIPH_DMA1
 287:Drivers/STM32G4xx_HAL_Driver/Inc/stm32g4xx_ll_bus.h ****   *         @arg @ref LL_AHB1_GRP1_PERIPH_DMA2
 288:Drivers/STM32G4xx_HAL_Driver/Inc/stm32g4xx_ll_bus.h ****   *         @arg @ref LL_AHB1_GRP1_PERIPH_DMAMUX1
 289:Drivers/STM32G4xx_HAL_Driver/Inc/stm32g4xx_ll_bus.h ****   *         @arg @ref LL_AHB1_GRP1_PERIPH_CORDIC
 290:Drivers/STM32G4xx_HAL_Driver/Inc/stm32g4xx_ll_bus.h ****   *         @arg @ref LL_AHB1_GRP1_PERIPH_FMAC
 291:Drivers/STM32G4xx_HAL_Driver/Inc/stm32g4xx_ll_bus.h ****   *         @arg @ref LL_AHB1_GRP1_PERIPH_FLASH
 292:Drivers/STM32G4xx_HAL_Driver/Inc/stm32g4xx_ll_bus.h ****   *         @arg @ref LL_AHB1_GRP1_PERIPH_CRC
ARM GAS  /tmp/cc9n8VrH.s 			page 46


 293:Drivers/STM32G4xx_HAL_Driver/Inc/stm32g4xx_ll_bus.h ****   * @retval None
 294:Drivers/STM32G4xx_HAL_Driver/Inc/stm32g4xx_ll_bus.h ****   */
 295:Drivers/STM32G4xx_HAL_Driver/Inc/stm32g4xx_ll_bus.h **** __STATIC_INLINE void LL_AHB1_GRP1_DisableClock(uint32_t Periphs)
 296:Drivers/STM32G4xx_HAL_Driver/Inc/stm32g4xx_ll_bus.h **** {
 297:Drivers/STM32G4xx_HAL_Driver/Inc/stm32g4xx_ll_bus.h ****   CLEAR_BIT(RCC->AHB1ENR, Periphs);
 298:Drivers/STM32G4xx_HAL_Driver/Inc/stm32g4xx_ll_bus.h **** }
 299:Drivers/STM32G4xx_HAL_Driver/Inc/stm32g4xx_ll_bus.h **** 
 300:Drivers/STM32G4xx_HAL_Driver/Inc/stm32g4xx_ll_bus.h **** /**
 301:Drivers/STM32G4xx_HAL_Driver/Inc/stm32g4xx_ll_bus.h ****   * @brief  Force AHB1 peripherals reset.
 302:Drivers/STM32G4xx_HAL_Driver/Inc/stm32g4xx_ll_bus.h ****   * @rmtoll AHB1RSTR     DMA1RST       LL_AHB1_GRP1_ForceReset\n
 303:Drivers/STM32G4xx_HAL_Driver/Inc/stm32g4xx_ll_bus.h ****   *         AHB1RSTR     DMA2RST       LL_AHB1_GRP1_ForceReset\n
 304:Drivers/STM32G4xx_HAL_Driver/Inc/stm32g4xx_ll_bus.h ****   *         AHB1RSTR     DMAMUXRST     LL_AHB1_GRP1_ForceReset\n
 305:Drivers/STM32G4xx_HAL_Driver/Inc/stm32g4xx_ll_bus.h ****   *         AHB1RSTR     CORDICRST     LL_AHB1_GRP1_ForceReset\n
 306:Drivers/STM32G4xx_HAL_Driver/Inc/stm32g4xx_ll_bus.h ****   *         AHB1RSTR     FMACRST       LL_AHB1_GRP1_ForceReset\n
 307:Drivers/STM32G4xx_HAL_Driver/Inc/stm32g4xx_ll_bus.h ****   *         AHB1RSTR     FLASHRST      LL_AHB1_GRP1_ForceReset\n
 308:Drivers/STM32G4xx_HAL_Driver/Inc/stm32g4xx_ll_bus.h ****   *         AHB1RSTR     CRCRST        LL_AHB1_GRP1_ForceReset
 309:Drivers/STM32G4xx_HAL_Driver/Inc/stm32g4xx_ll_bus.h ****   * @param  Periphs This parameter can be a combination of the following values:
 310:Drivers/STM32G4xx_HAL_Driver/Inc/stm32g4xx_ll_bus.h ****   *         @arg @ref LL_AHB1_GRP1_PERIPH_ALL
 311:Drivers/STM32G4xx_HAL_Driver/Inc/stm32g4xx_ll_bus.h ****   *         @arg @ref LL_AHB1_GRP1_PERIPH_DMA1
 312:Drivers/STM32G4xx_HAL_Driver/Inc/stm32g4xx_ll_bus.h ****   *         @arg @ref LL_AHB1_GRP1_PERIPH_DMA2
 313:Drivers/STM32G4xx_HAL_Driver/Inc/stm32g4xx_ll_bus.h ****   *         @arg @ref LL_AHB1_GRP1_PERIPH_DMAMUX1
 314:Drivers/STM32G4xx_HAL_Driver/Inc/stm32g4xx_ll_bus.h ****   *         @arg @ref LL_AHB1_GRP1_PERIPH_CORDIC
 315:Drivers/STM32G4xx_HAL_Driver/Inc/stm32g4xx_ll_bus.h ****   *         @arg @ref LL_AHB1_GRP1_PERIPH_FMAC
 316:Drivers/STM32G4xx_HAL_Driver/Inc/stm32g4xx_ll_bus.h ****   *         @arg @ref LL_AHB1_GRP1_PERIPH_FLASH
 317:Drivers/STM32G4xx_HAL_Driver/Inc/stm32g4xx_ll_bus.h ****   *         @arg @ref LL_AHB1_GRP1_PERIPH_CRC
 318:Drivers/STM32G4xx_HAL_Driver/Inc/stm32g4xx_ll_bus.h ****   * @retval None
 319:Drivers/STM32G4xx_HAL_Driver/Inc/stm32g4xx_ll_bus.h ****   */
 320:Drivers/STM32G4xx_HAL_Driver/Inc/stm32g4xx_ll_bus.h **** __STATIC_INLINE void LL_AHB1_GRP1_ForceReset(uint32_t Periphs)
 321:Drivers/STM32G4xx_HAL_Driver/Inc/stm32g4xx_ll_bus.h **** {
 322:Drivers/STM32G4xx_HAL_Driver/Inc/stm32g4xx_ll_bus.h ****   SET_BIT(RCC->AHB1RSTR, Periphs);
 323:Drivers/STM32G4xx_HAL_Driver/Inc/stm32g4xx_ll_bus.h **** }
 324:Drivers/STM32G4xx_HAL_Driver/Inc/stm32g4xx_ll_bus.h **** 
 325:Drivers/STM32G4xx_HAL_Driver/Inc/stm32g4xx_ll_bus.h **** /**
 326:Drivers/STM32G4xx_HAL_Driver/Inc/stm32g4xx_ll_bus.h ****   * @brief  Release AHB1 peripherals reset.
 327:Drivers/STM32G4xx_HAL_Driver/Inc/stm32g4xx_ll_bus.h ****   * @rmtoll AHB1RSTR     DMA1RST       LL_AHB1_GRP1_ReleaseReset\n
 328:Drivers/STM32G4xx_HAL_Driver/Inc/stm32g4xx_ll_bus.h ****   *         AHB1RSTR     DMA2RST       LL_AHB1_GRP1_ReleaseReset\n
 329:Drivers/STM32G4xx_HAL_Driver/Inc/stm32g4xx_ll_bus.h ****   *         AHB1RSTR     DMAMUXRST     LL_AHB1_GRP1_ReleaseReset\n
 330:Drivers/STM32G4xx_HAL_Driver/Inc/stm32g4xx_ll_bus.h ****   *         AHB1RSTR     CORDICRST     LL_AHB1_GRP1_ReleaseReset\n
 331:Drivers/STM32G4xx_HAL_Driver/Inc/stm32g4xx_ll_bus.h ****   *         AHB1RSTR     FMACRST       LL_AHB1_GRP1_ReleaseReset\n
 332:Drivers/STM32G4xx_HAL_Driver/Inc/stm32g4xx_ll_bus.h ****   *         AHB1RSTR     FLASHRST      LL_AHB1_GRP1_ReleaseReset\n
 333:Drivers/STM32G4xx_HAL_Driver/Inc/stm32g4xx_ll_bus.h ****   *         AHB1RSTR     CRCRST        LL_AHB1_GRP1_ReleaseReset
 334:Drivers/STM32G4xx_HAL_Driver/Inc/stm32g4xx_ll_bus.h ****   * @param  Periphs This parameter can be a combination of the following values:
 335:Drivers/STM32G4xx_HAL_Driver/Inc/stm32g4xx_ll_bus.h ****   *         @arg @ref LL_AHB1_GRP1_PERIPH_ALL
 336:Drivers/STM32G4xx_HAL_Driver/Inc/stm32g4xx_ll_bus.h ****   *         @arg @ref LL_AHB1_GRP1_PERIPH_DMA1
 337:Drivers/STM32G4xx_HAL_Driver/Inc/stm32g4xx_ll_bus.h ****   *         @arg @ref LL_AHB1_GRP1_PERIPH_DMA2
 338:Drivers/STM32G4xx_HAL_Driver/Inc/stm32g4xx_ll_bus.h ****   *         @arg @ref LL_AHB1_GRP1_PERIPH_DMAMUX1
