ARM GAS  /tmp/ccibP0tT.s 			page 1


   1              		.cpu cortex-m4
   2              		.eabi_attribute 27, 1
   3              		.eabi_attribute 28, 1
   4              		.eabi_attribute 20, 1
   5              		.eabi_attribute 21, 1
   6              		.eabi_attribute 23, 3
   7              		.eabi_attribute 24, 1
   8              		.eabi_attribute 25, 1
   9              		.eabi_attribute 26, 1
  10              		.eabi_attribute 30, 6
  11              		.eabi_attribute 34, 1
  12              		.eabi_attribute 18, 2
  13              		.file	"stm32g4xx_ll_spi.c"
  14              		.text
  15              	.Ltext0:
  16              		.cfi_sections	.debug_frame
  17              		.section	.text.LL_SPI_IsEnabled,"ax",%progbits
  18              		.align	1
  19              		.arch armv7e-m
  20              		.syntax unified
  21              		.thumb
  22              		.thumb_func
  23              		.fpu fpv4-sp-d16
  25              	LL_SPI_IsEnabled:
  26              	.LFB134:
  27              		.file 1 "Drivers/STM32G4xx_HAL_Driver/Inc/stm32g4xx_ll_spi.h"
   1:Drivers/STM32G4xx_HAL_Driver/Inc/stm32g4xx_ll_spi.h **** /**
   2:Drivers/STM32G4xx_HAL_Driver/Inc/stm32g4xx_ll_spi.h ****   ******************************************************************************
   3:Drivers/STM32G4xx_HAL_Driver/Inc/stm32g4xx_ll_spi.h ****   * @file    stm32g4xx_ll_spi.h
   4:Drivers/STM32G4xx_HAL_Driver/Inc/stm32g4xx_ll_spi.h ****   * @author  MCD Application Team
   5:Drivers/STM32G4xx_HAL_Driver/Inc/stm32g4xx_ll_spi.h ****   * @brief   Header file of SPI LL module.
   6:Drivers/STM32G4xx_HAL_Driver/Inc/stm32g4xx_ll_spi.h ****   ******************************************************************************
   7:Drivers/STM32G4xx_HAL_Driver/Inc/stm32g4xx_ll_spi.h ****   * @attention
   8:Drivers/STM32G4xx_HAL_Driver/Inc/stm32g4xx_ll_spi.h ****   *
   9:Drivers/STM32G4xx_HAL_Driver/Inc/stm32g4xx_ll_spi.h ****   * Copyright (c) 2019 STMicroelectronics.
  10:Drivers/STM32G4xx_HAL_Driver/Inc/stm32g4xx_ll_spi.h ****   * All rights reserved.
  11:Drivers/STM32G4xx_HAL_Driver/Inc/stm32g4xx_ll_spi.h ****   *
  12:Drivers/STM32G4xx_HAL_Driver/Inc/stm32g4xx_ll_spi.h ****   * This software is licensed under terms that can be found in the LICENSE file
  13:Drivers/STM32G4xx_HAL_Driver/Inc/stm32g4xx_ll_spi.h ****   * in the root directory of this software component.
  14:Drivers/STM32G4xx_HAL_Driver/Inc/stm32g4xx_ll_spi.h ****   * If no LICENSE file comes with this software, it is provided AS-IS.
  15:Drivers/STM32G4xx_HAL_Driver/Inc/stm32g4xx_ll_spi.h ****   *
  16:Drivers/STM32G4xx_HAL_Driver/Inc/stm32g4xx_ll_spi.h ****   ******************************************************************************
  17:Drivers/STM32G4xx_HAL_Driver/Inc/stm32g4xx_ll_spi.h ****   */
  18:Drivers/STM32G4xx_HAL_Driver/Inc/stm32g4xx_ll_spi.h **** 
  19:Drivers/STM32G4xx_HAL_Driver/Inc/stm32g4xx_ll_spi.h **** /* Define to prevent recursive inclusion -------------------------------------*/
  20:Drivers/STM32G4xx_HAL_Driver/Inc/stm32g4xx_ll_spi.h **** #ifndef STM32G4xx_LL_SPI_H
  21:Drivers/STM32G4xx_HAL_Driver/Inc/stm32g4xx_ll_spi.h **** #define STM32G4xx_LL_SPI_H
  22:Drivers/STM32G4xx_HAL_Driver/Inc/stm32g4xx_ll_spi.h **** 
  23:Drivers/STM32G4xx_HAL_Driver/Inc/stm32g4xx_ll_spi.h **** #ifdef __cplusplus
  24:Drivers/STM32G4xx_HAL_Driver/Inc/stm32g4xx_ll_spi.h **** extern "C" {
  25:Drivers/STM32G4xx_HAL_Driver/Inc/stm32g4xx_ll_spi.h **** #endif
  26:Drivers/STM32G4xx_HAL_Driver/Inc/stm32g4xx_ll_spi.h **** 
  27:Drivers/STM32G4xx_HAL_Driver/Inc/stm32g4xx_ll_spi.h **** /* Includes ------------------------------------------------------------------*/
  28:Drivers/STM32G4xx_HAL_Driver/Inc/stm32g4xx_ll_spi.h **** #include "stm32g4xx.h"
  29:Drivers/STM32G4xx_HAL_Driver/Inc/stm32g4xx_ll_spi.h **** 
  30:Drivers/STM32G4xx_HAL_Driver/Inc/stm32g4xx_ll_spi.h **** /** @addtogroup STM32G4xx_LL_Driver
  31:Drivers/STM32G4xx_HAL_Driver/Inc/stm32g4xx_ll_spi.h ****   * @{
ARM GAS  /tmp/ccibP0tT.s 			page 2


  32:Drivers/STM32G4xx_HAL_Driver/Inc/stm32g4xx_ll_spi.h ****   */
  33:Drivers/STM32G4xx_HAL_Driver/Inc/stm32g4xx_ll_spi.h **** 
  34:Drivers/STM32G4xx_HAL_Driver/Inc/stm32g4xx_ll_spi.h **** #if defined (SPI1) || defined (SPI2) || defined (SPI3) || defined (SPI4)
  35:Drivers/STM32G4xx_HAL_Driver/Inc/stm32g4xx_ll_spi.h **** 
  36:Drivers/STM32G4xx_HAL_Driver/Inc/stm32g4xx_ll_spi.h **** /** @defgroup SPI_LL SPI
  37:Drivers/STM32G4xx_HAL_Driver/Inc/stm32g4xx_ll_spi.h ****   * @{
  38:Drivers/STM32G4xx_HAL_Driver/Inc/stm32g4xx_ll_spi.h ****   */
  39:Drivers/STM32G4xx_HAL_Driver/Inc/stm32g4xx_ll_spi.h **** 
  40:Drivers/STM32G4xx_HAL_Driver/Inc/stm32g4xx_ll_spi.h **** /* Private types -------------------------------------------------------------*/
  41:Drivers/STM32G4xx_HAL_Driver/Inc/stm32g4xx_ll_spi.h **** /* Private variables ---------------------------------------------------------*/
  42:Drivers/STM32G4xx_HAL_Driver/Inc/stm32g4xx_ll_spi.h **** /* Private macros ------------------------------------------------------------*/
  43:Drivers/STM32G4xx_HAL_Driver/Inc/stm32g4xx_ll_spi.h **** 
  44:Drivers/STM32G4xx_HAL_Driver/Inc/stm32g4xx_ll_spi.h **** /* Exported types ------------------------------------------------------------*/
  45:Drivers/STM32G4xx_HAL_Driver/Inc/stm32g4xx_ll_spi.h **** #if defined(USE_FULL_LL_DRIVER)
  46:Drivers/STM32G4xx_HAL_Driver/Inc/stm32g4xx_ll_spi.h **** /** @defgroup SPI_LL_ES_INIT SPI Exported Init structure
  47:Drivers/STM32G4xx_HAL_Driver/Inc/stm32g4xx_ll_spi.h ****   * @{
  48:Drivers/STM32G4xx_HAL_Driver/Inc/stm32g4xx_ll_spi.h ****   */
  49:Drivers/STM32G4xx_HAL_Driver/Inc/stm32g4xx_ll_spi.h **** 
  50:Drivers/STM32G4xx_HAL_Driver/Inc/stm32g4xx_ll_spi.h **** /**
  51:Drivers/STM32G4xx_HAL_Driver/Inc/stm32g4xx_ll_spi.h ****   * @brief  SPI Init structures definition
  52:Drivers/STM32G4xx_HAL_Driver/Inc/stm32g4xx_ll_spi.h ****   */
  53:Drivers/STM32G4xx_HAL_Driver/Inc/stm32g4xx_ll_spi.h **** typedef struct
  54:Drivers/STM32G4xx_HAL_Driver/Inc/stm32g4xx_ll_spi.h **** {
  55:Drivers/STM32G4xx_HAL_Driver/Inc/stm32g4xx_ll_spi.h ****   uint32_t TransferDirection;       /*!< Specifies the SPI unidirectional or bidirectional data mod
  56:Drivers/STM32G4xx_HAL_Driver/Inc/stm32g4xx_ll_spi.h ****                                          This parameter can be a value of @ref SPI_LL_EC_TRANSFER_M
  57:Drivers/STM32G4xx_HAL_Driver/Inc/stm32g4xx_ll_spi.h **** 
  58:Drivers/STM32G4xx_HAL_Driver/Inc/stm32g4xx_ll_spi.h ****                                          This feature can be modified afterwards using unitary func
  59:Drivers/STM32G4xx_HAL_Driver/Inc/stm32g4xx_ll_spi.h **** 
  60:Drivers/STM32G4xx_HAL_Driver/Inc/stm32g4xx_ll_spi.h ****   uint32_t Mode;                    /*!< Specifies the SPI mode (Master/Slave).
  61:Drivers/STM32G4xx_HAL_Driver/Inc/stm32g4xx_ll_spi.h ****                                          This parameter can be a value of @ref SPI_LL_EC_MODE.
  62:Drivers/STM32G4xx_HAL_Driver/Inc/stm32g4xx_ll_spi.h **** 
  63:Drivers/STM32G4xx_HAL_Driver/Inc/stm32g4xx_ll_spi.h ****                                          This feature can be modified afterwards using unitary func
  64:Drivers/STM32G4xx_HAL_Driver/Inc/stm32g4xx_ll_spi.h **** 
  65:Drivers/STM32G4xx_HAL_Driver/Inc/stm32g4xx_ll_spi.h ****   uint32_t DataWidth;               /*!< Specifies the SPI data width.
  66:Drivers/STM32G4xx_HAL_Driver/Inc/stm32g4xx_ll_spi.h ****                                          This parameter can be a value of @ref SPI_LL_EC_DATAWIDTH.
  67:Drivers/STM32G4xx_HAL_Driver/Inc/stm32g4xx_ll_spi.h **** 
  68:Drivers/STM32G4xx_HAL_Driver/Inc/stm32g4xx_ll_spi.h ****                                          This feature can be modified afterwards using unitary func
  69:Drivers/STM32G4xx_HAL_Driver/Inc/stm32g4xx_ll_spi.h **** 
  70:Drivers/STM32G4xx_HAL_Driver/Inc/stm32g4xx_ll_spi.h ****   uint32_t ClockPolarity;           /*!< Specifies the serial clock steady state.
  71:Drivers/STM32G4xx_HAL_Driver/Inc/stm32g4xx_ll_spi.h ****                                          This parameter can be a value of @ref SPI_LL_EC_POLARITY.
  72:Drivers/STM32G4xx_HAL_Driver/Inc/stm32g4xx_ll_spi.h **** 
  73:Drivers/STM32G4xx_HAL_Driver/Inc/stm32g4xx_ll_spi.h ****                                          This feature can be modified afterwards using unitary func
  74:Drivers/STM32G4xx_HAL_Driver/Inc/stm32g4xx_ll_spi.h **** 
  75:Drivers/STM32G4xx_HAL_Driver/Inc/stm32g4xx_ll_spi.h ****   uint32_t ClockPhase;              /*!< Specifies the clock active edge for the bit capture.
  76:Drivers/STM32G4xx_HAL_Driver/Inc/stm32g4xx_ll_spi.h ****                                          This parameter can be a value of @ref SPI_LL_EC_PHASE.
  77:Drivers/STM32G4xx_HAL_Driver/Inc/stm32g4xx_ll_spi.h **** 
  78:Drivers/STM32G4xx_HAL_Driver/Inc/stm32g4xx_ll_spi.h ****                                          This feature can be modified afterwards using unitary func
  79:Drivers/STM32G4xx_HAL_Driver/Inc/stm32g4xx_ll_spi.h **** 
  80:Drivers/STM32G4xx_HAL_Driver/Inc/stm32g4xx_ll_spi.h ****   uint32_t NSS;                     /*!< Specifies whether the NSS signal is managed by hardware (N
  81:Drivers/STM32G4xx_HAL_Driver/Inc/stm32g4xx_ll_spi.h ****                                          This parameter can be a value of @ref SPI_LL_EC_NSS_MODE.
  82:Drivers/STM32G4xx_HAL_Driver/Inc/stm32g4xx_ll_spi.h **** 
  83:Drivers/STM32G4xx_HAL_Driver/Inc/stm32g4xx_ll_spi.h ****                                          This feature can be modified afterwards using unitary func
  84:Drivers/STM32G4xx_HAL_Driver/Inc/stm32g4xx_ll_spi.h **** 
  85:Drivers/STM32G4xx_HAL_Driver/Inc/stm32g4xx_ll_spi.h ****   uint32_t BaudRate;                /*!< Specifies the BaudRate prescaler value which will be used 
  86:Drivers/STM32G4xx_HAL_Driver/Inc/stm32g4xx_ll_spi.h ****                                          This parameter can be a value of @ref SPI_LL_EC_BAUDRATEPR
  87:Drivers/STM32G4xx_HAL_Driver/Inc/stm32g4xx_ll_spi.h ****                                          @note The communication clock is derived from the master c
  88:Drivers/STM32G4xx_HAL_Driver/Inc/stm32g4xx_ll_spi.h **** 
ARM GAS  /tmp/ccibP0tT.s 			page 3


  89:Drivers/STM32G4xx_HAL_Driver/Inc/stm32g4xx_ll_spi.h ****                                          This feature can be modified afterwards using unitary func
  90:Drivers/STM32G4xx_HAL_Driver/Inc/stm32g4xx_ll_spi.h **** 
  91:Drivers/STM32G4xx_HAL_Driver/Inc/stm32g4xx_ll_spi.h ****   uint32_t BitOrder;                /*!< Specifies whether data transfers start from MSB or LSB bit
  92:Drivers/STM32G4xx_HAL_Driver/Inc/stm32g4xx_ll_spi.h ****                                          This parameter can be a value of @ref SPI_LL_EC_BIT_ORDER.
  93:Drivers/STM32G4xx_HAL_Driver/Inc/stm32g4xx_ll_spi.h **** 
  94:Drivers/STM32G4xx_HAL_Driver/Inc/stm32g4xx_ll_spi.h ****                                          This feature can be modified afterwards using unitary func
  95:Drivers/STM32G4xx_HAL_Driver/Inc/stm32g4xx_ll_spi.h **** 
  96:Drivers/STM32G4xx_HAL_Driver/Inc/stm32g4xx_ll_spi.h ****   uint32_t CRCCalculation;          /*!< Specifies if the CRC calculation is enabled or not.
  97:Drivers/STM32G4xx_HAL_Driver/Inc/stm32g4xx_ll_spi.h ****                                          This parameter can be a value of @ref SPI_LL_EC_CRC_CALCUL
  98:Drivers/STM32G4xx_HAL_Driver/Inc/stm32g4xx_ll_spi.h **** 
  99:Drivers/STM32G4xx_HAL_Driver/Inc/stm32g4xx_ll_spi.h ****                                          This feature can be modified afterwards using unitary func
 100:Drivers/STM32G4xx_HAL_Driver/Inc/stm32g4xx_ll_spi.h **** 
 101:Drivers/STM32G4xx_HAL_Driver/Inc/stm32g4xx_ll_spi.h ****   uint32_t CRCPoly;                 /*!< Specifies the polynomial used for the CRC calculation.
 102:Drivers/STM32G4xx_HAL_Driver/Inc/stm32g4xx_ll_spi.h ****                                          This parameter must be a number between Min_Data = 0x00 an
 103:Drivers/STM32G4xx_HAL_Driver/Inc/stm32g4xx_ll_spi.h **** 
 104:Drivers/STM32G4xx_HAL_Driver/Inc/stm32g4xx_ll_spi.h ****                                          This feature can be modified afterwards using unitary func
 105:Drivers/STM32G4xx_HAL_Driver/Inc/stm32g4xx_ll_spi.h **** 
 106:Drivers/STM32G4xx_HAL_Driver/Inc/stm32g4xx_ll_spi.h **** } LL_SPI_InitTypeDef;
 107:Drivers/STM32G4xx_HAL_Driver/Inc/stm32g4xx_ll_spi.h **** 
 108:Drivers/STM32G4xx_HAL_Driver/Inc/stm32g4xx_ll_spi.h **** /**
 109:Drivers/STM32G4xx_HAL_Driver/Inc/stm32g4xx_ll_spi.h ****   * @}
 110:Drivers/STM32G4xx_HAL_Driver/Inc/stm32g4xx_ll_spi.h ****   */
 111:Drivers/STM32G4xx_HAL_Driver/Inc/stm32g4xx_ll_spi.h **** #endif /* USE_FULL_LL_DRIVER */
 112:Drivers/STM32G4xx_HAL_Driver/Inc/stm32g4xx_ll_spi.h **** 
 113:Drivers/STM32G4xx_HAL_Driver/Inc/stm32g4xx_ll_spi.h **** /* Exported constants --------------------------------------------------------*/
 114:Drivers/STM32G4xx_HAL_Driver/Inc/stm32g4xx_ll_spi.h **** /** @defgroup SPI_LL_Exported_Constants SPI Exported Constants
 115:Drivers/STM32G4xx_HAL_Driver/Inc/stm32g4xx_ll_spi.h ****   * @{
 116:Drivers/STM32G4xx_HAL_Driver/Inc/stm32g4xx_ll_spi.h ****   */
 117:Drivers/STM32G4xx_HAL_Driver/Inc/stm32g4xx_ll_spi.h **** 
 118:Drivers/STM32G4xx_HAL_Driver/Inc/stm32g4xx_ll_spi.h **** /** @defgroup SPI_LL_EC_GET_FLAG Get Flags Defines
 119:Drivers/STM32G4xx_HAL_Driver/Inc/stm32g4xx_ll_spi.h ****   * @brief    Flags defines which can be used with LL_SPI_ReadReg function
 120:Drivers/STM32G4xx_HAL_Driver/Inc/stm32g4xx_ll_spi.h ****   * @{
 121:Drivers/STM32G4xx_HAL_Driver/Inc/stm32g4xx_ll_spi.h ****   */
 122:Drivers/STM32G4xx_HAL_Driver/Inc/stm32g4xx_ll_spi.h **** #define LL_SPI_SR_RXNE                     SPI_SR_RXNE               /*!< Rx buffer not empty flag 
 123:Drivers/STM32G4xx_HAL_Driver/Inc/stm32g4xx_ll_spi.h **** #define LL_SPI_SR_TXE                      SPI_SR_TXE                /*!< Tx buffer empty flag     
 124:Drivers/STM32G4xx_HAL_Driver/Inc/stm32g4xx_ll_spi.h **** #define LL_SPI_SR_BSY                      SPI_SR_BSY                /*!< Busy flag                
 125:Drivers/STM32G4xx_HAL_Driver/Inc/stm32g4xx_ll_spi.h **** #define LL_SPI_SR_CRCERR                   SPI_SR_CRCERR             /*!< CRC error flag           
 126:Drivers/STM32G4xx_HAL_Driver/Inc/stm32g4xx_ll_spi.h **** #define LL_SPI_SR_MODF                     SPI_SR_MODF               /*!< Mode fault flag          
 127:Drivers/STM32G4xx_HAL_Driver/Inc/stm32g4xx_ll_spi.h **** #define LL_SPI_SR_OVR                      SPI_SR_OVR                /*!< Overrun flag             
 128:Drivers/STM32G4xx_HAL_Driver/Inc/stm32g4xx_ll_spi.h **** #define LL_SPI_SR_FRE                      SPI_SR_FRE                /*!< TI mode frame format erro
 129:Drivers/STM32G4xx_HAL_Driver/Inc/stm32g4xx_ll_spi.h **** /**
 130:Drivers/STM32G4xx_HAL_Driver/Inc/stm32g4xx_ll_spi.h ****   * @}
 131:Drivers/STM32G4xx_HAL_Driver/Inc/stm32g4xx_ll_spi.h ****   */
 132:Drivers/STM32G4xx_HAL_Driver/Inc/stm32g4xx_ll_spi.h **** 
 133:Drivers/STM32G4xx_HAL_Driver/Inc/stm32g4xx_ll_spi.h **** /** @defgroup SPI_LL_EC_IT IT Defines
 134:Drivers/STM32G4xx_HAL_Driver/Inc/stm32g4xx_ll_spi.h ****   * @brief    IT defines which can be used with LL_SPI_ReadReg and  LL_SPI_WriteReg functions
 135:Drivers/STM32G4xx_HAL_Driver/Inc/stm32g4xx_ll_spi.h ****   * @{
 136:Drivers/STM32G4xx_HAL_Driver/Inc/stm32g4xx_ll_spi.h ****   */
 137:Drivers/STM32G4xx_HAL_Driver/Inc/stm32g4xx_ll_spi.h **** #define LL_SPI_CR2_RXNEIE                  SPI_CR2_RXNEIE            /*!< Rx buffer not empty inter
 138:Drivers/STM32G4xx_HAL_Driver/Inc/stm32g4xx_ll_spi.h **** #define LL_SPI_CR2_TXEIE                   SPI_CR2_TXEIE             /*!< Tx buffer empty interrupt
 139:Drivers/STM32G4xx_HAL_Driver/Inc/stm32g4xx_ll_spi.h **** #define LL_SPI_CR2_ERRIE                   SPI_CR2_ERRIE             /*!< Error interrupt enable   
 140:Drivers/STM32G4xx_HAL_Driver/Inc/stm32g4xx_ll_spi.h **** /**
 141:Drivers/STM32G4xx_HAL_Driver/Inc/stm32g4xx_ll_spi.h ****   * @}
 142:Drivers/STM32G4xx_HAL_Driver/Inc/stm32g4xx_ll_spi.h ****   */
 143:Drivers/STM32G4xx_HAL_Driver/Inc/stm32g4xx_ll_spi.h **** 
 144:Drivers/STM32G4xx_HAL_Driver/Inc/stm32g4xx_ll_spi.h **** /** @defgroup SPI_LL_EC_MODE Operation Mode
 145:Drivers/STM32G4xx_HAL_Driver/Inc/stm32g4xx_ll_spi.h ****   * @{
ARM GAS  /tmp/ccibP0tT.s 			page 4


 146:Drivers/STM32G4xx_HAL_Driver/Inc/stm32g4xx_ll_spi.h ****   */
 147:Drivers/STM32G4xx_HAL_Driver/Inc/stm32g4xx_ll_spi.h **** #define LL_SPI_MODE_MASTER                 (SPI_CR1_MSTR | SPI_CR1_SSI)    /*!< Master configuratio
 148:Drivers/STM32G4xx_HAL_Driver/Inc/stm32g4xx_ll_spi.h **** #define LL_SPI_MODE_SLAVE                  0x00000000U                     /*!< Slave configuration
 149:Drivers/STM32G4xx_HAL_Driver/Inc/stm32g4xx_ll_spi.h **** /**
 150:Drivers/STM32G4xx_HAL_Driver/Inc/stm32g4xx_ll_spi.h ****   * @}
 151:Drivers/STM32G4xx_HAL_Driver/Inc/stm32g4xx_ll_spi.h ****   */
 152:Drivers/STM32G4xx_HAL_Driver/Inc/stm32g4xx_ll_spi.h **** 
 153:Drivers/STM32G4xx_HAL_Driver/Inc/stm32g4xx_ll_spi.h **** /** @defgroup SPI_LL_EC_PROTOCOL Serial Protocol
 154:Drivers/STM32G4xx_HAL_Driver/Inc/stm32g4xx_ll_spi.h ****   * @{
 155:Drivers/STM32G4xx_HAL_Driver/Inc/stm32g4xx_ll_spi.h ****   */
 156:Drivers/STM32G4xx_HAL_Driver/Inc/stm32g4xx_ll_spi.h **** #define LL_SPI_PROTOCOL_MOTOROLA           0x00000000U               /*!< Motorola mode. Used as de
 157:Drivers/STM32G4xx_HAL_Driver/Inc/stm32g4xx_ll_spi.h **** #define LL_SPI_PROTOCOL_TI                 (SPI_CR2_FRF)             /*!< TI mode                  
 158:Drivers/STM32G4xx_HAL_Driver/Inc/stm32g4xx_ll_spi.h **** /**
 159:Drivers/STM32G4xx_HAL_Driver/Inc/stm32g4xx_ll_spi.h ****   * @}
 160:Drivers/STM32G4xx_HAL_Driver/Inc/stm32g4xx_ll_spi.h ****   */
 161:Drivers/STM32G4xx_HAL_Driver/Inc/stm32g4xx_ll_spi.h **** 
 162:Drivers/STM32G4xx_HAL_Driver/Inc/stm32g4xx_ll_spi.h **** /** @defgroup SPI_LL_EC_PHASE Clock Phase
 163:Drivers/STM32G4xx_HAL_Driver/Inc/stm32g4xx_ll_spi.h ****   * @{
 164:Drivers/STM32G4xx_HAL_Driver/Inc/stm32g4xx_ll_spi.h ****   */
 165:Drivers/STM32G4xx_HAL_Driver/Inc/stm32g4xx_ll_spi.h **** #define LL_SPI_PHASE_1EDGE                 0x00000000U               /*!< First clock transition is
 166:Drivers/STM32G4xx_HAL_Driver/Inc/stm32g4xx_ll_spi.h **** #define LL_SPI_PHASE_2EDGE                 (SPI_CR1_CPHA)            /*!< Second clock transition i
 167:Drivers/STM32G4xx_HAL_Driver/Inc/stm32g4xx_ll_spi.h **** /**
 168:Drivers/STM32G4xx_HAL_Driver/Inc/stm32g4xx_ll_spi.h ****   * @}
 169:Drivers/STM32G4xx_HAL_Driver/Inc/stm32g4xx_ll_spi.h ****   */
 170:Drivers/STM32G4xx_HAL_Driver/Inc/stm32g4xx_ll_spi.h **** 
 171:Drivers/STM32G4xx_HAL_Driver/Inc/stm32g4xx_ll_spi.h **** /** @defgroup SPI_LL_EC_POLARITY Clock Polarity
 172:Drivers/STM32G4xx_HAL_Driver/Inc/stm32g4xx_ll_spi.h ****   * @{
 173:Drivers/STM32G4xx_HAL_Driver/Inc/stm32g4xx_ll_spi.h ****   */
 174:Drivers/STM32G4xx_HAL_Driver/Inc/stm32g4xx_ll_spi.h **** #define LL_SPI_POLARITY_LOW                0x00000000U               /*!< Clock to 0 when idle */
 175:Drivers/STM32G4xx_HAL_Driver/Inc/stm32g4xx_ll_spi.h **** #define LL_SPI_POLARITY_HIGH               (SPI_CR1_CPOL)            /*!< Clock to 1 when idle */
 176:Drivers/STM32G4xx_HAL_Driver/Inc/stm32g4xx_ll_spi.h **** /**
 177:Drivers/STM32G4xx_HAL_Driver/Inc/stm32g4xx_ll_spi.h ****   * @}
 178:Drivers/STM32G4xx_HAL_Driver/Inc/stm32g4xx_ll_spi.h ****   */
 179:Drivers/STM32G4xx_HAL_Driver/Inc/stm32g4xx_ll_spi.h **** 
 180:Drivers/STM32G4xx_HAL_Driver/Inc/stm32g4xx_ll_spi.h **** /** @defgroup SPI_LL_EC_BAUDRATEPRESCALER Baud Rate Prescaler
 181:Drivers/STM32G4xx_HAL_Driver/Inc/stm32g4xx_ll_spi.h ****   * @{
 182:Drivers/STM32G4xx_HAL_Driver/Inc/stm32g4xx_ll_spi.h ****   */
 183:Drivers/STM32G4xx_HAL_Driver/Inc/stm32g4xx_ll_spi.h **** #define LL_SPI_BAUDRATEPRESCALER_DIV2      0x00000000U                                    /*!< Baud
 184:Drivers/STM32G4xx_HAL_Driver/Inc/stm32g4xx_ll_spi.h **** #define LL_SPI_BAUDRATEPRESCALER_DIV4      (SPI_CR1_BR_0)                                 /*!< Baud
 185:Drivers/STM32G4xx_HAL_Driver/Inc/stm32g4xx_ll_spi.h **** #define LL_SPI_BAUDRATEPRESCALER_DIV8      (SPI_CR1_BR_1)                                 /*!< Baud
 186:Drivers/STM32G4xx_HAL_Driver/Inc/stm32g4xx_ll_spi.h **** #define LL_SPI_BAUDRATEPRESCALER_DIV16     (SPI_CR1_BR_1 | SPI_CR1_BR_0)                  /*!< Baud
 187:Drivers/STM32G4xx_HAL_Driver/Inc/stm32g4xx_ll_spi.h **** #define LL_SPI_BAUDRATEPRESCALER_DIV32     (SPI_CR1_BR_2)                                 /*!< Baud
 188:Drivers/STM32G4xx_HAL_Driver/Inc/stm32g4xx_ll_spi.h **** #define LL_SPI_BAUDRATEPRESCALER_DIV64     (SPI_CR1_BR_2 | SPI_CR1_BR_0)                  /*!< Baud
 189:Drivers/STM32G4xx_HAL_Driver/Inc/stm32g4xx_ll_spi.h **** #define LL_SPI_BAUDRATEPRESCALER_DIV128    (SPI_CR1_BR_2 | SPI_CR1_BR_1)                  /*!< Baud
 190:Drivers/STM32G4xx_HAL_Driver/Inc/stm32g4xx_ll_spi.h **** #define LL_SPI_BAUDRATEPRESCALER_DIV256    (SPI_CR1_BR_2 | SPI_CR1_BR_1 | SPI_CR1_BR_0)   /*!< Baud
 191:Drivers/STM32G4xx_HAL_Driver/Inc/stm32g4xx_ll_spi.h **** /**
 192:Drivers/STM32G4xx_HAL_Driver/Inc/stm32g4xx_ll_spi.h ****   * @}
 193:Drivers/STM32G4xx_HAL_Driver/Inc/stm32g4xx_ll_spi.h ****   */
 194:Drivers/STM32G4xx_HAL_Driver/Inc/stm32g4xx_ll_spi.h **** 
 195:Drivers/STM32G4xx_HAL_Driver/Inc/stm32g4xx_ll_spi.h **** /** @defgroup SPI_LL_EC_BIT_ORDER Transmission Bit Order
 196:Drivers/STM32G4xx_HAL_Driver/Inc/stm32g4xx_ll_spi.h ****   * @{
 197:Drivers/STM32G4xx_HAL_Driver/Inc/stm32g4xx_ll_spi.h ****   */
 198:Drivers/STM32G4xx_HAL_Driver/Inc/stm32g4xx_ll_spi.h **** #define LL_SPI_LSB_FIRST                   (SPI_CR1_LSBFIRST)        /*!< Data is transmitted/recei
 199:Drivers/STM32G4xx_HAL_Driver/Inc/stm32g4xx_ll_spi.h **** #define LL_SPI_MSB_FIRST                   0x00000000U               /*!< Data is transmitted/recei
 200:Drivers/STM32G4xx_HAL_Driver/Inc/stm32g4xx_ll_spi.h **** /**
 201:Drivers/STM32G4xx_HAL_Driver/Inc/stm32g4xx_ll_spi.h ****   * @}
 202:Drivers/STM32G4xx_HAL_Driver/Inc/stm32g4xx_ll_spi.h ****   */
ARM GAS  /tmp/ccibP0tT.s 			page 5


 203:Drivers/STM32G4xx_HAL_Driver/Inc/stm32g4xx_ll_spi.h **** 
 204:Drivers/STM32G4xx_HAL_Driver/Inc/stm32g4xx_ll_spi.h **** /** @defgroup SPI_LL_EC_TRANSFER_MODE Transfer Mode
 205:Drivers/STM32G4xx_HAL_Driver/Inc/stm32g4xx_ll_spi.h ****   * @{
 206:Drivers/STM32G4xx_HAL_Driver/Inc/stm32g4xx_ll_spi.h ****   */
 207:Drivers/STM32G4xx_HAL_Driver/Inc/stm32g4xx_ll_spi.h **** #define LL_SPI_FULL_DUPLEX                 0x00000000U                          /*!< Full-Duplex mo
 208:Drivers/STM32G4xx_HAL_Driver/Inc/stm32g4xx_ll_spi.h **** #define LL_SPI_SIMPLEX_RX                  (SPI_CR1_RXONLY)                     /*!< Simplex Rx mod
 209:Drivers/STM32G4xx_HAL_Driver/Inc/stm32g4xx_ll_spi.h **** #define LL_SPI_HALF_DUPLEX_RX              (SPI_CR1_BIDIMODE)                   /*!< Half-Duplex Rx
 210:Drivers/STM32G4xx_HAL_Driver/Inc/stm32g4xx_ll_spi.h **** #define LL_SPI_HALF_DUPLEX_TX              (SPI_CR1_BIDIMODE | SPI_CR1_BIDIOE)  /*!< Half-Duplex Tx
 211:Drivers/STM32G4xx_HAL_Driver/Inc/stm32g4xx_ll_spi.h **** /**
 212:Drivers/STM32G4xx_HAL_Driver/Inc/stm32g4xx_ll_spi.h ****   * @}
 213:Drivers/STM32G4xx_HAL_Driver/Inc/stm32g4xx_ll_spi.h ****   */
 214:Drivers/STM32G4xx_HAL_Driver/Inc/stm32g4xx_ll_spi.h **** 
 215:Drivers/STM32G4xx_HAL_Driver/Inc/stm32g4xx_ll_spi.h **** /** @defgroup SPI_LL_EC_NSS_MODE Slave Select Pin Mode
 216:Drivers/STM32G4xx_HAL_Driver/Inc/stm32g4xx_ll_spi.h ****   * @{
 217:Drivers/STM32G4xx_HAL_Driver/Inc/stm32g4xx_ll_spi.h ****   */
 218:Drivers/STM32G4xx_HAL_Driver/Inc/stm32g4xx_ll_spi.h **** #define LL_SPI_NSS_SOFT                    (SPI_CR1_SSM)                     /*!< NSS managed inter
 219:Drivers/STM32G4xx_HAL_Driver/Inc/stm32g4xx_ll_spi.h **** #define LL_SPI_NSS_HARD_INPUT              0x00000000U                       /*!< NSS pin used in I
 220:Drivers/STM32G4xx_HAL_Driver/Inc/stm32g4xx_ll_spi.h **** #define LL_SPI_NSS_HARD_OUTPUT             (((uint32_t)SPI_CR2_SSOE << 16U)) /*!< NSS pin used in O
 221:Drivers/STM32G4xx_HAL_Driver/Inc/stm32g4xx_ll_spi.h **** /**
 222:Drivers/STM32G4xx_HAL_Driver/Inc/stm32g4xx_ll_spi.h ****   * @}
 223:Drivers/STM32G4xx_HAL_Driver/Inc/stm32g4xx_ll_spi.h ****   */
 224:Drivers/STM32G4xx_HAL_Driver/Inc/stm32g4xx_ll_spi.h **** 
 225:Drivers/STM32G4xx_HAL_Driver/Inc/stm32g4xx_ll_spi.h **** /** @defgroup SPI_LL_EC_DATAWIDTH Datawidth
 226:Drivers/STM32G4xx_HAL_Driver/Inc/stm32g4xx_ll_spi.h ****   * @{
 227:Drivers/STM32G4xx_HAL_Driver/Inc/stm32g4xx_ll_spi.h ****   */
 228:Drivers/STM32G4xx_HAL_Driver/Inc/stm32g4xx_ll_spi.h **** #define LL_SPI_DATAWIDTH_4BIT              (SPI_CR2_DS_0 | SPI_CR2_DS_1)                           
 229:Drivers/STM32G4xx_HAL_Driver/Inc/stm32g4xx_ll_spi.h **** #define LL_SPI_DATAWIDTH_5BIT              (SPI_CR2_DS_2)                                          
 230:Drivers/STM32G4xx_HAL_Driver/Inc/stm32g4xx_ll_spi.h **** #define LL_SPI_DATAWIDTH_6BIT              (SPI_CR2_DS_2 | SPI_CR2_DS_0)                           
 231:Drivers/STM32G4xx_HAL_Driver/Inc/stm32g4xx_ll_spi.h **** #define LL_SPI_DATAWIDTH_7BIT              (SPI_CR2_DS_2 | SPI_CR2_DS_1)                           
 232:Drivers/STM32G4xx_HAL_Driver/Inc/stm32g4xx_ll_spi.h **** #define LL_SPI_DATAWIDTH_8BIT              (SPI_CR2_DS_2 | SPI_CR2_DS_1 | SPI_CR2_DS_0)            
 233:Drivers/STM32G4xx_HAL_Driver/Inc/stm32g4xx_ll_spi.h **** #define LL_SPI_DATAWIDTH_9BIT              (SPI_CR2_DS_3)                                          
 234:Drivers/STM32G4xx_HAL_Driver/Inc/stm32g4xx_ll_spi.h **** #define LL_SPI_DATAWIDTH_10BIT             (SPI_CR2_DS_3 | SPI_CR2_DS_0)                           
 235:Drivers/STM32G4xx_HAL_Driver/Inc/stm32g4xx_ll_spi.h **** #define LL_SPI_DATAWIDTH_11BIT             (SPI_CR2_DS_3 | SPI_CR2_DS_1)                           
 236:Drivers/STM32G4xx_HAL_Driver/Inc/stm32g4xx_ll_spi.h **** #define LL_SPI_DATAWIDTH_12BIT             (SPI_CR2_DS_3 | SPI_CR2_DS_1 | SPI_CR2_DS_0)            
 237:Drivers/STM32G4xx_HAL_Driver/Inc/stm32g4xx_ll_spi.h **** #define LL_SPI_DATAWIDTH_13BIT             (SPI_CR2_DS_3 | SPI_CR2_DS_2)                           
 238:Drivers/STM32G4xx_HAL_Driver/Inc/stm32g4xx_ll_spi.h **** #define LL_SPI_DATAWIDTH_14BIT             (SPI_CR2_DS_3 | SPI_CR2_DS_2 | SPI_CR2_DS_0)            
 239:Drivers/STM32G4xx_HAL_Driver/Inc/stm32g4xx_ll_spi.h **** #define LL_SPI_DATAWIDTH_15BIT             (SPI_CR2_DS_3 | SPI_CR2_DS_2 | SPI_CR2_DS_1)            
 240:Drivers/STM32G4xx_HAL_Driver/Inc/stm32g4xx_ll_spi.h **** #define LL_SPI_DATAWIDTH_16BIT             (SPI_CR2_DS_3 | SPI_CR2_DS_2 | SPI_CR2_DS_1 | SPI_CR2_DS
 241:Drivers/STM32G4xx_HAL_Driver/Inc/stm32g4xx_ll_spi.h **** /**
 242:Drivers/STM32G4xx_HAL_Driver/Inc/stm32g4xx_ll_spi.h ****   * @}
 243:Drivers/STM32G4xx_HAL_Driver/Inc/stm32g4xx_ll_spi.h ****   */
 244:Drivers/STM32G4xx_HAL_Driver/Inc/stm32g4xx_ll_spi.h **** #if defined(USE_FULL_LL_DRIVER)
 245:Drivers/STM32G4xx_HAL_Driver/Inc/stm32g4xx_ll_spi.h **** 
 246:Drivers/STM32G4xx_HAL_Driver/Inc/stm32g4xx_ll_spi.h **** /** @defgroup SPI_LL_EC_CRC_CALCULATION CRC Calculation
 247:Drivers/STM32G4xx_HAL_Driver/Inc/stm32g4xx_ll_spi.h ****   * @{
 248:Drivers/STM32G4xx_HAL_Driver/Inc/stm32g4xx_ll_spi.h ****   */
 249:Drivers/STM32G4xx_HAL_Driver/Inc/stm32g4xx_ll_spi.h **** #define LL_SPI_CRCCALCULATION_DISABLE      0x00000000U               /*!< CRC calculation disabled 
 250:Drivers/STM32G4xx_HAL_Driver/Inc/stm32g4xx_ll_spi.h **** #define LL_SPI_CRCCALCULATION_ENABLE       (SPI_CR1_CRCEN)           /*!< CRC calculation enabled  
 251:Drivers/STM32G4xx_HAL_Driver/Inc/stm32g4xx_ll_spi.h **** /**
 252:Drivers/STM32G4xx_HAL_Driver/Inc/stm32g4xx_ll_spi.h ****   * @}
 253:Drivers/STM32G4xx_HAL_Driver/Inc/stm32g4xx_ll_spi.h ****   */
 254:Drivers/STM32G4xx_HAL_Driver/Inc/stm32g4xx_ll_spi.h **** #endif /* USE_FULL_LL_DRIVER */
 255:Drivers/STM32G4xx_HAL_Driver/Inc/stm32g4xx_ll_spi.h **** 
 256:Drivers/STM32G4xx_HAL_Driver/Inc/stm32g4xx_ll_spi.h **** /** @defgroup SPI_LL_EC_CRC_LENGTH CRC Length
 257:Drivers/STM32G4xx_HAL_Driver/Inc/stm32g4xx_ll_spi.h ****   * @{
 258:Drivers/STM32G4xx_HAL_Driver/Inc/stm32g4xx_ll_spi.h ****   */
 259:Drivers/STM32G4xx_HAL_Driver/Inc/stm32g4xx_ll_spi.h **** #define LL_SPI_CRC_8BIT                    0x00000000U               /*!<  8-bit CRC length */
ARM GAS  /tmp/ccibP0tT.s 			page 6


 260:Drivers/STM32G4xx_HAL_Driver/Inc/stm32g4xx_ll_spi.h **** #define LL_SPI_CRC_16BIT                   (SPI_CR1_CRCL)            /*!< 16-bit CRC length */
 261:Drivers/STM32G4xx_HAL_Driver/Inc/stm32g4xx_ll_spi.h **** /**
 262:Drivers/STM32G4xx_HAL_Driver/Inc/stm32g4xx_ll_spi.h ****   * @}
 263:Drivers/STM32G4xx_HAL_Driver/Inc/stm32g4xx_ll_spi.h ****   */
 264:Drivers/STM32G4xx_HAL_Driver/Inc/stm32g4xx_ll_spi.h **** 
 265:Drivers/STM32G4xx_HAL_Driver/Inc/stm32g4xx_ll_spi.h **** /** @defgroup SPI_LL_EC_RX_FIFO_TH RX FIFO Threshold
 266:Drivers/STM32G4xx_HAL_Driver/Inc/stm32g4xx_ll_spi.h ****   * @{
 267:Drivers/STM32G4xx_HAL_Driver/Inc/stm32g4xx_ll_spi.h ****   */
 268:Drivers/STM32G4xx_HAL_Driver/Inc/stm32g4xx_ll_spi.h **** #define LL_SPI_RX_FIFO_TH_HALF             0x00000000U               /*!< RXNE event is generated i
 269:Drivers/STM32G4xx_HAL_Driver/Inc/stm32g4xx_ll_spi.h **** #define LL_SPI_RX_FIFO_TH_QUARTER          (SPI_CR2_FRXTH)           /*!< RXNE event is generated i
 270:Drivers/STM32G4xx_HAL_Driver/Inc/stm32g4xx_ll_spi.h **** /**
 271:Drivers/STM32G4xx_HAL_Driver/Inc/stm32g4xx_ll_spi.h ****   * @}
 272:Drivers/STM32G4xx_HAL_Driver/Inc/stm32g4xx_ll_spi.h ****   */
 273:Drivers/STM32G4xx_HAL_Driver/Inc/stm32g4xx_ll_spi.h **** 
 274:Drivers/STM32G4xx_HAL_Driver/Inc/stm32g4xx_ll_spi.h **** /** @defgroup SPI_LL_EC_RX_FIFO RX FIFO Level
 275:Drivers/STM32G4xx_HAL_Driver/Inc/stm32g4xx_ll_spi.h ****   * @{
 276:Drivers/STM32G4xx_HAL_Driver/Inc/stm32g4xx_ll_spi.h ****   */
 277:Drivers/STM32G4xx_HAL_Driver/Inc/stm32g4xx_ll_spi.h **** #define LL_SPI_RX_FIFO_EMPTY               0x00000000U                       /*!< FIFO reception em
 278:Drivers/STM32G4xx_HAL_Driver/Inc/stm32g4xx_ll_spi.h **** #define LL_SPI_RX_FIFO_QUARTER_FULL        (SPI_SR_FRLVL_0)                  /*!< FIFO reception 1/
 279:Drivers/STM32G4xx_HAL_Driver/Inc/stm32g4xx_ll_spi.h **** #define LL_SPI_RX_FIFO_HALF_FULL           (SPI_SR_FRLVL_1)                  /*!< FIFO reception 1/
 280:Drivers/STM32G4xx_HAL_Driver/Inc/stm32g4xx_ll_spi.h **** #define LL_SPI_RX_FIFO_FULL                (SPI_SR_FRLVL_1 | SPI_SR_FRLVL_0) /*!< FIFO reception fu
 281:Drivers/STM32G4xx_HAL_Driver/Inc/stm32g4xx_ll_spi.h **** /**
 282:Drivers/STM32G4xx_HAL_Driver/Inc/stm32g4xx_ll_spi.h ****   * @}
 283:Drivers/STM32G4xx_HAL_Driver/Inc/stm32g4xx_ll_spi.h ****   */
 284:Drivers/STM32G4xx_HAL_Driver/Inc/stm32g4xx_ll_spi.h **** 
 285:Drivers/STM32G4xx_HAL_Driver/Inc/stm32g4xx_ll_spi.h **** /** @defgroup SPI_LL_EC_TX_FIFO TX FIFO Level
 286:Drivers/STM32G4xx_HAL_Driver/Inc/stm32g4xx_ll_spi.h ****   * @{
 287:Drivers/STM32G4xx_HAL_Driver/Inc/stm32g4xx_ll_spi.h ****   */
 288:Drivers/STM32G4xx_HAL_Driver/Inc/stm32g4xx_ll_spi.h **** #define LL_SPI_TX_FIFO_EMPTY               0x00000000U                       /*!< FIFO transmission
 289:Drivers/STM32G4xx_HAL_Driver/Inc/stm32g4xx_ll_spi.h **** #define LL_SPI_TX_FIFO_QUARTER_FULL        (SPI_SR_FTLVL_0)                  /*!< FIFO transmission
 290:Drivers/STM32G4xx_HAL_Driver/Inc/stm32g4xx_ll_spi.h **** #define LL_SPI_TX_FIFO_HALF_FULL           (SPI_SR_FTLVL_1)                  /*!< FIFO transmission
 291:Drivers/STM32G4xx_HAL_Driver/Inc/stm32g4xx_ll_spi.h **** #define LL_SPI_TX_FIFO_FULL                (SPI_SR_FTLVL_1 | SPI_SR_FTLVL_0) /*!< FIFO transmission
 292:Drivers/STM32G4xx_HAL_Driver/Inc/stm32g4xx_ll_spi.h **** /**
 293:Drivers/STM32G4xx_HAL_Driver/Inc/stm32g4xx_ll_spi.h ****   * @}
 294:Drivers/STM32G4xx_HAL_Driver/Inc/stm32g4xx_ll_spi.h ****   */
 295:Drivers/STM32G4xx_HAL_Driver/Inc/stm32g4xx_ll_spi.h **** 
 296:Drivers/STM32G4xx_HAL_Driver/Inc/stm32g4xx_ll_spi.h **** /** @defgroup SPI_LL_EC_DMA_PARITY DMA Parity
 297:Drivers/STM32G4xx_HAL_Driver/Inc/stm32g4xx_ll_spi.h ****   * @{
 298:Drivers/STM32G4xx_HAL_Driver/Inc/stm32g4xx_ll_spi.h ****   */
 299:Drivers/STM32G4xx_HAL_Driver/Inc/stm32g4xx_ll_spi.h **** #define LL_SPI_DMA_PARITY_EVEN             0x00000000U   /*!< Select DMA parity Even */
 300:Drivers/STM32G4xx_HAL_Driver/Inc/stm32g4xx_ll_spi.h **** #define LL_SPI_DMA_PARITY_ODD              0x00000001U   /*!< Select DMA parity Odd  */
 301:Drivers/STM32G4xx_HAL_Driver/Inc/stm32g4xx_ll_spi.h **** 
 302:Drivers/STM32G4xx_HAL_Driver/Inc/stm32g4xx_ll_spi.h **** /**
 303:Drivers/STM32G4xx_HAL_Driver/Inc/stm32g4xx_ll_spi.h ****   * @}
 304:Drivers/STM32G4xx_HAL_Driver/Inc/stm32g4xx_ll_spi.h ****   */
 305:Drivers/STM32G4xx_HAL_Driver/Inc/stm32g4xx_ll_spi.h **** 
 306:Drivers/STM32G4xx_HAL_Driver/Inc/stm32g4xx_ll_spi.h **** /**
 307:Drivers/STM32G4xx_HAL_Driver/Inc/stm32g4xx_ll_spi.h ****   * @}
 308:Drivers/STM32G4xx_HAL_Driver/Inc/stm32g4xx_ll_spi.h ****   */
 309:Drivers/STM32G4xx_HAL_Driver/Inc/stm32g4xx_ll_spi.h **** 
 310:Drivers/STM32G4xx_HAL_Driver/Inc/stm32g4xx_ll_spi.h **** /* Exported macro ------------------------------------------------------------*/
 311:Drivers/STM32G4xx_HAL_Driver/Inc/stm32g4xx_ll_spi.h **** /** @defgroup SPI_LL_Exported_Macros SPI Exported Macros
 312:Drivers/STM32G4xx_HAL_Driver/Inc/stm32g4xx_ll_spi.h ****   * @{
 313:Drivers/STM32G4xx_HAL_Driver/Inc/stm32g4xx_ll_spi.h ****   */
 314:Drivers/STM32G4xx_HAL_Driver/Inc/stm32g4xx_ll_spi.h **** 
 315:Drivers/STM32G4xx_HAL_Driver/Inc/stm32g4xx_ll_spi.h **** /** @defgroup SPI_LL_EM_WRITE_READ Common Write and read registers Macros
 316:Drivers/STM32G4xx_HAL_Driver/Inc/stm32g4xx_ll_spi.h ****   * @{
ARM GAS  /tmp/ccibP0tT.s 			page 7


 317:Drivers/STM32G4xx_HAL_Driver/Inc/stm32g4xx_ll_spi.h ****   */
 318:Drivers/STM32G4xx_HAL_Driver/Inc/stm32g4xx_ll_spi.h **** 
 319:Drivers/STM32G4xx_HAL_Driver/Inc/stm32g4xx_ll_spi.h **** /**
 320:Drivers/STM32G4xx_HAL_Driver/Inc/stm32g4xx_ll_spi.h ****   * @brief  Write a value in SPI register
 321:Drivers/STM32G4xx_HAL_Driver/Inc/stm32g4xx_ll_spi.h ****   * @param  __INSTANCE__ SPI Instance
 322:Drivers/STM32G4xx_HAL_Driver/Inc/stm32g4xx_ll_spi.h ****   * @param  __REG__ Register to be written
 323:Drivers/STM32G4xx_HAL_Driver/Inc/stm32g4xx_ll_spi.h ****   * @param  __VALUE__ Value to be written in the register
 324:Drivers/STM32G4xx_HAL_Driver/Inc/stm32g4xx_ll_spi.h ****   * @retval None
 325:Drivers/STM32G4xx_HAL_Driver/Inc/stm32g4xx_ll_spi.h ****   */
 326:Drivers/STM32G4xx_HAL_Driver/Inc/stm32g4xx_ll_spi.h **** #define LL_SPI_WriteReg(__INSTANCE__, __REG__, __VALUE__) WRITE_REG(__INSTANCE__->__REG__, (__VALUE
 327:Drivers/STM32G4xx_HAL_Driver/Inc/stm32g4xx_ll_spi.h **** 
 328:Drivers/STM32G4xx_HAL_Driver/Inc/stm32g4xx_ll_spi.h **** /**
 329:Drivers/STM32G4xx_HAL_Driver/Inc/stm32g4xx_ll_spi.h ****   * @brief  Read a value in SPI register
 330:Drivers/STM32G4xx_HAL_Driver/Inc/stm32g4xx_ll_spi.h ****   * @param  __INSTANCE__ SPI Instance
 331:Drivers/STM32G4xx_HAL_Driver/Inc/stm32g4xx_ll_spi.h ****   * @param  __REG__ Register to be read
 332:Drivers/STM32G4xx_HAL_Driver/Inc/stm32g4xx_ll_spi.h ****   * @retval Register value
 333:Drivers/STM32G4xx_HAL_Driver/Inc/stm32g4xx_ll_spi.h ****   */
 334:Drivers/STM32G4xx_HAL_Driver/Inc/stm32g4xx_ll_spi.h **** #define LL_SPI_ReadReg(__INSTANCE__, __REG__) READ_REG(__INSTANCE__->__REG__)
 335:Drivers/STM32G4xx_HAL_Driver/Inc/stm32g4xx_ll_spi.h **** /**
 336:Drivers/STM32G4xx_HAL_Driver/Inc/stm32g4xx_ll_spi.h ****   * @}
 337:Drivers/STM32G4xx_HAL_Driver/Inc/stm32g4xx_ll_spi.h ****   */
 338:Drivers/STM32G4xx_HAL_Driver/Inc/stm32g4xx_ll_spi.h **** 
 339:Drivers/STM32G4xx_HAL_Driver/Inc/stm32g4xx_ll_spi.h **** /**
 340:Drivers/STM32G4xx_HAL_Driver/Inc/stm32g4xx_ll_spi.h ****   * @}
 341:Drivers/STM32G4xx_HAL_Driver/Inc/stm32g4xx_ll_spi.h ****   */
 342:Drivers/STM32G4xx_HAL_Driver/Inc/stm32g4xx_ll_spi.h **** 
 343:Drivers/STM32G4xx_HAL_Driver/Inc/stm32g4xx_ll_spi.h **** /* Exported functions --------------------------------------------------------*/
 344:Drivers/STM32G4xx_HAL_Driver/Inc/stm32g4xx_ll_spi.h **** /** @defgroup SPI_LL_Exported_Functions SPI Exported Functions
 345:Drivers/STM32G4xx_HAL_Driver/Inc/stm32g4xx_ll_spi.h ****   * @{
 346:Drivers/STM32G4xx_HAL_Driver/Inc/stm32g4xx_ll_spi.h ****   */
 347:Drivers/STM32G4xx_HAL_Driver/Inc/stm32g4xx_ll_spi.h **** 
 348:Drivers/STM32G4xx_HAL_Driver/Inc/stm32g4xx_ll_spi.h **** /** @defgroup SPI_LL_EF_Configuration Configuration
 349:Drivers/STM32G4xx_HAL_Driver/Inc/stm32g4xx_ll_spi.h ****   * @{
 350:Drivers/STM32G4xx_HAL_Driver/Inc/stm32g4xx_ll_spi.h ****   */
 351:Drivers/STM32G4xx_HAL_Driver/Inc/stm32g4xx_ll_spi.h **** 
 352:Drivers/STM32G4xx_HAL_Driver/Inc/stm32g4xx_ll_spi.h **** /**
 353:Drivers/STM32G4xx_HAL_Driver/Inc/stm32g4xx_ll_spi.h ****   * @brief  Enable SPI peripheral
 354:Drivers/STM32G4xx_HAL_Driver/Inc/stm32g4xx_ll_spi.h ****   * @rmtoll CR1          SPE           LL_SPI_Enable
 355:Drivers/STM32G4xx_HAL_Driver/Inc/stm32g4xx_ll_spi.h ****   * @param  SPIx SPI Instance
 356:Drivers/STM32G4xx_HAL_Driver/Inc/stm32g4xx_ll_spi.h ****   * @retval None
 357:Drivers/STM32G4xx_HAL_Driver/Inc/stm32g4xx_ll_spi.h ****   */
 358:Drivers/STM32G4xx_HAL_Driver/Inc/stm32g4xx_ll_spi.h **** __STATIC_INLINE void LL_SPI_Enable(SPI_TypeDef *SPIx)
 359:Drivers/STM32G4xx_HAL_Driver/Inc/stm32g4xx_ll_spi.h **** {
 360:Drivers/STM32G4xx_HAL_Driver/Inc/stm32g4xx_ll_spi.h ****   SET_BIT(SPIx->CR1, SPI_CR1_SPE);
 361:Drivers/STM32G4xx_HAL_Driver/Inc/stm32g4xx_ll_spi.h **** }
 362:Drivers/STM32G4xx_HAL_Driver/Inc/stm32g4xx_ll_spi.h **** 
 363:Drivers/STM32G4xx_HAL_Driver/Inc/stm32g4xx_ll_spi.h **** /**
 364:Drivers/STM32G4xx_HAL_Driver/Inc/stm32g4xx_ll_spi.h ****   * @brief  Disable SPI peripheral
 365:Drivers/STM32G4xx_HAL_Driver/Inc/stm32g4xx_ll_spi.h ****   * @note   When disabling the SPI, follow the procedure described in the Reference Manual.
 366:Drivers/STM32G4xx_HAL_Driver/Inc/stm32g4xx_ll_spi.h ****   * @rmtoll CR1          SPE           LL_SPI_Disable
 367:Drivers/STM32G4xx_HAL_Driver/Inc/stm32g4xx_ll_spi.h ****   * @param  SPIx SPI Instance
 368:Drivers/STM32G4xx_HAL_Driver/Inc/stm32g4xx_ll_spi.h ****   * @retval None
 369:Drivers/STM32G4xx_HAL_Driver/Inc/stm32g4xx_ll_spi.h ****   */
 370:Drivers/STM32G4xx_HAL_Driver/Inc/stm32g4xx_ll_spi.h **** __STATIC_INLINE void LL_SPI_Disable(SPI_TypeDef *SPIx)
 371:Drivers/STM32G4xx_HAL_Driver/Inc/stm32g4xx_ll_spi.h **** {
 372:Drivers/STM32G4xx_HAL_Driver/Inc/stm32g4xx_ll_spi.h ****   CLEAR_BIT(SPIx->CR1, SPI_CR1_SPE);
 373:Drivers/STM32G4xx_HAL_Driver/Inc/stm32g4xx_ll_spi.h **** }
ARM GAS  /tmp/ccibP0tT.s 			page 8


 374:Drivers/STM32G4xx_HAL_Driver/Inc/stm32g4xx_ll_spi.h **** 
 375:Drivers/STM32G4xx_HAL_Driver/Inc/stm32g4xx_ll_spi.h **** /**
 376:Drivers/STM32G4xx_HAL_Driver/Inc/stm32g4xx_ll_spi.h ****   * @brief  Check if SPI peripheral is enabled
 377:Drivers/STM32G4xx_HAL_Driver/Inc/stm32g4xx_ll_spi.h ****   * @rmtoll CR1          SPE           LL_SPI_IsEnabled
 378:Drivers/STM32G4xx_HAL_Driver/Inc/stm32g4xx_ll_spi.h ****   * @param  SPIx SPI Instance
 379:Drivers/STM32G4xx_HAL_Driver/Inc/stm32g4xx_ll_spi.h ****   * @retval State of bit (1 or 0).
 380:Drivers/STM32G4xx_HAL_Driver/Inc/stm32g4xx_ll_spi.h ****   */
 381:Drivers/STM32G4xx_HAL_Driver/Inc/stm32g4xx_ll_spi.h **** __STATIC_INLINE uint32_t LL_SPI_IsEnabled(SPI_TypeDef *SPIx)
 382:Drivers/STM32G4xx_HAL_Driver/Inc/stm32g4xx_ll_spi.h **** {
  28              		.loc 1 382 1
  29              		.cfi_startproc
  30              		@ args = 0, pretend = 0, frame = 8
  31              		@ frame_needed = 1, uses_anonymous_args = 0
  32              		@ link register save eliminated.
  33 0000 80B4     		push	{r7}
  34              	.LCFI0:
  35              		.cfi_def_cfa_offset 4
  36              		.cfi_offset 7, -4
  37 0002 83B0     		sub	sp, sp, #12
  38              	.LCFI1:
  39              		.cfi_def_cfa_offset 16
  40 0004 00AF     		add	r7, sp, #0
  41              	.LCFI2:
  42              		.cfi_def_cfa_register 7
  43 0006 7860     		str	r0, [r7, #4]
 383:Drivers/STM32G4xx_HAL_Driver/Inc/stm32g4xx_ll_spi.h ****   return ((READ_BIT(SPIx->CR1, SPI_CR1_SPE) == (SPI_CR1_SPE)) ? 1UL : 0UL);
  44              		.loc 1 383 12
  45 0008 7B68     		ldr	r3, [r7, #4]
  46 000a 1B68     		ldr	r3, [r3]
  47 000c 03F04003 		and	r3, r3, #64
  48              		.loc 1 383 69
  49 0010 402B     		cmp	r3, #64
  50 0012 01D1     		bne	.L2
  51              		.loc 1 383 69 is_stmt 0 discriminator 1
  52 0014 0123     		movs	r3, #1
  53 0016 00E0     		b	.L4
  54              	.L2:
  55              		.loc 1 383 69 discriminator 2
  56 0018 0023     		movs	r3, #0
  57              	.L4:
 384:Drivers/STM32G4xx_HAL_Driver/Inc/stm32g4xx_ll_spi.h **** }
  58              		.loc 1 384 1 is_stmt 1 discriminator 5
  59 001a 1846     		mov	r0, r3
  60 001c 0C37     		adds	r7, r7, #12
  61              	.LCFI3:
  62              		.cfi_def_cfa_offset 4
  63 001e BD46     		mov	sp, r7
  64              	.LCFI4:
  65              		.cfi_def_cfa_register 13
  66              		@ sp needed
  67 0020 5DF8047B 		ldr	r7, [sp], #4
  68              	.LCFI5:
  69              		.cfi_restore 7
  70              		.cfi_def_cfa_offset 0
  71 0024 7047     		bx	lr
  72              		.cfi_endproc
  73              	.LFE134:
ARM GAS  /tmp/ccibP0tT.s 			page 9


  75              		.section	.text.LL_SPI_SetRxFIFOThreshold,"ax",%progbits
  76              		.align	1
  77              		.syntax unified
  78              		.thumb
  79              		.thumb_func
  80              		.fpu fpv4-sp-d16
  82              	LL_SPI_SetRxFIFOThreshold:
  83              	.LFB151:
 385:Drivers/STM32G4xx_HAL_Driver/Inc/stm32g4xx_ll_spi.h **** 
 386:Drivers/STM32G4xx_HAL_Driver/Inc/stm32g4xx_ll_spi.h **** /**
 387:Drivers/STM32G4xx_HAL_Driver/Inc/stm32g4xx_ll_spi.h ****   * @brief  Set SPI operation mode to Master or Slave
 388:Drivers/STM32G4xx_HAL_Driver/Inc/stm32g4xx_ll_spi.h ****   * @note   This bit should not be changed when communication is ongoing.
 389:Drivers/STM32G4xx_HAL_Driver/Inc/stm32g4xx_ll_spi.h ****   * @rmtoll CR1          MSTR          LL_SPI_SetMode\n
 390:Drivers/STM32G4xx_HAL_Driver/Inc/stm32g4xx_ll_spi.h ****   *         CR1          SSI           LL_SPI_SetMode
 391:Drivers/STM32G4xx_HAL_Driver/Inc/stm32g4xx_ll_spi.h ****   * @param  SPIx SPI Instance
 392:Drivers/STM32G4xx_HAL_Driver/Inc/stm32g4xx_ll_spi.h ****   * @param  Mode This parameter can be one of the following values:
 393:Drivers/STM32G4xx_HAL_Driver/Inc/stm32g4xx_ll_spi.h ****   *         @arg @ref LL_SPI_MODE_MASTER
 394:Drivers/STM32G4xx_HAL_Driver/Inc/stm32g4xx_ll_spi.h ****   *         @arg @ref LL_SPI_MODE_SLAVE
 395:Drivers/STM32G4xx_HAL_Driver/Inc/stm32g4xx_ll_spi.h ****   * @retval None
 396:Drivers/STM32G4xx_HAL_Driver/Inc/stm32g4xx_ll_spi.h ****   */
 397:Drivers/STM32G4xx_HAL_Driver/Inc/stm32g4xx_ll_spi.h **** __STATIC_INLINE void LL_SPI_SetMode(SPI_TypeDef *SPIx, uint32_t Mode)
 398:Drivers/STM32G4xx_HAL_Driver/Inc/stm32g4xx_ll_spi.h **** {
 399:Drivers/STM32G4xx_HAL_Driver/Inc/stm32g4xx_ll_spi.h ****   MODIFY_REG(SPIx->CR1, SPI_CR1_MSTR | SPI_CR1_SSI, Mode);
 400:Drivers/STM32G4xx_HAL_Driver/Inc/stm32g4xx_ll_spi.h **** }
 401:Drivers/STM32G4xx_HAL_Driver/Inc/stm32g4xx_ll_spi.h **** 
 402:Drivers/STM32G4xx_HAL_Driver/Inc/stm32g4xx_ll_spi.h **** /**
 403:Drivers/STM32G4xx_HAL_Driver/Inc/stm32g4xx_ll_spi.h ****   * @brief  Get SPI operation mode (Master or Slave)
 404:Drivers/STM32G4xx_HAL_Driver/Inc/stm32g4xx_ll_spi.h ****   * @rmtoll CR1          MSTR          LL_SPI_GetMode\n
 405:Drivers/STM32G4xx_HAL_Driver/Inc/stm32g4xx_ll_spi.h ****   *         CR1          SSI           LL_SPI_GetMode
 406:Drivers/STM32G4xx_HAL_Driver/Inc/stm32g4xx_ll_spi.h ****   * @param  SPIx SPI Instance
 407:Drivers/STM32G4xx_HAL_Driver/Inc/stm32g4xx_ll_spi.h ****   * @retval Returned value can be one of the following values:
 408:Drivers/STM32G4xx_HAL_Driver/Inc/stm32g4xx_ll_spi.h ****   *         @arg @ref LL_SPI_MODE_MASTER
 409:Drivers/STM32G4xx_HAL_Driver/Inc/stm32g4xx_ll_spi.h ****   *         @arg @ref LL_SPI_MODE_SLAVE
 410:Drivers/STM32G4xx_HAL_Driver/Inc/stm32g4xx_ll_spi.h ****   */
 411:Drivers/STM32G4xx_HAL_Driver/Inc/stm32g4xx_ll_spi.h **** __STATIC_INLINE uint32_t LL_SPI_GetMode(SPI_TypeDef *SPIx)
 412:Drivers/STM32G4xx_HAL_Driver/Inc/stm32g4xx_ll_spi.h **** {
 413:Drivers/STM32G4xx_HAL_Driver/Inc/stm32g4xx_ll_spi.h ****   return (uint32_t)(READ_BIT(SPIx->CR1, SPI_CR1_MSTR | SPI_CR1_SSI));
 414:Drivers/STM32G4xx_HAL_Driver/Inc/stm32g4xx_ll_spi.h **** }
 415:Drivers/STM32G4xx_HAL_Driver/Inc/stm32g4xx_ll_spi.h **** 
 416:Drivers/STM32G4xx_HAL_Driver/Inc/stm32g4xx_ll_spi.h **** /**
 417:Drivers/STM32G4xx_HAL_Driver/Inc/stm32g4xx_ll_spi.h ****   * @brief  Set serial protocol used
 418:Drivers/STM32G4xx_HAL_Driver/Inc/stm32g4xx_ll_spi.h ****   * @note   This bit should be written only when SPI is disabled (SPE = 0) for correct operation.
 419:Drivers/STM32G4xx_HAL_Driver/Inc/stm32g4xx_ll_spi.h ****   * @rmtoll CR2          FRF           LL_SPI_SetStandard
 420:Drivers/STM32G4xx_HAL_Driver/Inc/stm32g4xx_ll_spi.h ****   * @param  SPIx SPI Instance
 421:Drivers/STM32G4xx_HAL_Driver/Inc/stm32g4xx_ll_spi.h ****   * @param  Standard This parameter can be one of the following values:
 422:Drivers/STM32G4xx_HAL_Driver/Inc/stm32g4xx_ll_spi.h ****   *         @arg @ref LL_SPI_PROTOCOL_MOTOROLA
 423:Drivers/STM32G4xx_HAL_Driver/Inc/stm32g4xx_ll_spi.h ****   *         @arg @ref LL_SPI_PROTOCOL_TI
 424:Drivers/STM32G4xx_HAL_Driver/Inc/stm32g4xx_ll_spi.h ****   * @retval None
 425:Drivers/STM32G4xx_HAL_Driver/Inc/stm32g4xx_ll_spi.h ****   */
 426:Drivers/STM32G4xx_HAL_Driver/Inc/stm32g4xx_ll_spi.h **** __STATIC_INLINE void LL_SPI_SetStandard(SPI_TypeDef *SPIx, uint32_t Standard)
 427:Drivers/STM32G4xx_HAL_Driver/Inc/stm32g4xx_ll_spi.h **** {
 428:Drivers/STM32G4xx_HAL_Driver/Inc/stm32g4xx_ll_spi.h ****   MODIFY_REG(SPIx->CR2, SPI_CR2_FRF, Standard);
 429:Drivers/STM32G4xx_HAL_Driver/Inc/stm32g4xx_ll_spi.h **** }
 430:Drivers/STM32G4xx_HAL_Driver/Inc/stm32g4xx_ll_spi.h **** 
 431:Drivers/STM32G4xx_HAL_Driver/Inc/stm32g4xx_ll_spi.h **** /**
 432:Drivers/STM32G4xx_HAL_Driver/Inc/stm32g4xx_ll_spi.h ****   * @brief  Get serial protocol used
 433:Drivers/STM32G4xx_HAL_Driver/Inc/stm32g4xx_ll_spi.h ****   * @rmtoll CR2          FRF           LL_SPI_GetStandard
ARM GAS  /tmp/ccibP0tT.s 			page 10


 434:Drivers/STM32G4xx_HAL_Driver/Inc/stm32g4xx_ll_spi.h ****   * @param  SPIx SPI Instance
 435:Drivers/STM32G4xx_HAL_Driver/Inc/stm32g4xx_ll_spi.h ****   * @retval Returned value can be one of the following values:
 436:Drivers/STM32G4xx_HAL_Driver/Inc/stm32g4xx_ll_spi.h ****   *         @arg @ref LL_SPI_PROTOCOL_MOTOROLA
 437:Drivers/STM32G4xx_HAL_Driver/Inc/stm32g4xx_ll_spi.h ****   *         @arg @ref LL_SPI_PROTOCOL_TI
 438:Drivers/STM32G4xx_HAL_Driver/Inc/stm32g4xx_ll_spi.h ****   */
 439:Drivers/STM32G4xx_HAL_Driver/Inc/stm32g4xx_ll_spi.h **** __STATIC_INLINE uint32_t LL_SPI_GetStandard(SPI_TypeDef *SPIx)
 440:Drivers/STM32G4xx_HAL_Driver/Inc/stm32g4xx_ll_spi.h **** {
 441:Drivers/STM32G4xx_HAL_Driver/Inc/stm32g4xx_ll_spi.h ****   return (uint32_t)(READ_BIT(SPIx->CR2, SPI_CR2_FRF));
 442:Drivers/STM32G4xx_HAL_Driver/Inc/stm32g4xx_ll_spi.h **** }
 443:Drivers/STM32G4xx_HAL_Driver/Inc/stm32g4xx_ll_spi.h **** 
 444:Drivers/STM32G4xx_HAL_Driver/Inc/stm32g4xx_ll_spi.h **** /**
 445:Drivers/STM32G4xx_HAL_Driver/Inc/stm32g4xx_ll_spi.h ****   * @brief  Set clock phase
 446:Drivers/STM32G4xx_HAL_Driver/Inc/stm32g4xx_ll_spi.h ****   * @note   This bit should not be changed when communication is ongoing.
 447:Drivers/STM32G4xx_HAL_Driver/Inc/stm32g4xx_ll_spi.h ****   *         This bit is not used in SPI TI mode.
 448:Drivers/STM32G4xx_HAL_Driver/Inc/stm32g4xx_ll_spi.h ****   * @rmtoll CR1          CPHA          LL_SPI_SetClockPhase
 449:Drivers/STM32G4xx_HAL_Driver/Inc/stm32g4xx_ll_spi.h ****   * @param  SPIx SPI Instance
 450:Drivers/STM32G4xx_HAL_Driver/Inc/stm32g4xx_ll_spi.h ****   * @param  ClockPhase This parameter can be one of the following values:
 451:Drivers/STM32G4xx_HAL_Driver/Inc/stm32g4xx_ll_spi.h ****   *         @arg @ref LL_SPI_PHASE_1EDGE
 452:Drivers/STM32G4xx_HAL_Driver/Inc/stm32g4xx_ll_spi.h ****   *         @arg @ref LL_SPI_PHASE_2EDGE
 453:Drivers/STM32G4xx_HAL_Driver/Inc/stm32g4xx_ll_spi.h ****   * @retval None
 454:Drivers/STM32G4xx_HAL_Driver/Inc/stm32g4xx_ll_spi.h ****   */
 455:Drivers/STM32G4xx_HAL_Driver/Inc/stm32g4xx_ll_spi.h **** __STATIC_INLINE void LL_SPI_SetClockPhase(SPI_TypeDef *SPIx, uint32_t ClockPhase)
 456:Drivers/STM32G4xx_HAL_Driver/Inc/stm32g4xx_ll_spi.h **** {
 457:Drivers/STM32G4xx_HAL_Driver/Inc/stm32g4xx_ll_spi.h ****   MODIFY_REG(SPIx->CR1, SPI_CR1_CPHA, ClockPhase);
 458:Drivers/STM32G4xx_HAL_Driver/Inc/stm32g4xx_ll_spi.h **** }
 459:Drivers/STM32G4xx_HAL_Driver/Inc/stm32g4xx_ll_spi.h **** 
 460:Drivers/STM32G4xx_HAL_Driver/Inc/stm32g4xx_ll_spi.h **** /**
 461:Drivers/STM32G4xx_HAL_Driver/Inc/stm32g4xx_ll_spi.h ****   * @brief  Get clock phase
 462:Drivers/STM32G4xx_HAL_Driver/Inc/stm32g4xx_ll_spi.h ****   * @rmtoll CR1          CPHA          LL_SPI_GetClockPhase
 463:Drivers/STM32G4xx_HAL_Driver/Inc/stm32g4xx_ll_spi.h ****   * @param  SPIx SPI Instance
 464:Drivers/STM32G4xx_HAL_Driver/Inc/stm32g4xx_ll_spi.h ****   * @retval Returned value can be one of the following values:
 465:Drivers/STM32G4xx_HAL_Driver/Inc/stm32g4xx_ll_spi.h ****   *         @arg @ref LL_SPI_PHASE_1EDGE
 466:Drivers/STM32G4xx_HAL_Driver/Inc/stm32g4xx_ll_spi.h ****   *         @arg @ref LL_SPI_PHASE_2EDGE
 467:Drivers/STM32G4xx_HAL_Driver/Inc/stm32g4xx_ll_spi.h ****   */
 468:Drivers/STM32G4xx_HAL_Driver/Inc/stm32g4xx_ll_spi.h **** __STATIC_INLINE uint32_t LL_SPI_GetClockPhase(SPI_TypeDef *SPIx)
 469:Drivers/STM32G4xx_HAL_Driver/Inc/stm32g4xx_ll_spi.h **** {
 470:Drivers/STM32G4xx_HAL_Driver/Inc/stm32g4xx_ll_spi.h ****   return (uint32_t)(READ_BIT(SPIx->CR1, SPI_CR1_CPHA));
 471:Drivers/STM32G4xx_HAL_Driver/Inc/stm32g4xx_ll_spi.h **** }
 472:Drivers/STM32G4xx_HAL_Driver/Inc/stm32g4xx_ll_spi.h **** 
 473:Drivers/STM32G4xx_HAL_Driver/Inc/stm32g4xx_ll_spi.h **** /**
 474:Drivers/STM32G4xx_HAL_Driver/Inc/stm32g4xx_ll_spi.h ****   * @brief  Set clock polarity
 475:Drivers/STM32G4xx_HAL_Driver/Inc/stm32g4xx_ll_spi.h ****   * @note   This bit should not be changed when communication is ongoing.
 476:Drivers/STM32G4xx_HAL_Driver/Inc/stm32g4xx_ll_spi.h ****   *         This bit is not used in SPI TI mode.
 477:Drivers/STM32G4xx_HAL_Driver/Inc/stm32g4xx_ll_spi.h ****   * @rmtoll CR1          CPOL          LL_SPI_SetClockPolarity
 478:Drivers/STM32G4xx_HAL_Driver/Inc/stm32g4xx_ll_spi.h ****   * @param  SPIx SPI Instance
 479:Drivers/STM32G4xx_HAL_Driver/Inc/stm32g4xx_ll_spi.h ****   * @param  ClockPolarity This parameter can be one of the following values:
 480:Drivers/STM32G4xx_HAL_Driver/Inc/stm32g4xx_ll_spi.h ****   *         @arg @ref LL_SPI_POLARITY_LOW
 481:Drivers/STM32G4xx_HAL_Driver/Inc/stm32g4xx_ll_spi.h ****   *         @arg @ref LL_SPI_POLARITY_HIGH
 482:Drivers/STM32G4xx_HAL_Driver/Inc/stm32g4xx_ll_spi.h ****   * @retval None
 483:Drivers/STM32G4xx_HAL_Driver/Inc/stm32g4xx_ll_spi.h ****   */
 484:Drivers/STM32G4xx_HAL_Driver/Inc/stm32g4xx_ll_spi.h **** __STATIC_INLINE void LL_SPI_SetClockPolarity(SPI_TypeDef *SPIx, uint32_t ClockPolarity)
 485:Drivers/STM32G4xx_HAL_Driver/Inc/stm32g4xx_ll_spi.h **** {
 486:Drivers/STM32G4xx_HAL_Driver/Inc/stm32g4xx_ll_spi.h ****   MODIFY_REG(SPIx->CR1, SPI_CR1_CPOL, ClockPolarity);
 487:Drivers/STM32G4xx_HAL_Driver/Inc/stm32g4xx_ll_spi.h **** }
 488:Drivers/STM32G4xx_HAL_Driver/Inc/stm32g4xx_ll_spi.h **** 
 489:Drivers/STM32G4xx_HAL_Driver/Inc/stm32g4xx_ll_spi.h **** /**
 490:Drivers/STM32G4xx_HAL_Driver/Inc/stm32g4xx_ll_spi.h ****   * @brief  Get clock polarity
ARM GAS  /tmp/ccibP0tT.s 			page 11


 491:Drivers/STM32G4xx_HAL_Driver/Inc/stm32g4xx_ll_spi.h ****   * @rmtoll CR1          CPOL          LL_SPI_GetClockPolarity
 492:Drivers/STM32G4xx_HAL_Driver/Inc/stm32g4xx_ll_spi.h ****   * @param  SPIx SPI Instance
 493:Drivers/STM32G4xx_HAL_Driver/Inc/stm32g4xx_ll_spi.h ****   * @retval Returned value can be one of the following values:
 494:Drivers/STM32G4xx_HAL_Driver/Inc/stm32g4xx_ll_spi.h ****   *         @arg @ref LL_SPI_POLARITY_LOW
 495:Drivers/STM32G4xx_HAL_Driver/Inc/stm32g4xx_ll_spi.h ****   *         @arg @ref LL_SPI_POLARITY_HIGH
 496:Drivers/STM32G4xx_HAL_Driver/Inc/stm32g4xx_ll_spi.h ****   */
 497:Drivers/STM32G4xx_HAL_Driver/Inc/stm32g4xx_ll_spi.h **** __STATIC_INLINE uint32_t LL_SPI_GetClockPolarity(SPI_TypeDef *SPIx)
 498:Drivers/STM32G4xx_HAL_Driver/Inc/stm32g4xx_ll_spi.h **** {
 499:Drivers/STM32G4xx_HAL_Driver/Inc/stm32g4xx_ll_spi.h ****   return (uint32_t)(READ_BIT(SPIx->CR1, SPI_CR1_CPOL));
 500:Drivers/STM32G4xx_HAL_Driver/Inc/stm32g4xx_ll_spi.h **** }
 501:Drivers/STM32G4xx_HAL_Driver/Inc/stm32g4xx_ll_spi.h **** 
 502:Drivers/STM32G4xx_HAL_Driver/Inc/stm32g4xx_ll_spi.h **** /**
 503:Drivers/STM32G4xx_HAL_Driver/Inc/stm32g4xx_ll_spi.h ****   * @brief  Set baud rate prescaler
 504:Drivers/STM32G4xx_HAL_Driver/Inc/stm32g4xx_ll_spi.h ****   * @note   These bits should not be changed when communication is ongoing. SPI BaudRate = fPCLK/Pr
 505:Drivers/STM32G4xx_HAL_Driver/Inc/stm32g4xx_ll_spi.h ****   * @rmtoll CR1          BR            LL_SPI_SetBaudRatePrescaler
 506:Drivers/STM32G4xx_HAL_Driver/Inc/stm32g4xx_ll_spi.h ****   * @param  SPIx SPI Instance
 507:Drivers/STM32G4xx_HAL_Driver/Inc/stm32g4xx_ll_spi.h ****   * @param  BaudRate This parameter can be one of the following values:
 508:Drivers/STM32G4xx_HAL_Driver/Inc/stm32g4xx_ll_spi.h ****   *         @arg @ref LL_SPI_BAUDRATEPRESCALER_DIV2
 509:Drivers/STM32G4xx_HAL_Driver/Inc/stm32g4xx_ll_spi.h ****   *         @arg @ref LL_SPI_BAUDRATEPRESCALER_DIV4
 510:Drivers/STM32G4xx_HAL_Driver/Inc/stm32g4xx_ll_spi.h ****   *         @arg @ref LL_SPI_BAUDRATEPRESCALER_DIV8
 511:Drivers/STM32G4xx_HAL_Driver/Inc/stm32g4xx_ll_spi.h ****   *         @arg @ref LL_SPI_BAUDRATEPRESCALER_DIV16
 512:Drivers/STM32G4xx_HAL_Driver/Inc/stm32g4xx_ll_spi.h ****   *         @arg @ref LL_SPI_BAUDRATEPRESCALER_DIV32
 513:Drivers/STM32G4xx_HAL_Driver/Inc/stm32g4xx_ll_spi.h ****   *         @arg @ref LL_SPI_BAUDRATEPRESCALER_DIV64
 514:Drivers/STM32G4xx_HAL_Driver/Inc/stm32g4xx_ll_spi.h ****   *         @arg @ref LL_SPI_BAUDRATEPRESCALER_DIV128
 515:Drivers/STM32G4xx_HAL_Driver/Inc/stm32g4xx_ll_spi.h ****   *         @arg @ref LL_SPI_BAUDRATEPRESCALER_DIV256
 516:Drivers/STM32G4xx_HAL_Driver/Inc/stm32g4xx_ll_spi.h ****   * @retval None
 517:Drivers/STM32G4xx_HAL_Driver/Inc/stm32g4xx_ll_spi.h ****   */
 518:Drivers/STM32G4xx_HAL_Driver/Inc/stm32g4xx_ll_spi.h **** __STATIC_INLINE void LL_SPI_SetBaudRatePrescaler(SPI_TypeDef *SPIx, uint32_t BaudRate)
 519:Drivers/STM32G4xx_HAL_Driver/Inc/stm32g4xx_ll_spi.h **** {
 520:Drivers/STM32G4xx_HAL_Driver/Inc/stm32g4xx_ll_spi.h ****   MODIFY_REG(SPIx->CR1, SPI_CR1_BR, BaudRate);
 521:Drivers/STM32G4xx_HAL_Driver/Inc/stm32g4xx_ll_spi.h **** }
 522:Drivers/STM32G4xx_HAL_Driver/Inc/stm32g4xx_ll_spi.h **** 
 523:Drivers/STM32G4xx_HAL_Driver/Inc/stm32g4xx_ll_spi.h **** /**
 524:Drivers/STM32G4xx_HAL_Driver/Inc/stm32g4xx_ll_spi.h ****   * @brief  Get baud rate prescaler
 525:Drivers/STM32G4xx_HAL_Driver/Inc/stm32g4xx_ll_spi.h ****   * @rmtoll CR1          BR            LL_SPI_GetBaudRatePrescaler
 526:Drivers/STM32G4xx_HAL_Driver/Inc/stm32g4xx_ll_spi.h ****   * @param  SPIx SPI Instance
 527:Drivers/STM32G4xx_HAL_Driver/Inc/stm32g4xx_ll_spi.h ****   * @retval Returned value can be one of the following values:
 528:Drivers/STM32G4xx_HAL_Driver/Inc/stm32g4xx_ll_spi.h ****   *         @arg @ref LL_SPI_BAUDRATEPRESCALER_DIV2
 529:Drivers/STM32G4xx_HAL_Driver/Inc/stm32g4xx_ll_spi.h ****   *         @arg @ref LL_SPI_BAUDRATEPRESCALER_DIV4
 530:Drivers/STM32G4xx_HAL_Driver/Inc/stm32g4xx_ll_spi.h ****   *         @arg @ref LL_SPI_BAUDRATEPRESCALER_DIV8
 531:Drivers/STM32G4xx_HAL_Driver/Inc/stm32g4xx_ll_spi.h ****   *         @arg @ref LL_SPI_BAUDRATEPRESCALER_DIV16
 532:Drivers/STM32G4xx_HAL_Driver/Inc/stm32g4xx_ll_spi.h ****   *         @arg @ref LL_SPI_BAUDRATEPRESCALER_DIV32
 533:Drivers/STM32G4xx_HAL_Driver/Inc/stm32g4xx_ll_spi.h ****   *         @arg @ref LL_SPI_BAUDRATEPRESCALER_DIV64
 534:Drivers/STM32G4xx_HAL_Driver/Inc/stm32g4xx_ll_spi.h ****   *         @arg @ref LL_SPI_BAUDRATEPRESCALER_DIV128
 535:Drivers/STM32G4xx_HAL_Driver/Inc/stm32g4xx_ll_spi.h ****   *         @arg @ref LL_SPI_BAUDRATEPRESCALER_DIV256
 536:Drivers/STM32G4xx_HAL_Driver/Inc/stm32g4xx_ll_spi.h ****   */
 537:Drivers/STM32G4xx_HAL_Driver/Inc/stm32g4xx_ll_spi.h **** __STATIC_INLINE uint32_t LL_SPI_GetBaudRatePrescaler(SPI_TypeDef *SPIx)
 538:Drivers/STM32G4xx_HAL_Driver/Inc/stm32g4xx_ll_spi.h **** {
 539:Drivers/STM32G4xx_HAL_Driver/Inc/stm32g4xx_ll_spi.h ****   return (uint32_t)(READ_BIT(SPIx->CR1, SPI_CR1_BR));
 540:Drivers/STM32G4xx_HAL_Driver/Inc/stm32g4xx_ll_spi.h **** }
 541:Drivers/STM32G4xx_HAL_Driver/Inc/stm32g4xx_ll_spi.h **** 
 542:Drivers/STM32G4xx_HAL_Driver/Inc/stm32g4xx_ll_spi.h **** /**
 543:Drivers/STM32G4xx_HAL_Driver/Inc/stm32g4xx_ll_spi.h ****   * @brief  Set transfer bit order
 544:Drivers/STM32G4xx_HAL_Driver/Inc/stm32g4xx_ll_spi.h ****   * @note   This bit should not be changed when communication is ongoing. This bit is not used in S
 545:Drivers/STM32G4xx_HAL_Driver/Inc/stm32g4xx_ll_spi.h ****   * @rmtoll CR1          LSBFIRST      LL_SPI_SetTransferBitOrder
 546:Drivers/STM32G4xx_HAL_Driver/Inc/stm32g4xx_ll_spi.h ****   * @param  SPIx SPI Instance
 547:Drivers/STM32G4xx_HAL_Driver/Inc/stm32g4xx_ll_spi.h ****   * @param  BitOrder This parameter can be one of the following values:
ARM GAS  /tmp/ccibP0tT.s 			page 12


 548:Drivers/STM32G4xx_HAL_Driver/Inc/stm32g4xx_ll_spi.h ****   *         @arg @ref LL_SPI_LSB_FIRST
 549:Drivers/STM32G4xx_HAL_Driver/Inc/stm32g4xx_ll_spi.h ****   *         @arg @ref LL_SPI_MSB_FIRST
 550:Drivers/STM32G4xx_HAL_Driver/Inc/stm32g4xx_ll_spi.h ****   * @retval None
 551:Drivers/STM32G4xx_HAL_Driver/Inc/stm32g4xx_ll_spi.h ****   */
 552:Drivers/STM32G4xx_HAL_Driver/Inc/stm32g4xx_ll_spi.h **** __STATIC_INLINE void LL_SPI_SetTransferBitOrder(SPI_TypeDef *SPIx, uint32_t BitOrder)
 553:Drivers/STM32G4xx_HAL_Driver/Inc/stm32g4xx_ll_spi.h **** {
 554:Drivers/STM32G4xx_HAL_Driver/Inc/stm32g4xx_ll_spi.h ****   MODIFY_REG(SPIx->CR1, SPI_CR1_LSBFIRST, BitOrder);
 555:Drivers/STM32G4xx_HAL_Driver/Inc/stm32g4xx_ll_spi.h **** }
 556:Drivers/STM32G4xx_HAL_Driver/Inc/stm32g4xx_ll_spi.h **** 
 557:Drivers/STM32G4xx_HAL_Driver/Inc/stm32g4xx_ll_spi.h **** /**
 558:Drivers/STM32G4xx_HAL_Driver/Inc/stm32g4xx_ll_spi.h ****   * @brief  Get transfer bit order
 559:Drivers/STM32G4xx_HAL_Driver/Inc/stm32g4xx_ll_spi.h ****   * @rmtoll CR1          LSBFIRST      LL_SPI_GetTransferBitOrder
 560:Drivers/STM32G4xx_HAL_Driver/Inc/stm32g4xx_ll_spi.h ****   * @param  SPIx SPI Instance
 561:Drivers/STM32G4xx_HAL_Driver/Inc/stm32g4xx_ll_spi.h ****   * @retval Returned value can be one of the following values:
 562:Drivers/STM32G4xx_HAL_Driver/Inc/stm32g4xx_ll_spi.h ****   *         @arg @ref LL_SPI_LSB_FIRST
 563:Drivers/STM32G4xx_HAL_Driver/Inc/stm32g4xx_ll_spi.h ****   *         @arg @ref LL_SPI_MSB_FIRST
 564:Drivers/STM32G4xx_HAL_Driver/Inc/stm32g4xx_ll_spi.h ****   */
 565:Drivers/STM32G4xx_HAL_Driver/Inc/stm32g4xx_ll_spi.h **** __STATIC_INLINE uint32_t LL_SPI_GetTransferBitOrder(SPI_TypeDef *SPIx)
 566:Drivers/STM32G4xx_HAL_Driver/Inc/stm32g4xx_ll_spi.h **** {
 567:Drivers/STM32G4xx_HAL_Driver/Inc/stm32g4xx_ll_spi.h ****   return (uint32_t)(READ_BIT(SPIx->CR1, SPI_CR1_LSBFIRST));
 568:Drivers/STM32G4xx_HAL_Driver/Inc/stm32g4xx_ll_spi.h **** }
 569:Drivers/STM32G4xx_HAL_Driver/Inc/stm32g4xx_ll_spi.h **** 
 570:Drivers/STM32G4xx_HAL_Driver/Inc/stm32g4xx_ll_spi.h **** /**
 571:Drivers/STM32G4xx_HAL_Driver/Inc/stm32g4xx_ll_spi.h ****   * @brief  Set transfer direction mode
 572:Drivers/STM32G4xx_HAL_Driver/Inc/stm32g4xx_ll_spi.h ****   * @note   For Half-Duplex mode, Rx Direction is set by default.
 573:Drivers/STM32G4xx_HAL_Driver/Inc/stm32g4xx_ll_spi.h ****   *         In master mode, the MOSI pin is used and in slave mode, the MISO pin is used for Half-D
 574:Drivers/STM32G4xx_HAL_Driver/Inc/stm32g4xx_ll_spi.h ****   * @rmtoll CR1          RXONLY        LL_SPI_SetTransferDirection\n
 575:Drivers/STM32G4xx_HAL_Driver/Inc/stm32g4xx_ll_spi.h ****   *         CR1          BIDIMODE      LL_SPI_SetTransferDirection\n
 576:Drivers/STM32G4xx_HAL_Driver/Inc/stm32g4xx_ll_spi.h ****   *         CR1          BIDIOE        LL_SPI_SetTransferDirection
 577:Drivers/STM32G4xx_HAL_Driver/Inc/stm32g4xx_ll_spi.h ****   * @param  SPIx SPI Instance
 578:Drivers/STM32G4xx_HAL_Driver/Inc/stm32g4xx_ll_spi.h ****   * @param  TransferDirection This parameter can be one of the following values:
 579:Drivers/STM32G4xx_HAL_Driver/Inc/stm32g4xx_ll_spi.h ****   *         @arg @ref LL_SPI_FULL_DUPLEX
 580:Drivers/STM32G4xx_HAL_Driver/Inc/stm32g4xx_ll_spi.h ****   *         @arg @ref LL_SPI_SIMPLEX_RX
 581:Drivers/STM32G4xx_HAL_Driver/Inc/stm32g4xx_ll_spi.h ****   *         @arg @ref LL_SPI_HALF_DUPLEX_RX
 582:Drivers/STM32G4xx_HAL_Driver/Inc/stm32g4xx_ll_spi.h ****   *         @arg @ref LL_SPI_HALF_DUPLEX_TX
 583:Drivers/STM32G4xx_HAL_Driver/Inc/stm32g4xx_ll_spi.h ****   * @retval None
 584:Drivers/STM32G4xx_HAL_Driver/Inc/stm32g4xx_ll_spi.h ****   */
 585:Drivers/STM32G4xx_HAL_Driver/Inc/stm32g4xx_ll_spi.h **** __STATIC_INLINE void LL_SPI_SetTransferDirection(SPI_TypeDef *SPIx, uint32_t TransferDirection)
 586:Drivers/STM32G4xx_HAL_Driver/Inc/stm32g4xx_ll_spi.h **** {
 587:Drivers/STM32G4xx_HAL_Driver/Inc/stm32g4xx_ll_spi.h ****   MODIFY_REG(SPIx->CR1, SPI_CR1_RXONLY | SPI_CR1_BIDIMODE | SPI_CR1_BIDIOE, TransferDirection);
 588:Drivers/STM32G4xx_HAL_Driver/Inc/stm32g4xx_ll_spi.h **** }
 589:Drivers/STM32G4xx_HAL_Driver/Inc/stm32g4xx_ll_spi.h **** 
 590:Drivers/STM32G4xx_HAL_Driver/Inc/stm32g4xx_ll_spi.h **** /**
 591:Drivers/STM32G4xx_HAL_Driver/Inc/stm32g4xx_ll_spi.h ****   * @brief  Get transfer direction mode
 592:Drivers/STM32G4xx_HAL_Driver/Inc/stm32g4xx_ll_spi.h ****   * @rmtoll CR1          RXONLY        LL_SPI_GetTransferDirection\n
 593:Drivers/STM32G4xx_HAL_Driver/Inc/stm32g4xx_ll_spi.h ****   *         CR1          BIDIMODE      LL_SPI_GetTransferDirection\n
 594:Drivers/STM32G4xx_HAL_Driver/Inc/stm32g4xx_ll_spi.h ****   *         CR1          BIDIOE        LL_SPI_GetTransferDirection
 595:Drivers/STM32G4xx_HAL_Driver/Inc/stm32g4xx_ll_spi.h ****   * @param  SPIx SPI Instance
 596:Drivers/STM32G4xx_HAL_Driver/Inc/stm32g4xx_ll_spi.h ****   * @retval Returned value can be one of the following values:
 597:Drivers/STM32G4xx_HAL_Driver/Inc/stm32g4xx_ll_spi.h ****   *         @arg @ref LL_SPI_FULL_DUPLEX
 598:Drivers/STM32G4xx_HAL_Driver/Inc/stm32g4xx_ll_spi.h ****   *         @arg @ref LL_SPI_SIMPLEX_RX
 599:Drivers/STM32G4xx_HAL_Driver/Inc/stm32g4xx_ll_spi.h ****   *         @arg @ref LL_SPI_HALF_DUPLEX_RX
 600:Drivers/STM32G4xx_HAL_Driver/Inc/stm32g4xx_ll_spi.h ****   *         @arg @ref LL_SPI_HALF_DUPLEX_TX
 601:Drivers/STM32G4xx_HAL_Driver/Inc/stm32g4xx_ll_spi.h ****   */
 602:Drivers/STM32G4xx_HAL_Driver/Inc/stm32g4xx_ll_spi.h **** __STATIC_INLINE uint32_t LL_SPI_GetTransferDirection(SPI_TypeDef *SPIx)
 603:Drivers/STM32G4xx_HAL_Driver/Inc/stm32g4xx_ll_spi.h **** {
 604:Drivers/STM32G4xx_HAL_Driver/Inc/stm32g4xx_ll_spi.h ****   return (uint32_t)(READ_BIT(SPIx->CR1, SPI_CR1_RXONLY | SPI_CR1_BIDIMODE | SPI_CR1_BIDIOE));
ARM GAS  /tmp/ccibP0tT.s 			page 13


 605:Drivers/STM32G4xx_HAL_Driver/Inc/stm32g4xx_ll_spi.h **** }
 606:Drivers/STM32G4xx_HAL_Driver/Inc/stm32g4xx_ll_spi.h **** 
 607:Drivers/STM32G4xx_HAL_Driver/Inc/stm32g4xx_ll_spi.h **** /**
 608:Drivers/STM32G4xx_HAL_Driver/Inc/stm32g4xx_ll_spi.h ****   * @brief  Set frame data width
 609:Drivers/STM32G4xx_HAL_Driver/Inc/stm32g4xx_ll_spi.h ****   * @rmtoll CR2          DS            LL_SPI_SetDataWidth
 610:Drivers/STM32G4xx_HAL_Driver/Inc/stm32g4xx_ll_spi.h ****   * @param  SPIx SPI Instance
 611:Drivers/STM32G4xx_HAL_Driver/Inc/stm32g4xx_ll_spi.h ****   * @param  DataWidth This parameter can be one of the following values:
 612:Drivers/STM32G4xx_HAL_Driver/Inc/stm32g4xx_ll_spi.h ****   *         @arg @ref LL_SPI_DATAWIDTH_4BIT
 613:Drivers/STM32G4xx_HAL_Driver/Inc/stm32g4xx_ll_spi.h ****   *         @arg @ref LL_SPI_DATAWIDTH_5BIT
 614:Drivers/STM32G4xx_HAL_Driver/Inc/stm32g4xx_ll_spi.h ****   *         @arg @ref LL_SPI_DATAWIDTH_6BIT
 615:Drivers/STM32G4xx_HAL_Driver/Inc/stm32g4xx_ll_spi.h ****   *         @arg @ref LL_SPI_DATAWIDTH_7BIT
 616:Drivers/STM32G4xx_HAL_Driver/Inc/stm32g4xx_ll_spi.h ****   *         @arg @ref LL_SPI_DATAWIDTH_8BIT
 617:Drivers/STM32G4xx_HAL_Driver/Inc/stm32g4xx_ll_spi.h ****   *         @arg @ref LL_SPI_DATAWIDTH_9BIT
 618:Drivers/STM32G4xx_HAL_Driver/Inc/stm32g4xx_ll_spi.h ****   *         @arg @ref LL_SPI_DATAWIDTH_10BIT
 619:Drivers/STM32G4xx_HAL_Driver/Inc/stm32g4xx_ll_spi.h ****   *         @arg @ref LL_SPI_DATAWIDTH_11BIT
 620:Drivers/STM32G4xx_HAL_Driver/Inc/stm32g4xx_ll_spi.h ****   *         @arg @ref LL_SPI_DATAWIDTH_12BIT
 621:Drivers/STM32G4xx_HAL_Driver/Inc/stm32g4xx_ll_spi.h ****   *         @arg @ref LL_SPI_DATAWIDTH_13BIT
 622:Drivers/STM32G4xx_HAL_Driver/Inc/stm32g4xx_ll_spi.h ****   *         @arg @ref LL_SPI_DATAWIDTH_14BIT
 623:Drivers/STM32G4xx_HAL_Driver/Inc/stm32g4xx_ll_spi.h ****   *         @arg @ref LL_SPI_DATAWIDTH_15BIT
 624:Drivers/STM32G4xx_HAL_Driver/Inc/stm32g4xx_ll_spi.h ****   *         @arg @ref LL_SPI_DATAWIDTH_16BIT
 625:Drivers/STM32G4xx_HAL_Driver/Inc/stm32g4xx_ll_spi.h ****   * @retval None
 626:Drivers/STM32G4xx_HAL_Driver/Inc/stm32g4xx_ll_spi.h ****   */
 627:Drivers/STM32G4xx_HAL_Driver/Inc/stm32g4xx_ll_spi.h **** __STATIC_INLINE void LL_SPI_SetDataWidth(SPI_TypeDef *SPIx, uint32_t DataWidth)
 628:Drivers/STM32G4xx_HAL_Driver/Inc/stm32g4xx_ll_spi.h **** {
 629:Drivers/STM32G4xx_HAL_Driver/Inc/stm32g4xx_ll_spi.h ****   MODIFY_REG(SPIx->CR2, SPI_CR2_DS, DataWidth);
 630:Drivers/STM32G4xx_HAL_Driver/Inc/stm32g4xx_ll_spi.h **** }
 631:Drivers/STM32G4xx_HAL_Driver/Inc/stm32g4xx_ll_spi.h **** 
 632:Drivers/STM32G4xx_HAL_Driver/Inc/stm32g4xx_ll_spi.h **** /**
 633:Drivers/STM32G4xx_HAL_Driver/Inc/stm32g4xx_ll_spi.h ****   * @brief  Get frame data width
 634:Drivers/STM32G4xx_HAL_Driver/Inc/stm32g4xx_ll_spi.h ****   * @rmtoll CR2          DS            LL_SPI_GetDataWidth
 635:Drivers/STM32G4xx_HAL_Driver/Inc/stm32g4xx_ll_spi.h ****   * @param  SPIx SPI Instance
 636:Drivers/STM32G4xx_HAL_Driver/Inc/stm32g4xx_ll_spi.h ****   * @retval Returned value can be one of the following values:
 637:Drivers/STM32G4xx_HAL_Driver/Inc/stm32g4xx_ll_spi.h ****   *         @arg @ref LL_SPI_DATAWIDTH_4BIT
 638:Drivers/STM32G4xx_HAL_Driver/Inc/stm32g4xx_ll_spi.h ****   *         @arg @ref LL_SPI_DATAWIDTH_5BIT
 639:Drivers/STM32G4xx_HAL_Driver/Inc/stm32g4xx_ll_spi.h ****   *         @arg @ref LL_SPI_DATAWIDTH_6BIT
 640:Drivers/STM32G4xx_HAL_Driver/Inc/stm32g4xx_ll_spi.h ****   *         @arg @ref LL_SPI_DATAWIDTH_7BIT
 641:Drivers/STM32G4xx_HAL_Driver/Inc/stm32g4xx_ll_spi.h ****   *         @arg @ref LL_SPI_DATAWIDTH_8BIT
 642:Drivers/STM32G4xx_HAL_Driver/Inc/stm32g4xx_ll_spi.h ****   *         @arg @ref LL_SPI_DATAWIDTH_9BIT
 643:Drivers/STM32G4xx_HAL_Driver/Inc/stm32g4xx_ll_spi.h ****   *         @arg @ref LL_SPI_DATAWIDTH_10BIT
 644:Drivers/STM32G4xx_HAL_Driver/Inc/stm32g4xx_ll_spi.h ****   *         @arg @ref LL_SPI_DATAWIDTH_11BIT
 645:Drivers/STM32G4xx_HAL_Driver/Inc/stm32g4xx_ll_spi.h ****   *         @arg @ref LL_SPI_DATAWIDTH_12BIT
 646:Drivers/STM32G4xx_HAL_Driver/Inc/stm32g4xx_ll_spi.h ****   *         @arg @ref LL_SPI_DATAWIDTH_13BIT
 647:Drivers/STM32G4xx_HAL_Driver/Inc/stm32g4xx_ll_spi.h ****   *         @arg @ref LL_SPI_DATAWIDTH_14BIT
 648:Drivers/STM32G4xx_HAL_Driver/Inc/stm32g4xx_ll_spi.h ****   *         @arg @ref LL_SPI_DATAWIDTH_15BIT
 649:Drivers/STM32G4xx_HAL_Driver/Inc/stm32g4xx_ll_spi.h ****   *         @arg @ref LL_SPI_DATAWIDTH_16BIT
 650:Drivers/STM32G4xx_HAL_Driver/Inc/stm32g4xx_ll_spi.h ****   */
 651:Drivers/STM32G4xx_HAL_Driver/Inc/stm32g4xx_ll_spi.h **** __STATIC_INLINE uint32_t LL_SPI_GetDataWidth(SPI_TypeDef *SPIx)
 652:Drivers/STM32G4xx_HAL_Driver/Inc/stm32g4xx_ll_spi.h **** {
 653:Drivers/STM32G4xx_HAL_Driver/Inc/stm32g4xx_ll_spi.h ****   return (uint32_t)(READ_BIT(SPIx->CR2, SPI_CR2_DS));
 654:Drivers/STM32G4xx_HAL_Driver/Inc/stm32g4xx_ll_spi.h **** }
 655:Drivers/STM32G4xx_HAL_Driver/Inc/stm32g4xx_ll_spi.h **** 
 656:Drivers/STM32G4xx_HAL_Driver/Inc/stm32g4xx_ll_spi.h **** /**
 657:Drivers/STM32G4xx_HAL_Driver/Inc/stm32g4xx_ll_spi.h ****   * @brief  Set threshold of RXFIFO that triggers an RXNE event
 658:Drivers/STM32G4xx_HAL_Driver/Inc/stm32g4xx_ll_spi.h ****   * @rmtoll CR2          FRXTH         LL_SPI_SetRxFIFOThreshold
 659:Drivers/STM32G4xx_HAL_Driver/Inc/stm32g4xx_ll_spi.h ****   * @param  SPIx SPI Instance
 660:Drivers/STM32G4xx_HAL_Driver/Inc/stm32g4xx_ll_spi.h ****   * @param  Threshold This parameter can be one of the following values:
 661:Drivers/STM32G4xx_HAL_Driver/Inc/stm32g4xx_ll_spi.h ****   *         @arg @ref LL_SPI_RX_FIFO_TH_HALF
ARM GAS  /tmp/ccibP0tT.s 			page 14


 662:Drivers/STM32G4xx_HAL_Driver/Inc/stm32g4xx_ll_spi.h ****   *         @arg @ref LL_SPI_RX_FIFO_TH_QUARTER
 663:Drivers/STM32G4xx_HAL_Driver/Inc/stm32g4xx_ll_spi.h ****   * @retval None
 664:Drivers/STM32G4xx_HAL_Driver/Inc/stm32g4xx_ll_spi.h ****   */
 665:Drivers/STM32G4xx_HAL_Driver/Inc/stm32g4xx_ll_spi.h **** __STATIC_INLINE void LL_SPI_SetRxFIFOThreshold(SPI_TypeDef *SPIx, uint32_t Threshold)
 666:Drivers/STM32G4xx_HAL_Driver/Inc/stm32g4xx_ll_spi.h **** {
  84              		.loc 1 666 1
  85              		.cfi_startproc
  86              		@ args = 0, pretend = 0, frame = 8
  87              		@ frame_needed = 1, uses_anonymous_args = 0
  88              		@ link register save eliminated.
  89 0000 80B4     		push	{r7}
  90              	.LCFI6:
  91              		.cfi_def_cfa_offset 4
  92              		.cfi_offset 7, -4
  93 0002 83B0     		sub	sp, sp, #12
  94              	.LCFI7:
  95              		.cfi_def_cfa_offset 16
  96 0004 00AF     		add	r7, sp, #0
  97              	.LCFI8:
  98              		.cfi_def_cfa_register 7
  99 0006 7860     		str	r0, [r7, #4]
 100 0008 3960     		str	r1, [r7]
 667:Drivers/STM32G4xx_HAL_Driver/Inc/stm32g4xx_ll_spi.h ****   MODIFY_REG(SPIx->CR2, SPI_CR2_FRXTH, Threshold);
 101              		.loc 1 667 3
 102 000a 7B68     		ldr	r3, [r7, #4]
 103 000c 5B68     		ldr	r3, [r3, #4]
 104 000e 23F48052 		bic	r2, r3, #4096
 105 0012 3B68     		ldr	r3, [r7]
 106 0014 1A43     		orrs	r2, r2, r3
 107 0016 7B68     		ldr	r3, [r7, #4]
 108 0018 5A60     		str	r2, [r3, #4]
 668:Drivers/STM32G4xx_HAL_Driver/Inc/stm32g4xx_ll_spi.h **** }
 109              		.loc 1 668 1
 110 001a 00BF     		nop
 111 001c 0C37     		adds	r7, r7, #12
 112              	.LCFI9:
 113              		.cfi_def_cfa_offset 4
 114 001e BD46     		mov	sp, r7
 115              	.LCFI10:
 116              		.cfi_def_cfa_register 13
 117              		@ sp needed
 118 0020 5DF8047B 		ldr	r7, [sp], #4
 119              	.LCFI11:
 120              		.cfi_restore 7
 121              		.cfi_def_cfa_offset 0
 122 0024 7047     		bx	lr
 123              		.cfi_endproc
 124              	.LFE151:
 126              		.section	.text.LL_SPI_SetCRCPolynomial,"ax",%progbits
 127              		.align	1
 128              		.syntax unified
 129              		.thumb
 130              		.thumb_func
 131              		.fpu fpv4-sp-d16
 133              	LL_SPI_SetCRCPolynomial:
 134              	.LFB159:
 669:Drivers/STM32G4xx_HAL_Driver/Inc/stm32g4xx_ll_spi.h **** 
ARM GAS  /tmp/ccibP0tT.s 			page 15


 670:Drivers/STM32G4xx_HAL_Driver/Inc/stm32g4xx_ll_spi.h **** /**
 671:Drivers/STM32G4xx_HAL_Driver/Inc/stm32g4xx_ll_spi.h ****   * @brief  Get threshold of RXFIFO that triggers an RXNE event
 672:Drivers/STM32G4xx_HAL_Driver/Inc/stm32g4xx_ll_spi.h ****   * @rmtoll CR2          FRXTH         LL_SPI_GetRxFIFOThreshold
 673:Drivers/STM32G4xx_HAL_Driver/Inc/stm32g4xx_ll_spi.h ****   * @param  SPIx SPI Instance
 674:Drivers/STM32G4xx_HAL_Driver/Inc/stm32g4xx_ll_spi.h ****   * @retval Returned value can be one of the following values:
 675:Drivers/STM32G4xx_HAL_Driver/Inc/stm32g4xx_ll_spi.h ****   *         @arg @ref LL_SPI_RX_FIFO_TH_HALF
 676:Drivers/STM32G4xx_HAL_Driver/Inc/stm32g4xx_ll_spi.h ****   *         @arg @ref LL_SPI_RX_FIFO_TH_QUARTER
 677:Drivers/STM32G4xx_HAL_Driver/Inc/stm32g4xx_ll_spi.h ****   */
 678:Drivers/STM32G4xx_HAL_Driver/Inc/stm32g4xx_ll_spi.h **** __STATIC_INLINE uint32_t LL_SPI_GetRxFIFOThreshold(SPI_TypeDef *SPIx)
 679:Drivers/STM32G4xx_HAL_Driver/Inc/stm32g4xx_ll_spi.h **** {
 680:Drivers/STM32G4xx_HAL_Driver/Inc/stm32g4xx_ll_spi.h ****   return (uint32_t)(READ_BIT(SPIx->CR2, SPI_CR2_FRXTH));
 681:Drivers/STM32G4xx_HAL_Driver/Inc/stm32g4xx_ll_spi.h **** }
 682:Drivers/STM32G4xx_HAL_Driver/Inc/stm32g4xx_ll_spi.h **** 
 683:Drivers/STM32G4xx_HAL_Driver/Inc/stm32g4xx_ll_spi.h **** /**
 684:Drivers/STM32G4xx_HAL_Driver/Inc/stm32g4xx_ll_spi.h ****   * @}
 685:Drivers/STM32G4xx_HAL_Driver/Inc/stm32g4xx_ll_spi.h ****   */
 686:Drivers/STM32G4xx_HAL_Driver/Inc/stm32g4xx_ll_spi.h **** 
 687:Drivers/STM32G4xx_HAL_Driver/Inc/stm32g4xx_ll_spi.h **** /** @defgroup SPI_LL_EF_CRC_Management CRC Management
 688:Drivers/STM32G4xx_HAL_Driver/Inc/stm32g4xx_ll_spi.h ****   * @{
 689:Drivers/STM32G4xx_HAL_Driver/Inc/stm32g4xx_ll_spi.h ****   */
 690:Drivers/STM32G4xx_HAL_Driver/Inc/stm32g4xx_ll_spi.h **** 
 691:Drivers/STM32G4xx_HAL_Driver/Inc/stm32g4xx_ll_spi.h **** /**
 692:Drivers/STM32G4xx_HAL_Driver/Inc/stm32g4xx_ll_spi.h ****   * @brief  Enable CRC
 693:Drivers/STM32G4xx_HAL_Driver/Inc/stm32g4xx_ll_spi.h ****   * @note   This bit should be written only when SPI is disabled (SPE = 0) for correct operation.
 694:Drivers/STM32G4xx_HAL_Driver/Inc/stm32g4xx_ll_spi.h ****   * @rmtoll CR1          CRCEN         LL_SPI_EnableCRC
 695:Drivers/STM32G4xx_HAL_Driver/Inc/stm32g4xx_ll_spi.h ****   * @param  SPIx SPI Instance
 696:Drivers/STM32G4xx_HAL_Driver/Inc/stm32g4xx_ll_spi.h ****   * @retval None
 697:Drivers/STM32G4xx_HAL_Driver/Inc/stm32g4xx_ll_spi.h ****   */
 698:Drivers/STM32G4xx_HAL_Driver/Inc/stm32g4xx_ll_spi.h **** __STATIC_INLINE void LL_SPI_EnableCRC(SPI_TypeDef *SPIx)
 699:Drivers/STM32G4xx_HAL_Driver/Inc/stm32g4xx_ll_spi.h **** {
 700:Drivers/STM32G4xx_HAL_Driver/Inc/stm32g4xx_ll_spi.h ****   SET_BIT(SPIx->CR1, SPI_CR1_CRCEN);
 701:Drivers/STM32G4xx_HAL_Driver/Inc/stm32g4xx_ll_spi.h **** }
 702:Drivers/STM32G4xx_HAL_Driver/Inc/stm32g4xx_ll_spi.h **** 
 703:Drivers/STM32G4xx_HAL_Driver/Inc/stm32g4xx_ll_spi.h **** /**
 704:Drivers/STM32G4xx_HAL_Driver/Inc/stm32g4xx_ll_spi.h ****   * @brief  Disable CRC
 705:Drivers/STM32G4xx_HAL_Driver/Inc/stm32g4xx_ll_spi.h ****   * @note   This bit should be written only when SPI is disabled (SPE = 0) for correct operation.
 706:Drivers/STM32G4xx_HAL_Driver/Inc/stm32g4xx_ll_spi.h ****   * @rmtoll CR1          CRCEN         LL_SPI_DisableCRC
 707:Drivers/STM32G4xx_HAL_Driver/Inc/stm32g4xx_ll_spi.h ****   * @param  SPIx SPI Instance
 708:Drivers/STM32G4xx_HAL_Driver/Inc/stm32g4xx_ll_spi.h ****   * @retval None
 709:Drivers/STM32G4xx_HAL_Driver/Inc/stm32g4xx_ll_spi.h ****   */
 710:Drivers/STM32G4xx_HAL_Driver/Inc/stm32g4xx_ll_spi.h **** __STATIC_INLINE void LL_SPI_DisableCRC(SPI_TypeDef *SPIx)
 711:Drivers/STM32G4xx_HAL_Driver/Inc/stm32g4xx_ll_spi.h **** {
 712:Drivers/STM32G4xx_HAL_Driver/Inc/stm32g4xx_ll_spi.h ****   CLEAR_BIT(SPIx->CR1, SPI_CR1_CRCEN);
 713:Drivers/STM32G4xx_HAL_Driver/Inc/stm32g4xx_ll_spi.h **** }
 714:Drivers/STM32G4xx_HAL_Driver/Inc/stm32g4xx_ll_spi.h **** 
 715:Drivers/STM32G4xx_HAL_Driver/Inc/stm32g4xx_ll_spi.h **** /**
 716:Drivers/STM32G4xx_HAL_Driver/Inc/stm32g4xx_ll_spi.h ****   * @brief  Check if CRC is enabled
 717:Drivers/STM32G4xx_HAL_Driver/Inc/stm32g4xx_ll_spi.h ****   * @note   This bit should be written only when SPI is disabled (SPE = 0) for correct operation.
 718:Drivers/STM32G4xx_HAL_Driver/Inc/stm32g4xx_ll_spi.h ****   * @rmtoll CR1          CRCEN         LL_SPI_IsEnabledCRC
 719:Drivers/STM32G4xx_HAL_Driver/Inc/stm32g4xx_ll_spi.h ****   * @param  SPIx SPI Instance
 720:Drivers/STM32G4xx_HAL_Driver/Inc/stm32g4xx_ll_spi.h ****   * @retval State of bit (1 or 0).
 721:Drivers/STM32G4xx_HAL_Driver/Inc/stm32g4xx_ll_spi.h ****   */
 722:Drivers/STM32G4xx_HAL_Driver/Inc/stm32g4xx_ll_spi.h **** __STATIC_INLINE uint32_t LL_SPI_IsEnabledCRC(SPI_TypeDef *SPIx)
 723:Drivers/STM32G4xx_HAL_Driver/Inc/stm32g4xx_ll_spi.h **** {
 724:Drivers/STM32G4xx_HAL_Driver/Inc/stm32g4xx_ll_spi.h ****   return ((READ_BIT(SPIx->CR1, SPI_CR1_CRCEN) == (SPI_CR1_CRCEN)) ? 1UL : 0UL);
 725:Drivers/STM32G4xx_HAL_Driver/Inc/stm32g4xx_ll_spi.h **** }
 726:Drivers/STM32G4xx_HAL_Driver/Inc/stm32g4xx_ll_spi.h **** 
ARM GAS  /tmp/ccibP0tT.s 			page 16


 727:Drivers/STM32G4xx_HAL_Driver/Inc/stm32g4xx_ll_spi.h **** /**
 728:Drivers/STM32G4xx_HAL_Driver/Inc/stm32g4xx_ll_spi.h ****   * @brief  Set CRC Length
 729:Drivers/STM32G4xx_HAL_Driver/Inc/stm32g4xx_ll_spi.h ****   * @note   This bit should be written only when SPI is disabled (SPE = 0) for correct operation.
 730:Drivers/STM32G4xx_HAL_Driver/Inc/stm32g4xx_ll_spi.h ****   * @rmtoll CR1          CRCL          LL_SPI_SetCRCWidth
 731:Drivers/STM32G4xx_HAL_Driver/Inc/stm32g4xx_ll_spi.h ****   * @param  SPIx SPI Instance
 732:Drivers/STM32G4xx_HAL_Driver/Inc/stm32g4xx_ll_spi.h ****   * @param  CRCLength This parameter can be one of the following values:
 733:Drivers/STM32G4xx_HAL_Driver/Inc/stm32g4xx_ll_spi.h ****   *         @arg @ref LL_SPI_CRC_8BIT
 734:Drivers/STM32G4xx_HAL_Driver/Inc/stm32g4xx_ll_spi.h ****   *         @arg @ref LL_SPI_CRC_16BIT
 735:Drivers/STM32G4xx_HAL_Driver/Inc/stm32g4xx_ll_spi.h ****   * @retval None
 736:Drivers/STM32G4xx_HAL_Driver/Inc/stm32g4xx_ll_spi.h ****   */
 737:Drivers/STM32G4xx_HAL_Driver/Inc/stm32g4xx_ll_spi.h **** __STATIC_INLINE void LL_SPI_SetCRCWidth(SPI_TypeDef *SPIx, uint32_t CRCLength)
 738:Drivers/STM32G4xx_HAL_Driver/Inc/stm32g4xx_ll_spi.h **** {
 739:Drivers/STM32G4xx_HAL_Driver/Inc/stm32g4xx_ll_spi.h ****   MODIFY_REG(SPIx->CR1, SPI_CR1_CRCL, CRCLength);
 740:Drivers/STM32G4xx_HAL_Driver/Inc/stm32g4xx_ll_spi.h **** }
 741:Drivers/STM32G4xx_HAL_Driver/Inc/stm32g4xx_ll_spi.h **** 
 742:Drivers/STM32G4xx_HAL_Driver/Inc/stm32g4xx_ll_spi.h **** /**
 743:Drivers/STM32G4xx_HAL_Driver/Inc/stm32g4xx_ll_spi.h ****   * @brief  Get CRC Length
 744:Drivers/STM32G4xx_HAL_Driver/Inc/stm32g4xx_ll_spi.h ****   * @rmtoll CR1          CRCL          LL_SPI_GetCRCWidth
 745:Drivers/STM32G4xx_HAL_Driver/Inc/stm32g4xx_ll_spi.h ****   * @param  SPIx SPI Instance
 746:Drivers/STM32G4xx_HAL_Driver/Inc/stm32g4xx_ll_spi.h ****   * @retval Returned value can be one of the following values:
 747:Drivers/STM32G4xx_HAL_Driver/Inc/stm32g4xx_ll_spi.h ****   *         @arg @ref LL_SPI_CRC_8BIT
 748:Drivers/STM32G4xx_HAL_Driver/Inc/stm32g4xx_ll_spi.h ****   *         @arg @ref LL_SPI_CRC_16BIT
 749:Drivers/STM32G4xx_HAL_Driver/Inc/stm32g4xx_ll_spi.h ****   */
 750:Drivers/STM32G4xx_HAL_Driver/Inc/stm32g4xx_ll_spi.h **** __STATIC_INLINE uint32_t LL_SPI_GetCRCWidth(SPI_TypeDef *SPIx)
 751:Drivers/STM32G4xx_HAL_Driver/Inc/stm32g4xx_ll_spi.h **** {
 752:Drivers/STM32G4xx_HAL_Driver/Inc/stm32g4xx_ll_spi.h ****   return (uint32_t)(READ_BIT(SPIx->CR1, SPI_CR1_CRCL));
 753:Drivers/STM32G4xx_HAL_Driver/Inc/stm32g4xx_ll_spi.h **** }
 754:Drivers/STM32G4xx_HAL_Driver/Inc/stm32g4xx_ll_spi.h **** 
 755:Drivers/STM32G4xx_HAL_Driver/Inc/stm32g4xx_ll_spi.h **** /**
 756:Drivers/STM32G4xx_HAL_Driver/Inc/stm32g4xx_ll_spi.h ****   * @brief  Set CRCNext to transfer CRC on the line
 757:Drivers/STM32G4xx_HAL_Driver/Inc/stm32g4xx_ll_spi.h ****   * @note   This bit has to be written as soon as the last data is written in the SPIx_DR register.
 758:Drivers/STM32G4xx_HAL_Driver/Inc/stm32g4xx_ll_spi.h ****   * @rmtoll CR1          CRCNEXT       LL_SPI_SetCRCNext
 759:Drivers/STM32G4xx_HAL_Driver/Inc/stm32g4xx_ll_spi.h ****   * @param  SPIx SPI Instance
 760:Drivers/STM32G4xx_HAL_Driver/Inc/stm32g4xx_ll_spi.h ****   * @retval None
 761:Drivers/STM32G4xx_HAL_Driver/Inc/stm32g4xx_ll_spi.h ****   */
 762:Drivers/STM32G4xx_HAL_Driver/Inc/stm32g4xx_ll_spi.h **** __STATIC_INLINE void LL_SPI_SetCRCNext(SPI_TypeDef *SPIx)
 763:Drivers/STM32G4xx_HAL_Driver/Inc/stm32g4xx_ll_spi.h **** {
 764:Drivers/STM32G4xx_HAL_Driver/Inc/stm32g4xx_ll_spi.h ****   SET_BIT(SPIx->CR1, SPI_CR1_CRCNEXT);
 765:Drivers/STM32G4xx_HAL_Driver/Inc/stm32g4xx_ll_spi.h **** }
 766:Drivers/STM32G4xx_HAL_Driver/Inc/stm32g4xx_ll_spi.h **** 
 767:Drivers/STM32G4xx_HAL_Driver/Inc/stm32g4xx_ll_spi.h **** /**
 768:Drivers/STM32G4xx_HAL_Driver/Inc/stm32g4xx_ll_spi.h ****   * @brief  Set polynomial for CRC calculation
 769:Drivers/STM32G4xx_HAL_Driver/Inc/stm32g4xx_ll_spi.h ****   * @rmtoll CRCPR        CRCPOLY       LL_SPI_SetCRCPolynomial
 770:Drivers/STM32G4xx_HAL_Driver/Inc/stm32g4xx_ll_spi.h ****   * @param  SPIx SPI Instance
 771:Drivers/STM32G4xx_HAL_Driver/Inc/stm32g4xx_ll_spi.h ****   * @param  CRCPoly This parameter must be a number between Min_Data = 0x00 and Max_Data = 0xFFFF
 772:Drivers/STM32G4xx_HAL_Driver/Inc/stm32g4xx_ll_spi.h ****   * @retval None
 773:Drivers/STM32G4xx_HAL_Driver/Inc/stm32g4xx_ll_spi.h ****   */
 774:Drivers/STM32G4xx_HAL_Driver/Inc/stm32g4xx_ll_spi.h **** __STATIC_INLINE void LL_SPI_SetCRCPolynomial(SPI_TypeDef *SPIx, uint32_t CRCPoly)
 775:Drivers/STM32G4xx_HAL_Driver/Inc/stm32g4xx_ll_spi.h **** {
 135              		.loc 1 775 1
 136              		.cfi_startproc
 137              		@ args = 0, pretend = 0, frame = 8
 138              		@ frame_needed = 1, uses_anonymous_args = 0
 139              		@ link register save eliminated.
 140 0000 80B4     		push	{r7}
 141              	.LCFI12:
 142              		.cfi_def_cfa_offset 4
ARM GAS  /tmp/ccibP0tT.s 			page 17


 143              		.cfi_offset 7, -4
 144 0002 83B0     		sub	sp, sp, #12
 145              	.LCFI13:
 146              		.cfi_def_cfa_offset 16
 147 0004 00AF     		add	r7, sp, #0
 148              	.LCFI14:
 149              		.cfi_def_cfa_register 7
 150 0006 7860     		str	r0, [r7, #4]
 151 0008 3960     		str	r1, [r7]
 776:Drivers/STM32G4xx_HAL_Driver/Inc/stm32g4xx_ll_spi.h ****   WRITE_REG(SPIx->CRCPR, (uint16_t)CRCPoly);
 152              		.loc 1 776 3
 153 000a 3B68     		ldr	r3, [r7]
 154 000c 9BB2     		uxth	r3, r3
 155 000e 1A46     		mov	r2, r3
 156 0010 7B68     		ldr	r3, [r7, #4]
 157 0012 1A61     		str	r2, [r3, #16]
 777:Drivers/STM32G4xx_HAL_Driver/Inc/stm32g4xx_ll_spi.h **** }
 158              		.loc 1 777 1
 159 0014 00BF     		nop
 160 0016 0C37     		adds	r7, r7, #12
 161              	.LCFI15:
 162              		.cfi_def_cfa_offset 4
 163 0018 BD46     		mov	sp, r7
 164              	.LCFI16:
 165              		.cfi_def_cfa_register 13
 166              		@ sp needed
 167 001a 5DF8047B 		ldr	r7, [sp], #4
 168              	.LCFI17:
 169              		.cfi_restore 7
 170              		.cfi_def_cfa_offset 0
 171 001e 7047     		bx	lr
 172              		.cfi_endproc
 173              	.LFE159:
 175              		.section	.text.LL_I2S_IsEnabled,"ax",%progbits
 176              		.align	1
 177              		.syntax unified
 178              		.thumb
 179              		.thumb_func
 180              		.fpu fpv4-sp-d16
 182              	LL_I2S_IsEnabled:
 183              	.LFB207:
 778:Drivers/STM32G4xx_HAL_Driver/Inc/stm32g4xx_ll_spi.h **** 
 779:Drivers/STM32G4xx_HAL_Driver/Inc/stm32g4xx_ll_spi.h **** /**
 780:Drivers/STM32G4xx_HAL_Driver/Inc/stm32g4xx_ll_spi.h ****   * @brief  Get polynomial for CRC calculation
 781:Drivers/STM32G4xx_HAL_Driver/Inc/stm32g4xx_ll_spi.h ****   * @rmtoll CRCPR        CRCPOLY       LL_SPI_GetCRCPolynomial
 782:Drivers/STM32G4xx_HAL_Driver/Inc/stm32g4xx_ll_spi.h ****   * @param  SPIx SPI Instance
 783:Drivers/STM32G4xx_HAL_Driver/Inc/stm32g4xx_ll_spi.h ****   * @retval Returned value is a number between Min_Data = 0x00 and Max_Data = 0xFFFF
 784:Drivers/STM32G4xx_HAL_Driver/Inc/stm32g4xx_ll_spi.h ****   */
 785:Drivers/STM32G4xx_HAL_Driver/Inc/stm32g4xx_ll_spi.h **** __STATIC_INLINE uint32_t LL_SPI_GetCRCPolynomial(SPI_TypeDef *SPIx)
 786:Drivers/STM32G4xx_HAL_Driver/Inc/stm32g4xx_ll_spi.h **** {
 787:Drivers/STM32G4xx_HAL_Driver/Inc/stm32g4xx_ll_spi.h ****   return (uint32_t)(READ_REG(SPIx->CRCPR));
 788:Drivers/STM32G4xx_HAL_Driver/Inc/stm32g4xx_ll_spi.h **** }
 789:Drivers/STM32G4xx_HAL_Driver/Inc/stm32g4xx_ll_spi.h **** 
 790:Drivers/STM32G4xx_HAL_Driver/Inc/stm32g4xx_ll_spi.h **** /**
 791:Drivers/STM32G4xx_HAL_Driver/Inc/stm32g4xx_ll_spi.h ****   * @brief  Get Rx CRC
 792:Drivers/STM32G4xx_HAL_Driver/Inc/stm32g4xx_ll_spi.h ****   * @rmtoll RXCRCR       RXCRC         LL_SPI_GetRxCRC
 793:Drivers/STM32G4xx_HAL_Driver/Inc/stm32g4xx_ll_spi.h ****   * @param  SPIx SPI Instance
ARM GAS  /tmp/ccibP0tT.s 			page 18


 794:Drivers/STM32G4xx_HAL_Driver/Inc/stm32g4xx_ll_spi.h ****   * @retval Returned value is a number between Min_Data = 0x00 and Max_Data = 0xFFFF
 795:Drivers/STM32G4xx_HAL_Driver/Inc/stm32g4xx_ll_spi.h ****   */
 796:Drivers/STM32G4xx_HAL_Driver/Inc/stm32g4xx_ll_spi.h **** __STATIC_INLINE uint32_t LL_SPI_GetRxCRC(SPI_TypeDef *SPIx)
 797:Drivers/STM32G4xx_HAL_Driver/Inc/stm32g4xx_ll_spi.h **** {
 798:Drivers/STM32G4xx_HAL_Driver/Inc/stm32g4xx_ll_spi.h ****   return (uint32_t)(READ_REG(SPIx->RXCRCR));
 799:Drivers/STM32G4xx_HAL_Driver/Inc/stm32g4xx_ll_spi.h **** }
 800:Drivers/STM32G4xx_HAL_Driver/Inc/stm32g4xx_ll_spi.h **** 
 801:Drivers/STM32G4xx_HAL_Driver/Inc/stm32g4xx_ll_spi.h **** /**
 802:Drivers/STM32G4xx_HAL_Driver/Inc/stm32g4xx_ll_spi.h ****   * @brief  Get Tx CRC
 803:Drivers/STM32G4xx_HAL_Driver/Inc/stm32g4xx_ll_spi.h ****   * @rmtoll TXCRCR       TXCRC         LL_SPI_GetTxCRC
 804:Drivers/STM32G4xx_HAL_Driver/Inc/stm32g4xx_ll_spi.h ****   * @param  SPIx SPI Instance
 805:Drivers/STM32G4xx_HAL_Driver/Inc/stm32g4xx_ll_spi.h ****   * @retval Returned value is a number between Min_Data = 0x00 and Max_Data = 0xFFFF
 806:Drivers/STM32G4xx_HAL_Driver/Inc/stm32g4xx_ll_spi.h ****   */
 807:Drivers/STM32G4xx_HAL_Driver/Inc/stm32g4xx_ll_spi.h **** __STATIC_INLINE uint32_t LL_SPI_GetTxCRC(SPI_TypeDef *SPIx)
 808:Drivers/STM32G4xx_HAL_Driver/Inc/stm32g4xx_ll_spi.h **** {
 809:Drivers/STM32G4xx_HAL_Driver/Inc/stm32g4xx_ll_spi.h ****   return (uint32_t)(READ_REG(SPIx->TXCRCR));
 810:Drivers/STM32G4xx_HAL_Driver/Inc/stm32g4xx_ll_spi.h **** }
 811:Drivers/STM32G4xx_HAL_Driver/Inc/stm32g4xx_ll_spi.h **** 
 812:Drivers/STM32G4xx_HAL_Driver/Inc/stm32g4xx_ll_spi.h **** /**
 813:Drivers/STM32G4xx_HAL_Driver/Inc/stm32g4xx_ll_spi.h ****   * @}
 814:Drivers/STM32G4xx_HAL_Driver/Inc/stm32g4xx_ll_spi.h ****   */
 815:Drivers/STM32G4xx_HAL_Driver/Inc/stm32g4xx_ll_spi.h **** 
 816:Drivers/STM32G4xx_HAL_Driver/Inc/stm32g4xx_ll_spi.h **** /** @defgroup SPI_LL_EF_NSS_Management Slave Select Pin Management
 817:Drivers/STM32G4xx_HAL_Driver/Inc/stm32g4xx_ll_spi.h ****   * @{
 818:Drivers/STM32G4xx_HAL_Driver/Inc/stm32g4xx_ll_spi.h ****   */
 819:Drivers/STM32G4xx_HAL_Driver/Inc/stm32g4xx_ll_spi.h **** 
 820:Drivers/STM32G4xx_HAL_Driver/Inc/stm32g4xx_ll_spi.h **** /**
 821:Drivers/STM32G4xx_HAL_Driver/Inc/stm32g4xx_ll_spi.h ****   * @brief  Set NSS mode
 822:Drivers/STM32G4xx_HAL_Driver/Inc/stm32g4xx_ll_spi.h ****   * @note   LL_SPI_NSS_SOFT Mode is not used in SPI TI mode.
 823:Drivers/STM32G4xx_HAL_Driver/Inc/stm32g4xx_ll_spi.h ****   * @rmtoll CR1          SSM           LL_SPI_SetNSSMode\n
 824:Drivers/STM32G4xx_HAL_Driver/Inc/stm32g4xx_ll_spi.h ****   * @rmtoll CR2          SSOE          LL_SPI_SetNSSMode
 825:Drivers/STM32G4xx_HAL_Driver/Inc/stm32g4xx_ll_spi.h ****   * @param  SPIx SPI Instance
 826:Drivers/STM32G4xx_HAL_Driver/Inc/stm32g4xx_ll_spi.h ****   * @param  NSS This parameter can be one of the following values:
 827:Drivers/STM32G4xx_HAL_Driver/Inc/stm32g4xx_ll_spi.h ****   *         @arg @ref LL_SPI_NSS_SOFT
 828:Drivers/STM32G4xx_HAL_Driver/Inc/stm32g4xx_ll_spi.h ****   *         @arg @ref LL_SPI_NSS_HARD_INPUT
 829:Drivers/STM32G4xx_HAL_Driver/Inc/stm32g4xx_ll_spi.h ****   *         @arg @ref LL_SPI_NSS_HARD_OUTPUT
 830:Drivers/STM32G4xx_HAL_Driver/Inc/stm32g4xx_ll_spi.h ****   * @retval None
 831:Drivers/STM32G4xx_HAL_Driver/Inc/stm32g4xx_ll_spi.h ****   */
 832:Drivers/STM32G4xx_HAL_Driver/Inc/stm32g4xx_ll_spi.h **** __STATIC_INLINE void LL_SPI_SetNSSMode(SPI_TypeDef *SPIx, uint32_t NSS)
 833:Drivers/STM32G4xx_HAL_Driver/Inc/stm32g4xx_ll_spi.h **** {
 834:Drivers/STM32G4xx_HAL_Driver/Inc/stm32g4xx_ll_spi.h ****   MODIFY_REG(SPIx->CR1, SPI_CR1_SSM,  NSS);
 835:Drivers/STM32G4xx_HAL_Driver/Inc/stm32g4xx_ll_spi.h ****   MODIFY_REG(SPIx->CR2, SPI_CR2_SSOE, ((uint32_t)(NSS >> 16U)));
 836:Drivers/STM32G4xx_HAL_Driver/Inc/stm32g4xx_ll_spi.h **** }
 837:Drivers/STM32G4xx_HAL_Driver/Inc/stm32g4xx_ll_spi.h **** 
 838:Drivers/STM32G4xx_HAL_Driver/Inc/stm32g4xx_ll_spi.h **** /**
 839:Drivers/STM32G4xx_HAL_Driver/Inc/stm32g4xx_ll_spi.h ****   * @brief  Get NSS mode
 840:Drivers/STM32G4xx_HAL_Driver/Inc/stm32g4xx_ll_spi.h ****   * @rmtoll CR1          SSM           LL_SPI_GetNSSMode\n
 841:Drivers/STM32G4xx_HAL_Driver/Inc/stm32g4xx_ll_spi.h ****   * @rmtoll CR2          SSOE          LL_SPI_GetNSSMode
 842:Drivers/STM32G4xx_HAL_Driver/Inc/stm32g4xx_ll_spi.h ****   * @param  SPIx SPI Instance
 843:Drivers/STM32G4xx_HAL_Driver/Inc/stm32g4xx_ll_spi.h ****   * @retval Returned value can be one of the following values:
 844:Drivers/STM32G4xx_HAL_Driver/Inc/stm32g4xx_ll_spi.h ****   *         @arg @ref LL_SPI_NSS_SOFT
 845:Drivers/STM32G4xx_HAL_Driver/Inc/stm32g4xx_ll_spi.h ****   *         @arg @ref LL_SPI_NSS_HARD_INPUT
 846:Drivers/STM32G4xx_HAL_Driver/Inc/stm32g4xx_ll_spi.h ****   *         @arg @ref LL_SPI_NSS_HARD_OUTPUT
 847:Drivers/STM32G4xx_HAL_Driver/Inc/stm32g4xx_ll_spi.h ****   */
 848:Drivers/STM32G4xx_HAL_Driver/Inc/stm32g4xx_ll_spi.h **** __STATIC_INLINE uint32_t LL_SPI_GetNSSMode(SPI_TypeDef *SPIx)
 849:Drivers/STM32G4xx_HAL_Driver/Inc/stm32g4xx_ll_spi.h **** {
 850:Drivers/STM32G4xx_HAL_Driver/Inc/stm32g4xx_ll_spi.h ****   uint32_t Ssm  = (READ_BIT(SPIx->CR1, SPI_CR1_SSM));
ARM GAS  /tmp/ccibP0tT.s 			page 19


 851:Drivers/STM32G4xx_HAL_Driver/Inc/stm32g4xx_ll_spi.h ****   uint32_t Ssoe = (READ_BIT(SPIx->CR2,  SPI_CR2_SSOE) << 16U);
 852:Drivers/STM32G4xx_HAL_Driver/Inc/stm32g4xx_ll_spi.h ****   return (Ssm | Ssoe);
 853:Drivers/STM32G4xx_HAL_Driver/Inc/stm32g4xx_ll_spi.h **** }
 854:Drivers/STM32G4xx_HAL_Driver/Inc/stm32g4xx_ll_spi.h **** 
 855:Drivers/STM32G4xx_HAL_Driver/Inc/stm32g4xx_ll_spi.h **** /**
 856:Drivers/STM32G4xx_HAL_Driver/Inc/stm32g4xx_ll_spi.h ****   * @brief  Enable NSS pulse management
 857:Drivers/STM32G4xx_HAL_Driver/Inc/stm32g4xx_ll_spi.h ****   * @note   This bit should not be changed when communication is ongoing. This bit is not used in S
 858:Drivers/STM32G4xx_HAL_Driver/Inc/stm32g4xx_ll_spi.h ****   * @rmtoll CR2          NSSP          LL_SPI_EnableNSSPulseMgt
 859:Drivers/STM32G4xx_HAL_Driver/Inc/stm32g4xx_ll_spi.h ****   * @param  SPIx SPI Instance
 860:Drivers/STM32G4xx_HAL_Driver/Inc/stm32g4xx_ll_spi.h ****   * @retval None
 861:Drivers/STM32G4xx_HAL_Driver/Inc/stm32g4xx_ll_spi.h ****   */
 862:Drivers/STM32G4xx_HAL_Driver/Inc/stm32g4xx_ll_spi.h **** __STATIC_INLINE void LL_SPI_EnableNSSPulseMgt(SPI_TypeDef *SPIx)
 863:Drivers/STM32G4xx_HAL_Driver/Inc/stm32g4xx_ll_spi.h **** {
 864:Drivers/STM32G4xx_HAL_Driver/Inc/stm32g4xx_ll_spi.h ****   SET_BIT(SPIx->CR2, SPI_CR2_NSSP);
 865:Drivers/STM32G4xx_HAL_Driver/Inc/stm32g4xx_ll_spi.h **** }
 866:Drivers/STM32G4xx_HAL_Driver/Inc/stm32g4xx_ll_spi.h **** 
 867:Drivers/STM32G4xx_HAL_Driver/Inc/stm32g4xx_ll_spi.h **** /**
 868:Drivers/STM32G4xx_HAL_Driver/Inc/stm32g4xx_ll_spi.h ****   * @brief  Disable NSS pulse management
 869:Drivers/STM32G4xx_HAL_Driver/Inc/stm32g4xx_ll_spi.h ****   * @note   This bit should not be changed when communication is ongoing. This bit is not used in S
 870:Drivers/STM32G4xx_HAL_Driver/Inc/stm32g4xx_ll_spi.h ****   * @rmtoll CR2          NSSP          LL_SPI_DisableNSSPulseMgt
 871:Drivers/STM32G4xx_HAL_Driver/Inc/stm32g4xx_ll_spi.h ****   * @param  SPIx SPI Instance
 872:Drivers/STM32G4xx_HAL_Driver/Inc/stm32g4xx_ll_spi.h ****   * @retval None
 873:Drivers/STM32G4xx_HAL_Driver/Inc/stm32g4xx_ll_spi.h ****   */
 874:Drivers/STM32G4xx_HAL_Driver/Inc/stm32g4xx_ll_spi.h **** __STATIC_INLINE void LL_SPI_DisableNSSPulseMgt(SPI_TypeDef *SPIx)
 875:Drivers/STM32G4xx_HAL_Driver/Inc/stm32g4xx_ll_spi.h **** {
 876:Drivers/STM32G4xx_HAL_Driver/Inc/stm32g4xx_ll_spi.h ****   CLEAR_BIT(SPIx->CR2, SPI_CR2_NSSP);
 877:Drivers/STM32G4xx_HAL_Driver/Inc/stm32g4xx_ll_spi.h **** }
 878:Drivers/STM32G4xx_HAL_Driver/Inc/stm32g4xx_ll_spi.h **** 
 879:Drivers/STM32G4xx_HAL_Driver/Inc/stm32g4xx_ll_spi.h **** /**
 880:Drivers/STM32G4xx_HAL_Driver/Inc/stm32g4xx_ll_spi.h ****   * @brief  Check if NSS pulse is enabled
 881:Drivers/STM32G4xx_HAL_Driver/Inc/stm32g4xx_ll_spi.h ****   * @note   This bit should not be changed when communication is ongoing. This bit is not used in S
 882:Drivers/STM32G4xx_HAL_Driver/Inc/stm32g4xx_ll_spi.h ****   * @rmtoll CR2          NSSP          LL_SPI_IsEnabledNSSPulse
 883:Drivers/STM32G4xx_HAL_Driver/Inc/stm32g4xx_ll_spi.h ****   * @param  SPIx SPI Instance
 884:Drivers/STM32G4xx_HAL_Driver/Inc/stm32g4xx_ll_spi.h ****   * @retval State of bit (1 or 0).
 885:Drivers/STM32G4xx_HAL_Driver/Inc/stm32g4xx_ll_spi.h ****   */
 886:Drivers/STM32G4xx_HAL_Driver/Inc/stm32g4xx_ll_spi.h **** __STATIC_INLINE uint32_t LL_SPI_IsEnabledNSSPulse(SPI_TypeDef *SPIx)
 887:Drivers/STM32G4xx_HAL_Driver/Inc/stm32g4xx_ll_spi.h **** {
 888:Drivers/STM32G4xx_HAL_Driver/Inc/stm32g4xx_ll_spi.h ****   return ((READ_BIT(SPIx->CR2, SPI_CR2_NSSP) == (SPI_CR2_NSSP)) ? 1UL : 0UL);
 889:Drivers/STM32G4xx_HAL_Driver/Inc/stm32g4xx_ll_spi.h **** }
 890:Drivers/STM32G4xx_HAL_Driver/Inc/stm32g4xx_ll_spi.h **** 
 891:Drivers/STM32G4xx_HAL_Driver/Inc/stm32g4xx_ll_spi.h **** /**
 892:Drivers/STM32G4xx_HAL_Driver/Inc/stm32g4xx_ll_spi.h ****   * @}
 893:Drivers/STM32G4xx_HAL_Driver/Inc/stm32g4xx_ll_spi.h ****   */
 894:Drivers/STM32G4xx_HAL_Driver/Inc/stm32g4xx_ll_spi.h **** 
 895:Drivers/STM32G4xx_HAL_Driver/Inc/stm32g4xx_ll_spi.h **** /** @defgroup SPI_LL_EF_FLAG_Management FLAG Management
 896:Drivers/STM32G4xx_HAL_Driver/Inc/stm32g4xx_ll_spi.h ****   * @{
 897:Drivers/STM32G4xx_HAL_Driver/Inc/stm32g4xx_ll_spi.h ****   */
 898:Drivers/STM32G4xx_HAL_Driver/Inc/stm32g4xx_ll_spi.h **** 
 899:Drivers/STM32G4xx_HAL_Driver/Inc/stm32g4xx_ll_spi.h **** /**
 900:Drivers/STM32G4xx_HAL_Driver/Inc/stm32g4xx_ll_spi.h ****   * @brief  Check if Rx buffer is not empty
 901:Drivers/STM32G4xx_HAL_Driver/Inc/stm32g4xx_ll_spi.h ****   * @rmtoll SR           RXNE          LL_SPI_IsActiveFlag_RXNE
 902:Drivers/STM32G4xx_HAL_Driver/Inc/stm32g4xx_ll_spi.h ****   * @param  SPIx SPI Instance
 903:Drivers/STM32G4xx_HAL_Driver/Inc/stm32g4xx_ll_spi.h ****   * @retval State of bit (1 or 0).
 904:Drivers/STM32G4xx_HAL_Driver/Inc/stm32g4xx_ll_spi.h ****   */
 905:Drivers/STM32G4xx_HAL_Driver/Inc/stm32g4xx_ll_spi.h **** __STATIC_INLINE uint32_t LL_SPI_IsActiveFlag_RXNE(SPI_TypeDef *SPIx)
 906:Drivers/STM32G4xx_HAL_Driver/Inc/stm32g4xx_ll_spi.h **** {
 907:Drivers/STM32G4xx_HAL_Driver/Inc/stm32g4xx_ll_spi.h ****   return ((READ_BIT(SPIx->SR, SPI_SR_RXNE) == (SPI_SR_RXNE)) ? 1UL : 0UL);
ARM GAS  /tmp/ccibP0tT.s 			page 20


 908:Drivers/STM32G4xx_HAL_Driver/Inc/stm32g4xx_ll_spi.h **** }
 909:Drivers/STM32G4xx_HAL_Driver/Inc/stm32g4xx_ll_spi.h **** 
 910:Drivers/STM32G4xx_HAL_Driver/Inc/stm32g4xx_ll_spi.h **** /**
 911:Drivers/STM32G4xx_HAL_Driver/Inc/stm32g4xx_ll_spi.h ****   * @brief  Check if Tx buffer is empty
 912:Drivers/STM32G4xx_HAL_Driver/Inc/stm32g4xx_ll_spi.h ****   * @rmtoll SR           TXE           LL_SPI_IsActiveFlag_TXE
 913:Drivers/STM32G4xx_HAL_Driver/Inc/stm32g4xx_ll_spi.h ****   * @param  SPIx SPI Instance
 914:Drivers/STM32G4xx_HAL_Driver/Inc/stm32g4xx_ll_spi.h ****   * @retval State of bit (1 or 0).
 915:Drivers/STM32G4xx_HAL_Driver/Inc/stm32g4xx_ll_spi.h ****   */
 916:Drivers/STM32G4xx_HAL_Driver/Inc/stm32g4xx_ll_spi.h **** __STATIC_INLINE uint32_t LL_SPI_IsActiveFlag_TXE(SPI_TypeDef *SPIx)
 917:Drivers/STM32G4xx_HAL_Driver/Inc/stm32g4xx_ll_spi.h **** {
 918:Drivers/STM32G4xx_HAL_Driver/Inc/stm32g4xx_ll_spi.h ****   return ((READ_BIT(SPIx->SR, SPI_SR_TXE) == (SPI_SR_TXE)) ? 1UL : 0UL);
 919:Drivers/STM32G4xx_HAL_Driver/Inc/stm32g4xx_ll_spi.h **** }
 920:Drivers/STM32G4xx_HAL_Driver/Inc/stm32g4xx_ll_spi.h **** 
 921:Drivers/STM32G4xx_HAL_Driver/Inc/stm32g4xx_ll_spi.h **** /**
 922:Drivers/STM32G4xx_HAL_Driver/Inc/stm32g4xx_ll_spi.h ****   * @brief  Get CRC error flag
 923:Drivers/STM32G4xx_HAL_Driver/Inc/stm32g4xx_ll_spi.h ****   * @rmtoll SR           CRCERR        LL_SPI_IsActiveFlag_CRCERR
 924:Drivers/STM32G4xx_HAL_Driver/Inc/stm32g4xx_ll_spi.h ****   * @param  SPIx SPI Instance
 925:Drivers/STM32G4xx_HAL_Driver/Inc/stm32g4xx_ll_spi.h ****   * @retval State of bit (1 or 0).
 926:Drivers/STM32G4xx_HAL_Driver/Inc/stm32g4xx_ll_spi.h ****   */
 927:Drivers/STM32G4xx_HAL_Driver/Inc/stm32g4xx_ll_spi.h **** __STATIC_INLINE uint32_t LL_SPI_IsActiveFlag_CRCERR(SPI_TypeDef *SPIx)
 928:Drivers/STM32G4xx_HAL_Driver/Inc/stm32g4xx_ll_spi.h **** {
 929:Drivers/STM32G4xx_HAL_Driver/Inc/stm32g4xx_ll_spi.h ****   return ((READ_BIT(SPIx->SR, SPI_SR_CRCERR) == (SPI_SR_CRCERR)) ? 1UL : 0UL);
 930:Drivers/STM32G4xx_HAL_Driver/Inc/stm32g4xx_ll_spi.h **** }
 931:Drivers/STM32G4xx_HAL_Driver/Inc/stm32g4xx_ll_spi.h **** 
 932:Drivers/STM32G4xx_HAL_Driver/Inc/stm32g4xx_ll_spi.h **** /**
 933:Drivers/STM32G4xx_HAL_Driver/Inc/stm32g4xx_ll_spi.h ****   * @brief  Get mode fault error flag
 934:Drivers/STM32G4xx_HAL_Driver/Inc/stm32g4xx_ll_spi.h ****   * @rmtoll SR           MODF          LL_SPI_IsActiveFlag_MODF
 935:Drivers/STM32G4xx_HAL_Driver/Inc/stm32g4xx_ll_spi.h ****   * @param  SPIx SPI Instance
 936:Drivers/STM32G4xx_HAL_Driver/Inc/stm32g4xx_ll_spi.h ****   * @retval State of bit (1 or 0).
 937:Drivers/STM32G4xx_HAL_Driver/Inc/stm32g4xx_ll_spi.h ****   */
 938:Drivers/STM32G4xx_HAL_Driver/Inc/stm32g4xx_ll_spi.h **** __STATIC_INLINE uint32_t LL_SPI_IsActiveFlag_MODF(SPI_TypeDef *SPIx)
 939:Drivers/STM32G4xx_HAL_Driver/Inc/stm32g4xx_ll_spi.h **** {
 940:Drivers/STM32G4xx_HAL_Driver/Inc/stm32g4xx_ll_spi.h ****   return ((READ_BIT(SPIx->SR, SPI_SR_MODF) == (SPI_SR_MODF)) ? 1UL : 0UL);
 941:Drivers/STM32G4xx_HAL_Driver/Inc/stm32g4xx_ll_spi.h **** }
 942:Drivers/STM32G4xx_HAL_Driver/Inc/stm32g4xx_ll_spi.h **** 
 943:Drivers/STM32G4xx_HAL_Driver/Inc/stm32g4xx_ll_spi.h **** /**
 944:Drivers/STM32G4xx_HAL_Driver/Inc/stm32g4xx_ll_spi.h ****   * @brief  Get overrun error flag
 945:Drivers/STM32G4xx_HAL_Driver/Inc/stm32g4xx_ll_spi.h ****   * @rmtoll SR           OVR           LL_SPI_IsActiveFlag_OVR
 946:Drivers/STM32G4xx_HAL_Driver/Inc/stm32g4xx_ll_spi.h ****   * @param  SPIx SPI Instance
 947:Drivers/STM32G4xx_HAL_Driver/Inc/stm32g4xx_ll_spi.h ****   * @retval State of bit (1 or 0).
 948:Drivers/STM32G4xx_HAL_Driver/Inc/stm32g4xx_ll_spi.h ****   */
 949:Drivers/STM32G4xx_HAL_Driver/Inc/stm32g4xx_ll_spi.h **** __STATIC_INLINE uint32_t LL_SPI_IsActiveFlag_OVR(SPI_TypeDef *SPIx)
 950:Drivers/STM32G4xx_HAL_Driver/Inc/stm32g4xx_ll_spi.h **** {
 951:Drivers/STM32G4xx_HAL_Driver/Inc/stm32g4xx_ll_spi.h ****   return ((READ_BIT(SPIx->SR, SPI_SR_OVR) == (SPI_SR_OVR)) ? 1UL : 0UL);
 952:Drivers/STM32G4xx_HAL_Driver/Inc/stm32g4xx_ll_spi.h **** }
 953:Drivers/STM32G4xx_HAL_Driver/Inc/stm32g4xx_ll_spi.h **** 
 954:Drivers/STM32G4xx_HAL_Driver/Inc/stm32g4xx_ll_spi.h **** /**
 955:Drivers/STM32G4xx_HAL_Driver/Inc/stm32g4xx_ll_spi.h ****   * @brief  Get busy flag
 956:Drivers/STM32G4xx_HAL_Driver/Inc/stm32g4xx_ll_spi.h ****   * @note   The BSY flag is cleared under any one of the following conditions:
 957:Drivers/STM32G4xx_HAL_Driver/Inc/stm32g4xx_ll_spi.h ****   * -When the SPI is correctly disabled
 958:Drivers/STM32G4xx_HAL_Driver/Inc/stm32g4xx_ll_spi.h ****   * -When a fault is detected in Master mode (MODF bit set to 1)
 959:Drivers/STM32G4xx_HAL_Driver/Inc/stm32g4xx_ll_spi.h ****   * -In Master mode, when it finishes a data transmission and no new data is ready to be
 960:Drivers/STM32G4xx_HAL_Driver/Inc/stm32g4xx_ll_spi.h ****   * sent
 961:Drivers/STM32G4xx_HAL_Driver/Inc/stm32g4xx_ll_spi.h ****   * -In Slave mode, when the BSY flag is set to '0' for at least one SPI clock cycle between
 962:Drivers/STM32G4xx_HAL_Driver/Inc/stm32g4xx_ll_spi.h ****   * each data transfer.
 963:Drivers/STM32G4xx_HAL_Driver/Inc/stm32g4xx_ll_spi.h ****   * @rmtoll SR           BSY           LL_SPI_IsActiveFlag_BSY
 964:Drivers/STM32G4xx_HAL_Driver/Inc/stm32g4xx_ll_spi.h ****   * @param  SPIx SPI Instance
ARM GAS  /tmp/ccibP0tT.s 			page 21


 965:Drivers/STM32G4xx_HAL_Driver/Inc/stm32g4xx_ll_spi.h ****   * @retval State of bit (1 or 0).
 966:Drivers/STM32G4xx_HAL_Driver/Inc/stm32g4xx_ll_spi.h ****   */
 967:Drivers/STM32G4xx_HAL_Driver/Inc/stm32g4xx_ll_spi.h **** __STATIC_INLINE uint32_t LL_SPI_IsActiveFlag_BSY(SPI_TypeDef *SPIx)
 968:Drivers/STM32G4xx_HAL_Driver/Inc/stm32g4xx_ll_spi.h **** {
 969:Drivers/STM32G4xx_HAL_Driver/Inc/stm32g4xx_ll_spi.h ****   return ((READ_BIT(SPIx->SR, SPI_SR_BSY) == (SPI_SR_BSY)) ? 1UL : 0UL);
 970:Drivers/STM32G4xx_HAL_Driver/Inc/stm32g4xx_ll_spi.h **** }
 971:Drivers/STM32G4xx_HAL_Driver/Inc/stm32g4xx_ll_spi.h **** 
 972:Drivers/STM32G4xx_HAL_Driver/Inc/stm32g4xx_ll_spi.h **** /**
 973:Drivers/STM32G4xx_HAL_Driver/Inc/stm32g4xx_ll_spi.h ****   * @brief  Get frame format error flag
 974:Drivers/STM32G4xx_HAL_Driver/Inc/stm32g4xx_ll_spi.h ****   * @rmtoll SR           FRE           LL_SPI_IsActiveFlag_FRE
 975:Drivers/STM32G4xx_HAL_Driver/Inc/stm32g4xx_ll_spi.h ****   * @param  SPIx SPI Instance
 976:Drivers/STM32G4xx_HAL_Driver/Inc/stm32g4xx_ll_spi.h ****   * @retval State of bit (1 or 0).
 977:Drivers/STM32G4xx_HAL_Driver/Inc/stm32g4xx_ll_spi.h ****   */
 978:Drivers/STM32G4xx_HAL_Driver/Inc/stm32g4xx_ll_spi.h **** __STATIC_INLINE uint32_t LL_SPI_IsActiveFlag_FRE(SPI_TypeDef *SPIx)
 979:Drivers/STM32G4xx_HAL_Driver/Inc/stm32g4xx_ll_spi.h **** {
 980:Drivers/STM32G4xx_HAL_Driver/Inc/stm32g4xx_ll_spi.h ****   return ((READ_BIT(SPIx->SR, SPI_SR_FRE) == (SPI_SR_FRE)) ? 1UL : 0UL);
 981:Drivers/STM32G4xx_HAL_Driver/Inc/stm32g4xx_ll_spi.h **** }
 982:Drivers/STM32G4xx_HAL_Driver/Inc/stm32g4xx_ll_spi.h **** 
 983:Drivers/STM32G4xx_HAL_Driver/Inc/stm32g4xx_ll_spi.h **** /**
 984:Drivers/STM32G4xx_HAL_Driver/Inc/stm32g4xx_ll_spi.h ****   * @brief  Get FIFO reception Level
 985:Drivers/STM32G4xx_HAL_Driver/Inc/stm32g4xx_ll_spi.h ****   * @rmtoll SR           FRLVL         LL_SPI_GetRxFIFOLevel
 986:Drivers/STM32G4xx_HAL_Driver/Inc/stm32g4xx_ll_spi.h ****   * @param  SPIx SPI Instance
 987:Drivers/STM32G4xx_HAL_Driver/Inc/stm32g4xx_ll_spi.h ****   * @retval Returned value can be one of the following values:
 988:Drivers/STM32G4xx_HAL_Driver/Inc/stm32g4xx_ll_spi.h ****   *         @arg @ref LL_SPI_RX_FIFO_EMPTY
 989:Drivers/STM32G4xx_HAL_Driver/Inc/stm32g4xx_ll_spi.h ****   *         @arg @ref LL_SPI_RX_FIFO_QUARTER_FULL
 990:Drivers/STM32G4xx_HAL_Driver/Inc/stm32g4xx_ll_spi.h ****   *         @arg @ref LL_SPI_RX_FIFO_HALF_FULL
 991:Drivers/STM32G4xx_HAL_Driver/Inc/stm32g4xx_ll_spi.h ****   *         @arg @ref LL_SPI_RX_FIFO_FULL
 992:Drivers/STM32G4xx_HAL_Driver/Inc/stm32g4xx_ll_spi.h ****   */
 993:Drivers/STM32G4xx_HAL_Driver/Inc/stm32g4xx_ll_spi.h **** __STATIC_INLINE uint32_t LL_SPI_GetRxFIFOLevel(SPI_TypeDef *SPIx)
 994:Drivers/STM32G4xx_HAL_Driver/Inc/stm32g4xx_ll_spi.h **** {
 995:Drivers/STM32G4xx_HAL_Driver/Inc/stm32g4xx_ll_spi.h ****   return (uint32_t)(READ_BIT(SPIx->SR, SPI_SR_FRLVL));
 996:Drivers/STM32G4xx_HAL_Driver/Inc/stm32g4xx_ll_spi.h **** }
 997:Drivers/STM32G4xx_HAL_Driver/Inc/stm32g4xx_ll_spi.h **** 
 998:Drivers/STM32G4xx_HAL_Driver/Inc/stm32g4xx_ll_spi.h **** /**
 999:Drivers/STM32G4xx_HAL_Driver/Inc/stm32g4xx_ll_spi.h ****   * @brief  Get FIFO Transmission Level
1000:Drivers/STM32G4xx_HAL_Driver/Inc/stm32g4xx_ll_spi.h ****   * @rmtoll SR           FTLVL         LL_SPI_GetTxFIFOLevel
1001:Drivers/STM32G4xx_HAL_Driver/Inc/stm32g4xx_ll_spi.h ****   * @param  SPIx SPI Instance
1002:Drivers/STM32G4xx_HAL_Driver/Inc/stm32g4xx_ll_spi.h ****   * @retval Returned value can be one of the following values:
1003:Drivers/STM32G4xx_HAL_Driver/Inc/stm32g4xx_ll_spi.h ****   *         @arg @ref LL_SPI_TX_FIFO_EMPTY
1004:Drivers/STM32G4xx_HAL_Driver/Inc/stm32g4xx_ll_spi.h ****   *         @arg @ref LL_SPI_TX_FIFO_QUARTER_FULL
1005:Drivers/STM32G4xx_HAL_Driver/Inc/stm32g4xx_ll_spi.h ****   *         @arg @ref LL_SPI_TX_FIFO_HALF_FULL
1006:Drivers/STM32G4xx_HAL_Driver/Inc/stm32g4xx_ll_spi.h ****   *         @arg @ref LL_SPI_TX_FIFO_FULL
1007:Drivers/STM32G4xx_HAL_Driver/Inc/stm32g4xx_ll_spi.h ****   */
1008:Drivers/STM32G4xx_HAL_Driver/Inc/stm32g4xx_ll_spi.h **** __STATIC_INLINE uint32_t LL_SPI_GetTxFIFOLevel(SPI_TypeDef *SPIx)
1009:Drivers/STM32G4xx_HAL_Driver/Inc/stm32g4xx_ll_spi.h **** {
1010:Drivers/STM32G4xx_HAL_Driver/Inc/stm32g4xx_ll_spi.h ****   return (uint32_t)(READ_BIT(SPIx->SR, SPI_SR_FTLVL));
1011:Drivers/STM32G4xx_HAL_Driver/Inc/stm32g4xx_ll_spi.h **** }
1012:Drivers/STM32G4xx_HAL_Driver/Inc/stm32g4xx_ll_spi.h **** 
1013:Drivers/STM32G4xx_HAL_Driver/Inc/stm32g4xx_ll_spi.h **** /**
1014:Drivers/STM32G4xx_HAL_Driver/Inc/stm32g4xx_ll_spi.h ****   * @brief  Clear CRC error flag
1015:Drivers/STM32G4xx_HAL_Driver/Inc/stm32g4xx_ll_spi.h ****   * @rmtoll SR           CRCERR        LL_SPI_ClearFlag_CRCERR
1016:Drivers/STM32G4xx_HAL_Driver/Inc/stm32g4xx_ll_spi.h ****   * @param  SPIx SPI Instance
1017:Drivers/STM32G4xx_HAL_Driver/Inc/stm32g4xx_ll_spi.h ****   * @retval None
1018:Drivers/STM32G4xx_HAL_Driver/Inc/stm32g4xx_ll_spi.h ****   */
1019:Drivers/STM32G4xx_HAL_Driver/Inc/stm32g4xx_ll_spi.h **** __STATIC_INLINE void LL_SPI_ClearFlag_CRCERR(SPI_TypeDef *SPIx)
1020:Drivers/STM32G4xx_HAL_Driver/Inc/stm32g4xx_ll_spi.h **** {
1021:Drivers/STM32G4xx_HAL_Driver/Inc/stm32g4xx_ll_spi.h ****   CLEAR_BIT(SPIx->SR, SPI_SR_CRCERR);
ARM GAS  /tmp/ccibP0tT.s 			page 22


1022:Drivers/STM32G4xx_HAL_Driver/Inc/stm32g4xx_ll_spi.h **** }
1023:Drivers/STM32G4xx_HAL_Driver/Inc/stm32g4xx_ll_spi.h **** 
1024:Drivers/STM32G4xx_HAL_Driver/Inc/stm32g4xx_ll_spi.h **** /**
1025:Drivers/STM32G4xx_HAL_Driver/Inc/stm32g4xx_ll_spi.h ****   * @brief  Clear mode fault error flag
1026:Drivers/STM32G4xx_HAL_Driver/Inc/stm32g4xx_ll_spi.h ****   * @note   Clearing this flag is done by a read access to the SPIx_SR
1027:Drivers/STM32G4xx_HAL_Driver/Inc/stm32g4xx_ll_spi.h ****   *         register followed by a write access to the SPIx_CR1 register
1028:Drivers/STM32G4xx_HAL_Driver/Inc/stm32g4xx_ll_spi.h ****   * @rmtoll SR           MODF          LL_SPI_ClearFlag_MODF
1029:Drivers/STM32G4xx_HAL_Driver/Inc/stm32g4xx_ll_spi.h ****   * @param  SPIx SPI Instance
1030:Drivers/STM32G4xx_HAL_Driver/Inc/stm32g4xx_ll_spi.h ****   * @retval None
1031:Drivers/STM32G4xx_HAL_Driver/Inc/stm32g4xx_ll_spi.h ****   */
1032:Drivers/STM32G4xx_HAL_Driver/Inc/stm32g4xx_ll_spi.h **** __STATIC_INLINE void LL_SPI_ClearFlag_MODF(SPI_TypeDef *SPIx)
1033:Drivers/STM32G4xx_HAL_Driver/Inc/stm32g4xx_ll_spi.h **** {
1034:Drivers/STM32G4xx_HAL_Driver/Inc/stm32g4xx_ll_spi.h ****   __IO uint32_t tmpreg_sr;
1035:Drivers/STM32G4xx_HAL_Driver/Inc/stm32g4xx_ll_spi.h ****   tmpreg_sr = SPIx->SR;
1036:Drivers/STM32G4xx_HAL_Driver/Inc/stm32g4xx_ll_spi.h ****   (void) tmpreg_sr;
1037:Drivers/STM32G4xx_HAL_Driver/Inc/stm32g4xx_ll_spi.h ****   CLEAR_BIT(SPIx->CR1, SPI_CR1_SPE);
1038:Drivers/STM32G4xx_HAL_Driver/Inc/stm32g4xx_ll_spi.h **** }
1039:Drivers/STM32G4xx_HAL_Driver/Inc/stm32g4xx_ll_spi.h **** 
1040:Drivers/STM32G4xx_HAL_Driver/Inc/stm32g4xx_ll_spi.h **** /**
1041:Drivers/STM32G4xx_HAL_Driver/Inc/stm32g4xx_ll_spi.h ****   * @brief  Clear overrun error flag
1042:Drivers/STM32G4xx_HAL_Driver/Inc/stm32g4xx_ll_spi.h ****   * @note   Clearing this flag is done by a read access to the SPIx_DR
1043:Drivers/STM32G4xx_HAL_Driver/Inc/stm32g4xx_ll_spi.h ****   *         register followed by a read access to the SPIx_SR register
1044:Drivers/STM32G4xx_HAL_Driver/Inc/stm32g4xx_ll_spi.h ****   * @rmtoll SR           OVR           LL_SPI_ClearFlag_OVR
1045:Drivers/STM32G4xx_HAL_Driver/Inc/stm32g4xx_ll_spi.h ****   * @param  SPIx SPI Instance
1046:Drivers/STM32G4xx_HAL_Driver/Inc/stm32g4xx_ll_spi.h ****   * @retval None
1047:Drivers/STM32G4xx_HAL_Driver/Inc/stm32g4xx_ll_spi.h ****   */
1048:Drivers/STM32G4xx_HAL_Driver/Inc/stm32g4xx_ll_spi.h **** __STATIC_INLINE void LL_SPI_ClearFlag_OVR(SPI_TypeDef *SPIx)
1049:Drivers/STM32G4xx_HAL_Driver/Inc/stm32g4xx_ll_spi.h **** {
1050:Drivers/STM32G4xx_HAL_Driver/Inc/stm32g4xx_ll_spi.h ****   __IO uint32_t tmpreg;
1051:Drivers/STM32G4xx_HAL_Driver/Inc/stm32g4xx_ll_spi.h ****   tmpreg = SPIx->DR;
1052:Drivers/STM32G4xx_HAL_Driver/Inc/stm32g4xx_ll_spi.h ****   (void) tmpreg;
1053:Drivers/STM32G4xx_HAL_Driver/Inc/stm32g4xx_ll_spi.h ****   tmpreg = SPIx->SR;
1054:Drivers/STM32G4xx_HAL_Driver/Inc/stm32g4xx_ll_spi.h ****   (void) tmpreg;
1055:Drivers/STM32G4xx_HAL_Driver/Inc/stm32g4xx_ll_spi.h **** }
1056:Drivers/STM32G4xx_HAL_Driver/Inc/stm32g4xx_ll_spi.h **** 
1057:Drivers/STM32G4xx_HAL_Driver/Inc/stm32g4xx_ll_spi.h **** /**
1058:Drivers/STM32G4xx_HAL_Driver/Inc/stm32g4xx_ll_spi.h ****   * @brief  Clear frame format error flag
1059:Drivers/STM32G4xx_HAL_Driver/Inc/stm32g4xx_ll_spi.h ****   * @note   Clearing this flag is done by reading SPIx_SR register
1060:Drivers/STM32G4xx_HAL_Driver/Inc/stm32g4xx_ll_spi.h ****   * @rmtoll SR           FRE           LL_SPI_ClearFlag_FRE
1061:Drivers/STM32G4xx_HAL_Driver/Inc/stm32g4xx_ll_spi.h ****   * @param  SPIx SPI Instance
1062:Drivers/STM32G4xx_HAL_Driver/Inc/stm32g4xx_ll_spi.h ****   * @retval None
1063:Drivers/STM32G4xx_HAL_Driver/Inc/stm32g4xx_ll_spi.h ****   */
1064:Drivers/STM32G4xx_HAL_Driver/Inc/stm32g4xx_ll_spi.h **** __STATIC_INLINE void LL_SPI_ClearFlag_FRE(SPI_TypeDef *SPIx)
1065:Drivers/STM32G4xx_HAL_Driver/Inc/stm32g4xx_ll_spi.h **** {
1066:Drivers/STM32G4xx_HAL_Driver/Inc/stm32g4xx_ll_spi.h ****   __IO uint32_t tmpreg;
1067:Drivers/STM32G4xx_HAL_Driver/Inc/stm32g4xx_ll_spi.h ****   tmpreg = SPIx->SR;
1068:Drivers/STM32G4xx_HAL_Driver/Inc/stm32g4xx_ll_spi.h ****   (void) tmpreg;
1069:Drivers/STM32G4xx_HAL_Driver/Inc/stm32g4xx_ll_spi.h **** }
1070:Drivers/STM32G4xx_HAL_Driver/Inc/stm32g4xx_ll_spi.h **** 
1071:Drivers/STM32G4xx_HAL_Driver/Inc/stm32g4xx_ll_spi.h **** /**
1072:Drivers/STM32G4xx_HAL_Driver/Inc/stm32g4xx_ll_spi.h ****   * @}
1073:Drivers/STM32G4xx_HAL_Driver/Inc/stm32g4xx_ll_spi.h ****   */
1074:Drivers/STM32G4xx_HAL_Driver/Inc/stm32g4xx_ll_spi.h **** 
1075:Drivers/STM32G4xx_HAL_Driver/Inc/stm32g4xx_ll_spi.h **** /** @defgroup SPI_LL_EF_IT_Management Interrupt Management
1076:Drivers/STM32G4xx_HAL_Driver/Inc/stm32g4xx_ll_spi.h ****   * @{
1077:Drivers/STM32G4xx_HAL_Driver/Inc/stm32g4xx_ll_spi.h ****   */
1078:Drivers/STM32G4xx_HAL_Driver/Inc/stm32g4xx_ll_spi.h **** 
ARM GAS  /tmp/ccibP0tT.s 			page 23


1079:Drivers/STM32G4xx_HAL_Driver/Inc/stm32g4xx_ll_spi.h **** /**
1080:Drivers/STM32G4xx_HAL_Driver/Inc/stm32g4xx_ll_spi.h ****   * @brief  Enable error interrupt
1081:Drivers/STM32G4xx_HAL_Driver/Inc/stm32g4xx_ll_spi.h ****   * @note   This bit controls the generation of an interrupt when an error condition occurs (CRCERR
1082:Drivers/STM32G4xx_HAL_Driver/Inc/stm32g4xx_ll_spi.h ****   * @rmtoll CR2          ERRIE         LL_SPI_EnableIT_ERR
1083:Drivers/STM32G4xx_HAL_Driver/Inc/stm32g4xx_ll_spi.h ****   * @param  SPIx SPI Instance
1084:Drivers/STM32G4xx_HAL_Driver/Inc/stm32g4xx_ll_spi.h ****   * @retval None
1085:Drivers/STM32G4xx_HAL_Driver/Inc/stm32g4xx_ll_spi.h ****   */
1086:Drivers/STM32G4xx_HAL_Driver/Inc/stm32g4xx_ll_spi.h **** __STATIC_INLINE void LL_SPI_EnableIT_ERR(SPI_TypeDef *SPIx)
1087:Drivers/STM32G4xx_HAL_Driver/Inc/stm32g4xx_ll_spi.h **** {
1088:Drivers/STM32G4xx_HAL_Driver/Inc/stm32g4xx_ll_spi.h ****   SET_BIT(SPIx->CR2, SPI_CR2_ERRIE);
1089:Drivers/STM32G4xx_HAL_Driver/Inc/stm32g4xx_ll_spi.h **** }
1090:Drivers/STM32G4xx_HAL_Driver/Inc/stm32g4xx_ll_spi.h **** 
1091:Drivers/STM32G4xx_HAL_Driver/Inc/stm32g4xx_ll_spi.h **** /**
1092:Drivers/STM32G4xx_HAL_Driver/Inc/stm32g4xx_ll_spi.h ****   * @brief  Enable Rx buffer not empty interrupt
1093:Drivers/STM32G4xx_HAL_Driver/Inc/stm32g4xx_ll_spi.h ****   * @rmtoll CR2          RXNEIE        LL_SPI_EnableIT_RXNE
1094:Drivers/STM32G4xx_HAL_Driver/Inc/stm32g4xx_ll_spi.h ****   * @param  SPIx SPI Instance
1095:Drivers/STM32G4xx_HAL_Driver/Inc/stm32g4xx_ll_spi.h ****   * @retval None
1096:Drivers/STM32G4xx_HAL_Driver/Inc/stm32g4xx_ll_spi.h ****   */
1097:Drivers/STM32G4xx_HAL_Driver/Inc/stm32g4xx_ll_spi.h **** __STATIC_INLINE void LL_SPI_EnableIT_RXNE(SPI_TypeDef *SPIx)
1098:Drivers/STM32G4xx_HAL_Driver/Inc/stm32g4xx_ll_spi.h **** {
1099:Drivers/STM32G4xx_HAL_Driver/Inc/stm32g4xx_ll_spi.h ****   SET_BIT(SPIx->CR2, SPI_CR2_RXNEIE);
1100:Drivers/STM32G4xx_HAL_Driver/Inc/stm32g4xx_ll_spi.h **** }
1101:Drivers/STM32G4xx_HAL_Driver/Inc/stm32g4xx_ll_spi.h **** 
1102:Drivers/STM32G4xx_HAL_Driver/Inc/stm32g4xx_ll_spi.h **** /**
1103:Drivers/STM32G4xx_HAL_Driver/Inc/stm32g4xx_ll_spi.h ****   * @brief  Enable Tx buffer empty interrupt
1104:Drivers/STM32G4xx_HAL_Driver/Inc/stm32g4xx_ll_spi.h ****   * @rmtoll CR2          TXEIE         LL_SPI_EnableIT_TXE
1105:Drivers/STM32G4xx_HAL_Driver/Inc/stm32g4xx_ll_spi.h ****   * @param  SPIx SPI Instance
1106:Drivers/STM32G4xx_HAL_Driver/Inc/stm32g4xx_ll_spi.h ****   * @retval None
1107:Drivers/STM32G4xx_HAL_Driver/Inc/stm32g4xx_ll_spi.h ****   */
1108:Drivers/STM32G4xx_HAL_Driver/Inc/stm32g4xx_ll_spi.h **** __STATIC_INLINE void LL_SPI_EnableIT_TXE(SPI_TypeDef *SPIx)
1109:Drivers/STM32G4xx_HAL_Driver/Inc/stm32g4xx_ll_spi.h **** {
1110:Drivers/STM32G4xx_HAL_Driver/Inc/stm32g4xx_ll_spi.h ****   SET_BIT(SPIx->CR2, SPI_CR2_TXEIE);
1111:Drivers/STM32G4xx_HAL_Driver/Inc/stm32g4xx_ll_spi.h **** }
1112:Drivers/STM32G4xx_HAL_Driver/Inc/stm32g4xx_ll_spi.h **** 
1113:Drivers/STM32G4xx_HAL_Driver/Inc/stm32g4xx_ll_spi.h **** /**
1114:Drivers/STM32G4xx_HAL_Driver/Inc/stm32g4xx_ll_spi.h ****   * @brief  Disable error interrupt
1115:Drivers/STM32G4xx_HAL_Driver/Inc/stm32g4xx_ll_spi.h ****   * @note   This bit controls the generation of an interrupt when an error condition occurs (CRCERR
1116:Drivers/STM32G4xx_HAL_Driver/Inc/stm32g4xx_ll_spi.h ****   * @rmtoll CR2          ERRIE         LL_SPI_DisableIT_ERR
1117:Drivers/STM32G4xx_HAL_Driver/Inc/stm32g4xx_ll_spi.h ****   * @param  SPIx SPI Instance
1118:Drivers/STM32G4xx_HAL_Driver/Inc/stm32g4xx_ll_spi.h ****   * @retval None
1119:Drivers/STM32G4xx_HAL_Driver/Inc/stm32g4xx_ll_spi.h ****   */
1120:Drivers/STM32G4xx_HAL_Driver/Inc/stm32g4xx_ll_spi.h **** __STATIC_INLINE void LL_SPI_DisableIT_ERR(SPI_TypeDef *SPIx)
1121:Drivers/STM32G4xx_HAL_Driver/Inc/stm32g4xx_ll_spi.h **** {
1122:Drivers/STM32G4xx_HAL_Driver/Inc/stm32g4xx_ll_spi.h ****   CLEAR_BIT(SPIx->CR2, SPI_CR2_ERRIE);
1123:Drivers/STM32G4xx_HAL_Driver/Inc/stm32g4xx_ll_spi.h **** }
1124:Drivers/STM32G4xx_HAL_Driver/Inc/stm32g4xx_ll_spi.h **** 
1125:Drivers/STM32G4xx_HAL_Driver/Inc/stm32g4xx_ll_spi.h **** /**
1126:Drivers/STM32G4xx_HAL_Driver/Inc/stm32g4xx_ll_spi.h ****   * @brief  Disable Rx buffer not empty interrupt
1127:Drivers/STM32G4xx_HAL_Driver/Inc/stm32g4xx_ll_spi.h ****   * @rmtoll CR2          RXNEIE        LL_SPI_DisableIT_RXNE
1128:Drivers/STM32G4xx_HAL_Driver/Inc/stm32g4xx_ll_spi.h ****   * @param  SPIx SPI Instance
1129:Drivers/STM32G4xx_HAL_Driver/Inc/stm32g4xx_ll_spi.h ****   * @retval None
1130:Drivers/STM32G4xx_HAL_Driver/Inc/stm32g4xx_ll_spi.h ****   */
1131:Drivers/STM32G4xx_HAL_Driver/Inc/stm32g4xx_ll_spi.h **** __STATIC_INLINE void LL_SPI_DisableIT_RXNE(SPI_TypeDef *SPIx)
1132:Drivers/STM32G4xx_HAL_Driver/Inc/stm32g4xx_ll_spi.h **** {
1133:Drivers/STM32G4xx_HAL_Driver/Inc/stm32g4xx_ll_spi.h ****   CLEAR_BIT(SPIx->CR2, SPI_CR2_RXNEIE);
1134:Drivers/STM32G4xx_HAL_Driver/Inc/stm32g4xx_ll_spi.h **** }
1135:Drivers/STM32G4xx_HAL_Driver/Inc/stm32g4xx_ll_spi.h **** 
ARM GAS  /tmp/ccibP0tT.s 			page 24


1136:Drivers/STM32G4xx_HAL_Driver/Inc/stm32g4xx_ll_spi.h **** /**
1137:Drivers/STM32G4xx_HAL_Driver/Inc/stm32g4xx_ll_spi.h ****   * @brief  Disable Tx buffer empty interrupt
1138:Drivers/STM32G4xx_HAL_Driver/Inc/stm32g4xx_ll_spi.h ****   * @rmtoll CR2          TXEIE         LL_SPI_DisableIT_TXE
1139:Drivers/STM32G4xx_HAL_Driver/Inc/stm32g4xx_ll_spi.h ****   * @param  SPIx SPI Instance
1140:Drivers/STM32G4xx_HAL_Driver/Inc/stm32g4xx_ll_spi.h ****   * @retval None
1141:Drivers/STM32G4xx_HAL_Driver/Inc/stm32g4xx_ll_spi.h ****   */
1142:Drivers/STM32G4xx_HAL_Driver/Inc/stm32g4xx_ll_spi.h **** __STATIC_INLINE void LL_SPI_DisableIT_TXE(SPI_TypeDef *SPIx)
1143:Drivers/STM32G4xx_HAL_Driver/Inc/stm32g4xx_ll_spi.h **** {
1144:Drivers/STM32G4xx_HAL_Driver/Inc/stm32g4xx_ll_spi.h ****   CLEAR_BIT(SPIx->CR2, SPI_CR2_TXEIE);
1145:Drivers/STM32G4xx_HAL_Driver/Inc/stm32g4xx_ll_spi.h **** }
1146:Drivers/STM32G4xx_HAL_Driver/Inc/stm32g4xx_ll_spi.h **** 
1147:Drivers/STM32G4xx_HAL_Driver/Inc/stm32g4xx_ll_spi.h **** /**
1148:Drivers/STM32G4xx_HAL_Driver/Inc/stm32g4xx_ll_spi.h ****   * @brief  Check if error interrupt is enabled
1149:Drivers/STM32G4xx_HAL_Driver/Inc/stm32g4xx_ll_spi.h ****   * @rmtoll CR2          ERRIE         LL_SPI_IsEnabledIT_ERR
1150:Drivers/STM32G4xx_HAL_Driver/Inc/stm32g4xx_ll_spi.h ****   * @param  SPIx SPI Instance
1151:Drivers/STM32G4xx_HAL_Driver/Inc/stm32g4xx_ll_spi.h ****   * @retval State of bit (1 or 0).
1152:Drivers/STM32G4xx_HAL_Driver/Inc/stm32g4xx_ll_spi.h ****   */
1153:Drivers/STM32G4xx_HAL_Driver/Inc/stm32g4xx_ll_spi.h **** __STATIC_INLINE uint32_t LL_SPI_IsEnabledIT_ERR(SPI_TypeDef *SPIx)
1154:Drivers/STM32G4xx_HAL_Driver/Inc/stm32g4xx_ll_spi.h **** {
1155:Drivers/STM32G4xx_HAL_Driver/Inc/stm32g4xx_ll_spi.h ****   return ((READ_BIT(SPIx->CR2, SPI_CR2_ERRIE) == (SPI_CR2_ERRIE)) ? 1UL : 0UL);
1156:Drivers/STM32G4xx_HAL_Driver/Inc/stm32g4xx_ll_spi.h **** }
1157:Drivers/STM32G4xx_HAL_Driver/Inc/stm32g4xx_ll_spi.h **** 
1158:Drivers/STM32G4xx_HAL_Driver/Inc/stm32g4xx_ll_spi.h **** /**
1159:Drivers/STM32G4xx_HAL_Driver/Inc/stm32g4xx_ll_spi.h ****   * @brief  Check if Rx buffer not empty interrupt is enabled
1160:Drivers/STM32G4xx_HAL_Driver/Inc/stm32g4xx_ll_spi.h ****   * @rmtoll CR2          RXNEIE        LL_SPI_IsEnabledIT_RXNE
1161:Drivers/STM32G4xx_HAL_Driver/Inc/stm32g4xx_ll_spi.h ****   * @param  SPIx SPI Instance
1162:Drivers/STM32G4xx_HAL_Driver/Inc/stm32g4xx_ll_spi.h ****   * @retval State of bit (1 or 0).
1163:Drivers/STM32G4xx_HAL_Driver/Inc/stm32g4xx_ll_spi.h ****   */
1164:Drivers/STM32G4xx_HAL_Driver/Inc/stm32g4xx_ll_spi.h **** __STATIC_INLINE uint32_t LL_SPI_IsEnabledIT_RXNE(SPI_TypeDef *SPIx)
1165:Drivers/STM32G4xx_HAL_Driver/Inc/stm32g4xx_ll_spi.h **** {
1166:Drivers/STM32G4xx_HAL_Driver/Inc/stm32g4xx_ll_spi.h ****   return ((READ_BIT(SPIx->CR2, SPI_CR2_RXNEIE) == (SPI_CR2_RXNEIE)) ? 1UL : 0UL);
1167:Drivers/STM32G4xx_HAL_Driver/Inc/stm32g4xx_ll_spi.h **** }
1168:Drivers/STM32G4xx_HAL_Driver/Inc/stm32g4xx_ll_spi.h **** 
1169:Drivers/STM32G4xx_HAL_Driver/Inc/stm32g4xx_ll_spi.h **** /**
1170:Drivers/STM32G4xx_HAL_Driver/Inc/stm32g4xx_ll_spi.h ****   * @brief  Check if Tx buffer empty interrupt
1171:Drivers/STM32G4xx_HAL_Driver/Inc/stm32g4xx_ll_spi.h ****   * @rmtoll CR2          TXEIE         LL_SPI_IsEnabledIT_TXE
1172:Drivers/STM32G4xx_HAL_Driver/Inc/stm32g4xx_ll_spi.h ****   * @param  SPIx SPI Instance
1173:Drivers/STM32G4xx_HAL_Driver/Inc/stm32g4xx_ll_spi.h ****   * @retval State of bit (1 or 0).
1174:Drivers/STM32G4xx_HAL_Driver/Inc/stm32g4xx_ll_spi.h ****   */
1175:Drivers/STM32G4xx_HAL_Driver/Inc/stm32g4xx_ll_spi.h **** __STATIC_INLINE uint32_t LL_SPI_IsEnabledIT_TXE(SPI_TypeDef *SPIx)
1176:Drivers/STM32G4xx_HAL_Driver/Inc/stm32g4xx_ll_spi.h **** {
1177:Drivers/STM32G4xx_HAL_Driver/Inc/stm32g4xx_ll_spi.h ****   return ((READ_BIT(SPIx->CR2, SPI_CR2_TXEIE) == (SPI_CR2_TXEIE)) ? 1UL : 0UL);
1178:Drivers/STM32G4xx_HAL_Driver/Inc/stm32g4xx_ll_spi.h **** }
1179:Drivers/STM32G4xx_HAL_Driver/Inc/stm32g4xx_ll_spi.h **** 
1180:Drivers/STM32G4xx_HAL_Driver/Inc/stm32g4xx_ll_spi.h **** /**
1181:Drivers/STM32G4xx_HAL_Driver/Inc/stm32g4xx_ll_spi.h ****   * @}
1182:Drivers/STM32G4xx_HAL_Driver/Inc/stm32g4xx_ll_spi.h ****   */
1183:Drivers/STM32G4xx_HAL_Driver/Inc/stm32g4xx_ll_spi.h **** 
1184:Drivers/STM32G4xx_HAL_Driver/Inc/stm32g4xx_ll_spi.h **** /** @defgroup SPI_LL_EF_DMA_Management DMA Management
1185:Drivers/STM32G4xx_HAL_Driver/Inc/stm32g4xx_ll_spi.h ****   * @{
1186:Drivers/STM32G4xx_HAL_Driver/Inc/stm32g4xx_ll_spi.h ****   */
1187:Drivers/STM32G4xx_HAL_Driver/Inc/stm32g4xx_ll_spi.h **** 
1188:Drivers/STM32G4xx_HAL_Driver/Inc/stm32g4xx_ll_spi.h **** /**
1189:Drivers/STM32G4xx_HAL_Driver/Inc/stm32g4xx_ll_spi.h ****   * @brief  Enable DMA Rx
1190:Drivers/STM32G4xx_HAL_Driver/Inc/stm32g4xx_ll_spi.h ****   * @rmtoll CR2          RXDMAEN       LL_SPI_EnableDMAReq_RX
1191:Drivers/STM32G4xx_HAL_Driver/Inc/stm32g4xx_ll_spi.h ****   * @param  SPIx SPI Instance
1192:Drivers/STM32G4xx_HAL_Driver/Inc/stm32g4xx_ll_spi.h ****   * @retval None
ARM GAS  /tmp/ccibP0tT.s 			page 25


1193:Drivers/STM32G4xx_HAL_Driver/Inc/stm32g4xx_ll_spi.h ****   */
1194:Drivers/STM32G4xx_HAL_Driver/Inc/stm32g4xx_ll_spi.h **** __STATIC_INLINE void LL_SPI_EnableDMAReq_RX(SPI_TypeDef *SPIx)
1195:Drivers/STM32G4xx_HAL_Driver/Inc/stm32g4xx_ll_spi.h **** {
1196:Drivers/STM32G4xx_HAL_Driver/Inc/stm32g4xx_ll_spi.h ****   SET_BIT(SPIx->CR2, SPI_CR2_RXDMAEN);
1197:Drivers/STM32G4xx_HAL_Driver/Inc/stm32g4xx_ll_spi.h **** }
1198:Drivers/STM32G4xx_HAL_Driver/Inc/stm32g4xx_ll_spi.h **** 
1199:Drivers/STM32G4xx_HAL_Driver/Inc/stm32g4xx_ll_spi.h **** /**
1200:Drivers/STM32G4xx_HAL_Driver/Inc/stm32g4xx_ll_spi.h ****   * @brief  Disable DMA Rx
1201:Drivers/STM32G4xx_HAL_Driver/Inc/stm32g4xx_ll_spi.h ****   * @rmtoll CR2          RXDMAEN       LL_SPI_DisableDMAReq_RX
1202:Drivers/STM32G4xx_HAL_Driver/Inc/stm32g4xx_ll_spi.h ****   * @param  SPIx SPI Instance
1203:Drivers/STM32G4xx_HAL_Driver/Inc/stm32g4xx_ll_spi.h ****   * @retval None
1204:Drivers/STM32G4xx_HAL_Driver/Inc/stm32g4xx_ll_spi.h ****   */
1205:Drivers/STM32G4xx_HAL_Driver/Inc/stm32g4xx_ll_spi.h **** __STATIC_INLINE void LL_SPI_DisableDMAReq_RX(SPI_TypeDef *SPIx)
1206:Drivers/STM32G4xx_HAL_Driver/Inc/stm32g4xx_ll_spi.h **** {
1207:Drivers/STM32G4xx_HAL_Driver/Inc/stm32g4xx_ll_spi.h ****   CLEAR_BIT(SPIx->CR2, SPI_CR2_RXDMAEN);
1208:Drivers/STM32G4xx_HAL_Driver/Inc/stm32g4xx_ll_spi.h **** }
1209:Drivers/STM32G4xx_HAL_Driver/Inc/stm32g4xx_ll_spi.h **** 
1210:Drivers/STM32G4xx_HAL_Driver/Inc/stm32g4xx_ll_spi.h **** /**
1211:Drivers/STM32G4xx_HAL_Driver/Inc/stm32g4xx_ll_spi.h ****   * @brief  Check if DMA Rx is enabled
1212:Drivers/STM32G4xx_HAL_Driver/Inc/stm32g4xx_ll_spi.h ****   * @rmtoll CR2          RXDMAEN       LL_SPI_IsEnabledDMAReq_RX
1213:Drivers/STM32G4xx_HAL_Driver/Inc/stm32g4xx_ll_spi.h ****   * @param  SPIx SPI Instance
1214:Drivers/STM32G4xx_HAL_Driver/Inc/stm32g4xx_ll_spi.h ****   * @retval State of bit (1 or 0).
1215:Drivers/STM32G4xx_HAL_Driver/Inc/stm32g4xx_ll_spi.h ****   */
1216:Drivers/STM32G4xx_HAL_Driver/Inc/stm32g4xx_ll_spi.h **** __STATIC_INLINE uint32_t LL_SPI_IsEnabledDMAReq_RX(SPI_TypeDef *SPIx)
1217:Drivers/STM32G4xx_HAL_Driver/Inc/stm32g4xx_ll_spi.h **** {
1218:Drivers/STM32G4xx_HAL_Driver/Inc/stm32g4xx_ll_spi.h ****   return ((READ_BIT(SPIx->CR2, SPI_CR2_RXDMAEN) == (SPI_CR2_RXDMAEN)) ? 1UL : 0UL);
1219:Drivers/STM32G4xx_HAL_Driver/Inc/stm32g4xx_ll_spi.h **** }
1220:Drivers/STM32G4xx_HAL_Driver/Inc/stm32g4xx_ll_spi.h **** 
1221:Drivers/STM32G4xx_HAL_Driver/Inc/stm32g4xx_ll_spi.h **** /**
1222:Drivers/STM32G4xx_HAL_Driver/Inc/stm32g4xx_ll_spi.h ****   * @brief  Enable DMA Tx
1223:Drivers/STM32G4xx_HAL_Driver/Inc/stm32g4xx_ll_spi.h ****   * @rmtoll CR2          TXDMAEN       LL_SPI_EnableDMAReq_TX
1224:Drivers/STM32G4xx_HAL_Driver/Inc/stm32g4xx_ll_spi.h ****   * @param  SPIx SPI Instance
1225:Drivers/STM32G4xx_HAL_Driver/Inc/stm32g4xx_ll_spi.h ****   * @retval None
1226:Drivers/STM32G4xx_HAL_Driver/Inc/stm32g4xx_ll_spi.h ****   */
1227:Drivers/STM32G4xx_HAL_Driver/Inc/stm32g4xx_ll_spi.h **** __STATIC_INLINE void LL_SPI_EnableDMAReq_TX(SPI_TypeDef *SPIx)
1228:Drivers/STM32G4xx_HAL_Driver/Inc/stm32g4xx_ll_spi.h **** {
1229:Drivers/STM32G4xx_HAL_Driver/Inc/stm32g4xx_ll_spi.h ****   SET_BIT(SPIx->CR2, SPI_CR2_TXDMAEN);
1230:Drivers/STM32G4xx_HAL_Driver/Inc/stm32g4xx_ll_spi.h **** }
1231:Drivers/STM32G4xx_HAL_Driver/Inc/stm32g4xx_ll_spi.h **** 
1232:Drivers/STM32G4xx_HAL_Driver/Inc/stm32g4xx_ll_spi.h **** /**
1233:Drivers/STM32G4xx_HAL_Driver/Inc/stm32g4xx_ll_spi.h ****   * @brief  Disable DMA Tx
1234:Drivers/STM32G4xx_HAL_Driver/Inc/stm32g4xx_ll_spi.h ****   * @rmtoll CR2          TXDMAEN       LL_SPI_DisableDMAReq_TX
1235:Drivers/STM32G4xx_HAL_Driver/Inc/stm32g4xx_ll_spi.h ****   * @param  SPIx SPI Instance
1236:Drivers/STM32G4xx_HAL_Driver/Inc/stm32g4xx_ll_spi.h ****   * @retval None
1237:Drivers/STM32G4xx_HAL_Driver/Inc/stm32g4xx_ll_spi.h ****   */
1238:Drivers/STM32G4xx_HAL_Driver/Inc/stm32g4xx_ll_spi.h **** __STATIC_INLINE void LL_SPI_DisableDMAReq_TX(SPI_TypeDef *SPIx)
1239:Drivers/STM32G4xx_HAL_Driver/Inc/stm32g4xx_ll_spi.h **** {
1240:Drivers/STM32G4xx_HAL_Driver/Inc/stm32g4xx_ll_spi.h ****   CLEAR_BIT(SPIx->CR2, SPI_CR2_TXDMAEN);
1241:Drivers/STM32G4xx_HAL_Driver/Inc/stm32g4xx_ll_spi.h **** }
1242:Drivers/STM32G4xx_HAL_Driver/Inc/stm32g4xx_ll_spi.h **** 
1243:Drivers/STM32G4xx_HAL_Driver/Inc/stm32g4xx_ll_spi.h **** /**
1244:Drivers/STM32G4xx_HAL_Driver/Inc/stm32g4xx_ll_spi.h ****   * @brief  Check if DMA Tx is enabled
1245:Drivers/STM32G4xx_HAL_Driver/Inc/stm32g4xx_ll_spi.h ****   * @rmtoll CR2          TXDMAEN       LL_SPI_IsEnabledDMAReq_TX
1246:Drivers/STM32G4xx_HAL_Driver/Inc/stm32g4xx_ll_spi.h ****   * @param  SPIx SPI Instance
1247:Drivers/STM32G4xx_HAL_Driver/Inc/stm32g4xx_ll_spi.h ****   * @retval State of bit (1 or 0).
1248:Drivers/STM32G4xx_HAL_Driver/Inc/stm32g4xx_ll_spi.h ****   */
1249:Drivers/STM32G4xx_HAL_Driver/Inc/stm32g4xx_ll_spi.h **** __STATIC_INLINE uint32_t LL_SPI_IsEnabledDMAReq_TX(SPI_TypeDef *SPIx)
ARM GAS  /tmp/ccibP0tT.s 			page 26


1250:Drivers/STM32G4xx_HAL_Driver/Inc/stm32g4xx_ll_spi.h **** {
1251:Drivers/STM32G4xx_HAL_Driver/Inc/stm32g4xx_ll_spi.h ****   return ((READ_BIT(SPIx->CR2, SPI_CR2_TXDMAEN) == (SPI_CR2_TXDMAEN)) ? 1UL : 0UL);
1252:Drivers/STM32G4xx_HAL_Driver/Inc/stm32g4xx_ll_spi.h **** }
1253:Drivers/STM32G4xx_HAL_Driver/Inc/stm32g4xx_ll_spi.h **** 
1254:Drivers/STM32G4xx_HAL_Driver/Inc/stm32g4xx_ll_spi.h **** /**
1255:Drivers/STM32G4xx_HAL_Driver/Inc/stm32g4xx_ll_spi.h ****   * @brief  Set parity of  Last DMA reception
1256:Drivers/STM32G4xx_HAL_Driver/Inc/stm32g4xx_ll_spi.h ****   * @rmtoll CR2          LDMARX        LL_SPI_SetDMAParity_RX
1257:Drivers/STM32G4xx_HAL_Driver/Inc/stm32g4xx_ll_spi.h ****   * @param  SPIx SPI Instance
1258:Drivers/STM32G4xx_HAL_Driver/Inc/stm32g4xx_ll_spi.h ****   * @param  Parity This parameter can be one of the following values:
1259:Drivers/STM32G4xx_HAL_Driver/Inc/stm32g4xx_ll_spi.h ****   *         @arg @ref LL_SPI_DMA_PARITY_ODD
1260:Drivers/STM32G4xx_HAL_Driver/Inc/stm32g4xx_ll_spi.h ****   *         @arg @ref LL_SPI_DMA_PARITY_EVEN
1261:Drivers/STM32G4xx_HAL_Driver/Inc/stm32g4xx_ll_spi.h ****   * @retval None
1262:Drivers/STM32G4xx_HAL_Driver/Inc/stm32g4xx_ll_spi.h ****   */
1263:Drivers/STM32G4xx_HAL_Driver/Inc/stm32g4xx_ll_spi.h **** __STATIC_INLINE void LL_SPI_SetDMAParity_RX(SPI_TypeDef *SPIx, uint32_t Parity)
1264:Drivers/STM32G4xx_HAL_Driver/Inc/stm32g4xx_ll_spi.h **** {
1265:Drivers/STM32G4xx_HAL_Driver/Inc/stm32g4xx_ll_spi.h ****   MODIFY_REG(SPIx->CR2, SPI_CR2_LDMARX, (Parity << SPI_CR2_LDMARX_Pos));
1266:Drivers/STM32G4xx_HAL_Driver/Inc/stm32g4xx_ll_spi.h **** }
1267:Drivers/STM32G4xx_HAL_Driver/Inc/stm32g4xx_ll_spi.h **** 
1268:Drivers/STM32G4xx_HAL_Driver/Inc/stm32g4xx_ll_spi.h **** /**
1269:Drivers/STM32G4xx_HAL_Driver/Inc/stm32g4xx_ll_spi.h ****   * @brief  Get parity configuration for  Last DMA reception
1270:Drivers/STM32G4xx_HAL_Driver/Inc/stm32g4xx_ll_spi.h ****   * @rmtoll CR2          LDMARX        LL_SPI_GetDMAParity_RX
1271:Drivers/STM32G4xx_HAL_Driver/Inc/stm32g4xx_ll_spi.h ****   * @param  SPIx SPI Instance
1272:Drivers/STM32G4xx_HAL_Driver/Inc/stm32g4xx_ll_spi.h ****   * @retval Returned value can be one of the following values:
1273:Drivers/STM32G4xx_HAL_Driver/Inc/stm32g4xx_ll_spi.h ****   *         @arg @ref LL_SPI_DMA_PARITY_ODD
1274:Drivers/STM32G4xx_HAL_Driver/Inc/stm32g4xx_ll_spi.h ****   *         @arg @ref LL_SPI_DMA_PARITY_EVEN
1275:Drivers/STM32G4xx_HAL_Driver/Inc/stm32g4xx_ll_spi.h ****   */
1276:Drivers/STM32G4xx_HAL_Driver/Inc/stm32g4xx_ll_spi.h **** __STATIC_INLINE uint32_t LL_SPI_GetDMAParity_RX(SPI_TypeDef *SPIx)
1277:Drivers/STM32G4xx_HAL_Driver/Inc/stm32g4xx_ll_spi.h **** {
1278:Drivers/STM32G4xx_HAL_Driver/Inc/stm32g4xx_ll_spi.h ****   return (uint32_t)(READ_BIT(SPIx->CR2, SPI_CR2_LDMARX) >> SPI_CR2_LDMARX_Pos);
1279:Drivers/STM32G4xx_HAL_Driver/Inc/stm32g4xx_ll_spi.h **** }
1280:Drivers/STM32G4xx_HAL_Driver/Inc/stm32g4xx_ll_spi.h **** 
1281:Drivers/STM32G4xx_HAL_Driver/Inc/stm32g4xx_ll_spi.h **** /**
1282:Drivers/STM32G4xx_HAL_Driver/Inc/stm32g4xx_ll_spi.h ****   * @brief  Set parity of  Last DMA transmission
1283:Drivers/STM32G4xx_HAL_Driver/Inc/stm32g4xx_ll_spi.h ****   * @rmtoll CR2          LDMATX        LL_SPI_SetDMAParity_TX
1284:Drivers/STM32G4xx_HAL_Driver/Inc/stm32g4xx_ll_spi.h ****   * @param  SPIx SPI Instance
1285:Drivers/STM32G4xx_HAL_Driver/Inc/stm32g4xx_ll_spi.h ****   * @param  Parity This parameter can be one of the following values:
1286:Drivers/STM32G4xx_HAL_Driver/Inc/stm32g4xx_ll_spi.h ****   *         @arg @ref LL_SPI_DMA_PARITY_ODD
1287:Drivers/STM32G4xx_HAL_Driver/Inc/stm32g4xx_ll_spi.h ****   *         @arg @ref LL_SPI_DMA_PARITY_EVEN
1288:Drivers/STM32G4xx_HAL_Driver/Inc/stm32g4xx_ll_spi.h ****   * @retval None
1289:Drivers/STM32G4xx_HAL_Driver/Inc/stm32g4xx_ll_spi.h ****   */
1290:Drivers/STM32G4xx_HAL_Driver/Inc/stm32g4xx_ll_spi.h **** __STATIC_INLINE void LL_SPI_SetDMAParity_TX(SPI_TypeDef *SPIx, uint32_t Parity)
1291:Drivers/STM32G4xx_HAL_Driver/Inc/stm32g4xx_ll_spi.h **** {
1292:Drivers/STM32G4xx_HAL_Driver/Inc/stm32g4xx_ll_spi.h ****   MODIFY_REG(SPIx->CR2, SPI_CR2_LDMATX, (Parity << SPI_CR2_LDMATX_Pos));
1293:Drivers/STM32G4xx_HAL_Driver/Inc/stm32g4xx_ll_spi.h **** }
1294:Drivers/STM32G4xx_HAL_Driver/Inc/stm32g4xx_ll_spi.h **** 
1295:Drivers/STM32G4xx_HAL_Driver/Inc/stm32g4xx_ll_spi.h **** /**
1296:Drivers/STM32G4xx_HAL_Driver/Inc/stm32g4xx_ll_spi.h ****   * @brief  Get parity configuration for Last DMA transmission
1297:Drivers/STM32G4xx_HAL_Driver/Inc/stm32g4xx_ll_spi.h ****   * @rmtoll CR2          LDMATX        LL_SPI_GetDMAParity_TX
1298:Drivers/STM32G4xx_HAL_Driver/Inc/stm32g4xx_ll_spi.h ****   * @param  SPIx SPI Instance
1299:Drivers/STM32G4xx_HAL_Driver/Inc/stm32g4xx_ll_spi.h ****   * @retval Returned value can be one of the following values:
1300:Drivers/STM32G4xx_HAL_Driver/Inc/stm32g4xx_ll_spi.h ****   *         @arg @ref LL_SPI_DMA_PARITY_ODD
1301:Drivers/STM32G4xx_HAL_Driver/Inc/stm32g4xx_ll_spi.h ****   *         @arg @ref LL_SPI_DMA_PARITY_EVEN
1302:Drivers/STM32G4xx_HAL_Driver/Inc/stm32g4xx_ll_spi.h ****   */
1303:Drivers/STM32G4xx_HAL_Driver/Inc/stm32g4xx_ll_spi.h **** __STATIC_INLINE uint32_t LL_SPI_GetDMAParity_TX(SPI_TypeDef *SPIx)
1304:Drivers/STM32G4xx_HAL_Driver/Inc/stm32g4xx_ll_spi.h **** {
1305:Drivers/STM32G4xx_HAL_Driver/Inc/stm32g4xx_ll_spi.h ****   return (uint32_t)(READ_BIT(SPIx->CR2, SPI_CR2_LDMATX) >> SPI_CR2_LDMATX_Pos);
1306:Drivers/STM32G4xx_HAL_Driver/Inc/stm32g4xx_ll_spi.h **** }
ARM GAS  /tmp/ccibP0tT.s 			page 27


1307:Drivers/STM32G4xx_HAL_Driver/Inc/stm32g4xx_ll_spi.h **** 
1308:Drivers/STM32G4xx_HAL_Driver/Inc/stm32g4xx_ll_spi.h **** /**
1309:Drivers/STM32G4xx_HAL_Driver/Inc/stm32g4xx_ll_spi.h ****   * @brief  Get the data register address used for DMA transfer
1310:Drivers/STM32G4xx_HAL_Driver/Inc/stm32g4xx_ll_spi.h ****   * @rmtoll DR           DR            LL_SPI_DMA_GetRegAddr
1311:Drivers/STM32G4xx_HAL_Driver/Inc/stm32g4xx_ll_spi.h ****   * @param  SPIx SPI Instance
1312:Drivers/STM32G4xx_HAL_Driver/Inc/stm32g4xx_ll_spi.h ****   * @retval Address of data register
1313:Drivers/STM32G4xx_HAL_Driver/Inc/stm32g4xx_ll_spi.h ****   */
1314:Drivers/STM32G4xx_HAL_Driver/Inc/stm32g4xx_ll_spi.h **** __STATIC_INLINE uint32_t LL_SPI_DMA_GetRegAddr(SPI_TypeDef *SPIx)
1315:Drivers/STM32G4xx_HAL_Driver/Inc/stm32g4xx_ll_spi.h **** {
1316:Drivers/STM32G4xx_HAL_Driver/Inc/stm32g4xx_ll_spi.h ****   return (uint32_t) &(SPIx->DR);
1317:Drivers/STM32G4xx_HAL_Driver/Inc/stm32g4xx_ll_spi.h **** }
1318:Drivers/STM32G4xx_HAL_Driver/Inc/stm32g4xx_ll_spi.h **** 
1319:Drivers/STM32G4xx_HAL_Driver/Inc/stm32g4xx_ll_spi.h **** /**
1320:Drivers/STM32G4xx_HAL_Driver/Inc/stm32g4xx_ll_spi.h ****   * @}
1321:Drivers/STM32G4xx_HAL_Driver/Inc/stm32g4xx_ll_spi.h ****   */
1322:Drivers/STM32G4xx_HAL_Driver/Inc/stm32g4xx_ll_spi.h **** 
1323:Drivers/STM32G4xx_HAL_Driver/Inc/stm32g4xx_ll_spi.h **** /** @defgroup SPI_LL_EF_DATA_Management DATA Management
1324:Drivers/STM32G4xx_HAL_Driver/Inc/stm32g4xx_ll_spi.h ****   * @{
1325:Drivers/STM32G4xx_HAL_Driver/Inc/stm32g4xx_ll_spi.h ****   */
1326:Drivers/STM32G4xx_HAL_Driver/Inc/stm32g4xx_ll_spi.h **** 
1327:Drivers/STM32G4xx_HAL_Driver/Inc/stm32g4xx_ll_spi.h **** /**
1328:Drivers/STM32G4xx_HAL_Driver/Inc/stm32g4xx_ll_spi.h ****   * @brief  Read 8-Bits in the data register
1329:Drivers/STM32G4xx_HAL_Driver/Inc/stm32g4xx_ll_spi.h ****   * @rmtoll DR           DR            LL_SPI_ReceiveData8
1330:Drivers/STM32G4xx_HAL_Driver/Inc/stm32g4xx_ll_spi.h ****   * @param  SPIx SPI Instance
1331:Drivers/STM32G4xx_HAL_Driver/Inc/stm32g4xx_ll_spi.h ****   * @retval RxData Value between Min_Data=0x00 and Max_Data=0xFF
1332:Drivers/STM32G4xx_HAL_Driver/Inc/stm32g4xx_ll_spi.h ****   */
1333:Drivers/STM32G4xx_HAL_Driver/Inc/stm32g4xx_ll_spi.h **** __STATIC_INLINE uint8_t LL_SPI_ReceiveData8(SPI_TypeDef *SPIx)
1334:Drivers/STM32G4xx_HAL_Driver/Inc/stm32g4xx_ll_spi.h **** {
1335:Drivers/STM32G4xx_HAL_Driver/Inc/stm32g4xx_ll_spi.h ****   return (*((__IO uint8_t *)&SPIx->DR));
1336:Drivers/STM32G4xx_HAL_Driver/Inc/stm32g4xx_ll_spi.h **** }
1337:Drivers/STM32G4xx_HAL_Driver/Inc/stm32g4xx_ll_spi.h **** 
1338:Drivers/STM32G4xx_HAL_Driver/Inc/stm32g4xx_ll_spi.h **** /**
1339:Drivers/STM32G4xx_HAL_Driver/Inc/stm32g4xx_ll_spi.h ****   * @brief  Read 16-Bits in the data register
1340:Drivers/STM32G4xx_HAL_Driver/Inc/stm32g4xx_ll_spi.h ****   * @rmtoll DR           DR            LL_SPI_ReceiveData16
1341:Drivers/STM32G4xx_HAL_Driver/Inc/stm32g4xx_ll_spi.h ****   * @param  SPIx SPI Instance
1342:Drivers/STM32G4xx_HAL_Driver/Inc/stm32g4xx_ll_spi.h ****   * @retval RxData Value between Min_Data=0x00 and Max_Data=0xFFFF
1343:Drivers/STM32G4xx_HAL_Driver/Inc/stm32g4xx_ll_spi.h ****   */
1344:Drivers/STM32G4xx_HAL_Driver/Inc/stm32g4xx_ll_spi.h **** __STATIC_INLINE uint16_t LL_SPI_ReceiveData16(SPI_TypeDef *SPIx)
1345:Drivers/STM32G4xx_HAL_Driver/Inc/stm32g4xx_ll_spi.h **** {
1346:Drivers/STM32G4xx_HAL_Driver/Inc/stm32g4xx_ll_spi.h ****   return (uint16_t)(READ_REG(SPIx->DR));
1347:Drivers/STM32G4xx_HAL_Driver/Inc/stm32g4xx_ll_spi.h **** }
1348:Drivers/STM32G4xx_HAL_Driver/Inc/stm32g4xx_ll_spi.h **** 
1349:Drivers/STM32G4xx_HAL_Driver/Inc/stm32g4xx_ll_spi.h **** /**
1350:Drivers/STM32G4xx_HAL_Driver/Inc/stm32g4xx_ll_spi.h ****   * @brief  Write 8-Bits in the data register
1351:Drivers/STM32G4xx_HAL_Driver/Inc/stm32g4xx_ll_spi.h ****   * @rmtoll DR           DR            LL_SPI_TransmitData8
1352:Drivers/STM32G4xx_HAL_Driver/Inc/stm32g4xx_ll_spi.h ****   * @param  SPIx SPI Instance
1353:Drivers/STM32G4xx_HAL_Driver/Inc/stm32g4xx_ll_spi.h ****   * @param  TxData Value between Min_Data=0x00 and Max_Data=0xFF
1354:Drivers/STM32G4xx_HAL_Driver/Inc/stm32g4xx_ll_spi.h ****   * @retval None
1355:Drivers/STM32G4xx_HAL_Driver/Inc/stm32g4xx_ll_spi.h ****   */
1356:Drivers/STM32G4xx_HAL_Driver/Inc/stm32g4xx_ll_spi.h **** __STATIC_INLINE void LL_SPI_TransmitData8(SPI_TypeDef *SPIx, uint8_t TxData)
1357:Drivers/STM32G4xx_HAL_Driver/Inc/stm32g4xx_ll_spi.h **** {
1358:Drivers/STM32G4xx_HAL_Driver/Inc/stm32g4xx_ll_spi.h **** #if defined (__GNUC__)
1359:Drivers/STM32G4xx_HAL_Driver/Inc/stm32g4xx_ll_spi.h ****   __IO uint8_t *spidr = ((__IO uint8_t *)&SPIx->DR);
1360:Drivers/STM32G4xx_HAL_Driver/Inc/stm32g4xx_ll_spi.h ****   *spidr = TxData;
1361:Drivers/STM32G4xx_HAL_Driver/Inc/stm32g4xx_ll_spi.h **** #else
1362:Drivers/STM32G4xx_HAL_Driver/Inc/stm32g4xx_ll_spi.h ****   *((__IO uint8_t *)&SPIx->DR) = TxData;
1363:Drivers/STM32G4xx_HAL_Driver/Inc/stm32g4xx_ll_spi.h **** #endif /* __GNUC__ */
ARM GAS  /tmp/ccibP0tT.s 			page 28


1364:Drivers/STM32G4xx_HAL_Driver/Inc/stm32g4xx_ll_spi.h **** }
1365:Drivers/STM32G4xx_HAL_Driver/Inc/stm32g4xx_ll_spi.h **** 
1366:Drivers/STM32G4xx_HAL_Driver/Inc/stm32g4xx_ll_spi.h **** /**
1367:Drivers/STM32G4xx_HAL_Driver/Inc/stm32g4xx_ll_spi.h ****   * @brief  Write 16-Bits in the data register
1368:Drivers/STM32G4xx_HAL_Driver/Inc/stm32g4xx_ll_spi.h ****   * @rmtoll DR           DR            LL_SPI_TransmitData16
1369:Drivers/STM32G4xx_HAL_Driver/Inc/stm32g4xx_ll_spi.h ****   * @param  SPIx SPI Instance
1370:Drivers/STM32G4xx_HAL_Driver/Inc/stm32g4xx_ll_spi.h ****   * @param  TxData Value between Min_Data=0x00 and Max_Data=0xFFFF
1371:Drivers/STM32G4xx_HAL_Driver/Inc/stm32g4xx_ll_spi.h ****   * @retval None
1372:Drivers/STM32G4xx_HAL_Driver/Inc/stm32g4xx_ll_spi.h ****   */
1373:Drivers/STM32G4xx_HAL_Driver/Inc/stm32g4xx_ll_spi.h **** __STATIC_INLINE void LL_SPI_TransmitData16(SPI_TypeDef *SPIx, uint16_t TxData)
1374:Drivers/STM32G4xx_HAL_Driver/Inc/stm32g4xx_ll_spi.h **** {
1375:Drivers/STM32G4xx_HAL_Driver/Inc/stm32g4xx_ll_spi.h **** #if defined (__GNUC__)
1376:Drivers/STM32G4xx_HAL_Driver/Inc/stm32g4xx_ll_spi.h ****   __IO uint16_t *spidr = ((__IO uint16_t *)&SPIx->DR);
1377:Drivers/STM32G4xx_HAL_Driver/Inc/stm32g4xx_ll_spi.h ****   *spidr = TxData;
1378:Drivers/STM32G4xx_HAL_Driver/Inc/stm32g4xx_ll_spi.h **** #else
1379:Drivers/STM32G4xx_HAL_Driver/Inc/stm32g4xx_ll_spi.h ****   SPIx->DR = TxData;
1380:Drivers/STM32G4xx_HAL_Driver/Inc/stm32g4xx_ll_spi.h **** #endif /* __GNUC__ */
1381:Drivers/STM32G4xx_HAL_Driver/Inc/stm32g4xx_ll_spi.h **** }
1382:Drivers/STM32G4xx_HAL_Driver/Inc/stm32g4xx_ll_spi.h **** 
1383:Drivers/STM32G4xx_HAL_Driver/Inc/stm32g4xx_ll_spi.h **** /**
1384:Drivers/STM32G4xx_HAL_Driver/Inc/stm32g4xx_ll_spi.h ****   * @}
1385:Drivers/STM32G4xx_HAL_Driver/Inc/stm32g4xx_ll_spi.h ****   */
1386:Drivers/STM32G4xx_HAL_Driver/Inc/stm32g4xx_ll_spi.h **** #if defined(USE_FULL_LL_DRIVER)
1387:Drivers/STM32G4xx_HAL_Driver/Inc/stm32g4xx_ll_spi.h **** /** @defgroup SPI_LL_EF_Init Initialization and de-initialization functions
1388:Drivers/STM32G4xx_HAL_Driver/Inc/stm32g4xx_ll_spi.h ****   * @{
1389:Drivers/STM32G4xx_HAL_Driver/Inc/stm32g4xx_ll_spi.h ****   */
1390:Drivers/STM32G4xx_HAL_Driver/Inc/stm32g4xx_ll_spi.h **** 
1391:Drivers/STM32G4xx_HAL_Driver/Inc/stm32g4xx_ll_spi.h **** ErrorStatus LL_SPI_DeInit(SPI_TypeDef *SPIx);
1392:Drivers/STM32G4xx_HAL_Driver/Inc/stm32g4xx_ll_spi.h **** ErrorStatus LL_SPI_Init(SPI_TypeDef *SPIx, LL_SPI_InitTypeDef *SPI_InitStruct);
1393:Drivers/STM32G4xx_HAL_Driver/Inc/stm32g4xx_ll_spi.h **** void        LL_SPI_StructInit(LL_SPI_InitTypeDef *SPI_InitStruct);
1394:Drivers/STM32G4xx_HAL_Driver/Inc/stm32g4xx_ll_spi.h **** 
1395:Drivers/STM32G4xx_HAL_Driver/Inc/stm32g4xx_ll_spi.h **** /**
1396:Drivers/STM32G4xx_HAL_Driver/Inc/stm32g4xx_ll_spi.h ****   * @}
1397:Drivers/STM32G4xx_HAL_Driver/Inc/stm32g4xx_ll_spi.h ****   */
1398:Drivers/STM32G4xx_HAL_Driver/Inc/stm32g4xx_ll_spi.h **** #endif /* USE_FULL_LL_DRIVER */
1399:Drivers/STM32G4xx_HAL_Driver/Inc/stm32g4xx_ll_spi.h **** /**
1400:Drivers/STM32G4xx_HAL_Driver/Inc/stm32g4xx_ll_spi.h ****   * @}
1401:Drivers/STM32G4xx_HAL_Driver/Inc/stm32g4xx_ll_spi.h ****   */
1402:Drivers/STM32G4xx_HAL_Driver/Inc/stm32g4xx_ll_spi.h **** 
1403:Drivers/STM32G4xx_HAL_Driver/Inc/stm32g4xx_ll_spi.h **** /**
1404:Drivers/STM32G4xx_HAL_Driver/Inc/stm32g4xx_ll_spi.h ****   * @}
1405:Drivers/STM32G4xx_HAL_Driver/Inc/stm32g4xx_ll_spi.h ****   */
1406:Drivers/STM32G4xx_HAL_Driver/Inc/stm32g4xx_ll_spi.h **** 
1407:Drivers/STM32G4xx_HAL_Driver/Inc/stm32g4xx_ll_spi.h **** #if defined(SPI_I2S_SUPPORT)
1408:Drivers/STM32G4xx_HAL_Driver/Inc/stm32g4xx_ll_spi.h **** /** @defgroup I2S_LL I2S
1409:Drivers/STM32G4xx_HAL_Driver/Inc/stm32g4xx_ll_spi.h ****   * @{
1410:Drivers/STM32G4xx_HAL_Driver/Inc/stm32g4xx_ll_spi.h ****   */
1411:Drivers/STM32G4xx_HAL_Driver/Inc/stm32g4xx_ll_spi.h **** 
1412:Drivers/STM32G4xx_HAL_Driver/Inc/stm32g4xx_ll_spi.h **** /* Private variables ---------------------------------------------------------*/
1413:Drivers/STM32G4xx_HAL_Driver/Inc/stm32g4xx_ll_spi.h **** /* Private constants ---------------------------------------------------------*/
1414:Drivers/STM32G4xx_HAL_Driver/Inc/stm32g4xx_ll_spi.h **** /* Private macros ------------------------------------------------------------*/
1415:Drivers/STM32G4xx_HAL_Driver/Inc/stm32g4xx_ll_spi.h **** 
1416:Drivers/STM32G4xx_HAL_Driver/Inc/stm32g4xx_ll_spi.h **** /* Exported types ------------------------------------------------------------*/
1417:Drivers/STM32G4xx_HAL_Driver/Inc/stm32g4xx_ll_spi.h **** #if defined(USE_FULL_LL_DRIVER)
1418:Drivers/STM32G4xx_HAL_Driver/Inc/stm32g4xx_ll_spi.h **** /** @defgroup I2S_LL_ES_INIT I2S Exported Init structure
1419:Drivers/STM32G4xx_HAL_Driver/Inc/stm32g4xx_ll_spi.h ****   * @{
1420:Drivers/STM32G4xx_HAL_Driver/Inc/stm32g4xx_ll_spi.h ****   */
ARM GAS  /tmp/ccibP0tT.s 			page 29


1421:Drivers/STM32G4xx_HAL_Driver/Inc/stm32g4xx_ll_spi.h **** 
1422:Drivers/STM32G4xx_HAL_Driver/Inc/stm32g4xx_ll_spi.h **** /**
1423:Drivers/STM32G4xx_HAL_Driver/Inc/stm32g4xx_ll_spi.h ****   * @brief  I2S Init structure definition
1424:Drivers/STM32G4xx_HAL_Driver/Inc/stm32g4xx_ll_spi.h ****   */
1425:Drivers/STM32G4xx_HAL_Driver/Inc/stm32g4xx_ll_spi.h **** 
1426:Drivers/STM32G4xx_HAL_Driver/Inc/stm32g4xx_ll_spi.h **** typedef struct
1427:Drivers/STM32G4xx_HAL_Driver/Inc/stm32g4xx_ll_spi.h **** {
1428:Drivers/STM32G4xx_HAL_Driver/Inc/stm32g4xx_ll_spi.h ****   uint32_t Mode;                    /*!< Specifies the I2S operating mode.
1429:Drivers/STM32G4xx_HAL_Driver/Inc/stm32g4xx_ll_spi.h ****                                          This parameter can be a value of @ref I2S_LL_EC_MODE
1430:Drivers/STM32G4xx_HAL_Driver/Inc/stm32g4xx_ll_spi.h **** 
1431:Drivers/STM32G4xx_HAL_Driver/Inc/stm32g4xx_ll_spi.h ****                                          This feature can be modified afterwards using unitary func
1432:Drivers/STM32G4xx_HAL_Driver/Inc/stm32g4xx_ll_spi.h **** 
1433:Drivers/STM32G4xx_HAL_Driver/Inc/stm32g4xx_ll_spi.h ****   uint32_t Standard;                /*!< Specifies the standard used for the I2S communication.
1434:Drivers/STM32G4xx_HAL_Driver/Inc/stm32g4xx_ll_spi.h ****                                          This parameter can be a value of @ref I2S_LL_EC_STANDARD
1435:Drivers/STM32G4xx_HAL_Driver/Inc/stm32g4xx_ll_spi.h **** 
1436:Drivers/STM32G4xx_HAL_Driver/Inc/stm32g4xx_ll_spi.h ****                                          This feature can be modified afterwards using unitary func
1437:Drivers/STM32G4xx_HAL_Driver/Inc/stm32g4xx_ll_spi.h **** 
1438:Drivers/STM32G4xx_HAL_Driver/Inc/stm32g4xx_ll_spi.h **** 
1439:Drivers/STM32G4xx_HAL_Driver/Inc/stm32g4xx_ll_spi.h ****   uint32_t DataFormat;              /*!< Specifies the data format for the I2S communication.
1440:Drivers/STM32G4xx_HAL_Driver/Inc/stm32g4xx_ll_spi.h ****                                          This parameter can be a value of @ref I2S_LL_EC_DATA_FORMA
1441:Drivers/STM32G4xx_HAL_Driver/Inc/stm32g4xx_ll_spi.h **** 
1442:Drivers/STM32G4xx_HAL_Driver/Inc/stm32g4xx_ll_spi.h ****                                          This feature can be modified afterwards using unitary func
1443:Drivers/STM32G4xx_HAL_Driver/Inc/stm32g4xx_ll_spi.h **** 
1444:Drivers/STM32G4xx_HAL_Driver/Inc/stm32g4xx_ll_spi.h **** 
1445:Drivers/STM32G4xx_HAL_Driver/Inc/stm32g4xx_ll_spi.h ****   uint32_t MCLKOutput;              /*!< Specifies whether the I2S MCLK output is enabled or not.
1446:Drivers/STM32G4xx_HAL_Driver/Inc/stm32g4xx_ll_spi.h ****                                          This parameter can be a value of @ref I2S_LL_EC_MCLK_OUTPU
1447:Drivers/STM32G4xx_HAL_Driver/Inc/stm32g4xx_ll_spi.h **** 
1448:Drivers/STM32G4xx_HAL_Driver/Inc/stm32g4xx_ll_spi.h ****                                          This feature can be modified afterwards using unitary func
1449:Drivers/STM32G4xx_HAL_Driver/Inc/stm32g4xx_ll_spi.h **** 
1450:Drivers/STM32G4xx_HAL_Driver/Inc/stm32g4xx_ll_spi.h **** 
1451:Drivers/STM32G4xx_HAL_Driver/Inc/stm32g4xx_ll_spi.h ****   uint32_t AudioFreq;               /*!< Specifies the frequency selected for the I2S communication
1452:Drivers/STM32G4xx_HAL_Driver/Inc/stm32g4xx_ll_spi.h ****                                          This parameter can be a value of @ref I2S_LL_EC_AUDIO_FREQ
1453:Drivers/STM32G4xx_HAL_Driver/Inc/stm32g4xx_ll_spi.h **** 
1454:Drivers/STM32G4xx_HAL_Driver/Inc/stm32g4xx_ll_spi.h ****                                          Audio Frequency can be modified afterwards using Reference
1455:Drivers/STM32G4xx_HAL_Driver/Inc/stm32g4xx_ll_spi.h ****                                          and unitary functions @ref LL_I2S_SetPrescalerLinear() and
1456:Drivers/STM32G4xx_HAL_Driver/Inc/stm32g4xx_ll_spi.h **** 
1457:Drivers/STM32G4xx_HAL_Driver/Inc/stm32g4xx_ll_spi.h **** 
1458:Drivers/STM32G4xx_HAL_Driver/Inc/stm32g4xx_ll_spi.h ****   uint32_t ClockPolarity;           /*!< Specifies the idle state of the I2S clock.
1459:Drivers/STM32G4xx_HAL_Driver/Inc/stm32g4xx_ll_spi.h ****                                          This parameter can be a value of @ref I2S_LL_EC_POLARITY
1460:Drivers/STM32G4xx_HAL_Driver/Inc/stm32g4xx_ll_spi.h **** 
1461:Drivers/STM32G4xx_HAL_Driver/Inc/stm32g4xx_ll_spi.h ****                                          This feature can be modified afterwards using unitary func
1462:Drivers/STM32G4xx_HAL_Driver/Inc/stm32g4xx_ll_spi.h **** 
1463:Drivers/STM32G4xx_HAL_Driver/Inc/stm32g4xx_ll_spi.h **** } LL_I2S_InitTypeDef;
1464:Drivers/STM32G4xx_HAL_Driver/Inc/stm32g4xx_ll_spi.h **** 
1465:Drivers/STM32G4xx_HAL_Driver/Inc/stm32g4xx_ll_spi.h **** /**
1466:Drivers/STM32G4xx_HAL_Driver/Inc/stm32g4xx_ll_spi.h ****   * @}
1467:Drivers/STM32G4xx_HAL_Driver/Inc/stm32g4xx_ll_spi.h ****   */
1468:Drivers/STM32G4xx_HAL_Driver/Inc/stm32g4xx_ll_spi.h **** #endif /*USE_FULL_LL_DRIVER*/
1469:Drivers/STM32G4xx_HAL_Driver/Inc/stm32g4xx_ll_spi.h **** 
1470:Drivers/STM32G4xx_HAL_Driver/Inc/stm32g4xx_ll_spi.h **** /* Exported constants --------------------------------------------------------*/
1471:Drivers/STM32G4xx_HAL_Driver/Inc/stm32g4xx_ll_spi.h **** /** @defgroup I2S_LL_Exported_Constants I2S Exported Constants
1472:Drivers/STM32G4xx_HAL_Driver/Inc/stm32g4xx_ll_spi.h ****   * @{
1473:Drivers/STM32G4xx_HAL_Driver/Inc/stm32g4xx_ll_spi.h ****   */
1474:Drivers/STM32G4xx_HAL_Driver/Inc/stm32g4xx_ll_spi.h **** 
1475:Drivers/STM32G4xx_HAL_Driver/Inc/stm32g4xx_ll_spi.h **** /** @defgroup I2S_LL_EC_GET_FLAG Get Flags Defines
1476:Drivers/STM32G4xx_HAL_Driver/Inc/stm32g4xx_ll_spi.h ****   * @brief    Flags defines which can be used with LL_I2S_ReadReg function
1477:Drivers/STM32G4xx_HAL_Driver/Inc/stm32g4xx_ll_spi.h ****   * @{
ARM GAS  /tmp/ccibP0tT.s 			page 30


1478:Drivers/STM32G4xx_HAL_Driver/Inc/stm32g4xx_ll_spi.h ****   */
1479:Drivers/STM32G4xx_HAL_Driver/Inc/stm32g4xx_ll_spi.h **** #define LL_I2S_SR_RXNE                     LL_SPI_SR_RXNE            /*!< Rx buffer not empty flag 
1480:Drivers/STM32G4xx_HAL_Driver/Inc/stm32g4xx_ll_spi.h **** #define LL_I2S_SR_TXE                      LL_SPI_SR_TXE             /*!< Tx buffer empty flag     
1481:Drivers/STM32G4xx_HAL_Driver/Inc/stm32g4xx_ll_spi.h **** #define LL_I2S_SR_BSY                      LL_SPI_SR_BSY             /*!< Busy flag                
1482:Drivers/STM32G4xx_HAL_Driver/Inc/stm32g4xx_ll_spi.h **** #define LL_I2S_SR_UDR                      SPI_SR_UDR                /*!< Underrun flag            
1483:Drivers/STM32G4xx_HAL_Driver/Inc/stm32g4xx_ll_spi.h **** #define LL_I2S_SR_OVR                      LL_SPI_SR_OVR             /*!< Overrun flag             
1484:Drivers/STM32G4xx_HAL_Driver/Inc/stm32g4xx_ll_spi.h **** #define LL_I2S_SR_FRE                      LL_SPI_SR_FRE             /*!< TI mode frame format erro
1485:Drivers/STM32G4xx_HAL_Driver/Inc/stm32g4xx_ll_spi.h **** /**
1486:Drivers/STM32G4xx_HAL_Driver/Inc/stm32g4xx_ll_spi.h ****   * @}
1487:Drivers/STM32G4xx_HAL_Driver/Inc/stm32g4xx_ll_spi.h ****   */
1488:Drivers/STM32G4xx_HAL_Driver/Inc/stm32g4xx_ll_spi.h **** 
1489:Drivers/STM32G4xx_HAL_Driver/Inc/stm32g4xx_ll_spi.h **** /** @defgroup SPI_LL_EC_IT IT Defines
1490:Drivers/STM32G4xx_HAL_Driver/Inc/stm32g4xx_ll_spi.h ****   * @brief    IT defines which can be used with LL_SPI_ReadReg and  LL_SPI_WriteReg functions
1491:Drivers/STM32G4xx_HAL_Driver/Inc/stm32g4xx_ll_spi.h ****   * @{
1492:Drivers/STM32G4xx_HAL_Driver/Inc/stm32g4xx_ll_spi.h ****   */
1493:Drivers/STM32G4xx_HAL_Driver/Inc/stm32g4xx_ll_spi.h **** #define LL_I2S_CR2_RXNEIE                  LL_SPI_CR2_RXNEIE         /*!< Rx buffer not empty inter
1494:Drivers/STM32G4xx_HAL_Driver/Inc/stm32g4xx_ll_spi.h **** #define LL_I2S_CR2_TXEIE                   LL_SPI_CR2_TXEIE          /*!< Tx buffer empty interrupt
1495:Drivers/STM32G4xx_HAL_Driver/Inc/stm32g4xx_ll_spi.h **** #define LL_I2S_CR2_ERRIE                   LL_SPI_CR2_ERRIE          /*!< Error interrupt enable   
1496:Drivers/STM32G4xx_HAL_Driver/Inc/stm32g4xx_ll_spi.h **** /**
1497:Drivers/STM32G4xx_HAL_Driver/Inc/stm32g4xx_ll_spi.h ****   * @}
1498:Drivers/STM32G4xx_HAL_Driver/Inc/stm32g4xx_ll_spi.h ****   */
1499:Drivers/STM32G4xx_HAL_Driver/Inc/stm32g4xx_ll_spi.h **** 
1500:Drivers/STM32G4xx_HAL_Driver/Inc/stm32g4xx_ll_spi.h **** /** @defgroup I2S_LL_EC_DATA_FORMAT Data format
1501:Drivers/STM32G4xx_HAL_Driver/Inc/stm32g4xx_ll_spi.h ****   * @{
1502:Drivers/STM32G4xx_HAL_Driver/Inc/stm32g4xx_ll_spi.h ****   */
1503:Drivers/STM32G4xx_HAL_Driver/Inc/stm32g4xx_ll_spi.h **** #define LL_I2S_DATAFORMAT_16B              0x00000000U                                   /*!< Data 
1504:Drivers/STM32G4xx_HAL_Driver/Inc/stm32g4xx_ll_spi.h **** #define LL_I2S_DATAFORMAT_16B_EXTENDED     (SPI_I2SCFGR_CHLEN)                           /*!< Data 
1505:Drivers/STM32G4xx_HAL_Driver/Inc/stm32g4xx_ll_spi.h **** #define LL_I2S_DATAFORMAT_24B              (SPI_I2SCFGR_CHLEN | SPI_I2SCFGR_DATLEN_0)    /*!< Data 
1506:Drivers/STM32G4xx_HAL_Driver/Inc/stm32g4xx_ll_spi.h **** #define LL_I2S_DATAFORMAT_32B              (SPI_I2SCFGR_CHLEN | SPI_I2SCFGR_DATLEN_1)    /*!< Data 
1507:Drivers/STM32G4xx_HAL_Driver/Inc/stm32g4xx_ll_spi.h **** /**
1508:Drivers/STM32G4xx_HAL_Driver/Inc/stm32g4xx_ll_spi.h ****   * @}
1509:Drivers/STM32G4xx_HAL_Driver/Inc/stm32g4xx_ll_spi.h ****   */
1510:Drivers/STM32G4xx_HAL_Driver/Inc/stm32g4xx_ll_spi.h **** 
1511:Drivers/STM32G4xx_HAL_Driver/Inc/stm32g4xx_ll_spi.h **** /** @defgroup I2S_LL_EC_POLARITY Clock Polarity
1512:Drivers/STM32G4xx_HAL_Driver/Inc/stm32g4xx_ll_spi.h ****   * @{
1513:Drivers/STM32G4xx_HAL_Driver/Inc/stm32g4xx_ll_spi.h ****   */
1514:Drivers/STM32G4xx_HAL_Driver/Inc/stm32g4xx_ll_spi.h **** #define LL_I2S_POLARITY_LOW                0x00000000U               /*!< Clock steady state is low
1515:Drivers/STM32G4xx_HAL_Driver/Inc/stm32g4xx_ll_spi.h **** #define LL_I2S_POLARITY_HIGH               (SPI_I2SCFGR_CKPOL)       /*!< Clock steady state is hig
1516:Drivers/STM32G4xx_HAL_Driver/Inc/stm32g4xx_ll_spi.h **** /**
1517:Drivers/STM32G4xx_HAL_Driver/Inc/stm32g4xx_ll_spi.h ****   * @}
1518:Drivers/STM32G4xx_HAL_Driver/Inc/stm32g4xx_ll_spi.h ****   */
1519:Drivers/STM32G4xx_HAL_Driver/Inc/stm32g4xx_ll_spi.h **** 
1520:Drivers/STM32G4xx_HAL_Driver/Inc/stm32g4xx_ll_spi.h **** /** @defgroup I2S_LL_EC_STANDARD I2s Standard
1521:Drivers/STM32G4xx_HAL_Driver/Inc/stm32g4xx_ll_spi.h ****   * @{
1522:Drivers/STM32G4xx_HAL_Driver/Inc/stm32g4xx_ll_spi.h ****   */
1523:Drivers/STM32G4xx_HAL_Driver/Inc/stm32g4xx_ll_spi.h **** #define LL_I2S_STANDARD_PHILIPS            0x00000000U                                             
1524:Drivers/STM32G4xx_HAL_Driver/Inc/stm32g4xx_ll_spi.h **** #define LL_I2S_STANDARD_MSB                (SPI_I2SCFGR_I2SSTD_0)                                  
1525:Drivers/STM32G4xx_HAL_Driver/Inc/stm32g4xx_ll_spi.h **** #define LL_I2S_STANDARD_LSB                (SPI_I2SCFGR_I2SSTD_1)                                  
1526:Drivers/STM32G4xx_HAL_Driver/Inc/stm32g4xx_ll_spi.h **** #define LL_I2S_STANDARD_PCM_SHORT          (SPI_I2SCFGR_I2SSTD_0 | SPI_I2SCFGR_I2SSTD_1)           
1527:Drivers/STM32G4xx_HAL_Driver/Inc/stm32g4xx_ll_spi.h **** #define LL_I2S_STANDARD_PCM_LONG           (SPI_I2SCFGR_I2SSTD_0 | SPI_I2SCFGR_I2SSTD_1 | SPI_I2SCF
1528:Drivers/STM32G4xx_HAL_Driver/Inc/stm32g4xx_ll_spi.h **** /**
1529:Drivers/STM32G4xx_HAL_Driver/Inc/stm32g4xx_ll_spi.h ****   * @}
1530:Drivers/STM32G4xx_HAL_Driver/Inc/stm32g4xx_ll_spi.h ****   */
1531:Drivers/STM32G4xx_HAL_Driver/Inc/stm32g4xx_ll_spi.h **** 
1532:Drivers/STM32G4xx_HAL_Driver/Inc/stm32g4xx_ll_spi.h **** /** @defgroup I2S_LL_EC_MODE Operation Mode
1533:Drivers/STM32G4xx_HAL_Driver/Inc/stm32g4xx_ll_spi.h ****   * @{
1534:Drivers/STM32G4xx_HAL_Driver/Inc/stm32g4xx_ll_spi.h ****   */
ARM GAS  /tmp/ccibP0tT.s 			page 31


1535:Drivers/STM32G4xx_HAL_Driver/Inc/stm32g4xx_ll_spi.h **** #define LL_I2S_MODE_SLAVE_TX               0x00000000U                                   /*!< Slave
1536:Drivers/STM32G4xx_HAL_Driver/Inc/stm32g4xx_ll_spi.h **** #define LL_I2S_MODE_SLAVE_RX               (SPI_I2SCFGR_I2SCFG_0)                        /*!< Slave
1537:Drivers/STM32G4xx_HAL_Driver/Inc/stm32g4xx_ll_spi.h **** #define LL_I2S_MODE_MASTER_TX              (SPI_I2SCFGR_I2SCFG_1)                        /*!< Maste
1538:Drivers/STM32G4xx_HAL_Driver/Inc/stm32g4xx_ll_spi.h **** #define LL_I2S_MODE_MASTER_RX              (SPI_I2SCFGR_I2SCFG_0 | SPI_I2SCFGR_I2SCFG_1) /*!< Maste
1539:Drivers/STM32G4xx_HAL_Driver/Inc/stm32g4xx_ll_spi.h **** /**
1540:Drivers/STM32G4xx_HAL_Driver/Inc/stm32g4xx_ll_spi.h ****   * @}
1541:Drivers/STM32G4xx_HAL_Driver/Inc/stm32g4xx_ll_spi.h ****   */
1542:Drivers/STM32G4xx_HAL_Driver/Inc/stm32g4xx_ll_spi.h **** 
1543:Drivers/STM32G4xx_HAL_Driver/Inc/stm32g4xx_ll_spi.h **** /** @defgroup I2S_LL_EC_PRESCALER_FACTOR Prescaler Factor
1544:Drivers/STM32G4xx_HAL_Driver/Inc/stm32g4xx_ll_spi.h ****   * @{
1545:Drivers/STM32G4xx_HAL_Driver/Inc/stm32g4xx_ll_spi.h ****   */
1546:Drivers/STM32G4xx_HAL_Driver/Inc/stm32g4xx_ll_spi.h **** #define LL_I2S_PRESCALER_PARITY_EVEN       0x00000000U               /*!< Odd factor: Real divider 
1547:Drivers/STM32G4xx_HAL_Driver/Inc/stm32g4xx_ll_spi.h **** #define LL_I2S_PRESCALER_PARITY_ODD        (SPI_I2SPR_ODD >> 8U)     /*!< Odd factor: Real divider 
1548:Drivers/STM32G4xx_HAL_Driver/Inc/stm32g4xx_ll_spi.h **** /**
1549:Drivers/STM32G4xx_HAL_Driver/Inc/stm32g4xx_ll_spi.h ****   * @}
1550:Drivers/STM32G4xx_HAL_Driver/Inc/stm32g4xx_ll_spi.h ****   */
1551:Drivers/STM32G4xx_HAL_Driver/Inc/stm32g4xx_ll_spi.h **** 
1552:Drivers/STM32G4xx_HAL_Driver/Inc/stm32g4xx_ll_spi.h **** #if defined(USE_FULL_LL_DRIVER)
1553:Drivers/STM32G4xx_HAL_Driver/Inc/stm32g4xx_ll_spi.h **** 
1554:Drivers/STM32G4xx_HAL_Driver/Inc/stm32g4xx_ll_spi.h **** /** @defgroup I2S_LL_EC_MCLK_OUTPUT MCLK Output
1555:Drivers/STM32G4xx_HAL_Driver/Inc/stm32g4xx_ll_spi.h ****   * @{
1556:Drivers/STM32G4xx_HAL_Driver/Inc/stm32g4xx_ll_spi.h ****   */
1557:Drivers/STM32G4xx_HAL_Driver/Inc/stm32g4xx_ll_spi.h **** #define LL_I2S_MCLK_OUTPUT_DISABLE         0x00000000U               /*!< Master clock output is di
1558:Drivers/STM32G4xx_HAL_Driver/Inc/stm32g4xx_ll_spi.h **** #define LL_I2S_MCLK_OUTPUT_ENABLE          (SPI_I2SPR_MCKOE)         /*!< Master clock output is en
1559:Drivers/STM32G4xx_HAL_Driver/Inc/stm32g4xx_ll_spi.h **** /**
1560:Drivers/STM32G4xx_HAL_Driver/Inc/stm32g4xx_ll_spi.h ****   * @}
1561:Drivers/STM32G4xx_HAL_Driver/Inc/stm32g4xx_ll_spi.h ****   */
1562:Drivers/STM32G4xx_HAL_Driver/Inc/stm32g4xx_ll_spi.h **** 
1563:Drivers/STM32G4xx_HAL_Driver/Inc/stm32g4xx_ll_spi.h **** /** @defgroup I2S_LL_EC_AUDIO_FREQ Audio Frequency
1564:Drivers/STM32G4xx_HAL_Driver/Inc/stm32g4xx_ll_spi.h ****   * @{
1565:Drivers/STM32G4xx_HAL_Driver/Inc/stm32g4xx_ll_spi.h ****   */
1566:Drivers/STM32G4xx_HAL_Driver/Inc/stm32g4xx_ll_spi.h **** 
1567:Drivers/STM32G4xx_HAL_Driver/Inc/stm32g4xx_ll_spi.h **** #define LL_I2S_AUDIOFREQ_192K              192000U       /*!< Audio Frequency configuration 192000 
1568:Drivers/STM32G4xx_HAL_Driver/Inc/stm32g4xx_ll_spi.h **** #define LL_I2S_AUDIOFREQ_96K               96000U        /*!< Audio Frequency configuration  96000 
1569:Drivers/STM32G4xx_HAL_Driver/Inc/stm32g4xx_ll_spi.h **** #define LL_I2S_AUDIOFREQ_48K               48000U        /*!< Audio Frequency configuration  48000 
1570:Drivers/STM32G4xx_HAL_Driver/Inc/stm32g4xx_ll_spi.h **** #define LL_I2S_AUDIOFREQ_44K               44100U        /*!< Audio Frequency configuration  44100 
1571:Drivers/STM32G4xx_HAL_Driver/Inc/stm32g4xx_ll_spi.h **** #define LL_I2S_AUDIOFREQ_32K               32000U        /*!< Audio Frequency configuration  32000 
1572:Drivers/STM32G4xx_HAL_Driver/Inc/stm32g4xx_ll_spi.h **** #define LL_I2S_AUDIOFREQ_22K               22050U        /*!< Audio Frequency configuration  22050 
1573:Drivers/STM32G4xx_HAL_Driver/Inc/stm32g4xx_ll_spi.h **** #define LL_I2S_AUDIOFREQ_16K               16000U        /*!< Audio Frequency configuration  16000 
1574:Drivers/STM32G4xx_HAL_Driver/Inc/stm32g4xx_ll_spi.h **** #define LL_I2S_AUDIOFREQ_11K               11025U        /*!< Audio Frequency configuration  11025 
1575:Drivers/STM32G4xx_HAL_Driver/Inc/stm32g4xx_ll_spi.h **** #define LL_I2S_AUDIOFREQ_8K                8000U         /*!< Audio Frequency configuration   8000 
1576:Drivers/STM32G4xx_HAL_Driver/Inc/stm32g4xx_ll_spi.h **** #define LL_I2S_AUDIOFREQ_DEFAULT           2U            /*!< Audio Freq not specified. Register I2
1577:Drivers/STM32G4xx_HAL_Driver/Inc/stm32g4xx_ll_spi.h **** /**
1578:Drivers/STM32G4xx_HAL_Driver/Inc/stm32g4xx_ll_spi.h ****   * @}
1579:Drivers/STM32G4xx_HAL_Driver/Inc/stm32g4xx_ll_spi.h ****   */
1580:Drivers/STM32G4xx_HAL_Driver/Inc/stm32g4xx_ll_spi.h **** #endif /* USE_FULL_LL_DRIVER */
1581:Drivers/STM32G4xx_HAL_Driver/Inc/stm32g4xx_ll_spi.h **** 
1582:Drivers/STM32G4xx_HAL_Driver/Inc/stm32g4xx_ll_spi.h **** /**
1583:Drivers/STM32G4xx_HAL_Driver/Inc/stm32g4xx_ll_spi.h ****   * @}
1584:Drivers/STM32G4xx_HAL_Driver/Inc/stm32g4xx_ll_spi.h ****   */
1585:Drivers/STM32G4xx_HAL_Driver/Inc/stm32g4xx_ll_spi.h **** 
1586:Drivers/STM32G4xx_HAL_Driver/Inc/stm32g4xx_ll_spi.h **** /* Exported macro ------------------------------------------------------------*/
1587:Drivers/STM32G4xx_HAL_Driver/Inc/stm32g4xx_ll_spi.h **** /** @defgroup I2S_LL_Exported_Macros I2S Exported Macros
1588:Drivers/STM32G4xx_HAL_Driver/Inc/stm32g4xx_ll_spi.h ****   * @{
1589:Drivers/STM32G4xx_HAL_Driver/Inc/stm32g4xx_ll_spi.h ****   */
1590:Drivers/STM32G4xx_HAL_Driver/Inc/stm32g4xx_ll_spi.h **** 
1591:Drivers/STM32G4xx_HAL_Driver/Inc/stm32g4xx_ll_spi.h **** /** @defgroup I2S_LL_EM_WRITE_READ Common Write and read registers Macros
ARM GAS  /tmp/ccibP0tT.s 			page 32


1592:Drivers/STM32G4xx_HAL_Driver/Inc/stm32g4xx_ll_spi.h ****   * @{
1593:Drivers/STM32G4xx_HAL_Driver/Inc/stm32g4xx_ll_spi.h ****   */
1594:Drivers/STM32G4xx_HAL_Driver/Inc/stm32g4xx_ll_spi.h **** 
1595:Drivers/STM32G4xx_HAL_Driver/Inc/stm32g4xx_ll_spi.h **** /**
1596:Drivers/STM32G4xx_HAL_Driver/Inc/stm32g4xx_ll_spi.h ****   * @brief  Write a value in I2S register
1597:Drivers/STM32G4xx_HAL_Driver/Inc/stm32g4xx_ll_spi.h ****   * @param  __INSTANCE__ I2S Instance
1598:Drivers/STM32G4xx_HAL_Driver/Inc/stm32g4xx_ll_spi.h ****   * @param  __REG__ Register to be written
1599:Drivers/STM32G4xx_HAL_Driver/Inc/stm32g4xx_ll_spi.h ****   * @param  __VALUE__ Value to be written in the register
1600:Drivers/STM32G4xx_HAL_Driver/Inc/stm32g4xx_ll_spi.h ****   * @retval None
1601:Drivers/STM32G4xx_HAL_Driver/Inc/stm32g4xx_ll_spi.h ****   */
1602:Drivers/STM32G4xx_HAL_Driver/Inc/stm32g4xx_ll_spi.h **** #define LL_I2S_WriteReg(__INSTANCE__, __REG__, __VALUE__) WRITE_REG(__INSTANCE__->__REG__, (__VALUE
1603:Drivers/STM32G4xx_HAL_Driver/Inc/stm32g4xx_ll_spi.h **** 
1604:Drivers/STM32G4xx_HAL_Driver/Inc/stm32g4xx_ll_spi.h **** /**
1605:Drivers/STM32G4xx_HAL_Driver/Inc/stm32g4xx_ll_spi.h ****   * @brief  Read a value in I2S register
1606:Drivers/STM32G4xx_HAL_Driver/Inc/stm32g4xx_ll_spi.h ****   * @param  __INSTANCE__ I2S Instance
1607:Drivers/STM32G4xx_HAL_Driver/Inc/stm32g4xx_ll_spi.h ****   * @param  __REG__ Register to be read
1608:Drivers/STM32G4xx_HAL_Driver/Inc/stm32g4xx_ll_spi.h ****   * @retval Register value
1609:Drivers/STM32G4xx_HAL_Driver/Inc/stm32g4xx_ll_spi.h ****   */
1610:Drivers/STM32G4xx_HAL_Driver/Inc/stm32g4xx_ll_spi.h **** #define LL_I2S_ReadReg(__INSTANCE__, __REG__) READ_REG(__INSTANCE__->__REG__)
1611:Drivers/STM32G4xx_HAL_Driver/Inc/stm32g4xx_ll_spi.h **** /**
1612:Drivers/STM32G4xx_HAL_Driver/Inc/stm32g4xx_ll_spi.h ****   * @}
1613:Drivers/STM32G4xx_HAL_Driver/Inc/stm32g4xx_ll_spi.h ****   */
1614:Drivers/STM32G4xx_HAL_Driver/Inc/stm32g4xx_ll_spi.h **** 
1615:Drivers/STM32G4xx_HAL_Driver/Inc/stm32g4xx_ll_spi.h **** /**
1616:Drivers/STM32G4xx_HAL_Driver/Inc/stm32g4xx_ll_spi.h ****   * @}
1617:Drivers/STM32G4xx_HAL_Driver/Inc/stm32g4xx_ll_spi.h ****   */
1618:Drivers/STM32G4xx_HAL_Driver/Inc/stm32g4xx_ll_spi.h **** 
1619:Drivers/STM32G4xx_HAL_Driver/Inc/stm32g4xx_ll_spi.h **** 
1620:Drivers/STM32G4xx_HAL_Driver/Inc/stm32g4xx_ll_spi.h **** /* Exported functions --------------------------------------------------------*/
1621:Drivers/STM32G4xx_HAL_Driver/Inc/stm32g4xx_ll_spi.h **** 
1622:Drivers/STM32G4xx_HAL_Driver/Inc/stm32g4xx_ll_spi.h **** /** @defgroup I2S_LL_Exported_Functions I2S Exported Functions
1623:Drivers/STM32G4xx_HAL_Driver/Inc/stm32g4xx_ll_spi.h ****   * @{
1624:Drivers/STM32G4xx_HAL_Driver/Inc/stm32g4xx_ll_spi.h ****   */
1625:Drivers/STM32G4xx_HAL_Driver/Inc/stm32g4xx_ll_spi.h **** 
1626:Drivers/STM32G4xx_HAL_Driver/Inc/stm32g4xx_ll_spi.h **** /** @defgroup I2S_LL_EF_Configuration Configuration
1627:Drivers/STM32G4xx_HAL_Driver/Inc/stm32g4xx_ll_spi.h ****   * @{
1628:Drivers/STM32G4xx_HAL_Driver/Inc/stm32g4xx_ll_spi.h ****   */
1629:Drivers/STM32G4xx_HAL_Driver/Inc/stm32g4xx_ll_spi.h **** 
1630:Drivers/STM32G4xx_HAL_Driver/Inc/stm32g4xx_ll_spi.h **** /**
1631:Drivers/STM32G4xx_HAL_Driver/Inc/stm32g4xx_ll_spi.h ****   * @brief  Select I2S mode and Enable I2S peripheral
1632:Drivers/STM32G4xx_HAL_Driver/Inc/stm32g4xx_ll_spi.h ****   * @rmtoll I2SCFGR      I2SMOD        LL_I2S_Enable\n
1633:Drivers/STM32G4xx_HAL_Driver/Inc/stm32g4xx_ll_spi.h ****   *         I2SCFGR      I2SE          LL_I2S_Enable
1634:Drivers/STM32G4xx_HAL_Driver/Inc/stm32g4xx_ll_spi.h ****   * @param  SPIx SPI Instance
1635:Drivers/STM32G4xx_HAL_Driver/Inc/stm32g4xx_ll_spi.h ****   * @retval None
1636:Drivers/STM32G4xx_HAL_Driver/Inc/stm32g4xx_ll_spi.h ****   */
1637:Drivers/STM32G4xx_HAL_Driver/Inc/stm32g4xx_ll_spi.h **** __STATIC_INLINE void LL_I2S_Enable(SPI_TypeDef *SPIx)
1638:Drivers/STM32G4xx_HAL_Driver/Inc/stm32g4xx_ll_spi.h **** {
1639:Drivers/STM32G4xx_HAL_Driver/Inc/stm32g4xx_ll_spi.h ****   SET_BIT(SPIx->I2SCFGR, SPI_I2SCFGR_I2SMOD | SPI_I2SCFGR_I2SE);
1640:Drivers/STM32G4xx_HAL_Driver/Inc/stm32g4xx_ll_spi.h **** }
1641:Drivers/STM32G4xx_HAL_Driver/Inc/stm32g4xx_ll_spi.h **** 
1642:Drivers/STM32G4xx_HAL_Driver/Inc/stm32g4xx_ll_spi.h **** /**
1643:Drivers/STM32G4xx_HAL_Driver/Inc/stm32g4xx_ll_spi.h ****   * @brief  Disable I2S peripheral
1644:Drivers/STM32G4xx_HAL_Driver/Inc/stm32g4xx_ll_spi.h ****   * @rmtoll I2SCFGR      I2SE          LL_I2S_Disable
1645:Drivers/STM32G4xx_HAL_Driver/Inc/stm32g4xx_ll_spi.h ****   * @param  SPIx SPI Instance
1646:Drivers/STM32G4xx_HAL_Driver/Inc/stm32g4xx_ll_spi.h ****   * @retval None
1647:Drivers/STM32G4xx_HAL_Driver/Inc/stm32g4xx_ll_spi.h ****   */
1648:Drivers/STM32G4xx_HAL_Driver/Inc/stm32g4xx_ll_spi.h **** __STATIC_INLINE void LL_I2S_Disable(SPI_TypeDef *SPIx)
ARM GAS  /tmp/ccibP0tT.s 			page 33


1649:Drivers/STM32G4xx_HAL_Driver/Inc/stm32g4xx_ll_spi.h **** {
1650:Drivers/STM32G4xx_HAL_Driver/Inc/stm32g4xx_ll_spi.h ****   CLEAR_BIT(SPIx->I2SCFGR, SPI_I2SCFGR_I2SMOD | SPI_I2SCFGR_I2SE);
1651:Drivers/STM32G4xx_HAL_Driver/Inc/stm32g4xx_ll_spi.h **** }
1652:Drivers/STM32G4xx_HAL_Driver/Inc/stm32g4xx_ll_spi.h **** 
1653:Drivers/STM32G4xx_HAL_Driver/Inc/stm32g4xx_ll_spi.h **** /**
1654:Drivers/STM32G4xx_HAL_Driver/Inc/stm32g4xx_ll_spi.h ****   * @brief  Check if I2S peripheral is enabled
1655:Drivers/STM32G4xx_HAL_Driver/Inc/stm32g4xx_ll_spi.h ****   * @rmtoll I2SCFGR      I2SE          LL_I2S_IsEnabled
1656:Drivers/STM32G4xx_HAL_Driver/Inc/stm32g4xx_ll_spi.h ****   * @param  SPIx SPI Instance
1657:Drivers/STM32G4xx_HAL_Driver/Inc/stm32g4xx_ll_spi.h ****   * @retval State of bit (1 or 0).
1658:Drivers/STM32G4xx_HAL_Driver/Inc/stm32g4xx_ll_spi.h ****   */
1659:Drivers/STM32G4xx_HAL_Driver/Inc/stm32g4xx_ll_spi.h **** __STATIC_INLINE uint32_t LL_I2S_IsEnabled(SPI_TypeDef *SPIx)
1660:Drivers/STM32G4xx_HAL_Driver/Inc/stm32g4xx_ll_spi.h **** {
 184              		.loc 1 1660 1
 185              		.cfi_startproc
 186              		@ args = 0, pretend = 0, frame = 8
 187              		@ frame_needed = 1, uses_anonymous_args = 0
 188              		@ link register save eliminated.
 189 0000 80B4     		push	{r7}
 190              	.LCFI18:
 191              		.cfi_def_cfa_offset 4
 192              		.cfi_offset 7, -4
 193 0002 83B0     		sub	sp, sp, #12
 194              	.LCFI19:
 195              		.cfi_def_cfa_offset 16
 196 0004 00AF     		add	r7, sp, #0
 197              	.LCFI20:
 198              		.cfi_def_cfa_register 7
 199 0006 7860     		str	r0, [r7, #4]
1661:Drivers/STM32G4xx_HAL_Driver/Inc/stm32g4xx_ll_spi.h ****   return ((READ_BIT(SPIx->I2SCFGR, SPI_I2SCFGR_I2SE) == (SPI_I2SCFGR_I2SE)) ? 1UL : 0UL);
 200              		.loc 1 1661 12
 201 0008 7B68     		ldr	r3, [r7, #4]
 202 000a DB69     		ldr	r3, [r3, #28]
 203 000c 03F48063 		and	r3, r3, #1024
 204              		.loc 1 1661 83
 205 0010 B3F5806F 		cmp	r3, #1024
 206 0014 01D1     		bne	.L8
 207              		.loc 1 1661 83 is_stmt 0 discriminator 1
 208 0016 0123     		movs	r3, #1
 209 0018 00E0     		b	.L10
 210              	.L8:
 211              		.loc 1 1661 83 discriminator 2
 212 001a 0023     		movs	r3, #0
 213              	.L10:
1662:Drivers/STM32G4xx_HAL_Driver/Inc/stm32g4xx_ll_spi.h **** }
 214              		.loc 1 1662 1 is_stmt 1 discriminator 5
 215 001c 1846     		mov	r0, r3
 216 001e 0C37     		adds	r7, r7, #12
 217              	.LCFI21:
 218              		.cfi_def_cfa_offset 4
 219 0020 BD46     		mov	sp, r7
 220              	.LCFI22:
 221              		.cfi_def_cfa_register 13
 222              		@ sp needed
 223 0022 5DF8047B 		ldr	r7, [sp], #4
 224              	.LCFI23:
 225              		.cfi_restore 7
 226              		.cfi_def_cfa_offset 0
ARM GAS  /tmp/ccibP0tT.s 			page 34


 227 0026 7047     		bx	lr
 228              		.cfi_endproc
 229              	.LFE207:
 231              		.section	.text.LL_APB1_GRP1_ForceReset,"ax",%progbits
 232              		.align	1
 233              		.syntax unified
 234              		.thumb
 235              		.thumb_func
 236              		.fpu fpv4-sp-d16
 238              	LL_APB1_GRP1_ForceReset:
 239              	.LFB280:
 240              		.file 2 "Drivers/STM32G4xx_HAL_Driver/Inc/stm32g4xx_ll_bus.h"
   1:Drivers/STM32G4xx_HAL_Driver/Inc/stm32g4xx_ll_bus.h **** /**
   2:Drivers/STM32G4xx_HAL_Driver/Inc/stm32g4xx_ll_bus.h ****   ******************************************************************************
   3:Drivers/STM32G4xx_HAL_Driver/Inc/stm32g4xx_ll_bus.h ****   * @file    stm32g4xx_ll_bus.h
   4:Drivers/STM32G4xx_HAL_Driver/Inc/stm32g4xx_ll_bus.h ****   * @author  MCD Application Team
   5:Drivers/STM32G4xx_HAL_Driver/Inc/stm32g4xx_ll_bus.h ****   * @brief   Header file of BUS LL module.
   6:Drivers/STM32G4xx_HAL_Driver/Inc/stm32g4xx_ll_bus.h **** 
   7:Drivers/STM32G4xx_HAL_Driver/Inc/stm32g4xx_ll_bus.h ****   @verbatim
   8:Drivers/STM32G4xx_HAL_Driver/Inc/stm32g4xx_ll_bus.h ****                       ##### RCC Limitations #####
   9:Drivers/STM32G4xx_HAL_Driver/Inc/stm32g4xx_ll_bus.h ****   ==============================================================================
  10:Drivers/STM32G4xx_HAL_Driver/Inc/stm32g4xx_ll_bus.h ****     [..]
  11:Drivers/STM32G4xx_HAL_Driver/Inc/stm32g4xx_ll_bus.h ****       A delay between an RCC peripheral clock enable and the effective peripheral
  12:Drivers/STM32G4xx_HAL_Driver/Inc/stm32g4xx_ll_bus.h ****       enabling should be taken into account in order to manage the peripheral read/write
  13:Drivers/STM32G4xx_HAL_Driver/Inc/stm32g4xx_ll_bus.h ****       from/to registers.
  14:Drivers/STM32G4xx_HAL_Driver/Inc/stm32g4xx_ll_bus.h ****       (+) This delay depends on the peripheral mapping.
  15:Drivers/STM32G4xx_HAL_Driver/Inc/stm32g4xx_ll_bus.h ****         (++) AHB & APB peripherals, 1 dummy read is necessary
  16:Drivers/STM32G4xx_HAL_Driver/Inc/stm32g4xx_ll_bus.h **** 
  17:Drivers/STM32G4xx_HAL_Driver/Inc/stm32g4xx_ll_bus.h ****     [..]
  18:Drivers/STM32G4xx_HAL_Driver/Inc/stm32g4xx_ll_bus.h ****       Workarounds:
  19:Drivers/STM32G4xx_HAL_Driver/Inc/stm32g4xx_ll_bus.h ****       (#) For AHB & APB peripherals, a dummy read to the peripheral register has been
  20:Drivers/STM32G4xx_HAL_Driver/Inc/stm32g4xx_ll_bus.h ****           inserted in each LL_{BUS}_GRP{x}_EnableClock() function.
  21:Drivers/STM32G4xx_HAL_Driver/Inc/stm32g4xx_ll_bus.h **** 
  22:Drivers/STM32G4xx_HAL_Driver/Inc/stm32g4xx_ll_bus.h ****   @endverbatim
  23:Drivers/STM32G4xx_HAL_Driver/Inc/stm32g4xx_ll_bus.h ****   ******************************************************************************
  24:Drivers/STM32G4xx_HAL_Driver/Inc/stm32g4xx_ll_bus.h ****   * @attention
  25:Drivers/STM32G4xx_HAL_Driver/Inc/stm32g4xx_ll_bus.h ****   *
  26:Drivers/STM32G4xx_HAL_Driver/Inc/stm32g4xx_ll_bus.h ****   * Copyright (c) 2019 STMicroelectronics.
  27:Drivers/STM32G4xx_HAL_Driver/Inc/stm32g4xx_ll_bus.h ****   * All rights reserved.
  28:Drivers/STM32G4xx_HAL_Driver/Inc/stm32g4xx_ll_bus.h ****   *
  29:Drivers/STM32G4xx_HAL_Driver/Inc/stm32g4xx_ll_bus.h ****   * This software is licensed under terms that can be found in the LICENSE file in
  30:Drivers/STM32G4xx_HAL_Driver/Inc/stm32g4xx_ll_bus.h ****   * the root directory of this software component.
  31:Drivers/STM32G4xx_HAL_Driver/Inc/stm32g4xx_ll_bus.h ****   * If no LICENSE file comes with this software, it is provided AS-IS.
  32:Drivers/STM32G4xx_HAL_Driver/Inc/stm32g4xx_ll_bus.h ****   ******************************************************************************
  33:Drivers/STM32G4xx_HAL_Driver/Inc/stm32g4xx_ll_bus.h ****   */
  34:Drivers/STM32G4xx_HAL_Driver/Inc/stm32g4xx_ll_bus.h **** 
  35:Drivers/STM32G4xx_HAL_Driver/Inc/stm32g4xx_ll_bus.h **** /* Define to prevent recursive inclusion -------------------------------------*/
  36:Drivers/STM32G4xx_HAL_Driver/Inc/stm32g4xx_ll_bus.h **** #ifndef STM32G4xx_LL_BUS_H
  37:Drivers/STM32G4xx_HAL_Driver/Inc/stm32g4xx_ll_bus.h **** #define STM32G4xx_LL_BUS_H
  38:Drivers/STM32G4xx_HAL_Driver/Inc/stm32g4xx_ll_bus.h **** 
  39:Drivers/STM32G4xx_HAL_Driver/Inc/stm32g4xx_ll_bus.h **** #ifdef __cplusplus
  40:Drivers/STM32G4xx_HAL_Driver/Inc/stm32g4xx_ll_bus.h **** extern "C" {
  41:Drivers/STM32G4xx_HAL_Driver/Inc/stm32g4xx_ll_bus.h **** #endif
  42:Drivers/STM32G4xx_HAL_Driver/Inc/stm32g4xx_ll_bus.h **** 
  43:Drivers/STM32G4xx_HAL_Driver/Inc/stm32g4xx_ll_bus.h **** /* Includes ------------------------------------------------------------------*/
  44:Drivers/STM32G4xx_HAL_Driver/Inc/stm32g4xx_ll_bus.h **** #include "stm32g4xx.h"
  45:Drivers/STM32G4xx_HAL_Driver/Inc/stm32g4xx_ll_bus.h **** 
ARM GAS  /tmp/ccibP0tT.s 			page 35


  46:Drivers/STM32G4xx_HAL_Driver/Inc/stm32g4xx_ll_bus.h **** /** @addtogroup STM32G4xx_LL_Driver
  47:Drivers/STM32G4xx_HAL_Driver/Inc/stm32g4xx_ll_bus.h ****   * @{
  48:Drivers/STM32G4xx_HAL_Driver/Inc/stm32g4xx_ll_bus.h ****   */
  49:Drivers/STM32G4xx_HAL_Driver/Inc/stm32g4xx_ll_bus.h **** 
  50:Drivers/STM32G4xx_HAL_Driver/Inc/stm32g4xx_ll_bus.h **** #if defined(RCC)
  51:Drivers/STM32G4xx_HAL_Driver/Inc/stm32g4xx_ll_bus.h **** 
  52:Drivers/STM32G4xx_HAL_Driver/Inc/stm32g4xx_ll_bus.h **** /** @defgroup BUS_LL BUS
  53:Drivers/STM32G4xx_HAL_Driver/Inc/stm32g4xx_ll_bus.h ****   * @{
  54:Drivers/STM32G4xx_HAL_Driver/Inc/stm32g4xx_ll_bus.h ****   */
  55:Drivers/STM32G4xx_HAL_Driver/Inc/stm32g4xx_ll_bus.h **** 
  56:Drivers/STM32G4xx_HAL_Driver/Inc/stm32g4xx_ll_bus.h **** /* Private types -------------------------------------------------------------*/
  57:Drivers/STM32G4xx_HAL_Driver/Inc/stm32g4xx_ll_bus.h **** /* Private variables ---------------------------------------------------------*/
  58:Drivers/STM32G4xx_HAL_Driver/Inc/stm32g4xx_ll_bus.h **** 
  59:Drivers/STM32G4xx_HAL_Driver/Inc/stm32g4xx_ll_bus.h **** /* Private constants ---------------------------------------------------------*/
  60:Drivers/STM32G4xx_HAL_Driver/Inc/stm32g4xx_ll_bus.h **** 
  61:Drivers/STM32G4xx_HAL_Driver/Inc/stm32g4xx_ll_bus.h **** /* Private macros ------------------------------------------------------------*/
  62:Drivers/STM32G4xx_HAL_Driver/Inc/stm32g4xx_ll_bus.h **** 
  63:Drivers/STM32G4xx_HAL_Driver/Inc/stm32g4xx_ll_bus.h **** /* Exported types ------------------------------------------------------------*/
  64:Drivers/STM32G4xx_HAL_Driver/Inc/stm32g4xx_ll_bus.h **** /* Exported constants --------------------------------------------------------*/
  65:Drivers/STM32G4xx_HAL_Driver/Inc/stm32g4xx_ll_bus.h **** /** @defgroup BUS_LL_Exported_Constants BUS Exported Constants
  66:Drivers/STM32G4xx_HAL_Driver/Inc/stm32g4xx_ll_bus.h ****   * @{
  67:Drivers/STM32G4xx_HAL_Driver/Inc/stm32g4xx_ll_bus.h ****   */
  68:Drivers/STM32G4xx_HAL_Driver/Inc/stm32g4xx_ll_bus.h **** 
  69:Drivers/STM32G4xx_HAL_Driver/Inc/stm32g4xx_ll_bus.h **** /** @defgroup BUS_LL_EC_AHB1_GRP1_PERIPH  AHB1 GRP1 PERIPH
  70:Drivers/STM32G4xx_HAL_Driver/Inc/stm32g4xx_ll_bus.h ****   * @{
  71:Drivers/STM32G4xx_HAL_Driver/Inc/stm32g4xx_ll_bus.h ****   */
  72:Drivers/STM32G4xx_HAL_Driver/Inc/stm32g4xx_ll_bus.h **** #define LL_AHB1_GRP1_PERIPH_ALL            0xFFFFFFFFU
  73:Drivers/STM32G4xx_HAL_Driver/Inc/stm32g4xx_ll_bus.h **** #define LL_AHB1_GRP1_PERIPH_DMA1           RCC_AHB1ENR_DMA1EN
  74:Drivers/STM32G4xx_HAL_Driver/Inc/stm32g4xx_ll_bus.h **** #define LL_AHB1_GRP1_PERIPH_DMA2           RCC_AHB1ENR_DMA2EN
  75:Drivers/STM32G4xx_HAL_Driver/Inc/stm32g4xx_ll_bus.h **** #define LL_AHB1_GRP1_PERIPH_DMAMUX1        RCC_AHB1ENR_DMAMUX1EN
  76:Drivers/STM32G4xx_HAL_Driver/Inc/stm32g4xx_ll_bus.h **** #define LL_AHB1_GRP1_PERIPH_CORDIC         RCC_AHB1ENR_CORDICEN
  77:Drivers/STM32G4xx_HAL_Driver/Inc/stm32g4xx_ll_bus.h **** #define LL_AHB1_GRP1_PERIPH_FMAC           RCC_AHB1ENR_FMACEN
  78:Drivers/STM32G4xx_HAL_Driver/Inc/stm32g4xx_ll_bus.h **** #define LL_AHB1_GRP1_PERIPH_FLASH          RCC_AHB1ENR_FLASHEN
  79:Drivers/STM32G4xx_HAL_Driver/Inc/stm32g4xx_ll_bus.h **** #define LL_AHB1_GRP1_PERIPH_SRAM1          RCC_AHB1SMENR_SRAM1SMEN
  80:Drivers/STM32G4xx_HAL_Driver/Inc/stm32g4xx_ll_bus.h **** #define LL_AHB1_GRP1_PERIPH_CRC            RCC_AHB1ENR_CRCEN
  81:Drivers/STM32G4xx_HAL_Driver/Inc/stm32g4xx_ll_bus.h **** /**
  82:Drivers/STM32G4xx_HAL_Driver/Inc/stm32g4xx_ll_bus.h ****   * @}
  83:Drivers/STM32G4xx_HAL_Driver/Inc/stm32g4xx_ll_bus.h ****   */
  84:Drivers/STM32G4xx_HAL_Driver/Inc/stm32g4xx_ll_bus.h **** 
  85:Drivers/STM32G4xx_HAL_Driver/Inc/stm32g4xx_ll_bus.h **** /** @defgroup BUS_LL_EC_AHB2_GRP1_PERIPH  AHB2 GRP1 PERIPH
  86:Drivers/STM32G4xx_HAL_Driver/Inc/stm32g4xx_ll_bus.h ****   * @{
  87:Drivers/STM32G4xx_HAL_Driver/Inc/stm32g4xx_ll_bus.h ****   */
  88:Drivers/STM32G4xx_HAL_Driver/Inc/stm32g4xx_ll_bus.h **** #define LL_AHB2_GRP1_PERIPH_ALL            0xFFFFFFFFU
  89:Drivers/STM32G4xx_HAL_Driver/Inc/stm32g4xx_ll_bus.h **** #define LL_AHB2_GRP1_PERIPH_GPIOA          RCC_AHB2ENR_GPIOAEN
  90:Drivers/STM32G4xx_HAL_Driver/Inc/stm32g4xx_ll_bus.h **** #define LL_AHB2_GRP1_PERIPH_GPIOB          RCC_AHB2ENR_GPIOBEN
  91:Drivers/STM32G4xx_HAL_Driver/Inc/stm32g4xx_ll_bus.h **** #define LL_AHB2_GRP1_PERIPH_GPIOC          RCC_AHB2ENR_GPIOCEN
  92:Drivers/STM32G4xx_HAL_Driver/Inc/stm32g4xx_ll_bus.h **** #define LL_AHB2_GRP1_PERIPH_GPIOD          RCC_AHB2ENR_GPIODEN
  93:Drivers/STM32G4xx_HAL_Driver/Inc/stm32g4xx_ll_bus.h **** #define LL_AHB2_GRP1_PERIPH_GPIOE          RCC_AHB2ENR_GPIOEEN
  94:Drivers/STM32G4xx_HAL_Driver/Inc/stm32g4xx_ll_bus.h **** #define LL_AHB2_GRP1_PERIPH_GPIOF          RCC_AHB2ENR_GPIOFEN
  95:Drivers/STM32G4xx_HAL_Driver/Inc/stm32g4xx_ll_bus.h **** #define LL_AHB2_GRP1_PERIPH_GPIOG          RCC_AHB2ENR_GPIOGEN
  96:Drivers/STM32G4xx_HAL_Driver/Inc/stm32g4xx_ll_bus.h **** #define LL_AHB2_GRP1_PERIPH_CCM            RCC_AHB2SMENR_CCMSMEN
  97:Drivers/STM32G4xx_HAL_Driver/Inc/stm32g4xx_ll_bus.h **** #define LL_AHB2_GRP1_PERIPH_SRAM2          RCC_AHB2SMENR_SRAM2SMEN
  98:Drivers/STM32G4xx_HAL_Driver/Inc/stm32g4xx_ll_bus.h **** #define LL_AHB2_GRP1_PERIPH_ADC12          RCC_AHB2ENR_ADC12EN
  99:Drivers/STM32G4xx_HAL_Driver/Inc/stm32g4xx_ll_bus.h **** #if defined(ADC345_COMMON)
 100:Drivers/STM32G4xx_HAL_Driver/Inc/stm32g4xx_ll_bus.h **** #define LL_AHB2_GRP1_PERIPH_ADC345         RCC_AHB2ENR_ADC345EN
 101:Drivers/STM32G4xx_HAL_Driver/Inc/stm32g4xx_ll_bus.h **** #endif /* ADC345_COMMON */
 102:Drivers/STM32G4xx_HAL_Driver/Inc/stm32g4xx_ll_bus.h **** #define LL_AHB2_GRP1_PERIPH_DAC1           RCC_AHB2ENR_DAC1EN
ARM GAS  /tmp/ccibP0tT.s 			page 36


 103:Drivers/STM32G4xx_HAL_Driver/Inc/stm32g4xx_ll_bus.h **** #if defined(DAC2)
 104:Drivers/STM32G4xx_HAL_Driver/Inc/stm32g4xx_ll_bus.h **** #define LL_AHB2_GRP1_PERIPH_DAC2           RCC_AHB2ENR_DAC2EN
 105:Drivers/STM32G4xx_HAL_Driver/Inc/stm32g4xx_ll_bus.h **** #endif /* DAC2 */
 106:Drivers/STM32G4xx_HAL_Driver/Inc/stm32g4xx_ll_bus.h **** #define LL_AHB2_GRP1_PERIPH_DAC3           RCC_AHB2ENR_DAC3EN
 107:Drivers/STM32G4xx_HAL_Driver/Inc/stm32g4xx_ll_bus.h **** #if defined(DAC4)
 108:Drivers/STM32G4xx_HAL_Driver/Inc/stm32g4xx_ll_bus.h **** #define LL_AHB2_GRP1_PERIPH_DAC4           RCC_AHB2ENR_DAC4EN
 109:Drivers/STM32G4xx_HAL_Driver/Inc/stm32g4xx_ll_bus.h **** #endif /* DAC4 */
 110:Drivers/STM32G4xx_HAL_Driver/Inc/stm32g4xx_ll_bus.h **** #if defined(AES)
 111:Drivers/STM32G4xx_HAL_Driver/Inc/stm32g4xx_ll_bus.h **** #define LL_AHB2_GRP1_PERIPH_AES            RCC_AHB2ENR_AESEN
 112:Drivers/STM32G4xx_HAL_Driver/Inc/stm32g4xx_ll_bus.h **** #endif /* AES */
 113:Drivers/STM32G4xx_HAL_Driver/Inc/stm32g4xx_ll_bus.h **** #define LL_AHB2_GRP1_PERIPH_RNG            RCC_AHB2ENR_RNGEN
 114:Drivers/STM32G4xx_HAL_Driver/Inc/stm32g4xx_ll_bus.h **** /**
 115:Drivers/STM32G4xx_HAL_Driver/Inc/stm32g4xx_ll_bus.h ****   * @}
 116:Drivers/STM32G4xx_HAL_Driver/Inc/stm32g4xx_ll_bus.h ****   */
 117:Drivers/STM32G4xx_HAL_Driver/Inc/stm32g4xx_ll_bus.h **** 
 118:Drivers/STM32G4xx_HAL_Driver/Inc/stm32g4xx_ll_bus.h **** /** @defgroup BUS_LL_EC_AHB3_GRP1_PERIPH  AHB3 GRP1 PERIPH
 119:Drivers/STM32G4xx_HAL_Driver/Inc/stm32g4xx_ll_bus.h ****   * @{
 120:Drivers/STM32G4xx_HAL_Driver/Inc/stm32g4xx_ll_bus.h ****   */
 121:Drivers/STM32G4xx_HAL_Driver/Inc/stm32g4xx_ll_bus.h **** #define LL_AHB3_GRP1_PERIPH_ALL            0xFFFFFFFFU
 122:Drivers/STM32G4xx_HAL_Driver/Inc/stm32g4xx_ll_bus.h **** #if defined(FMC_Bank1_R)
 123:Drivers/STM32G4xx_HAL_Driver/Inc/stm32g4xx_ll_bus.h **** #define LL_AHB3_GRP1_PERIPH_FMC            RCC_AHB3ENR_FMCEN
 124:Drivers/STM32G4xx_HAL_Driver/Inc/stm32g4xx_ll_bus.h **** #endif /* FMC_Bank1_R */
 125:Drivers/STM32G4xx_HAL_Driver/Inc/stm32g4xx_ll_bus.h **** #if defined(QUADSPI)
 126:Drivers/STM32G4xx_HAL_Driver/Inc/stm32g4xx_ll_bus.h **** #define LL_AHB3_GRP1_PERIPH_QSPI           RCC_AHB3ENR_QSPIEN
 127:Drivers/STM32G4xx_HAL_Driver/Inc/stm32g4xx_ll_bus.h **** #endif /* QUADSPI */
 128:Drivers/STM32G4xx_HAL_Driver/Inc/stm32g4xx_ll_bus.h **** /**
 129:Drivers/STM32G4xx_HAL_Driver/Inc/stm32g4xx_ll_bus.h ****   * @}
 130:Drivers/STM32G4xx_HAL_Driver/Inc/stm32g4xx_ll_bus.h ****   */
 131:Drivers/STM32G4xx_HAL_Driver/Inc/stm32g4xx_ll_bus.h **** 
 132:Drivers/STM32G4xx_HAL_Driver/Inc/stm32g4xx_ll_bus.h **** /** @defgroup BUS_LL_EC_APB1_GRP1_PERIPH  APB1 GRP1 PERIPH
 133:Drivers/STM32G4xx_HAL_Driver/Inc/stm32g4xx_ll_bus.h ****   * @{
 134:Drivers/STM32G4xx_HAL_Driver/Inc/stm32g4xx_ll_bus.h ****   */
 135:Drivers/STM32G4xx_HAL_Driver/Inc/stm32g4xx_ll_bus.h **** #define LL_APB1_GRP1_PERIPH_ALL            0xFFFFFFFFU
 136:Drivers/STM32G4xx_HAL_Driver/Inc/stm32g4xx_ll_bus.h **** #define LL_APB1_GRP1_PERIPH_TIM2           RCC_APB1ENR1_TIM2EN
 137:Drivers/STM32G4xx_HAL_Driver/Inc/stm32g4xx_ll_bus.h **** #define LL_APB1_GRP1_PERIPH_TIM3           RCC_APB1ENR1_TIM3EN
 138:Drivers/STM32G4xx_HAL_Driver/Inc/stm32g4xx_ll_bus.h **** #define LL_APB1_GRP1_PERIPH_TIM4           RCC_APB1ENR1_TIM4EN
 139:Drivers/STM32G4xx_HAL_Driver/Inc/stm32g4xx_ll_bus.h **** #if defined(TIM5)
 140:Drivers/STM32G4xx_HAL_Driver/Inc/stm32g4xx_ll_bus.h **** #define LL_APB1_GRP1_PERIPH_TIM5           RCC_APB1ENR1_TIM5EN
 141:Drivers/STM32G4xx_HAL_Driver/Inc/stm32g4xx_ll_bus.h **** #endif /* TIM5 */
 142:Drivers/STM32G4xx_HAL_Driver/Inc/stm32g4xx_ll_bus.h **** #define LL_APB1_GRP1_PERIPH_TIM6           RCC_APB1ENR1_TIM6EN
 143:Drivers/STM32G4xx_HAL_Driver/Inc/stm32g4xx_ll_bus.h **** #define LL_APB1_GRP1_PERIPH_TIM7           RCC_APB1ENR1_TIM7EN
 144:Drivers/STM32G4xx_HAL_Driver/Inc/stm32g4xx_ll_bus.h **** #define LL_APB1_GRP1_PERIPH_CRS            RCC_APB1ENR1_CRSEN
 145:Drivers/STM32G4xx_HAL_Driver/Inc/stm32g4xx_ll_bus.h **** #define LL_APB1_GRP1_PERIPH_RTCAPB         RCC_APB1ENR1_RTCAPBEN
 146:Drivers/STM32G4xx_HAL_Driver/Inc/stm32g4xx_ll_bus.h **** #define LL_APB1_GRP1_PERIPH_WWDG           RCC_APB1ENR1_WWDGEN
 147:Drivers/STM32G4xx_HAL_Driver/Inc/stm32g4xx_ll_bus.h **** #define LL_APB1_GRP1_PERIPH_SPI2           RCC_APB1ENR1_SPI2EN
 148:Drivers/STM32G4xx_HAL_Driver/Inc/stm32g4xx_ll_bus.h **** #define LL_APB1_GRP1_PERIPH_SPI3           RCC_APB1ENR1_SPI3EN
 149:Drivers/STM32G4xx_HAL_Driver/Inc/stm32g4xx_ll_bus.h **** #define LL_APB1_GRP1_PERIPH_USART2         RCC_APB1ENR1_USART2EN
 150:Drivers/STM32G4xx_HAL_Driver/Inc/stm32g4xx_ll_bus.h **** #define LL_APB1_GRP1_PERIPH_USART3         RCC_APB1ENR1_USART3EN
 151:Drivers/STM32G4xx_HAL_Driver/Inc/stm32g4xx_ll_bus.h **** #if defined(UART4)
 152:Drivers/STM32G4xx_HAL_Driver/Inc/stm32g4xx_ll_bus.h **** #define LL_APB1_GRP1_PERIPH_UART4          RCC_APB1ENR1_UART4EN
 153:Drivers/STM32G4xx_HAL_Driver/Inc/stm32g4xx_ll_bus.h **** #endif /* UART4 */
 154:Drivers/STM32G4xx_HAL_Driver/Inc/stm32g4xx_ll_bus.h **** #if defined(UART5)
 155:Drivers/STM32G4xx_HAL_Driver/Inc/stm32g4xx_ll_bus.h **** #define LL_APB1_GRP1_PERIPH_UART5          RCC_APB1ENR1_UART5EN
 156:Drivers/STM32G4xx_HAL_Driver/Inc/stm32g4xx_ll_bus.h **** #endif /* UART5 */
 157:Drivers/STM32G4xx_HAL_Driver/Inc/stm32g4xx_ll_bus.h **** #define LL_APB1_GRP1_PERIPH_I2C1           RCC_APB1ENR1_I2C1EN
 158:Drivers/STM32G4xx_HAL_Driver/Inc/stm32g4xx_ll_bus.h **** #define LL_APB1_GRP1_PERIPH_I2C2           RCC_APB1ENR1_I2C2EN
 159:Drivers/STM32G4xx_HAL_Driver/Inc/stm32g4xx_ll_bus.h **** #define LL_APB1_GRP1_PERIPH_USB            RCC_APB1ENR1_USBEN
ARM GAS  /tmp/ccibP0tT.s 			page 37


 160:Drivers/STM32G4xx_HAL_Driver/Inc/stm32g4xx_ll_bus.h **** #if defined(FDCAN1)
 161:Drivers/STM32G4xx_HAL_Driver/Inc/stm32g4xx_ll_bus.h **** #define LL_APB1_GRP1_PERIPH_FDCAN          RCC_APB1ENR1_FDCANEN
 162:Drivers/STM32G4xx_HAL_Driver/Inc/stm32g4xx_ll_bus.h **** #endif /* FDCAN1 */
 163:Drivers/STM32G4xx_HAL_Driver/Inc/stm32g4xx_ll_bus.h **** #define LL_APB1_GRP1_PERIPH_PWR            RCC_APB1ENR1_PWREN
 164:Drivers/STM32G4xx_HAL_Driver/Inc/stm32g4xx_ll_bus.h **** #define LL_APB1_GRP1_PERIPH_I2C3           RCC_APB1ENR1_I2C3EN
 165:Drivers/STM32G4xx_HAL_Driver/Inc/stm32g4xx_ll_bus.h **** #define LL_APB1_GRP1_PERIPH_LPTIM1         RCC_APB1ENR1_LPTIM1EN
 166:Drivers/STM32G4xx_HAL_Driver/Inc/stm32g4xx_ll_bus.h **** /**
 167:Drivers/STM32G4xx_HAL_Driver/Inc/stm32g4xx_ll_bus.h ****   * @}
 168:Drivers/STM32G4xx_HAL_Driver/Inc/stm32g4xx_ll_bus.h ****   */
 169:Drivers/STM32G4xx_HAL_Driver/Inc/stm32g4xx_ll_bus.h **** 
 170:Drivers/STM32G4xx_HAL_Driver/Inc/stm32g4xx_ll_bus.h **** 
 171:Drivers/STM32G4xx_HAL_Driver/Inc/stm32g4xx_ll_bus.h **** /** @defgroup BUS_LL_EC_APB1_GRP2_PERIPH  APB1 GRP2 PERIPH
 172:Drivers/STM32G4xx_HAL_Driver/Inc/stm32g4xx_ll_bus.h ****   * @{
 173:Drivers/STM32G4xx_HAL_Driver/Inc/stm32g4xx_ll_bus.h ****   */
 174:Drivers/STM32G4xx_HAL_Driver/Inc/stm32g4xx_ll_bus.h **** #define LL_APB1_GRP2_PERIPH_ALL            0xFFFFFFFFU
 175:Drivers/STM32G4xx_HAL_Driver/Inc/stm32g4xx_ll_bus.h **** #define LL_APB1_GRP2_PERIPH_LPUART1        RCC_APB1ENR2_LPUART1EN
 176:Drivers/STM32G4xx_HAL_Driver/Inc/stm32g4xx_ll_bus.h **** #if defined(I2C4)
 177:Drivers/STM32G4xx_HAL_Driver/Inc/stm32g4xx_ll_bus.h **** #define LL_APB1_GRP2_PERIPH_I2C4           RCC_APB1ENR2_I2C4EN
 178:Drivers/STM32G4xx_HAL_Driver/Inc/stm32g4xx_ll_bus.h **** #endif /* I2C4 */
 179:Drivers/STM32G4xx_HAL_Driver/Inc/stm32g4xx_ll_bus.h **** #define LL_APB1_GRP2_PERIPH_UCPD1         RCC_APB1ENR2_UCPD1EN
 180:Drivers/STM32G4xx_HAL_Driver/Inc/stm32g4xx_ll_bus.h **** /**
 181:Drivers/STM32G4xx_HAL_Driver/Inc/stm32g4xx_ll_bus.h ****   * @}
 182:Drivers/STM32G4xx_HAL_Driver/Inc/stm32g4xx_ll_bus.h ****   */
 183:Drivers/STM32G4xx_HAL_Driver/Inc/stm32g4xx_ll_bus.h **** 
 184:Drivers/STM32G4xx_HAL_Driver/Inc/stm32g4xx_ll_bus.h **** /** @defgroup BUS_LL_EC_APB2_GRP1_PERIPH  APB2 GRP1 PERIPH
 185:Drivers/STM32G4xx_HAL_Driver/Inc/stm32g4xx_ll_bus.h ****   * @{
 186:Drivers/STM32G4xx_HAL_Driver/Inc/stm32g4xx_ll_bus.h ****   */
 187:Drivers/STM32G4xx_HAL_Driver/Inc/stm32g4xx_ll_bus.h **** #define LL_APB2_GRP1_PERIPH_ALL            0xFFFFFFFFU
 188:Drivers/STM32G4xx_HAL_Driver/Inc/stm32g4xx_ll_bus.h **** #define LL_APB2_GRP1_PERIPH_SYSCFG         RCC_APB2ENR_SYSCFGEN
 189:Drivers/STM32G4xx_HAL_Driver/Inc/stm32g4xx_ll_bus.h **** #define LL_APB2_GRP1_PERIPH_TIM1           RCC_APB2ENR_TIM1EN
 190:Drivers/STM32G4xx_HAL_Driver/Inc/stm32g4xx_ll_bus.h **** #define LL_APB2_GRP1_PERIPH_SPI1           RCC_APB2ENR_SPI1EN
 191:Drivers/STM32G4xx_HAL_Driver/Inc/stm32g4xx_ll_bus.h **** #define LL_APB2_GRP1_PERIPH_TIM8           RCC_APB2ENR_TIM8EN
 192:Drivers/STM32G4xx_HAL_Driver/Inc/stm32g4xx_ll_bus.h **** #define LL_APB2_GRP1_PERIPH_USART1         RCC_APB2ENR_USART1EN
 193:Drivers/STM32G4xx_HAL_Driver/Inc/stm32g4xx_ll_bus.h **** #if defined(SPI4)
 194:Drivers/STM32G4xx_HAL_Driver/Inc/stm32g4xx_ll_bus.h **** #define LL_APB2_GRP1_PERIPH_SPI4           RCC_APB2ENR_SPI4EN
 195:Drivers/STM32G4xx_HAL_Driver/Inc/stm32g4xx_ll_bus.h **** #endif /* SPI4 */
 196:Drivers/STM32G4xx_HAL_Driver/Inc/stm32g4xx_ll_bus.h **** #define LL_APB2_GRP1_PERIPH_TIM15          RCC_APB2ENR_TIM15EN
 197:Drivers/STM32G4xx_HAL_Driver/Inc/stm32g4xx_ll_bus.h **** #define LL_APB2_GRP1_PERIPH_TIM16          RCC_APB2ENR_TIM16EN
 198:Drivers/STM32G4xx_HAL_Driver/Inc/stm32g4xx_ll_bus.h **** #define LL_APB2_GRP1_PERIPH_TIM17          RCC_APB2ENR_TIM17EN
 199:Drivers/STM32G4xx_HAL_Driver/Inc/stm32g4xx_ll_bus.h **** #if defined(TIM20)
 200:Drivers/STM32G4xx_HAL_Driver/Inc/stm32g4xx_ll_bus.h **** #define LL_APB2_GRP1_PERIPH_TIM20          RCC_APB2ENR_TIM20EN
 201:Drivers/STM32G4xx_HAL_Driver/Inc/stm32g4xx_ll_bus.h **** #endif /* TIM20 */
 202:Drivers/STM32G4xx_HAL_Driver/Inc/stm32g4xx_ll_bus.h **** #define LL_APB2_GRP1_PERIPH_SAI1           RCC_APB2ENR_SAI1EN
 203:Drivers/STM32G4xx_HAL_Driver/Inc/stm32g4xx_ll_bus.h **** #if defined(HRTIM1)
 204:Drivers/STM32G4xx_HAL_Driver/Inc/stm32g4xx_ll_bus.h **** #define LL_APB2_GRP1_PERIPH_HRTIM1         RCC_APB2ENR_HRTIM1EN
 205:Drivers/STM32G4xx_HAL_Driver/Inc/stm32g4xx_ll_bus.h **** #endif /* HRTIM1 */
 206:Drivers/STM32G4xx_HAL_Driver/Inc/stm32g4xx_ll_bus.h **** /**
 207:Drivers/STM32G4xx_HAL_Driver/Inc/stm32g4xx_ll_bus.h ****   * @}
 208:Drivers/STM32G4xx_HAL_Driver/Inc/stm32g4xx_ll_bus.h ****   */
 209:Drivers/STM32G4xx_HAL_Driver/Inc/stm32g4xx_ll_bus.h **** 
 210:Drivers/STM32G4xx_HAL_Driver/Inc/stm32g4xx_ll_bus.h **** /**
 211:Drivers/STM32G4xx_HAL_Driver/Inc/stm32g4xx_ll_bus.h ****   * @}
 212:Drivers/STM32G4xx_HAL_Driver/Inc/stm32g4xx_ll_bus.h ****   */
 213:Drivers/STM32G4xx_HAL_Driver/Inc/stm32g4xx_ll_bus.h **** 
 214:Drivers/STM32G4xx_HAL_Driver/Inc/stm32g4xx_ll_bus.h **** /* Exported macro ------------------------------------------------------------*/
 215:Drivers/STM32G4xx_HAL_Driver/Inc/stm32g4xx_ll_bus.h **** /* Exported functions --------------------------------------------------------*/
 216:Drivers/STM32G4xx_HAL_Driver/Inc/stm32g4xx_ll_bus.h **** /** @defgroup BUS_LL_Exported_Functions BUS Exported Functions
ARM GAS  /tmp/ccibP0tT.s 			page 38


 217:Drivers/STM32G4xx_HAL_Driver/Inc/stm32g4xx_ll_bus.h ****   * @{
 218:Drivers/STM32G4xx_HAL_Driver/Inc/stm32g4xx_ll_bus.h ****   */
 219:Drivers/STM32G4xx_HAL_Driver/Inc/stm32g4xx_ll_bus.h **** 
 220:Drivers/STM32G4xx_HAL_Driver/Inc/stm32g4xx_ll_bus.h **** /** @defgroup BUS_LL_EF_AHB1 AHB1
 221:Drivers/STM32G4xx_HAL_Driver/Inc/stm32g4xx_ll_bus.h ****   * @{
 222:Drivers/STM32G4xx_HAL_Driver/Inc/stm32g4xx_ll_bus.h ****   */
 223:Drivers/STM32G4xx_HAL_Driver/Inc/stm32g4xx_ll_bus.h **** 
 224:Drivers/STM32G4xx_HAL_Driver/Inc/stm32g4xx_ll_bus.h **** /**
 225:Drivers/STM32G4xx_HAL_Driver/Inc/stm32g4xx_ll_bus.h ****   * @brief  Enable AHB1 peripherals clock.
 226:Drivers/STM32G4xx_HAL_Driver/Inc/stm32g4xx_ll_bus.h ****   * @rmtoll AHB1ENR      DMA1EN        LL_AHB1_GRP1_EnableClock\n
 227:Drivers/STM32G4xx_HAL_Driver/Inc/stm32g4xx_ll_bus.h ****   *         AHB1ENR      DMA2EN        LL_AHB1_GRP1_EnableClock\n
 228:Drivers/STM32G4xx_HAL_Driver/Inc/stm32g4xx_ll_bus.h ****   *         AHB1ENR      DMAMMUXEN     LL_AHB1_GRP1_EnableClock\n
 229:Drivers/STM32G4xx_HAL_Driver/Inc/stm32g4xx_ll_bus.h ****   *         AHB1ENR      CORDICEN      LL_AHB1_GRP1_EnableClock\n
 230:Drivers/STM32G4xx_HAL_Driver/Inc/stm32g4xx_ll_bus.h ****   *         AHB1ENR      FMACEN        LL_AHB1_GRP1_EnableClock\n
 231:Drivers/STM32G4xx_HAL_Driver/Inc/stm32g4xx_ll_bus.h ****   *         AHB1ENR      FLASHEN       LL_AHB1_GRP1_EnableClock\n
 232:Drivers/STM32G4xx_HAL_Driver/Inc/stm32g4xx_ll_bus.h ****   *         AHB1ENR      CRCEN         LL_AHB1_GRP1_EnableClock
 233:Drivers/STM32G4xx_HAL_Driver/Inc/stm32g4xx_ll_bus.h ****   * @param  Periphs This parameter can be a combination of the following values:
 234:Drivers/STM32G4xx_HAL_Driver/Inc/stm32g4xx_ll_bus.h ****   *         @arg @ref LL_AHB1_GRP1_PERIPH_DMA1
 235:Drivers/STM32G4xx_HAL_Driver/Inc/stm32g4xx_ll_bus.h ****   *         @arg @ref LL_AHB1_GRP1_PERIPH_DMA2
 236:Drivers/STM32G4xx_HAL_Driver/Inc/stm32g4xx_ll_bus.h ****   *         @arg @ref LL_AHB1_GRP1_PERIPH_DMAMUX1
 237:Drivers/STM32G4xx_HAL_Driver/Inc/stm32g4xx_ll_bus.h ****   *         @arg @ref LL_AHB1_GRP1_PERIPH_CORDIC
 238:Drivers/STM32G4xx_HAL_Driver/Inc/stm32g4xx_ll_bus.h ****   *         @arg @ref LL_AHB1_GRP1_PERIPH_FMAC
 239:Drivers/STM32G4xx_HAL_Driver/Inc/stm32g4xx_ll_bus.h ****   *         @arg @ref LL_AHB1_GRP1_PERIPH_FLASH
 240:Drivers/STM32G4xx_HAL_Driver/Inc/stm32g4xx_ll_bus.h ****   *         @arg @ref LL_AHB1_GRP1_PERIPH_CRC
 241:Drivers/STM32G4xx_HAL_Driver/Inc/stm32g4xx_ll_bus.h ****   * @retval None
 242:Drivers/STM32G4xx_HAL_Driver/Inc/stm32g4xx_ll_bus.h ****   */
 243:Drivers/STM32G4xx_HAL_Driver/Inc/stm32g4xx_ll_bus.h **** __STATIC_INLINE void LL_AHB1_GRP1_EnableClock(uint32_t Periphs)
 244:Drivers/STM32G4xx_HAL_Driver/Inc/stm32g4xx_ll_bus.h **** {
 245:Drivers/STM32G4xx_HAL_Driver/Inc/stm32g4xx_ll_bus.h ****   __IO uint32_t tmpreg;
 246:Drivers/STM32G4xx_HAL_Driver/Inc/stm32g4xx_ll_bus.h ****   SET_BIT(RCC->AHB1ENR, Periphs);
 247:Drivers/STM32G4xx_HAL_Driver/Inc/stm32g4xx_ll_bus.h ****   /* Delay after an RCC peripheral clock enabling */
 248:Drivers/STM32G4xx_HAL_Driver/Inc/stm32g4xx_ll_bus.h ****   tmpreg = READ_BIT(RCC->AHB1ENR, Periphs);
 249:Drivers/STM32G4xx_HAL_Driver/Inc/stm32g4xx_ll_bus.h ****   (void)tmpreg;
 250:Drivers/STM32G4xx_HAL_Driver/Inc/stm32g4xx_ll_bus.h **** }
 251:Drivers/STM32G4xx_HAL_Driver/Inc/stm32g4xx_ll_bus.h **** 
 252:Drivers/STM32G4xx_HAL_Driver/Inc/stm32g4xx_ll_bus.h **** /**
 253:Drivers/STM32G4xx_HAL_Driver/Inc/stm32g4xx_ll_bus.h ****   * @brief  Check if AHB1 peripheral clock is enabled or not
 254:Drivers/STM32G4xx_HAL_Driver/Inc/stm32g4xx_ll_bus.h ****   * @rmtoll AHB1ENR      DMA1EN        LL_AHB1_GRP1_IsEnabledClock\n
 255:Drivers/STM32G4xx_HAL_Driver/Inc/stm32g4xx_ll_bus.h ****   *         AHB1ENR      DMA2EN        LL_AHB1_GRP1_IsEnabledClock\n
 256:Drivers/STM32G4xx_HAL_Driver/Inc/stm32g4xx_ll_bus.h ****   *         AHB1ENR      DMAMUXEN      LL_AHB1_GRP1_IsEnabledClock\n
 257:Drivers/STM32G4xx_HAL_Driver/Inc/stm32g4xx_ll_bus.h ****   *         AHB1ENR      CORDICEN      LL_AHB1_GRP1_IsEnabledClock\n
 258:Drivers/STM32G4xx_HAL_Driver/Inc/stm32g4xx_ll_bus.h ****   *         AHB1ENR      FMACEN        LL_AHB1_GRP1_IsEnabledClock\n
 259:Drivers/STM32G4xx_HAL_Driver/Inc/stm32g4xx_ll_bus.h ****   *         AHB1ENR      FLASHEN       LL_AHB1_GRP1_IsEnabledClock\n
 260:Drivers/STM32G4xx_HAL_Driver/Inc/stm32g4xx_ll_bus.h ****   *         AHB1ENR      CRCEN         LL_AHB1_GRP1_IsEnabledClock
 261:Drivers/STM32G4xx_HAL_Driver/Inc/stm32g4xx_ll_bus.h ****   * @param  Periphs This parameter can be a combination of the following values:
 262:Drivers/STM32G4xx_HAL_Driver/Inc/stm32g4xx_ll_bus.h ****   *         @arg @ref LL_AHB1_GRP1_PERIPH_DMA1
 263:Drivers/STM32G4xx_HAL_Driver/Inc/stm32g4xx_ll_bus.h ****   *         @arg @ref LL_AHB1_GRP1_PERIPH_DMA2
 264:Drivers/STM32G4xx_HAL_Driver/Inc/stm32g4xx_ll_bus.h ****   *         @arg @ref LL_AHB1_GRP1_PERIPH_DMAMUX1
 265:Drivers/STM32G4xx_HAL_Driver/Inc/stm32g4xx_ll_bus.h ****   *         @arg @ref LL_AHB1_GRP1_PERIPH_CORDIC
 266:Drivers/STM32G4xx_HAL_Driver/Inc/stm32g4xx_ll_bus.h ****   *         @arg @ref LL_AHB1_GRP1_PERIPH_FMAC
 267:Drivers/STM32G4xx_HAL_Driver/Inc/stm32g4xx_ll_bus.h ****   *         @arg @ref LL_AHB1_GRP1_PERIPH_FLASH
 268:Drivers/STM32G4xx_HAL_Driver/Inc/stm32g4xx_ll_bus.h ****   *         @arg @ref LL_AHB1_GRP1_PERIPH_CRC
 269:Drivers/STM32G4xx_HAL_Driver/Inc/stm32g4xx_ll_bus.h ****   * @retval State of Periphs (1 or 0).
 270:Drivers/STM32G4xx_HAL_Driver/Inc/stm32g4xx_ll_bus.h ****   */
 271:Drivers/STM32G4xx_HAL_Driver/Inc/stm32g4xx_ll_bus.h **** __STATIC_INLINE uint32_t LL_AHB1_GRP1_IsEnabledClock(uint32_t Periphs)
 272:Drivers/STM32G4xx_HAL_Driver/Inc/stm32g4xx_ll_bus.h **** {
 273:Drivers/STM32G4xx_HAL_Driver/Inc/stm32g4xx_ll_bus.h ****   return ((READ_BIT(RCC->AHB1ENR, Periphs) == Periphs) ? 1UL : 0UL);
ARM GAS  /tmp/ccibP0tT.s 			page 39


 274:Drivers/STM32G4xx_HAL_Driver/Inc/stm32g4xx_ll_bus.h **** }
 275:Drivers/STM32G4xx_HAL_Driver/Inc/stm32g4xx_ll_bus.h **** 
 276:Drivers/STM32G4xx_HAL_Driver/Inc/stm32g4xx_ll_bus.h **** /**
 277:Drivers/STM32G4xx_HAL_Driver/Inc/stm32g4xx_ll_bus.h ****   * @brief  Disable AHB1 peripherals clock.
 278:Drivers/STM32G4xx_HAL_Driver/Inc/stm32g4xx_ll_bus.h ****   * @rmtoll AHB1ENR      DMA1EN        LL_AHB1_GRP1_DisableClock\n
 279:Drivers/STM32G4xx_HAL_Driver/Inc/stm32g4xx_ll_bus.h ****   *         AHB1ENR      DMA2EN        LL_AHB1_GRP1_DisableClock\n
 280:Drivers/STM32G4xx_HAL_Driver/Inc/stm32g4xx_ll_bus.h ****   *         AHB1ENR      DMAMUXEN      LL_AHB1_GRP1_DisableClock\n
 281:Drivers/STM32G4xx_HAL_Driver/Inc/stm32g4xx_ll_bus.h ****   *         AHB1ENR      CORDICEN      LL_AHB1_GRP1_DisableClock\n
 282:Drivers/STM32G4xx_HAL_Driver/Inc/stm32g4xx_ll_bus.h ****   *         AHB1ENR      FMACEN        LL_AHB1_GRP1_DisableClock\n
 283:Drivers/STM32G4xx_HAL_Driver/Inc/stm32g4xx_ll_bus.h ****   *         AHB1ENR      FLASHEN       LL_AHB1_GRP1_DisableClock\n
 284:Drivers/STM32G4xx_HAL_Driver/Inc/stm32g4xx_ll_bus.h ****   *         AHB1ENR      CRCEN         LL_AHB1_GRP1_DisableClock
 285:Drivers/STM32G4xx_HAL_Driver/Inc/stm32g4xx_ll_bus.h ****   * @param  Periphs This parameter can be a combination of the following values:
 286:Drivers/STM32G4xx_HAL_Driver/Inc/stm32g4xx_ll_bus.h ****   *         @arg @ref LL_AHB1_GRP1_PERIPH_DMA1
 287:Drivers/STM32G4xx_HAL_Driver/Inc/stm32g4xx_ll_bus.h ****   *         @arg @ref LL_AHB1_GRP1_PERIPH_DMA2
 288:Drivers/STM32G4xx_HAL_Driver/Inc/stm32g4xx_ll_bus.h ****   *         @arg @ref LL_AHB1_GRP1_PERIPH_DMAMUX1
 289:Drivers/STM32G4xx_HAL_Driver/Inc/stm32g4xx_ll_bus.h ****   *         @arg @ref LL_AHB1_GRP1_PERIPH_CORDIC
 290:Drivers/STM32G4xx_HAL_Driver/Inc/stm32g4xx_ll_bus.h ****   *         @arg @ref LL_AHB1_GRP1_PERIPH_FMAC
 291:Drivers/STM32G4xx_HAL_Driver/Inc/stm32g4xx_ll_bus.h ****   *         @arg @ref LL_AHB1_GRP1_PERIPH_FLASH
 292:Drivers/STM32G4xx_HAL_Driver/Inc/stm32g4xx_ll_bus.h ****   *         @arg @ref LL_AHB1_GRP1_PERIPH_CRC
 293:Drivers/STM32G4xx_HAL_Driver/Inc/stm32g4xx_ll_bus.h ****   * @retval None
 294:Drivers/STM32G4xx_HAL_Driver/Inc/stm32g4xx_ll_bus.h ****   */
 295:Drivers/STM32G4xx_HAL_Driver/Inc/stm32g4xx_ll_bus.h **** __STATIC_INLINE void LL_AHB1_GRP1_DisableClock(uint32_t Periphs)
 296:Drivers/STM32G4xx_HAL_Driver/Inc/stm32g4xx_ll_bus.h **** {
 297:Drivers/STM32G4xx_HAL_Driver/Inc/stm32g4xx_ll_bus.h ****   CLEAR_BIT(RCC->AHB1ENR, Periphs);
 298:Drivers/STM32G4xx_HAL_Driver/Inc/stm32g4xx_ll_bus.h **** }
 299:Drivers/STM32G4xx_HAL_Driver/Inc/stm32g4xx_ll_bus.h **** 
 300:Drivers/STM32G4xx_HAL_Driver/Inc/stm32g4xx_ll_bus.h **** /**
 301:Drivers/STM32G4xx_HAL_Driver/Inc/stm32g4xx_ll_bus.h ****   * @brief  Force AHB1 peripherals reset.
 302:Drivers/STM32G4xx_HAL_Driver/Inc/stm32g4xx_ll_bus.h ****   * @rmtoll AHB1RSTR     DMA1RST       LL_AHB1_GRP1_ForceReset\n
 303:Drivers/STM32G4xx_HAL_Driver/Inc/stm32g4xx_ll_bus.h ****   *         AHB1RSTR     DMA2RST       LL_AHB1_GRP1_ForceReset\n
 304:Drivers/STM32G4xx_HAL_Driver/Inc/stm32g4xx_ll_bus.h ****   *         AHB1RSTR     DMAMUXRST     LL_AHB1_GRP1_ForceReset\n
 305:Drivers/STM32G4xx_HAL_Driver/Inc/stm32g4xx_ll_bus.h ****   *         AHB1RSTR     CORDICRST     LL_AHB1_GRP1_ForceReset\n
 306:Drivers/STM32G4xx_HAL_Driver/Inc/stm32g4xx_ll_bus.h ****   *         AHB1RSTR     FMACRST       LL_AHB1_GRP1_ForceReset\n
 307:Drivers/STM32G4xx_HAL_Driver/Inc/stm32g4xx_ll_bus.h ****   *         AHB1RSTR     FLASHRST      LL_AHB1_GRP1_ForceReset\n
 308:Drivers/STM32G4xx_HAL_Driver/Inc/stm32g4xx_ll_bus.h ****   *         AHB1RSTR     CRCRST        LL_AHB1_GRP1_ForceReset
 309:Drivers/STM32G4xx_HAL_Driver/Inc/stm32g4xx_ll_bus.h ****   * @param  Periphs This parameter can be a combination of the following values:
 310:Drivers/STM32G4xx_HAL_Driver/Inc/stm32g4xx_ll_bus.h ****   *         @arg @ref LL_AHB1_GRP1_PERIPH_ALL
 311:Drivers/STM32G4xx_HAL_Driver/Inc/stm32g4xx_ll_bus.h ****   *         @arg @ref LL_AHB1_GRP1_PERIPH_DMA1
 312:Drivers/STM32G4xx_HAL_Driver/Inc/stm32g4xx_ll_bus.h ****   *         @arg @ref LL_AHB1_GRP1_PERIPH_DMA2
 313:Drivers/STM32G4xx_HAL_Driver/Inc/stm32g4xx_ll_bus.h ****   *         @arg @ref LL_AHB1_GRP1_PERIPH_DMAMUX1
 314:Drivers/STM32G4xx_HAL_Driver/Inc/stm32g4xx_ll_bus.h ****   *         @arg @ref LL_AHB1_GRP1_PERIPH_CORDIC
 315:Drivers/STM32G4xx_HAL_Driver/Inc/stm32g4xx_ll_bus.h ****   *         @arg @ref LL_AHB1_GRP1_PERIPH_FMAC
 316:Drivers/STM32G4xx_HAL_Driver/Inc/stm32g4xx_ll_bus.h ****   *         @arg @ref LL_AHB1_GRP1_PERIPH_FLASH
 317:Drivers/STM32G4xx_HAL_Driver/Inc/stm32g4xx_ll_bus.h ****   *         @arg @ref LL_AHB1_GRP1_PERIPH_CRC
 318:Drivers/STM32G4xx_HAL_Driver/Inc/stm32g4xx_ll_bus.h ****   * @retval None
 319:Drivers/STM32G4xx_HAL_Driver/Inc/stm32g4xx_ll_bus.h ****   */
 320:Drivers/STM32G4xx_HAL_Driver/Inc/stm32g4xx_ll_bus.h **** __STATIC_INLINE void LL_AHB1_GRP1_ForceReset(uint32_t Periphs)
 321:Drivers/STM32G4xx_HAL_Driver/Inc/stm32g4xx_ll_bus.h **** {
 322:Drivers/STM32G4xx_HAL_Driver/Inc/stm32g4xx_ll_bus.h ****   SET_BIT(RCC->AHB1RSTR, Periphs);
 323:Drivers/STM32G4xx_HAL_Driver/Inc/stm32g4xx_ll_bus.h **** }
 324:Drivers/STM32G4xx_HAL_Driver/Inc/stm32g4xx_ll_bus.h **** 
 325:Drivers/STM32G4xx_HAL_Driver/Inc/stm32g4xx_ll_bus.h **** /**
 326:Drivers/STM32G4xx_HAL_Driver/Inc/stm32g4xx_ll_bus.h ****   * @brief  Release AHB1 peripherals reset.
 327:Drivers/STM32G4xx_HAL_Driver/Inc/stm32g4xx_ll_bus.h ****   * @rmtoll AHB1RSTR     DMA1RST       LL_AHB1_GRP1_ReleaseReset\n
 328:Drivers/STM32G4xx_HAL_Driver/Inc/stm32g4xx_ll_bus.h ****   *         AHB1RSTR     DMA2RST       LL_AHB1_GRP1_ReleaseReset\n
 329:Drivers/STM32G4xx_HAL_Driver/Inc/stm32g4xx_ll_bus.h ****   *         AHB1RSTR     DMAMUXRST     LL_AHB1_GRP1_ReleaseReset\n
 330:Drivers/STM32G4xx_HAL_Driver/Inc/stm32g4xx_ll_bus.h ****   *         AHB1RSTR     CORDICRST     LL_AHB1_GRP1_ReleaseReset\n
ARM GAS  /tmp/ccibP0tT.s 			page 40


 331:Drivers/STM32G4xx_HAL_Driver/Inc/stm32g4xx_ll_bus.h ****   *         AHB1RSTR     FMACRST       LL_AHB1_GRP1_ReleaseReset\n
 332:Drivers/STM32G4xx_HAL_Driver/Inc/stm32g4xx_ll_bus.h ****   *         AHB1RSTR     FLASHRST      LL_AHB1_GRP1_ReleaseReset\n
 333:Drivers/STM32G4xx_HAL_Driver/Inc/stm32g4xx_ll_bus.h ****   *         AHB1RSTR     CRCRST        LL_AHB1_GRP1_ReleaseReset
 334:Drivers/STM32G4xx_HAL_Driver/Inc/stm32g4xx_ll_bus.h ****   * @param  Periphs This parameter can be a combination of the following values:
 335:Drivers/STM32G4xx_HAL_Driver/Inc/stm32g4xx_ll_bus.h ****   *         @arg @ref LL_AHB1_GRP1_PERIPH_ALL
 336:Drivers/STM32G4xx_HAL_Driver/Inc/stm32g4xx_ll_bus.h ****   *         @arg @ref LL_AHB1_GRP1_PERIPH_DMA1
 337:Drivers/STM32G4xx_HAL_Driver/Inc/stm32g4xx_ll_bus.h ****   *         @arg @ref LL_AHB1_GRP1_PERIPH_DMA2
 338:Drivers/STM32G4xx_HAL_Driver/Inc/stm32g4xx_ll_bus.h ****   *         @arg @ref LL_AHB1_GRP1_PERIPH_DMAMUX1
 339:Drivers/STM32G4xx_HAL_Driver/Inc/stm32g4xx_ll_bus.h ****   *         @arg @ref LL_AHB1_GRP1_PERIPH_CORDIC
 340:Drivers/STM32G4xx_HAL_Driver/Inc/stm32g4xx_ll_bus.h ****   *         @arg @ref LL_AHB1_GRP1_PERIPH_FMAC
 341:Drivers/STM32G4xx_HAL_Driver/Inc/stm32g4xx_ll_bus.h ****   *         @arg @ref LL_AHB1_GRP1_PERIPH_FLASH
 342:Drivers/STM32G4xx_HAL_Driver/Inc/stm32g4xx_ll_bus.h ****   *         @arg @ref LL_AHB1_GRP1_PERIPH_CRC
 343:Drivers/STM32G4xx_HAL_Driver/Inc/stm32g4xx_ll_bus.h ****   * @retval None
 344:Drivers/STM32G4xx_HAL_Driver/Inc/stm32g4xx_ll_bus.h ****   */
 345:Drivers/STM32G4xx_HAL_Driver/Inc/stm32g4xx_ll_bus.h **** __STATIC_INLINE void LL_AHB1_GRP1_ReleaseReset(uint32_t Periphs)
 346:Drivers/STM32G4xx_HAL_Driver/Inc/stm32g4xx_ll_bus.h **** {
 347:Drivers/STM32G4xx_HAL_Driver/Inc/stm32g4xx_ll_bus.h ****   CLEAR_BIT(RCC->AHB1RSTR, Periphs);
 348:Drivers/STM32G4xx_HAL_Driver/Inc/stm32g4xx_ll_bus.h **** }
 349:Drivers/STM32G4xx_HAL_Driver/Inc/stm32g4xx_ll_bus.h **** 
 350:Drivers/STM32G4xx_HAL_Driver/Inc/stm32g4xx_ll_bus.h **** /**
 351:Drivers/STM32G4xx_HAL_Driver/Inc/stm32g4xx_ll_bus.h ****   * @brief  Enable AHB1 peripheral clocks in Sleep and Stop modes
 352:Drivers/STM32G4xx_HAL_Driver/Inc/stm32g4xx_ll_bus.h ****   * @rmtoll AHB1SMENR    DMA1SMEN      LL_AHB1_GRP1_EnableClockStopSleep\n
 353:Drivers/STM32G4xx_HAL_Driver/Inc/stm32g4xx_ll_bus.h ****   *         AHB1SMENR    DMA2SMEN      LL_AHB1_GRP1_EnableClockStopSleep\n
 354:Drivers/STM32G4xx_HAL_Driver/Inc/stm32g4xx_ll_bus.h ****   *         AHB1SMENR    DMAMUXSMEN    LL_AHB1_GRP1_EnableClockStopSleep\n
 355:Drivers/STM32G4xx_HAL_Driver/Inc/stm32g4xx_ll_bus.h ****   *         AHB1SMENR    CORDICSMEN    LL_AHB1_GRP1_EnableClockStopSleep\n
 356:Drivers/STM32G4xx_HAL_Driver/Inc/stm32g4xx_ll_bus.h ****   *         AHB1SMENR    FMACSMEN      LL_AHB1_GRP1_EnableClockStopSleep\n
 357:Drivers/STM32G4xx_HAL_Driver/Inc/stm32g4xx_ll_bus.h ****   *         AHB1SMENR    FLASHSMEN     LL_AHB1_GRP1_EnableClockStopSleep\n
 358:Drivers/STM32G4xx_HAL_Driver/Inc/stm32g4xx_ll_bus.h ****   *         AHB1SMENR    SRAM1SMEN     LL_AHB1_GRP1_DisableClockStopSleep\n
 359:Drivers/STM32G4xx_HAL_Driver/Inc/stm32g4xx_ll_bus.h ****   *         AHB1SMENR    CRCSMEN       LL_AHB1_GRP1_EnableClockStopSleep
 360:Drivers/STM32G4xx_HAL_Driver/Inc/stm32g4xx_ll_bus.h ****   * @param  Periphs This parameter can be a combination of the following values:
 361:Drivers/STM32G4xx_HAL_Driver/Inc/stm32g4xx_ll_bus.h ****   *         @arg @ref LL_AHB1_GRP1_PERIPH_DMA1
 362:Drivers/STM32G4xx_HAL_Driver/Inc/stm32g4xx_ll_bus.h ****   *         @arg @ref LL_AHB1_GRP1_PERIPH_DMA2
 363:Drivers/STM32G4xx_HAL_Driver/Inc/stm32g4xx_ll_bus.h ****   *         @arg @ref LL_AHB1_GRP1_PERIPH_DMAMUX1
 364:Drivers/STM32G4xx_HAL_Driver/Inc/stm32g4xx_ll_bus.h ****   *         @arg @ref LL_AHB1_GRP1_PERIPH_CORDIC
 365:Drivers/STM32G4xx_HAL_Driver/Inc/stm32g4xx_ll_bus.h ****   *         @arg @ref LL_AHB1_GRP1_PERIPH_FMAC
 366:Drivers/STM32G4xx_HAL_Driver/Inc/stm32g4xx_ll_bus.h ****   *         @arg @ref LL_AHB1_GRP1_PERIPH_FLASH
 367:Drivers/STM32G4xx_HAL_Driver/Inc/stm32g4xx_ll_bus.h ****   *         @arg @ref LL_AHB1_GRP1_PERIPH_SRAM1
 368:Drivers/STM32G4xx_HAL_Driver/Inc/stm32g4xx_ll_bus.h ****   *         @arg @ref LL_AHB1_GRP1_PERIPH_CRC
 369:Drivers/STM32G4xx_HAL_Driver/Inc/stm32g4xx_ll_bus.h ****   * @retval None
 370:Drivers/STM32G4xx_HAL_Driver/Inc/stm32g4xx_ll_bus.h ****   */
 371:Drivers/STM32G4xx_HAL_Driver/Inc/stm32g4xx_ll_bus.h **** __STATIC_INLINE void LL_AHB1_GRP1_EnableClockStopSleep(uint32_t Periphs)
 372:Drivers/STM32G4xx_HAL_Driver/Inc/stm32g4xx_ll_bus.h **** {
 373:Drivers/STM32G4xx_HAL_Driver/Inc/stm32g4xx_ll_bus.h ****   __IO uint32_t tmpreg;
 374:Drivers/STM32G4xx_HAL_Driver/Inc/stm32g4xx_ll_bus.h ****   SET_BIT(RCC->AHB1SMENR, Periphs);
 375:Drivers/STM32G4xx_HAL_Driver/Inc/stm32g4xx_ll_bus.h ****   /* Delay after an RCC peripheral clock enabling */
 376:Drivers/STM32G4xx_HAL_Driver/Inc/stm32g4xx_ll_bus.h ****   tmpreg = READ_BIT(RCC->AHB1SMENR, Periphs);
 377:Drivers/STM32G4xx_HAL_Driver/Inc/stm32g4xx_ll_bus.h ****   (void)tmpreg;
 378:Drivers/STM32G4xx_HAL_Driver/Inc/stm32g4xx_ll_bus.h **** }
 379:Drivers/STM32G4xx_HAL_Driver/Inc/stm32g4xx_ll_bus.h **** 
 380:Drivers/STM32G4xx_HAL_Driver/Inc/stm32g4xx_ll_bus.h **** /**
 381:Drivers/STM32G4xx_HAL_Driver/Inc/stm32g4xx_ll_bus.h ****   * @brief  Disable AHB1 peripheral clocks in Sleep and Stop modes
 382:Drivers/STM32G4xx_HAL_Driver/Inc/stm32g4xx_ll_bus.h ****   * @rmtoll AHB1SMENR    DMA1SMEN      LL_AHB1_GRP1_DisableClockStopSleep\n
 383:Drivers/STM32G4xx_HAL_Driver/Inc/stm32g4xx_ll_bus.h ****   *         AHB1SMENR    DMA2SMEN      LL_AHB1_GRP1_DisableClockStopSleep\n
 384:Drivers/STM32G4xx_HAL_Driver/Inc/stm32g4xx_ll_bus.h ****   *         AHB1SMENR    DMAMUXSMEN    LL_AHB1_GRP1_DisableClockStopSleep\n
 385:Drivers/STM32G4xx_HAL_Driver/Inc/stm32g4xx_ll_bus.h ****   *         AHB1SMENR    CORDICSMEN    LL_AHB1_GRP1_DisableClockStopSleep\n
 386:Drivers/STM32G4xx_HAL_Driver/Inc/stm32g4xx_ll_bus.h ****   *         AHB1SMENR    FMACSMEN      LL_AHB1_GRP1_DisableClockStopSleep\n
 387:Drivers/STM32G4xx_HAL_Driver/Inc/stm32g4xx_ll_bus.h ****   *         AHB1SMENR    FLASHSMEN     LL_AHB1_GRP1_DisableClockStopSleep\n
ARM GAS  /tmp/ccibP0tT.s 			page 41


 388:Drivers/STM32G4xx_HAL_Driver/Inc/stm32g4xx_ll_bus.h ****   *         AHB1SMENR    SRAM1SMEN     LL_AHB1_GRP1_DisableClockStopSleep\n
 389:Drivers/STM32G4xx_HAL_Driver/Inc/stm32g4xx_ll_bus.h ****   *         AHB1SMENR    CRCSMEN       LL_AHB1_GRP1_DisableClockStopSleep
 390:Drivers/STM32G4xx_HAL_Driver/Inc/stm32g4xx_ll_bus.h ****   * @param  Periphs This parameter can be a combination of the following values:
 391:Drivers/STM32G4xx_HAL_Driver/Inc/stm32g4xx_ll_bus.h ****   *         @arg @ref LL_AHB1_GRP1_PERIPH_DMA1
 392:Drivers/STM32G4xx_HAL_Driver/Inc/stm32g4xx_ll_bus.h ****   *         @arg @ref LL_AHB1_GRP1_PERIPH_DMA2
 393:Drivers/STM32G4xx_HAL_Driver/Inc/stm32g4xx_ll_bus.h ****   *         @arg @ref LL_AHB1_GRP1_PERIPH_DMAMUX1
 394:Drivers/STM32G4xx_HAL_Driver/Inc/stm32g4xx_ll_bus.h ****   *         @arg @ref LL_AHB1_GRP1_PERIPH_CORDIC
 395:Drivers/STM32G4xx_HAL_Driver/Inc/stm32g4xx_ll_bus.h ****   *         @arg @ref LL_AHB1_GRP1_PERIPH_FMAC
 396:Drivers/STM32G4xx_HAL_Driver/Inc/stm32g4xx_ll_bus.h ****   *         @arg @ref LL_AHB1_GRP1_PERIPH_FLASH
 397:Drivers/STM32G4xx_HAL_Driver/Inc/stm32g4xx_ll_bus.h ****   *         @arg @ref LL_AHB1_GRP1_PERIPH_SRAM1
 398:Drivers/STM32G4xx_HAL_Driver/Inc/stm32g4xx_ll_bus.h ****   *         @arg @ref LL_AHB1_GRP1_PERIPH_CRC
 399:Drivers/STM32G4xx_HAL_Driver/Inc/stm32g4xx_ll_bus.h ****   * @retval None
 400:Drivers/STM32G4xx_HAL_Driver/Inc/stm32g4xx_ll_bus.h ****   */
 401:Drivers/STM32G4xx_HAL_Driver/Inc/stm32g4xx_ll_bus.h **** __STATIC_INLINE void LL_AHB1_GRP1_DisableClockStopSleep(uint32_t Periphs)
 402:Drivers/STM32G4xx_HAL_Driver/Inc/stm32g4xx_ll_bus.h **** {
 403:Drivers/STM32G4xx_HAL_Driver/Inc/stm32g4xx_ll_bus.h ****   CLEAR_BIT(RCC->AHB1SMENR, Periphs);
 404:Drivers/STM32G4xx_HAL_Driver/Inc/stm32g4xx_ll_bus.h **** }
 405:Drivers/STM32G4xx_HAL_Driver/Inc/stm32g4xx_ll_bus.h **** 
 406:Drivers/STM32G4xx_HAL_Driver/Inc/stm32g4xx_ll_bus.h **** /**
 407:Drivers/STM32G4xx_HAL_Driver/Inc/stm32g4xx_ll_bus.h ****   * @}
 408:Drivers/STM32G4xx_HAL_Driver/Inc/stm32g4xx_ll_bus.h ****   */
 409:Drivers/STM32G4xx_HAL_Driver/Inc/stm32g4xx_ll_bus.h **** 
 410:Drivers/STM32G4xx_HAL_Driver/Inc/stm32g4xx_ll_bus.h **** /** @defgroup BUS_LL_EF_AHB2 AHB2
 411:Drivers/STM32G4xx_HAL_Driver/Inc/stm32g4xx_ll_bus.h ****   * @{
 412:Drivers/STM32G4xx_HAL_Driver/Inc/stm32g4xx_ll_bus.h ****   */
 413:Drivers/STM32G4xx_HAL_Driver/Inc/stm32g4xx_ll_bus.h **** 
 414:Drivers/STM32G4xx_HAL_Driver/Inc/stm32g4xx_ll_bus.h **** /**
 415:Drivers/STM32G4xx_HAL_Driver/Inc/stm32g4xx_ll_bus.h ****   * @brief  Enable AHB2 peripherals clock.
 416:Drivers/STM32G4xx_HAL_Driver/Inc/stm32g4xx_ll_bus.h ****   * @rmtoll AHB2ENR      GPIOAEN       LL_AHB2_GRP1_EnableClock\n
 417:Drivers/STM32G4xx_HAL_Driver/Inc/stm32g4xx_ll_bus.h ****   *         AHB2ENR      GPIOBEN       LL_AHB2_GRP1_EnableClock\n
 418:Drivers/STM32G4xx_HAL_Driver/Inc/stm32g4xx_ll_bus.h ****   *         AHB2ENR      GPIOCEN       LL_AHB2_GRP1_EnableClock\n
 419:Drivers/STM32G4xx_HAL_Driver/Inc/stm32g4xx_ll_bus.h ****   *         AHB2ENR      GPIODEN       LL_AHB2_GRP1_EnableClock\n
 420:Drivers/STM32G4xx_HAL_Driver/Inc/stm32g4xx_ll_bus.h ****   *         AHB2ENR      GPIOEEN       LL_AHB2_GRP1_EnableClock\n
 421:Drivers/STM32G4xx_HAL_Driver/Inc/stm32g4xx_ll_bus.h ****   *         AHB2ENR      GPIOFEN       LL_AHB2_GRP1_EnableClock\n
 422:Drivers/STM32G4xx_HAL_Driver/Inc/stm32g4xx_ll_bus.h ****   *         AHB2ENR      GPIOGEN       LL_AHB2_GRP1_EnableClock\n
 423:Drivers/STM32G4xx_HAL_Driver/Inc/stm32g4xx_ll_bus.h ****   *         AHB2ENR      ADC12EN       LL_AHB2_GRP1_EnableClock\n
 424:Drivers/STM32G4xx_HAL_Driver/Inc/stm32g4xx_ll_bus.h ****   *         AHB2ENR      ADC345EN      LL_AHB2_GRP1_EnableClock\n
 425:Drivers/STM32G4xx_HAL_Driver/Inc/stm32g4xx_ll_bus.h ****   *         AHB2ENR      DAC1EN        LL_AHB2_GRP1_EnableClock\n
 426:Drivers/STM32G4xx_HAL_Driver/Inc/stm32g4xx_ll_bus.h ****   *         AHB2ENR      DAC2EN        LL_AHB2_GRP1_EnableClock\n
 427:Drivers/STM32G4xx_HAL_Driver/Inc/stm32g4xx_ll_bus.h ****   *         AHB2ENR      DAC3EN        LL_AHB2_GRP1_EnableClock\n
 428:Drivers/STM32G4xx_HAL_Driver/Inc/stm32g4xx_ll_bus.h ****   *         AHB2ENR      DAC4EN        LL_AHB2_GRP1_EnableClock\n
 429:Drivers/STM32G4xx_HAL_Driver/Inc/stm32g4xx_ll_bus.h ****   *         AHB2ENR      AESEN         LL_AHB2_GRP1_EnableClock\n
 430:Drivers/STM32G4xx_HAL_Driver/Inc/stm32g4xx_ll_bus.h ****   *         AHB2ENR      RNGEN         LL_AHB2_GRP1_EnableClock
 431:Drivers/STM32G4xx_HAL_Driver/Inc/stm32g4xx_ll_bus.h ****   * @param  Periphs This parameter can be a combination of the following values:
 432:Drivers/STM32G4xx_HAL_Driver/Inc/stm32g4xx_ll_bus.h ****   *         @arg @ref LL_AHB2_GRP1_PERIPH_GPIOA
 433:Drivers/STM32G4xx_HAL_Driver/Inc/stm32g4xx_ll_bus.h ****   *         @arg @ref LL_AHB2_GRP1_PERIPH_GPIOB
 434:Drivers/STM32G4xx_HAL_Driver/Inc/stm32g4xx_ll_bus.h ****   *         @arg @ref LL_AHB2_GRP1_PERIPH_GPIOC
 435:Drivers/STM32G4xx_HAL_Driver/Inc/stm32g4xx_ll_bus.h ****   *         @arg @ref LL_AHB2_GRP1_PERIPH_GPIOD
 436:Drivers/STM32G4xx_HAL_Driver/Inc/stm32g4xx_ll_bus.h ****   *         @arg @ref LL_AHB2_GRP1_PERIPH_GPIOE
 437:Drivers/STM32G4xx_HAL_Driver/Inc/stm32g4xx_ll_bus.h ****   *         @arg @ref LL_AHB2_GRP1_PERIPH_GPIOF
 438:Drivers/STM32G4xx_HAL_Driver/Inc/stm32g4xx_ll_bus.h ****   *         @arg @ref LL_AHB2_GRP1_PERIPH_GPIOG
 439:Drivers/STM32G4xx_HAL_Driver/Inc/stm32g4xx_ll_bus.h ****   *         @arg @ref LL_AHB2_GRP1_PERIPH_ADC12
 440:Drivers/STM32G4xx_HAL_Driver/Inc/stm32g4xx_ll_bus.h ****   *         @arg @ref LL_AHB2_GRP1_PERIPH_ADC345 (*)
 441:Drivers/STM32G4xx_HAL_Driver/Inc/stm32g4xx_ll_bus.h ****   *         @arg @ref LL_AHB2_GRP1_PERIPH_DAC1
 442:Drivers/STM32G4xx_HAL_Driver/Inc/stm32g4xx_ll_bus.h ****   *         @arg @ref LL_AHB2_GRP1_PERIPH_DAC2 (*)
 443:Drivers/STM32G4xx_HAL_Driver/Inc/stm32g4xx_ll_bus.h ****   *         @arg @ref LL_AHB2_GRP1_PERIPH_DAC3
 444:Drivers/STM32G4xx_HAL_Driver/Inc/stm32g4xx_ll_bus.h ****   *         @arg @ref LL_AHB2_GRP1_PERIPH_DAC4 (*)
ARM GAS  /tmp/ccibP0tT.s 			page 42


 445:Drivers/STM32G4xx_HAL_Driver/Inc/stm32g4xx_ll_bus.h ****   *         @arg @ref LL_AHB2_GRP1_PERIPH_AES (*)
 446:Drivers/STM32G4xx_HAL_Driver/Inc/stm32g4xx_ll_bus.h ****   *         @arg @ref LL_AHB2_GRP1_PERIPH_RNG
 447:Drivers/STM32G4xx_HAL_Driver/Inc/stm32g4xx_ll_bus.h ****   *
 448:Drivers/STM32G4xx_HAL_Driver/Inc/stm32g4xx_ll_bus.h ****   *         (*) value not defined in all devices.
 449:Drivers/STM32G4xx_HAL_Driver/Inc/stm32g4xx_ll_bus.h ****   * @retval None
 450:Drivers/STM32G4xx_HAL_Driver/Inc/stm32g4xx_ll_bus.h ****   */
 451:Drivers/STM32G4xx_HAL_Driver/Inc/stm32g4xx_ll_bus.h **** __STATIC_INLINE void LL_AHB2_GRP1_EnableClock(uint32_t Periphs)
 452:Drivers/STM32G4xx_HAL_Driver/Inc/stm32g4xx_ll_bus.h **** {
 453:Drivers/STM32G4xx_HAL_Driver/Inc/stm32g4xx_ll_bus.h ****   __IO uint32_t tmpreg;
 454:Drivers/STM32G4xx_HAL_Driver/Inc/stm32g4xx_ll_bus.h ****   SET_BIT(RCC->AHB2ENR, Periphs);
 455:Drivers/STM32G4xx_HAL_Driver/Inc/stm32g4xx_ll_bus.h ****   /* Delay after an RCC peripheral clock enabling */
 456:Drivers/STM32G4xx_HAL_Driver/Inc/stm32g4xx_ll_bus.h ****   tmpreg = READ_BIT(RCC->AHB2ENR, Periphs);
 457:Drivers/STM32G4xx_HAL_Driver/Inc/stm32g4xx_ll_bus.h ****   (void)tmpreg;
 458:Drivers/STM32G4xx_HAL_Driver/Inc/stm32g4xx_ll_bus.h **** }
 459:Drivers/STM32G4xx_HAL_Driver/Inc/stm32g4xx_ll_bus.h **** 
 460:Drivers/STM32G4xx_HAL_Driver/Inc/stm32g4xx_ll_bus.h **** /**
 461:Drivers/STM32G4xx_HAL_Driver/Inc/stm32g4xx_ll_bus.h ****   * @brief  Check if AHB2 peripheral clock is enabled or not
 462:Drivers/STM32G4xx_HAL_Driver/Inc/stm32g4xx_ll_bus.h ****   * @rmtoll AHB2ENR      GPIOAEN       LL_AHB2_GRP1_IsEnabledClock\n
 463:Drivers/STM32G4xx_HAL_Driver/Inc/stm32g4xx_ll_bus.h ****   *         AHB2ENR      GPIOBEN       LL_AHB2_GRP1_IsEnabledClock\n
 464:Drivers/STM32G4xx_HAL_Driver/Inc/stm32g4xx_ll_bus.h ****   *         AHB2ENR      GPIOCEN       LL_AHB2_GRP1_IsEnabledClock\n
 465:Drivers/STM32G4xx_HAL_Driver/Inc/stm32g4xx_ll_bus.h ****   *         AHB2ENR      GPIODEN       LL_AHB2_GRP1_IsEnabledClock\n
 466:Drivers/STM32G4xx_HAL_Driver/Inc/stm32g4xx_ll_bus.h ****   *         AHB2ENR      GPIOEEN       LL_AHB2_GRP1_IsEnabledClock\n
 467:Drivers/STM32G4xx_HAL_Driver/Inc/stm32g4xx_ll_bus.h ****   *         AHB2ENR      GPIOFEN       LL_AHB2_GRP1_IsEnabledClock\n
 468:Drivers/STM32G4xx_HAL_Driver/Inc/stm32g4xx_ll_bus.h ****   *         AHB2ENR      GPIOGEN       LL_AHB2_GRP1_IsEnabledClock\n
 469:Drivers/STM32G4xx_HAL_Driver/Inc/stm32g4xx_ll_bus.h ****   *         AHB2ENR      ADC12EN       LL_AHB2_GRP1_IsEnabledClock\n
 470:Drivers/STM32G4xx_HAL_Driver/Inc/stm32g4xx_ll_bus.h ****   *         AHB2ENR      ADC345EN      LL_AHB2_GRP1_IsEnabledClock\n
 471:Drivers/STM32G4xx_HAL_Driver/Inc/stm32g4xx_ll_bus.h ****   *         AHB2ENR      DAC1EN        LL_AHB2_GRP1_IsEnabledClock\n
 472:Drivers/STM32G4xx_HAL_Driver/Inc/stm32g4xx_ll_bus.h ****   *         AHB2ENR      DAC2EN        LL_AHB2_GRP1_IsEnabledClock\n
 473:Drivers/STM32G4xx_HAL_Driver/Inc/stm32g4xx_ll_bus.h ****   *         AHB2ENR      DAC3EN        LL_AHB2_GRP1_IsEnabledClock\n
 474:Drivers/STM32G4xx_HAL_Driver/Inc/stm32g4xx_ll_bus.h ****   *         AHB2ENR      DAC4EN        LL_AHB2_GRP1_IsEnabledClock\n
 475:Drivers/STM32G4xx_HAL_Driver/Inc/stm32g4xx_ll_bus.h ****   *         AHB2ENR      AESEN         LL_AHB2_GRP1_IsEnabledClock\n
 476:Drivers/STM32G4xx_HAL_Driver/Inc/stm32g4xx_ll_bus.h ****   *         AHB2ENR      RNGEN         LL_AHB2_GRP1_IsEnabledClock
 477:Drivers/STM32G4xx_HAL_Driver/Inc/stm32g4xx_ll_bus.h ****   * @param  Periphs This parameter can be a combination of the following values:
 478:Drivers/STM32G4xx_HAL_Driver/Inc/stm32g4xx_ll_bus.h ****   *         @arg @ref LL_AHB2_GRP1_PERIPH_GPIOA
 479:Drivers/STM32G4xx_HAL_Driver/Inc/stm32g4xx_ll_bus.h ****   *         @arg @ref LL_AHB2_GRP1_PERIPH_GPIOB
 480:Drivers/STM32G4xx_HAL_Driver/Inc/stm32g4xx_ll_bus.h ****   *         @arg @ref LL_AHB2_GRP1_PERIPH_GPIOC
 481:Drivers/STM32G4xx_HAL_Driver/Inc/stm32g4xx_ll_bus.h ****   *         @arg @ref LL_AHB2_GRP1_PERIPH_GPIOD
 482:Drivers/STM32G4xx_HAL_Driver/Inc/stm32g4xx_ll_bus.h ****   *         @arg @ref LL_AHB2_GRP1_PERIPH_GPIOE
 483:Drivers/STM32G4xx_HAL_Driver/Inc/stm32g4xx_ll_bus.h ****   *         @arg @ref LL_AHB2_GRP1_PERIPH_GPIOF
 484:Drivers/STM32G4xx_HAL_Driver/Inc/stm32g4xx_ll_bus.h ****   *         @arg @ref LL_AHB2_GRP1_PERIPH_GPIOG
 485:Drivers/STM32G4xx_HAL_Driver/Inc/stm32g4xx_ll_bus.h ****   *         @arg @ref LL_AHB2_GRP1_PERIPH_ADC12
 486:Drivers/STM32G4xx_HAL_Driver/Inc/stm32g4xx_ll_bus.h ****   *         @arg @ref LL_AHB2_GRP1_PERIPH_ADC345 (*)
 487:Drivers/STM32G4xx_HAL_Driver/Inc/stm32g4xx_ll_bus.h ****   *         @arg @ref LL_AHB2_GRP1_PERIPH_DAC1
 488:Drivers/STM32G4xx_HAL_Driver/Inc/stm32g4xx_ll_bus.h ****   *         @arg @ref LL_AHB2_GRP1_PERIPH_DAC2 (*)
 489:Drivers/STM32G4xx_HAL_Driver/Inc/stm32g4xx_ll_bus.h ****   *         @arg @ref LL_AHB2_GRP1_PERIPH_DAC3
 490:Drivers/STM32G4xx_HAL_Driver/Inc/stm32g4xx_ll_bus.h ****   *         @arg @ref LL_AHB2_GRP1_PERIPH_DAC4 (*)
 491:Drivers/STM32G4xx_HAL_Driver/Inc/stm32g4xx_ll_bus.h ****   *         @arg @ref LL_AHB2_GRP1_PERIPH_AES (*)
 492:Drivers/STM32G4xx_HAL_Driver/Inc/stm32g4xx_ll_bus.h ****   *         @arg @ref LL_AHB2_GRP1_PERIPH_RNG
 493:Drivers/STM32G4xx_HAL_Driver/Inc/stm32g4xx_ll_bus.h ****   *
 494:Drivers/STM32G4xx_HAL_Driver/Inc/stm32g4xx_ll_bus.h ****   *         (*) value not defined in all devices.
 495:Drivers/STM32G4xx_HAL_Driver/Inc/stm32g4xx_ll_bus.h ****   * @retval State of Periphs (1 or 0).
 496:Drivers/STM32G4xx_HAL_Driver/Inc/stm32g4xx_ll_bus.h ****   */
 497:Drivers/STM32G4xx_HAL_Driver/Inc/stm32g4xx_ll_bus.h **** __STATIC_INLINE uint32_t LL_AHB2_GRP1_IsEnabledClock(uint32_t Periphs)
 498:Drivers/STM32G4xx_HAL_Driver/Inc/stm32g4xx_ll_bus.h **** {
 499:Drivers/STM32G4xx_HAL_Driver/Inc/stm32g4xx_ll_bus.h ****   return ((READ_BIT(RCC->AHB2ENR, Periphs) == Periphs) ? 1UL : 0UL);
 500:Drivers/STM32G4xx_HAL_Driver/Inc/stm32g4xx_ll_bus.h **** }
 501:Drivers/STM32G4xx_HAL_Driver/Inc/stm32g4xx_ll_bus.h **** 
ARM GAS  /tmp/ccibP0tT.s 			page 43


 502:Drivers/STM32G4xx_HAL_Driver/Inc/stm32g4xx_ll_bus.h **** /**
 503:Drivers/STM32G4xx_HAL_Driver/Inc/stm32g4xx_ll_bus.h ****   * @brief  Disable AHB2 peripherals clock.
 504:Drivers/STM32G4xx_HAL_Driver/Inc/stm32g4xx_ll_bus.h ****   * @rmtoll AHB2ENR      GPIOAEN       LL_AHB2_GRP1_DisableClock\n
 505:Drivers/STM32G4xx_HAL_Driver/Inc/stm32g4xx_ll_bus.h ****   *         AHB2ENR      GPIOBEN       LL_AHB2_GRP1_DisableClock\n
 506:Drivers/STM32G4xx_HAL_Driver/Inc/stm32g4xx_ll_bus.h ****   *         AHB2ENR      GPIOCEN       LL_AHB2_GRP1_DisableClock\n
 507:Drivers/STM32G4xx_HAL_Driver/Inc/stm32g4xx_ll_bus.h ****   *         AHB2ENR      GPIODEN       LL_AHB2_GRP1_DisableClock\n
 508:Drivers/STM32G4xx_HAL_Driver/Inc/stm32g4xx_ll_bus.h ****   *         AHB2ENR      GPIOEEN       LL_AHB2_GRP1_DisableClock\n
 509:Drivers/STM32G4xx_HAL_Driver/Inc/stm32g4xx_ll_bus.h ****   *         AHB2ENR      GPIOFEN       LL_AHB2_GRP1_DisableClock\n
 510:Drivers/STM32G4xx_HAL_Driver/Inc/stm32g4xx_ll_bus.h ****   *         AHB2ENR      GPIOGEN       LL_AHB2_GRP1_DisableClock\n
 511:Drivers/STM32G4xx_HAL_Driver/Inc/stm32g4xx_ll_bus.h ****   *         AHB2ENR      ADC12EN       LL_AHB2_GRP1_DisableClock\n
 512:Drivers/STM32G4xx_HAL_Driver/Inc/stm32g4xx_ll_bus.h ****   *         AHB2ENR      ADC345EN      LL_AHB2_GRP1_DisableClock\n
 513:Drivers/STM32G4xx_HAL_Driver/Inc/stm32g4xx_ll_bus.h ****   *         AHB2ENR      DAC1EN        LL_AHB2_GRP1_DisableClock\n
 514:Drivers/STM32G4xx_HAL_Driver/Inc/stm32g4xx_ll_bus.h ****   *         AHB2ENR      DAC2EN        LL_AHB2_GRP1_DisableClock\n
 515:Drivers/STM32G4xx_HAL_Driver/Inc/stm32g4xx_ll_bus.h ****   *         AHB2ENR      DAC3EN        LL_AHB2_GRP1_DisableClock\n
 516:Drivers/STM32G4xx_HAL_Driver/Inc/stm32g4xx_ll_bus.h ****   *         AHB2ENR      DAC4EN        LL_AHB2_GRP1_DisableClock\n
 517:Drivers/STM32G4xx_HAL_Driver/Inc/stm32g4xx_ll_bus.h ****   *         AHB2ENR      AESEN         LL_AHB2_GRP1_DisableClock\n
 518:Drivers/STM32G4xx_HAL_Driver/Inc/stm32g4xx_ll_bus.h ****   *         AHB2ENR      RNGEN         LL_AHB2_GRP1_DisableClock
 519:Drivers/STM32G4xx_HAL_Driver/Inc/stm32g4xx_ll_bus.h ****   * @param  Periphs This parameter can be a combination of the following values:
 520:Drivers/STM32G4xx_HAL_Driver/Inc/stm32g4xx_ll_bus.h ****   *         @arg @ref LL_AHB2_GRP1_PERIPH_GPIOA
 521:Drivers/STM32G4xx_HAL_Driver/Inc/stm32g4xx_ll_bus.h ****   *         @arg @ref LL_AHB2_GRP1_PERIPH_GPIOB
 522:Drivers/STM32G4xx_HAL_Driver/Inc/stm32g4xx_ll_bus.h ****   *         @arg @ref LL_AHB2_GRP1_PERIPH_GPIOC
 523:Drivers/STM32G4xx_HAL_Driver/Inc/stm32g4xx_ll_bus.h ****   *         @arg @ref LL_AHB2_GRP1_PERIPH_GPIOD
 524:Drivers/STM32G4xx_HAL_Driver/Inc/stm32g4xx_ll_bus.h ****   *         @arg @ref LL_AHB2_GRP1_PERIPH_GPIOE
 525:Drivers/STM32G4xx_HAL_Driver/Inc/stm32g4xx_ll_bus.h ****   *         @arg @ref LL_AHB2_GRP1_PERIPH_GPIOF
 526:Drivers/STM32G4xx_HAL_Driver/Inc/stm32g4xx_ll_bus.h ****   *         @arg @ref LL_AHB2_GRP1_PERIPH_GPIOG
 527:Drivers/STM32G4xx_HAL_Driver/Inc/stm32g4xx_ll_bus.h ****   *         @arg @ref LL_AHB2_GRP1_PERIPH_ADC12
 528:Drivers/STM32G4xx_HAL_Driver/Inc/stm32g4xx_ll_bus.h ****   *         @arg @ref LL_AHB2_GRP1_PERIPH_ADC345 (*)
 529:Drivers/STM32G4xx_HAL_Driver/Inc/stm32g4xx_ll_bus.h ****   *         @arg @ref LL_AHB2_GRP1_PERIPH_DAC1
 530:Drivers/STM32G4xx_HAL_Driver/Inc/stm32g4xx_ll_bus.h ****   *         @arg @ref LL_AHB2_GRP1_PERIPH_DAC2 (*)
 531:Drivers/STM32G4xx_HAL_Driver/Inc/stm32g4xx_ll_bus.h ****   *         @arg @ref LL_AHB2_GRP1_PERIPH_DAC3
 532:Drivers/STM32G4xx_HAL_Driver/Inc/stm32g4xx_ll_bus.h ****   *         @arg @ref LL_AHB2_GRP1_PERIPH_DAC4 (*)
 533:Drivers/STM32G4xx_HAL_Driver/Inc/stm32g4xx_ll_bus.h ****   *         @arg @ref LL_AHB2_GRP1_PERIPH_AES (*)
 534:Drivers/STM32G4xx_HAL_Driver/Inc/stm32g4xx_ll_bus.h ****   *         @arg @ref LL_AHB2_GRP1_PERIPH_RNG
 535:Drivers/STM32G4xx_HAL_Driver/Inc/stm32g4xx_ll_bus.h ****   *
 536:Drivers/STM32G4xx_HAL_Driver/Inc/stm32g4xx_ll_bus.h ****   *         (*) value not defined in all devices.
 537:Drivers/STM32G4xx_HAL_Driver/Inc/stm32g4xx_ll_bus.h ****   * @retval None
 538:Drivers/STM32G4xx_HAL_Driver/Inc/stm32g4xx_ll_bus.h ****   */
 539:Drivers/STM32G4xx_HAL_Driver/Inc/stm32g4xx_ll_bus.h **** __STATIC_INLINE void LL_AHB2_GRP1_DisableClock(uint32_t Periphs)
 540:Drivers/STM32G4xx_HAL_Driver/Inc/stm32g4xx_ll_bus.h **** {
 541:Drivers/STM32G4xx_HAL_Driver/Inc/stm32g4xx_ll_bus.h ****   CLEAR_BIT(RCC->AHB2ENR, Periphs);
 542:Drivers/STM32G4xx_HAL_Driver/Inc/stm32g4xx_ll_bus.h **** }
 543:Drivers/STM32G4xx_HAL_Driver/Inc/stm32g4xx_ll_bus.h **** 
 544:Drivers/STM32G4xx_HAL_Driver/Inc/stm32g4xx_ll_bus.h **** /**
 545:Drivers/STM32G4xx_HAL_Driver/Inc/stm32g4xx_ll_bus.h ****   * @brief  Force AHB2 peripherals reset.
 546:Drivers/STM32G4xx_HAL_Driver/Inc/stm32g4xx_ll_bus.h ****   * @rmtoll AHB2RSTR      GPIOARST       LL_AHB2_GRP1_ForceReset\n
 547:Drivers/STM32G4xx_HAL_Driver/Inc/stm32g4xx_ll_bus.h ****   *         AHB2RSTR      GPIOBRST       LL_AHB2_GRP1_ForceReset\n
 548:Drivers/STM32G4xx_HAL_Driver/Inc/stm32g4xx_ll_bus.h ****   *         AHB2RSTR      GPIOCRST       LL_AHB2_GRP1_ForceReset\n
 549:Drivers/STM32G4xx_HAL_Driver/Inc/stm32g4xx_ll_bus.h ****   *         AHB2RSTR      GPIODRST       LL_AHB2_GRP1_ForceReset\n
 550:Drivers/STM32G4xx_HAL_Driver/Inc/stm32g4xx_ll_bus.h ****   *         AHB2RSTR      GPIOERST       LL_AHB2_GRP1_ForceReset\n
 551:Drivers/STM32G4xx_HAL_Driver/Inc/stm32g4xx_ll_bus.h ****   *         AHB2RSTR      GPIOFRST       LL_AHB2_GRP1_ForceReset\n
 552:Drivers/STM32G4xx_HAL_Driver/Inc/stm32g4xx_ll_bus.h ****   *         AHB2RSTR      GPIOGRST       LL_AHB2_GRP1_ForceReset\n
 553:Drivers/STM32G4xx_HAL_Driver/Inc/stm32g4xx_ll_bus.h ****   *         AHB2RSTR      ADC12RST       LL_AHB2_GRP1_ForceReset\n
 554:Drivers/STM32G4xx_HAL_Driver/Inc/stm32g4xx_ll_bus.h ****   *         AHB2RSTR      ADC345RST      LL_AHB2_GRP1_ForceReset\n
 555:Drivers/STM32G4xx_HAL_Driver/Inc/stm32g4xx_ll_bus.h ****   *         AHB2RSTR      DAC1RST        LL_AHB2_GRP1_ForceReset\n
 556:Drivers/STM32G4xx_HAL_Driver/Inc/stm32g4xx_ll_bus.h ****   *         AHB2RSTR      DAC2RST        LL_AHB2_GRP1_ForceReset\n
 557:Drivers/STM32G4xx_HAL_Driver/Inc/stm32g4xx_ll_bus.h ****   *         AHB2RSTR      DAC3RST        LL_AHB2_GRP1_ForceReset\n
 558:Drivers/STM32G4xx_HAL_Driver/Inc/stm32g4xx_ll_bus.h ****   *         AHB2RSTR      DAC4RST        LL_AHB2_GRP1_ForceReset\n
ARM GAS  /tmp/ccibP0tT.s 			page 44


 559:Drivers/STM32G4xx_HAL_Driver/Inc/stm32g4xx_ll_bus.h ****   *         AHB2RSTR      AESRST         LL_AHB2_GRP1_ForceReset\n
 560:Drivers/STM32G4xx_HAL_Driver/Inc/stm32g4xx_ll_bus.h ****   *         AHB2RSTR      RNGRST         LL_AHB2_GRP1_ForceReset
 561:Drivers/STM32G4xx_HAL_Driver/Inc/stm32g4xx_ll_bus.h ****   * @param  Periphs This parameter can be a combination of the following values:
 562:Drivers/STM32G4xx_HAL_Driver/Inc/stm32g4xx_ll_bus.h ****   *         @arg @ref LL_AHB2_GRP1_PERIPH_GPIOA
 563:Drivers/STM32G4xx_HAL_Driver/Inc/stm32g4xx_ll_bus.h ****   *         @arg @ref LL_AHB2_GRP1_PERIPH_GPIOB
 564:Drivers/STM32G4xx_HAL_Driver/Inc/stm32g4xx_ll_bus.h ****   *         @arg @ref LL_AHB2_GRP1_PERIPH_GPIOC
 565:Drivers/STM32G4xx_HAL_Driver/Inc/stm32g4xx_ll_bus.h ****   *         @arg @ref LL_AHB2_GRP1_PERIPH_GPIOD
 566:Drivers/STM32G4xx_HAL_Driver/Inc/stm32g4xx_ll_bus.h ****   *         @arg @ref LL_AHB2_GRP1_PERIPH_GPIOE
 567:Drivers/STM32G4xx_HAL_Driver/Inc/stm32g4xx_ll_bus.h ****   *         @arg @ref LL_AHB2_GRP1_PERIPH_GPIOF
 568:Drivers/STM32G4xx_HAL_Driver/Inc/stm32g4xx_ll_bus.h ****   *         @arg @ref LL_AHB2_GRP1_PERIPH_GPIOG
 569:Drivers/STM32G4xx_HAL_Driver/Inc/stm32g4xx_ll_bus.h ****   *         @arg @ref LL_AHB2_GRP1_PERIPH_ADC12
 570:Drivers/STM32G4xx_HAL_Driver/Inc/stm32g4xx_ll_bus.h ****   *         @arg @ref LL_AHB2_GRP1_PERIPH_ADC345 (*)
 571:Drivers/STM32G4xx_HAL_Driver/Inc/stm32g4xx_ll_bus.h ****   *         @arg @ref LL_AHB2_GRP1_PERIPH_DAC1
 572:Drivers/STM32G4xx_HAL_Driver/Inc/stm32g4xx_ll_bus.h ****   *         @arg @ref LL_AHB2_GRP1_PERIPH_DAC2 (*)
 573:Drivers/STM32G4xx_HAL_Driver/Inc/stm32g4xx_ll_bus.h ****   *         @arg @ref LL_AHB2_GRP1_PERIPH_DAC3
 574:Drivers/STM32G4xx_HAL_Driver/Inc/stm32g4xx_ll_bus.h ****   *         @arg @ref LL_AHB2_GRP1_PERIPH_DAC4 (*)
 575:Drivers/STM32G4xx_HAL_Driver/Inc/stm32g4xx_ll_bus.h ****   *         @arg @ref LL_AHB2_GRP1_PERIPH_AES (*)
 576:Drivers/STM32G4xx_HAL_Driver/Inc/stm32g4xx_ll_bus.h ****   *         @arg @ref LL_AHB2_GRP1_PERIPH_RNG
 577:Drivers/STM32G4xx_HAL_Driver/Inc/stm32g4xx_ll_bus.h ****   *
 578:Drivers/STM32G4xx_HAL_Driver/Inc/stm32g4xx_ll_bus.h ****   *         (*) value not defined in all devices.
 579:Drivers/STM32G4xx_HAL_Driver/Inc/stm32g4xx_ll_bus.h ****   * @retval None
 580:Drivers/STM32G4xx_HAL_Driver/Inc/stm32g4xx_ll_bus.h ****   */
 581:Drivers/STM32G4xx_HAL_Driver/Inc/stm32g4xx_ll_bus.h **** __STATIC_INLINE void LL_AHB2_GRP1_ForceReset(uint32_t Periphs)
 582:Drivers/STM32G4xx_HAL_Driver/Inc/stm32g4xx_ll_bus.h **** {
 583:Drivers/STM32G4xx_HAL_Driver/Inc/stm32g4xx_ll_bus.h ****   SET_BIT(RCC->AHB2RSTR, Periphs);
 584:Drivers/STM32G4xx_HAL_Driver/Inc/stm32g4xx_ll_bus.h **** }
 585:Drivers/STM32G4xx_HAL_Driver/Inc/stm32g4xx_ll_bus.h **** 
 586:Drivers/STM32G4xx_HAL_Driver/Inc/stm32g4xx_ll_bus.h **** /**
 587:Drivers/STM32G4xx_HAL_Driver/Inc/stm32g4xx_ll_bus.h ****   * @brief  Release AHB2 peripherals reset.
 588:Drivers/STM32G4xx_HAL_Driver/Inc/stm32g4xx_ll_bus.h ****   * @rmtoll AHB2RSTR      GPIOARST       LL_AHB2_GRP1_ReleaseReset\n
 589:Drivers/STM32G4xx_HAL_Driver/Inc/stm32g4xx_ll_bus.h ****   *         AHB2RSTR      GPIOBRST       LL_AHB2_GRP1_ReleaseReset\n
 590:Drivers/STM32G4xx_HAL_Driver/Inc/stm32g4xx_ll_bus.h ****   *         AHB2RSTR      GPIOCRST       LL_AHB2_GRP1_ReleaseReset\n
 591:Drivers/STM32G4xx_HAL_Driver/Inc/stm32g4xx_ll_bus.h ****   *         AHB2RSTR      GPIODRST       LL_AHB2_GRP1_ReleaseReset\n
 592:Drivers/STM32G4xx_HAL_Driver/Inc/stm32g4xx_ll_bus.h ****   *         AHB2RSTR      GPIOERST       LL_AHB2_GRP1_ReleaseReset\n
 593:Drivers/STM32G4xx_HAL_Driver/Inc/stm32g4xx_ll_bus.h ****   *         AHB2RSTR      GPIOFRST       LL_AHB2_GRP1_ReleaseReset\n
 594:Drivers/STM32G4xx_HAL_Driver/Inc/stm32g4xx_ll_bus.h ****   *         AHB2RSTR      GPIOGRST       LL_AHB2_GRP1_ReleaseReset\n
 595:Drivers/STM32G4xx_HAL_Driver/Inc/stm32g4xx_ll_bus.h ****   *         AHB2RSTR      ADC12RST       LL_AHB2_GRP1_ReleaseReset\n
 596:Drivers/STM32G4xx_HAL_Driver/Inc/stm32g4xx_ll_bus.h ****   *         AHB2RSTR      ADC345RST      LL_AHB2_GRP1_ReleaseReset\n
 597:Drivers/STM32G4xx_HAL_Driver/Inc/stm32g4xx_ll_bus.h ****   *         AHB2RSTR      DAC1RST        LL_AHB2_GRP1_ReleaseReset\n
 598:Drivers/STM32G4xx_HAL_Driver/Inc/stm32g4xx_ll_bus.h ****   *         AHB2RSTR      DAC2RST        LL_AHB2_GRP1_ReleaseReset\n
 599:Drivers/STM32G4xx_HAL_Driver/Inc/stm32g4xx_ll_bus.h ****   *         AHB2RSTR      DAC3RST        LL_AHB2_GRP1_ReleaseReset\n
 600:Drivers/STM32G4xx_HAL_Driver/Inc/stm32g4xx_ll_bus.h ****   *         AHB2RSTR      DAC4RST        LL_AHB2_GRP1_ReleaseReset\n
 601:Drivers/STM32G4xx_HAL_Driver/Inc/stm32g4xx_ll_bus.h ****   *         AHB2RSTR      AESRST         LL_AHB2_GRP1_ReleaseReset\n
 602:Drivers/STM32G4xx_HAL_Driver/Inc/stm32g4xx_ll_bus.h ****   *         AHB2RSTR      RNGRST         LL_AHB2_GRP1_ReleaseReset
 603:Drivers/STM32G4xx_HAL_Driver/Inc/stm32g4xx_ll_bus.h ****   * @param  Periphs This parameter can be a combination of the following values:
 604:Drivers/STM32G4xx_HAL_Driver/Inc/stm32g4xx_ll_bus.h ****   *         @arg @ref LL_AHB2_GRP1_PERIPH_GPIOA
 605:Drivers/STM32G4xx_HAL_Driver/Inc/stm32g4xx_ll_bus.h ****   *         @arg @ref LL_AHB2_GRP1_PERIPH_GPIOB
 606:Drivers/STM32G4xx_HAL_Driver/Inc/stm32g4xx_ll_bus.h ****   *         @arg @ref LL_AHB2_GRP1_PERIPH_GPIOC
 607:Drivers/STM32G4xx_HAL_Driver/Inc/stm32g4xx_ll_bus.h ****   *         @arg @ref LL_AHB2_GRP1_PERIPH_GPIOD
 608:Drivers/STM32G4xx_HAL_Driver/Inc/stm32g4xx_ll_bus.h ****   *         @arg @ref LL_AHB2_GRP1_PERIPH_GPIOE
 609:Drivers/STM32G4xx_HAL_Driver/Inc/stm32g4xx_ll_bus.h ****   *         @arg @ref LL_AHB2_GRP1_PERIPH_GPIOF
 610:Drivers/STM32G4xx_HAL_Driver/Inc/stm32g4xx_ll_bus.h ****   *         @arg @ref LL_AHB2_GRP1_PERIPH_GPIOG
 611:Drivers/STM32G4xx_HAL_Driver/Inc/stm32g4xx_ll_bus.h ****   *         @arg @ref LL_AHB2_GRP1_PERIPH_ADC12
 612:Drivers/STM32G4xx_HAL_Driver/Inc/stm32g4xx_ll_bus.h ****   *         @arg @ref LL_AHB2_GRP1_PERIPH_ADC345 (*)
 613:Drivers/STM32G4xx_HAL_Driver/Inc/stm32g4xx_ll_bus.h ****   *         @arg @ref LL_AHB2_GRP1_PERIPH_DAC1
 614:Drivers/STM32G4xx_HAL_Driver/Inc/stm32g4xx_ll_bus.h ****   *         @arg @ref LL_AHB2_GRP1_PERIPH_DAC2 (*)
 615:Drivers/STM32G4xx_HAL_Driver/Inc/stm32g4xx_ll_bus.h ****   *         @arg @ref LL_AHB2_GRP1_PERIPH_DAC3
ARM GAS  /tmp/ccibP0tT.s 			page 45


 616:Drivers/STM32G4xx_HAL_Driver/Inc/stm32g4xx_ll_bus.h ****   *         @arg @ref LL_AHB2_GRP1_PERIPH_DAC4 (*)
 617:Drivers/STM32G4xx_HAL_Driver/Inc/stm32g4xx_ll_bus.h ****   *         @arg @ref LL_AHB2_GRP1_PERIPH_AES (*)
 618:Drivers/STM32G4xx_HAL_Driver/Inc/stm32g4xx_ll_bus.h ****   *         @arg @ref LL_AHB2_GRP1_PERIPH_RNG
 619:Drivers/STM32G4xx_HAL_Driver/Inc/stm32g4xx_ll_bus.h ****   *
 620:Drivers/STM32G4xx_HAL_Driver/Inc/stm32g4xx_ll_bus.h ****   *         (*) value not defined in all devices.
 621:Drivers/STM32G4xx_HAL_Driver/Inc/stm32g4xx_ll_bus.h ****   * @retval None
 622:Drivers/STM32G4xx_HAL_Driver/Inc/stm32g4xx_ll_bus.h ****   */
 623:Drivers/STM32G4xx_HAL_Driver/Inc/stm32g4xx_ll_bus.h **** __STATIC_INLINE void LL_AHB2_GRP1_ReleaseReset(uint32_t Periphs)
 624:Drivers/STM32G4xx_HAL_Driver/Inc/stm32g4xx_ll_bus.h **** {
 625:Drivers/STM32G4xx_HAL_Driver/Inc/stm32g4xx_ll_bus.h ****   CLEAR_BIT(RCC->AHB2RSTR, Periphs);
 626:Drivers/STM32G4xx_HAL_Driver/Inc/stm32g4xx_ll_bus.h **** }
 627:Drivers/STM32G4xx_HAL_Driver/Inc/stm32g4xx_ll_bus.h **** 
 628:Drivers/STM32G4xx_HAL_Driver/Inc/stm32g4xx_ll_bus.h **** /**
 629:Drivers/STM32G4xx_HAL_Driver/Inc/stm32g4xx_ll_bus.h ****   * @brief  Enable AHB2 peripheral clocks in Sleep and Stop modes
 630:Drivers/STM32G4xx_HAL_Driver/Inc/stm32g4xx_ll_bus.h ****   * @rmtoll AHB2SMENR    GPIOASMEN     LL_AHB2_GRP1_EnableClockStopSleep\n
 631:Drivers/STM32G4xx_HAL_Driver/Inc/stm32g4xx_ll_bus.h ****   *         AHB2SMENR    GPIOBSMEN     LL_AHB2_GRP1_EnableClockStopSleep\n
 632:Drivers/STM32G4xx_HAL_Driver/Inc/stm32g4xx_ll_bus.h ****   *         AHB2SMENR    GPIOCSMEN     LL_AHB2_GRP1_EnableClockStopSleep\n
 633:Drivers/STM32G4xx_HAL_Driver/Inc/stm32g4xx_ll_bus.h ****   *         AHB2SMENR    GPIODSMEN     LL_AHB2_GRP1_EnableClockStopSleep\n
 634:Drivers/STM32G4xx_HAL_Driver/Inc/stm32g4xx_ll_bus.h ****   *         AHB2SMENR    GPIOESMEN     LL_AHB2_GRP1_EnableClockStopSleep\n
 635:Drivers/STM32G4xx_HAL_Driver/Inc/stm32g4xx_ll_bus.h ****   *         AHB2SMENR    GPIOFSMEN     LL_AHB2_GRP1_EnableClockStopSleep\n
 636:Drivers/STM32G4xx_HAL_Driver/Inc/stm32g4xx_ll_bus.h ****   *         AHB2SMENR    GPIOGSMEN     LL_AHB2_GRP1_EnableClockStopSleep\n
 637:Drivers/STM32G4xx_HAL_Driver/Inc/stm32g4xx_ll_bus.h ****   *         AHB2SMENR    SRAM2SMEN     LL_AHB2_GRP1_EnableClockStopSleep\n
 638:Drivers/STM32G4xx_HAL_Driver/Inc/stm32g4xx_ll_bus.h ****   *         AHB2SMENR    CCMSMEN       LL_AHB2_GRP1_EnableClockStopSleep\n
 639:Drivers/STM32G4xx_HAL_Driver/Inc/stm32g4xx_ll_bus.h ****   *         AHB2SMENR    ADC12SMEN     LL_AHB2_GRP1_EnableClockStopSleep\n
 640:Drivers/STM32G4xx_HAL_Driver/Inc/stm32g4xx_ll_bus.h ****   *         AHB2SMENR    ADC345SMEN    LL_AHB2_GRP1_EnableClockStopSleep\n
 641:Drivers/STM32G4xx_HAL_Driver/Inc/stm32g4xx_ll_bus.h ****   *         AHB2SMENR    DAC1SMEN      LL_AHB2_GRP1_EnableClockStopSleep\n
 642:Drivers/STM32G4xx_HAL_Driver/Inc/stm32g4xx_ll_bus.h ****   *         AHB2SMENR    DAC2SMEN      LL_AHB2_GRP1_EnableClockStopSleep\n
 643:Drivers/STM32G4xx_HAL_Driver/Inc/stm32g4xx_ll_bus.h ****   *         AHB2SMENR    DAC3SMEN      LL_AHB2_GRP1_EnableClockStopSleep\n
 644:Drivers/STM32G4xx_HAL_Driver/Inc/stm32g4xx_ll_bus.h ****   *         AHB2SMENR    DAC4SMEN      LL_AHB2_GRP1_EnableClockStopSleep\n
 645:Drivers/STM32G4xx_HAL_Driver/Inc/stm32g4xx_ll_bus.h ****   *         AHB2SMENR    AESSMEN       LL_AHB2_GRP1_EnableClockStopSleep\n
 646:Drivers/STM32G4xx_HAL_Driver/Inc/stm32g4xx_ll_bus.h ****   *         AHB2SMENR    RNGSMEN       LL_AHB2_GRP1_EnableClockStopSleep
 647:Drivers/STM32G4xx_HAL_Driver/Inc/stm32g4xx_ll_bus.h ****   * @param  Periphs This parameter can be a combination of the following values:
 648:Drivers/STM32G4xx_HAL_Driver/Inc/stm32g4xx_ll_bus.h ****   *         @arg @ref LL_AHB2_GRP1_PERIPH_GPIOA
 649:Drivers/STM32G4xx_HAL_Driver/Inc/stm32g4xx_ll_bus.h ****   *         @arg @ref LL_AHB2_GRP1_PERIPH_GPIOB
 650:Drivers/STM32G4xx_HAL_Driver/Inc/stm32g4xx_ll_bus.h ****   *         @arg @ref LL_AHB2_GRP1_PERIPH_GPIOC
 651:Drivers/STM32G4xx_HAL_Driver/Inc/stm32g4xx_ll_bus.h ****   *         @arg @ref LL_AHB2_GRP1_PERIPH_GPIOD
 652:Drivers/STM32G4xx_HAL_Driver/Inc/stm32g4xx_ll_bus.h ****   *         @arg @ref LL_AHB2_GRP1_PERIPH_GPIOE
 653:Drivers/STM32G4xx_HAL_Driver/Inc/stm32g4xx_ll_bus.h ****   *         @arg @ref LL_AHB2_GRP1_PERIPH_GPIOF
 654:Drivers/STM32G4xx_HAL_Driver/Inc/stm32g4xx_ll_bus.h ****   *         @arg @ref LL_AHB2_GRP1_PERIPH_GPIOG
 655:Drivers/STM32G4xx_HAL_Driver/Inc/stm32g4xx_ll_bus.h ****   *         @arg @ref LL_AHB2_GRP1_PERIPH_SRAM2
 656:Drivers/STM32G4xx_HAL_Driver/Inc/stm32g4xx_ll_bus.h ****   *         @arg @ref LL_AHB2_GRP1_PERIPH_CCM
 657:Drivers/STM32G4xx_HAL_Driver/Inc/stm32g4xx_ll_bus.h ****   *         @arg @ref LL_AHB2_GRP1_PERIPH_ADC12
 658:Drivers/STM32G4xx_HAL_Driver/Inc/stm32g4xx_ll_bus.h ****   *         @arg @ref LL_AHB2_GRP1_PERIPH_ADC345 (*)
 659:Drivers/STM32G4xx_HAL_Driver/Inc/stm32g4xx_ll_bus.h ****   *         @arg @ref LL_AHB2_GRP1_PERIPH_DAC1
 660:Drivers/STM32G4xx_HAL_Driver/Inc/stm32g4xx_ll_bus.h ****   *         @arg @ref LL_AHB2_GRP1_PERIPH_DAC2 (*)
 661:Drivers/STM32G4xx_HAL_Driver/Inc/stm32g4xx_ll_bus.h ****   *         @arg @ref LL_AHB2_GRP1_PERIPH_DAC3
 662:Drivers/STM32G4xx_HAL_Driver/Inc/stm32g4xx_ll_bus.h ****   *         @arg @ref LL_AHB2_GRP1_PERIPH_DAC4 (*)
 663:Drivers/STM32G4xx_HAL_Driver/Inc/stm32g4xx_ll_bus.h ****   *         @arg @ref LL_AHB2_GRP1_PERIPH_AES (*)
 664:Drivers/STM32G4xx_HAL_Driver/Inc/stm32g4xx_ll_bus.h ****   *         @arg @ref LL_AHB2_GRP1_PERIPH_RNG
 665:Drivers/STM32G4xx_HAL_Driver/Inc/stm32g4xx_ll_bus.h ****   *
 666:Drivers/STM32G4xx_HAL_Driver/Inc/stm32g4xx_ll_bus.h ****   *         (*) value not defined in all devices.
 667:Drivers/STM32G4xx_HAL_Driver/Inc/stm32g4xx_ll_bus.h ****   * @retval None
 668:Drivers/STM32G4xx_HAL_Driver/Inc/stm32g4xx_ll_bus.h ****   */
 669:Drivers/STM32G4xx_HAL_Driver/Inc/stm32g4xx_ll_bus.h **** __STATIC_INLINE void LL_AHB2_GRP1_EnableClockStopSleep(uint32_t Periphs)
 670:Drivers/STM32G4xx_HAL_Driver/Inc/stm32g4xx_ll_bus.h **** {
 671:Drivers/STM32G4xx_HAL_Driver/Inc/stm32g4xx_ll_bus.h ****   __IO uint32_t tmpreg;
 672:Drivers/STM32G4xx_HAL_Driver/Inc/stm32g4xx_ll_bus.h ****   SET_BIT(RCC->AHB2SMENR, Periphs);
ARM GAS  /tmp/ccibP0tT.s 			page 46


 673:Drivers/STM32G4xx_HAL_Driver/Inc/stm32g4xx_ll_bus.h ****   /* Delay after an RCC peripheral clock enabling */
 674:Drivers/STM32G4xx_HAL_Driver/Inc/stm32g4xx_ll_bus.h ****   tmpreg = READ_BIT(RCC->AHB2SMENR, Periphs);
 675:Drivers/STM32G4xx_HAL_Driver/Inc/stm32g4xx_ll_bus.h ****   (void)tmpreg;
 676:Drivers/STM32G4xx_HAL_Driver/Inc/stm32g4xx_ll_bus.h **** }
 677:Drivers/STM32G4xx_HAL_Driver/Inc/stm32g4xx_ll_bus.h **** 
 678:Drivers/STM32G4xx_HAL_Driver/Inc/stm32g4xx_ll_bus.h **** /**
 679:Drivers/STM32G4xx_HAL_Driver/Inc/stm32g4xx_ll_bus.h ****   * @brief  Disable AHB2 peripheral clocks in Sleep and Stop modes
 680:Drivers/STM32G4xx_HAL_Driver/Inc/stm32g4xx_ll_bus.h ****   * @rmtoll AHB2SMENR    GPIOASMEN     LL_AHB2_GRP1_DisableClockStopSleep\n
 681:Drivers/STM32G4xx_HAL_Driver/Inc/stm32g4xx_ll_bus.h ****   *         AHB2SMENR    GPIOBSMEN     LL_AHB2_GRP1_DisableClockStopSleep\n
 682:Drivers/STM32G4xx_HAL_Driver/Inc/stm32g4xx_ll_bus.h ****   *         AHB2SMENR    GPIOCSMEN     LL_AHB2_GRP1_DisableClockStopSleep\n
 683:Drivers/STM32G4xx_HAL_Driver/Inc/stm32g4xx_ll_bus.h ****   *         AHB2SMENR    GPIODSMEN     LL_AHB2_GRP1_DisableClockStopSleep\n
 684:Drivers/STM32G4xx_HAL_Driver/Inc/stm32g4xx_ll_bus.h ****   *         AHB2SMENR    GPIOESMEN     LL_AHB2_GRP1_DisableClockStopSleep\n
 685:Drivers/STM32G4xx_HAL_Driver/Inc/stm32g4xx_ll_bus.h ****   *         AHB2SMENR    GPIOFSMEN     LL_AHB2_GRP1_DisableClockStopSleep\n
 686:Drivers/STM32G4xx_HAL_Driver/Inc/stm32g4xx_ll_bus.h ****   *         AHB2SMENR    GPIOGSMEN     LL_AHB2_GRP1_DisableClockStopSleep\n
 687:Drivers/STM32G4xx_HAL_Driver/Inc/stm32g4xx_ll_bus.h ****   *         AHB2SMENR    SRAM2SMEN     LL_AHB2_GRP1_DisableClockStopSleep\n
 688:Drivers/STM32G4xx_HAL_Driver/Inc/stm32g4xx_ll_bus.h ****   *         AHB2SMENR    CCMSMEN       LL_AHB2_GRP1_DisableClockStopSleep\n
 689:Drivers/STM32G4xx_HAL_Driver/Inc/stm32g4xx_ll_bus.h ****   *         AHB2SMENR    ADC12SMEN     LL_AHB2_GRP1_DisableClockStopSleep\n
 690:Drivers/STM32G4xx_HAL_Driver/Inc/stm32g4xx_ll_bus.h ****   *         AHB2SMENR    ADC345SMEN    LL_AHB2_GRP1_DisableClockStopSleep\n
 691:Drivers/STM32G4xx_HAL_Driver/Inc/stm32g4xx_ll_bus.h ****   *         AHB2SMENR    DAC1SMEN      LL_AHB2_GRP1_DisableClockStopSleep\n
 692:Drivers/STM32G4xx_HAL_Driver/Inc/stm32g4xx_ll_bus.h ****   *         AHB2SMENR    DAC2SMEN      LL_AHB2_GRP1_DisableClockStopSleep\n
 693:Drivers/STM32G4xx_HAL_Driver/Inc/stm32g4xx_ll_bus.h ****   *         AHB2SMENR    DAC3SMEN      LL_AHB2_GRP1_DisableClockStopSleep\n
 694:Drivers/STM32G4xx_HAL_Driver/Inc/stm32g4xx_ll_bus.h ****   *         AHB2SMENR    DAC4SMEN      LL_AHB2_GRP1_DisableClockStopSleep\n
 695:Drivers/STM32G4xx_HAL_Driver/Inc/stm32g4xx_ll_bus.h ****   *         AHB2SMENR    AESSMEN       LL_AHB2_GRP1_DisableClockStopSleep\n
 696:Drivers/STM32G4xx_HAL_Driver/Inc/stm32g4xx_ll_bus.h ****   *         AHB2SMENR    RNGSMEN       LL_AHB2_GRP1_DisableClockStopSleep
 697:Drivers/STM32G4xx_HAL_Driver/Inc/stm32g4xx_ll_bus.h ****   * @param  Periphs This parameter can be a combination of the following values:
 698:Drivers/STM32G4xx_HAL_Driver/Inc/stm32g4xx_ll_bus.h ****   *         @arg @ref LL_AHB2_GRP1_PERIPH_GPIOA
 699:Drivers/STM32G4xx_HAL_Driver/Inc/stm32g4xx_ll_bus.h ****   *         @arg @ref LL_AHB2_GRP1_PERIPH_GPIOB
 700:Drivers/STM32G4xx_HAL_Driver/Inc/stm32g4xx_ll_bus.h ****   *         @arg @ref LL_AHB2_GRP1_PERIPH_GPIOC
 701:Drivers/STM32G4xx_HAL_Driver/Inc/stm32g4xx_ll_bus.h ****   *         @arg @ref LL_AHB2_GRP1_PERIPH_GPIOD
 702:Drivers/STM32G4xx_HAL_Driver/Inc/stm32g4xx_ll_bus.h ****   *         @arg @ref LL_AHB2_GRP1_PERIPH_GPIOE
 703:Drivers/STM32G4xx_HAL_Driver/Inc/stm32g4xx_ll_bus.h ****   *         @arg @ref LL_AHB2_GRP1_PERIPH_GPIOF
 704:Drivers/STM32G4xx_HAL_Driver/Inc/stm32g4xx_ll_bus.h ****   *         @arg @ref LL_AHB2_GRP1_PERIPH_GPIOG
 705:Drivers/STM32G4xx_HAL_Driver/Inc/stm32g4xx_ll_bus.h ****   *         @arg @ref LL_AHB2_GRP1_PERIPH_SRAM2
 706:Drivers/STM32G4xx_HAL_Driver/Inc/stm32g4xx_ll_bus.h ****   *         @arg @ref LL_AHB2_GRP1_PERIPH_CCM
 707:Drivers/STM32G4xx_HAL_Driver/Inc/stm32g4xx_ll_bus.h ****   *         @arg @ref LL_AHB2_GRP1_PERIPH_ADC12
 708:Drivers/STM32G4xx_HAL_Driver/Inc/stm32g4xx_ll_bus.h ****   *         @arg @ref LL_AHB2_GRP1_PERIPH_ADC345 (*)
 709:Drivers/STM32G4xx_HAL_Driver/Inc/stm32g4xx_ll_bus.h ****   *         @arg @ref LL_AHB2_GRP1_PERIPH_DAC1
 710:Drivers/STM32G4xx_HAL_Driver/Inc/stm32g4xx_ll_bus.h ****   *         @arg @ref LL_AHB2_GRP1_PERIPH_DAC2 (*)
 711:Drivers/STM32G4xx_HAL_Driver/Inc/stm32g4xx_ll_bus.h ****   *         @arg @ref LL_AHB2_GRP1_PERIPH_DAC3
 712:Drivers/STM32G4xx_HAL_Driver/Inc/stm32g4xx_ll_bus.h ****   *         @arg @ref LL_AHB2_GRP1_PERIPH_DAC4 (*)
 713:Drivers/STM32G4xx_HAL_Driver/Inc/stm32g4xx_ll_bus.h ****   *         @arg @ref LL_AHB2_GRP1_PERIPH_AES (*)
 714:Drivers/STM32G4xx_HAL_Driver/Inc/stm32g4xx_ll_bus.h ****   *         @arg @ref LL_AHB2_GRP1_PERIPH_RNG
 715:Drivers/STM32G4xx_HAL_Driver/Inc/stm32g4xx_ll_bus.h ****   *
 716:Drivers/STM32G4xx_HAL_Driver/Inc/stm32g4xx_ll_bus.h ****   *         (*) value not defined in all devices.
 717:Drivers/STM32G4xx_HAL_Driver/Inc/stm32g4xx_ll_bus.h ****   * @retval None
 718:Drivers/STM32G4xx_HAL_Driver/Inc/stm32g4xx_ll_bus.h ****   */
 719:Drivers/STM32G4xx_HAL_Driver/Inc/stm32g4xx_ll_bus.h **** __STATIC_INLINE void LL_AHB2_GRP1_DisableClockStopSleep(uint32_t Periphs)
 720:Drivers/STM32G4xx_HAL_Driver/Inc/stm32g4xx_ll_bus.h **** {
 721:Drivers/STM32G4xx_HAL_Driver/Inc/stm32g4xx_ll_bus.h ****   CLEAR_BIT(RCC->AHB2SMENR, Periphs);
 722:Drivers/STM32G4xx_HAL_Driver/Inc/stm32g4xx_ll_bus.h **** }
 723:Drivers/STM32G4xx_HAL_Driver/Inc/stm32g4xx_ll_bus.h **** 
 724:Drivers/STM32G4xx_HAL_Driver/Inc/stm32g4xx_ll_bus.h **** /**
 725:Drivers/STM32G4xx_HAL_Driver/Inc/stm32g4xx_ll_bus.h ****   * @}
 726:Drivers/STM32G4xx_HAL_Driver/Inc/stm32g4xx_ll_bus.h ****   */
 727:Drivers/STM32G4xx_HAL_Driver/Inc/stm32g4xx_ll_bus.h **** 
 728:Drivers/STM32G4xx_HAL_Driver/Inc/stm32g4xx_ll_bus.h **** /** @defgroup BUS_LL_EF_AHB3 AHB3
 729:Drivers/STM32G4xx_HAL_Driver/Inc/stm32g4xx_ll_bus.h ****   * @{
ARM GAS  /tmp/ccibP0tT.s 			page 47


 730:Drivers/STM32G4xx_HAL_Driver/Inc/stm32g4xx_ll_bus.h ****   */
 731:Drivers/STM32G4xx_HAL_Driver/Inc/stm32g4xx_ll_bus.h **** 
 732:Drivers/STM32G4xx_HAL_Driver/Inc/stm32g4xx_ll_bus.h **** /**
 733:Drivers/STM32G4xx_HAL_Driver/Inc/stm32g4xx_ll_bus.h ****   * @brief  Enable AHB3 peripherals clock.
 734:Drivers/STM32G4xx_HAL_Driver/Inc/stm32g4xx_ll_bus.h ****   * @rmtoll AHB3ENR      FMCEN         LL_AHB3_GRP1_EnableClock\n
 735:Drivers/STM32G4xx_HAL_Driver/Inc/stm32g4xx_ll_bus.h ****   *         AHB3ENR      QSPIEN        LL_AHB3_GRP1_EnableClock
 736:Drivers/STM32G4xx_HAL_Driver/Inc/stm32g4xx_ll_bus.h ****   * @param  Periphs This parameter can be a combination of the following values:
 737:Drivers/STM32G4xx_HAL_Driver/Inc/stm32g4xx_ll_bus.h ****   *         @arg @ref LL_AHB3_GRP1_PERIPH_FMC (*)
 738:Drivers/STM32G4xx_HAL_Driver/Inc/stm32g4xx_ll_bus.h ****   *         @arg @ref LL_AHB3_GRP1_PERIPH_QSPI (*)
 739:Drivers/STM32G4xx_HAL_Driver/Inc/stm32g4xx_ll_bus.h ****   *
 740:Drivers/STM32G4xx_HAL_Driver/Inc/stm32g4xx_ll_bus.h ****   *         (*) value not defined in all devices.
 741:Drivers/STM32G4xx_HAL_Driver/Inc/stm32g4xx_ll_bus.h ****   * @retval None
 742:Drivers/STM32G4xx_HAL_Driver/Inc/stm32g4xx_ll_bus.h ****   */
 743:Drivers/STM32G4xx_HAL_Driver/Inc/stm32g4xx_ll_bus.h **** __STATIC_INLINE void LL_AHB3_GRP1_EnableClock(uint32_t Periphs)
 744:Drivers/STM32G4xx_HAL_Driver/Inc/stm32g4xx_ll_bus.h **** {
 745:Drivers/STM32G4xx_HAL_Driver/Inc/stm32g4xx_ll_bus.h ****   __IO uint32_t tmpreg;
 746:Drivers/STM32G4xx_HAL_Driver/Inc/stm32g4xx_ll_bus.h ****   SET_BIT(RCC->AHB3ENR, Periphs);
 747:Drivers/STM32G4xx_HAL_Driver/Inc/stm32g4xx_ll_bus.h ****   /* Delay after an RCC peripheral clock enabling */
 748:Drivers/STM32G4xx_HAL_Driver/Inc/stm32g4xx_ll_bus.h ****   tmpreg = READ_BIT(RCC->AHB3ENR, Periphs);
 749:Drivers/STM32G4xx_HAL_Driver/Inc/stm32g4xx_ll_bus.h ****   (void)tmpreg;
 750:Drivers/STM32G4xx_HAL_Driver/Inc/stm32g4xx_ll_bus.h **** }
 751:Drivers/STM32G4xx_HAL_Driver/Inc/stm32g4xx_ll_bus.h **** 
 752:Drivers/STM32G4xx_HAL_Driver/Inc/stm32g4xx_ll_bus.h **** /**
 753:Drivers/STM32G4xx_HAL_Driver/Inc/stm32g4xx_ll_bus.h ****   * @brief  Check if AHB3 peripheral clock is enabled or not
 754:Drivers/STM32G4xx_HAL_Driver/Inc/stm32g4xx_ll_bus.h ****   * @rmtoll AHB3ENR      FMCEN         LL_AHB3_GRP1_IsEnabledClock\n
 755:Drivers/STM32G4xx_HAL_Driver/Inc/stm32g4xx_ll_bus.h ****   *         AHB3ENR      QSPIEN        LL_AHB3_GRP1_IsEnabledClock
 756:Drivers/STM32G4xx_HAL_Driver/Inc/stm32g4xx_ll_bus.h ****   * @param  Periphs This parameter can be a combination of the following values:
 757:Drivers/STM32G4xx_HAL_Driver/Inc/stm32g4xx_ll_bus.h ****   *         @arg @ref LL_AHB3_GRP1_PERIPH_FMC (*)
 758:Drivers/STM32G4xx_HAL_Driver/Inc/stm32g4xx_ll_bus.h ****   *         @arg @ref LL_AHB3_GRP1_PERIPH_QSPI (*)
 759:Drivers/STM32G4xx_HAL_Driver/Inc/stm32g4xx_ll_bus.h ****   *
 760:Drivers/STM32G4xx_HAL_Driver/Inc/stm32g4xx_ll_bus.h ****   *         (*) value not defined in all devices.
 761:Drivers/STM32G4xx_HAL_Driver/Inc/stm32g4xx_ll_bus.h ****   * @retval State of Periphs (1 or 0).
 762:Drivers/STM32G4xx_HAL_Driver/Inc/stm32g4xx_ll_bus.h ****   */
 763:Drivers/STM32G4xx_HAL_Driver/Inc/stm32g4xx_ll_bus.h **** __STATIC_INLINE uint32_t LL_AHB3_GRP1_IsEnabledClock(uint32_t Periphs)
 764:Drivers/STM32G4xx_HAL_Driver/Inc/stm32g4xx_ll_bus.h **** {
 765:Drivers/STM32G4xx_HAL_Driver/Inc/stm32g4xx_ll_bus.h ****   return ((READ_BIT(RCC->AHB3ENR, Periphs) == Periphs) ? 1UL : 0UL);
 766:Drivers/STM32G4xx_HAL_Driver/Inc/stm32g4xx_ll_bus.h **** }
 767:Drivers/STM32G4xx_HAL_Driver/Inc/stm32g4xx_ll_bus.h **** 
 768:Drivers/STM32G4xx_HAL_Driver/Inc/stm32g4xx_ll_bus.h **** /**
