ARM GAS  /tmp/ccK442Dq.s 			page 1


   1              		.cpu cortex-m4
   2              		.eabi_attribute 27, 1
   3              		.eabi_attribute 28, 1
   4              		.eabi_attribute 20, 1
   5              		.eabi_attribute 21, 1
   6              		.eabi_attribute 23, 3
   7              		.eabi_attribute 24, 1
   8              		.eabi_attribute 25, 1
   9              		.eabi_attribute 26, 1
  10              		.eabi_attribute 30, 2
  11              		.eabi_attribute 34, 1
  12              		.eabi_attribute 18, 2
  13              		.file	"stm32g4xx_hal_pwr_ex.c"
  14              		.text
  15              	.Ltext0:
  16              		.cfi_sections	.debug_frame
  17              		.section	.text.HAL_PWREx_GetVoltageRange,"ax",%progbits
  18              		.align	1
  19              		.p2align 2,,3
  20              		.global	HAL_PWREx_GetVoltageRange
  21              		.arch armv7e-m
  22              		.syntax unified
  23              		.thumb
  24              		.thumb_func
  25              		.fpu fpv4-sp-d16
  27              	HAL_PWREx_GetVoltageRange:
  28              	.LFB132:
  29              		.file 1 "Drivers/STM32G4xx_HAL_Driver/Src/stm32g4xx_hal_pwr_ex.c"
   1:Drivers/STM32G4xx_HAL_Driver/Src/stm32g4xx_hal_pwr_ex.c **** /**
   2:Drivers/STM32G4xx_HAL_Driver/Src/stm32g4xx_hal_pwr_ex.c ****   ******************************************************************************
   3:Drivers/STM32G4xx_HAL_Driver/Src/stm32g4xx_hal_pwr_ex.c ****   * @file    stm32g4xx_hal_pwr_ex.c
   4:Drivers/STM32G4xx_HAL_Driver/Src/stm32g4xx_hal_pwr_ex.c ****   * @author  MCD Application Team
   5:Drivers/STM32G4xx_HAL_Driver/Src/stm32g4xx_hal_pwr_ex.c ****   * @brief   Extended PWR HAL module driver.
   6:Drivers/STM32G4xx_HAL_Driver/Src/stm32g4xx_hal_pwr_ex.c ****   *          This file provides firmware functions to manage the following
   7:Drivers/STM32G4xx_HAL_Driver/Src/stm32g4xx_hal_pwr_ex.c ****   *          functionalities of the Power Controller (PWR) peripheral:
   8:Drivers/STM32G4xx_HAL_Driver/Src/stm32g4xx_hal_pwr_ex.c ****   *           + Extended Initialization and de-initialization functions
   9:Drivers/STM32G4xx_HAL_Driver/Src/stm32g4xx_hal_pwr_ex.c ****   *           + Extended Peripheral Control functions
  10:Drivers/STM32G4xx_HAL_Driver/Src/stm32g4xx_hal_pwr_ex.c ****   *
  11:Drivers/STM32G4xx_HAL_Driver/Src/stm32g4xx_hal_pwr_ex.c ****   ******************************************************************************
  12:Drivers/STM32G4xx_HAL_Driver/Src/stm32g4xx_hal_pwr_ex.c ****   * @attention
  13:Drivers/STM32G4xx_HAL_Driver/Src/stm32g4xx_hal_pwr_ex.c ****   *
  14:Drivers/STM32G4xx_HAL_Driver/Src/stm32g4xx_hal_pwr_ex.c ****   * Copyright (c) 2019 STMicroelectronics.
  15:Drivers/STM32G4xx_HAL_Driver/Src/stm32g4xx_hal_pwr_ex.c ****   * All rights reserved.
  16:Drivers/STM32G4xx_HAL_Driver/Src/stm32g4xx_hal_pwr_ex.c ****   *
  17:Drivers/STM32G4xx_HAL_Driver/Src/stm32g4xx_hal_pwr_ex.c ****   * This software is licensed under terms that can be found in the LICENSE file
  18:Drivers/STM32G4xx_HAL_Driver/Src/stm32g4xx_hal_pwr_ex.c ****   * in the root directory of this software component.
  19:Drivers/STM32G4xx_HAL_Driver/Src/stm32g4xx_hal_pwr_ex.c ****   * If no LICENSE file comes with this software, it is provided AS-IS.
  20:Drivers/STM32G4xx_HAL_Driver/Src/stm32g4xx_hal_pwr_ex.c ****   *
  21:Drivers/STM32G4xx_HAL_Driver/Src/stm32g4xx_hal_pwr_ex.c ****   ******************************************************************************
  22:Drivers/STM32G4xx_HAL_Driver/Src/stm32g4xx_hal_pwr_ex.c ****   */
  23:Drivers/STM32G4xx_HAL_Driver/Src/stm32g4xx_hal_pwr_ex.c **** 
  24:Drivers/STM32G4xx_HAL_Driver/Src/stm32g4xx_hal_pwr_ex.c **** /* Includes ------------------------------------------------------------------*/
  25:Drivers/STM32G4xx_HAL_Driver/Src/stm32g4xx_hal_pwr_ex.c **** #include "stm32g4xx_hal.h"
  26:Drivers/STM32G4xx_HAL_Driver/Src/stm32g4xx_hal_pwr_ex.c **** 
  27:Drivers/STM32G4xx_HAL_Driver/Src/stm32g4xx_hal_pwr_ex.c **** /** @addtogroup STM32G4xx_HAL_Driver
  28:Drivers/STM32G4xx_HAL_Driver/Src/stm32g4xx_hal_pwr_ex.c ****   * @{
  29:Drivers/STM32G4xx_HAL_Driver/Src/stm32g4xx_hal_pwr_ex.c ****   */
ARM GAS  /tmp/ccK442Dq.s 			page 2


  30:Drivers/STM32G4xx_HAL_Driver/Src/stm32g4xx_hal_pwr_ex.c **** 
  31:Drivers/STM32G4xx_HAL_Driver/Src/stm32g4xx_hal_pwr_ex.c **** /** @defgroup PWREx PWREx
  32:Drivers/STM32G4xx_HAL_Driver/Src/stm32g4xx_hal_pwr_ex.c ****   * @brief PWR Extended HAL module driver
  33:Drivers/STM32G4xx_HAL_Driver/Src/stm32g4xx_hal_pwr_ex.c ****   * @{
  34:Drivers/STM32G4xx_HAL_Driver/Src/stm32g4xx_hal_pwr_ex.c ****   */
  35:Drivers/STM32G4xx_HAL_Driver/Src/stm32g4xx_hal_pwr_ex.c **** 
  36:Drivers/STM32G4xx_HAL_Driver/Src/stm32g4xx_hal_pwr_ex.c **** #ifdef HAL_PWR_MODULE_ENABLED
  37:Drivers/STM32G4xx_HAL_Driver/Src/stm32g4xx_hal_pwr_ex.c **** 
  38:Drivers/STM32G4xx_HAL_Driver/Src/stm32g4xx_hal_pwr_ex.c **** /* Private typedef -----------------------------------------------------------*/
  39:Drivers/STM32G4xx_HAL_Driver/Src/stm32g4xx_hal_pwr_ex.c **** /* Private define ------------------------------------------------------------*/
  40:Drivers/STM32G4xx_HAL_Driver/Src/stm32g4xx_hal_pwr_ex.c **** 
  41:Drivers/STM32G4xx_HAL_Driver/Src/stm32g4xx_hal_pwr_ex.c **** 
  42:Drivers/STM32G4xx_HAL_Driver/Src/stm32g4xx_hal_pwr_ex.c **** #if defined (STM32G471xx) || defined (STM32G473xx) || defined (STM32G474xx) || defined (STM32G483xx
  43:Drivers/STM32G4xx_HAL_Driver/Src/stm32g4xx_hal_pwr_ex.c **** #define PWR_PORTF_AVAILABLE_PINS   0x0000FFFFU /* PF0..PF15 */
  44:Drivers/STM32G4xx_HAL_Driver/Src/stm32g4xx_hal_pwr_ex.c **** #define PWR_PORTG_AVAILABLE_PINS   0x000007FFU /* PG0..PG10 */
  45:Drivers/STM32G4xx_HAL_Driver/Src/stm32g4xx_hal_pwr_ex.c **** #elif defined (STM32G431xx) || defined (STM32G441xx) || defined (STM32GBK1CB) || defined (STM32G491
  46:Drivers/STM32G4xx_HAL_Driver/Src/stm32g4xx_hal_pwr_ex.c **** #define PWR_PORTF_AVAILABLE_PINS   0x00000607U /* PF0..PF2 and PF9 and PF10 */
  47:Drivers/STM32G4xx_HAL_Driver/Src/stm32g4xx_hal_pwr_ex.c **** #define PWR_PORTG_AVAILABLE_PINS   0x00000400U /* PG10 */
  48:Drivers/STM32G4xx_HAL_Driver/Src/stm32g4xx_hal_pwr_ex.c **** #endif
  49:Drivers/STM32G4xx_HAL_Driver/Src/stm32g4xx_hal_pwr_ex.c **** 
  50:Drivers/STM32G4xx_HAL_Driver/Src/stm32g4xx_hal_pwr_ex.c **** /** @defgroup PWR_Extended_Private_Defines PWR Extended Private Defines
  51:Drivers/STM32G4xx_HAL_Driver/Src/stm32g4xx_hal_pwr_ex.c ****   * @{
  52:Drivers/STM32G4xx_HAL_Driver/Src/stm32g4xx_hal_pwr_ex.c ****   */
  53:Drivers/STM32G4xx_HAL_Driver/Src/stm32g4xx_hal_pwr_ex.c **** 
  54:Drivers/STM32G4xx_HAL_Driver/Src/stm32g4xx_hal_pwr_ex.c **** /** @defgroup PWREx_PVM_Mode_Mask PWR PVM Mode Mask
  55:Drivers/STM32G4xx_HAL_Driver/Src/stm32g4xx_hal_pwr_ex.c ****   * @{
  56:Drivers/STM32G4xx_HAL_Driver/Src/stm32g4xx_hal_pwr_ex.c ****   */
  57:Drivers/STM32G4xx_HAL_Driver/Src/stm32g4xx_hal_pwr_ex.c **** #define PVM_MODE_IT               0x00010000U    /*!< Mask for interruption yielded by PVM threshol
  58:Drivers/STM32G4xx_HAL_Driver/Src/stm32g4xx_hal_pwr_ex.c **** #define PVM_MODE_EVT              0x00020000U    /*!< Mask for event yielded by PVM threshold cross
  59:Drivers/STM32G4xx_HAL_Driver/Src/stm32g4xx_hal_pwr_ex.c **** #define PVM_RISING_EDGE           0x00000001U    /*!< Mask for rising edge set as PVM trigger      
  60:Drivers/STM32G4xx_HAL_Driver/Src/stm32g4xx_hal_pwr_ex.c **** #define PVM_FALLING_EDGE          0x00000002U    /*!< Mask for falling edge set as PVM trigger     
  61:Drivers/STM32G4xx_HAL_Driver/Src/stm32g4xx_hal_pwr_ex.c **** /**
  62:Drivers/STM32G4xx_HAL_Driver/Src/stm32g4xx_hal_pwr_ex.c ****   * @}
  63:Drivers/STM32G4xx_HAL_Driver/Src/stm32g4xx_hal_pwr_ex.c ****   */
  64:Drivers/STM32G4xx_HAL_Driver/Src/stm32g4xx_hal_pwr_ex.c **** 
  65:Drivers/STM32G4xx_HAL_Driver/Src/stm32g4xx_hal_pwr_ex.c **** /** @defgroup PWREx_TimeOut_Value PWR Extended Flag Setting Time Out Value
  66:Drivers/STM32G4xx_HAL_Driver/Src/stm32g4xx_hal_pwr_ex.c ****   * @{
  67:Drivers/STM32G4xx_HAL_Driver/Src/stm32g4xx_hal_pwr_ex.c ****   */
  68:Drivers/STM32G4xx_HAL_Driver/Src/stm32g4xx_hal_pwr_ex.c **** #define PWR_FLAG_SETTING_DELAY_US                      50UL   /*!< Time out value for REGLPF and VO
  69:Drivers/STM32G4xx_HAL_Driver/Src/stm32g4xx_hal_pwr_ex.c **** /**
  70:Drivers/STM32G4xx_HAL_Driver/Src/stm32g4xx_hal_pwr_ex.c ****   * @}
  71:Drivers/STM32G4xx_HAL_Driver/Src/stm32g4xx_hal_pwr_ex.c ****   */
  72:Drivers/STM32G4xx_HAL_Driver/Src/stm32g4xx_hal_pwr_ex.c **** 
  73:Drivers/STM32G4xx_HAL_Driver/Src/stm32g4xx_hal_pwr_ex.c **** 
  74:Drivers/STM32G4xx_HAL_Driver/Src/stm32g4xx_hal_pwr_ex.c **** 
  75:Drivers/STM32G4xx_HAL_Driver/Src/stm32g4xx_hal_pwr_ex.c **** /**
  76:Drivers/STM32G4xx_HAL_Driver/Src/stm32g4xx_hal_pwr_ex.c ****   * @}
  77:Drivers/STM32G4xx_HAL_Driver/Src/stm32g4xx_hal_pwr_ex.c ****   */
  78:Drivers/STM32G4xx_HAL_Driver/Src/stm32g4xx_hal_pwr_ex.c **** 
  79:Drivers/STM32G4xx_HAL_Driver/Src/stm32g4xx_hal_pwr_ex.c **** 
  80:Drivers/STM32G4xx_HAL_Driver/Src/stm32g4xx_hal_pwr_ex.c **** 
  81:Drivers/STM32G4xx_HAL_Driver/Src/stm32g4xx_hal_pwr_ex.c **** /* Private macro -------------------------------------------------------------*/
  82:Drivers/STM32G4xx_HAL_Driver/Src/stm32g4xx_hal_pwr_ex.c **** /* Private variables ---------------------------------------------------------*/
  83:Drivers/STM32G4xx_HAL_Driver/Src/stm32g4xx_hal_pwr_ex.c **** /* Private function prototypes -----------------------------------------------*/
  84:Drivers/STM32G4xx_HAL_Driver/Src/stm32g4xx_hal_pwr_ex.c **** /* Exported functions --------------------------------------------------------*/
  85:Drivers/STM32G4xx_HAL_Driver/Src/stm32g4xx_hal_pwr_ex.c **** 
  86:Drivers/STM32G4xx_HAL_Driver/Src/stm32g4xx_hal_pwr_ex.c **** /** @defgroup PWREx_Exported_Functions PWR Extended Exported Functions
ARM GAS  /tmp/ccK442Dq.s 			page 3


  87:Drivers/STM32G4xx_HAL_Driver/Src/stm32g4xx_hal_pwr_ex.c ****   * @{
  88:Drivers/STM32G4xx_HAL_Driver/Src/stm32g4xx_hal_pwr_ex.c ****   */
  89:Drivers/STM32G4xx_HAL_Driver/Src/stm32g4xx_hal_pwr_ex.c **** 
  90:Drivers/STM32G4xx_HAL_Driver/Src/stm32g4xx_hal_pwr_ex.c **** /** @defgroup PWREx_Exported_Functions_Group1 Extended Peripheral Control functions
  91:Drivers/STM32G4xx_HAL_Driver/Src/stm32g4xx_hal_pwr_ex.c ****   *  @brief   Extended Peripheral Control functions
  92:Drivers/STM32G4xx_HAL_Driver/Src/stm32g4xx_hal_pwr_ex.c ****   *
  93:Drivers/STM32G4xx_HAL_Driver/Src/stm32g4xx_hal_pwr_ex.c **** @verbatim
  94:Drivers/STM32G4xx_HAL_Driver/Src/stm32g4xx_hal_pwr_ex.c ****  ===============================================================================
  95:Drivers/STM32G4xx_HAL_Driver/Src/stm32g4xx_hal_pwr_ex.c ****               ##### Extended Peripheral Initialization and de-initialization functions #####
  96:Drivers/STM32G4xx_HAL_Driver/Src/stm32g4xx_hal_pwr_ex.c ****  ===============================================================================
  97:Drivers/STM32G4xx_HAL_Driver/Src/stm32g4xx_hal_pwr_ex.c ****     [..]
  98:Drivers/STM32G4xx_HAL_Driver/Src/stm32g4xx_hal_pwr_ex.c **** 
  99:Drivers/STM32G4xx_HAL_Driver/Src/stm32g4xx_hal_pwr_ex.c **** @endverbatim
 100:Drivers/STM32G4xx_HAL_Driver/Src/stm32g4xx_hal_pwr_ex.c ****   * @{
 101:Drivers/STM32G4xx_HAL_Driver/Src/stm32g4xx_hal_pwr_ex.c ****   */
 102:Drivers/STM32G4xx_HAL_Driver/Src/stm32g4xx_hal_pwr_ex.c **** 
 103:Drivers/STM32G4xx_HAL_Driver/Src/stm32g4xx_hal_pwr_ex.c **** 
 104:Drivers/STM32G4xx_HAL_Driver/Src/stm32g4xx_hal_pwr_ex.c **** /**
 105:Drivers/STM32G4xx_HAL_Driver/Src/stm32g4xx_hal_pwr_ex.c ****   * @brief Return Voltage Scaling Range.
 106:Drivers/STM32G4xx_HAL_Driver/Src/stm32g4xx_hal_pwr_ex.c ****   * @retval VOS bit field (PWR_REGULATOR_VOLTAGE_SCALE1 or PWR_REGULATOR_VOLTAGE_SCALE2
 107:Drivers/STM32G4xx_HAL_Driver/Src/stm32g4xx_hal_pwr_ex.c ****   *         or PWR_REGULATOR_VOLTAGE_SCALE1_BOOST when applicable)
 108:Drivers/STM32G4xx_HAL_Driver/Src/stm32g4xx_hal_pwr_ex.c ****   */
 109:Drivers/STM32G4xx_HAL_Driver/Src/stm32g4xx_hal_pwr_ex.c **** uint32_t HAL_PWREx_GetVoltageRange(void)
 110:Drivers/STM32G4xx_HAL_Driver/Src/stm32g4xx_hal_pwr_ex.c **** {
  30              		.loc 1 110 1 view -0
  31              		.cfi_startproc
  32              		@ args = 0, pretend = 0, frame = 0
  33              		@ frame_needed = 0, uses_anonymous_args = 0
  34              		@ link register save eliminated.
 111:Drivers/STM32G4xx_HAL_Driver/Src/stm32g4xx_hal_pwr_ex.c ****   if (READ_BIT(PWR->CR1, PWR_CR1_VOS) == PWR_REGULATOR_VOLTAGE_SCALE2)
  35              		.loc 1 111 3 view .LVU1
  36              		.loc 1 111 7 is_stmt 0 view .LVU2
  37 0000 074B     		ldr	r3, .L8
  38 0002 1868     		ldr	r0, [r3]
  39 0004 00F4C060 		and	r0, r0, #1536
  40              		.loc 1 111 6 view .LVU3
  41 0008 B0F5806F 		cmp	r0, #1024
  42 000c 06D0     		beq	.L1
 112:Drivers/STM32G4xx_HAL_Driver/Src/stm32g4xx_hal_pwr_ex.c ****   {
 113:Drivers/STM32G4xx_HAL_Driver/Src/stm32g4xx_hal_pwr_ex.c ****     return PWR_REGULATOR_VOLTAGE_SCALE2;
 114:Drivers/STM32G4xx_HAL_Driver/Src/stm32g4xx_hal_pwr_ex.c ****   }
 115:Drivers/STM32G4xx_HAL_Driver/Src/stm32g4xx_hal_pwr_ex.c ****   else if (READ_BIT(PWR->CR5, PWR_CR5_R1MODE) == PWR_CR5_R1MODE)
  43              		.loc 1 115 8 is_stmt 1 view .LVU4
  44              		.loc 1 115 12 is_stmt 0 view .LVU5
  45 000e D3F88000 		ldr	r0, [r3, #128]
 116:Drivers/STM32G4xx_HAL_Driver/Src/stm32g4xx_hal_pwr_ex.c ****   {
 117:Drivers/STM32G4xx_HAL_Driver/Src/stm32g4xx_hal_pwr_ex.c ****     /* PWR_CR5_R1MODE bit set means that Range 1 Boost is disabled */
 118:Drivers/STM32G4xx_HAL_Driver/Src/stm32g4xx_hal_pwr_ex.c ****     return PWR_REGULATOR_VOLTAGE_SCALE1;
  46              		.loc 1 118 12 view .LVU6
  47 0012 10F48070 		ands	r0, r0, #256
  48 0016 18BF     		it	ne
  49 0018 4FF40070 		movne	r0, #512
  50              	.L1:
 119:Drivers/STM32G4xx_HAL_Driver/Src/stm32g4xx_hal_pwr_ex.c ****   }
 120:Drivers/STM32G4xx_HAL_Driver/Src/stm32g4xx_hal_pwr_ex.c ****   else
 121:Drivers/STM32G4xx_HAL_Driver/Src/stm32g4xx_hal_pwr_ex.c ****   {
 122:Drivers/STM32G4xx_HAL_Driver/Src/stm32g4xx_hal_pwr_ex.c ****     return PWR_REGULATOR_VOLTAGE_SCALE1_BOOST;
ARM GAS  /tmp/ccK442Dq.s 			page 4


 123:Drivers/STM32G4xx_HAL_Driver/Src/stm32g4xx_hal_pwr_ex.c ****   }
 124:Drivers/STM32G4xx_HAL_Driver/Src/stm32g4xx_hal_pwr_ex.c **** }
  51              		.loc 1 124 1 view .LVU7
  52 001c 7047     		bx	lr
  53              	.L9:
  54 001e 00BF     		.align	2
  55              	.L8:
  56 0020 00700040 		.word	1073770496
  57              		.cfi_endproc
  58              	.LFE132:
  60              		.section	.text.HAL_PWREx_ControlVoltageScaling,"ax",%progbits
  61              		.align	1
  62              		.p2align 2,,3
  63              		.global	HAL_PWREx_ControlVoltageScaling
  64              		.syntax unified
  65              		.thumb
  66              		.thumb_func
  67              		.fpu fpv4-sp-d16
  69              	HAL_PWREx_ControlVoltageScaling:
  70              	.LVL0:
  71              	.LFB133:
 125:Drivers/STM32G4xx_HAL_Driver/Src/stm32g4xx_hal_pwr_ex.c **** 
 126:Drivers/STM32G4xx_HAL_Driver/Src/stm32g4xx_hal_pwr_ex.c **** 
 127:Drivers/STM32G4xx_HAL_Driver/Src/stm32g4xx_hal_pwr_ex.c **** 
 128:Drivers/STM32G4xx_HAL_Driver/Src/stm32g4xx_hal_pwr_ex.c **** /**
 129:Drivers/STM32G4xx_HAL_Driver/Src/stm32g4xx_hal_pwr_ex.c ****   * @brief Configure the main internal regulator output voltage.
 130:Drivers/STM32G4xx_HAL_Driver/Src/stm32g4xx_hal_pwr_ex.c ****   * @param  VoltageScaling: specifies the regulator output voltage to achieve
 131:Drivers/STM32G4xx_HAL_Driver/Src/stm32g4xx_hal_pwr_ex.c ****   *         a tradeoff between performance and power consumption.
 132:Drivers/STM32G4xx_HAL_Driver/Src/stm32g4xx_hal_pwr_ex.c ****   *          This parameter can be one of the following values:
 133:Drivers/STM32G4xx_HAL_Driver/Src/stm32g4xx_hal_pwr_ex.c ****   *            @arg @ref PWR_REGULATOR_VOLTAGE_SCALE1_BOOST when available, Regulator voltage outpu
 134:Drivers/STM32G4xx_HAL_Driver/Src/stm32g4xx_hal_pwr_ex.c ****   *                                                typical output voltage at 1.28 V,
 135:Drivers/STM32G4xx_HAL_Driver/Src/stm32g4xx_hal_pwr_ex.c ****   *                                                system frequency up to 170 MHz.
 136:Drivers/STM32G4xx_HAL_Driver/Src/stm32g4xx_hal_pwr_ex.c ****   *            @arg @ref PWR_REGULATOR_VOLTAGE_SCALE1 Regulator voltage output range 1 mode,
 137:Drivers/STM32G4xx_HAL_Driver/Src/stm32g4xx_hal_pwr_ex.c ****   *                                                typical output voltage at 1.2 V,
 138:Drivers/STM32G4xx_HAL_Driver/Src/stm32g4xx_hal_pwr_ex.c ****   *                                                system frequency up to 150 MHz.
 139:Drivers/STM32G4xx_HAL_Driver/Src/stm32g4xx_hal_pwr_ex.c ****   *            @arg @ref PWR_REGULATOR_VOLTAGE_SCALE2 Regulator voltage output range 2 mode,
 140:Drivers/STM32G4xx_HAL_Driver/Src/stm32g4xx_hal_pwr_ex.c ****   *                                                typical output voltage at 1.0 V,
 141:Drivers/STM32G4xx_HAL_Driver/Src/stm32g4xx_hal_pwr_ex.c ****   *                                                system frequency up to 26 MHz.
 142:Drivers/STM32G4xx_HAL_Driver/Src/stm32g4xx_hal_pwr_ex.c ****   * @note  When moving from Range 1 to Range 2, the system frequency must be decreased to
 143:Drivers/STM32G4xx_HAL_Driver/Src/stm32g4xx_hal_pwr_ex.c ****   *        a value below 26 MHz before calling HAL_PWREx_ControlVoltageScaling() API.
 144:Drivers/STM32G4xx_HAL_Driver/Src/stm32g4xx_hal_pwr_ex.c ****   *        When moving from Range 2 to Range 1, the system frequency can be increased to
 145:Drivers/STM32G4xx_HAL_Driver/Src/stm32g4xx_hal_pwr_ex.c ****   *        a value up to 150 MHz after calling HAL_PWREx_ControlVoltageScaling() API.
 146:Drivers/STM32G4xx_HAL_Driver/Src/stm32g4xx_hal_pwr_ex.c ****   *        When moving from Range 1 to Boost Mode Range 1, the system frequency can be increased to
 147:Drivers/STM32G4xx_HAL_Driver/Src/stm32g4xx_hal_pwr_ex.c ****   *        a value up to 170 MHz after calling HAL_PWREx_ControlVoltageScaling() API.
 148:Drivers/STM32G4xx_HAL_Driver/Src/stm32g4xx_hal_pwr_ex.c ****   * @note  When moving from Range 2 to Range 1, the API waits for VOSF flag to be
 149:Drivers/STM32G4xx_HAL_Driver/Src/stm32g4xx_hal_pwr_ex.c ****   *        cleared before returning the status. If the flag is not cleared within
 150:Drivers/STM32G4xx_HAL_Driver/Src/stm32g4xx_hal_pwr_ex.c ****   *        50 microseconds, HAL_TIMEOUT status is reported.
 151:Drivers/STM32G4xx_HAL_Driver/Src/stm32g4xx_hal_pwr_ex.c ****   * @retval HAL Status
 152:Drivers/STM32G4xx_HAL_Driver/Src/stm32g4xx_hal_pwr_ex.c ****   */
 153:Drivers/STM32G4xx_HAL_Driver/Src/stm32g4xx_hal_pwr_ex.c **** HAL_StatusTypeDef HAL_PWREx_ControlVoltageScaling(uint32_t VoltageScaling)
 154:Drivers/STM32G4xx_HAL_Driver/Src/stm32g4xx_hal_pwr_ex.c **** {
  72              		.loc 1 154 1 is_stmt 1 view -0
  73              		.cfi_startproc
  74              		@ args = 0, pretend = 0, frame = 0
  75              		@ frame_needed = 0, uses_anonymous_args = 0
  76              		@ link register save eliminated.
 155:Drivers/STM32G4xx_HAL_Driver/Src/stm32g4xx_hal_pwr_ex.c ****   uint32_t wait_loop_index;
ARM GAS  /tmp/ccK442Dq.s 			page 5


  77              		.loc 1 155 3 view .LVU9
 156:Drivers/STM32G4xx_HAL_Driver/Src/stm32g4xx_hal_pwr_ex.c **** 
 157:Drivers/STM32G4xx_HAL_Driver/Src/stm32g4xx_hal_pwr_ex.c ****   assert_param(IS_PWR_VOLTAGE_SCALING_RANGE(VoltageScaling));
  78              		.loc 1 157 3 view .LVU10
 158:Drivers/STM32G4xx_HAL_Driver/Src/stm32g4xx_hal_pwr_ex.c **** 
 159:Drivers/STM32G4xx_HAL_Driver/Src/stm32g4xx_hal_pwr_ex.c ****   if (VoltageScaling == PWR_REGULATOR_VOLTAGE_SCALE1_BOOST)
  79              		.loc 1 159 3 view .LVU11
 154:Drivers/STM32G4xx_HAL_Driver/Src/stm32g4xx_hal_pwr_ex.c ****   uint32_t wait_loop_index;
  80              		.loc 1 154 1 is_stmt 0 view .LVU12
  81 0000 10B4     		push	{r4}
  82              	.LCFI0:
  83              		.cfi_def_cfa_offset 4
  84              		.cfi_offset 4, -4
 160:Drivers/STM32G4xx_HAL_Driver/Src/stm32g4xx_hal_pwr_ex.c ****   {
 161:Drivers/STM32G4xx_HAL_Driver/Src/stm32g4xx_hal_pwr_ex.c ****     /* If current range is range 2 */
 162:Drivers/STM32G4xx_HAL_Driver/Src/stm32g4xx_hal_pwr_ex.c ****     if (READ_BIT(PWR->CR1, PWR_CR1_VOS) == PWR_REGULATOR_VOLTAGE_SCALE2)
  85              		.loc 1 162 9 view .LVU13
  86 0002 3B4A     		ldr	r2, .L42
 159:Drivers/STM32G4xx_HAL_Driver/Src/stm32g4xx_hal_pwr_ex.c ****   {
  87              		.loc 1 159 6 view .LVU14
  88 0004 70B9     		cbnz	r0, .L11
  89              		.loc 1 162 5 is_stmt 1 view .LVU15
  90              		.loc 1 162 9 is_stmt 0 view .LVU16
  91 0006 1368     		ldr	r3, [r2]
  92 0008 03F4C063 		and	r3, r3, #1536
  93              		.loc 1 162 8 view .LVU17
  94 000c B3F5806F 		cmp	r3, #1024
 163:Drivers/STM32G4xx_HAL_Driver/Src/stm32g4xx_hal_pwr_ex.c ****     {
 164:Drivers/STM32G4xx_HAL_Driver/Src/stm32g4xx_hal_pwr_ex.c ****       /* Make sure Range 1 Boost is enabled */
 165:Drivers/STM32G4xx_HAL_Driver/Src/stm32g4xx_hal_pwr_ex.c ****       CLEAR_BIT(PWR->CR5, PWR_CR5_R1MODE);
  95              		.loc 1 165 7 view .LVU18
  96 0010 D2F88030 		ldr	r3, [r2, #128]
 162:Drivers/STM32G4xx_HAL_Driver/Src/stm32g4xx_hal_pwr_ex.c ****     {
  97              		.loc 1 162 8 view .LVU19
  98 0014 23D0     		beq	.L37
 166:Drivers/STM32G4xx_HAL_Driver/Src/stm32g4xx_hal_pwr_ex.c **** 
 167:Drivers/STM32G4xx_HAL_Driver/Src/stm32g4xx_hal_pwr_ex.c ****       /* Set Range 1 */
 168:Drivers/STM32G4xx_HAL_Driver/Src/stm32g4xx_hal_pwr_ex.c ****       MODIFY_REG(PWR->CR1, PWR_CR1_VOS, PWR_REGULATOR_VOLTAGE_SCALE1);
 169:Drivers/STM32G4xx_HAL_Driver/Src/stm32g4xx_hal_pwr_ex.c **** 
 170:Drivers/STM32G4xx_HAL_Driver/Src/stm32g4xx_hal_pwr_ex.c ****       /* Wait until VOSF is cleared */
 171:Drivers/STM32G4xx_HAL_Driver/Src/stm32g4xx_hal_pwr_ex.c ****       wait_loop_index = ((PWR_FLAG_SETTING_DELAY_US * SystemCoreClock) / 1000000U) + 1U;
 172:Drivers/STM32G4xx_HAL_Driver/Src/stm32g4xx_hal_pwr_ex.c ****       while ((HAL_IS_BIT_SET(PWR->SR2, PWR_SR2_VOSF)) && (wait_loop_index != 0U))
 173:Drivers/STM32G4xx_HAL_Driver/Src/stm32g4xx_hal_pwr_ex.c ****       {
 174:Drivers/STM32G4xx_HAL_Driver/Src/stm32g4xx_hal_pwr_ex.c ****         wait_loop_index--;
 175:Drivers/STM32G4xx_HAL_Driver/Src/stm32g4xx_hal_pwr_ex.c ****       }
 176:Drivers/STM32G4xx_HAL_Driver/Src/stm32g4xx_hal_pwr_ex.c ****       if (HAL_IS_BIT_SET(PWR->SR2, PWR_SR2_VOSF))
 177:Drivers/STM32G4xx_HAL_Driver/Src/stm32g4xx_hal_pwr_ex.c ****       {
 178:Drivers/STM32G4xx_HAL_Driver/Src/stm32g4xx_hal_pwr_ex.c ****         return HAL_TIMEOUT;
 179:Drivers/STM32G4xx_HAL_Driver/Src/stm32g4xx_hal_pwr_ex.c ****       }
 180:Drivers/STM32G4xx_HAL_Driver/Src/stm32g4xx_hal_pwr_ex.c ****     }
 181:Drivers/STM32G4xx_HAL_Driver/Src/stm32g4xx_hal_pwr_ex.c ****     /* If current range is range 1 normal or boost mode */
 182:Drivers/STM32G4xx_HAL_Driver/Src/stm32g4xx_hal_pwr_ex.c ****     else
 183:Drivers/STM32G4xx_HAL_Driver/Src/stm32g4xx_hal_pwr_ex.c ****     {
 184:Drivers/STM32G4xx_HAL_Driver/Src/stm32g4xx_hal_pwr_ex.c ****       /* Enable Range 1 Boost (no issue if bit already reset) */
 185:Drivers/STM32G4xx_HAL_Driver/Src/stm32g4xx_hal_pwr_ex.c ****       CLEAR_BIT(PWR->CR5, PWR_CR5_R1MODE);
  99              		.loc 1 185 7 is_stmt 1 view .LVU20
 100 0016 23F48073 		bic	r3, r3, #256
ARM GAS  /tmp/ccK442Dq.s 			page 6


 186:Drivers/STM32G4xx_HAL_Driver/Src/stm32g4xx_hal_pwr_ex.c ****     }
 187:Drivers/STM32G4xx_HAL_Driver/Src/stm32g4xx_hal_pwr_ex.c ****   }
 188:Drivers/STM32G4xx_HAL_Driver/Src/stm32g4xx_hal_pwr_ex.c ****   else if (VoltageScaling == PWR_REGULATOR_VOLTAGE_SCALE1)
 189:Drivers/STM32G4xx_HAL_Driver/Src/stm32g4xx_hal_pwr_ex.c ****   {
 190:Drivers/STM32G4xx_HAL_Driver/Src/stm32g4xx_hal_pwr_ex.c ****     /* If current range is range 2 */
 191:Drivers/STM32G4xx_HAL_Driver/Src/stm32g4xx_hal_pwr_ex.c ****     if (READ_BIT(PWR->CR1, PWR_CR1_VOS) == PWR_REGULATOR_VOLTAGE_SCALE2)
 192:Drivers/STM32G4xx_HAL_Driver/Src/stm32g4xx_hal_pwr_ex.c ****     {
 193:Drivers/STM32G4xx_HAL_Driver/Src/stm32g4xx_hal_pwr_ex.c ****       /* Make sure Range 1 Boost is disabled */
 194:Drivers/STM32G4xx_HAL_Driver/Src/stm32g4xx_hal_pwr_ex.c ****       SET_BIT(PWR->CR5, PWR_CR5_R1MODE);
 195:Drivers/STM32G4xx_HAL_Driver/Src/stm32g4xx_hal_pwr_ex.c **** 
 196:Drivers/STM32G4xx_HAL_Driver/Src/stm32g4xx_hal_pwr_ex.c ****       /* Set Range 1 */
 197:Drivers/STM32G4xx_HAL_Driver/Src/stm32g4xx_hal_pwr_ex.c ****       MODIFY_REG(PWR->CR1, PWR_CR1_VOS, PWR_REGULATOR_VOLTAGE_SCALE1);
 198:Drivers/STM32G4xx_HAL_Driver/Src/stm32g4xx_hal_pwr_ex.c **** 
 199:Drivers/STM32G4xx_HAL_Driver/Src/stm32g4xx_hal_pwr_ex.c ****       /* Wait until VOSF is cleared */
 200:Drivers/STM32G4xx_HAL_Driver/Src/stm32g4xx_hal_pwr_ex.c ****       wait_loop_index = ((PWR_FLAG_SETTING_DELAY_US * SystemCoreClock) / 1000000U) + 1U;
 201:Drivers/STM32G4xx_HAL_Driver/Src/stm32g4xx_hal_pwr_ex.c ****       while ((HAL_IS_BIT_SET(PWR->SR2, PWR_SR2_VOSF)) && (wait_loop_index != 0U))
 202:Drivers/STM32G4xx_HAL_Driver/Src/stm32g4xx_hal_pwr_ex.c ****       {
 203:Drivers/STM32G4xx_HAL_Driver/Src/stm32g4xx_hal_pwr_ex.c ****         wait_loop_index--;
 204:Drivers/STM32G4xx_HAL_Driver/Src/stm32g4xx_hal_pwr_ex.c ****       }
 205:Drivers/STM32G4xx_HAL_Driver/Src/stm32g4xx_hal_pwr_ex.c ****       if (HAL_IS_BIT_SET(PWR->SR2, PWR_SR2_VOSF))
 206:Drivers/STM32G4xx_HAL_Driver/Src/stm32g4xx_hal_pwr_ex.c ****       {
 207:Drivers/STM32G4xx_HAL_Driver/Src/stm32g4xx_hal_pwr_ex.c ****         return HAL_TIMEOUT;
 208:Drivers/STM32G4xx_HAL_Driver/Src/stm32g4xx_hal_pwr_ex.c ****       }
 209:Drivers/STM32G4xx_HAL_Driver/Src/stm32g4xx_hal_pwr_ex.c ****     }
 210:Drivers/STM32G4xx_HAL_Driver/Src/stm32g4xx_hal_pwr_ex.c ****      /* If current range is range 1 normal or boost mode */
 211:Drivers/STM32G4xx_HAL_Driver/Src/stm32g4xx_hal_pwr_ex.c ****     else
 212:Drivers/STM32G4xx_HAL_Driver/Src/stm32g4xx_hal_pwr_ex.c ****     {
 213:Drivers/STM32G4xx_HAL_Driver/Src/stm32g4xx_hal_pwr_ex.c ****       /* Disable Range 1 Boost (no issue if bit already set) */
 214:Drivers/STM32G4xx_HAL_Driver/Src/stm32g4xx_hal_pwr_ex.c ****       SET_BIT(PWR->CR5, PWR_CR5_R1MODE);
 215:Drivers/STM32G4xx_HAL_Driver/Src/stm32g4xx_hal_pwr_ex.c ****     }
 216:Drivers/STM32G4xx_HAL_Driver/Src/stm32g4xx_hal_pwr_ex.c ****   }
 217:Drivers/STM32G4xx_HAL_Driver/Src/stm32g4xx_hal_pwr_ex.c ****   else
 218:Drivers/STM32G4xx_HAL_Driver/Src/stm32g4xx_hal_pwr_ex.c ****   {
 219:Drivers/STM32G4xx_HAL_Driver/Src/stm32g4xx_hal_pwr_ex.c ****     /* Set Range 2 */
 220:Drivers/STM32G4xx_HAL_Driver/Src/stm32g4xx_hal_pwr_ex.c ****     MODIFY_REG(PWR->CR1, PWR_CR1_VOS, PWR_REGULATOR_VOLTAGE_SCALE2);
 221:Drivers/STM32G4xx_HAL_Driver/Src/stm32g4xx_hal_pwr_ex.c ****     /* No need to wait for VOSF to be cleared for this transition */
 222:Drivers/STM32G4xx_HAL_Driver/Src/stm32g4xx_hal_pwr_ex.c ****     /* PWR_CR5_R1MODE bit setting has no effect in Range 2        */
 223:Drivers/STM32G4xx_HAL_Driver/Src/stm32g4xx_hal_pwr_ex.c ****   }
 224:Drivers/STM32G4xx_HAL_Driver/Src/stm32g4xx_hal_pwr_ex.c **** 
 225:Drivers/STM32G4xx_HAL_Driver/Src/stm32g4xx_hal_pwr_ex.c ****   return HAL_OK;
 226:Drivers/STM32G4xx_HAL_Driver/Src/stm32g4xx_hal_pwr_ex.c **** }
 101              		.loc 1 226 1 is_stmt 0 view .LVU21
 102 001a 5DF8044B 		ldr	r4, [sp], #4
 103              	.LCFI1:
 104              		.cfi_remember_state
 105              		.cfi_restore 4
 106              		.cfi_def_cfa_offset 0
 185:Drivers/STM32G4xx_HAL_Driver/Src/stm32g4xx_hal_pwr_ex.c ****     }
 107              		.loc 1 185 7 view .LVU22
 108 001e C2F88030 		str	r3, [r2, #128]
 109              		.loc 1 226 1 view .LVU23
 110 0022 7047     		bx	lr
 111              	.L11:
 112              	.LCFI2:
 113              		.cfi_restore_state
 188:Drivers/STM32G4xx_HAL_Driver/Src/stm32g4xx_hal_pwr_ex.c ****   {
 114              		.loc 1 188 8 is_stmt 1 view .LVU24
ARM GAS  /tmp/ccK442Dq.s 			page 7


 188:Drivers/STM32G4xx_HAL_Driver/Src/stm32g4xx_hal_pwr_ex.c ****   {
 115              		.loc 1 188 11 is_stmt 0 view .LVU25
 116 0024 B0F5007F 		cmp	r0, #512
 117 0028 09D0     		beq	.L38
 220:Drivers/STM32G4xx_HAL_Driver/Src/stm32g4xx_hal_pwr_ex.c ****     /* No need to wait for VOSF to be cleared for this transition */
 118              		.loc 1 220 5 is_stmt 1 view .LVU26
 119 002a 1368     		ldr	r3, [r2]
 120              		.loc 1 226 1 is_stmt 0 view .LVU27
 121 002c 5DF8044B 		ldr	r4, [sp], #4
 122              	.LCFI3:
 123              		.cfi_remember_state
 124              		.cfi_restore 4
 125              		.cfi_def_cfa_offset 0
 220:Drivers/STM32G4xx_HAL_Driver/Src/stm32g4xx_hal_pwr_ex.c ****     /* No need to wait for VOSF to be cleared for this transition */
 126              		.loc 1 220 5 view .LVU28
 127 0030 23F4C063 		bic	r3, r3, #1536
 128 0034 43F48063 		orr	r3, r3, #1024
 225:Drivers/STM32G4xx_HAL_Driver/Src/stm32g4xx_hal_pwr_ex.c **** }
 129              		.loc 1 225 10 view .LVU29
 130 0038 0020     		movs	r0, #0
 131              	.LVL1:
 220:Drivers/STM32G4xx_HAL_Driver/Src/stm32g4xx_hal_pwr_ex.c ****     /* No need to wait for VOSF to be cleared for this transition */
 132              		.loc 1 220 5 view .LVU30
 133 003a 1360     		str	r3, [r2]
 134              		.loc 1 226 1 view .LVU31
 135 003c 7047     		bx	lr
 136              	.LVL2:
 137              	.L38:
 138              	.LCFI4:
 139              		.cfi_restore_state
 191:Drivers/STM32G4xx_HAL_Driver/Src/stm32g4xx_hal_pwr_ex.c ****     {
 140              		.loc 1 191 5 is_stmt 1 view .LVU32
 191:Drivers/STM32G4xx_HAL_Driver/Src/stm32g4xx_hal_pwr_ex.c ****     {
 141              		.loc 1 191 9 is_stmt 0 view .LVU33
 142 003e 1368     		ldr	r3, [r2]
 143 0040 03F4C063 		and	r3, r3, #1536
 191:Drivers/STM32G4xx_HAL_Driver/Src/stm32g4xx_hal_pwr_ex.c ****     {
 144              		.loc 1 191 8 view .LVU34
 145 0044 B3F5806F 		cmp	r3, #1024
 194:Drivers/STM32G4xx_HAL_Driver/Src/stm32g4xx_hal_pwr_ex.c **** 
 146              		.loc 1 194 7 view .LVU35
 147 0048 D2F88030 		ldr	r3, [r2, #128]
 191:Drivers/STM32G4xx_HAL_Driver/Src/stm32g4xx_hal_pwr_ex.c ****     {
 148              		.loc 1 191 8 view .LVU36
 149 004c 2FD0     		beq	.L39
 214:Drivers/STM32G4xx_HAL_Driver/Src/stm32g4xx_hal_pwr_ex.c ****     }
 150              		.loc 1 214 7 is_stmt 1 view .LVU37
 151 004e 43F48073 		orr	r3, r3, #256
 225:Drivers/STM32G4xx_HAL_Driver/Src/stm32g4xx_hal_pwr_ex.c **** }
 152              		.loc 1 225 10 is_stmt 0 view .LVU38
 153 0052 0020     		movs	r0, #0
 154              	.LVL3:
 155              		.loc 1 226 1 view .LVU39
 156 0054 5DF8044B 		ldr	r4, [sp], #4
 157              	.LCFI5:
 158              		.cfi_remember_state
 159              		.cfi_restore 4
ARM GAS  /tmp/ccK442Dq.s 			page 8


 160              		.cfi_def_cfa_offset 0
 214:Drivers/STM32G4xx_HAL_Driver/Src/stm32g4xx_hal_pwr_ex.c ****     }
 161              		.loc 1 214 7 view .LVU40
 162 0058 C2F88030 		str	r3, [r2, #128]
 163              		.loc 1 226 1 view .LVU41
 164 005c 7047     		bx	lr
 165              	.LVL4:
 166              	.L37:
 167              	.LCFI6:
 168              		.cfi_restore_state
 165:Drivers/STM32G4xx_HAL_Driver/Src/stm32g4xx_hal_pwr_ex.c **** 
 169              		.loc 1 165 7 is_stmt 1 view .LVU42
 170 005e 23F48073 		bic	r3, r3, #256
 171 0062 C2F88030 		str	r3, [r2, #128]
 168:Drivers/STM32G4xx_HAL_Driver/Src/stm32g4xx_hal_pwr_ex.c **** 
 172              		.loc 1 168 7 view .LVU43
 173 0066 1168     		ldr	r1, [r2]
 171:Drivers/STM32G4xx_HAL_Driver/Src/stm32g4xx_hal_pwr_ex.c ****       while ((HAL_IS_BIT_SET(PWR->SR2, PWR_SR2_VOSF)) && (wait_loop_index != 0U))
 174              		.loc 1 171 53 is_stmt 0 view .LVU44
 175 0068 224C     		ldr	r4, .L42+4
 171:Drivers/STM32G4xx_HAL_Driver/Src/stm32g4xx_hal_pwr_ex.c ****       while ((HAL_IS_BIT_SET(PWR->SR2, PWR_SR2_VOSF)) && (wait_loop_index != 0U))
 176              		.loc 1 171 72 view .LVU45
 177 006a 2348     		ldr	r0, .L42+8
 178              	.LVL5:
 168:Drivers/STM32G4xx_HAL_Driver/Src/stm32g4xx_hal_pwr_ex.c **** 
 179              		.loc 1 168 7 view .LVU46
 180 006c 21F4C061 		bic	r1, r1, #1536
 181 0070 41F40071 		orr	r1, r1, #512
 182 0074 1160     		str	r1, [r2]
 171:Drivers/STM32G4xx_HAL_Driver/Src/stm32g4xx_hal_pwr_ex.c ****       while ((HAL_IS_BIT_SET(PWR->SR2, PWR_SR2_VOSF)) && (wait_loop_index != 0U))
 183              		.loc 1 171 7 is_stmt 1 view .LVU47
 171:Drivers/STM32G4xx_HAL_Driver/Src/stm32g4xx_hal_pwr_ex.c ****       while ((HAL_IS_BIT_SET(PWR->SR2, PWR_SR2_VOSF)) && (wait_loop_index != 0U))
 184              		.loc 1 171 53 is_stmt 0 view .LVU48
 185 0076 2368     		ldr	r3, [r4]
 186 0078 3221     		movs	r1, #50
 187 007a 01FB03F3 		mul	r3, r1, r3
 172:Drivers/STM32G4xx_HAL_Driver/Src/stm32g4xx_hal_pwr_ex.c ****       {
 188              		.loc 1 172 15 view .LVU49
 189 007e 5169     		ldr	r1, [r2, #20]
 171:Drivers/STM32G4xx_HAL_Driver/Src/stm32g4xx_hal_pwr_ex.c ****       while ((HAL_IS_BIT_SET(PWR->SR2, PWR_SR2_VOSF)) && (wait_loop_index != 0U))
 190              		.loc 1 171 72 view .LVU50
 191 0080 A0FB0303 		umull	r0, r3, r0, r3
 192 0084 9B0C     		lsrs	r3, r3, #18
 172:Drivers/STM32G4xx_HAL_Driver/Src/stm32g4xx_hal_pwr_ex.c ****       {
 193              		.loc 1 172 13 view .LVU51
 194 0086 4805     		lsls	r0, r1, #21
 171:Drivers/STM32G4xx_HAL_Driver/Src/stm32g4xx_hal_pwr_ex.c ****       while ((HAL_IS_BIT_SET(PWR->SR2, PWR_SR2_VOSF)) && (wait_loop_index != 0U))
 195              		.loc 1 171 23 view .LVU52
 196 0088 03F10103 		add	r3, r3, #1
 197              	.LVL6:
 172:Drivers/STM32G4xx_HAL_Driver/Src/stm32g4xx_hal_pwr_ex.c ****       {
 198              		.loc 1 172 7 is_stmt 1 view .LVU53
 172:Drivers/STM32G4xx_HAL_Driver/Src/stm32g4xx_hal_pwr_ex.c ****       {
 199              		.loc 1 172 13 view .LVU54
 200 008c 06D5     		bpl	.L13
 201 008e 00E0     		b	.L14
 202              	.L40:
ARM GAS  /tmp/ccK442Dq.s 			page 9


 172:Drivers/STM32G4xx_HAL_Driver/Src/stm32g4xx_hal_pwr_ex.c ****       {
 203              		.loc 1 172 55 is_stmt 0 discriminator 1 view .LVU55
 204 0090 23B1     		cbz	r3, .L13
 205              	.L14:
 174:Drivers/STM32G4xx_HAL_Driver/Src/stm32g4xx_hal_pwr_ex.c ****       }
 206              		.loc 1 174 9 is_stmt 1 view .LVU56
 172:Drivers/STM32G4xx_HAL_Driver/Src/stm32g4xx_hal_pwr_ex.c ****       {
 207              		.loc 1 172 15 is_stmt 0 view .LVU57
 208 0092 5169     		ldr	r1, [r2, #20]
 172:Drivers/STM32G4xx_HAL_Driver/Src/stm32g4xx_hal_pwr_ex.c ****       {
 209              		.loc 1 172 13 view .LVU58
 210 0094 4905     		lsls	r1, r1, #21
 174:Drivers/STM32G4xx_HAL_Driver/Src/stm32g4xx_hal_pwr_ex.c ****       }
 211              		.loc 1 174 24 view .LVU59
 212 0096 03F1FF33 		add	r3, r3, #-1
 213              	.LVL7:
 172:Drivers/STM32G4xx_HAL_Driver/Src/stm32g4xx_hal_pwr_ex.c ****       {
 214              		.loc 1 172 13 is_stmt 1 view .LVU60
 215 009a F9D4     		bmi	.L40
 216              	.L13:
 176:Drivers/STM32G4xx_HAL_Driver/Src/stm32g4xx_hal_pwr_ex.c ****       {
 217              		.loc 1 176 7 view .LVU61
 176:Drivers/STM32G4xx_HAL_Driver/Src/stm32g4xx_hal_pwr_ex.c ****       {
 218              		.loc 1 176 11 is_stmt 0 view .LVU62
 219 009c 144B     		ldr	r3, .L42
 220              	.LVL8:
 176:Drivers/STM32G4xx_HAL_Driver/Src/stm32g4xx_hal_pwr_ex.c ****       {
 221              		.loc 1 176 11 view .LVU63
 222 009e 5B69     		ldr	r3, [r3, #20]
 176:Drivers/STM32G4xx_HAL_Driver/Src/stm32g4xx_hal_pwr_ex.c ****       {
 223              		.loc 1 176 10 view .LVU64
 224 00a0 5C05     		lsls	r4, r3, #21
 225:Drivers/STM32G4xx_HAL_Driver/Src/stm32g4xx_hal_pwr_ex.c **** }
 225              		.loc 1 225 10 view .LVU65
 226 00a2 54BF     		ite	pl
 227 00a4 0020     		movpl	r0, #0
 178:Drivers/STM32G4xx_HAL_Driver/Src/stm32g4xx_hal_pwr_ex.c ****       }
 228              		.loc 1 178 9 is_stmt 1 view .LVU66
 178:Drivers/STM32G4xx_HAL_Driver/Src/stm32g4xx_hal_pwr_ex.c ****       }
 229              		.loc 1 178 16 is_stmt 0 view .LVU67
 230 00a6 0320     		movmi	r0, #3
 231              		.loc 1 226 1 view .LVU68
 232 00a8 5DF8044B 		ldr	r4, [sp], #4
 233              	.LCFI7:
 234              		.cfi_remember_state
 235              		.cfi_restore 4
 236              		.cfi_def_cfa_offset 0
 237 00ac 7047     		bx	lr
 238              	.LVL9:
 239              	.L39:
 240              	.LCFI8:
 241              		.cfi_restore_state
 194:Drivers/STM32G4xx_HAL_Driver/Src/stm32g4xx_hal_pwr_ex.c **** 
 242              		.loc 1 194 7 is_stmt 1 view .LVU69
 243 00ae 43F48073 		orr	r3, r3, #256
 244 00b2 C2F88030 		str	r3, [r2, #128]
 197:Drivers/STM32G4xx_HAL_Driver/Src/stm32g4xx_hal_pwr_ex.c **** 
ARM GAS  /tmp/ccK442Dq.s 			page 10


 245              		.loc 1 197 7 view .LVU70
 246 00b6 1168     		ldr	r1, [r2]
 200:Drivers/STM32G4xx_HAL_Driver/Src/stm32g4xx_hal_pwr_ex.c ****       while ((HAL_IS_BIT_SET(PWR->SR2, PWR_SR2_VOSF)) && (wait_loop_index != 0U))
 247              		.loc 1 200 53 is_stmt 0 view .LVU71
 248 00b8 0E4C     		ldr	r4, .L42+4
 200:Drivers/STM32G4xx_HAL_Driver/Src/stm32g4xx_hal_pwr_ex.c ****       while ((HAL_IS_BIT_SET(PWR->SR2, PWR_SR2_VOSF)) && (wait_loop_index != 0U))
 249              		.loc 1 200 72 view .LVU72
 250 00ba 0F48     		ldr	r0, .L42+8
 251              	.LVL10:
 197:Drivers/STM32G4xx_HAL_Driver/Src/stm32g4xx_hal_pwr_ex.c **** 
 252              		.loc 1 197 7 view .LVU73
 253 00bc 21F4C061 		bic	r1, r1, #1536
 254 00c0 41F40071 		orr	r1, r1, #512
 255 00c4 1160     		str	r1, [r2]
 200:Drivers/STM32G4xx_HAL_Driver/Src/stm32g4xx_hal_pwr_ex.c ****       while ((HAL_IS_BIT_SET(PWR->SR2, PWR_SR2_VOSF)) && (wait_loop_index != 0U))
 256              		.loc 1 200 7 is_stmt 1 view .LVU74
 200:Drivers/STM32G4xx_HAL_Driver/Src/stm32g4xx_hal_pwr_ex.c ****       while ((HAL_IS_BIT_SET(PWR->SR2, PWR_SR2_VOSF)) && (wait_loop_index != 0U))
 257              		.loc 1 200 53 is_stmt 0 view .LVU75
 258 00c6 2368     		ldr	r3, [r4]
 259 00c8 3221     		movs	r1, #50
 260 00ca 01FB03F3 		mul	r3, r1, r3
 201:Drivers/STM32G4xx_HAL_Driver/Src/stm32g4xx_hal_pwr_ex.c ****       {
 261              		.loc 1 201 15 view .LVU76
 262 00ce 5169     		ldr	r1, [r2, #20]
 200:Drivers/STM32G4xx_HAL_Driver/Src/stm32g4xx_hal_pwr_ex.c ****       while ((HAL_IS_BIT_SET(PWR->SR2, PWR_SR2_VOSF)) && (wait_loop_index != 0U))
 263              		.loc 1 200 72 view .LVU77
 264 00d0 A0FB0303 		umull	r0, r3, r0, r3
 265 00d4 9B0C     		lsrs	r3, r3, #18
 201:Drivers/STM32G4xx_HAL_Driver/Src/stm32g4xx_hal_pwr_ex.c ****       {
 266              		.loc 1 201 13 view .LVU78
 267 00d6 4805     		lsls	r0, r1, #21
 200:Drivers/STM32G4xx_HAL_Driver/Src/stm32g4xx_hal_pwr_ex.c ****       while ((HAL_IS_BIT_SET(PWR->SR2, PWR_SR2_VOSF)) && (wait_loop_index != 0U))
 268              		.loc 1 200 23 view .LVU79
 269 00d8 03F10103 		add	r3, r3, #1
 270              	.LVL11:
 201:Drivers/STM32G4xx_HAL_Driver/Src/stm32g4xx_hal_pwr_ex.c ****       {
 271              		.loc 1 201 7 is_stmt 1 view .LVU80
 201:Drivers/STM32G4xx_HAL_Driver/Src/stm32g4xx_hal_pwr_ex.c ****       {
 272              		.loc 1 201 13 view .LVU81
 273 00dc DED5     		bpl	.L13
 274 00de 01E0     		b	.L20
 275              	.L41:
 201:Drivers/STM32G4xx_HAL_Driver/Src/stm32g4xx_hal_pwr_ex.c ****       {
 276              		.loc 1 201 55 is_stmt 0 discriminator 1 view .LVU82
 277 00e0 002B     		cmp	r3, #0
 278 00e2 DBD0     		beq	.L13
 279              	.L20:
 203:Drivers/STM32G4xx_HAL_Driver/Src/stm32g4xx_hal_pwr_ex.c ****       }
 280              		.loc 1 203 9 is_stmt 1 view .LVU83
 201:Drivers/STM32G4xx_HAL_Driver/Src/stm32g4xx_hal_pwr_ex.c ****       {
 281              		.loc 1 201 15 is_stmt 0 view .LVU84
 282 00e4 5169     		ldr	r1, [r2, #20]
 201:Drivers/STM32G4xx_HAL_Driver/Src/stm32g4xx_hal_pwr_ex.c ****       {
 283              		.loc 1 201 13 view .LVU85
 284 00e6 4905     		lsls	r1, r1, #21
 203:Drivers/STM32G4xx_HAL_Driver/Src/stm32g4xx_hal_pwr_ex.c ****       }
 285              		.loc 1 203 24 view .LVU86
ARM GAS  /tmp/ccK442Dq.s 			page 11


 286 00e8 03F1FF33 		add	r3, r3, #-1
 287              	.LVL12:
 201:Drivers/STM32G4xx_HAL_Driver/Src/stm32g4xx_hal_pwr_ex.c ****       {
 288              		.loc 1 201 13 is_stmt 1 view .LVU87
 289 00ec D6D5     		bpl	.L13
 290 00ee F7E7     		b	.L41
 291              	.L43:
 292              		.align	2
 293              	.L42:
 294 00f0 00700040 		.word	1073770496
 295 00f4 00000000 		.word	SystemCoreClock
 296 00f8 83DE1B43 		.word	1125899907
 297              		.cfi_endproc
 298              	.LFE133:
 300              		.section	.text.HAL_PWREx_EnableBatteryCharging,"ax",%progbits
 301              		.align	1
 302              		.p2align 2,,3
 303              		.global	HAL_PWREx_EnableBatteryCharging
 304              		.syntax unified
 305              		.thumb
 306              		.thumb_func
 307              		.fpu fpv4-sp-d16
 309              	HAL_PWREx_EnableBatteryCharging:
 310              	.LVL13:
 311              	.LFB134:
 227:Drivers/STM32G4xx_HAL_Driver/Src/stm32g4xx_hal_pwr_ex.c **** 
 228:Drivers/STM32G4xx_HAL_Driver/Src/stm32g4xx_hal_pwr_ex.c **** 
 229:Drivers/STM32G4xx_HAL_Driver/Src/stm32g4xx_hal_pwr_ex.c **** /**
 230:Drivers/STM32G4xx_HAL_Driver/Src/stm32g4xx_hal_pwr_ex.c ****   * @brief Enable battery charging.
 231:Drivers/STM32G4xx_HAL_Driver/Src/stm32g4xx_hal_pwr_ex.c ****   *        When VDD is present, charge the external battery on VBAT through an internal resistor.
 232:Drivers/STM32G4xx_HAL_Driver/Src/stm32g4xx_hal_pwr_ex.c ****   * @param  ResistorSelection: specifies the resistor impedance.
 233:Drivers/STM32G4xx_HAL_Driver/Src/stm32g4xx_hal_pwr_ex.c ****   *          This parameter can be one of the following values:
 234:Drivers/STM32G4xx_HAL_Driver/Src/stm32g4xx_hal_pwr_ex.c ****   *            @arg @ref PWR_BATTERY_CHARGING_RESISTOR_5     5 kOhms resistor
 235:Drivers/STM32G4xx_HAL_Driver/Src/stm32g4xx_hal_pwr_ex.c ****   *            @arg @ref PWR_BATTERY_CHARGING_RESISTOR_1_5 1.5 kOhms resistor
 236:Drivers/STM32G4xx_HAL_Driver/Src/stm32g4xx_hal_pwr_ex.c ****   * @retval None
 237:Drivers/STM32G4xx_HAL_Driver/Src/stm32g4xx_hal_pwr_ex.c ****   */
 238:Drivers/STM32G4xx_HAL_Driver/Src/stm32g4xx_hal_pwr_ex.c **** void HAL_PWREx_EnableBatteryCharging(uint32_t ResistorSelection)
 239:Drivers/STM32G4xx_HAL_Driver/Src/stm32g4xx_hal_pwr_ex.c **** {
 312              		.loc 1 239 1 view -0
 313              		.cfi_startproc
 314              		@ args = 0, pretend = 0, frame = 0
 315              		@ frame_needed = 0, uses_anonymous_args = 0
 316              		@ link register save eliminated.
 240:Drivers/STM32G4xx_HAL_Driver/Src/stm32g4xx_hal_pwr_ex.c ****   assert_param(IS_PWR_BATTERY_RESISTOR_SELECT(ResistorSelection));
 317              		.loc 1 240 3 view .LVU89
 241:Drivers/STM32G4xx_HAL_Driver/Src/stm32g4xx_hal_pwr_ex.c **** 
 242:Drivers/STM32G4xx_HAL_Driver/Src/stm32g4xx_hal_pwr_ex.c ****   /* Specify resistor selection */
 243:Drivers/STM32G4xx_HAL_Driver/Src/stm32g4xx_hal_pwr_ex.c ****   MODIFY_REG(PWR->CR4, PWR_CR4_VBRS, ResistorSelection);
 318              		.loc 1 243 3 view .LVU90
 319 0000 054A     		ldr	r2, .L45
 320 0002 D368     		ldr	r3, [r2, #12]
 321 0004 23F40073 		bic	r3, r3, #512
 322 0008 1843     		orrs	r0, r0, r3
 323              	.LVL14:
 324              		.loc 1 243 3 is_stmt 0 view .LVU91
 325 000a D060     		str	r0, [r2, #12]
 244:Drivers/STM32G4xx_HAL_Driver/Src/stm32g4xx_hal_pwr_ex.c **** 
ARM GAS  /tmp/ccK442Dq.s 			page 12


 245:Drivers/STM32G4xx_HAL_Driver/Src/stm32g4xx_hal_pwr_ex.c ****   /* Enable battery charging */
 246:Drivers/STM32G4xx_HAL_Driver/Src/stm32g4xx_hal_pwr_ex.c ****   SET_BIT(PWR->CR4, PWR_CR4_VBE);
 326              		.loc 1 246 3 is_stmt 1 view .LVU92
 327 000c D368     		ldr	r3, [r2, #12]
 328 000e 43F48073 		orr	r3, r3, #256
 329 0012 D360     		str	r3, [r2, #12]
 247:Drivers/STM32G4xx_HAL_Driver/Src/stm32g4xx_hal_pwr_ex.c **** }
 330              		.loc 1 247 1 is_stmt 0 view .LVU93
 331 0014 7047     		bx	lr
 332              	.L46:
 333 0016 00BF     		.align	2
 334              	.L45:
 335 0018 00700040 		.word	1073770496
 336              		.cfi_endproc
 337              	.LFE134:
 339              		.section	.text.HAL_PWREx_DisableBatteryCharging,"ax",%progbits
 340              		.align	1
 341              		.p2align 2,,3
 342              		.global	HAL_PWREx_DisableBatteryCharging
 343              		.syntax unified
 344              		.thumb
 345              		.thumb_func
 346              		.fpu fpv4-sp-d16
 348              	HAL_PWREx_DisableBatteryCharging:
 349              	.LFB135:
 248:Drivers/STM32G4xx_HAL_Driver/Src/stm32g4xx_hal_pwr_ex.c **** 
 249:Drivers/STM32G4xx_HAL_Driver/Src/stm32g4xx_hal_pwr_ex.c **** 
 250:Drivers/STM32G4xx_HAL_Driver/Src/stm32g4xx_hal_pwr_ex.c **** /**
 251:Drivers/STM32G4xx_HAL_Driver/Src/stm32g4xx_hal_pwr_ex.c ****   * @brief Disable battery charging.
 252:Drivers/STM32G4xx_HAL_Driver/Src/stm32g4xx_hal_pwr_ex.c ****   * @retval None
 253:Drivers/STM32G4xx_HAL_Driver/Src/stm32g4xx_hal_pwr_ex.c ****   */
 254:Drivers/STM32G4xx_HAL_Driver/Src/stm32g4xx_hal_pwr_ex.c **** void HAL_PWREx_DisableBatteryCharging(void)
 255:Drivers/STM32G4xx_HAL_Driver/Src/stm32g4xx_hal_pwr_ex.c **** {
 350              		.loc 1 255 1 is_stmt 1 view -0
 351              		.cfi_startproc
 352              		@ args = 0, pretend = 0, frame = 0
 353              		@ frame_needed = 0, uses_anonymous_args = 0
 354              		@ link register save eliminated.
 256:Drivers/STM32G4xx_HAL_Driver/Src/stm32g4xx_hal_pwr_ex.c ****   CLEAR_BIT(PWR->CR4, PWR_CR4_VBE);
 355              		.loc 1 256 3 view .LVU95
 356 0000 024A     		ldr	r2, .L48
 357 0002 D368     		ldr	r3, [r2, #12]
 358 0004 23F48073 		bic	r3, r3, #256
 359 0008 D360     		str	r3, [r2, #12]
 257:Drivers/STM32G4xx_HAL_Driver/Src/stm32g4xx_hal_pwr_ex.c **** }
 360              		.loc 1 257 1 is_stmt 0 view .LVU96
 361 000a 7047     		bx	lr
 362              	.L49:
 363              		.align	2
 364              	.L48:
 365 000c 00700040 		.word	1073770496
 366              		.cfi_endproc
 367              	.LFE135:
 369              		.section	.text.HAL_PWREx_EnableInternalWakeUpLine,"ax",%progbits
 370              		.align	1
 371              		.p2align 2,,3
 372              		.global	HAL_PWREx_EnableInternalWakeUpLine
ARM GAS  /tmp/ccK442Dq.s 			page 13


 373              		.syntax unified
 374              		.thumb
 375              		.thumb_func
 376              		.fpu fpv4-sp-d16
 378              	HAL_PWREx_EnableInternalWakeUpLine:
 379              	.LFB136:
 258:Drivers/STM32G4xx_HAL_Driver/Src/stm32g4xx_hal_pwr_ex.c **** 
 259:Drivers/STM32G4xx_HAL_Driver/Src/stm32g4xx_hal_pwr_ex.c **** 
 260:Drivers/STM32G4xx_HAL_Driver/Src/stm32g4xx_hal_pwr_ex.c **** /**
 261:Drivers/STM32G4xx_HAL_Driver/Src/stm32g4xx_hal_pwr_ex.c ****   * @brief Enable Internal Wake-up Line.
 262:Drivers/STM32G4xx_HAL_Driver/Src/stm32g4xx_hal_pwr_ex.c ****   * @retval None
 263:Drivers/STM32G4xx_HAL_Driver/Src/stm32g4xx_hal_pwr_ex.c ****   */
 264:Drivers/STM32G4xx_HAL_Driver/Src/stm32g4xx_hal_pwr_ex.c **** void HAL_PWREx_EnableInternalWakeUpLine(void)
 265:Drivers/STM32G4xx_HAL_Driver/Src/stm32g4xx_hal_pwr_ex.c **** {
 380              		.loc 1 265 1 is_stmt 1 view -0
 381              		.cfi_startproc
 382              		@ args = 0, pretend = 0, frame = 0
 383              		@ frame_needed = 0, uses_anonymous_args = 0
 384              		@ link register save eliminated.
 266:Drivers/STM32G4xx_HAL_Driver/Src/stm32g4xx_hal_pwr_ex.c ****   SET_BIT(PWR->CR3, PWR_CR3_EIWF);
 385              		.loc 1 266 3 view .LVU98
 386 0000 024A     		ldr	r2, .L51
 387 0002 9368     		ldr	r3, [r2, #8]
 388 0004 43F40043 		orr	r3, r3, #32768
 389 0008 9360     		str	r3, [r2, #8]
 267:Drivers/STM32G4xx_HAL_Driver/Src/stm32g4xx_hal_pwr_ex.c **** }
 390              		.loc 1 267 1 is_stmt 0 view .LVU99
 391 000a 7047     		bx	lr
 392              	.L52:
 393              		.align	2
 394              	.L51:
 395 000c 00700040 		.word	1073770496
 396              		.cfi_endproc
 397              	.LFE136:
 399              		.section	.text.HAL_PWREx_DisableInternalWakeUpLine,"ax",%progbits
 400              		.align	1
 401              		.p2align 2,,3
 402              		.global	HAL_PWREx_DisableInternalWakeUpLine
 403              		.syntax unified
 404              		.thumb
 405              		.thumb_func
 406              		.fpu fpv4-sp-d16
 408              	HAL_PWREx_DisableInternalWakeUpLine:
 409              	.LFB137:
 268:Drivers/STM32G4xx_HAL_Driver/Src/stm32g4xx_hal_pwr_ex.c **** 
 269:Drivers/STM32G4xx_HAL_Driver/Src/stm32g4xx_hal_pwr_ex.c **** 
 270:Drivers/STM32G4xx_HAL_Driver/Src/stm32g4xx_hal_pwr_ex.c **** /**
 271:Drivers/STM32G4xx_HAL_Driver/Src/stm32g4xx_hal_pwr_ex.c ****   * @brief Disable Internal Wake-up Line.
 272:Drivers/STM32G4xx_HAL_Driver/Src/stm32g4xx_hal_pwr_ex.c ****   * @retval None
 273:Drivers/STM32G4xx_HAL_Driver/Src/stm32g4xx_hal_pwr_ex.c ****   */
 274:Drivers/STM32G4xx_HAL_Driver/Src/stm32g4xx_hal_pwr_ex.c **** void HAL_PWREx_DisableInternalWakeUpLine(void)
 275:Drivers/STM32G4xx_HAL_Driver/Src/stm32g4xx_hal_pwr_ex.c **** {
 410              		.loc 1 275 1 is_stmt 1 view -0
 411              		.cfi_startproc
 412              		@ args = 0, pretend = 0, frame = 0
 413              		@ frame_needed = 0, uses_anonymous_args = 0
 414              		@ link register save eliminated.
ARM GAS  /tmp/ccK442Dq.s 			page 14


 276:Drivers/STM32G4xx_HAL_Driver/Src/stm32g4xx_hal_pwr_ex.c ****   CLEAR_BIT(PWR->CR3, PWR_CR3_EIWF);
 415              		.loc 1 276 3 view .LVU101
 416 0000 024A     		ldr	r2, .L54
 417 0002 9368     		ldr	r3, [r2, #8]
 418 0004 23F40043 		bic	r3, r3, #32768
 419 0008 9360     		str	r3, [r2, #8]
 277:Drivers/STM32G4xx_HAL_Driver/Src/stm32g4xx_hal_pwr_ex.c **** }
 420              		.loc 1 277 1 is_stmt 0 view .LVU102
 421 000a 7047     		bx	lr
 422              	.L55:
 423              		.align	2
 424              	.L54:
 425 000c 00700040 		.word	1073770496
 426              		.cfi_endproc
 427              	.LFE137:
 429              		.section	.text.HAL_PWREx_EnableGPIOPullUp,"ax",%progbits
 430              		.align	1
 431              		.p2align 2,,3
 432              		.global	HAL_PWREx_EnableGPIOPullUp
 433              		.syntax unified
 434              		.thumb
 435              		.thumb_func
 436              		.fpu fpv4-sp-d16
 438              	HAL_PWREx_EnableGPIOPullUp:
 439              	.LVL15:
 440              	.LFB138:
 278:Drivers/STM32G4xx_HAL_Driver/Src/stm32g4xx_hal_pwr_ex.c **** 
 279:Drivers/STM32G4xx_HAL_Driver/Src/stm32g4xx_hal_pwr_ex.c **** 
 280:Drivers/STM32G4xx_HAL_Driver/Src/stm32g4xx_hal_pwr_ex.c **** 
 281:Drivers/STM32G4xx_HAL_Driver/Src/stm32g4xx_hal_pwr_ex.c **** /**
 282:Drivers/STM32G4xx_HAL_Driver/Src/stm32g4xx_hal_pwr_ex.c ****   * @brief Enable GPIO pull-up state in Standby and Shutdown modes.
 283:Drivers/STM32G4xx_HAL_Driver/Src/stm32g4xx_hal_pwr_ex.c ****   * @note  Set the relevant PUy bits of PWR_PUCRx register to configure the I/O in
 284:Drivers/STM32G4xx_HAL_Driver/Src/stm32g4xx_hal_pwr_ex.c ****   *        pull-up state in Standby and Shutdown modes.
 285:Drivers/STM32G4xx_HAL_Driver/Src/stm32g4xx_hal_pwr_ex.c ****   * @note  This state is effective in Standby and Shutdown modes only if APC bit
 286:Drivers/STM32G4xx_HAL_Driver/Src/stm32g4xx_hal_pwr_ex.c ****   *        is set through HAL_PWREx_EnablePullUpPullDownConfig() API.
 287:Drivers/STM32G4xx_HAL_Driver/Src/stm32g4xx_hal_pwr_ex.c ****   * @note  The configuration is lost when exiting the Shutdown mode due to the
 288:Drivers/STM32G4xx_HAL_Driver/Src/stm32g4xx_hal_pwr_ex.c ****   *        power-on reset, maintained when exiting the Standby mode.
 289:Drivers/STM32G4xx_HAL_Driver/Src/stm32g4xx_hal_pwr_ex.c ****   * @note  To avoid any conflict at Standby and Shutdown modes exits, the corresponding
 290:Drivers/STM32G4xx_HAL_Driver/Src/stm32g4xx_hal_pwr_ex.c ****   *        PDy bit of PWR_PDCRx register is cleared unless it is reserved.
 291:Drivers/STM32G4xx_HAL_Driver/Src/stm32g4xx_hal_pwr_ex.c ****   * @note  Even if a PUy bit to set is reserved, the other PUy bits entered as input
 292:Drivers/STM32G4xx_HAL_Driver/Src/stm32g4xx_hal_pwr_ex.c ****   *        parameter at the same time are set.
 293:Drivers/STM32G4xx_HAL_Driver/Src/stm32g4xx_hal_pwr_ex.c ****   * @param  GPIO: Specify the IO port. This parameter can be PWR_GPIO_A, ..., PWR_GPIO_G
 294:Drivers/STM32G4xx_HAL_Driver/Src/stm32g4xx_hal_pwr_ex.c ****   *         (or PWR_GPIO_I depending on the devices) to select the GPIO peripheral.
 295:Drivers/STM32G4xx_HAL_Driver/Src/stm32g4xx_hal_pwr_ex.c ****   * @param  GPIONumber: Specify the I/O pins numbers.
 296:Drivers/STM32G4xx_HAL_Driver/Src/stm32g4xx_hal_pwr_ex.c ****   *         This parameter can be one of the following values:
 297:Drivers/STM32G4xx_HAL_Driver/Src/stm32g4xx_hal_pwr_ex.c ****   *         PWR_GPIO_BIT_0, ..., PWR_GPIO_BIT_15 (except for the port where less
 298:Drivers/STM32G4xx_HAL_Driver/Src/stm32g4xx_hal_pwr_ex.c ****   *         I/O pins are available) or the logical OR of several of them to set
 299:Drivers/STM32G4xx_HAL_Driver/Src/stm32g4xx_hal_pwr_ex.c ****   *         several bits for a given port in a single API call.
 300:Drivers/STM32G4xx_HAL_Driver/Src/stm32g4xx_hal_pwr_ex.c ****   * @retval HAL Status
 301:Drivers/STM32G4xx_HAL_Driver/Src/stm32g4xx_hal_pwr_ex.c ****   */
 302:Drivers/STM32G4xx_HAL_Driver/Src/stm32g4xx_hal_pwr_ex.c **** HAL_StatusTypeDef HAL_PWREx_EnableGPIOPullUp(uint32_t GPIO, uint32_t GPIONumber)
 303:Drivers/STM32G4xx_HAL_Driver/Src/stm32g4xx_hal_pwr_ex.c **** {
 441              		.loc 1 303 1 is_stmt 1 view -0
 442              		.cfi_startproc
 443              		@ args = 0, pretend = 0, frame = 0
 444              		@ frame_needed = 0, uses_anonymous_args = 0
 445              		@ link register save eliminated.
ARM GAS  /tmp/ccK442Dq.s 			page 15


 304:Drivers/STM32G4xx_HAL_Driver/Src/stm32g4xx_hal_pwr_ex.c ****   HAL_StatusTypeDef status = HAL_OK;
 446              		.loc 1 304 3 view .LVU104
 305:Drivers/STM32G4xx_HAL_Driver/Src/stm32g4xx_hal_pwr_ex.c **** 
 306:Drivers/STM32G4xx_HAL_Driver/Src/stm32g4xx_hal_pwr_ex.c ****   assert_param(IS_PWR_GPIO(GPIO));
 447              		.loc 1 306 3 view .LVU105
 307:Drivers/STM32G4xx_HAL_Driver/Src/stm32g4xx_hal_pwr_ex.c ****   assert_param(IS_PWR_GPIO_BIT_NUMBER(GPIONumber));
 448              		.loc 1 307 3 view .LVU106
 308:Drivers/STM32G4xx_HAL_Driver/Src/stm32g4xx_hal_pwr_ex.c **** 
 309:Drivers/STM32G4xx_HAL_Driver/Src/stm32g4xx_hal_pwr_ex.c ****   switch (GPIO)
 449              		.loc 1 309 3 view .LVU107
 450 0000 0628     		cmp	r0, #6
 451 0002 54D8     		bhi	.L66
 452 0004 DFE800F0 		tbb	[pc, r0]
 453              	.L59:
 454 0008 0E       		.byte	(.L65-.L59)/2
 455 0009 1C       		.byte	(.L64-.L59)/2
 456 000a 28       		.byte	(.L63-.L59)/2
 457 000b 32       		.byte	(.L62-.L59)/2
 458 000c 3C       		.byte	(.L61-.L59)/2
 459 000d 46       		.byte	(.L60-.L59)/2
 460 000e 04       		.byte	(.L58-.L59)/2
 461 000f 00       		.p2align 1
 462              	.L58:
 310:Drivers/STM32G4xx_HAL_Driver/Src/stm32g4xx_hal_pwr_ex.c ****   {
 311:Drivers/STM32G4xx_HAL_Driver/Src/stm32g4xx_hal_pwr_ex.c ****     case PWR_GPIO_A:
 312:Drivers/STM32G4xx_HAL_Driver/Src/stm32g4xx_hal_pwr_ex.c ****        SET_BIT(PWR->PUCRA, (GPIONumber & (~(PWR_GPIO_BIT_14))));
 313:Drivers/STM32G4xx_HAL_Driver/Src/stm32g4xx_hal_pwr_ex.c ****        CLEAR_BIT(PWR->PDCRA, (GPIONumber & (~(PWR_GPIO_BIT_13|PWR_GPIO_BIT_15))));
 314:Drivers/STM32G4xx_HAL_Driver/Src/stm32g4xx_hal_pwr_ex.c ****        break;
 315:Drivers/STM32G4xx_HAL_Driver/Src/stm32g4xx_hal_pwr_ex.c ****     case PWR_GPIO_B:
 316:Drivers/STM32G4xx_HAL_Driver/Src/stm32g4xx_hal_pwr_ex.c ****        SET_BIT(PWR->PUCRB, GPIONumber);
 317:Drivers/STM32G4xx_HAL_Driver/Src/stm32g4xx_hal_pwr_ex.c ****        CLEAR_BIT(PWR->PDCRB, (GPIONumber & (~(PWR_GPIO_BIT_4))));
 318:Drivers/STM32G4xx_HAL_Driver/Src/stm32g4xx_hal_pwr_ex.c ****        break;
 319:Drivers/STM32G4xx_HAL_Driver/Src/stm32g4xx_hal_pwr_ex.c ****     case PWR_GPIO_C:
 320:Drivers/STM32G4xx_HAL_Driver/Src/stm32g4xx_hal_pwr_ex.c ****        SET_BIT(PWR->PUCRC, GPIONumber);
 321:Drivers/STM32G4xx_HAL_Driver/Src/stm32g4xx_hal_pwr_ex.c ****        CLEAR_BIT(PWR->PDCRC, GPIONumber);
 322:Drivers/STM32G4xx_HAL_Driver/Src/stm32g4xx_hal_pwr_ex.c ****        break;
 323:Drivers/STM32G4xx_HAL_Driver/Src/stm32g4xx_hal_pwr_ex.c ****     case PWR_GPIO_D:
 324:Drivers/STM32G4xx_HAL_Driver/Src/stm32g4xx_hal_pwr_ex.c ****        SET_BIT(PWR->PUCRD, GPIONumber);
 325:Drivers/STM32G4xx_HAL_Driver/Src/stm32g4xx_hal_pwr_ex.c ****        CLEAR_BIT(PWR->PDCRD, GPIONumber);
 326:Drivers/STM32G4xx_HAL_Driver/Src/stm32g4xx_hal_pwr_ex.c ****        break;
 327:Drivers/STM32G4xx_HAL_Driver/Src/stm32g4xx_hal_pwr_ex.c ****     case PWR_GPIO_E:
 328:Drivers/STM32G4xx_HAL_Driver/Src/stm32g4xx_hal_pwr_ex.c ****        SET_BIT(PWR->PUCRE, GPIONumber);
 329:Drivers/STM32G4xx_HAL_Driver/Src/stm32g4xx_hal_pwr_ex.c ****        CLEAR_BIT(PWR->PDCRE, GPIONumber);
 330:Drivers/STM32G4xx_HAL_Driver/Src/stm32g4xx_hal_pwr_ex.c ****        break;
 331:Drivers/STM32G4xx_HAL_Driver/Src/stm32g4xx_hal_pwr_ex.c ****     case PWR_GPIO_F:
 332:Drivers/STM32G4xx_HAL_Driver/Src/stm32g4xx_hal_pwr_ex.c ****        SET_BIT(PWR->PUCRF, (GPIONumber & PWR_PORTF_AVAILABLE_PINS));
 333:Drivers/STM32G4xx_HAL_Driver/Src/stm32g4xx_hal_pwr_ex.c ****        CLEAR_BIT(PWR->PDCRF, (GPIONumber & PWR_PORTF_AVAILABLE_PINS));
 334:Drivers/STM32G4xx_HAL_Driver/Src/stm32g4xx_hal_pwr_ex.c ****        break;
 335:Drivers/STM32G4xx_HAL_Driver/Src/stm32g4xx_hal_pwr_ex.c ****     case PWR_GPIO_G:
 336:Drivers/STM32G4xx_HAL_Driver/Src/stm32g4xx_hal_pwr_ex.c ****        SET_BIT(PWR->PUCRG, (GPIONumber & PWR_PORTG_AVAILABLE_PINS));
 463              		.loc 1 336 8 view .LVU108
 464 0010 284B     		ldr	r3, .L67
 465 0012 1A6D     		ldr	r2, [r3, #80]
 466 0014 01F48061 		and	r1, r1, #1024
 467              	.LVL16:
 468              		.loc 1 336 8 is_stmt 0 view .LVU109
 469 0018 1143     		orrs	r1, r1, r2
ARM GAS  /tmp/ccK442Dq.s 			page 16


 470 001a 1965     		str	r1, [r3, #80]
 337:Drivers/STM32G4xx_HAL_Driver/Src/stm32g4xx_hal_pwr_ex.c ****        CLEAR_BIT(PWR->PDCRG, ((GPIONumber & PWR_PORTG_AVAILABLE_PINS) & (~(PWR_GPIO_BIT_10))));
 471              		.loc 1 337 8 is_stmt 1 view .LVU110
 472 001c 5A6D     		ldr	r2, [r3, #84]
 473 001e 5A65     		str	r2, [r3, #84]
 338:Drivers/STM32G4xx_HAL_Driver/Src/stm32g4xx_hal_pwr_ex.c ****        break;
 474              		.loc 1 338 8 view .LVU111
 304:Drivers/STM32G4xx_HAL_Driver/Src/stm32g4xx_hal_pwr_ex.c **** 
 475              		.loc 1 304 21 is_stmt 0 view .LVU112
 476 0020 0020     		movs	r0, #0
 477              	.LVL17:
 478              		.loc 1 338 8 view .LVU113
 479 0022 7047     		bx	lr
 480              	.LVL18:
 481              	.L65:
 312:Drivers/STM32G4xx_HAL_Driver/Src/stm32g4xx_hal_pwr_ex.c ****        CLEAR_BIT(PWR->PDCRA, (GPIONumber & (~(PWR_GPIO_BIT_13|PWR_GPIO_BIT_15))));
 482              		.loc 1 312 8 is_stmt 1 view .LVU114
 483 0024 234B     		ldr	r3, .L67
 484 0026 186A     		ldr	r0, [r3, #32]
 485              	.LVL19:
 312:Drivers/STM32G4xx_HAL_Driver/Src/stm32g4xx_hal_pwr_ex.c ****        CLEAR_BIT(PWR->PDCRA, (GPIONumber & (~(PWR_GPIO_BIT_13|PWR_GPIO_BIT_15))));
 486              		.loc 1 312 8 is_stmt 0 view .LVU115
 487 0028 21F48042 		bic	r2, r1, #16384
 488 002c 0243     		orrs	r2, r2, r0
 489 002e 1A62     		str	r2, [r3, #32]
 313:Drivers/STM32G4xx_HAL_Driver/Src/stm32g4xx_hal_pwr_ex.c ****        break;
 490              		.loc 1 313 8 is_stmt 1 view .LVU116
 491 0030 5A6A     		ldr	r2, [r3, #36]
 492 0032 21F42041 		bic	r1, r1, #40960
 493              	.LVL20:
 313:Drivers/STM32G4xx_HAL_Driver/Src/stm32g4xx_hal_pwr_ex.c ****        break;
 494              		.loc 1 313 8 is_stmt 0 view .LVU117
 495 0036 22EA0101 		bic	r1, r2, r1
 304:Drivers/STM32G4xx_HAL_Driver/Src/stm32g4xx_hal_pwr_ex.c **** 
 496              		.loc 1 304 21 view .LVU118
 497 003a 0020     		movs	r0, #0
 313:Drivers/STM32G4xx_HAL_Driver/Src/stm32g4xx_hal_pwr_ex.c ****        break;
 498              		.loc 1 313 8 view .LVU119
 499 003c 5962     		str	r1, [r3, #36]
 314:Drivers/STM32G4xx_HAL_Driver/Src/stm32g4xx_hal_pwr_ex.c ****     case PWR_GPIO_B:
 500              		.loc 1 314 8 is_stmt 1 view .LVU120
 501 003e 7047     		bx	lr
 502              	.LVL21:
 503              	.L64:
 316:Drivers/STM32G4xx_HAL_Driver/Src/stm32g4xx_hal_pwr_ex.c ****        CLEAR_BIT(PWR->PDCRB, (GPIONumber & (~(PWR_GPIO_BIT_4))));
 504              		.loc 1 316 8 view .LVU121
 505 0040 1C4B     		ldr	r3, .L67
 506 0042 9A6A     		ldr	r2, [r3, #40]
 317:Drivers/STM32G4xx_HAL_Driver/Src/stm32g4xx_hal_pwr_ex.c ****        break;
 507              		.loc 1 317 8 is_stmt 0 view .LVU122
 508 0044 21F0100C 		bic	ip, r1, #16
 316:Drivers/STM32G4xx_HAL_Driver/Src/stm32g4xx_hal_pwr_ex.c ****        CLEAR_BIT(PWR->PDCRB, (GPIONumber & (~(PWR_GPIO_BIT_4))));
 509              		.loc 1 316 8 view .LVU123
 510 0048 1143     		orrs	r1, r1, r2
 511              	.LVL22:
 316:Drivers/STM32G4xx_HAL_Driver/Src/stm32g4xx_hal_pwr_ex.c ****        CLEAR_BIT(PWR->PDCRB, (GPIONumber & (~(PWR_GPIO_BIT_4))));
 512              		.loc 1 316 8 view .LVU124
ARM GAS  /tmp/ccK442Dq.s 			page 17


 513 004a 9962     		str	r1, [r3, #40]
 317:Drivers/STM32G4xx_HAL_Driver/Src/stm32g4xx_hal_pwr_ex.c ****        break;
 514              		.loc 1 317 8 is_stmt 1 view .LVU125
 515 004c DA6A     		ldr	r2, [r3, #44]
 516 004e 22EA0C02 		bic	r2, r2, ip
 304:Drivers/STM32G4xx_HAL_Driver/Src/stm32g4xx_hal_pwr_ex.c **** 
 517              		.loc 1 304 21 is_stmt 0 view .LVU126
 518 0052 0020     		movs	r0, #0
 519              	.LVL23:
 317:Drivers/STM32G4xx_HAL_Driver/Src/stm32g4xx_hal_pwr_ex.c ****        break;
 520              		.loc 1 317 8 view .LVU127
 521 0054 DA62     		str	r2, [r3, #44]
 318:Drivers/STM32G4xx_HAL_Driver/Src/stm32g4xx_hal_pwr_ex.c ****     case PWR_GPIO_C:
 522              		.loc 1 318 8 is_stmt 1 view .LVU128
 523 0056 7047     		bx	lr
 524              	.LVL24:
 525              	.L63:
 320:Drivers/STM32G4xx_HAL_Driver/Src/stm32g4xx_hal_pwr_ex.c ****        CLEAR_BIT(PWR->PDCRC, GPIONumber);
 526              		.loc 1 320 8 view .LVU129
 527 0058 164B     		ldr	r3, .L67
 528 005a 1A6B     		ldr	r2, [r3, #48]
 529 005c 0A43     		orrs	r2, r2, r1
 530 005e 1A63     		str	r2, [r3, #48]
 321:Drivers/STM32G4xx_HAL_Driver/Src/stm32g4xx_hal_pwr_ex.c ****        break;
 531              		.loc 1 321 8 view .LVU130
 532 0060 5A6B     		ldr	r2, [r3, #52]
 533 0062 22EA0101 		bic	r1, r2, r1
 534              	.LVL25:
 304:Drivers/STM32G4xx_HAL_Driver/Src/stm32g4xx_hal_pwr_ex.c **** 
 535              		.loc 1 304 21 is_stmt 0 view .LVU131
 536 0066 0020     		movs	r0, #0
 537              	.LVL26:
 321:Drivers/STM32G4xx_HAL_Driver/Src/stm32g4xx_hal_pwr_ex.c ****        break;
 538              		.loc 1 321 8 view .LVU132
 539 0068 5963     		str	r1, [r3, #52]
 322:Drivers/STM32G4xx_HAL_Driver/Src/stm32g4xx_hal_pwr_ex.c ****     case PWR_GPIO_D:
 540              		.loc 1 322 8 is_stmt 1 view .LVU133
 541 006a 7047     		bx	lr
 542              	.LVL27:
 543              	.L62:
 324:Drivers/STM32G4xx_HAL_Driver/Src/stm32g4xx_hal_pwr_ex.c ****        CLEAR_BIT(PWR->PDCRD, GPIONumber);
 544              		.loc 1 324 8 view .LVU134
 545 006c 114B     		ldr	r3, .L67
 546 006e 9A6B     		ldr	r2, [r3, #56]
 547 0070 0A43     		orrs	r2, r2, r1
 548 0072 9A63     		str	r2, [r3, #56]
 325:Drivers/STM32G4xx_HAL_Driver/Src/stm32g4xx_hal_pwr_ex.c ****        break;
 549              		.loc 1 325 8 view .LVU135
 550 0074 DA6B     		ldr	r2, [r3, #60]
 551 0076 22EA0101 		bic	r1, r2, r1
 552              	.LVL28:
 304:Drivers/STM32G4xx_HAL_Driver/Src/stm32g4xx_hal_pwr_ex.c **** 
 553              		.loc 1 304 21 is_stmt 0 view .LVU136
 554 007a 0020     		movs	r0, #0
 555              	.LVL29:
 325:Drivers/STM32G4xx_HAL_Driver/Src/stm32g4xx_hal_pwr_ex.c ****        break;
 556              		.loc 1 325 8 view .LVU137
ARM GAS  /tmp/ccK442Dq.s 			page 18


 557 007c D963     		str	r1, [r3, #60]
 326:Drivers/STM32G4xx_HAL_Driver/Src/stm32g4xx_hal_pwr_ex.c ****     case PWR_GPIO_E:
 558              		.loc 1 326 8 is_stmt 1 view .LVU138
 559 007e 7047     		bx	lr
 560              	.LVL30:
 561              	.L61:
 328:Drivers/STM32G4xx_HAL_Driver/Src/stm32g4xx_hal_pwr_ex.c ****        CLEAR_BIT(PWR->PDCRE, GPIONumber);
 562              		.loc 1 328 8 view .LVU139
 563 0080 0C4B     		ldr	r3, .L67
 564 0082 1A6C     		ldr	r2, [r3, #64]
 565 0084 0A43     		orrs	r2, r2, r1
 566 0086 1A64     		str	r2, [r3, #64]
 329:Drivers/STM32G4xx_HAL_Driver/Src/stm32g4xx_hal_pwr_ex.c ****        break;
 567              		.loc 1 329 8 view .LVU140
 568 0088 5A6C     		ldr	r2, [r3, #68]
 569 008a 22EA0101 		bic	r1, r2, r1
 570              	.LVL31:
 304:Drivers/STM32G4xx_HAL_Driver/Src/stm32g4xx_hal_pwr_ex.c **** 
 571              		.loc 1 304 21 is_stmt 0 view .LVU141
 572 008e 0020     		movs	r0, #0
 573              	.LVL32:
 329:Drivers/STM32G4xx_HAL_Driver/Src/stm32g4xx_hal_pwr_ex.c ****        break;
 574              		.loc 1 329 8 view .LVU142
 575 0090 5964     		str	r1, [r3, #68]
 330:Drivers/STM32G4xx_HAL_Driver/Src/stm32g4xx_hal_pwr_ex.c ****     case PWR_GPIO_F:
 576              		.loc 1 330 8 is_stmt 1 view .LVU143
 577 0092 7047     		bx	lr
 578              	.LVL33:
 579              	.L60:
 332:Drivers/STM32G4xx_HAL_Driver/Src/stm32g4xx_hal_pwr_ex.c ****        CLEAR_BIT(PWR->PDCRF, (GPIONumber & PWR_PORTF_AVAILABLE_PINS));
 580              		.loc 1 332 8 view .LVU144
 581 0094 074B     		ldr	r3, .L67
 582 0096 40F20762 		movw	r2, #1543
 583 009a 986C     		ldr	r0, [r3, #72]
 584              	.LVL34:
 332:Drivers/STM32G4xx_HAL_Driver/Src/stm32g4xx_hal_pwr_ex.c ****        CLEAR_BIT(PWR->PDCRF, (GPIONumber & PWR_PORTF_AVAILABLE_PINS));
 585              		.loc 1 332 8 is_stmt 0 view .LVU145
 586 009c 1140     		ands	r1, r1, r2
 587              	.LVL35:
 332:Drivers/STM32G4xx_HAL_Driver/Src/stm32g4xx_hal_pwr_ex.c ****        CLEAR_BIT(PWR->PDCRF, (GPIONumber & PWR_PORTF_AVAILABLE_PINS));
 588              		.loc 1 332 8 view .LVU146
 589 009e 0843     		orrs	r0, r0, r1
 590 00a0 9864     		str	r0, [r3, #72]
 333:Drivers/STM32G4xx_HAL_Driver/Src/stm32g4xx_hal_pwr_ex.c ****        break;
 591              		.loc 1 333 8 is_stmt 1 view .LVU147
 592 00a2 DA6C     		ldr	r2, [r3, #76]
 593 00a4 22EA0101 		bic	r1, r2, r1
 304:Drivers/STM32G4xx_HAL_Driver/Src/stm32g4xx_hal_pwr_ex.c **** 
 594              		.loc 1 304 21 is_stmt 0 view .LVU148
 595 00a8 0020     		movs	r0, #0
 333:Drivers/STM32G4xx_HAL_Driver/Src/stm32g4xx_hal_pwr_ex.c ****        break;
 596              		.loc 1 333 8 view .LVU149
 597 00aa D964     		str	r1, [r3, #76]
 334:Drivers/STM32G4xx_HAL_Driver/Src/stm32g4xx_hal_pwr_ex.c ****     case PWR_GPIO_G:
 598              		.loc 1 334 8 is_stmt 1 view .LVU150
 599 00ac 7047     		bx	lr
 600              	.LVL36:
ARM GAS  /tmp/ccK442Dq.s 			page 19


 601              	.L66:
 304:Drivers/STM32G4xx_HAL_Driver/Src/stm32g4xx_hal_pwr_ex.c **** 
 602              		.loc 1 304 21 is_stmt 0 view .LVU151
 603 00ae 0120     		movs	r0, #1
 604              	.LVL37:
 339:Drivers/STM32G4xx_HAL_Driver/Src/stm32g4xx_hal_pwr_ex.c ****     default:
 340:Drivers/STM32G4xx_HAL_Driver/Src/stm32g4xx_hal_pwr_ex.c ****       status = HAL_ERROR;
 341:Drivers/STM32G4xx_HAL_Driver/Src/stm32g4xx_hal_pwr_ex.c ****       break;
 342:Drivers/STM32G4xx_HAL_Driver/Src/stm32g4xx_hal_pwr_ex.c ****   }
 343:Drivers/STM32G4xx_HAL_Driver/Src/stm32g4xx_hal_pwr_ex.c **** 
 344:Drivers/STM32G4xx_HAL_Driver/Src/stm32g4xx_hal_pwr_ex.c ****   return status;
 605              		.loc 1 344 3 is_stmt 1 view .LVU152
 345:Drivers/STM32G4xx_HAL_Driver/Src/stm32g4xx_hal_pwr_ex.c **** }
 606              		.loc 1 345 1 is_stmt 0 view .LVU153
 607 00b0 7047     		bx	lr
 608              	.L68:
 609 00b2 00BF     		.align	2
 610              	.L67:
 611 00b4 00700040 		.word	1073770496
 612              		.cfi_endproc
 613              	.LFE138:
 615              		.section	.text.HAL_PWREx_DisableGPIOPullUp,"ax",%progbits
 616              		.align	1
 617              		.p2align 2,,3
 618              		.global	HAL_PWREx_DisableGPIOPullUp
 619              		.syntax unified
 620              		.thumb
 621              		.thumb_func
 622              		.fpu fpv4-sp-d16
 624              	HAL_PWREx_DisableGPIOPullUp:
 625              	.LVL38:
 626              	.LFB139:
 346:Drivers/STM32G4xx_HAL_Driver/Src/stm32g4xx_hal_pwr_ex.c **** 
 347:Drivers/STM32G4xx_HAL_Driver/Src/stm32g4xx_hal_pwr_ex.c **** 
 348:Drivers/STM32G4xx_HAL_Driver/Src/stm32g4xx_hal_pwr_ex.c **** /**
 349:Drivers/STM32G4xx_HAL_Driver/Src/stm32g4xx_hal_pwr_ex.c ****   * @brief Disable GPIO pull-up state in Standby mode and Shutdown modes.
 350:Drivers/STM32G4xx_HAL_Driver/Src/stm32g4xx_hal_pwr_ex.c ****   * @note  Reset the relevant PUy bits of PWR_PUCRx register used to configure the I/O
 351:Drivers/STM32G4xx_HAL_Driver/Src/stm32g4xx_hal_pwr_ex.c ****   *        in pull-up state in Standby and Shutdown modes.
 352:Drivers/STM32G4xx_HAL_Driver/Src/stm32g4xx_hal_pwr_ex.c ****   * @note  Even if a PUy bit to reset is reserved, the other PUy bits entered as input
 353:Drivers/STM32G4xx_HAL_Driver/Src/stm32g4xx_hal_pwr_ex.c ****   *        parameter at the same time are reset.
 354:Drivers/STM32G4xx_HAL_Driver/Src/stm32g4xx_hal_pwr_ex.c ****   * @param  GPIO: Specifies the IO port. This parameter can be PWR_GPIO_A, ..., PWR_GPIO_G
 355:Drivers/STM32G4xx_HAL_Driver/Src/stm32g4xx_hal_pwr_ex.c ****   *          (or PWR_GPIO_I depending on the devices) to select the GPIO peripheral.
 356:Drivers/STM32G4xx_HAL_Driver/Src/stm32g4xx_hal_pwr_ex.c ****   * @param  GPIONumber: Specify the I/O pins numbers.
 357:Drivers/STM32G4xx_HAL_Driver/Src/stm32g4xx_hal_pwr_ex.c ****   *         This parameter can be one of the following values:
 358:Drivers/STM32G4xx_HAL_Driver/Src/stm32g4xx_hal_pwr_ex.c ****   *         PWR_GPIO_BIT_0, ..., PWR_GPIO_BIT_15 (except for the port where less
 359:Drivers/STM32G4xx_HAL_Driver/Src/stm32g4xx_hal_pwr_ex.c ****   *         I/O pins are available) or the logical OR of several of them to reset
 360:Drivers/STM32G4xx_HAL_Driver/Src/stm32g4xx_hal_pwr_ex.c ****   *         several bits for a given port in a single API call.
 361:Drivers/STM32G4xx_HAL_Driver/Src/stm32g4xx_hal_pwr_ex.c ****   * @retval HAL Status
 362:Drivers/STM32G4xx_HAL_Driver/Src/stm32g4xx_hal_pwr_ex.c ****   */
 363:Drivers/STM32G4xx_HAL_Driver/Src/stm32g4xx_hal_pwr_ex.c **** HAL_StatusTypeDef HAL_PWREx_DisableGPIOPullUp(uint32_t GPIO, uint32_t GPIONumber)
 364:Drivers/STM32G4xx_HAL_Driver/Src/stm32g4xx_hal_pwr_ex.c **** {
 627              		.loc 1 364 1 is_stmt 1 view -0
 628              		.cfi_startproc
 629              		@ args = 0, pretend = 0, frame = 0
 630              		@ frame_needed = 0, uses_anonymous_args = 0
 631              		@ link register save eliminated.
 365:Drivers/STM32G4xx_HAL_Driver/Src/stm32g4xx_hal_pwr_ex.c ****   HAL_StatusTypeDef status = HAL_OK;
ARM GAS  /tmp/ccK442Dq.s 			page 20


 632              		.loc 1 365 3 view .LVU155
 366:Drivers/STM32G4xx_HAL_Driver/Src/stm32g4xx_hal_pwr_ex.c **** 
 367:Drivers/STM32G4xx_HAL_Driver/Src/stm32g4xx_hal_pwr_ex.c ****   assert_param(IS_PWR_GPIO(GPIO));
 633              		.loc 1 367 3 view .LVU156
 368:Drivers/STM32G4xx_HAL_Driver/Src/stm32g4xx_hal_pwr_ex.c ****   assert_param(IS_PWR_GPIO_BIT_NUMBER(GPIONumber));
 634              		.loc 1 368 3 view .LVU157
 369:Drivers/STM32G4xx_HAL_Driver/Src/stm32g4xx_hal_pwr_ex.c **** 
 370:Drivers/STM32G4xx_HAL_Driver/Src/stm32g4xx_hal_pwr_ex.c ****   switch (GPIO)
 635              		.loc 1 370 3 view .LVU158
 636 0000 0628     		cmp	r0, #6
 637 0002 3DD8     		bhi	.L79
 638 0004 DFE800F0 		tbb	[pc, r0]
 639              	.L72:
 640 0008 0D       		.byte	(.L78-.L72)/2
 641 0009 16       		.byte	(.L77-.L72)/2
 642 000a 1D       		.byte	(.L76-.L72)/2
 643 000b 24       		.byte	(.L75-.L72)/2
 644 000c 2B       		.byte	(.L74-.L72)/2
 645 000d 32       		.byte	(.L73-.L72)/2
 646 000e 04       		.byte	(.L71-.L72)/2
 647 000f 00       		.p2align 1
 648              	.L71:
 371:Drivers/STM32G4xx_HAL_Driver/Src/stm32g4xx_hal_pwr_ex.c ****   {
 372:Drivers/STM32G4xx_HAL_Driver/Src/stm32g4xx_hal_pwr_ex.c ****     case PWR_GPIO_A:
 373:Drivers/STM32G4xx_HAL_Driver/Src/stm32g4xx_hal_pwr_ex.c ****        CLEAR_BIT(PWR->PUCRA, (GPIONumber & (~(PWR_GPIO_BIT_14))));
 374:Drivers/STM32G4xx_HAL_Driver/Src/stm32g4xx_hal_pwr_ex.c ****        break;
 375:Drivers/STM32G4xx_HAL_Driver/Src/stm32g4xx_hal_pwr_ex.c ****     case PWR_GPIO_B:
 376:Drivers/STM32G4xx_HAL_Driver/Src/stm32g4xx_hal_pwr_ex.c ****        CLEAR_BIT(PWR->PUCRB, GPIONumber);
 377:Drivers/STM32G4xx_HAL_Driver/Src/stm32g4xx_hal_pwr_ex.c ****        break;
 378:Drivers/STM32G4xx_HAL_Driver/Src/stm32g4xx_hal_pwr_ex.c ****     case PWR_GPIO_C:
 379:Drivers/STM32G4xx_HAL_Driver/Src/stm32g4xx_hal_pwr_ex.c ****        CLEAR_BIT(PWR->PUCRC, GPIONumber);
 380:Drivers/STM32G4xx_HAL_Driver/Src/stm32g4xx_hal_pwr_ex.c ****        break;
 381:Drivers/STM32G4xx_HAL_Driver/Src/stm32g4xx_hal_pwr_ex.c ****     case PWR_GPIO_D:
 382:Drivers/STM32G4xx_HAL_Driver/Src/stm32g4xx_hal_pwr_ex.c ****        CLEAR_BIT(PWR->PUCRD, GPIONumber);
 383:Drivers/STM32G4xx_HAL_Driver/Src/stm32g4xx_hal_pwr_ex.c ****        break;
 384:Drivers/STM32G4xx_HAL_Driver/Src/stm32g4xx_hal_pwr_ex.c ****     case PWR_GPIO_E:
 385:Drivers/STM32G4xx_HAL_Driver/Src/stm32g4xx_hal_pwr_ex.c ****        CLEAR_BIT(PWR->PUCRE, GPIONumber);
 386:Drivers/STM32G4xx_HAL_Driver/Src/stm32g4xx_hal_pwr_ex.c ****        break;
 387:Drivers/STM32G4xx_HAL_Driver/Src/stm32g4xx_hal_pwr_ex.c ****     case PWR_GPIO_F:
 388:Drivers/STM32G4xx_HAL_Driver/Src/stm32g4xx_hal_pwr_ex.c ****        CLEAR_BIT(PWR->PUCRF, (GPIONumber & PWR_PORTF_AVAILABLE_PINS));
 389:Drivers/STM32G4xx_HAL_Driver/Src/stm32g4xx_hal_pwr_ex.c ****        break;
 390:Drivers/STM32G4xx_HAL_Driver/Src/stm32g4xx_hal_pwr_ex.c ****     case PWR_GPIO_G:
 391:Drivers/STM32G4xx_HAL_Driver/Src/stm32g4xx_hal_pwr_ex.c ****        CLEAR_BIT(PWR->PUCRG, (GPIONumber & PWR_PORTG_AVAILABLE_PINS));
 649              		.loc 1 391 8 view .LVU159
 650 0010 1C4A     		ldr	r2, .L80
 651 0012 136D     		ldr	r3, [r2, #80]
 652 0014 01F48061 		and	r1, r1, #1024
 653              	.LVL39:
 654              		.loc 1 391 8 is_stmt 0 view .LVU160
 655 0018 23EA0101 		bic	r1, r3, r1
 365:Drivers/STM32G4xx_HAL_Driver/Src/stm32g4xx_hal_pwr_ex.c **** 
 656              		.loc 1 365 21 view .LVU161
 657 001c 0020     		movs	r0, #0
 658              	.LVL40:
 659              		.loc 1 391 8 view .LVU162
 660 001e 1165     		str	r1, [r2, #80]
 392:Drivers/STM32G4xx_HAL_Driver/Src/stm32g4xx_hal_pwr_ex.c ****        break;
ARM GAS  /tmp/ccK442Dq.s 			page 21


 661              		.loc 1 392 8 is_stmt 1 view .LVU163
 662 0020 7047     		bx	lr
 663              	.LVL41:
 664              	.L78:
 373:Drivers/STM32G4xx_HAL_Driver/Src/stm32g4xx_hal_pwr_ex.c ****        break;
 665              		.loc 1 373 8 view .LVU164
 666 0022 184A     		ldr	r2, .L80
 667 0024 136A     		ldr	r3, [r2, #32]
 668 0026 21F48041 		bic	r1, r1, #16384
 669              	.LVL42:
 373:Drivers/STM32G4xx_HAL_Driver/Src/stm32g4xx_hal_pwr_ex.c ****        break;
 670              		.loc 1 373 8 is_stmt 0 view .LVU165
 671 002a 23EA0101 		bic	r1, r3, r1
 365:Drivers/STM32G4xx_HAL_Driver/Src/stm32g4xx_hal_pwr_ex.c **** 
 672              		.loc 1 365 21 view .LVU166
 673 002e 0020     		movs	r0, #0
 674              	.LVL43:
 373:Drivers/STM32G4xx_HAL_Driver/Src/stm32g4xx_hal_pwr_ex.c ****        break;
 675              		.loc 1 373 8 view .LVU167
 676 0030 1162     		str	r1, [r2, #32]
 374:Drivers/STM32G4xx_HAL_Driver/Src/stm32g4xx_hal_pwr_ex.c ****     case PWR_GPIO_B:
 677              		.loc 1 374 8 is_stmt 1 view .LVU168
 678 0032 7047     		bx	lr
 679              	.LVL44:
 680              	.L77:
 376:Drivers/STM32G4xx_HAL_Driver/Src/stm32g4xx_hal_pwr_ex.c ****        break;
 681              		.loc 1 376 8 view .LVU169
 682 0034 134A     		ldr	r2, .L80
 683 0036 936A     		ldr	r3, [r2, #40]
 684 0038 23EA0101 		bic	r1, r3, r1
 685              	.LVL45:
 365:Drivers/STM32G4xx_HAL_Driver/Src/stm32g4xx_hal_pwr_ex.c **** 
 686              		.loc 1 365 21 is_stmt 0 view .LVU170
 687 003c 0020     		movs	r0, #0
 688              	.LVL46:
 376:Drivers/STM32G4xx_HAL_Driver/Src/stm32g4xx_hal_pwr_ex.c ****        break;
 689              		.loc 1 376 8 view .LVU171
 690 003e 9162     		str	r1, [r2, #40]
 377:Drivers/STM32G4xx_HAL_Driver/Src/stm32g4xx_hal_pwr_ex.c ****     case PWR_GPIO_C:
 691              		.loc 1 377 8 is_stmt 1 view .LVU172
 692 0040 7047     		bx	lr
 693              	.LVL47:
 694              	.L76:
 379:Drivers/STM32G4xx_HAL_Driver/Src/stm32g4xx_hal_pwr_ex.c ****        break;
 695              		.loc 1 379 8 view .LVU173
 696 0042 104A     		ldr	r2, .L80
 697 0044 136B     		ldr	r3, [r2, #48]
 698 0046 23EA0101 		bic	r1, r3, r1
 699              	.LVL48:
 365:Drivers/STM32G4xx_HAL_Driver/Src/stm32g4xx_hal_pwr_ex.c **** 
 700              		.loc 1 365 21 is_stmt 0 view .LVU174
 701 004a 0020     		movs	r0, #0
 702              	.LVL49:
 379:Drivers/STM32G4xx_HAL_Driver/Src/stm32g4xx_hal_pwr_ex.c ****        break;
 703              		.loc 1 379 8 view .LVU175
 704 004c 1163     		str	r1, [r2, #48]
 380:Drivers/STM32G4xx_HAL_Driver/Src/stm32g4xx_hal_pwr_ex.c ****     case PWR_GPIO_D:
ARM GAS  /tmp/ccK442Dq.s 			page 22


 705              		.loc 1 380 8 is_stmt 1 view .LVU176
 706 004e 7047     		bx	lr
 707              	.LVL50:
 708              	.L75:
 382:Drivers/STM32G4xx_HAL_Driver/Src/stm32g4xx_hal_pwr_ex.c ****        break;
 709              		.loc 1 382 8 view .LVU177
 710 0050 0C4A     		ldr	r2, .L80
 711 0052 936B     		ldr	r3, [r2, #56]
 712 0054 23EA0101 		bic	r1, r3, r1
 713              	.LVL51:
 365:Drivers/STM32G4xx_HAL_Driver/Src/stm32g4xx_hal_pwr_ex.c **** 
 714              		.loc 1 365 21 is_stmt 0 view .LVU178
 715 0058 0020     		movs	r0, #0
 716              	.LVL52:
 382:Drivers/STM32G4xx_HAL_Driver/Src/stm32g4xx_hal_pwr_ex.c ****        break;
 717              		.loc 1 382 8 view .LVU179
 718 005a 9163     		str	r1, [r2, #56]
 383:Drivers/STM32G4xx_HAL_Driver/Src/stm32g4xx_hal_pwr_ex.c ****     case PWR_GPIO_E:
 719              		.loc 1 383 8 is_stmt 1 view .LVU180
 720 005c 7047     		bx	lr
 721              	.LVL53:
 722              	.L74:
 385:Drivers/STM32G4xx_HAL_Driver/Src/stm32g4xx_hal_pwr_ex.c ****        break;
 723              		.loc 1 385 8 view .LVU181
 724 005e 094A     		ldr	r2, .L80
 725 0060 136C     		ldr	r3, [r2, #64]
 726 0062 23EA0101 		bic	r1, r3, r1
 727              	.LVL54:
 365:Drivers/STM32G4xx_HAL_Driver/Src/stm32g4xx_hal_pwr_ex.c **** 
 728              		.loc 1 365 21 is_stmt 0 view .LVU182
 729 0066 0020     		movs	r0, #0
 730              	.LVL55:
 385:Drivers/STM32G4xx_HAL_Driver/Src/stm32g4xx_hal_pwr_ex.c ****        break;
 731              		.loc 1 385 8 view .LVU183
 732 0068 1164     		str	r1, [r2, #64]
 386:Drivers/STM32G4xx_HAL_Driver/Src/stm32g4xx_hal_pwr_ex.c ****     case PWR_GPIO_F:
 733              		.loc 1 386 8 is_stmt 1 view .LVU184
 734 006a 7047     		bx	lr
 735              	.LVL56:
 736              	.L73:
 388:Drivers/STM32G4xx_HAL_Driver/Src/stm32g4xx_hal_pwr_ex.c ****        break;
 737              		.loc 1 388 8 view .LVU185
 738 006c 0548     		ldr	r0, .L80
 739              	.LVL57:
 388:Drivers/STM32G4xx_HAL_Driver/Src/stm32g4xx_hal_pwr_ex.c ****        break;
 740              		.loc 1 388 8 is_stmt 0 view .LVU186
 741 006e 40F20762 		movw	r2, #1543
 742 0072 836C     		ldr	r3, [r0, #72]
 743 0074 1140     		ands	r1, r1, r2
 744              	.LVL58:
 388:Drivers/STM32G4xx_HAL_Driver/Src/stm32g4xx_hal_pwr_ex.c ****        break;
 745              		.loc 1 388 8 view .LVU187
 746 0076 23EA0101 		bic	r1, r3, r1
 747 007a 8164     		str	r1, [r0, #72]
 389:Drivers/STM32G4xx_HAL_Driver/Src/stm32g4xx_hal_pwr_ex.c ****     case PWR_GPIO_G:
 748              		.loc 1 389 8 is_stmt 1 view .LVU188
 365:Drivers/STM32G4xx_HAL_Driver/Src/stm32g4xx_hal_pwr_ex.c **** 
ARM GAS  /tmp/ccK442Dq.s 			page 23


 749              		.loc 1 365 21 is_stmt 0 view .LVU189
 750 007c 0020     		movs	r0, #0
 389:Drivers/STM32G4xx_HAL_Driver/Src/stm32g4xx_hal_pwr_ex.c ****     case PWR_GPIO_G:
 751              		.loc 1 389 8 view .LVU190
 752 007e 7047     		bx	lr
 753              	.LVL59:
 754              	.L79:
 365:Drivers/STM32G4xx_HAL_Driver/Src/stm32g4xx_hal_pwr_ex.c **** 
 755              		.loc 1 365 21 view .LVU191
 756 0080 0120     		movs	r0, #1
 757              	.LVL60:
 393:Drivers/STM32G4xx_HAL_Driver/Src/stm32g4xx_hal_pwr_ex.c ****     default:
 394:Drivers/STM32G4xx_HAL_Driver/Src/stm32g4xx_hal_pwr_ex.c ****        status = HAL_ERROR;
 395:Drivers/STM32G4xx_HAL_Driver/Src/stm32g4xx_hal_pwr_ex.c ****        break;
 396:Drivers/STM32G4xx_HAL_Driver/Src/stm32g4xx_hal_pwr_ex.c ****   }
 397:Drivers/STM32G4xx_HAL_Driver/Src/stm32g4xx_hal_pwr_ex.c **** 
 398:Drivers/STM32G4xx_HAL_Driver/Src/stm32g4xx_hal_pwr_ex.c ****   return status;
 758              		.loc 1 398 3 is_stmt 1 view .LVU192
 399:Drivers/STM32G4xx_HAL_Driver/Src/stm32g4xx_hal_pwr_ex.c **** }
 759              		.loc 1 399 1 is_stmt 0 view .LVU193
 760 0082 7047     		bx	lr
 761              	.L81:
 762              		.align	2
 763              	.L80:
 764 0084 00700040 		.word	1073770496
 765              		.cfi_endproc
 766              	.LFE139:
 768              		.section	.text.HAL_PWREx_EnableGPIOPullDown,"ax",%progbits
 769              		.align	1
 770              		.p2align 2,,3
 771              		.global	HAL_PWREx_EnableGPIOPullDown
 772              		.syntax unified
 773              		.thumb
 774              		.thumb_func
 775              		.fpu fpv4-sp-d16
 777              	HAL_PWREx_EnableGPIOPullDown:
 778              	.LVL61:
 779              	.LFB140:
 400:Drivers/STM32G4xx_HAL_Driver/Src/stm32g4xx_hal_pwr_ex.c **** 
 401:Drivers/STM32G4xx_HAL_Driver/Src/stm32g4xx_hal_pwr_ex.c **** 
 402:Drivers/STM32G4xx_HAL_Driver/Src/stm32g4xx_hal_pwr_ex.c **** 
 403:Drivers/STM32G4xx_HAL_Driver/Src/stm32g4xx_hal_pwr_ex.c **** /**
 404:Drivers/STM32G4xx_HAL_Driver/Src/stm32g4xx_hal_pwr_ex.c ****   * @brief Enable GPIO pull-down state in Standby and Shutdown modes.
 405:Drivers/STM32G4xx_HAL_Driver/Src/stm32g4xx_hal_pwr_ex.c ****   * @note  Set the relevant PDy bits of PWR_PDCRx register to configure the I/O in
 406:Drivers/STM32G4xx_HAL_Driver/Src/stm32g4xx_hal_pwr_ex.c ****   *        pull-down state in Standby and Shutdown modes.
 407:Drivers/STM32G4xx_HAL_Driver/Src/stm32g4xx_hal_pwr_ex.c ****   * @note  This state is effective in Standby and Shutdown modes only if APC bit
 408:Drivers/STM32G4xx_HAL_Driver/Src/stm32g4xx_hal_pwr_ex.c ****   *        is set through HAL_PWREx_EnablePullUpPullDownConfig() API.
 409:Drivers/STM32G4xx_HAL_Driver/Src/stm32g4xx_hal_pwr_ex.c ****   * @note  The configuration is lost when exiting the Shutdown mode due to the
 410:Drivers/STM32G4xx_HAL_Driver/Src/stm32g4xx_hal_pwr_ex.c ****   *        power-on reset, maintained when exiting the Standby mode.
 411:Drivers/STM32G4xx_HAL_Driver/Src/stm32g4xx_hal_pwr_ex.c ****   * @note  To avoid any conflict at Standby and Shutdown modes exits, the corresponding
 412:Drivers/STM32G4xx_HAL_Driver/Src/stm32g4xx_hal_pwr_ex.c ****   *        PUy bit of PWR_PUCRx register is cleared unless it is reserved.
 413:Drivers/STM32G4xx_HAL_Driver/Src/stm32g4xx_hal_pwr_ex.c ****   * @note  Even if a PDy bit to set is reserved, the other PDy bits entered as input
 414:Drivers/STM32G4xx_HAL_Driver/Src/stm32g4xx_hal_pwr_ex.c ****   *        parameter at the same time are set.
 415:Drivers/STM32G4xx_HAL_Driver/Src/stm32g4xx_hal_pwr_ex.c ****   * @param  GPIO: Specify the IO port. This parameter can be PWR_GPIO_A..PWR_GPIO_G
 416:Drivers/STM32G4xx_HAL_Driver/Src/stm32g4xx_hal_pwr_ex.c ****   *         (or PWR_GPIO_I depending on the devices) to select the GPIO peripheral.
 417:Drivers/STM32G4xx_HAL_Driver/Src/stm32g4xx_hal_pwr_ex.c ****   * @param  GPIONumber: Specify the I/O pins numbers.
 418:Drivers/STM32G4xx_HAL_Driver/Src/stm32g4xx_hal_pwr_ex.c ****   *         This parameter can be one of the following values:
ARM GAS  /tmp/ccK442Dq.s 			page 24


 419:Drivers/STM32G4xx_HAL_Driver/Src/stm32g4xx_hal_pwr_ex.c ****   *         PWR_GPIO_BIT_0, ..., PWR_GPIO_BIT_15 (except for the port where less
 420:Drivers/STM32G4xx_HAL_Driver/Src/stm32g4xx_hal_pwr_ex.c ****   *         I/O pins are available) or the logical OR of several of them to set
 421:Drivers/STM32G4xx_HAL_Driver/Src/stm32g4xx_hal_pwr_ex.c ****   *         several bits for a given port in a single API call.
 422:Drivers/STM32G4xx_HAL_Driver/Src/stm32g4xx_hal_pwr_ex.c ****   * @retval HAL Status
 423:Drivers/STM32G4xx_HAL_Driver/Src/stm32g4xx_hal_pwr_ex.c ****   */
 424:Drivers/STM32G4xx_HAL_Driver/Src/stm32g4xx_hal_pwr_ex.c **** HAL_StatusTypeDef HAL_PWREx_EnableGPIOPullDown(uint32_t GPIO, uint32_t GPIONumber)
 425:Drivers/STM32G4xx_HAL_Driver/Src/stm32g4xx_hal_pwr_ex.c **** {
 780              		.loc 1 425 1 is_stmt 1 view -0
 781              		.cfi_startproc
 782              		@ args = 0, pretend = 0, frame = 0
 783              		@ frame_needed = 0, uses_anonymous_args = 0
 784              		@ link register save eliminated.
 426:Drivers/STM32G4xx_HAL_Driver/Src/stm32g4xx_hal_pwr_ex.c ****   HAL_StatusTypeDef status = HAL_OK;
 785              		.loc 1 426 3 view .LVU195
 427:Drivers/STM32G4xx_HAL_Driver/Src/stm32g4xx_hal_pwr_ex.c **** 
 428:Drivers/STM32G4xx_HAL_Driver/Src/stm32g4xx_hal_pwr_ex.c ****   assert_param(IS_PWR_GPIO(GPIO));
 786              		.loc 1 428 3 view .LVU196
 429:Drivers/STM32G4xx_HAL_Driver/Src/stm32g4xx_hal_pwr_ex.c ****   assert_param(IS_PWR_GPIO_BIT_NUMBER(GPIONumber));
 787              		.loc 1 429 3 view .LVU197
 430:Drivers/STM32G4xx_HAL_Driver/Src/stm32g4xx_hal_pwr_ex.c **** 
 431:Drivers/STM32G4xx_HAL_Driver/Src/stm32g4xx_hal_pwr_ex.c ****   switch (GPIO)
 788              		.loc 1 431 3 view .LVU198
 789 0000 0628     		cmp	r0, #6
 790 0002 58D8     		bhi	.L92
 791 0004 DFE800F0 		tbb	[pc, r0]
 792              	.L85:
 793 0008 0F       		.byte	(.L91-.L85)/2
 794 0009 1D       		.byte	(.L90-.L85)/2
 795 000a 2C       		.byte	(.L89-.L85)/2
 796 000b 36       		.byte	(.L88-.L85)/2
 797 000c 40       		.byte	(.L87-.L85)/2
 798 000d 4A       		.byte	(.L86-.L85)/2
 799 000e 04       		.byte	(.L84-.L85)/2
 800 000f 00       		.p2align 1
 801              	.L84:
 432:Drivers/STM32G4xx_HAL_Driver/Src/stm32g4xx_hal_pwr_ex.c ****   {
 433:Drivers/STM32G4xx_HAL_Driver/Src/stm32g4xx_hal_pwr_ex.c ****     case PWR_GPIO_A:
 434:Drivers/STM32G4xx_HAL_Driver/Src/stm32g4xx_hal_pwr_ex.c ****        SET_BIT(PWR->PDCRA, (GPIONumber & (~(PWR_GPIO_BIT_13|PWR_GPIO_BIT_15))));
 435:Drivers/STM32G4xx_HAL_Driver/Src/stm32g4xx_hal_pwr_ex.c ****        CLEAR_BIT(PWR->PUCRA, (GPIONumber & (~(PWR_GPIO_BIT_14))));
 436:Drivers/STM32G4xx_HAL_Driver/Src/stm32g4xx_hal_pwr_ex.c ****        break;
 437:Drivers/STM32G4xx_HAL_Driver/Src/stm32g4xx_hal_pwr_ex.c ****     case PWR_GPIO_B:
 438:Drivers/STM32G4xx_HAL_Driver/Src/stm32g4xx_hal_pwr_ex.c ****        SET_BIT(PWR->PDCRB, (GPIONumber & (~(PWR_GPIO_BIT_4))));
 439:Drivers/STM32G4xx_HAL_Driver/Src/stm32g4xx_hal_pwr_ex.c ****        CLEAR_BIT(PWR->PUCRB, GPIONumber);
 440:Drivers/STM32G4xx_HAL_Driver/Src/stm32g4xx_hal_pwr_ex.c ****        break;
 441:Drivers/STM32G4xx_HAL_Driver/Src/stm32g4xx_hal_pwr_ex.c ****     case PWR_GPIO_C:
 442:Drivers/STM32G4xx_HAL_Driver/Src/stm32g4xx_hal_pwr_ex.c ****        SET_BIT(PWR->PDCRC, GPIONumber);
 443:Drivers/STM32G4xx_HAL_Driver/Src/stm32g4xx_hal_pwr_ex.c ****        CLEAR_BIT(PWR->PUCRC, GPIONumber);
 444:Drivers/STM32G4xx_HAL_Driver/Src/stm32g4xx_hal_pwr_ex.c ****        break;
 445:Drivers/STM32G4xx_HAL_Driver/Src/stm32g4xx_hal_pwr_ex.c ****     case PWR_GPIO_D:
 446:Drivers/STM32G4xx_HAL_Driver/Src/stm32g4xx_hal_pwr_ex.c ****        SET_BIT(PWR->PDCRD, GPIONumber);
 447:Drivers/STM32G4xx_HAL_Driver/Src/stm32g4xx_hal_pwr_ex.c ****        CLEAR_BIT(PWR->PUCRD, GPIONumber);
 448:Drivers/STM32G4xx_HAL_Driver/Src/stm32g4xx_hal_pwr_ex.c ****        break;
 449:Drivers/STM32G4xx_HAL_Driver/Src/stm32g4xx_hal_pwr_ex.c ****     case PWR_GPIO_E:
 450:Drivers/STM32G4xx_HAL_Driver/Src/stm32g4xx_hal_pwr_ex.c ****        SET_BIT(PWR->PDCRE, GPIONumber);
 451:Drivers/STM32G4xx_HAL_Driver/Src/stm32g4xx_hal_pwr_ex.c ****        CLEAR_BIT(PWR->PUCRE, GPIONumber);
 452:Drivers/STM32G4xx_HAL_Driver/Src/stm32g4xx_hal_pwr_ex.c ****        break;
 453:Drivers/STM32G4xx_HAL_Driver/Src/stm32g4xx_hal_pwr_ex.c ****     case PWR_GPIO_F:
ARM GAS  /tmp/ccK442Dq.s 			page 25


 454:Drivers/STM32G4xx_HAL_Driver/Src/stm32g4xx_hal_pwr_ex.c ****        SET_BIT(PWR->PDCRF, (GPIONumber & PWR_PORTF_AVAILABLE_PINS));
 455:Drivers/STM32G4xx_HAL_Driver/Src/stm32g4xx_hal_pwr_ex.c ****        CLEAR_BIT(PWR->PUCRF, (GPIONumber & PWR_PORTF_AVAILABLE_PINS));
 456:Drivers/STM32G4xx_HAL_Driver/Src/stm32g4xx_hal_pwr_ex.c ****        break;
 457:Drivers/STM32G4xx_HAL_Driver/Src/stm32g4xx_hal_pwr_ex.c ****     case PWR_GPIO_G:
 458:Drivers/STM32G4xx_HAL_Driver/Src/stm32g4xx_hal_pwr_ex.c ****        SET_BIT(PWR->PDCRG, ((GPIONumber & PWR_PORTG_AVAILABLE_PINS) & (~(PWR_GPIO_BIT_10))));
 802              		.loc 1 458 8 view .LVU199
 803 0010 2A4B     		ldr	r3, .L96
 804 0012 5A6D     		ldr	r2, [r3, #84]
 805 0014 5A65     		str	r2, [r3, #84]
 459:Drivers/STM32G4xx_HAL_Driver/Src/stm32g4xx_hal_pwr_ex.c ****        CLEAR_BIT(PWR->PUCRG, (GPIONumber & PWR_PORTG_AVAILABLE_PINS));
 806              		.loc 1 459 8 view .LVU200
 807 0016 1A6D     		ldr	r2, [r3, #80]
 808 0018 01F48061 		and	r1, r1, #1024
 809              	.LVL62:
 810              		.loc 1 459 8 is_stmt 0 view .LVU201
 811 001c 22EA0101 		bic	r1, r2, r1
 426:Drivers/STM32G4xx_HAL_Driver/Src/stm32g4xx_hal_pwr_ex.c **** 
 812              		.loc 1 426 21 view .LVU202
 813 0020 0020     		movs	r0, #0
 814              	.LVL63:
 815              		.loc 1 459 8 view .LVU203
 816 0022 1965     		str	r1, [r3, #80]
 460:Drivers/STM32G4xx_HAL_Driver/Src/stm32g4xx_hal_pwr_ex.c ****        break;
 817              		.loc 1 460 8 is_stmt 1 view .LVU204
 818 0024 7047     		bx	lr
 819              	.LVL64:
 820              	.L91:
 434:Drivers/STM32G4xx_HAL_Driver/Src/stm32g4xx_hal_pwr_ex.c ****        CLEAR_BIT(PWR->PUCRA, (GPIONumber & (~(PWR_GPIO_BIT_14))));
 821              		.loc 1 434 8 view .LVU205
 822 0026 254B     		ldr	r3, .L96
 823 0028 586A     		ldr	r0, [r3, #36]
 824              	.LVL65:
 434:Drivers/STM32G4xx_HAL_Driver/Src/stm32g4xx_hal_pwr_ex.c ****        CLEAR_BIT(PWR->PUCRA, (GPIONumber & (~(PWR_GPIO_BIT_14))));
 825              		.loc 1 434 8 is_stmt 0 view .LVU206
 826 002a 21F42042 		bic	r2, r1, #40960
 827 002e 0243     		orrs	r2, r2, r0
 828 0030 5A62     		str	r2, [r3, #36]
 435:Drivers/STM32G4xx_HAL_Driver/Src/stm32g4xx_hal_pwr_ex.c ****        break;
 829              		.loc 1 435 8 is_stmt 1 view .LVU207
 830 0032 1A6A     		ldr	r2, [r3, #32]
 831 0034 21F48041 		bic	r1, r1, #16384
 832              	.LVL66:
 435:Drivers/STM32G4xx_HAL_Driver/Src/stm32g4xx_hal_pwr_ex.c ****        break;
 833              		.loc 1 435 8 is_stmt 0 view .LVU208
 834 0038 22EA0101 		bic	r1, r2, r1
 426:Drivers/STM32G4xx_HAL_Driver/Src/stm32g4xx_hal_pwr_ex.c **** 
 835              		.loc 1 426 21 view .LVU209
 836 003c 0020     		movs	r0, #0
 435:Drivers/STM32G4xx_HAL_Driver/Src/stm32g4xx_hal_pwr_ex.c ****        break;
 837              		.loc 1 435 8 view .LVU210
 838 003e 1962     		str	r1, [r3, #32]
 436:Drivers/STM32G4xx_HAL_Driver/Src/stm32g4xx_hal_pwr_ex.c ****     case PWR_GPIO_B:
 839              		.loc 1 436 8 is_stmt 1 view .LVU211
 840 0040 7047     		bx	lr
 841              	.LVL67:
 842              	.L90:
 438:Drivers/STM32G4xx_HAL_Driver/Src/stm32g4xx_hal_pwr_ex.c ****        CLEAR_BIT(PWR->PUCRB, GPIONumber);
ARM GAS  /tmp/ccK442Dq.s 			page 26


 843              		.loc 1 438 8 view .LVU212
 844 0042 1E4B     		ldr	r3, .L96
 425:Drivers/STM32G4xx_HAL_Driver/Src/stm32g4xx_hal_pwr_ex.c ****   HAL_StatusTypeDef status = HAL_OK;
 845              		.loc 1 425 1 is_stmt 0 view .LVU213
 846 0044 10B4     		push	{r4}
 847              	.LCFI9:
 848              		.cfi_def_cfa_offset 4
 849              		.cfi_offset 4, -4
 438:Drivers/STM32G4xx_HAL_Driver/Src/stm32g4xx_hal_pwr_ex.c ****        CLEAR_BIT(PWR->PUCRB, GPIONumber);
 850              		.loc 1 438 8 view .LVU214
 851 0046 DC6A     		ldr	r4, [r3, #44]
 852 0048 21F01002 		bic	r2, r1, #16
 853 004c 2243     		orrs	r2, r2, r4
 854 004e DA62     		str	r2, [r3, #44]
 439:Drivers/STM32G4xx_HAL_Driver/Src/stm32g4xx_hal_pwr_ex.c ****        break;
 855              		.loc 1 439 8 is_stmt 1 view .LVU215
 856 0050 9A6A     		ldr	r2, [r3, #40]
 461:Drivers/STM32G4xx_HAL_Driver/Src/stm32g4xx_hal_pwr_ex.c ****     default:
 462:Drivers/STM32G4xx_HAL_Driver/Src/stm32g4xx_hal_pwr_ex.c ****       status = HAL_ERROR;
 463:Drivers/STM32G4xx_HAL_Driver/Src/stm32g4xx_hal_pwr_ex.c ****       break;
 464:Drivers/STM32G4xx_HAL_Driver/Src/stm32g4xx_hal_pwr_ex.c ****   }
 465:Drivers/STM32G4xx_HAL_Driver/Src/stm32g4xx_hal_pwr_ex.c **** 
 466:Drivers/STM32G4xx_HAL_Driver/Src/stm32g4xx_hal_pwr_ex.c ****   return status;
 467:Drivers/STM32G4xx_HAL_Driver/Src/stm32g4xx_hal_pwr_ex.c **** }
 857              		.loc 1 467 1 is_stmt 0 view .LVU216
 858 0052 5DF8044B 		ldr	r4, [sp], #4
 859              	.LCFI10:
 860              		.cfi_restore 4
 861              		.cfi_def_cfa_offset 0
 439:Drivers/STM32G4xx_HAL_Driver/Src/stm32g4xx_hal_pwr_ex.c ****        break;
 862              		.loc 1 439 8 view .LVU217
 863 0056 22EA0101 		bic	r1, r2, r1
 864              	.LVL68:
 426:Drivers/STM32G4xx_HAL_Driver/Src/stm32g4xx_hal_pwr_ex.c **** 
 865              		.loc 1 426 21 view .LVU218
 866 005a 0020     		movs	r0, #0
 867              	.LVL69:
 439:Drivers/STM32G4xx_HAL_Driver/Src/stm32g4xx_hal_pwr_ex.c ****        break;
 868              		.loc 1 439 8 view .LVU219
 869 005c 9962     		str	r1, [r3, #40]
 440:Drivers/STM32G4xx_HAL_Driver/Src/stm32g4xx_hal_pwr_ex.c ****     case PWR_GPIO_C:
 870              		.loc 1 440 8 is_stmt 1 view .LVU220
 871              	.LVL70:
 466:Drivers/STM32G4xx_HAL_Driver/Src/stm32g4xx_hal_pwr_ex.c **** }
 872              		.loc 1 466 3 view .LVU221
 873              		.loc 1 467 1 is_stmt 0 view .LVU222
 874 005e 7047     		bx	lr
 875              	.LVL71:
 876              	.L89:
 442:Drivers/STM32G4xx_HAL_Driver/Src/stm32g4xx_hal_pwr_ex.c ****        CLEAR_BIT(PWR->PUCRC, GPIONumber);
 877              		.loc 1 442 8 is_stmt 1 view .LVU223
 878 0060 164B     		ldr	r3, .L96
 879 0062 5A6B     		ldr	r2, [r3, #52]
 880 0064 0A43     		orrs	r2, r2, r1
 881 0066 5A63     		str	r2, [r3, #52]
 443:Drivers/STM32G4xx_HAL_Driver/Src/stm32g4xx_hal_pwr_ex.c ****        break;
 882              		.loc 1 443 8 view .LVU224
ARM GAS  /tmp/ccK442Dq.s 			page 27


 883 0068 1A6B     		ldr	r2, [r3, #48]
 884 006a 22EA0101 		bic	r1, r2, r1
 885              	.LVL72:
 426:Drivers/STM32G4xx_HAL_Driver/Src/stm32g4xx_hal_pwr_ex.c **** 
 886              		.loc 1 426 21 is_stmt 0 view .LVU225
 887 006e 0020     		movs	r0, #0
 888              	.LVL73:
 443:Drivers/STM32G4xx_HAL_Driver/Src/stm32g4xx_hal_pwr_ex.c ****        break;
 889              		.loc 1 443 8 view .LVU226
 890 0070 1963     		str	r1, [r3, #48]
 444:Drivers/STM32G4xx_HAL_Driver/Src/stm32g4xx_hal_pwr_ex.c ****     case PWR_GPIO_D:
 891              		.loc 1 444 8 is_stmt 1 view .LVU227
 892 0072 7047     		bx	lr
 893              	.LVL74:
 894              	.L88:
 446:Drivers/STM32G4xx_HAL_Driver/Src/stm32g4xx_hal_pwr_ex.c ****        CLEAR_BIT(PWR->PUCRD, GPIONumber);
 895              		.loc 1 446 8 view .LVU228
 896 0074 114B     		ldr	r3, .L96
 897 0076 DA6B     		ldr	r2, [r3, #60]
 898 0078 0A43     		orrs	r2, r2, r1
 899 007a DA63     		str	r2, [r3, #60]
 447:Drivers/STM32G4xx_HAL_Driver/Src/stm32g4xx_hal_pwr_ex.c ****        break;
 900              		.loc 1 447 8 view .LVU229
 901 007c 9A6B     		ldr	r2, [r3, #56]
 902 007e 22EA0101 		bic	r1, r2, r1
 903              	.LVL75:
 426:Drivers/STM32G4xx_HAL_Driver/Src/stm32g4xx_hal_pwr_ex.c **** 
 904              		.loc 1 426 21 is_stmt 0 view .LVU230
 905 0082 0020     		movs	r0, #0
 906              	.LVL76:
 447:Drivers/STM32G4xx_HAL_Driver/Src/stm32g4xx_hal_pwr_ex.c ****        break;
 907              		.loc 1 447 8 view .LVU231
 908 0084 9963     		str	r1, [r3, #56]
 448:Drivers/STM32G4xx_HAL_Driver/Src/stm32g4xx_hal_pwr_ex.c ****     case PWR_GPIO_E:
 909              		.loc 1 448 8 is_stmt 1 view .LVU232
 910 0086 7047     		bx	lr
 911              	.LVL77:
 912              	.L87:
 450:Drivers/STM32G4xx_HAL_Driver/Src/stm32g4xx_hal_pwr_ex.c ****        CLEAR_BIT(PWR->PUCRE, GPIONumber);
 913              		.loc 1 450 8 view .LVU233
 914 0088 0C4B     		ldr	r3, .L96
 915 008a 5A6C     		ldr	r2, [r3, #68]
 916 008c 0A43     		orrs	r2, r2, r1
 917 008e 5A64     		str	r2, [r3, #68]
 451:Drivers/STM32G4xx_HAL_Driver/Src/stm32g4xx_hal_pwr_ex.c ****        break;
 918              		.loc 1 451 8 view .LVU234
 919 0090 1A6C     		ldr	r2, [r3, #64]
 920 0092 22EA0101 		bic	r1, r2, r1
 921              	.LVL78:
 426:Drivers/STM32G4xx_HAL_Driver/Src/stm32g4xx_hal_pwr_ex.c **** 
 922              		.loc 1 426 21 is_stmt 0 view .LVU235
 923 0096 0020     		movs	r0, #0
 924              	.LVL79:
 451:Drivers/STM32G4xx_HAL_Driver/Src/stm32g4xx_hal_pwr_ex.c ****        break;
 925              		.loc 1 451 8 view .LVU236
 926 0098 1964     		str	r1, [r3, #64]
 452:Drivers/STM32G4xx_HAL_Driver/Src/stm32g4xx_hal_pwr_ex.c ****     case PWR_GPIO_F:
ARM GAS  /tmp/ccK442Dq.s 			page 28


 927              		.loc 1 452 8 is_stmt 1 view .LVU237
 928 009a 7047     		bx	lr
 929              	.LVL80:
 930              	.L86:
 454:Drivers/STM32G4xx_HAL_Driver/Src/stm32g4xx_hal_pwr_ex.c ****        CLEAR_BIT(PWR->PUCRF, (GPIONumber & PWR_PORTF_AVAILABLE_PINS));
 931              		.loc 1 454 8 view .LVU238
 932 009c 074B     		ldr	r3, .L96
 933 009e 40F20762 		movw	r2, #1543
 934 00a2 D86C     		ldr	r0, [r3, #76]
 935              	.LVL81:
 454:Drivers/STM32G4xx_HAL_Driver/Src/stm32g4xx_hal_pwr_ex.c ****        CLEAR_BIT(PWR->PUCRF, (GPIONumber & PWR_PORTF_AVAILABLE_PINS));
 936              		.loc 1 454 8 is_stmt 0 view .LVU239
 937 00a4 1140     		ands	r1, r1, r2
 938              	.LVL82:
 454:Drivers/STM32G4xx_HAL_Driver/Src/stm32g4xx_hal_pwr_ex.c ****        CLEAR_BIT(PWR->PUCRF, (GPIONumber & PWR_PORTF_AVAILABLE_PINS));
 939              		.loc 1 454 8 view .LVU240
 940 00a6 0843     		orrs	r0, r0, r1
 941 00a8 D864     		str	r0, [r3, #76]
 455:Drivers/STM32G4xx_HAL_Driver/Src/stm32g4xx_hal_pwr_ex.c ****        break;
 942              		.loc 1 455 8 is_stmt 1 view .LVU241
 943 00aa 9A6C     		ldr	r2, [r3, #72]
 944 00ac 22EA0101 		bic	r1, r2, r1
 426:Drivers/STM32G4xx_HAL_Driver/Src/stm32g4xx_hal_pwr_ex.c **** 
 945              		.loc 1 426 21 is_stmt 0 view .LVU242
 946 00b0 0020     		movs	r0, #0
 455:Drivers/STM32G4xx_HAL_Driver/Src/stm32g4xx_hal_pwr_ex.c ****        break;
 947              		.loc 1 455 8 view .LVU243
 948 00b2 9964     		str	r1, [r3, #72]
 456:Drivers/STM32G4xx_HAL_Driver/Src/stm32g4xx_hal_pwr_ex.c ****     case PWR_GPIO_G:
 949              		.loc 1 456 8 is_stmt 1 view .LVU244
 950 00b4 7047     		bx	lr
 951              	.LVL83:
 952              	.L92:
 426:Drivers/STM32G4xx_HAL_Driver/Src/stm32g4xx_hal_pwr_ex.c **** 
 953              		.loc 1 426 21 is_stmt 0 view .LVU245
 954 00b6 0120     		movs	r0, #1
 955              	.LVL84:
 466:Drivers/STM32G4xx_HAL_Driver/Src/stm32g4xx_hal_pwr_ex.c **** }
 956              		.loc 1 466 3 is_stmt 1 view .LVU246
 957              		.loc 1 467 1 is_stmt 0 view .LVU247
 958 00b8 7047     		bx	lr
 959              	.L97:
 960 00ba 00BF     		.align	2
 961              	.L96:
 962 00bc 00700040 		.word	1073770496
 963              		.cfi_endproc
 964              	.LFE140:
 966              		.section	.text.HAL_PWREx_DisableGPIOPullDown,"ax",%progbits
 967              		.align	1
 968              		.p2align 2,,3
 969              		.global	HAL_PWREx_DisableGPIOPullDown
 970              		.syntax unified
 971              		.thumb
 972              		.thumb_func
 973              		.fpu fpv4-sp-d16
 975              	HAL_PWREx_DisableGPIOPullDown:
 976              	.LVL85:
ARM GAS  /tmp/ccK442Dq.s 			page 29


 977              	.LFB141:
 468:Drivers/STM32G4xx_HAL_Driver/Src/stm32g4xx_hal_pwr_ex.c **** 
 469:Drivers/STM32G4xx_HAL_Driver/Src/stm32g4xx_hal_pwr_ex.c **** 
 470:Drivers/STM32G4xx_HAL_Driver/Src/stm32g4xx_hal_pwr_ex.c **** /**
 471:Drivers/STM32G4xx_HAL_Driver/Src/stm32g4xx_hal_pwr_ex.c ****   * @brief Disable GPIO pull-down state in Standby and Shutdown modes.
 472:Drivers/STM32G4xx_HAL_Driver/Src/stm32g4xx_hal_pwr_ex.c ****   * @note  Reset the relevant PDy bits of PWR_PDCRx register used to configure the I/O
 473:Drivers/STM32G4xx_HAL_Driver/Src/stm32g4xx_hal_pwr_ex.c ****   *        in pull-down state in Standby and Shutdown modes.
 474:Drivers/STM32G4xx_HAL_Driver/Src/stm32g4xx_hal_pwr_ex.c ****   * @note  Even if a PDy bit to reset is reserved, the other PDy bits entered as input
 475:Drivers/STM32G4xx_HAL_Driver/Src/stm32g4xx_hal_pwr_ex.c ****   *        parameter at the same time are reset.
 476:Drivers/STM32G4xx_HAL_Driver/Src/stm32g4xx_hal_pwr_ex.c ****   * @param  GPIO: Specifies the IO port. This parameter can be PWR_GPIO_A..PWR_GPIO_G
 477:Drivers/STM32G4xx_HAL_Driver/Src/stm32g4xx_hal_pwr_ex.c ****   *         (or PWR_GPIO_I depending on the devices) to select the GPIO peripheral.
 478:Drivers/STM32G4xx_HAL_Driver/Src/stm32g4xx_hal_pwr_ex.c ****   * @param  GPIONumber: Specify the I/O pins numbers.
 479:Drivers/STM32G4xx_HAL_Driver/Src/stm32g4xx_hal_pwr_ex.c ****   *         This parameter can be one of the following values:
 480:Drivers/STM32G4xx_HAL_Driver/Src/stm32g4xx_hal_pwr_ex.c ****   *         PWR_GPIO_BIT_0, ..., PWR_GPIO_BIT_15 (except for the port where less
 481:Drivers/STM32G4xx_HAL_Driver/Src/stm32g4xx_hal_pwr_ex.c ****   *         I/O pins are available) or the logical OR of several of them to reset
 482:Drivers/STM32G4xx_HAL_Driver/Src/stm32g4xx_hal_pwr_ex.c ****   *         several bits for a given port in a single API call.
 483:Drivers/STM32G4xx_HAL_Driver/Src/stm32g4xx_hal_pwr_ex.c ****   * @retval HAL Status
 484:Drivers/STM32G4xx_HAL_Driver/Src/stm32g4xx_hal_pwr_ex.c ****   */
 485:Drivers/STM32G4xx_HAL_Driver/Src/stm32g4xx_hal_pwr_ex.c **** HAL_StatusTypeDef HAL_PWREx_DisableGPIOPullDown(uint32_t GPIO, uint32_t GPIONumber)
 486:Drivers/STM32G4xx_HAL_Driver/Src/stm32g4xx_hal_pwr_ex.c **** {
 978              		.loc 1 486 1 is_stmt 1 view -0
 979              		.cfi_startproc
 980              		@ args = 0, pretend = 0, frame = 0
 981              		@ frame_needed = 0, uses_anonymous_args = 0
 982              		@ link register save eliminated.
 487:Drivers/STM32G4xx_HAL_Driver/Src/stm32g4xx_hal_pwr_ex.c ****   HAL_StatusTypeDef status = HAL_OK;
 983              		.loc 1 487 3 view .LVU249
 488:Drivers/STM32G4xx_HAL_Driver/Src/stm32g4xx_hal_pwr_ex.c **** 
 489:Drivers/STM32G4xx_HAL_Driver/Src/stm32g4xx_hal_pwr_ex.c ****   assert_param(IS_PWR_GPIO(GPIO));
 984              		.loc 1 489 3 view .LVU250
 490:Drivers/STM32G4xx_HAL_Driver/Src/stm32g4xx_hal_pwr_ex.c ****   assert_param(IS_PWR_GPIO_BIT_NUMBER(GPIONumber));
 985              		.loc 1 490 3 view .LVU251
 491:Drivers/STM32G4xx_HAL_Driver/Src/stm32g4xx_hal_pwr_ex.c **** 
 492:Drivers/STM32G4xx_HAL_Driver/Src/stm32g4xx_hal_pwr_ex.c ****   switch (GPIO)
 986              		.loc 1 492 3 view .LVU252
 987 0000 0628     		cmp	r0, #6
 988 0002 3BD8     		bhi	.L108
 989 0004 DFE800F0 		tbb	[pc, r0]
 990              	.L101:
 991 0008 09       		.byte	(.L107-.L101)/2
 992 0009 12       		.byte	(.L106-.L101)/2
 993 000a 1B       		.byte	(.L105-.L101)/2
 994 000b 22       		.byte	(.L104-.L101)/2
 995 000c 29       		.byte	(.L103-.L101)/2
 996 000d 30       		.byte	(.L102-.L101)/2
 997 000e 04       		.byte	(.L100-.L101)/2
 998 000f 00       		.p2align 1
 999              	.L100:
 493:Drivers/STM32G4xx_HAL_Driver/Src/stm32g4xx_hal_pwr_ex.c ****   {
 494:Drivers/STM32G4xx_HAL_Driver/Src/stm32g4xx_hal_pwr_ex.c ****     case PWR_GPIO_A:
 495:Drivers/STM32G4xx_HAL_Driver/Src/stm32g4xx_hal_pwr_ex.c ****        CLEAR_BIT(PWR->PDCRA, (GPIONumber & (~(PWR_GPIO_BIT_13|PWR_GPIO_BIT_15))));
 496:Drivers/STM32G4xx_HAL_Driver/Src/stm32g4xx_hal_pwr_ex.c ****        break;
 497:Drivers/STM32G4xx_HAL_Driver/Src/stm32g4xx_hal_pwr_ex.c ****     case PWR_GPIO_B:
 498:Drivers/STM32G4xx_HAL_Driver/Src/stm32g4xx_hal_pwr_ex.c ****        CLEAR_BIT(PWR->PDCRB, (GPIONumber & (~(PWR_GPIO_BIT_4))));
 499:Drivers/STM32G4xx_HAL_Driver/Src/stm32g4xx_hal_pwr_ex.c ****        break;
 500:Drivers/STM32G4xx_HAL_Driver/Src/stm32g4xx_hal_pwr_ex.c ****     case PWR_GPIO_C:
 501:Drivers/STM32G4xx_HAL_Driver/Src/stm32g4xx_hal_pwr_ex.c ****        CLEAR_BIT(PWR->PDCRC, GPIONumber);
ARM GAS  /tmp/ccK442Dq.s 			page 30


 502:Drivers/STM32G4xx_HAL_Driver/Src/stm32g4xx_hal_pwr_ex.c ****        break;
 503:Drivers/STM32G4xx_HAL_Driver/Src/stm32g4xx_hal_pwr_ex.c ****     case PWR_GPIO_D:
 504:Drivers/STM32G4xx_HAL_Driver/Src/stm32g4xx_hal_pwr_ex.c ****        CLEAR_BIT(PWR->PDCRD, GPIONumber);
 505:Drivers/STM32G4xx_HAL_Driver/Src/stm32g4xx_hal_pwr_ex.c ****        break;
 506:Drivers/STM32G4xx_HAL_Driver/Src/stm32g4xx_hal_pwr_ex.c ****     case PWR_GPIO_E:
 507:Drivers/STM32G4xx_HAL_Driver/Src/stm32g4xx_hal_pwr_ex.c ****        CLEAR_BIT(PWR->PDCRE, GPIONumber);
 508:Drivers/STM32G4xx_HAL_Driver/Src/stm32g4xx_hal_pwr_ex.c ****        break;
 509:Drivers/STM32G4xx_HAL_Driver/Src/stm32g4xx_hal_pwr_ex.c ****     case PWR_GPIO_F:
 510:Drivers/STM32G4xx_HAL_Driver/Src/stm32g4xx_hal_pwr_ex.c ****        CLEAR_BIT(PWR->PDCRF, (GPIONumber & PWR_PORTF_AVAILABLE_PINS));
 511:Drivers/STM32G4xx_HAL_Driver/Src/stm32g4xx_hal_pwr_ex.c ****        break;
 512:Drivers/STM32G4xx_HAL_Driver/Src/stm32g4xx_hal_pwr_ex.c ****     case PWR_GPIO_G:
 513:Drivers/STM32G4xx_HAL_Driver/Src/stm32g4xx_hal_pwr_ex.c ****        CLEAR_BIT(PWR->PDCRG, ((GPIONumber & PWR_PORTG_AVAILABLE_PINS) & (~(PWR_GPIO_BIT_10))));
 1000              		.loc 1 513 8 view .LVU253
 1001 0010 1B4B     		ldr	r3, .L109
 1002 0012 5A6D     		ldr	r2, [r3, #84]
 1003 0014 5A65     		str	r2, [r3, #84]
 514:Drivers/STM32G4xx_HAL_Driver/Src/stm32g4xx_hal_pwr_ex.c ****        break;
 1004              		.loc 1 514 8 view .LVU254
 487:Drivers/STM32G4xx_HAL_Driver/Src/stm32g4xx_hal_pwr_ex.c **** 
 1005              		.loc 1 487 21 is_stmt 0 view .LVU255
 1006 0016 0020     		movs	r0, #0
 1007              	.LVL86:
 1008              		.loc 1 514 8 view .LVU256
 1009 0018 7047     		bx	lr
 1010              	.LVL87:
 1011              	.L107:
 495:Drivers/STM32G4xx_HAL_Driver/Src/stm32g4xx_hal_pwr_ex.c ****        break;
 1012              		.loc 1 495 8 is_stmt 1 view .LVU257
 1013 001a 194A     		ldr	r2, .L109
 1014 001c 536A     		ldr	r3, [r2, #36]
 1015 001e 21F42041 		bic	r1, r1, #40960
 1016              	.LVL88:
 495:Drivers/STM32G4xx_HAL_Driver/Src/stm32g4xx_hal_pwr_ex.c ****        break;
 1017              		.loc 1 495 8 is_stmt 0 view .LVU258
 1018 0022 23EA0101 		bic	r1, r3, r1
 487:Drivers/STM32G4xx_HAL_Driver/Src/stm32g4xx_hal_pwr_ex.c **** 
 1019              		.loc 1 487 21 view .LVU259
 1020 0026 0020     		movs	r0, #0
 1021              	.LVL89:
 495:Drivers/STM32G4xx_HAL_Driver/Src/stm32g4xx_hal_pwr_ex.c ****        break;
 1022              		.loc 1 495 8 view .LVU260
 1023 0028 5162     		str	r1, [r2, #36]
 496:Drivers/STM32G4xx_HAL_Driver/Src/stm32g4xx_hal_pwr_ex.c ****     case PWR_GPIO_B:
 1024              		.loc 1 496 8 is_stmt 1 view .LVU261
 1025 002a 7047     		bx	lr
 1026              	.LVL90:
 1027              	.L106:
 498:Drivers/STM32G4xx_HAL_Driver/Src/stm32g4xx_hal_pwr_ex.c ****        break;
 1028              		.loc 1 498 8 view .LVU262
 1029 002c 144A     		ldr	r2, .L109
 1030 002e D36A     		ldr	r3, [r2, #44]
 1031 0030 21F01001 		bic	r1, r1, #16
 1032              	.LVL91:
 498:Drivers/STM32G4xx_HAL_Driver/Src/stm32g4xx_hal_pwr_ex.c ****        break;
 1033              		.loc 1 498 8 is_stmt 0 view .LVU263
 1034 0034 23EA0101 		bic	r1, r3, r1
 487:Drivers/STM32G4xx_HAL_Driver/Src/stm32g4xx_hal_pwr_ex.c **** 
ARM GAS  /tmp/ccK442Dq.s 			page 31


 1035              		.loc 1 487 21 view .LVU264
 1036 0038 0020     		movs	r0, #0
 1037              	.LVL92:
 498:Drivers/STM32G4xx_HAL_Driver/Src/stm32g4xx_hal_pwr_ex.c ****        break;
 1038              		.loc 1 498 8 view .LVU265
 1039 003a D162     		str	r1, [r2, #44]
 499:Drivers/STM32G4xx_HAL_Driver/Src/stm32g4xx_hal_pwr_ex.c ****     case PWR_GPIO_C:
 1040              		.loc 1 499 8 is_stmt 1 view .LVU266
 1041 003c 7047     		bx	lr
 1042              	.LVL93:
 1043              	.L105:
 501:Drivers/STM32G4xx_HAL_Driver/Src/stm32g4xx_hal_pwr_ex.c ****        break;
 1044              		.loc 1 501 8 view .LVU267
 1045 003e 104A     		ldr	r2, .L109
 1046 0040 536B     		ldr	r3, [r2, #52]
 1047 0042 23EA0101 		bic	r1, r3, r1
 1048              	.LVL94:
 487:Drivers/STM32G4xx_HAL_Driver/Src/stm32g4xx_hal_pwr_ex.c **** 
 1049              		.loc 1 487 21 is_stmt 0 view .LVU268
 1050 0046 0020     		movs	r0, #0
 1051              	.LVL95:
 501:Drivers/STM32G4xx_HAL_Driver/Src/stm32g4xx_hal_pwr_ex.c ****        break;
 1052              		.loc 1 501 8 view .LVU269
 1053 0048 5163     		str	r1, [r2, #52]
 502:Drivers/STM32G4xx_HAL_Driver/Src/stm32g4xx_hal_pwr_ex.c ****     case PWR_GPIO_D:
 1054              		.loc 1 502 8 is_stmt 1 view .LVU270
 1055 004a 7047     		bx	lr
 1056              	.LVL96:
 1057              	.L104:
 504:Drivers/STM32G4xx_HAL_Driver/Src/stm32g4xx_hal_pwr_ex.c ****        break;
 1058              		.loc 1 504 8 view .LVU271
 1059 004c 0C4A     		ldr	r2, .L109
 1060 004e D36B     		ldr	r3, [r2, #60]
 1061 0050 23EA0101 		bic	r1, r3, r1
 1062              	.LVL97:
 487:Drivers/STM32G4xx_HAL_Driver/Src/stm32g4xx_hal_pwr_ex.c **** 
 1063              		.loc 1 487 21 is_stmt 0 view .LVU272
 1064 0054 0020     		movs	r0, #0
 1065              	.LVL98:
 504:Drivers/STM32G4xx_HAL_Driver/Src/stm32g4xx_hal_pwr_ex.c ****        break;
 1066              		.loc 1 504 8 view .LVU273
 1067 0056 D163     		str	r1, [r2, #60]
 505:Drivers/STM32G4xx_HAL_Driver/Src/stm32g4xx_hal_pwr_ex.c ****     case PWR_GPIO_E:
 1068              		.loc 1 505 8 is_stmt 1 view .LVU274
 1069 0058 7047     		bx	lr
 1070              	.LVL99:
 1071              	.L103:
 507:Drivers/STM32G4xx_HAL_Driver/Src/stm32g4xx_hal_pwr_ex.c ****        break;
 1072              		.loc 1 507 8 view .LVU275
 1073 005a 094A     		ldr	r2, .L109
 1074 005c 536C     		ldr	r3, [r2, #68]
 1075 005e 23EA0101 		bic	r1, r3, r1
 1076              	.LVL100:
 487:Drivers/STM32G4xx_HAL_Driver/Src/stm32g4xx_hal_pwr_ex.c **** 
 1077              		.loc 1 487 21 is_stmt 0 view .LVU276
 1078 0062 0020     		movs	r0, #0
 1079              	.LVL101:
ARM GAS  /tmp/ccK442Dq.s 			page 32


 507:Drivers/STM32G4xx_HAL_Driver/Src/stm32g4xx_hal_pwr_ex.c ****        break;
 1080              		.loc 1 507 8 view .LVU277
 1081 0064 5164     		str	r1, [r2, #68]
 508:Drivers/STM32G4xx_HAL_Driver/Src/stm32g4xx_hal_pwr_ex.c ****     case PWR_GPIO_F:
 1082              		.loc 1 508 8 is_stmt 1 view .LVU278
 1083 0066 7047     		bx	lr
 1084              	.LVL102:
 1085              	.L102:
 510:Drivers/STM32G4xx_HAL_Driver/Src/stm32g4xx_hal_pwr_ex.c ****        break;
 1086              		.loc 1 510 8 view .LVU279
 1087 0068 054A     		ldr	r2, .L109
 1088 006a 40F20760 		movw	r0, #1543
 1089              	.LVL103:
 510:Drivers/STM32G4xx_HAL_Driver/Src/stm32g4xx_hal_pwr_ex.c ****        break;
 1090              		.loc 1 510 8 is_stmt 0 view .LVU280
 1091 006e D36C     		ldr	r3, [r2, #76]
 1092 0070 0140     		ands	r1, r1, r0
 1093              	.LVL104:
 510:Drivers/STM32G4xx_HAL_Driver/Src/stm32g4xx_hal_pwr_ex.c ****        break;
 1094              		.loc 1 510 8 view .LVU281
 1095 0072 23EA0101 		bic	r1, r3, r1
 1096 0076 D164     		str	r1, [r2, #76]
 511:Drivers/STM32G4xx_HAL_Driver/Src/stm32g4xx_hal_pwr_ex.c ****     case PWR_GPIO_G:
 1097              		.loc 1 511 8 is_stmt 1 view .LVU282
 487:Drivers/STM32G4xx_HAL_Driver/Src/stm32g4xx_hal_pwr_ex.c **** 
 1098              		.loc 1 487 21 is_stmt 0 view .LVU283
 1099 0078 0020     		movs	r0, #0
 511:Drivers/STM32G4xx_HAL_Driver/Src/stm32g4xx_hal_pwr_ex.c ****     case PWR_GPIO_G:
 1100              		.loc 1 511 8 view .LVU284
 1101 007a 7047     		bx	lr
 1102              	.LVL105:
 1103              	.L108:
 487:Drivers/STM32G4xx_HAL_Driver/Src/stm32g4xx_hal_pwr_ex.c **** 
 1104              		.loc 1 487 21 view .LVU285
 1105 007c 0120     		movs	r0, #1
 1106              	.LVL106:
 515:Drivers/STM32G4xx_HAL_Driver/Src/stm32g4xx_hal_pwr_ex.c ****     default:
 516:Drivers/STM32G4xx_HAL_Driver/Src/stm32g4xx_hal_pwr_ex.c ****       status = HAL_ERROR;
 517:Drivers/STM32G4xx_HAL_Driver/Src/stm32g4xx_hal_pwr_ex.c ****       break;
 518:Drivers/STM32G4xx_HAL_Driver/Src/stm32g4xx_hal_pwr_ex.c ****   }
 519:Drivers/STM32G4xx_HAL_Driver/Src/stm32g4xx_hal_pwr_ex.c **** 
 520:Drivers/STM32G4xx_HAL_Driver/Src/stm32g4xx_hal_pwr_ex.c ****   return status;
 1107              		.loc 1 520 3 is_stmt 1 view .LVU286
 521:Drivers/STM32G4xx_HAL_Driver/Src/stm32g4xx_hal_pwr_ex.c **** }
 1108              		.loc 1 521 1 is_stmt 0 view .LVU287
 1109 007e 7047     		bx	lr
 1110              	.L110:
 1111              		.align	2
 1112              	.L109:
 1113 0080 00700040 		.word	1073770496
 1114              		.cfi_endproc
 1115              	.LFE141:
 1117              		.section	.text.HAL_PWREx_EnablePullUpPullDownConfig,"ax",%progbits
 1118              		.align	1
 1119              		.p2align 2,,3
 1120              		.global	HAL_PWREx_EnablePullUpPullDownConfig
 1121              		.syntax unified
ARM GAS  /tmp/ccK442Dq.s 			page 33


 1122              		.thumb
 1123              		.thumb_func
 1124              		.fpu fpv4-sp-d16
 1126              	HAL_PWREx_EnablePullUpPullDownConfig:
 1127              	.LFB142:
 522:Drivers/STM32G4xx_HAL_Driver/Src/stm32g4xx_hal_pwr_ex.c **** 
 523:Drivers/STM32G4xx_HAL_Driver/Src/stm32g4xx_hal_pwr_ex.c **** 
 524:Drivers/STM32G4xx_HAL_Driver/Src/stm32g4xx_hal_pwr_ex.c **** 
 525:Drivers/STM32G4xx_HAL_Driver/Src/stm32g4xx_hal_pwr_ex.c **** /**
 526:Drivers/STM32G4xx_HAL_Driver/Src/stm32g4xx_hal_pwr_ex.c ****   * @brief Enable pull-up and pull-down configuration.
 527:Drivers/STM32G4xx_HAL_Driver/Src/stm32g4xx_hal_pwr_ex.c ****   * @note  When APC bit is set, the I/O pull-up and pull-down configurations defined in
 528:Drivers/STM32G4xx_HAL_Driver/Src/stm32g4xx_hal_pwr_ex.c ****   *        PWR_PUCRx and PWR_PDCRx registers are applied in Standby and Shutdown modes.
 529:Drivers/STM32G4xx_HAL_Driver/Src/stm32g4xx_hal_pwr_ex.c ****   * @note  Pull-up set by PUy bit of PWR_PUCRx register is not activated if the corresponding
 530:Drivers/STM32G4xx_HAL_Driver/Src/stm32g4xx_hal_pwr_ex.c ****   *        PDy bit of PWR_PDCRx register is also set (pull-down configuration priority is higher).
 531:Drivers/STM32G4xx_HAL_Driver/Src/stm32g4xx_hal_pwr_ex.c ****   *        HAL_PWREx_EnableGPIOPullUp() and HAL_PWREx_EnableGPIOPullDown() API's ensure there
 532:Drivers/STM32G4xx_HAL_Driver/Src/stm32g4xx_hal_pwr_ex.c ****   *        is no conflict when setting PUy or PDy bit.
 533:Drivers/STM32G4xx_HAL_Driver/Src/stm32g4xx_hal_pwr_ex.c ****   * @retval None
 534:Drivers/STM32G4xx_HAL_Driver/Src/stm32g4xx_hal_pwr_ex.c ****   */
 535:Drivers/STM32G4xx_HAL_Driver/Src/stm32g4xx_hal_pwr_ex.c **** void HAL_PWREx_EnablePullUpPullDownConfig(void)
 536:Drivers/STM32G4xx_HAL_Driver/Src/stm32g4xx_hal_pwr_ex.c **** {
 1128              		.loc 1 536 1 is_stmt 1 view -0
 1129              		.cfi_startproc
 1130              		@ args = 0, pretend = 0, frame = 0
 1131              		@ frame_needed = 0, uses_anonymous_args = 0
 1132              		@ link register save eliminated.
 537:Drivers/STM32G4xx_HAL_Driver/Src/stm32g4xx_hal_pwr_ex.c ****   SET_BIT(PWR->CR3, PWR_CR3_APC);
 1133              		.loc 1 537 3 view .LVU289
 1134 0000 024A     		ldr	r2, .L112
 1135 0002 9368     		ldr	r3, [r2, #8]
 1136 0004 43F48063 		orr	r3, r3, #1024
 1137 0008 9360     		str	r3, [r2, #8]
 538:Drivers/STM32G4xx_HAL_Driver/Src/stm32g4xx_hal_pwr_ex.c **** }
 1138              		.loc 1 538 1 is_stmt 0 view .LVU290
 1139 000a 7047     		bx	lr
 1140              	.L113:
 1141              		.align	2
 1142              	.L112:
 1143 000c 00700040 		.word	1073770496
 1144              		.cfi_endproc
 1145              	.LFE142:
 1147              		.section	.text.HAL_PWREx_DisablePullUpPullDownConfig,"ax",%progbits
 1148              		.align	1
 1149              		.p2align 2,,3
 1150              		.global	HAL_PWREx_DisablePullUpPullDownConfig
 1151              		.syntax unified
 1152              		.thumb
 1153              		.thumb_func
 1154              		.fpu fpv4-sp-d16
 1156              	HAL_PWREx_DisablePullUpPullDownConfig:
 1157              	.LFB143:
 539:Drivers/STM32G4xx_HAL_Driver/Src/stm32g4xx_hal_pwr_ex.c **** 
 540:Drivers/STM32G4xx_HAL_Driver/Src/stm32g4xx_hal_pwr_ex.c **** 
 541:Drivers/STM32G4xx_HAL_Driver/Src/stm32g4xx_hal_pwr_ex.c **** /**
 542:Drivers/STM32G4xx_HAL_Driver/Src/stm32g4xx_hal_pwr_ex.c ****   * @brief Disable pull-up and pull-down configuration.
 543:Drivers/STM32G4xx_HAL_Driver/Src/stm32g4xx_hal_pwr_ex.c ****   * @note  When APC bit is cleared, the I/O pull-up and pull-down configurations defined in
 544:Drivers/STM32G4xx_HAL_Driver/Src/stm32g4xx_hal_pwr_ex.c ****   *        PWR_PUCRx and PWR_PDCRx registers are not applied in Standby and Shutdown modes.
 545:Drivers/STM32G4xx_HAL_Driver/Src/stm32g4xx_hal_pwr_ex.c ****   * @retval None
ARM GAS  /tmp/ccK442Dq.s 			page 34


 546:Drivers/STM32G4xx_HAL_Driver/Src/stm32g4xx_hal_pwr_ex.c ****   */
 547:Drivers/STM32G4xx_HAL_Driver/Src/stm32g4xx_hal_pwr_ex.c **** void HAL_PWREx_DisablePullUpPullDownConfig(void)
 548:Drivers/STM32G4xx_HAL_Driver/Src/stm32g4xx_hal_pwr_ex.c **** {
 1158              		.loc 1 548 1 is_stmt 1 view -0
 1159              		.cfi_startproc
 1160              		@ args = 0, pretend = 0, frame = 0
 1161              		@ frame_needed = 0, uses_anonymous_args = 0
 1162              		@ link register save eliminated.
 549:Drivers/STM32G4xx_HAL_Driver/Src/stm32g4xx_hal_pwr_ex.c ****   CLEAR_BIT(PWR->CR3, PWR_CR3_APC);
 1163              		.loc 1 549 3 view .LVU292
 1164 0000 024A     		ldr	r2, .L115
 1165 0002 9368     		ldr	r3, [r2, #8]
 1166 0004 23F48063 		bic	r3, r3, #1024
 1167 0008 9360     		str	r3, [r2, #8]
 550:Drivers/STM32G4xx_HAL_Driver/Src/stm32g4xx_hal_pwr_ex.c **** }
 1168              		.loc 1 550 1 is_stmt 0 view .LVU293
 1169 000a 7047     		bx	lr
 1170              	.L116:
 1171              		.align	2
 1172              	.L115:
 1173 000c 00700040 		.word	1073770496
 1174              		.cfi_endproc
 1175              	.LFE143:
 1177              		.section	.text.HAL_PWREx_EnableSRAM2ContentRetention,"ax",%progbits
 1178              		.align	1
 1179              		.p2align 2,,3
 1180              		.global	HAL_PWREx_EnableSRAM2ContentRetention
 1181              		.syntax unified
 1182              		.thumb
 1183              		.thumb_func
 1184              		.fpu fpv4-sp-d16
 1186              	HAL_PWREx_EnableSRAM2ContentRetention:
 1187              	.LFB144:
 551:Drivers/STM32G4xx_HAL_Driver/Src/stm32g4xx_hal_pwr_ex.c **** 
 552:Drivers/STM32G4xx_HAL_Driver/Src/stm32g4xx_hal_pwr_ex.c **** 
 553:Drivers/STM32G4xx_HAL_Driver/Src/stm32g4xx_hal_pwr_ex.c **** 
 554:Drivers/STM32G4xx_HAL_Driver/Src/stm32g4xx_hal_pwr_ex.c **** /**
 555:Drivers/STM32G4xx_HAL_Driver/Src/stm32g4xx_hal_pwr_ex.c ****   * @brief Enable SRAM2 content retention in Standby mode.
 556:Drivers/STM32G4xx_HAL_Driver/Src/stm32g4xx_hal_pwr_ex.c ****   * @note  When RRS bit is set, SRAM2 is powered by the low-power regulator in
 557:Drivers/STM32G4xx_HAL_Driver/Src/stm32g4xx_hal_pwr_ex.c ****   *         Standby mode and its content is kept.
 558:Drivers/STM32G4xx_HAL_Driver/Src/stm32g4xx_hal_pwr_ex.c ****   * @retval None
 559:Drivers/STM32G4xx_HAL_Driver/Src/stm32g4xx_hal_pwr_ex.c ****   */
 560:Drivers/STM32G4xx_HAL_Driver/Src/stm32g4xx_hal_pwr_ex.c **** void HAL_PWREx_EnableSRAM2ContentRetention(void)
 561:Drivers/STM32G4xx_HAL_Driver/Src/stm32g4xx_hal_pwr_ex.c **** {
 1188              		.loc 1 561 1 is_stmt 1 view -0
 1189              		.cfi_startproc
 1190              		@ args = 0, pretend = 0, frame = 0
 1191              		@ frame_needed = 0, uses_anonymous_args = 0
 1192              		@ link register save eliminated.
 562:Drivers/STM32G4xx_HAL_Driver/Src/stm32g4xx_hal_pwr_ex.c ****   SET_BIT(PWR->CR3, PWR_CR3_RRS);
 1193              		.loc 1 562 3 view .LVU295
 1194 0000 024A     		ldr	r2, .L118
 1195 0002 9368     		ldr	r3, [r2, #8]
 1196 0004 43F48073 		orr	r3, r3, #256
 1197 0008 9360     		str	r3, [r2, #8]
 563:Drivers/STM32G4xx_HAL_Driver/Src/stm32g4xx_hal_pwr_ex.c **** }
 1198              		.loc 1 563 1 is_stmt 0 view .LVU296
ARM GAS  /tmp/ccK442Dq.s 			page 35


 1199 000a 7047     		bx	lr
 1200              	.L119:
 1201              		.align	2
 1202              	.L118:
 1203 000c 00700040 		.word	1073770496
 1204              		.cfi_endproc
 1205              	.LFE144:
 1207              		.section	.text.HAL_PWREx_DisableSRAM2ContentRetention,"ax",%progbits
 1208              		.align	1
 1209              		.p2align 2,,3
 1210              		.global	HAL_PWREx_DisableSRAM2ContentRetention
 1211              		.syntax unified
 1212              		.thumb
 1213              		.thumb_func
 1214              		.fpu fpv4-sp-d16
 1216              	HAL_PWREx_DisableSRAM2ContentRetention:
 1217              	.LFB145:
 564:Drivers/STM32G4xx_HAL_Driver/Src/stm32g4xx_hal_pwr_ex.c **** 
 565:Drivers/STM32G4xx_HAL_Driver/Src/stm32g4xx_hal_pwr_ex.c **** 
 566:Drivers/STM32G4xx_HAL_Driver/Src/stm32g4xx_hal_pwr_ex.c **** /**
 567:Drivers/STM32G4xx_HAL_Driver/Src/stm32g4xx_hal_pwr_ex.c ****   * @brief Disable SRAM2 content retention in Standby mode.
 568:Drivers/STM32G4xx_HAL_Driver/Src/stm32g4xx_hal_pwr_ex.c ****   * @note  When RRS bit is reset, SRAM2 is powered off in Standby mode
 569:Drivers/STM32G4xx_HAL_Driver/Src/stm32g4xx_hal_pwr_ex.c ****   *        and its content is lost.
 570:Drivers/STM32G4xx_HAL_Driver/Src/stm32g4xx_hal_pwr_ex.c ****   * @retval None
 571:Drivers/STM32G4xx_HAL_Driver/Src/stm32g4xx_hal_pwr_ex.c ****   */
 572:Drivers/STM32G4xx_HAL_Driver/Src/stm32g4xx_hal_pwr_ex.c **** void HAL_PWREx_DisableSRAM2ContentRetention(void)
 573:Drivers/STM32G4xx_HAL_Driver/Src/stm32g4xx_hal_pwr_ex.c **** {
 1218              		.loc 1 573 1 is_stmt 1 view -0
 1219              		.cfi_startproc
 1220              		@ args = 0, pretend = 0, frame = 0
 1221              		@ frame_needed = 0, uses_anonymous_args = 0
 1222              		@ link register save eliminated.
 574:Drivers/STM32G4xx_HAL_Driver/Src/stm32g4xx_hal_pwr_ex.c ****   CLEAR_BIT(PWR->CR3, PWR_CR3_RRS);
 1223              		.loc 1 574 3 view .LVU298
 1224 0000 024A     		ldr	r2, .L121
 1225 0002 9368     		ldr	r3, [r2, #8]
 1226 0004 23F48073 		bic	r3, r3, #256
 1227 0008 9360     		str	r3, [r2, #8]
 575:Drivers/STM32G4xx_HAL_Driver/Src/stm32g4xx_hal_pwr_ex.c **** }
 1228              		.loc 1 575 1 is_stmt 0 view .LVU299
 1229 000a 7047     		bx	lr
 1230              	.L122:
 1231              		.align	2
 1232              	.L121:
 1233 000c 00700040 		.word	1073770496
 1234              		.cfi_endproc
 1235              	.LFE145:
 1237              		.section	.text.HAL_PWREx_EnablePVM1,"ax",%progbits
 1238              		.align	1
 1239              		.p2align 2,,3
 1240              		.global	HAL_PWREx_EnablePVM1
 1241              		.syntax unified
 1242              		.thumb
 1243              		.thumb_func
 1244              		.fpu fpv4-sp-d16
 1246              	HAL_PWREx_EnablePVM1:
 1247              	.LFB146:
ARM GAS  /tmp/ccK442Dq.s 			page 36


 576:Drivers/STM32G4xx_HAL_Driver/Src/stm32g4xx_hal_pwr_ex.c **** 
 577:Drivers/STM32G4xx_HAL_Driver/Src/stm32g4xx_hal_pwr_ex.c **** 
 578:Drivers/STM32G4xx_HAL_Driver/Src/stm32g4xx_hal_pwr_ex.c **** 
 579:Drivers/STM32G4xx_HAL_Driver/Src/stm32g4xx_hal_pwr_ex.c **** 
 580:Drivers/STM32G4xx_HAL_Driver/Src/stm32g4xx_hal_pwr_ex.c **** #if defined(PWR_CR2_PVME1)
 581:Drivers/STM32G4xx_HAL_Driver/Src/stm32g4xx_hal_pwr_ex.c **** /**
 582:Drivers/STM32G4xx_HAL_Driver/Src/stm32g4xx_hal_pwr_ex.c ****   * @brief Enable the Power Voltage Monitoring 1: VDDA versus FASTCOMP minimum voltage.
 583:Drivers/STM32G4xx_HAL_Driver/Src/stm32g4xx_hal_pwr_ex.c ****   * @retval None
 584:Drivers/STM32G4xx_HAL_Driver/Src/stm32g4xx_hal_pwr_ex.c ****   */
 585:Drivers/STM32G4xx_HAL_Driver/Src/stm32g4xx_hal_pwr_ex.c **** void HAL_PWREx_EnablePVM1(void)
 586:Drivers/STM32G4xx_HAL_Driver/Src/stm32g4xx_hal_pwr_ex.c **** {
 1248              		.loc 1 586 1 is_stmt 1 view -0
 1249              		.cfi_startproc
 1250              		@ args = 0, pretend = 0, frame = 0
 1251              		@ frame_needed = 0, uses_anonymous_args = 0
 1252              		@ link register save eliminated.
 587:Drivers/STM32G4xx_HAL_Driver/Src/stm32g4xx_hal_pwr_ex.c ****   SET_BIT(PWR->CR2, PWR_PVM_1);
 1253              		.loc 1 587 3 view .LVU301
 1254 0000 024A     		ldr	r2, .L124
 1255 0002 5368     		ldr	r3, [r2, #4]
 1256 0004 43F01003 		orr	r3, r3, #16
 1257 0008 5360     		str	r3, [r2, #4]
 588:Drivers/STM32G4xx_HAL_Driver/Src/stm32g4xx_hal_pwr_ex.c **** }
 1258              		.loc 1 588 1 is_stmt 0 view .LVU302
 1259 000a 7047     		bx	lr
 1260              	.L125:
 1261              		.align	2
 1262              	.L124:
 1263 000c 00700040 		.word	1073770496
 1264              		.cfi_endproc
 1265              	.LFE146:
 1267              		.section	.text.HAL_PWREx_DisablePVM1,"ax",%progbits
 1268              		.align	1
 1269              		.p2align 2,,3
 1270              		.global	HAL_PWREx_DisablePVM1
 1271              		.syntax unified
 1272              		.thumb
 1273              		.thumb_func
 1274              		.fpu fpv4-sp-d16
 1276              	HAL_PWREx_DisablePVM1:
 1277              	.LFB147:
 589:Drivers/STM32G4xx_HAL_Driver/Src/stm32g4xx_hal_pwr_ex.c **** 
 590:Drivers/STM32G4xx_HAL_Driver/Src/stm32g4xx_hal_pwr_ex.c **** /**
 591:Drivers/STM32G4xx_HAL_Driver/Src/stm32g4xx_hal_pwr_ex.c ****   * @brief Disable the Power Voltage Monitoring 1: VDDA versus FASTCOMP minimum voltage.
 592:Drivers/STM32G4xx_HAL_Driver/Src/stm32g4xx_hal_pwr_ex.c ****   * @retval None
 593:Drivers/STM32G4xx_HAL_Driver/Src/stm32g4xx_hal_pwr_ex.c ****   */
 594:Drivers/STM32G4xx_HAL_Driver/Src/stm32g4xx_hal_pwr_ex.c **** void HAL_PWREx_DisablePVM1(void)
 595:Drivers/STM32G4xx_HAL_Driver/Src/stm32g4xx_hal_pwr_ex.c **** {
 1278              		.loc 1 595 1 is_stmt 1 view -0
 1279              		.cfi_startproc
 1280              		@ args = 0, pretend = 0, frame = 0
 1281              		@ frame_needed = 0, uses_anonymous_args = 0
 1282              		@ link register save eliminated.
 596:Drivers/STM32G4xx_HAL_Driver/Src/stm32g4xx_hal_pwr_ex.c ****   CLEAR_BIT(PWR->CR2, PWR_PVM_1);
 1283              		.loc 1 596 3 view .LVU304
 1284 0000 024A     		ldr	r2, .L127
 1285 0002 5368     		ldr	r3, [r2, #4]
ARM GAS  /tmp/ccK442Dq.s 			page 37


 1286 0004 23F01003 		bic	r3, r3, #16
 1287 0008 5360     		str	r3, [r2, #4]
 597:Drivers/STM32G4xx_HAL_Driver/Src/stm32g4xx_hal_pwr_ex.c **** }
 1288              		.loc 1 597 1 is_stmt 0 view .LVU305
 1289 000a 7047     		bx	lr
 1290              	.L128:
 1291              		.align	2
 1292              	.L127:
 1293 000c 00700040 		.word	1073770496
 1294              		.cfi_endproc
 1295              	.LFE147:
 1297              		.section	.text.HAL_PWREx_EnablePVM2,"ax",%progbits
 1298              		.align	1
 1299              		.p2align 2,,3
 1300              		.global	HAL_PWREx_EnablePVM2
 1301              		.syntax unified
 1302              		.thumb
 1303              		.thumb_func
 1304              		.fpu fpv4-sp-d16
 1306              	HAL_PWREx_EnablePVM2:
 1307              	.LFB148:
 598:Drivers/STM32G4xx_HAL_Driver/Src/stm32g4xx_hal_pwr_ex.c **** #endif /* PWR_CR2_PVME1 */
 599:Drivers/STM32G4xx_HAL_Driver/Src/stm32g4xx_hal_pwr_ex.c **** 
 600:Drivers/STM32G4xx_HAL_Driver/Src/stm32g4xx_hal_pwr_ex.c **** 
 601:Drivers/STM32G4xx_HAL_Driver/Src/stm32g4xx_hal_pwr_ex.c **** #if defined(PWR_CR2_PVME2)
 602:Drivers/STM32G4xx_HAL_Driver/Src/stm32g4xx_hal_pwr_ex.c **** /**
 603:Drivers/STM32G4xx_HAL_Driver/Src/stm32g4xx_hal_pwr_ex.c ****   * @brief Enable the Power Voltage Monitoring 2: VDDA versus FASTDAC minimum voltage.
 604:Drivers/STM32G4xx_HAL_Driver/Src/stm32g4xx_hal_pwr_ex.c ****   * @retval None
 605:Drivers/STM32G4xx_HAL_Driver/Src/stm32g4xx_hal_pwr_ex.c ****   */
 606:Drivers/STM32G4xx_HAL_Driver/Src/stm32g4xx_hal_pwr_ex.c **** void HAL_PWREx_EnablePVM2(void)
 607:Drivers/STM32G4xx_HAL_Driver/Src/stm32g4xx_hal_pwr_ex.c **** {
 1308              		.loc 1 607 1 is_stmt 1 view -0
 1309              		.cfi_startproc
 1310              		@ args = 0, pretend = 0, frame = 0
 1311              		@ frame_needed = 0, uses_anonymous_args = 0
 1312              		@ link register save eliminated.
 608:Drivers/STM32G4xx_HAL_Driver/Src/stm32g4xx_hal_pwr_ex.c ****   SET_BIT(PWR->CR2, PWR_PVM_2);
 1313              		.loc 1 608 3 view .LVU307
 1314 0000 024A     		ldr	r2, .L130
 1315 0002 5368     		ldr	r3, [r2, #4]
 1316 0004 43F02003 		orr	r3, r3, #32
 1317 0008 5360     		str	r3, [r2, #4]
 609:Drivers/STM32G4xx_HAL_Driver/Src/stm32g4xx_hal_pwr_ex.c **** }
 1318              		.loc 1 609 1 is_stmt 0 view .LVU308
 1319 000a 7047     		bx	lr
 1320              	.L131:
 1321              		.align	2
 1322              	.L130:
 1323 000c 00700040 		.word	1073770496
 1324              		.cfi_endproc
 1325              	.LFE148:
 1327              		.section	.text.HAL_PWREx_DisablePVM2,"ax",%progbits
 1328              		.align	1
 1329              		.p2align 2,,3
 1330              		.global	HAL_PWREx_DisablePVM2
 1331              		.syntax unified
 1332              		.thumb
ARM GAS  /tmp/ccK442Dq.s 			page 38


 1333              		.thumb_func
 1334              		.fpu fpv4-sp-d16
 1336              	HAL_PWREx_DisablePVM2:
 1337              	.LFB149:
 610:Drivers/STM32G4xx_HAL_Driver/Src/stm32g4xx_hal_pwr_ex.c **** 
 611:Drivers/STM32G4xx_HAL_Driver/Src/stm32g4xx_hal_pwr_ex.c **** /**
 612:Drivers/STM32G4xx_HAL_Driver/Src/stm32g4xx_hal_pwr_ex.c ****   * @brief Disable the Power Voltage Monitoring 2: VDDA versus FASTDAC minimum voltage.
 613:Drivers/STM32G4xx_HAL_Driver/Src/stm32g4xx_hal_pwr_ex.c ****   * @retval None
 614:Drivers/STM32G4xx_HAL_Driver/Src/stm32g4xx_hal_pwr_ex.c ****   */
 615:Drivers/STM32G4xx_HAL_Driver/Src/stm32g4xx_hal_pwr_ex.c **** void HAL_PWREx_DisablePVM2(void)
 616:Drivers/STM32G4xx_HAL_Driver/Src/stm32g4xx_hal_pwr_ex.c **** {
 1338              		.loc 1 616 1 is_stmt 1 view -0
 1339              		.cfi_startproc
 1340              		@ args = 0, pretend = 0, frame = 0
 1341              		@ frame_needed = 0, uses_anonymous_args = 0
 1342              		@ link register save eliminated.
 617:Drivers/STM32G4xx_HAL_Driver/Src/stm32g4xx_hal_pwr_ex.c ****   CLEAR_BIT(PWR->CR2, PWR_PVM_2);
 1343              		.loc 1 617 3 view .LVU310
 1344 0000 024A     		ldr	r2, .L133
 1345 0002 5368     		ldr	r3, [r2, #4]
 1346 0004 23F02003 		bic	r3, r3, #32
 1347 0008 5360     		str	r3, [r2, #4]
 618:Drivers/STM32G4xx_HAL_Driver/Src/stm32g4xx_hal_pwr_ex.c **** }
 1348              		.loc 1 618 1 is_stmt 0 view .LVU311
 1349 000a 7047     		bx	lr
 1350              	.L134:
 1351              		.align	2
 1352              	.L133:
 1353 000c 00700040 		.word	1073770496
 1354              		.cfi_endproc
 1355              	.LFE149:
 1357              		.section	.text.HAL_PWREx_EnablePVM3,"ax",%progbits
 1358              		.align	1
 1359              		.p2align 2,,3
 1360              		.global	HAL_PWREx_EnablePVM3
 1361              		.syntax unified
 1362              		.thumb
 1363              		.thumb_func
 1364              		.fpu fpv4-sp-d16
 1366              	HAL_PWREx_EnablePVM3:
 1367              	.LFB150:
 619:Drivers/STM32G4xx_HAL_Driver/Src/stm32g4xx_hal_pwr_ex.c **** #endif /* PWR_CR2_PVME2 */
 620:Drivers/STM32G4xx_HAL_Driver/Src/stm32g4xx_hal_pwr_ex.c **** 
 621:Drivers/STM32G4xx_HAL_Driver/Src/stm32g4xx_hal_pwr_ex.c **** 
 622:Drivers/STM32G4xx_HAL_Driver/Src/stm32g4xx_hal_pwr_ex.c **** /**
 623:Drivers/STM32G4xx_HAL_Driver/Src/stm32g4xx_hal_pwr_ex.c ****   * @brief Enable the Power Voltage Monitoring 3: VDDA versus ADC minimum voltage 1.62V.
 624:Drivers/STM32G4xx_HAL_Driver/Src/stm32g4xx_hal_pwr_ex.c ****   * @retval None
 625:Drivers/STM32G4xx_HAL_Driver/Src/stm32g4xx_hal_pwr_ex.c ****   */
 626:Drivers/STM32G4xx_HAL_Driver/Src/stm32g4xx_hal_pwr_ex.c **** void HAL_PWREx_EnablePVM3(void)
 627:Drivers/STM32G4xx_HAL_Driver/Src/stm32g4xx_hal_pwr_ex.c **** {
 1368              		.loc 1 627 1 is_stmt 1 view -0
 1369              		.cfi_startproc
 1370              		@ args = 0, pretend = 0, frame = 0
 1371              		@ frame_needed = 0, uses_anonymous_args = 0
 1372              		@ link register save eliminated.
 628:Drivers/STM32G4xx_HAL_Driver/Src/stm32g4xx_hal_pwr_ex.c ****   SET_BIT(PWR->CR2, PWR_PVM_3);
 1373              		.loc 1 628 3 view .LVU313
ARM GAS  /tmp/ccK442Dq.s 			page 39


 1374 0000 024A     		ldr	r2, .L136
 1375 0002 5368     		ldr	r3, [r2, #4]
 1376 0004 43F04003 		orr	r3, r3, #64
 1377 0008 5360     		str	r3, [r2, #4]
 629:Drivers/STM32G4xx_HAL_Driver/Src/stm32g4xx_hal_pwr_ex.c **** }
 1378              		.loc 1 629 1 is_stmt 0 view .LVU314
 1379 000a 7047     		bx	lr
 1380              	.L137:
 1381              		.align	2
 1382              	.L136:
 1383 000c 00700040 		.word	1073770496
 1384              		.cfi_endproc
 1385              	.LFE150:
 1387              		.section	.text.HAL_PWREx_DisablePVM3,"ax",%progbits
 1388              		.align	1
 1389              		.p2align 2,,3
 1390              		.global	HAL_PWREx_DisablePVM3
 1391              		.syntax unified
 1392              		.thumb
 1393              		.thumb_func
 1394              		.fpu fpv4-sp-d16
 1396              	HAL_PWREx_DisablePVM3:
 1397              	.LFB151:
 630:Drivers/STM32G4xx_HAL_Driver/Src/stm32g4xx_hal_pwr_ex.c **** 
 631:Drivers/STM32G4xx_HAL_Driver/Src/stm32g4xx_hal_pwr_ex.c **** /**
 632:Drivers/STM32G4xx_HAL_Driver/Src/stm32g4xx_hal_pwr_ex.c ****   * @brief Disable the Power Voltage Monitoring 3: VDDA versus ADC minimum voltage 1.62V.
 633:Drivers/STM32G4xx_HAL_Driver/Src/stm32g4xx_hal_pwr_ex.c ****   * @retval None
 634:Drivers/STM32G4xx_HAL_Driver/Src/stm32g4xx_hal_pwr_ex.c ****   */
 635:Drivers/STM32G4xx_HAL_Driver/Src/stm32g4xx_hal_pwr_ex.c **** void HAL_PWREx_DisablePVM3(void)
 636:Drivers/STM32G4xx_HAL_Driver/Src/stm32g4xx_hal_pwr_ex.c **** {
 1398              		.loc 1 636 1 is_stmt 1 view -0
 1399              		.cfi_startproc
 1400              		@ args = 0, pretend = 0, frame = 0
 1401              		@ frame_needed = 0, uses_anonymous_args = 0
 1402              		@ link register save eliminated.
 637:Drivers/STM32G4xx_HAL_Driver/Src/stm32g4xx_hal_pwr_ex.c ****   CLEAR_BIT(PWR->CR2, PWR_PVM_3);
 1403              		.loc 1 637 3 view .LVU316
 1404 0000 024A     		ldr	r2, .L139
 1405 0002 5368     		ldr	r3, [r2, #4]
 1406 0004 23F04003 		bic	r3, r3, #64
 1407 0008 5360     		str	r3, [r2, #4]
 638:Drivers/STM32G4xx_HAL_Driver/Src/stm32g4xx_hal_pwr_ex.c **** }
 1408              		.loc 1 638 1 is_stmt 0 view .LVU317
 1409 000a 7047     		bx	lr
 1410              	.L140:
 1411              		.align	2
 1412              	.L139:
 1413 000c 00700040 		.word	1073770496
 1414              		.cfi_endproc
 1415              	.LFE151:
 1417              		.section	.text.HAL_PWREx_EnablePVM4,"ax",%progbits
 1418              		.align	1
 1419              		.p2align 2,,3
 1420              		.global	HAL_PWREx_EnablePVM4
 1421              		.syntax unified
 1422              		.thumb
 1423              		.thumb_func
ARM GAS  /tmp/ccK442Dq.s 			page 40


 1424              		.fpu fpv4-sp-d16
 1426              	HAL_PWREx_EnablePVM4:
 1427              	.LFB152:
 639:Drivers/STM32G4xx_HAL_Driver/Src/stm32g4xx_hal_pwr_ex.c **** 
 640:Drivers/STM32G4xx_HAL_Driver/Src/stm32g4xx_hal_pwr_ex.c **** 
 641:Drivers/STM32G4xx_HAL_Driver/Src/stm32g4xx_hal_pwr_ex.c **** /**
 642:Drivers/STM32G4xx_HAL_Driver/Src/stm32g4xx_hal_pwr_ex.c ****   * @brief Enable the Power Voltage Monitoring 4: VDDA versus OPAMP/DAC minimum voltage 1.8V.
 643:Drivers/STM32G4xx_HAL_Driver/Src/stm32g4xx_hal_pwr_ex.c ****   * @retval None
 644:Drivers/STM32G4xx_HAL_Driver/Src/stm32g4xx_hal_pwr_ex.c ****   */
 645:Drivers/STM32G4xx_HAL_Driver/Src/stm32g4xx_hal_pwr_ex.c **** void HAL_PWREx_EnablePVM4(void)
 646:Drivers/STM32G4xx_HAL_Driver/Src/stm32g4xx_hal_pwr_ex.c **** {
 1428              		.loc 1 646 1 is_stmt 1 view -0
 1429              		.cfi_startproc
 1430              		@ args = 0, pretend = 0, frame = 0
 1431              		@ frame_needed = 0, uses_anonymous_args = 0
 1432              		@ link register save eliminated.
 647:Drivers/STM32G4xx_HAL_Driver/Src/stm32g4xx_hal_pwr_ex.c ****   SET_BIT(PWR->CR2, PWR_PVM_4);
 1433              		.loc 1 647 3 view .LVU319
 1434 0000 024A     		ldr	r2, .L142
 1435 0002 5368     		ldr	r3, [r2, #4]
 1436 0004 43F08003 		orr	r3, r3, #128
 1437 0008 5360     		str	r3, [r2, #4]
 648:Drivers/STM32G4xx_HAL_Driver/Src/stm32g4xx_hal_pwr_ex.c **** }
 1438              		.loc 1 648 1 is_stmt 0 view .LVU320
 1439 000a 7047     		bx	lr
 1440              	.L143:
 1441              		.align	2
 1442              	.L142:
 1443 000c 00700040 		.word	1073770496
 1444              		.cfi_endproc
 1445              	.LFE152:
 1447              		.section	.text.HAL_PWREx_DisablePVM4,"ax",%progbits
 1448              		.align	1
 1449              		.p2align 2,,3
 1450              		.global	HAL_PWREx_DisablePVM4
 1451              		.syntax unified
 1452              		.thumb
 1453              		.thumb_func
 1454              		.fpu fpv4-sp-d16
 1456              	HAL_PWREx_DisablePVM4:
 1457              	.LFB153:
 649:Drivers/STM32G4xx_HAL_Driver/Src/stm32g4xx_hal_pwr_ex.c **** 
 650:Drivers/STM32G4xx_HAL_Driver/Src/stm32g4xx_hal_pwr_ex.c **** /**
 651:Drivers/STM32G4xx_HAL_Driver/Src/stm32g4xx_hal_pwr_ex.c ****   * @brief Disable the Power Voltage Monitoring 4: VDDA versus OPAMP/DAC minimum voltage 1.8V.
 652:Drivers/STM32G4xx_HAL_Driver/Src/stm32g4xx_hal_pwr_ex.c ****   * @retval None
 653:Drivers/STM32G4xx_HAL_Driver/Src/stm32g4xx_hal_pwr_ex.c ****   */
 654:Drivers/STM32G4xx_HAL_Driver/Src/stm32g4xx_hal_pwr_ex.c **** void HAL_PWREx_DisablePVM4(void)
 655:Drivers/STM32G4xx_HAL_Driver/Src/stm32g4xx_hal_pwr_ex.c **** {
 1458              		.loc 1 655 1 is_stmt 1 view -0
 1459              		.cfi_startproc
 1460              		@ args = 0, pretend = 0, frame = 0
 1461              		@ frame_needed = 0, uses_anonymous_args = 0
 1462              		@ link register save eliminated.
 656:Drivers/STM32G4xx_HAL_Driver/Src/stm32g4xx_hal_pwr_ex.c ****   CLEAR_BIT(PWR->CR2, PWR_PVM_4);
 1463              		.loc 1 656 3 view .LVU322
 1464 0000 024A     		ldr	r2, .L145
 1465 0002 5368     		ldr	r3, [r2, #4]
ARM GAS  /tmp/ccK442Dq.s 			page 41


 1466 0004 23F08003 		bic	r3, r3, #128
 1467 0008 5360     		str	r3, [r2, #4]
 657:Drivers/STM32G4xx_HAL_Driver/Src/stm32g4xx_hal_pwr_ex.c **** }
 1468              		.loc 1 657 1 is_stmt 0 view .LVU323
 1469 000a 7047     		bx	lr
 1470              	.L146:
 1471              		.align	2
 1472              	.L145:
 1473 000c 00700040 		.word	1073770496
 1474              		.cfi_endproc
 1475              	.LFE153:
 1477              		.section	.text.HAL_PWREx_ConfigPVM,"ax",%progbits
 1478              		.align	1
 1479              		.p2align 2,,3
 1480              		.global	HAL_PWREx_ConfigPVM
 1481              		.syntax unified
 1482              		.thumb
 1483              		.thumb_func
 1484              		.fpu fpv4-sp-d16
 1486              	HAL_PWREx_ConfigPVM:
 1487              	.LVL107:
 1488              	.LFB154:
 658:Drivers/STM32G4xx_HAL_Driver/Src/stm32g4xx_hal_pwr_ex.c **** 
 659:Drivers/STM32G4xx_HAL_Driver/Src/stm32g4xx_hal_pwr_ex.c **** 
 660:Drivers/STM32G4xx_HAL_Driver/Src/stm32g4xx_hal_pwr_ex.c **** 
 661:Drivers/STM32G4xx_HAL_Driver/Src/stm32g4xx_hal_pwr_ex.c **** 
 662:Drivers/STM32G4xx_HAL_Driver/Src/stm32g4xx_hal_pwr_ex.c **** /**
 663:Drivers/STM32G4xx_HAL_Driver/Src/stm32g4xx_hal_pwr_ex.c ****   * @brief Configure the Peripheral Voltage Monitoring (PVM).
 664:Drivers/STM32G4xx_HAL_Driver/Src/stm32g4xx_hal_pwr_ex.c ****   * @param sConfigPVM: pointer to a PWR_PVMTypeDef structure that contains the
 665:Drivers/STM32G4xx_HAL_Driver/Src/stm32g4xx_hal_pwr_ex.c ****   *        PVM configuration information.
 666:Drivers/STM32G4xx_HAL_Driver/Src/stm32g4xx_hal_pwr_ex.c ****   * @note The API configures a single PVM according to the information contained
 667:Drivers/STM32G4xx_HAL_Driver/Src/stm32g4xx_hal_pwr_ex.c ****   *       in the input structure. To configure several PVMs, the API must be singly
 668:Drivers/STM32G4xx_HAL_Driver/Src/stm32g4xx_hal_pwr_ex.c ****   *       called for each PVM used.
 669:Drivers/STM32G4xx_HAL_Driver/Src/stm32g4xx_hal_pwr_ex.c ****   * @note Refer to the electrical characteristics of your device datasheet for
 670:Drivers/STM32G4xx_HAL_Driver/Src/stm32g4xx_hal_pwr_ex.c ****   *         more details about the voltage thresholds corresponding to each
 671:Drivers/STM32G4xx_HAL_Driver/Src/stm32g4xx_hal_pwr_ex.c ****   *         detection level and to each monitored supply.
 672:Drivers/STM32G4xx_HAL_Driver/Src/stm32g4xx_hal_pwr_ex.c ****   * @retval HAL status
 673:Drivers/STM32G4xx_HAL_Driver/Src/stm32g4xx_hal_pwr_ex.c ****   */
 674:Drivers/STM32G4xx_HAL_Driver/Src/stm32g4xx_hal_pwr_ex.c **** HAL_StatusTypeDef HAL_PWREx_ConfigPVM(PWR_PVMTypeDef *sConfigPVM)
 675:Drivers/STM32G4xx_HAL_Driver/Src/stm32g4xx_hal_pwr_ex.c **** {
 1489              		.loc 1 675 1 is_stmt 1 view -0
 1490              		.cfi_startproc
 1491              		@ args = 0, pretend = 0, frame = 0
 1492              		@ frame_needed = 0, uses_anonymous_args = 0
 1493              		@ link register save eliminated.
 676:Drivers/STM32G4xx_HAL_Driver/Src/stm32g4xx_hal_pwr_ex.c ****   HAL_StatusTypeDef status = HAL_OK;
 1494              		.loc 1 676 3 view .LVU325
 677:Drivers/STM32G4xx_HAL_Driver/Src/stm32g4xx_hal_pwr_ex.c **** 
 678:Drivers/STM32G4xx_HAL_Driver/Src/stm32g4xx_hal_pwr_ex.c ****   /* Check the parameters */
 679:Drivers/STM32G4xx_HAL_Driver/Src/stm32g4xx_hal_pwr_ex.c ****   assert_param(IS_PWR_PVM_TYPE(sConfigPVM->PVMType));
 1495              		.loc 1 679 3 view .LVU326
 680:Drivers/STM32G4xx_HAL_Driver/Src/stm32g4xx_hal_pwr_ex.c ****   assert_param(IS_PWR_PVM_MODE(sConfigPVM->Mode));
 1496              		.loc 1 680 3 view .LVU327
 681:Drivers/STM32G4xx_HAL_Driver/Src/stm32g4xx_hal_pwr_ex.c **** 
 682:Drivers/STM32G4xx_HAL_Driver/Src/stm32g4xx_hal_pwr_ex.c **** 
 683:Drivers/STM32G4xx_HAL_Driver/Src/stm32g4xx_hal_pwr_ex.c ****   /* Configure EXTI 35 to 38 interrupts if so required:
 684:Drivers/STM32G4xx_HAL_Driver/Src/stm32g4xx_hal_pwr_ex.c ****      scan through PVMType to detect which PVMx is set and
ARM GAS  /tmp/ccK442Dq.s 			page 42


 685:Drivers/STM32G4xx_HAL_Driver/Src/stm32g4xx_hal_pwr_ex.c ****      configure the corresponding EXTI line accordingly. */
 686:Drivers/STM32G4xx_HAL_Driver/Src/stm32g4xx_hal_pwr_ex.c ****   switch (sConfigPVM->PVMType)
 1497              		.loc 1 686 3 view .LVU328
 1498              		.loc 1 686 21 is_stmt 0 view .LVU329
 1499 0000 0368     		ldr	r3, [r0]
 1500              		.loc 1 686 3 view .LVU330
 1501 0002 402B     		cmp	r3, #64
 1502 0004 64D0     		beq	.L148
 1503 0006 32D8     		bhi	.L149
 1504 0008 102B     		cmp	r3, #16
 1505 000a 7FD0     		beq	.L150
 1506 000c 202B     		cmp	r3, #32
 1507 000e 7BD1     		bne	.L213
 687:Drivers/STM32G4xx_HAL_Driver/Src/stm32g4xx_hal_pwr_ex.c ****   {
 688:Drivers/STM32G4xx_HAL_Driver/Src/stm32g4xx_hal_pwr_ex.c **** #if defined(PWR_CR2_PVME1)
 689:Drivers/STM32G4xx_HAL_Driver/Src/stm32g4xx_hal_pwr_ex.c ****     case PWR_PVM_1:
 690:Drivers/STM32G4xx_HAL_Driver/Src/stm32g4xx_hal_pwr_ex.c ****       /* Clear any previous config. Keep it clear if no event or IT mode is selected */
 691:Drivers/STM32G4xx_HAL_Driver/Src/stm32g4xx_hal_pwr_ex.c ****       __HAL_PWR_PVM1_EXTI_DISABLE_EVENT();
 692:Drivers/STM32G4xx_HAL_Driver/Src/stm32g4xx_hal_pwr_ex.c ****       __HAL_PWR_PVM1_EXTI_DISABLE_IT();
 693:Drivers/STM32G4xx_HAL_Driver/Src/stm32g4xx_hal_pwr_ex.c ****       __HAL_PWR_PVM1_EXTI_DISABLE_FALLING_EDGE();
 694:Drivers/STM32G4xx_HAL_Driver/Src/stm32g4xx_hal_pwr_ex.c ****       __HAL_PWR_PVM1_EXTI_DISABLE_RISING_EDGE();
 695:Drivers/STM32G4xx_HAL_Driver/Src/stm32g4xx_hal_pwr_ex.c **** 
 696:Drivers/STM32G4xx_HAL_Driver/Src/stm32g4xx_hal_pwr_ex.c ****       /* Configure interrupt mode */
 697:Drivers/STM32G4xx_HAL_Driver/Src/stm32g4xx_hal_pwr_ex.c ****       if((sConfigPVM->Mode & PVM_MODE_IT) == PVM_MODE_IT)
 698:Drivers/STM32G4xx_HAL_Driver/Src/stm32g4xx_hal_pwr_ex.c ****       {
 699:Drivers/STM32G4xx_HAL_Driver/Src/stm32g4xx_hal_pwr_ex.c ****         __HAL_PWR_PVM1_EXTI_ENABLE_IT();
 700:Drivers/STM32G4xx_HAL_Driver/Src/stm32g4xx_hal_pwr_ex.c ****       }
 701:Drivers/STM32G4xx_HAL_Driver/Src/stm32g4xx_hal_pwr_ex.c **** 
 702:Drivers/STM32G4xx_HAL_Driver/Src/stm32g4xx_hal_pwr_ex.c ****       /* Configure event mode */
 703:Drivers/STM32G4xx_HAL_Driver/Src/stm32g4xx_hal_pwr_ex.c ****       if((sConfigPVM->Mode & PVM_MODE_EVT) == PVM_MODE_EVT)
 704:Drivers/STM32G4xx_HAL_Driver/Src/stm32g4xx_hal_pwr_ex.c ****       {
 705:Drivers/STM32G4xx_HAL_Driver/Src/stm32g4xx_hal_pwr_ex.c ****         __HAL_PWR_PVM1_EXTI_ENABLE_EVENT();
 706:Drivers/STM32G4xx_HAL_Driver/Src/stm32g4xx_hal_pwr_ex.c ****       }
 707:Drivers/STM32G4xx_HAL_Driver/Src/stm32g4xx_hal_pwr_ex.c **** 
 708:Drivers/STM32G4xx_HAL_Driver/Src/stm32g4xx_hal_pwr_ex.c ****       /* Configure the edge */
 709:Drivers/STM32G4xx_HAL_Driver/Src/stm32g4xx_hal_pwr_ex.c ****       if((sConfigPVM->Mode & PVM_RISING_EDGE) == PVM_RISING_EDGE)
 710:Drivers/STM32G4xx_HAL_Driver/Src/stm32g4xx_hal_pwr_ex.c ****       {
 711:Drivers/STM32G4xx_HAL_Driver/Src/stm32g4xx_hal_pwr_ex.c ****         __HAL_PWR_PVM1_EXTI_ENABLE_RISING_EDGE();
 712:Drivers/STM32G4xx_HAL_Driver/Src/stm32g4xx_hal_pwr_ex.c ****       }
 713:Drivers/STM32G4xx_HAL_Driver/Src/stm32g4xx_hal_pwr_ex.c **** 
 714:Drivers/STM32G4xx_HAL_Driver/Src/stm32g4xx_hal_pwr_ex.c ****       if((sConfigPVM->Mode & PVM_FALLING_EDGE) == PVM_FALLING_EDGE)
 715:Drivers/STM32G4xx_HAL_Driver/Src/stm32g4xx_hal_pwr_ex.c ****       {
 716:Drivers/STM32G4xx_HAL_Driver/Src/stm32g4xx_hal_pwr_ex.c ****         __HAL_PWR_PVM1_EXTI_ENABLE_FALLING_EDGE();
 717:Drivers/STM32G4xx_HAL_Driver/Src/stm32g4xx_hal_pwr_ex.c ****       }
 718:Drivers/STM32G4xx_HAL_Driver/Src/stm32g4xx_hal_pwr_ex.c ****       break;
 719:Drivers/STM32G4xx_HAL_Driver/Src/stm32g4xx_hal_pwr_ex.c **** #endif /* PWR_CR2_PVME1 */
 720:Drivers/STM32G4xx_HAL_Driver/Src/stm32g4xx_hal_pwr_ex.c **** 
 721:Drivers/STM32G4xx_HAL_Driver/Src/stm32g4xx_hal_pwr_ex.c **** #if defined(PWR_CR2_PVME2)
 722:Drivers/STM32G4xx_HAL_Driver/Src/stm32g4xx_hal_pwr_ex.c ****     case PWR_PVM_2:
 723:Drivers/STM32G4xx_HAL_Driver/Src/stm32g4xx_hal_pwr_ex.c ****       /* Clear any previous config. Keep it clear if no event or IT mode is selected */
 724:Drivers/STM32G4xx_HAL_Driver/Src/stm32g4xx_hal_pwr_ex.c ****       __HAL_PWR_PVM2_EXTI_DISABLE_EVENT();
 1508              		.loc 1 724 7 is_stmt 1 view .LVU331
 1509 0010 654B     		ldr	r3, .L218
 1510 0012 5A6A     		ldr	r2, [r3, #36]
 1511 0014 22F01002 		bic	r2, r2, #16
 1512 0018 5A62     		str	r2, [r3, #36]
 725:Drivers/STM32G4xx_HAL_Driver/Src/stm32g4xx_hal_pwr_ex.c ****       __HAL_PWR_PVM2_EXTI_DISABLE_IT();
ARM GAS  /tmp/ccK442Dq.s 			page 43


 1513              		.loc 1 725 7 view .LVU332
 1514 001a 1A6A     		ldr	r2, [r3, #32]
 1515 001c 22F01002 		bic	r2, r2, #16
 1516 0020 1A62     		str	r2, [r3, #32]
 726:Drivers/STM32G4xx_HAL_Driver/Src/stm32g4xx_hal_pwr_ex.c ****       __HAL_PWR_PVM2_EXTI_DISABLE_FALLING_EDGE();
 1517              		.loc 1 726 7 view .LVU333
 1518 0022 DA6A     		ldr	r2, [r3, #44]
 1519 0024 22F01002 		bic	r2, r2, #16
 1520 0028 DA62     		str	r2, [r3, #44]
 727:Drivers/STM32G4xx_HAL_Driver/Src/stm32g4xx_hal_pwr_ex.c ****       __HAL_PWR_PVM2_EXTI_DISABLE_RISING_EDGE();
 1521              		.loc 1 727 7 view .LVU334
 1522 002a 9A6A     		ldr	r2, [r3, #40]
 1523 002c 22F01002 		bic	r2, r2, #16
 1524 0030 9A62     		str	r2, [r3, #40]
 728:Drivers/STM32G4xx_HAL_Driver/Src/stm32g4xx_hal_pwr_ex.c **** 
 729:Drivers/STM32G4xx_HAL_Driver/Src/stm32g4xx_hal_pwr_ex.c ****       /* Configure interrupt mode */
 730:Drivers/STM32G4xx_HAL_Driver/Src/stm32g4xx_hal_pwr_ex.c ****       if((sConfigPVM->Mode & PVM_MODE_IT) == PVM_MODE_IT)
 1525              		.loc 1 730 7 view .LVU335
 1526              		.loc 1 730 21 is_stmt 0 view .LVU336
 1527 0032 4268     		ldr	r2, [r0, #4]
 1528              		.loc 1 730 9 view .LVU337
 1529 0034 D103     		lsls	r1, r2, #15
 1530 0036 03D5     		bpl	.L158
 731:Drivers/STM32G4xx_HAL_Driver/Src/stm32g4xx_hal_pwr_ex.c ****       {
 732:Drivers/STM32G4xx_HAL_Driver/Src/stm32g4xx_hal_pwr_ex.c ****         __HAL_PWR_PVM2_EXTI_ENABLE_IT();
 1531              		.loc 1 732 9 is_stmt 1 view .LVU338
 1532 0038 196A     		ldr	r1, [r3, #32]
 1533 003a 41F01001 		orr	r1, r1, #16
 1534 003e 1962     		str	r1, [r3, #32]
 1535              	.L158:
 733:Drivers/STM32G4xx_HAL_Driver/Src/stm32g4xx_hal_pwr_ex.c ****       }
 734:Drivers/STM32G4xx_HAL_Driver/Src/stm32g4xx_hal_pwr_ex.c **** 
 735:Drivers/STM32G4xx_HAL_Driver/Src/stm32g4xx_hal_pwr_ex.c ****       /* Configure event mode */
 736:Drivers/STM32G4xx_HAL_Driver/Src/stm32g4xx_hal_pwr_ex.c ****       if((sConfigPVM->Mode & PVM_MODE_EVT) == PVM_MODE_EVT)
 1536              		.loc 1 736 7 view .LVU339
 1537              		.loc 1 736 9 is_stmt 0 view .LVU340
 1538 0040 9003     		lsls	r0, r2, #14
 1539              	.LVL108:
 1540              		.loc 1 736 9 view .LVU341
 1541 0042 04D5     		bpl	.L159
 737:Drivers/STM32G4xx_HAL_Driver/Src/stm32g4xx_hal_pwr_ex.c ****       {
 738:Drivers/STM32G4xx_HAL_Driver/Src/stm32g4xx_hal_pwr_ex.c ****         __HAL_PWR_PVM2_EXTI_ENABLE_EVENT();
 1542              		.loc 1 738 9 is_stmt 1 view .LVU342
 1543 0044 5849     		ldr	r1, .L218
 1544 0046 4B6A     		ldr	r3, [r1, #36]
 1545 0048 43F01003 		orr	r3, r3, #16
 1546 004c 4B62     		str	r3, [r1, #36]
 1547              	.L159:
 739:Drivers/STM32G4xx_HAL_Driver/Src/stm32g4xx_hal_pwr_ex.c ****       }
 740:Drivers/STM32G4xx_HAL_Driver/Src/stm32g4xx_hal_pwr_ex.c **** 
 741:Drivers/STM32G4xx_HAL_Driver/Src/stm32g4xx_hal_pwr_ex.c ****       /* Configure the edge */
 742:Drivers/STM32G4xx_HAL_Driver/Src/stm32g4xx_hal_pwr_ex.c ****       if((sConfigPVM->Mode & PVM_RISING_EDGE) == PVM_RISING_EDGE)
 1548              		.loc 1 742 7 view .LVU343
 1549              		.loc 1 742 9 is_stmt 0 view .LVU344
 1550 004e D107     		lsls	r1, r2, #31
 1551 0050 04D5     		bpl	.L160
 743:Drivers/STM32G4xx_HAL_Driver/Src/stm32g4xx_hal_pwr_ex.c ****       {
ARM GAS  /tmp/ccK442Dq.s 			page 44


 744:Drivers/STM32G4xx_HAL_Driver/Src/stm32g4xx_hal_pwr_ex.c ****         __HAL_PWR_PVM2_EXTI_ENABLE_RISING_EDGE();
 1552              		.loc 1 744 9 is_stmt 1 view .LVU345
 1553 0052 5549     		ldr	r1, .L218
 1554 0054 8B6A     		ldr	r3, [r1, #40]
 1555 0056 43F01003 		orr	r3, r3, #16
 1556 005a 8B62     		str	r3, [r1, #40]
 1557              	.L160:
 745:Drivers/STM32G4xx_HAL_Driver/Src/stm32g4xx_hal_pwr_ex.c ****       }
 746:Drivers/STM32G4xx_HAL_Driver/Src/stm32g4xx_hal_pwr_ex.c **** 
 747:Drivers/STM32G4xx_HAL_Driver/Src/stm32g4xx_hal_pwr_ex.c ****       if((sConfigPVM->Mode & PVM_FALLING_EDGE) == PVM_FALLING_EDGE)
 1558              		.loc 1 747 7 view .LVU346
 1559              		.loc 1 747 9 is_stmt 0 view .LVU347
 1560 005c 9307     		lsls	r3, r2, #30
 1561 005e 51D5     		bpl	.L161
 748:Drivers/STM32G4xx_HAL_Driver/Src/stm32g4xx_hal_pwr_ex.c ****       {
 749:Drivers/STM32G4xx_HAL_Driver/Src/stm32g4xx_hal_pwr_ex.c ****         __HAL_PWR_PVM2_EXTI_ENABLE_FALLING_EDGE();
 1562              		.loc 1 749 9 is_stmt 1 view .LVU348
 1563 0060 514A     		ldr	r2, .L218
 1564 0062 D36A     		ldr	r3, [r2, #44]
 1565 0064 43F01003 		orr	r3, r3, #16
 676:Drivers/STM32G4xx_HAL_Driver/Src/stm32g4xx_hal_pwr_ex.c **** 
 1566              		.loc 1 676 21 is_stmt 0 view .LVU349
 1567 0068 0020     		movs	r0, #0
 1568              		.loc 1 749 9 view .LVU350
 1569 006a D362     		str	r3, [r2, #44]
 1570 006c 7047     		bx	lr
 1571              	.LVL109:
 1572              	.L149:
 686:Drivers/STM32G4xx_HAL_Driver/Src/stm32g4xx_hal_pwr_ex.c ****   {
 1573              		.loc 1 686 3 view .LVU351
 1574 006e 802B     		cmp	r3, #128
 1575 0070 4AD1     		bne	.L213
 750:Drivers/STM32G4xx_HAL_Driver/Src/stm32g4xx_hal_pwr_ex.c ****       }
 751:Drivers/STM32G4xx_HAL_Driver/Src/stm32g4xx_hal_pwr_ex.c ****       break;
 752:Drivers/STM32G4xx_HAL_Driver/Src/stm32g4xx_hal_pwr_ex.c **** #endif /* PWR_CR2_PVME2 */
 753:Drivers/STM32G4xx_HAL_Driver/Src/stm32g4xx_hal_pwr_ex.c **** 
 754:Drivers/STM32G4xx_HAL_Driver/Src/stm32g4xx_hal_pwr_ex.c ****     case PWR_PVM_3:
 755:Drivers/STM32G4xx_HAL_Driver/Src/stm32g4xx_hal_pwr_ex.c ****       /* Clear any previous config. Keep it clear if no event or IT mode is selected */
 756:Drivers/STM32G4xx_HAL_Driver/Src/stm32g4xx_hal_pwr_ex.c ****       __HAL_PWR_PVM3_EXTI_DISABLE_EVENT();
 757:Drivers/STM32G4xx_HAL_Driver/Src/stm32g4xx_hal_pwr_ex.c ****       __HAL_PWR_PVM3_EXTI_DISABLE_IT();
 758:Drivers/STM32G4xx_HAL_Driver/Src/stm32g4xx_hal_pwr_ex.c ****       __HAL_PWR_PVM3_EXTI_DISABLE_FALLING_EDGE();
 759:Drivers/STM32G4xx_HAL_Driver/Src/stm32g4xx_hal_pwr_ex.c ****       __HAL_PWR_PVM3_EXTI_DISABLE_RISING_EDGE();
 760:Drivers/STM32G4xx_HAL_Driver/Src/stm32g4xx_hal_pwr_ex.c **** 
 761:Drivers/STM32G4xx_HAL_Driver/Src/stm32g4xx_hal_pwr_ex.c ****       /* Configure interrupt mode */
 762:Drivers/STM32G4xx_HAL_Driver/Src/stm32g4xx_hal_pwr_ex.c ****       if((sConfigPVM->Mode & PVM_MODE_IT) == PVM_MODE_IT)
 763:Drivers/STM32G4xx_HAL_Driver/Src/stm32g4xx_hal_pwr_ex.c ****       {
 764:Drivers/STM32G4xx_HAL_Driver/Src/stm32g4xx_hal_pwr_ex.c ****         __HAL_PWR_PVM3_EXTI_ENABLE_IT();
 765:Drivers/STM32G4xx_HAL_Driver/Src/stm32g4xx_hal_pwr_ex.c ****       }
 766:Drivers/STM32G4xx_HAL_Driver/Src/stm32g4xx_hal_pwr_ex.c **** 
 767:Drivers/STM32G4xx_HAL_Driver/Src/stm32g4xx_hal_pwr_ex.c ****       /* Configure event mode */
 768:Drivers/STM32G4xx_HAL_Driver/Src/stm32g4xx_hal_pwr_ex.c ****       if((sConfigPVM->Mode & PVM_MODE_EVT) == PVM_MODE_EVT)
 769:Drivers/STM32G4xx_HAL_Driver/Src/stm32g4xx_hal_pwr_ex.c ****       {
 770:Drivers/STM32G4xx_HAL_Driver/Src/stm32g4xx_hal_pwr_ex.c ****         __HAL_PWR_PVM3_EXTI_ENABLE_EVENT();
 771:Drivers/STM32G4xx_HAL_Driver/Src/stm32g4xx_hal_pwr_ex.c ****       }
 772:Drivers/STM32G4xx_HAL_Driver/Src/stm32g4xx_hal_pwr_ex.c **** 
 773:Drivers/STM32G4xx_HAL_Driver/Src/stm32g4xx_hal_pwr_ex.c ****       /* Configure the edge */
 774:Drivers/STM32G4xx_HAL_Driver/Src/stm32g4xx_hal_pwr_ex.c ****       if((sConfigPVM->Mode & PVM_RISING_EDGE) == PVM_RISING_EDGE)
ARM GAS  /tmp/ccK442Dq.s 			page 45


 775:Drivers/STM32G4xx_HAL_Driver/Src/stm32g4xx_hal_pwr_ex.c ****       {
 776:Drivers/STM32G4xx_HAL_Driver/Src/stm32g4xx_hal_pwr_ex.c ****         __HAL_PWR_PVM3_EXTI_ENABLE_RISING_EDGE();
 777:Drivers/STM32G4xx_HAL_Driver/Src/stm32g4xx_hal_pwr_ex.c ****       }
 778:Drivers/STM32G4xx_HAL_Driver/Src/stm32g4xx_hal_pwr_ex.c **** 
 779:Drivers/STM32G4xx_HAL_Driver/Src/stm32g4xx_hal_pwr_ex.c ****       if((sConfigPVM->Mode & PVM_FALLING_EDGE) == PVM_FALLING_EDGE)
 780:Drivers/STM32G4xx_HAL_Driver/Src/stm32g4xx_hal_pwr_ex.c ****       {
 781:Drivers/STM32G4xx_HAL_Driver/Src/stm32g4xx_hal_pwr_ex.c ****         __HAL_PWR_PVM3_EXTI_ENABLE_FALLING_EDGE();
 782:Drivers/STM32G4xx_HAL_Driver/Src/stm32g4xx_hal_pwr_ex.c ****       }
 783:Drivers/STM32G4xx_HAL_Driver/Src/stm32g4xx_hal_pwr_ex.c ****       break;
 784:Drivers/STM32G4xx_HAL_Driver/Src/stm32g4xx_hal_pwr_ex.c **** 
 785:Drivers/STM32G4xx_HAL_Driver/Src/stm32g4xx_hal_pwr_ex.c ****     case PWR_PVM_4:
 786:Drivers/STM32G4xx_HAL_Driver/Src/stm32g4xx_hal_pwr_ex.c ****       /* Clear any previous config. Keep it clear if no event or IT mode is selected */
 787:Drivers/STM32G4xx_HAL_Driver/Src/stm32g4xx_hal_pwr_ex.c ****       __HAL_PWR_PVM4_EXTI_DISABLE_EVENT();
 1576              		.loc 1 787 7 is_stmt 1 view .LVU352
 1577 0072 4D4B     		ldr	r3, .L218
 1578 0074 5A6A     		ldr	r2, [r3, #36]
 1579 0076 22F04002 		bic	r2, r2, #64
 1580 007a 5A62     		str	r2, [r3, #36]
 788:Drivers/STM32G4xx_HAL_Driver/Src/stm32g4xx_hal_pwr_ex.c ****       __HAL_PWR_PVM4_EXTI_DISABLE_IT();
 1581              		.loc 1 788 7 view .LVU353
 1582 007c 1A6A     		ldr	r2, [r3, #32]
 1583 007e 22F04002 		bic	r2, r2, #64
 1584 0082 1A62     		str	r2, [r3, #32]
 789:Drivers/STM32G4xx_HAL_Driver/Src/stm32g4xx_hal_pwr_ex.c ****       __HAL_PWR_PVM4_EXTI_DISABLE_FALLING_EDGE();
 1585              		.loc 1 789 7 view .LVU354
 1586 0084 DA6A     		ldr	r2, [r3, #44]
 1587 0086 22F04002 		bic	r2, r2, #64
 1588 008a DA62     		str	r2, [r3, #44]
 790:Drivers/STM32G4xx_HAL_Driver/Src/stm32g4xx_hal_pwr_ex.c ****       __HAL_PWR_PVM4_EXTI_DISABLE_RISING_EDGE();
 1589              		.loc 1 790 7 view .LVU355
 1590 008c 9A6A     		ldr	r2, [r3, #40]
 1591 008e 22F04002 		bic	r2, r2, #64
 1592 0092 9A62     		str	r2, [r3, #40]
 791:Drivers/STM32G4xx_HAL_Driver/Src/stm32g4xx_hal_pwr_ex.c **** 
 792:Drivers/STM32G4xx_HAL_Driver/Src/stm32g4xx_hal_pwr_ex.c ****       /* Configure interrupt mode */
 793:Drivers/STM32G4xx_HAL_Driver/Src/stm32g4xx_hal_pwr_ex.c ****       if((sConfigPVM->Mode & PVM_MODE_IT) == PVM_MODE_IT)
 1593              		.loc 1 793 7 view .LVU356
 1594              		.loc 1 793 21 is_stmt 0 view .LVU357
 1595 0094 4268     		ldr	r2, [r0, #4]
 1596              		.loc 1 793 9 view .LVU358
 1597 0096 D103     		lsls	r1, r2, #15
 1598 0098 03D5     		bpl	.L165
 794:Drivers/STM32G4xx_HAL_Driver/Src/stm32g4xx_hal_pwr_ex.c ****       {
 795:Drivers/STM32G4xx_HAL_Driver/Src/stm32g4xx_hal_pwr_ex.c ****         __HAL_PWR_PVM4_EXTI_ENABLE_IT();
 1599              		.loc 1 795 9 is_stmt 1 view .LVU359
 1600 009a 196A     		ldr	r1, [r3, #32]
 1601 009c 41F04001 		orr	r1, r1, #64
 1602 00a0 1962     		str	r1, [r3, #32]
 1603              	.L165:
 796:Drivers/STM32G4xx_HAL_Driver/Src/stm32g4xx_hal_pwr_ex.c ****       }
 797:Drivers/STM32G4xx_HAL_Driver/Src/stm32g4xx_hal_pwr_ex.c **** 
 798:Drivers/STM32G4xx_HAL_Driver/Src/stm32g4xx_hal_pwr_ex.c ****       /* Configure event mode */
 799:Drivers/STM32G4xx_HAL_Driver/Src/stm32g4xx_hal_pwr_ex.c ****       if((sConfigPVM->Mode & PVM_MODE_EVT) == PVM_MODE_EVT)
 1604              		.loc 1 799 7 view .LVU360
 1605              		.loc 1 799 9 is_stmt 0 view .LVU361
 1606 00a2 9003     		lsls	r0, r2, #14
 1607              	.LVL110:
ARM GAS  /tmp/ccK442Dq.s 			page 46


 1608              		.loc 1 799 9 view .LVU362
 1609 00a4 04D5     		bpl	.L166
 800:Drivers/STM32G4xx_HAL_Driver/Src/stm32g4xx_hal_pwr_ex.c ****       {
 801:Drivers/STM32G4xx_HAL_Driver/Src/stm32g4xx_hal_pwr_ex.c ****         __HAL_PWR_PVM4_EXTI_ENABLE_EVENT();
 1610              		.loc 1 801 9 is_stmt 1 view .LVU363
 1611 00a6 4049     		ldr	r1, .L218
 1612 00a8 4B6A     		ldr	r3, [r1, #36]
 1613 00aa 43F04003 		orr	r3, r3, #64
 1614 00ae 4B62     		str	r3, [r1, #36]
 1615              	.L166:
 802:Drivers/STM32G4xx_HAL_Driver/Src/stm32g4xx_hal_pwr_ex.c ****       }
 803:Drivers/STM32G4xx_HAL_Driver/Src/stm32g4xx_hal_pwr_ex.c **** 
 804:Drivers/STM32G4xx_HAL_Driver/Src/stm32g4xx_hal_pwr_ex.c ****       /* Configure the edge */
 805:Drivers/STM32G4xx_HAL_Driver/Src/stm32g4xx_hal_pwr_ex.c ****       if((sConfigPVM->Mode & PVM_RISING_EDGE) == PVM_RISING_EDGE)
 1616              		.loc 1 805 7 view .LVU364
 1617              		.loc 1 805 9 is_stmt 0 view .LVU365
 1618 00b0 D107     		lsls	r1, r2, #31
 1619 00b2 04D5     		bpl	.L167
 806:Drivers/STM32G4xx_HAL_Driver/Src/stm32g4xx_hal_pwr_ex.c ****       {
 807:Drivers/STM32G4xx_HAL_Driver/Src/stm32g4xx_hal_pwr_ex.c ****         __HAL_PWR_PVM4_EXTI_ENABLE_RISING_EDGE();
 1620              		.loc 1 807 9 is_stmt 1 view .LVU366
 1621 00b4 3C49     		ldr	r1, .L218
 1622 00b6 8B6A     		ldr	r3, [r1, #40]
 1623 00b8 43F04003 		orr	r3, r3, #64
 1624 00bc 8B62     		str	r3, [r1, #40]
 1625              	.L167:
 808:Drivers/STM32G4xx_HAL_Driver/Src/stm32g4xx_hal_pwr_ex.c ****       }
 809:Drivers/STM32G4xx_HAL_Driver/Src/stm32g4xx_hal_pwr_ex.c **** 
 810:Drivers/STM32G4xx_HAL_Driver/Src/stm32g4xx_hal_pwr_ex.c ****       if((sConfigPVM->Mode & PVM_FALLING_EDGE) == PVM_FALLING_EDGE)
 1626              		.loc 1 810 7 view .LVU367
 1627              		.loc 1 810 9 is_stmt 0 view .LVU368
 1628 00be 9307     		lsls	r3, r2, #30
 1629 00c0 20D5     		bpl	.L161
 811:Drivers/STM32G4xx_HAL_Driver/Src/stm32g4xx_hal_pwr_ex.c ****       {
 812:Drivers/STM32G4xx_HAL_Driver/Src/stm32g4xx_hal_pwr_ex.c ****         __HAL_PWR_PVM4_EXTI_ENABLE_FALLING_EDGE();
 1630              		.loc 1 812 9 is_stmt 1 view .LVU369
 1631 00c2 394A     		ldr	r2, .L218
 1632 00c4 D36A     		ldr	r3, [r2, #44]
 1633 00c6 43F04003 		orr	r3, r3, #64
 676:Drivers/STM32G4xx_HAL_Driver/Src/stm32g4xx_hal_pwr_ex.c **** 
 1634              		.loc 1 676 21 is_stmt 0 view .LVU370
 1635 00ca 0020     		movs	r0, #0
 1636              		.loc 1 812 9 view .LVU371
 1637 00cc D362     		str	r3, [r2, #44]
 1638              	.LVL111:
 813:Drivers/STM32G4xx_HAL_Driver/Src/stm32g4xx_hal_pwr_ex.c ****       }
 814:Drivers/STM32G4xx_HAL_Driver/Src/stm32g4xx_hal_pwr_ex.c ****       break;
 815:Drivers/STM32G4xx_HAL_Driver/Src/stm32g4xx_hal_pwr_ex.c **** 
 816:Drivers/STM32G4xx_HAL_Driver/Src/stm32g4xx_hal_pwr_ex.c ****     default:
 817:Drivers/STM32G4xx_HAL_Driver/Src/stm32g4xx_hal_pwr_ex.c ****       status = HAL_ERROR;
 818:Drivers/STM32G4xx_HAL_Driver/Src/stm32g4xx_hal_pwr_ex.c ****       break;
 819:Drivers/STM32G4xx_HAL_Driver/Src/stm32g4xx_hal_pwr_ex.c ****   }
 820:Drivers/STM32G4xx_HAL_Driver/Src/stm32g4xx_hal_pwr_ex.c **** 
 821:Drivers/STM32G4xx_HAL_Driver/Src/stm32g4xx_hal_pwr_ex.c ****   return status;
 1639              		.loc 1 821 3 is_stmt 1 view .LVU372
 822:Drivers/STM32G4xx_HAL_Driver/Src/stm32g4xx_hal_pwr_ex.c **** }
 1640              		.loc 1 822 1 is_stmt 0 view .LVU373
ARM GAS  /tmp/ccK442Dq.s 			page 47


 1641 00ce 7047     		bx	lr
 1642              	.LVL112:
 1643              	.L148:
 756:Drivers/STM32G4xx_HAL_Driver/Src/stm32g4xx_hal_pwr_ex.c ****       __HAL_PWR_PVM3_EXTI_DISABLE_IT();
 1644              		.loc 1 756 7 is_stmt 1 view .LVU374
 1645 00d0 354B     		ldr	r3, .L218
 1646 00d2 5A6A     		ldr	r2, [r3, #36]
 1647 00d4 22F02002 		bic	r2, r2, #32
 1648 00d8 5A62     		str	r2, [r3, #36]
 757:Drivers/STM32G4xx_HAL_Driver/Src/stm32g4xx_hal_pwr_ex.c ****       __HAL_PWR_PVM3_EXTI_DISABLE_FALLING_EDGE();
 1649              		.loc 1 757 7 view .LVU375
 1650 00da 1A6A     		ldr	r2, [r3, #32]
 1651 00dc 22F02002 		bic	r2, r2, #32
 1652 00e0 1A62     		str	r2, [r3, #32]
 758:Drivers/STM32G4xx_HAL_Driver/Src/stm32g4xx_hal_pwr_ex.c ****       __HAL_PWR_PVM3_EXTI_DISABLE_RISING_EDGE();
 1653              		.loc 1 758 7 view .LVU376
 1654 00e2 DA6A     		ldr	r2, [r3, #44]
 1655 00e4 22F02002 		bic	r2, r2, #32
 1656 00e8 DA62     		str	r2, [r3, #44]
 759:Drivers/STM32G4xx_HAL_Driver/Src/stm32g4xx_hal_pwr_ex.c **** 
 1657              		.loc 1 759 7 view .LVU377
 1658 00ea 9A6A     		ldr	r2, [r3, #40]
 1659 00ec 22F02002 		bic	r2, r2, #32
 1660 00f0 9A62     		str	r2, [r3, #40]
 762:Drivers/STM32G4xx_HAL_Driver/Src/stm32g4xx_hal_pwr_ex.c ****       {
 1661              		.loc 1 762 7 view .LVU378
 762:Drivers/STM32G4xx_HAL_Driver/Src/stm32g4xx_hal_pwr_ex.c ****       {
 1662              		.loc 1 762 21 is_stmt 0 view .LVU379
 1663 00f2 4268     		ldr	r2, [r0, #4]
 762:Drivers/STM32G4xx_HAL_Driver/Src/stm32g4xx_hal_pwr_ex.c ****       {
 1664              		.loc 1 762 9 view .LVU380
 1665 00f4 D003     		lsls	r0, r2, #15
 1666              	.LVL113:
 762:Drivers/STM32G4xx_HAL_Driver/Src/stm32g4xx_hal_pwr_ex.c ****       {
 1667              		.loc 1 762 9 view .LVU381
 1668 00f6 4FD4     		bmi	.L214
 768:Drivers/STM32G4xx_HAL_Driver/Src/stm32g4xx_hal_pwr_ex.c ****       {
 1669              		.loc 1 768 7 is_stmt 1 view .LVU382
 768:Drivers/STM32G4xx_HAL_Driver/Src/stm32g4xx_hal_pwr_ex.c ****       {
 1670              		.loc 1 768 9 is_stmt 0 view .LVU383
 1671 00f8 9103     		lsls	r1, r2, #14
 1672 00fa 45D4     		bmi	.L215
 1673              	.L163:
 774:Drivers/STM32G4xx_HAL_Driver/Src/stm32g4xx_hal_pwr_ex.c ****       {
 1674              		.loc 1 774 7 is_stmt 1 view .LVU384
 774:Drivers/STM32G4xx_HAL_Driver/Src/stm32g4xx_hal_pwr_ex.c ****       {
 1675              		.loc 1 774 9 is_stmt 0 view .LVU385
 1676 00fc D307     		lsls	r3, r2, #31
 1677 00fe 3BD4     		bmi	.L216
 1678              	.L164:
 779:Drivers/STM32G4xx_HAL_Driver/Src/stm32g4xx_hal_pwr_ex.c ****       {
 1679              		.loc 1 779 7 is_stmt 1 view .LVU386
 779:Drivers/STM32G4xx_HAL_Driver/Src/stm32g4xx_hal_pwr_ex.c ****       {
 1680              		.loc 1 779 9 is_stmt 0 view .LVU387
 1681 0100 9007     		lsls	r0, r2, #30
 1682 0102 32D4     		bmi	.L217
 1683              	.L161:
ARM GAS  /tmp/ccK442Dq.s 			page 48


 676:Drivers/STM32G4xx_HAL_Driver/Src/stm32g4xx_hal_pwr_ex.c **** 
 1684              		.loc 1 676 21 view .LVU388
 1685 0104 0020     		movs	r0, #0
 1686 0106 7047     		bx	lr
 1687              	.LVL114:
 1688              	.L213:
 686:Drivers/STM32G4xx_HAL_Driver/Src/stm32g4xx_hal_pwr_ex.c ****   {
 1689              		.loc 1 686 3 view .LVU389
 1690 0108 0120     		movs	r0, #1
 1691              	.LVL115:
 686:Drivers/STM32G4xx_HAL_Driver/Src/stm32g4xx_hal_pwr_ex.c ****   {
 1692              		.loc 1 686 3 view .LVU390
 1693 010a 7047     		bx	lr
 1694              	.LVL116:
 1695              	.L150:
 691:Drivers/STM32G4xx_HAL_Driver/Src/stm32g4xx_hal_pwr_ex.c ****       __HAL_PWR_PVM1_EXTI_DISABLE_IT();
 1696              		.loc 1 691 7 is_stmt 1 view .LVU391
 1697 010c 264B     		ldr	r3, .L218
 1698 010e 5A6A     		ldr	r2, [r3, #36]
 1699 0110 22F00802 		bic	r2, r2, #8
 1700 0114 5A62     		str	r2, [r3, #36]
 692:Drivers/STM32G4xx_HAL_Driver/Src/stm32g4xx_hal_pwr_ex.c ****       __HAL_PWR_PVM1_EXTI_DISABLE_FALLING_EDGE();
 1701              		.loc 1 692 7 view .LVU392
 1702 0116 1A6A     		ldr	r2, [r3, #32]
 1703 0118 22F00802 		bic	r2, r2, #8
 1704 011c 1A62     		str	r2, [r3, #32]
 693:Drivers/STM32G4xx_HAL_Driver/Src/stm32g4xx_hal_pwr_ex.c ****       __HAL_PWR_PVM1_EXTI_DISABLE_RISING_EDGE();
 1705              		.loc 1 693 7 view .LVU393
 1706 011e DA6A     		ldr	r2, [r3, #44]
 1707 0120 22F00802 		bic	r2, r2, #8
 1708 0124 DA62     		str	r2, [r3, #44]
 694:Drivers/STM32G4xx_HAL_Driver/Src/stm32g4xx_hal_pwr_ex.c **** 
 1709              		.loc 1 694 7 view .LVU394
 1710 0126 9A6A     		ldr	r2, [r3, #40]
 1711 0128 22F00802 		bic	r2, r2, #8
 1712 012c 9A62     		str	r2, [r3, #40]
 697:Drivers/STM32G4xx_HAL_Driver/Src/stm32g4xx_hal_pwr_ex.c ****       {
 1713              		.loc 1 697 7 view .LVU395
 697:Drivers/STM32G4xx_HAL_Driver/Src/stm32g4xx_hal_pwr_ex.c ****       {
 1714              		.loc 1 697 21 is_stmt 0 view .LVU396
 1715 012e 4268     		ldr	r2, [r0, #4]
 697:Drivers/STM32G4xx_HAL_Driver/Src/stm32g4xx_hal_pwr_ex.c ****       {
 1716              		.loc 1 697 9 view .LVU397
 1717 0130 D003     		lsls	r0, r2, #15
 1718              	.LVL117:
 697:Drivers/STM32G4xx_HAL_Driver/Src/stm32g4xx_hal_pwr_ex.c ****       {
 1719              		.loc 1 697 9 view .LVU398
 1720 0132 03D5     		bpl	.L154
 699:Drivers/STM32G4xx_HAL_Driver/Src/stm32g4xx_hal_pwr_ex.c ****       }
 1721              		.loc 1 699 9 is_stmt 1 view .LVU399
 1722 0134 196A     		ldr	r1, [r3, #32]
 1723 0136 41F00801 		orr	r1, r1, #8
 1724 013a 1962     		str	r1, [r3, #32]
 1725              	.L154:
 703:Drivers/STM32G4xx_HAL_Driver/Src/stm32g4xx_hal_pwr_ex.c ****       {
 1726              		.loc 1 703 7 view .LVU400
 703:Drivers/STM32G4xx_HAL_Driver/Src/stm32g4xx_hal_pwr_ex.c ****       {
ARM GAS  /tmp/ccK442Dq.s 			page 49


 1727              		.loc 1 703 9 is_stmt 0 view .LVU401
 1728 013c 9103     		lsls	r1, r2, #14
 1729 013e 04D5     		bpl	.L155
 705:Drivers/STM32G4xx_HAL_Driver/Src/stm32g4xx_hal_pwr_ex.c ****       }
 1730              		.loc 1 705 9 is_stmt 1 view .LVU402
 1731 0140 1949     		ldr	r1, .L218
 1732 0142 4B6A     		ldr	r3, [r1, #36]
 1733 0144 43F00803 		orr	r3, r3, #8
 1734 0148 4B62     		str	r3, [r1, #36]
 1735              	.L155:
 709:Drivers/STM32G4xx_HAL_Driver/Src/stm32g4xx_hal_pwr_ex.c ****       {
 1736              		.loc 1 709 7 view .LVU403
 709:Drivers/STM32G4xx_HAL_Driver/Src/stm32g4xx_hal_pwr_ex.c ****       {
 1737              		.loc 1 709 9 is_stmt 0 view .LVU404
 1738 014a D307     		lsls	r3, r2, #31
 1739 014c 04D5     		bpl	.L156
 711:Drivers/STM32G4xx_HAL_Driver/Src/stm32g4xx_hal_pwr_ex.c ****       }
 1740              		.loc 1 711 9 is_stmt 1 view .LVU405
 1741 014e 1649     		ldr	r1, .L218
 1742 0150 8B6A     		ldr	r3, [r1, #40]
 1743 0152 43F00803 		orr	r3, r3, #8
 1744 0156 8B62     		str	r3, [r1, #40]
 1745              	.L156:
 714:Drivers/STM32G4xx_HAL_Driver/Src/stm32g4xx_hal_pwr_ex.c ****       {
 1746              		.loc 1 714 7 view .LVU406
 714:Drivers/STM32G4xx_HAL_Driver/Src/stm32g4xx_hal_pwr_ex.c ****       {
 1747              		.loc 1 714 9 is_stmt 0 view .LVU407
 1748 0158 9007     		lsls	r0, r2, #30
 1749 015a D3D5     		bpl	.L161
 716:Drivers/STM32G4xx_HAL_Driver/Src/stm32g4xx_hal_pwr_ex.c ****       }
 1750              		.loc 1 716 9 is_stmt 1 view .LVU408
 1751 015c 124A     		ldr	r2, .L218
 1752 015e D36A     		ldr	r3, [r2, #44]
 1753 0160 43F00803 		orr	r3, r3, #8
 676:Drivers/STM32G4xx_HAL_Driver/Src/stm32g4xx_hal_pwr_ex.c **** 
 1754              		.loc 1 676 21 is_stmt 0 view .LVU409
 1755 0164 0020     		movs	r0, #0
 716:Drivers/STM32G4xx_HAL_Driver/Src/stm32g4xx_hal_pwr_ex.c ****       }
 1756              		.loc 1 716 9 view .LVU410
 1757 0166 D362     		str	r3, [r2, #44]
 1758 0168 7047     		bx	lr
 1759              	.L217:
 781:Drivers/STM32G4xx_HAL_Driver/Src/stm32g4xx_hal_pwr_ex.c ****       }
 1760              		.loc 1 781 9 is_stmt 1 view .LVU411
 1761 016a 0F4A     		ldr	r2, .L218
 1762 016c D36A     		ldr	r3, [r2, #44]
 1763 016e 43F02003 		orr	r3, r3, #32
 676:Drivers/STM32G4xx_HAL_Driver/Src/stm32g4xx_hal_pwr_ex.c **** 
 1764              		.loc 1 676 21 is_stmt 0 view .LVU412
 1765 0172 0020     		movs	r0, #0
 781:Drivers/STM32G4xx_HAL_Driver/Src/stm32g4xx_hal_pwr_ex.c ****       }
 1766              		.loc 1 781 9 view .LVU413
 1767 0174 D362     		str	r3, [r2, #44]
 1768 0176 7047     		bx	lr
 1769              	.L216:
 776:Drivers/STM32G4xx_HAL_Driver/Src/stm32g4xx_hal_pwr_ex.c ****       }
 1770              		.loc 1 776 9 is_stmt 1 view .LVU414
ARM GAS  /tmp/ccK442Dq.s 			page 50


 1771 0178 0B49     		ldr	r1, .L218
 1772 017a 8B6A     		ldr	r3, [r1, #40]
 779:Drivers/STM32G4xx_HAL_Driver/Src/stm32g4xx_hal_pwr_ex.c ****       {
 1773              		.loc 1 779 9 is_stmt 0 view .LVU415
 1774 017c 9007     		lsls	r0, r2, #30
 776:Drivers/STM32G4xx_HAL_Driver/Src/stm32g4xx_hal_pwr_ex.c ****       }
 1775              		.loc 1 776 9 view .LVU416
 1776 017e 43F02003 		orr	r3, r3, #32
 1777 0182 8B62     		str	r3, [r1, #40]
 779:Drivers/STM32G4xx_HAL_Driver/Src/stm32g4xx_hal_pwr_ex.c ****       {
 1778              		.loc 1 779 7 is_stmt 1 view .LVU417
 779:Drivers/STM32G4xx_HAL_Driver/Src/stm32g4xx_hal_pwr_ex.c ****       {
 1779              		.loc 1 779 9 is_stmt 0 view .LVU418
 1780 0184 BED5     		bpl	.L161
 1781 0186 F0E7     		b	.L217
 1782              	.L215:
 770:Drivers/STM32G4xx_HAL_Driver/Src/stm32g4xx_hal_pwr_ex.c ****       }
 1783              		.loc 1 770 9 is_stmt 1 view .LVU419
 1784 0188 0749     		ldr	r1, .L218
 1785 018a 4B6A     		ldr	r3, [r1, #36]
 1786 018c 43F02003 		orr	r3, r3, #32
 1787 0190 4B62     		str	r3, [r1, #36]
 774:Drivers/STM32G4xx_HAL_Driver/Src/stm32g4xx_hal_pwr_ex.c ****       {
 1788              		.loc 1 774 7 view .LVU420
 774:Drivers/STM32G4xx_HAL_Driver/Src/stm32g4xx_hal_pwr_ex.c ****       {
 1789              		.loc 1 774 9 is_stmt 0 view .LVU421
 1790 0192 D307     		lsls	r3, r2, #31
 1791 0194 B4D5     		bpl	.L164
 1792 0196 EFE7     		b	.L216
 1793              	.L214:
 764:Drivers/STM32G4xx_HAL_Driver/Src/stm32g4xx_hal_pwr_ex.c ****       }
 1794              		.loc 1 764 9 is_stmt 1 view .LVU422
 1795 0198 196A     		ldr	r1, [r3, #32]
 1796 019a 41F02001 		orr	r1, r1, #32
 1797 019e 1962     		str	r1, [r3, #32]
 768:Drivers/STM32G4xx_HAL_Driver/Src/stm32g4xx_hal_pwr_ex.c ****       {
 1798              		.loc 1 768 7 view .LVU423
 768:Drivers/STM32G4xx_HAL_Driver/Src/stm32g4xx_hal_pwr_ex.c ****       {
 1799              		.loc 1 768 9 is_stmt 0 view .LVU424
 1800 01a0 9103     		lsls	r1, r2, #14
 1801 01a2 ABD5     		bpl	.L163
 1802 01a4 F0E7     		b	.L215
 1803              	.L219:
 1804 01a6 00BF     		.align	2
 1805              	.L218:
 1806 01a8 00040140 		.word	1073808384
 1807              		.cfi_endproc
 1808              	.LFE154:
 1810              		.section	.text.HAL_PWREx_EnableLowPowerRunMode,"ax",%progbits
 1811              		.align	1
 1812              		.p2align 2,,3
 1813              		.global	HAL_PWREx_EnableLowPowerRunMode
 1814              		.syntax unified
 1815              		.thumb
 1816              		.thumb_func
 1817              		.fpu fpv4-sp-d16
 1819              	HAL_PWREx_EnableLowPowerRunMode:
ARM GAS  /tmp/ccK442Dq.s 			page 51


 1820              	.LFB155:
 823:Drivers/STM32G4xx_HAL_Driver/Src/stm32g4xx_hal_pwr_ex.c **** 
 824:Drivers/STM32G4xx_HAL_Driver/Src/stm32g4xx_hal_pwr_ex.c **** 
 825:Drivers/STM32G4xx_HAL_Driver/Src/stm32g4xx_hal_pwr_ex.c **** /**
 826:Drivers/STM32G4xx_HAL_Driver/Src/stm32g4xx_hal_pwr_ex.c ****   * @brief Enter Low-power Run mode
 827:Drivers/STM32G4xx_HAL_Driver/Src/stm32g4xx_hal_pwr_ex.c ****   * @note  In Low-power Run mode, all I/O pins keep the same state as in Run mode.
 828:Drivers/STM32G4xx_HAL_Driver/Src/stm32g4xx_hal_pwr_ex.c ****   * @note  When Regulator is set to PWR_LOWPOWERREGULATOR_ON, the user can optionally configure the
 829:Drivers/STM32G4xx_HAL_Driver/Src/stm32g4xx_hal_pwr_ex.c ****   *        Flash in power-down monde in setting the RUN_PD bit in FLASH_ACR register.
 830:Drivers/STM32G4xx_HAL_Driver/Src/stm32g4xx_hal_pwr_ex.c ****   *        Additionally, the clock frequency must be reduced below 2 MHz.
 831:Drivers/STM32G4xx_HAL_Driver/Src/stm32g4xx_hal_pwr_ex.c ****   *        Setting RUN_PD in FLASH_ACR then appropriately reducing the clock frequency must
 832:Drivers/STM32G4xx_HAL_Driver/Src/stm32g4xx_hal_pwr_ex.c ****   *        be done before calling HAL_PWREx_EnableLowPowerRunMode() API.
 833:Drivers/STM32G4xx_HAL_Driver/Src/stm32g4xx_hal_pwr_ex.c ****   * @retval None
 834:Drivers/STM32G4xx_HAL_Driver/Src/stm32g4xx_hal_pwr_ex.c ****   */
 835:Drivers/STM32G4xx_HAL_Driver/Src/stm32g4xx_hal_pwr_ex.c **** void HAL_PWREx_EnableLowPowerRunMode(void)
 836:Drivers/STM32G4xx_HAL_Driver/Src/stm32g4xx_hal_pwr_ex.c **** {
 1821              		.loc 1 836 1 is_stmt 1 view -0
 1822              		.cfi_startproc
 1823              		@ args = 0, pretend = 0, frame = 0
 1824              		@ frame_needed = 0, uses_anonymous_args = 0
 1825              		@ link register save eliminated.
 837:Drivers/STM32G4xx_HAL_Driver/Src/stm32g4xx_hal_pwr_ex.c ****   /* Set Regulator parameter */
 838:Drivers/STM32G4xx_HAL_Driver/Src/stm32g4xx_hal_pwr_ex.c ****   SET_BIT(PWR->CR1, PWR_CR1_LPR);
 1826              		.loc 1 838 3 view .LVU426
 1827 0000 024A     		ldr	r2, .L221
 1828 0002 1368     		ldr	r3, [r2]
 1829 0004 43F48043 		orr	r3, r3, #16384
 1830 0008 1360     		str	r3, [r2]
 839:Drivers/STM32G4xx_HAL_Driver/Src/stm32g4xx_hal_pwr_ex.c **** }
 1831              		.loc 1 839 1 is_stmt 0 view .LVU427
 1832 000a 7047     		bx	lr
 1833              	.L222:
 1834              		.align	2
 1835              	.L221:
 1836 000c 00700040 		.word	1073770496
 1837              		.cfi_endproc
 1838              	.LFE155:
 1840              		.section	.text.HAL_PWREx_DisableLowPowerRunMode,"ax",%progbits
 1841              		.align	1
 1842              		.p2align 2,,3
 1843              		.global	HAL_PWREx_DisableLowPowerRunMode
 1844              		.syntax unified
 1845              		.thumb
 1846              		.thumb_func
 1847              		.fpu fpv4-sp-d16
 1849              	HAL_PWREx_DisableLowPowerRunMode:
 1850              	.LFB156:
 840:Drivers/STM32G4xx_HAL_Driver/Src/stm32g4xx_hal_pwr_ex.c **** 
 841:Drivers/STM32G4xx_HAL_Driver/Src/stm32g4xx_hal_pwr_ex.c **** 
 842:Drivers/STM32G4xx_HAL_Driver/Src/stm32g4xx_hal_pwr_ex.c **** /**
 843:Drivers/STM32G4xx_HAL_Driver/Src/stm32g4xx_hal_pwr_ex.c ****   * @brief Exit Low-power Run mode.
 844:Drivers/STM32G4xx_HAL_Driver/Src/stm32g4xx_hal_pwr_ex.c ****   * @note  Before HAL_PWREx_DisableLowPowerRunMode() completion, the function checks that
 845:Drivers/STM32G4xx_HAL_Driver/Src/stm32g4xx_hal_pwr_ex.c ****   *        REGLPF has been properly reset (otherwise, HAL_PWREx_DisableLowPowerRunMode
 846:Drivers/STM32G4xx_HAL_Driver/Src/stm32g4xx_hal_pwr_ex.c ****   *        returns HAL_TIMEOUT status). The system clock frequency can then be
 847:Drivers/STM32G4xx_HAL_Driver/Src/stm32g4xx_hal_pwr_ex.c ****   *        increased above 2 MHz.
 848:Drivers/STM32G4xx_HAL_Driver/Src/stm32g4xx_hal_pwr_ex.c ****   * @retval HAL Status
 849:Drivers/STM32G4xx_HAL_Driver/Src/stm32g4xx_hal_pwr_ex.c ****   */
 850:Drivers/STM32G4xx_HAL_Driver/Src/stm32g4xx_hal_pwr_ex.c **** HAL_StatusTypeDef HAL_PWREx_DisableLowPowerRunMode(void)
ARM GAS  /tmp/ccK442Dq.s 			page 52


 851:Drivers/STM32G4xx_HAL_Driver/Src/stm32g4xx_hal_pwr_ex.c **** {
 1851              		.loc 1 851 1 is_stmt 1 view -0
 1852              		.cfi_startproc
 1853              		@ args = 0, pretend = 0, frame = 0
 1854              		@ frame_needed = 0, uses_anonymous_args = 0
 1855              		@ link register save eliminated.
 852:Drivers/STM32G4xx_HAL_Driver/Src/stm32g4xx_hal_pwr_ex.c ****   uint32_t wait_loop_index;
 1856              		.loc 1 852 3 view .LVU429
 853:Drivers/STM32G4xx_HAL_Driver/Src/stm32g4xx_hal_pwr_ex.c **** 
 854:Drivers/STM32G4xx_HAL_Driver/Src/stm32g4xx_hal_pwr_ex.c ****   /* Clear LPR bit */
 855:Drivers/STM32G4xx_HAL_Driver/Src/stm32g4xx_hal_pwr_ex.c ****   CLEAR_BIT(PWR->CR1, PWR_CR1_LPR);
 1857              		.loc 1 855 3 view .LVU430
 1858 0000 1049     		ldr	r1, .L240
 856:Drivers/STM32G4xx_HAL_Driver/Src/stm32g4xx_hal_pwr_ex.c **** 
 857:Drivers/STM32G4xx_HAL_Driver/Src/stm32g4xx_hal_pwr_ex.c ****   /* Wait until REGLPF is reset */
 858:Drivers/STM32G4xx_HAL_Driver/Src/stm32g4xx_hal_pwr_ex.c ****   wait_loop_index = (PWR_FLAG_SETTING_DELAY_US * (SystemCoreClock / 1000000U));
 1859              		.loc 1 858 67 is_stmt 0 view .LVU431
 1860 0002 114B     		ldr	r3, .L240+4
 855:Drivers/STM32G4xx_HAL_Driver/Src/stm32g4xx_hal_pwr_ex.c **** 
 1861              		.loc 1 855 3 view .LVU432
 1862 0004 0A68     		ldr	r2, [r1]
 1863 0006 22F48042 		bic	r2, r2, #16384
 851:Drivers/STM32G4xx_HAL_Driver/Src/stm32g4xx_hal_pwr_ex.c ****   uint32_t wait_loop_index;
 1864              		.loc 1 851 1 view .LVU433
 1865 000a 10B4     		push	{r4}
 1866              	.LCFI11:
 1867              		.cfi_def_cfa_offset 4
 1868              		.cfi_offset 4, -4
 855:Drivers/STM32G4xx_HAL_Driver/Src/stm32g4xx_hal_pwr_ex.c **** 
 1869              		.loc 1 855 3 view .LVU434
 1870 000c 0A60     		str	r2, [r1]
 1871              		.loc 1 858 3 is_stmt 1 view .LVU435
 1872              		.loc 1 858 67 is_stmt 0 view .LVU436
 1873 000e 0F4C     		ldr	r4, .L240+8
 1874 0010 1B68     		ldr	r3, [r3]
 859:Drivers/STM32G4xx_HAL_Driver/Src/stm32g4xx_hal_pwr_ex.c ****   while ((HAL_IS_BIT_SET(PWR->SR2, PWR_SR2_REGLPF)) && (wait_loop_index != 0U))
 1875              		.loc 1 859 11 view .LVU437
 1876 0012 4A69     		ldr	r2, [r1, #20]
 858:Drivers/STM32G4xx_HAL_Driver/Src/stm32g4xx_hal_pwr_ex.c ****   while ((HAL_IS_BIT_SET(PWR->SR2, PWR_SR2_REGLPF)) && (wait_loop_index != 0U))
 1877              		.loc 1 858 67 view .LVU438
 1878 0014 A4FB0343 		umull	r4, r3, r4, r3
 858:Drivers/STM32G4xx_HAL_Driver/Src/stm32g4xx_hal_pwr_ex.c ****   while ((HAL_IS_BIT_SET(PWR->SR2, PWR_SR2_REGLPF)) && (wait_loop_index != 0U))
 1879              		.loc 1 858 19 view .LVU439
 1880 0018 3220     		movs	r0, #50
 858:Drivers/STM32G4xx_HAL_Driver/Src/stm32g4xx_hal_pwr_ex.c ****   while ((HAL_IS_BIT_SET(PWR->SR2, PWR_SR2_REGLPF)) && (wait_loop_index != 0U))
 1881              		.loc 1 858 67 view .LVU440
 1882 001a 9B0C     		lsrs	r3, r3, #18
 1883              		.loc 1 859 9 view .LVU441
 1884 001c 9405     		lsls	r4, r2, #22
 858:Drivers/STM32G4xx_HAL_Driver/Src/stm32g4xx_hal_pwr_ex.c ****   while ((HAL_IS_BIT_SET(PWR->SR2, PWR_SR2_REGLPF)) && (wait_loop_index != 0U))
 1885              		.loc 1 858 19 view .LVU442
 1886 001e 00FB03F3 		mul	r3, r0, r3
 1887              	.LVL118:
 1888              		.loc 1 859 3 is_stmt 1 view .LVU443
 1889              		.loc 1 859 9 view .LVU444
 1890 0022 05D5     		bpl	.L224
 1891              	.L239:
ARM GAS  /tmp/ccK442Dq.s 			page 53


 1892              		.loc 1 859 53 is_stmt 0 view .LVU445
 1893 0024 23B1     		cbz	r3, .L224
 860:Drivers/STM32G4xx_HAL_Driver/Src/stm32g4xx_hal_pwr_ex.c ****   {
 861:Drivers/STM32G4xx_HAL_Driver/Src/stm32g4xx_hal_pwr_ex.c ****     wait_loop_index--;
 1894              		.loc 1 861 5 is_stmt 1 view .LVU446
 859:Drivers/STM32G4xx_HAL_Driver/Src/stm32g4xx_hal_pwr_ex.c ****   {
 1895              		.loc 1 859 11 is_stmt 0 view .LVU447
 1896 0026 4A69     		ldr	r2, [r1, #20]
 859:Drivers/STM32G4xx_HAL_Driver/Src/stm32g4xx_hal_pwr_ex.c ****   {
 1897              		.loc 1 859 9 view .LVU448
 1898 0028 9205     		lsls	r2, r2, #22
 1899              		.loc 1 861 20 view .LVU449
 1900 002a 03F1FF33 		add	r3, r3, #-1
 1901              	.LVL119:
 859:Drivers/STM32G4xx_HAL_Driver/Src/stm32g4xx_hal_pwr_ex.c ****   {
 1902              		.loc 1 859 9 is_stmt 1 view .LVU450
 1903 002e F9D4     		bmi	.L239
 1904              	.L224:
 862:Drivers/STM32G4xx_HAL_Driver/Src/stm32g4xx_hal_pwr_ex.c ****   }
 863:Drivers/STM32G4xx_HAL_Driver/Src/stm32g4xx_hal_pwr_ex.c ****   if (HAL_IS_BIT_SET(PWR->SR2, PWR_SR2_REGLPF))
 1905              		.loc 1 863 3 view .LVU451
 1906              		.loc 1 863 7 is_stmt 0 view .LVU452
 1907 0030 044B     		ldr	r3, .L240
 1908              	.LVL120:
 864:Drivers/STM32G4xx_HAL_Driver/Src/stm32g4xx_hal_pwr_ex.c ****   {
 865:Drivers/STM32G4xx_HAL_Driver/Src/stm32g4xx_hal_pwr_ex.c ****     return HAL_TIMEOUT;
 866:Drivers/STM32G4xx_HAL_Driver/Src/stm32g4xx_hal_pwr_ex.c ****   }
 867:Drivers/STM32G4xx_HAL_Driver/Src/stm32g4xx_hal_pwr_ex.c **** 
 868:Drivers/STM32G4xx_HAL_Driver/Src/stm32g4xx_hal_pwr_ex.c ****   return HAL_OK;
 869:Drivers/STM32G4xx_HAL_Driver/Src/stm32g4xx_hal_pwr_ex.c **** }
 1909              		.loc 1 869 1 view .LVU453
 1910 0032 5DF8044B 		ldr	r4, [sp], #4
 1911              	.LCFI12:
 1912              		.cfi_restore 4
 1913              		.cfi_def_cfa_offset 0
 863:Drivers/STM32G4xx_HAL_Driver/Src/stm32g4xx_hal_pwr_ex.c ****   {
 1914              		.loc 1 863 7 view .LVU454
 1915 0036 5B69     		ldr	r3, [r3, #20]
 865:Drivers/STM32G4xx_HAL_Driver/Src/stm32g4xx_hal_pwr_ex.c ****   }
 1916              		.loc 1 865 12 view .LVU455
 1917 0038 13F4007F 		tst	r3, #512
 1918              		.loc 1 869 1 view .LVU456
 1919 003c 14BF     		ite	ne
 1920 003e 0320     		movne	r0, #3
 1921 0040 0020     		moveq	r0, #0
 1922 0042 7047     		bx	lr
 1923              	.L241:
 1924              		.align	2
 1925              	.L240:
 1926 0044 00700040 		.word	1073770496
 1927 0048 00000000 		.word	SystemCoreClock
 1928 004c 83DE1B43 		.word	1125899907
 1929              		.cfi_endproc
 1930              	.LFE156:
 1932              		.section	.text.HAL_PWREx_EnterSTOP0Mode,"ax",%progbits
 1933              		.align	1
 1934              		.p2align 2,,3
ARM GAS  /tmp/ccK442Dq.s 			page 54


 1935              		.global	HAL_PWREx_EnterSTOP0Mode
 1936              		.syntax unified
 1937              		.thumb
 1938              		.thumb_func
 1939              		.fpu fpv4-sp-d16
 1941              	HAL_PWREx_EnterSTOP0Mode:
 1942              	.LVL121:
 1943              	.LFB157:
 870:Drivers/STM32G4xx_HAL_Driver/Src/stm32g4xx_hal_pwr_ex.c **** 
 871:Drivers/STM32G4xx_HAL_Driver/Src/stm32g4xx_hal_pwr_ex.c **** 
 872:Drivers/STM32G4xx_HAL_Driver/Src/stm32g4xx_hal_pwr_ex.c **** /**
 873:Drivers/STM32G4xx_HAL_Driver/Src/stm32g4xx_hal_pwr_ex.c ****   * @brief Enter Stop 0 mode.
 874:Drivers/STM32G4xx_HAL_Driver/Src/stm32g4xx_hal_pwr_ex.c ****   * @note  In Stop 0 mode, main and low voltage regulators are ON.
 875:Drivers/STM32G4xx_HAL_Driver/Src/stm32g4xx_hal_pwr_ex.c ****   * @note  In Stop 0 mode, all I/O pins keep the same state as in Run mode.
 876:Drivers/STM32G4xx_HAL_Driver/Src/stm32g4xx_hal_pwr_ex.c ****   * @note  All clocks in the VCORE domain are stopped; the PLL, the HSI
 877:Drivers/STM32G4xx_HAL_Driver/Src/stm32g4xx_hal_pwr_ex.c ****   *        and the HSE oscillators are disabled. Some peripherals with the wakeup capability
 878:Drivers/STM32G4xx_HAL_Driver/Src/stm32g4xx_hal_pwr_ex.c ****   *        (I2Cx, USARTx and LPUART) can switch on the HSI to receive a frame, and switch off the H
 879:Drivers/STM32G4xx_HAL_Driver/Src/stm32g4xx_hal_pwr_ex.c ****   *        after receiving the frame if it is not a wakeup frame. In this case, the HSI clock is pr
 880:Drivers/STM32G4xx_HAL_Driver/Src/stm32g4xx_hal_pwr_ex.c ****   *        only to the peripheral requesting it.
 881:Drivers/STM32G4xx_HAL_Driver/Src/stm32g4xx_hal_pwr_ex.c ****   *        SRAM1, SRAM2 and register contents are preserved.
 882:Drivers/STM32G4xx_HAL_Driver/Src/stm32g4xx_hal_pwr_ex.c ****   *        The BOR is available.
 883:Drivers/STM32G4xx_HAL_Driver/Src/stm32g4xx_hal_pwr_ex.c ****   * @note  When exiting Stop 0 mode by issuing an interrupt or a wakeup event,
 884:Drivers/STM32G4xx_HAL_Driver/Src/stm32g4xx_hal_pwr_ex.c ****   *         the HSI RC oscillator is selected as system clock if STOPWUCK bit in RCC_CFGR register
 885:Drivers/STM32G4xx_HAL_Driver/Src/stm32g4xx_hal_pwr_ex.c ****   *         is set; the HSI oscillator is selected if STOPWUCK is cleared.
 886:Drivers/STM32G4xx_HAL_Driver/Src/stm32g4xx_hal_pwr_ex.c ****   * @note  By keeping the internal regulator ON during Stop 0 mode, the consumption
 887:Drivers/STM32G4xx_HAL_Driver/Src/stm32g4xx_hal_pwr_ex.c ****   *         is higher although the startup time is reduced.
 888:Drivers/STM32G4xx_HAL_Driver/Src/stm32g4xx_hal_pwr_ex.c ****   * @param STOPEntry  specifies if Stop mode in entered with WFI or WFE instruction.
 889:Drivers/STM32G4xx_HAL_Driver/Src/stm32g4xx_hal_pwr_ex.c ****   *          This parameter can be one of the following values:
 890:Drivers/STM32G4xx_HAL_Driver/Src/stm32g4xx_hal_pwr_ex.c ****   *            @arg @ref PWR_STOPENTRY_WFI  Enter Stop mode with WFI instruction
 891:Drivers/STM32G4xx_HAL_Driver/Src/stm32g4xx_hal_pwr_ex.c ****   *            @arg @ref PWR_STOPENTRY_WFE  Enter Stop mode with WFE instruction
 892:Drivers/STM32G4xx_HAL_Driver/Src/stm32g4xx_hal_pwr_ex.c ****   * @retval None
 893:Drivers/STM32G4xx_HAL_Driver/Src/stm32g4xx_hal_pwr_ex.c ****   */
 894:Drivers/STM32G4xx_HAL_Driver/Src/stm32g4xx_hal_pwr_ex.c **** void HAL_PWREx_EnterSTOP0Mode(uint8_t STOPEntry)
 895:Drivers/STM32G4xx_HAL_Driver/Src/stm32g4xx_hal_pwr_ex.c **** {
 1944              		.loc 1 895 1 is_stmt 1 view -0
 1945              		.cfi_startproc
 1946              		@ args = 0, pretend = 0, frame = 0
 1947              		@ frame_needed = 0, uses_anonymous_args = 0
 1948              		@ link register save eliminated.
 896:Drivers/STM32G4xx_HAL_Driver/Src/stm32g4xx_hal_pwr_ex.c ****   /* Check the parameters */
 897:Drivers/STM32G4xx_HAL_Driver/Src/stm32g4xx_hal_pwr_ex.c ****   assert_param(IS_PWR_STOP_ENTRY(STOPEntry));
 1949              		.loc 1 897 3 view .LVU458
 898:Drivers/STM32G4xx_HAL_Driver/Src/stm32g4xx_hal_pwr_ex.c **** 
 899:Drivers/STM32G4xx_HAL_Driver/Src/stm32g4xx_hal_pwr_ex.c ****   /* Stop 0 mode with Main Regulator */
 900:Drivers/STM32G4xx_HAL_Driver/Src/stm32g4xx_hal_pwr_ex.c ****   MODIFY_REG(PWR->CR1, PWR_CR1_LPMS, PWR_CR1_LPMS_STOP0);
 1950              		.loc 1 900 3 view .LVU459
 1951 0000 0B49     		ldr	r1, .L246
 901:Drivers/STM32G4xx_HAL_Driver/Src/stm32g4xx_hal_pwr_ex.c **** 
 902:Drivers/STM32G4xx_HAL_Driver/Src/stm32g4xx_hal_pwr_ex.c ****   /* Set SLEEPDEEP bit of Cortex System Control Register */
 903:Drivers/STM32G4xx_HAL_Driver/Src/stm32g4xx_hal_pwr_ex.c ****   SET_BIT(SCB->SCR, ((uint32_t)SCB_SCR_SLEEPDEEP_Msk));
 1952              		.loc 1 903 3 is_stmt 0 view .LVU460
 1953 0002 0C4A     		ldr	r2, .L246+4
 900:Drivers/STM32G4xx_HAL_Driver/Src/stm32g4xx_hal_pwr_ex.c **** 
 1954              		.loc 1 900 3 view .LVU461
 1955 0004 0B68     		ldr	r3, [r1]
 1956 0006 23F00703 		bic	r3, r3, #7
 1957 000a 0B60     		str	r3, [r1]
ARM GAS  /tmp/ccK442Dq.s 			page 55


 1958              		.loc 1 903 3 is_stmt 1 view .LVU462
 1959 000c 1369     		ldr	r3, [r2, #16]
 904:Drivers/STM32G4xx_HAL_Driver/Src/stm32g4xx_hal_pwr_ex.c **** 
 905:Drivers/STM32G4xx_HAL_Driver/Src/stm32g4xx_hal_pwr_ex.c ****   /* Select Stop mode entry --------------------------------------------------*/
 906:Drivers/STM32G4xx_HAL_Driver/Src/stm32g4xx_hal_pwr_ex.c ****   if(STOPEntry == PWR_STOPENTRY_WFI)
 1960              		.loc 1 906 5 is_stmt 0 view .LVU463
 1961 000e 0128     		cmp	r0, #1
 903:Drivers/STM32G4xx_HAL_Driver/Src/stm32g4xx_hal_pwr_ex.c **** 
 1962              		.loc 1 903 3 view .LVU464
 1963 0010 43F00403 		orr	r3, r3, #4
 1964 0014 1361     		str	r3, [r2, #16]
 1965              		.loc 1 906 3 is_stmt 1 view .LVU465
 1966              		.loc 1 906 5 is_stmt 0 view .LVU466
 1967 0016 08D0     		beq	.L245
 907:Drivers/STM32G4xx_HAL_Driver/Src/stm32g4xx_hal_pwr_ex.c ****   {
 908:Drivers/STM32G4xx_HAL_Driver/Src/stm32g4xx_hal_pwr_ex.c ****     /* Request Wait For Interrupt */
 909:Drivers/STM32G4xx_HAL_Driver/Src/stm32g4xx_hal_pwr_ex.c ****     __WFI();
 910:Drivers/STM32G4xx_HAL_Driver/Src/stm32g4xx_hal_pwr_ex.c ****   }
 911:Drivers/STM32G4xx_HAL_Driver/Src/stm32g4xx_hal_pwr_ex.c ****   else
 912:Drivers/STM32G4xx_HAL_Driver/Src/stm32g4xx_hal_pwr_ex.c ****   {
 913:Drivers/STM32G4xx_HAL_Driver/Src/stm32g4xx_hal_pwr_ex.c ****     /* Request Wait For Event */
 914:Drivers/STM32G4xx_HAL_Driver/Src/stm32g4xx_hal_pwr_ex.c ****     __SEV();
 1968              		.loc 1 914 5 is_stmt 1 view .LVU467
 1969              		.syntax unified
 1970              	@ 914 "Drivers/STM32G4xx_HAL_Driver/Src/stm32g4xx_hal_pwr_ex.c" 1
 1971 0018 40BF     		sev
 1972              	@ 0 "" 2
 915:Drivers/STM32G4xx_HAL_Driver/Src/stm32g4xx_hal_pwr_ex.c ****     __WFE();
 1973              		.loc 1 915 5 view .LVU468
 1974              	@ 915 "Drivers/STM32G4xx_HAL_Driver/Src/stm32g4xx_hal_pwr_ex.c" 1
 1975 001a 20BF     		wfe
 1976              	@ 0 "" 2
 916:Drivers/STM32G4xx_HAL_Driver/Src/stm32g4xx_hal_pwr_ex.c ****     __WFE();
 1977              		.loc 1 916 5 view .LVU469
 1978              	@ 916 "Drivers/STM32G4xx_HAL_Driver/Src/stm32g4xx_hal_pwr_ex.c" 1
 1979 001c 20BF     		wfe
 1980              	@ 0 "" 2
 1981              		.thumb
 1982              		.syntax unified
 1983              	.L244:
 917:Drivers/STM32G4xx_HAL_Driver/Src/stm32g4xx_hal_pwr_ex.c ****   }
 918:Drivers/STM32G4xx_HAL_Driver/Src/stm32g4xx_hal_pwr_ex.c **** 
 919:Drivers/STM32G4xx_HAL_Driver/Src/stm32g4xx_hal_pwr_ex.c ****   /* Reset SLEEPDEEP bit of Cortex System Control Register */
 920:Drivers/STM32G4xx_HAL_Driver/Src/stm32g4xx_hal_pwr_ex.c ****   CLEAR_BIT(SCB->SCR, ((uint32_t)SCB_SCR_SLEEPDEEP_Msk));
 1984              		.loc 1 920 3 view .LVU470
 1985 001e 054A     		ldr	r2, .L246+4
 1986 0020 1369     		ldr	r3, [r2, #16]
 1987 0022 23F00403 		bic	r3, r3, #4
 1988 0026 1361     		str	r3, [r2, #16]
 921:Drivers/STM32G4xx_HAL_Driver/Src/stm32g4xx_hal_pwr_ex.c **** }
 1989              		.loc 1 921 1 is_stmt 0 view .LVU471
 1990 0028 7047     		bx	lr
 1991              	.L245:
 909:Drivers/STM32G4xx_HAL_Driver/Src/stm32g4xx_hal_pwr_ex.c ****   }
 1992              		.loc 1 909 5 is_stmt 1 view .LVU472
 1993              		.syntax unified
 1994              	@ 909 "Drivers/STM32G4xx_HAL_Driver/Src/stm32g4xx_hal_pwr_ex.c" 1
ARM GAS  /tmp/ccK442Dq.s 			page 56


 1995 002a 30BF     		wfi
 1996              	@ 0 "" 2
 1997              		.thumb
 1998              		.syntax unified
 1999 002c F7E7     		b	.L244
 2000              	.L247:
 2001 002e 00BF     		.align	2
 2002              	.L246:
 2003 0030 00700040 		.word	1073770496
 2004 0034 00ED00E0 		.word	-536810240
 2005              		.cfi_endproc
 2006              	.LFE157:
 2008              		.section	.text.HAL_PWREx_EnterSTOP1Mode,"ax",%progbits
 2009              		.align	1
 2010              		.p2align 2,,3
 2011              		.global	HAL_PWREx_EnterSTOP1Mode
 2012              		.syntax unified
 2013              		.thumb
 2014              		.thumb_func
 2015              		.fpu fpv4-sp-d16
 2017              	HAL_PWREx_EnterSTOP1Mode:
 2018              	.LVL122:
 2019              	.LFB158:
 922:Drivers/STM32G4xx_HAL_Driver/Src/stm32g4xx_hal_pwr_ex.c **** 
 923:Drivers/STM32G4xx_HAL_Driver/Src/stm32g4xx_hal_pwr_ex.c **** 
 924:Drivers/STM32G4xx_HAL_Driver/Src/stm32g4xx_hal_pwr_ex.c **** /**
 925:Drivers/STM32G4xx_HAL_Driver/Src/stm32g4xx_hal_pwr_ex.c ****   * @brief Enter Stop 1 mode.
 926:Drivers/STM32G4xx_HAL_Driver/Src/stm32g4xx_hal_pwr_ex.c ****   * @note  In Stop 1 mode, only low power voltage regulator is ON.
 927:Drivers/STM32G4xx_HAL_Driver/Src/stm32g4xx_hal_pwr_ex.c ****   * @note  In Stop 1 mode, all I/O pins keep the same state as in Run mode.
 928:Drivers/STM32G4xx_HAL_Driver/Src/stm32g4xx_hal_pwr_ex.c ****   * @note  All clocks in the VCORE domain are stopped; the PLL, the HSI
 929:Drivers/STM32G4xx_HAL_Driver/Src/stm32g4xx_hal_pwr_ex.c ****   *        and the HSE oscillators are disabled. Some peripherals with the wakeup capability
 930:Drivers/STM32G4xx_HAL_Driver/Src/stm32g4xx_hal_pwr_ex.c ****   *        (I2Cx, USARTx and LPUART) can switch on the HSI to receive a frame, and switch off the H
 931:Drivers/STM32G4xx_HAL_Driver/Src/stm32g4xx_hal_pwr_ex.c ****   *        after receiving the frame if it is not a wakeup frame. In this case, the HSI clock is pr
 932:Drivers/STM32G4xx_HAL_Driver/Src/stm32g4xx_hal_pwr_ex.c ****   *        only to the peripheral requesting it.
 933:Drivers/STM32G4xx_HAL_Driver/Src/stm32g4xx_hal_pwr_ex.c ****   *        SRAM1, SRAM2 and register contents are preserved.
 934:Drivers/STM32G4xx_HAL_Driver/Src/stm32g4xx_hal_pwr_ex.c ****   *        The BOR is available.
 935:Drivers/STM32G4xx_HAL_Driver/Src/stm32g4xx_hal_pwr_ex.c ****   * @note  When exiting Stop 1 mode by issuing an interrupt or a wakeup event,
 936:Drivers/STM32G4xx_HAL_Driver/Src/stm32g4xx_hal_pwr_ex.c ****   *         the HSI RC oscillator is selected as system clock if STOPWUCK bit in RCC_CFGR register
 937:Drivers/STM32G4xx_HAL_Driver/Src/stm32g4xx_hal_pwr_ex.c ****   *         is set.
 938:Drivers/STM32G4xx_HAL_Driver/Src/stm32g4xx_hal_pwr_ex.c ****   * @note  Due to low power mode, an additional startup delay is incurred when waking up from Stop 
 939:Drivers/STM32G4xx_HAL_Driver/Src/stm32g4xx_hal_pwr_ex.c ****   * @param STOPEntry  specifies if Stop mode in entered with WFI or WFE instruction.
 940:Drivers/STM32G4xx_HAL_Driver/Src/stm32g4xx_hal_pwr_ex.c ****   *          This parameter can be one of the following values:
 941:Drivers/STM32G4xx_HAL_Driver/Src/stm32g4xx_hal_pwr_ex.c ****   *            @arg @ref PWR_STOPENTRY_WFI  Enter Stop mode with WFI instruction
 942:Drivers/STM32G4xx_HAL_Driver/Src/stm32g4xx_hal_pwr_ex.c ****   *            @arg @ref PWR_STOPENTRY_WFE  Enter Stop mode with WFE instruction
 943:Drivers/STM32G4xx_HAL_Driver/Src/stm32g4xx_hal_pwr_ex.c ****   * @retval None
 944:Drivers/STM32G4xx_HAL_Driver/Src/stm32g4xx_hal_pwr_ex.c ****   */
 945:Drivers/STM32G4xx_HAL_Driver/Src/stm32g4xx_hal_pwr_ex.c **** void HAL_PWREx_EnterSTOP1Mode(uint8_t STOPEntry)
 946:Drivers/STM32G4xx_HAL_Driver/Src/stm32g4xx_hal_pwr_ex.c **** {
 2020              		.loc 1 946 1 view -0
 2021              		.cfi_startproc
 2022              		@ args = 0, pretend = 0, frame = 0
 2023              		@ frame_needed = 0, uses_anonymous_args = 0
 2024              		@ link register save eliminated.
 947:Drivers/STM32G4xx_HAL_Driver/Src/stm32g4xx_hal_pwr_ex.c ****   /* Check the parameters */
 948:Drivers/STM32G4xx_HAL_Driver/Src/stm32g4xx_hal_pwr_ex.c ****   assert_param(IS_PWR_STOP_ENTRY(STOPEntry));
 2025              		.loc 1 948 3 view .LVU474
 949:Drivers/STM32G4xx_HAL_Driver/Src/stm32g4xx_hal_pwr_ex.c **** 
ARM GAS  /tmp/ccK442Dq.s 			page 57


 950:Drivers/STM32G4xx_HAL_Driver/Src/stm32g4xx_hal_pwr_ex.c ****   /* Stop 1 mode with Low-Power Regulator */
 951:Drivers/STM32G4xx_HAL_Driver/Src/stm32g4xx_hal_pwr_ex.c ****   MODIFY_REG(PWR->CR1, PWR_CR1_LPMS, PWR_CR1_LPMS_STOP1);
 2026              		.loc 1 951 3 view .LVU475
 2027 0000 0C49     		ldr	r1, .L252
 952:Drivers/STM32G4xx_HAL_Driver/Src/stm32g4xx_hal_pwr_ex.c **** 
 953:Drivers/STM32G4xx_HAL_Driver/Src/stm32g4xx_hal_pwr_ex.c ****   /* Set SLEEPDEEP bit of Cortex System Control Register */
 954:Drivers/STM32G4xx_HAL_Driver/Src/stm32g4xx_hal_pwr_ex.c ****   SET_BIT(SCB->SCR, ((uint32_t)SCB_SCR_SLEEPDEEP_Msk));
 2028              		.loc 1 954 3 is_stmt 0 view .LVU476
 2029 0002 0D4A     		ldr	r2, .L252+4
 951:Drivers/STM32G4xx_HAL_Driver/Src/stm32g4xx_hal_pwr_ex.c **** 
 2030              		.loc 1 951 3 view .LVU477
 2031 0004 0B68     		ldr	r3, [r1]
 2032 0006 23F00703 		bic	r3, r3, #7
 2033 000a 43F00103 		orr	r3, r3, #1
 2034 000e 0B60     		str	r3, [r1]
 2035              		.loc 1 954 3 is_stmt 1 view .LVU478
 2036 0010 1369     		ldr	r3, [r2, #16]
 955:Drivers/STM32G4xx_HAL_Driver/Src/stm32g4xx_hal_pwr_ex.c **** 
 956:Drivers/STM32G4xx_HAL_Driver/Src/stm32g4xx_hal_pwr_ex.c ****   /* Select Stop mode entry --------------------------------------------------*/
 957:Drivers/STM32G4xx_HAL_Driver/Src/stm32g4xx_hal_pwr_ex.c ****   if(STOPEntry == PWR_STOPENTRY_WFI)
 2037              		.loc 1 957 5 is_stmt 0 view .LVU479
 2038 0012 0128     		cmp	r0, #1
 954:Drivers/STM32G4xx_HAL_Driver/Src/stm32g4xx_hal_pwr_ex.c **** 
 2039              		.loc 1 954 3 view .LVU480
 2040 0014 43F00403 		orr	r3, r3, #4
 2041 0018 1361     		str	r3, [r2, #16]
 2042              		.loc 1 957 3 is_stmt 1 view .LVU481
 2043              		.loc 1 957 5 is_stmt 0 view .LVU482
 2044 001a 08D0     		beq	.L251
 958:Drivers/STM32G4xx_HAL_Driver/Src/stm32g4xx_hal_pwr_ex.c ****   {
 959:Drivers/STM32G4xx_HAL_Driver/Src/stm32g4xx_hal_pwr_ex.c ****     /* Request Wait For Interrupt */
 960:Drivers/STM32G4xx_HAL_Driver/Src/stm32g4xx_hal_pwr_ex.c ****     __WFI();
 961:Drivers/STM32G4xx_HAL_Driver/Src/stm32g4xx_hal_pwr_ex.c ****   }
 962:Drivers/STM32G4xx_HAL_Driver/Src/stm32g4xx_hal_pwr_ex.c ****   else
 963:Drivers/STM32G4xx_HAL_Driver/Src/stm32g4xx_hal_pwr_ex.c ****   {
 964:Drivers/STM32G4xx_HAL_Driver/Src/stm32g4xx_hal_pwr_ex.c ****     /* Request Wait For Event */
 965:Drivers/STM32G4xx_HAL_Driver/Src/stm32g4xx_hal_pwr_ex.c ****     __SEV();
 2045              		.loc 1 965 5 is_stmt 1 view .LVU483
 2046              		.syntax unified
 2047              	@ 965 "Drivers/STM32G4xx_HAL_Driver/Src/stm32g4xx_hal_pwr_ex.c" 1
 2048 001c 40BF     		sev
 2049              	@ 0 "" 2
 966:Drivers/STM32G4xx_HAL_Driver/Src/stm32g4xx_hal_pwr_ex.c ****     __WFE();
 2050              		.loc 1 966 5 view .LVU484
 2051              	@ 966 "Drivers/STM32G4xx_HAL_Driver/Src/stm32g4xx_hal_pwr_ex.c" 1
 2052 001e 20BF     		wfe
 2053              	@ 0 "" 2
 967:Drivers/STM32G4xx_HAL_Driver/Src/stm32g4xx_hal_pwr_ex.c ****     __WFE();
 2054              		.loc 1 967 5 view .LVU485
 2055              	@ 967 "Drivers/STM32G4xx_HAL_Driver/Src/stm32g4xx_hal_pwr_ex.c" 1
 2056 0020 20BF     		wfe
 2057              	@ 0 "" 2
 2058              		.thumb
 2059              		.syntax unified
 2060              	.L250:
 968:Drivers/STM32G4xx_HAL_Driver/Src/stm32g4xx_hal_pwr_ex.c ****   }
 969:Drivers/STM32G4xx_HAL_Driver/Src/stm32g4xx_hal_pwr_ex.c **** 
ARM GAS  /tmp/ccK442Dq.s 			page 58


 970:Drivers/STM32G4xx_HAL_Driver/Src/stm32g4xx_hal_pwr_ex.c ****   /* Reset SLEEPDEEP bit of Cortex System Control Register */
 971:Drivers/STM32G4xx_HAL_Driver/Src/stm32g4xx_hal_pwr_ex.c ****   CLEAR_BIT(SCB->SCR, ((uint32_t)SCB_SCR_SLEEPDEEP_Msk));
 2061              		.loc 1 971 3 view .LVU486
 2062 0022 054A     		ldr	r2, .L252+4
 2063 0024 1369     		ldr	r3, [r2, #16]
 2064 0026 23F00403 		bic	r3, r3, #4
 2065 002a 1361     		str	r3, [r2, #16]
 972:Drivers/STM32G4xx_HAL_Driver/Src/stm32g4xx_hal_pwr_ex.c **** }
 2066              		.loc 1 972 1 is_stmt 0 view .LVU487
 2067 002c 7047     		bx	lr
 2068              	.L251:
 960:Drivers/STM32G4xx_HAL_Driver/Src/stm32g4xx_hal_pwr_ex.c ****   }
 2069              		.loc 1 960 5 is_stmt 1 view .LVU488
 2070              		.syntax unified
 2071              	@ 960 "Drivers/STM32G4xx_HAL_Driver/Src/stm32g4xx_hal_pwr_ex.c" 1
 2072 002e 30BF     		wfi
 2073              	@ 0 "" 2
 2074              		.thumb
 2075              		.syntax unified
 2076 0030 F7E7     		b	.L250
 2077              	.L253:
 2078 0032 00BF     		.align	2
 2079              	.L252:
 2080 0034 00700040 		.word	1073770496
 2081 0038 00ED00E0 		.word	-536810240
 2082              		.cfi_endproc
 2083              	.LFE158:
 2085              		.section	.text.HAL_PWREx_EnterSHUTDOWNMode,"ax",%progbits
 2086              		.align	1
 2087              		.p2align 2,,3
 2088              		.global	HAL_PWREx_EnterSHUTDOWNMode
 2089              		.syntax unified
 2090              		.thumb
 2091              		.thumb_func
 2092              		.fpu fpv4-sp-d16
 2094              	HAL_PWREx_EnterSHUTDOWNMode:
 2095              	.LFB159:
 973:Drivers/STM32G4xx_HAL_Driver/Src/stm32g4xx_hal_pwr_ex.c **** 
 974:Drivers/STM32G4xx_HAL_Driver/Src/stm32g4xx_hal_pwr_ex.c **** 
 975:Drivers/STM32G4xx_HAL_Driver/Src/stm32g4xx_hal_pwr_ex.c **** 
 976:Drivers/STM32G4xx_HAL_Driver/Src/stm32g4xx_hal_pwr_ex.c **** 
 977:Drivers/STM32G4xx_HAL_Driver/Src/stm32g4xx_hal_pwr_ex.c **** /**
 978:Drivers/STM32G4xx_HAL_Driver/Src/stm32g4xx_hal_pwr_ex.c ****   * @brief Enter Shutdown mode.
 979:Drivers/STM32G4xx_HAL_Driver/Src/stm32g4xx_hal_pwr_ex.c ****   * @note  In Shutdown mode, the PLL, the HSI, the LSI and the HSE oscillators are switched
 980:Drivers/STM32G4xx_HAL_Driver/Src/stm32g4xx_hal_pwr_ex.c ****   *        off. The voltage regulator is disabled and Vcore domain is powered off.
 981:Drivers/STM32G4xx_HAL_Driver/Src/stm32g4xx_hal_pwr_ex.c ****   *        SRAM1, SRAM2 and registers contents are lost except for registers in the Backup domain.
 982:Drivers/STM32G4xx_HAL_Driver/Src/stm32g4xx_hal_pwr_ex.c ****   *        The BOR is not available.
 983:Drivers/STM32G4xx_HAL_Driver/Src/stm32g4xx_hal_pwr_ex.c ****   * @note  The I/Os can be configured either with a pull-up or pull-down or can be kept in analog s
 984:Drivers/STM32G4xx_HAL_Driver/Src/stm32g4xx_hal_pwr_ex.c ****   * @retval None
 985:Drivers/STM32G4xx_HAL_Driver/Src/stm32g4xx_hal_pwr_ex.c ****   */
 986:Drivers/STM32G4xx_HAL_Driver/Src/stm32g4xx_hal_pwr_ex.c **** void HAL_PWREx_EnterSHUTDOWNMode(void)
 987:Drivers/STM32G4xx_HAL_Driver/Src/stm32g4xx_hal_pwr_ex.c **** {
 2096              		.loc 1 987 1 view -0
 2097              		.cfi_startproc
 2098              		@ args = 0, pretend = 0, frame = 0
 2099              		@ frame_needed = 0, uses_anonymous_args = 0
 2100              		@ link register save eliminated.
ARM GAS  /tmp/ccK442Dq.s 			page 59


 988:Drivers/STM32G4xx_HAL_Driver/Src/stm32g4xx_hal_pwr_ex.c **** 
 989:Drivers/STM32G4xx_HAL_Driver/Src/stm32g4xx_hal_pwr_ex.c ****   /* Set Shutdown mode */
 990:Drivers/STM32G4xx_HAL_Driver/Src/stm32g4xx_hal_pwr_ex.c ****   MODIFY_REG(PWR->CR1, PWR_CR1_LPMS, PWR_CR1_LPMS_SHUTDOWN);
 2101              		.loc 1 990 3 view .LVU490
 2102 0000 0649     		ldr	r1, .L255
 991:Drivers/STM32G4xx_HAL_Driver/Src/stm32g4xx_hal_pwr_ex.c **** 
 992:Drivers/STM32G4xx_HAL_Driver/Src/stm32g4xx_hal_pwr_ex.c ****   /* Set SLEEPDEEP bit of Cortex System Control Register */
 993:Drivers/STM32G4xx_HAL_Driver/Src/stm32g4xx_hal_pwr_ex.c ****   SET_BIT(SCB->SCR, ((uint32_t)SCB_SCR_SLEEPDEEP_Msk));
 2103              		.loc 1 993 3 is_stmt 0 view .LVU491
 2104 0002 074A     		ldr	r2, .L255+4
 990:Drivers/STM32G4xx_HAL_Driver/Src/stm32g4xx_hal_pwr_ex.c **** 
 2105              		.loc 1 990 3 view .LVU492
 2106 0004 0B68     		ldr	r3, [r1]
 2107 0006 23F00703 		bic	r3, r3, #7
 2108 000a 43F00403 		orr	r3, r3, #4
 2109 000e 0B60     		str	r3, [r1]
 2110              		.loc 1 993 3 is_stmt 1 view .LVU493
 2111 0010 1369     		ldr	r3, [r2, #16]
 2112 0012 43F00403 		orr	r3, r3, #4
 2113 0016 1361     		str	r3, [r2, #16]
 994:Drivers/STM32G4xx_HAL_Driver/Src/stm32g4xx_hal_pwr_ex.c **** 
 995:Drivers/STM32G4xx_HAL_Driver/Src/stm32g4xx_hal_pwr_ex.c **** /* This option is used to ensure that store operations are completed */
 996:Drivers/STM32G4xx_HAL_Driver/Src/stm32g4xx_hal_pwr_ex.c **** #if defined ( __CC_ARM)
 997:Drivers/STM32G4xx_HAL_Driver/Src/stm32g4xx_hal_pwr_ex.c ****   __force_stores();
 998:Drivers/STM32G4xx_HAL_Driver/Src/stm32g4xx_hal_pwr_ex.c **** #endif
 999:Drivers/STM32G4xx_HAL_Driver/Src/stm32g4xx_hal_pwr_ex.c ****   /* Request Wait For Interrupt */
1000:Drivers/STM32G4xx_HAL_Driver/Src/stm32g4xx_hal_pwr_ex.c ****   __WFI();
 2114              		.loc 1 1000 3 view .LVU494
 2115              		.syntax unified
 2116              	@ 1000 "Drivers/STM32G4xx_HAL_Driver/Src/stm32g4xx_hal_pwr_ex.c" 1
 2117 0018 30BF     		wfi
 2118              	@ 0 "" 2
1001:Drivers/STM32G4xx_HAL_Driver/Src/stm32g4xx_hal_pwr_ex.c **** }
 2119              		.loc 1 1001 1 is_stmt 0 view .LVU495
 2120              		.thumb
 2121              		.syntax unified
 2122 001a 7047     		bx	lr
 2123              	.L256:
 2124              		.align	2
 2125              	.L255:
 2126 001c 00700040 		.word	1073770496
 2127 0020 00ED00E0 		.word	-536810240
 2128              		.cfi_endproc
 2129              	.LFE159:
 2131              		.section	.text.HAL_PWREx_PVM1Callback,"ax",%progbits
 2132              		.align	1
 2133              		.p2align 2,,3
 2134              		.weak	HAL_PWREx_PVM1Callback
 2135              		.syntax unified
 2136              		.thumb
 2137              		.thumb_func
 2138              		.fpu fpv4-sp-d16
 2140              	HAL_PWREx_PVM1Callback:
 2141              	.LFB161:
1002:Drivers/STM32G4xx_HAL_Driver/Src/stm32g4xx_hal_pwr_ex.c **** 
1003:Drivers/STM32G4xx_HAL_Driver/Src/stm32g4xx_hal_pwr_ex.c **** 
1004:Drivers/STM32G4xx_HAL_Driver/Src/stm32g4xx_hal_pwr_ex.c **** 
ARM GAS  /tmp/ccK442Dq.s 			page 60


1005:Drivers/STM32G4xx_HAL_Driver/Src/stm32g4xx_hal_pwr_ex.c **** 
1006:Drivers/STM32G4xx_HAL_Driver/Src/stm32g4xx_hal_pwr_ex.c **** /**
1007:Drivers/STM32G4xx_HAL_Driver/Src/stm32g4xx_hal_pwr_ex.c ****   * @brief This function handles the PWR PVD/PVMx interrupt request.
1008:Drivers/STM32G4xx_HAL_Driver/Src/stm32g4xx_hal_pwr_ex.c ****   * @note This API should be called under the PVD_PVM_IRQHandler().
1009:Drivers/STM32G4xx_HAL_Driver/Src/stm32g4xx_hal_pwr_ex.c ****   * @retval None
1010:Drivers/STM32G4xx_HAL_Driver/Src/stm32g4xx_hal_pwr_ex.c ****   */
1011:Drivers/STM32G4xx_HAL_Driver/Src/stm32g4xx_hal_pwr_ex.c **** void HAL_PWREx_PVD_PVM_IRQHandler(void)
1012:Drivers/STM32G4xx_HAL_Driver/Src/stm32g4xx_hal_pwr_ex.c **** {
1013:Drivers/STM32G4xx_HAL_Driver/Src/stm32g4xx_hal_pwr_ex.c ****   /* Check PWR exti flag */
1014:Drivers/STM32G4xx_HAL_Driver/Src/stm32g4xx_hal_pwr_ex.c ****   if(__HAL_PWR_PVD_EXTI_GET_FLAG() != 0U)
1015:Drivers/STM32G4xx_HAL_Driver/Src/stm32g4xx_hal_pwr_ex.c ****   {
1016:Drivers/STM32G4xx_HAL_Driver/Src/stm32g4xx_hal_pwr_ex.c ****     /* PWR PVD interrupt user callback */
1017:Drivers/STM32G4xx_HAL_Driver/Src/stm32g4xx_hal_pwr_ex.c ****     HAL_PWR_PVDCallback();
1018:Drivers/STM32G4xx_HAL_Driver/Src/stm32g4xx_hal_pwr_ex.c **** 
1019:Drivers/STM32G4xx_HAL_Driver/Src/stm32g4xx_hal_pwr_ex.c ****     /* Clear PVD exti pending bit */
1020:Drivers/STM32G4xx_HAL_Driver/Src/stm32g4xx_hal_pwr_ex.c ****     __HAL_PWR_PVD_EXTI_CLEAR_FLAG();
1021:Drivers/STM32G4xx_HAL_Driver/Src/stm32g4xx_hal_pwr_ex.c ****   }
1022:Drivers/STM32G4xx_HAL_Driver/Src/stm32g4xx_hal_pwr_ex.c ****   /* Next, successively check PVMx exti flags */
1023:Drivers/STM32G4xx_HAL_Driver/Src/stm32g4xx_hal_pwr_ex.c **** #if defined(PWR_CR2_PVME1)
1024:Drivers/STM32G4xx_HAL_Driver/Src/stm32g4xx_hal_pwr_ex.c ****   if(__HAL_PWR_PVM1_EXTI_GET_FLAG() != 0U)
1025:Drivers/STM32G4xx_HAL_Driver/Src/stm32g4xx_hal_pwr_ex.c ****   {
1026:Drivers/STM32G4xx_HAL_Driver/Src/stm32g4xx_hal_pwr_ex.c ****     /* PWR PVM1 interrupt user callback */
1027:Drivers/STM32G4xx_HAL_Driver/Src/stm32g4xx_hal_pwr_ex.c ****     HAL_PWREx_PVM1Callback();
1028:Drivers/STM32G4xx_HAL_Driver/Src/stm32g4xx_hal_pwr_ex.c **** 
1029:Drivers/STM32G4xx_HAL_Driver/Src/stm32g4xx_hal_pwr_ex.c ****     /* Clear PVM1 exti pending bit */
1030:Drivers/STM32G4xx_HAL_Driver/Src/stm32g4xx_hal_pwr_ex.c ****     __HAL_PWR_PVM1_EXTI_CLEAR_FLAG();
1031:Drivers/STM32G4xx_HAL_Driver/Src/stm32g4xx_hal_pwr_ex.c ****   }
1032:Drivers/STM32G4xx_HAL_Driver/Src/stm32g4xx_hal_pwr_ex.c **** #endif /* PWR_CR2_PVME1 */
1033:Drivers/STM32G4xx_HAL_Driver/Src/stm32g4xx_hal_pwr_ex.c **** #if defined(PWR_CR2_PVME2)
1034:Drivers/STM32G4xx_HAL_Driver/Src/stm32g4xx_hal_pwr_ex.c ****   if(__HAL_PWR_PVM2_EXTI_GET_FLAG() != 0U)
1035:Drivers/STM32G4xx_HAL_Driver/Src/stm32g4xx_hal_pwr_ex.c ****   {
1036:Drivers/STM32G4xx_HAL_Driver/Src/stm32g4xx_hal_pwr_ex.c ****     /* PWR PVM2 interrupt user callback */
1037:Drivers/STM32G4xx_HAL_Driver/Src/stm32g4xx_hal_pwr_ex.c ****     HAL_PWREx_PVM2Callback();
1038:Drivers/STM32G4xx_HAL_Driver/Src/stm32g4xx_hal_pwr_ex.c **** 
1039:Drivers/STM32G4xx_HAL_Driver/Src/stm32g4xx_hal_pwr_ex.c ****     /* Clear PVM2 exti pending bit */
1040:Drivers/STM32G4xx_HAL_Driver/Src/stm32g4xx_hal_pwr_ex.c ****     __HAL_PWR_PVM2_EXTI_CLEAR_FLAG();
1041:Drivers/STM32G4xx_HAL_Driver/Src/stm32g4xx_hal_pwr_ex.c ****   }
1042:Drivers/STM32G4xx_HAL_Driver/Src/stm32g4xx_hal_pwr_ex.c **** #endif /* PWR_CR2_PVME2 */
1043:Drivers/STM32G4xx_HAL_Driver/Src/stm32g4xx_hal_pwr_ex.c ****   if(__HAL_PWR_PVM3_EXTI_GET_FLAG() != 0U)
1044:Drivers/STM32G4xx_HAL_Driver/Src/stm32g4xx_hal_pwr_ex.c ****   {
1045:Drivers/STM32G4xx_HAL_Driver/Src/stm32g4xx_hal_pwr_ex.c ****     /* PWR PVM3 interrupt user callback */
1046:Drivers/STM32G4xx_HAL_Driver/Src/stm32g4xx_hal_pwr_ex.c ****     HAL_PWREx_PVM3Callback();
1047:Drivers/STM32G4xx_HAL_Driver/Src/stm32g4xx_hal_pwr_ex.c **** 
1048:Drivers/STM32G4xx_HAL_Driver/Src/stm32g4xx_hal_pwr_ex.c ****     /* Clear PVM3 exti pending bit */
1049:Drivers/STM32G4xx_HAL_Driver/Src/stm32g4xx_hal_pwr_ex.c ****     __HAL_PWR_PVM3_EXTI_CLEAR_FLAG();
1050:Drivers/STM32G4xx_HAL_Driver/Src/stm32g4xx_hal_pwr_ex.c ****   }
1051:Drivers/STM32G4xx_HAL_Driver/Src/stm32g4xx_hal_pwr_ex.c ****   if(__HAL_PWR_PVM4_EXTI_GET_FLAG() != 0U)
1052:Drivers/STM32G4xx_HAL_Driver/Src/stm32g4xx_hal_pwr_ex.c ****   {
1053:Drivers/STM32G4xx_HAL_Driver/Src/stm32g4xx_hal_pwr_ex.c ****     /* PWR PVM4 interrupt user callback */
1054:Drivers/STM32G4xx_HAL_Driver/Src/stm32g4xx_hal_pwr_ex.c ****     HAL_PWREx_PVM4Callback();
1055:Drivers/STM32G4xx_HAL_Driver/Src/stm32g4xx_hal_pwr_ex.c **** 
1056:Drivers/STM32G4xx_HAL_Driver/Src/stm32g4xx_hal_pwr_ex.c ****     /* Clear PVM4 exti pending bit */
1057:Drivers/STM32G4xx_HAL_Driver/Src/stm32g4xx_hal_pwr_ex.c ****     __HAL_PWR_PVM4_EXTI_CLEAR_FLAG();
1058:Drivers/STM32G4xx_HAL_Driver/Src/stm32g4xx_hal_pwr_ex.c ****   }
1059:Drivers/STM32G4xx_HAL_Driver/Src/stm32g4xx_hal_pwr_ex.c **** }
1060:Drivers/STM32G4xx_HAL_Driver/Src/stm32g4xx_hal_pwr_ex.c **** 
1061:Drivers/STM32G4xx_HAL_Driver/Src/stm32g4xx_hal_pwr_ex.c **** 
ARM GAS  /tmp/ccK442Dq.s 			page 61


1062:Drivers/STM32G4xx_HAL_Driver/Src/stm32g4xx_hal_pwr_ex.c **** #if defined(PWR_CR2_PVME1)
1063:Drivers/STM32G4xx_HAL_Driver/Src/stm32g4xx_hal_pwr_ex.c **** /**
1064:Drivers/STM32G4xx_HAL_Driver/Src/stm32g4xx_hal_pwr_ex.c ****   * @brief PWR PVM1 interrupt callback
1065:Drivers/STM32G4xx_HAL_Driver/Src/stm32g4xx_hal_pwr_ex.c ****   * @retval None
1066:Drivers/STM32G4xx_HAL_Driver/Src/stm32g4xx_hal_pwr_ex.c ****   */
1067:Drivers/STM32G4xx_HAL_Driver/Src/stm32g4xx_hal_pwr_ex.c **** __weak void HAL_PWREx_PVM1Callback(void)
1068:Drivers/STM32G4xx_HAL_Driver/Src/stm32g4xx_hal_pwr_ex.c **** {
 2142              		.loc 1 1068 1 is_stmt 1 view -0
 2143              		.cfi_startproc
 2144              		@ args = 0, pretend = 0, frame = 0
 2145              		@ frame_needed = 0, uses_anonymous_args = 0
 2146              		@ link register save eliminated.
1069:Drivers/STM32G4xx_HAL_Driver/Src/stm32g4xx_hal_pwr_ex.c ****   /* NOTE : This function should not be modified; when the callback is needed,
1070:Drivers/STM32G4xx_HAL_Driver/Src/stm32g4xx_hal_pwr_ex.c ****             HAL_PWREx_PVM1Callback() API can be implemented in the user file
1071:Drivers/STM32G4xx_HAL_Driver/Src/stm32g4xx_hal_pwr_ex.c ****    */
1072:Drivers/STM32G4xx_HAL_Driver/Src/stm32g4xx_hal_pwr_ex.c **** }
 2147              		.loc 1 1072 1 view .LVU497
 2148 0000 7047     		bx	lr
 2149              		.cfi_endproc
 2150              	.LFE161:
 2152 0002 00BF     		.section	.text.HAL_PWREx_PVM2Callback,"ax",%progbits
 2153              		.align	1
 2154              		.p2align 2,,3
 2155              		.weak	HAL_PWREx_PVM2Callback
 2156              		.syntax unified
 2157              		.thumb
 2158              		.thumb_func
 2159              		.fpu fpv4-sp-d16
 2161              	HAL_PWREx_PVM2Callback:
 2162              	.LFB170:
 2163              		.cfi_startproc
 2164              		@ args = 0, pretend = 0, frame = 0
 2165              		@ frame_needed = 0, uses_anonymous_args = 0
 2166              		@ link register save eliminated.
 2167 0000 7047     		bx	lr
 2168              		.cfi_endproc
 2169              	.LFE170:
 2171 0002 00BF     		.section	.text.HAL_PWREx_PVM3Callback,"ax",%progbits
 2172              		.align	1
 2173              		.p2align 2,,3
 2174              		.weak	HAL_PWREx_PVM3Callback
 2175              		.syntax unified
 2176              		.thumb
 2177              		.thumb_func
 2178              		.fpu fpv4-sp-d16
 2180              	HAL_PWREx_PVM3Callback:
 2181              	.LFB172:
 2182              		.cfi_startproc
 2183              		@ args = 0, pretend = 0, frame = 0
 2184              		@ frame_needed = 0, uses_anonymous_args = 0
 2185              		@ link register save eliminated.
 2186 0000 7047     		bx	lr
 2187              		.cfi_endproc
 2188              	.LFE172:
 2190 0002 00BF     		.section	.text.HAL_PWREx_PVM4Callback,"ax",%progbits
 2191              		.align	1
 2192              		.p2align 2,,3
ARM GAS  /tmp/ccK442Dq.s 			page 62


 2193              		.weak	HAL_PWREx_PVM4Callback
 2194              		.syntax unified
 2195              		.thumb
 2196              		.thumb_func
 2197              		.fpu fpv4-sp-d16
 2199              	HAL_PWREx_PVM4Callback:
 2200              	.LFB174:
 2201              		.cfi_startproc
 2202              		@ args = 0, pretend = 0, frame = 0
 2203              		@ frame_needed = 0, uses_anonymous_args = 0
 2204              		@ link register save eliminated.
 2205 0000 7047     		bx	lr
 2206              		.cfi_endproc
 2207              	.LFE174:
 2209 0002 00BF     		.section	.text.HAL_PWREx_PVD_PVM_IRQHandler,"ax",%progbits
 2210              		.align	1
 2211              		.p2align 2,,3
 2212              		.global	HAL_PWREx_PVD_PVM_IRQHandler
 2213              		.syntax unified
 2214              		.thumb
 2215              		.thumb_func
 2216              		.fpu fpv4-sp-d16
 2218              	HAL_PWREx_PVD_PVM_IRQHandler:
 2219              	.LFB160:
1012:Drivers/STM32G4xx_HAL_Driver/Src/stm32g4xx_hal_pwr_ex.c ****   /* Check PWR exti flag */
 2220              		.loc 1 1012 1 view -0
 2221              		.cfi_startproc
 2222              		@ args = 0, pretend = 0, frame = 0
 2223              		@ frame_needed = 0, uses_anonymous_args = 0
1014:Drivers/STM32G4xx_HAL_Driver/Src/stm32g4xx_hal_pwr_ex.c ****   {
 2224              		.loc 1 1014 3 view .LVU499
1012:Drivers/STM32G4xx_HAL_Driver/Src/stm32g4xx_hal_pwr_ex.c ****   /* Check PWR exti flag */
 2225              		.loc 1 1012 1 is_stmt 0 view .LVU500
 2226 0000 10B5     		push	{r4, lr}
 2227              	.LCFI13:
 2228              		.cfi_def_cfa_offset 8
 2229              		.cfi_offset 4, -8
 2230              		.cfi_offset 14, -4
1014:Drivers/STM32G4xx_HAL_Driver/Src/stm32g4xx_hal_pwr_ex.c ****   {
 2231              		.loc 1 1014 6 view .LVU501
 2232 0002 174C     		ldr	r4, .L288
 2233 0004 6369     		ldr	r3, [r4, #20]
1014:Drivers/STM32G4xx_HAL_Driver/Src/stm32g4xx_hal_pwr_ex.c ****   {
 2234              		.loc 1 1014 5 view .LVU502
 2235 0006 DB03     		lsls	r3, r3, #15
 2236 0008 24D4     		bmi	.L283
 2237              	.L262:
1024:Drivers/STM32G4xx_HAL_Driver/Src/stm32g4xx_hal_pwr_ex.c ****   {
 2238              		.loc 1 1024 3 is_stmt 1 view .LVU503
1024:Drivers/STM32G4xx_HAL_Driver/Src/stm32g4xx_hal_pwr_ex.c ****   {
 2239              		.loc 1 1024 6 is_stmt 0 view .LVU504
 2240 000a 154C     		ldr	r4, .L288
 2241 000c 636B     		ldr	r3, [r4, #52]
1024:Drivers/STM32G4xx_HAL_Driver/Src/stm32g4xx_hal_pwr_ex.c ****   {
 2242              		.loc 1 1024 5 view .LVU505
 2243 000e 1807     		lsls	r0, r3, #28
 2244 0010 1BD4     		bmi	.L284
ARM GAS  /tmp/ccK442Dq.s 			page 63


 2245              	.L263:
1034:Drivers/STM32G4xx_HAL_Driver/Src/stm32g4xx_hal_pwr_ex.c ****   {
 2246              		.loc 1 1034 3 is_stmt 1 view .LVU506
1034:Drivers/STM32G4xx_HAL_Driver/Src/stm32g4xx_hal_pwr_ex.c ****   {
 2247              		.loc 1 1034 6 is_stmt 0 view .LVU507
 2248 0012 134C     		ldr	r4, .L288
 2249 0014 636B     		ldr	r3, [r4, #52]
1034:Drivers/STM32G4xx_HAL_Driver/Src/stm32g4xx_hal_pwr_ex.c ****   {
 2250              		.loc 1 1034 5 view .LVU508
 2251 0016 D906     		lsls	r1, r3, #27
 2252 0018 12D4     		bmi	.L285
 2253              	.L264:
1043:Drivers/STM32G4xx_HAL_Driver/Src/stm32g4xx_hal_pwr_ex.c ****   {
 2254              		.loc 1 1043 3 is_stmt 1 view .LVU509
1043:Drivers/STM32G4xx_HAL_Driver/Src/stm32g4xx_hal_pwr_ex.c ****   {
 2255              		.loc 1 1043 6 is_stmt 0 view .LVU510
 2256 001a 114C     		ldr	r4, .L288
 2257 001c 636B     		ldr	r3, [r4, #52]
1043:Drivers/STM32G4xx_HAL_Driver/Src/stm32g4xx_hal_pwr_ex.c ****   {
 2258              		.loc 1 1043 5 view .LVU511
 2259 001e 9A06     		lsls	r2, r3, #26
 2260 0020 09D4     		bmi	.L286
 2261              	.L265:
1051:Drivers/STM32G4xx_HAL_Driver/Src/stm32g4xx_hal_pwr_ex.c ****   {
 2262              		.loc 1 1051 3 is_stmt 1 view .LVU512
1051:Drivers/STM32G4xx_HAL_Driver/Src/stm32g4xx_hal_pwr_ex.c ****   {
 2263              		.loc 1 1051 6 is_stmt 0 view .LVU513
 2264 0022 0F4C     		ldr	r4, .L288
 2265 0024 636B     		ldr	r3, [r4, #52]
1051:Drivers/STM32G4xx_HAL_Driver/Src/stm32g4xx_hal_pwr_ex.c ****   {
 2266              		.loc 1 1051 5 view .LVU514
 2267 0026 5B06     		lsls	r3, r3, #25
 2268 0028 00D4     		bmi	.L287
1059:Drivers/STM32G4xx_HAL_Driver/Src/stm32g4xx_hal_pwr_ex.c **** 
 2269              		.loc 1 1059 1 view .LVU515
 2270 002a 10BD     		pop	{r4, pc}
 2271              	.L287:
1054:Drivers/STM32G4xx_HAL_Driver/Src/stm32g4xx_hal_pwr_ex.c **** 
 2272              		.loc 1 1054 5 is_stmt 1 view .LVU516
 2273 002c FFF7FEFF 		bl	HAL_PWREx_PVM4Callback
 2274              	.LVL123:
1057:Drivers/STM32G4xx_HAL_Driver/Src/stm32g4xx_hal_pwr_ex.c ****   }
 2275              		.loc 1 1057 5 view .LVU517
 2276 0030 4023     		movs	r3, #64
 2277 0032 6363     		str	r3, [r4, #52]
1059:Drivers/STM32G4xx_HAL_Driver/Src/stm32g4xx_hal_pwr_ex.c **** 
 2278              		.loc 1 1059 1 is_stmt 0 view .LVU518
 2279 0034 10BD     		pop	{r4, pc}
 2280              	.L286:
1046:Drivers/STM32G4xx_HAL_Driver/Src/stm32g4xx_hal_pwr_ex.c **** 
 2281              		.loc 1 1046 5 is_stmt 1 view .LVU519
 2282 0036 FFF7FEFF 		bl	HAL_PWREx_PVM3Callback
 2283              	.LVL124:
1049:Drivers/STM32G4xx_HAL_Driver/Src/stm32g4xx_hal_pwr_ex.c ****   }
 2284              		.loc 1 1049 5 view .LVU520
 2285 003a 2023     		movs	r3, #32
 2286 003c 6363     		str	r3, [r4, #52]
ARM GAS  /tmp/ccK442Dq.s 			page 64


 2287 003e F0E7     		b	.L265
 2288              	.L285:
1037:Drivers/STM32G4xx_HAL_Driver/Src/stm32g4xx_hal_pwr_ex.c **** 
 2289              		.loc 1 1037 5 view .LVU521
 2290 0040 FFF7FEFF 		bl	HAL_PWREx_PVM2Callback
 2291              	.LVL125:
1040:Drivers/STM32G4xx_HAL_Driver/Src/stm32g4xx_hal_pwr_ex.c ****   }
 2292              		.loc 1 1040 5 view .LVU522
 2293 0044 1023     		movs	r3, #16
 2294 0046 6363     		str	r3, [r4, #52]
 2295 0048 E7E7     		b	.L264
 2296              	.L284:
1027:Drivers/STM32G4xx_HAL_Driver/Src/stm32g4xx_hal_pwr_ex.c **** 
 2297              		.loc 1 1027 5 view .LVU523
 2298 004a FFF7FEFF 		bl	HAL_PWREx_PVM1Callback
 2299              	.LVL126:
1030:Drivers/STM32G4xx_HAL_Driver/Src/stm32g4xx_hal_pwr_ex.c ****   }
 2300              		.loc 1 1030 5 view .LVU524
 2301 004e 0823     		movs	r3, #8
 2302 0050 6363     		str	r3, [r4, #52]
 2303 0052 DEE7     		b	.L263
 2304              	.L283:
1017:Drivers/STM32G4xx_HAL_Driver/Src/stm32g4xx_hal_pwr_ex.c **** 
 2305              		.loc 1 1017 5 view .LVU525
 2306 0054 FFF7FEFF 		bl	HAL_PWR_PVDCallback
 2307              	.LVL127:
1020:Drivers/STM32G4xx_HAL_Driver/Src/stm32g4xx_hal_pwr_ex.c ****   }
 2308              		.loc 1 1020 5 view .LVU526
 2309 0058 4FF48033 		mov	r3, #65536
 2310 005c 6361     		str	r3, [r4, #20]
 2311 005e D4E7     		b	.L262
 2312              	.L289:
 2313              		.align	2
 2314              	.L288:
 2315 0060 00040140 		.word	1073808384
 2316              		.cfi_endproc
 2317              	.LFE160:
 2319              		.section	.text.HAL_PWREx_EnableUCPDStandbyMode,"ax",%progbits
 2320              		.align	1
 2321              		.p2align 2,,3
 2322              		.global	HAL_PWREx_EnableUCPDStandbyMode
 2323              		.syntax unified
 2324              		.thumb
 2325              		.thumb_func
 2326              		.fpu fpv4-sp-d16
 2328              	HAL_PWREx_EnableUCPDStandbyMode:
 2329              	.LFB165:
1073:Drivers/STM32G4xx_HAL_Driver/Src/stm32g4xx_hal_pwr_ex.c **** #endif /* PWR_CR2_PVME1 */
1074:Drivers/STM32G4xx_HAL_Driver/Src/stm32g4xx_hal_pwr_ex.c **** 
1075:Drivers/STM32G4xx_HAL_Driver/Src/stm32g4xx_hal_pwr_ex.c **** #if defined(PWR_CR2_PVME2)
1076:Drivers/STM32G4xx_HAL_Driver/Src/stm32g4xx_hal_pwr_ex.c **** /**
1077:Drivers/STM32G4xx_HAL_Driver/Src/stm32g4xx_hal_pwr_ex.c ****   * @brief PWR PVM2 interrupt callback
1078:Drivers/STM32G4xx_HAL_Driver/Src/stm32g4xx_hal_pwr_ex.c ****   * @retval None
1079:Drivers/STM32G4xx_HAL_Driver/Src/stm32g4xx_hal_pwr_ex.c ****   */
1080:Drivers/STM32G4xx_HAL_Driver/Src/stm32g4xx_hal_pwr_ex.c **** __weak void HAL_PWREx_PVM2Callback(void)
1081:Drivers/STM32G4xx_HAL_Driver/Src/stm32g4xx_hal_pwr_ex.c **** {
1082:Drivers/STM32G4xx_HAL_Driver/Src/stm32g4xx_hal_pwr_ex.c ****   /* NOTE : This function should not be modified; when the callback is needed,
ARM GAS  /tmp/ccK442Dq.s 			page 65


1083:Drivers/STM32G4xx_HAL_Driver/Src/stm32g4xx_hal_pwr_ex.c ****             HAL_PWREx_PVM2Callback() API can be implemented in the user file
1084:Drivers/STM32G4xx_HAL_Driver/Src/stm32g4xx_hal_pwr_ex.c ****    */
1085:Drivers/STM32G4xx_HAL_Driver/Src/stm32g4xx_hal_pwr_ex.c **** }
1086:Drivers/STM32G4xx_HAL_Driver/Src/stm32g4xx_hal_pwr_ex.c **** #endif /* PWR_CR2_PVME2 */
1087:Drivers/STM32G4xx_HAL_Driver/Src/stm32g4xx_hal_pwr_ex.c **** 
1088:Drivers/STM32G4xx_HAL_Driver/Src/stm32g4xx_hal_pwr_ex.c **** /**
1089:Drivers/STM32G4xx_HAL_Driver/Src/stm32g4xx_hal_pwr_ex.c ****   * @brief PWR PVM3 interrupt callback
1090:Drivers/STM32G4xx_HAL_Driver/Src/stm32g4xx_hal_pwr_ex.c ****   * @retval None
1091:Drivers/STM32G4xx_HAL_Driver/Src/stm32g4xx_hal_pwr_ex.c ****   */
1092:Drivers/STM32G4xx_HAL_Driver/Src/stm32g4xx_hal_pwr_ex.c **** __weak void HAL_PWREx_PVM3Callback(void)
1093:Drivers/STM32G4xx_HAL_Driver/Src/stm32g4xx_hal_pwr_ex.c **** {
1094:Drivers/STM32G4xx_HAL_Driver/Src/stm32g4xx_hal_pwr_ex.c ****   /* NOTE : This function should not be modified; when the callback is needed,
1095:Drivers/STM32G4xx_HAL_Driver/Src/stm32g4xx_hal_pwr_ex.c ****             HAL_PWREx_PVM3Callback() API can be implemented in the user file
1096:Drivers/STM32G4xx_HAL_Driver/Src/stm32g4xx_hal_pwr_ex.c ****    */
1097:Drivers/STM32G4xx_HAL_Driver/Src/stm32g4xx_hal_pwr_ex.c **** }
1098:Drivers/STM32G4xx_HAL_Driver/Src/stm32g4xx_hal_pwr_ex.c **** 
1099:Drivers/STM32G4xx_HAL_Driver/Src/stm32g4xx_hal_pwr_ex.c **** /**
1100:Drivers/STM32G4xx_HAL_Driver/Src/stm32g4xx_hal_pwr_ex.c ****   * @brief PWR PVM4 interrupt callback
1101:Drivers/STM32G4xx_HAL_Driver/Src/stm32g4xx_hal_pwr_ex.c ****   * @retval None
1102:Drivers/STM32G4xx_HAL_Driver/Src/stm32g4xx_hal_pwr_ex.c ****   */
1103:Drivers/STM32G4xx_HAL_Driver/Src/stm32g4xx_hal_pwr_ex.c **** __weak void HAL_PWREx_PVM4Callback(void)
1104:Drivers/STM32G4xx_HAL_Driver/Src/stm32g4xx_hal_pwr_ex.c **** {
1105:Drivers/STM32G4xx_HAL_Driver/Src/stm32g4xx_hal_pwr_ex.c ****   /* NOTE : This function should not be modified; when the callback is needed,
1106:Drivers/STM32G4xx_HAL_Driver/Src/stm32g4xx_hal_pwr_ex.c ****             HAL_PWREx_PVM4Callback() API can be implemented in the user file
1107:Drivers/STM32G4xx_HAL_Driver/Src/stm32g4xx_hal_pwr_ex.c ****    */
1108:Drivers/STM32G4xx_HAL_Driver/Src/stm32g4xx_hal_pwr_ex.c **** }
1109:Drivers/STM32G4xx_HAL_Driver/Src/stm32g4xx_hal_pwr_ex.c **** 
1110:Drivers/STM32G4xx_HAL_Driver/Src/stm32g4xx_hal_pwr_ex.c **** #if defined(PWR_CR3_UCPD_STDBY)
1111:Drivers/STM32G4xx_HAL_Driver/Src/stm32g4xx_hal_pwr_ex.c **** /**
1112:Drivers/STM32G4xx_HAL_Driver/Src/stm32g4xx_hal_pwr_ex.c ****   * @brief Enable UCPD configuration memorization in Standby.
1113:Drivers/STM32G4xx_HAL_Driver/Src/stm32g4xx_hal_pwr_ex.c ****   * @retval None
1114:Drivers/STM32G4xx_HAL_Driver/Src/stm32g4xx_hal_pwr_ex.c ****   */
1115:Drivers/STM32G4xx_HAL_Driver/Src/stm32g4xx_hal_pwr_ex.c **** void HAL_PWREx_EnableUCPDStandbyMode(void)
1116:Drivers/STM32G4xx_HAL_Driver/Src/stm32g4xx_hal_pwr_ex.c **** {
 2330              		.loc 1 1116 1 view -0
 2331              		.cfi_startproc
 2332              		@ args = 0, pretend = 0, frame = 0
 2333              		@ frame_needed = 0, uses_anonymous_args = 0
 2334              		@ link register save eliminated.
1117:Drivers/STM32G4xx_HAL_Driver/Src/stm32g4xx_hal_pwr_ex.c ****   /* Memorize UCPD configuration when entering standby mode */
1118:Drivers/STM32G4xx_HAL_Driver/Src/stm32g4xx_hal_pwr_ex.c ****   SET_BIT(PWR->CR3, PWR_CR3_UCPD_STDBY);
 2335              		.loc 1 1118 3 view .LVU528
 2336 0000 024A     		ldr	r2, .L291
 2337 0002 9368     		ldr	r3, [r2, #8]
 2338 0004 43F40053 		orr	r3, r3, #8192
 2339 0008 9360     		str	r3, [r2, #8]
1119:Drivers/STM32G4xx_HAL_Driver/Src/stm32g4xx_hal_pwr_ex.c **** }
 2340              		.loc 1 1119 1 is_stmt 0 view .LVU529
 2341 000a 7047     		bx	lr
 2342              	.L292:
 2343              		.align	2
 2344              	.L291:
 2345 000c 00700040 		.word	1073770496
 2346              		.cfi_endproc
 2347              	.LFE165:
 2349              		.section	.text.HAL_PWREx_DisableUCPDStandbyMode,"ax",%progbits
 2350              		.align	1
ARM GAS  /tmp/ccK442Dq.s 			page 66


 2351              		.p2align 2,,3
 2352              		.global	HAL_PWREx_DisableUCPDStandbyMode
 2353              		.syntax unified
 2354              		.thumb
 2355              		.thumb_func
 2356              		.fpu fpv4-sp-d16
 2358              	HAL_PWREx_DisableUCPDStandbyMode:
 2359              	.LFB166:
1120:Drivers/STM32G4xx_HAL_Driver/Src/stm32g4xx_hal_pwr_ex.c **** 
1121:Drivers/STM32G4xx_HAL_Driver/Src/stm32g4xx_hal_pwr_ex.c **** /**
1122:Drivers/STM32G4xx_HAL_Driver/Src/stm32g4xx_hal_pwr_ex.c ****   * @brief Disable UCPD configuration memorization in Standby.
1123:Drivers/STM32G4xx_HAL_Driver/Src/stm32g4xx_hal_pwr_ex.c ****   * @note  This function must be called on exiting the Standby mode and before any UCPD
1124:Drivers/STM32G4xx_HAL_Driver/Src/stm32g4xx_hal_pwr_ex.c ****   *        configuration update.
1125:Drivers/STM32G4xx_HAL_Driver/Src/stm32g4xx_hal_pwr_ex.c ****   * @retval None
1126:Drivers/STM32G4xx_HAL_Driver/Src/stm32g4xx_hal_pwr_ex.c ****   */
1127:Drivers/STM32G4xx_HAL_Driver/Src/stm32g4xx_hal_pwr_ex.c **** void HAL_PWREx_DisableUCPDStandbyMode(void)
1128:Drivers/STM32G4xx_HAL_Driver/Src/stm32g4xx_hal_pwr_ex.c **** {
 2360              		.loc 1 1128 1 is_stmt 1 view -0
 2361              		.cfi_startproc
 2362              		@ args = 0, pretend = 0, frame = 0
 2363              		@ frame_needed = 0, uses_anonymous_args = 0
 2364              		@ link register save eliminated.
1129:Drivers/STM32G4xx_HAL_Driver/Src/stm32g4xx_hal_pwr_ex.c ****   /* Write 0 immediately after Standby exit when using UCPD,
1130:Drivers/STM32G4xx_HAL_Driver/Src/stm32g4xx_hal_pwr_ex.c ****      and before writing any UCPD registers */
1131:Drivers/STM32G4xx_HAL_Driver/Src/stm32g4xx_hal_pwr_ex.c ****   CLEAR_BIT(PWR->CR3, PWR_CR3_UCPD_STDBY);
 2365              		.loc 1 1131 3 view .LVU531
 2366 0000 024A     		ldr	r2, .L294
 2367 0002 9368     		ldr	r3, [r2, #8]
 2368 0004 23F40053 		bic	r3, r3, #8192
 2369 0008 9360     		str	r3, [r2, #8]
1132:Drivers/STM32G4xx_HAL_Driver/Src/stm32g4xx_hal_pwr_ex.c **** }
 2370              		.loc 1 1132 1 is_stmt 0 view .LVU532
 2371 000a 7047     		bx	lr
 2372              	.L295:
 2373              		.align	2
 2374              	.L294:
 2375 000c 00700040 		.word	1073770496
 2376              		.cfi_endproc
 2377              	.LFE166:
 2379              		.section	.text.HAL_PWREx_EnableUCPDDeadBattery,"ax",%progbits
 2380              		.align	1
 2381              		.p2align 2,,3
 2382              		.global	HAL_PWREx_EnableUCPDDeadBattery
 2383              		.syntax unified
 2384              		.thumb
 2385              		.thumb_func
 2386              		.fpu fpv4-sp-d16
 2388              	HAL_PWREx_EnableUCPDDeadBattery:
 2389              	.LFB167:
1133:Drivers/STM32G4xx_HAL_Driver/Src/stm32g4xx_hal_pwr_ex.c **** #endif /* PWR_CR3_UCPD_STDBY */
1134:Drivers/STM32G4xx_HAL_Driver/Src/stm32g4xx_hal_pwr_ex.c **** 
1135:Drivers/STM32G4xx_HAL_Driver/Src/stm32g4xx_hal_pwr_ex.c **** #if defined(PWR_CR3_UCPD_DBDIS)
1136:Drivers/STM32G4xx_HAL_Driver/Src/stm32g4xx_hal_pwr_ex.c **** /**
1137:Drivers/STM32G4xx_HAL_Driver/Src/stm32g4xx_hal_pwr_ex.c ****   * @brief Enable the USB Type-C dead battery pull-down behavior
1138:Drivers/STM32G4xx_HAL_Driver/Src/stm32g4xx_hal_pwr_ex.c ****   *        on UCPDx_CC1 and UCPDx_CC2 pins
1139:Drivers/STM32G4xx_HAL_Driver/Src/stm32g4xx_hal_pwr_ex.c ****   * @retval None
1140:Drivers/STM32G4xx_HAL_Driver/Src/stm32g4xx_hal_pwr_ex.c ****   */
ARM GAS  /tmp/ccK442Dq.s 			page 67


1141:Drivers/STM32G4xx_HAL_Driver/Src/stm32g4xx_hal_pwr_ex.c **** void HAL_PWREx_EnableUCPDDeadBattery(void)
1142:Drivers/STM32G4xx_HAL_Driver/Src/stm32g4xx_hal_pwr_ex.c **** {
 2390              		.loc 1 1142 1 is_stmt 1 view -0
 2391              		.cfi_startproc
 2392              		@ args = 0, pretend = 0, frame = 0
 2393              		@ frame_needed = 0, uses_anonymous_args = 0
 2394              		@ link register save eliminated.
1143:Drivers/STM32G4xx_HAL_Driver/Src/stm32g4xx_hal_pwr_ex.c ****   /* Write 0 to enable the USB Type-C dead battery pull-down behavior */
1144:Drivers/STM32G4xx_HAL_Driver/Src/stm32g4xx_hal_pwr_ex.c ****   CLEAR_BIT(PWR->CR3, PWR_CR3_UCPD_DBDIS);
 2395              		.loc 1 1144 3 view .LVU534
 2396 0000 024A     		ldr	r2, .L297
 2397 0002 9368     		ldr	r3, [r2, #8]
 2398 0004 23F48043 		bic	r3, r3, #16384
 2399 0008 9360     		str	r3, [r2, #8]
1145:Drivers/STM32G4xx_HAL_Driver/Src/stm32g4xx_hal_pwr_ex.c **** }
 2400              		.loc 1 1145 1 is_stmt 0 view .LVU535
 2401 000a 7047     		bx	lr
 2402              	.L298:
 2403              		.align	2
 2404              	.L297:
 2405 000c 00700040 		.word	1073770496
 2406              		.cfi_endproc
 2407              	.LFE167:
 2409              		.section	.text.HAL_PWREx_DisableUCPDDeadBattery,"ax",%progbits
 2410              		.align	1
 2411              		.p2align 2,,3
 2412              		.global	HAL_PWREx_DisableUCPDDeadBattery
 2413              		.syntax unified
 2414              		.thumb
 2415              		.thumb_func
 2416              		.fpu fpv4-sp-d16
 2418              	HAL_PWREx_DisableUCPDDeadBattery:
 2419              	.LFB168:
1146:Drivers/STM32G4xx_HAL_Driver/Src/stm32g4xx_hal_pwr_ex.c **** 
1147:Drivers/STM32G4xx_HAL_Driver/Src/stm32g4xx_hal_pwr_ex.c **** /**
1148:Drivers/STM32G4xx_HAL_Driver/Src/stm32g4xx_hal_pwr_ex.c ****   * @brief Disable the USB Type-C dead battery pull-down behavior
1149:Drivers/STM32G4xx_HAL_Driver/Src/stm32g4xx_hal_pwr_ex.c ****   *        on UCPDx_CC1 and UCPDx_CC2 pins
1150:Drivers/STM32G4xx_HAL_Driver/Src/stm32g4xx_hal_pwr_ex.c ****   * @note After exiting reset, the USB Type-C dead battery behavior will be enabled,
1151:Drivers/STM32G4xx_HAL_Driver/Src/stm32g4xx_hal_pwr_ex.c ****   *       which may have a pull-down effect on CC1 and CC2 pins.
1152:Drivers/STM32G4xx_HAL_Driver/Src/stm32g4xx_hal_pwr_ex.c ****   *       It is recommended to disable it in all cases, either to stop this pull-down
1153:Drivers/STM32G4xx_HAL_Driver/Src/stm32g4xx_hal_pwr_ex.c ****   *       or to hand over control to the UCPD (which should therefore be
1154:Drivers/STM32G4xx_HAL_Driver/Src/stm32g4xx_hal_pwr_ex.c ****   *       initialized before doing the disable).
1155:Drivers/STM32G4xx_HAL_Driver/Src/stm32g4xx_hal_pwr_ex.c ****   * @retval None
1156:Drivers/STM32G4xx_HAL_Driver/Src/stm32g4xx_hal_pwr_ex.c ****   */
1157:Drivers/STM32G4xx_HAL_Driver/Src/stm32g4xx_hal_pwr_ex.c **** void HAL_PWREx_DisableUCPDDeadBattery(void)
1158:Drivers/STM32G4xx_HAL_Driver/Src/stm32g4xx_hal_pwr_ex.c **** {
 2420              		.loc 1 1158 1 is_stmt 1 view -0
 2421              		.cfi_startproc
 2422              		@ args = 0, pretend = 0, frame = 0
 2423              		@ frame_needed = 0, uses_anonymous_args = 0
 2424              		@ link register save eliminated.
1159:Drivers/STM32G4xx_HAL_Driver/Src/stm32g4xx_hal_pwr_ex.c ****   /* Write 1 to disable the USB Type-C dead battery pull-down behavior */
1160:Drivers/STM32G4xx_HAL_Driver/Src/stm32g4xx_hal_pwr_ex.c ****   SET_BIT(PWR->CR3, PWR_CR3_UCPD_DBDIS);
 2425              		.loc 1 1160 3 view .LVU537
 2426 0000 024A     		ldr	r2, .L300
 2427 0002 9368     		ldr	r3, [r2, #8]
 2428 0004 43F48043 		orr	r3, r3, #16384
ARM GAS  /tmp/ccK442Dq.s 			page 68


 2429 0008 9360     		str	r3, [r2, #8]
1161:Drivers/STM32G4xx_HAL_Driver/Src/stm32g4xx_hal_pwr_ex.c **** }
 2430              		.loc 1 1161 1 is_stmt 0 view .LVU538
 2431 000a 7047     		bx	lr
 2432              	.L301:
 2433              		.align	2
 2434              	.L300:
 2435 000c 00700040 		.word	1073770496
 2436              		.cfi_endproc
 2437              	.LFE168:
 2439              		.text
 2440              	.Letext0:
 2441              		.file 2 "/usr/share/gcc-arm-none-eabi-10-2020-q4-major/arm-none-eabi/include/machine/_default_type
 2442              		.file 3 "/usr/share/gcc-arm-none-eabi-10-2020-q4-major/arm-none-eabi/include/sys/_stdint.h"
 2443              		.file 4 "Drivers/CMSIS/Include/core_cm4.h"
 2444              		.file 5 "Drivers/CMSIS/Device/ST/STM32G4xx/Include/stm32g431xx.h"
 2445              		.file 6 "Drivers/STM32G4xx_HAL_Driver/Inc/stm32g4xx_hal_def.h"
 2446              		.file 7 "Drivers/STM32G4xx_HAL_Driver/Inc/stm32g4xx_hal_pwr_ex.h"
 2447              		.file 8 "Drivers/CMSIS/Device/ST/STM32G4xx/Include/system_stm32g4xx.h"
 2448              		.file 9 "Drivers/STM32G4xx_HAL_Driver/Inc/stm32g4xx_hal_pwr.h"
ARM GAS  /tmp/ccK442Dq.s 			page 69


DEFINED SYMBOLS
                            *ABS*:0000000000000000 stm32g4xx_hal_pwr_ex.c
     /tmp/ccK442Dq.s:18     .text.HAL_PWREx_GetVoltageRange:0000000000000000 $t
     /tmp/ccK442Dq.s:27     .text.HAL_PWREx_GetVoltageRange:0000000000000000 HAL_PWREx_GetVoltageRange
     /tmp/ccK442Dq.s:56     .text.HAL_PWREx_GetVoltageRange:0000000000000020 $d
     /tmp/ccK442Dq.s:61     .text.HAL_PWREx_ControlVoltageScaling:0000000000000000 $t
     /tmp/ccK442Dq.s:69     .text.HAL_PWREx_ControlVoltageScaling:0000000000000000 HAL_PWREx_ControlVoltageScaling
     /tmp/ccK442Dq.s:294    .text.HAL_PWREx_ControlVoltageScaling:00000000000000f0 $d
     /tmp/ccK442Dq.s:301    .text.HAL_PWREx_EnableBatteryCharging:0000000000000000 $t
     /tmp/ccK442Dq.s:309    .text.HAL_PWREx_EnableBatteryCharging:0000000000000000 HAL_PWREx_EnableBatteryCharging
     /tmp/ccK442Dq.s:335    .text.HAL_PWREx_EnableBatteryCharging:0000000000000018 $d
     /tmp/ccK442Dq.s:340    .text.HAL_PWREx_DisableBatteryCharging:0000000000000000 $t
     /tmp/ccK442Dq.s:348    .text.HAL_PWREx_DisableBatteryCharging:0000000000000000 HAL_PWREx_DisableBatteryCharging
     /tmp/ccK442Dq.s:365    .text.HAL_PWREx_DisableBatteryCharging:000000000000000c $d
     /tmp/ccK442Dq.s:370    .text.HAL_PWREx_EnableInternalWakeUpLine:0000000000000000 $t
     /tmp/ccK442Dq.s:378    .text.HAL_PWREx_EnableInternalWakeUpLine:0000000000000000 HAL_PWREx_EnableInternalWakeUpLine
     /tmp/ccK442Dq.s:395    .text.HAL_PWREx_EnableInternalWakeUpLine:000000000000000c $d
     /tmp/ccK442Dq.s:400    .text.HAL_PWREx_DisableInternalWakeUpLine:0000000000000000 $t
     /tmp/ccK442Dq.s:408    .text.HAL_PWREx_DisableInternalWakeUpLine:0000000000000000 HAL_PWREx_DisableInternalWakeUpLine
     /tmp/ccK442Dq.s:425    .text.HAL_PWREx_DisableInternalWakeUpLine:000000000000000c $d
     /tmp/ccK442Dq.s:430    .text.HAL_PWREx_EnableGPIOPullUp:0000000000000000 $t
     /tmp/ccK442Dq.s:438    .text.HAL_PWREx_EnableGPIOPullUp:0000000000000000 HAL_PWREx_EnableGPIOPullUp
     /tmp/ccK442Dq.s:454    .text.HAL_PWREx_EnableGPIOPullUp:0000000000000008 $d
     /tmp/ccK442Dq.s:611    .text.HAL_PWREx_EnableGPIOPullUp:00000000000000b4 $d
     /tmp/ccK442Dq.s:616    .text.HAL_PWREx_DisableGPIOPullUp:0000000000000000 $t
     /tmp/ccK442Dq.s:624    .text.HAL_PWREx_DisableGPIOPullUp:0000000000000000 HAL_PWREx_DisableGPIOPullUp
     /tmp/ccK442Dq.s:640    .text.HAL_PWREx_DisableGPIOPullUp:0000000000000008 $d
     /tmp/ccK442Dq.s:764    .text.HAL_PWREx_DisableGPIOPullUp:0000000000000084 $d
     /tmp/ccK442Dq.s:769    .text.HAL_PWREx_EnableGPIOPullDown:0000000000000000 $t
     /tmp/ccK442Dq.s:777    .text.HAL_PWREx_EnableGPIOPullDown:0000000000000000 HAL_PWREx_EnableGPIOPullDown
     /tmp/ccK442Dq.s:793    .text.HAL_PWREx_EnableGPIOPullDown:0000000000000008 $d
     /tmp/ccK442Dq.s:962    .text.HAL_PWREx_EnableGPIOPullDown:00000000000000bc $d
     /tmp/ccK442Dq.s:967    .text.HAL_PWREx_DisableGPIOPullDown:0000000000000000 $t
     /tmp/ccK442Dq.s:975    .text.HAL_PWREx_DisableGPIOPullDown:0000000000000000 HAL_PWREx_DisableGPIOPullDown
     /tmp/ccK442Dq.s:991    .text.HAL_PWREx_DisableGPIOPullDown:0000000000000008 $d
     /tmp/ccK442Dq.s:1113   .text.HAL_PWREx_DisableGPIOPullDown:0000000000000080 $d
     /tmp/ccK442Dq.s:1118   .text.HAL_PWREx_EnablePullUpPullDownConfig:0000000000000000 $t
     /tmp/ccK442Dq.s:1126   .text.HAL_PWREx_EnablePullUpPullDownConfig:0000000000000000 HAL_PWREx_EnablePullUpPullDownConfig
     /tmp/ccK442Dq.s:1143   .text.HAL_PWREx_EnablePullUpPullDownConfig:000000000000000c $d
     /tmp/ccK442Dq.s:1148   .text.HAL_PWREx_DisablePullUpPullDownConfig:0000000000000000 $t
     /tmp/ccK442Dq.s:1156   .text.HAL_PWREx_DisablePullUpPullDownConfig:0000000000000000 HAL_PWREx_DisablePullUpPullDownConfig
     /tmp/ccK442Dq.s:1173   .text.HAL_PWREx_DisablePullUpPullDownConfig:000000000000000c $d
     /tmp/ccK442Dq.s:1178   .text.HAL_PWREx_EnableSRAM2ContentRetention:0000000000000000 $t
     /tmp/ccK442Dq.s:1186   .text.HAL_PWREx_EnableSRAM2ContentRetention:0000000000000000 HAL_PWREx_EnableSRAM2ContentRetention
     /tmp/ccK442Dq.s:1203   .text.HAL_PWREx_EnableSRAM2ContentRetention:000000000000000c $d
     /tmp/ccK442Dq.s:1208   .text.HAL_PWREx_DisableSRAM2ContentRetention:0000000000000000 $t
     /tmp/ccK442Dq.s:1216   .text.HAL_PWREx_DisableSRAM2ContentRetention:0000000000000000 HAL_PWREx_DisableSRAM2ContentRetention
     /tmp/ccK442Dq.s:1233   .text.HAL_PWREx_DisableSRAM2ContentRetention:000000000000000c $d
     /tmp/ccK442Dq.s:1238   .text.HAL_PWREx_EnablePVM1:0000000000000000 $t
     /tmp/ccK442Dq.s:1246   .text.HAL_PWREx_EnablePVM1:0000000000000000 HAL_PWREx_EnablePVM1
     /tmp/ccK442Dq.s:1263   .text.HAL_PWREx_EnablePVM1:000000000000000c $d
     /tmp/ccK442Dq.s:1268   .text.HAL_PWREx_DisablePVM1:0000000000000000 $t
     /tmp/ccK442Dq.s:1276   .text.HAL_PWREx_DisablePVM1:0000000000000000 HAL_PWREx_DisablePVM1
     /tmp/ccK442Dq.s:1293   .text.HAL_PWREx_DisablePVM1:000000000000000c $d
     /tmp/ccK442Dq.s:1298   .text.HAL_PWREx_EnablePVM2:0000000000000000 $t
     /tmp/ccK442Dq.s:1306   .text.HAL_PWREx_EnablePVM2:0000000000000000 HAL_PWREx_EnablePVM2
     /tmp/ccK442Dq.s:1323   .text.HAL_PWREx_EnablePVM2:000000000000000c $d
ARM GAS  /tmp/ccK442Dq.s 			page 70


     /tmp/ccK442Dq.s:1328   .text.HAL_PWREx_DisablePVM2:0000000000000000 $t
     /tmp/ccK442Dq.s:1336   .text.HAL_PWREx_DisablePVM2:0000000000000000 HAL_PWREx_DisablePVM2
     /tmp/ccK442Dq.s:1353   .text.HAL_PWREx_DisablePVM2:000000000000000c $d
     /tmp/ccK442Dq.s:1358   .text.HAL_PWREx_EnablePVM3:0000000000000000 $t
     /tmp/ccK442Dq.s:1366   .text.HAL_PWREx_EnablePVM3:0000000000000000 HAL_PWREx_EnablePVM3
     /tmp/ccK442Dq.s:1383   .text.HAL_PWREx_EnablePVM3:000000000000000c $d
     /tmp/ccK442Dq.s:1388   .text.HAL_PWREx_DisablePVM3:0000000000000000 $t
     /tmp/ccK442Dq.s:1396   .text.HAL_PWREx_DisablePVM3:0000000000000000 HAL_PWREx_DisablePVM3
     /tmp/ccK442Dq.s:1413   .text.HAL_PWREx_DisablePVM3:000000000000000c $d
     /tmp/ccK442Dq.s:1418   .text.HAL_PWREx_EnablePVM4:0000000000000000 $t
     /tmp/ccK442Dq.s:1426   .text.HAL_PWREx_EnablePVM4:0000000000000000 HAL_PWREx_EnablePVM4
     /tmp/ccK442Dq.s:1443   .text.HAL_PWREx_EnablePVM4:000000000000000c $d
     /tmp/ccK442Dq.s:1448   .text.HAL_PWREx_DisablePVM4:0000000000000000 $t
     /tmp/ccK442Dq.s:1456   .text.HAL_PWREx_DisablePVM4:0000000000000000 HAL_PWREx_DisablePVM4
     /tmp/ccK442Dq.s:1473   .text.HAL_PWREx_DisablePVM4:000000000000000c $d
     /tmp/ccK442Dq.s:1478   .text.HAL_PWREx_ConfigPVM:0000000000000000 $t
     /tmp/ccK442Dq.s:1486   .text.HAL_PWREx_ConfigPVM:0000000000000000 HAL_PWREx_ConfigPVM
     /tmp/ccK442Dq.s:1806   .text.HAL_PWREx_ConfigPVM:00000000000001a8 $d
     /tmp/ccK442Dq.s:1811   .text.HAL_PWREx_EnableLowPowerRunMode:0000000000000000 $t
     /tmp/ccK442Dq.s:1819   .text.HAL_PWREx_EnableLowPowerRunMode:0000000000000000 HAL_PWREx_EnableLowPowerRunMode
     /tmp/ccK442Dq.s:1836   .text.HAL_PWREx_EnableLowPowerRunMode:000000000000000c $d
     /tmp/ccK442Dq.s:1841   .text.HAL_PWREx_DisableLowPowerRunMode:0000000000000000 $t
     /tmp/ccK442Dq.s:1849   .text.HAL_PWREx_DisableLowPowerRunMode:0000000000000000 HAL_PWREx_DisableLowPowerRunMode
     /tmp/ccK442Dq.s:1926   .text.HAL_PWREx_DisableLowPowerRunMode:0000000000000044 $d
     /tmp/ccK442Dq.s:1933   .text.HAL_PWREx_EnterSTOP0Mode:0000000000000000 $t
     /tmp/ccK442Dq.s:1941   .text.HAL_PWREx_EnterSTOP0Mode:0000000000000000 HAL_PWREx_EnterSTOP0Mode
     /tmp/ccK442Dq.s:2003   .text.HAL_PWREx_EnterSTOP0Mode:0000000000000030 $d
     /tmp/ccK442Dq.s:2009   .text.HAL_PWREx_EnterSTOP1Mode:0000000000000000 $t
     /tmp/ccK442Dq.s:2017   .text.HAL_PWREx_EnterSTOP1Mode:0000000000000000 HAL_PWREx_EnterSTOP1Mode
     /tmp/ccK442Dq.s:2080   .text.HAL_PWREx_EnterSTOP1Mode:0000000000000034 $d
     /tmp/ccK442Dq.s:2086   .text.HAL_PWREx_EnterSHUTDOWNMode:0000000000000000 $t
     /tmp/ccK442Dq.s:2094   .text.HAL_PWREx_EnterSHUTDOWNMode:0000000000000000 HAL_PWREx_EnterSHUTDOWNMode
     /tmp/ccK442Dq.s:2126   .text.HAL_PWREx_EnterSHUTDOWNMode:000000000000001c $d
     /tmp/ccK442Dq.s:2132   .text.HAL_PWREx_PVM1Callback:0000000000000000 $t
     /tmp/ccK442Dq.s:2140   .text.HAL_PWREx_PVM1Callback:0000000000000000 HAL_PWREx_PVM1Callback
     /tmp/ccK442Dq.s:2153   .text.HAL_PWREx_PVM2Callback:0000000000000000 $t
     /tmp/ccK442Dq.s:2161   .text.HAL_PWREx_PVM2Callback:0000000000000000 HAL_PWREx_PVM2Callback
     /tmp/ccK442Dq.s:2172   .text.HAL_PWREx_PVM3Callback:0000000000000000 $t
     /tmp/ccK442Dq.s:2180   .text.HAL_PWREx_PVM3Callback:0000000000000000 HAL_PWREx_PVM3Callback
     /tmp/ccK442Dq.s:2191   .text.HAL_PWREx_PVM4Callback:0000000000000000 $t
     /tmp/ccK442Dq.s:2199   .text.HAL_PWREx_PVM4Callback:0000000000000000 HAL_PWREx_PVM4Callback
     /tmp/ccK442Dq.s:2210   .text.HAL_PWREx_PVD_PVM_IRQHandler:0000000000000000 $t
     /tmp/ccK442Dq.s:2218   .text.HAL_PWREx_PVD_PVM_IRQHandler:0000000000000000 HAL_PWREx_PVD_PVM_IRQHandler
     /tmp/ccK442Dq.s:2315   .text.HAL_PWREx_PVD_PVM_IRQHandler:0000000000000060 $d
     /tmp/ccK442Dq.s:2320   .text.HAL_PWREx_EnableUCPDStandbyMode:0000000000000000 $t
     /tmp/ccK442Dq.s:2328   .text.HAL_PWREx_EnableUCPDStandbyMode:0000000000000000 HAL_PWREx_EnableUCPDStandbyMode
     /tmp/ccK442Dq.s:2345   .text.HAL_PWREx_EnableUCPDStandbyMode:000000000000000c $d
     /tmp/ccK442Dq.s:2350   .text.HAL_PWREx_DisableUCPDStandbyMode:0000000000000000 $t
     /tmp/ccK442Dq.s:2358   .text.HAL_PWREx_DisableUCPDStandbyMode:0000000000000000 HAL_PWREx_DisableUCPDStandbyMode
     /tmp/ccK442Dq.s:2375   .text.HAL_PWREx_DisableUCPDStandbyMode:000000000000000c $d
     /tmp/ccK442Dq.s:2380   .text.HAL_PWREx_EnableUCPDDeadBattery:0000000000000000 $t
     /tmp/ccK442Dq.s:2388   .text.HAL_PWREx_EnableUCPDDeadBattery:0000000000000000 HAL_PWREx_EnableUCPDDeadBattery
     /tmp/ccK442Dq.s:2405   .text.HAL_PWREx_EnableUCPDDeadBattery:000000000000000c $d
     /tmp/ccK442Dq.s:2410   .text.HAL_PWREx_DisableUCPDDeadBattery:0000000000000000 $t
     /tmp/ccK442Dq.s:2418   .text.HAL_PWREx_DisableUCPDDeadBattery:0000000000000000 HAL_PWREx_DisableUCPDDeadBattery
     /tmp/ccK442Dq.s:2435   .text.HAL_PWREx_DisableUCPDDeadBattery:000000000000000c $d
     /tmp/ccK442Dq.s:461    .text.HAL_PWREx_EnableGPIOPullUp:000000000000000f $d
ARM GAS  /tmp/ccK442Dq.s 			page 71


     /tmp/ccK442Dq.s:461    .text.HAL_PWREx_EnableGPIOPullUp:0000000000000010 $t
     /tmp/ccK442Dq.s:647    .text.HAL_PWREx_DisableGPIOPullUp:000000000000000f $d
     /tmp/ccK442Dq.s:647    .text.HAL_PWREx_DisableGPIOPullUp:0000000000000010 $t
     /tmp/ccK442Dq.s:800    .text.HAL_PWREx_EnableGPIOPullDown:000000000000000f $d
     /tmp/ccK442Dq.s:800    .text.HAL_PWREx_EnableGPIOPullDown:0000000000000010 $t
     /tmp/ccK442Dq.s:998    .text.HAL_PWREx_DisableGPIOPullDown:000000000000000f $d
     /tmp/ccK442Dq.s:998    .text.HAL_PWREx_DisableGPIOPullDown:0000000000000010 $t

UNDEFINED SYMBOLS
SystemCoreClock
HAL_PWR_PVDCallback
