ARM GAS  /tmp/cc6clKC8.s 			page 1


   1              		.cpu cortex-m4
   2              		.eabi_attribute 27, 1
   3              		.eabi_attribute 28, 1
   4              		.eabi_attribute 20, 1
   5              		.eabi_attribute 21, 1
   6              		.eabi_attribute 23, 3
   7              		.eabi_attribute 24, 1
   8              		.eabi_attribute 25, 1
   9              		.eabi_attribute 26, 1
  10              		.eabi_attribute 30, 2
  11              		.eabi_attribute 34, 1
  12              		.eabi_attribute 18, 4
  13              		.file	"stm32g4xx_hal_gpio.c"
  14              		.text
  15              	.Ltext0:
  16              		.cfi_sections	.debug_frame
  17              		.section	.text.HAL_GPIO_Init,"ax",%progbits
  18              		.align	1
  19              		.p2align 2,,3
  20              		.global	HAL_GPIO_Init
  21              		.arch armv7e-m
  22              		.syntax unified
  23              		.thumb
  24              		.thumb_func
  25              		.fpu fpv4-sp-d16
  27              	HAL_GPIO_Init:
  28              	.LVL0:
  29              	.LFB132:
  30              		.file 1 "Drivers/STM32G4xx_HAL_Driver/Src/stm32g4xx_hal_gpio.c"
   1:Drivers/STM32G4xx_HAL_Driver/Src/stm32g4xx_hal_gpio.c **** /**
   2:Drivers/STM32G4xx_HAL_Driver/Src/stm32g4xx_hal_gpio.c ****   ******************************************************************************
   3:Drivers/STM32G4xx_HAL_Driver/Src/stm32g4xx_hal_gpio.c ****   * @file    stm32g4xx_hal_gpio.c
   4:Drivers/STM32G4xx_HAL_Driver/Src/stm32g4xx_hal_gpio.c ****   * @author  MCD Application Team
   5:Drivers/STM32G4xx_HAL_Driver/Src/stm32g4xx_hal_gpio.c ****   * @brief   GPIO HAL module driver.
   6:Drivers/STM32G4xx_HAL_Driver/Src/stm32g4xx_hal_gpio.c ****   *          This file provides firmware functions to manage the following
   7:Drivers/STM32G4xx_HAL_Driver/Src/stm32g4xx_hal_gpio.c ****   *          functionalities of the General Purpose Input/Output (GPIO) peripheral:
   8:Drivers/STM32G4xx_HAL_Driver/Src/stm32g4xx_hal_gpio.c ****   *           + Initialization and de-initialization functions
   9:Drivers/STM32G4xx_HAL_Driver/Src/stm32g4xx_hal_gpio.c ****   *           + IO operation functions
  10:Drivers/STM32G4xx_HAL_Driver/Src/stm32g4xx_hal_gpio.c ****   *
  11:Drivers/STM32G4xx_HAL_Driver/Src/stm32g4xx_hal_gpio.c ****   ******************************************************************************
  12:Drivers/STM32G4xx_HAL_Driver/Src/stm32g4xx_hal_gpio.c ****   * @attention
  13:Drivers/STM32G4xx_HAL_Driver/Src/stm32g4xx_hal_gpio.c ****   *
  14:Drivers/STM32G4xx_HAL_Driver/Src/stm32g4xx_hal_gpio.c ****   * Copyright (c) 2019 STMicroelectronics.
  15:Drivers/STM32G4xx_HAL_Driver/Src/stm32g4xx_hal_gpio.c ****   * All rights reserved.
  16:Drivers/STM32G4xx_HAL_Driver/Src/stm32g4xx_hal_gpio.c ****   *
  17:Drivers/STM32G4xx_HAL_Driver/Src/stm32g4xx_hal_gpio.c ****   * This software is licensed under terms that can be found in the LICENSE file
  18:Drivers/STM32G4xx_HAL_Driver/Src/stm32g4xx_hal_gpio.c ****   * in the root directory of this software component.
  19:Drivers/STM32G4xx_HAL_Driver/Src/stm32g4xx_hal_gpio.c ****   * If no LICENSE file comes with this software, it is provided AS-IS.
  20:Drivers/STM32G4xx_HAL_Driver/Src/stm32g4xx_hal_gpio.c ****   *
  21:Drivers/STM32G4xx_HAL_Driver/Src/stm32g4xx_hal_gpio.c ****   ******************************************************************************
  22:Drivers/STM32G4xx_HAL_Driver/Src/stm32g4xx_hal_gpio.c ****   @verbatim
  23:Drivers/STM32G4xx_HAL_Driver/Src/stm32g4xx_hal_gpio.c ****   ==============================================================================
  24:Drivers/STM32G4xx_HAL_Driver/Src/stm32g4xx_hal_gpio.c ****                     ##### GPIO Peripheral features #####
  25:Drivers/STM32G4xx_HAL_Driver/Src/stm32g4xx_hal_gpio.c ****   ==============================================================================
  26:Drivers/STM32G4xx_HAL_Driver/Src/stm32g4xx_hal_gpio.c ****   [..]
  27:Drivers/STM32G4xx_HAL_Driver/Src/stm32g4xx_hal_gpio.c ****     (+) Each port bit of the general-purpose I/O (GPIO) ports can be individually
  28:Drivers/STM32G4xx_HAL_Driver/Src/stm32g4xx_hal_gpio.c ****         configured by software in several modes:
ARM GAS  /tmp/cc6clKC8.s 			page 2


  29:Drivers/STM32G4xx_HAL_Driver/Src/stm32g4xx_hal_gpio.c ****         (++) Input mode
  30:Drivers/STM32G4xx_HAL_Driver/Src/stm32g4xx_hal_gpio.c ****         (++) Analog mode
  31:Drivers/STM32G4xx_HAL_Driver/Src/stm32g4xx_hal_gpio.c ****         (++) Output mode
  32:Drivers/STM32G4xx_HAL_Driver/Src/stm32g4xx_hal_gpio.c ****         (++) Alternate function mode
  33:Drivers/STM32G4xx_HAL_Driver/Src/stm32g4xx_hal_gpio.c ****         (++) External interrupt/event lines
  34:Drivers/STM32G4xx_HAL_Driver/Src/stm32g4xx_hal_gpio.c **** 
  35:Drivers/STM32G4xx_HAL_Driver/Src/stm32g4xx_hal_gpio.c ****     (+) During and just after reset, the alternate functions and external interrupt
  36:Drivers/STM32G4xx_HAL_Driver/Src/stm32g4xx_hal_gpio.c ****         lines are not active and the I/O ports are configured in input floating mode.
  37:Drivers/STM32G4xx_HAL_Driver/Src/stm32g4xx_hal_gpio.c **** 
  38:Drivers/STM32G4xx_HAL_Driver/Src/stm32g4xx_hal_gpio.c ****     (+) All GPIO pins have weak internal pull-up and pull-down resistors, which can be
  39:Drivers/STM32G4xx_HAL_Driver/Src/stm32g4xx_hal_gpio.c ****         activated or not.
  40:Drivers/STM32G4xx_HAL_Driver/Src/stm32g4xx_hal_gpio.c **** 
  41:Drivers/STM32G4xx_HAL_Driver/Src/stm32g4xx_hal_gpio.c ****     (+) In Output or Alternate mode, each IO can be configured on open-drain or push-pull
  42:Drivers/STM32G4xx_HAL_Driver/Src/stm32g4xx_hal_gpio.c ****         type and the IO speed can be selected depending on the VDD value.
  43:Drivers/STM32G4xx_HAL_Driver/Src/stm32g4xx_hal_gpio.c **** 
  44:Drivers/STM32G4xx_HAL_Driver/Src/stm32g4xx_hal_gpio.c ****     (+) The microcontroller IO pins are connected to onboard peripherals/modules through a
  45:Drivers/STM32G4xx_HAL_Driver/Src/stm32g4xx_hal_gpio.c ****         multiplexer that allows only one peripheral alternate function (AF) connected
  46:Drivers/STM32G4xx_HAL_Driver/Src/stm32g4xx_hal_gpio.c ****        to an IO pin at a time. In this way, there can be no conflict between peripherals
  47:Drivers/STM32G4xx_HAL_Driver/Src/stm32g4xx_hal_gpio.c ****        sharing the same IO pin.
  48:Drivers/STM32G4xx_HAL_Driver/Src/stm32g4xx_hal_gpio.c **** 
  49:Drivers/STM32G4xx_HAL_Driver/Src/stm32g4xx_hal_gpio.c ****     (+) All ports have external interrupt/event capability. To use external interrupt
  50:Drivers/STM32G4xx_HAL_Driver/Src/stm32g4xx_hal_gpio.c ****         lines, the port must be configured in input mode. All available GPIO pins are
  51:Drivers/STM32G4xx_HAL_Driver/Src/stm32g4xx_hal_gpio.c ****         connected to the 16 external interrupt/event lines from EXTI0 to EXTI15.
  52:Drivers/STM32G4xx_HAL_Driver/Src/stm32g4xx_hal_gpio.c **** 
  53:Drivers/STM32G4xx_HAL_Driver/Src/stm32g4xx_hal_gpio.c ****     (+) The external interrupt/event controller consists of up to 44 edge detectors
  54:Drivers/STM32G4xx_HAL_Driver/Src/stm32g4xx_hal_gpio.c ****         (16 lines are connected to GPIO) for generating event/interrupt requests (each
  55:Drivers/STM32G4xx_HAL_Driver/Src/stm32g4xx_hal_gpio.c ****         input line can be independently configured to select the type (interrupt or event)
  56:Drivers/STM32G4xx_HAL_Driver/Src/stm32g4xx_hal_gpio.c ****         and the corresponding trigger event (rising or falling or both). Each line can
  57:Drivers/STM32G4xx_HAL_Driver/Src/stm32g4xx_hal_gpio.c ****         also be masked independently.
  58:Drivers/STM32G4xx_HAL_Driver/Src/stm32g4xx_hal_gpio.c **** 
  59:Drivers/STM32G4xx_HAL_Driver/Src/stm32g4xx_hal_gpio.c ****                      ##### How to use this driver #####
  60:Drivers/STM32G4xx_HAL_Driver/Src/stm32g4xx_hal_gpio.c ****   ==============================================================================
  61:Drivers/STM32G4xx_HAL_Driver/Src/stm32g4xx_hal_gpio.c ****   [..]
  62:Drivers/STM32G4xx_HAL_Driver/Src/stm32g4xx_hal_gpio.c ****     (#) Enable the GPIO AHB clock using the following function: __HAL_RCC_GPIOx_CLK_ENABLE().
  63:Drivers/STM32G4xx_HAL_Driver/Src/stm32g4xx_hal_gpio.c **** 
  64:Drivers/STM32G4xx_HAL_Driver/Src/stm32g4xx_hal_gpio.c ****     (#) Configure the GPIO pin(s) using HAL_GPIO_Init().
  65:Drivers/STM32G4xx_HAL_Driver/Src/stm32g4xx_hal_gpio.c ****         (++) Configure the IO mode using "Mode" member from GPIO_InitTypeDef structure
  66:Drivers/STM32G4xx_HAL_Driver/Src/stm32g4xx_hal_gpio.c ****         (++) Activate Pull-up, Pull-down resistor using "Pull" member from GPIO_InitTypeDef
  67:Drivers/STM32G4xx_HAL_Driver/Src/stm32g4xx_hal_gpio.c ****              structure.
  68:Drivers/STM32G4xx_HAL_Driver/Src/stm32g4xx_hal_gpio.c ****         (++) In case of Output or alternate function mode selection: the speed is
  69:Drivers/STM32G4xx_HAL_Driver/Src/stm32g4xx_hal_gpio.c ****              configured through "Speed" member from GPIO_InitTypeDef structure.
  70:Drivers/STM32G4xx_HAL_Driver/Src/stm32g4xx_hal_gpio.c ****         (++) In alternate mode is selection, the alternate function connected to the IO
  71:Drivers/STM32G4xx_HAL_Driver/Src/stm32g4xx_hal_gpio.c ****              is configured through "Alternate" member from GPIO_InitTypeDef structure.
  72:Drivers/STM32G4xx_HAL_Driver/Src/stm32g4xx_hal_gpio.c ****         (++) Analog mode is required when a pin is to be used as ADC channel
  73:Drivers/STM32G4xx_HAL_Driver/Src/stm32g4xx_hal_gpio.c ****              or DAC output.
  74:Drivers/STM32G4xx_HAL_Driver/Src/stm32g4xx_hal_gpio.c ****         (++) In case of external interrupt/event selection the "Mode" member from
  75:Drivers/STM32G4xx_HAL_Driver/Src/stm32g4xx_hal_gpio.c ****              GPIO_InitTypeDef structure select the type (interrupt or event) and
  76:Drivers/STM32G4xx_HAL_Driver/Src/stm32g4xx_hal_gpio.c ****              the corresponding trigger event (rising or falling or both).
  77:Drivers/STM32G4xx_HAL_Driver/Src/stm32g4xx_hal_gpio.c **** 
  78:Drivers/STM32G4xx_HAL_Driver/Src/stm32g4xx_hal_gpio.c ****     (#) In case of external interrupt/event mode selection, configure NVIC IRQ priority
  79:Drivers/STM32G4xx_HAL_Driver/Src/stm32g4xx_hal_gpio.c ****         mapped to the EXTI line using HAL_NVIC_SetPriority() and enable it using
  80:Drivers/STM32G4xx_HAL_Driver/Src/stm32g4xx_hal_gpio.c ****         HAL_NVIC_EnableIRQ().
  81:Drivers/STM32G4xx_HAL_Driver/Src/stm32g4xx_hal_gpio.c **** 
  82:Drivers/STM32G4xx_HAL_Driver/Src/stm32g4xx_hal_gpio.c ****     (#) To get the level of a pin configured in input mode use HAL_GPIO_ReadPin().
  83:Drivers/STM32G4xx_HAL_Driver/Src/stm32g4xx_hal_gpio.c **** 
  84:Drivers/STM32G4xx_HAL_Driver/Src/stm32g4xx_hal_gpio.c ****     (#) To set/reset the level of a pin configured in output mode use
  85:Drivers/STM32G4xx_HAL_Driver/Src/stm32g4xx_hal_gpio.c ****         HAL_GPIO_WritePin()/HAL_GPIO_TogglePin().
ARM GAS  /tmp/cc6clKC8.s 			page 3


  86:Drivers/STM32G4xx_HAL_Driver/Src/stm32g4xx_hal_gpio.c **** 
  87:Drivers/STM32G4xx_HAL_Driver/Src/stm32g4xx_hal_gpio.c ****    (#) To lock pin configuration until next reset use HAL_GPIO_LockPin().
  88:Drivers/STM32G4xx_HAL_Driver/Src/stm32g4xx_hal_gpio.c **** 
  89:Drivers/STM32G4xx_HAL_Driver/Src/stm32g4xx_hal_gpio.c ****     (#) During and just after reset, the alternate functions are not
  90:Drivers/STM32G4xx_HAL_Driver/Src/stm32g4xx_hal_gpio.c ****         active and the GPIO pins are configured in input floating mode (except JTAG
  91:Drivers/STM32G4xx_HAL_Driver/Src/stm32g4xx_hal_gpio.c ****         pins).
  92:Drivers/STM32G4xx_HAL_Driver/Src/stm32g4xx_hal_gpio.c **** 
  93:Drivers/STM32G4xx_HAL_Driver/Src/stm32g4xx_hal_gpio.c ****     (#) The LSE oscillator pins OSC32_IN and OSC32_OUT can be used as general purpose
  94:Drivers/STM32G4xx_HAL_Driver/Src/stm32g4xx_hal_gpio.c ****         (PC14 and PC15, respectively) when the LSE oscillator is off. The LSE has
  95:Drivers/STM32G4xx_HAL_Driver/Src/stm32g4xx_hal_gpio.c ****         priority over the GPIO function.
  96:Drivers/STM32G4xx_HAL_Driver/Src/stm32g4xx_hal_gpio.c **** 
  97:Drivers/STM32G4xx_HAL_Driver/Src/stm32g4xx_hal_gpio.c ****     (#) The HSE oscillator pins OSC_IN/OSC_OUT can be used as
  98:Drivers/STM32G4xx_HAL_Driver/Src/stm32g4xx_hal_gpio.c ****         general purpose PF0 and PF1, respectively, when the HSE oscillator is off.
  99:Drivers/STM32G4xx_HAL_Driver/Src/stm32g4xx_hal_gpio.c ****         The HSE has priority over the GPIO function.
 100:Drivers/STM32G4xx_HAL_Driver/Src/stm32g4xx_hal_gpio.c **** 
 101:Drivers/STM32G4xx_HAL_Driver/Src/stm32g4xx_hal_gpio.c ****   @endverbatim
 102:Drivers/STM32G4xx_HAL_Driver/Src/stm32g4xx_hal_gpio.c ****   ******************************************************************************
 103:Drivers/STM32G4xx_HAL_Driver/Src/stm32g4xx_hal_gpio.c ****   */
 104:Drivers/STM32G4xx_HAL_Driver/Src/stm32g4xx_hal_gpio.c **** 
 105:Drivers/STM32G4xx_HAL_Driver/Src/stm32g4xx_hal_gpio.c **** /* Includes ------------------------------------------------------------------*/
 106:Drivers/STM32G4xx_HAL_Driver/Src/stm32g4xx_hal_gpio.c **** #include "stm32g4xx_hal.h"
 107:Drivers/STM32G4xx_HAL_Driver/Src/stm32g4xx_hal_gpio.c **** 
 108:Drivers/STM32G4xx_HAL_Driver/Src/stm32g4xx_hal_gpio.c **** /** @addtogroup STM32G4xx_HAL_Driver
 109:Drivers/STM32G4xx_HAL_Driver/Src/stm32g4xx_hal_gpio.c ****   * @{
 110:Drivers/STM32G4xx_HAL_Driver/Src/stm32g4xx_hal_gpio.c ****   */
 111:Drivers/STM32G4xx_HAL_Driver/Src/stm32g4xx_hal_gpio.c **** 
 112:Drivers/STM32G4xx_HAL_Driver/Src/stm32g4xx_hal_gpio.c **** /** @addtogroup GPIO
 113:Drivers/STM32G4xx_HAL_Driver/Src/stm32g4xx_hal_gpio.c ****   * @{
 114:Drivers/STM32G4xx_HAL_Driver/Src/stm32g4xx_hal_gpio.c ****   */
 115:Drivers/STM32G4xx_HAL_Driver/Src/stm32g4xx_hal_gpio.c **** /** MISRA C:2012 deviation rule has been granted for following rules:
 116:Drivers/STM32G4xx_HAL_Driver/Src/stm32g4xx_hal_gpio.c ****   * Rule-12.2 - Medium: RHS argument is in interval [0,INF] which is out of
 117:Drivers/STM32G4xx_HAL_Driver/Src/stm32g4xx_hal_gpio.c ****   * range of the shift operator in following API :
 118:Drivers/STM32G4xx_HAL_Driver/Src/stm32g4xx_hal_gpio.c ****   * HAL_GPIO_Init
 119:Drivers/STM32G4xx_HAL_Driver/Src/stm32g4xx_hal_gpio.c ****   * HAL_GPIO_DeInit
 120:Drivers/STM32G4xx_HAL_Driver/Src/stm32g4xx_hal_gpio.c ****   */
 121:Drivers/STM32G4xx_HAL_Driver/Src/stm32g4xx_hal_gpio.c **** 
 122:Drivers/STM32G4xx_HAL_Driver/Src/stm32g4xx_hal_gpio.c **** #ifdef HAL_GPIO_MODULE_ENABLED
 123:Drivers/STM32G4xx_HAL_Driver/Src/stm32g4xx_hal_gpio.c **** 
 124:Drivers/STM32G4xx_HAL_Driver/Src/stm32g4xx_hal_gpio.c **** /* Private typedef -----------------------------------------------------------*/
 125:Drivers/STM32G4xx_HAL_Driver/Src/stm32g4xx_hal_gpio.c **** /* Private defines -----------------------------------------------------------*/
 126:Drivers/STM32G4xx_HAL_Driver/Src/stm32g4xx_hal_gpio.c **** /** @addtogroup GPIO_Private_Constants GPIO Private Constants
 127:Drivers/STM32G4xx_HAL_Driver/Src/stm32g4xx_hal_gpio.c ****   * @{
 128:Drivers/STM32G4xx_HAL_Driver/Src/stm32g4xx_hal_gpio.c ****   */
 129:Drivers/STM32G4xx_HAL_Driver/Src/stm32g4xx_hal_gpio.c **** #define GPIO_NUMBER           (16U)
 130:Drivers/STM32G4xx_HAL_Driver/Src/stm32g4xx_hal_gpio.c **** /**
 131:Drivers/STM32G4xx_HAL_Driver/Src/stm32g4xx_hal_gpio.c ****   * @}
 132:Drivers/STM32G4xx_HAL_Driver/Src/stm32g4xx_hal_gpio.c ****   */
 133:Drivers/STM32G4xx_HAL_Driver/Src/stm32g4xx_hal_gpio.c **** 
 134:Drivers/STM32G4xx_HAL_Driver/Src/stm32g4xx_hal_gpio.c **** /* Private macros ------------------------------------------------------------*/
 135:Drivers/STM32G4xx_HAL_Driver/Src/stm32g4xx_hal_gpio.c **** /* Private variables ---------------------------------------------------------*/
 136:Drivers/STM32G4xx_HAL_Driver/Src/stm32g4xx_hal_gpio.c **** /* Private function prototypes -----------------------------------------------*/
 137:Drivers/STM32G4xx_HAL_Driver/Src/stm32g4xx_hal_gpio.c **** /* Exported functions --------------------------------------------------------*/
 138:Drivers/STM32G4xx_HAL_Driver/Src/stm32g4xx_hal_gpio.c **** 
 139:Drivers/STM32G4xx_HAL_Driver/Src/stm32g4xx_hal_gpio.c **** /** @addtogroup GPIO_Exported_Functions
 140:Drivers/STM32G4xx_HAL_Driver/Src/stm32g4xx_hal_gpio.c ****   * @{
 141:Drivers/STM32G4xx_HAL_Driver/Src/stm32g4xx_hal_gpio.c ****   */
 142:Drivers/STM32G4xx_HAL_Driver/Src/stm32g4xx_hal_gpio.c **** 
ARM GAS  /tmp/cc6clKC8.s 			page 4


 143:Drivers/STM32G4xx_HAL_Driver/Src/stm32g4xx_hal_gpio.c **** /** @defgroup GPIO_Exported_Functions_Group1 Initialization/de-initialization functions
 144:Drivers/STM32G4xx_HAL_Driver/Src/stm32g4xx_hal_gpio.c ****   *  @brief    Initialization and Configuration functions
 145:Drivers/STM32G4xx_HAL_Driver/Src/stm32g4xx_hal_gpio.c ****   *
 146:Drivers/STM32G4xx_HAL_Driver/Src/stm32g4xx_hal_gpio.c **** @verbatim
 147:Drivers/STM32G4xx_HAL_Driver/Src/stm32g4xx_hal_gpio.c ****  ===============================================================================
 148:Drivers/STM32G4xx_HAL_Driver/Src/stm32g4xx_hal_gpio.c ****               ##### Initialization and de-initialization functions #####
 149:Drivers/STM32G4xx_HAL_Driver/Src/stm32g4xx_hal_gpio.c ****  ===============================================================================
 150:Drivers/STM32G4xx_HAL_Driver/Src/stm32g4xx_hal_gpio.c **** 
 151:Drivers/STM32G4xx_HAL_Driver/Src/stm32g4xx_hal_gpio.c **** @endverbatim
 152:Drivers/STM32G4xx_HAL_Driver/Src/stm32g4xx_hal_gpio.c ****   * @{
 153:Drivers/STM32G4xx_HAL_Driver/Src/stm32g4xx_hal_gpio.c ****   */
 154:Drivers/STM32G4xx_HAL_Driver/Src/stm32g4xx_hal_gpio.c **** 
 155:Drivers/STM32G4xx_HAL_Driver/Src/stm32g4xx_hal_gpio.c **** /**
 156:Drivers/STM32G4xx_HAL_Driver/Src/stm32g4xx_hal_gpio.c ****   * @brief  Initialize the GPIOx peripheral according to the specified parameters in the GPIO_Init.
 157:Drivers/STM32G4xx_HAL_Driver/Src/stm32g4xx_hal_gpio.c ****   * @param  GPIOx where x can be (A..G) to select the GPIO peripheral for STM32G4xx family
 158:Drivers/STM32G4xx_HAL_Driver/Src/stm32g4xx_hal_gpio.c ****   * @param  GPIO_Init pointer to a GPIO_InitTypeDef structure that contains
 159:Drivers/STM32G4xx_HAL_Driver/Src/stm32g4xx_hal_gpio.c ****   *         the configuration information for the specified GPIO peripheral.
 160:Drivers/STM32G4xx_HAL_Driver/Src/stm32g4xx_hal_gpio.c ****   * @retval None
 161:Drivers/STM32G4xx_HAL_Driver/Src/stm32g4xx_hal_gpio.c ****   */
 162:Drivers/STM32G4xx_HAL_Driver/Src/stm32g4xx_hal_gpio.c **** void HAL_GPIO_Init(GPIO_TypeDef  *GPIOx, GPIO_InitTypeDef *GPIO_Init)
 163:Drivers/STM32G4xx_HAL_Driver/Src/stm32g4xx_hal_gpio.c **** {
  31              		.loc 1 163 1 view -0
  32              		.cfi_startproc
  33              		@ args = 0, pretend = 0, frame = 16
  34              		@ frame_needed = 0, uses_anonymous_args = 0
 164:Drivers/STM32G4xx_HAL_Driver/Src/stm32g4xx_hal_gpio.c ****   uint32_t position = 0x00U;
  35              		.loc 1 164 3 view .LVU1
 165:Drivers/STM32G4xx_HAL_Driver/Src/stm32g4xx_hal_gpio.c ****   uint32_t iocurrent;
  36              		.loc 1 165 3 view .LVU2
 166:Drivers/STM32G4xx_HAL_Driver/Src/stm32g4xx_hal_gpio.c ****   uint32_t temp;
  37              		.loc 1 166 3 view .LVU3
 167:Drivers/STM32G4xx_HAL_Driver/Src/stm32g4xx_hal_gpio.c **** 
 168:Drivers/STM32G4xx_HAL_Driver/Src/stm32g4xx_hal_gpio.c ****   /* Check the parameters */
 169:Drivers/STM32G4xx_HAL_Driver/Src/stm32g4xx_hal_gpio.c ****   assert_param(IS_GPIO_ALL_INSTANCE(GPIOx));
  38              		.loc 1 169 3 view .LVU4
 170:Drivers/STM32G4xx_HAL_Driver/Src/stm32g4xx_hal_gpio.c ****   assert_param(IS_GPIO_PIN(GPIO_Init->Pin));
  39              		.loc 1 170 3 view .LVU5
 171:Drivers/STM32G4xx_HAL_Driver/Src/stm32g4xx_hal_gpio.c ****   assert_param(IS_GPIO_MODE(GPIO_Init->Mode));
  40              		.loc 1 171 3 view .LVU6
 172:Drivers/STM32G4xx_HAL_Driver/Src/stm32g4xx_hal_gpio.c **** 
 173:Drivers/STM32G4xx_HAL_Driver/Src/stm32g4xx_hal_gpio.c ****   /* Configure the port pins */
 174:Drivers/STM32G4xx_HAL_Driver/Src/stm32g4xx_hal_gpio.c ****   while (((GPIO_Init->Pin) >> position) != 0U)
  41              		.loc 1 174 3 view .LVU7
  42              		.loc 1 174 9 view .LVU8
 163:Drivers/STM32G4xx_HAL_Driver/Src/stm32g4xx_hal_gpio.c ****   uint32_t position = 0x00U;
  43              		.loc 1 163 1 is_stmt 0 view .LVU9
  44 0000 2DE9F04F 		push	{r4, r5, r6, r7, r8, r9, r10, fp, lr}
  45              	.LCFI0:
  46              		.cfi_def_cfa_offset 36
  47              		.cfi_offset 4, -36
  48              		.cfi_offset 5, -32
  49              		.cfi_offset 6, -28
  50              		.cfi_offset 7, -24
  51              		.cfi_offset 8, -20
  52              		.cfi_offset 9, -16
  53              		.cfi_offset 10, -12
  54              		.cfi_offset 11, -8
ARM GAS  /tmp/cc6clKC8.s 			page 5


  55              		.cfi_offset 14, -4
  56              		.loc 1 174 21 view .LVU10
  57 0004 0C68     		ldr	r4, [r1]
 163:Drivers/STM32G4xx_HAL_Driver/Src/stm32g4xx_hal_gpio.c ****   uint32_t position = 0x00U;
  58              		.loc 1 163 1 view .LVU11
  59 0006 85B0     		sub	sp, sp, #20
  60              	.LCFI1:
  61              		.cfi_def_cfa_offset 56
  62              		.loc 1 174 9 view .LVU12
  63 0008 002C     		cmp	r4, #0
  64 000a 00F08380 		beq	.L1
  65 000e 4FF0000C 		mov	ip, #0
  66              	.LBB2:
 175:Drivers/STM32G4xx_HAL_Driver/Src/stm32g4xx_hal_gpio.c ****   {
 176:Drivers/STM32G4xx_HAL_Driver/Src/stm32g4xx_hal_gpio.c ****     /* Get current io position */
 177:Drivers/STM32G4xx_HAL_Driver/Src/stm32g4xx_hal_gpio.c ****     iocurrent = (GPIO_Init->Pin) & (1UL << position);
 178:Drivers/STM32G4xx_HAL_Driver/Src/stm32g4xx_hal_gpio.c **** 
 179:Drivers/STM32G4xx_HAL_Driver/Src/stm32g4xx_hal_gpio.c ****     if (iocurrent != 0x00u)
 180:Drivers/STM32G4xx_HAL_Driver/Src/stm32g4xx_hal_gpio.c ****     {
 181:Drivers/STM32G4xx_HAL_Driver/Src/stm32g4xx_hal_gpio.c ****       /*--------------------- GPIO Mode Configuration ------------------------*/
 182:Drivers/STM32G4xx_HAL_Driver/Src/stm32g4xx_hal_gpio.c ****       /* In case of Output or Alternate function mode selection */
 183:Drivers/STM32G4xx_HAL_Driver/Src/stm32g4xx_hal_gpio.c ****       if(((GPIO_Init->Mode & GPIO_MODE) == MODE_OUTPUT) ||
 184:Drivers/STM32G4xx_HAL_Driver/Src/stm32g4xx_hal_gpio.c ****          ((GPIO_Init->Mode & GPIO_MODE) == MODE_AF))
 185:Drivers/STM32G4xx_HAL_Driver/Src/stm32g4xx_hal_gpio.c ****       {
 186:Drivers/STM32G4xx_HAL_Driver/Src/stm32g4xx_hal_gpio.c ****         /* Check the Speed parameter */
 187:Drivers/STM32G4xx_HAL_Driver/Src/stm32g4xx_hal_gpio.c ****         assert_param(IS_GPIO_SPEED(GPIO_Init->Speed));
 188:Drivers/STM32G4xx_HAL_Driver/Src/stm32g4xx_hal_gpio.c ****         /* Configure the IO Speed */
 189:Drivers/STM32G4xx_HAL_Driver/Src/stm32g4xx_hal_gpio.c ****         temp = GPIOx->OSPEEDR;
 190:Drivers/STM32G4xx_HAL_Driver/Src/stm32g4xx_hal_gpio.c ****         temp &= ~(GPIO_OSPEEDR_OSPEED0 << (position * 2U));
 191:Drivers/STM32G4xx_HAL_Driver/Src/stm32g4xx_hal_gpio.c ****         temp |= (GPIO_Init->Speed << (position * 2U));
 192:Drivers/STM32G4xx_HAL_Driver/Src/stm32g4xx_hal_gpio.c ****         GPIOx->OSPEEDR = temp;
 193:Drivers/STM32G4xx_HAL_Driver/Src/stm32g4xx_hal_gpio.c **** 
 194:Drivers/STM32G4xx_HAL_Driver/Src/stm32g4xx_hal_gpio.c ****         /* Configure the IO Output Type */
 195:Drivers/STM32G4xx_HAL_Driver/Src/stm32g4xx_hal_gpio.c ****         temp = GPIOx->OTYPER;
 196:Drivers/STM32G4xx_HAL_Driver/Src/stm32g4xx_hal_gpio.c ****         temp &= ~(GPIO_OTYPER_OT0 << position) ;
 197:Drivers/STM32G4xx_HAL_Driver/Src/stm32g4xx_hal_gpio.c ****         temp |= (((GPIO_Init->Mode & OUTPUT_TYPE) >> OUTPUT_TYPE_Pos) << position);
 198:Drivers/STM32G4xx_HAL_Driver/Src/stm32g4xx_hal_gpio.c ****         GPIOx->OTYPER = temp;
 199:Drivers/STM32G4xx_HAL_Driver/Src/stm32g4xx_hal_gpio.c ****       }
 200:Drivers/STM32G4xx_HAL_Driver/Src/stm32g4xx_hal_gpio.c **** 
 201:Drivers/STM32G4xx_HAL_Driver/Src/stm32g4xx_hal_gpio.c ****       if ((GPIO_Init->Mode & GPIO_MODE) != MODE_ANALOG)
 202:Drivers/STM32G4xx_HAL_Driver/Src/stm32g4xx_hal_gpio.c ****       {
 203:Drivers/STM32G4xx_HAL_Driver/Src/stm32g4xx_hal_gpio.c ****         /* Check the Pull parameter */
 204:Drivers/STM32G4xx_HAL_Driver/Src/stm32g4xx_hal_gpio.c ****         assert_param(IS_GPIO_PULL(GPIO_Init->Pull));
 205:Drivers/STM32G4xx_HAL_Driver/Src/stm32g4xx_hal_gpio.c **** 
 206:Drivers/STM32G4xx_HAL_Driver/Src/stm32g4xx_hal_gpio.c ****         /* Activate the Pull-up or Pull down resistor for the current IO */
 207:Drivers/STM32G4xx_HAL_Driver/Src/stm32g4xx_hal_gpio.c ****         temp = GPIOx->PUPDR;
 208:Drivers/STM32G4xx_HAL_Driver/Src/stm32g4xx_hal_gpio.c ****         temp &= ~(GPIO_PUPDR_PUPD0 << (position * 2U));
 209:Drivers/STM32G4xx_HAL_Driver/Src/stm32g4xx_hal_gpio.c ****         temp |= ((GPIO_Init->Pull) << (position * 2U));
 210:Drivers/STM32G4xx_HAL_Driver/Src/stm32g4xx_hal_gpio.c ****         GPIOx->PUPDR = temp;
 211:Drivers/STM32G4xx_HAL_Driver/Src/stm32g4xx_hal_gpio.c ****       }
 212:Drivers/STM32G4xx_HAL_Driver/Src/stm32g4xx_hal_gpio.c **** 
 213:Drivers/STM32G4xx_HAL_Driver/Src/stm32g4xx_hal_gpio.c ****       /* In case of Alternate function mode selection */
 214:Drivers/STM32G4xx_HAL_Driver/Src/stm32g4xx_hal_gpio.c ****       if ((GPIO_Init->Mode & GPIO_MODE) == MODE_AF)
 215:Drivers/STM32G4xx_HAL_Driver/Src/stm32g4xx_hal_gpio.c ****       {
 216:Drivers/STM32G4xx_HAL_Driver/Src/stm32g4xx_hal_gpio.c ****         /* Check the Alternate function parameters */
 217:Drivers/STM32G4xx_HAL_Driver/Src/stm32g4xx_hal_gpio.c ****         assert_param(IS_GPIO_AF_INSTANCE(GPIOx));
 218:Drivers/STM32G4xx_HAL_Driver/Src/stm32g4xx_hal_gpio.c ****         assert_param(IS_GPIO_AF(GPIO_Init->Alternate));
ARM GAS  /tmp/cc6clKC8.s 			page 6


 219:Drivers/STM32G4xx_HAL_Driver/Src/stm32g4xx_hal_gpio.c **** 
 220:Drivers/STM32G4xx_HAL_Driver/Src/stm32g4xx_hal_gpio.c ****         /* Configure Alternate function mapped with the current IO */
 221:Drivers/STM32G4xx_HAL_Driver/Src/stm32g4xx_hal_gpio.c ****         temp = GPIOx->AFR[position >> 3U];
 222:Drivers/STM32G4xx_HAL_Driver/Src/stm32g4xx_hal_gpio.c ****         temp &= ~(0xFU << ((position & 0x07U) * 4U));
 223:Drivers/STM32G4xx_HAL_Driver/Src/stm32g4xx_hal_gpio.c ****         temp |= ((GPIO_Init->Alternate) << ((position & 0x07U) * 4U));
 224:Drivers/STM32G4xx_HAL_Driver/Src/stm32g4xx_hal_gpio.c ****         GPIOx->AFR[position >> 3U] = temp;
 225:Drivers/STM32G4xx_HAL_Driver/Src/stm32g4xx_hal_gpio.c ****       }
 226:Drivers/STM32G4xx_HAL_Driver/Src/stm32g4xx_hal_gpio.c **** 
 227:Drivers/STM32G4xx_HAL_Driver/Src/stm32g4xx_hal_gpio.c ****       /* Configure IO Direction mode (Input, Output, Alternate or Analog) */
 228:Drivers/STM32G4xx_HAL_Driver/Src/stm32g4xx_hal_gpio.c ****       temp = GPIOx->MODER;
 229:Drivers/STM32G4xx_HAL_Driver/Src/stm32g4xx_hal_gpio.c ****       temp &= ~(GPIO_MODER_MODE0 << (position * 2U));
 230:Drivers/STM32G4xx_HAL_Driver/Src/stm32g4xx_hal_gpio.c ****       temp |= ((GPIO_Init->Mode & GPIO_MODE) << (position * 2U));
 231:Drivers/STM32G4xx_HAL_Driver/Src/stm32g4xx_hal_gpio.c ****       GPIOx->MODER = temp;
 232:Drivers/STM32G4xx_HAL_Driver/Src/stm32g4xx_hal_gpio.c **** 
 233:Drivers/STM32G4xx_HAL_Driver/Src/stm32g4xx_hal_gpio.c ****       /*--------------------- EXTI Mode Configuration ------------------------*/
 234:Drivers/STM32G4xx_HAL_Driver/Src/stm32g4xx_hal_gpio.c ****       /* Configure the External Interrupt or event for the current IO */
 235:Drivers/STM32G4xx_HAL_Driver/Src/stm32g4xx_hal_gpio.c ****       if ((GPIO_Init->Mode & EXTI_MODE) != 0x00u)
 236:Drivers/STM32G4xx_HAL_Driver/Src/stm32g4xx_hal_gpio.c ****       {
 237:Drivers/STM32G4xx_HAL_Driver/Src/stm32g4xx_hal_gpio.c ****         /* Enable SYSCFG Clock */
 238:Drivers/STM32G4xx_HAL_Driver/Src/stm32g4xx_hal_gpio.c ****         __HAL_RCC_SYSCFG_CLK_ENABLE();
  67              		.loc 1 238 9 view .LVU13
  68 0012 DFF8D8A1 		ldr	r10, .L42+24
  69              	.LBE2:
 164:Drivers/STM32G4xx_HAL_Driver/Src/stm32g4xx_hal_gpio.c ****   uint32_t iocurrent;
  70              		.loc 1 164 12 view .LVU14
  71 0016 6346     		mov	r3, ip
 177:Drivers/STM32G4xx_HAL_Driver/Src/stm32g4xx_hal_gpio.c **** 
  72              		.loc 1 177 41 view .LVU15
  73 0018 4FF0010B 		mov	fp, #1
 239:Drivers/STM32G4xx_HAL_Driver/Src/stm32g4xx_hal_gpio.c **** 
 240:Drivers/STM32G4xx_HAL_Driver/Src/stm32g4xx_hal_gpio.c ****         temp = SYSCFG->EXTICR[position >> 2U];
 241:Drivers/STM32G4xx_HAL_Driver/Src/stm32g4xx_hal_gpio.c ****         temp &= ~(0x0FUL << (4U * (position & 0x03U)));
  74              		.loc 1 241 26 view .LVU16
  75 001c 8946     		mov	r9, r1
  76              	.LVL1:
  77              	.L2:
 177:Drivers/STM32G4xx_HAL_Driver/Src/stm32g4xx_hal_gpio.c **** 
  78              		.loc 1 177 5 is_stmt 1 view .LVU17
 177:Drivers/STM32G4xx_HAL_Driver/Src/stm32g4xx_hal_gpio.c **** 
  79              		.loc 1 177 41 is_stmt 0 view .LVU18
  80 001e 0BFA03F5 		lsl	r5, fp, r3
  81              	.LVL2:
 179:Drivers/STM32G4xx_HAL_Driver/Src/stm32g4xx_hal_gpio.c ****     {
  82              		.loc 1 179 5 is_stmt 1 view .LVU19
 179:Drivers/STM32G4xx_HAL_Driver/Src/stm32g4xx_hal_gpio.c ****     {
  83              		.loc 1 179 8 is_stmt 0 view .LVU20
  84 0022 15EA0408 		ands	r8, r5, r4
  85              	.LVL3:
 179:Drivers/STM32G4xx_HAL_Driver/Src/stm32g4xx_hal_gpio.c ****     {
  86              		.loc 1 179 8 view .LVU21
  87 0026 6FD0     		beq	.L4
 183:Drivers/STM32G4xx_HAL_Driver/Src/stm32g4xx_hal_gpio.c ****          ((GPIO_Init->Mode & GPIO_MODE) == MODE_AF))
  88              		.loc 1 183 7 is_stmt 1 view .LVU22
 183:Drivers/STM32G4xx_HAL_Driver/Src/stm32g4xx_hal_gpio.c ****          ((GPIO_Init->Mode & GPIO_MODE) == MODE_AF))
  89              		.loc 1 183 21 is_stmt 0 view .LVU23
  90 0028 D9F80470 		ldr	r7, [r9, #4]
 183:Drivers/STM32G4xx_HAL_Driver/Src/stm32g4xx_hal_gpio.c ****          ((GPIO_Init->Mode & GPIO_MODE) == MODE_AF))
ARM GAS  /tmp/cc6clKC8.s 			page 7


  91              		.loc 1 183 28 view .LVU24
  92 002c 07F00302 		and	r2, r7, #3
 183:Drivers/STM32G4xx_HAL_Driver/Src/stm32g4xx_hal_gpio.c ****          ((GPIO_Init->Mode & GPIO_MODE) == MODE_AF))
  93              		.loc 1 183 57 view .LVU25
  94 0030 511E     		subs	r1, r2, #1
 183:Drivers/STM32G4xx_HAL_Driver/Src/stm32g4xx_hal_gpio.c ****          ((GPIO_Init->Mode & GPIO_MODE) == MODE_AF))
  95              		.loc 1 183 9 view .LVU26
  96 0032 0129     		cmp	r1, #1
  97 0034 71D9     		bls	.L37
 201:Drivers/STM32G4xx_HAL_Driver/Src/stm32g4xx_hal_gpio.c ****       {
  98              		.loc 1 201 7 is_stmt 1 view .LVU27
 201:Drivers/STM32G4xx_HAL_Driver/Src/stm32g4xx_hal_gpio.c ****       {
  99              		.loc 1 201 10 is_stmt 0 view .LVU28
 100 0036 032A     		cmp	r2, #3
 101 0038 40F0B080 		bne	.L7
 190:Drivers/STM32G4xx_HAL_Driver/Src/stm32g4xx_hal_gpio.c ****         temp |= (GPIO_Init->Speed << (position * 2U));
 102              		.loc 1 190 40 view .LVU29
 103 003c 02FA0CF2 		lsl	r2, r2, ip
 190:Drivers/STM32G4xx_HAL_Driver/Src/stm32g4xx_hal_gpio.c ****         temp |= (GPIO_Init->Speed << (position * 2U));
 104              		.loc 1 190 17 view .LVU30
 105 0040 D143     		mvns	r1, r2
 106              	.L8:
 228:Drivers/STM32G4xx_HAL_Driver/Src/stm32g4xx_hal_gpio.c ****       temp &= ~(GPIO_MODER_MODE0 << (position * 2U));
 107              		.loc 1 228 7 is_stmt 1 view .LVU31
 228:Drivers/STM32G4xx_HAL_Driver/Src/stm32g4xx_hal_gpio.c ****       temp &= ~(GPIO_MODER_MODE0 << (position * 2U));
 108              		.loc 1 228 12 is_stmt 0 view .LVU32
 109 0042 0568     		ldr	r5, [r0]
 110              	.LVL4:
 229:Drivers/STM32G4xx_HAL_Driver/Src/stm32g4xx_hal_gpio.c ****       temp |= ((GPIO_Init->Mode & GPIO_MODE) << (position * 2U));
 111              		.loc 1 229 7 is_stmt 1 view .LVU33
 229:Drivers/STM32G4xx_HAL_Driver/Src/stm32g4xx_hal_gpio.c ****       temp |= ((GPIO_Init->Mode & GPIO_MODE) << (position * 2U));
 112              		.loc 1 229 12 is_stmt 0 view .LVU34
 113 0044 2940     		ands	r1, r1, r5
 114              	.LVL5:
 230:Drivers/STM32G4xx_HAL_Driver/Src/stm32g4xx_hal_gpio.c ****       GPIOx->MODER = temp;
 115              		.loc 1 230 7 is_stmt 1 view .LVU35
 230:Drivers/STM32G4xx_HAL_Driver/Src/stm32g4xx_hal_gpio.c ****       GPIOx->MODER = temp;
 116              		.loc 1 230 12 is_stmt 0 view .LVU36
 117 0046 0A43     		orrs	r2, r2, r1
 118              	.LVL6:
 231:Drivers/STM32G4xx_HAL_Driver/Src/stm32g4xx_hal_gpio.c **** 
 119              		.loc 1 231 7 is_stmt 1 view .LVU37
 235:Drivers/STM32G4xx_HAL_Driver/Src/stm32g4xx_hal_gpio.c ****       {
 120              		.loc 1 235 10 is_stmt 0 view .LVU38
 121 0048 17F4403F 		tst	r7, #196608
 231:Drivers/STM32G4xx_HAL_Driver/Src/stm32g4xx_hal_gpio.c **** 
 122              		.loc 1 231 20 view .LVU39
 123 004c 0260     		str	r2, [r0]
 235:Drivers/STM32G4xx_HAL_Driver/Src/stm32g4xx_hal_gpio.c ****       {
 124              		.loc 1 235 7 is_stmt 1 view .LVU40
 235:Drivers/STM32G4xx_HAL_Driver/Src/stm32g4xx_hal_gpio.c ****       {
 125              		.loc 1 235 10 is_stmt 0 view .LVU41
 126 004e 5BD0     		beq	.L4
 238:Drivers/STM32G4xx_HAL_Driver/Src/stm32g4xx_hal_gpio.c **** 
 127              		.loc 1 238 9 is_stmt 1 view .LVU42
 128              	.LBB3:
 238:Drivers/STM32G4xx_HAL_Driver/Src/stm32g4xx_hal_gpio.c **** 
ARM GAS  /tmp/cc6clKC8.s 			page 8


 129              		.loc 1 238 9 view .LVU43
 238:Drivers/STM32G4xx_HAL_Driver/Src/stm32g4xx_hal_gpio.c **** 
 130              		.loc 1 238 9 view .LVU44
 131 0050 DAF86020 		ldr	r2, [r10, #96]
 132              	.LVL7:
 238:Drivers/STM32G4xx_HAL_Driver/Src/stm32g4xx_hal_gpio.c **** 
 133              		.loc 1 238 9 is_stmt 0 view .LVU45
 134 0054 42F00102 		orr	r2, r2, #1
 135 0058 CAF86020 		str	r2, [r10, #96]
 136              	.LVL8:
 238:Drivers/STM32G4xx_HAL_Driver/Src/stm32g4xx_hal_gpio.c **** 
 137              		.loc 1 238 9 is_stmt 1 view .LVU46
 138 005c DAF86020 		ldr	r2, [r10, #96]
 139 0060 02F00102 		and	r2, r2, #1
 140 0064 0392     		str	r2, [sp, #12]
 238:Drivers/STM32G4xx_HAL_Driver/Src/stm32g4xx_hal_gpio.c **** 
 141              		.loc 1 238 9 view .LVU47
 142 0066 039A     		ldr	r2, [sp, #12]
 143              	.LBE3:
 238:Drivers/STM32G4xx_HAL_Driver/Src/stm32g4xx_hal_gpio.c **** 
 144              		.loc 1 238 9 view .LVU48
 240:Drivers/STM32G4xx_HAL_Driver/Src/stm32g4xx_hal_gpio.c ****         temp &= ~(0x0FUL << (4U * (position & 0x03U)));
 145              		.loc 1 240 9 view .LVU49
 146 0068 23F00302 		bic	r2, r3, #3
 147 006c 02F18042 		add	r2, r2, #1073741824
 148 0070 02F58032 		add	r2, r2, #65536
 149              		.loc 1 241 45 is_stmt 0 view .LVU50
 150 0074 03F00305 		and	r5, r3, #3
 240:Drivers/STM32G4xx_HAL_Driver/Src/stm32g4xx_hal_gpio.c ****         temp &= ~(0x0FUL << (4U * (position & 0x03U)));
 151              		.loc 1 240 14 view .LVU51
 152 0078 9168     		ldr	r1, [r2, #8]
 153              	.LVL9:
 154              		.loc 1 241 9 is_stmt 1 view .LVU52
 155              		.loc 1 241 33 is_stmt 0 view .LVU53
 156 007a AD00     		lsls	r5, r5, #2
 157              		.loc 1 241 26 view .LVU54
 158 007c 0F26     		movs	r6, #15
 159 007e 06FA05FE 		lsl	lr, r6, r5
 242:Drivers/STM32G4xx_HAL_Driver/Src/stm32g4xx_hal_gpio.c ****         temp |= (GPIO_GET_INDEX(GPIOx) << (4U * (position & 0x03U)));
 160              		.loc 1 242 18 view .LVU55
 161 0082 B0F1904F 		cmp	r0, #1207959552
 241:Drivers/STM32G4xx_HAL_Driver/Src/stm32g4xx_hal_gpio.c ****         temp |= (GPIO_GET_INDEX(GPIOx) << (4U * (position & 0x03U)));
 162              		.loc 1 241 14 view .LVU56
 163 0086 21EA0E01 		bic	r1, r1, lr
 164              	.LVL10:
 165              		.loc 1 242 9 is_stmt 1 view .LVU57
 166              		.loc 1 242 18 is_stmt 0 view .LVU58
 167 008a 19D0     		beq	.L10
 168              		.loc 1 242 18 discriminator 1 view .LVU59
 169 008c 514E     		ldr	r6, .L42
 170 008e B042     		cmp	r0, r6
 171 0090 00F08F80 		beq	.L38
 172              		.loc 1 242 18 discriminator 3 view .LVU60
 173 0094 504E     		ldr	r6, .L42+4
 174 0096 B042     		cmp	r0, r6
 175 0098 00F08F80 		beq	.L39
 176              		.loc 1 242 18 discriminator 5 view .LVU61
ARM GAS  /tmp/cc6clKC8.s 			page 9


 177 009c 4F4E     		ldr	r6, .L42+8
 178 009e B042     		cmp	r0, r6
 179 00a0 00F08180 		beq	.L40
 180              		.loc 1 242 18 discriminator 7 view .LVU62
 181 00a4 4E4E     		ldr	r6, .L42+12
 182 00a6 B042     		cmp	r0, r6
 183 00a8 00F08D80 		beq	.L41
 184              		.loc 1 242 18 discriminator 9 view .LVU63
 185 00ac 4D4E     		ldr	r6, .L42+16
 186 00ae B042     		cmp	r0, r6
 187              		.loc 1 242 40 discriminator 9 view .LVU64
 188 00b0 0CBF     		ite	eq
 189 00b2 4FF0050E 		moveq	lr, #5
 190 00b6 4FF0060E 		movne	lr, #6
 191 00ba 0EFA05F5 		lsl	r5, lr, r5
 192              		.loc 1 242 14 discriminator 9 view .LVU65
 193 00be 2943     		orrs	r1, r1, r5
 194              	.LVL11:
 195              	.L10:
 243:Drivers/STM32G4xx_HAL_Driver/Src/stm32g4xx_hal_gpio.c ****         SYSCFG->EXTICR[position >> 2U] = temp;
 196              		.loc 1 243 9 is_stmt 1 discriminator 24 view .LVU66
 197              		.loc 1 243 40 is_stmt 0 discriminator 24 view .LVU67
 198 00c0 9160     		str	r1, [r2, #8]
 244:Drivers/STM32G4xx_HAL_Driver/Src/stm32g4xx_hal_gpio.c **** 
 245:Drivers/STM32G4xx_HAL_Driver/Src/stm32g4xx_hal_gpio.c ****         /* Clear Rising Falling edge configuration */
 246:Drivers/STM32G4xx_HAL_Driver/Src/stm32g4xx_hal_gpio.c ****         temp = EXTI->RTSR1;
 199              		.loc 1 246 9 is_stmt 1 discriminator 24 view .LVU68
 200              		.loc 1 246 14 is_stmt 0 discriminator 24 view .LVU69
 201 00c2 494A     		ldr	r2, .L42+20
 247:Drivers/STM32G4xx_HAL_Driver/Src/stm32g4xx_hal_gpio.c ****         temp &= ~(iocurrent);
 248:Drivers/STM32G4xx_HAL_Driver/Src/stm32g4xx_hal_gpio.c ****         if ((GPIO_Init->Mode & TRIGGER_RISING) != 0x00U)
 249:Drivers/STM32G4xx_HAL_Driver/Src/stm32g4xx_hal_gpio.c ****         {
 250:Drivers/STM32G4xx_HAL_Driver/Src/stm32g4xx_hal_gpio.c ****           temp |= iocurrent;
 251:Drivers/STM32G4xx_HAL_Driver/Src/stm32g4xx_hal_gpio.c ****         }
 252:Drivers/STM32G4xx_HAL_Driver/Src/stm32g4xx_hal_gpio.c ****         EXTI->RTSR1 = temp;
 202              		.loc 1 252 21 discriminator 24 view .LVU70
 203 00c4 4849     		ldr	r1, .L42+20
 246:Drivers/STM32G4xx_HAL_Driver/Src/stm32g4xx_hal_gpio.c ****         temp &= ~(iocurrent);
 204              		.loc 1 246 14 discriminator 24 view .LVU71
 205 00c6 9268     		ldr	r2, [r2, #8]
 206              	.LVL12:
 247:Drivers/STM32G4xx_HAL_Driver/Src/stm32g4xx_hal_gpio.c ****         temp &= ~(iocurrent);
 207              		.loc 1 247 9 is_stmt 1 discriminator 24 view .LVU72
 247:Drivers/STM32G4xx_HAL_Driver/Src/stm32g4xx_hal_gpio.c ****         temp &= ~(iocurrent);
 208              		.loc 1 247 17 is_stmt 0 discriminator 24 view .LVU73
 209 00c8 6FEA0805 		mvn	r5, r8
 210              	.LVL13:
 248:Drivers/STM32G4xx_HAL_Driver/Src/stm32g4xx_hal_gpio.c ****         {
 211              		.loc 1 248 9 is_stmt 1 discriminator 24 view .LVU74
 248:Drivers/STM32G4xx_HAL_Driver/Src/stm32g4xx_hal_gpio.c ****         {
 212              		.loc 1 248 12 is_stmt 0 discriminator 24 view .LVU75
 213 00cc FE02     		lsls	r6, r7, #11
 247:Drivers/STM32G4xx_HAL_Driver/Src/stm32g4xx_hal_gpio.c ****         temp &= ~(iocurrent);
 214              		.loc 1 247 14 discriminator 24 view .LVU76
 215 00ce 54BF     		ite	pl
 216 00d0 2A40     		andpl	r2, r2, r5
 217              	.LVL14:
ARM GAS  /tmp/cc6clKC8.s 			page 10


 250:Drivers/STM32G4xx_HAL_Driver/Src/stm32g4xx_hal_gpio.c ****         }
 218              		.loc 1 250 11 is_stmt 1 discriminator 24 view .LVU77
 250:Drivers/STM32G4xx_HAL_Driver/Src/stm32g4xx_hal_gpio.c ****         }
 219              		.loc 1 250 16 is_stmt 0 discriminator 24 view .LVU78
 220 00d2 48EA0202 		orrmi	r2, r8, r2
 221              	.LVL15:
 222              		.loc 1 252 9 is_stmt 1 discriminator 24 view .LVU79
 223              		.loc 1 252 21 is_stmt 0 discriminator 24 view .LVU80
 224 00d6 8A60     		str	r2, [r1, #8]
 253:Drivers/STM32G4xx_HAL_Driver/Src/stm32g4xx_hal_gpio.c **** 
 254:Drivers/STM32G4xx_HAL_Driver/Src/stm32g4xx_hal_gpio.c ****         temp = EXTI->FTSR1;
 225              		.loc 1 254 9 is_stmt 1 discriminator 24 view .LVU81
 226              		.loc 1 254 14 is_stmt 0 discriminator 24 view .LVU82
 227 00d8 CA68     		ldr	r2, [r1, #12]
 228              	.LVL16:
 255:Drivers/STM32G4xx_HAL_Driver/Src/stm32g4xx_hal_gpio.c ****         temp &= ~(iocurrent);
 229              		.loc 1 255 9 is_stmt 1 discriminator 24 view .LVU83
 256:Drivers/STM32G4xx_HAL_Driver/Src/stm32g4xx_hal_gpio.c ****         if ((GPIO_Init->Mode & TRIGGER_FALLING) != 0x00U)
 230              		.loc 1 256 9 discriminator 24 view .LVU84
 231              		.loc 1 256 12 is_stmt 0 discriminator 24 view .LVU85
 232 00da B902     		lsls	r1, r7, #10
 257:Drivers/STM32G4xx_HAL_Driver/Src/stm32g4xx_hal_gpio.c ****         {
 258:Drivers/STM32G4xx_HAL_Driver/Src/stm32g4xx_hal_gpio.c ****           temp |= iocurrent;
 259:Drivers/STM32G4xx_HAL_Driver/Src/stm32g4xx_hal_gpio.c ****         }
 260:Drivers/STM32G4xx_HAL_Driver/Src/stm32g4xx_hal_gpio.c ****         EXTI->FTSR1 = temp;
 233              		.loc 1 260 21 discriminator 24 view .LVU86
 234 00dc 4249     		ldr	r1, .L42+20
 255:Drivers/STM32G4xx_HAL_Driver/Src/stm32g4xx_hal_gpio.c ****         if ((GPIO_Init->Mode & TRIGGER_FALLING) != 0x00U)
 235              		.loc 1 255 14 discriminator 24 view .LVU87
 236 00de 54BF     		ite	pl
 237 00e0 2A40     		andpl	r2, r2, r5
 238              	.LVL17:
 258:Drivers/STM32G4xx_HAL_Driver/Src/stm32g4xx_hal_gpio.c ****         }
 239              		.loc 1 258 11 is_stmt 1 discriminator 24 view .LVU88
 258:Drivers/STM32G4xx_HAL_Driver/Src/stm32g4xx_hal_gpio.c ****         }
 240              		.loc 1 258 16 is_stmt 0 discriminator 24 view .LVU89
 241 00e2 48EA0202 		orrmi	r2, r8, r2
 242              	.LVL18:
 243              		.loc 1 260 9 is_stmt 1 discriminator 24 view .LVU90
 244              		.loc 1 260 21 is_stmt 0 discriminator 24 view .LVU91
 245 00e6 CA60     		str	r2, [r1, #12]
 261:Drivers/STM32G4xx_HAL_Driver/Src/stm32g4xx_hal_gpio.c **** 
 262:Drivers/STM32G4xx_HAL_Driver/Src/stm32g4xx_hal_gpio.c ****         temp = EXTI->EMR1;
 246              		.loc 1 262 9 is_stmt 1 discriminator 24 view .LVU92
 247              		.loc 1 262 14 is_stmt 0 discriminator 24 view .LVU93
 248 00e8 4968     		ldr	r1, [r1, #4]
 249              	.LVL19:
 263:Drivers/STM32G4xx_HAL_Driver/Src/stm32g4xx_hal_gpio.c ****         temp &= ~(iocurrent);
 250              		.loc 1 263 9 is_stmt 1 discriminator 24 view .LVU94
 264:Drivers/STM32G4xx_HAL_Driver/Src/stm32g4xx_hal_gpio.c ****         if ((GPIO_Init->Mode & EXTI_EVT) != 0x00U)
 251              		.loc 1 264 9 discriminator 24 view .LVU95
 265:Drivers/STM32G4xx_HAL_Driver/Src/stm32g4xx_hal_gpio.c ****         {
 266:Drivers/STM32G4xx_HAL_Driver/Src/stm32g4xx_hal_gpio.c ****           temp |= iocurrent;
 267:Drivers/STM32G4xx_HAL_Driver/Src/stm32g4xx_hal_gpio.c ****         }
 268:Drivers/STM32G4xx_HAL_Driver/Src/stm32g4xx_hal_gpio.c ****         EXTI->EMR1 = temp;
 252              		.loc 1 268 20 is_stmt 0 discriminator 24 view .LVU96
 253 00ea 3F4A     		ldr	r2, .L42+20
ARM GAS  /tmp/cc6clKC8.s 			page 11


 264:Drivers/STM32G4xx_HAL_Driver/Src/stm32g4xx_hal_gpio.c ****         if ((GPIO_Init->Mode & EXTI_EVT) != 0x00U)
 254              		.loc 1 264 12 discriminator 24 view .LVU97
 255 00ec BE03     		lsls	r6, r7, #14
 263:Drivers/STM32G4xx_HAL_Driver/Src/stm32g4xx_hal_gpio.c ****         if ((GPIO_Init->Mode & EXTI_EVT) != 0x00U)
 256              		.loc 1 263 14 discriminator 24 view .LVU98
 257 00ee 54BF     		ite	pl
 258 00f0 2940     		andpl	r1, r1, r5
 259              	.LVL20:
 266:Drivers/STM32G4xx_HAL_Driver/Src/stm32g4xx_hal_gpio.c ****         }
 260              		.loc 1 266 11 is_stmt 1 discriminator 24 view .LVU99
 266:Drivers/STM32G4xx_HAL_Driver/Src/stm32g4xx_hal_gpio.c ****         }
 261              		.loc 1 266 16 is_stmt 0 discriminator 24 view .LVU100
 262 00f2 48EA0101 		orrmi	r1, r8, r1
 263              	.LVL21:
 264              		.loc 1 268 9 is_stmt 1 discriminator 24 view .LVU101
 265              		.loc 1 268 20 is_stmt 0 discriminator 24 view .LVU102
 266 00f6 5160     		str	r1, [r2, #4]
 269:Drivers/STM32G4xx_HAL_Driver/Src/stm32g4xx_hal_gpio.c **** 
 270:Drivers/STM32G4xx_HAL_Driver/Src/stm32g4xx_hal_gpio.c ****         /* Clear EXTI line configuration */
 271:Drivers/STM32G4xx_HAL_Driver/Src/stm32g4xx_hal_gpio.c ****         temp = EXTI->IMR1;
 267              		.loc 1 271 9 is_stmt 1 discriminator 24 view .LVU103
 268              		.loc 1 271 14 is_stmt 0 discriminator 24 view .LVU104
 269 00f8 1268     		ldr	r2, [r2]
 270              	.LVL22:
 272:Drivers/STM32G4xx_HAL_Driver/Src/stm32g4xx_hal_gpio.c ****         temp &= ~(iocurrent);
 271              		.loc 1 272 9 is_stmt 1 discriminator 24 view .LVU105
 273:Drivers/STM32G4xx_HAL_Driver/Src/stm32g4xx_hal_gpio.c ****         if ((GPIO_Init->Mode & EXTI_IT) != 0x00U)
 272              		.loc 1 273 9 discriminator 24 view .LVU106
 273              		.loc 1 273 12 is_stmt 0 discriminator 24 view .LVU107
 274 00fa F903     		lsls	r1, r7, #15
 274:Drivers/STM32G4xx_HAL_Driver/Src/stm32g4xx_hal_gpio.c ****         {
 275:Drivers/STM32G4xx_HAL_Driver/Src/stm32g4xx_hal_gpio.c ****           temp |= iocurrent;
 276:Drivers/STM32G4xx_HAL_Driver/Src/stm32g4xx_hal_gpio.c ****         }
 277:Drivers/STM32G4xx_HAL_Driver/Src/stm32g4xx_hal_gpio.c ****         EXTI->IMR1 = temp;
 275              		.loc 1 277 20 discriminator 24 view .LVU108
 276 00fc 3A49     		ldr	r1, .L42+20
 272:Drivers/STM32G4xx_HAL_Driver/Src/stm32g4xx_hal_gpio.c ****         if ((GPIO_Init->Mode & EXTI_IT) != 0x00U)
 277              		.loc 1 272 14 discriminator 24 view .LVU109
 278 00fe 54BF     		ite	pl
 279 0100 2A40     		andpl	r2, r2, r5
 280              	.LVL23:
 275:Drivers/STM32G4xx_HAL_Driver/Src/stm32g4xx_hal_gpio.c ****         }
 281              		.loc 1 275 11 is_stmt 1 discriminator 24 view .LVU110
 275:Drivers/STM32G4xx_HAL_Driver/Src/stm32g4xx_hal_gpio.c ****         }
 282              		.loc 1 275 16 is_stmt 0 discriminator 24 view .LVU111
 283 0102 48EA0202 		orrmi	r2, r8, r2
 284              	.LVL24:
 285              		.loc 1 277 9 is_stmt 1 discriminator 24 view .LVU112
 286              		.loc 1 277 20 is_stmt 0 discriminator 24 view .LVU113
 287 0106 0A60     		str	r2, [r1]
 288              	.LVL25:
 289              	.L4:
 278:Drivers/STM32G4xx_HAL_Driver/Src/stm32g4xx_hal_gpio.c ****       }
 279:Drivers/STM32G4xx_HAL_Driver/Src/stm32g4xx_hal_gpio.c ****     }
 280:Drivers/STM32G4xx_HAL_Driver/Src/stm32g4xx_hal_gpio.c **** 
 281:Drivers/STM32G4xx_HAL_Driver/Src/stm32g4xx_hal_gpio.c ****     position++;
 290              		.loc 1 281 5 is_stmt 1 view .LVU114
ARM GAS  /tmp/cc6clKC8.s 			page 12


 291              		.loc 1 281 13 is_stmt 0 view .LVU115
 292 0108 0133     		adds	r3, r3, #1
 293              	.LVL26:
 174:Drivers/STM32G4xx_HAL_Driver/Src/stm32g4xx_hal_gpio.c ****   {
 294              		.loc 1 174 9 is_stmt 1 view .LVU116
 295 010a 34FA03F2 		lsrs	r2, r4, r3
 296 010e 0CF1020C 		add	ip, ip, #2
 297 0112 84D1     		bne	.L2
 298              	.LVL27:
 299              	.L1:
 282:Drivers/STM32G4xx_HAL_Driver/Src/stm32g4xx_hal_gpio.c ****   }
 283:Drivers/STM32G4xx_HAL_Driver/Src/stm32g4xx_hal_gpio.c **** }
 300              		.loc 1 283 1 is_stmt 0 view .LVU117
 301 0114 05B0     		add	sp, sp, #20
 302              	.LCFI2:
 303              		.cfi_remember_state
 304              		.cfi_def_cfa_offset 36
 305              		@ sp needed
 306 0116 BDE8F08F 		pop	{r4, r5, r6, r7, r8, r9, r10, fp, pc}
 307              	.LVL28:
 308              	.L37:
 309              	.LCFI3:
 310              		.cfi_restore_state
 187:Drivers/STM32G4xx_HAL_Driver/Src/stm32g4xx_hal_gpio.c ****         /* Configure the IO Speed */
 311              		.loc 1 187 9 is_stmt 1 view .LVU118
 189:Drivers/STM32G4xx_HAL_Driver/Src/stm32g4xx_hal_gpio.c ****         temp &= ~(GPIO_OSPEEDR_OSPEED0 << (position * 2U));
 312              		.loc 1 189 9 view .LVU119
 189:Drivers/STM32G4xx_HAL_Driver/Src/stm32g4xx_hal_gpio.c ****         temp &= ~(GPIO_OSPEEDR_OSPEED0 << (position * 2U));
 313              		.loc 1 189 14 is_stmt 0 view .LVU120
 314 011a 8168     		ldr	r1, [r0, #8]
 315              	.LVL29:
 190:Drivers/STM32G4xx_HAL_Driver/Src/stm32g4xx_hal_gpio.c ****         temp |= (GPIO_Init->Speed << (position * 2U));
 316              		.loc 1 190 9 is_stmt 1 view .LVU121
 191:Drivers/STM32G4xx_HAL_Driver/Src/stm32g4xx_hal_gpio.c ****         GPIOx->OSPEEDR = temp;
 317              		.loc 1 191 35 is_stmt 0 view .LVU122
 318 011c D9F80C60 		ldr	r6, [r9, #12]
 190:Drivers/STM32G4xx_HAL_Driver/Src/stm32g4xx_hal_gpio.c ****         temp |= (GPIO_Init->Speed << (position * 2U));
 319              		.loc 1 190 40 view .LVU123
 320 0120 4FF0030E 		mov	lr, #3
 321 0124 0EFA0CFE 		lsl	lr, lr, ip
 190:Drivers/STM32G4xx_HAL_Driver/Src/stm32g4xx_hal_gpio.c ****         temp |= (GPIO_Init->Speed << (position * 2U));
 322              		.loc 1 190 14 view .LVU124
 323 0128 21EA0E01 		bic	r1, r1, lr
 324              	.LVL30:
 191:Drivers/STM32G4xx_HAL_Driver/Src/stm32g4xx_hal_gpio.c ****         GPIOx->OSPEEDR = temp;
 325              		.loc 1 191 9 is_stmt 1 view .LVU125
 191:Drivers/STM32G4xx_HAL_Driver/Src/stm32g4xx_hal_gpio.c ****         GPIOx->OSPEEDR = temp;
 326              		.loc 1 191 35 is_stmt 0 view .LVU126
 327 012c 06FA0CF6 		lsl	r6, r6, ip
 191:Drivers/STM32G4xx_HAL_Driver/Src/stm32g4xx_hal_gpio.c ****         GPIOx->OSPEEDR = temp;
 328              		.loc 1 191 14 view .LVU127
 329 0130 3143     		orrs	r1, r1, r6
 330              	.LVL31:
 192:Drivers/STM32G4xx_HAL_Driver/Src/stm32g4xx_hal_gpio.c **** 
 331              		.loc 1 192 9 is_stmt 1 view .LVU128
 192:Drivers/STM32G4xx_HAL_Driver/Src/stm32g4xx_hal_gpio.c **** 
 332              		.loc 1 192 24 is_stmt 0 view .LVU129
ARM GAS  /tmp/cc6clKC8.s 			page 13


 333 0132 8160     		str	r1, [r0, #8]
 195:Drivers/STM32G4xx_HAL_Driver/Src/stm32g4xx_hal_gpio.c ****         temp &= ~(GPIO_OTYPER_OT0 << position) ;
 334              		.loc 1 195 9 is_stmt 1 view .LVU130
 190:Drivers/STM32G4xx_HAL_Driver/Src/stm32g4xx_hal_gpio.c ****         temp |= (GPIO_Init->Speed << (position * 2U));
 335              		.loc 1 190 17 is_stmt 0 view .LVU131
 336 0134 6FEA0E01 		mvn	r1, lr
 337              	.LVL32:
 195:Drivers/STM32G4xx_HAL_Driver/Src/stm32g4xx_hal_gpio.c ****         temp &= ~(GPIO_OTYPER_OT0 << position) ;
 338              		.loc 1 195 14 view .LVU132
 339 0138 D0F804E0 		ldr	lr, [r0, #4]
 340              	.LVL33:
 196:Drivers/STM32G4xx_HAL_Driver/Src/stm32g4xx_hal_gpio.c ****         temp |= (((GPIO_Init->Mode & OUTPUT_TYPE) >> OUTPUT_TYPE_Pos) << position);
 341              		.loc 1 196 9 is_stmt 1 view .LVU133
 196:Drivers/STM32G4xx_HAL_Driver/Src/stm32g4xx_hal_gpio.c ****         temp |= (((GPIO_Init->Mode & OUTPUT_TYPE) >> OUTPUT_TYPE_Pos) << position);
 342              		.loc 1 196 14 is_stmt 0 view .LVU134
 343 013c 2EEA050E 		bic	lr, lr, r5
 344              	.LVL34:
 197:Drivers/STM32G4xx_HAL_Driver/Src/stm32g4xx_hal_gpio.c ****         GPIOx->OTYPER = temp;
 345              		.loc 1 197 9 is_stmt 1 view .LVU135
 197:Drivers/STM32G4xx_HAL_Driver/Src/stm32g4xx_hal_gpio.c ****         GPIOx->OTYPER = temp;
 346              		.loc 1 197 51 is_stmt 0 view .LVU136
 347 0140 C7F30015 		ubfx	r5, r7, #4, #1
 197:Drivers/STM32G4xx_HAL_Driver/Src/stm32g4xx_hal_gpio.c ****         GPIOx->OTYPER = temp;
 348              		.loc 1 197 71 view .LVU137
 349 0144 9D40     		lsls	r5, r5, r3
 197:Drivers/STM32G4xx_HAL_Driver/Src/stm32g4xx_hal_gpio.c ****         GPIOx->OTYPER = temp;
 350              		.loc 1 197 14 view .LVU138
 351 0146 45EA0E05 		orr	r5, r5, lr
 352              	.LVL35:
 198:Drivers/STM32G4xx_HAL_Driver/Src/stm32g4xx_hal_gpio.c ****       }
 353              		.loc 1 198 9 is_stmt 1 view .LVU139
 198:Drivers/STM32G4xx_HAL_Driver/Src/stm32g4xx_hal_gpio.c ****       }
 354              		.loc 1 198 23 is_stmt 0 view .LVU140
 355 014a 4560     		str	r5, [r0, #4]
 201:Drivers/STM32G4xx_HAL_Driver/Src/stm32g4xx_hal_gpio.c ****       {
 356              		.loc 1 201 7 is_stmt 1 view .LVU141
 357              	.LVL36:
 358              	.L6:
 204:Drivers/STM32G4xx_HAL_Driver/Src/stm32g4xx_hal_gpio.c **** 
 359              		.loc 1 204 9 view .LVU142
 207:Drivers/STM32G4xx_HAL_Driver/Src/stm32g4xx_hal_gpio.c ****         temp &= ~(GPIO_PUPDR_PUPD0 << (position * 2U));
 360              		.loc 1 207 9 view .LVU143
 207:Drivers/STM32G4xx_HAL_Driver/Src/stm32g4xx_hal_gpio.c ****         temp &= ~(GPIO_PUPDR_PUPD0 << (position * 2U));
 361              		.loc 1 207 14 is_stmt 0 view .LVU144
 362 014c C568     		ldr	r5, [r0, #12]
 363              	.LVL37:
 208:Drivers/STM32G4xx_HAL_Driver/Src/stm32g4xx_hal_gpio.c ****         temp |= ((GPIO_Init->Pull) << (position * 2U));
 364              		.loc 1 208 9 is_stmt 1 view .LVU145
 208:Drivers/STM32G4xx_HAL_Driver/Src/stm32g4xx_hal_gpio.c ****         temp |= ((GPIO_Init->Pull) << (position * 2U));
 365              		.loc 1 208 14 is_stmt 0 view .LVU146
 366 014e 05EA010E 		and	lr, r5, r1
 367              	.LVL38:
 209:Drivers/STM32G4xx_HAL_Driver/Src/stm32g4xx_hal_gpio.c ****         GPIOx->PUPDR = temp;
 368              		.loc 1 209 9 is_stmt 1 view .LVU147
 209:Drivers/STM32G4xx_HAL_Driver/Src/stm32g4xx_hal_gpio.c ****         GPIOx->PUPDR = temp;
 369              		.loc 1 209 36 is_stmt 0 view .LVU148
 370 0152 D9F80850 		ldr	r5, [r9, #8]
ARM GAS  /tmp/cc6clKC8.s 			page 14


 371 0156 05FA0CF5 		lsl	r5, r5, ip
 209:Drivers/STM32G4xx_HAL_Driver/Src/stm32g4xx_hal_gpio.c ****         GPIOx->PUPDR = temp;
 372              		.loc 1 209 14 view .LVU149
 373 015a 45EA0E05 		orr	r5, r5, lr
 374              	.LVL39:
 210:Drivers/STM32G4xx_HAL_Driver/Src/stm32g4xx_hal_gpio.c ****       }
 375              		.loc 1 210 9 is_stmt 1 view .LVU150
 214:Drivers/STM32G4xx_HAL_Driver/Src/stm32g4xx_hal_gpio.c ****       {
 376              		.loc 1 214 10 is_stmt 0 view .LVU151
 377 015e 022A     		cmp	r2, #2
 210:Drivers/STM32G4xx_HAL_Driver/Src/stm32g4xx_hal_gpio.c ****       }
 378              		.loc 1 210 22 view .LVU152
 379 0160 C560     		str	r5, [r0, #12]
 214:Drivers/STM32G4xx_HAL_Driver/Src/stm32g4xx_hal_gpio.c ****       {
 380              		.loc 1 214 7 is_stmt 1 view .LVU153
 381 0162 02FA0CF2 		lsl	r2, r2, ip
 214:Drivers/STM32G4xx_HAL_Driver/Src/stm32g4xx_hal_gpio.c ****       {
 382              		.loc 1 214 10 is_stmt 0 view .LVU154
 383 0166 7FF46CAF 		bne	.L8
 217:Drivers/STM32G4xx_HAL_Driver/Src/stm32g4xx_hal_gpio.c ****         assert_param(IS_GPIO_AF(GPIO_Init->Alternate));
 384              		.loc 1 217 9 is_stmt 1 view .LVU155
 218:Drivers/STM32G4xx_HAL_Driver/Src/stm32g4xx_hal_gpio.c **** 
 385              		.loc 1 218 9 view .LVU156
 221:Drivers/STM32G4xx_HAL_Driver/Src/stm32g4xx_hal_gpio.c ****         temp &= ~(0xFU << ((position & 0x07U) * 4U));
 386              		.loc 1 221 9 view .LVU157
 387              	.LVL40:
 222:Drivers/STM32G4xx_HAL_Driver/Src/stm32g4xx_hal_gpio.c ****         temp |= ((GPIO_Init->Alternate) << ((position & 0x07U) * 4U));
 388              		.loc 1 222 9 view .LVU158
 221:Drivers/STM32G4xx_HAL_Driver/Src/stm32g4xx_hal_gpio.c ****         temp &= ~(0xFU << ((position & 0x07U) * 4U));
 389              		.loc 1 221 36 is_stmt 0 view .LVU159
 390 016a DD08     		lsrs	r5, r3, #3
 391 016c 00EB8505 		add	r5, r0, r5, lsl #2
 221:Drivers/STM32G4xx_HAL_Driver/Src/stm32g4xx_hal_gpio.c ****         temp &= ~(0xFU << ((position & 0x07U) * 4U));
 392              		.loc 1 221 14 view .LVU160
 393 0170 0195     		str	r5, [sp, #4]
 394 0172 2E6A     		ldr	r6, [r5, #32]
 395              	.LVL41:
 223:Drivers/STM32G4xx_HAL_Driver/Src/stm32g4xx_hal_gpio.c ****         GPIOx->AFR[position >> 3U] = temp;
 396              		.loc 1 223 41 view .LVU161
 397 0174 D9F81050 		ldr	r5, [r9, #16]
 221:Drivers/STM32G4xx_HAL_Driver/Src/stm32g4xx_hal_gpio.c ****         temp &= ~(0xFU << ((position & 0x07U) * 4U));
 398              		.loc 1 221 14 view .LVU162
 399 0178 0096     		str	r6, [sp]
 222:Drivers/STM32G4xx_HAL_Driver/Src/stm32g4xx_hal_gpio.c ****         temp |= ((GPIO_Init->Alternate) << ((position & 0x07U) * 4U));
 400              		.loc 1 222 38 view .LVU163
 401 017a 03F0070E 		and	lr, r3, #7
 222:Drivers/STM32G4xx_HAL_Driver/Src/stm32g4xx_hal_gpio.c ****         temp |= ((GPIO_Init->Alternate) << ((position & 0x07U) * 4U));
 402              		.loc 1 222 47 view .LVU164
 403 017e 4FEA8E0E 		lsl	lr, lr, #2
 222:Drivers/STM32G4xx_HAL_Driver/Src/stm32g4xx_hal_gpio.c ****         temp |= ((GPIO_Init->Alternate) << ((position & 0x07U) * 4U));
 404              		.loc 1 222 24 view .LVU165
 405 0182 0F26     		movs	r6, #15
 223:Drivers/STM32G4xx_HAL_Driver/Src/stm32g4xx_hal_gpio.c ****         GPIOx->AFR[position >> 3U] = temp;
 406              		.loc 1 223 41 view .LVU166
 407 0184 05FA0EF5 		lsl	r5, r5, lr
 222:Drivers/STM32G4xx_HAL_Driver/Src/stm32g4xx_hal_gpio.c ****         temp |= ((GPIO_Init->Alternate) << ((position & 0x07U) * 4U));
 408              		.loc 1 222 24 view .LVU167
ARM GAS  /tmp/cc6clKC8.s 			page 15


 409 0188 06FA0EFE 		lsl	lr, r6, lr
 222:Drivers/STM32G4xx_HAL_Driver/Src/stm32g4xx_hal_gpio.c ****         temp |= ((GPIO_Init->Alternate) << ((position & 0x07U) * 4U));
 410              		.loc 1 222 14 view .LVU168
 411 018c 009E     		ldr	r6, [sp]
 412 018e 26EA0E0E 		bic	lr, r6, lr
 413              	.LVL42:
 223:Drivers/STM32G4xx_HAL_Driver/Src/stm32g4xx_hal_gpio.c ****         GPIOx->AFR[position >> 3U] = temp;
 414              		.loc 1 223 9 is_stmt 1 view .LVU169
 224:Drivers/STM32G4xx_HAL_Driver/Src/stm32g4xx_hal_gpio.c ****       }
 415              		.loc 1 224 36 is_stmt 0 view .LVU170
 416 0192 019E     		ldr	r6, [sp, #4]
 223:Drivers/STM32G4xx_HAL_Driver/Src/stm32g4xx_hal_gpio.c ****         GPIOx->AFR[position >> 3U] = temp;
 417              		.loc 1 223 14 view .LVU171
 418 0194 45EA0E05 		orr	r5, r5, lr
 419              	.LVL43:
 224:Drivers/STM32G4xx_HAL_Driver/Src/stm32g4xx_hal_gpio.c ****       }
 420              		.loc 1 224 9 is_stmt 1 view .LVU172
 224:Drivers/STM32G4xx_HAL_Driver/Src/stm32g4xx_hal_gpio.c ****       }
 421              		.loc 1 224 36 is_stmt 0 view .LVU173
 422 0198 3562     		str	r5, [r6, #32]
 423 019a 52E7     		b	.L8
 424              	.LVL44:
 425              	.L7:
 190:Drivers/STM32G4xx_HAL_Driver/Src/stm32g4xx_hal_gpio.c ****         temp |= (GPIO_Init->Speed << (position * 2U));
 426              		.loc 1 190 40 view .LVU174
 427 019c 0321     		movs	r1, #3
 428 019e 01FA0CF1 		lsl	r1, r1, ip
 190:Drivers/STM32G4xx_HAL_Driver/Src/stm32g4xx_hal_gpio.c ****         temp |= (GPIO_Init->Speed << (position * 2U));
 429              		.loc 1 190 17 view .LVU175
 430 01a2 C943     		mvns	r1, r1
 431 01a4 D2E7     		b	.L6
 432              	.LVL45:
 433              	.L40:
 242:Drivers/STM32G4xx_HAL_Driver/Src/stm32g4xx_hal_gpio.c ****         SYSCFG->EXTICR[position >> 2U] = temp;
 434              		.loc 1 242 40 view .LVU176
 435 01a6 4FF0030E 		mov	lr, #3
 436 01aa 0EFA05F5 		lsl	r5, lr, r5
 242:Drivers/STM32G4xx_HAL_Driver/Src/stm32g4xx_hal_gpio.c ****         SYSCFG->EXTICR[position >> 2U] = temp;
 437              		.loc 1 242 14 view .LVU177
 438 01ae 2943     		orrs	r1, r1, r5
 439              	.LVL46:
 242:Drivers/STM32G4xx_HAL_Driver/Src/stm32g4xx_hal_gpio.c ****         SYSCFG->EXTICR[position >> 2U] = temp;
 440              		.loc 1 242 14 view .LVU178
 441 01b0 86E7     		b	.L10
 442              	.LVL47:
 443              	.L38:
 242:Drivers/STM32G4xx_HAL_Driver/Src/stm32g4xx_hal_gpio.c ****         SYSCFG->EXTICR[position >> 2U] = temp;
 444              		.loc 1 242 40 view .LVU179
 445 01b2 0BFA05F5 		lsl	r5, fp, r5
 242:Drivers/STM32G4xx_HAL_Driver/Src/stm32g4xx_hal_gpio.c ****         SYSCFG->EXTICR[position >> 2U] = temp;
 446              		.loc 1 242 14 view .LVU180
 447 01b6 2943     		orrs	r1, r1, r5
 448              	.LVL48:
 242:Drivers/STM32G4xx_HAL_Driver/Src/stm32g4xx_hal_gpio.c ****         SYSCFG->EXTICR[position >> 2U] = temp;
 449              		.loc 1 242 14 view .LVU181
 450 01b8 82E7     		b	.L10
 451              	.LVL49:
ARM GAS  /tmp/cc6clKC8.s 			page 16


 452              	.L39:
 242:Drivers/STM32G4xx_HAL_Driver/Src/stm32g4xx_hal_gpio.c ****         SYSCFG->EXTICR[position >> 2U] = temp;
 453              		.loc 1 242 40 view .LVU182
 454 01ba 4FF0020E 		mov	lr, #2
 455 01be 0EFA05F5 		lsl	r5, lr, r5
 242:Drivers/STM32G4xx_HAL_Driver/Src/stm32g4xx_hal_gpio.c ****         SYSCFG->EXTICR[position >> 2U] = temp;
 456              		.loc 1 242 14 view .LVU183
 457 01c2 2943     		orrs	r1, r1, r5
 458              	.LVL50:
 242:Drivers/STM32G4xx_HAL_Driver/Src/stm32g4xx_hal_gpio.c ****         SYSCFG->EXTICR[position >> 2U] = temp;
 459              		.loc 1 242 14 view .LVU184
 460 01c4 7CE7     		b	.L10
 461              	.LVL51:
 462              	.L41:
 242:Drivers/STM32G4xx_HAL_Driver/Src/stm32g4xx_hal_gpio.c ****         SYSCFG->EXTICR[position >> 2U] = temp;
 463              		.loc 1 242 40 view .LVU185
 464 01c6 4FF0040E 		mov	lr, #4
 465 01ca 0EFA05F5 		lsl	r5, lr, r5
 242:Drivers/STM32G4xx_HAL_Driver/Src/stm32g4xx_hal_gpio.c ****         SYSCFG->EXTICR[position >> 2U] = temp;
 466              		.loc 1 242 14 view .LVU186
 467 01ce 2943     		orrs	r1, r1, r5
 468              	.LVL52:
 242:Drivers/STM32G4xx_HAL_Driver/Src/stm32g4xx_hal_gpio.c ****         SYSCFG->EXTICR[position >> 2U] = temp;
 469              		.loc 1 242 14 view .LVU187
 470 01d0 76E7     		b	.L10
 471              	.L43:
 472 01d2 00BF     		.align	2
 473              	.L42:
 474 01d4 00040048 		.word	1207960576
 475 01d8 00080048 		.word	1207961600
 476 01dc 000C0048 		.word	1207962624
 477 01e0 00100048 		.word	1207963648
 478 01e4 00140048 		.word	1207964672
 479 01e8 00040140 		.word	1073808384
 480 01ec 00100240 		.word	1073876992
 481              		.cfi_endproc
 482              	.LFE132:
 484              		.section	.text.HAL_GPIO_DeInit,"ax",%progbits
 485              		.align	1
 486              		.p2align 2,,3
 487              		.global	HAL_GPIO_DeInit
 488              		.syntax unified
 489              		.thumb
 490              		.thumb_func
 491              		.fpu fpv4-sp-d16
 493              	HAL_GPIO_DeInit:
 494              	.LVL53:
 495              	.LFB133:
 284:Drivers/STM32G4xx_HAL_Driver/Src/stm32g4xx_hal_gpio.c **** 
 285:Drivers/STM32G4xx_HAL_Driver/Src/stm32g4xx_hal_gpio.c **** /**
 286:Drivers/STM32G4xx_HAL_Driver/Src/stm32g4xx_hal_gpio.c ****   * @brief  De-initialize the GPIOx peripheral registers to their default reset values.
 287:Drivers/STM32G4xx_HAL_Driver/Src/stm32g4xx_hal_gpio.c ****   * @param  GPIOx where x can be (A..G) to select the GPIO peripheral for STM32G4xx family
 288:Drivers/STM32G4xx_HAL_Driver/Src/stm32g4xx_hal_gpio.c ****   * @param  GPIO_Pin specifies the port bit to be written.
 289:Drivers/STM32G4xx_HAL_Driver/Src/stm32g4xx_hal_gpio.c ****   *         This parameter can be any combination of GPIO_PIN_x where x can be (0..15).
 290:Drivers/STM32G4xx_HAL_Driver/Src/stm32g4xx_hal_gpio.c ****   * @retval None
 291:Drivers/STM32G4xx_HAL_Driver/Src/stm32g4xx_hal_gpio.c ****   */
 292:Drivers/STM32G4xx_HAL_Driver/Src/stm32g4xx_hal_gpio.c **** void HAL_GPIO_DeInit(GPIO_TypeDef  *GPIOx, uint32_t GPIO_Pin)
ARM GAS  /tmp/cc6clKC8.s 			page 17


 293:Drivers/STM32G4xx_HAL_Driver/Src/stm32g4xx_hal_gpio.c **** {
 496              		.loc 1 293 1 is_stmt 1 view -0
 497              		.cfi_startproc
 498              		@ args = 0, pretend = 0, frame = 0
 499              		@ frame_needed = 0, uses_anonymous_args = 0
 294:Drivers/STM32G4xx_HAL_Driver/Src/stm32g4xx_hal_gpio.c ****   uint32_t position = 0x00U;
 500              		.loc 1 294 3 view .LVU189
 295:Drivers/STM32G4xx_HAL_Driver/Src/stm32g4xx_hal_gpio.c ****   uint32_t iocurrent;
 501              		.loc 1 295 3 view .LVU190
 296:Drivers/STM32G4xx_HAL_Driver/Src/stm32g4xx_hal_gpio.c ****   uint32_t tmp;
 502              		.loc 1 296 3 view .LVU191
 297:Drivers/STM32G4xx_HAL_Driver/Src/stm32g4xx_hal_gpio.c **** 
 298:Drivers/STM32G4xx_HAL_Driver/Src/stm32g4xx_hal_gpio.c ****   /* Check the parameters */
 299:Drivers/STM32G4xx_HAL_Driver/Src/stm32g4xx_hal_gpio.c ****   assert_param(IS_GPIO_ALL_INSTANCE(GPIOx));
 503              		.loc 1 299 3 view .LVU192
 300:Drivers/STM32G4xx_HAL_Driver/Src/stm32g4xx_hal_gpio.c ****   assert_param(IS_GPIO_PIN(GPIO_Pin));
 504              		.loc 1 300 3 view .LVU193
 301:Drivers/STM32G4xx_HAL_Driver/Src/stm32g4xx_hal_gpio.c **** 
 302:Drivers/STM32G4xx_HAL_Driver/Src/stm32g4xx_hal_gpio.c ****   /* Configure the port pins */
 303:Drivers/STM32G4xx_HAL_Driver/Src/stm32g4xx_hal_gpio.c ****   while ((GPIO_Pin >> position) != 0U)
 505              		.loc 1 303 3 view .LVU194
 506              		.loc 1 303 9 view .LVU195
 507 0000 0029     		cmp	r1, #0
 508 0002 00F08280 		beq	.L62
 293:Drivers/STM32G4xx_HAL_Driver/Src/stm32g4xx_hal_gpio.c ****   uint32_t position = 0x00U;
 509              		.loc 1 293 1 is_stmt 0 view .LVU196
 510 0006 2DE9F04F 		push	{r4, r5, r6, r7, r8, r9, r10, fp, lr}
 511              	.LCFI4:
 512              		.cfi_def_cfa_offset 36
 513              		.cfi_offset 4, -36
 514              		.cfi_offset 5, -32
 515              		.cfi_offset 6, -28
 516              		.cfi_offset 7, -24
 517              		.cfi_offset 8, -20
 518              		.cfi_offset 9, -16
 519              		.cfi_offset 10, -12
 520              		.cfi_offset 11, -8
 521              		.cfi_offset 14, -4
 294:Drivers/STM32G4xx_HAL_Driver/Src/stm32g4xx_hal_gpio.c ****   uint32_t iocurrent;
 522              		.loc 1 294 12 view .LVU197
 523 000a 0023     		movs	r3, #0
 304:Drivers/STM32G4xx_HAL_Driver/Src/stm32g4xx_hal_gpio.c ****   {
 305:Drivers/STM32G4xx_HAL_Driver/Src/stm32g4xx_hal_gpio.c ****     /* Get current io position */
 306:Drivers/STM32G4xx_HAL_Driver/Src/stm32g4xx_hal_gpio.c ****     iocurrent = (GPIO_Pin) & (1UL << position);
 307:Drivers/STM32G4xx_HAL_Driver/Src/stm32g4xx_hal_gpio.c **** 
 308:Drivers/STM32G4xx_HAL_Driver/Src/stm32g4xx_hal_gpio.c ****     if (iocurrent != 0x00u)
 309:Drivers/STM32G4xx_HAL_Driver/Src/stm32g4xx_hal_gpio.c ****     {
 310:Drivers/STM32G4xx_HAL_Driver/Src/stm32g4xx_hal_gpio.c ****       /*------------------------- EXTI Mode Configuration --------------------*/
 311:Drivers/STM32G4xx_HAL_Driver/Src/stm32g4xx_hal_gpio.c ****       /* Clear the External Interrupt or Event for the current IO */
 312:Drivers/STM32G4xx_HAL_Driver/Src/stm32g4xx_hal_gpio.c **** 
 313:Drivers/STM32G4xx_HAL_Driver/Src/stm32g4xx_hal_gpio.c ****       tmp = SYSCFG->EXTICR[position >> 2U];
 314:Drivers/STM32G4xx_HAL_Driver/Src/stm32g4xx_hal_gpio.c ****       tmp &= (0x0FUL << (4U * (position & 0x03U)));
 315:Drivers/STM32G4xx_HAL_Driver/Src/stm32g4xx_hal_gpio.c ****       if (tmp == (GPIO_GET_INDEX(GPIOx) << (4U * (position & 0x03U))))
 316:Drivers/STM32G4xx_HAL_Driver/Src/stm32g4xx_hal_gpio.c ****       {
 317:Drivers/STM32G4xx_HAL_Driver/Src/stm32g4xx_hal_gpio.c ****         /* Clear EXTI line configuration */
 318:Drivers/STM32G4xx_HAL_Driver/Src/stm32g4xx_hal_gpio.c ****         EXTI->IMR1 &= ~(iocurrent);
 524              		.loc 1 318 20 view .LVU198
ARM GAS  /tmp/cc6clKC8.s 			page 18


 525 000c 3F4E     		ldr	r6, .L71
 315:Drivers/STM32G4xx_HAL_Driver/Src/stm32g4xx_hal_gpio.c ****       {
 526              		.loc 1 315 19 view .LVU199
 527 000e DFF810B1 		ldr	fp, .L71+20
 314:Drivers/STM32G4xx_HAL_Driver/Src/stm32g4xx_hal_gpio.c ****       if (tmp == (GPIO_GET_INDEX(GPIOx) << (4U * (position & 0x03U))))
 528              		.loc 1 314 22 view .LVU200
 529 0012 4FF00F09 		mov	r9, #15
 319:Drivers/STM32G4xx_HAL_Driver/Src/stm32g4xx_hal_gpio.c ****         EXTI->EMR1 &= ~(iocurrent);
 320:Drivers/STM32G4xx_HAL_Driver/Src/stm32g4xx_hal_gpio.c **** 
 321:Drivers/STM32G4xx_HAL_Driver/Src/stm32g4xx_hal_gpio.c ****         /* Clear Rising Falling edge configuration */
 322:Drivers/STM32G4xx_HAL_Driver/Src/stm32g4xx_hal_gpio.c ****         EXTI->FTSR1 &= ~(iocurrent);
 323:Drivers/STM32G4xx_HAL_Driver/Src/stm32g4xx_hal_gpio.c ****         EXTI->RTSR1 &= ~(iocurrent);
 324:Drivers/STM32G4xx_HAL_Driver/Src/stm32g4xx_hal_gpio.c **** 
 325:Drivers/STM32G4xx_HAL_Driver/Src/stm32g4xx_hal_gpio.c ****         tmp = 0x0FUL << (4U * (position & 0x03U));
 326:Drivers/STM32G4xx_HAL_Driver/Src/stm32g4xx_hal_gpio.c ****         SYSCFG->EXTICR[position >> 2U] &= ~tmp;
 327:Drivers/STM32G4xx_HAL_Driver/Src/stm32g4xx_hal_gpio.c ****       }
 328:Drivers/STM32G4xx_HAL_Driver/Src/stm32g4xx_hal_gpio.c **** 
 329:Drivers/STM32G4xx_HAL_Driver/Src/stm32g4xx_hal_gpio.c ****       /*------------------------- GPIO Mode Configuration --------------------*/
 330:Drivers/STM32G4xx_HAL_Driver/Src/stm32g4xx_hal_gpio.c ****       /* Configure IO in Analog Mode */
 331:Drivers/STM32G4xx_HAL_Driver/Src/stm32g4xx_hal_gpio.c ****       GPIOx->MODER |= (GPIO_MODER_MODE0 << (position * 2u));
 530              		.loc 1 331 41 view .LVU201
 531 0016 4FF0030A 		mov	r10, #3
 532 001a 4CE0     		b	.L45
 533              	.LVL54:
 534              	.L70:
 315:Drivers/STM32G4xx_HAL_Driver/Src/stm32g4xx_hal_gpio.c ****       {
 535              		.loc 1 315 19 discriminator 1 view .LVU202
 536 001c 5845     		cmp	r0, fp
 537 001e 65D0     		beq	.L65
 315:Drivers/STM32G4xx_HAL_Driver/Src/stm32g4xx_hal_gpio.c ****       {
 538              		.loc 1 315 19 discriminator 3 view .LVU203
 539 0020 3B4F     		ldr	r7, .L71+4
 540 0022 B842     		cmp	r0, r7
 541 0024 66D0     		beq	.L66
 315:Drivers/STM32G4xx_HAL_Driver/Src/stm32g4xx_hal_gpio.c ****       {
 542              		.loc 1 315 19 discriminator 5 view .LVU204
 543 0026 3B4F     		ldr	r7, .L71+8
 544 0028 B842     		cmp	r0, r7
 545 002a 67D0     		beq	.L67
 315:Drivers/STM32G4xx_HAL_Driver/Src/stm32g4xx_hal_gpio.c ****       {
 546              		.loc 1 315 19 discriminator 7 view .LVU205
 547 002c 3A4F     		ldr	r7, .L71+12
 548 002e B842     		cmp	r0, r7
 549 0030 67D0     		beq	.L68
 315:Drivers/STM32G4xx_HAL_Driver/Src/stm32g4xx_hal_gpio.c ****       {
 550              		.loc 1 315 19 discriminator 9 view .LVU206
 551 0032 3A4F     		ldr	r7, .L71+16
 552 0034 B842     		cmp	r0, r7
 315:Drivers/STM32G4xx_HAL_Driver/Src/stm32g4xx_hal_gpio.c ****       {
 553              		.loc 1 315 41 discriminator 9 view .LVU207
 554 0036 14BF     		ite	ne
 555 0038 0627     		movne	r7, #6
 556 003a 0527     		moveq	r7, #5
 557 003c 07FA04F4 		lsl	r4, r7, r4
 558              	.L47:
 315:Drivers/STM32G4xx_HAL_Driver/Src/stm32g4xx_hal_gpio.c ****       {
 559              		.loc 1 315 10 discriminator 24 view .LVU208
ARM GAS  /tmp/cc6clKC8.s 			page 19


 560 0040 A445     		cmp	ip, r4
 561 0042 13D1     		bne	.L53
 318:Drivers/STM32G4xx_HAL_Driver/Src/stm32g4xx_hal_gpio.c ****         EXTI->EMR1 &= ~(iocurrent);
 562              		.loc 1 318 9 is_stmt 1 view .LVU209
 318:Drivers/STM32G4xx_HAL_Driver/Src/stm32g4xx_hal_gpio.c ****         EXTI->EMR1 &= ~(iocurrent);
 563              		.loc 1 318 20 is_stmt 0 view .LVU210
 564 0044 3468     		ldr	r4, [r6]
 565 0046 24EA0E04 		bic	r4, r4, lr
 566 004a 3460     		str	r4, [r6]
 319:Drivers/STM32G4xx_HAL_Driver/Src/stm32g4xx_hal_gpio.c ****         EXTI->EMR1 &= ~(iocurrent);
 567              		.loc 1 319 9 is_stmt 1 view .LVU211
 319:Drivers/STM32G4xx_HAL_Driver/Src/stm32g4xx_hal_gpio.c ****         EXTI->EMR1 &= ~(iocurrent);
 568              		.loc 1 319 20 is_stmt 0 view .LVU212
 569 004c 7468     		ldr	r4, [r6, #4]
 570 004e 24EA0E04 		bic	r4, r4, lr
 571 0052 7460     		str	r4, [r6, #4]
 322:Drivers/STM32G4xx_HAL_Driver/Src/stm32g4xx_hal_gpio.c ****         EXTI->RTSR1 &= ~(iocurrent);
 572              		.loc 1 322 9 is_stmt 1 view .LVU213
 322:Drivers/STM32G4xx_HAL_Driver/Src/stm32g4xx_hal_gpio.c ****         EXTI->RTSR1 &= ~(iocurrent);
 573              		.loc 1 322 21 is_stmt 0 view .LVU214
 574 0054 F468     		ldr	r4, [r6, #12]
 575 0056 24EA0E04 		bic	r4, r4, lr
 576 005a F460     		str	r4, [r6, #12]
 323:Drivers/STM32G4xx_HAL_Driver/Src/stm32g4xx_hal_gpio.c **** 
 577              		.loc 1 323 9 is_stmt 1 view .LVU215
 323:Drivers/STM32G4xx_HAL_Driver/Src/stm32g4xx_hal_gpio.c **** 
 578              		.loc 1 323 21 is_stmt 0 view .LVU216
 579 005c B468     		ldr	r4, [r6, #8]
 580 005e 24EA0E04 		bic	r4, r4, lr
 581 0062 B460     		str	r4, [r6, #8]
 325:Drivers/STM32G4xx_HAL_Driver/Src/stm32g4xx_hal_gpio.c ****         SYSCFG->EXTICR[position >> 2U] &= ~tmp;
 582              		.loc 1 325 9 is_stmt 1 view .LVU217
 583              	.LVL55:
 326:Drivers/STM32G4xx_HAL_Driver/Src/stm32g4xx_hal_gpio.c ****       }
 584              		.loc 1 326 9 view .LVU218
 326:Drivers/STM32G4xx_HAL_Driver/Src/stm32g4xx_hal_gpio.c ****       }
 585              		.loc 1 326 40 is_stmt 0 view .LVU219
 586 0064 AC68     		ldr	r4, [r5, #8]
 587 0066 24EA0804 		bic	r4, r4, r8
 588 006a AC60     		str	r4, [r5, #8]
 589              	.LVL56:
 590              	.L53:
 591              		.loc 1 331 7 is_stmt 1 view .LVU220
 592              		.loc 1 331 20 is_stmt 0 view .LVU221
 593 006c 0568     		ldr	r5, [r0]
 594              		.loc 1 331 41 view .LVU222
 595 006e 5C00     		lsls	r4, r3, #1
 596 0070 0AFA04F4 		lsl	r4, r10, r4
 332:Drivers/STM32G4xx_HAL_Driver/Src/stm32g4xx_hal_gpio.c **** 
 333:Drivers/STM32G4xx_HAL_Driver/Src/stm32g4xx_hal_gpio.c ****       /* Configure the default Alternate Function in current IO */
 334:Drivers/STM32G4xx_HAL_Driver/Src/stm32g4xx_hal_gpio.c ****       GPIOx->AFR[position >> 3u] &= ~(0xFu << ((position & 0x07u) * 4u));
 597              		.loc 1 334 34 view .LVU223
 598 0074 4FEAD30C 		lsr	ip, r3, #3
 331:Drivers/STM32G4xx_HAL_Driver/Src/stm32g4xx_hal_gpio.c **** 
 599              		.loc 1 331 20 view .LVU224
 600 0078 2543     		orrs	r5, r5, r4
 601 007a 00EB8C0C 		add	ip, r0, ip, lsl #2
ARM GAS  /tmp/cc6clKC8.s 			page 20


 602 007e 0560     		str	r5, [r0]
 603              		.loc 1 334 7 is_stmt 1 view .LVU225
 604              		.loc 1 334 58 is_stmt 0 view .LVU226
 605 0080 03F00705 		and	r5, r3, #7
 606              		.loc 1 334 34 view .LVU227
 607 0084 DCF820E0 		ldr	lr, [ip, #32]
 608              	.LVL57:
 609              		.loc 1 334 67 view .LVU228
 610 0088 AD00     		lsls	r5, r5, #2
 611              		.loc 1 334 44 view .LVU229
 612 008a 09FA05F5 		lsl	r5, r9, r5
 613              		.loc 1 334 34 view .LVU230
 614 008e 2EEA0505 		bic	r5, lr, r5
 615 0092 CCF82050 		str	r5, [ip, #32]
 335:Drivers/STM32G4xx_HAL_Driver/Src/stm32g4xx_hal_gpio.c **** 
 336:Drivers/STM32G4xx_HAL_Driver/Src/stm32g4xx_hal_gpio.c ****       /* Deactivate the Pull-up and Pull-down resistor for the current IO */
 337:Drivers/STM32G4xx_HAL_Driver/Src/stm32g4xx_hal_gpio.c ****       GPIOx->PUPDR &= ~(GPIO_PUPDR_PUPD0 << (position * 2u));
 616              		.loc 1 337 7 is_stmt 1 view .LVU231
 617              		.loc 1 337 20 is_stmt 0 view .LVU232
 618 0096 C568     		ldr	r5, [r0, #12]
 619 0098 25EA0405 		bic	r5, r5, r4
 620 009c C560     		str	r5, [r0, #12]
 338:Drivers/STM32G4xx_HAL_Driver/Src/stm32g4xx_hal_gpio.c **** 
 339:Drivers/STM32G4xx_HAL_Driver/Src/stm32g4xx_hal_gpio.c ****       /* Configure the default value IO Output Type */
 340:Drivers/STM32G4xx_HAL_Driver/Src/stm32g4xx_hal_gpio.c ****       GPIOx->OTYPER  &= ~(GPIO_OTYPER_OT0 << position);
 621              		.loc 1 340 7 is_stmt 1 view .LVU233
 622              		.loc 1 340 22 is_stmt 0 view .LVU234
 623 009e 4568     		ldr	r5, [r0, #4]
 624 00a0 25EA0202 		bic	r2, r5, r2
 625              	.LVL58:
 626              		.loc 1 340 22 view .LVU235
 627 00a4 4260     		str	r2, [r0, #4]
 341:Drivers/STM32G4xx_HAL_Driver/Src/stm32g4xx_hal_gpio.c **** 
 342:Drivers/STM32G4xx_HAL_Driver/Src/stm32g4xx_hal_gpio.c ****       /* Configure the default value for IO Speed */
 343:Drivers/STM32G4xx_HAL_Driver/Src/stm32g4xx_hal_gpio.c ****       GPIOx->OSPEEDR &= ~(GPIO_OSPEEDR_OSPEED0 << (position * 2u));
 628              		.loc 1 343 7 is_stmt 1 view .LVU236
 629              		.loc 1 343 22 is_stmt 0 view .LVU237
 630 00a6 8268     		ldr	r2, [r0, #8]
 631 00a8 22EA0404 		bic	r4, r2, r4
 632 00ac 8460     		str	r4, [r0, #8]
 633              	.L46:
 344:Drivers/STM32G4xx_HAL_Driver/Src/stm32g4xx_hal_gpio.c ****     }
 345:Drivers/STM32G4xx_HAL_Driver/Src/stm32g4xx_hal_gpio.c **** 
 346:Drivers/STM32G4xx_HAL_Driver/Src/stm32g4xx_hal_gpio.c ****     position++;
 634              		.loc 1 346 5 is_stmt 1 view .LVU238
 635              		.loc 1 346 13 is_stmt 0 view .LVU239
 636 00ae 0133     		adds	r3, r3, #1
 637              	.LVL59:
 303:Drivers/STM32G4xx_HAL_Driver/Src/stm32g4xx_hal_gpio.c ****   {
 638              		.loc 1 303 9 is_stmt 1 view .LVU240
 639 00b0 31FA03F2 		lsrs	r2, r1, r3
 640 00b4 18D0     		beq	.L69
 641              	.LVL60:
 642              	.L45:
 306:Drivers/STM32G4xx_HAL_Driver/Src/stm32g4xx_hal_gpio.c **** 
 643              		.loc 1 306 5 view .LVU241
 306:Drivers/STM32G4xx_HAL_Driver/Src/stm32g4xx_hal_gpio.c **** 
ARM GAS  /tmp/cc6clKC8.s 			page 21


 644              		.loc 1 306 35 is_stmt 0 view .LVU242
 645 00b6 0122     		movs	r2, #1
 646 00b8 9A40     		lsls	r2, r2, r3
 647              	.LVL61:
 308:Drivers/STM32G4xx_HAL_Driver/Src/stm32g4xx_hal_gpio.c ****     {
 648              		.loc 1 308 5 is_stmt 1 view .LVU243
 308:Drivers/STM32G4xx_HAL_Driver/Src/stm32g4xx_hal_gpio.c ****     {
 649              		.loc 1 308 8 is_stmt 0 view .LVU244
 650 00ba 12EA010E 		ands	lr, r2, r1
 651              	.LVL62:
 308:Drivers/STM32G4xx_HAL_Driver/Src/stm32g4xx_hal_gpio.c ****     {
 652              		.loc 1 308 8 view .LVU245
 653 00be F6D0     		beq	.L46
 313:Drivers/STM32G4xx_HAL_Driver/Src/stm32g4xx_hal_gpio.c ****       tmp &= (0x0FUL << (4U * (position & 0x03U)));
 654              		.loc 1 313 7 is_stmt 1 view .LVU246
 655 00c0 23F00305 		bic	r5, r3, #3
 656 00c4 05F18045 		add	r5, r5, #1073741824
 657 00c8 05F58035 		add	r5, r5, #65536
 314:Drivers/STM32G4xx_HAL_Driver/Src/stm32g4xx_hal_gpio.c ****       if (tmp == (GPIO_GET_INDEX(GPIOx) << (4U * (position & 0x03U))))
 658              		.loc 1 314 41 is_stmt 0 view .LVU247
 659 00cc 03F00304 		and	r4, r3, #3
 313:Drivers/STM32G4xx_HAL_Driver/Src/stm32g4xx_hal_gpio.c ****       tmp &= (0x0FUL << (4U * (position & 0x03U)));
 660              		.loc 1 313 11 view .LVU248
 661 00d0 D5F808C0 		ldr	ip, [r5, #8]
 662              	.LVL63:
 314:Drivers/STM32G4xx_HAL_Driver/Src/stm32g4xx_hal_gpio.c ****       if (tmp == (GPIO_GET_INDEX(GPIOx) << (4U * (position & 0x03U))))
 663              		.loc 1 314 7 is_stmt 1 view .LVU249
 314:Drivers/STM32G4xx_HAL_Driver/Src/stm32g4xx_hal_gpio.c ****       if (tmp == (GPIO_GET_INDEX(GPIOx) << (4U * (position & 0x03U))))
 664              		.loc 1 314 29 is_stmt 0 view .LVU250
 665 00d4 A400     		lsls	r4, r4, #2
 314:Drivers/STM32G4xx_HAL_Driver/Src/stm32g4xx_hal_gpio.c ****       if (tmp == (GPIO_GET_INDEX(GPIOx) << (4U * (position & 0x03U))))
 666              		.loc 1 314 22 view .LVU251
 667 00d6 09FA04F8 		lsl	r8, r9, r4
 315:Drivers/STM32G4xx_HAL_Driver/Src/stm32g4xx_hal_gpio.c ****       {
 668              		.loc 1 315 19 view .LVU252
 669 00da B0F1904F 		cmp	r0, #1207959552
 314:Drivers/STM32G4xx_HAL_Driver/Src/stm32g4xx_hal_gpio.c ****       if (tmp == (GPIO_GET_INDEX(GPIOx) << (4U * (position & 0x03U))))
 670              		.loc 1 314 11 view .LVU253
 671 00de 08EA0C0C 		and	ip, r8, ip
 672              	.LVL64:
 315:Drivers/STM32G4xx_HAL_Driver/Src/stm32g4xx_hal_gpio.c ****       {
 673              		.loc 1 315 7 is_stmt 1 view .LVU254
 315:Drivers/STM32G4xx_HAL_Driver/Src/stm32g4xx_hal_gpio.c ****       {
 674              		.loc 1 315 19 is_stmt 0 view .LVU255
 675 00e2 9BD1     		bne	.L70
 676 00e4 0024     		movs	r4, #0
 677 00e6 ABE7     		b	.L47
 678              	.LVL65:
 679              	.L69:
 347:Drivers/STM32G4xx_HAL_Driver/Src/stm32g4xx_hal_gpio.c ****   }
 348:Drivers/STM32G4xx_HAL_Driver/Src/stm32g4xx_hal_gpio.c **** }
 680              		.loc 1 348 1 view .LVU256
 681 00e8 BDE8F08F 		pop	{r4, r5, r6, r7, r8, r9, r10, fp, pc}
 682              	.LVL66:
 683              	.L65:
 315:Drivers/STM32G4xx_HAL_Driver/Src/stm32g4xx_hal_gpio.c ****       {
 684              		.loc 1 315 41 view .LVU257
ARM GAS  /tmp/cc6clKC8.s 			page 22


 685 00ec 0127     		movs	r7, #1
 686 00ee 07FA04F4 		lsl	r4, r7, r4
 687 00f2 A5E7     		b	.L47
 688              	.L66:
 689 00f4 0227     		movs	r7, #2
 690 00f6 07FA04F4 		lsl	r4, r7, r4
 691 00fa A1E7     		b	.L47
 692              	.L67:
 693 00fc 0AFA04F4 		lsl	r4, r10, r4
 694 0100 9EE7     		b	.L47
 695              	.L68:
 696 0102 0427     		movs	r7, #4
 697 0104 07FA04F4 		lsl	r4, r7, r4
 698 0108 9AE7     		b	.L47
 699              	.LVL67:
 700              	.L62:
 701              	.LCFI5:
 702              		.cfi_def_cfa_offset 0
 703              		.cfi_restore 4
 704              		.cfi_restore 5
 705              		.cfi_restore 6
 706              		.cfi_restore 7
 707              		.cfi_restore 8
 708              		.cfi_restore 9
 709              		.cfi_restore 10
 710              		.cfi_restore 11
 711              		.cfi_restore 14
 315:Drivers/STM32G4xx_HAL_Driver/Src/stm32g4xx_hal_gpio.c ****       {
 712              		.loc 1 315 41 view .LVU258
 713 010a 7047     		bx	lr
 714              	.L72:
 715              		.align	2
 716              	.L71:
 717 010c 00040140 		.word	1073808384
 718 0110 00080048 		.word	1207961600
 719 0114 000C0048 		.word	1207962624
 720 0118 00100048 		.word	1207963648
 721 011c 00140048 		.word	1207964672
 722 0120 00040048 		.word	1207960576
 723              		.cfi_endproc
 724              	.LFE133:
 726              		.section	.text.HAL_GPIO_ReadPin,"ax",%progbits
 727              		.align	1
 728              		.p2align 2,,3
 729              		.global	HAL_GPIO_ReadPin
 730              		.syntax unified
 731              		.thumb
 732              		.thumb_func
 733              		.fpu fpv4-sp-d16
 735              	HAL_GPIO_ReadPin:
 736              	.LVL68:
 737              	.LFB134:
 349:Drivers/STM32G4xx_HAL_Driver/Src/stm32g4xx_hal_gpio.c **** 
 350:Drivers/STM32G4xx_HAL_Driver/Src/stm32g4xx_hal_gpio.c **** /**
 351:Drivers/STM32G4xx_HAL_Driver/Src/stm32g4xx_hal_gpio.c ****   * @}
 352:Drivers/STM32G4xx_HAL_Driver/Src/stm32g4xx_hal_gpio.c ****   */
 353:Drivers/STM32G4xx_HAL_Driver/Src/stm32g4xx_hal_gpio.c **** 
ARM GAS  /tmp/cc6clKC8.s 			page 23


 354:Drivers/STM32G4xx_HAL_Driver/Src/stm32g4xx_hal_gpio.c **** /** @addtogroup GPIO_Exported_Functions_Group2
 355:Drivers/STM32G4xx_HAL_Driver/Src/stm32g4xx_hal_gpio.c ****   *  @brief GPIO Read, Write, Toggle, Lock and EXTI management functions.
 356:Drivers/STM32G4xx_HAL_Driver/Src/stm32g4xx_hal_gpio.c ****   *
 357:Drivers/STM32G4xx_HAL_Driver/Src/stm32g4xx_hal_gpio.c **** @verbatim
 358:Drivers/STM32G4xx_HAL_Driver/Src/stm32g4xx_hal_gpio.c ****  ===============================================================================
 359:Drivers/STM32G4xx_HAL_Driver/Src/stm32g4xx_hal_gpio.c ****                        ##### IO operation functions #####
 360:Drivers/STM32G4xx_HAL_Driver/Src/stm32g4xx_hal_gpio.c ****  ===============================================================================
 361:Drivers/STM32G4xx_HAL_Driver/Src/stm32g4xx_hal_gpio.c **** 
 362:Drivers/STM32G4xx_HAL_Driver/Src/stm32g4xx_hal_gpio.c **** @endverbatim
 363:Drivers/STM32G4xx_HAL_Driver/Src/stm32g4xx_hal_gpio.c ****   * @{
 364:Drivers/STM32G4xx_HAL_Driver/Src/stm32g4xx_hal_gpio.c ****   */
 365:Drivers/STM32G4xx_HAL_Driver/Src/stm32g4xx_hal_gpio.c **** 
 366:Drivers/STM32G4xx_HAL_Driver/Src/stm32g4xx_hal_gpio.c **** /**
 367:Drivers/STM32G4xx_HAL_Driver/Src/stm32g4xx_hal_gpio.c ****   * @brief  Read the specified input port pin.
 368:Drivers/STM32G4xx_HAL_Driver/Src/stm32g4xx_hal_gpio.c ****   * @param  GPIOx where x can be (A..G) to select the GPIO peripheral for STM32G4xx family
 369:Drivers/STM32G4xx_HAL_Driver/Src/stm32g4xx_hal_gpio.c ****   * @param  GPIO_Pin specifies the port bit to read.
 370:Drivers/STM32G4xx_HAL_Driver/Src/stm32g4xx_hal_gpio.c ****   *         This parameter can be any combination of GPIO_PIN_x where x can be (0..15).
 371:Drivers/STM32G4xx_HAL_Driver/Src/stm32g4xx_hal_gpio.c ****   * @retval The input port pin value.
 372:Drivers/STM32G4xx_HAL_Driver/Src/stm32g4xx_hal_gpio.c ****   */
 373:Drivers/STM32G4xx_HAL_Driver/Src/stm32g4xx_hal_gpio.c **** GPIO_PinState HAL_GPIO_ReadPin(GPIO_TypeDef *GPIOx, uint16_t GPIO_Pin)
 374:Drivers/STM32G4xx_HAL_Driver/Src/stm32g4xx_hal_gpio.c **** {
 738              		.loc 1 374 1 is_stmt 1 view -0
 739              		.cfi_startproc
 740              		@ args = 0, pretend = 0, frame = 0
 741              		@ frame_needed = 0, uses_anonymous_args = 0
 742              		@ link register save eliminated.
 375:Drivers/STM32G4xx_HAL_Driver/Src/stm32g4xx_hal_gpio.c ****   GPIO_PinState bitstatus;
 743              		.loc 1 375 3 view .LVU260
 376:Drivers/STM32G4xx_HAL_Driver/Src/stm32g4xx_hal_gpio.c **** 
 377:Drivers/STM32G4xx_HAL_Driver/Src/stm32g4xx_hal_gpio.c ****   /* Check the parameters */
 378:Drivers/STM32G4xx_HAL_Driver/Src/stm32g4xx_hal_gpio.c ****   assert_param(IS_GPIO_PIN(GPIO_Pin));
 744              		.loc 1 378 3 view .LVU261
 379:Drivers/STM32G4xx_HAL_Driver/Src/stm32g4xx_hal_gpio.c **** 
 380:Drivers/STM32G4xx_HAL_Driver/Src/stm32g4xx_hal_gpio.c ****   if ((GPIOx->IDR & GPIO_Pin) != 0x00U)
 745              		.loc 1 380 3 view .LVU262
 746              		.loc 1 380 13 is_stmt 0 view .LVU263
 747 0000 0369     		ldr	r3, [r0, #16]
 748              	.LVL69:
 381:Drivers/STM32G4xx_HAL_Driver/Src/stm32g4xx_hal_gpio.c ****   {
 382:Drivers/STM32G4xx_HAL_Driver/Src/stm32g4xx_hal_gpio.c ****     bitstatus = GPIO_PIN_SET;
 383:Drivers/STM32G4xx_HAL_Driver/Src/stm32g4xx_hal_gpio.c ****   }
 384:Drivers/STM32G4xx_HAL_Driver/Src/stm32g4xx_hal_gpio.c ****   else
 385:Drivers/STM32G4xx_HAL_Driver/Src/stm32g4xx_hal_gpio.c ****   {
 386:Drivers/STM32G4xx_HAL_Driver/Src/stm32g4xx_hal_gpio.c ****     bitstatus = GPIO_PIN_RESET;
 387:Drivers/STM32G4xx_HAL_Driver/Src/stm32g4xx_hal_gpio.c ****   }
 388:Drivers/STM32G4xx_HAL_Driver/Src/stm32g4xx_hal_gpio.c ****   return bitstatus;
 749              		.loc 1 388 3 is_stmt 1 view .LVU264
 380:Drivers/STM32G4xx_HAL_Driver/Src/stm32g4xx_hal_gpio.c ****   {
 750              		.loc 1 380 6 is_stmt 0 view .LVU265
 751 0002 1942     		tst	r1, r3
 389:Drivers/STM32G4xx_HAL_Driver/Src/stm32g4xx_hal_gpio.c **** }
 752              		.loc 1 389 1 view .LVU266
 753 0004 14BF     		ite	ne
 754 0006 0120     		movne	r0, #1
 755              	.LVL70:
 756              		.loc 1 389 1 view .LVU267
 757 0008 0020     		moveq	r0, #0
ARM GAS  /tmp/cc6clKC8.s 			page 24


 758 000a 7047     		bx	lr
 759              		.cfi_endproc
 760              	.LFE134:
 762              		.section	.text.HAL_GPIO_WritePin,"ax",%progbits
 763              		.align	1
 764              		.p2align 2,,3
 765              		.global	HAL_GPIO_WritePin
 766              		.syntax unified
 767              		.thumb
 768              		.thumb_func
 769              		.fpu fpv4-sp-d16
 771              	HAL_GPIO_WritePin:
 772              	.LVL71:
 773              	.LFB135:
 390:Drivers/STM32G4xx_HAL_Driver/Src/stm32g4xx_hal_gpio.c **** 
 391:Drivers/STM32G4xx_HAL_Driver/Src/stm32g4xx_hal_gpio.c **** /**
 392:Drivers/STM32G4xx_HAL_Driver/Src/stm32g4xx_hal_gpio.c ****   * @brief  Set or clear the selected data port bit.
 393:Drivers/STM32G4xx_HAL_Driver/Src/stm32g4xx_hal_gpio.c ****   *
 394:Drivers/STM32G4xx_HAL_Driver/Src/stm32g4xx_hal_gpio.c ****   * @note   This function uses GPIOx_BSRR and GPIOx_BRR registers to allow atomic read/modify
 395:Drivers/STM32G4xx_HAL_Driver/Src/stm32g4xx_hal_gpio.c ****   *         accesses. In this way, there is no risk of an IRQ occurring between
 396:Drivers/STM32G4xx_HAL_Driver/Src/stm32g4xx_hal_gpio.c ****   *         the read and the modify access.
 397:Drivers/STM32G4xx_HAL_Driver/Src/stm32g4xx_hal_gpio.c ****   *
 398:Drivers/STM32G4xx_HAL_Driver/Src/stm32g4xx_hal_gpio.c ****   * @param  GPIOx where x can be (A..G) to select the GPIO peripheral for STM32G4xx family
 399:Drivers/STM32G4xx_HAL_Driver/Src/stm32g4xx_hal_gpio.c ****   * @param  GPIO_Pin specifies the port bit to be written.
 400:Drivers/STM32G4xx_HAL_Driver/Src/stm32g4xx_hal_gpio.c ****   *         This parameter can be any combination of GPIO_PIN_x where x can be (0..15).
 401:Drivers/STM32G4xx_HAL_Driver/Src/stm32g4xx_hal_gpio.c ****   * @param  PinState specifies the value to be written to the selected bit.
 402:Drivers/STM32G4xx_HAL_Driver/Src/stm32g4xx_hal_gpio.c ****   *         This parameter can be one of the GPIO_PinState enum values:
 403:Drivers/STM32G4xx_HAL_Driver/Src/stm32g4xx_hal_gpio.c ****   *            @arg GPIO_PIN_RESET: to clear the port pin
 404:Drivers/STM32G4xx_HAL_Driver/Src/stm32g4xx_hal_gpio.c ****   *            @arg GPIO_PIN_SET: to set the port pin
 405:Drivers/STM32G4xx_HAL_Driver/Src/stm32g4xx_hal_gpio.c ****   * @retval None
 406:Drivers/STM32G4xx_HAL_Driver/Src/stm32g4xx_hal_gpio.c ****   */
 407:Drivers/STM32G4xx_HAL_Driver/Src/stm32g4xx_hal_gpio.c **** void HAL_GPIO_WritePin(GPIO_TypeDef *GPIOx, uint16_t GPIO_Pin, GPIO_PinState PinState)
 408:Drivers/STM32G4xx_HAL_Driver/Src/stm32g4xx_hal_gpio.c **** {
 774              		.loc 1 408 1 is_stmt 1 view -0
 775              		.cfi_startproc
 776              		@ args = 0, pretend = 0, frame = 0
 777              		@ frame_needed = 0, uses_anonymous_args = 0
 778              		@ link register save eliminated.
 409:Drivers/STM32G4xx_HAL_Driver/Src/stm32g4xx_hal_gpio.c ****   /* Check the parameters */
 410:Drivers/STM32G4xx_HAL_Driver/Src/stm32g4xx_hal_gpio.c ****   assert_param(IS_GPIO_PIN(GPIO_Pin));
 779              		.loc 1 410 3 view .LVU269
 411:Drivers/STM32G4xx_HAL_Driver/Src/stm32g4xx_hal_gpio.c ****   assert_param(IS_GPIO_PIN_ACTION(PinState));
 780              		.loc 1 411 3 view .LVU270
 412:Drivers/STM32G4xx_HAL_Driver/Src/stm32g4xx_hal_gpio.c **** 
 413:Drivers/STM32G4xx_HAL_Driver/Src/stm32g4xx_hal_gpio.c ****   if (PinState != GPIO_PIN_RESET)
 781              		.loc 1 413 3 view .LVU271
 782              		.loc 1 413 6 is_stmt 0 view .LVU272
 783 0000 0AB1     		cbz	r2, .L75
 414:Drivers/STM32G4xx_HAL_Driver/Src/stm32g4xx_hal_gpio.c ****   {
 415:Drivers/STM32G4xx_HAL_Driver/Src/stm32g4xx_hal_gpio.c ****     GPIOx->BSRR = (uint32_t)GPIO_Pin;
 784              		.loc 1 415 5 is_stmt 1 view .LVU273
 785              		.loc 1 415 17 is_stmt 0 view .LVU274
 786 0002 8161     		str	r1, [r0, #24]
 787 0004 7047     		bx	lr
 788              	.L75:
 416:Drivers/STM32G4xx_HAL_Driver/Src/stm32g4xx_hal_gpio.c ****   }
 417:Drivers/STM32G4xx_HAL_Driver/Src/stm32g4xx_hal_gpio.c ****   else
ARM GAS  /tmp/cc6clKC8.s 			page 25


 418:Drivers/STM32G4xx_HAL_Driver/Src/stm32g4xx_hal_gpio.c ****   {
 419:Drivers/STM32G4xx_HAL_Driver/Src/stm32g4xx_hal_gpio.c ****     GPIOx->BRR = (uint32_t)GPIO_Pin;
 789              		.loc 1 419 5 is_stmt 1 view .LVU275
 790              		.loc 1 419 16 is_stmt 0 view .LVU276
 791 0006 8162     		str	r1, [r0, #40]
 420:Drivers/STM32G4xx_HAL_Driver/Src/stm32g4xx_hal_gpio.c ****   }
 421:Drivers/STM32G4xx_HAL_Driver/Src/stm32g4xx_hal_gpio.c **** }
 792              		.loc 1 421 1 view .LVU277
 793 0008 7047     		bx	lr
 794              		.cfi_endproc
 795              	.LFE135:
 797 000a 00BF     		.section	.text.HAL_GPIO_TogglePin,"ax",%progbits
 798              		.align	1
 799              		.p2align 2,,3
 800              		.global	HAL_GPIO_TogglePin
 801              		.syntax unified
 802              		.thumb
 803              		.thumb_func
 804              		.fpu fpv4-sp-d16
 806              	HAL_GPIO_TogglePin:
 807              	.LVL72:
 808              	.LFB136:
 422:Drivers/STM32G4xx_HAL_Driver/Src/stm32g4xx_hal_gpio.c **** 
 423:Drivers/STM32G4xx_HAL_Driver/Src/stm32g4xx_hal_gpio.c **** /**
 424:Drivers/STM32G4xx_HAL_Driver/Src/stm32g4xx_hal_gpio.c ****   * @brief  Toggle the specified GPIO pin.
 425:Drivers/STM32G4xx_HAL_Driver/Src/stm32g4xx_hal_gpio.c ****   * @param  GPIOx where x can be (A..G) to select the GPIO peripheral for STM32G4xx family
 426:Drivers/STM32G4xx_HAL_Driver/Src/stm32g4xx_hal_gpio.c ****   * @param  GPIO_Pin specifies the pin to be toggled.
 427:Drivers/STM32G4xx_HAL_Driver/Src/stm32g4xx_hal_gpio.c ****   *         This parameter can be any combination of GPIO_PIN_x where x can be (0..15).
 428:Drivers/STM32G4xx_HAL_Driver/Src/stm32g4xx_hal_gpio.c ****   * @retval None
 429:Drivers/STM32G4xx_HAL_Driver/Src/stm32g4xx_hal_gpio.c ****   */
 430:Drivers/STM32G4xx_HAL_Driver/Src/stm32g4xx_hal_gpio.c **** void HAL_GPIO_TogglePin(GPIO_TypeDef *GPIOx, uint16_t GPIO_Pin)
 431:Drivers/STM32G4xx_HAL_Driver/Src/stm32g4xx_hal_gpio.c **** {
 809              		.loc 1 431 1 is_stmt 1 view -0
 810              		.cfi_startproc
 811              		@ args = 0, pretend = 0, frame = 0
 812              		@ frame_needed = 0, uses_anonymous_args = 0
 813              		@ link register save eliminated.
 432:Drivers/STM32G4xx_HAL_Driver/Src/stm32g4xx_hal_gpio.c ****   uint32_t odr;
 814              		.loc 1 432 3 view .LVU279
 433:Drivers/STM32G4xx_HAL_Driver/Src/stm32g4xx_hal_gpio.c **** 
 434:Drivers/STM32G4xx_HAL_Driver/Src/stm32g4xx_hal_gpio.c ****   /* Check the parameters */
 435:Drivers/STM32G4xx_HAL_Driver/Src/stm32g4xx_hal_gpio.c ****   assert_param(IS_GPIO_PIN(GPIO_Pin));
 815              		.loc 1 435 3 view .LVU280
 436:Drivers/STM32G4xx_HAL_Driver/Src/stm32g4xx_hal_gpio.c **** 
 437:Drivers/STM32G4xx_HAL_Driver/Src/stm32g4xx_hal_gpio.c ****   /* get current Output Data Register value */
 438:Drivers/STM32G4xx_HAL_Driver/Src/stm32g4xx_hal_gpio.c ****   odr = GPIOx->ODR;
 816              		.loc 1 438 3 view .LVU281
 817              		.loc 1 438 7 is_stmt 0 view .LVU282
 818 0000 4369     		ldr	r3, [r0, #20]
 819              	.LVL73:
 439:Drivers/STM32G4xx_HAL_Driver/Src/stm32g4xx_hal_gpio.c **** 
 440:Drivers/STM32G4xx_HAL_Driver/Src/stm32g4xx_hal_gpio.c ****   /* Set selected pins that were at low level, and reset ones that were high */
 441:Drivers/STM32G4xx_HAL_Driver/Src/stm32g4xx_hal_gpio.c ****   GPIOx->BSRR = ((odr & GPIO_Pin) << GPIO_NUMBER) | (~odr & GPIO_Pin);
 820              		.loc 1 441 3 is_stmt 1 view .LVU283
 821              		.loc 1 441 23 is_stmt 0 view .LVU284
 822 0002 01EA0302 		and	r2, r1, r3
 823              		.loc 1 441 59 view .LVU285
ARM GAS  /tmp/cc6clKC8.s 			page 26


 824 0006 21EA0301 		bic	r1, r1, r3
 825              	.LVL74:
 826              		.loc 1 441 51 view .LVU286
 827 000a 41EA0241 		orr	r1, r1, r2, lsl #16
 828              		.loc 1 441 15 view .LVU287
 829 000e 8161     		str	r1, [r0, #24]
 442:Drivers/STM32G4xx_HAL_Driver/Src/stm32g4xx_hal_gpio.c **** }
 830              		.loc 1 442 1 view .LVU288
 831 0010 7047     		bx	lr
 832              		.cfi_endproc
 833              	.LFE136:
 835 0012 00BF     		.section	.text.HAL_GPIO_LockPin,"ax",%progbits
 836              		.align	1
 837              		.p2align 2,,3
 838              		.global	HAL_GPIO_LockPin
 839              		.syntax unified
 840              		.thumb
 841              		.thumb_func
 842              		.fpu fpv4-sp-d16
 844              	HAL_GPIO_LockPin:
 845              	.LVL75:
 846              	.LFB137:
 443:Drivers/STM32G4xx_HAL_Driver/Src/stm32g4xx_hal_gpio.c **** 
 444:Drivers/STM32G4xx_HAL_Driver/Src/stm32g4xx_hal_gpio.c **** /**
 445:Drivers/STM32G4xx_HAL_Driver/Src/stm32g4xx_hal_gpio.c ****   * @brief  Lock GPIO Pins configuration registers.
 446:Drivers/STM32G4xx_HAL_Driver/Src/stm32g4xx_hal_gpio.c ****   * @note   The locked registers are GPIOx_MODER, GPIOx_OTYPER, GPIOx_OSPEEDR,
 447:Drivers/STM32G4xx_HAL_Driver/Src/stm32g4xx_hal_gpio.c ****   *         GPIOx_PUPDR, GPIOx_AFRL and GPIOx_AFRH.
 448:Drivers/STM32G4xx_HAL_Driver/Src/stm32g4xx_hal_gpio.c ****   * @note   The configuration of the locked GPIO pins can no longer be modified
 449:Drivers/STM32G4xx_HAL_Driver/Src/stm32g4xx_hal_gpio.c ****   *         until the next reset.
 450:Drivers/STM32G4xx_HAL_Driver/Src/stm32g4xx_hal_gpio.c ****   * @param  GPIOx where x can be (A..G) to select the GPIO peripheral for STM32G4xx family
 451:Drivers/STM32G4xx_HAL_Driver/Src/stm32g4xx_hal_gpio.c ****   * @param  GPIO_Pin specifies the port bits to be locked.
 452:Drivers/STM32G4xx_HAL_Driver/Src/stm32g4xx_hal_gpio.c ****   *         This parameter can be any combination of GPIO_Pin_x where x can be (0..15).
 453:Drivers/STM32G4xx_HAL_Driver/Src/stm32g4xx_hal_gpio.c ****   * @retval None
 454:Drivers/STM32G4xx_HAL_Driver/Src/stm32g4xx_hal_gpio.c ****   */
 455:Drivers/STM32G4xx_HAL_Driver/Src/stm32g4xx_hal_gpio.c **** HAL_StatusTypeDef HAL_GPIO_LockPin(GPIO_TypeDef *GPIOx, uint16_t GPIO_Pin)
 456:Drivers/STM32G4xx_HAL_Driver/Src/stm32g4xx_hal_gpio.c **** {
 847              		.loc 1 456 1 is_stmt 1 view -0
 848              		.cfi_startproc
 849              		@ args = 0, pretend = 0, frame = 8
 850              		@ frame_needed = 0, uses_anonymous_args = 0
 851              		@ link register save eliminated.
 457:Drivers/STM32G4xx_HAL_Driver/Src/stm32g4xx_hal_gpio.c ****   __IO uint32_t tmp = GPIO_LCKR_LCKK;
 852              		.loc 1 457 3 view .LVU290
 456:Drivers/STM32G4xx_HAL_Driver/Src/stm32g4xx_hal_gpio.c ****   __IO uint32_t tmp = GPIO_LCKR_LCKK;
 853              		.loc 1 456 1 is_stmt 0 view .LVU291
 854 0000 82B0     		sub	sp, sp, #8
 855              	.LCFI6:
 856              		.cfi_def_cfa_offset 8
 857              		.loc 1 457 17 view .LVU292
 858 0002 4FF48033 		mov	r3, #65536
 859 0006 0193     		str	r3, [sp, #4]
 458:Drivers/STM32G4xx_HAL_Driver/Src/stm32g4xx_hal_gpio.c **** 
 459:Drivers/STM32G4xx_HAL_Driver/Src/stm32g4xx_hal_gpio.c ****   /* Check the parameters */
 460:Drivers/STM32G4xx_HAL_Driver/Src/stm32g4xx_hal_gpio.c ****   assert_param(IS_GPIO_LOCK_INSTANCE(GPIOx));
 860              		.loc 1 460 3 is_stmt 1 view .LVU293
 461:Drivers/STM32G4xx_HAL_Driver/Src/stm32g4xx_hal_gpio.c ****   assert_param(IS_GPIO_PIN(GPIO_Pin));
 861              		.loc 1 461 3 view .LVU294
ARM GAS  /tmp/cc6clKC8.s 			page 27


 462:Drivers/STM32G4xx_HAL_Driver/Src/stm32g4xx_hal_gpio.c **** 
 463:Drivers/STM32G4xx_HAL_Driver/Src/stm32g4xx_hal_gpio.c ****   /* Apply lock key write sequence */
 464:Drivers/STM32G4xx_HAL_Driver/Src/stm32g4xx_hal_gpio.c ****   tmp |= GPIO_Pin;
 862              		.loc 1 464 3 view .LVU295
 863              		.loc 1 464 7 is_stmt 0 view .LVU296
 864 0008 019B     		ldr	r3, [sp, #4]
 865 000a 0B43     		orrs	r3, r3, r1
 866 000c 0193     		str	r3, [sp, #4]
 465:Drivers/STM32G4xx_HAL_Driver/Src/stm32g4xx_hal_gpio.c ****   /* Set LCKx bit(s): LCKK='1' + LCK[15-0] */
 466:Drivers/STM32G4xx_HAL_Driver/Src/stm32g4xx_hal_gpio.c ****   GPIOx->LCKR = tmp;
 867              		.loc 1 466 3 is_stmt 1 view .LVU297
 868              		.loc 1 466 15 is_stmt 0 view .LVU298
 869 000e 019B     		ldr	r3, [sp, #4]
 870 0010 C361     		str	r3, [r0, #28]
 467:Drivers/STM32G4xx_HAL_Driver/Src/stm32g4xx_hal_gpio.c ****   /* Reset LCKx bit(s): LCKK='0' + LCK[15-0] */
 468:Drivers/STM32G4xx_HAL_Driver/Src/stm32g4xx_hal_gpio.c ****   GPIOx->LCKR = GPIO_Pin;
 871              		.loc 1 468 3 is_stmt 1 view .LVU299
 872              		.loc 1 468 15 is_stmt 0 view .LVU300
 873 0012 C161     		str	r1, [r0, #28]
 469:Drivers/STM32G4xx_HAL_Driver/Src/stm32g4xx_hal_gpio.c ****   /* Set LCKx bit(s): LCKK='1' + LCK[15-0] */
 470:Drivers/STM32G4xx_HAL_Driver/Src/stm32g4xx_hal_gpio.c ****   GPIOx->LCKR = tmp;
 874              		.loc 1 470 3 is_stmt 1 view .LVU301
 875              		.loc 1 470 15 is_stmt 0 view .LVU302
 876 0014 019B     		ldr	r3, [sp, #4]
 877 0016 C361     		str	r3, [r0, #28]
 471:Drivers/STM32G4xx_HAL_Driver/Src/stm32g4xx_hal_gpio.c ****   /* Read LCKK register. This read is mandatory to complete key lock sequence */
 472:Drivers/STM32G4xx_HAL_Driver/Src/stm32g4xx_hal_gpio.c ****   tmp = GPIOx->LCKR;
 878              		.loc 1 472 3 is_stmt 1 view .LVU303
 879              		.loc 1 472 14 is_stmt 0 view .LVU304
 880 0018 C369     		ldr	r3, [r0, #28]
 881              		.loc 1 472 7 view .LVU305
 882 001a 0193     		str	r3, [sp, #4]
 473:Drivers/STM32G4xx_HAL_Driver/Src/stm32g4xx_hal_gpio.c **** 
 474:Drivers/STM32G4xx_HAL_Driver/Src/stm32g4xx_hal_gpio.c ****   /* read again in order to confirm lock is active */
 475:Drivers/STM32G4xx_HAL_Driver/Src/stm32g4xx_hal_gpio.c ****   if ((GPIOx->LCKR & GPIO_LCKR_LCKK) != 0x00u)
 883              		.loc 1 475 3 is_stmt 1 view .LVU306
 884              		.loc 1 475 13 is_stmt 0 view .LVU307
 885 001c C069     		ldr	r0, [r0, #28]
 886              	.LVL76:
 887              		.loc 1 475 6 view .LVU308
 888 001e 80F48030 		eor	r0, r0, #65536
 476:Drivers/STM32G4xx_HAL_Driver/Src/stm32g4xx_hal_gpio.c ****   {
 477:Drivers/STM32G4xx_HAL_Driver/Src/stm32g4xx_hal_gpio.c ****     return HAL_OK;
 478:Drivers/STM32G4xx_HAL_Driver/Src/stm32g4xx_hal_gpio.c ****   }
 479:Drivers/STM32G4xx_HAL_Driver/Src/stm32g4xx_hal_gpio.c ****   else
 480:Drivers/STM32G4xx_HAL_Driver/Src/stm32g4xx_hal_gpio.c ****   {
 481:Drivers/STM32G4xx_HAL_Driver/Src/stm32g4xx_hal_gpio.c ****     return HAL_ERROR;
 482:Drivers/STM32G4xx_HAL_Driver/Src/stm32g4xx_hal_gpio.c ****   }
 483:Drivers/STM32G4xx_HAL_Driver/Src/stm32g4xx_hal_gpio.c **** }
 889              		.loc 1 483 1 view .LVU309
 890 0022 C0F30040 		ubfx	r0, r0, #16, #1
 891 0026 02B0     		add	sp, sp, #8
 892              	.LCFI7:
 893              		.cfi_def_cfa_offset 0
 894              		@ sp needed
 895 0028 7047     		bx	lr
 896              		.cfi_endproc
ARM GAS  /tmp/cc6clKC8.s 			page 28


 897              	.LFE137:
 899 002a 00BF     		.section	.text.HAL_GPIO_EXTI_Callback,"ax",%progbits
 900              		.align	1
 901              		.p2align 2,,3
 902              		.weak	HAL_GPIO_EXTI_Callback
 903              		.syntax unified
 904              		.thumb
 905              		.thumb_func
 906              		.fpu fpv4-sp-d16
 908              	HAL_GPIO_EXTI_Callback:
 909              	.LVL77:
 910              	.LFB139:
 484:Drivers/STM32G4xx_HAL_Driver/Src/stm32g4xx_hal_gpio.c **** 
 485:Drivers/STM32G4xx_HAL_Driver/Src/stm32g4xx_hal_gpio.c **** /**
 486:Drivers/STM32G4xx_HAL_Driver/Src/stm32g4xx_hal_gpio.c ****   * @brief  Handle EXTI interrupt request.
 487:Drivers/STM32G4xx_HAL_Driver/Src/stm32g4xx_hal_gpio.c ****   * @param  GPIO_Pin Specifies the port pin connected to corresponding EXTI line.
 488:Drivers/STM32G4xx_HAL_Driver/Src/stm32g4xx_hal_gpio.c ****   * @retval None
 489:Drivers/STM32G4xx_HAL_Driver/Src/stm32g4xx_hal_gpio.c ****   */
 490:Drivers/STM32G4xx_HAL_Driver/Src/stm32g4xx_hal_gpio.c **** void HAL_GPIO_EXTI_IRQHandler(uint16_t GPIO_Pin)
 491:Drivers/STM32G4xx_HAL_Driver/Src/stm32g4xx_hal_gpio.c **** {
 492:Drivers/STM32G4xx_HAL_Driver/Src/stm32g4xx_hal_gpio.c ****   /* EXTI line interrupt detected */
 493:Drivers/STM32G4xx_HAL_Driver/Src/stm32g4xx_hal_gpio.c ****   if (__HAL_GPIO_EXTI_GET_IT(GPIO_Pin) != 0x00u)
 494:Drivers/STM32G4xx_HAL_Driver/Src/stm32g4xx_hal_gpio.c ****   {
 495:Drivers/STM32G4xx_HAL_Driver/Src/stm32g4xx_hal_gpio.c ****     __HAL_GPIO_EXTI_CLEAR_IT(GPIO_Pin);
 496:Drivers/STM32G4xx_HAL_Driver/Src/stm32g4xx_hal_gpio.c ****     HAL_GPIO_EXTI_Callback(GPIO_Pin);
 497:Drivers/STM32G4xx_HAL_Driver/Src/stm32g4xx_hal_gpio.c ****   }
 498:Drivers/STM32G4xx_HAL_Driver/Src/stm32g4xx_hal_gpio.c **** }
 499:Drivers/STM32G4xx_HAL_Driver/Src/stm32g4xx_hal_gpio.c **** 
 500:Drivers/STM32G4xx_HAL_Driver/Src/stm32g4xx_hal_gpio.c **** /**
 501:Drivers/STM32G4xx_HAL_Driver/Src/stm32g4xx_hal_gpio.c ****   * @brief  EXTI line detection callback.
 502:Drivers/STM32G4xx_HAL_Driver/Src/stm32g4xx_hal_gpio.c ****   * @param  GPIO_Pin: Specifies the port pin connected to corresponding EXTI line.
 503:Drivers/STM32G4xx_HAL_Driver/Src/stm32g4xx_hal_gpio.c ****   * @retval None
 504:Drivers/STM32G4xx_HAL_Driver/Src/stm32g4xx_hal_gpio.c ****   */
 505:Drivers/STM32G4xx_HAL_Driver/Src/stm32g4xx_hal_gpio.c **** __weak void HAL_GPIO_EXTI_Callback(uint16_t GPIO_Pin)
 506:Drivers/STM32G4xx_HAL_Driver/Src/stm32g4xx_hal_gpio.c **** {
 911              		.loc 1 506 1 is_stmt 1 view -0
 912              		.cfi_startproc
 913              		@ args = 0, pretend = 0, frame = 0
 914              		@ frame_needed = 0, uses_anonymous_args = 0
 915              		@ link register save eliminated.
 507:Drivers/STM32G4xx_HAL_Driver/Src/stm32g4xx_hal_gpio.c ****   /* Prevent unused argument(s) compilation warning */
 508:Drivers/STM32G4xx_HAL_Driver/Src/stm32g4xx_hal_gpio.c ****   UNUSED(GPIO_Pin);
 916              		.loc 1 508 3 view .LVU311
 509:Drivers/STM32G4xx_HAL_Driver/Src/stm32g4xx_hal_gpio.c **** 
 510:Drivers/STM32G4xx_HAL_Driver/Src/stm32g4xx_hal_gpio.c ****   /* NOTE: This function should not be modified, when the callback is needed,
 511:Drivers/STM32G4xx_HAL_Driver/Src/stm32g4xx_hal_gpio.c ****            the HAL_GPIO_EXTI_Callback could be implemented in the user file
 512:Drivers/STM32G4xx_HAL_Driver/Src/stm32g4xx_hal_gpio.c ****    */
 513:Drivers/STM32G4xx_HAL_Driver/Src/stm32g4xx_hal_gpio.c **** }
 917              		.loc 1 513 1 is_stmt 0 view .LVU312
 918 0000 7047     		bx	lr
 919              		.cfi_endproc
 920              	.LFE139:
 922 0002 00BF     		.section	.text.HAL_GPIO_EXTI_IRQHandler,"ax",%progbits
 923              		.align	1
 924              		.p2align 2,,3
 925              		.global	HAL_GPIO_EXTI_IRQHandler
 926              		.syntax unified
ARM GAS  /tmp/cc6clKC8.s 			page 29


 927              		.thumb
 928              		.thumb_func
 929              		.fpu fpv4-sp-d16
 931              	HAL_GPIO_EXTI_IRQHandler:
 932              	.LVL78:
 933              	.LFB138:
 491:Drivers/STM32G4xx_HAL_Driver/Src/stm32g4xx_hal_gpio.c ****   /* EXTI line interrupt detected */
 934              		.loc 1 491 1 is_stmt 1 view -0
 935              		.cfi_startproc
 936              		@ args = 0, pretend = 0, frame = 0
 937              		@ frame_needed = 0, uses_anonymous_args = 0
 493:Drivers/STM32G4xx_HAL_Driver/Src/stm32g4xx_hal_gpio.c ****   {
 938              		.loc 1 493 3 view .LVU314
 493:Drivers/STM32G4xx_HAL_Driver/Src/stm32g4xx_hal_gpio.c ****   {
 939              		.loc 1 493 7 is_stmt 0 view .LVU315
 940 0000 044A     		ldr	r2, .L91
 941 0002 5169     		ldr	r1, [r2, #20]
 493:Drivers/STM32G4xx_HAL_Driver/Src/stm32g4xx_hal_gpio.c ****   {
 942              		.loc 1 493 6 view .LVU316
 943 0004 0142     		tst	r1, r0
 944 0006 00D1     		bne	.L90
 945 0008 7047     		bx	lr
 946              	.L90:
 495:Drivers/STM32G4xx_HAL_Driver/Src/stm32g4xx_hal_gpio.c ****     HAL_GPIO_EXTI_Callback(GPIO_Pin);
 947              		.loc 1 495 5 is_stmt 1 view .LVU317
 491:Drivers/STM32G4xx_HAL_Driver/Src/stm32g4xx_hal_gpio.c ****   /* EXTI line interrupt detected */
 948              		.loc 1 491 1 is_stmt 0 view .LVU318
 949 000a 08B5     		push	{r3, lr}
 950              	.LCFI8:
 951              		.cfi_def_cfa_offset 8
 952              		.cfi_offset 3, -8
 953              		.cfi_offset 14, -4
 495:Drivers/STM32G4xx_HAL_Driver/Src/stm32g4xx_hal_gpio.c ****     HAL_GPIO_EXTI_Callback(GPIO_Pin);
 954              		.loc 1 495 5 view .LVU319
 955 000c 5061     		str	r0, [r2, #20]
 496:Drivers/STM32G4xx_HAL_Driver/Src/stm32g4xx_hal_gpio.c ****   }
 956              		.loc 1 496 5 is_stmt 1 view .LVU320
 957 000e FFF7FEFF 		bl	HAL_GPIO_EXTI_Callback
 958              	.LVL79:
 498:Drivers/STM32G4xx_HAL_Driver/Src/stm32g4xx_hal_gpio.c **** 
 959              		.loc 1 498 1 is_stmt 0 view .LVU321
 960 0012 08BD     		pop	{r3, pc}
 961              	.L92:
 962              		.align	2
 963              	.L91:
 964 0014 00040140 		.word	1073808384
 965              		.cfi_endproc
 966              	.LFE138:
 968              		.text
 969              	.Letext0:
 970              		.file 2 "/usr/share/gcc-arm-none-eabi-10-2020-q4-major/arm-none-eabi/include/machine/_default_type
 971              		.file 3 "/usr/share/gcc-arm-none-eabi-10-2020-q4-major/arm-none-eabi/include/sys/_stdint.h"
 972              		.file 4 "Drivers/CMSIS/Device/ST/STM32G4xx/Include/stm32g431xx.h"
 973              		.file 5 "Drivers/STM32G4xx_HAL_Driver/Inc/stm32g4xx_hal_def.h"
 974              		.file 6 "Drivers/STM32G4xx_HAL_Driver/Inc/stm32g4xx_hal_gpio.h"
ARM GAS  /tmp/cc6clKC8.s 			page 30


DEFINED SYMBOLS
                            *ABS*:0000000000000000 stm32g4xx_hal_gpio.c
     /tmp/cc6clKC8.s:18     .text.HAL_GPIO_Init:0000000000000000 $t
     /tmp/cc6clKC8.s:27     .text.HAL_GPIO_Init:0000000000000000 HAL_GPIO_Init
     /tmp/cc6clKC8.s:474    .text.HAL_GPIO_Init:00000000000001d4 $d
     /tmp/cc6clKC8.s:485    .text.HAL_GPIO_DeInit:0000000000000000 $t
     /tmp/cc6clKC8.s:493    .text.HAL_GPIO_DeInit:0000000000000000 HAL_GPIO_DeInit
     /tmp/cc6clKC8.s:717    .text.HAL_GPIO_DeInit:000000000000010c $d
     /tmp/cc6clKC8.s:727    .text.HAL_GPIO_ReadPin:0000000000000000 $t
     /tmp/cc6clKC8.s:735    .text.HAL_GPIO_ReadPin:0000000000000000 HAL_GPIO_ReadPin
     /tmp/cc6clKC8.s:763    .text.HAL_GPIO_WritePin:0000000000000000 $t
     /tmp/cc6clKC8.s:771    .text.HAL_GPIO_WritePin:0000000000000000 HAL_GPIO_WritePin
     /tmp/cc6clKC8.s:798    .text.HAL_GPIO_TogglePin:0000000000000000 $t
     /tmp/cc6clKC8.s:806    .text.HAL_GPIO_TogglePin:0000000000000000 HAL_GPIO_TogglePin
     /tmp/cc6clKC8.s:836    .text.HAL_GPIO_LockPin:0000000000000000 $t
     /tmp/cc6clKC8.s:844    .text.HAL_GPIO_LockPin:0000000000000000 HAL_GPIO_LockPin
     /tmp/cc6clKC8.s:900    .text.HAL_GPIO_EXTI_Callback:0000000000000000 $t
     /tmp/cc6clKC8.s:908    .text.HAL_GPIO_EXTI_Callback:0000000000000000 HAL_GPIO_EXTI_Callback
     /tmp/cc6clKC8.s:923    .text.HAL_GPIO_EXTI_IRQHandler:0000000000000000 $t
     /tmp/cc6clKC8.s:931    .text.HAL_GPIO_EXTI_IRQHandler:0000000000000000 HAL_GPIO_EXTI_IRQHandler
     /tmp/cc6clKC8.s:964    .text.HAL_GPIO_EXTI_IRQHandler:0000000000000014 $d

NO UNDEFINED SYMBOLS
