ARM GAS  /tmp/ccL1mZn3.s 			page 1


   1              		.cpu cortex-m4
   2              		.eabi_attribute 27, 1
   3              		.eabi_attribute 28, 1
   4              		.eabi_attribute 20, 1
   5              		.eabi_attribute 21, 1
   6              		.eabi_attribute 23, 3
   7              		.eabi_attribute 24, 1
   8              		.eabi_attribute 25, 1
   9              		.eabi_attribute 26, 1
  10              		.eabi_attribute 30, 6
  11              		.eabi_attribute 34, 1
  12              		.eabi_attribute 18, 2
  13              		.file	"stm32g4xx_hal.c"
  14              		.text
  15              	.Ltext0:
  16              		.cfi_sections	.debug_frame
  17              		.global	uwTick
  18              		.section	.bss.uwTick,"aw",%nobits
  19              		.align	2
  22              	uwTick:
  23 0000 00000000 		.space	4
  24              		.global	uwTickPrio
  25              		.section	.data.uwTickPrio,"aw"
  26              		.align	2
  29              	uwTickPrio:
  30 0000 10000000 		.word	16
  31              		.global	uwTickFreq
  32              		.section	.data.uwTickFreq,"aw"
  33              		.align	2
  36              	uwTickFreq:
  37 0000 01000000 		.word	1
  38              		.section	.text.HAL_Init,"ax",%progbits
  39              		.align	1
  40              		.global	HAL_Init
  41              		.arch armv7e-m
  42              		.syntax unified
  43              		.thumb
  44              		.thumb_func
  45              		.fpu fpv4-sp-d16
  47              	HAL_Init:
  48              	.LFB132:
  49              		.file 1 "Drivers/STM32G4xx_HAL_Driver/Src/stm32g4xx_hal.c"
   1:Drivers/STM32G4xx_HAL_Driver/Src/stm32g4xx_hal.c **** /**
   2:Drivers/STM32G4xx_HAL_Driver/Src/stm32g4xx_hal.c ****   ******************************************************************************
   3:Drivers/STM32G4xx_HAL_Driver/Src/stm32g4xx_hal.c ****   * @file    stm32g4xx_hal.c
   4:Drivers/STM32G4xx_HAL_Driver/Src/stm32g4xx_hal.c ****   * @author  MCD Application Team
   5:Drivers/STM32G4xx_HAL_Driver/Src/stm32g4xx_hal.c ****   * @brief   HAL module driver.
   6:Drivers/STM32G4xx_HAL_Driver/Src/stm32g4xx_hal.c ****   *          This is the common part of the HAL initialization
   7:Drivers/STM32G4xx_HAL_Driver/Src/stm32g4xx_hal.c ****   ******************************************************************************
   8:Drivers/STM32G4xx_HAL_Driver/Src/stm32g4xx_hal.c ****   * @attention
   9:Drivers/STM32G4xx_HAL_Driver/Src/stm32g4xx_hal.c ****   *
  10:Drivers/STM32G4xx_HAL_Driver/Src/stm32g4xx_hal.c ****   * Copyright (c) 2019 STMicroelectronics.
  11:Drivers/STM32G4xx_HAL_Driver/Src/stm32g4xx_hal.c ****   * All rights reserved.
  12:Drivers/STM32G4xx_HAL_Driver/Src/stm32g4xx_hal.c ****   *
  13:Drivers/STM32G4xx_HAL_Driver/Src/stm32g4xx_hal.c ****   * This software is licensed under terms that can be found in the LICENSE file
  14:Drivers/STM32G4xx_HAL_Driver/Src/stm32g4xx_hal.c ****   * in the root directory of this software component.
  15:Drivers/STM32G4xx_HAL_Driver/Src/stm32g4xx_hal.c ****   * If no LICENSE file comes with this software, it is provided AS-IS.
ARM GAS  /tmp/ccL1mZn3.s 			page 2


  16:Drivers/STM32G4xx_HAL_Driver/Src/stm32g4xx_hal.c ****   *
  17:Drivers/STM32G4xx_HAL_Driver/Src/stm32g4xx_hal.c ****   ******************************************************************************
  18:Drivers/STM32G4xx_HAL_Driver/Src/stm32g4xx_hal.c ****   @verbatim
  19:Drivers/STM32G4xx_HAL_Driver/Src/stm32g4xx_hal.c ****   ==============================================================================
  20:Drivers/STM32G4xx_HAL_Driver/Src/stm32g4xx_hal.c ****                      ##### How to use this driver #####
  21:Drivers/STM32G4xx_HAL_Driver/Src/stm32g4xx_hal.c ****   ==============================================================================
  22:Drivers/STM32G4xx_HAL_Driver/Src/stm32g4xx_hal.c ****     [..]
  23:Drivers/STM32G4xx_HAL_Driver/Src/stm32g4xx_hal.c ****     The common HAL driver contains a set of generic and common APIs that can be
  24:Drivers/STM32G4xx_HAL_Driver/Src/stm32g4xx_hal.c ****     used by the PPP peripheral drivers and the user to start using the HAL.
  25:Drivers/STM32G4xx_HAL_Driver/Src/stm32g4xx_hal.c ****     [..]
  26:Drivers/STM32G4xx_HAL_Driver/Src/stm32g4xx_hal.c ****     The HAL contains two APIs' categories:
  27:Drivers/STM32G4xx_HAL_Driver/Src/stm32g4xx_hal.c ****          (+) Common HAL APIs
  28:Drivers/STM32G4xx_HAL_Driver/Src/stm32g4xx_hal.c ****          (+) Services HAL APIs
  29:Drivers/STM32G4xx_HAL_Driver/Src/stm32g4xx_hal.c **** 
  30:Drivers/STM32G4xx_HAL_Driver/Src/stm32g4xx_hal.c ****   @endverbatim
  31:Drivers/STM32G4xx_HAL_Driver/Src/stm32g4xx_hal.c ****   ******************************************************************************
  32:Drivers/STM32G4xx_HAL_Driver/Src/stm32g4xx_hal.c ****   */
  33:Drivers/STM32G4xx_HAL_Driver/Src/stm32g4xx_hal.c **** 
  34:Drivers/STM32G4xx_HAL_Driver/Src/stm32g4xx_hal.c **** /* Includes ------------------------------------------------------------------*/
  35:Drivers/STM32G4xx_HAL_Driver/Src/stm32g4xx_hal.c **** #include "stm32g4xx_hal.h"
  36:Drivers/STM32G4xx_HAL_Driver/Src/stm32g4xx_hal.c **** 
  37:Drivers/STM32G4xx_HAL_Driver/Src/stm32g4xx_hal.c **** /** @addtogroup STM32G4xx_HAL_Driver
  38:Drivers/STM32G4xx_HAL_Driver/Src/stm32g4xx_hal.c ****   * @{
  39:Drivers/STM32G4xx_HAL_Driver/Src/stm32g4xx_hal.c ****   */
  40:Drivers/STM32G4xx_HAL_Driver/Src/stm32g4xx_hal.c **** 
  41:Drivers/STM32G4xx_HAL_Driver/Src/stm32g4xx_hal.c **** /** @defgroup HAL HAL
  42:Drivers/STM32G4xx_HAL_Driver/Src/stm32g4xx_hal.c ****   * @brief HAL module driver
  43:Drivers/STM32G4xx_HAL_Driver/Src/stm32g4xx_hal.c ****   * @{
  44:Drivers/STM32G4xx_HAL_Driver/Src/stm32g4xx_hal.c ****   */
  45:Drivers/STM32G4xx_HAL_Driver/Src/stm32g4xx_hal.c **** 
  46:Drivers/STM32G4xx_HAL_Driver/Src/stm32g4xx_hal.c **** #ifdef HAL_MODULE_ENABLED
  47:Drivers/STM32G4xx_HAL_Driver/Src/stm32g4xx_hal.c **** 
  48:Drivers/STM32G4xx_HAL_Driver/Src/stm32g4xx_hal.c **** /* Private typedef -----------------------------------------------------------*/
  49:Drivers/STM32G4xx_HAL_Driver/Src/stm32g4xx_hal.c **** /* Private define ------------------------------------------------------------*/
  50:Drivers/STM32G4xx_HAL_Driver/Src/stm32g4xx_hal.c **** /**
  51:Drivers/STM32G4xx_HAL_Driver/Src/stm32g4xx_hal.c ****   * @brief STM32G4xx HAL Driver version number V1.2.3
  52:Drivers/STM32G4xx_HAL_Driver/Src/stm32g4xx_hal.c ****   */
  53:Drivers/STM32G4xx_HAL_Driver/Src/stm32g4xx_hal.c **** #define __STM32G4xx_HAL_VERSION_MAIN   (0x01U) /*!< [31:24] main version */
  54:Drivers/STM32G4xx_HAL_Driver/Src/stm32g4xx_hal.c **** #define __STM32G4xx_HAL_VERSION_SUB1   (0x02U) /*!< [23:16] sub1 version */
  55:Drivers/STM32G4xx_HAL_Driver/Src/stm32g4xx_hal.c **** #define __STM32G4xx_HAL_VERSION_SUB2   (0x03U) /*!< [15:8]  sub2 version */
  56:Drivers/STM32G4xx_HAL_Driver/Src/stm32g4xx_hal.c **** #define __STM32G4xx_HAL_VERSION_RC     (0x00U) /*!< [7:0]  release candidate */
  57:Drivers/STM32G4xx_HAL_Driver/Src/stm32g4xx_hal.c **** #define __STM32G4xx_HAL_VERSION         ((__STM32G4xx_HAL_VERSION_MAIN << 24U)\
  58:Drivers/STM32G4xx_HAL_Driver/Src/stm32g4xx_hal.c ****                                          |(__STM32G4xx_HAL_VERSION_SUB1 << 16U)\
  59:Drivers/STM32G4xx_HAL_Driver/Src/stm32g4xx_hal.c ****                                          |(__STM32G4xx_HAL_VERSION_SUB2 << 8U )\
  60:Drivers/STM32G4xx_HAL_Driver/Src/stm32g4xx_hal.c ****                                          |(__STM32G4xx_HAL_VERSION_RC))
  61:Drivers/STM32G4xx_HAL_Driver/Src/stm32g4xx_hal.c **** 
  62:Drivers/STM32G4xx_HAL_Driver/Src/stm32g4xx_hal.c **** #if defined(VREFBUF)
  63:Drivers/STM32G4xx_HAL_Driver/Src/stm32g4xx_hal.c **** #define VREFBUF_TIMEOUT_VALUE     10U   /* 10 ms */
  64:Drivers/STM32G4xx_HAL_Driver/Src/stm32g4xx_hal.c **** #endif /* VREFBUF */
  65:Drivers/STM32G4xx_HAL_Driver/Src/stm32g4xx_hal.c **** 
  66:Drivers/STM32G4xx_HAL_Driver/Src/stm32g4xx_hal.c **** /* ------------ SYSCFG registers bit address in the alias region ------------ */
  67:Drivers/STM32G4xx_HAL_Driver/Src/stm32g4xx_hal.c **** #define SYSCFG_OFFSET             (SYSCFG_BASE - PERIPH_BASE)
  68:Drivers/STM32G4xx_HAL_Driver/Src/stm32g4xx_hal.c **** /* ---  MEMRMP Register ---*/
  69:Drivers/STM32G4xx_HAL_Driver/Src/stm32g4xx_hal.c **** /* Alias word address of FB_MODE bit */
  70:Drivers/STM32G4xx_HAL_Driver/Src/stm32g4xx_hal.c **** #define MEMRMP_OFFSET           SYSCFG_OFFSET
  71:Drivers/STM32G4xx_HAL_Driver/Src/stm32g4xx_hal.c **** #define FB_MODE_BitNumber       ((uint8_t)0x8)
  72:Drivers/STM32G4xx_HAL_Driver/Src/stm32g4xx_hal.c **** #define FB_MODE_BB              (PERIPH_BB_BASE + (MEMRMP_OFFSET * 32) + (FB_MODE_BitNumber * 4))
ARM GAS  /tmp/ccL1mZn3.s 			page 3


  73:Drivers/STM32G4xx_HAL_Driver/Src/stm32g4xx_hal.c **** 
  74:Drivers/STM32G4xx_HAL_Driver/Src/stm32g4xx_hal.c **** /* --- GPC Register ---*/
  75:Drivers/STM32G4xx_HAL_Driver/Src/stm32g4xx_hal.c **** /* Alias word address of CCMER bit */
  76:Drivers/STM32G4xx_HAL_Driver/Src/stm32g4xx_hal.c **** #define SCSR_OFFSET             (SYSCFG_OFFSET + 0x18)
  77:Drivers/STM32G4xx_HAL_Driver/Src/stm32g4xx_hal.c **** #define CCMER_BitNumber         ((uint8_t)0x0)
  78:Drivers/STM32G4xx_HAL_Driver/Src/stm32g4xx_hal.c **** #define SCSR_CCMER_BB           (PERIPH_BB_BASE + (SCSR_OFFSET * 32) + (CCMER_BitNumber * 4))
  79:Drivers/STM32G4xx_HAL_Driver/Src/stm32g4xx_hal.c **** 
  80:Drivers/STM32G4xx_HAL_Driver/Src/stm32g4xx_hal.c **** /* Private macro -------------------------------------------------------------*/
  81:Drivers/STM32G4xx_HAL_Driver/Src/stm32g4xx_hal.c **** /* Exported variables ---------------------------------------------------------*/
  82:Drivers/STM32G4xx_HAL_Driver/Src/stm32g4xx_hal.c **** /** @defgroup HAL_Exported_Variables HAL Exported Variables
  83:Drivers/STM32G4xx_HAL_Driver/Src/stm32g4xx_hal.c ****   * @{
  84:Drivers/STM32G4xx_HAL_Driver/Src/stm32g4xx_hal.c ****   */
  85:Drivers/STM32G4xx_HAL_Driver/Src/stm32g4xx_hal.c **** __IO uint32_t uwTick;
  86:Drivers/STM32G4xx_HAL_Driver/Src/stm32g4xx_hal.c **** uint32_t uwTickPrio = (1UL << __NVIC_PRIO_BITS); /* Invalid PRIO */
  87:Drivers/STM32G4xx_HAL_Driver/Src/stm32g4xx_hal.c **** uint32_t uwTickFreq = HAL_TICK_FREQ_DEFAULT;  /* 1KHz */
  88:Drivers/STM32G4xx_HAL_Driver/Src/stm32g4xx_hal.c **** /**
  89:Drivers/STM32G4xx_HAL_Driver/Src/stm32g4xx_hal.c ****   * @}
  90:Drivers/STM32G4xx_HAL_Driver/Src/stm32g4xx_hal.c ****   */
  91:Drivers/STM32G4xx_HAL_Driver/Src/stm32g4xx_hal.c **** 
  92:Drivers/STM32G4xx_HAL_Driver/Src/stm32g4xx_hal.c **** /* Private function prototypes -----------------------------------------------*/
  93:Drivers/STM32G4xx_HAL_Driver/Src/stm32g4xx_hal.c **** /* Exported functions --------------------------------------------------------*/
  94:Drivers/STM32G4xx_HAL_Driver/Src/stm32g4xx_hal.c **** 
  95:Drivers/STM32G4xx_HAL_Driver/Src/stm32g4xx_hal.c **** /** @defgroup HAL_Exported_Functions HAL Exported Functions
  96:Drivers/STM32G4xx_HAL_Driver/Src/stm32g4xx_hal.c ****   * @{
  97:Drivers/STM32G4xx_HAL_Driver/Src/stm32g4xx_hal.c ****   */
  98:Drivers/STM32G4xx_HAL_Driver/Src/stm32g4xx_hal.c **** 
  99:Drivers/STM32G4xx_HAL_Driver/Src/stm32g4xx_hal.c **** /** @defgroup HAL_Exported_Functions_Group1 Initialization and de-initialization Functions
 100:Drivers/STM32G4xx_HAL_Driver/Src/stm32g4xx_hal.c ****   *  @brief    HAL Initialization and de-initialization functions
 101:Drivers/STM32G4xx_HAL_Driver/Src/stm32g4xx_hal.c ****   *
 102:Drivers/STM32G4xx_HAL_Driver/Src/stm32g4xx_hal.c **** @verbatim
 103:Drivers/STM32G4xx_HAL_Driver/Src/stm32g4xx_hal.c ****  ===============================================================================
 104:Drivers/STM32G4xx_HAL_Driver/Src/stm32g4xx_hal.c ****               ##### Initialization and Configuration functions #####
 105:Drivers/STM32G4xx_HAL_Driver/Src/stm32g4xx_hal.c ****  ===============================================================================
 106:Drivers/STM32G4xx_HAL_Driver/Src/stm32g4xx_hal.c ****     [..]  This section provides functions allowing to:
 107:Drivers/STM32G4xx_HAL_Driver/Src/stm32g4xx_hal.c ****       (+) Initialize the Flash interface the NVIC allocation and initial time base
 108:Drivers/STM32G4xx_HAL_Driver/Src/stm32g4xx_hal.c ****           clock configuration.
 109:Drivers/STM32G4xx_HAL_Driver/Src/stm32g4xx_hal.c ****       (+) De-Initialize common part of the HAL.
 110:Drivers/STM32G4xx_HAL_Driver/Src/stm32g4xx_hal.c ****       (+) Configure the time base source to have 1ms time base with a dedicated
 111:Drivers/STM32G4xx_HAL_Driver/Src/stm32g4xx_hal.c ****           Tick interrupt priority.
 112:Drivers/STM32G4xx_HAL_Driver/Src/stm32g4xx_hal.c ****         (++) SysTick timer is used by default as source of time base, but user
 113:Drivers/STM32G4xx_HAL_Driver/Src/stm32g4xx_hal.c ****              can eventually implement his proper time base source (a general purpose
 114:Drivers/STM32G4xx_HAL_Driver/Src/stm32g4xx_hal.c ****              timer for example or other time source), keeping in mind that Time base
 115:Drivers/STM32G4xx_HAL_Driver/Src/stm32g4xx_hal.c ****              duration should be kept 1ms since PPP_TIMEOUT_VALUEs are defined and
 116:Drivers/STM32G4xx_HAL_Driver/Src/stm32g4xx_hal.c ****              handled in milliseconds basis.
 117:Drivers/STM32G4xx_HAL_Driver/Src/stm32g4xx_hal.c ****         (++) Time base configuration function (HAL_InitTick ()) is called automatically
 118:Drivers/STM32G4xx_HAL_Driver/Src/stm32g4xx_hal.c ****              at the beginning of the program after reset by HAL_Init() or at any time
 119:Drivers/STM32G4xx_HAL_Driver/Src/stm32g4xx_hal.c ****              when clock is configured, by HAL_RCC_ClockConfig().
 120:Drivers/STM32G4xx_HAL_Driver/Src/stm32g4xx_hal.c ****         (++) Source of time base is configured  to generate interrupts at regular
 121:Drivers/STM32G4xx_HAL_Driver/Src/stm32g4xx_hal.c ****              time intervals. Care must be taken if HAL_Delay() is called from a
 122:Drivers/STM32G4xx_HAL_Driver/Src/stm32g4xx_hal.c ****              peripheral ISR process, the Tick interrupt line must have higher priority
 123:Drivers/STM32G4xx_HAL_Driver/Src/stm32g4xx_hal.c ****             (numerically lower) than the peripheral interrupt. Otherwise the caller
 124:Drivers/STM32G4xx_HAL_Driver/Src/stm32g4xx_hal.c ****             ISR process will be blocked.
 125:Drivers/STM32G4xx_HAL_Driver/Src/stm32g4xx_hal.c ****        (++) functions affecting time base configurations are declared as __weak
 126:Drivers/STM32G4xx_HAL_Driver/Src/stm32g4xx_hal.c ****              to make  override possible  in case of other  implementations in user file.
 127:Drivers/STM32G4xx_HAL_Driver/Src/stm32g4xx_hal.c **** @endverbatim
 128:Drivers/STM32G4xx_HAL_Driver/Src/stm32g4xx_hal.c ****   * @{
 129:Drivers/STM32G4xx_HAL_Driver/Src/stm32g4xx_hal.c ****   */
ARM GAS  /tmp/ccL1mZn3.s 			page 4


 130:Drivers/STM32G4xx_HAL_Driver/Src/stm32g4xx_hal.c **** 
 131:Drivers/STM32G4xx_HAL_Driver/Src/stm32g4xx_hal.c **** /**
 132:Drivers/STM32G4xx_HAL_Driver/Src/stm32g4xx_hal.c ****   * @brief  This function is used to configure the Flash prefetch, the Instruction and Data caches,
 133:Drivers/STM32G4xx_HAL_Driver/Src/stm32g4xx_hal.c ****   *         the time base source, NVIC and any required global low level hardware
 134:Drivers/STM32G4xx_HAL_Driver/Src/stm32g4xx_hal.c ****   *         by calling the HAL_MspInit() callback function to be optionally defined in user file
 135:Drivers/STM32G4xx_HAL_Driver/Src/stm32g4xx_hal.c ****   *         stm32g4xx_hal_msp.c.
 136:Drivers/STM32G4xx_HAL_Driver/Src/stm32g4xx_hal.c ****   *
 137:Drivers/STM32G4xx_HAL_Driver/Src/stm32g4xx_hal.c ****   * @note   HAL_Init() function is called at the beginning of program after reset and before
 138:Drivers/STM32G4xx_HAL_Driver/Src/stm32g4xx_hal.c ****   *         the clock configuration.
 139:Drivers/STM32G4xx_HAL_Driver/Src/stm32g4xx_hal.c ****   *
 140:Drivers/STM32G4xx_HAL_Driver/Src/stm32g4xx_hal.c ****   * @note   In the default implementation the System Timer (Systick) is used as source of time base
 141:Drivers/STM32G4xx_HAL_Driver/Src/stm32g4xx_hal.c ****   *         The Systick configuration is based on HSI clock, as HSI is the clock
 142:Drivers/STM32G4xx_HAL_Driver/Src/stm32g4xx_hal.c ****   *         used after a system Reset and the NVIC configuration is set to Priority group 4.
 143:Drivers/STM32G4xx_HAL_Driver/Src/stm32g4xx_hal.c ****   *         Once done, time base tick starts incrementing: the tick variable counter is incremented
 144:Drivers/STM32G4xx_HAL_Driver/Src/stm32g4xx_hal.c ****   *         each 1ms in the SysTick_Handler() interrupt handler.
 145:Drivers/STM32G4xx_HAL_Driver/Src/stm32g4xx_hal.c ****   *
 146:Drivers/STM32G4xx_HAL_Driver/Src/stm32g4xx_hal.c ****   * @retval HAL status
 147:Drivers/STM32G4xx_HAL_Driver/Src/stm32g4xx_hal.c ****   */
 148:Drivers/STM32G4xx_HAL_Driver/Src/stm32g4xx_hal.c **** HAL_StatusTypeDef HAL_Init(void)
 149:Drivers/STM32G4xx_HAL_Driver/Src/stm32g4xx_hal.c **** {
  50              		.loc 1 149 1
  51              		.cfi_startproc
  52              		@ args = 0, pretend = 0, frame = 8
  53              		@ frame_needed = 1, uses_anonymous_args = 0
  54 0000 80B5     		push	{r7, lr}
  55              	.LCFI0:
  56              		.cfi_def_cfa_offset 8
  57              		.cfi_offset 7, -8
  58              		.cfi_offset 14, -4
  59 0002 82B0     		sub	sp, sp, #8
  60              	.LCFI1:
  61              		.cfi_def_cfa_offset 16
  62 0004 00AF     		add	r7, sp, #0
  63              	.LCFI2:
  64              		.cfi_def_cfa_register 7
 150:Drivers/STM32G4xx_HAL_Driver/Src/stm32g4xx_hal.c ****   HAL_StatusTypeDef  status = HAL_OK;
  65              		.loc 1 150 22
  66 0006 0023     		movs	r3, #0
  67 0008 FB71     		strb	r3, [r7, #7]
 151:Drivers/STM32G4xx_HAL_Driver/Src/stm32g4xx_hal.c ****   /* Configure Flash prefetch, Instruction cache, Data cache */
 152:Drivers/STM32G4xx_HAL_Driver/Src/stm32g4xx_hal.c ****   /* Default configuration at reset is:                      */
 153:Drivers/STM32G4xx_HAL_Driver/Src/stm32g4xx_hal.c ****   /* - Prefetch disabled                                     */
 154:Drivers/STM32G4xx_HAL_Driver/Src/stm32g4xx_hal.c ****   /* - Instruction cache enabled                             */
 155:Drivers/STM32G4xx_HAL_Driver/Src/stm32g4xx_hal.c ****   /* - Data cache enabled                                    */
 156:Drivers/STM32G4xx_HAL_Driver/Src/stm32g4xx_hal.c **** #if (INSTRUCTION_CACHE_ENABLE == 0U)
 157:Drivers/STM32G4xx_HAL_Driver/Src/stm32g4xx_hal.c ****   __HAL_FLASH_INSTRUCTION_CACHE_DISABLE();
 158:Drivers/STM32G4xx_HAL_Driver/Src/stm32g4xx_hal.c **** #endif /* INSTRUCTION_CACHE_ENABLE */
 159:Drivers/STM32G4xx_HAL_Driver/Src/stm32g4xx_hal.c **** 
 160:Drivers/STM32G4xx_HAL_Driver/Src/stm32g4xx_hal.c **** #if (DATA_CACHE_ENABLE == 0U)
 161:Drivers/STM32G4xx_HAL_Driver/Src/stm32g4xx_hal.c ****   __HAL_FLASH_DATA_CACHE_DISABLE();
 162:Drivers/STM32G4xx_HAL_Driver/Src/stm32g4xx_hal.c **** #endif /* DATA_CACHE_ENABLE */
 163:Drivers/STM32G4xx_HAL_Driver/Src/stm32g4xx_hal.c **** 
 164:Drivers/STM32G4xx_HAL_Driver/Src/stm32g4xx_hal.c **** #if (PREFETCH_ENABLE != 0U)
 165:Drivers/STM32G4xx_HAL_Driver/Src/stm32g4xx_hal.c ****   __HAL_FLASH_PREFETCH_BUFFER_ENABLE();
  68              		.loc 1 165 3
  69 000a 0C4B     		ldr	r3, .L5
  70 000c 1B68     		ldr	r3, [r3]
ARM GAS  /tmp/ccL1mZn3.s 			page 5


  71 000e 0B4A     		ldr	r2, .L5
  72 0010 43F48073 		orr	r3, r3, #256
  73 0014 1360     		str	r3, [r2]
 166:Drivers/STM32G4xx_HAL_Driver/Src/stm32g4xx_hal.c **** #endif /* PREFETCH_ENABLE */
 167:Drivers/STM32G4xx_HAL_Driver/Src/stm32g4xx_hal.c **** 
 168:Drivers/STM32G4xx_HAL_Driver/Src/stm32g4xx_hal.c ****   /* Set Interrupt Group Priority */
 169:Drivers/STM32G4xx_HAL_Driver/Src/stm32g4xx_hal.c ****   HAL_NVIC_SetPriorityGrouping(NVIC_PRIORITYGROUP_4);
  74              		.loc 1 169 3
  75 0016 0320     		movs	r0, #3
  76 0018 FFF7FEFF 		bl	HAL_NVIC_SetPriorityGrouping
 170:Drivers/STM32G4xx_HAL_Driver/Src/stm32g4xx_hal.c **** 
 171:Drivers/STM32G4xx_HAL_Driver/Src/stm32g4xx_hal.c ****   /* Use SysTick as time base source and configure 1ms tick (default clock after Reset is HSI) */
 172:Drivers/STM32G4xx_HAL_Driver/Src/stm32g4xx_hal.c ****   if (HAL_InitTick(TICK_INT_PRIORITY) != HAL_OK)
  77              		.loc 1 172 7
  78 001c 0020     		movs	r0, #0
  79 001e FFF7FEFF 		bl	HAL_InitTick
  80 0022 0346     		mov	r3, r0
  81              		.loc 1 172 6
  82 0024 002B     		cmp	r3, #0
  83 0026 02D0     		beq	.L2
 173:Drivers/STM32G4xx_HAL_Driver/Src/stm32g4xx_hal.c ****   {
 174:Drivers/STM32G4xx_HAL_Driver/Src/stm32g4xx_hal.c ****     status = HAL_ERROR;
  84              		.loc 1 174 12
  85 0028 0123     		movs	r3, #1
  86 002a FB71     		strb	r3, [r7, #7]
  87 002c 01E0     		b	.L3
  88              	.L2:
 175:Drivers/STM32G4xx_HAL_Driver/Src/stm32g4xx_hal.c ****   }
 176:Drivers/STM32G4xx_HAL_Driver/Src/stm32g4xx_hal.c ****   else
 177:Drivers/STM32G4xx_HAL_Driver/Src/stm32g4xx_hal.c ****   {
 178:Drivers/STM32G4xx_HAL_Driver/Src/stm32g4xx_hal.c ****     /* Init the low level hardware */
 179:Drivers/STM32G4xx_HAL_Driver/Src/stm32g4xx_hal.c ****     HAL_MspInit();
  89              		.loc 1 179 5
  90 002e FFF7FEFF 		bl	HAL_MspInit
  91              	.L3:
 180:Drivers/STM32G4xx_HAL_Driver/Src/stm32g4xx_hal.c ****   }
 181:Drivers/STM32G4xx_HAL_Driver/Src/stm32g4xx_hal.c **** 
 182:Drivers/STM32G4xx_HAL_Driver/Src/stm32g4xx_hal.c ****   /* Return function status */
 183:Drivers/STM32G4xx_HAL_Driver/Src/stm32g4xx_hal.c ****   return status;
  92              		.loc 1 183 10
  93 0032 FB79     		ldrb	r3, [r7, #7]	@ zero_extendqisi2
 184:Drivers/STM32G4xx_HAL_Driver/Src/stm32g4xx_hal.c **** 
 185:Drivers/STM32G4xx_HAL_Driver/Src/stm32g4xx_hal.c **** }
  94              		.loc 1 185 1
  95 0034 1846     		mov	r0, r3
  96 0036 0837     		adds	r7, r7, #8
  97              	.LCFI3:
  98              		.cfi_def_cfa_offset 8
  99 0038 BD46     		mov	sp, r7
 100              	.LCFI4:
 101              		.cfi_def_cfa_register 13
 102              		@ sp needed
 103 003a 80BD     		pop	{r7, pc}
 104              	.L6:
 105              		.align	2
 106              	.L5:
 107 003c 00200240 		.word	1073881088
ARM GAS  /tmp/ccL1mZn3.s 			page 6


 108              		.cfi_endproc
 109              	.LFE132:
 111              		.section	.text.HAL_DeInit,"ax",%progbits
 112              		.align	1
 113              		.global	HAL_DeInit
 114              		.syntax unified
 115              		.thumb
 116              		.thumb_func
 117              		.fpu fpv4-sp-d16
 119              	HAL_DeInit:
 120              	.LFB133:
 186:Drivers/STM32G4xx_HAL_Driver/Src/stm32g4xx_hal.c **** 
 187:Drivers/STM32G4xx_HAL_Driver/Src/stm32g4xx_hal.c **** /**
 188:Drivers/STM32G4xx_HAL_Driver/Src/stm32g4xx_hal.c ****   * @brief  This function de-initializes common part of the HAL and stops the source of time base.
 189:Drivers/STM32G4xx_HAL_Driver/Src/stm32g4xx_hal.c ****   * @note   This function is optional.
 190:Drivers/STM32G4xx_HAL_Driver/Src/stm32g4xx_hal.c ****   * @retval HAL status
 191:Drivers/STM32G4xx_HAL_Driver/Src/stm32g4xx_hal.c ****   */
 192:Drivers/STM32G4xx_HAL_Driver/Src/stm32g4xx_hal.c **** HAL_StatusTypeDef HAL_DeInit(void)
 193:Drivers/STM32G4xx_HAL_Driver/Src/stm32g4xx_hal.c **** {
 121              		.loc 1 193 1
 122              		.cfi_startproc
 123              		@ args = 0, pretend = 0, frame = 0
 124              		@ frame_needed = 1, uses_anonymous_args = 0
 125 0000 80B5     		push	{r7, lr}
 126              	.LCFI5:
 127              		.cfi_def_cfa_offset 8
 128              		.cfi_offset 7, -8
 129              		.cfi_offset 14, -4
 130 0002 00AF     		add	r7, sp, #0
 131              	.LCFI6:
 132              		.cfi_def_cfa_register 7
 194:Drivers/STM32G4xx_HAL_Driver/Src/stm32g4xx_hal.c ****   /* Reset of all peripherals */
 195:Drivers/STM32G4xx_HAL_Driver/Src/stm32g4xx_hal.c ****   __HAL_RCC_APB1_FORCE_RESET();
 133              		.loc 1 195 3
 134 0004 134B     		ldr	r3, .L9
 135 0006 4FF0FF32 		mov	r2, #-1
 136 000a 9A63     		str	r2, [r3, #56]
 196:Drivers/STM32G4xx_HAL_Driver/Src/stm32g4xx_hal.c ****   __HAL_RCC_APB1_RELEASE_RESET();
 137              		.loc 1 196 3
 138 000c 114B     		ldr	r3, .L9
 139 000e 0022     		movs	r2, #0
 140 0010 9A63     		str	r2, [r3, #56]
 197:Drivers/STM32G4xx_HAL_Driver/Src/stm32g4xx_hal.c **** 
 198:Drivers/STM32G4xx_HAL_Driver/Src/stm32g4xx_hal.c ****   __HAL_RCC_APB2_FORCE_RESET();
 141              		.loc 1 198 3
 142 0012 104B     		ldr	r3, .L9
 143 0014 4FF0FF32 		mov	r2, #-1
 144 0018 1A64     		str	r2, [r3, #64]
 199:Drivers/STM32G4xx_HAL_Driver/Src/stm32g4xx_hal.c ****   __HAL_RCC_APB2_RELEASE_RESET();
 145              		.loc 1 199 3
 146 001a 0E4B     		ldr	r3, .L9
 147 001c 0022     		movs	r2, #0
 148 001e 1A64     		str	r2, [r3, #64]
 200:Drivers/STM32G4xx_HAL_Driver/Src/stm32g4xx_hal.c **** 
 201:Drivers/STM32G4xx_HAL_Driver/Src/stm32g4xx_hal.c ****   __HAL_RCC_AHB1_FORCE_RESET();
 149              		.loc 1 201 3
 150 0020 0C4B     		ldr	r3, .L9
ARM GAS  /tmp/ccL1mZn3.s 			page 7


 151 0022 4FF0FF32 		mov	r2, #-1
 152 0026 9A62     		str	r2, [r3, #40]
 202:Drivers/STM32G4xx_HAL_Driver/Src/stm32g4xx_hal.c ****   __HAL_RCC_AHB1_RELEASE_RESET();
 153              		.loc 1 202 3
 154 0028 0A4B     		ldr	r3, .L9
 155 002a 0022     		movs	r2, #0
 156 002c 9A62     		str	r2, [r3, #40]
 203:Drivers/STM32G4xx_HAL_Driver/Src/stm32g4xx_hal.c **** 
 204:Drivers/STM32G4xx_HAL_Driver/Src/stm32g4xx_hal.c ****   __HAL_RCC_AHB2_FORCE_RESET();
 157              		.loc 1 204 3
 158 002e 094B     		ldr	r3, .L9
 159 0030 4FF0FF32 		mov	r2, #-1
 160 0034 DA62     		str	r2, [r3, #44]
 205:Drivers/STM32G4xx_HAL_Driver/Src/stm32g4xx_hal.c ****   __HAL_RCC_AHB2_RELEASE_RESET();
 161              		.loc 1 205 3
 162 0036 074B     		ldr	r3, .L9
 163 0038 0022     		movs	r2, #0
 164 003a DA62     		str	r2, [r3, #44]
 206:Drivers/STM32G4xx_HAL_Driver/Src/stm32g4xx_hal.c **** 
 207:Drivers/STM32G4xx_HAL_Driver/Src/stm32g4xx_hal.c ****   __HAL_RCC_AHB3_FORCE_RESET();
 165              		.loc 1 207 3
 166 003c 054B     		ldr	r3, .L9
 167 003e 4FF0FF32 		mov	r2, #-1
 168 0042 1A63     		str	r2, [r3, #48]
 208:Drivers/STM32G4xx_HAL_Driver/Src/stm32g4xx_hal.c ****   __HAL_RCC_AHB3_RELEASE_RESET();
 169              		.loc 1 208 3
 170 0044 034B     		ldr	r3, .L9
 171 0046 0022     		movs	r2, #0
 172 0048 1A63     		str	r2, [r3, #48]
 209:Drivers/STM32G4xx_HAL_Driver/Src/stm32g4xx_hal.c **** 
 210:Drivers/STM32G4xx_HAL_Driver/Src/stm32g4xx_hal.c ****   /* De-Init the low level hardware */
 211:Drivers/STM32G4xx_HAL_Driver/Src/stm32g4xx_hal.c ****   HAL_MspDeInit();
 173              		.loc 1 211 3
 174 004a FFF7FEFF 		bl	HAL_MspDeInit
 212:Drivers/STM32G4xx_HAL_Driver/Src/stm32g4xx_hal.c **** 
 213:Drivers/STM32G4xx_HAL_Driver/Src/stm32g4xx_hal.c ****   /* Return function status */
 214:Drivers/STM32G4xx_HAL_Driver/Src/stm32g4xx_hal.c ****   return HAL_OK;
 175              		.loc 1 214 10
 176 004e 0023     		movs	r3, #0
 215:Drivers/STM32G4xx_HAL_Driver/Src/stm32g4xx_hal.c **** }
 177              		.loc 1 215 1
 178 0050 1846     		mov	r0, r3
 179 0052 80BD     		pop	{r7, pc}
 180              	.L10:
 181              		.align	2
 182              	.L9:
 183 0054 00100240 		.word	1073876992
 184              		.cfi_endproc
 185              	.LFE133:
 187              		.section	.text.HAL_MspInit,"ax",%progbits
 188              		.align	1
 189              		.weak	HAL_MspInit
 190              		.syntax unified
 191              		.thumb
 192              		.thumb_func
 193              		.fpu fpv4-sp-d16
 195              	HAL_MspInit:
ARM GAS  /tmp/ccL1mZn3.s 			page 8


 196              	.LFB134:
 216:Drivers/STM32G4xx_HAL_Driver/Src/stm32g4xx_hal.c **** 
 217:Drivers/STM32G4xx_HAL_Driver/Src/stm32g4xx_hal.c **** /**
 218:Drivers/STM32G4xx_HAL_Driver/Src/stm32g4xx_hal.c ****   * @brief  Initialize the MSP.
 219:Drivers/STM32G4xx_HAL_Driver/Src/stm32g4xx_hal.c ****   * @retval None
 220:Drivers/STM32G4xx_HAL_Driver/Src/stm32g4xx_hal.c ****   */
 221:Drivers/STM32G4xx_HAL_Driver/Src/stm32g4xx_hal.c **** __weak void HAL_MspInit(void)
 222:Drivers/STM32G4xx_HAL_Driver/Src/stm32g4xx_hal.c **** {
 197              		.loc 1 222 1
 198              		.cfi_startproc
 199              		@ args = 0, pretend = 0, frame = 0
 200              		@ frame_needed = 1, uses_anonymous_args = 0
 201              		@ link register save eliminated.
 202 0000 80B4     		push	{r7}
 203              	.LCFI7:
 204              		.cfi_def_cfa_offset 4
 205              		.cfi_offset 7, -4
 206 0002 00AF     		add	r7, sp, #0
 207              	.LCFI8:
 208              		.cfi_def_cfa_register 7
 223:Drivers/STM32G4xx_HAL_Driver/Src/stm32g4xx_hal.c ****   /* NOTE : This function should not be modified, when the callback is needed,
 224:Drivers/STM32G4xx_HAL_Driver/Src/stm32g4xx_hal.c ****             the HAL_MspInit could be implemented in the user file
 225:Drivers/STM32G4xx_HAL_Driver/Src/stm32g4xx_hal.c ****    */
 226:Drivers/STM32G4xx_HAL_Driver/Src/stm32g4xx_hal.c **** }
 209              		.loc 1 226 1
 210 0004 00BF     		nop
 211 0006 BD46     		mov	sp, r7
 212              	.LCFI9:
 213              		.cfi_def_cfa_register 13
 214              		@ sp needed
 215 0008 5DF8047B 		ldr	r7, [sp], #4
 216              	.LCFI10:
 217              		.cfi_restore 7
 218              		.cfi_def_cfa_offset 0
 219 000c 7047     		bx	lr
 220              		.cfi_endproc
 221              	.LFE134:
 223              		.section	.text.HAL_MspDeInit,"ax",%progbits
 224              		.align	1
 225              		.weak	HAL_MspDeInit
 226              		.syntax unified
 227              		.thumb
 228              		.thumb_func
 229              		.fpu fpv4-sp-d16
 231              	HAL_MspDeInit:
 232              	.LFB135:
 227:Drivers/STM32G4xx_HAL_Driver/Src/stm32g4xx_hal.c **** 
 228:Drivers/STM32G4xx_HAL_Driver/Src/stm32g4xx_hal.c **** /**
 229:Drivers/STM32G4xx_HAL_Driver/Src/stm32g4xx_hal.c ****   * @brief  DeInitializes the MSP.
 230:Drivers/STM32G4xx_HAL_Driver/Src/stm32g4xx_hal.c ****   * @retval None
 231:Drivers/STM32G4xx_HAL_Driver/Src/stm32g4xx_hal.c ****   */
 232:Drivers/STM32G4xx_HAL_Driver/Src/stm32g4xx_hal.c **** __weak void HAL_MspDeInit(void)
 233:Drivers/STM32G4xx_HAL_Driver/Src/stm32g4xx_hal.c **** {
 233              		.loc 1 233 1
 234              		.cfi_startproc
 235              		@ args = 0, pretend = 0, frame = 0
 236              		@ frame_needed = 1, uses_anonymous_args = 0
ARM GAS  /tmp/ccL1mZn3.s 			page 9


 237              		@ link register save eliminated.
 238 0000 80B4     		push	{r7}
 239              	.LCFI11:
 240              		.cfi_def_cfa_offset 4
 241              		.cfi_offset 7, -4
 242 0002 00AF     		add	r7, sp, #0
 243              	.LCFI12:
 244              		.cfi_def_cfa_register 7
 234:Drivers/STM32G4xx_HAL_Driver/Src/stm32g4xx_hal.c ****   /* NOTE : This function should not be modified, when the callback is needed,
 235:Drivers/STM32G4xx_HAL_Driver/Src/stm32g4xx_hal.c ****             the HAL_MspDeInit could be implemented in the user file
 236:Drivers/STM32G4xx_HAL_Driver/Src/stm32g4xx_hal.c ****    */
 237:Drivers/STM32G4xx_HAL_Driver/Src/stm32g4xx_hal.c **** }
 245              		.loc 1 237 1
 246 0004 00BF     		nop
 247 0006 BD46     		mov	sp, r7
 248              	.LCFI13:
 249              		.cfi_def_cfa_register 13
 250              		@ sp needed
 251 0008 5DF8047B 		ldr	r7, [sp], #4
 252              	.LCFI14:
 253              		.cfi_restore 7
 254              		.cfi_def_cfa_offset 0
 255 000c 7047     		bx	lr
 256              		.cfi_endproc
 257              	.LFE135:
 259              		.section	.text.HAL_InitTick,"ax",%progbits
 260              		.align	1
 261              		.weak	HAL_InitTick
 262              		.syntax unified
 263              		.thumb
 264              		.thumb_func
 265              		.fpu fpv4-sp-d16
 267              	HAL_InitTick:
 268              	.LFB136:
 238:Drivers/STM32G4xx_HAL_Driver/Src/stm32g4xx_hal.c **** 
 239:Drivers/STM32G4xx_HAL_Driver/Src/stm32g4xx_hal.c **** /**
 240:Drivers/STM32G4xx_HAL_Driver/Src/stm32g4xx_hal.c ****   * @brief This function configures the source of the time base:
 241:Drivers/STM32G4xx_HAL_Driver/Src/stm32g4xx_hal.c ****   *        The time source is configured to have 1ms time base with a dedicated
 242:Drivers/STM32G4xx_HAL_Driver/Src/stm32g4xx_hal.c ****   *        Tick interrupt priority.
 243:Drivers/STM32G4xx_HAL_Driver/Src/stm32g4xx_hal.c ****   * @note This function is called  automatically at the beginning of program after
 244:Drivers/STM32G4xx_HAL_Driver/Src/stm32g4xx_hal.c ****   *       reset by HAL_Init() or at any time when clock is reconfigured  by HAL_RCC_ClockConfig().
 245:Drivers/STM32G4xx_HAL_Driver/Src/stm32g4xx_hal.c ****   * @note In the default implementation, SysTick timer is the source of time base.
 246:Drivers/STM32G4xx_HAL_Driver/Src/stm32g4xx_hal.c ****   *       It is used to generate interrupts at regular time intervals.
 247:Drivers/STM32G4xx_HAL_Driver/Src/stm32g4xx_hal.c ****   *       Care must be taken if HAL_Delay() is called from a peripheral ISR process,
 248:Drivers/STM32G4xx_HAL_Driver/Src/stm32g4xx_hal.c ****   *       The SysTick interrupt must have higher priority (numerically lower)
 249:Drivers/STM32G4xx_HAL_Driver/Src/stm32g4xx_hal.c ****   *       than the peripheral interrupt. Otherwise the caller ISR process will be blocked.
 250:Drivers/STM32G4xx_HAL_Driver/Src/stm32g4xx_hal.c ****   *       The function is declared as __weak  to be overwritten  in case of other
 251:Drivers/STM32G4xx_HAL_Driver/Src/stm32g4xx_hal.c ****   *       implementation  in user file.
 252:Drivers/STM32G4xx_HAL_Driver/Src/stm32g4xx_hal.c ****   * @param TickPriority: Tick interrupt priority.
 253:Drivers/STM32G4xx_HAL_Driver/Src/stm32g4xx_hal.c ****   * @retval HAL status
 254:Drivers/STM32G4xx_HAL_Driver/Src/stm32g4xx_hal.c ****   */
 255:Drivers/STM32G4xx_HAL_Driver/Src/stm32g4xx_hal.c **** __weak HAL_StatusTypeDef HAL_InitTick(uint32_t TickPriority)
 256:Drivers/STM32G4xx_HAL_Driver/Src/stm32g4xx_hal.c **** {
 269              		.loc 1 256 1
 270              		.cfi_startproc
 271              		@ args = 0, pretend = 0, frame = 16
 272              		@ frame_needed = 1, uses_anonymous_args = 0
ARM GAS  /tmp/ccL1mZn3.s 			page 10


 273 0000 80B5     		push	{r7, lr}
 274              	.LCFI15:
 275              		.cfi_def_cfa_offset 8
 276              		.cfi_offset 7, -8
 277              		.cfi_offset 14, -4
 278 0002 84B0     		sub	sp, sp, #16
 279              	.LCFI16:
 280              		.cfi_def_cfa_offset 24
 281 0004 00AF     		add	r7, sp, #0
 282              	.LCFI17:
 283              		.cfi_def_cfa_register 7
 284 0006 7860     		str	r0, [r7, #4]
 257:Drivers/STM32G4xx_HAL_Driver/Src/stm32g4xx_hal.c ****   HAL_StatusTypeDef  status = HAL_OK;
 285              		.loc 1 257 22
 286 0008 0023     		movs	r3, #0
 287 000a FB73     		strb	r3, [r7, #15]
 258:Drivers/STM32G4xx_HAL_Driver/Src/stm32g4xx_hal.c **** 
 259:Drivers/STM32G4xx_HAL_Driver/Src/stm32g4xx_hal.c ****   if (uwTickFreq != 0U)
 288              		.loc 1 259 18
 289 000c 164B     		ldr	r3, .L19
 290 000e 1B68     		ldr	r3, [r3]
 291              		.loc 1 259 6
 292 0010 002B     		cmp	r3, #0
 293 0012 22D0     		beq	.L14
 260:Drivers/STM32G4xx_HAL_Driver/Src/stm32g4xx_hal.c ****   {
 261:Drivers/STM32G4xx_HAL_Driver/Src/stm32g4xx_hal.c ****     /* Configure the SysTick to have interrupt in 1ms time basis*/
 262:Drivers/STM32G4xx_HAL_Driver/Src/stm32g4xx_hal.c ****     if (HAL_SYSTICK_Config(SystemCoreClock / (1000U / uwTickFreq)) == 0U)
 294              		.loc 1 262 9
 295 0014 154B     		ldr	r3, .L19+4
 296 0016 1A68     		ldr	r2, [r3]
 297              		.loc 1 262 53
 298 0018 134B     		ldr	r3, .L19
 299 001a 1B68     		ldr	r3, [r3]
 300 001c 4FF47A71 		mov	r1, #1000
 301 0020 B1FBF3F3 		udiv	r3, r1, r3
 302              		.loc 1 262 9
 303 0024 B2FBF3F3 		udiv	r3, r2, r3
 304 0028 1846     		mov	r0, r3
 305 002a FFF7FEFF 		bl	HAL_SYSTICK_Config
 306 002e 0346     		mov	r3, r0
 307              		.loc 1 262 8
 308 0030 002B     		cmp	r3, #0
 309 0032 0FD1     		bne	.L15
 263:Drivers/STM32G4xx_HAL_Driver/Src/stm32g4xx_hal.c ****     {
 264:Drivers/STM32G4xx_HAL_Driver/Src/stm32g4xx_hal.c ****       /* Configure the SysTick IRQ priority */
 265:Drivers/STM32G4xx_HAL_Driver/Src/stm32g4xx_hal.c ****       if (TickPriority < (1UL << __NVIC_PRIO_BITS))
 310              		.loc 1 265 10
 311 0034 7B68     		ldr	r3, [r7, #4]
 312 0036 0F2B     		cmp	r3, #15
 313 0038 09D8     		bhi	.L16
 266:Drivers/STM32G4xx_HAL_Driver/Src/stm32g4xx_hal.c ****       {
 267:Drivers/STM32G4xx_HAL_Driver/Src/stm32g4xx_hal.c ****         HAL_NVIC_SetPriority(SysTick_IRQn, TickPriority, 0U);
 314              		.loc 1 267 9
 315 003a 0022     		movs	r2, #0
 316 003c 7968     		ldr	r1, [r7, #4]
 317 003e 4FF0FF30 		mov	r0, #-1
 318 0042 FFF7FEFF 		bl	HAL_NVIC_SetPriority
ARM GAS  /tmp/ccL1mZn3.s 			page 11


 268:Drivers/STM32G4xx_HAL_Driver/Src/stm32g4xx_hal.c ****         uwTickPrio = TickPriority;
 319              		.loc 1 268 20
 320 0046 0A4A     		ldr	r2, .L19+8
 321 0048 7B68     		ldr	r3, [r7, #4]
 322 004a 1360     		str	r3, [r2]
 323 004c 07E0     		b	.L17
 324              	.L16:
 269:Drivers/STM32G4xx_HAL_Driver/Src/stm32g4xx_hal.c ****       }
 270:Drivers/STM32G4xx_HAL_Driver/Src/stm32g4xx_hal.c ****       else
 271:Drivers/STM32G4xx_HAL_Driver/Src/stm32g4xx_hal.c ****       {
 272:Drivers/STM32G4xx_HAL_Driver/Src/stm32g4xx_hal.c ****         status = HAL_ERROR;
 325              		.loc 1 272 16
 326 004e 0123     		movs	r3, #1
 327 0050 FB73     		strb	r3, [r7, #15]
 328 0052 04E0     		b	.L17
 329              	.L15:
 273:Drivers/STM32G4xx_HAL_Driver/Src/stm32g4xx_hal.c ****       }
 274:Drivers/STM32G4xx_HAL_Driver/Src/stm32g4xx_hal.c ****     }
 275:Drivers/STM32G4xx_HAL_Driver/Src/stm32g4xx_hal.c ****     else
 276:Drivers/STM32G4xx_HAL_Driver/Src/stm32g4xx_hal.c ****     {
 277:Drivers/STM32G4xx_HAL_Driver/Src/stm32g4xx_hal.c ****       status = HAL_ERROR;
 330              		.loc 1 277 14
 331 0054 0123     		movs	r3, #1
 332 0056 FB73     		strb	r3, [r7, #15]
 333 0058 01E0     		b	.L17
 334              	.L14:
 278:Drivers/STM32G4xx_HAL_Driver/Src/stm32g4xx_hal.c ****     }
 279:Drivers/STM32G4xx_HAL_Driver/Src/stm32g4xx_hal.c ****   }
 280:Drivers/STM32G4xx_HAL_Driver/Src/stm32g4xx_hal.c ****   else
 281:Drivers/STM32G4xx_HAL_Driver/Src/stm32g4xx_hal.c ****   {
 282:Drivers/STM32G4xx_HAL_Driver/Src/stm32g4xx_hal.c ****     status = HAL_ERROR;
 335              		.loc 1 282 12
 336 005a 0123     		movs	r3, #1
 337 005c FB73     		strb	r3, [r7, #15]
 338              	.L17:
 283:Drivers/STM32G4xx_HAL_Driver/Src/stm32g4xx_hal.c ****   }
 284:Drivers/STM32G4xx_HAL_Driver/Src/stm32g4xx_hal.c **** 
 285:Drivers/STM32G4xx_HAL_Driver/Src/stm32g4xx_hal.c ****   /* Return function status */
 286:Drivers/STM32G4xx_HAL_Driver/Src/stm32g4xx_hal.c ****   return status;
 339              		.loc 1 286 10
 340 005e FB7B     		ldrb	r3, [r7, #15]	@ zero_extendqisi2
 287:Drivers/STM32G4xx_HAL_Driver/Src/stm32g4xx_hal.c **** }
 341              		.loc 1 287 1
 342 0060 1846     		mov	r0, r3
 343 0062 1037     		adds	r7, r7, #16
 344              	.LCFI18:
 345              		.cfi_def_cfa_offset 8
 346 0064 BD46     		mov	sp, r7
 347              	.LCFI19:
 348              		.cfi_def_cfa_register 13
 349              		@ sp needed
 350 0066 80BD     		pop	{r7, pc}
 351              	.L20:
 352              		.align	2
 353              	.L19:
 354 0068 00000000 		.word	uwTickFreq
 355 006c 00000000 		.word	SystemCoreClock
ARM GAS  /tmp/ccL1mZn3.s 			page 12


 356 0070 00000000 		.word	uwTickPrio
 357              		.cfi_endproc
 358              	.LFE136:
 360              		.section	.text.HAL_IncTick,"ax",%progbits
 361              		.align	1
 362              		.weak	HAL_IncTick
 363              		.syntax unified
 364              		.thumb
 365              		.thumb_func
 366              		.fpu fpv4-sp-d16
 368              	HAL_IncTick:
 369              	.LFB137:
 288:Drivers/STM32G4xx_HAL_Driver/Src/stm32g4xx_hal.c **** 
 289:Drivers/STM32G4xx_HAL_Driver/Src/stm32g4xx_hal.c **** /**
 290:Drivers/STM32G4xx_HAL_Driver/Src/stm32g4xx_hal.c ****   * @}
 291:Drivers/STM32G4xx_HAL_Driver/Src/stm32g4xx_hal.c ****   */
 292:Drivers/STM32G4xx_HAL_Driver/Src/stm32g4xx_hal.c **** 
 293:Drivers/STM32G4xx_HAL_Driver/Src/stm32g4xx_hal.c **** /** @defgroup HAL_Exported_Functions_Group2 HAL Control functions
 294:Drivers/STM32G4xx_HAL_Driver/Src/stm32g4xx_hal.c ****   *  @brief    HAL Control functions
 295:Drivers/STM32G4xx_HAL_Driver/Src/stm32g4xx_hal.c ****   *
 296:Drivers/STM32G4xx_HAL_Driver/Src/stm32g4xx_hal.c **** @verbatim
 297:Drivers/STM32G4xx_HAL_Driver/Src/stm32g4xx_hal.c ****  ===============================================================================
 298:Drivers/STM32G4xx_HAL_Driver/Src/stm32g4xx_hal.c ****                       ##### HAL Control functions #####
 299:Drivers/STM32G4xx_HAL_Driver/Src/stm32g4xx_hal.c ****  ===============================================================================
 300:Drivers/STM32G4xx_HAL_Driver/Src/stm32g4xx_hal.c ****     [..]  This section provides functions allowing to:
 301:Drivers/STM32G4xx_HAL_Driver/Src/stm32g4xx_hal.c ****       (+) Provide a tick value in millisecond
 302:Drivers/STM32G4xx_HAL_Driver/Src/stm32g4xx_hal.c ****       (+) Provide a blocking delay in millisecond
 303:Drivers/STM32G4xx_HAL_Driver/Src/stm32g4xx_hal.c ****       (+) Suspend the time base source interrupt
 304:Drivers/STM32G4xx_HAL_Driver/Src/stm32g4xx_hal.c ****       (+) Resume the time base source interrupt
 305:Drivers/STM32G4xx_HAL_Driver/Src/stm32g4xx_hal.c ****       (+) Get the HAL API driver version
 306:Drivers/STM32G4xx_HAL_Driver/Src/stm32g4xx_hal.c ****       (+) Get the device identifier
 307:Drivers/STM32G4xx_HAL_Driver/Src/stm32g4xx_hal.c ****       (+) Get the device revision identifier
 308:Drivers/STM32G4xx_HAL_Driver/Src/stm32g4xx_hal.c **** 
 309:Drivers/STM32G4xx_HAL_Driver/Src/stm32g4xx_hal.c **** @endverbatim
 310:Drivers/STM32G4xx_HAL_Driver/Src/stm32g4xx_hal.c ****   * @{
 311:Drivers/STM32G4xx_HAL_Driver/Src/stm32g4xx_hal.c ****   */
 312:Drivers/STM32G4xx_HAL_Driver/Src/stm32g4xx_hal.c **** 
 313:Drivers/STM32G4xx_HAL_Driver/Src/stm32g4xx_hal.c **** /**
 314:Drivers/STM32G4xx_HAL_Driver/Src/stm32g4xx_hal.c ****   * @brief This function is called to increment a global variable "uwTick"
 315:Drivers/STM32G4xx_HAL_Driver/Src/stm32g4xx_hal.c ****   *        used as application time base.
 316:Drivers/STM32G4xx_HAL_Driver/Src/stm32g4xx_hal.c ****   * @note In the default implementation, this variable is incremented each 1ms
 317:Drivers/STM32G4xx_HAL_Driver/Src/stm32g4xx_hal.c ****   *       in SysTick ISR.
 318:Drivers/STM32G4xx_HAL_Driver/Src/stm32g4xx_hal.c ****   * @note This function is declared as __weak to be overwritten in case of other
 319:Drivers/STM32G4xx_HAL_Driver/Src/stm32g4xx_hal.c ****   *      implementations in user file.
 320:Drivers/STM32G4xx_HAL_Driver/Src/stm32g4xx_hal.c ****   * @retval None
 321:Drivers/STM32G4xx_HAL_Driver/Src/stm32g4xx_hal.c ****   */
 322:Drivers/STM32G4xx_HAL_Driver/Src/stm32g4xx_hal.c **** __weak void HAL_IncTick(void)
 323:Drivers/STM32G4xx_HAL_Driver/Src/stm32g4xx_hal.c **** {
 370              		.loc 1 323 1
 371              		.cfi_startproc
 372              		@ args = 0, pretend = 0, frame = 0
 373              		@ frame_needed = 1, uses_anonymous_args = 0
 374              		@ link register save eliminated.
 375 0000 80B4     		push	{r7}
 376              	.LCFI20:
 377              		.cfi_def_cfa_offset 4
 378              		.cfi_offset 7, -4
ARM GAS  /tmp/ccL1mZn3.s 			page 13


 379 0002 00AF     		add	r7, sp, #0
 380              	.LCFI21:
 381              		.cfi_def_cfa_register 7
 324:Drivers/STM32G4xx_HAL_Driver/Src/stm32g4xx_hal.c ****   uwTick += uwTickFreq;
 382              		.loc 1 324 10
 383 0004 054B     		ldr	r3, .L22
 384 0006 1A68     		ldr	r2, [r3]
 385 0008 054B     		ldr	r3, .L22+4
 386 000a 1B68     		ldr	r3, [r3]
 387 000c 1344     		add	r3, r3, r2
 388 000e 034A     		ldr	r2, .L22
 389 0010 1360     		str	r3, [r2]
 325:Drivers/STM32G4xx_HAL_Driver/Src/stm32g4xx_hal.c **** }
 390              		.loc 1 325 1
 391 0012 00BF     		nop
 392 0014 BD46     		mov	sp, r7
 393              	.LCFI22:
 394              		.cfi_def_cfa_register 13
 395              		@ sp needed
 396 0016 5DF8047B 		ldr	r7, [sp], #4
 397              	.LCFI23:
 398              		.cfi_restore 7
 399              		.cfi_def_cfa_offset 0
 400 001a 7047     		bx	lr
 401              	.L23:
 402              		.align	2
 403              	.L22:
 404 001c 00000000 		.word	uwTick
 405 0020 00000000 		.word	uwTickFreq
 406              		.cfi_endproc
 407              	.LFE137:
 409              		.section	.text.HAL_GetTick,"ax",%progbits
 410              		.align	1
 411              		.weak	HAL_GetTick
 412              		.syntax unified
 413              		.thumb
 414              		.thumb_func
 415              		.fpu fpv4-sp-d16
 417              	HAL_GetTick:
 418              	.LFB138:
 326:Drivers/STM32G4xx_HAL_Driver/Src/stm32g4xx_hal.c **** 
 327:Drivers/STM32G4xx_HAL_Driver/Src/stm32g4xx_hal.c **** /**
 328:Drivers/STM32G4xx_HAL_Driver/Src/stm32g4xx_hal.c ****   * @brief Provides a tick value in millisecond.
 329:Drivers/STM32G4xx_HAL_Driver/Src/stm32g4xx_hal.c ****   * @note This function is declared as __weak to be overwritten in case of other
 330:Drivers/STM32G4xx_HAL_Driver/Src/stm32g4xx_hal.c ****   *       implementations in user file.
 331:Drivers/STM32G4xx_HAL_Driver/Src/stm32g4xx_hal.c ****   * @retval tick value
 332:Drivers/STM32G4xx_HAL_Driver/Src/stm32g4xx_hal.c ****   */
 333:Drivers/STM32G4xx_HAL_Driver/Src/stm32g4xx_hal.c **** __weak uint32_t HAL_GetTick(void)
 334:Drivers/STM32G4xx_HAL_Driver/Src/stm32g4xx_hal.c **** {
 419              		.loc 1 334 1
 420              		.cfi_startproc
 421              		@ args = 0, pretend = 0, frame = 0
 422              		@ frame_needed = 1, uses_anonymous_args = 0
 423              		@ link register save eliminated.
 424 0000 80B4     		push	{r7}
 425              	.LCFI24:
 426              		.cfi_def_cfa_offset 4
ARM GAS  /tmp/ccL1mZn3.s 			page 14


 427              		.cfi_offset 7, -4
 428 0002 00AF     		add	r7, sp, #0
 429              	.LCFI25:
 430              		.cfi_def_cfa_register 7
 335:Drivers/STM32G4xx_HAL_Driver/Src/stm32g4xx_hal.c ****   return uwTick;
 431              		.loc 1 335 10
 432 0004 034B     		ldr	r3, .L26
 433 0006 1B68     		ldr	r3, [r3]
 336:Drivers/STM32G4xx_HAL_Driver/Src/stm32g4xx_hal.c **** }
 434              		.loc 1 336 1
 435 0008 1846     		mov	r0, r3
 436 000a BD46     		mov	sp, r7
 437              	.LCFI26:
 438              		.cfi_def_cfa_register 13
 439              		@ sp needed
 440 000c 5DF8047B 		ldr	r7, [sp], #4
 441              	.LCFI27:
 442              		.cfi_restore 7
 443              		.cfi_def_cfa_offset 0
 444 0010 7047     		bx	lr
 445              	.L27:
 446 0012 00BF     		.align	2
 447              	.L26:
 448 0014 00000000 		.word	uwTick
 449              		.cfi_endproc
 450              	.LFE138:
 452              		.section	.text.HAL_GetTickPrio,"ax",%progbits
 453              		.align	1
 454              		.global	HAL_GetTickPrio
 455              		.syntax unified
 456              		.thumb
 457              		.thumb_func
 458              		.fpu fpv4-sp-d16
 460              	HAL_GetTickPrio:
 461              	.LFB139:
 337:Drivers/STM32G4xx_HAL_Driver/Src/stm32g4xx_hal.c **** 
 338:Drivers/STM32G4xx_HAL_Driver/Src/stm32g4xx_hal.c **** /**
 339:Drivers/STM32G4xx_HAL_Driver/Src/stm32g4xx_hal.c ****   * @brief This function returns a tick priority.
 340:Drivers/STM32G4xx_HAL_Driver/Src/stm32g4xx_hal.c ****   * @retval tick priority
 341:Drivers/STM32G4xx_HAL_Driver/Src/stm32g4xx_hal.c ****   */
 342:Drivers/STM32G4xx_HAL_Driver/Src/stm32g4xx_hal.c **** uint32_t HAL_GetTickPrio(void)
 343:Drivers/STM32G4xx_HAL_Driver/Src/stm32g4xx_hal.c **** {
 462              		.loc 1 343 1
 463              		.cfi_startproc
 464              		@ args = 0, pretend = 0, frame = 0
 465              		@ frame_needed = 1, uses_anonymous_args = 0
 466              		@ link register save eliminated.
 467 0000 80B4     		push	{r7}
 468              	.LCFI28:
 469              		.cfi_def_cfa_offset 4
 470              		.cfi_offset 7, -4
 471 0002 00AF     		add	r7, sp, #0
 472              	.LCFI29:
 473              		.cfi_def_cfa_register 7
 344:Drivers/STM32G4xx_HAL_Driver/Src/stm32g4xx_hal.c ****   return uwTickPrio;
 474              		.loc 1 344 10
 475 0004 034B     		ldr	r3, .L30
ARM GAS  /tmp/ccL1mZn3.s 			page 15


 476 0006 1B68     		ldr	r3, [r3]
 345:Drivers/STM32G4xx_HAL_Driver/Src/stm32g4xx_hal.c **** }
 477              		.loc 1 345 1
 478 0008 1846     		mov	r0, r3
 479 000a BD46     		mov	sp, r7
 480              	.LCFI30:
 481              		.cfi_def_cfa_register 13
 482              		@ sp needed
 483 000c 5DF8047B 		ldr	r7, [sp], #4
 484              	.LCFI31:
 485              		.cfi_restore 7
 486              		.cfi_def_cfa_offset 0
 487 0010 7047     		bx	lr
 488              	.L31:
 489 0012 00BF     		.align	2
 490              	.L30:
 491 0014 00000000 		.word	uwTickPrio
 492              		.cfi_endproc
 493              	.LFE139:
 495              		.section	.text.HAL_SetTickFreq,"ax",%progbits
 496              		.align	1
 497              		.global	HAL_SetTickFreq
 498              		.syntax unified
 499              		.thumb
 500              		.thumb_func
 501              		.fpu fpv4-sp-d16
 503              	HAL_SetTickFreq:
 504              	.LFB140:
 346:Drivers/STM32G4xx_HAL_Driver/Src/stm32g4xx_hal.c **** 
 347:Drivers/STM32G4xx_HAL_Driver/Src/stm32g4xx_hal.c **** /**
 348:Drivers/STM32G4xx_HAL_Driver/Src/stm32g4xx_hal.c ****   * @brief Set new tick Freq.
 349:Drivers/STM32G4xx_HAL_Driver/Src/stm32g4xx_hal.c ****   * @retval status
 350:Drivers/STM32G4xx_HAL_Driver/Src/stm32g4xx_hal.c ****   */
 351:Drivers/STM32G4xx_HAL_Driver/Src/stm32g4xx_hal.c **** HAL_StatusTypeDef HAL_SetTickFreq(uint32_t Freq)
 352:Drivers/STM32G4xx_HAL_Driver/Src/stm32g4xx_hal.c **** {
 505              		.loc 1 352 1
 506              		.cfi_startproc
 507              		@ args = 0, pretend = 0, frame = 16
 508              		@ frame_needed = 1, uses_anonymous_args = 0
 509 0000 80B5     		push	{r7, lr}
 510              	.LCFI32:
 511              		.cfi_def_cfa_offset 8
 512              		.cfi_offset 7, -8
 513              		.cfi_offset 14, -4
 514 0002 84B0     		sub	sp, sp, #16
 515              	.LCFI33:
 516              		.cfi_def_cfa_offset 24
 517 0004 00AF     		add	r7, sp, #0
 518              	.LCFI34:
 519              		.cfi_def_cfa_register 7
 520 0006 7860     		str	r0, [r7, #4]
 353:Drivers/STM32G4xx_HAL_Driver/Src/stm32g4xx_hal.c ****   HAL_StatusTypeDef status  = HAL_OK;
 521              		.loc 1 353 21
 522 0008 0023     		movs	r3, #0
 523 000a FB73     		strb	r3, [r7, #15]
 354:Drivers/STM32G4xx_HAL_Driver/Src/stm32g4xx_hal.c ****   uint32_t prevTickFreq;
 355:Drivers/STM32G4xx_HAL_Driver/Src/stm32g4xx_hal.c **** 
ARM GAS  /tmp/ccL1mZn3.s 			page 16


 356:Drivers/STM32G4xx_HAL_Driver/Src/stm32g4xx_hal.c ****   assert_param(IS_TICKFREQ(Freq));
 357:Drivers/STM32G4xx_HAL_Driver/Src/stm32g4xx_hal.c **** 
 358:Drivers/STM32G4xx_HAL_Driver/Src/stm32g4xx_hal.c ****   if (uwTickFreq != Freq)
 524              		.loc 1 358 18
 525 000c 0E4B     		ldr	r3, .L35
 526 000e 1B68     		ldr	r3, [r3]
 527              		.loc 1 358 6
 528 0010 7A68     		ldr	r2, [r7, #4]
 529 0012 9A42     		cmp	r2, r3
 530 0014 12D0     		beq	.L33
 359:Drivers/STM32G4xx_HAL_Driver/Src/stm32g4xx_hal.c ****   {
 360:Drivers/STM32G4xx_HAL_Driver/Src/stm32g4xx_hal.c ****     /* Back up uwTickFreq frequency */
 361:Drivers/STM32G4xx_HAL_Driver/Src/stm32g4xx_hal.c ****     prevTickFreq = uwTickFreq;
 531              		.loc 1 361 18
 532 0016 0C4B     		ldr	r3, .L35
 533 0018 1B68     		ldr	r3, [r3]
 534 001a BB60     		str	r3, [r7, #8]
 362:Drivers/STM32G4xx_HAL_Driver/Src/stm32g4xx_hal.c **** 
 363:Drivers/STM32G4xx_HAL_Driver/Src/stm32g4xx_hal.c ****     /* Update uwTickFreq global variable used by HAL_InitTick() */
 364:Drivers/STM32G4xx_HAL_Driver/Src/stm32g4xx_hal.c ****     uwTickFreq = Freq;
 535              		.loc 1 364 16
 536 001c 0A4A     		ldr	r2, .L35
 537 001e 7B68     		ldr	r3, [r7, #4]
 538 0020 1360     		str	r3, [r2]
 365:Drivers/STM32G4xx_HAL_Driver/Src/stm32g4xx_hal.c **** 
 366:Drivers/STM32G4xx_HAL_Driver/Src/stm32g4xx_hal.c ****     /* Apply the new tick Freq  */
 367:Drivers/STM32G4xx_HAL_Driver/Src/stm32g4xx_hal.c ****     status = HAL_InitTick(uwTickPrio);
 539              		.loc 1 367 14
 540 0022 0A4B     		ldr	r3, .L35+4
 541 0024 1B68     		ldr	r3, [r3]
 542 0026 1846     		mov	r0, r3
 543 0028 FFF7FEFF 		bl	HAL_InitTick
 544 002c 0346     		mov	r3, r0
 545 002e FB73     		strb	r3, [r7, #15]
 368:Drivers/STM32G4xx_HAL_Driver/Src/stm32g4xx_hal.c **** 
 369:Drivers/STM32G4xx_HAL_Driver/Src/stm32g4xx_hal.c ****     if (status != HAL_OK)
 546              		.loc 1 369 8
 547 0030 FB7B     		ldrb	r3, [r7, #15]	@ zero_extendqisi2
 548 0032 002B     		cmp	r3, #0
 549 0034 02D0     		beq	.L33
 370:Drivers/STM32G4xx_HAL_Driver/Src/stm32g4xx_hal.c ****     {
 371:Drivers/STM32G4xx_HAL_Driver/Src/stm32g4xx_hal.c ****       /* Restore previous tick frequency */
 372:Drivers/STM32G4xx_HAL_Driver/Src/stm32g4xx_hal.c ****       uwTickFreq = prevTickFreq;
 550              		.loc 1 372 18
 551 0036 044A     		ldr	r2, .L35
 552 0038 BB68     		ldr	r3, [r7, #8]
 553 003a 1360     		str	r3, [r2]
 554              	.L33:
 373:Drivers/STM32G4xx_HAL_Driver/Src/stm32g4xx_hal.c ****     }
 374:Drivers/STM32G4xx_HAL_Driver/Src/stm32g4xx_hal.c ****   }
 375:Drivers/STM32G4xx_HAL_Driver/Src/stm32g4xx_hal.c **** 
 376:Drivers/STM32G4xx_HAL_Driver/Src/stm32g4xx_hal.c ****   return status;
 555              		.loc 1 376 10
 556 003c FB7B     		ldrb	r3, [r7, #15]	@ zero_extendqisi2
 377:Drivers/STM32G4xx_HAL_Driver/Src/stm32g4xx_hal.c **** }
 557              		.loc 1 377 1
 558 003e 1846     		mov	r0, r3
ARM GAS  /tmp/ccL1mZn3.s 			page 17


 559 0040 1037     		adds	r7, r7, #16
 560              	.LCFI35:
 561              		.cfi_def_cfa_offset 8
 562 0042 BD46     		mov	sp, r7
 563              	.LCFI36:
 564              		.cfi_def_cfa_register 13
 565              		@ sp needed
 566 0044 80BD     		pop	{r7, pc}
 567              	.L36:
 568 0046 00BF     		.align	2
 569              	.L35:
 570 0048 00000000 		.word	uwTickFreq
 571 004c 00000000 		.word	uwTickPrio
 572              		.cfi_endproc
 573              	.LFE140:
 575              		.section	.text.HAL_GetTickFreq,"ax",%progbits
 576              		.align	1
 577              		.global	HAL_GetTickFreq
 578              		.syntax unified
 579              		.thumb
 580              		.thumb_func
 581              		.fpu fpv4-sp-d16
 583              	HAL_GetTickFreq:
 584              	.LFB141:
 378:Drivers/STM32G4xx_HAL_Driver/Src/stm32g4xx_hal.c **** 
 379:Drivers/STM32G4xx_HAL_Driver/Src/stm32g4xx_hal.c **** /**
 380:Drivers/STM32G4xx_HAL_Driver/Src/stm32g4xx_hal.c ****   * @brief Returns tick frequency.
 381:Drivers/STM32G4xx_HAL_Driver/Src/stm32g4xx_hal.c ****   * @retval Tick frequency.
 382:Drivers/STM32G4xx_HAL_Driver/Src/stm32g4xx_hal.c ****   *         Value of @ref HAL_TickFreqTypeDef.
 383:Drivers/STM32G4xx_HAL_Driver/Src/stm32g4xx_hal.c ****   */
 384:Drivers/STM32G4xx_HAL_Driver/Src/stm32g4xx_hal.c **** uint32_t HAL_GetTickFreq(void)
 385:Drivers/STM32G4xx_HAL_Driver/Src/stm32g4xx_hal.c **** {
 585              		.loc 1 385 1
 586              		.cfi_startproc
 587              		@ args = 0, pretend = 0, frame = 0
 588              		@ frame_needed = 1, uses_anonymous_args = 0
 589              		@ link register save eliminated.
 590 0000 80B4     		push	{r7}
 591              	.LCFI37:
 592              		.cfi_def_cfa_offset 4
 593              		.cfi_offset 7, -4
 594 0002 00AF     		add	r7, sp, #0
 595              	.LCFI38:
 596              		.cfi_def_cfa_register 7
 386:Drivers/STM32G4xx_HAL_Driver/Src/stm32g4xx_hal.c ****   return uwTickFreq;
 597              		.loc 1 386 10
 598 0004 034B     		ldr	r3, .L39
 599 0006 1B68     		ldr	r3, [r3]
 387:Drivers/STM32G4xx_HAL_Driver/Src/stm32g4xx_hal.c **** }
 600              		.loc 1 387 1
 601 0008 1846     		mov	r0, r3
 602 000a BD46     		mov	sp, r7
 603              	.LCFI39:
 604              		.cfi_def_cfa_register 13
 605              		@ sp needed
 606 000c 5DF8047B 		ldr	r7, [sp], #4
 607              	.LCFI40:
ARM GAS  /tmp/ccL1mZn3.s 			page 18


 608              		.cfi_restore 7
 609              		.cfi_def_cfa_offset 0
 610 0010 7047     		bx	lr
 611              	.L40:
 612 0012 00BF     		.align	2
 613              	.L39:
 614 0014 00000000 		.word	uwTickFreq
 615              		.cfi_endproc
 616              	.LFE141:
 618              		.section	.text.HAL_Delay,"ax",%progbits
 619              		.align	1
 620              		.weak	HAL_Delay
 621              		.syntax unified
 622              		.thumb
 623              		.thumb_func
 624              		.fpu fpv4-sp-d16
 626              	HAL_Delay:
 627              	.LFB142:
 388:Drivers/STM32G4xx_HAL_Driver/Src/stm32g4xx_hal.c **** 
 389:Drivers/STM32G4xx_HAL_Driver/Src/stm32g4xx_hal.c **** /**
 390:Drivers/STM32G4xx_HAL_Driver/Src/stm32g4xx_hal.c ****   * @brief This function provides minimum delay (in milliseconds) based
 391:Drivers/STM32G4xx_HAL_Driver/Src/stm32g4xx_hal.c ****   *        on variable incremented.
 392:Drivers/STM32G4xx_HAL_Driver/Src/stm32g4xx_hal.c ****   * @note In the default implementation , SysTick timer is the source of time base.
 393:Drivers/STM32G4xx_HAL_Driver/Src/stm32g4xx_hal.c ****   *       It is used to generate interrupts at regular time intervals where uwTick
 394:Drivers/STM32G4xx_HAL_Driver/Src/stm32g4xx_hal.c ****   *       is incremented.
 395:Drivers/STM32G4xx_HAL_Driver/Src/stm32g4xx_hal.c ****   * @note This function is declared as __weak to be overwritten in case of other
 396:Drivers/STM32G4xx_HAL_Driver/Src/stm32g4xx_hal.c ****   *       implementations in user file.
 397:Drivers/STM32G4xx_HAL_Driver/Src/stm32g4xx_hal.c ****   * @param Delay specifies the delay time length, in milliseconds.
 398:Drivers/STM32G4xx_HAL_Driver/Src/stm32g4xx_hal.c ****   * @retval None
 399:Drivers/STM32G4xx_HAL_Driver/Src/stm32g4xx_hal.c ****   */
 400:Drivers/STM32G4xx_HAL_Driver/Src/stm32g4xx_hal.c **** __weak void HAL_Delay(uint32_t Delay)
 401:Drivers/STM32G4xx_HAL_Driver/Src/stm32g4xx_hal.c **** {
 628              		.loc 1 401 1
 629              		.cfi_startproc
 630              		@ args = 0, pretend = 0, frame = 16
 631              		@ frame_needed = 1, uses_anonymous_args = 0
 632 0000 80B5     		push	{r7, lr}
 633              	.LCFI41:
 634              		.cfi_def_cfa_offset 8
 635              		.cfi_offset 7, -8
 636              		.cfi_offset 14, -4
 637 0002 84B0     		sub	sp, sp, #16
 638              	.LCFI42:
 639              		.cfi_def_cfa_offset 24
 640 0004 00AF     		add	r7, sp, #0
 641              	.LCFI43:
 642              		.cfi_def_cfa_register 7
 643 0006 7860     		str	r0, [r7, #4]
 402:Drivers/STM32G4xx_HAL_Driver/Src/stm32g4xx_hal.c ****   uint32_t tickstart = HAL_GetTick();
 644              		.loc 1 402 24
 645 0008 FFF7FEFF 		bl	HAL_GetTick
 646 000c B860     		str	r0, [r7, #8]
 403:Drivers/STM32G4xx_HAL_Driver/Src/stm32g4xx_hal.c ****   uint32_t wait = Delay;
 647              		.loc 1 403 12
 648 000e 7B68     		ldr	r3, [r7, #4]
 649 0010 FB60     		str	r3, [r7, #12]
 404:Drivers/STM32G4xx_HAL_Driver/Src/stm32g4xx_hal.c **** 
ARM GAS  /tmp/ccL1mZn3.s 			page 19


 405:Drivers/STM32G4xx_HAL_Driver/Src/stm32g4xx_hal.c ****   /* Add a freq to guarantee minimum wait */
 406:Drivers/STM32G4xx_HAL_Driver/Src/stm32g4xx_hal.c ****   if (wait < HAL_MAX_DELAY)
 650              		.loc 1 406 6
 651 0012 FB68     		ldr	r3, [r7, #12]
 652 0014 B3F1FF3F 		cmp	r3, #-1
 653 0018 04D0     		beq	.L44
 407:Drivers/STM32G4xx_HAL_Driver/Src/stm32g4xx_hal.c ****   {
 408:Drivers/STM32G4xx_HAL_Driver/Src/stm32g4xx_hal.c ****     wait += (uint32_t)(uwTickFreq);
 654              		.loc 1 408 13
 655 001a 094B     		ldr	r3, .L45
 656 001c 1B68     		ldr	r3, [r3]
 657              		.loc 1 408 10
 658 001e FA68     		ldr	r2, [r7, #12]
 659 0020 1344     		add	r3, r3, r2
 660 0022 FB60     		str	r3, [r7, #12]
 661              	.L44:
 409:Drivers/STM32G4xx_HAL_Driver/Src/stm32g4xx_hal.c ****   }
 410:Drivers/STM32G4xx_HAL_Driver/Src/stm32g4xx_hal.c **** 
 411:Drivers/STM32G4xx_HAL_Driver/Src/stm32g4xx_hal.c ****   while ((HAL_GetTick() - tickstart) < wait)
 662              		.loc 1 411 9
 663 0024 00BF     		nop
 664              	.L43:
 665              		.loc 1 411 11 discriminator 1
 666 0026 FFF7FEFF 		bl	HAL_GetTick
 667 002a 0246     		mov	r2, r0
 668              		.loc 1 411 25 discriminator 1
 669 002c BB68     		ldr	r3, [r7, #8]
 670 002e D31A     		subs	r3, r2, r3
 671              		.loc 1 411 9 discriminator 1
 672 0030 FA68     		ldr	r2, [r7, #12]
 673 0032 9A42     		cmp	r2, r3
 674 0034 F7D8     		bhi	.L43
 412:Drivers/STM32G4xx_HAL_Driver/Src/stm32g4xx_hal.c ****   {
 413:Drivers/STM32G4xx_HAL_Driver/Src/stm32g4xx_hal.c ****   }
 414:Drivers/STM32G4xx_HAL_Driver/Src/stm32g4xx_hal.c **** }
 675              		.loc 1 414 1
 676 0036 00BF     		nop
 677 0038 00BF     		nop
 678 003a 1037     		adds	r7, r7, #16
 679              	.LCFI44:
 680              		.cfi_def_cfa_offset 8
 681 003c BD46     		mov	sp, r7
 682              	.LCFI45:
 683              		.cfi_def_cfa_register 13
 684              		@ sp needed
 685 003e 80BD     		pop	{r7, pc}
 686              	.L46:
 687              		.align	2
 688              	.L45:
 689 0040 00000000 		.word	uwTickFreq
 690              		.cfi_endproc
 691              	.LFE142:
 693              		.section	.text.HAL_SuspendTick,"ax",%progbits
 694              		.align	1
 695              		.weak	HAL_SuspendTick
 696              		.syntax unified
 697              		.thumb
ARM GAS  /tmp/ccL1mZn3.s 			page 20


 698              		.thumb_func
 699              		.fpu fpv4-sp-d16
 701              	HAL_SuspendTick:
 702              	.LFB143:
 415:Drivers/STM32G4xx_HAL_Driver/Src/stm32g4xx_hal.c **** 
 416:Drivers/STM32G4xx_HAL_Driver/Src/stm32g4xx_hal.c **** /**
 417:Drivers/STM32G4xx_HAL_Driver/Src/stm32g4xx_hal.c ****   * @brief Suspends Tick increment.
 418:Drivers/STM32G4xx_HAL_Driver/Src/stm32g4xx_hal.c ****   * @note In the default implementation , SysTick timer is the source of time base. It is
 419:Drivers/STM32G4xx_HAL_Driver/Src/stm32g4xx_hal.c ****   *       used to generate interrupts at regular time intervals. Once HAL_SuspendTick()
 420:Drivers/STM32G4xx_HAL_Driver/Src/stm32g4xx_hal.c ****   *       is called, the SysTick interrupt will be disabled and so Tick increment
 421:Drivers/STM32G4xx_HAL_Driver/Src/stm32g4xx_hal.c ****   *       is suspended.
 422:Drivers/STM32G4xx_HAL_Driver/Src/stm32g4xx_hal.c ****   * @note This function is declared as __weak to be overwritten in case of other
 423:Drivers/STM32G4xx_HAL_Driver/Src/stm32g4xx_hal.c ****   *       implementations in user file.
 424:Drivers/STM32G4xx_HAL_Driver/Src/stm32g4xx_hal.c ****   * @retval None
 425:Drivers/STM32G4xx_HAL_Driver/Src/stm32g4xx_hal.c ****   */
 426:Drivers/STM32G4xx_HAL_Driver/Src/stm32g4xx_hal.c **** __weak void HAL_SuspendTick(void)
 427:Drivers/STM32G4xx_HAL_Driver/Src/stm32g4xx_hal.c **** {
 703              		.loc 1 427 1
 704              		.cfi_startproc
 705              		@ args = 0, pretend = 0, frame = 0
 706              		@ frame_needed = 1, uses_anonymous_args = 0
 707              		@ link register save eliminated.
 708 0000 80B4     		push	{r7}
 709              	.LCFI46:
 710              		.cfi_def_cfa_offset 4
 711              		.cfi_offset 7, -4
 712 0002 00AF     		add	r7, sp, #0
 713              	.LCFI47:
 714              		.cfi_def_cfa_register 7
 428:Drivers/STM32G4xx_HAL_Driver/Src/stm32g4xx_hal.c ****   /* Disable SysTick Interrupt */
 429:Drivers/STM32G4xx_HAL_Driver/Src/stm32g4xx_hal.c ****   CLEAR_BIT(SysTick->CTRL, SysTick_CTRL_TICKINT_Msk);
 715              		.loc 1 429 3
 716 0004 054B     		ldr	r3, .L48
 717 0006 1B68     		ldr	r3, [r3]
 718 0008 044A     		ldr	r2, .L48
 719 000a 23F00203 		bic	r3, r3, #2
 720 000e 1360     		str	r3, [r2]
 430:Drivers/STM32G4xx_HAL_Driver/Src/stm32g4xx_hal.c **** }
 721              		.loc 1 430 1
 722 0010 00BF     		nop
 723 0012 BD46     		mov	sp, r7
 724              	.LCFI48:
 725              		.cfi_def_cfa_register 13
 726              		@ sp needed
 727 0014 5DF8047B 		ldr	r7, [sp], #4
 728              	.LCFI49:
 729              		.cfi_restore 7
 730              		.cfi_def_cfa_offset 0
 731 0018 7047     		bx	lr
 732              	.L49:
 733 001a 00BF     		.align	2
 734              	.L48:
 735 001c 10E000E0 		.word	-536813552
 736              		.cfi_endproc
 737              	.LFE143:
 739              		.section	.text.HAL_ResumeTick,"ax",%progbits
 740              		.align	1
ARM GAS  /tmp/ccL1mZn3.s 			page 21


 741              		.weak	HAL_ResumeTick
 742              		.syntax unified
 743              		.thumb
 744              		.thumb_func
 745              		.fpu fpv4-sp-d16
 747              	HAL_ResumeTick:
 748              	.LFB144:
 431:Drivers/STM32G4xx_HAL_Driver/Src/stm32g4xx_hal.c **** 
 432:Drivers/STM32G4xx_HAL_Driver/Src/stm32g4xx_hal.c **** /**
 433:Drivers/STM32G4xx_HAL_Driver/Src/stm32g4xx_hal.c ****   * @brief Resume Tick increment.
 434:Drivers/STM32G4xx_HAL_Driver/Src/stm32g4xx_hal.c ****   * @note In the default implementation , SysTick timer is the source of time base. It is
 435:Drivers/STM32G4xx_HAL_Driver/Src/stm32g4xx_hal.c ****   *       used to generate interrupts at regular time intervals. Once HAL_ResumeTick()
 436:Drivers/STM32G4xx_HAL_Driver/Src/stm32g4xx_hal.c ****   *       is called, the SysTick interrupt will be enabled and so Tick increment
 437:Drivers/STM32G4xx_HAL_Driver/Src/stm32g4xx_hal.c ****   *       is resumed.
 438:Drivers/STM32G4xx_HAL_Driver/Src/stm32g4xx_hal.c ****   * @note This function is declared as __weak to be overwritten in case of other
 439:Drivers/STM32G4xx_HAL_Driver/Src/stm32g4xx_hal.c ****   *       implementations in user file.
 440:Drivers/STM32G4xx_HAL_Driver/Src/stm32g4xx_hal.c ****   * @retval None
 441:Drivers/STM32G4xx_HAL_Driver/Src/stm32g4xx_hal.c ****   */
 442:Drivers/STM32G4xx_HAL_Driver/Src/stm32g4xx_hal.c **** __weak void HAL_ResumeTick(void)
 443:Drivers/STM32G4xx_HAL_Driver/Src/stm32g4xx_hal.c **** {
 749              		.loc 1 443 1
 750              		.cfi_startproc
 751              		@ args = 0, pretend = 0, frame = 0
 752              		@ frame_needed = 1, uses_anonymous_args = 0
 753              		@ link register save eliminated.
 754 0000 80B4     		push	{r7}
 755              	.LCFI50:
 756              		.cfi_def_cfa_offset 4
 757              		.cfi_offset 7, -4
 758 0002 00AF     		add	r7, sp, #0
 759              	.LCFI51:
 760              		.cfi_def_cfa_register 7
 444:Drivers/STM32G4xx_HAL_Driver/Src/stm32g4xx_hal.c ****   /* Enable SysTick Interrupt */
 445:Drivers/STM32G4xx_HAL_Driver/Src/stm32g4xx_hal.c ****   SET_BIT(SysTick->CTRL, SysTick_CTRL_TICKINT_Msk);
 761              		.loc 1 445 3
 762 0004 054B     		ldr	r3, .L51
 763 0006 1B68     		ldr	r3, [r3]
 764 0008 044A     		ldr	r2, .L51
 765 000a 43F00203 		orr	r3, r3, #2
 766 000e 1360     		str	r3, [r2]
 446:Drivers/STM32G4xx_HAL_Driver/Src/stm32g4xx_hal.c **** }
 767              		.loc 1 446 1
 768 0010 00BF     		nop
 769 0012 BD46     		mov	sp, r7
 770              	.LCFI52:
 771              		.cfi_def_cfa_register 13
 772              		@ sp needed
 773 0014 5DF8047B 		ldr	r7, [sp], #4
 774              	.LCFI53:
 775              		.cfi_restore 7
 776              		.cfi_def_cfa_offset 0
 777 0018 7047     		bx	lr
 778              	.L52:
 779 001a 00BF     		.align	2
 780              	.L51:
 781 001c 10E000E0 		.word	-536813552
 782              		.cfi_endproc
ARM GAS  /tmp/ccL1mZn3.s 			page 22


 783              	.LFE144:
 785              		.section	.text.HAL_GetHalVersion,"ax",%progbits
 786              		.align	1
 787              		.global	HAL_GetHalVersion
 788              		.syntax unified
 789              		.thumb
 790              		.thumb_func
 791              		.fpu fpv4-sp-d16
 793              	HAL_GetHalVersion:
 794              	.LFB145:
 447:Drivers/STM32G4xx_HAL_Driver/Src/stm32g4xx_hal.c **** 
 448:Drivers/STM32G4xx_HAL_Driver/Src/stm32g4xx_hal.c **** /**
 449:Drivers/STM32G4xx_HAL_Driver/Src/stm32g4xx_hal.c ****   * @brief  Returns the HAL revision.
 450:Drivers/STM32G4xx_HAL_Driver/Src/stm32g4xx_hal.c ****   * @retval version : 0xXYZR (8bits for each decimal, R for RC)
 451:Drivers/STM32G4xx_HAL_Driver/Src/stm32g4xx_hal.c ****   */
 452:Drivers/STM32G4xx_HAL_Driver/Src/stm32g4xx_hal.c **** uint32_t HAL_GetHalVersion(void)
 453:Drivers/STM32G4xx_HAL_Driver/Src/stm32g4xx_hal.c **** {
 795              		.loc 1 453 1
 796              		.cfi_startproc
 797              		@ args = 0, pretend = 0, frame = 0
 798              		@ frame_needed = 1, uses_anonymous_args = 0
 799              		@ link register save eliminated.
 800 0000 80B4     		push	{r7}
 801              	.LCFI54:
 802              		.cfi_def_cfa_offset 4
 803              		.cfi_offset 7, -4
 804 0002 00AF     		add	r7, sp, #0
 805              	.LCFI55:
 806              		.cfi_def_cfa_register 7
 454:Drivers/STM32G4xx_HAL_Driver/Src/stm32g4xx_hal.c ****   return __STM32G4xx_HAL_VERSION;
 807              		.loc 1 454 10
 808 0004 024B     		ldr	r3, .L55
 455:Drivers/STM32G4xx_HAL_Driver/Src/stm32g4xx_hal.c **** }
 809              		.loc 1 455 1
 810 0006 1846     		mov	r0, r3
 811 0008 BD46     		mov	sp, r7
 812              	.LCFI56:
 813              		.cfi_def_cfa_register 13
 814              		@ sp needed
 815 000a 5DF8047B 		ldr	r7, [sp], #4
 816              	.LCFI57:
 817              		.cfi_restore 7
 818              		.cfi_def_cfa_offset 0
 819 000e 7047     		bx	lr
 820              	.L56:
 821              		.align	2
 822              	.L55:
 823 0010 00030201 		.word	16909056
 824              		.cfi_endproc
 825              	.LFE145:
 827              		.section	.text.HAL_GetREVID,"ax",%progbits
 828              		.align	1
 829              		.global	HAL_GetREVID
 830              		.syntax unified
 831              		.thumb
 832              		.thumb_func
 833              		.fpu fpv4-sp-d16
ARM GAS  /tmp/ccL1mZn3.s 			page 23


 835              	HAL_GetREVID:
 836              	.LFB146:
 456:Drivers/STM32G4xx_HAL_Driver/Src/stm32g4xx_hal.c **** 
 457:Drivers/STM32G4xx_HAL_Driver/Src/stm32g4xx_hal.c **** /**
 458:Drivers/STM32G4xx_HAL_Driver/Src/stm32g4xx_hal.c ****   * @brief  Returns the device revision identifier.
 459:Drivers/STM32G4xx_HAL_Driver/Src/stm32g4xx_hal.c ****   * @retval Device revision identifier
 460:Drivers/STM32G4xx_HAL_Driver/Src/stm32g4xx_hal.c ****   */
 461:Drivers/STM32G4xx_HAL_Driver/Src/stm32g4xx_hal.c **** uint32_t HAL_GetREVID(void)
 462:Drivers/STM32G4xx_HAL_Driver/Src/stm32g4xx_hal.c **** {
 837              		.loc 1 462 1
 838              		.cfi_startproc
 839              		@ args = 0, pretend = 0, frame = 0
 840              		@ frame_needed = 1, uses_anonymous_args = 0
 841              		@ link register save eliminated.
 842 0000 80B4     		push	{r7}
 843              	.LCFI58:
 844              		.cfi_def_cfa_offset 4
 845              		.cfi_offset 7, -4
 846 0002 00AF     		add	r7, sp, #0
 847              	.LCFI59:
 848              		.cfi_def_cfa_register 7
 463:Drivers/STM32G4xx_HAL_Driver/Src/stm32g4xx_hal.c ****   return ((DBGMCU->IDCODE & DBGMCU_IDCODE_REV_ID) >> 16U);
 849              		.loc 1 463 18
 850 0004 044B     		ldr	r3, .L59
 851 0006 1B68     		ldr	r3, [r3]
 852              		.loc 1 463 51
 853 0008 1B0C     		lsrs	r3, r3, #16
 854 000a 9BB2     		uxth	r3, r3
 464:Drivers/STM32G4xx_HAL_Driver/Src/stm32g4xx_hal.c **** }
 855              		.loc 1 464 1
 856 000c 1846     		mov	r0, r3
 857 000e BD46     		mov	sp, r7
 858              	.LCFI60:
 859              		.cfi_def_cfa_register 13
 860              		@ sp needed
 861 0010 5DF8047B 		ldr	r7, [sp], #4
 862              	.LCFI61:
 863              		.cfi_restore 7
 864              		.cfi_def_cfa_offset 0
 865 0014 7047     		bx	lr
 866              	.L60:
 867 0016 00BF     		.align	2
 868              	.L59:
 869 0018 002004E0 		.word	-536600576
 870              		.cfi_endproc
 871              	.LFE146:
 873              		.section	.text.HAL_GetDEVID,"ax",%progbits
 874              		.align	1
 875              		.global	HAL_GetDEVID
 876              		.syntax unified
 877              		.thumb
 878              		.thumb_func
 879              		.fpu fpv4-sp-d16
 881              	HAL_GetDEVID:
 882              	.LFB147:
 465:Drivers/STM32G4xx_HAL_Driver/Src/stm32g4xx_hal.c **** 
 466:Drivers/STM32G4xx_HAL_Driver/Src/stm32g4xx_hal.c **** /**
ARM GAS  /tmp/ccL1mZn3.s 			page 24


 467:Drivers/STM32G4xx_HAL_Driver/Src/stm32g4xx_hal.c ****   * @brief  Returns the device identifier.
 468:Drivers/STM32G4xx_HAL_Driver/Src/stm32g4xx_hal.c ****   * @retval Device identifier
 469:Drivers/STM32G4xx_HAL_Driver/Src/stm32g4xx_hal.c ****   */
 470:Drivers/STM32G4xx_HAL_Driver/Src/stm32g4xx_hal.c **** uint32_t HAL_GetDEVID(void)
 471:Drivers/STM32G4xx_HAL_Driver/Src/stm32g4xx_hal.c **** {
 883              		.loc 1 471 1
 884              		.cfi_startproc
 885              		@ args = 0, pretend = 0, frame = 0
 886              		@ frame_needed = 1, uses_anonymous_args = 0
 887              		@ link register save eliminated.
 888 0000 80B4     		push	{r7}
 889              	.LCFI62:
 890              		.cfi_def_cfa_offset 4
 891              		.cfi_offset 7, -4
 892 0002 00AF     		add	r7, sp, #0
 893              	.LCFI63:
 894              		.cfi_def_cfa_register 7
 472:Drivers/STM32G4xx_HAL_Driver/Src/stm32g4xx_hal.c ****   return (DBGMCU->IDCODE & DBGMCU_IDCODE_DEV_ID);
 895              		.loc 1 472 17
 896 0004 044B     		ldr	r3, .L63
 897 0006 1B68     		ldr	r3, [r3]
 898              		.loc 1 472 26
 899 0008 C3F30B03 		ubfx	r3, r3, #0, #12
 473:Drivers/STM32G4xx_HAL_Driver/Src/stm32g4xx_hal.c **** }
 900              		.loc 1 473 1
 901 000c 1846     		mov	r0, r3
 902 000e BD46     		mov	sp, r7
 903              	.LCFI64:
 904              		.cfi_def_cfa_register 13
 905              		@ sp needed
 906 0010 5DF8047B 		ldr	r7, [sp], #4
 907              	.LCFI65:
 908              		.cfi_restore 7
 909              		.cfi_def_cfa_offset 0
 910 0014 7047     		bx	lr
 911              	.L64:
 912 0016 00BF     		.align	2
 913              	.L63:
 914 0018 002004E0 		.word	-536600576
 915              		.cfi_endproc
 916              	.LFE147:
 918              		.section	.text.HAL_GetUIDw0,"ax",%progbits
 919              		.align	1
 920              		.global	HAL_GetUIDw0
 921              		.syntax unified
 922              		.thumb
 923              		.thumb_func
 924              		.fpu fpv4-sp-d16
 926              	HAL_GetUIDw0:
 927              	.LFB148:
 474:Drivers/STM32G4xx_HAL_Driver/Src/stm32g4xx_hal.c **** 
 475:Drivers/STM32G4xx_HAL_Driver/Src/stm32g4xx_hal.c **** /**
 476:Drivers/STM32G4xx_HAL_Driver/Src/stm32g4xx_hal.c ****   * @brief  Return the first word of the unique device identifier (UID based on 96 bits)
 477:Drivers/STM32G4xx_HAL_Driver/Src/stm32g4xx_hal.c ****   * @retval Device identifier
 478:Drivers/STM32G4xx_HAL_Driver/Src/stm32g4xx_hal.c ****   */
 479:Drivers/STM32G4xx_HAL_Driver/Src/stm32g4xx_hal.c **** uint32_t HAL_GetUIDw0(void)
 480:Drivers/STM32G4xx_HAL_Driver/Src/stm32g4xx_hal.c **** {
ARM GAS  /tmp/ccL1mZn3.s 			page 25


 928              		.loc 1 480 1
 929              		.cfi_startproc
 930              		@ args = 0, pretend = 0, frame = 0
 931              		@ frame_needed = 1, uses_anonymous_args = 0
 932              		@ link register save eliminated.
 933 0000 80B4     		push	{r7}
 934              	.LCFI66:
 935              		.cfi_def_cfa_offset 4
 936              		.cfi_offset 7, -4
 937 0002 00AF     		add	r7, sp, #0
 938              	.LCFI67:
 939              		.cfi_def_cfa_register 7
 481:Drivers/STM32G4xx_HAL_Driver/Src/stm32g4xx_hal.c ****   return (READ_REG(*((uint32_t *)UID_BASE)));
 940              		.loc 1 481 11
 941 0004 034B     		ldr	r3, .L67
 942 0006 1B68     		ldr	r3, [r3]
 482:Drivers/STM32G4xx_HAL_Driver/Src/stm32g4xx_hal.c **** }
 943              		.loc 1 482 1
 944 0008 1846     		mov	r0, r3
 945 000a BD46     		mov	sp, r7
 946              	.LCFI68:
 947              		.cfi_def_cfa_register 13
 948              		@ sp needed
 949 000c 5DF8047B 		ldr	r7, [sp], #4
 950              	.LCFI69:
 951              		.cfi_restore 7
 952              		.cfi_def_cfa_offset 0
 953 0010 7047     		bx	lr
 954              	.L68:
 955 0012 00BF     		.align	2
 956              	.L67:
 957 0014 9075FF1F 		.word	536835472
 958              		.cfi_endproc
 959              	.LFE148:
 961              		.section	.text.HAL_GetUIDw1,"ax",%progbits
 962              		.align	1
 963              		.global	HAL_GetUIDw1
 964              		.syntax unified
 965              		.thumb
 966              		.thumb_func
 967              		.fpu fpv4-sp-d16
 969              	HAL_GetUIDw1:
 970              	.LFB149:
 483:Drivers/STM32G4xx_HAL_Driver/Src/stm32g4xx_hal.c **** 
 484:Drivers/STM32G4xx_HAL_Driver/Src/stm32g4xx_hal.c **** /**
 485:Drivers/STM32G4xx_HAL_Driver/Src/stm32g4xx_hal.c ****   * @brief  Return the second word of the unique device identifier (UID based on 96 bits)
 486:Drivers/STM32G4xx_HAL_Driver/Src/stm32g4xx_hal.c ****   * @retval Device identifier
 487:Drivers/STM32G4xx_HAL_Driver/Src/stm32g4xx_hal.c ****   */
 488:Drivers/STM32G4xx_HAL_Driver/Src/stm32g4xx_hal.c **** uint32_t HAL_GetUIDw1(void)
 489:Drivers/STM32G4xx_HAL_Driver/Src/stm32g4xx_hal.c **** {
 971              		.loc 1 489 1
 972              		.cfi_startproc
 973              		@ args = 0, pretend = 0, frame = 0
 974              		@ frame_needed = 1, uses_anonymous_args = 0
 975              		@ link register save eliminated.
 976 0000 80B4     		push	{r7}
 977              	.LCFI70:
ARM GAS  /tmp/ccL1mZn3.s 			page 26


 978              		.cfi_def_cfa_offset 4
 979              		.cfi_offset 7, -4
 980 0002 00AF     		add	r7, sp, #0
 981              	.LCFI71:
 982              		.cfi_def_cfa_register 7
 490:Drivers/STM32G4xx_HAL_Driver/Src/stm32g4xx_hal.c ****   return (READ_REG(*((uint32_t *)(UID_BASE + 4U))));
 983              		.loc 1 490 11
 984 0004 034B     		ldr	r3, .L71
 985 0006 1B68     		ldr	r3, [r3]
 491:Drivers/STM32G4xx_HAL_Driver/Src/stm32g4xx_hal.c **** }
 986              		.loc 1 491 1
 987 0008 1846     		mov	r0, r3
 988 000a BD46     		mov	sp, r7
 989              	.LCFI72:
 990              		.cfi_def_cfa_register 13
 991              		@ sp needed
 992 000c 5DF8047B 		ldr	r7, [sp], #4
 993              	.LCFI73:
 994              		.cfi_restore 7
 995              		.cfi_def_cfa_offset 0
 996 0010 7047     		bx	lr
 997              	.L72:
 998 0012 00BF     		.align	2
 999              	.L71:
 1000 0014 9475FF1F 		.word	536835476
 1001              		.cfi_endproc
 1002              	.LFE149:
 1004              		.section	.text.HAL_GetUIDw2,"ax",%progbits
 1005              		.align	1
 1006              		.global	HAL_GetUIDw2
 1007              		.syntax unified
 1008              		.thumb
 1009              		.thumb_func
 1010              		.fpu fpv4-sp-d16
 1012              	HAL_GetUIDw2:
 1013              	.LFB150:
 492:Drivers/STM32G4xx_HAL_Driver/Src/stm32g4xx_hal.c **** 
 493:Drivers/STM32G4xx_HAL_Driver/Src/stm32g4xx_hal.c **** /**
 494:Drivers/STM32G4xx_HAL_Driver/Src/stm32g4xx_hal.c ****   * @brief  Return the third word of the unique device identifier (UID based on 96 bits)
 495:Drivers/STM32G4xx_HAL_Driver/Src/stm32g4xx_hal.c ****   * @retval Device identifier
 496:Drivers/STM32G4xx_HAL_Driver/Src/stm32g4xx_hal.c ****   */
 497:Drivers/STM32G4xx_HAL_Driver/Src/stm32g4xx_hal.c **** uint32_t HAL_GetUIDw2(void)
 498:Drivers/STM32G4xx_HAL_Driver/Src/stm32g4xx_hal.c **** {
 1014              		.loc 1 498 1
 1015              		.cfi_startproc
 1016              		@ args = 0, pretend = 0, frame = 0
 1017              		@ frame_needed = 1, uses_anonymous_args = 0
 1018              		@ link register save eliminated.
 1019 0000 80B4     		push	{r7}
 1020              	.LCFI74:
 1021              		.cfi_def_cfa_offset 4
 1022              		.cfi_offset 7, -4
 1023 0002 00AF     		add	r7, sp, #0
 1024              	.LCFI75:
 1025              		.cfi_def_cfa_register 7
 499:Drivers/STM32G4xx_HAL_Driver/Src/stm32g4xx_hal.c ****   return (READ_REG(*((uint32_t *)(UID_BASE + 8U))));
 1026              		.loc 1 499 11
ARM GAS  /tmp/ccL1mZn3.s 			page 27


 1027 0004 034B     		ldr	r3, .L75
 1028 0006 1B68     		ldr	r3, [r3]
 500:Drivers/STM32G4xx_HAL_Driver/Src/stm32g4xx_hal.c **** }
 1029              		.loc 1 500 1
 1030 0008 1846     		mov	r0, r3
 1031 000a BD46     		mov	sp, r7
 1032              	.LCFI76:
 1033              		.cfi_def_cfa_register 13
 1034              		@ sp needed
 1035 000c 5DF8047B 		ldr	r7, [sp], #4
 1036              	.LCFI77:
 1037              		.cfi_restore 7
 1038              		.cfi_def_cfa_offset 0
 1039 0010 7047     		bx	lr
 1040              	.L76:
 1041 0012 00BF     		.align	2
 1042              	.L75:
 1043 0014 9875FF1F 		.word	536835480
 1044              		.cfi_endproc
 1045              	.LFE150:
 1047              		.section	.text.HAL_DBGMCU_EnableDBGSleepMode,"ax",%progbits
 1048              		.align	1
 1049              		.global	HAL_DBGMCU_EnableDBGSleepMode
 1050              		.syntax unified
 1051              		.thumb
 1052              		.thumb_func
 1053              		.fpu fpv4-sp-d16
 1055              	HAL_DBGMCU_EnableDBGSleepMode:
 1056              	.LFB151:
 501:Drivers/STM32G4xx_HAL_Driver/Src/stm32g4xx_hal.c **** 
 502:Drivers/STM32G4xx_HAL_Driver/Src/stm32g4xx_hal.c **** /**
 503:Drivers/STM32G4xx_HAL_Driver/Src/stm32g4xx_hal.c ****   * @}
 504:Drivers/STM32G4xx_HAL_Driver/Src/stm32g4xx_hal.c ****   */
 505:Drivers/STM32G4xx_HAL_Driver/Src/stm32g4xx_hal.c **** 
 506:Drivers/STM32G4xx_HAL_Driver/Src/stm32g4xx_hal.c **** /** @defgroup HAL_Exported_Functions_Group3 HAL Debug functions
 507:Drivers/STM32G4xx_HAL_Driver/Src/stm32g4xx_hal.c ****   *  @brief    HAL Debug functions
 508:Drivers/STM32G4xx_HAL_Driver/Src/stm32g4xx_hal.c ****   *
 509:Drivers/STM32G4xx_HAL_Driver/Src/stm32g4xx_hal.c **** @verbatim
 510:Drivers/STM32G4xx_HAL_Driver/Src/stm32g4xx_hal.c ****  ===============================================================================
 511:Drivers/STM32G4xx_HAL_Driver/Src/stm32g4xx_hal.c ****                       ##### HAL Debug functions #####
 512:Drivers/STM32G4xx_HAL_Driver/Src/stm32g4xx_hal.c ****  ===============================================================================
 513:Drivers/STM32G4xx_HAL_Driver/Src/stm32g4xx_hal.c ****     [..]  This section provides functions allowing to:
 514:Drivers/STM32G4xx_HAL_Driver/Src/stm32g4xx_hal.c ****       (+) Enable/Disable Debug module during SLEEP mode
 515:Drivers/STM32G4xx_HAL_Driver/Src/stm32g4xx_hal.c ****       (+) Enable/Disable Debug module during STOP0/STOP1/STOP2 modes
 516:Drivers/STM32G4xx_HAL_Driver/Src/stm32g4xx_hal.c ****       (+) Enable/Disable Debug module during STANDBY mode
 517:Drivers/STM32G4xx_HAL_Driver/Src/stm32g4xx_hal.c **** 
 518:Drivers/STM32G4xx_HAL_Driver/Src/stm32g4xx_hal.c **** @endverbatim
 519:Drivers/STM32G4xx_HAL_Driver/Src/stm32g4xx_hal.c ****   * @{
 520:Drivers/STM32G4xx_HAL_Driver/Src/stm32g4xx_hal.c ****   */
 521:Drivers/STM32G4xx_HAL_Driver/Src/stm32g4xx_hal.c **** 
 522:Drivers/STM32G4xx_HAL_Driver/Src/stm32g4xx_hal.c **** /**
 523:Drivers/STM32G4xx_HAL_Driver/Src/stm32g4xx_hal.c ****   * @brief  Enable the Debug Module during SLEEP mode.
 524:Drivers/STM32G4xx_HAL_Driver/Src/stm32g4xx_hal.c ****   * @retval None
 525:Drivers/STM32G4xx_HAL_Driver/Src/stm32g4xx_hal.c ****   */
 526:Drivers/STM32G4xx_HAL_Driver/Src/stm32g4xx_hal.c **** void HAL_DBGMCU_EnableDBGSleepMode(void)
 527:Drivers/STM32G4xx_HAL_Driver/Src/stm32g4xx_hal.c **** {
 1057              		.loc 1 527 1
ARM GAS  /tmp/ccL1mZn3.s 			page 28


 1058              		.cfi_startproc
 1059              		@ args = 0, pretend = 0, frame = 0
 1060              		@ frame_needed = 1, uses_anonymous_args = 0
 1061              		@ link register save eliminated.
 1062 0000 80B4     		push	{r7}
 1063              	.LCFI78:
 1064              		.cfi_def_cfa_offset 4
 1065              		.cfi_offset 7, -4
 1066 0002 00AF     		add	r7, sp, #0
 1067              	.LCFI79:
 1068              		.cfi_def_cfa_register 7
 528:Drivers/STM32G4xx_HAL_Driver/Src/stm32g4xx_hal.c ****   SET_BIT(DBGMCU->CR, DBGMCU_CR_DBG_SLEEP);
 1069              		.loc 1 528 3
 1070 0004 054B     		ldr	r3, .L78
 1071 0006 5B68     		ldr	r3, [r3, #4]
 1072 0008 044A     		ldr	r2, .L78
 1073 000a 43F00103 		orr	r3, r3, #1
 1074 000e 5360     		str	r3, [r2, #4]
 529:Drivers/STM32G4xx_HAL_Driver/Src/stm32g4xx_hal.c **** }
 1075              		.loc 1 529 1
 1076 0010 00BF     		nop
 1077 0012 BD46     		mov	sp, r7
 1078              	.LCFI80:
 1079              		.cfi_def_cfa_register 13
 1080              		@ sp needed
 1081 0014 5DF8047B 		ldr	r7, [sp], #4
 1082              	.LCFI81:
 1083              		.cfi_restore 7
 1084              		.cfi_def_cfa_offset 0
 1085 0018 7047     		bx	lr
 1086              	.L79:
 1087 001a 00BF     		.align	2
 1088              	.L78:
 1089 001c 002004E0 		.word	-536600576
 1090              		.cfi_endproc
 1091              	.LFE151:
 1093              		.section	.text.HAL_DBGMCU_DisableDBGSleepMode,"ax",%progbits
 1094              		.align	1
 1095              		.global	HAL_DBGMCU_DisableDBGSleepMode
 1096              		.syntax unified
 1097              		.thumb
 1098              		.thumb_func
 1099              		.fpu fpv4-sp-d16
 1101              	HAL_DBGMCU_DisableDBGSleepMode:
 1102              	.LFB152:
 530:Drivers/STM32G4xx_HAL_Driver/Src/stm32g4xx_hal.c **** 
 531:Drivers/STM32G4xx_HAL_Driver/Src/stm32g4xx_hal.c **** /**
 532:Drivers/STM32G4xx_HAL_Driver/Src/stm32g4xx_hal.c ****   * @brief  Disable the Debug Module during SLEEP mode.
 533:Drivers/STM32G4xx_HAL_Driver/Src/stm32g4xx_hal.c ****   * @retval None
 534:Drivers/STM32G4xx_HAL_Driver/Src/stm32g4xx_hal.c ****   */
 535:Drivers/STM32G4xx_HAL_Driver/Src/stm32g4xx_hal.c **** void HAL_DBGMCU_DisableDBGSleepMode(void)
 536:Drivers/STM32G4xx_HAL_Driver/Src/stm32g4xx_hal.c **** {
 1103              		.loc 1 536 1
 1104              		.cfi_startproc
 1105              		@ args = 0, pretend = 0, frame = 0
 1106              		@ frame_needed = 1, uses_anonymous_args = 0
 1107              		@ link register save eliminated.
ARM GAS  /tmp/ccL1mZn3.s 			page 29


 1108 0000 80B4     		push	{r7}
 1109              	.LCFI82:
 1110              		.cfi_def_cfa_offset 4
 1111              		.cfi_offset 7, -4
 1112 0002 00AF     		add	r7, sp, #0
 1113              	.LCFI83:
 1114              		.cfi_def_cfa_register 7
 537:Drivers/STM32G4xx_HAL_Driver/Src/stm32g4xx_hal.c ****   CLEAR_BIT(DBGMCU->CR, DBGMCU_CR_DBG_SLEEP);
 1115              		.loc 1 537 3
 1116 0004 054B     		ldr	r3, .L81
 1117 0006 5B68     		ldr	r3, [r3, #4]
 1118 0008 044A     		ldr	r2, .L81
 1119 000a 23F00103 		bic	r3, r3, #1
 1120 000e 5360     		str	r3, [r2, #4]
 538:Drivers/STM32G4xx_HAL_Driver/Src/stm32g4xx_hal.c **** }
 1121              		.loc 1 538 1
 1122 0010 00BF     		nop
 1123 0012 BD46     		mov	sp, r7
 1124              	.LCFI84:
 1125              		.cfi_def_cfa_register 13
 1126              		@ sp needed
 1127 0014 5DF8047B 		ldr	r7, [sp], #4
 1128              	.LCFI85:
 1129              		.cfi_restore 7
 1130              		.cfi_def_cfa_offset 0
 1131 0018 7047     		bx	lr
 1132              	.L82:
 1133 001a 00BF     		.align	2
 1134              	.L81:
 1135 001c 002004E0 		.word	-536600576
 1136              		.cfi_endproc
 1137              	.LFE152:
 1139              		.section	.text.HAL_DBGMCU_EnableDBGStopMode,"ax",%progbits
 1140              		.align	1
 1141              		.global	HAL_DBGMCU_EnableDBGStopMode
 1142              		.syntax unified
 1143              		.thumb
 1144              		.thumb_func
 1145              		.fpu fpv4-sp-d16
 1147              	HAL_DBGMCU_EnableDBGStopMode:
 1148              	.LFB153:
 539:Drivers/STM32G4xx_HAL_Driver/Src/stm32g4xx_hal.c **** 
 540:Drivers/STM32G4xx_HAL_Driver/Src/stm32g4xx_hal.c **** /**
 541:Drivers/STM32G4xx_HAL_Driver/Src/stm32g4xx_hal.c ****   * @brief  Enable the Debug Module during STOP0/STOP1/STOP2 modes.
 542:Drivers/STM32G4xx_HAL_Driver/Src/stm32g4xx_hal.c ****   * @retval None
 543:Drivers/STM32G4xx_HAL_Driver/Src/stm32g4xx_hal.c ****   */
 544:Drivers/STM32G4xx_HAL_Driver/Src/stm32g4xx_hal.c **** void HAL_DBGMCU_EnableDBGStopMode(void)
 545:Drivers/STM32G4xx_HAL_Driver/Src/stm32g4xx_hal.c **** {
 1149              		.loc 1 545 1
 1150              		.cfi_startproc
 1151              		@ args = 0, pretend = 0, frame = 0
 1152              		@ frame_needed = 1, uses_anonymous_args = 0
 1153              		@ link register save eliminated.
 1154 0000 80B4     		push	{r7}
 1155              	.LCFI86:
 1156              		.cfi_def_cfa_offset 4
 1157              		.cfi_offset 7, -4
ARM GAS  /tmp/ccL1mZn3.s 			page 30


 1158 0002 00AF     		add	r7, sp, #0
 1159              	.LCFI87:
 1160              		.cfi_def_cfa_register 7
 546:Drivers/STM32G4xx_HAL_Driver/Src/stm32g4xx_hal.c ****   SET_BIT(DBGMCU->CR, DBGMCU_CR_DBG_STOP);
 1161              		.loc 1 546 3
 1162 0004 054B     		ldr	r3, .L84
 1163 0006 5B68     		ldr	r3, [r3, #4]
 1164 0008 044A     		ldr	r2, .L84
 1165 000a 43F00203 		orr	r3, r3, #2
 1166 000e 5360     		str	r3, [r2, #4]
 547:Drivers/STM32G4xx_HAL_Driver/Src/stm32g4xx_hal.c **** }
 1167              		.loc 1 547 1
 1168 0010 00BF     		nop
 1169 0012 BD46     		mov	sp, r7
 1170              	.LCFI88:
 1171              		.cfi_def_cfa_register 13
 1172              		@ sp needed
 1173 0014 5DF8047B 		ldr	r7, [sp], #4
 1174              	.LCFI89:
 1175              		.cfi_restore 7
 1176              		.cfi_def_cfa_offset 0
 1177 0018 7047     		bx	lr
 1178              	.L85:
 1179 001a 00BF     		.align	2
 1180              	.L84:
 1181 001c 002004E0 		.word	-536600576
 1182              		.cfi_endproc
 1183              	.LFE153:
 1185              		.section	.text.HAL_DBGMCU_DisableDBGStopMode,"ax",%progbits
 1186              		.align	1
 1187              		.global	HAL_DBGMCU_DisableDBGStopMode
 1188              		.syntax unified
 1189              		.thumb
 1190              		.thumb_func
 1191              		.fpu fpv4-sp-d16
 1193              	HAL_DBGMCU_DisableDBGStopMode:
 1194              	.LFB154:
 548:Drivers/STM32G4xx_HAL_Driver/Src/stm32g4xx_hal.c **** 
 549:Drivers/STM32G4xx_HAL_Driver/Src/stm32g4xx_hal.c **** /**
 550:Drivers/STM32G4xx_HAL_Driver/Src/stm32g4xx_hal.c ****   * @brief  Disable the Debug Module during STOP0/STOP1/STOP2 modes.
 551:Drivers/STM32G4xx_HAL_Driver/Src/stm32g4xx_hal.c ****   * @retval None
 552:Drivers/STM32G4xx_HAL_Driver/Src/stm32g4xx_hal.c ****   */
 553:Drivers/STM32G4xx_HAL_Driver/Src/stm32g4xx_hal.c **** void HAL_DBGMCU_DisableDBGStopMode(void)
 554:Drivers/STM32G4xx_HAL_Driver/Src/stm32g4xx_hal.c **** {
 1195              		.loc 1 554 1
 1196              		.cfi_startproc
 1197              		@ args = 0, pretend = 0, frame = 0
 1198              		@ frame_needed = 1, uses_anonymous_args = 0
 1199              		@ link register save eliminated.
 1200 0000 80B4     		push	{r7}
 1201              	.LCFI90:
 1202              		.cfi_def_cfa_offset 4
 1203              		.cfi_offset 7, -4
 1204 0002 00AF     		add	r7, sp, #0
 1205              	.LCFI91:
 1206              		.cfi_def_cfa_register 7
 555:Drivers/STM32G4xx_HAL_Driver/Src/stm32g4xx_hal.c ****   CLEAR_BIT(DBGMCU->CR, DBGMCU_CR_DBG_STOP);
ARM GAS  /tmp/ccL1mZn3.s 			page 31


 1207              		.loc 1 555 3
 1208 0004 054B     		ldr	r3, .L87
 1209 0006 5B68     		ldr	r3, [r3, #4]
 1210 0008 044A     		ldr	r2, .L87
 1211 000a 23F00203 		bic	r3, r3, #2
 1212 000e 5360     		str	r3, [r2, #4]
 556:Drivers/STM32G4xx_HAL_Driver/Src/stm32g4xx_hal.c **** }
 1213              		.loc 1 556 1
 1214 0010 00BF     		nop
 1215 0012 BD46     		mov	sp, r7
 1216              	.LCFI92:
 1217              		.cfi_def_cfa_register 13
 1218              		@ sp needed
 1219 0014 5DF8047B 		ldr	r7, [sp], #4
 1220              	.LCFI93:
 1221              		.cfi_restore 7
 1222              		.cfi_def_cfa_offset 0
 1223 0018 7047     		bx	lr
 1224              	.L88:
 1225 001a 00BF     		.align	2
 1226              	.L87:
 1227 001c 002004E0 		.word	-536600576
 1228              		.cfi_endproc
 1229              	.LFE154:
 1231              		.section	.text.HAL_DBGMCU_EnableDBGStandbyMode,"ax",%progbits
 1232              		.align	1
 1233              		.global	HAL_DBGMCU_EnableDBGStandbyMode
 1234              		.syntax unified
 1235              		.thumb
 1236              		.thumb_func
 1237              		.fpu fpv4-sp-d16
 1239              	HAL_DBGMCU_EnableDBGStandbyMode:
 1240              	.LFB155:
 557:Drivers/STM32G4xx_HAL_Driver/Src/stm32g4xx_hal.c **** 
 558:Drivers/STM32G4xx_HAL_Driver/Src/stm32g4xx_hal.c **** /**
 559:Drivers/STM32G4xx_HAL_Driver/Src/stm32g4xx_hal.c ****   * @brief  Enable the Debug Module during STANDBY mode.
 560:Drivers/STM32G4xx_HAL_Driver/Src/stm32g4xx_hal.c ****   * @retval None
 561:Drivers/STM32G4xx_HAL_Driver/Src/stm32g4xx_hal.c ****   */
 562:Drivers/STM32G4xx_HAL_Driver/Src/stm32g4xx_hal.c **** void HAL_DBGMCU_EnableDBGStandbyMode(void)
 563:Drivers/STM32G4xx_HAL_Driver/Src/stm32g4xx_hal.c **** {
 1241              		.loc 1 563 1
 1242              		.cfi_startproc
 1243              		@ args = 0, pretend = 0, frame = 0
 1244              		@ frame_needed = 1, uses_anonymous_args = 0
 1245              		@ link register save eliminated.
 1246 0000 80B4     		push	{r7}
 1247              	.LCFI94:
 1248              		.cfi_def_cfa_offset 4
 1249              		.cfi_offset 7, -4
 1250 0002 00AF     		add	r7, sp, #0
 1251              	.LCFI95:
 1252              		.cfi_def_cfa_register 7
 564:Drivers/STM32G4xx_HAL_Driver/Src/stm32g4xx_hal.c ****   SET_BIT(DBGMCU->CR, DBGMCU_CR_DBG_STANDBY);
 1253              		.loc 1 564 3
 1254 0004 054B     		ldr	r3, .L90
 1255 0006 5B68     		ldr	r3, [r3, #4]
 1256 0008 044A     		ldr	r2, .L90
ARM GAS  /tmp/ccL1mZn3.s 			page 32


 1257 000a 43F00403 		orr	r3, r3, #4
 1258 000e 5360     		str	r3, [r2, #4]
 565:Drivers/STM32G4xx_HAL_Driver/Src/stm32g4xx_hal.c **** }
 1259              		.loc 1 565 1
 1260 0010 00BF     		nop
 1261 0012 BD46     		mov	sp, r7
 1262              	.LCFI96:
 1263              		.cfi_def_cfa_register 13
 1264              		@ sp needed
 1265 0014 5DF8047B 		ldr	r7, [sp], #4
 1266              	.LCFI97:
 1267              		.cfi_restore 7
 1268              		.cfi_def_cfa_offset 0
 1269 0018 7047     		bx	lr
 1270              	.L91:
 1271 001a 00BF     		.align	2
 1272              	.L90:
 1273 001c 002004E0 		.word	-536600576
 1274              		.cfi_endproc
 1275              	.LFE155:
 1277              		.section	.text.HAL_DBGMCU_DisableDBGStandbyMode,"ax",%progbits
 1278              		.align	1
 1279              		.global	HAL_DBGMCU_DisableDBGStandbyMode
 1280              		.syntax unified
 1281              		.thumb
 1282              		.thumb_func
 1283              		.fpu fpv4-sp-d16
 1285              	HAL_DBGMCU_DisableDBGStandbyMode:
 1286              	.LFB156:
 566:Drivers/STM32G4xx_HAL_Driver/Src/stm32g4xx_hal.c **** 
 567:Drivers/STM32G4xx_HAL_Driver/Src/stm32g4xx_hal.c **** /**
 568:Drivers/STM32G4xx_HAL_Driver/Src/stm32g4xx_hal.c ****   * @brief  Disable the Debug Module during STANDBY mode.
 569:Drivers/STM32G4xx_HAL_Driver/Src/stm32g4xx_hal.c ****   * @retval None
 570:Drivers/STM32G4xx_HAL_Driver/Src/stm32g4xx_hal.c ****   */
 571:Drivers/STM32G4xx_HAL_Driver/Src/stm32g4xx_hal.c **** void HAL_DBGMCU_DisableDBGStandbyMode(void)
 572:Drivers/STM32G4xx_HAL_Driver/Src/stm32g4xx_hal.c **** {
 1287              		.loc 1 572 1
 1288              		.cfi_startproc
 1289              		@ args = 0, pretend = 0, frame = 0
 1290              		@ frame_needed = 1, uses_anonymous_args = 0
 1291              		@ link register save eliminated.
 1292 0000 80B4     		push	{r7}
 1293              	.LCFI98:
 1294              		.cfi_def_cfa_offset 4
 1295              		.cfi_offset 7, -4
 1296 0002 00AF     		add	r7, sp, #0
 1297              	.LCFI99:
 1298              		.cfi_def_cfa_register 7
 573:Drivers/STM32G4xx_HAL_Driver/Src/stm32g4xx_hal.c ****   CLEAR_BIT(DBGMCU->CR, DBGMCU_CR_DBG_STANDBY);
 1299              		.loc 1 573 3
 1300 0004 054B     		ldr	r3, .L93
 1301 0006 5B68     		ldr	r3, [r3, #4]
 1302 0008 044A     		ldr	r2, .L93
 1303 000a 23F00403 		bic	r3, r3, #4
 1304 000e 5360     		str	r3, [r2, #4]
 574:Drivers/STM32G4xx_HAL_Driver/Src/stm32g4xx_hal.c **** }
 1305              		.loc 1 574 1
ARM GAS  /tmp/ccL1mZn3.s 			page 33


 1306 0010 00BF     		nop
 1307 0012 BD46     		mov	sp, r7
 1308              	.LCFI100:
 1309              		.cfi_def_cfa_register 13
 1310              		@ sp needed
 1311 0014 5DF8047B 		ldr	r7, [sp], #4
 1312              	.LCFI101:
 1313              		.cfi_restore 7
 1314              		.cfi_def_cfa_offset 0
 1315 0018 7047     		bx	lr
 1316              	.L94:
 1317 001a 00BF     		.align	2
 1318              	.L93:
 1319 001c 002004E0 		.word	-536600576
 1320              		.cfi_endproc
 1321              	.LFE156:
 1323              		.section	.text.HAL_SYSCFG_CCMSRAMErase,"ax",%progbits
 1324              		.align	1
 1325              		.global	HAL_SYSCFG_CCMSRAMErase
 1326              		.syntax unified
 1327              		.thumb
 1328              		.thumb_func
 1329              		.fpu fpv4-sp-d16
 1331              	HAL_SYSCFG_CCMSRAMErase:
 1332              	.LFB157:
 575:Drivers/STM32G4xx_HAL_Driver/Src/stm32g4xx_hal.c **** 
 576:Drivers/STM32G4xx_HAL_Driver/Src/stm32g4xx_hal.c **** /**
 577:Drivers/STM32G4xx_HAL_Driver/Src/stm32g4xx_hal.c ****   * @}
 578:Drivers/STM32G4xx_HAL_Driver/Src/stm32g4xx_hal.c ****   */
 579:Drivers/STM32G4xx_HAL_Driver/Src/stm32g4xx_hal.c **** 
 580:Drivers/STM32G4xx_HAL_Driver/Src/stm32g4xx_hal.c **** /** @defgroup HAL_Exported_Functions_Group4 HAL SYSCFG configuration functions
 581:Drivers/STM32G4xx_HAL_Driver/Src/stm32g4xx_hal.c ****   *  @brief    HAL SYSCFG configuration functions
 582:Drivers/STM32G4xx_HAL_Driver/Src/stm32g4xx_hal.c ****   *
 583:Drivers/STM32G4xx_HAL_Driver/Src/stm32g4xx_hal.c **** @verbatim
 584:Drivers/STM32G4xx_HAL_Driver/Src/stm32g4xx_hal.c ****  ===============================================================================
 585:Drivers/STM32G4xx_HAL_Driver/Src/stm32g4xx_hal.c ****                       ##### HAL SYSCFG configuration functions #####
 586:Drivers/STM32G4xx_HAL_Driver/Src/stm32g4xx_hal.c ****  ===============================================================================
 587:Drivers/STM32G4xx_HAL_Driver/Src/stm32g4xx_hal.c ****     [..]  This section provides functions allowing to:
 588:Drivers/STM32G4xx_HAL_Driver/Src/stm32g4xx_hal.c ****       (+) Start a hardware CCMSRAM erase operation
 589:Drivers/STM32G4xx_HAL_Driver/Src/stm32g4xx_hal.c ****       (+) Enable/Disable the Internal FLASH Bank Swapping
 590:Drivers/STM32G4xx_HAL_Driver/Src/stm32g4xx_hal.c ****       (+) Configure the Voltage reference buffer
 591:Drivers/STM32G4xx_HAL_Driver/Src/stm32g4xx_hal.c ****       (+) Enable/Disable the Voltage reference buffer
 592:Drivers/STM32G4xx_HAL_Driver/Src/stm32g4xx_hal.c ****       (+) Enable/Disable the I/O analog switch voltage booster
 593:Drivers/STM32G4xx_HAL_Driver/Src/stm32g4xx_hal.c **** 
 594:Drivers/STM32G4xx_HAL_Driver/Src/stm32g4xx_hal.c **** @endverbatim
 595:Drivers/STM32G4xx_HAL_Driver/Src/stm32g4xx_hal.c ****   * @{
 596:Drivers/STM32G4xx_HAL_Driver/Src/stm32g4xx_hal.c ****   */
 597:Drivers/STM32G4xx_HAL_Driver/Src/stm32g4xx_hal.c **** 
 598:Drivers/STM32G4xx_HAL_Driver/Src/stm32g4xx_hal.c **** /**
 599:Drivers/STM32G4xx_HAL_Driver/Src/stm32g4xx_hal.c ****   * @brief  Start a hardware CCMSRAM erase operation.
 600:Drivers/STM32G4xx_HAL_Driver/Src/stm32g4xx_hal.c ****   * @note   As long as CCMSRAM is not erased the CCMER bit will be set.
 601:Drivers/STM32G4xx_HAL_Driver/Src/stm32g4xx_hal.c ****   *         This bit is automatically reset at the end of the CCMSRAM erase operation.
 602:Drivers/STM32G4xx_HAL_Driver/Src/stm32g4xx_hal.c ****   * @retval None
 603:Drivers/STM32G4xx_HAL_Driver/Src/stm32g4xx_hal.c ****   */
 604:Drivers/STM32G4xx_HAL_Driver/Src/stm32g4xx_hal.c **** void HAL_SYSCFG_CCMSRAMErase(void)
 605:Drivers/STM32G4xx_HAL_Driver/Src/stm32g4xx_hal.c **** {
 1333              		.loc 1 605 1
ARM GAS  /tmp/ccL1mZn3.s 			page 34


 1334              		.cfi_startproc
 1335              		@ args = 0, pretend = 0, frame = 0
 1336              		@ frame_needed = 1, uses_anonymous_args = 0
 1337              		@ link register save eliminated.
 1338 0000 80B4     		push	{r7}
 1339              	.LCFI102:
 1340              		.cfi_def_cfa_offset 4
 1341              		.cfi_offset 7, -4
 1342 0002 00AF     		add	r7, sp, #0
 1343              	.LCFI103:
 1344              		.cfi_def_cfa_register 7
 606:Drivers/STM32G4xx_HAL_Driver/Src/stm32g4xx_hal.c ****   /* unlock the write protection of the CCMER bit */
 607:Drivers/STM32G4xx_HAL_Driver/Src/stm32g4xx_hal.c ****   SYSCFG->SKR = 0xCA;
 1345              		.loc 1 607 9
 1346 0004 084B     		ldr	r3, .L96
 1347              		.loc 1 607 15
 1348 0006 CA22     		movs	r2, #202
 1349 0008 5A62     		str	r2, [r3, #36]
 608:Drivers/STM32G4xx_HAL_Driver/Src/stm32g4xx_hal.c ****   SYSCFG->SKR = 0x53;
 1350              		.loc 1 608 9
 1351 000a 074B     		ldr	r3, .L96
 1352              		.loc 1 608 15
 1353 000c 5322     		movs	r2, #83
 1354 000e 5A62     		str	r2, [r3, #36]
 609:Drivers/STM32G4xx_HAL_Driver/Src/stm32g4xx_hal.c ****   /* Starts a hardware CCMSRAM erase operation*/
 610:Drivers/STM32G4xx_HAL_Driver/Src/stm32g4xx_hal.c ****   SET_BIT(SYSCFG->SCSR, SYSCFG_SCSR_CCMER);
 1355              		.loc 1 610 3
 1356 0010 054B     		ldr	r3, .L96
 1357 0012 9B69     		ldr	r3, [r3, #24]
 1358 0014 044A     		ldr	r2, .L96
 1359 0016 43F00103 		orr	r3, r3, #1
 1360 001a 9361     		str	r3, [r2, #24]
 611:Drivers/STM32G4xx_HAL_Driver/Src/stm32g4xx_hal.c **** }
 1361              		.loc 1 611 1
 1362 001c 00BF     		nop
 1363 001e BD46     		mov	sp, r7
 1364              	.LCFI104:
 1365              		.cfi_def_cfa_register 13
 1366              		@ sp needed
 1367 0020 5DF8047B 		ldr	r7, [sp], #4
 1368              	.LCFI105:
 1369              		.cfi_restore 7
 1370              		.cfi_def_cfa_offset 0
 1371 0024 7047     		bx	lr
 1372              	.L97:
 1373 0026 00BF     		.align	2
 1374              	.L96:
 1375 0028 00000140 		.word	1073807360
 1376              		.cfi_endproc
 1377              	.LFE157:
 1379              		.section	.text.HAL_SYSCFG_EnableMemorySwappingBank,"ax",%progbits
 1380              		.align	1
 1381              		.global	HAL_SYSCFG_EnableMemorySwappingBank
 1382              		.syntax unified
 1383              		.thumb
 1384              		.thumb_func
 1385              		.fpu fpv4-sp-d16
ARM GAS  /tmp/ccL1mZn3.s 			page 35


 1387              	HAL_SYSCFG_EnableMemorySwappingBank:
 1388              	.LFB158:
 612:Drivers/STM32G4xx_HAL_Driver/Src/stm32g4xx_hal.c **** 
 613:Drivers/STM32G4xx_HAL_Driver/Src/stm32g4xx_hal.c **** /**
 614:Drivers/STM32G4xx_HAL_Driver/Src/stm32g4xx_hal.c ****   * @brief  Enable the Internal FLASH Bank Swapping.
 615:Drivers/STM32G4xx_HAL_Driver/Src/stm32g4xx_hal.c ****   *
 616:Drivers/STM32G4xx_HAL_Driver/Src/stm32g4xx_hal.c ****   * @note   This function can be used only for STM32G4xx devices.
 617:Drivers/STM32G4xx_HAL_Driver/Src/stm32g4xx_hal.c ****   *
 618:Drivers/STM32G4xx_HAL_Driver/Src/stm32g4xx_hal.c ****   * @note   Flash Bank2 mapped at 0x08000000 (and aliased @0x00000000)
 619:Drivers/STM32G4xx_HAL_Driver/Src/stm32g4xx_hal.c ****   *         and Flash Bank1 mapped at 0x08040000 (and aliased at 0x00040000)
 620:Drivers/STM32G4xx_HAL_Driver/Src/stm32g4xx_hal.c ****   *
 621:Drivers/STM32G4xx_HAL_Driver/Src/stm32g4xx_hal.c ****   * @retval None
 622:Drivers/STM32G4xx_HAL_Driver/Src/stm32g4xx_hal.c ****   */
 623:Drivers/STM32G4xx_HAL_Driver/Src/stm32g4xx_hal.c **** void HAL_SYSCFG_EnableMemorySwappingBank(void)
 624:Drivers/STM32G4xx_HAL_Driver/Src/stm32g4xx_hal.c **** {
 1389              		.loc 1 624 1
 1390              		.cfi_startproc
 1391              		@ args = 0, pretend = 0, frame = 0
 1392              		@ frame_needed = 1, uses_anonymous_args = 0
 1393              		@ link register save eliminated.
 1394 0000 80B4     		push	{r7}
 1395              	.LCFI106:
 1396              		.cfi_def_cfa_offset 4
 1397              		.cfi_offset 7, -4
 1398 0002 00AF     		add	r7, sp, #0
 1399              	.LCFI107:
 1400              		.cfi_def_cfa_register 7
 625:Drivers/STM32G4xx_HAL_Driver/Src/stm32g4xx_hal.c ****   SET_BIT(SYSCFG->MEMRMP, SYSCFG_MEMRMP_FB_MODE);
 1401              		.loc 1 625 3
 1402 0004 054B     		ldr	r3, .L99
 1403 0006 1B68     		ldr	r3, [r3]
 1404 0008 044A     		ldr	r2, .L99
 1405 000a 43F48073 		orr	r3, r3, #256
 1406 000e 1360     		str	r3, [r2]
 626:Drivers/STM32G4xx_HAL_Driver/Src/stm32g4xx_hal.c **** }
 1407              		.loc 1 626 1
 1408 0010 00BF     		nop
 1409 0012 BD46     		mov	sp, r7
 1410              	.LCFI108:
 1411              		.cfi_def_cfa_register 13
 1412              		@ sp needed
 1413 0014 5DF8047B 		ldr	r7, [sp], #4
 1414              	.LCFI109:
 1415              		.cfi_restore 7
 1416              		.cfi_def_cfa_offset 0
 1417 0018 7047     		bx	lr
 1418              	.L100:
 1419 001a 00BF     		.align	2
 1420              	.L99:
 1421 001c 00000140 		.word	1073807360
 1422              		.cfi_endproc
 1423              	.LFE158:
 1425              		.section	.text.HAL_SYSCFG_DisableMemorySwappingBank,"ax",%progbits
 1426              		.align	1
 1427              		.global	HAL_SYSCFG_DisableMemorySwappingBank
 1428              		.syntax unified
 1429              		.thumb
ARM GAS  /tmp/ccL1mZn3.s 			page 36


 1430              		.thumb_func
 1431              		.fpu fpv4-sp-d16
 1433              	HAL_SYSCFG_DisableMemorySwappingBank:
 1434              	.LFB159:
 627:Drivers/STM32G4xx_HAL_Driver/Src/stm32g4xx_hal.c **** 
 628:Drivers/STM32G4xx_HAL_Driver/Src/stm32g4xx_hal.c **** /**
 629:Drivers/STM32G4xx_HAL_Driver/Src/stm32g4xx_hal.c ****   * @brief  Disable the Internal FLASH Bank Swapping.
 630:Drivers/STM32G4xx_HAL_Driver/Src/stm32g4xx_hal.c ****   *
 631:Drivers/STM32G4xx_HAL_Driver/Src/stm32g4xx_hal.c ****   * @note   This function can be used only for STM32G4xx devices.
 632:Drivers/STM32G4xx_HAL_Driver/Src/stm32g4xx_hal.c ****   *
 633:Drivers/STM32G4xx_HAL_Driver/Src/stm32g4xx_hal.c ****   * @note   The default state : Flash Bank1 mapped at 0x08000000 (and aliased @0x0000 0000)
 634:Drivers/STM32G4xx_HAL_Driver/Src/stm32g4xx_hal.c ****   *         and Flash Bank2 mapped at 0x08040000 (and aliased at 0x00040000)
 635:Drivers/STM32G4xx_HAL_Driver/Src/stm32g4xx_hal.c ****   *
 636:Drivers/STM32G4xx_HAL_Driver/Src/stm32g4xx_hal.c ****   * @retval None
 637:Drivers/STM32G4xx_HAL_Driver/Src/stm32g4xx_hal.c ****   */
 638:Drivers/STM32G4xx_HAL_Driver/Src/stm32g4xx_hal.c **** void HAL_SYSCFG_DisableMemorySwappingBank(void)
 639:Drivers/STM32G4xx_HAL_Driver/Src/stm32g4xx_hal.c **** {
 1435              		.loc 1 639 1
 1436              		.cfi_startproc
 1437              		@ args = 0, pretend = 0, frame = 0
 1438              		@ frame_needed = 1, uses_anonymous_args = 0
 1439              		@ link register save eliminated.
 1440 0000 80B4     		push	{r7}
 1441              	.LCFI110:
 1442              		.cfi_def_cfa_offset 4
 1443              		.cfi_offset 7, -4
 1444 0002 00AF     		add	r7, sp, #0
 1445              	.LCFI111:
 1446              		.cfi_def_cfa_register 7
 640:Drivers/STM32G4xx_HAL_Driver/Src/stm32g4xx_hal.c ****   CLEAR_BIT(SYSCFG->MEMRMP, SYSCFG_MEMRMP_FB_MODE);
 1447              		.loc 1 640 3
 1448 0004 054B     		ldr	r3, .L102
 1449 0006 1B68     		ldr	r3, [r3]
 1450 0008 044A     		ldr	r2, .L102
 1451 000a 23F48073 		bic	r3, r3, #256
 1452 000e 1360     		str	r3, [r2]
 641:Drivers/STM32G4xx_HAL_Driver/Src/stm32g4xx_hal.c **** }
 1453              		.loc 1 641 1
 1454 0010 00BF     		nop
 1455 0012 BD46     		mov	sp, r7
 1456              	.LCFI112:
 1457              		.cfi_def_cfa_register 13
 1458              		@ sp needed
 1459 0014 5DF8047B 		ldr	r7, [sp], #4
 1460              	.LCFI113:
 1461              		.cfi_restore 7
 1462              		.cfi_def_cfa_offset 0
 1463 0018 7047     		bx	lr
 1464              	.L103:
 1465 001a 00BF     		.align	2
 1466              	.L102:
 1467 001c 00000140 		.word	1073807360
 1468              		.cfi_endproc
 1469              	.LFE159:
 1471              		.section	.text.HAL_SYSCFG_VREFBUF_VoltageScalingConfig,"ax",%progbits
 1472              		.align	1
 1473              		.global	HAL_SYSCFG_VREFBUF_VoltageScalingConfig
ARM GAS  /tmp/ccL1mZn3.s 			page 37


 1474              		.syntax unified
 1475              		.thumb
 1476              		.thumb_func
 1477              		.fpu fpv4-sp-d16
 1479              	HAL_SYSCFG_VREFBUF_VoltageScalingConfig:
 1480              	.LFB160:
 642:Drivers/STM32G4xx_HAL_Driver/Src/stm32g4xx_hal.c **** 
 643:Drivers/STM32G4xx_HAL_Driver/Src/stm32g4xx_hal.c **** #if defined(VREFBUF)
 644:Drivers/STM32G4xx_HAL_Driver/Src/stm32g4xx_hal.c **** /**
 645:Drivers/STM32G4xx_HAL_Driver/Src/stm32g4xx_hal.c ****   * @brief Configure the internal voltage reference buffer voltage scale.
 646:Drivers/STM32G4xx_HAL_Driver/Src/stm32g4xx_hal.c ****   * @param  VoltageScaling: specifies the output voltage to achieve
 647:Drivers/STM32G4xx_HAL_Driver/Src/stm32g4xx_hal.c ****   *          This parameter can be one of the following values:
 648:Drivers/STM32G4xx_HAL_Driver/Src/stm32g4xx_hal.c ****   *            @arg SYSCFG_VREFBUF_VOLTAGE_SCALE0: VREFBUF_OUT around 2.048 V.
 649:Drivers/STM32G4xx_HAL_Driver/Src/stm32g4xx_hal.c ****   *                                                This requires VDDA equal to or higher than 2.4 V
 650:Drivers/STM32G4xx_HAL_Driver/Src/stm32g4xx_hal.c ****   *            @arg SYSCFG_VREFBUF_VOLTAGE_SCALE1: VREFBUF_OUT around 2.5 V.
 651:Drivers/STM32G4xx_HAL_Driver/Src/stm32g4xx_hal.c ****   *                                                This requires VDDA equal to or higher than 2.8 V
 652:Drivers/STM32G4xx_HAL_Driver/Src/stm32g4xx_hal.c ****   *            @arg SYSCFG_VREFBUF_VOLTAGE_SCALE2: VREFBUF_OUT around 2.9 V.
 653:Drivers/STM32G4xx_HAL_Driver/Src/stm32g4xx_hal.c ****   *                                                This requires VDDA equal to or higher than 3.15 
 654:Drivers/STM32G4xx_HAL_Driver/Src/stm32g4xx_hal.c ****   * @retval None
 655:Drivers/STM32G4xx_HAL_Driver/Src/stm32g4xx_hal.c ****   */
 656:Drivers/STM32G4xx_HAL_Driver/Src/stm32g4xx_hal.c **** void HAL_SYSCFG_VREFBUF_VoltageScalingConfig(uint32_t VoltageScaling)
 657:Drivers/STM32G4xx_HAL_Driver/Src/stm32g4xx_hal.c **** {
 1481              		.loc 1 657 1
 1482              		.cfi_startproc
 1483              		@ args = 0, pretend = 0, frame = 8
 1484              		@ frame_needed = 1, uses_anonymous_args = 0
 1485              		@ link register save eliminated.
 1486 0000 80B4     		push	{r7}
 1487              	.LCFI114:
 1488              		.cfi_def_cfa_offset 4
 1489              		.cfi_offset 7, -4
 1490 0002 83B0     		sub	sp, sp, #12
 1491              	.LCFI115:
 1492              		.cfi_def_cfa_offset 16
 1493 0004 00AF     		add	r7, sp, #0
 1494              	.LCFI116:
 1495              		.cfi_def_cfa_register 7
 1496 0006 7860     		str	r0, [r7, #4]
 658:Drivers/STM32G4xx_HAL_Driver/Src/stm32g4xx_hal.c ****   /* Check the parameters */
 659:Drivers/STM32G4xx_HAL_Driver/Src/stm32g4xx_hal.c ****   assert_param(IS_SYSCFG_VREFBUF_VOLTAGE_SCALE(VoltageScaling));
 660:Drivers/STM32G4xx_HAL_Driver/Src/stm32g4xx_hal.c **** 
 661:Drivers/STM32G4xx_HAL_Driver/Src/stm32g4xx_hal.c ****   MODIFY_REG(VREFBUF->CSR, VREFBUF_CSR_VRS, VoltageScaling);
 1497              		.loc 1 661 3
 1498 0008 064B     		ldr	r3, .L105
 1499 000a 1B68     		ldr	r3, [r3]
 1500 000c 23F03002 		bic	r2, r3, #48
 1501 0010 0449     		ldr	r1, .L105
 1502 0012 7B68     		ldr	r3, [r7, #4]
 1503 0014 1343     		orrs	r3, r3, r2
 1504 0016 0B60     		str	r3, [r1]
 662:Drivers/STM32G4xx_HAL_Driver/Src/stm32g4xx_hal.c **** }
 1505              		.loc 1 662 1
 1506 0018 00BF     		nop
 1507 001a 0C37     		adds	r7, r7, #12
 1508              	.LCFI117:
 1509              		.cfi_def_cfa_offset 4
 1510 001c BD46     		mov	sp, r7
ARM GAS  /tmp/ccL1mZn3.s 			page 38


 1511              	.LCFI118:
 1512              		.cfi_def_cfa_register 13
 1513              		@ sp needed
 1514 001e 5DF8047B 		ldr	r7, [sp], #4
 1515              	.LCFI119:
 1516              		.cfi_restore 7
 1517              		.cfi_def_cfa_offset 0
 1518 0022 7047     		bx	lr
 1519              	.L106:
 1520              		.align	2
 1521              	.L105:
 1522 0024 30000140 		.word	1073807408
 1523              		.cfi_endproc
 1524              	.LFE160:
 1526              		.section	.text.HAL_SYSCFG_VREFBUF_HighImpedanceConfig,"ax",%progbits
 1527              		.align	1
 1528              		.global	HAL_SYSCFG_VREFBUF_HighImpedanceConfig
 1529              		.syntax unified
 1530              		.thumb
 1531              		.thumb_func
 1532              		.fpu fpv4-sp-d16
 1534              	HAL_SYSCFG_VREFBUF_HighImpedanceConfig:
 1535              	.LFB161:
 663:Drivers/STM32G4xx_HAL_Driver/Src/stm32g4xx_hal.c **** 
 664:Drivers/STM32G4xx_HAL_Driver/Src/stm32g4xx_hal.c **** /**
 665:Drivers/STM32G4xx_HAL_Driver/Src/stm32g4xx_hal.c ****   * @brief Configure the internal voltage reference buffer high impedance mode.
 666:Drivers/STM32G4xx_HAL_Driver/Src/stm32g4xx_hal.c ****   * @param  Mode: specifies the high impedance mode
 667:Drivers/STM32G4xx_HAL_Driver/Src/stm32g4xx_hal.c ****   *          This parameter can be one of the following values:
 668:Drivers/STM32G4xx_HAL_Driver/Src/stm32g4xx_hal.c ****   *            @arg SYSCFG_VREFBUF_HIGH_IMPEDANCE_DISABLE: VREF+ pin is internally connect to VREFI
 669:Drivers/STM32G4xx_HAL_Driver/Src/stm32g4xx_hal.c ****   *            @arg SYSCFG_VREFBUF_HIGH_IMPEDANCE_ENABLE: VREF+ pin is high impedance.
 670:Drivers/STM32G4xx_HAL_Driver/Src/stm32g4xx_hal.c ****   * @retval None
 671:Drivers/STM32G4xx_HAL_Driver/Src/stm32g4xx_hal.c ****   */
 672:Drivers/STM32G4xx_HAL_Driver/Src/stm32g4xx_hal.c **** void HAL_SYSCFG_VREFBUF_HighImpedanceConfig(uint32_t Mode)
 673:Drivers/STM32G4xx_HAL_Driver/Src/stm32g4xx_hal.c **** {
 1536              		.loc 1 673 1
 1537              		.cfi_startproc
 1538              		@ args = 0, pretend = 0, frame = 8
 1539              		@ frame_needed = 1, uses_anonymous_args = 0
 1540              		@ link register save eliminated.
 1541 0000 80B4     		push	{r7}
 1542              	.LCFI120:
 1543              		.cfi_def_cfa_offset 4
 1544              		.cfi_offset 7, -4
 1545 0002 83B0     		sub	sp, sp, #12
 1546              	.LCFI121:
 1547              		.cfi_def_cfa_offset 16
 1548 0004 00AF     		add	r7, sp, #0
 1549              	.LCFI122:
 1550              		.cfi_def_cfa_register 7
 1551 0006 7860     		str	r0, [r7, #4]
 674:Drivers/STM32G4xx_HAL_Driver/Src/stm32g4xx_hal.c ****   /* Check the parameters */
 675:Drivers/STM32G4xx_HAL_Driver/Src/stm32g4xx_hal.c ****   assert_param(IS_SYSCFG_VREFBUF_HIGH_IMPEDANCE(Mode));
 676:Drivers/STM32G4xx_HAL_Driver/Src/stm32g4xx_hal.c **** 
 677:Drivers/STM32G4xx_HAL_Driver/Src/stm32g4xx_hal.c ****   MODIFY_REG(VREFBUF->CSR, VREFBUF_CSR_HIZ, Mode);
 1552              		.loc 1 677 3
 1553 0008 064B     		ldr	r3, .L108
 1554 000a 1B68     		ldr	r3, [r3]
ARM GAS  /tmp/ccL1mZn3.s 			page 39


 1555 000c 23F00202 		bic	r2, r3, #2
 1556 0010 0449     		ldr	r1, .L108
 1557 0012 7B68     		ldr	r3, [r7, #4]
 1558 0014 1343     		orrs	r3, r3, r2
 1559 0016 0B60     		str	r3, [r1]
 678:Drivers/STM32G4xx_HAL_Driver/Src/stm32g4xx_hal.c **** }
 1560              		.loc 1 678 1
 1561 0018 00BF     		nop
 1562 001a 0C37     		adds	r7, r7, #12
 1563              	.LCFI123:
 1564              		.cfi_def_cfa_offset 4
 1565 001c BD46     		mov	sp, r7
 1566              	.LCFI124:
 1567              		.cfi_def_cfa_register 13
 1568              		@ sp needed
 1569 001e 5DF8047B 		ldr	r7, [sp], #4
 1570              	.LCFI125:
 1571              		.cfi_restore 7
 1572              		.cfi_def_cfa_offset 0
 1573 0022 7047     		bx	lr
 1574              	.L109:
 1575              		.align	2
 1576              	.L108:
 1577 0024 30000140 		.word	1073807408
 1578              		.cfi_endproc
 1579              	.LFE161:
 1581              		.section	.text.HAL_SYSCFG_VREFBUF_TrimmingConfig,"ax",%progbits
 1582              		.align	1
 1583              		.global	HAL_SYSCFG_VREFBUF_TrimmingConfig
 1584              		.syntax unified
 1585              		.thumb
 1586              		.thumb_func
 1587              		.fpu fpv4-sp-d16
 1589              	HAL_SYSCFG_VREFBUF_TrimmingConfig:
 1590              	.LFB162:
 679:Drivers/STM32G4xx_HAL_Driver/Src/stm32g4xx_hal.c **** 
 680:Drivers/STM32G4xx_HAL_Driver/Src/stm32g4xx_hal.c **** /**
 681:Drivers/STM32G4xx_HAL_Driver/Src/stm32g4xx_hal.c ****   * @brief Tune the Internal Voltage Reference buffer (VREFBUF).
 682:Drivers/STM32G4xx_HAL_Driver/Src/stm32g4xx_hal.c ****   * @param TrimmingValue specifies trimming code for VREFBUF calibration
 683:Drivers/STM32G4xx_HAL_Driver/Src/stm32g4xx_hal.c ****   *        This parameter can be a number between Min_Data = 0x00 and Max_Data = 0x3F
 684:Drivers/STM32G4xx_HAL_Driver/Src/stm32g4xx_hal.c ****   * @retval None
 685:Drivers/STM32G4xx_HAL_Driver/Src/stm32g4xx_hal.c ****   */
 686:Drivers/STM32G4xx_HAL_Driver/Src/stm32g4xx_hal.c **** void HAL_SYSCFG_VREFBUF_TrimmingConfig(uint32_t TrimmingValue)
 687:Drivers/STM32G4xx_HAL_Driver/Src/stm32g4xx_hal.c **** {
 1591              		.loc 1 687 1
 1592              		.cfi_startproc
 1593              		@ args = 0, pretend = 0, frame = 8
 1594              		@ frame_needed = 1, uses_anonymous_args = 0
 1595              		@ link register save eliminated.
 1596 0000 80B4     		push	{r7}
 1597              	.LCFI126:
 1598              		.cfi_def_cfa_offset 4
 1599              		.cfi_offset 7, -4
 1600 0002 83B0     		sub	sp, sp, #12
 1601              	.LCFI127:
 1602              		.cfi_def_cfa_offset 16
 1603 0004 00AF     		add	r7, sp, #0
ARM GAS  /tmp/ccL1mZn3.s 			page 40


 1604              	.LCFI128:
 1605              		.cfi_def_cfa_register 7
 1606 0006 7860     		str	r0, [r7, #4]
 688:Drivers/STM32G4xx_HAL_Driver/Src/stm32g4xx_hal.c ****   /* Check the parameters */
 689:Drivers/STM32G4xx_HAL_Driver/Src/stm32g4xx_hal.c ****   assert_param(IS_SYSCFG_VREFBUF_TRIMMING(TrimmingValue));
 690:Drivers/STM32G4xx_HAL_Driver/Src/stm32g4xx_hal.c **** 
 691:Drivers/STM32G4xx_HAL_Driver/Src/stm32g4xx_hal.c ****   MODIFY_REG(VREFBUF->CCR, VREFBUF_CCR_TRIM, TrimmingValue);
 1607              		.loc 1 691 3
 1608 0008 064B     		ldr	r3, .L111
 1609 000a 5B68     		ldr	r3, [r3, #4]
 1610 000c 23F03F02 		bic	r2, r3, #63
 1611 0010 0449     		ldr	r1, .L111
 1612 0012 7B68     		ldr	r3, [r7, #4]
 1613 0014 1343     		orrs	r3, r3, r2
 1614 0016 4B60     		str	r3, [r1, #4]
 692:Drivers/STM32G4xx_HAL_Driver/Src/stm32g4xx_hal.c **** }
 1615              		.loc 1 692 1
 1616 0018 00BF     		nop
 1617 001a 0C37     		adds	r7, r7, #12
 1618              	.LCFI129:
 1619              		.cfi_def_cfa_offset 4
 1620 001c BD46     		mov	sp, r7
 1621              	.LCFI130:
 1622              		.cfi_def_cfa_register 13
 1623              		@ sp needed
 1624 001e 5DF8047B 		ldr	r7, [sp], #4
 1625              	.LCFI131:
 1626              		.cfi_restore 7
 1627              		.cfi_def_cfa_offset 0
 1628 0022 7047     		bx	lr
 1629              	.L112:
 1630              		.align	2
 1631              	.L111:
 1632 0024 30000140 		.word	1073807408
 1633              		.cfi_endproc
 1634              	.LFE162:
 1636              		.section	.text.HAL_SYSCFG_EnableVREFBUF,"ax",%progbits
 1637              		.align	1
 1638              		.global	HAL_SYSCFG_EnableVREFBUF
 1639              		.syntax unified
 1640              		.thumb
 1641              		.thumb_func
 1642              		.fpu fpv4-sp-d16
 1644              	HAL_SYSCFG_EnableVREFBUF:
 1645              	.LFB163:
 693:Drivers/STM32G4xx_HAL_Driver/Src/stm32g4xx_hal.c **** 
 694:Drivers/STM32G4xx_HAL_Driver/Src/stm32g4xx_hal.c **** /**
 695:Drivers/STM32G4xx_HAL_Driver/Src/stm32g4xx_hal.c ****   * @brief  Enable the Internal Voltage Reference buffer (VREFBUF).
 696:Drivers/STM32G4xx_HAL_Driver/Src/stm32g4xx_hal.c ****   * @retval HAL_OK/HAL_TIMEOUT
 697:Drivers/STM32G4xx_HAL_Driver/Src/stm32g4xx_hal.c ****   */
 698:Drivers/STM32G4xx_HAL_Driver/Src/stm32g4xx_hal.c **** HAL_StatusTypeDef HAL_SYSCFG_EnableVREFBUF(void)
 699:Drivers/STM32G4xx_HAL_Driver/Src/stm32g4xx_hal.c **** {
 1646              		.loc 1 699 1
 1647              		.cfi_startproc
 1648              		@ args = 0, pretend = 0, frame = 8
 1649              		@ frame_needed = 1, uses_anonymous_args = 0
 1650 0000 80B5     		push	{r7, lr}
ARM GAS  /tmp/ccL1mZn3.s 			page 41


 1651              	.LCFI132:
 1652              		.cfi_def_cfa_offset 8
 1653              		.cfi_offset 7, -8
 1654              		.cfi_offset 14, -4
 1655 0002 82B0     		sub	sp, sp, #8
 1656              	.LCFI133:
 1657              		.cfi_def_cfa_offset 16
 1658 0004 00AF     		add	r7, sp, #0
 1659              	.LCFI134:
 1660              		.cfi_def_cfa_register 7
 700:Drivers/STM32G4xx_HAL_Driver/Src/stm32g4xx_hal.c ****   uint32_t tickstart;
 701:Drivers/STM32G4xx_HAL_Driver/Src/stm32g4xx_hal.c **** 
 702:Drivers/STM32G4xx_HAL_Driver/Src/stm32g4xx_hal.c ****   SET_BIT(VREFBUF->CSR, VREFBUF_CSR_ENVR);
 1661              		.loc 1 702 3
 1662 0006 0F4B     		ldr	r3, .L117
 1663 0008 1B68     		ldr	r3, [r3]
 1664 000a 0E4A     		ldr	r2, .L117
 1665 000c 43F00103 		orr	r3, r3, #1
 1666 0010 1360     		str	r3, [r2]
 703:Drivers/STM32G4xx_HAL_Driver/Src/stm32g4xx_hal.c **** 
 704:Drivers/STM32G4xx_HAL_Driver/Src/stm32g4xx_hal.c ****   /* Get Start Tick*/
 705:Drivers/STM32G4xx_HAL_Driver/Src/stm32g4xx_hal.c ****   tickstart = HAL_GetTick();
 1667              		.loc 1 705 15
 1668 0012 FFF7FEFF 		bl	HAL_GetTick
 1669 0016 7860     		str	r0, [r7, #4]
 706:Drivers/STM32G4xx_HAL_Driver/Src/stm32g4xx_hal.c **** 
 707:Drivers/STM32G4xx_HAL_Driver/Src/stm32g4xx_hal.c ****   /* Wait for VRR bit  */
 708:Drivers/STM32G4xx_HAL_Driver/Src/stm32g4xx_hal.c ****   while (READ_BIT(VREFBUF->CSR, VREFBUF_CSR_VRR) == 0x00U)
 1670              		.loc 1 708 9
 1671 0018 08E0     		b	.L114
 1672              	.L116:
 709:Drivers/STM32G4xx_HAL_Driver/Src/stm32g4xx_hal.c ****   {
 710:Drivers/STM32G4xx_HAL_Driver/Src/stm32g4xx_hal.c ****     if ((HAL_GetTick() - tickstart) > VREFBUF_TIMEOUT_VALUE)
 1673              		.loc 1 710 10
 1674 001a FFF7FEFF 		bl	HAL_GetTick
 1675 001e 0246     		mov	r2, r0
 1676              		.loc 1 710 24
 1677 0020 7B68     		ldr	r3, [r7, #4]
 1678 0022 D31A     		subs	r3, r2, r3
 1679              		.loc 1 710 8
 1680 0024 0A2B     		cmp	r3, #10
 1681 0026 01D9     		bls	.L114
 711:Drivers/STM32G4xx_HAL_Driver/Src/stm32g4xx_hal.c ****     {
 712:Drivers/STM32G4xx_HAL_Driver/Src/stm32g4xx_hal.c ****       return HAL_TIMEOUT;
 1682              		.loc 1 712 14
 1683 0028 0323     		movs	r3, #3
 1684 002a 06E0     		b	.L115
 1685              	.L114:
 708:Drivers/STM32G4xx_HAL_Driver/Src/stm32g4xx_hal.c ****   {
 1686              		.loc 1 708 10
 1687 002c 054B     		ldr	r3, .L117
 1688 002e 1B68     		ldr	r3, [r3]
 1689 0030 03F00803 		and	r3, r3, #8
 708:Drivers/STM32G4xx_HAL_Driver/Src/stm32g4xx_hal.c ****   {
 1690              		.loc 1 708 9
 1691 0034 002B     		cmp	r3, #0
 1692 0036 F0D0     		beq	.L116
ARM GAS  /tmp/ccL1mZn3.s 			page 42


 713:Drivers/STM32G4xx_HAL_Driver/Src/stm32g4xx_hal.c ****     }
 714:Drivers/STM32G4xx_HAL_Driver/Src/stm32g4xx_hal.c ****   }
 715:Drivers/STM32G4xx_HAL_Driver/Src/stm32g4xx_hal.c **** 
 716:Drivers/STM32G4xx_HAL_Driver/Src/stm32g4xx_hal.c ****   return HAL_OK;
 1693              		.loc 1 716 10
 1694 0038 0023     		movs	r3, #0
 1695              	.L115:
 717:Drivers/STM32G4xx_HAL_Driver/Src/stm32g4xx_hal.c **** }
 1696              		.loc 1 717 1
 1697 003a 1846     		mov	r0, r3
 1698 003c 0837     		adds	r7, r7, #8
 1699              	.LCFI135:
 1700              		.cfi_def_cfa_offset 8
 1701 003e BD46     		mov	sp, r7
 1702              	.LCFI136:
 1703              		.cfi_def_cfa_register 13
 1704              		@ sp needed
 1705 0040 80BD     		pop	{r7, pc}
 1706              	.L118:
 1707 0042 00BF     		.align	2
 1708              	.L117:
 1709 0044 30000140 		.word	1073807408
 1710              		.cfi_endproc
 1711              	.LFE163:
 1713              		.section	.text.HAL_SYSCFG_DisableVREFBUF,"ax",%progbits
 1714              		.align	1
 1715              		.global	HAL_SYSCFG_DisableVREFBUF
 1716              		.syntax unified
 1717              		.thumb
 1718              		.thumb_func
 1719              		.fpu fpv4-sp-d16
 1721              	HAL_SYSCFG_DisableVREFBUF:
 1722              	.LFB164:
 718:Drivers/STM32G4xx_HAL_Driver/Src/stm32g4xx_hal.c **** 
 719:Drivers/STM32G4xx_HAL_Driver/Src/stm32g4xx_hal.c **** /**
 720:Drivers/STM32G4xx_HAL_Driver/Src/stm32g4xx_hal.c ****   * @brief  Disable the Internal Voltage Reference buffer (VREFBUF).
 721:Drivers/STM32G4xx_HAL_Driver/Src/stm32g4xx_hal.c ****   *
 722:Drivers/STM32G4xx_HAL_Driver/Src/stm32g4xx_hal.c ****   * @retval None
 723:Drivers/STM32G4xx_HAL_Driver/Src/stm32g4xx_hal.c ****   */
 724:Drivers/STM32G4xx_HAL_Driver/Src/stm32g4xx_hal.c **** void HAL_SYSCFG_DisableVREFBUF(void)
 725:Drivers/STM32G4xx_HAL_Driver/Src/stm32g4xx_hal.c **** {
 1723              		.loc 1 725 1
 1724              		.cfi_startproc
 1725              		@ args = 0, pretend = 0, frame = 0
 1726              		@ frame_needed = 1, uses_anonymous_args = 0
 1727              		@ link register save eliminated.
 1728 0000 80B4     		push	{r7}
 1729              	.LCFI137:
 1730              		.cfi_def_cfa_offset 4
 1731              		.cfi_offset 7, -4
 1732 0002 00AF     		add	r7, sp, #0
 1733              	.LCFI138:
 1734              		.cfi_def_cfa_register 7
 726:Drivers/STM32G4xx_HAL_Driver/Src/stm32g4xx_hal.c ****   CLEAR_BIT(VREFBUF->CSR, VREFBUF_CSR_ENVR);
 1735              		.loc 1 726 3
 1736 0004 054B     		ldr	r3, .L120
 1737 0006 1B68     		ldr	r3, [r3]
ARM GAS  /tmp/ccL1mZn3.s 			page 43


 1738 0008 044A     		ldr	r2, .L120
 1739 000a 23F00103 		bic	r3, r3, #1
 1740 000e 1360     		str	r3, [r2]
 727:Drivers/STM32G4xx_HAL_Driver/Src/stm32g4xx_hal.c **** }
 1741              		.loc 1 727 1
 1742 0010 00BF     		nop
 1743 0012 BD46     		mov	sp, r7
 1744              	.LCFI139:
 1745              		.cfi_def_cfa_register 13
 1746              		@ sp needed
 1747 0014 5DF8047B 		ldr	r7, [sp], #4
 1748              	.LCFI140:
 1749              		.cfi_restore 7
 1750              		.cfi_def_cfa_offset 0
 1751 0018 7047     		bx	lr
 1752              	.L121:
 1753 001a 00BF     		.align	2
 1754              	.L120:
 1755 001c 30000140 		.word	1073807408
 1756              		.cfi_endproc
 1757              	.LFE164:
 1759              		.section	.text.HAL_SYSCFG_EnableIOSwitchBooster,"ax",%progbits
 1760              		.align	1
 1761              		.global	HAL_SYSCFG_EnableIOSwitchBooster
 1762              		.syntax unified
 1763              		.thumb
 1764              		.thumb_func
 1765              		.fpu fpv4-sp-d16
 1767              	HAL_SYSCFG_EnableIOSwitchBooster:
 1768              	.LFB165:
 728:Drivers/STM32G4xx_HAL_Driver/Src/stm32g4xx_hal.c **** #endif /* VREFBUF */
 729:Drivers/STM32G4xx_HAL_Driver/Src/stm32g4xx_hal.c **** 
 730:Drivers/STM32G4xx_HAL_Driver/Src/stm32g4xx_hal.c **** /**
 731:Drivers/STM32G4xx_HAL_Driver/Src/stm32g4xx_hal.c ****   * @brief  Enable the I/O analog switch voltage booster
 732:Drivers/STM32G4xx_HAL_Driver/Src/stm32g4xx_hal.c ****   *
 733:Drivers/STM32G4xx_HAL_Driver/Src/stm32g4xx_hal.c ****   * @retval None
 734:Drivers/STM32G4xx_HAL_Driver/Src/stm32g4xx_hal.c ****   */
 735:Drivers/STM32G4xx_HAL_Driver/Src/stm32g4xx_hal.c **** void HAL_SYSCFG_EnableIOSwitchBooster(void)
 736:Drivers/STM32G4xx_HAL_Driver/Src/stm32g4xx_hal.c **** {
 1769              		.loc 1 736 1
 1770              		.cfi_startproc
 1771              		@ args = 0, pretend = 0, frame = 0
 1772              		@ frame_needed = 1, uses_anonymous_args = 0
 1773              		@ link register save eliminated.
 1774 0000 80B4     		push	{r7}
 1775              	.LCFI141:
 1776              		.cfi_def_cfa_offset 4
 1777              		.cfi_offset 7, -4
 1778 0002 00AF     		add	r7, sp, #0
 1779              	.LCFI142:
 1780              		.cfi_def_cfa_register 7
 737:Drivers/STM32G4xx_HAL_Driver/Src/stm32g4xx_hal.c ****   SET_BIT(SYSCFG->CFGR1, SYSCFG_CFGR1_BOOSTEN);
 1781              		.loc 1 737 3
 1782 0004 054B     		ldr	r3, .L123
 1783 0006 5B68     		ldr	r3, [r3, #4]
 1784 0008 044A     		ldr	r2, .L123
 1785 000a 43F48073 		orr	r3, r3, #256
ARM GAS  /tmp/ccL1mZn3.s 			page 44


 1786 000e 5360     		str	r3, [r2, #4]
 738:Drivers/STM32G4xx_HAL_Driver/Src/stm32g4xx_hal.c **** }
 1787              		.loc 1 738 1
 1788 0010 00BF     		nop
 1789 0012 BD46     		mov	sp, r7
 1790              	.LCFI143:
 1791              		.cfi_def_cfa_register 13
 1792              		@ sp needed
 1793 0014 5DF8047B 		ldr	r7, [sp], #4
 1794              	.LCFI144:
 1795              		.cfi_restore 7
 1796              		.cfi_def_cfa_offset 0
 1797 0018 7047     		bx	lr
 1798              	.L124:
 1799 001a 00BF     		.align	2
 1800              	.L123:
 1801 001c 00000140 		.word	1073807360
 1802              		.cfi_endproc
 1803              	.LFE165:
 1805              		.section	.text.HAL_SYSCFG_DisableIOSwitchBooster,"ax",%progbits
 1806              		.align	1
 1807              		.global	HAL_SYSCFG_DisableIOSwitchBooster
 1808              		.syntax unified
 1809              		.thumb
 1810              		.thumb_func
 1811              		.fpu fpv4-sp-d16
 1813              	HAL_SYSCFG_DisableIOSwitchBooster:
 1814              	.LFB166:
 739:Drivers/STM32G4xx_HAL_Driver/Src/stm32g4xx_hal.c **** 
 740:Drivers/STM32G4xx_HAL_Driver/Src/stm32g4xx_hal.c **** /**
 741:Drivers/STM32G4xx_HAL_Driver/Src/stm32g4xx_hal.c ****   * @brief  Disable the I/O analog switch voltage booster
 742:Drivers/STM32G4xx_HAL_Driver/Src/stm32g4xx_hal.c ****   *
 743:Drivers/STM32G4xx_HAL_Driver/Src/stm32g4xx_hal.c ****   * @retval None
 744:Drivers/STM32G4xx_HAL_Driver/Src/stm32g4xx_hal.c ****   */
 745:Drivers/STM32G4xx_HAL_Driver/Src/stm32g4xx_hal.c **** void HAL_SYSCFG_DisableIOSwitchBooster(void)
 746:Drivers/STM32G4xx_HAL_Driver/Src/stm32g4xx_hal.c **** {
 1815              		.loc 1 746 1
 1816              		.cfi_startproc
 1817              		@ args = 0, pretend = 0, frame = 0
 1818              		@ frame_needed = 1, uses_anonymous_args = 0
 1819              		@ link register save eliminated.
 1820 0000 80B4     		push	{r7}
 1821              	.LCFI145:
 1822              		.cfi_def_cfa_offset 4
 1823              		.cfi_offset 7, -4
 1824 0002 00AF     		add	r7, sp, #0
 1825              	.LCFI146:
 1826              		.cfi_def_cfa_register 7
 747:Drivers/STM32G4xx_HAL_Driver/Src/stm32g4xx_hal.c ****   CLEAR_BIT(SYSCFG->CFGR1, SYSCFG_CFGR1_BOOSTEN);
 1827              		.loc 1 747 3
 1828 0004 054B     		ldr	r3, .L126
 1829 0006 5B68     		ldr	r3, [r3, #4]
 1830 0008 044A     		ldr	r2, .L126
 1831 000a 23F48073 		bic	r3, r3, #256
 1832 000e 5360     		str	r3, [r2, #4]
 748:Drivers/STM32G4xx_HAL_Driver/Src/stm32g4xx_hal.c **** }
 1833              		.loc 1 748 1
ARM GAS  /tmp/ccL1mZn3.s 			page 45


 1834 0010 00BF     		nop
 1835 0012 BD46     		mov	sp, r7
 1836              	.LCFI147:
 1837              		.cfi_def_cfa_register 13
 1838              		@ sp needed
 1839 0014 5DF8047B 		ldr	r7, [sp], #4
 1840              	.LCFI148:
 1841              		.cfi_restore 7
 1842              		.cfi_def_cfa_offset 0
 1843 0018 7047     		bx	lr
 1844              	.L127:
 1845 001a 00BF     		.align	2
 1846              	.L126:
 1847 001c 00000140 		.word	1073807360
 1848              		.cfi_endproc
 1849              	.LFE166:
 1851              		.section	.text.HAL_SYSCFG_EnableIOSwitchVDD,"ax",%progbits
 1852              		.align	1
 1853              		.global	HAL_SYSCFG_EnableIOSwitchVDD
 1854              		.syntax unified
 1855              		.thumb
 1856              		.thumb_func
 1857              		.fpu fpv4-sp-d16
 1859              	HAL_SYSCFG_EnableIOSwitchVDD:
 1860              	.LFB167:
 749:Drivers/STM32G4xx_HAL_Driver/Src/stm32g4xx_hal.c **** 
 750:Drivers/STM32G4xx_HAL_Driver/Src/stm32g4xx_hal.c **** /**
 751:Drivers/STM32G4xx_HAL_Driver/Src/stm32g4xx_hal.c ****   * @brief  Enable the I/O analog switch voltage by VDD
 752:Drivers/STM32G4xx_HAL_Driver/Src/stm32g4xx_hal.c ****   *
 753:Drivers/STM32G4xx_HAL_Driver/Src/stm32g4xx_hal.c ****   * @retval None
 754:Drivers/STM32G4xx_HAL_Driver/Src/stm32g4xx_hal.c ****   */
 755:Drivers/STM32G4xx_HAL_Driver/Src/stm32g4xx_hal.c **** void HAL_SYSCFG_EnableIOSwitchVDD(void)
 756:Drivers/STM32G4xx_HAL_Driver/Src/stm32g4xx_hal.c **** {
 1861              		.loc 1 756 1
 1862              		.cfi_startproc
 1863              		@ args = 0, pretend = 0, frame = 0
 1864              		@ frame_needed = 1, uses_anonymous_args = 0
 1865              		@ link register save eliminated.
 1866 0000 80B4     		push	{r7}
 1867              	.LCFI149:
 1868              		.cfi_def_cfa_offset 4
 1869              		.cfi_offset 7, -4
 1870 0002 00AF     		add	r7, sp, #0
 1871              	.LCFI150:
 1872              		.cfi_def_cfa_register 7
 757:Drivers/STM32G4xx_HAL_Driver/Src/stm32g4xx_hal.c ****   SET_BIT(SYSCFG->CFGR1, SYSCFG_CFGR1_ANASWVDD);
 1873              		.loc 1 757 3
 1874 0004 054B     		ldr	r3, .L129
 1875 0006 5B68     		ldr	r3, [r3, #4]
 1876 0008 044A     		ldr	r2, .L129
 1877 000a 43F40073 		orr	r3, r3, #512
 1878 000e 5360     		str	r3, [r2, #4]
 758:Drivers/STM32G4xx_HAL_Driver/Src/stm32g4xx_hal.c **** }
 1879              		.loc 1 758 1
 1880 0010 00BF     		nop
 1881 0012 BD46     		mov	sp, r7
 1882              	.LCFI151:
ARM GAS  /tmp/ccL1mZn3.s 			page 46


 1883              		.cfi_def_cfa_register 13
 1884              		@ sp needed
 1885 0014 5DF8047B 		ldr	r7, [sp], #4
 1886              	.LCFI152:
 1887              		.cfi_restore 7
 1888              		.cfi_def_cfa_offset 0
 1889 0018 7047     		bx	lr
 1890              	.L130:
 1891 001a 00BF     		.align	2
 1892              	.L129:
 1893 001c 00000140 		.word	1073807360
 1894              		.cfi_endproc
 1895              	.LFE167:
 1897              		.section	.text.HAL_SYSCFG_DisableIOSwitchVDD,"ax",%progbits
 1898              		.align	1
 1899              		.global	HAL_SYSCFG_DisableIOSwitchVDD
 1900              		.syntax unified
 1901              		.thumb
 1902              		.thumb_func
 1903              		.fpu fpv4-sp-d16
 1905              	HAL_SYSCFG_DisableIOSwitchVDD:
 1906              	.LFB168:
 759:Drivers/STM32G4xx_HAL_Driver/Src/stm32g4xx_hal.c **** 
 760:Drivers/STM32G4xx_HAL_Driver/Src/stm32g4xx_hal.c **** /**
 761:Drivers/STM32G4xx_HAL_Driver/Src/stm32g4xx_hal.c ****   * @brief  Disable the I/O analog switch voltage by VDD
 762:Drivers/STM32G4xx_HAL_Driver/Src/stm32g4xx_hal.c ****   *
 763:Drivers/STM32G4xx_HAL_Driver/Src/stm32g4xx_hal.c ****   * @retval None
 764:Drivers/STM32G4xx_HAL_Driver/Src/stm32g4xx_hal.c ****   */
 765:Drivers/STM32G4xx_HAL_Driver/Src/stm32g4xx_hal.c **** void HAL_SYSCFG_DisableIOSwitchVDD(void)
 766:Drivers/STM32G4xx_HAL_Driver/Src/stm32g4xx_hal.c **** {
 1907              		.loc 1 766 1
 1908              		.cfi_startproc
 1909              		@ args = 0, pretend = 0, frame = 0
 1910              		@ frame_needed = 1, uses_anonymous_args = 0
 1911              		@ link register save eliminated.
 1912 0000 80B4     		push	{r7}
 1913              	.LCFI153:
 1914              		.cfi_def_cfa_offset 4
 1915              		.cfi_offset 7, -4
 1916 0002 00AF     		add	r7, sp, #0
 1917              	.LCFI154:
 1918              		.cfi_def_cfa_register 7
 767:Drivers/STM32G4xx_HAL_Driver/Src/stm32g4xx_hal.c ****   CLEAR_BIT(SYSCFG->CFGR1, SYSCFG_CFGR1_ANASWVDD);
 1919              		.loc 1 767 3
 1920 0004 054B     		ldr	r3, .L132
 1921 0006 5B68     		ldr	r3, [r3, #4]
 1922 0008 044A     		ldr	r2, .L132
 1923 000a 23F40073 		bic	r3, r3, #512
 1924 000e 5360     		str	r3, [r2, #4]
 768:Drivers/STM32G4xx_HAL_Driver/Src/stm32g4xx_hal.c **** }
 1925              		.loc 1 768 1
 1926 0010 00BF     		nop
 1927 0012 BD46     		mov	sp, r7
 1928              	.LCFI155:
 1929              		.cfi_def_cfa_register 13
 1930              		@ sp needed
 1931 0014 5DF8047B 		ldr	r7, [sp], #4
ARM GAS  /tmp/ccL1mZn3.s 			page 47


 1932              	.LCFI156:
 1933              		.cfi_restore 7
 1934              		.cfi_def_cfa_offset 0
 1935 0018 7047     		bx	lr
 1936              	.L133:
 1937 001a 00BF     		.align	2
 1938              	.L132:
 1939 001c 00000140 		.word	1073807360
 1940              		.cfi_endproc
 1941              	.LFE168:
 1943              		.section	.text.HAL_SYSCFG_CCMSRAM_WriteProtectionEnable,"ax",%progbits
 1944              		.align	1
 1945              		.global	HAL_SYSCFG_CCMSRAM_WriteProtectionEnable
 1946              		.syntax unified
 1947              		.thumb
 1948              		.thumb_func
 1949              		.fpu fpv4-sp-d16
 1951              	HAL_SYSCFG_CCMSRAM_WriteProtectionEnable:
 1952              	.LFB169:
 769:Drivers/STM32G4xx_HAL_Driver/Src/stm32g4xx_hal.c **** 
 770:Drivers/STM32G4xx_HAL_Driver/Src/stm32g4xx_hal.c **** 
 771:Drivers/STM32G4xx_HAL_Driver/Src/stm32g4xx_hal.c **** /** @brief  CCMSRAM page write protection enable
 772:Drivers/STM32G4xx_HAL_Driver/Src/stm32g4xx_hal.c ****   * @param Page: This parameter is a long 32bit value and can be a value of @ref SYSCFG_CCMSRAMWRP
 773:Drivers/STM32G4xx_HAL_Driver/Src/stm32g4xx_hal.c ****   * @note   write protection can only be disabled by a system reset
 774:Drivers/STM32G4xx_HAL_Driver/Src/stm32g4xx_hal.c ****   * @retval None
 775:Drivers/STM32G4xx_HAL_Driver/Src/stm32g4xx_hal.c ****   */
 776:Drivers/STM32G4xx_HAL_Driver/Src/stm32g4xx_hal.c **** void HAL_SYSCFG_CCMSRAM_WriteProtectionEnable(uint32_t Page)
 777:Drivers/STM32G4xx_HAL_Driver/Src/stm32g4xx_hal.c **** {
 1953              		.loc 1 777 1
 1954              		.cfi_startproc
 1955              		@ args = 0, pretend = 0, frame = 8
 1956              		@ frame_needed = 1, uses_anonymous_args = 0
 1957              		@ link register save eliminated.
 1958 0000 80B4     		push	{r7}
 1959              	.LCFI157:
 1960              		.cfi_def_cfa_offset 4
 1961              		.cfi_offset 7, -4
 1962 0002 83B0     		sub	sp, sp, #12
 1963              	.LCFI158:
 1964              		.cfi_def_cfa_offset 16
 1965 0004 00AF     		add	r7, sp, #0
 1966              	.LCFI159:
 1967              		.cfi_def_cfa_register 7
 1968 0006 7860     		str	r0, [r7, #4]
 778:Drivers/STM32G4xx_HAL_Driver/Src/stm32g4xx_hal.c ****   assert_param(IS_SYSCFG_CCMSRAMWRP_PAGE(Page));
 779:Drivers/STM32G4xx_HAL_Driver/Src/stm32g4xx_hal.c **** 
 780:Drivers/STM32G4xx_HAL_Driver/Src/stm32g4xx_hal.c ****   SET_BIT(SYSCFG->SWPR, (uint32_t)(Page));
 1969              		.loc 1 780 3
 1970 0008 054B     		ldr	r3, .L135
 1971 000a 1A6A     		ldr	r2, [r3, #32]
 1972 000c 0449     		ldr	r1, .L135
 1973 000e 7B68     		ldr	r3, [r7, #4]
 1974 0010 1343     		orrs	r3, r3, r2
 1975 0012 0B62     		str	r3, [r1, #32]
 781:Drivers/STM32G4xx_HAL_Driver/Src/stm32g4xx_hal.c **** }
 1976              		.loc 1 781 1
 1977 0014 00BF     		nop
ARM GAS  /tmp/ccL1mZn3.s 			page 48


 1978 0016 0C37     		adds	r7, r7, #12
 1979              	.LCFI160:
 1980              		.cfi_def_cfa_offset 4
 1981 0018 BD46     		mov	sp, r7
 1982              	.LCFI161:
 1983              		.cfi_def_cfa_register 13
 1984              		@ sp needed
 1985 001a 5DF8047B 		ldr	r7, [sp], #4
 1986              	.LCFI162:
 1987              		.cfi_restore 7
 1988              		.cfi_def_cfa_offset 0
 1989 001e 7047     		bx	lr
 1990              	.L136:
 1991              		.align	2
 1992              	.L135:
 1993 0020 00000140 		.word	1073807360
 1994              		.cfi_endproc
 1995              	.LFE169:
 1997              		.text
 1998              	.Letext0:
 1999              		.file 2 "/usr/share/gcc-arm-none-eabi-10-2020-q4-major/arm-none-eabi/include/machine/_default_type
 2000              		.file 3 "/usr/share/gcc-arm-none-eabi-10-2020-q4-major/arm-none-eabi/include/sys/_stdint.h"
 2001              		.file 4 "Drivers/CMSIS/Include/core_cm4.h"
 2002              		.file 5 "Drivers/CMSIS/Device/ST/STM32G4xx/Include/stm32g431xx.h"
 2003              		.file 6 "Drivers/STM32G4xx_HAL_Driver/Inc/stm32g4xx_hal_def.h"
 2004              		.file 7 "Drivers/CMSIS/Device/ST/STM32G4xx/Include/system_stm32g4xx.h"
 2005              		.file 8 "Drivers/STM32G4xx_HAL_Driver/Inc/stm32g4xx_hal.h"
ARM GAS  /tmp/ccL1mZn3.s 			page 49

