ARM GAS  /tmp/ccH06JBN.s 			page 1


   1              		.cpu cortex-m4
   2              		.eabi_attribute 27, 1
   3              		.eabi_attribute 28, 1
   4              		.eabi_attribute 20, 1
   5              		.eabi_attribute 21, 1
   6              		.eabi_attribute 23, 3
   7              		.eabi_attribute 24, 1
   8              		.eabi_attribute 25, 1
   9              		.eabi_attribute 26, 1
  10              		.eabi_attribute 30, 6
  11              		.eabi_attribute 34, 1
  12              		.eabi_attribute 18, 2
  13              		.file	"stm32g4xx_hal_msp.c"
  14              		.text
  15              	.Ltext0:
  16              		.cfi_sections	.debug_frame
  17              		.section	.rodata.OFFSET_TAB_CCMRx,"a"
  18              		.align	2
  21              	OFFSET_TAB_CCMRx:
  22 0000 00000000 		.ascii	"\000\000\000\000\004\004\004\00488"
  22      04040404 
  22      3838
  23              		.section	.rodata.SHIFT_TAB_OCxx,"a"
  24              		.align	2
  27              	SHIFT_TAB_OCxx:
  28 0000 00000800 		.ascii	"\000\000\010\000\000\000\010\000\000\010"
  28      00000800 
  28      0008
  29              		.section	.rodata.SHIFT_TAB_ICxx,"a"
  30              		.align	2
  33              	SHIFT_TAB_ICxx:
  34 0000 00000800 		.ascii	"\000\000\010\000\000\000\010\000\000\000"
  34      00000800 
  34      0000
  35              		.section	.rodata.SHIFT_TAB_CCxP,"a"
  36              		.align	2
  39              	SHIFT_TAB_CCxP:
  40 0000 00020406 		.ascii	"\000\002\004\006\010\012\014\016\020\024"
  40      080A0C0E 
  40      1014
  41              		.section	.rodata.SHIFT_TAB_OISx,"a"
  42              		.align	2
  45              	SHIFT_TAB_OISx:
  46 0000 00010203 		.ascii	"\000\001\002\003\004\005\006\007\010\012"
  46      04050607 
  46      080A
  47              		.section	.rodata.USART_PRESCALER_TAB,"a"
  48              		.align	2
  51              	USART_PRESCALER_TAB:
  52 0000 01000000 		.word	1
  53 0004 02000000 		.word	2
  54 0008 04000000 		.word	4
  55 000c 06000000 		.word	6
  56 0010 08000000 		.word	8
  57 0014 0A000000 		.word	10
  58 0018 0C000000 		.word	12
  59 001c 10000000 		.word	16
ARM GAS  /tmp/ccH06JBN.s 			page 2


  60 0020 20000000 		.word	32
  61 0024 40000000 		.word	64
  62 0028 80000000 		.word	128
  63 002c 00010000 		.word	256
  64              		.section	.rodata.CHANNEL_OFFSET_TAB,"a"
  65              		.align	2
  68              	CHANNEL_OFFSET_TAB:
  69 0000 081C3044 		.ascii	"\010\0340DXl"
  69      586C
  70              		.section	.text.HAL_MspInit,"ax",%progbits
  71              		.align	1
  72              		.global	HAL_MspInit
  73              		.arch armv7e-m
  74              		.syntax unified
  75              		.thumb
  76              		.thumb_func
  77              		.fpu fpv4-sp-d16
  79              	HAL_MspInit:
  80              	.LFB1867:
  81              		.file 1 "Src/stm32g4xx_hal_msp.c"
   1:Src/stm32g4xx_hal_msp.c **** /* USER CODE BEGIN Header */
   2:Src/stm32g4xx_hal_msp.c **** /**
   3:Src/stm32g4xx_hal_msp.c ****   ******************************************************************************
   4:Src/stm32g4xx_hal_msp.c ****   * @file         stm32g4xx_hal_msp.c
   5:Src/stm32g4xx_hal_msp.c ****   * @brief        This file provides code for the MSP Initialization
   6:Src/stm32g4xx_hal_msp.c ****   *               and de-Initialization codes.
   7:Src/stm32g4xx_hal_msp.c ****   ******************************************************************************
   8:Src/stm32g4xx_hal_msp.c ****   * @attention
   9:Src/stm32g4xx_hal_msp.c ****   *
  10:Src/stm32g4xx_hal_msp.c ****   * Copyright (c) 2025 STMicroelectronics.
  11:Src/stm32g4xx_hal_msp.c ****   * All rights reserved.
  12:Src/stm32g4xx_hal_msp.c ****   *
  13:Src/stm32g4xx_hal_msp.c ****   * This software is licensed under terms that can be found in the LICENSE file
  14:Src/stm32g4xx_hal_msp.c ****   * in the root directory of this software component.
  15:Src/stm32g4xx_hal_msp.c ****   * If no LICENSE file comes with this software, it is provided AS-IS.
  16:Src/stm32g4xx_hal_msp.c ****   *
  17:Src/stm32g4xx_hal_msp.c ****   ******************************************************************************
  18:Src/stm32g4xx_hal_msp.c ****   */
  19:Src/stm32g4xx_hal_msp.c **** /* USER CODE END Header */
  20:Src/stm32g4xx_hal_msp.c **** 
  21:Src/stm32g4xx_hal_msp.c **** /* Includes ------------------------------------------------------------------*/
  22:Src/stm32g4xx_hal_msp.c **** #include "main.h"
  23:Src/stm32g4xx_hal_msp.c **** /* USER CODE BEGIN Includes */
  24:Src/stm32g4xx_hal_msp.c **** 
  25:Src/stm32g4xx_hal_msp.c **** /* USER CODE END Includes */
  26:Src/stm32g4xx_hal_msp.c **** 
  27:Src/stm32g4xx_hal_msp.c **** /* Private typedef -----------------------------------------------------------*/
  28:Src/stm32g4xx_hal_msp.c **** /* USER CODE BEGIN TD */
  29:Src/stm32g4xx_hal_msp.c **** 
  30:Src/stm32g4xx_hal_msp.c **** /* USER CODE END TD */
  31:Src/stm32g4xx_hal_msp.c **** 
  32:Src/stm32g4xx_hal_msp.c **** /* Private define ------------------------------------------------------------*/
  33:Src/stm32g4xx_hal_msp.c **** /* USER CODE BEGIN Define */
  34:Src/stm32g4xx_hal_msp.c **** 
  35:Src/stm32g4xx_hal_msp.c **** /* USER CODE END Define */
  36:Src/stm32g4xx_hal_msp.c **** 
  37:Src/stm32g4xx_hal_msp.c **** /* Private macro -------------------------------------------------------------*/
ARM GAS  /tmp/ccH06JBN.s 			page 3


  38:Src/stm32g4xx_hal_msp.c **** /* USER CODE BEGIN Macro */
  39:Src/stm32g4xx_hal_msp.c **** 
  40:Src/stm32g4xx_hal_msp.c **** /* USER CODE END Macro */
  41:Src/stm32g4xx_hal_msp.c **** 
  42:Src/stm32g4xx_hal_msp.c **** /* Private variables ---------------------------------------------------------*/
  43:Src/stm32g4xx_hal_msp.c **** /* USER CODE BEGIN PV */
  44:Src/stm32g4xx_hal_msp.c **** 
  45:Src/stm32g4xx_hal_msp.c **** /* USER CODE END PV */
  46:Src/stm32g4xx_hal_msp.c **** 
  47:Src/stm32g4xx_hal_msp.c **** /* Private function prototypes -----------------------------------------------*/
  48:Src/stm32g4xx_hal_msp.c **** /* USER CODE BEGIN PFP */
  49:Src/stm32g4xx_hal_msp.c **** 
  50:Src/stm32g4xx_hal_msp.c **** /* USER CODE END PFP */
  51:Src/stm32g4xx_hal_msp.c **** 
  52:Src/stm32g4xx_hal_msp.c **** /* External functions --------------------------------------------------------*/
  53:Src/stm32g4xx_hal_msp.c **** /* USER CODE BEGIN ExternalFunctions */
  54:Src/stm32g4xx_hal_msp.c **** 
  55:Src/stm32g4xx_hal_msp.c **** /* USER CODE END ExternalFunctions */
  56:Src/stm32g4xx_hal_msp.c **** 
  57:Src/stm32g4xx_hal_msp.c **** /* USER CODE BEGIN 0 */
  58:Src/stm32g4xx_hal_msp.c **** 
  59:Src/stm32g4xx_hal_msp.c **** /* USER CODE END 0 */
  60:Src/stm32g4xx_hal_msp.c **** /**
  61:Src/stm32g4xx_hal_msp.c ****   * Initializes the Global MSP.
  62:Src/stm32g4xx_hal_msp.c ****   */
  63:Src/stm32g4xx_hal_msp.c **** void HAL_MspInit(void)
  64:Src/stm32g4xx_hal_msp.c **** {
  82              		.loc 1 64 1
  83              		.cfi_startproc
  84              		@ args = 0, pretend = 0, frame = 8
  85              		@ frame_needed = 1, uses_anonymous_args = 0
  86 0000 80B5     		push	{r7, lr}
  87              	.LCFI0:
  88              		.cfi_def_cfa_offset 8
  89              		.cfi_offset 7, -8
  90              		.cfi_offset 14, -4
  91 0002 82B0     		sub	sp, sp, #8
  92              	.LCFI1:
  93              		.cfi_def_cfa_offset 16
  94 0004 00AF     		add	r7, sp, #0
  95              	.LCFI2:
  96              		.cfi_def_cfa_register 7
  97              	.LBB2:
  65:Src/stm32g4xx_hal_msp.c **** 
  66:Src/stm32g4xx_hal_msp.c ****   /* USER CODE BEGIN MspInit 0 */
  67:Src/stm32g4xx_hal_msp.c **** 
  68:Src/stm32g4xx_hal_msp.c ****   /* USER CODE END MspInit 0 */
  69:Src/stm32g4xx_hal_msp.c **** 
  70:Src/stm32g4xx_hal_msp.c ****   __HAL_RCC_SYSCFG_CLK_ENABLE();
  98              		.loc 1 70 3
  99 0006 124B     		ldr	r3, .L2
 100 0008 1B6E     		ldr	r3, [r3, #96]
 101 000a 114A     		ldr	r2, .L2
 102 000c 43F00103 		orr	r3, r3, #1
 103 0010 1366     		str	r3, [r2, #96]
 104 0012 0F4B     		ldr	r3, .L2
 105 0014 1B6E     		ldr	r3, [r3, #96]
ARM GAS  /tmp/ccH06JBN.s 			page 4


 106 0016 03F00103 		and	r3, r3, #1
 107 001a 7B60     		str	r3, [r7, #4]
 108 001c 7B68     		ldr	r3, [r7, #4]
 109              	.LBE2:
 110              	.LBB3:
  71:Src/stm32g4xx_hal_msp.c ****   __HAL_RCC_PWR_CLK_ENABLE();
 111              		.loc 1 71 3
 112 001e 0C4B     		ldr	r3, .L2
 113 0020 9B6D     		ldr	r3, [r3, #88]
 114 0022 0B4A     		ldr	r2, .L2
 115 0024 43F08053 		orr	r3, r3, #268435456
 116 0028 9365     		str	r3, [r2, #88]
 117 002a 094B     		ldr	r3, .L2
 118 002c 9B6D     		ldr	r3, [r3, #88]
 119 002e 03F08053 		and	r3, r3, #268435456
 120 0032 3B60     		str	r3, [r7]
 121 0034 3B68     		ldr	r3, [r7]
 122              	.LBE3:
  72:Src/stm32g4xx_hal_msp.c **** 
  73:Src/stm32g4xx_hal_msp.c ****   /* System interrupt init*/
  74:Src/stm32g4xx_hal_msp.c ****   /* PendSV_IRQn interrupt configuration */
  75:Src/stm32g4xx_hal_msp.c ****   HAL_NVIC_SetPriority(PendSV_IRQn, 15, 0);
 123              		.loc 1 75 3
 124 0036 0022     		movs	r2, #0
 125 0038 0F21     		movs	r1, #15
 126 003a 6FF00100 		mvn	r0, #1
 127 003e FFF7FEFF 		bl	HAL_NVIC_SetPriority
  76:Src/stm32g4xx_hal_msp.c **** 
  77:Src/stm32g4xx_hal_msp.c ****   /** Disable the internal Pull-Up in Dead Battery pins of UCPD peripheral
  78:Src/stm32g4xx_hal_msp.c ****   */
  79:Src/stm32g4xx_hal_msp.c ****   HAL_PWREx_DisableUCPDDeadBattery();
 128              		.loc 1 79 3
 129 0042 FFF7FEFF 		bl	HAL_PWREx_DisableUCPDDeadBattery
  80:Src/stm32g4xx_hal_msp.c **** 
  81:Src/stm32g4xx_hal_msp.c ****   /* USER CODE BEGIN MspInit 1 */
  82:Src/stm32g4xx_hal_msp.c **** 
  83:Src/stm32g4xx_hal_msp.c ****   /* USER CODE END MspInit 1 */
  84:Src/stm32g4xx_hal_msp.c **** }
 130              		.loc 1 84 1
 131 0046 00BF     		nop
 132 0048 0837     		adds	r7, r7, #8
 133              	.LCFI3:
 134              		.cfi_def_cfa_offset 8
 135 004a BD46     		mov	sp, r7
 136              	.LCFI4:
 137              		.cfi_def_cfa_register 13
 138              		@ sp needed
 139 004c 80BD     		pop	{r7, pc}
 140              	.L3:
 141 004e 00BF     		.align	2
 142              	.L2:
 143 0050 00100240 		.word	1073876992
 144              		.cfi_endproc
 145              	.LFE1867:
 147              		.text
 148              	.Letext0:
 149              		.file 2 "/usr/share/gcc-arm-none-eabi-10-2020-q4-major/arm-none-eabi/include/machine/_default_type
ARM GAS  /tmp/ccH06JBN.s 			page 5


 150              		.file 3 "/usr/share/gcc-arm-none-eabi-10-2020-q4-major/arm-none-eabi/include/sys/_stdint.h"
 151              		.file 4 "Drivers/CMSIS/Device/ST/STM32G4xx/Include/stm32g431xx.h"
 152              		.file 5 "Drivers/STM32G4xx_HAL_Driver/Inc/stm32g4xx_ll_tim.h"
 153              		.file 6 "Drivers/STM32G4xx_HAL_Driver/Inc/stm32g4xx_ll_usart.h"
 154              		.file 7 "Drivers/STM32G4xx_HAL_Driver/Inc/stm32g4xx_ll_dma.h"
ARM GAS  /tmp/ccH06JBN.s 			page 6

