ARM GAS  /tmp/ccMcPfSr.s 			page 1


   1              		.cpu cortex-m4
   2              		.eabi_attribute 27, 1
   3              		.eabi_attribute 28, 1
   4              		.eabi_attribute 20, 1
   5              		.eabi_attribute 21, 1
   6              		.eabi_attribute 23, 3
   7              		.eabi_attribute 24, 1
   8              		.eabi_attribute 25, 1
   9              		.eabi_attribute 26, 1
  10              		.eabi_attribute 30, 1
  11              		.eabi_attribute 34, 1
  12              		.eabi_attribute 18, 2
  13              		.file	"stm32g4xx_hal_rcc.c"
  14              		.text
  15              	.Ltext0:
  16              		.cfi_sections	.debug_frame
  17              		.section	.text.HAL_RCC_DeInit,"ax",%progbits
  18              		.align	1
  19              		.global	HAL_RCC_DeInit
  20              		.arch armv7e-m
  21              		.syntax unified
  22              		.thumb
  23              		.thumb_func
  24              		.fpu fpv4-sp-d16
  26              	HAL_RCC_DeInit:
  27              	.LFB132:
  28              		.file 1 "Drivers/STM32G4xx_HAL_Driver/Src/stm32g4xx_hal_rcc.c"
   1:Drivers/STM32G4xx_HAL_Driver/Src/stm32g4xx_hal_rcc.c **** /**
   2:Drivers/STM32G4xx_HAL_Driver/Src/stm32g4xx_hal_rcc.c ****   ******************************************************************************
   3:Drivers/STM32G4xx_HAL_Driver/Src/stm32g4xx_hal_rcc.c ****   * @file    stm32g4xx_hal_rcc.c
   4:Drivers/STM32G4xx_HAL_Driver/Src/stm32g4xx_hal_rcc.c ****   * @author  MCD Application Team
   5:Drivers/STM32G4xx_HAL_Driver/Src/stm32g4xx_hal_rcc.c ****   * @brief   RCC HAL module driver.
   6:Drivers/STM32G4xx_HAL_Driver/Src/stm32g4xx_hal_rcc.c ****   *          This file provides firmware functions to manage the following
   7:Drivers/STM32G4xx_HAL_Driver/Src/stm32g4xx_hal_rcc.c ****   *          functionalities of the Reset and Clock Control (RCC) peripheral:
   8:Drivers/STM32G4xx_HAL_Driver/Src/stm32g4xx_hal_rcc.c ****   *           + Initialization and de-initialization functions
   9:Drivers/STM32G4xx_HAL_Driver/Src/stm32g4xx_hal_rcc.c ****   *           + Peripheral Control functions
  10:Drivers/STM32G4xx_HAL_Driver/Src/stm32g4xx_hal_rcc.c ****   *
  11:Drivers/STM32G4xx_HAL_Driver/Src/stm32g4xx_hal_rcc.c ****   @verbatim
  12:Drivers/STM32G4xx_HAL_Driver/Src/stm32g4xx_hal_rcc.c ****   ==============================================================================
  13:Drivers/STM32G4xx_HAL_Driver/Src/stm32g4xx_hal_rcc.c ****                       ##### RCC specific features #####
  14:Drivers/STM32G4xx_HAL_Driver/Src/stm32g4xx_hal_rcc.c ****   ==============================================================================
  15:Drivers/STM32G4xx_HAL_Driver/Src/stm32g4xx_hal_rcc.c ****     [..]
  16:Drivers/STM32G4xx_HAL_Driver/Src/stm32g4xx_hal_rcc.c ****       After reset the device is running from High Speed Internal oscillator
  17:Drivers/STM32G4xx_HAL_Driver/Src/stm32g4xx_hal_rcc.c ****       (16 MHz) with Flash 0 wait state. Flash prefetch buffer, D-Cache
  18:Drivers/STM32G4xx_HAL_Driver/Src/stm32g4xx_hal_rcc.c ****       and I-Cache are disabled, and all peripherals are off except internal
  19:Drivers/STM32G4xx_HAL_Driver/Src/stm32g4xx_hal_rcc.c ****       SRAM, Flash and JTAG.
  20:Drivers/STM32G4xx_HAL_Driver/Src/stm32g4xx_hal_rcc.c **** 
  21:Drivers/STM32G4xx_HAL_Driver/Src/stm32g4xx_hal_rcc.c ****       (+) There is no prescaler on High speed (AHBs) and Low speed (APBs) buses:
  22:Drivers/STM32G4xx_HAL_Driver/Src/stm32g4xx_hal_rcc.c ****           all peripherals mapped on these buses are running at HSI speed.
  23:Drivers/STM32G4xx_HAL_Driver/Src/stm32g4xx_hal_rcc.c ****       (+) The clock for all peripherals is switched off, except the SRAM and FLASH.
  24:Drivers/STM32G4xx_HAL_Driver/Src/stm32g4xx_hal_rcc.c ****       (+) All GPIOs are in analog mode, except the JTAG pins which
  25:Drivers/STM32G4xx_HAL_Driver/Src/stm32g4xx_hal_rcc.c ****           are assigned to be used for debug purpose.
  26:Drivers/STM32G4xx_HAL_Driver/Src/stm32g4xx_hal_rcc.c **** 
  27:Drivers/STM32G4xx_HAL_Driver/Src/stm32g4xx_hal_rcc.c ****     [..]
  28:Drivers/STM32G4xx_HAL_Driver/Src/stm32g4xx_hal_rcc.c ****       Once the device started from reset, the user application has to:
  29:Drivers/STM32G4xx_HAL_Driver/Src/stm32g4xx_hal_rcc.c ****       (+) Configure the clock source to be used to drive the System clock
  30:Drivers/STM32G4xx_HAL_Driver/Src/stm32g4xx_hal_rcc.c ****           (if the application needs higher frequency/performance)
ARM GAS  /tmp/ccMcPfSr.s 			page 2


  31:Drivers/STM32G4xx_HAL_Driver/Src/stm32g4xx_hal_rcc.c ****       (+) Configure the System clock frequency and Flash settings
  32:Drivers/STM32G4xx_HAL_Driver/Src/stm32g4xx_hal_rcc.c ****       (+) Configure the AHB and APB buses prescalers
  33:Drivers/STM32G4xx_HAL_Driver/Src/stm32g4xx_hal_rcc.c ****       (+) Enable the clock for the peripheral(s) to be used
  34:Drivers/STM32G4xx_HAL_Driver/Src/stm32g4xx_hal_rcc.c ****       (+) Configure the clock source(s) for peripherals which clocks are not
  35:Drivers/STM32G4xx_HAL_Driver/Src/stm32g4xx_hal_rcc.c ****           derived from the System clock (USB, RNG, USART, LPUART, FDCAN, some TIMERs,
  36:Drivers/STM32G4xx_HAL_Driver/Src/stm32g4xx_hal_rcc.c ****           UCPD, I2S, I2C, LPTIM, ADC, QSPI)
  37:Drivers/STM32G4xx_HAL_Driver/Src/stm32g4xx_hal_rcc.c **** 
  38:Drivers/STM32G4xx_HAL_Driver/Src/stm32g4xx_hal_rcc.c ****   @endverbatim
  39:Drivers/STM32G4xx_HAL_Driver/Src/stm32g4xx_hal_rcc.c ****   ******************************************************************************
  40:Drivers/STM32G4xx_HAL_Driver/Src/stm32g4xx_hal_rcc.c ****   * @attention
  41:Drivers/STM32G4xx_HAL_Driver/Src/stm32g4xx_hal_rcc.c ****   *
  42:Drivers/STM32G4xx_HAL_Driver/Src/stm32g4xx_hal_rcc.c ****   * Copyright (c) 2019 STMicroelectronics.
  43:Drivers/STM32G4xx_HAL_Driver/Src/stm32g4xx_hal_rcc.c ****   * All rights reserved.
  44:Drivers/STM32G4xx_HAL_Driver/Src/stm32g4xx_hal_rcc.c ****   *
  45:Drivers/STM32G4xx_HAL_Driver/Src/stm32g4xx_hal_rcc.c ****   * This software is licensed under terms that can be found in the LICENSE file in
  46:Drivers/STM32G4xx_HAL_Driver/Src/stm32g4xx_hal_rcc.c ****   * the root directory of this software component.
  47:Drivers/STM32G4xx_HAL_Driver/Src/stm32g4xx_hal_rcc.c ****   * If no LICENSE file comes with this software, it is provided AS-IS.
  48:Drivers/STM32G4xx_HAL_Driver/Src/stm32g4xx_hal_rcc.c ****   ******************************************************************************
  49:Drivers/STM32G4xx_HAL_Driver/Src/stm32g4xx_hal_rcc.c ****   */
  50:Drivers/STM32G4xx_HAL_Driver/Src/stm32g4xx_hal_rcc.c **** 
  51:Drivers/STM32G4xx_HAL_Driver/Src/stm32g4xx_hal_rcc.c **** /* Includes ------------------------------------------------------------------*/
  52:Drivers/STM32G4xx_HAL_Driver/Src/stm32g4xx_hal_rcc.c **** #include "stm32g4xx_hal.h"
  53:Drivers/STM32G4xx_HAL_Driver/Src/stm32g4xx_hal_rcc.c **** 
  54:Drivers/STM32G4xx_HAL_Driver/Src/stm32g4xx_hal_rcc.c **** /** @addtogroup STM32G4xx_HAL_Driver
  55:Drivers/STM32G4xx_HAL_Driver/Src/stm32g4xx_hal_rcc.c ****   * @{
  56:Drivers/STM32G4xx_HAL_Driver/Src/stm32g4xx_hal_rcc.c ****   */
  57:Drivers/STM32G4xx_HAL_Driver/Src/stm32g4xx_hal_rcc.c **** 
  58:Drivers/STM32G4xx_HAL_Driver/Src/stm32g4xx_hal_rcc.c **** /** @defgroup RCC RCC
  59:Drivers/STM32G4xx_HAL_Driver/Src/stm32g4xx_hal_rcc.c ****   * @brief RCC HAL module driver
  60:Drivers/STM32G4xx_HAL_Driver/Src/stm32g4xx_hal_rcc.c ****   * @{
  61:Drivers/STM32G4xx_HAL_Driver/Src/stm32g4xx_hal_rcc.c ****   */
  62:Drivers/STM32G4xx_HAL_Driver/Src/stm32g4xx_hal_rcc.c **** 
  63:Drivers/STM32G4xx_HAL_Driver/Src/stm32g4xx_hal_rcc.c **** #ifdef HAL_RCC_MODULE_ENABLED
  64:Drivers/STM32G4xx_HAL_Driver/Src/stm32g4xx_hal_rcc.c **** 
  65:Drivers/STM32G4xx_HAL_Driver/Src/stm32g4xx_hal_rcc.c **** /* Private typedef -----------------------------------------------------------*/
  66:Drivers/STM32G4xx_HAL_Driver/Src/stm32g4xx_hal_rcc.c **** /* Private define ------------------------------------------------------------*/
  67:Drivers/STM32G4xx_HAL_Driver/Src/stm32g4xx_hal_rcc.c **** /** @defgroup RCC_Private_Constants RCC Private Constants
  68:Drivers/STM32G4xx_HAL_Driver/Src/stm32g4xx_hal_rcc.c ****  * @{
  69:Drivers/STM32G4xx_HAL_Driver/Src/stm32g4xx_hal_rcc.c ****  */
  70:Drivers/STM32G4xx_HAL_Driver/Src/stm32g4xx_hal_rcc.c **** #define HSE_TIMEOUT_VALUE          HSE_STARTUP_TIMEOUT
  71:Drivers/STM32G4xx_HAL_Driver/Src/stm32g4xx_hal_rcc.c **** #define HSI_TIMEOUT_VALUE          2U                /* 2 ms (minimum Tick + 1) */
  72:Drivers/STM32G4xx_HAL_Driver/Src/stm32g4xx_hal_rcc.c **** #define LSI_TIMEOUT_VALUE          2U                /* 2 ms (minimum Tick + 1) */
  73:Drivers/STM32G4xx_HAL_Driver/Src/stm32g4xx_hal_rcc.c **** #define HSI48_TIMEOUT_VALUE        2U                /* 2 ms (minimum Tick + 1) */
  74:Drivers/STM32G4xx_HAL_Driver/Src/stm32g4xx_hal_rcc.c **** #define PLL_TIMEOUT_VALUE          2U                /* 2 ms (minimum Tick + 1) */
  75:Drivers/STM32G4xx_HAL_Driver/Src/stm32g4xx_hal_rcc.c **** #define CLOCKSWITCH_TIMEOUT_VALUE  5000U             /* 5 s    */
  76:Drivers/STM32G4xx_HAL_Driver/Src/stm32g4xx_hal_rcc.c **** /**
  77:Drivers/STM32G4xx_HAL_Driver/Src/stm32g4xx_hal_rcc.c ****   * @}
  78:Drivers/STM32G4xx_HAL_Driver/Src/stm32g4xx_hal_rcc.c ****   */
  79:Drivers/STM32G4xx_HAL_Driver/Src/stm32g4xx_hal_rcc.c **** 
  80:Drivers/STM32G4xx_HAL_Driver/Src/stm32g4xx_hal_rcc.c **** /* Private macro -------------------------------------------------------------*/
  81:Drivers/STM32G4xx_HAL_Driver/Src/stm32g4xx_hal_rcc.c **** /** @defgroup RCC_Private_Macros RCC Private Macros
  82:Drivers/STM32G4xx_HAL_Driver/Src/stm32g4xx_hal_rcc.c ****   * @{
  83:Drivers/STM32G4xx_HAL_Driver/Src/stm32g4xx_hal_rcc.c ****   */
  84:Drivers/STM32G4xx_HAL_Driver/Src/stm32g4xx_hal_rcc.c **** #define RCC_GET_MCO_GPIO_PIN(__RCC_MCOx__)   ((__RCC_MCOx__) & GPIO_PIN_MASK)
  85:Drivers/STM32G4xx_HAL_Driver/Src/stm32g4xx_hal_rcc.c **** 
  86:Drivers/STM32G4xx_HAL_Driver/Src/stm32g4xx_hal_rcc.c **** #define RCC_GET_MCO_GPIO_AF(__RCC_MCOx__)    (((__RCC_MCOx__) & RCC_MCO_GPIOAF_MASK) >> RCC_MCO_GPI
  87:Drivers/STM32G4xx_HAL_Driver/Src/stm32g4xx_hal_rcc.c **** 
ARM GAS  /tmp/ccMcPfSr.s 			page 3


  88:Drivers/STM32G4xx_HAL_Driver/Src/stm32g4xx_hal_rcc.c **** #define RCC_GET_MCO_GPIO_INDEX(__RCC_MCOx__) (((__RCC_MCOx__) & RCC_MCO_GPIOPORT_MASK) >> RCC_MCO_G
  89:Drivers/STM32G4xx_HAL_Driver/Src/stm32g4xx_hal_rcc.c **** 
  90:Drivers/STM32G4xx_HAL_Driver/Src/stm32g4xx_hal_rcc.c **** #define RCC_GET_MCO_GPIO_PORT(__RCC_MCOx__)  (AHB2PERIPH_BASE + ((0x00000400UL) * RCC_GET_MCO_GPIO_
  91:Drivers/STM32G4xx_HAL_Driver/Src/stm32g4xx_hal_rcc.c **** 
  92:Drivers/STM32G4xx_HAL_Driver/Src/stm32g4xx_hal_rcc.c **** #define RCC_PLL_OSCSOURCE_CONFIG(__HAL_RCC_PLLSOURCE__) \
  93:Drivers/STM32G4xx_HAL_Driver/Src/stm32g4xx_hal_rcc.c ****             (MODIFY_REG(RCC->PLLCFGR, RCC_PLLCFGR_PLLSRC, (__HAL_RCC_PLLSOURCE__)))
  94:Drivers/STM32G4xx_HAL_Driver/Src/stm32g4xx_hal_rcc.c **** /**
  95:Drivers/STM32G4xx_HAL_Driver/Src/stm32g4xx_hal_rcc.c ****   * @}
  96:Drivers/STM32G4xx_HAL_Driver/Src/stm32g4xx_hal_rcc.c ****   */
  97:Drivers/STM32G4xx_HAL_Driver/Src/stm32g4xx_hal_rcc.c **** 
  98:Drivers/STM32G4xx_HAL_Driver/Src/stm32g4xx_hal_rcc.c **** /* Private variables ---------------------------------------------------------*/
  99:Drivers/STM32G4xx_HAL_Driver/Src/stm32g4xx_hal_rcc.c **** 
 100:Drivers/STM32G4xx_HAL_Driver/Src/stm32g4xx_hal_rcc.c **** /* Private function prototypes -----------------------------------------------*/
 101:Drivers/STM32G4xx_HAL_Driver/Src/stm32g4xx_hal_rcc.c **** /** @defgroup RCC_Private_Functions RCC Private Functions
 102:Drivers/STM32G4xx_HAL_Driver/Src/stm32g4xx_hal_rcc.c ****   * @{
 103:Drivers/STM32G4xx_HAL_Driver/Src/stm32g4xx_hal_rcc.c ****   */
 104:Drivers/STM32G4xx_HAL_Driver/Src/stm32g4xx_hal_rcc.c **** static uint32_t          RCC_GetSysClockFreqFromPLLSource(void);
 105:Drivers/STM32G4xx_HAL_Driver/Src/stm32g4xx_hal_rcc.c **** /**
 106:Drivers/STM32G4xx_HAL_Driver/Src/stm32g4xx_hal_rcc.c ****   * @}
 107:Drivers/STM32G4xx_HAL_Driver/Src/stm32g4xx_hal_rcc.c ****   */
 108:Drivers/STM32G4xx_HAL_Driver/Src/stm32g4xx_hal_rcc.c **** 
 109:Drivers/STM32G4xx_HAL_Driver/Src/stm32g4xx_hal_rcc.c **** /* Exported functions --------------------------------------------------------*/
 110:Drivers/STM32G4xx_HAL_Driver/Src/stm32g4xx_hal_rcc.c **** 
 111:Drivers/STM32G4xx_HAL_Driver/Src/stm32g4xx_hal_rcc.c **** /** @defgroup RCC_Exported_Functions RCC Exported Functions
 112:Drivers/STM32G4xx_HAL_Driver/Src/stm32g4xx_hal_rcc.c ****   * @{
 113:Drivers/STM32G4xx_HAL_Driver/Src/stm32g4xx_hal_rcc.c ****   */
 114:Drivers/STM32G4xx_HAL_Driver/Src/stm32g4xx_hal_rcc.c **** 
 115:Drivers/STM32G4xx_HAL_Driver/Src/stm32g4xx_hal_rcc.c **** /** @defgroup RCC_Exported_Functions_Group1 Initialization and de-initialization functions
 116:Drivers/STM32G4xx_HAL_Driver/Src/stm32g4xx_hal_rcc.c ****   *  @brief    Initialization and Configuration functions
 117:Drivers/STM32G4xx_HAL_Driver/Src/stm32g4xx_hal_rcc.c ****   *
 118:Drivers/STM32G4xx_HAL_Driver/Src/stm32g4xx_hal_rcc.c ****   @verbatim
 119:Drivers/STM32G4xx_HAL_Driver/Src/stm32g4xx_hal_rcc.c ****  ===============================================================================
 120:Drivers/STM32G4xx_HAL_Driver/Src/stm32g4xx_hal_rcc.c ****            ##### Initialization and de-initialization functions #####
 121:Drivers/STM32G4xx_HAL_Driver/Src/stm32g4xx_hal_rcc.c ****  ===============================================================================
 122:Drivers/STM32G4xx_HAL_Driver/Src/stm32g4xx_hal_rcc.c ****     [..]
 123:Drivers/STM32G4xx_HAL_Driver/Src/stm32g4xx_hal_rcc.c ****       This section provides functions allowing to configure the internal and external oscillators
 124:Drivers/STM32G4xx_HAL_Driver/Src/stm32g4xx_hal_rcc.c ****       (HSE, HSI, LSE, LSI, PLL, CSS and MCO) and the System buses clocks (SYSCLK, AHB, APB1
 125:Drivers/STM32G4xx_HAL_Driver/Src/stm32g4xx_hal_rcc.c ****        and APB2).
 126:Drivers/STM32G4xx_HAL_Driver/Src/stm32g4xx_hal_rcc.c **** 
 127:Drivers/STM32G4xx_HAL_Driver/Src/stm32g4xx_hal_rcc.c ****     [..] Internal/external clock and PLL configuration
 128:Drivers/STM32G4xx_HAL_Driver/Src/stm32g4xx_hal_rcc.c ****          (+) HSI (high-speed internal): 16 MHz factory-trimmed RC used directly or through
 129:Drivers/STM32G4xx_HAL_Driver/Src/stm32g4xx_hal_rcc.c ****              the PLL as System clock source.
 130:Drivers/STM32G4xx_HAL_Driver/Src/stm32g4xx_hal_rcc.c **** 
 131:Drivers/STM32G4xx_HAL_Driver/Src/stm32g4xx_hal_rcc.c ****          (+) LSI (low-speed internal): 32 KHz low consumption RC used as IWDG and/or RTC
 132:Drivers/STM32G4xx_HAL_Driver/Src/stm32g4xx_hal_rcc.c ****              clock source.
 133:Drivers/STM32G4xx_HAL_Driver/Src/stm32g4xx_hal_rcc.c **** 
 134:Drivers/STM32G4xx_HAL_Driver/Src/stm32g4xx_hal_rcc.c ****          (+) HSE (high-speed external): 4 to 48 MHz crystal oscillator used directly or
 135:Drivers/STM32G4xx_HAL_Driver/Src/stm32g4xx_hal_rcc.c ****              through the PLL as System clock source. Can be used also optionally as RTC clock sourc
 136:Drivers/STM32G4xx_HAL_Driver/Src/stm32g4xx_hal_rcc.c **** 
 137:Drivers/STM32G4xx_HAL_Driver/Src/stm32g4xx_hal_rcc.c ****          (+) LSE (low-speed external): 32.768 KHz oscillator used optionally as RTC clock source.
 138:Drivers/STM32G4xx_HAL_Driver/Src/stm32g4xx_hal_rcc.c **** 
 139:Drivers/STM32G4xx_HAL_Driver/Src/stm32g4xx_hal_rcc.c ****          (+) PLL (clocked by HSI, HSE) providing up to three independent output clocks:
 140:Drivers/STM32G4xx_HAL_Driver/Src/stm32g4xx_hal_rcc.c ****            (++) The first output is used to generate the high speed system clock (up to 170 MHz).
 141:Drivers/STM32G4xx_HAL_Driver/Src/stm32g4xx_hal_rcc.c ****            (++) The second output is used to generate the clock for the USB (48 MHz),
 142:Drivers/STM32G4xx_HAL_Driver/Src/stm32g4xx_hal_rcc.c ****                 the QSPI (<= 48 MHz), the FDCAN, the SAI and the I2S.
 143:Drivers/STM32G4xx_HAL_Driver/Src/stm32g4xx_hal_rcc.c ****            (++) The third output is used to generate a clock for ADC
 144:Drivers/STM32G4xx_HAL_Driver/Src/stm32g4xx_hal_rcc.c **** 
ARM GAS  /tmp/ccMcPfSr.s 			page 4


 145:Drivers/STM32G4xx_HAL_Driver/Src/stm32g4xx_hal_rcc.c ****          (+) CSS (Clock security system): once enabled, if a HSE clock failure occurs
 146:Drivers/STM32G4xx_HAL_Driver/Src/stm32g4xx_hal_rcc.c ****             (HSE used directly or through PLL as System clock source), the System clock
 147:Drivers/STM32G4xx_HAL_Driver/Src/stm32g4xx_hal_rcc.c ****              is automatically switched to HSI and an interrupt is generated if enabled.
 148:Drivers/STM32G4xx_HAL_Driver/Src/stm32g4xx_hal_rcc.c ****              The interrupt is linked to the Cortex-M4 NMI (Non-Maskable Interrupt)
 149:Drivers/STM32G4xx_HAL_Driver/Src/stm32g4xx_hal_rcc.c ****              exception vector.
 150:Drivers/STM32G4xx_HAL_Driver/Src/stm32g4xx_hal_rcc.c **** 
 151:Drivers/STM32G4xx_HAL_Driver/Src/stm32g4xx_hal_rcc.c ****          (+) MCO (microcontroller clock output): used to output LSI, HSI, LSE, HSE,
 152:Drivers/STM32G4xx_HAL_Driver/Src/stm32g4xx_hal_rcc.c ****              main PLL clock, system clock or RC48 clock (through a configurable prescaler) on PA8 p
 153:Drivers/STM32G4xx_HAL_Driver/Src/stm32g4xx_hal_rcc.c **** 
 154:Drivers/STM32G4xx_HAL_Driver/Src/stm32g4xx_hal_rcc.c ****     [..] System, AHB and APB buses clocks configuration
 155:Drivers/STM32G4xx_HAL_Driver/Src/stm32g4xx_hal_rcc.c ****          (+) Several clock sources can be used to drive the System clock (SYSCLK): HSI,
 156:Drivers/STM32G4xx_HAL_Driver/Src/stm32g4xx_hal_rcc.c ****              HSE and main PLL.
 157:Drivers/STM32G4xx_HAL_Driver/Src/stm32g4xx_hal_rcc.c ****              The AHB clock (HCLK) is derived from System clock through configurable
 158:Drivers/STM32G4xx_HAL_Driver/Src/stm32g4xx_hal_rcc.c ****              prescaler and used to clock the CPU, memory and peripherals mapped
 159:Drivers/STM32G4xx_HAL_Driver/Src/stm32g4xx_hal_rcc.c ****              on AHB bus (DMA, GPIO...). APB1 (PCLK1) and APB2 (PCLK2) clocks are derived
 160:Drivers/STM32G4xx_HAL_Driver/Src/stm32g4xx_hal_rcc.c ****              from AHB clock through configurable prescalers and used to clock
 161:Drivers/STM32G4xx_HAL_Driver/Src/stm32g4xx_hal_rcc.c ****              the peripherals mapped on these buses. You can use
 162:Drivers/STM32G4xx_HAL_Driver/Src/stm32g4xx_hal_rcc.c ****              "HAL_RCC_GetSysClockFreq()" function to retrieve the frequencies of these clocks.
 163:Drivers/STM32G4xx_HAL_Driver/Src/stm32g4xx_hal_rcc.c **** 
 164:Drivers/STM32G4xx_HAL_Driver/Src/stm32g4xx_hal_rcc.c ****          -@- All the peripheral clocks are derived from the System clock (SYSCLK) except:
 165:Drivers/STM32G4xx_HAL_Driver/Src/stm32g4xx_hal_rcc.c **** 
 166:Drivers/STM32G4xx_HAL_Driver/Src/stm32g4xx_hal_rcc.c ****            (+@) RTC: the RTC clock can be derived either from the LSI, LSE or HSE clock
 167:Drivers/STM32G4xx_HAL_Driver/Src/stm32g4xx_hal_rcc.c ****                 divided by 2 to 31.
 168:Drivers/STM32G4xx_HAL_Driver/Src/stm32g4xx_hal_rcc.c ****                 You have to use __HAL_RCC_RTC_ENABLE() and HAL_RCCEx_PeriphCLKConfig() function
 169:Drivers/STM32G4xx_HAL_Driver/Src/stm32g4xx_hal_rcc.c ****                 to configure this clock.
 170:Drivers/STM32G4xx_HAL_Driver/Src/stm32g4xx_hal_rcc.c ****            (+@) USB FS and RNG: USB FS requires a frequency equal to 48 MHz
 171:Drivers/STM32G4xx_HAL_Driver/Src/stm32g4xx_hal_rcc.c ****                 to work correctly, while the RNG peripheral requires a frequency
 172:Drivers/STM32G4xx_HAL_Driver/Src/stm32g4xx_hal_rcc.c ****                 equal or lower than to 48 MHz. This clock is derived of the main PLL
 173:Drivers/STM32G4xx_HAL_Driver/Src/stm32g4xx_hal_rcc.c ****                 through PLLQ divider. You have to enable the peripheral clock and use
 174:Drivers/STM32G4xx_HAL_Driver/Src/stm32g4xx_hal_rcc.c ****                 HAL_RCCEx_PeriphCLKConfig() function to configure this clock.
 175:Drivers/STM32G4xx_HAL_Driver/Src/stm32g4xx_hal_rcc.c ****            (+@) IWDG clock which is always the LSI clock.
 176:Drivers/STM32G4xx_HAL_Driver/Src/stm32g4xx_hal_rcc.c **** 
 177:Drivers/STM32G4xx_HAL_Driver/Src/stm32g4xx_hal_rcc.c **** 
 178:Drivers/STM32G4xx_HAL_Driver/Src/stm32g4xx_hal_rcc.c ****          (+) The maximum frequency of the SYSCLK, HCLK, PCLK1 and PCLK2 is 170 MHz.
 179:Drivers/STM32G4xx_HAL_Driver/Src/stm32g4xx_hal_rcc.c ****              The clock source frequency should be adapted depending on the device voltage range
 180:Drivers/STM32G4xx_HAL_Driver/Src/stm32g4xx_hal_rcc.c ****              as listed in the Reference Manual "Clock source frequency versus voltage scaling" chap
 181:Drivers/STM32G4xx_HAL_Driver/Src/stm32g4xx_hal_rcc.c **** 
 182:Drivers/STM32G4xx_HAL_Driver/Src/stm32g4xx_hal_rcc.c ****   @endverbatim
 183:Drivers/STM32G4xx_HAL_Driver/Src/stm32g4xx_hal_rcc.c **** 
 184:Drivers/STM32G4xx_HAL_Driver/Src/stm32g4xx_hal_rcc.c ****            Table 1. HCLK clock frequency for STM32G4xx devices
 185:Drivers/STM32G4xx_HAL_Driver/Src/stm32g4xx_hal_rcc.c ****            +----------------------------------------------------------------------------+
 186:Drivers/STM32G4xx_HAL_Driver/Src/stm32g4xx_hal_rcc.c ****            | Latency         |            HCLK clock frequency (MHz)                    |
 187:Drivers/STM32G4xx_HAL_Driver/Src/stm32g4xx_hal_rcc.c ****            |                 |----------------------------------------------------------|
 188:Drivers/STM32G4xx_HAL_Driver/Src/stm32g4xx_hal_rcc.c ****            |                 |  voltage range 1  |  voltage range 1  | voltage range 2  |
 189:Drivers/STM32G4xx_HAL_Driver/Src/stm32g4xx_hal_rcc.c ****            |                 | boost mode 1.28 V | normal mode 1.2 V |     1.0 V        |
 190:Drivers/STM32G4xx_HAL_Driver/Src/stm32g4xx_hal_rcc.c ****            |-----------------|-------------------|-------------------|------------------|
 191:Drivers/STM32G4xx_HAL_Driver/Src/stm32g4xx_hal_rcc.c ****            |0WS(1 CPU cycles)|    HCLK <= 34     |    HCLK <= 30     |    HCLK <= 13    |
 192:Drivers/STM32G4xx_HAL_Driver/Src/stm32g4xx_hal_rcc.c ****            |-----------------|-------------------|-------------------|------------------|
 193:Drivers/STM32G4xx_HAL_Driver/Src/stm32g4xx_hal_rcc.c ****            |1WS(2 CPU cycles)|    HCLK <= 68     |    HCLK <= 60     |    HCLK <= 26    |
 194:Drivers/STM32G4xx_HAL_Driver/Src/stm32g4xx_hal_rcc.c ****            |-----------------|-------------------|-------------------|------------------|
 195:Drivers/STM32G4xx_HAL_Driver/Src/stm32g4xx_hal_rcc.c ****            |2WS(3 CPU cycles)|    HCLK <= 102    |    HCLK <= 90     |        -         |
 196:Drivers/STM32G4xx_HAL_Driver/Src/stm32g4xx_hal_rcc.c ****            |-----------------|-------------------|-------------------|------------------|
 197:Drivers/STM32G4xx_HAL_Driver/Src/stm32g4xx_hal_rcc.c ****            |3WS(4 CPU cycles)|    HCLK <= 136    |    HCLK <= 120    |        -         |
 198:Drivers/STM32G4xx_HAL_Driver/Src/stm32g4xx_hal_rcc.c ****            |-----------------|-------------------|-------------------|------------------|
 199:Drivers/STM32G4xx_HAL_Driver/Src/stm32g4xx_hal_rcc.c ****            |4WS(5 CPU cycles)|    HCLK <= 170    |    HCLK <= 150    |        -         |
 200:Drivers/STM32G4xx_HAL_Driver/Src/stm32g4xx_hal_rcc.c ****            +----------------------------------------------------------------------------+
 201:Drivers/STM32G4xx_HAL_Driver/Src/stm32g4xx_hal_rcc.c **** 
ARM GAS  /tmp/ccMcPfSr.s 			page 5


 202:Drivers/STM32G4xx_HAL_Driver/Src/stm32g4xx_hal_rcc.c ****   * @{
 203:Drivers/STM32G4xx_HAL_Driver/Src/stm32g4xx_hal_rcc.c ****   */
 204:Drivers/STM32G4xx_HAL_Driver/Src/stm32g4xx_hal_rcc.c **** 
 205:Drivers/STM32G4xx_HAL_Driver/Src/stm32g4xx_hal_rcc.c **** /**
 206:Drivers/STM32G4xx_HAL_Driver/Src/stm32g4xx_hal_rcc.c ****   * @brief  Reset the RCC clock configuration to the default reset state.
 207:Drivers/STM32G4xx_HAL_Driver/Src/stm32g4xx_hal_rcc.c ****   * @note   The default reset state of the clock configuration is given below:
 208:Drivers/STM32G4xx_HAL_Driver/Src/stm32g4xx_hal_rcc.c ****   *            - HSI ON and used as system clock source
 209:Drivers/STM32G4xx_HAL_Driver/Src/stm32g4xx_hal_rcc.c ****   *            - HSE, PLL OFF
 210:Drivers/STM32G4xx_HAL_Driver/Src/stm32g4xx_hal_rcc.c ****   *            - AHB, APB1 and APB2 prescaler set to 1.
 211:Drivers/STM32G4xx_HAL_Driver/Src/stm32g4xx_hal_rcc.c ****   *            - CSS, MCO1 OFF
 212:Drivers/STM32G4xx_HAL_Driver/Src/stm32g4xx_hal_rcc.c ****   *            - All interrupts disabled
 213:Drivers/STM32G4xx_HAL_Driver/Src/stm32g4xx_hal_rcc.c ****   *            - All interrupt and reset flags cleared
 214:Drivers/STM32G4xx_HAL_Driver/Src/stm32g4xx_hal_rcc.c ****   * @note   This function doesn't modify the configuration of the
 215:Drivers/STM32G4xx_HAL_Driver/Src/stm32g4xx_hal_rcc.c ****   *            - Peripheral clocks
 216:Drivers/STM32G4xx_HAL_Driver/Src/stm32g4xx_hal_rcc.c ****   *            - LSI, LSE and RTC clocks
 217:Drivers/STM32G4xx_HAL_Driver/Src/stm32g4xx_hal_rcc.c ****   * @retval HAL status
 218:Drivers/STM32G4xx_HAL_Driver/Src/stm32g4xx_hal_rcc.c ****   */
 219:Drivers/STM32G4xx_HAL_Driver/Src/stm32g4xx_hal_rcc.c **** HAL_StatusTypeDef HAL_RCC_DeInit(void)
 220:Drivers/STM32G4xx_HAL_Driver/Src/stm32g4xx_hal_rcc.c **** {
  29              		.loc 1 220 1 view -0
  30              		.cfi_startproc
  31              		@ args = 0, pretend = 0, frame = 0
  32              		@ frame_needed = 0, uses_anonymous_args = 0
  33 0000 70B5     		push	{r4, r5, r6, lr}
  34              	.LCFI0:
  35              		.cfi_def_cfa_offset 16
  36              		.cfi_offset 4, -16
  37              		.cfi_offset 5, -12
  38              		.cfi_offset 6, -8
  39              		.cfi_offset 14, -4
 221:Drivers/STM32G4xx_HAL_Driver/Src/stm32g4xx_hal_rcc.c ****   uint32_t tickstart;
  40              		.loc 1 221 3 view .LVU1
 222:Drivers/STM32G4xx_HAL_Driver/Src/stm32g4xx_hal_rcc.c **** 
 223:Drivers/STM32G4xx_HAL_Driver/Src/stm32g4xx_hal_rcc.c ****   /* Get Start Tick*/
 224:Drivers/STM32G4xx_HAL_Driver/Src/stm32g4xx_hal_rcc.c ****   tickstart = HAL_GetTick();
  41              		.loc 1 224 3 view .LVU2
  42              		.loc 1 224 15 is_stmt 0 view .LVU3
  43 0002 FFF7FEFF 		bl	HAL_GetTick
  44              	.LVL0:
  45 0006 0446     		mov	r4, r0
  46              	.LVL1:
 225:Drivers/STM32G4xx_HAL_Driver/Src/stm32g4xx_hal_rcc.c **** 
 226:Drivers/STM32G4xx_HAL_Driver/Src/stm32g4xx_hal_rcc.c ****   /* Set HSION bit to the reset value */
 227:Drivers/STM32G4xx_HAL_Driver/Src/stm32g4xx_hal_rcc.c ****   SET_BIT(RCC->CR, RCC_CR_HSION);
  47              		.loc 1 227 3 is_stmt 1 view .LVU4
  48 0008 2C4A     		ldr	r2, .L18
  49 000a 1368     		ldr	r3, [r2]
  50 000c 43F48073 		orr	r3, r3, #256
  51 0010 1360     		str	r3, [r2]
 228:Drivers/STM32G4xx_HAL_Driver/Src/stm32g4xx_hal_rcc.c **** 
 229:Drivers/STM32G4xx_HAL_Driver/Src/stm32g4xx_hal_rcc.c ****   /* Wait till HSI is ready */
 230:Drivers/STM32G4xx_HAL_Driver/Src/stm32g4xx_hal_rcc.c ****   while (READ_BIT(RCC->CR, RCC_CR_HSIRDY) == 0U)
  52              		.loc 1 230 3 view .LVU5
  53              		.loc 1 230 10 is_stmt 0 view .LVU6
  54 0012 1546     		mov	r5, r2
  55              	.LVL2:
  56              	.L2:
ARM GAS  /tmp/ccMcPfSr.s 			page 6


  57              		.loc 1 230 9 is_stmt 1 view .LVU7
  58              		.loc 1 230 10 is_stmt 0 view .LVU8
  59 0014 2B68     		ldr	r3, [r5]
  60              		.loc 1 230 9 view .LVU9
  61 0016 13F4806F 		tst	r3, #1024
  62 001a 07D1     		bne	.L14
 231:Drivers/STM32G4xx_HAL_Driver/Src/stm32g4xx_hal_rcc.c ****   {
 232:Drivers/STM32G4xx_HAL_Driver/Src/stm32g4xx_hal_rcc.c ****     if ((HAL_GetTick() - tickstart) > HSI_TIMEOUT_VALUE)
  63              		.loc 1 232 5 is_stmt 1 view .LVU10
  64              		.loc 1 232 10 is_stmt 0 view .LVU11
  65 001c FFF7FEFF 		bl	HAL_GetTick
  66              	.LVL3:
  67              		.loc 1 232 24 view .LVU12
  68 0020 001B     		subs	r0, r0, r4
  69              		.loc 1 232 8 view .LVU13
  70 0022 0228     		cmp	r0, #2
  71 0024 F6D9     		bls	.L2
 233:Drivers/STM32G4xx_HAL_Driver/Src/stm32g4xx_hal_rcc.c ****     {
 234:Drivers/STM32G4xx_HAL_Driver/Src/stm32g4xx_hal_rcc.c ****       return HAL_TIMEOUT;
  72              		.loc 1 234 14 view .LVU14
  73 0026 0324     		movs	r4, #3
  74              	.LVL4:
  75              	.L3:
 235:Drivers/STM32G4xx_HAL_Driver/Src/stm32g4xx_hal_rcc.c ****     }
 236:Drivers/STM32G4xx_HAL_Driver/Src/stm32g4xx_hal_rcc.c ****   }
 237:Drivers/STM32G4xx_HAL_Driver/Src/stm32g4xx_hal_rcc.c **** 
 238:Drivers/STM32G4xx_HAL_Driver/Src/stm32g4xx_hal_rcc.c ****  /* Set HSITRIM[6:0] bits to the reset value */
 239:Drivers/STM32G4xx_HAL_Driver/Src/stm32g4xx_hal_rcc.c ****   SET_BIT(RCC->ICSCR, RCC_HSICALIBRATION_DEFAULT << RCC_ICSCR_HSITRIM_Pos);
 240:Drivers/STM32G4xx_HAL_Driver/Src/stm32g4xx_hal_rcc.c **** 
 241:Drivers/STM32G4xx_HAL_Driver/Src/stm32g4xx_hal_rcc.c ****   /* Get Start Tick*/
 242:Drivers/STM32G4xx_HAL_Driver/Src/stm32g4xx_hal_rcc.c ****   tickstart = HAL_GetTick();
 243:Drivers/STM32G4xx_HAL_Driver/Src/stm32g4xx_hal_rcc.c **** 
 244:Drivers/STM32G4xx_HAL_Driver/Src/stm32g4xx_hal_rcc.c ****   /* Reset CFGR register (HSI is selected as system clock source) */
 245:Drivers/STM32G4xx_HAL_Driver/Src/stm32g4xx_hal_rcc.c ****   RCC->CFGR = 0x00000001u;
 246:Drivers/STM32G4xx_HAL_Driver/Src/stm32g4xx_hal_rcc.c **** 
 247:Drivers/STM32G4xx_HAL_Driver/Src/stm32g4xx_hal_rcc.c ****   /* Wait till HSI is ready */
 248:Drivers/STM32G4xx_HAL_Driver/Src/stm32g4xx_hal_rcc.c ****   while (READ_BIT(RCC->CFGR, RCC_CFGR_SWS) != RCC_CFGR_SWS_HSI)
 249:Drivers/STM32G4xx_HAL_Driver/Src/stm32g4xx_hal_rcc.c ****   {
 250:Drivers/STM32G4xx_HAL_Driver/Src/stm32g4xx_hal_rcc.c ****     if ((HAL_GetTick() - tickstart) > CLOCKSWITCH_TIMEOUT_VALUE)
 251:Drivers/STM32G4xx_HAL_Driver/Src/stm32g4xx_hal_rcc.c ****     {
 252:Drivers/STM32G4xx_HAL_Driver/Src/stm32g4xx_hal_rcc.c ****       return HAL_TIMEOUT;
 253:Drivers/STM32G4xx_HAL_Driver/Src/stm32g4xx_hal_rcc.c ****     }
 254:Drivers/STM32G4xx_HAL_Driver/Src/stm32g4xx_hal_rcc.c ****   }
 255:Drivers/STM32G4xx_HAL_Driver/Src/stm32g4xx_hal_rcc.c **** 
 256:Drivers/STM32G4xx_HAL_Driver/Src/stm32g4xx_hal_rcc.c ****   /* Update the SystemCoreClock global variable */
 257:Drivers/STM32G4xx_HAL_Driver/Src/stm32g4xx_hal_rcc.c ****   SystemCoreClock = HSI_VALUE;
 258:Drivers/STM32G4xx_HAL_Driver/Src/stm32g4xx_hal_rcc.c **** 
 259:Drivers/STM32G4xx_HAL_Driver/Src/stm32g4xx_hal_rcc.c ****   /* Adapt Systick interrupt period */
 260:Drivers/STM32G4xx_HAL_Driver/Src/stm32g4xx_hal_rcc.c ****   if (HAL_InitTick(uwTickPrio) != HAL_OK)
 261:Drivers/STM32G4xx_HAL_Driver/Src/stm32g4xx_hal_rcc.c ****   {
 262:Drivers/STM32G4xx_HAL_Driver/Src/stm32g4xx_hal_rcc.c ****     return HAL_ERROR;
 263:Drivers/STM32G4xx_HAL_Driver/Src/stm32g4xx_hal_rcc.c ****   }
 264:Drivers/STM32G4xx_HAL_Driver/Src/stm32g4xx_hal_rcc.c **** 
 265:Drivers/STM32G4xx_HAL_Driver/Src/stm32g4xx_hal_rcc.c ****   /* Clear CR register in 2 steps: first to clear HSEON in case bypass was enabled */
 266:Drivers/STM32G4xx_HAL_Driver/Src/stm32g4xx_hal_rcc.c ****   RCC->CR = RCC_CR_HSION;
 267:Drivers/STM32G4xx_HAL_Driver/Src/stm32g4xx_hal_rcc.c **** 
 268:Drivers/STM32G4xx_HAL_Driver/Src/stm32g4xx_hal_rcc.c ****   /* Then again to HSEBYP in case bypass was enabled */
ARM GAS  /tmp/ccMcPfSr.s 			page 7


 269:Drivers/STM32G4xx_HAL_Driver/Src/stm32g4xx_hal_rcc.c ****   RCC->CR = RCC_CR_HSION;
 270:Drivers/STM32G4xx_HAL_Driver/Src/stm32g4xx_hal_rcc.c **** 
 271:Drivers/STM32G4xx_HAL_Driver/Src/stm32g4xx_hal_rcc.c ****   /* Get Start Tick*/
 272:Drivers/STM32G4xx_HAL_Driver/Src/stm32g4xx_hal_rcc.c ****   tickstart = HAL_GetTick();
 273:Drivers/STM32G4xx_HAL_Driver/Src/stm32g4xx_hal_rcc.c **** 
 274:Drivers/STM32G4xx_HAL_Driver/Src/stm32g4xx_hal_rcc.c ****   /* Wait till PLL is OFF */
 275:Drivers/STM32G4xx_HAL_Driver/Src/stm32g4xx_hal_rcc.c ****   while (READ_BIT(RCC->CR, RCC_CR_PLLRDY) != 0U)
 276:Drivers/STM32G4xx_HAL_Driver/Src/stm32g4xx_hal_rcc.c ****   {
 277:Drivers/STM32G4xx_HAL_Driver/Src/stm32g4xx_hal_rcc.c ****     if ((HAL_GetTick() - tickstart) > PLL_TIMEOUT_VALUE)
 278:Drivers/STM32G4xx_HAL_Driver/Src/stm32g4xx_hal_rcc.c ****     {
 279:Drivers/STM32G4xx_HAL_Driver/Src/stm32g4xx_hal_rcc.c ****       return HAL_TIMEOUT;
 280:Drivers/STM32G4xx_HAL_Driver/Src/stm32g4xx_hal_rcc.c ****     }
 281:Drivers/STM32G4xx_HAL_Driver/Src/stm32g4xx_hal_rcc.c ****   }
 282:Drivers/STM32G4xx_HAL_Driver/Src/stm32g4xx_hal_rcc.c **** 
 283:Drivers/STM32G4xx_HAL_Driver/Src/stm32g4xx_hal_rcc.c ****   /* once PLL is OFF, reset PLLCFGR register to default value */
 284:Drivers/STM32G4xx_HAL_Driver/Src/stm32g4xx_hal_rcc.c ****   RCC->PLLCFGR = RCC_PLLCFGR_PLLN_4;
 285:Drivers/STM32G4xx_HAL_Driver/Src/stm32g4xx_hal_rcc.c **** 
 286:Drivers/STM32G4xx_HAL_Driver/Src/stm32g4xx_hal_rcc.c ****   /* Disable all interrupts */
 287:Drivers/STM32G4xx_HAL_Driver/Src/stm32g4xx_hal_rcc.c ****   CLEAR_REG(RCC->CIER);
 288:Drivers/STM32G4xx_HAL_Driver/Src/stm32g4xx_hal_rcc.c **** 
 289:Drivers/STM32G4xx_HAL_Driver/Src/stm32g4xx_hal_rcc.c ****   /* Clear all interrupt flags */
 290:Drivers/STM32G4xx_HAL_Driver/Src/stm32g4xx_hal_rcc.c ****   WRITE_REG(RCC->CICR, 0xFFFFFFFFU);
 291:Drivers/STM32G4xx_HAL_Driver/Src/stm32g4xx_hal_rcc.c **** 
 292:Drivers/STM32G4xx_HAL_Driver/Src/stm32g4xx_hal_rcc.c ****   /* Clear all reset flags */
 293:Drivers/STM32G4xx_HAL_Driver/Src/stm32g4xx_hal_rcc.c ****   SET_BIT(RCC->CSR, RCC_CSR_RMVF);
 294:Drivers/STM32G4xx_HAL_Driver/Src/stm32g4xx_hal_rcc.c **** 
 295:Drivers/STM32G4xx_HAL_Driver/Src/stm32g4xx_hal_rcc.c ****   return HAL_OK;
 296:Drivers/STM32G4xx_HAL_Driver/Src/stm32g4xx_hal_rcc.c **** }
  76              		.loc 1 296 1 view .LVU15
  77 0028 2046     		mov	r0, r4
  78 002a 70BD     		pop	{r4, r5, r6, pc}
  79              	.LVL5:
  80              	.L14:
 239:Drivers/STM32G4xx_HAL_Driver/Src/stm32g4xx_hal_rcc.c **** 
  81              		.loc 1 239 3 is_stmt 1 view .LVU16
  82 002c 234D     		ldr	r5, .L18
  83 002e 6B68     		ldr	r3, [r5, #4]
  84 0030 43F08043 		orr	r3, r3, #1073741824
  85 0034 6B60     		str	r3, [r5, #4]
 242:Drivers/STM32G4xx_HAL_Driver/Src/stm32g4xx_hal_rcc.c **** 
  86              		.loc 1 242 3 view .LVU17
 242:Drivers/STM32G4xx_HAL_Driver/Src/stm32g4xx_hal_rcc.c **** 
  87              		.loc 1 242 15 is_stmt 0 view .LVU18
  88 0036 FFF7FEFF 		bl	HAL_GetTick
  89              	.LVL6:
  90 003a 0446     		mov	r4, r0
  91              	.LVL7:
 245:Drivers/STM32G4xx_HAL_Driver/Src/stm32g4xx_hal_rcc.c **** 
  92              		.loc 1 245 3 is_stmt 1 view .LVU19
 245:Drivers/STM32G4xx_HAL_Driver/Src/stm32g4xx_hal_rcc.c **** 
  93              		.loc 1 245 13 is_stmt 0 view .LVU20
  94 003c 0123     		movs	r3, #1
  95 003e AB60     		str	r3, [r5, #8]
 248:Drivers/STM32G4xx_HAL_Driver/Src/stm32g4xx_hal_rcc.c ****   {
  96              		.loc 1 248 3 is_stmt 1 view .LVU21
 250:Drivers/STM32G4xx_HAL_Driver/Src/stm32g4xx_hal_rcc.c ****     {
  97              		.loc 1 250 8 is_stmt 0 view .LVU22
ARM GAS  /tmp/ccMcPfSr.s 			page 8


  98 0040 41F28836 		movw	r6, #5000
  99              	.LVL8:
 100              	.L5:
 248:Drivers/STM32G4xx_HAL_Driver/Src/stm32g4xx_hal_rcc.c ****   {
 101              		.loc 1 248 9 is_stmt 1 view .LVU23
 248:Drivers/STM32G4xx_HAL_Driver/Src/stm32g4xx_hal_rcc.c ****   {
 102              		.loc 1 248 10 is_stmt 0 view .LVU24
 103 0044 AB68     		ldr	r3, [r5, #8]
 104 0046 03F00C03 		and	r3, r3, #12
 248:Drivers/STM32G4xx_HAL_Driver/Src/stm32g4xx_hal_rcc.c ****   {
 105              		.loc 1 248 9 view .LVU25
 106 004a 042B     		cmp	r3, #4
 107 004c 06D0     		beq	.L15
 250:Drivers/STM32G4xx_HAL_Driver/Src/stm32g4xx_hal_rcc.c ****     {
 108              		.loc 1 250 5 is_stmt 1 view .LVU26
 250:Drivers/STM32G4xx_HAL_Driver/Src/stm32g4xx_hal_rcc.c ****     {
 109              		.loc 1 250 10 is_stmt 0 view .LVU27
 110 004e FFF7FEFF 		bl	HAL_GetTick
 111              	.LVL9:
 250:Drivers/STM32G4xx_HAL_Driver/Src/stm32g4xx_hal_rcc.c ****     {
 112              		.loc 1 250 24 view .LVU28
 113 0052 001B     		subs	r0, r0, r4
 250:Drivers/STM32G4xx_HAL_Driver/Src/stm32g4xx_hal_rcc.c ****     {
 114              		.loc 1 250 8 view .LVU29
 115 0054 B042     		cmp	r0, r6
 116 0056 F5D9     		bls	.L5
 252:Drivers/STM32G4xx_HAL_Driver/Src/stm32g4xx_hal_rcc.c ****     }
 117              		.loc 1 252 14 view .LVU30
 118 0058 0324     		movs	r4, #3
 119              	.LVL10:
 252:Drivers/STM32G4xx_HAL_Driver/Src/stm32g4xx_hal_rcc.c ****     }
 120              		.loc 1 252 14 view .LVU31
 121 005a E5E7     		b	.L3
 122              	.LVL11:
 123              	.L15:
 257:Drivers/STM32G4xx_HAL_Driver/Src/stm32g4xx_hal_rcc.c **** 
 124              		.loc 1 257 3 is_stmt 1 view .LVU32
 257:Drivers/STM32G4xx_HAL_Driver/Src/stm32g4xx_hal_rcc.c **** 
 125              		.loc 1 257 19 is_stmt 0 view .LVU33
 126 005c 184B     		ldr	r3, .L18+4
 127 005e 194A     		ldr	r2, .L18+8
 128 0060 1A60     		str	r2, [r3]
 260:Drivers/STM32G4xx_HAL_Driver/Src/stm32g4xx_hal_rcc.c ****   {
 129              		.loc 1 260 3 is_stmt 1 view .LVU34
 260:Drivers/STM32G4xx_HAL_Driver/Src/stm32g4xx_hal_rcc.c ****   {
 130              		.loc 1 260 7 is_stmt 0 view .LVU35
 131 0062 194B     		ldr	r3, .L18+12
 132 0064 1868     		ldr	r0, [r3]
 133 0066 FFF7FEFF 		bl	HAL_InitTick
 134              	.LVL12:
 260:Drivers/STM32G4xx_HAL_Driver/Src/stm32g4xx_hal_rcc.c ****   {
 135              		.loc 1 260 6 view .LVU36
 136 006a 0446     		mov	r4, r0
 137              	.LVL13:
 260:Drivers/STM32G4xx_HAL_Driver/Src/stm32g4xx_hal_rcc.c ****   {
 138              		.loc 1 260 6 view .LVU37
 139 006c 08B1     		cbz	r0, .L16
ARM GAS  /tmp/ccMcPfSr.s 			page 9


 262:Drivers/STM32G4xx_HAL_Driver/Src/stm32g4xx_hal_rcc.c ****   }
 140              		.loc 1 262 12 view .LVU38
 141 006e 0124     		movs	r4, #1
 142 0070 DAE7     		b	.L3
 143              	.L16:
 266:Drivers/STM32G4xx_HAL_Driver/Src/stm32g4xx_hal_rcc.c **** 
 144              		.loc 1 266 3 is_stmt 1 view .LVU39
 266:Drivers/STM32G4xx_HAL_Driver/Src/stm32g4xx_hal_rcc.c **** 
 145              		.loc 1 266 11 is_stmt 0 view .LVU40
 146 0072 124B     		ldr	r3, .L18
 147 0074 4FF48072 		mov	r2, #256
 148 0078 1A60     		str	r2, [r3]
 269:Drivers/STM32G4xx_HAL_Driver/Src/stm32g4xx_hal_rcc.c **** 
 149              		.loc 1 269 3 is_stmt 1 view .LVU41
 269:Drivers/STM32G4xx_HAL_Driver/Src/stm32g4xx_hal_rcc.c **** 
 150              		.loc 1 269 11 is_stmt 0 view .LVU42
 151 007a 1A60     		str	r2, [r3]
 272:Drivers/STM32G4xx_HAL_Driver/Src/stm32g4xx_hal_rcc.c **** 
 152              		.loc 1 272 3 is_stmt 1 view .LVU43
 272:Drivers/STM32G4xx_HAL_Driver/Src/stm32g4xx_hal_rcc.c **** 
 153              		.loc 1 272 15 is_stmt 0 view .LVU44
 154 007c FFF7FEFF 		bl	HAL_GetTick
 155              	.LVL14:
 156 0080 0546     		mov	r5, r0
 157              	.LVL15:
 275:Drivers/STM32G4xx_HAL_Driver/Src/stm32g4xx_hal_rcc.c ****   {
 158              		.loc 1 275 3 is_stmt 1 view .LVU45
 275:Drivers/STM32G4xx_HAL_Driver/Src/stm32g4xx_hal_rcc.c ****   {
 159              		.loc 1 275 10 is_stmt 0 view .LVU46
 160 0082 0E4E     		ldr	r6, .L18
 161              	.LVL16:
 162              	.L7:
 275:Drivers/STM32G4xx_HAL_Driver/Src/stm32g4xx_hal_rcc.c ****   {
 163              		.loc 1 275 9 is_stmt 1 view .LVU47
 275:Drivers/STM32G4xx_HAL_Driver/Src/stm32g4xx_hal_rcc.c ****   {
 164              		.loc 1 275 10 is_stmt 0 view .LVU48
 165 0084 3368     		ldr	r3, [r6]
 275:Drivers/STM32G4xx_HAL_Driver/Src/stm32g4xx_hal_rcc.c ****   {
 166              		.loc 1 275 9 view .LVU49
 167 0086 13F0007F 		tst	r3, #33554432
 168 008a 06D0     		beq	.L17
 277:Drivers/STM32G4xx_HAL_Driver/Src/stm32g4xx_hal_rcc.c ****     {
 169              		.loc 1 277 5 is_stmt 1 view .LVU50
 277:Drivers/STM32G4xx_HAL_Driver/Src/stm32g4xx_hal_rcc.c ****     {
 170              		.loc 1 277 10 is_stmt 0 view .LVU51
 171 008c FFF7FEFF 		bl	HAL_GetTick
 172              	.LVL17:
 277:Drivers/STM32G4xx_HAL_Driver/Src/stm32g4xx_hal_rcc.c ****     {
 173              		.loc 1 277 24 view .LVU52
 174 0090 401B     		subs	r0, r0, r5
 277:Drivers/STM32G4xx_HAL_Driver/Src/stm32g4xx_hal_rcc.c ****     {
 175              		.loc 1 277 8 view .LVU53
 176 0092 0228     		cmp	r0, #2
 177 0094 F6D9     		bls	.L7
 279:Drivers/STM32G4xx_HAL_Driver/Src/stm32g4xx_hal_rcc.c ****     }
 178              		.loc 1 279 14 view .LVU54
 179 0096 0324     		movs	r4, #3
ARM GAS  /tmp/ccMcPfSr.s 			page 10


 180 0098 C6E7     		b	.L3
 181              	.L17:
 284:Drivers/STM32G4xx_HAL_Driver/Src/stm32g4xx_hal_rcc.c **** 
 182              		.loc 1 284 3 is_stmt 1 view .LVU55
 284:Drivers/STM32G4xx_HAL_Driver/Src/stm32g4xx_hal_rcc.c **** 
 183              		.loc 1 284 16 is_stmt 0 view .LVU56
 184 009a 084B     		ldr	r3, .L18
 185 009c 4FF48052 		mov	r2, #4096
 186 00a0 DA60     		str	r2, [r3, #12]
 287:Drivers/STM32G4xx_HAL_Driver/Src/stm32g4xx_hal_rcc.c **** 
 187              		.loc 1 287 3 is_stmt 1 view .LVU57
 188 00a2 0022     		movs	r2, #0
 189 00a4 9A61     		str	r2, [r3, #24]
 290:Drivers/STM32G4xx_HAL_Driver/Src/stm32g4xx_hal_rcc.c **** 
 190              		.loc 1 290 3 view .LVU58
 191 00a6 4FF0FF32 		mov	r2, #-1
 192 00aa 1A62     		str	r2, [r3, #32]
 293:Drivers/STM32G4xx_HAL_Driver/Src/stm32g4xx_hal_rcc.c **** 
 193              		.loc 1 293 3 view .LVU59
 194 00ac D3F89420 		ldr	r2, [r3, #148]
 195 00b0 42F40002 		orr	r2, r2, #8388608
 196 00b4 C3F89420 		str	r2, [r3, #148]
 295:Drivers/STM32G4xx_HAL_Driver/Src/stm32g4xx_hal_rcc.c **** }
 197              		.loc 1 295 3 view .LVU60
 295:Drivers/STM32G4xx_HAL_Driver/Src/stm32g4xx_hal_rcc.c **** }
 198              		.loc 1 295 10 is_stmt 0 view .LVU61
 199 00b8 B6E7     		b	.L3
 200              	.L19:
 201 00ba 00BF     		.align	2
 202              	.L18:
 203 00bc 00100240 		.word	1073876992
 204 00c0 00000000 		.word	SystemCoreClock
 205 00c4 0024F400 		.word	16000000
 206 00c8 00000000 		.word	uwTickPrio
 207              		.cfi_endproc
 208              	.LFE132:
 210              		.section	.text.HAL_RCC_OscConfig,"ax",%progbits
 211              		.align	1
 212              		.global	HAL_RCC_OscConfig
 213              		.syntax unified
 214              		.thumb
 215              		.thumb_func
 216              		.fpu fpv4-sp-d16
 218              	HAL_RCC_OscConfig:
 219              	.LVL18:
 220              	.LFB133:
 297:Drivers/STM32G4xx_HAL_Driver/Src/stm32g4xx_hal_rcc.c **** 
 298:Drivers/STM32G4xx_HAL_Driver/Src/stm32g4xx_hal_rcc.c **** /**
 299:Drivers/STM32G4xx_HAL_Driver/Src/stm32g4xx_hal_rcc.c ****   * @brief  Initialize the RCC Oscillators according to the specified parameters in the
 300:Drivers/STM32G4xx_HAL_Driver/Src/stm32g4xx_hal_rcc.c ****   *         RCC_OscInitTypeDef.
 301:Drivers/STM32G4xx_HAL_Driver/Src/stm32g4xx_hal_rcc.c ****   * @param  RCC_OscInitStruct  pointer to an RCC_OscInitTypeDef structure that
 302:Drivers/STM32G4xx_HAL_Driver/Src/stm32g4xx_hal_rcc.c ****   *         contains the configuration information for the RCC Oscillators.
 303:Drivers/STM32G4xx_HAL_Driver/Src/stm32g4xx_hal_rcc.c ****   * @note   The PLL is not disabled when used as system clock.
 304:Drivers/STM32G4xx_HAL_Driver/Src/stm32g4xx_hal_rcc.c ****   * @note   Transitions LSE Bypass to LSE On and LSE On to LSE Bypass are not
 305:Drivers/STM32G4xx_HAL_Driver/Src/stm32g4xx_hal_rcc.c ****   *         supported by this macro. User should request a transition to LSE Off
 306:Drivers/STM32G4xx_HAL_Driver/Src/stm32g4xx_hal_rcc.c ****   *         first and then LSE On or LSE Bypass.
 307:Drivers/STM32G4xx_HAL_Driver/Src/stm32g4xx_hal_rcc.c ****   * @note   Transition HSE Bypass to HSE On and HSE On to HSE Bypass are not
ARM GAS  /tmp/ccMcPfSr.s 			page 11


 308:Drivers/STM32G4xx_HAL_Driver/Src/stm32g4xx_hal_rcc.c ****   *         supported by this macro. User should request a transition to HSE Off
 309:Drivers/STM32G4xx_HAL_Driver/Src/stm32g4xx_hal_rcc.c ****   *         first and then HSE On or HSE Bypass.
 310:Drivers/STM32G4xx_HAL_Driver/Src/stm32g4xx_hal_rcc.c ****   * @retval HAL status
 311:Drivers/STM32G4xx_HAL_Driver/Src/stm32g4xx_hal_rcc.c ****   */
 312:Drivers/STM32G4xx_HAL_Driver/Src/stm32g4xx_hal_rcc.c **** HAL_StatusTypeDef HAL_RCC_OscConfig(RCC_OscInitTypeDef  *RCC_OscInitStruct)
 313:Drivers/STM32G4xx_HAL_Driver/Src/stm32g4xx_hal_rcc.c **** {
 221              		.loc 1 313 1 is_stmt 1 view -0
 222              		.cfi_startproc
 223              		@ args = 0, pretend = 0, frame = 8
 224              		@ frame_needed = 0, uses_anonymous_args = 0
 314:Drivers/STM32G4xx_HAL_Driver/Src/stm32g4xx_hal_rcc.c ****   uint32_t tickstart;
 225              		.loc 1 314 3 view .LVU63
 315:Drivers/STM32G4xx_HAL_Driver/Src/stm32g4xx_hal_rcc.c ****   uint32_t temp_sysclksrc;
 226              		.loc 1 315 3 view .LVU64
 316:Drivers/STM32G4xx_HAL_Driver/Src/stm32g4xx_hal_rcc.c ****   uint32_t temp_pllckcfg;
 227              		.loc 1 316 3 view .LVU65
 317:Drivers/STM32G4xx_HAL_Driver/Src/stm32g4xx_hal_rcc.c **** 
 318:Drivers/STM32G4xx_HAL_Driver/Src/stm32g4xx_hal_rcc.c ****   /* Check Null pointer */
 319:Drivers/STM32G4xx_HAL_Driver/Src/stm32g4xx_hal_rcc.c ****   if (RCC_OscInitStruct == NULL)
 228              		.loc 1 319 3 view .LVU66
 229              		.loc 1 319 6 is_stmt 0 view .LVU67
 230 0000 0028     		cmp	r0, #0
 231 0002 00F05282 		beq	.L78
 313:Drivers/STM32G4xx_HAL_Driver/Src/stm32g4xx_hal_rcc.c ****   uint32_t tickstart;
 232              		.loc 1 313 1 view .LVU68
 233 0006 2DE9F041 		push	{r4, r5, r6, r7, r8, lr}
 234              	.LCFI1:
 235              		.cfi_def_cfa_offset 24
 236              		.cfi_offset 4, -24
 237              		.cfi_offset 5, -20
 238              		.cfi_offset 6, -16
 239              		.cfi_offset 7, -12
 240              		.cfi_offset 8, -8
 241              		.cfi_offset 14, -4
 242 000a 82B0     		sub	sp, sp, #8
 243              	.LCFI2:
 244              		.cfi_def_cfa_offset 32
 245 000c 0446     		mov	r4, r0
 320:Drivers/STM32G4xx_HAL_Driver/Src/stm32g4xx_hal_rcc.c ****   {
 321:Drivers/STM32G4xx_HAL_Driver/Src/stm32g4xx_hal_rcc.c ****     return HAL_ERROR;
 322:Drivers/STM32G4xx_HAL_Driver/Src/stm32g4xx_hal_rcc.c ****   }
 323:Drivers/STM32G4xx_HAL_Driver/Src/stm32g4xx_hal_rcc.c **** 
 324:Drivers/STM32G4xx_HAL_Driver/Src/stm32g4xx_hal_rcc.c ****   /* Check the parameters */
 325:Drivers/STM32G4xx_HAL_Driver/Src/stm32g4xx_hal_rcc.c ****   assert_param(IS_RCC_OSCILLATORTYPE(RCC_OscInitStruct->OscillatorType));
 246              		.loc 1 325 3 is_stmt 1 view .LVU69
 326:Drivers/STM32G4xx_HAL_Driver/Src/stm32g4xx_hal_rcc.c **** 
 327:Drivers/STM32G4xx_HAL_Driver/Src/stm32g4xx_hal_rcc.c ****   /*------------------------------- HSE Configuration ------------------------*/
 328:Drivers/STM32G4xx_HAL_Driver/Src/stm32g4xx_hal_rcc.c ****   if (((RCC_OscInitStruct->OscillatorType) & RCC_OSCILLATORTYPE_HSE) == RCC_OSCILLATORTYPE_HSE)
 247              		.loc 1 328 3 view .LVU70
 248              		.loc 1 328 44 is_stmt 0 view .LVU71
 249 000e 0368     		ldr	r3, [r0]
 250              		.loc 1 328 6 view .LVU72
 251 0010 13F0010F 		tst	r3, #1
 252 0014 37D0     		beq	.L22
 329:Drivers/STM32G4xx_HAL_Driver/Src/stm32g4xx_hal_rcc.c ****   {
 330:Drivers/STM32G4xx_HAL_Driver/Src/stm32g4xx_hal_rcc.c ****     /* Check the parameters */
 331:Drivers/STM32G4xx_HAL_Driver/Src/stm32g4xx_hal_rcc.c ****     assert_param(IS_RCC_HSE(RCC_OscInitStruct->HSEState));
ARM GAS  /tmp/ccMcPfSr.s 			page 12


 253              		.loc 1 331 5 is_stmt 1 view .LVU73
 332:Drivers/STM32G4xx_HAL_Driver/Src/stm32g4xx_hal_rcc.c **** 
 333:Drivers/STM32G4xx_HAL_Driver/Src/stm32g4xx_hal_rcc.c ****     temp_sysclksrc = __HAL_RCC_GET_SYSCLK_SOURCE();
 254              		.loc 1 333 5 view .LVU74
 255              		.loc 1 333 22 is_stmt 0 view .LVU75
 256 0016 A54A     		ldr	r2, .L123
 257 0018 9368     		ldr	r3, [r2, #8]
 258              		.loc 1 333 20 view .LVU76
 259 001a 03F00C03 		and	r3, r3, #12
 260              	.LVL19:
 334:Drivers/STM32G4xx_HAL_Driver/Src/stm32g4xx_hal_rcc.c ****     temp_pllckcfg = __HAL_RCC_GET_PLL_OSCSOURCE();
 261              		.loc 1 334 5 is_stmt 1 view .LVU77
 262              		.loc 1 334 21 is_stmt 0 view .LVU78
 263 001e D268     		ldr	r2, [r2, #12]
 264              	.LVL20:
 335:Drivers/STM32G4xx_HAL_Driver/Src/stm32g4xx_hal_rcc.c **** 
 336:Drivers/STM32G4xx_HAL_Driver/Src/stm32g4xx_hal_rcc.c ****     /* When the HSE is used as system clock or clock source for PLL in these cases it is not allowe
 337:Drivers/STM32G4xx_HAL_Driver/Src/stm32g4xx_hal_rcc.c ****     if (((temp_sysclksrc == RCC_CFGR_SWS_PLL) && (temp_pllckcfg == RCC_PLLSOURCE_HSE)) || (temp_sys
 265              		.loc 1 337 5 is_stmt 1 view .LVU79
 266              		.loc 1 337 8 is_stmt 0 view .LVU80
 267 0020 0C2B     		cmp	r3, #12
 268 0022 23D0     		beq	.L108
 269              		.loc 1 337 88 discriminator 3 view .LVU81
 270 0024 082B     		cmp	r3, #8
 271 0026 25D0     		beq	.L24
 272              	.LVL21:
 273              	.L25:
 338:Drivers/STM32G4xx_HAL_Driver/Src/stm32g4xx_hal_rcc.c ****     {
 339:Drivers/STM32G4xx_HAL_Driver/Src/stm32g4xx_hal_rcc.c ****       if ((READ_BIT(RCC->CR, RCC_CR_HSERDY) != 0U) && (RCC_OscInitStruct->HSEState == RCC_HSE_OFF))
 340:Drivers/STM32G4xx_HAL_Driver/Src/stm32g4xx_hal_rcc.c ****       {
 341:Drivers/STM32G4xx_HAL_Driver/Src/stm32g4xx_hal_rcc.c ****         return HAL_ERROR;
 342:Drivers/STM32G4xx_HAL_Driver/Src/stm32g4xx_hal_rcc.c ****       }
 343:Drivers/STM32G4xx_HAL_Driver/Src/stm32g4xx_hal_rcc.c ****     }
 344:Drivers/STM32G4xx_HAL_Driver/Src/stm32g4xx_hal_rcc.c ****     else
 345:Drivers/STM32G4xx_HAL_Driver/Src/stm32g4xx_hal_rcc.c ****     {
 346:Drivers/STM32G4xx_HAL_Driver/Src/stm32g4xx_hal_rcc.c ****       /* Set the new HSE configuration ---------------------------------------*/
 347:Drivers/STM32G4xx_HAL_Driver/Src/stm32g4xx_hal_rcc.c ****       __HAL_RCC_HSE_CONFIG(RCC_OscInitStruct->HSEState);
 274              		.loc 1 347 7 is_stmt 1 view .LVU82
 275              		.loc 1 347 7 view .LVU83
 276 0028 6368     		ldr	r3, [r4, #4]
 277              	.LVL22:
 278              		.loc 1 347 7 is_stmt 0 view .LVU84
 279 002a B3F5803F 		cmp	r3, #65536
 280 002e 4ED0     		beq	.L109
 281              		.loc 1 347 7 is_stmt 1 discriminator 2 view .LVU85
 282 0030 B3F5A02F 		cmp	r3, #327680
 283 0034 51D0     		beq	.L110
 284              		.loc 1 347 7 discriminator 5 view .LVU86
 285 0036 9D4B     		ldr	r3, .L123
 286 0038 1A68     		ldr	r2, [r3]
 287 003a 22F48032 		bic	r2, r2, #65536
 288 003e 1A60     		str	r2, [r3]
 289              		.loc 1 347 7 discriminator 5 view .LVU87
 290 0040 1A68     		ldr	r2, [r3]
 291 0042 22F48022 		bic	r2, r2, #262144
 292 0046 1A60     		str	r2, [r3]
 293              	.L27:
ARM GAS  /tmp/ccMcPfSr.s 			page 13


 294              		.loc 1 347 7 discriminator 7 view .LVU88
 348:Drivers/STM32G4xx_HAL_Driver/Src/stm32g4xx_hal_rcc.c **** 
 349:Drivers/STM32G4xx_HAL_Driver/Src/stm32g4xx_hal_rcc.c ****       /* Check the HSE State */
 350:Drivers/STM32G4xx_HAL_Driver/Src/stm32g4xx_hal_rcc.c ****       if (RCC_OscInitStruct->HSEState != RCC_HSE_OFF)
 295              		.loc 1 350 7 discriminator 7 view .LVU89
 296              		.loc 1 350 10 is_stmt 0 discriminator 7 view .LVU90
 297 0048 6368     		ldr	r3, [r4, #4]
 298 004a 002B     		cmp	r3, #0
 299 004c 52D0     		beq	.L29
 351:Drivers/STM32G4xx_HAL_Driver/Src/stm32g4xx_hal_rcc.c ****       {
 352:Drivers/STM32G4xx_HAL_Driver/Src/stm32g4xx_hal_rcc.c ****         /* Get Start Tick*/
 353:Drivers/STM32G4xx_HAL_Driver/Src/stm32g4xx_hal_rcc.c ****         tickstart = HAL_GetTick();
 300              		.loc 1 353 9 is_stmt 1 view .LVU91
 301              		.loc 1 353 21 is_stmt 0 view .LVU92
 302 004e FFF7FEFF 		bl	HAL_GetTick
 303              	.LVL23:
 304              		.loc 1 353 21 view .LVU93
 305 0052 0546     		mov	r5, r0
 306              	.LVL24:
 354:Drivers/STM32G4xx_HAL_Driver/Src/stm32g4xx_hal_rcc.c **** 
 355:Drivers/STM32G4xx_HAL_Driver/Src/stm32g4xx_hal_rcc.c ****         /* Wait till HSE is ready */
 356:Drivers/STM32G4xx_HAL_Driver/Src/stm32g4xx_hal_rcc.c ****         while (READ_BIT(RCC->CR, RCC_CR_HSERDY) == 0U)
 307              		.loc 1 356 9 is_stmt 1 view .LVU94
 308              		.loc 1 356 16 is_stmt 0 view .LVU95
 309 0054 954E     		ldr	r6, .L123
 310              	.LVL25:
 311              	.L30:
 312              		.loc 1 356 15 is_stmt 1 view .LVU96
 313              		.loc 1 356 16 is_stmt 0 view .LVU97
 314 0056 3368     		ldr	r3, [r6]
 315              		.loc 1 356 15 view .LVU98
 316 0058 13F4003F 		tst	r3, #131072
 317 005c 13D1     		bne	.L22
 357:Drivers/STM32G4xx_HAL_Driver/Src/stm32g4xx_hal_rcc.c ****         {
 358:Drivers/STM32G4xx_HAL_Driver/Src/stm32g4xx_hal_rcc.c ****           if ((HAL_GetTick() - tickstart) > HSE_TIMEOUT_VALUE)
 318              		.loc 1 358 11 is_stmt 1 view .LVU99
 319              		.loc 1 358 16 is_stmt 0 view .LVU100
 320 005e FFF7FEFF 		bl	HAL_GetTick
 321              	.LVL26:
 322              		.loc 1 358 30 view .LVU101
 323 0062 401B     		subs	r0, r0, r5
 324              		.loc 1 358 14 view .LVU102
 325 0064 6428     		cmp	r0, #100
 326 0066 F6D9     		bls	.L30
 359:Drivers/STM32G4xx_HAL_Driver/Src/stm32g4xx_hal_rcc.c ****           {
 360:Drivers/STM32G4xx_HAL_Driver/Src/stm32g4xx_hal_rcc.c ****             return HAL_TIMEOUT;
 327              		.loc 1 360 20 view .LVU103
 328 0068 0320     		movs	r0, #3
 329 006a 27E2     		b	.L21
 330              	.LVL27:
 331              	.L108:
 334:Drivers/STM32G4xx_HAL_Driver/Src/stm32g4xx_hal_rcc.c **** 
 332              		.loc 1 334 19 discriminator 1 view .LVU104
 333 006c 02F00302 		and	r2, r2, #3
 334              	.LVL28:
 337:Drivers/STM32G4xx_HAL_Driver/Src/stm32g4xx_hal_rcc.c ****     {
 335              		.loc 1 337 47 discriminator 1 view .LVU105
ARM GAS  /tmp/ccMcPfSr.s 			page 14


 336 0070 032A     		cmp	r2, #3
 337 0072 D9D1     		bne	.L25
 338              	.L24:
 339:Drivers/STM32G4xx_HAL_Driver/Src/stm32g4xx_hal_rcc.c ****       {
 339              		.loc 1 339 7 is_stmt 1 view .LVU106
 339:Drivers/STM32G4xx_HAL_Driver/Src/stm32g4xx_hal_rcc.c ****       {
 340              		.loc 1 339 12 is_stmt 0 view .LVU107
 341 0074 8D4B     		ldr	r3, .L123
 342              	.LVL29:
 339:Drivers/STM32G4xx_HAL_Driver/Src/stm32g4xx_hal_rcc.c ****       {
 343              		.loc 1 339 12 view .LVU108
 344 0076 1B68     		ldr	r3, [r3]
 339:Drivers/STM32G4xx_HAL_Driver/Src/stm32g4xx_hal_rcc.c ****       {
 345              		.loc 1 339 10 view .LVU109
 346 0078 13F4003F 		tst	r3, #131072
 347 007c 03D0     		beq	.L22
 339:Drivers/STM32G4xx_HAL_Driver/Src/stm32g4xx_hal_rcc.c ****       {
 348              		.loc 1 339 52 discriminator 1 view .LVU110
 349 007e 6368     		ldr	r3, [r4, #4]
 350 0080 002B     		cmp	r3, #0
 351 0082 00F01482 		beq	.L111
 352              	.LVL30:
 353              	.L22:
 361:Drivers/STM32G4xx_HAL_Driver/Src/stm32g4xx_hal_rcc.c ****           }
 362:Drivers/STM32G4xx_HAL_Driver/Src/stm32g4xx_hal_rcc.c ****         }
 363:Drivers/STM32G4xx_HAL_Driver/Src/stm32g4xx_hal_rcc.c ****       }
 364:Drivers/STM32G4xx_HAL_Driver/Src/stm32g4xx_hal_rcc.c ****       else
 365:Drivers/STM32G4xx_HAL_Driver/Src/stm32g4xx_hal_rcc.c ****       {
 366:Drivers/STM32G4xx_HAL_Driver/Src/stm32g4xx_hal_rcc.c ****         /* Get Start Tick*/
 367:Drivers/STM32G4xx_HAL_Driver/Src/stm32g4xx_hal_rcc.c ****         tickstart = HAL_GetTick();
 368:Drivers/STM32G4xx_HAL_Driver/Src/stm32g4xx_hal_rcc.c **** 
 369:Drivers/STM32G4xx_HAL_Driver/Src/stm32g4xx_hal_rcc.c ****         /* Wait till HSE is disabled */
 370:Drivers/STM32G4xx_HAL_Driver/Src/stm32g4xx_hal_rcc.c ****         while (READ_BIT(RCC->CR, RCC_CR_HSERDY) != 0U)
 371:Drivers/STM32G4xx_HAL_Driver/Src/stm32g4xx_hal_rcc.c ****         {
 372:Drivers/STM32G4xx_HAL_Driver/Src/stm32g4xx_hal_rcc.c ****           if ((HAL_GetTick() - tickstart) > HSE_TIMEOUT_VALUE)
 373:Drivers/STM32G4xx_HAL_Driver/Src/stm32g4xx_hal_rcc.c ****           {
 374:Drivers/STM32G4xx_HAL_Driver/Src/stm32g4xx_hal_rcc.c ****             return HAL_TIMEOUT;
 375:Drivers/STM32G4xx_HAL_Driver/Src/stm32g4xx_hal_rcc.c ****           }
 376:Drivers/STM32G4xx_HAL_Driver/Src/stm32g4xx_hal_rcc.c ****         }
 377:Drivers/STM32G4xx_HAL_Driver/Src/stm32g4xx_hal_rcc.c ****       }
 378:Drivers/STM32G4xx_HAL_Driver/Src/stm32g4xx_hal_rcc.c ****     }
 379:Drivers/STM32G4xx_HAL_Driver/Src/stm32g4xx_hal_rcc.c ****   }
 380:Drivers/STM32G4xx_HAL_Driver/Src/stm32g4xx_hal_rcc.c ****   /*----------------------------- HSI Configuration --------------------------*/
 381:Drivers/STM32G4xx_HAL_Driver/Src/stm32g4xx_hal_rcc.c ****   if (((RCC_OscInitStruct->OscillatorType) & RCC_OSCILLATORTYPE_HSI) == RCC_OSCILLATORTYPE_HSI)
 354              		.loc 1 381 3 is_stmt 1 view .LVU111
 355              		.loc 1 381 44 is_stmt 0 view .LVU112
 356 0086 2368     		ldr	r3, [r4]
 357              		.loc 1 381 6 view .LVU113
 358 0088 13F0020F 		tst	r3, #2
 359 008c 5DD0     		beq	.L34
 382:Drivers/STM32G4xx_HAL_Driver/Src/stm32g4xx_hal_rcc.c ****   {
 383:Drivers/STM32G4xx_HAL_Driver/Src/stm32g4xx_hal_rcc.c ****     /* Check the parameters */
 384:Drivers/STM32G4xx_HAL_Driver/Src/stm32g4xx_hal_rcc.c ****     assert_param(IS_RCC_HSI(RCC_OscInitStruct->HSIState));
 360              		.loc 1 384 5 is_stmt 1 view .LVU114
 385:Drivers/STM32G4xx_HAL_Driver/Src/stm32g4xx_hal_rcc.c ****     assert_param(IS_RCC_HSI_CALIBRATION_VALUE(RCC_OscInitStruct->HSICalibrationValue));
 361              		.loc 1 385 5 view .LVU115
 386:Drivers/STM32G4xx_HAL_Driver/Src/stm32g4xx_hal_rcc.c **** 
ARM GAS  /tmp/ccMcPfSr.s 			page 15


 387:Drivers/STM32G4xx_HAL_Driver/Src/stm32g4xx_hal_rcc.c ****     /* Check if HSI is used as system clock or as PLL source when PLL is selected as system clock *
 388:Drivers/STM32G4xx_HAL_Driver/Src/stm32g4xx_hal_rcc.c ****     temp_sysclksrc = __HAL_RCC_GET_SYSCLK_SOURCE();
 362              		.loc 1 388 5 view .LVU116
 363              		.loc 1 388 22 is_stmt 0 view .LVU117
 364 008e 874A     		ldr	r2, .L123
 365 0090 9368     		ldr	r3, [r2, #8]
 366              		.loc 1 388 20 view .LVU118
 367 0092 03F00C03 		and	r3, r3, #12
 368              	.LVL31:
 389:Drivers/STM32G4xx_HAL_Driver/Src/stm32g4xx_hal_rcc.c ****     temp_pllckcfg = __HAL_RCC_GET_PLL_OSCSOURCE();
 369              		.loc 1 389 5 is_stmt 1 view .LVU119
 370              		.loc 1 389 21 is_stmt 0 view .LVU120
 371 0096 D268     		ldr	r2, [r2, #12]
 372              	.LVL32:
 390:Drivers/STM32G4xx_HAL_Driver/Src/stm32g4xx_hal_rcc.c ****     if (((temp_sysclksrc == RCC_CFGR_SWS_PLL) && (temp_pllckcfg == RCC_PLLSOURCE_HSI)) || (temp_sys
 373              		.loc 1 390 5 is_stmt 1 view .LVU121
 374              		.loc 1 390 8 is_stmt 0 view .LVU122
 375 0098 0C2B     		cmp	r3, #12
 376 009a 3AD0     		beq	.L112
 377              		.loc 1 390 88 discriminator 3 view .LVU123
 378 009c 042B     		cmp	r3, #4
 379 009e 3CD0     		beq	.L36
 380              	.LVL33:
 381              	.L37:
 391:Drivers/STM32G4xx_HAL_Driver/Src/stm32g4xx_hal_rcc.c ****     {
 392:Drivers/STM32G4xx_HAL_Driver/Src/stm32g4xx_hal_rcc.c ****       /* When HSI is used as system clock it will not be disabled */
 393:Drivers/STM32G4xx_HAL_Driver/Src/stm32g4xx_hal_rcc.c ****       if ((READ_BIT(RCC->CR, RCC_CR_HSIRDY) != 0U) && (RCC_OscInitStruct->HSIState == RCC_HSI_OFF))
 394:Drivers/STM32G4xx_HAL_Driver/Src/stm32g4xx_hal_rcc.c ****       {
 395:Drivers/STM32G4xx_HAL_Driver/Src/stm32g4xx_hal_rcc.c ****         return HAL_ERROR;
 396:Drivers/STM32G4xx_HAL_Driver/Src/stm32g4xx_hal_rcc.c ****       }
 397:Drivers/STM32G4xx_HAL_Driver/Src/stm32g4xx_hal_rcc.c ****       /* Otherwise, just the calibration is allowed */
 398:Drivers/STM32G4xx_HAL_Driver/Src/stm32g4xx_hal_rcc.c ****       else
 399:Drivers/STM32G4xx_HAL_Driver/Src/stm32g4xx_hal_rcc.c ****       {
 400:Drivers/STM32G4xx_HAL_Driver/Src/stm32g4xx_hal_rcc.c ****         /* Adjusts the Internal High Speed oscillator (HSI) calibration value.*/
 401:Drivers/STM32G4xx_HAL_Driver/Src/stm32g4xx_hal_rcc.c ****         __HAL_RCC_HSI_CALIBRATIONVALUE_ADJUST(RCC_OscInitStruct->HSICalibrationValue);
 402:Drivers/STM32G4xx_HAL_Driver/Src/stm32g4xx_hal_rcc.c **** 
 403:Drivers/STM32G4xx_HAL_Driver/Src/stm32g4xx_hal_rcc.c ****         /* Adapt Systick interrupt period */
 404:Drivers/STM32G4xx_HAL_Driver/Src/stm32g4xx_hal_rcc.c ****         if (HAL_InitTick(uwTickPrio) != HAL_OK)
 405:Drivers/STM32G4xx_HAL_Driver/Src/stm32g4xx_hal_rcc.c ****         {
 406:Drivers/STM32G4xx_HAL_Driver/Src/stm32g4xx_hal_rcc.c ****           return HAL_ERROR;
 407:Drivers/STM32G4xx_HAL_Driver/Src/stm32g4xx_hal_rcc.c ****         }
 408:Drivers/STM32G4xx_HAL_Driver/Src/stm32g4xx_hal_rcc.c ****       }
 409:Drivers/STM32G4xx_HAL_Driver/Src/stm32g4xx_hal_rcc.c ****     }
 410:Drivers/STM32G4xx_HAL_Driver/Src/stm32g4xx_hal_rcc.c ****     else
 411:Drivers/STM32G4xx_HAL_Driver/Src/stm32g4xx_hal_rcc.c ****     {
 412:Drivers/STM32G4xx_HAL_Driver/Src/stm32g4xx_hal_rcc.c ****       /* Check the HSI State */
 413:Drivers/STM32G4xx_HAL_Driver/Src/stm32g4xx_hal_rcc.c ****       if (RCC_OscInitStruct->HSIState != RCC_HSI_OFF)
 382              		.loc 1 413 7 is_stmt 1 view .LVU124
 383              		.loc 1 413 10 is_stmt 0 view .LVU125
 384 00a0 E368     		ldr	r3, [r4, #12]
 385              	.LVL34:
 386              		.loc 1 413 10 view .LVU126
 387 00a2 002B     		cmp	r3, #0
 388 00a4 77D0     		beq	.L39
 414:Drivers/STM32G4xx_HAL_Driver/Src/stm32g4xx_hal_rcc.c ****       {
 415:Drivers/STM32G4xx_HAL_Driver/Src/stm32g4xx_hal_rcc.c ****         /* Enable the Internal High Speed oscillator (HSI). */
 416:Drivers/STM32G4xx_HAL_Driver/Src/stm32g4xx_hal_rcc.c ****         __HAL_RCC_HSI_ENABLE();
ARM GAS  /tmp/ccMcPfSr.s 			page 16


 389              		.loc 1 416 9 is_stmt 1 view .LVU127
 390 00a6 814A     		ldr	r2, .L123
 391 00a8 1368     		ldr	r3, [r2]
 392 00aa 43F48073 		orr	r3, r3, #256
 393 00ae 1360     		str	r3, [r2]
 417:Drivers/STM32G4xx_HAL_Driver/Src/stm32g4xx_hal_rcc.c **** 
 418:Drivers/STM32G4xx_HAL_Driver/Src/stm32g4xx_hal_rcc.c ****         /* Get Start Tick*/
 419:Drivers/STM32G4xx_HAL_Driver/Src/stm32g4xx_hal_rcc.c ****         tickstart = HAL_GetTick();
 394              		.loc 1 419 9 view .LVU128
 395              		.loc 1 419 21 is_stmt 0 view .LVU129
 396 00b0 FFF7FEFF 		bl	HAL_GetTick
 397              	.LVL35:
 398 00b4 0546     		mov	r5, r0
 399              	.LVL36:
 420:Drivers/STM32G4xx_HAL_Driver/Src/stm32g4xx_hal_rcc.c **** 
 421:Drivers/STM32G4xx_HAL_Driver/Src/stm32g4xx_hal_rcc.c ****         /* Wait till HSI is ready */
 422:Drivers/STM32G4xx_HAL_Driver/Src/stm32g4xx_hal_rcc.c ****         while (READ_BIT(RCC->CR, RCC_CR_HSIRDY) == 0U)
 400              		.loc 1 422 9 is_stmt 1 view .LVU130
 401              		.loc 1 422 16 is_stmt 0 view .LVU131
 402 00b6 7D4E     		ldr	r6, .L123
 403              	.LVL37:
 404              	.L40:
 405              		.loc 1 422 15 is_stmt 1 view .LVU132
 406              		.loc 1 422 16 is_stmt 0 view .LVU133
 407 00b8 3368     		ldr	r3, [r6]
 408              		.loc 1 422 15 view .LVU134
 409 00ba 13F4806F 		tst	r3, #1024
 410 00be 61D1     		bne	.L113
 423:Drivers/STM32G4xx_HAL_Driver/Src/stm32g4xx_hal_rcc.c ****         {
 424:Drivers/STM32G4xx_HAL_Driver/Src/stm32g4xx_hal_rcc.c ****           if ((HAL_GetTick() - tickstart) > HSI_TIMEOUT_VALUE)
 411              		.loc 1 424 11 is_stmt 1 view .LVU135
 412              		.loc 1 424 16 is_stmt 0 view .LVU136
 413 00c0 FFF7FEFF 		bl	HAL_GetTick
 414              	.LVL38:
 415              		.loc 1 424 30 view .LVU137
 416 00c4 401B     		subs	r0, r0, r5
 417              		.loc 1 424 14 view .LVU138
 418 00c6 0228     		cmp	r0, #2
 419 00c8 F6D9     		bls	.L40
 425:Drivers/STM32G4xx_HAL_Driver/Src/stm32g4xx_hal_rcc.c ****           {
 426:Drivers/STM32G4xx_HAL_Driver/Src/stm32g4xx_hal_rcc.c ****             return HAL_TIMEOUT;
 420              		.loc 1 426 20 view .LVU139
 421 00ca 0320     		movs	r0, #3
 422 00cc F6E1     		b	.L21
 423              	.LVL39:
 424              	.L109:
 347:Drivers/STM32G4xx_HAL_Driver/Src/stm32g4xx_hal_rcc.c **** 
 425              		.loc 1 347 7 is_stmt 1 discriminator 1 view .LVU140
 426 00ce 774A     		ldr	r2, .L123
 427 00d0 1368     		ldr	r3, [r2]
 428 00d2 43F48033 		orr	r3, r3, #65536
 429 00d6 1360     		str	r3, [r2]
 430 00d8 B6E7     		b	.L27
 431              	.L110:
 347:Drivers/STM32G4xx_HAL_Driver/Src/stm32g4xx_hal_rcc.c **** 
 432              		.loc 1 347 7 discriminator 4 view .LVU141
 433 00da 03F18043 		add	r3, r3, #1073741824
ARM GAS  /tmp/ccMcPfSr.s 			page 17


 434 00de A3F53C33 		sub	r3, r3, #192512
 435 00e2 1A68     		ldr	r2, [r3]
 436 00e4 42F48022 		orr	r2, r2, #262144
 437 00e8 1A60     		str	r2, [r3]
 347:Drivers/STM32G4xx_HAL_Driver/Src/stm32g4xx_hal_rcc.c **** 
 438              		.loc 1 347 7 discriminator 4 view .LVU142
 439 00ea 1A68     		ldr	r2, [r3]
 440 00ec 42F48032 		orr	r2, r2, #65536
 441 00f0 1A60     		str	r2, [r3]
 442 00f2 A9E7     		b	.L27
 443              	.L29:
 367:Drivers/STM32G4xx_HAL_Driver/Src/stm32g4xx_hal_rcc.c **** 
 444              		.loc 1 367 9 view .LVU143
 367:Drivers/STM32G4xx_HAL_Driver/Src/stm32g4xx_hal_rcc.c **** 
 445              		.loc 1 367 21 is_stmt 0 view .LVU144
 446 00f4 FFF7FEFF 		bl	HAL_GetTick
 447              	.LVL40:
 367:Drivers/STM32G4xx_HAL_Driver/Src/stm32g4xx_hal_rcc.c **** 
 448              		.loc 1 367 21 view .LVU145
 449 00f8 0546     		mov	r5, r0
 450              	.LVL41:
 370:Drivers/STM32G4xx_HAL_Driver/Src/stm32g4xx_hal_rcc.c ****         {
 451              		.loc 1 370 9 is_stmt 1 view .LVU146
 370:Drivers/STM32G4xx_HAL_Driver/Src/stm32g4xx_hal_rcc.c ****         {
 452              		.loc 1 370 16 is_stmt 0 view .LVU147
 453 00fa 6C4E     		ldr	r6, .L123
 454              	.LVL42:
 455              	.L32:
 370:Drivers/STM32G4xx_HAL_Driver/Src/stm32g4xx_hal_rcc.c ****         {
 456              		.loc 1 370 15 is_stmt 1 view .LVU148
 370:Drivers/STM32G4xx_HAL_Driver/Src/stm32g4xx_hal_rcc.c ****         {
 457              		.loc 1 370 16 is_stmt 0 view .LVU149
 458 00fc 3368     		ldr	r3, [r6]
 370:Drivers/STM32G4xx_HAL_Driver/Src/stm32g4xx_hal_rcc.c ****         {
 459              		.loc 1 370 15 view .LVU150
 460 00fe 13F4003F 		tst	r3, #131072
 461 0102 C0D0     		beq	.L22
 372:Drivers/STM32G4xx_HAL_Driver/Src/stm32g4xx_hal_rcc.c ****           {
 462              		.loc 1 372 11 is_stmt 1 view .LVU151
 372:Drivers/STM32G4xx_HAL_Driver/Src/stm32g4xx_hal_rcc.c ****           {
 463              		.loc 1 372 16 is_stmt 0 view .LVU152
 464 0104 FFF7FEFF 		bl	HAL_GetTick
 465              	.LVL43:
 372:Drivers/STM32G4xx_HAL_Driver/Src/stm32g4xx_hal_rcc.c ****           {
 466              		.loc 1 372 30 view .LVU153
 467 0108 401B     		subs	r0, r0, r5
 372:Drivers/STM32G4xx_HAL_Driver/Src/stm32g4xx_hal_rcc.c ****           {
 468              		.loc 1 372 14 view .LVU154
 469 010a 6428     		cmp	r0, #100
 470 010c F6D9     		bls	.L32
 374:Drivers/STM32G4xx_HAL_Driver/Src/stm32g4xx_hal_rcc.c ****           }
 471              		.loc 1 374 20 view .LVU155
 472 010e 0320     		movs	r0, #3
 473 0110 D4E1     		b	.L21
 474              	.LVL44:
 475              	.L112:
 389:Drivers/STM32G4xx_HAL_Driver/Src/stm32g4xx_hal_rcc.c ****     if (((temp_sysclksrc == RCC_CFGR_SWS_PLL) && (temp_pllckcfg == RCC_PLLSOURCE_HSI)) || (temp_sys
ARM GAS  /tmp/ccMcPfSr.s 			page 18


 476              		.loc 1 389 19 discriminator 1 view .LVU156
 477 0112 02F00302 		and	r2, r2, #3
 478              	.LVL45:
 390:Drivers/STM32G4xx_HAL_Driver/Src/stm32g4xx_hal_rcc.c ****     {
 479              		.loc 1 390 47 discriminator 1 view .LVU157
 480 0116 022A     		cmp	r2, #2
 481 0118 C2D1     		bne	.L37
 482              	.L36:
 393:Drivers/STM32G4xx_HAL_Driver/Src/stm32g4xx_hal_rcc.c ****       {
 483              		.loc 1 393 7 is_stmt 1 view .LVU158
 393:Drivers/STM32G4xx_HAL_Driver/Src/stm32g4xx_hal_rcc.c ****       {
 484              		.loc 1 393 12 is_stmt 0 view .LVU159
 485 011a 644B     		ldr	r3, .L123
 486              	.LVL46:
 393:Drivers/STM32G4xx_HAL_Driver/Src/stm32g4xx_hal_rcc.c ****       {
 487              		.loc 1 393 12 view .LVU160
 488 011c 1B68     		ldr	r3, [r3]
 393:Drivers/STM32G4xx_HAL_Driver/Src/stm32g4xx_hal_rcc.c ****       {
 489              		.loc 1 393 10 view .LVU161
 490 011e 13F4806F 		tst	r3, #1024
 491 0122 03D0     		beq	.L38
 393:Drivers/STM32G4xx_HAL_Driver/Src/stm32g4xx_hal_rcc.c ****       {
 492              		.loc 1 393 52 discriminator 1 view .LVU162
 493 0124 E368     		ldr	r3, [r4, #12]
 494 0126 002B     		cmp	r3, #0
 495 0128 00F0C381 		beq	.L82
 496              	.L38:
 401:Drivers/STM32G4xx_HAL_Driver/Src/stm32g4xx_hal_rcc.c **** 
 497              		.loc 1 401 9 is_stmt 1 view .LVU163
 498 012c 5F4A     		ldr	r2, .L123
 499 012e 5368     		ldr	r3, [r2, #4]
 500 0130 2169     		ldr	r1, [r4, #16]
 501 0132 23F0FE43 		bic	r3, r3, #2130706432
 502 0136 43EA0163 		orr	r3, r3, r1, lsl #24
 503 013a 5360     		str	r3, [r2, #4]
 404:Drivers/STM32G4xx_HAL_Driver/Src/stm32g4xx_hal_rcc.c ****         {
 504              		.loc 1 404 9 view .LVU164
 404:Drivers/STM32G4xx_HAL_Driver/Src/stm32g4xx_hal_rcc.c ****         {
 505              		.loc 1 404 13 is_stmt 0 view .LVU165
 506 013c 5C4B     		ldr	r3, .L123+4
 507 013e 1868     		ldr	r0, [r3]
 508 0140 FFF7FEFF 		bl	HAL_InitTick
 509              	.LVL47:
 404:Drivers/STM32G4xx_HAL_Driver/Src/stm32g4xx_hal_rcc.c ****         {
 510              		.loc 1 404 12 view .LVU166
 511 0144 0028     		cmp	r0, #0
 512 0146 40F0B681 		bne	.L114
 513              	.L34:
 427:Drivers/STM32G4xx_HAL_Driver/Src/stm32g4xx_hal_rcc.c ****           }
 428:Drivers/STM32G4xx_HAL_Driver/Src/stm32g4xx_hal_rcc.c ****         }
 429:Drivers/STM32G4xx_HAL_Driver/Src/stm32g4xx_hal_rcc.c **** 
 430:Drivers/STM32G4xx_HAL_Driver/Src/stm32g4xx_hal_rcc.c ****         /* Adjusts the Internal High Speed oscillator (HSI) calibration value.*/
 431:Drivers/STM32G4xx_HAL_Driver/Src/stm32g4xx_hal_rcc.c ****         __HAL_RCC_HSI_CALIBRATIONVALUE_ADJUST(RCC_OscInitStruct->HSICalibrationValue);
 432:Drivers/STM32G4xx_HAL_Driver/Src/stm32g4xx_hal_rcc.c ****       }
 433:Drivers/STM32G4xx_HAL_Driver/Src/stm32g4xx_hal_rcc.c ****       else
 434:Drivers/STM32G4xx_HAL_Driver/Src/stm32g4xx_hal_rcc.c ****       {
 435:Drivers/STM32G4xx_HAL_Driver/Src/stm32g4xx_hal_rcc.c ****         /* Disable the Internal High Speed oscillator (HSI). */
ARM GAS  /tmp/ccMcPfSr.s 			page 19


 436:Drivers/STM32G4xx_HAL_Driver/Src/stm32g4xx_hal_rcc.c ****         __HAL_RCC_HSI_DISABLE();
 437:Drivers/STM32G4xx_HAL_Driver/Src/stm32g4xx_hal_rcc.c **** 
 438:Drivers/STM32G4xx_HAL_Driver/Src/stm32g4xx_hal_rcc.c ****         /* Get Start Tick*/
 439:Drivers/STM32G4xx_HAL_Driver/Src/stm32g4xx_hal_rcc.c ****         tickstart = HAL_GetTick();
 440:Drivers/STM32G4xx_HAL_Driver/Src/stm32g4xx_hal_rcc.c **** 
 441:Drivers/STM32G4xx_HAL_Driver/Src/stm32g4xx_hal_rcc.c ****         /* Wait till HSI is disabled */
 442:Drivers/STM32G4xx_HAL_Driver/Src/stm32g4xx_hal_rcc.c ****         while (READ_BIT(RCC->CR, RCC_CR_HSIRDY) != 0U)
 443:Drivers/STM32G4xx_HAL_Driver/Src/stm32g4xx_hal_rcc.c ****         {
 444:Drivers/STM32G4xx_HAL_Driver/Src/stm32g4xx_hal_rcc.c ****           if ((HAL_GetTick() - tickstart) > HSI_TIMEOUT_VALUE)
 445:Drivers/STM32G4xx_HAL_Driver/Src/stm32g4xx_hal_rcc.c ****           {
 446:Drivers/STM32G4xx_HAL_Driver/Src/stm32g4xx_hal_rcc.c ****             return HAL_TIMEOUT;
 447:Drivers/STM32G4xx_HAL_Driver/Src/stm32g4xx_hal_rcc.c ****           }
 448:Drivers/STM32G4xx_HAL_Driver/Src/stm32g4xx_hal_rcc.c ****         }
 449:Drivers/STM32G4xx_HAL_Driver/Src/stm32g4xx_hal_rcc.c ****       }
 450:Drivers/STM32G4xx_HAL_Driver/Src/stm32g4xx_hal_rcc.c ****     }
 451:Drivers/STM32G4xx_HAL_Driver/Src/stm32g4xx_hal_rcc.c ****   }
 452:Drivers/STM32G4xx_HAL_Driver/Src/stm32g4xx_hal_rcc.c ****   /*------------------------------ LSI Configuration -------------------------*/
 453:Drivers/STM32G4xx_HAL_Driver/Src/stm32g4xx_hal_rcc.c ****   if (((RCC_OscInitStruct->OscillatorType) & RCC_OSCILLATORTYPE_LSI) == RCC_OSCILLATORTYPE_LSI)
 514              		.loc 1 453 3 is_stmt 1 view .LVU167
 515              		.loc 1 453 44 is_stmt 0 view .LVU168
 516 014a 2368     		ldr	r3, [r4]
 517              		.loc 1 453 6 view .LVU169
 518 014c 13F0080F 		tst	r3, #8
 519 0150 4CD0     		beq	.L44
 454:Drivers/STM32G4xx_HAL_Driver/Src/stm32g4xx_hal_rcc.c ****   {
 455:Drivers/STM32G4xx_HAL_Driver/Src/stm32g4xx_hal_rcc.c ****     /* Check the parameters */
 456:Drivers/STM32G4xx_HAL_Driver/Src/stm32g4xx_hal_rcc.c ****     assert_param(IS_RCC_LSI(RCC_OscInitStruct->LSIState));
 520              		.loc 1 456 5 is_stmt 1 view .LVU170
 457:Drivers/STM32G4xx_HAL_Driver/Src/stm32g4xx_hal_rcc.c **** 
 458:Drivers/STM32G4xx_HAL_Driver/Src/stm32g4xx_hal_rcc.c ****     /* Check the LSI State */
 459:Drivers/STM32G4xx_HAL_Driver/Src/stm32g4xx_hal_rcc.c ****     if(RCC_OscInitStruct->LSIState != RCC_LSI_OFF)
 521              		.loc 1 459 5 view .LVU171
 522              		.loc 1 459 7 is_stmt 0 view .LVU172
 523 0152 6369     		ldr	r3, [r4, #20]
 524 0154 9BB3     		cbz	r3, .L45
 460:Drivers/STM32G4xx_HAL_Driver/Src/stm32g4xx_hal_rcc.c ****     {
 461:Drivers/STM32G4xx_HAL_Driver/Src/stm32g4xx_hal_rcc.c ****       /* Enable the Internal Low Speed oscillator (LSI). */
 462:Drivers/STM32G4xx_HAL_Driver/Src/stm32g4xx_hal_rcc.c ****       __HAL_RCC_LSI_ENABLE();
 525              		.loc 1 462 7 is_stmt 1 view .LVU173
 526 0156 554A     		ldr	r2, .L123
 527 0158 D2F89430 		ldr	r3, [r2, #148]
 528 015c 43F00103 		orr	r3, r3, #1
 529 0160 C2F89430 		str	r3, [r2, #148]
 463:Drivers/STM32G4xx_HAL_Driver/Src/stm32g4xx_hal_rcc.c **** 
 464:Drivers/STM32G4xx_HAL_Driver/Src/stm32g4xx_hal_rcc.c ****       /* Get Start Tick*/
 465:Drivers/STM32G4xx_HAL_Driver/Src/stm32g4xx_hal_rcc.c ****       tickstart = HAL_GetTick();
 530              		.loc 1 465 7 view .LVU174
 531              		.loc 1 465 19 is_stmt 0 view .LVU175
 532 0164 FFF7FEFF 		bl	HAL_GetTick
 533              	.LVL48:
 534 0168 0546     		mov	r5, r0
 535              	.LVL49:
 466:Drivers/STM32G4xx_HAL_Driver/Src/stm32g4xx_hal_rcc.c **** 
 467:Drivers/STM32G4xx_HAL_Driver/Src/stm32g4xx_hal_rcc.c ****       /* Wait till LSI is ready */
 468:Drivers/STM32G4xx_HAL_Driver/Src/stm32g4xx_hal_rcc.c ****       while (READ_BIT(RCC->CSR, RCC_CSR_LSIRDY) == 0U)
 536              		.loc 1 468 7 is_stmt 1 view .LVU176
 537              		.loc 1 468 14 is_stmt 0 view .LVU177
ARM GAS  /tmp/ccMcPfSr.s 			page 20


 538 016a 504E     		ldr	r6, .L123
 539              	.LVL50:
 540              	.L46:
 541              		.loc 1 468 13 is_stmt 1 view .LVU178
 542              		.loc 1 468 14 is_stmt 0 view .LVU179
 543 016c D6F89430 		ldr	r3, [r6, #148]
 544              		.loc 1 468 13 view .LVU180
 545 0170 13F0020F 		tst	r3, #2
 546 0174 3AD1     		bne	.L44
 469:Drivers/STM32G4xx_HAL_Driver/Src/stm32g4xx_hal_rcc.c ****       {
 470:Drivers/STM32G4xx_HAL_Driver/Src/stm32g4xx_hal_rcc.c ****         if ((HAL_GetTick() - tickstart) > LSI_TIMEOUT_VALUE)
 547              		.loc 1 470 9 is_stmt 1 view .LVU181
 548              		.loc 1 470 14 is_stmt 0 view .LVU182
 549 0176 FFF7FEFF 		bl	HAL_GetTick
 550              	.LVL51:
 551              		.loc 1 470 28 view .LVU183
 552 017a 401B     		subs	r0, r0, r5
 553              		.loc 1 470 12 view .LVU184
 554 017c 0228     		cmp	r0, #2
 555 017e F5D9     		bls	.L46
 471:Drivers/STM32G4xx_HAL_Driver/Src/stm32g4xx_hal_rcc.c ****         {
 472:Drivers/STM32G4xx_HAL_Driver/Src/stm32g4xx_hal_rcc.c ****           return HAL_TIMEOUT;
 556              		.loc 1 472 18 view .LVU185
 557 0180 0320     		movs	r0, #3
 558 0182 9BE1     		b	.L21
 559              	.L113:
 431:Drivers/STM32G4xx_HAL_Driver/Src/stm32g4xx_hal_rcc.c ****       }
 560              		.loc 1 431 9 is_stmt 1 view .LVU186
 561 0184 494A     		ldr	r2, .L123
 562 0186 5368     		ldr	r3, [r2, #4]
 563 0188 2169     		ldr	r1, [r4, #16]
 564 018a 23F0FE43 		bic	r3, r3, #2130706432
 565 018e 43EA0163 		orr	r3, r3, r1, lsl #24
 566 0192 5360     		str	r3, [r2, #4]
 567 0194 D9E7     		b	.L34
 568              	.LVL52:
 569              	.L39:
 436:Drivers/STM32G4xx_HAL_Driver/Src/stm32g4xx_hal_rcc.c **** 
 570              		.loc 1 436 9 view .LVU187
 571 0196 454A     		ldr	r2, .L123
 572 0198 1368     		ldr	r3, [r2]
 573 019a 23F48073 		bic	r3, r3, #256
 574 019e 1360     		str	r3, [r2]
 439:Drivers/STM32G4xx_HAL_Driver/Src/stm32g4xx_hal_rcc.c **** 
 575              		.loc 1 439 9 view .LVU188
 439:Drivers/STM32G4xx_HAL_Driver/Src/stm32g4xx_hal_rcc.c **** 
 576              		.loc 1 439 21 is_stmt 0 view .LVU189
 577 01a0 FFF7FEFF 		bl	HAL_GetTick
 578              	.LVL53:
 579 01a4 0546     		mov	r5, r0
 580              	.LVL54:
 442:Drivers/STM32G4xx_HAL_Driver/Src/stm32g4xx_hal_rcc.c ****         {
 581              		.loc 1 442 9 is_stmt 1 view .LVU190
 442:Drivers/STM32G4xx_HAL_Driver/Src/stm32g4xx_hal_rcc.c ****         {
 582              		.loc 1 442 16 is_stmt 0 view .LVU191
 583 01a6 414E     		ldr	r6, .L123
 584              	.LVL55:
ARM GAS  /tmp/ccMcPfSr.s 			page 21


 585              	.L42:
 442:Drivers/STM32G4xx_HAL_Driver/Src/stm32g4xx_hal_rcc.c ****         {
 586              		.loc 1 442 15 is_stmt 1 view .LVU192
 442:Drivers/STM32G4xx_HAL_Driver/Src/stm32g4xx_hal_rcc.c ****         {
 587              		.loc 1 442 16 is_stmt 0 view .LVU193
 588 01a8 3368     		ldr	r3, [r6]
 442:Drivers/STM32G4xx_HAL_Driver/Src/stm32g4xx_hal_rcc.c ****         {
 589              		.loc 1 442 15 view .LVU194
 590 01aa 13F4806F 		tst	r3, #1024
 591 01ae CCD0     		beq	.L34
 444:Drivers/STM32G4xx_HAL_Driver/Src/stm32g4xx_hal_rcc.c ****           {
 592              		.loc 1 444 11 is_stmt 1 view .LVU195
 444:Drivers/STM32G4xx_HAL_Driver/Src/stm32g4xx_hal_rcc.c ****           {
 593              		.loc 1 444 16 is_stmt 0 view .LVU196
 594 01b0 FFF7FEFF 		bl	HAL_GetTick
 595              	.LVL56:
 444:Drivers/STM32G4xx_HAL_Driver/Src/stm32g4xx_hal_rcc.c ****           {
 596              		.loc 1 444 30 view .LVU197
 597 01b4 401B     		subs	r0, r0, r5
 444:Drivers/STM32G4xx_HAL_Driver/Src/stm32g4xx_hal_rcc.c ****           {
 598              		.loc 1 444 14 view .LVU198
 599 01b6 0228     		cmp	r0, #2
 600 01b8 F6D9     		bls	.L42
 446:Drivers/STM32G4xx_HAL_Driver/Src/stm32g4xx_hal_rcc.c ****           }
 601              		.loc 1 446 20 view .LVU199
 602 01ba 0320     		movs	r0, #3
 603 01bc 7EE1     		b	.L21
 604              	.LVL57:
 605              	.L45:
 473:Drivers/STM32G4xx_HAL_Driver/Src/stm32g4xx_hal_rcc.c ****         }
 474:Drivers/STM32G4xx_HAL_Driver/Src/stm32g4xx_hal_rcc.c ****       }
 475:Drivers/STM32G4xx_HAL_Driver/Src/stm32g4xx_hal_rcc.c ****     }
 476:Drivers/STM32G4xx_HAL_Driver/Src/stm32g4xx_hal_rcc.c ****     else
 477:Drivers/STM32G4xx_HAL_Driver/Src/stm32g4xx_hal_rcc.c ****     {
 478:Drivers/STM32G4xx_HAL_Driver/Src/stm32g4xx_hal_rcc.c ****       /* Disable the Internal Low Speed oscillator (LSI). */
 479:Drivers/STM32G4xx_HAL_Driver/Src/stm32g4xx_hal_rcc.c ****       __HAL_RCC_LSI_DISABLE();
 606              		.loc 1 479 7 is_stmt 1 view .LVU200
 607 01be 3B4A     		ldr	r2, .L123
 608 01c0 D2F89430 		ldr	r3, [r2, #148]
 609 01c4 23F00103 		bic	r3, r3, #1
 610 01c8 C2F89430 		str	r3, [r2, #148]
 480:Drivers/STM32G4xx_HAL_Driver/Src/stm32g4xx_hal_rcc.c **** 
 481:Drivers/STM32G4xx_HAL_Driver/Src/stm32g4xx_hal_rcc.c ****       /* Get Start Tick*/
 482:Drivers/STM32G4xx_HAL_Driver/Src/stm32g4xx_hal_rcc.c ****       tickstart = HAL_GetTick();
 611              		.loc 1 482 7 view .LVU201
 612              		.loc 1 482 19 is_stmt 0 view .LVU202
 613 01cc FFF7FEFF 		bl	HAL_GetTick
 614              	.LVL58:
 615 01d0 0546     		mov	r5, r0
 616              	.LVL59:
 483:Drivers/STM32G4xx_HAL_Driver/Src/stm32g4xx_hal_rcc.c **** 
 484:Drivers/STM32G4xx_HAL_Driver/Src/stm32g4xx_hal_rcc.c ****       /* Wait till LSI is disabled */
 485:Drivers/STM32G4xx_HAL_Driver/Src/stm32g4xx_hal_rcc.c ****       while(READ_BIT(RCC->CSR, RCC_CSR_LSIRDY) != 0U)
 617              		.loc 1 485 7 is_stmt 1 view .LVU203
 618              		.loc 1 485 13 is_stmt 0 view .LVU204
 619 01d2 364E     		ldr	r6, .L123
 620              	.LVL60:
ARM GAS  /tmp/ccMcPfSr.s 			page 22


 621              	.L48:
 622              		.loc 1 485 12 is_stmt 1 view .LVU205
 623              		.loc 1 485 13 is_stmt 0 view .LVU206
 624 01d4 D6F89430 		ldr	r3, [r6, #148]
 625              		.loc 1 485 12 view .LVU207
 626 01d8 13F0020F 		tst	r3, #2
 627 01dc 06D0     		beq	.L44
 486:Drivers/STM32G4xx_HAL_Driver/Src/stm32g4xx_hal_rcc.c ****       {
 487:Drivers/STM32G4xx_HAL_Driver/Src/stm32g4xx_hal_rcc.c ****         if((HAL_GetTick() - tickstart) > LSI_TIMEOUT_VALUE)
 628              		.loc 1 487 9 is_stmt 1 view .LVU208
 629              		.loc 1 487 13 is_stmt 0 view .LVU209
 630 01de FFF7FEFF 		bl	HAL_GetTick
 631              	.LVL61:
 632              		.loc 1 487 27 view .LVU210
 633 01e2 401B     		subs	r0, r0, r5
 634              		.loc 1 487 11 view .LVU211
 635 01e4 0228     		cmp	r0, #2
 636 01e6 F5D9     		bls	.L48
 488:Drivers/STM32G4xx_HAL_Driver/Src/stm32g4xx_hal_rcc.c ****         {
 489:Drivers/STM32G4xx_HAL_Driver/Src/stm32g4xx_hal_rcc.c ****           return HAL_TIMEOUT;
 637              		.loc 1 489 18 view .LVU212
 638 01e8 0320     		movs	r0, #3
 639 01ea 67E1     		b	.L21
 640              	.LVL62:
 641              	.L44:
 490:Drivers/STM32G4xx_HAL_Driver/Src/stm32g4xx_hal_rcc.c ****         }
 491:Drivers/STM32G4xx_HAL_Driver/Src/stm32g4xx_hal_rcc.c ****       }
 492:Drivers/STM32G4xx_HAL_Driver/Src/stm32g4xx_hal_rcc.c ****     }
 493:Drivers/STM32G4xx_HAL_Driver/Src/stm32g4xx_hal_rcc.c ****   }
 494:Drivers/STM32G4xx_HAL_Driver/Src/stm32g4xx_hal_rcc.c ****   /*------------------------------ LSE Configuration -------------------------*/
 495:Drivers/STM32G4xx_HAL_Driver/Src/stm32g4xx_hal_rcc.c ****   if (((RCC_OscInitStruct->OscillatorType) & RCC_OSCILLATORTYPE_LSE) == RCC_OSCILLATORTYPE_LSE)
 642              		.loc 1 495 3 is_stmt 1 view .LVU213
 643              		.loc 1 495 44 is_stmt 0 view .LVU214
 644 01ec 2368     		ldr	r3, [r4]
 645              		.loc 1 495 6 view .LVU215
 646 01ee 13F0040F 		tst	r3, #4
 647 01f2 00F08280 		beq	.L50
 648              	.LBB2:
 496:Drivers/STM32G4xx_HAL_Driver/Src/stm32g4xx_hal_rcc.c ****   {
 497:Drivers/STM32G4xx_HAL_Driver/Src/stm32g4xx_hal_rcc.c ****     FlagStatus       pwrclkchanged = RESET;
 649              		.loc 1 497 5 is_stmt 1 view .LVU216
 650              	.LVL63:
 498:Drivers/STM32G4xx_HAL_Driver/Src/stm32g4xx_hal_rcc.c **** 
 499:Drivers/STM32G4xx_HAL_Driver/Src/stm32g4xx_hal_rcc.c ****     /* Check the parameters */
 500:Drivers/STM32G4xx_HAL_Driver/Src/stm32g4xx_hal_rcc.c ****     assert_param(IS_RCC_LSE(RCC_OscInitStruct->LSEState));
 651              		.loc 1 500 5 view .LVU217
 501:Drivers/STM32G4xx_HAL_Driver/Src/stm32g4xx_hal_rcc.c **** 
 502:Drivers/STM32G4xx_HAL_Driver/Src/stm32g4xx_hal_rcc.c ****     /* Update LSE configuration in Backup Domain control register    */
 503:Drivers/STM32G4xx_HAL_Driver/Src/stm32g4xx_hal_rcc.c ****     /* Requires to enable write access to Backup Domain if necessary */
 504:Drivers/STM32G4xx_HAL_Driver/Src/stm32g4xx_hal_rcc.c ****     if (__HAL_RCC_PWR_IS_CLK_DISABLED() != 0U)
 652              		.loc 1 504 5 view .LVU218
 653              		.loc 1 504 9 is_stmt 0 view .LVU219
 654 01f6 2D4B     		ldr	r3, .L123
 655 01f8 9B6D     		ldr	r3, [r3, #88]
 656              		.loc 1 504 41 view .LVU220
 657 01fa 13F0805F 		tst	r3, #268435456
 658 01fe 36D1     		bne	.L88
ARM GAS  /tmp/ccMcPfSr.s 			page 23


 505:Drivers/STM32G4xx_HAL_Driver/Src/stm32g4xx_hal_rcc.c ****     {
 506:Drivers/STM32G4xx_HAL_Driver/Src/stm32g4xx_hal_rcc.c ****       __HAL_RCC_PWR_CLK_ENABLE();
 659              		.loc 1 506 7 is_stmt 1 view .LVU221
 660              	.LBB3:
 661              		.loc 1 506 7 view .LVU222
 662              		.loc 1 506 7 view .LVU223
 663 0200 2A4B     		ldr	r3, .L123
 664 0202 9A6D     		ldr	r2, [r3, #88]
 665 0204 42F08052 		orr	r2, r2, #268435456
 666 0208 9A65     		str	r2, [r3, #88]
 667              		.loc 1 506 7 view .LVU224
 668 020a 9B6D     		ldr	r3, [r3, #88]
 669 020c 03F08053 		and	r3, r3, #268435456
 670 0210 0193     		str	r3, [sp, #4]
 671              		.loc 1 506 7 view .LVU225
 672 0212 019B     		ldr	r3, [sp, #4]
 673              	.LBE3:
 674              		.loc 1 506 7 view .LVU226
 507:Drivers/STM32G4xx_HAL_Driver/Src/stm32g4xx_hal_rcc.c ****       pwrclkchanged = SET;
 675              		.loc 1 507 7 view .LVU227
 676              	.LVL64:
 677              		.loc 1 507 21 is_stmt 0 view .LVU228
 678 0214 0125     		movs	r5, #1
 679              	.LVL65:
 680              	.L51:
 508:Drivers/STM32G4xx_HAL_Driver/Src/stm32g4xx_hal_rcc.c ****     }
 509:Drivers/STM32G4xx_HAL_Driver/Src/stm32g4xx_hal_rcc.c **** 
 510:Drivers/STM32G4xx_HAL_Driver/Src/stm32g4xx_hal_rcc.c ****     if (HAL_IS_BIT_CLR(PWR->CR1, PWR_CR1_DBP))
 681              		.loc 1 510 5 is_stmt 1 view .LVU229
 682              		.loc 1 510 9 is_stmt 0 view .LVU230
 683 0216 274B     		ldr	r3, .L123+8
 684 0218 1B68     		ldr	r3, [r3]
 685              		.loc 1 510 8 view .LVU231
 686 021a 13F4807F 		tst	r3, #256
 687 021e 28D0     		beq	.L115
 688              	.L52:
 511:Drivers/STM32G4xx_HAL_Driver/Src/stm32g4xx_hal_rcc.c ****     {
 512:Drivers/STM32G4xx_HAL_Driver/Src/stm32g4xx_hal_rcc.c ****       /* Enable write access to Backup domain */
 513:Drivers/STM32G4xx_HAL_Driver/Src/stm32g4xx_hal_rcc.c ****       SET_BIT(PWR->CR1, PWR_CR1_DBP);
 514:Drivers/STM32G4xx_HAL_Driver/Src/stm32g4xx_hal_rcc.c **** 
 515:Drivers/STM32G4xx_HAL_Driver/Src/stm32g4xx_hal_rcc.c ****       /* Wait for Backup domain Write protection disable */
 516:Drivers/STM32G4xx_HAL_Driver/Src/stm32g4xx_hal_rcc.c ****       tickstart = HAL_GetTick();
 517:Drivers/STM32G4xx_HAL_Driver/Src/stm32g4xx_hal_rcc.c **** 
 518:Drivers/STM32G4xx_HAL_Driver/Src/stm32g4xx_hal_rcc.c ****       while (HAL_IS_BIT_CLR(PWR->CR1, PWR_CR1_DBP))
 519:Drivers/STM32G4xx_HAL_Driver/Src/stm32g4xx_hal_rcc.c ****       {
 520:Drivers/STM32G4xx_HAL_Driver/Src/stm32g4xx_hal_rcc.c ****         if ((HAL_GetTick() - tickstart) > RCC_DBP_TIMEOUT_VALUE)
 521:Drivers/STM32G4xx_HAL_Driver/Src/stm32g4xx_hal_rcc.c ****         {
 522:Drivers/STM32G4xx_HAL_Driver/Src/stm32g4xx_hal_rcc.c ****           return HAL_TIMEOUT;
 523:Drivers/STM32G4xx_HAL_Driver/Src/stm32g4xx_hal_rcc.c ****         }
 524:Drivers/STM32G4xx_HAL_Driver/Src/stm32g4xx_hal_rcc.c ****       }
 525:Drivers/STM32G4xx_HAL_Driver/Src/stm32g4xx_hal_rcc.c ****     }
 526:Drivers/STM32G4xx_HAL_Driver/Src/stm32g4xx_hal_rcc.c **** 
 527:Drivers/STM32G4xx_HAL_Driver/Src/stm32g4xx_hal_rcc.c ****     /* Set the new LSE configuration -----------------------------------------*/
 528:Drivers/STM32G4xx_HAL_Driver/Src/stm32g4xx_hal_rcc.c ****     __HAL_RCC_LSE_CONFIG(RCC_OscInitStruct->LSEState);
 689              		.loc 1 528 5 is_stmt 1 view .LVU232
 690              		.loc 1 528 5 view .LVU233
 691 0220 A368     		ldr	r3, [r4, #8]
ARM GAS  /tmp/ccMcPfSr.s 			page 24


 692 0222 012B     		cmp	r3, #1
 693 0224 39D0     		beq	.L116
 694              		.loc 1 528 5 discriminator 2 view .LVU234
 695 0226 052B     		cmp	r3, #5
 696 0228 46D0     		beq	.L117
 697              		.loc 1 528 5 discriminator 5 view .LVU235
 698 022a 204B     		ldr	r3, .L123
 699 022c D3F89020 		ldr	r2, [r3, #144]
 700 0230 22F00102 		bic	r2, r2, #1
 701 0234 C3F89020 		str	r2, [r3, #144]
 702              		.loc 1 528 5 discriminator 5 view .LVU236
 703 0238 D3F89020 		ldr	r2, [r3, #144]
 704 023c 22F00402 		bic	r2, r2, #4
 705 0240 C3F89020 		str	r2, [r3, #144]
 706              	.L56:
 707              		.loc 1 528 5 discriminator 7 view .LVU237
 529:Drivers/STM32G4xx_HAL_Driver/Src/stm32g4xx_hal_rcc.c **** 
 530:Drivers/STM32G4xx_HAL_Driver/Src/stm32g4xx_hal_rcc.c ****     /* Check the LSE State */
 531:Drivers/STM32G4xx_HAL_Driver/Src/stm32g4xx_hal_rcc.c ****     if (RCC_OscInitStruct->LSEState != RCC_LSE_OFF)
 708              		.loc 1 531 5 discriminator 7 view .LVU238
 709              		.loc 1 531 8 is_stmt 0 discriminator 7 view .LVU239
 710 0244 A368     		ldr	r3, [r4, #8]
 711 0246 002B     		cmp	r3, #0
 712 0248 44D0     		beq	.L58
 532:Drivers/STM32G4xx_HAL_Driver/Src/stm32g4xx_hal_rcc.c ****     {
 533:Drivers/STM32G4xx_HAL_Driver/Src/stm32g4xx_hal_rcc.c ****       /* Get Start Tick*/
 534:Drivers/STM32G4xx_HAL_Driver/Src/stm32g4xx_hal_rcc.c ****       tickstart = HAL_GetTick();
 713              		.loc 1 534 7 is_stmt 1 view .LVU240
 714              		.loc 1 534 19 is_stmt 0 view .LVU241
 715 024a FFF7FEFF 		bl	HAL_GetTick
 716              	.LVL66:
 717 024e 0646     		mov	r6, r0
 718              	.LVL67:
 535:Drivers/STM32G4xx_HAL_Driver/Src/stm32g4xx_hal_rcc.c **** 
 536:Drivers/STM32G4xx_HAL_Driver/Src/stm32g4xx_hal_rcc.c ****       /* Wait till LSE is ready */
 537:Drivers/STM32G4xx_HAL_Driver/Src/stm32g4xx_hal_rcc.c ****       while (READ_BIT(RCC->BDCR, RCC_BDCR_LSERDY) == 0U)
 719              		.loc 1 537 7 is_stmt 1 view .LVU242
 720              		.loc 1 537 14 is_stmt 0 view .LVU243
 721 0250 164F     		ldr	r7, .L123
 538:Drivers/STM32G4xx_HAL_Driver/Src/stm32g4xx_hal_rcc.c ****       {
 539:Drivers/STM32G4xx_HAL_Driver/Src/stm32g4xx_hal_rcc.c ****         if((HAL_GetTick() - tickstart) > RCC_LSE_TIMEOUT_VALUE)
 722              		.loc 1 539 11 view .LVU244
 723 0252 41F28838 		movw	r8, #5000
 724              	.LVL68:
 725              	.L59:
 537:Drivers/STM32G4xx_HAL_Driver/Src/stm32g4xx_hal_rcc.c ****       {
 726              		.loc 1 537 13 is_stmt 1 view .LVU245
 537:Drivers/STM32G4xx_HAL_Driver/Src/stm32g4xx_hal_rcc.c ****       {
 727              		.loc 1 537 14 is_stmt 0 view .LVU246
 728 0256 D7F89030 		ldr	r3, [r7, #144]
 537:Drivers/STM32G4xx_HAL_Driver/Src/stm32g4xx_hal_rcc.c ****       {
 729              		.loc 1 537 13 view .LVU247
 730 025a 13F0020F 		tst	r3, #2
 731 025e 4BD1     		bne	.L61
 732              		.loc 1 539 9 is_stmt 1 view .LVU248
 733              		.loc 1 539 13 is_stmt 0 view .LVU249
 734 0260 FFF7FEFF 		bl	HAL_GetTick
ARM GAS  /tmp/ccMcPfSr.s 			page 25


 735              	.LVL69:
 736              		.loc 1 539 27 view .LVU250
 737 0264 801B     		subs	r0, r0, r6
 738              		.loc 1 539 11 view .LVU251
 739 0266 4045     		cmp	r0, r8
 740 0268 F5D9     		bls	.L59
 540:Drivers/STM32G4xx_HAL_Driver/Src/stm32g4xx_hal_rcc.c ****         {
 541:Drivers/STM32G4xx_HAL_Driver/Src/stm32g4xx_hal_rcc.c ****           return HAL_TIMEOUT;
 741              		.loc 1 541 18 view .LVU252
 742 026a 0320     		movs	r0, #3
 743 026c 26E1     		b	.L21
 744              	.LVL70:
 745              	.L88:
 497:Drivers/STM32G4xx_HAL_Driver/Src/stm32g4xx_hal_rcc.c **** 
 746              		.loc 1 497 22 view .LVU253
 747 026e 0025     		movs	r5, #0
 748 0270 D1E7     		b	.L51
 749              	.LVL71:
 750              	.L115:
 513:Drivers/STM32G4xx_HAL_Driver/Src/stm32g4xx_hal_rcc.c **** 
 751              		.loc 1 513 7 is_stmt 1 view .LVU254
 752 0272 104A     		ldr	r2, .L123+8
 753 0274 1368     		ldr	r3, [r2]
 754 0276 43F48073 		orr	r3, r3, #256
 755 027a 1360     		str	r3, [r2]
 516:Drivers/STM32G4xx_HAL_Driver/Src/stm32g4xx_hal_rcc.c **** 
 756              		.loc 1 516 7 view .LVU255
 516:Drivers/STM32G4xx_HAL_Driver/Src/stm32g4xx_hal_rcc.c **** 
 757              		.loc 1 516 19 is_stmt 0 view .LVU256
 758 027c FFF7FEFF 		bl	HAL_GetTick
 759              	.LVL72:
 760 0280 0646     		mov	r6, r0
 761              	.LVL73:
 518:Drivers/STM32G4xx_HAL_Driver/Src/stm32g4xx_hal_rcc.c ****       {
 762              		.loc 1 518 7 is_stmt 1 view .LVU257
 518:Drivers/STM32G4xx_HAL_Driver/Src/stm32g4xx_hal_rcc.c ****       {
 763              		.loc 1 518 14 is_stmt 0 view .LVU258
 764 0282 0C4F     		ldr	r7, .L123+8
 765              	.LVL74:
 766              	.L53:
 518:Drivers/STM32G4xx_HAL_Driver/Src/stm32g4xx_hal_rcc.c ****       {
 767              		.loc 1 518 13 is_stmt 1 view .LVU259
 518:Drivers/STM32G4xx_HAL_Driver/Src/stm32g4xx_hal_rcc.c ****       {
 768              		.loc 1 518 14 is_stmt 0 view .LVU260
 769 0284 3B68     		ldr	r3, [r7]
 518:Drivers/STM32G4xx_HAL_Driver/Src/stm32g4xx_hal_rcc.c ****       {
 770              		.loc 1 518 13 view .LVU261
 771 0286 13F4807F 		tst	r3, #256
 772 028a C9D1     		bne	.L52
 520:Drivers/STM32G4xx_HAL_Driver/Src/stm32g4xx_hal_rcc.c ****         {
 773              		.loc 1 520 9 is_stmt 1 view .LVU262
 520:Drivers/STM32G4xx_HAL_Driver/Src/stm32g4xx_hal_rcc.c ****         {
 774              		.loc 1 520 14 is_stmt 0 view .LVU263
 775 028c FFF7FEFF 		bl	HAL_GetTick
 776              	.LVL75:
 520:Drivers/STM32G4xx_HAL_Driver/Src/stm32g4xx_hal_rcc.c ****         {
 777              		.loc 1 520 28 view .LVU264
ARM GAS  /tmp/ccMcPfSr.s 			page 26


 778 0290 801B     		subs	r0, r0, r6
 520:Drivers/STM32G4xx_HAL_Driver/Src/stm32g4xx_hal_rcc.c ****         {
 779              		.loc 1 520 12 view .LVU265
 780 0292 0228     		cmp	r0, #2
 781 0294 F6D9     		bls	.L53
 522:Drivers/STM32G4xx_HAL_Driver/Src/stm32g4xx_hal_rcc.c ****         }
 782              		.loc 1 522 18 view .LVU266
 783 0296 0320     		movs	r0, #3
 784 0298 10E1     		b	.L21
 785              	.LVL76:
 786              	.L116:
 528:Drivers/STM32G4xx_HAL_Driver/Src/stm32g4xx_hal_rcc.c **** 
 787              		.loc 1 528 5 is_stmt 1 discriminator 1 view .LVU267
 788 029a 044A     		ldr	r2, .L123
 789 029c D2F89030 		ldr	r3, [r2, #144]
 790 02a0 43F00103 		orr	r3, r3, #1
 791 02a4 C2F89030 		str	r3, [r2, #144]
 792 02a8 CCE7     		b	.L56
 793              	.L124:
 794 02aa 00BF     		.align	2
 795              	.L123:
 796 02ac 00100240 		.word	1073876992
 797 02b0 00000000 		.word	uwTickPrio
 798 02b4 00700040 		.word	1073770496
 799              	.L117:
 528:Drivers/STM32G4xx_HAL_Driver/Src/stm32g4xx_hal_rcc.c **** 
 800              		.loc 1 528 5 discriminator 4 view .LVU268
 801 02b8 884B     		ldr	r3, .L125
 802 02ba D3F89020 		ldr	r2, [r3, #144]
 803 02be 42F00402 		orr	r2, r2, #4
 804 02c2 C3F89020 		str	r2, [r3, #144]
 528:Drivers/STM32G4xx_HAL_Driver/Src/stm32g4xx_hal_rcc.c **** 
 805              		.loc 1 528 5 discriminator 4 view .LVU269
 806 02c6 D3F89020 		ldr	r2, [r3, #144]
 807 02ca 42F00102 		orr	r2, r2, #1
 808 02ce C3F89020 		str	r2, [r3, #144]
 809 02d2 B7E7     		b	.L56
 810              	.L58:
 542:Drivers/STM32G4xx_HAL_Driver/Src/stm32g4xx_hal_rcc.c ****         }
 543:Drivers/STM32G4xx_HAL_Driver/Src/stm32g4xx_hal_rcc.c ****       }
 544:Drivers/STM32G4xx_HAL_Driver/Src/stm32g4xx_hal_rcc.c ****     }
 545:Drivers/STM32G4xx_HAL_Driver/Src/stm32g4xx_hal_rcc.c ****     else
 546:Drivers/STM32G4xx_HAL_Driver/Src/stm32g4xx_hal_rcc.c ****     {
 547:Drivers/STM32G4xx_HAL_Driver/Src/stm32g4xx_hal_rcc.c ****       /* Get Start Tick*/
 548:Drivers/STM32G4xx_HAL_Driver/Src/stm32g4xx_hal_rcc.c ****       tickstart = HAL_GetTick();
 811              		.loc 1 548 7 view .LVU270
 812              		.loc 1 548 19 is_stmt 0 view .LVU271
 813 02d4 FFF7FEFF 		bl	HAL_GetTick
 814              	.LVL77:
 815 02d8 0646     		mov	r6, r0
 816              	.LVL78:
 549:Drivers/STM32G4xx_HAL_Driver/Src/stm32g4xx_hal_rcc.c **** 
 550:Drivers/STM32G4xx_HAL_Driver/Src/stm32g4xx_hal_rcc.c ****       /* Wait till LSE is disabled */
 551:Drivers/STM32G4xx_HAL_Driver/Src/stm32g4xx_hal_rcc.c ****       while (READ_BIT(RCC->BDCR, RCC_BDCR_LSERDY) != 0U)
 817              		.loc 1 551 7 is_stmt 1 view .LVU272
 818              		.loc 1 551 14 is_stmt 0 view .LVU273
 819 02da 804F     		ldr	r7, .L125
ARM GAS  /tmp/ccMcPfSr.s 			page 27


 552:Drivers/STM32G4xx_HAL_Driver/Src/stm32g4xx_hal_rcc.c ****       {
 553:Drivers/STM32G4xx_HAL_Driver/Src/stm32g4xx_hal_rcc.c ****         if((HAL_GetTick() - tickstart) > RCC_LSE_TIMEOUT_VALUE)
 820              		.loc 1 553 11 view .LVU274
 821 02dc 41F28838 		movw	r8, #5000
 822              	.LVL79:
 823              	.L62:
 551:Drivers/STM32G4xx_HAL_Driver/Src/stm32g4xx_hal_rcc.c ****       {
 824              		.loc 1 551 13 is_stmt 1 view .LVU275
 551:Drivers/STM32G4xx_HAL_Driver/Src/stm32g4xx_hal_rcc.c ****       {
 825              		.loc 1 551 14 is_stmt 0 view .LVU276
 826 02e0 D7F89030 		ldr	r3, [r7, #144]
 551:Drivers/STM32G4xx_HAL_Driver/Src/stm32g4xx_hal_rcc.c ****       {
 827              		.loc 1 551 13 view .LVU277
 828 02e4 13F0020F 		tst	r3, #2
 829 02e8 06D0     		beq	.L61
 830              		.loc 1 553 9 is_stmt 1 view .LVU278
 831              		.loc 1 553 13 is_stmt 0 view .LVU279
 832 02ea FFF7FEFF 		bl	HAL_GetTick
 833              	.LVL80:
 834              		.loc 1 553 27 view .LVU280
 835 02ee 801B     		subs	r0, r0, r6
 836              		.loc 1 553 11 view .LVU281
 837 02f0 4045     		cmp	r0, r8
 838 02f2 F5D9     		bls	.L62
 554:Drivers/STM32G4xx_HAL_Driver/Src/stm32g4xx_hal_rcc.c ****         {
 555:Drivers/STM32G4xx_HAL_Driver/Src/stm32g4xx_hal_rcc.c ****           return HAL_TIMEOUT;
 839              		.loc 1 555 18 view .LVU282
 840 02f4 0320     		movs	r0, #3
 841 02f6 E1E0     		b	.L21
 842              	.L61:
 556:Drivers/STM32G4xx_HAL_Driver/Src/stm32g4xx_hal_rcc.c ****         }
 557:Drivers/STM32G4xx_HAL_Driver/Src/stm32g4xx_hal_rcc.c ****       }
 558:Drivers/STM32G4xx_HAL_Driver/Src/stm32g4xx_hal_rcc.c ****     }
 559:Drivers/STM32G4xx_HAL_Driver/Src/stm32g4xx_hal_rcc.c **** 
 560:Drivers/STM32G4xx_HAL_Driver/Src/stm32g4xx_hal_rcc.c ****     /* Restore clock configuration if changed */
 561:Drivers/STM32G4xx_HAL_Driver/Src/stm32g4xx_hal_rcc.c ****     if (pwrclkchanged == SET)
 843              		.loc 1 561 5 is_stmt 1 view .LVU283
 844              		.loc 1 561 8 is_stmt 0 view .LVU284
 845 02f8 E5B9     		cbnz	r5, .L118
 846              	.LVL81:
 847              	.L50:
 848              		.loc 1 561 8 view .LVU285
 849              	.LBE2:
 562:Drivers/STM32G4xx_HAL_Driver/Src/stm32g4xx_hal_rcc.c ****     {
 563:Drivers/STM32G4xx_HAL_Driver/Src/stm32g4xx_hal_rcc.c ****       __HAL_RCC_PWR_CLK_DISABLE();
 564:Drivers/STM32G4xx_HAL_Driver/Src/stm32g4xx_hal_rcc.c ****     }
 565:Drivers/STM32G4xx_HAL_Driver/Src/stm32g4xx_hal_rcc.c ****   }
 566:Drivers/STM32G4xx_HAL_Driver/Src/stm32g4xx_hal_rcc.c **** 
 567:Drivers/STM32G4xx_HAL_Driver/Src/stm32g4xx_hal_rcc.c ****   /*------------------------------ HSI48 Configuration -----------------------*/
 568:Drivers/STM32G4xx_HAL_Driver/Src/stm32g4xx_hal_rcc.c ****   if(((RCC_OscInitStruct->OscillatorType) & RCC_OSCILLATORTYPE_HSI48) == RCC_OSCILLATORTYPE_HSI48)
 850              		.loc 1 568 3 is_stmt 1 view .LVU286
 851              		.loc 1 568 43 is_stmt 0 view .LVU287
 852 02fa 2368     		ldr	r3, [r4]
 853              		.loc 1 568 5 view .LVU288
 854 02fc 13F0200F 		tst	r3, #32
 855 0300 35D0     		beq	.L64
 569:Drivers/STM32G4xx_HAL_Driver/Src/stm32g4xx_hal_rcc.c ****   {
ARM GAS  /tmp/ccMcPfSr.s 			page 28


 570:Drivers/STM32G4xx_HAL_Driver/Src/stm32g4xx_hal_rcc.c ****     /* Check the parameters */
 571:Drivers/STM32G4xx_HAL_Driver/Src/stm32g4xx_hal_rcc.c ****     assert_param(IS_RCC_HSI48(RCC_OscInitStruct->HSI48State));
 856              		.loc 1 571 5 is_stmt 1 view .LVU289
 572:Drivers/STM32G4xx_HAL_Driver/Src/stm32g4xx_hal_rcc.c **** 
 573:Drivers/STM32G4xx_HAL_Driver/Src/stm32g4xx_hal_rcc.c ****     /* Check the HSI48 State */
 574:Drivers/STM32G4xx_HAL_Driver/Src/stm32g4xx_hal_rcc.c ****     if(RCC_OscInitStruct->HSI48State != RCC_HSI48_OFF)
 857              		.loc 1 574 5 view .LVU290
 858              		.loc 1 574 7 is_stmt 0 view .LVU291
 859 0302 A369     		ldr	r3, [r4, #24]
 860 0304 E3B1     		cbz	r3, .L65
 575:Drivers/STM32G4xx_HAL_Driver/Src/stm32g4xx_hal_rcc.c ****     {
 576:Drivers/STM32G4xx_HAL_Driver/Src/stm32g4xx_hal_rcc.c ****       /* Enable the Internal Low Speed oscillator (HSI48). */
 577:Drivers/STM32G4xx_HAL_Driver/Src/stm32g4xx_hal_rcc.c ****       __HAL_RCC_HSI48_ENABLE();
 861              		.loc 1 577 7 is_stmt 1 view .LVU292
 862 0306 754A     		ldr	r2, .L125
 863 0308 D2F89830 		ldr	r3, [r2, #152]
 864 030c 43F00103 		orr	r3, r3, #1
 865 0310 C2F89830 		str	r3, [r2, #152]
 578:Drivers/STM32G4xx_HAL_Driver/Src/stm32g4xx_hal_rcc.c **** 
 579:Drivers/STM32G4xx_HAL_Driver/Src/stm32g4xx_hal_rcc.c ****       /* Get Start Tick*/
 580:Drivers/STM32G4xx_HAL_Driver/Src/stm32g4xx_hal_rcc.c ****       tickstart = HAL_GetTick();
 866              		.loc 1 580 7 view .LVU293
 867              		.loc 1 580 19 is_stmt 0 view .LVU294
 868 0314 FFF7FEFF 		bl	HAL_GetTick
 869              	.LVL82:
 870 0318 0546     		mov	r5, r0
 871              	.LVL83:
 581:Drivers/STM32G4xx_HAL_Driver/Src/stm32g4xx_hal_rcc.c **** 
 582:Drivers/STM32G4xx_HAL_Driver/Src/stm32g4xx_hal_rcc.c ****       /* Wait till HSI48 is ready */
 583:Drivers/STM32G4xx_HAL_Driver/Src/stm32g4xx_hal_rcc.c ****       while(READ_BIT(RCC->CRRCR, RCC_CRRCR_HSI48RDY) == 0U)
 872              		.loc 1 583 7 is_stmt 1 view .LVU295
 873              		.loc 1 583 13 is_stmt 0 view .LVU296
 874 031a 704E     		ldr	r6, .L125
 875              	.LVL84:
 876              	.L66:
 877              		.loc 1 583 12 is_stmt 1 view .LVU297
 878              		.loc 1 583 13 is_stmt 0 view .LVU298
 879 031c D6F89830 		ldr	r3, [r6, #152]
 880              		.loc 1 583 12 view .LVU299
 881 0320 13F0020F 		tst	r3, #2
 882 0324 23D1     		bne	.L64
 584:Drivers/STM32G4xx_HAL_Driver/Src/stm32g4xx_hal_rcc.c ****       {
 585:Drivers/STM32G4xx_HAL_Driver/Src/stm32g4xx_hal_rcc.c ****         if((HAL_GetTick() - tickstart) > HSI48_TIMEOUT_VALUE)
 883              		.loc 1 585 9 is_stmt 1 view .LVU300
 884              		.loc 1 585 13 is_stmt 0 view .LVU301
 885 0326 FFF7FEFF 		bl	HAL_GetTick
 886              	.LVL85:
 887              		.loc 1 585 27 view .LVU302
 888 032a 401B     		subs	r0, r0, r5
 889              		.loc 1 585 11 view .LVU303
 890 032c 0228     		cmp	r0, #2
 891 032e F5D9     		bls	.L66
 586:Drivers/STM32G4xx_HAL_Driver/Src/stm32g4xx_hal_rcc.c ****         {
 587:Drivers/STM32G4xx_HAL_Driver/Src/stm32g4xx_hal_rcc.c ****           return HAL_TIMEOUT;
 892              		.loc 1 587 18 view .LVU304
 893 0330 0320     		movs	r0, #3
 894 0332 C3E0     		b	.L21
ARM GAS  /tmp/ccMcPfSr.s 			page 29


 895              	.LVL86:
 896              	.L118:
 897              	.LBB4:
 563:Drivers/STM32G4xx_HAL_Driver/Src/stm32g4xx_hal_rcc.c ****     }
 898              		.loc 1 563 7 is_stmt 1 view .LVU305
 899 0334 694A     		ldr	r2, .L125
 900 0336 936D     		ldr	r3, [r2, #88]
 901 0338 23F08053 		bic	r3, r3, #268435456
 902 033c 9365     		str	r3, [r2, #88]
 903 033e DCE7     		b	.L50
 904              	.LVL87:
 905              	.L65:
 563:Drivers/STM32G4xx_HAL_Driver/Src/stm32g4xx_hal_rcc.c ****     }
 906              		.loc 1 563 7 is_stmt 0 view .LVU306
 907              	.LBE4:
 588:Drivers/STM32G4xx_HAL_Driver/Src/stm32g4xx_hal_rcc.c ****         }
 589:Drivers/STM32G4xx_HAL_Driver/Src/stm32g4xx_hal_rcc.c ****       }
 590:Drivers/STM32G4xx_HAL_Driver/Src/stm32g4xx_hal_rcc.c ****     }
 591:Drivers/STM32G4xx_HAL_Driver/Src/stm32g4xx_hal_rcc.c ****     else
 592:Drivers/STM32G4xx_HAL_Driver/Src/stm32g4xx_hal_rcc.c ****     {
 593:Drivers/STM32G4xx_HAL_Driver/Src/stm32g4xx_hal_rcc.c ****       /* Disable the Internal Low Speed oscillator (HSI48). */
 594:Drivers/STM32G4xx_HAL_Driver/Src/stm32g4xx_hal_rcc.c ****       __HAL_RCC_HSI48_DISABLE();
 908              		.loc 1 594 7 is_stmt 1 view .LVU307
 909 0340 664A     		ldr	r2, .L125
 910 0342 D2F89830 		ldr	r3, [r2, #152]
 911 0346 23F00103 		bic	r3, r3, #1
 912 034a C2F89830 		str	r3, [r2, #152]
 595:Drivers/STM32G4xx_HAL_Driver/Src/stm32g4xx_hal_rcc.c **** 
 596:Drivers/STM32G4xx_HAL_Driver/Src/stm32g4xx_hal_rcc.c ****       /* Get Start Tick*/
 597:Drivers/STM32G4xx_HAL_Driver/Src/stm32g4xx_hal_rcc.c ****       tickstart = HAL_GetTick();
 913              		.loc 1 597 7 view .LVU308
 914              		.loc 1 597 19 is_stmt 0 view .LVU309
 915 034e FFF7FEFF 		bl	HAL_GetTick
 916              	.LVL88:
 917 0352 0546     		mov	r5, r0
 918              	.LVL89:
 598:Drivers/STM32G4xx_HAL_Driver/Src/stm32g4xx_hal_rcc.c **** 
 599:Drivers/STM32G4xx_HAL_Driver/Src/stm32g4xx_hal_rcc.c ****       /* Wait till HSI48 is disabled */
 600:Drivers/STM32G4xx_HAL_Driver/Src/stm32g4xx_hal_rcc.c ****       while(READ_BIT(RCC->CRRCR, RCC_CRRCR_HSI48RDY) != 0U)
 919              		.loc 1 600 7 is_stmt 1 view .LVU310
 920              		.loc 1 600 13 is_stmt 0 view .LVU311
 921 0354 614E     		ldr	r6, .L125
 922              	.LVL90:
 923              	.L68:
 924              		.loc 1 600 12 is_stmt 1 view .LVU312
 925              		.loc 1 600 13 is_stmt 0 view .LVU313
 926 0356 D6F89830 		ldr	r3, [r6, #152]
 927              		.loc 1 600 12 view .LVU314
 928 035a 13F0020F 		tst	r3, #2
 929 035e 06D0     		beq	.L64
 601:Drivers/STM32G4xx_HAL_Driver/Src/stm32g4xx_hal_rcc.c ****       {
 602:Drivers/STM32G4xx_HAL_Driver/Src/stm32g4xx_hal_rcc.c ****         if((HAL_GetTick() - tickstart) > HSI48_TIMEOUT_VALUE)
 930              		.loc 1 602 9 is_stmt 1 view .LVU315
 931              		.loc 1 602 13 is_stmt 0 view .LVU316
 932 0360 FFF7FEFF 		bl	HAL_GetTick
 933              	.LVL91:
 934              		.loc 1 602 27 view .LVU317
ARM GAS  /tmp/ccMcPfSr.s 			page 30


 935 0364 401B     		subs	r0, r0, r5
 936              		.loc 1 602 11 view .LVU318
 937 0366 0228     		cmp	r0, #2
 938 0368 F5D9     		bls	.L68
 603:Drivers/STM32G4xx_HAL_Driver/Src/stm32g4xx_hal_rcc.c ****         {
 604:Drivers/STM32G4xx_HAL_Driver/Src/stm32g4xx_hal_rcc.c ****           return HAL_TIMEOUT;
 939              		.loc 1 604 18 view .LVU319
 940 036a 0320     		movs	r0, #3
 941 036c A6E0     		b	.L21
 942              	.LVL92:
 943              	.L64:
 605:Drivers/STM32G4xx_HAL_Driver/Src/stm32g4xx_hal_rcc.c ****         }
 606:Drivers/STM32G4xx_HAL_Driver/Src/stm32g4xx_hal_rcc.c ****       }
 607:Drivers/STM32G4xx_HAL_Driver/Src/stm32g4xx_hal_rcc.c ****     }
 608:Drivers/STM32G4xx_HAL_Driver/Src/stm32g4xx_hal_rcc.c ****   }
 609:Drivers/STM32G4xx_HAL_Driver/Src/stm32g4xx_hal_rcc.c **** 
 610:Drivers/STM32G4xx_HAL_Driver/Src/stm32g4xx_hal_rcc.c ****   /*-------------------------------- PLL Configuration -----------------------*/
 611:Drivers/STM32G4xx_HAL_Driver/Src/stm32g4xx_hal_rcc.c ****   /* Check the parameters */
 612:Drivers/STM32G4xx_HAL_Driver/Src/stm32g4xx_hal_rcc.c ****   assert_param(IS_RCC_PLL(RCC_OscInitStruct->PLL.PLLState));
 944              		.loc 1 612 3 is_stmt 1 view .LVU320
 613:Drivers/STM32G4xx_HAL_Driver/Src/stm32g4xx_hal_rcc.c **** 
 614:Drivers/STM32G4xx_HAL_Driver/Src/stm32g4xx_hal_rcc.c ****   if (RCC_OscInitStruct->PLL.PLLState != RCC_PLL_NONE)
 945              		.loc 1 614 3 view .LVU321
 946              		.loc 1 614 29 is_stmt 0 view .LVU322
 947 036e E369     		ldr	r3, [r4, #28]
 948              		.loc 1 614 6 view .LVU323
 949 0370 002B     		cmp	r3, #0
 950 0372 00F0A280 		beq	.L94
 615:Drivers/STM32G4xx_HAL_Driver/Src/stm32g4xx_hal_rcc.c ****   {
 616:Drivers/STM32G4xx_HAL_Driver/Src/stm32g4xx_hal_rcc.c ****     /* Check if the PLL is used as system clock or not */
 617:Drivers/STM32G4xx_HAL_Driver/Src/stm32g4xx_hal_rcc.c ****     if (__HAL_RCC_GET_SYSCLK_SOURCE() != RCC_CFGR_SWS_PLL)
 951              		.loc 1 617 5 is_stmt 1 view .LVU324
 952              		.loc 1 617 9 is_stmt 0 view .LVU325
 953 0376 594A     		ldr	r2, .L125
 954 0378 9268     		ldr	r2, [r2, #8]
 955 037a 02F00C02 		and	r2, r2, #12
 956              		.loc 1 617 8 view .LVU326
 957 037e 0C2A     		cmp	r2, #12
 958 0380 64D0     		beq	.L70
 618:Drivers/STM32G4xx_HAL_Driver/Src/stm32g4xx_hal_rcc.c ****     {
 619:Drivers/STM32G4xx_HAL_Driver/Src/stm32g4xx_hal_rcc.c ****       if (RCC_OscInitStruct->PLL.PLLState == RCC_PLL_ON)
 959              		.loc 1 619 7 is_stmt 1 view .LVU327
 960              		.loc 1 619 10 is_stmt 0 view .LVU328
 961 0382 022B     		cmp	r3, #2
 962 0384 13D0     		beq	.L119
 620:Drivers/STM32G4xx_HAL_Driver/Src/stm32g4xx_hal_rcc.c ****       {
 621:Drivers/STM32G4xx_HAL_Driver/Src/stm32g4xx_hal_rcc.c ****         /* Check the parameters */
 622:Drivers/STM32G4xx_HAL_Driver/Src/stm32g4xx_hal_rcc.c ****         assert_param(IS_RCC_PLLSOURCE(RCC_OscInitStruct->PLL.PLLSource));
 623:Drivers/STM32G4xx_HAL_Driver/Src/stm32g4xx_hal_rcc.c ****         assert_param(IS_RCC_PLLM_VALUE(RCC_OscInitStruct->PLL.PLLM));
 624:Drivers/STM32G4xx_HAL_Driver/Src/stm32g4xx_hal_rcc.c ****         assert_param(IS_RCC_PLLN_VALUE(RCC_OscInitStruct->PLL.PLLN));
 625:Drivers/STM32G4xx_HAL_Driver/Src/stm32g4xx_hal_rcc.c ****         assert_param(IS_RCC_PLLP_VALUE(RCC_OscInitStruct->PLL.PLLP));
 626:Drivers/STM32G4xx_HAL_Driver/Src/stm32g4xx_hal_rcc.c ****         assert_param(IS_RCC_PLLQ_VALUE(RCC_OscInitStruct->PLL.PLLQ));
 627:Drivers/STM32G4xx_HAL_Driver/Src/stm32g4xx_hal_rcc.c ****         assert_param(IS_RCC_PLLR_VALUE(RCC_OscInitStruct->PLL.PLLR));
 628:Drivers/STM32G4xx_HAL_Driver/Src/stm32g4xx_hal_rcc.c **** 
 629:Drivers/STM32G4xx_HAL_Driver/Src/stm32g4xx_hal_rcc.c ****         /* Disable the main PLL. */
 630:Drivers/STM32G4xx_HAL_Driver/Src/stm32g4xx_hal_rcc.c ****         __HAL_RCC_PLL_DISABLE();
 631:Drivers/STM32G4xx_HAL_Driver/Src/stm32g4xx_hal_rcc.c **** 
ARM GAS  /tmp/ccMcPfSr.s 			page 31


 632:Drivers/STM32G4xx_HAL_Driver/Src/stm32g4xx_hal_rcc.c ****         /* Get Start Tick*/
 633:Drivers/STM32G4xx_HAL_Driver/Src/stm32g4xx_hal_rcc.c ****         tickstart = HAL_GetTick();
 634:Drivers/STM32G4xx_HAL_Driver/Src/stm32g4xx_hal_rcc.c **** 
 635:Drivers/STM32G4xx_HAL_Driver/Src/stm32g4xx_hal_rcc.c ****         /* Wait till PLL is disabled */
 636:Drivers/STM32G4xx_HAL_Driver/Src/stm32g4xx_hal_rcc.c ****         while (READ_BIT(RCC->CR, RCC_CR_PLLRDY) != 0U)
 637:Drivers/STM32G4xx_HAL_Driver/Src/stm32g4xx_hal_rcc.c ****         {
 638:Drivers/STM32G4xx_HAL_Driver/Src/stm32g4xx_hal_rcc.c ****           if ((HAL_GetTick() - tickstart) > PLL_TIMEOUT_VALUE)
 639:Drivers/STM32G4xx_HAL_Driver/Src/stm32g4xx_hal_rcc.c ****           {
 640:Drivers/STM32G4xx_HAL_Driver/Src/stm32g4xx_hal_rcc.c ****             return HAL_TIMEOUT;
 641:Drivers/STM32G4xx_HAL_Driver/Src/stm32g4xx_hal_rcc.c ****           }
 642:Drivers/STM32G4xx_HAL_Driver/Src/stm32g4xx_hal_rcc.c ****         }
 643:Drivers/STM32G4xx_HAL_Driver/Src/stm32g4xx_hal_rcc.c **** 
 644:Drivers/STM32G4xx_HAL_Driver/Src/stm32g4xx_hal_rcc.c ****         /* Configure the main PLL clock source, multiplication and division factors. */
 645:Drivers/STM32G4xx_HAL_Driver/Src/stm32g4xx_hal_rcc.c ****         __HAL_RCC_PLL_CONFIG(RCC_OscInitStruct->PLL.PLLSource,
 646:Drivers/STM32G4xx_HAL_Driver/Src/stm32g4xx_hal_rcc.c ****                              RCC_OscInitStruct->PLL.PLLM,
 647:Drivers/STM32G4xx_HAL_Driver/Src/stm32g4xx_hal_rcc.c ****                              RCC_OscInitStruct->PLL.PLLN,
 648:Drivers/STM32G4xx_HAL_Driver/Src/stm32g4xx_hal_rcc.c ****                              RCC_OscInitStruct->PLL.PLLP,
 649:Drivers/STM32G4xx_HAL_Driver/Src/stm32g4xx_hal_rcc.c ****                              RCC_OscInitStruct->PLL.PLLQ,
 650:Drivers/STM32G4xx_HAL_Driver/Src/stm32g4xx_hal_rcc.c ****                              RCC_OscInitStruct->PLL.PLLR);
 651:Drivers/STM32G4xx_HAL_Driver/Src/stm32g4xx_hal_rcc.c **** 
 652:Drivers/STM32G4xx_HAL_Driver/Src/stm32g4xx_hal_rcc.c ****         /* Enable the main PLL. */
 653:Drivers/STM32G4xx_HAL_Driver/Src/stm32g4xx_hal_rcc.c ****         __HAL_RCC_PLL_ENABLE();
 654:Drivers/STM32G4xx_HAL_Driver/Src/stm32g4xx_hal_rcc.c **** 
 655:Drivers/STM32G4xx_HAL_Driver/Src/stm32g4xx_hal_rcc.c ****         /* Enable PLL System Clock output. */
 656:Drivers/STM32G4xx_HAL_Driver/Src/stm32g4xx_hal_rcc.c ****          __HAL_RCC_PLLCLKOUT_ENABLE(RCC_PLL_SYSCLK);
 657:Drivers/STM32G4xx_HAL_Driver/Src/stm32g4xx_hal_rcc.c **** 
 658:Drivers/STM32G4xx_HAL_Driver/Src/stm32g4xx_hal_rcc.c ****         /* Get Start Tick*/
 659:Drivers/STM32G4xx_HAL_Driver/Src/stm32g4xx_hal_rcc.c ****         tickstart = HAL_GetTick();
 660:Drivers/STM32G4xx_HAL_Driver/Src/stm32g4xx_hal_rcc.c **** 
 661:Drivers/STM32G4xx_HAL_Driver/Src/stm32g4xx_hal_rcc.c ****         /* Wait till PLL is ready */
 662:Drivers/STM32G4xx_HAL_Driver/Src/stm32g4xx_hal_rcc.c ****         while (READ_BIT(RCC->CR, RCC_CR_PLLRDY) == 0U)
 663:Drivers/STM32G4xx_HAL_Driver/Src/stm32g4xx_hal_rcc.c ****         {
 664:Drivers/STM32G4xx_HAL_Driver/Src/stm32g4xx_hal_rcc.c ****           if ((HAL_GetTick() - tickstart) > PLL_TIMEOUT_VALUE)
 665:Drivers/STM32G4xx_HAL_Driver/Src/stm32g4xx_hal_rcc.c ****           {
 666:Drivers/STM32G4xx_HAL_Driver/Src/stm32g4xx_hal_rcc.c ****             return HAL_TIMEOUT;
 667:Drivers/STM32G4xx_HAL_Driver/Src/stm32g4xx_hal_rcc.c ****           }
 668:Drivers/STM32G4xx_HAL_Driver/Src/stm32g4xx_hal_rcc.c ****         }
 669:Drivers/STM32G4xx_HAL_Driver/Src/stm32g4xx_hal_rcc.c ****       }
 670:Drivers/STM32G4xx_HAL_Driver/Src/stm32g4xx_hal_rcc.c ****       else
 671:Drivers/STM32G4xx_HAL_Driver/Src/stm32g4xx_hal_rcc.c ****       {
 672:Drivers/STM32G4xx_HAL_Driver/Src/stm32g4xx_hal_rcc.c ****         /* Disable the main PLL. */
 673:Drivers/STM32G4xx_HAL_Driver/Src/stm32g4xx_hal_rcc.c ****         __HAL_RCC_PLL_DISABLE();
 963              		.loc 1 673 9 is_stmt 1 view .LVU329
 964 0386 554A     		ldr	r2, .L125
 965 0388 1368     		ldr	r3, [r2]
 966 038a 23F08073 		bic	r3, r3, #16777216
 967 038e 1360     		str	r3, [r2]
 674:Drivers/STM32G4xx_HAL_Driver/Src/stm32g4xx_hal_rcc.c **** 
 675:Drivers/STM32G4xx_HAL_Driver/Src/stm32g4xx_hal_rcc.c ****         /* Get Start Tick*/
 676:Drivers/STM32G4xx_HAL_Driver/Src/stm32g4xx_hal_rcc.c ****         tickstart = HAL_GetTick();
 968              		.loc 1 676 9 view .LVU330
 969              		.loc 1 676 21 is_stmt 0 view .LVU331
 970 0390 FFF7FEFF 		bl	HAL_GetTick
 971              	.LVL93:
 972 0394 0446     		mov	r4, r0
 973              	.LVL94:
 677:Drivers/STM32G4xx_HAL_Driver/Src/stm32g4xx_hal_rcc.c **** 
ARM GAS  /tmp/ccMcPfSr.s 			page 32


 678:Drivers/STM32G4xx_HAL_Driver/Src/stm32g4xx_hal_rcc.c ****         /* Wait till PLL is disabled */
 679:Drivers/STM32G4xx_HAL_Driver/Src/stm32g4xx_hal_rcc.c ****         while (READ_BIT(RCC->CR, RCC_CR_PLLRDY) != 0U)
 974              		.loc 1 679 9 is_stmt 1 view .LVU332
 975              		.loc 1 679 16 is_stmt 0 view .LVU333
 976 0396 514D     		ldr	r5, .L125
 977              	.LVL95:
 978              	.L76:
 979              		.loc 1 679 15 is_stmt 1 view .LVU334
 980              		.loc 1 679 16 is_stmt 0 view .LVU335
 981 0398 2B68     		ldr	r3, [r5]
 982              		.loc 1 679 15 view .LVU336
 983 039a 13F0007F 		tst	r3, #33554432
 984 039e 4ED0     		beq	.L120
 680:Drivers/STM32G4xx_HAL_Driver/Src/stm32g4xx_hal_rcc.c ****         {
 681:Drivers/STM32G4xx_HAL_Driver/Src/stm32g4xx_hal_rcc.c ****           if ((HAL_GetTick() - tickstart) > PLL_TIMEOUT_VALUE)
 985              		.loc 1 681 11 is_stmt 1 view .LVU337
 986              		.loc 1 681 16 is_stmt 0 view .LVU338
 987 03a0 FFF7FEFF 		bl	HAL_GetTick
 988              	.LVL96:
 989              		.loc 1 681 30 view .LVU339
 990 03a4 001B     		subs	r0, r0, r4
 991              		.loc 1 681 14 view .LVU340
 992 03a6 0228     		cmp	r0, #2
 993 03a8 F6D9     		bls	.L76
 682:Drivers/STM32G4xx_HAL_Driver/Src/stm32g4xx_hal_rcc.c ****           {
 683:Drivers/STM32G4xx_HAL_Driver/Src/stm32g4xx_hal_rcc.c ****             return HAL_TIMEOUT;
 994              		.loc 1 683 20 view .LVU341
 995 03aa 0320     		movs	r0, #3
 996 03ac 86E0     		b	.L21
 997              	.LVL97:
 998              	.L119:
 622:Drivers/STM32G4xx_HAL_Driver/Src/stm32g4xx_hal_rcc.c ****         assert_param(IS_RCC_PLLM_VALUE(RCC_OscInitStruct->PLL.PLLM));
 999              		.loc 1 622 9 is_stmt 1 view .LVU342
 623:Drivers/STM32G4xx_HAL_Driver/Src/stm32g4xx_hal_rcc.c ****         assert_param(IS_RCC_PLLN_VALUE(RCC_OscInitStruct->PLL.PLLN));
 1000              		.loc 1 623 9 view .LVU343
 624:Drivers/STM32G4xx_HAL_Driver/Src/stm32g4xx_hal_rcc.c ****         assert_param(IS_RCC_PLLP_VALUE(RCC_OscInitStruct->PLL.PLLP));
 1001              		.loc 1 624 9 view .LVU344
 625:Drivers/STM32G4xx_HAL_Driver/Src/stm32g4xx_hal_rcc.c ****         assert_param(IS_RCC_PLLQ_VALUE(RCC_OscInitStruct->PLL.PLLQ));
 1002              		.loc 1 625 9 view .LVU345
 626:Drivers/STM32G4xx_HAL_Driver/Src/stm32g4xx_hal_rcc.c ****         assert_param(IS_RCC_PLLR_VALUE(RCC_OscInitStruct->PLL.PLLR));
 1003              		.loc 1 626 9 view .LVU346
 627:Drivers/STM32G4xx_HAL_Driver/Src/stm32g4xx_hal_rcc.c **** 
 1004              		.loc 1 627 9 view .LVU347
 630:Drivers/STM32G4xx_HAL_Driver/Src/stm32g4xx_hal_rcc.c **** 
 1005              		.loc 1 630 9 view .LVU348
 1006 03ae 4B4A     		ldr	r2, .L125
 1007 03b0 1368     		ldr	r3, [r2]
 1008 03b2 23F08073 		bic	r3, r3, #16777216
 1009 03b6 1360     		str	r3, [r2]
 633:Drivers/STM32G4xx_HAL_Driver/Src/stm32g4xx_hal_rcc.c **** 
 1010              		.loc 1 633 9 view .LVU349
 633:Drivers/STM32G4xx_HAL_Driver/Src/stm32g4xx_hal_rcc.c **** 
 1011              		.loc 1 633 21 is_stmt 0 view .LVU350
 1012 03b8 FFF7FEFF 		bl	HAL_GetTick
 1013              	.LVL98:
 1014 03bc 0546     		mov	r5, r0
 1015              	.LVL99:
ARM GAS  /tmp/ccMcPfSr.s 			page 33


 636:Drivers/STM32G4xx_HAL_Driver/Src/stm32g4xx_hal_rcc.c ****         {
 1016              		.loc 1 636 9 is_stmt 1 view .LVU351
 636:Drivers/STM32G4xx_HAL_Driver/Src/stm32g4xx_hal_rcc.c ****         {
 1017              		.loc 1 636 16 is_stmt 0 view .LVU352
 1018 03be 474E     		ldr	r6, .L125
 1019              	.LVL100:
 1020              	.L72:
 636:Drivers/STM32G4xx_HAL_Driver/Src/stm32g4xx_hal_rcc.c ****         {
 1021              		.loc 1 636 15 is_stmt 1 view .LVU353
 636:Drivers/STM32G4xx_HAL_Driver/Src/stm32g4xx_hal_rcc.c ****         {
 1022              		.loc 1 636 16 is_stmt 0 view .LVU354
 1023 03c0 3368     		ldr	r3, [r6]
 636:Drivers/STM32G4xx_HAL_Driver/Src/stm32g4xx_hal_rcc.c ****         {
 1024              		.loc 1 636 15 view .LVU355
 1025 03c2 13F0007F 		tst	r3, #33554432
 1026 03c6 06D0     		beq	.L121
 638:Drivers/STM32G4xx_HAL_Driver/Src/stm32g4xx_hal_rcc.c ****           {
 1027              		.loc 1 638 11 is_stmt 1 view .LVU356
 638:Drivers/STM32G4xx_HAL_Driver/Src/stm32g4xx_hal_rcc.c ****           {
 1028              		.loc 1 638 16 is_stmt 0 view .LVU357
 1029 03c8 FFF7FEFF 		bl	HAL_GetTick
 1030              	.LVL101:
 638:Drivers/STM32G4xx_HAL_Driver/Src/stm32g4xx_hal_rcc.c ****           {
 1031              		.loc 1 638 30 view .LVU358
 1032 03cc 401B     		subs	r0, r0, r5
 638:Drivers/STM32G4xx_HAL_Driver/Src/stm32g4xx_hal_rcc.c ****           {
 1033              		.loc 1 638 14 view .LVU359
 1034 03ce 0228     		cmp	r0, #2
 1035 03d0 F6D9     		bls	.L72
 640:Drivers/STM32G4xx_HAL_Driver/Src/stm32g4xx_hal_rcc.c ****           }
 1036              		.loc 1 640 20 view .LVU360
 1037 03d2 0320     		movs	r0, #3
 1038 03d4 72E0     		b	.L21
 1039              	.L121:
 645:Drivers/STM32G4xx_HAL_Driver/Src/stm32g4xx_hal_rcc.c ****                              RCC_OscInitStruct->PLL.PLLM,
 1040              		.loc 1 645 9 is_stmt 1 view .LVU361
 1041 03d6 414A     		ldr	r2, .L125
 1042 03d8 D168     		ldr	r1, [r2, #12]
 1043 03da 414B     		ldr	r3, .L125+4
 1044 03dc 0B40     		ands	r3, r3, r1
 1045 03de 216A     		ldr	r1, [r4, #32]
 1046 03e0 0B43     		orrs	r3, r3, r1
 1047 03e2 A16A     		ldr	r1, [r4, #40]
 1048 03e4 43EA0123 		orr	r3, r3, r1, lsl #8
 1049 03e8 E16A     		ldr	r1, [r4, #44]
 1050 03ea 43EAC163 		orr	r3, r3, r1, lsl #27
 1051 03ee 616A     		ldr	r1, [r4, #36]
 1052 03f0 0139     		subs	r1, r1, #1
 1053 03f2 43EA0113 		orr	r3, r3, r1, lsl #4
 1054 03f6 216B     		ldr	r1, [r4, #48]
 1055 03f8 4908     		lsrs	r1, r1, #1
 1056 03fa 0139     		subs	r1, r1, #1
 1057 03fc 43EA4153 		orr	r3, r3, r1, lsl #21
 1058 0400 616B     		ldr	r1, [r4, #52]
 1059 0402 4908     		lsrs	r1, r1, #1
 1060 0404 0139     		subs	r1, r1, #1
 1061 0406 43EA4163 		orr	r3, r3, r1, lsl #25
ARM GAS  /tmp/ccMcPfSr.s 			page 34


 1062 040a D360     		str	r3, [r2, #12]
 653:Drivers/STM32G4xx_HAL_Driver/Src/stm32g4xx_hal_rcc.c **** 
 1063              		.loc 1 653 9 view .LVU362
 1064 040c 1368     		ldr	r3, [r2]
 1065 040e 43F08073 		orr	r3, r3, #16777216
 1066 0412 1360     		str	r3, [r2]
 656:Drivers/STM32G4xx_HAL_Driver/Src/stm32g4xx_hal_rcc.c **** 
 1067              		.loc 1 656 10 view .LVU363
 1068 0414 D368     		ldr	r3, [r2, #12]
 1069 0416 43F08073 		orr	r3, r3, #16777216
 1070 041a D360     		str	r3, [r2, #12]
 659:Drivers/STM32G4xx_HAL_Driver/Src/stm32g4xx_hal_rcc.c **** 
 1071              		.loc 1 659 9 view .LVU364
 659:Drivers/STM32G4xx_HAL_Driver/Src/stm32g4xx_hal_rcc.c **** 
 1072              		.loc 1 659 21 is_stmt 0 view .LVU365
 1073 041c FFF7FEFF 		bl	HAL_GetTick
 1074              	.LVL102:
 1075 0420 0446     		mov	r4, r0
 1076              	.LVL103:
 662:Drivers/STM32G4xx_HAL_Driver/Src/stm32g4xx_hal_rcc.c ****         {
 1077              		.loc 1 662 9 is_stmt 1 view .LVU366
 662:Drivers/STM32G4xx_HAL_Driver/Src/stm32g4xx_hal_rcc.c ****         {
 1078              		.loc 1 662 16 is_stmt 0 view .LVU367
 1079 0422 2E4D     		ldr	r5, .L125
 1080              	.LVL104:
 1081              	.L74:
 662:Drivers/STM32G4xx_HAL_Driver/Src/stm32g4xx_hal_rcc.c ****         {
 1082              		.loc 1 662 15 is_stmt 1 view .LVU368
 662:Drivers/STM32G4xx_HAL_Driver/Src/stm32g4xx_hal_rcc.c ****         {
 1083              		.loc 1 662 16 is_stmt 0 view .LVU369
 1084 0424 2B68     		ldr	r3, [r5]
 662:Drivers/STM32G4xx_HAL_Driver/Src/stm32g4xx_hal_rcc.c ****         {
 1085              		.loc 1 662 15 view .LVU370
 1086 0426 13F0007F 		tst	r3, #33554432
 1087 042a 06D1     		bne	.L122
 664:Drivers/STM32G4xx_HAL_Driver/Src/stm32g4xx_hal_rcc.c ****           {
 1088              		.loc 1 664 11 is_stmt 1 view .LVU371
 664:Drivers/STM32G4xx_HAL_Driver/Src/stm32g4xx_hal_rcc.c ****           {
 1089              		.loc 1 664 16 is_stmt 0 view .LVU372
 1090 042c FFF7FEFF 		bl	HAL_GetTick
 1091              	.LVL105:
 664:Drivers/STM32G4xx_HAL_Driver/Src/stm32g4xx_hal_rcc.c ****           {
 1092              		.loc 1 664 30 view .LVU373
 1093 0430 001B     		subs	r0, r0, r4
 664:Drivers/STM32G4xx_HAL_Driver/Src/stm32g4xx_hal_rcc.c ****           {
 1094              		.loc 1 664 14 view .LVU374
 1095 0432 0228     		cmp	r0, #2
 1096 0434 F6D9     		bls	.L74
 666:Drivers/STM32G4xx_HAL_Driver/Src/stm32g4xx_hal_rcc.c ****           }
 1097              		.loc 1 666 20 view .LVU375
 1098 0436 0320     		movs	r0, #3
 1099 0438 40E0     		b	.L21
 1100              	.L122:
 684:Drivers/STM32G4xx_HAL_Driver/Src/stm32g4xx_hal_rcc.c ****           }
 685:Drivers/STM32G4xx_HAL_Driver/Src/stm32g4xx_hal_rcc.c ****         }
 686:Drivers/STM32G4xx_HAL_Driver/Src/stm32g4xx_hal_rcc.c **** 
 687:Drivers/STM32G4xx_HAL_Driver/Src/stm32g4xx_hal_rcc.c ****         /* Unselect PLL clock source and disable outputs to save power */
ARM GAS  /tmp/ccMcPfSr.s 			page 35


 688:Drivers/STM32G4xx_HAL_Driver/Src/stm32g4xx_hal_rcc.c ****         RCC->PLLCFGR &= ~(RCC_PLLCFGR_PLLSRC | RCC_PLL_SYSCLK | RCC_PLL_48M1CLK | RCC_PLL_ADCCLK);
 689:Drivers/STM32G4xx_HAL_Driver/Src/stm32g4xx_hal_rcc.c ****       }
 690:Drivers/STM32G4xx_HAL_Driver/Src/stm32g4xx_hal_rcc.c ****     }
 691:Drivers/STM32G4xx_HAL_Driver/Src/stm32g4xx_hal_rcc.c ****     else
 692:Drivers/STM32G4xx_HAL_Driver/Src/stm32g4xx_hal_rcc.c ****     {
 693:Drivers/STM32G4xx_HAL_Driver/Src/stm32g4xx_hal_rcc.c ****       /* Check if there is a request to disable the PLL used as System clock source */
 694:Drivers/STM32G4xx_HAL_Driver/Src/stm32g4xx_hal_rcc.c ****       if((RCC_OscInitStruct->PLL.PLLState) == RCC_PLL_OFF)
 695:Drivers/STM32G4xx_HAL_Driver/Src/stm32g4xx_hal_rcc.c ****       {
 696:Drivers/STM32G4xx_HAL_Driver/Src/stm32g4xx_hal_rcc.c ****         return HAL_ERROR;
 697:Drivers/STM32G4xx_HAL_Driver/Src/stm32g4xx_hal_rcc.c ****       }
 698:Drivers/STM32G4xx_HAL_Driver/Src/stm32g4xx_hal_rcc.c ****       else
 699:Drivers/STM32G4xx_HAL_Driver/Src/stm32g4xx_hal_rcc.c ****       {
 700:Drivers/STM32G4xx_HAL_Driver/Src/stm32g4xx_hal_rcc.c ****       /* Do not return HAL_ERROR if request repeats the current configuration */
 701:Drivers/STM32G4xx_HAL_Driver/Src/stm32g4xx_hal_rcc.c ****       temp_pllckcfg = RCC->PLLCFGR;
 702:Drivers/STM32G4xx_HAL_Driver/Src/stm32g4xx_hal_rcc.c ****       if((READ_BIT(temp_pllckcfg, RCC_PLLCFGR_PLLSRC) != RCC_OscInitStruct->PLL.PLLSource) ||
 703:Drivers/STM32G4xx_HAL_Driver/Src/stm32g4xx_hal_rcc.c ****          (READ_BIT(temp_pllckcfg, RCC_PLLCFGR_PLLM) != (((RCC_OscInitStruct->PLL.PLLM) - 1U) << RCC
 704:Drivers/STM32G4xx_HAL_Driver/Src/stm32g4xx_hal_rcc.c ****          (READ_BIT(temp_pllckcfg, RCC_PLLCFGR_PLLN) != ((RCC_OscInitStruct->PLL.PLLN) << RCC_PLLCFG
 705:Drivers/STM32G4xx_HAL_Driver/Src/stm32g4xx_hal_rcc.c ****          (READ_BIT(temp_pllckcfg, RCC_PLLCFGR_PLLPDIV) != ((RCC_OscInitStruct->PLL.PLLP) << RCC_PLL
 706:Drivers/STM32G4xx_HAL_Driver/Src/stm32g4xx_hal_rcc.c ****          (READ_BIT(temp_pllckcfg, RCC_PLLCFGR_PLLQ) != ((((RCC_OscInitStruct->PLL.PLLQ) >> 1U) - 1U
 707:Drivers/STM32G4xx_HAL_Driver/Src/stm32g4xx_hal_rcc.c ****          (READ_BIT(temp_pllckcfg, RCC_PLLCFGR_PLLR) != ((((RCC_OscInitStruct->PLL.PLLR) >> 1U) - 1U
 708:Drivers/STM32G4xx_HAL_Driver/Src/stm32g4xx_hal_rcc.c ****       {
 709:Drivers/STM32G4xx_HAL_Driver/Src/stm32g4xx_hal_rcc.c ****         return HAL_ERROR;
 710:Drivers/STM32G4xx_HAL_Driver/Src/stm32g4xx_hal_rcc.c ****       }
 711:Drivers/STM32G4xx_HAL_Driver/Src/stm32g4xx_hal_rcc.c ****     }
 712:Drivers/STM32G4xx_HAL_Driver/Src/stm32g4xx_hal_rcc.c ****   }
 713:Drivers/STM32G4xx_HAL_Driver/Src/stm32g4xx_hal_rcc.c ****   }
 714:Drivers/STM32G4xx_HAL_Driver/Src/stm32g4xx_hal_rcc.c **** 
 715:Drivers/STM32G4xx_HAL_Driver/Src/stm32g4xx_hal_rcc.c ****   return HAL_OK;
 1101              		.loc 1 715 10 view .LVU376
 1102 043a 0020     		movs	r0, #0
 1103 043c 3EE0     		b	.L21
 1104              	.L120:
 688:Drivers/STM32G4xx_HAL_Driver/Src/stm32g4xx_hal_rcc.c ****       }
 1105              		.loc 1 688 9 is_stmt 1 view .LVU377
 688:Drivers/STM32G4xx_HAL_Driver/Src/stm32g4xx_hal_rcc.c ****       }
 1106              		.loc 1 688 22 is_stmt 0 view .LVU378
 1107 043e 274A     		ldr	r2, .L125
 1108 0440 D168     		ldr	r1, [r2, #12]
 1109 0442 284B     		ldr	r3, .L125+8
 1110 0444 0B40     		ands	r3, r3, r1
 1111 0446 D360     		str	r3, [r2, #12]
 1112              		.loc 1 715 10 view .LVU379
 1113 0448 0020     		movs	r0, #0
 1114 044a 37E0     		b	.L21
 1115              	.LVL106:
 1116              	.L70:
 694:Drivers/STM32G4xx_HAL_Driver/Src/stm32g4xx_hal_rcc.c ****       {
 1117              		.loc 1 694 7 is_stmt 1 view .LVU380
 694:Drivers/STM32G4xx_HAL_Driver/Src/stm32g4xx_hal_rcc.c ****       {
 1118              		.loc 1 694 9 is_stmt 0 view .LVU381
 1119 044c 012B     		cmp	r3, #1
 1120 044e 38D0     		beq	.L98
 701:Drivers/STM32G4xx_HAL_Driver/Src/stm32g4xx_hal_rcc.c ****       if((READ_BIT(temp_pllckcfg, RCC_PLLCFGR_PLLSRC) != RCC_OscInitStruct->PLL.PLLSource) ||
 1121              		.loc 1 701 7 is_stmt 1 view .LVU382
 701:Drivers/STM32G4xx_HAL_Driver/Src/stm32g4xx_hal_rcc.c ****       if((READ_BIT(temp_pllckcfg, RCC_PLLCFGR_PLLSRC) != RCC_OscInitStruct->PLL.PLLSource) ||
 1122              		.loc 1 701 21 is_stmt 0 view .LVU383
 1123 0450 224B     		ldr	r3, .L125
ARM GAS  /tmp/ccMcPfSr.s 			page 36


 1124 0452 DB68     		ldr	r3, [r3, #12]
 1125              	.LVL107:
 702:Drivers/STM32G4xx_HAL_Driver/Src/stm32g4xx_hal_rcc.c ****          (READ_BIT(temp_pllckcfg, RCC_PLLCFGR_PLLM) != (((RCC_OscInitStruct->PLL.PLLM) - 1U) << RCC
 1126              		.loc 1 702 7 is_stmt 1 view .LVU384
 702:Drivers/STM32G4xx_HAL_Driver/Src/stm32g4xx_hal_rcc.c ****          (READ_BIT(temp_pllckcfg, RCC_PLLCFGR_PLLM) != (((RCC_OscInitStruct->PLL.PLLM) - 1U) << RCC
 1127              		.loc 1 702 11 is_stmt 0 view .LVU385
 1128 0454 03F00301 		and	r1, r3, #3
 702:Drivers/STM32G4xx_HAL_Driver/Src/stm32g4xx_hal_rcc.c ****          (READ_BIT(temp_pllckcfg, RCC_PLLCFGR_PLLM) != (((RCC_OscInitStruct->PLL.PLLM) - 1U) << RCC
 1129              		.loc 1 702 9 view .LVU386
 1130 0458 226A     		ldr	r2, [r4, #32]
 1131 045a 9142     		cmp	r1, r2
 1132 045c 33D1     		bne	.L99
 703:Drivers/STM32G4xx_HAL_Driver/Src/stm32g4xx_hal_rcc.c ****          (READ_BIT(temp_pllckcfg, RCC_PLLCFGR_PLLN) != ((RCC_OscInitStruct->PLL.PLLN) << RCC_PLLCFG
 1133              		.loc 1 703 11 discriminator 1 view .LVU387
 1134 045e 03F0F002 		and	r2, r3, #240
 703:Drivers/STM32G4xx_HAL_Driver/Src/stm32g4xx_hal_rcc.c ****          (READ_BIT(temp_pllckcfg, RCC_PLLCFGR_PLLN) != ((RCC_OscInitStruct->PLL.PLLN) << RCC_PLLCFG
 1135              		.loc 1 703 88 discriminator 1 view .LVU388
 1136 0462 616A     		ldr	r1, [r4, #36]
 1137 0464 0139     		subs	r1, r1, #1
 702:Drivers/STM32G4xx_HAL_Driver/Src/stm32g4xx_hal_rcc.c ****          (READ_BIT(temp_pllckcfg, RCC_PLLCFGR_PLLM) != (((RCC_OscInitStruct->PLL.PLLM) - 1U) << RCC
 1138              		.loc 1 702 92 discriminator 1 view .LVU389
 1139 0466 B2EB011F 		cmp	r2, r1, lsl #4
 1140 046a 2ED1     		bne	.L100
 704:Drivers/STM32G4xx_HAL_Driver/Src/stm32g4xx_hal_rcc.c ****          (READ_BIT(temp_pllckcfg, RCC_PLLCFGR_PLLPDIV) != ((RCC_OscInitStruct->PLL.PLLP) << RCC_PLL
 1141              		.loc 1 704 11 view .LVU390
 1142 046c 03F4FE42 		and	r2, r3, #32512
 704:Drivers/STM32G4xx_HAL_Driver/Src/stm32g4xx_hal_rcc.c ****          (READ_BIT(temp_pllckcfg, RCC_PLLCFGR_PLLPDIV) != ((RCC_OscInitStruct->PLL.PLLP) << RCC_PLL
 1143              		.loc 1 704 87 view .LVU391
 1144 0470 A16A     		ldr	r1, [r4, #40]
 703:Drivers/STM32G4xx_HAL_Driver/Src/stm32g4xx_hal_rcc.c ****          (READ_BIT(temp_pllckcfg, RCC_PLLCFGR_PLLN) != ((RCC_OscInitStruct->PLL.PLLN) << RCC_PLLCFG
 1145              		.loc 1 703 120 view .LVU392
 1146 0472 B2EB012F 		cmp	r2, r1, lsl #8
 1147 0476 2AD1     		bne	.L101
 705:Drivers/STM32G4xx_HAL_Driver/Src/stm32g4xx_hal_rcc.c ****          (READ_BIT(temp_pllckcfg, RCC_PLLCFGR_PLLQ) != ((((RCC_OscInitStruct->PLL.PLLQ) >> 1U) - 1U
 1148              		.loc 1 705 11 view .LVU393
 1149 0478 03F07842 		and	r2, r3, #-134217728
 705:Drivers/STM32G4xx_HAL_Driver/Src/stm32g4xx_hal_rcc.c ****          (READ_BIT(temp_pllckcfg, RCC_PLLCFGR_PLLQ) != ((((RCC_OscInitStruct->PLL.PLLQ) >> 1U) - 1U
 1150              		.loc 1 705 90 view .LVU394
 1151 047c E16A     		ldr	r1, [r4, #44]
 704:Drivers/STM32G4xx_HAL_Driver/Src/stm32g4xx_hal_rcc.c ****          (READ_BIT(temp_pllckcfg, RCC_PLLCFGR_PLLPDIV) != ((RCC_OscInitStruct->PLL.PLLP) << RCC_PLL
 1152              		.loc 1 704 113 view .LVU395
 1153 047e B2EBC16F 		cmp	r2, r1, lsl #27
 1154 0482 26D1     		bne	.L102
 706:Drivers/STM32G4xx_HAL_Driver/Src/stm32g4xx_hal_rcc.c ****          (READ_BIT(temp_pllckcfg, RCC_PLLCFGR_PLLR) != ((((RCC_OscInitStruct->PLL.PLLR) >> 1U) - 1U
 1155              		.loc 1 706 11 view .LVU396
 1156 0484 03F4C001 		and	r1, r3, #6291456
 706:Drivers/STM32G4xx_HAL_Driver/Src/stm32g4xx_hal_rcc.c ****          (READ_BIT(temp_pllckcfg, RCC_PLLCFGR_PLLR) != ((((RCC_OscInitStruct->PLL.PLLR) >> 1U) - 1U
 1157              		.loc 1 706 89 view .LVU397
 1158 0488 226B     		ldr	r2, [r4, #48]
 1159 048a 5208     		lsrs	r2, r2, #1
 706:Drivers/STM32G4xx_HAL_Driver/Src/stm32g4xx_hal_rcc.c ****          (READ_BIT(temp_pllckcfg, RCC_PLLCFGR_PLLR) != ((((RCC_OscInitStruct->PLL.PLLR) >> 1U) - 1U
 1160              		.loc 1 706 96 view .LVU398
 1161 048c 013A     		subs	r2, r2, #1
 705:Drivers/STM32G4xx_HAL_Driver/Src/stm32g4xx_hal_rcc.c ****          (READ_BIT(temp_pllckcfg, RCC_PLLCFGR_PLLQ) != ((((RCC_OscInitStruct->PLL.PLLQ) >> 1U) - 1U
 1162              		.loc 1 705 119 view .LVU399
 1163 048e B1EB425F 		cmp	r1, r2, lsl #21
 1164 0492 20D1     		bne	.L103
ARM GAS  /tmp/ccMcPfSr.s 			page 37


 707:Drivers/STM32G4xx_HAL_Driver/Src/stm32g4xx_hal_rcc.c ****       {
 1165              		.loc 1 707 89 view .LVU400
 1166 0494 626B     		ldr	r2, [r4, #52]
 1167 0496 5208     		lsrs	r2, r2, #1
 707:Drivers/STM32G4xx_HAL_Driver/Src/stm32g4xx_hal_rcc.c ****       {
 1168              		.loc 1 707 96 view .LVU401
 1169 0498 013A     		subs	r2, r2, #1
 707:Drivers/STM32G4xx_HAL_Driver/Src/stm32g4xx_hal_rcc.c ****       {
 1170              		.loc 1 707 11 view .LVU402
 1171 049a 03F0C063 		and	r3, r3, #100663296
 1172              	.LVL108:
 706:Drivers/STM32G4xx_HAL_Driver/Src/stm32g4xx_hal_rcc.c ****          (READ_BIT(temp_pllckcfg, RCC_PLLCFGR_PLLR) != ((((RCC_OscInitStruct->PLL.PLLR) >> 1U) - 1U
 1173              		.loc 1 706 128 view .LVU403
 1174 049e B3EB426F 		cmp	r3, r2, lsl #25
 696:Drivers/STM32G4xx_HAL_Driver/Src/stm32g4xx_hal_rcc.c ****       }
 1175              		.loc 1 696 16 view .LVU404
 1176 04a2 14BF     		ite	ne
 1177 04a4 0120     		movne	r0, #1
 1178 04a6 0020     		moveq	r0, #0
 1179 04a8 08E0     		b	.L21
 1180              	.LVL109:
 1181              	.L78:
 1182              	.LCFI3:
 1183              		.cfi_def_cfa_offset 0
 1184              		.cfi_restore 4
 1185              		.cfi_restore 5
 1186              		.cfi_restore 6
 1187              		.cfi_restore 7
 1188              		.cfi_restore 8
 1189              		.cfi_restore 14
 321:Drivers/STM32G4xx_HAL_Driver/Src/stm32g4xx_hal_rcc.c ****   }
 1190              		.loc 1 321 12 view .LVU405
 1191 04aa 0120     		movs	r0, #1
 1192              	.LVL110:
 716:Drivers/STM32G4xx_HAL_Driver/Src/stm32g4xx_hal_rcc.c **** }
 1193              		.loc 1 716 1 view .LVU406
 1194 04ac 7047     		bx	lr
 1195              	.LVL111:
 1196              	.L111:
 1197              	.LCFI4:
 1198              		.cfi_def_cfa_offset 32
 1199              		.cfi_offset 4, -24
 1200              		.cfi_offset 5, -20
 1201              		.cfi_offset 6, -16
 1202              		.cfi_offset 7, -12
 1203              		.cfi_offset 8, -8
 1204              		.cfi_offset 14, -4
 341:Drivers/STM32G4xx_HAL_Driver/Src/stm32g4xx_hal_rcc.c ****       }
 1205              		.loc 1 341 16 view .LVU407
 1206 04ae 0120     		movs	r0, #1
 1207              	.LVL112:
 341:Drivers/STM32G4xx_HAL_Driver/Src/stm32g4xx_hal_rcc.c ****       }
 1208              		.loc 1 341 16 view .LVU408
 1209 04b0 04E0     		b	.L21
 1210              	.L82:
 395:Drivers/STM32G4xx_HAL_Driver/Src/stm32g4xx_hal_rcc.c ****       }
 1211              		.loc 1 395 16 view .LVU409
ARM GAS  /tmp/ccMcPfSr.s 			page 38


 1212 04b2 0120     		movs	r0, #1
 1213 04b4 02E0     		b	.L21
 1214              	.L114:
 406:Drivers/STM32G4xx_HAL_Driver/Src/stm32g4xx_hal_rcc.c ****         }
 1215              		.loc 1 406 18 view .LVU410
 1216 04b6 0120     		movs	r0, #1
 1217 04b8 00E0     		b	.L21
 1218              	.L94:
 715:Drivers/STM32G4xx_HAL_Driver/Src/stm32g4xx_hal_rcc.c **** }
 1219              		.loc 1 715 10 view .LVU411
 1220 04ba 0020     		movs	r0, #0
 1221              	.LVL113:
 1222              	.L21:
 1223              		.loc 1 716 1 view .LVU412
 1224 04bc 02B0     		add	sp, sp, #8
 1225              	.LCFI5:
 1226              		.cfi_remember_state
 1227              		.cfi_def_cfa_offset 24
 1228              		@ sp needed
 1229 04be BDE8F081 		pop	{r4, r5, r6, r7, r8, pc}
 1230              	.LVL114:
 1231              	.L98:
 1232              	.LCFI6:
 1233              		.cfi_restore_state
 696:Drivers/STM32G4xx_HAL_Driver/Src/stm32g4xx_hal_rcc.c ****       }
 1234              		.loc 1 696 16 view .LVU413
 1235 04c2 0120     		movs	r0, #1
 1236 04c4 FAE7     		b	.L21
 1237              	.LVL115:
 1238              	.L99:
 709:Drivers/STM32G4xx_HAL_Driver/Src/stm32g4xx_hal_rcc.c ****       }
 1239              		.loc 1 709 16 view .LVU414
 1240 04c6 0120     		movs	r0, #1
 1241 04c8 F8E7     		b	.L21
 1242              	.L100:
 1243 04ca 0120     		movs	r0, #1
 1244 04cc F6E7     		b	.L21
 1245              	.L101:
 1246 04ce 0120     		movs	r0, #1
 1247 04d0 F4E7     		b	.L21
 1248              	.L102:
 1249 04d2 0120     		movs	r0, #1
 1250 04d4 F2E7     		b	.L21
 1251              	.L103:
 1252 04d6 0120     		movs	r0, #1
 1253 04d8 F0E7     		b	.L21
 1254              	.L126:
 1255 04da 00BF     		.align	2
 1256              	.L125:
 1257 04dc 00100240 		.word	1073876992
 1258 04e0 0C809F01 		.word	27230220
 1259 04e4 FCFFEEFE 		.word	-17891332
 1260              		.cfi_endproc
 1261              	.LFE133:
 1263              		.section	.text.HAL_RCC_MCOConfig,"ax",%progbits
 1264              		.align	1
 1265              		.global	HAL_RCC_MCOConfig
ARM GAS  /tmp/ccMcPfSr.s 			page 39


 1266              		.syntax unified
 1267              		.thumb
 1268              		.thumb_func
 1269              		.fpu fpv4-sp-d16
 1271              	HAL_RCC_MCOConfig:
 1272              	.LVL116:
 1273              	.LFB135:
 717:Drivers/STM32G4xx_HAL_Driver/Src/stm32g4xx_hal_rcc.c **** 
 718:Drivers/STM32G4xx_HAL_Driver/Src/stm32g4xx_hal_rcc.c **** /**
 719:Drivers/STM32G4xx_HAL_Driver/Src/stm32g4xx_hal_rcc.c ****   * @brief  Initialize the CPU, AHB and APB buses clocks according to the specified
 720:Drivers/STM32G4xx_HAL_Driver/Src/stm32g4xx_hal_rcc.c ****   *         parameters in the RCC_ClkInitStruct.
 721:Drivers/STM32G4xx_HAL_Driver/Src/stm32g4xx_hal_rcc.c ****   * @param  RCC_ClkInitStruct  pointer to an RCC_OscInitTypeDef structure that
 722:Drivers/STM32G4xx_HAL_Driver/Src/stm32g4xx_hal_rcc.c ****   *         contains the configuration information for the RCC peripheral.
 723:Drivers/STM32G4xx_HAL_Driver/Src/stm32g4xx_hal_rcc.c ****   * @param  FLatency  FLASH Latency
 724:Drivers/STM32G4xx_HAL_Driver/Src/stm32g4xx_hal_rcc.c ****   *          This parameter can be one of the following values:
 725:Drivers/STM32G4xx_HAL_Driver/Src/stm32g4xx_hal_rcc.c ****   *            @arg FLASH_LATENCY_0   FLASH 0 Latency cycle
 726:Drivers/STM32G4xx_HAL_Driver/Src/stm32g4xx_hal_rcc.c ****   *            @arg FLASH_LATENCY_1   FLASH 1 Latency cycle
 727:Drivers/STM32G4xx_HAL_Driver/Src/stm32g4xx_hal_rcc.c ****   *            @arg FLASH_LATENCY_2   FLASH 2 Latency cycles
 728:Drivers/STM32G4xx_HAL_Driver/Src/stm32g4xx_hal_rcc.c ****   *            @arg FLASH_LATENCY_3   FLASH 3 Latency cycles
 729:Drivers/STM32G4xx_HAL_Driver/Src/stm32g4xx_hal_rcc.c ****   *            @arg FLASH_LATENCY_4   FLASH 4 Latency cycles
 730:Drivers/STM32G4xx_HAL_Driver/Src/stm32g4xx_hal_rcc.c ****   *            @arg FLASH_LATENCY_5   FLASH 5 Latency cycles
 731:Drivers/STM32G4xx_HAL_Driver/Src/stm32g4xx_hal_rcc.c ****   *            @arg FLASH_LATENCY_6   FLASH 6 Latency cycles
 732:Drivers/STM32G4xx_HAL_Driver/Src/stm32g4xx_hal_rcc.c ****   *            @arg FLASH_LATENCY_7   FLASH 7 Latency cycles
 733:Drivers/STM32G4xx_HAL_Driver/Src/stm32g4xx_hal_rcc.c ****   *            @arg FLASH_LATENCY_8   FLASH 8 Latency cycles
 734:Drivers/STM32G4xx_HAL_Driver/Src/stm32g4xx_hal_rcc.c ****   *            @arg FLASH_LATENCY_9   FLASH 9 Latency cycles
 735:Drivers/STM32G4xx_HAL_Driver/Src/stm32g4xx_hal_rcc.c ****   *            @arg FLASH_LATENCY_10  FLASH 10 Latency cycles
 736:Drivers/STM32G4xx_HAL_Driver/Src/stm32g4xx_hal_rcc.c ****   *            @arg FLASH_LATENCY_11  FLASH 11 Latency cycles
 737:Drivers/STM32G4xx_HAL_Driver/Src/stm32g4xx_hal_rcc.c ****   *            @arg FLASH_LATENCY_12  FLASH 12 Latency cycles
 738:Drivers/STM32G4xx_HAL_Driver/Src/stm32g4xx_hal_rcc.c ****   *            @arg FLASH_LATENCY_13  FLASH 13 Latency cycles
 739:Drivers/STM32G4xx_HAL_Driver/Src/stm32g4xx_hal_rcc.c ****   *            @arg FLASH_LATENCY_14  FLASH 14 Latency cycles
 740:Drivers/STM32G4xx_HAL_Driver/Src/stm32g4xx_hal_rcc.c ****   *            @arg FLASH_LATENCY_15  FLASH 15 Latency cycles
 741:Drivers/STM32G4xx_HAL_Driver/Src/stm32g4xx_hal_rcc.c ****   *
 742:Drivers/STM32G4xx_HAL_Driver/Src/stm32g4xx_hal_rcc.c ****   * @note   The SystemCoreClock CMSIS variable is used to store System Clock Frequency
 743:Drivers/STM32G4xx_HAL_Driver/Src/stm32g4xx_hal_rcc.c ****   *         and updated by HAL_RCC_GetHCLKFreq() function called within this function
 744:Drivers/STM32G4xx_HAL_Driver/Src/stm32g4xx_hal_rcc.c ****   *
 745:Drivers/STM32G4xx_HAL_Driver/Src/stm32g4xx_hal_rcc.c ****   * @note   The HSI is used by default as system clock source after
 746:Drivers/STM32G4xx_HAL_Driver/Src/stm32g4xx_hal_rcc.c ****   *         startup from Reset, wake-up from STANDBY mode. After restart from Reset,
 747:Drivers/STM32G4xx_HAL_Driver/Src/stm32g4xx_hal_rcc.c ****   *         the HSI frequency is set to its default value 16 MHz.
 748:Drivers/STM32G4xx_HAL_Driver/Src/stm32g4xx_hal_rcc.c ****   *
 749:Drivers/STM32G4xx_HAL_Driver/Src/stm32g4xx_hal_rcc.c ****   * @note   The HSI can be selected as system clock source after
 750:Drivers/STM32G4xx_HAL_Driver/Src/stm32g4xx_hal_rcc.c ****   *         from STOP modes or in case of failure of the HSE used directly or indirectly
 751:Drivers/STM32G4xx_HAL_Driver/Src/stm32g4xx_hal_rcc.c ****   *         as system clock (if the Clock Security System CSS is enabled).
 752:Drivers/STM32G4xx_HAL_Driver/Src/stm32g4xx_hal_rcc.c ****   *
 753:Drivers/STM32G4xx_HAL_Driver/Src/stm32g4xx_hal_rcc.c ****   * @note   A switch from one clock source to another occurs only if the target
 754:Drivers/STM32G4xx_HAL_Driver/Src/stm32g4xx_hal_rcc.c ****   *         clock source is ready (clock stable after startup delay or PLL locked).
 755:Drivers/STM32G4xx_HAL_Driver/Src/stm32g4xx_hal_rcc.c ****   *         If a clock source which is not yet ready is selected, the switch will
 756:Drivers/STM32G4xx_HAL_Driver/Src/stm32g4xx_hal_rcc.c ****   *         occur when the clock source is ready.
 757:Drivers/STM32G4xx_HAL_Driver/Src/stm32g4xx_hal_rcc.c ****   *
 758:Drivers/STM32G4xx_HAL_Driver/Src/stm32g4xx_hal_rcc.c ****   * @note   You can use HAL_RCC_GetClockConfig() function to know which clock is
 759:Drivers/STM32G4xx_HAL_Driver/Src/stm32g4xx_hal_rcc.c ****   *         currently used as system clock source.
 760:Drivers/STM32G4xx_HAL_Driver/Src/stm32g4xx_hal_rcc.c ****   *
 761:Drivers/STM32G4xx_HAL_Driver/Src/stm32g4xx_hal_rcc.c ****   * @note   Depending on the device voltage range, the software has to set correctly
 762:Drivers/STM32G4xx_HAL_Driver/Src/stm32g4xx_hal_rcc.c ****   *         HPRE[3:0] bits to ensure that HCLK not exceed the maximum allowed frequency
 763:Drivers/STM32G4xx_HAL_Driver/Src/stm32g4xx_hal_rcc.c ****   *         (for more details refer to section above "Initialization/de-initialization functions")
 764:Drivers/STM32G4xx_HAL_Driver/Src/stm32g4xx_hal_rcc.c ****   * @retval None
 765:Drivers/STM32G4xx_HAL_Driver/Src/stm32g4xx_hal_rcc.c ****   */
 766:Drivers/STM32G4xx_HAL_Driver/Src/stm32g4xx_hal_rcc.c **** HAL_StatusTypeDef HAL_RCC_ClockConfig(RCC_ClkInitTypeDef  *RCC_ClkInitStruct, uint32_t FLatency)
ARM GAS  /tmp/ccMcPfSr.s 			page 40


 767:Drivers/STM32G4xx_HAL_Driver/Src/stm32g4xx_hal_rcc.c **** {
 768:Drivers/STM32G4xx_HAL_Driver/Src/stm32g4xx_hal_rcc.c ****   uint32_t tickstart;
 769:Drivers/STM32G4xx_HAL_Driver/Src/stm32g4xx_hal_rcc.c ****   uint32_t pllfreq;
 770:Drivers/STM32G4xx_HAL_Driver/Src/stm32g4xx_hal_rcc.c ****   uint32_t hpre = RCC_SYSCLK_DIV1;
 771:Drivers/STM32G4xx_HAL_Driver/Src/stm32g4xx_hal_rcc.c **** 
 772:Drivers/STM32G4xx_HAL_Driver/Src/stm32g4xx_hal_rcc.c ****   /* Check Null pointer */
 773:Drivers/STM32G4xx_HAL_Driver/Src/stm32g4xx_hal_rcc.c ****   if (RCC_ClkInitStruct == NULL)
 774:Drivers/STM32G4xx_HAL_Driver/Src/stm32g4xx_hal_rcc.c ****   {
 775:Drivers/STM32G4xx_HAL_Driver/Src/stm32g4xx_hal_rcc.c ****     return HAL_ERROR;
 776:Drivers/STM32G4xx_HAL_Driver/Src/stm32g4xx_hal_rcc.c ****   }
 777:Drivers/STM32G4xx_HAL_Driver/Src/stm32g4xx_hal_rcc.c **** 
 778:Drivers/STM32G4xx_HAL_Driver/Src/stm32g4xx_hal_rcc.c ****   /* Check the parameters */
 779:Drivers/STM32G4xx_HAL_Driver/Src/stm32g4xx_hal_rcc.c ****   assert_param(IS_RCC_CLOCKTYPE(RCC_ClkInitStruct->ClockType));
 780:Drivers/STM32G4xx_HAL_Driver/Src/stm32g4xx_hal_rcc.c ****   assert_param(IS_FLASH_LATENCY(FLatency));
 781:Drivers/STM32G4xx_HAL_Driver/Src/stm32g4xx_hal_rcc.c **** 
 782:Drivers/STM32G4xx_HAL_Driver/Src/stm32g4xx_hal_rcc.c ****   /* To correctly read data from FLASH memory, the number of wait states (LATENCY)
 783:Drivers/STM32G4xx_HAL_Driver/Src/stm32g4xx_hal_rcc.c ****     must be correctly programmed according to the frequency of the CPU clock
 784:Drivers/STM32G4xx_HAL_Driver/Src/stm32g4xx_hal_rcc.c ****     (HCLK) and the supply voltage of the device. */
 785:Drivers/STM32G4xx_HAL_Driver/Src/stm32g4xx_hal_rcc.c **** 
 786:Drivers/STM32G4xx_HAL_Driver/Src/stm32g4xx_hal_rcc.c ****   /* Increasing the number of wait states because of higher CPU frequency */
 787:Drivers/STM32G4xx_HAL_Driver/Src/stm32g4xx_hal_rcc.c ****   if (FLatency > __HAL_FLASH_GET_LATENCY())
 788:Drivers/STM32G4xx_HAL_Driver/Src/stm32g4xx_hal_rcc.c ****   {
 789:Drivers/STM32G4xx_HAL_Driver/Src/stm32g4xx_hal_rcc.c ****     /* Program the new number of wait states to the LATENCY bits in the FLASH_ACR register */
 790:Drivers/STM32G4xx_HAL_Driver/Src/stm32g4xx_hal_rcc.c ****     __HAL_FLASH_SET_LATENCY(FLatency);
 791:Drivers/STM32G4xx_HAL_Driver/Src/stm32g4xx_hal_rcc.c **** 
 792:Drivers/STM32G4xx_HAL_Driver/Src/stm32g4xx_hal_rcc.c ****     /* Check that the new number of wait states is taken into account to access the Flash
 793:Drivers/STM32G4xx_HAL_Driver/Src/stm32g4xx_hal_rcc.c ****     memory by reading the FLASH_ACR register */
 794:Drivers/STM32G4xx_HAL_Driver/Src/stm32g4xx_hal_rcc.c ****     if (__HAL_FLASH_GET_LATENCY() != FLatency)
 795:Drivers/STM32G4xx_HAL_Driver/Src/stm32g4xx_hal_rcc.c ****     {
 796:Drivers/STM32G4xx_HAL_Driver/Src/stm32g4xx_hal_rcc.c ****       return HAL_ERROR;
 797:Drivers/STM32G4xx_HAL_Driver/Src/stm32g4xx_hal_rcc.c ****     }
 798:Drivers/STM32G4xx_HAL_Driver/Src/stm32g4xx_hal_rcc.c ****   }
 799:Drivers/STM32G4xx_HAL_Driver/Src/stm32g4xx_hal_rcc.c **** 
 800:Drivers/STM32G4xx_HAL_Driver/Src/stm32g4xx_hal_rcc.c ****   /*------------------------- SYSCLK Configuration ---------------------------*/
 801:Drivers/STM32G4xx_HAL_Driver/Src/stm32g4xx_hal_rcc.c ****   if(((RCC_ClkInitStruct->ClockType) & RCC_CLOCKTYPE_SYSCLK) == RCC_CLOCKTYPE_SYSCLK)
 802:Drivers/STM32G4xx_HAL_Driver/Src/stm32g4xx_hal_rcc.c ****   {
 803:Drivers/STM32G4xx_HAL_Driver/Src/stm32g4xx_hal_rcc.c ****     assert_param(IS_RCC_SYSCLKSOURCE(RCC_ClkInitStruct->SYSCLKSource));
 804:Drivers/STM32G4xx_HAL_Driver/Src/stm32g4xx_hal_rcc.c **** 
 805:Drivers/STM32G4xx_HAL_Driver/Src/stm32g4xx_hal_rcc.c ****     /* PLL is selected as System Clock Source */
 806:Drivers/STM32G4xx_HAL_Driver/Src/stm32g4xx_hal_rcc.c ****     if (RCC_ClkInitStruct->SYSCLKSource == RCC_SYSCLKSOURCE_PLLCLK)
 807:Drivers/STM32G4xx_HAL_Driver/Src/stm32g4xx_hal_rcc.c ****     {
 808:Drivers/STM32G4xx_HAL_Driver/Src/stm32g4xx_hal_rcc.c ****       /* Check the PLL ready flag */
 809:Drivers/STM32G4xx_HAL_Driver/Src/stm32g4xx_hal_rcc.c ****       if (READ_BIT(RCC->CR, RCC_CR_PLLRDY) == 0U)
 810:Drivers/STM32G4xx_HAL_Driver/Src/stm32g4xx_hal_rcc.c ****       {
 811:Drivers/STM32G4xx_HAL_Driver/Src/stm32g4xx_hal_rcc.c ****         return HAL_ERROR;
 812:Drivers/STM32G4xx_HAL_Driver/Src/stm32g4xx_hal_rcc.c ****       }
 813:Drivers/STM32G4xx_HAL_Driver/Src/stm32g4xx_hal_rcc.c ****       /* Undershoot management when selection PLL as SYSCLK source and frequency above 80Mhz */
 814:Drivers/STM32G4xx_HAL_Driver/Src/stm32g4xx_hal_rcc.c ****       /* Compute target PLL output frequency */
 815:Drivers/STM32G4xx_HAL_Driver/Src/stm32g4xx_hal_rcc.c ****       pllfreq = RCC_GetSysClockFreqFromPLLSource();
 816:Drivers/STM32G4xx_HAL_Driver/Src/stm32g4xx_hal_rcc.c **** 
 817:Drivers/STM32G4xx_HAL_Driver/Src/stm32g4xx_hal_rcc.c ****       /* Intermediate step with HCLK prescaler 2 necessary before to go over 80Mhz */
 818:Drivers/STM32G4xx_HAL_Driver/Src/stm32g4xx_hal_rcc.c ****       if(pllfreq > 80000000U)
 819:Drivers/STM32G4xx_HAL_Driver/Src/stm32g4xx_hal_rcc.c ****       {
 820:Drivers/STM32G4xx_HAL_Driver/Src/stm32g4xx_hal_rcc.c ****         if (((READ_BIT(RCC->CFGR, RCC_CFGR_HPRE) == RCC_SYSCLK_DIV1)) ||
 821:Drivers/STM32G4xx_HAL_Driver/Src/stm32g4xx_hal_rcc.c ****             (((((RCC_ClkInitStruct->ClockType) & RCC_CLOCKTYPE_HCLK) == RCC_CLOCKTYPE_HCLK) &&
 822:Drivers/STM32G4xx_HAL_Driver/Src/stm32g4xx_hal_rcc.c ****               (RCC_ClkInitStruct->AHBCLKDivider == RCC_SYSCLK_DIV1))))
 823:Drivers/STM32G4xx_HAL_Driver/Src/stm32g4xx_hal_rcc.c ****         {
ARM GAS  /tmp/ccMcPfSr.s 			page 41


 824:Drivers/STM32G4xx_HAL_Driver/Src/stm32g4xx_hal_rcc.c ****           MODIFY_REG(RCC->CFGR, RCC_CFGR_HPRE, RCC_SYSCLK_DIV2);
 825:Drivers/STM32G4xx_HAL_Driver/Src/stm32g4xx_hal_rcc.c ****           hpre = RCC_SYSCLK_DIV2;
 826:Drivers/STM32G4xx_HAL_Driver/Src/stm32g4xx_hal_rcc.c ****         }
 827:Drivers/STM32G4xx_HAL_Driver/Src/stm32g4xx_hal_rcc.c ****       }
 828:Drivers/STM32G4xx_HAL_Driver/Src/stm32g4xx_hal_rcc.c ****     }
 829:Drivers/STM32G4xx_HAL_Driver/Src/stm32g4xx_hal_rcc.c ****     else
 830:Drivers/STM32G4xx_HAL_Driver/Src/stm32g4xx_hal_rcc.c ****     {
 831:Drivers/STM32G4xx_HAL_Driver/Src/stm32g4xx_hal_rcc.c ****       /* HSE is selected as System Clock Source */
 832:Drivers/STM32G4xx_HAL_Driver/Src/stm32g4xx_hal_rcc.c ****       if (RCC_ClkInitStruct->SYSCLKSource == RCC_SYSCLKSOURCE_HSE)
 833:Drivers/STM32G4xx_HAL_Driver/Src/stm32g4xx_hal_rcc.c ****       {
 834:Drivers/STM32G4xx_HAL_Driver/Src/stm32g4xx_hal_rcc.c ****         /* Check the HSE ready flag */
 835:Drivers/STM32G4xx_HAL_Driver/Src/stm32g4xx_hal_rcc.c ****         if(READ_BIT(RCC->CR, RCC_CR_HSERDY) == 0U)
 836:Drivers/STM32G4xx_HAL_Driver/Src/stm32g4xx_hal_rcc.c ****         {
 837:Drivers/STM32G4xx_HAL_Driver/Src/stm32g4xx_hal_rcc.c ****           return HAL_ERROR;
 838:Drivers/STM32G4xx_HAL_Driver/Src/stm32g4xx_hal_rcc.c ****         }
 839:Drivers/STM32G4xx_HAL_Driver/Src/stm32g4xx_hal_rcc.c ****       }
 840:Drivers/STM32G4xx_HAL_Driver/Src/stm32g4xx_hal_rcc.c ****       /* HSI is selected as System Clock Source */
 841:Drivers/STM32G4xx_HAL_Driver/Src/stm32g4xx_hal_rcc.c ****       else
 842:Drivers/STM32G4xx_HAL_Driver/Src/stm32g4xx_hal_rcc.c ****       {
 843:Drivers/STM32G4xx_HAL_Driver/Src/stm32g4xx_hal_rcc.c ****         /* Check the HSI ready flag */
 844:Drivers/STM32G4xx_HAL_Driver/Src/stm32g4xx_hal_rcc.c ****         if(READ_BIT(RCC->CR, RCC_CR_HSIRDY) == 0U)
 845:Drivers/STM32G4xx_HAL_Driver/Src/stm32g4xx_hal_rcc.c ****         {
 846:Drivers/STM32G4xx_HAL_Driver/Src/stm32g4xx_hal_rcc.c ****           return HAL_ERROR;
 847:Drivers/STM32G4xx_HAL_Driver/Src/stm32g4xx_hal_rcc.c ****         }
 848:Drivers/STM32G4xx_HAL_Driver/Src/stm32g4xx_hal_rcc.c ****       }
 849:Drivers/STM32G4xx_HAL_Driver/Src/stm32g4xx_hal_rcc.c ****       /* Overshoot management when going down from PLL as SYSCLK source and frequency above 80Mhz *
 850:Drivers/STM32G4xx_HAL_Driver/Src/stm32g4xx_hal_rcc.c ****       pllfreq = HAL_RCC_GetSysClockFreq();
 851:Drivers/STM32G4xx_HAL_Driver/Src/stm32g4xx_hal_rcc.c **** 
 852:Drivers/STM32G4xx_HAL_Driver/Src/stm32g4xx_hal_rcc.c ****       /* Intermediate step with HCLK prescaler 2 necessary before to go under 80Mhz */
 853:Drivers/STM32G4xx_HAL_Driver/Src/stm32g4xx_hal_rcc.c ****       if(pllfreq > 80000000U)
 854:Drivers/STM32G4xx_HAL_Driver/Src/stm32g4xx_hal_rcc.c ****       {
 855:Drivers/STM32G4xx_HAL_Driver/Src/stm32g4xx_hal_rcc.c ****         MODIFY_REG(RCC->CFGR, RCC_CFGR_HPRE, RCC_SYSCLK_DIV2);
 856:Drivers/STM32G4xx_HAL_Driver/Src/stm32g4xx_hal_rcc.c ****         hpre = RCC_SYSCLK_DIV2;
 857:Drivers/STM32G4xx_HAL_Driver/Src/stm32g4xx_hal_rcc.c ****       }
 858:Drivers/STM32G4xx_HAL_Driver/Src/stm32g4xx_hal_rcc.c **** 
 859:Drivers/STM32G4xx_HAL_Driver/Src/stm32g4xx_hal_rcc.c ****     }
 860:Drivers/STM32G4xx_HAL_Driver/Src/stm32g4xx_hal_rcc.c **** 
 861:Drivers/STM32G4xx_HAL_Driver/Src/stm32g4xx_hal_rcc.c ****     MODIFY_REG(RCC->CFGR, RCC_CFGR_SW, RCC_ClkInitStruct->SYSCLKSource);
 862:Drivers/STM32G4xx_HAL_Driver/Src/stm32g4xx_hal_rcc.c **** 
 863:Drivers/STM32G4xx_HAL_Driver/Src/stm32g4xx_hal_rcc.c ****     /* Get Start Tick*/
 864:Drivers/STM32G4xx_HAL_Driver/Src/stm32g4xx_hal_rcc.c ****     tickstart = HAL_GetTick();
 865:Drivers/STM32G4xx_HAL_Driver/Src/stm32g4xx_hal_rcc.c **** 
 866:Drivers/STM32G4xx_HAL_Driver/Src/stm32g4xx_hal_rcc.c ****     while (__HAL_RCC_GET_SYSCLK_SOURCE() != (RCC_ClkInitStruct->SYSCLKSource << RCC_CFGR_SWS_Pos))
 867:Drivers/STM32G4xx_HAL_Driver/Src/stm32g4xx_hal_rcc.c ****     {
 868:Drivers/STM32G4xx_HAL_Driver/Src/stm32g4xx_hal_rcc.c ****       if ((HAL_GetTick() - tickstart) > CLOCKSWITCH_TIMEOUT_VALUE)
 869:Drivers/STM32G4xx_HAL_Driver/Src/stm32g4xx_hal_rcc.c ****       {
 870:Drivers/STM32G4xx_HAL_Driver/Src/stm32g4xx_hal_rcc.c ****         return HAL_TIMEOUT;
 871:Drivers/STM32G4xx_HAL_Driver/Src/stm32g4xx_hal_rcc.c ****       }
 872:Drivers/STM32G4xx_HAL_Driver/Src/stm32g4xx_hal_rcc.c ****     }
 873:Drivers/STM32G4xx_HAL_Driver/Src/stm32g4xx_hal_rcc.c ****   }
 874:Drivers/STM32G4xx_HAL_Driver/Src/stm32g4xx_hal_rcc.c **** 
 875:Drivers/STM32G4xx_HAL_Driver/Src/stm32g4xx_hal_rcc.c ****   /*-------------------------- HCLK Configuration --------------------------*/
 876:Drivers/STM32G4xx_HAL_Driver/Src/stm32g4xx_hal_rcc.c ****   if (((RCC_ClkInitStruct->ClockType) & RCC_CLOCKTYPE_HCLK) == RCC_CLOCKTYPE_HCLK)
 877:Drivers/STM32G4xx_HAL_Driver/Src/stm32g4xx_hal_rcc.c ****   {
 878:Drivers/STM32G4xx_HAL_Driver/Src/stm32g4xx_hal_rcc.c ****     /* Set the highest APB divider in order to ensure that we do not go through
 879:Drivers/STM32G4xx_HAL_Driver/Src/stm32g4xx_hal_rcc.c ****        a non-spec phase whatever we decrease or increase HCLK. */
 880:Drivers/STM32G4xx_HAL_Driver/Src/stm32g4xx_hal_rcc.c ****     if (((RCC_ClkInitStruct->ClockType) & RCC_CLOCKTYPE_PCLK1) == RCC_CLOCKTYPE_PCLK1)
ARM GAS  /tmp/ccMcPfSr.s 			page 42


 881:Drivers/STM32G4xx_HAL_Driver/Src/stm32g4xx_hal_rcc.c ****     {
 882:Drivers/STM32G4xx_HAL_Driver/Src/stm32g4xx_hal_rcc.c ****       MODIFY_REG(RCC->CFGR, RCC_CFGR_PPRE1, RCC_HCLK_DIV16);
 883:Drivers/STM32G4xx_HAL_Driver/Src/stm32g4xx_hal_rcc.c ****     }
 884:Drivers/STM32G4xx_HAL_Driver/Src/stm32g4xx_hal_rcc.c ****     if (((RCC_ClkInitStruct->ClockType) & RCC_CLOCKTYPE_PCLK2) == RCC_CLOCKTYPE_PCLK2)
 885:Drivers/STM32G4xx_HAL_Driver/Src/stm32g4xx_hal_rcc.c ****     {
 886:Drivers/STM32G4xx_HAL_Driver/Src/stm32g4xx_hal_rcc.c ****       MODIFY_REG(RCC->CFGR, RCC_CFGR_PPRE2, RCC_HCLK_DIV16);
 887:Drivers/STM32G4xx_HAL_Driver/Src/stm32g4xx_hal_rcc.c ****     }
 888:Drivers/STM32G4xx_HAL_Driver/Src/stm32g4xx_hal_rcc.c **** 
 889:Drivers/STM32G4xx_HAL_Driver/Src/stm32g4xx_hal_rcc.c ****     /* Set the new HCLK clock divider */
 890:Drivers/STM32G4xx_HAL_Driver/Src/stm32g4xx_hal_rcc.c ****     assert_param(IS_RCC_HCLK(RCC_ClkInitStruct->AHBCLKDivider));
 891:Drivers/STM32G4xx_HAL_Driver/Src/stm32g4xx_hal_rcc.c ****     MODIFY_REG(RCC->CFGR, RCC_CFGR_HPRE, RCC_ClkInitStruct->AHBCLKDivider);
 892:Drivers/STM32G4xx_HAL_Driver/Src/stm32g4xx_hal_rcc.c ****   }
 893:Drivers/STM32G4xx_HAL_Driver/Src/stm32g4xx_hal_rcc.c ****   else
 894:Drivers/STM32G4xx_HAL_Driver/Src/stm32g4xx_hal_rcc.c ****   {
 895:Drivers/STM32G4xx_HAL_Driver/Src/stm32g4xx_hal_rcc.c ****     /* Is intermediate HCLK prescaler 2 applied internally, complete with HCLK prescaler 1 */
 896:Drivers/STM32G4xx_HAL_Driver/Src/stm32g4xx_hal_rcc.c ****     if(hpre == RCC_SYSCLK_DIV2)
 897:Drivers/STM32G4xx_HAL_Driver/Src/stm32g4xx_hal_rcc.c ****     {
 898:Drivers/STM32G4xx_HAL_Driver/Src/stm32g4xx_hal_rcc.c ****       MODIFY_REG(RCC->CFGR, RCC_CFGR_HPRE, RCC_SYSCLK_DIV1);
 899:Drivers/STM32G4xx_HAL_Driver/Src/stm32g4xx_hal_rcc.c ****     }
 900:Drivers/STM32G4xx_HAL_Driver/Src/stm32g4xx_hal_rcc.c ****   }
 901:Drivers/STM32G4xx_HAL_Driver/Src/stm32g4xx_hal_rcc.c **** 
 902:Drivers/STM32G4xx_HAL_Driver/Src/stm32g4xx_hal_rcc.c ****   /* Decreasing the number of wait states because of lower CPU frequency */
 903:Drivers/STM32G4xx_HAL_Driver/Src/stm32g4xx_hal_rcc.c ****   if (FLatency < __HAL_FLASH_GET_LATENCY())
 904:Drivers/STM32G4xx_HAL_Driver/Src/stm32g4xx_hal_rcc.c ****   {
 905:Drivers/STM32G4xx_HAL_Driver/Src/stm32g4xx_hal_rcc.c ****     /* Program the new number of wait states to the LATENCY bits in the FLASH_ACR register */
 906:Drivers/STM32G4xx_HAL_Driver/Src/stm32g4xx_hal_rcc.c ****     __HAL_FLASH_SET_LATENCY(FLatency);
 907:Drivers/STM32G4xx_HAL_Driver/Src/stm32g4xx_hal_rcc.c **** 
 908:Drivers/STM32G4xx_HAL_Driver/Src/stm32g4xx_hal_rcc.c ****     /* Check that the new number of wait states is taken into account to access the Flash
 909:Drivers/STM32G4xx_HAL_Driver/Src/stm32g4xx_hal_rcc.c ****     memory by polling the FLASH_ACR register */
 910:Drivers/STM32G4xx_HAL_Driver/Src/stm32g4xx_hal_rcc.c ****     tickstart = HAL_GetTick();
 911:Drivers/STM32G4xx_HAL_Driver/Src/stm32g4xx_hal_rcc.c **** 
 912:Drivers/STM32G4xx_HAL_Driver/Src/stm32g4xx_hal_rcc.c ****     while (__HAL_FLASH_GET_LATENCY() != FLatency)
 913:Drivers/STM32G4xx_HAL_Driver/Src/stm32g4xx_hal_rcc.c ****     {
 914:Drivers/STM32G4xx_HAL_Driver/Src/stm32g4xx_hal_rcc.c ****       if ((HAL_GetTick() - tickstart) > CLOCKSWITCH_TIMEOUT_VALUE)
 915:Drivers/STM32G4xx_HAL_Driver/Src/stm32g4xx_hal_rcc.c ****       {
 916:Drivers/STM32G4xx_HAL_Driver/Src/stm32g4xx_hal_rcc.c ****         return HAL_TIMEOUT;
 917:Drivers/STM32G4xx_HAL_Driver/Src/stm32g4xx_hal_rcc.c ****       }
 918:Drivers/STM32G4xx_HAL_Driver/Src/stm32g4xx_hal_rcc.c ****     }
 919:Drivers/STM32G4xx_HAL_Driver/Src/stm32g4xx_hal_rcc.c ****   }
 920:Drivers/STM32G4xx_HAL_Driver/Src/stm32g4xx_hal_rcc.c **** 
 921:Drivers/STM32G4xx_HAL_Driver/Src/stm32g4xx_hal_rcc.c ****   /*-------------------------- PCLK1 Configuration ---------------------------*/
 922:Drivers/STM32G4xx_HAL_Driver/Src/stm32g4xx_hal_rcc.c ****   if (((RCC_ClkInitStruct->ClockType) & RCC_CLOCKTYPE_PCLK1) == RCC_CLOCKTYPE_PCLK1)
 923:Drivers/STM32G4xx_HAL_Driver/Src/stm32g4xx_hal_rcc.c ****   {
 924:Drivers/STM32G4xx_HAL_Driver/Src/stm32g4xx_hal_rcc.c ****     assert_param(IS_RCC_PCLK(RCC_ClkInitStruct->APB1CLKDivider));
 925:Drivers/STM32G4xx_HAL_Driver/Src/stm32g4xx_hal_rcc.c ****     MODIFY_REG(RCC->CFGR, RCC_CFGR_PPRE1, RCC_ClkInitStruct->APB1CLKDivider);
 926:Drivers/STM32G4xx_HAL_Driver/Src/stm32g4xx_hal_rcc.c ****   }
 927:Drivers/STM32G4xx_HAL_Driver/Src/stm32g4xx_hal_rcc.c **** 
 928:Drivers/STM32G4xx_HAL_Driver/Src/stm32g4xx_hal_rcc.c ****   /*-------------------------- PCLK2 Configuration ---------------------------*/
 929:Drivers/STM32G4xx_HAL_Driver/Src/stm32g4xx_hal_rcc.c ****   if(((RCC_ClkInitStruct->ClockType) & RCC_CLOCKTYPE_PCLK2) == RCC_CLOCKTYPE_PCLK2)
 930:Drivers/STM32G4xx_HAL_Driver/Src/stm32g4xx_hal_rcc.c ****   {
 931:Drivers/STM32G4xx_HAL_Driver/Src/stm32g4xx_hal_rcc.c ****     assert_param(IS_RCC_PCLK(RCC_ClkInitStruct->APB2CLKDivider));
 932:Drivers/STM32G4xx_HAL_Driver/Src/stm32g4xx_hal_rcc.c ****     MODIFY_REG(RCC->CFGR, RCC_CFGR_PPRE2, ((RCC_ClkInitStruct->APB2CLKDivider) << 3U));
 933:Drivers/STM32G4xx_HAL_Driver/Src/stm32g4xx_hal_rcc.c ****   }
 934:Drivers/STM32G4xx_HAL_Driver/Src/stm32g4xx_hal_rcc.c **** 
 935:Drivers/STM32G4xx_HAL_Driver/Src/stm32g4xx_hal_rcc.c ****   /* Update the SystemCoreClock global variable */
 936:Drivers/STM32G4xx_HAL_Driver/Src/stm32g4xx_hal_rcc.c ****   SystemCoreClock = HAL_RCC_GetSysClockFreq() >> (AHBPrescTable[READ_BIT(RCC->CFGR, RCC_CFGR_HPRE) 
 937:Drivers/STM32G4xx_HAL_Driver/Src/stm32g4xx_hal_rcc.c **** 
ARM GAS  /tmp/ccMcPfSr.s 			page 43


 938:Drivers/STM32G4xx_HAL_Driver/Src/stm32g4xx_hal_rcc.c ****   /* Configure the source of time base considering new system clocks settings*/
 939:Drivers/STM32G4xx_HAL_Driver/Src/stm32g4xx_hal_rcc.c ****   return HAL_InitTick(uwTickPrio);
 940:Drivers/STM32G4xx_HAL_Driver/Src/stm32g4xx_hal_rcc.c **** }
 941:Drivers/STM32G4xx_HAL_Driver/Src/stm32g4xx_hal_rcc.c **** 
 942:Drivers/STM32G4xx_HAL_Driver/Src/stm32g4xx_hal_rcc.c **** /**
 943:Drivers/STM32G4xx_HAL_Driver/Src/stm32g4xx_hal_rcc.c ****   * @}
 944:Drivers/STM32G4xx_HAL_Driver/Src/stm32g4xx_hal_rcc.c ****   */
 945:Drivers/STM32G4xx_HAL_Driver/Src/stm32g4xx_hal_rcc.c **** 
 946:Drivers/STM32G4xx_HAL_Driver/Src/stm32g4xx_hal_rcc.c **** /** @defgroup RCC_Exported_Functions_Group2 Peripheral Control functions
 947:Drivers/STM32G4xx_HAL_Driver/Src/stm32g4xx_hal_rcc.c ****  *  @brief   RCC clocks control functions
 948:Drivers/STM32G4xx_HAL_Driver/Src/stm32g4xx_hal_rcc.c ****  *
 949:Drivers/STM32G4xx_HAL_Driver/Src/stm32g4xx_hal_rcc.c **** @verbatim
 950:Drivers/STM32G4xx_HAL_Driver/Src/stm32g4xx_hal_rcc.c ****  ===============================================================================
 951:Drivers/STM32G4xx_HAL_Driver/Src/stm32g4xx_hal_rcc.c ****                       ##### Peripheral Control functions #####
 952:Drivers/STM32G4xx_HAL_Driver/Src/stm32g4xx_hal_rcc.c ****  ===============================================================================
 953:Drivers/STM32G4xx_HAL_Driver/Src/stm32g4xx_hal_rcc.c ****     [..]
 954:Drivers/STM32G4xx_HAL_Driver/Src/stm32g4xx_hal_rcc.c ****     This subsection provides a set of functions allowing to:
 955:Drivers/STM32G4xx_HAL_Driver/Src/stm32g4xx_hal_rcc.c **** 
 956:Drivers/STM32G4xx_HAL_Driver/Src/stm32g4xx_hal_rcc.c ****     (+) Output clock to MCO pin.
 957:Drivers/STM32G4xx_HAL_Driver/Src/stm32g4xx_hal_rcc.c ****     (+) Retrieve current clock frequencies.
 958:Drivers/STM32G4xx_HAL_Driver/Src/stm32g4xx_hal_rcc.c ****     (+) Enable the Clock Security System.
 959:Drivers/STM32G4xx_HAL_Driver/Src/stm32g4xx_hal_rcc.c **** 
 960:Drivers/STM32G4xx_HAL_Driver/Src/stm32g4xx_hal_rcc.c **** @endverbatim
 961:Drivers/STM32G4xx_HAL_Driver/Src/stm32g4xx_hal_rcc.c ****   * @{
 962:Drivers/STM32G4xx_HAL_Driver/Src/stm32g4xx_hal_rcc.c ****   */
 963:Drivers/STM32G4xx_HAL_Driver/Src/stm32g4xx_hal_rcc.c **** 
 964:Drivers/STM32G4xx_HAL_Driver/Src/stm32g4xx_hal_rcc.c **** /**
 965:Drivers/STM32G4xx_HAL_Driver/Src/stm32g4xx_hal_rcc.c ****   * @brief  Select the clock source to output on MCO pin(PA8/PG10).
 966:Drivers/STM32G4xx_HAL_Driver/Src/stm32g4xx_hal_rcc.c ****   * @note   PA8/PG10 should be configured in alternate function mode.
 967:Drivers/STM32G4xx_HAL_Driver/Src/stm32g4xx_hal_rcc.c ****   * @note   The default configuration of the GPIOG pin 10 (PG10) is set to reset mode (NRST pin)
 968:Drivers/STM32G4xx_HAL_Driver/Src/stm32g4xx_hal_rcc.c ****   *         and user shall set the NRST_MODE Bit in the FLASH OPTR register to be able to use it 
 969:Drivers/STM32G4xx_HAL_Driver/Src/stm32g4xx_hal_rcc.c ****   *         as an MCO pin.
 970:Drivers/STM32G4xx_HAL_Driver/Src/stm32g4xx_hal_rcc.c ****   *         The @ref HAL_FLASHEx_OBProgram() API can be used to configure the NRST_MODE Bit value.
 971:Drivers/STM32G4xx_HAL_Driver/Src/stm32g4xx_hal_rcc.c ****   * @param  RCC_MCOx  specifies the output direction for the clock source.
 972:Drivers/STM32G4xx_HAL_Driver/Src/stm32g4xx_hal_rcc.c ****   *          For STM32G4xx family this parameter can have only one value:
 973:Drivers/STM32G4xx_HAL_Driver/Src/stm32g4xx_hal_rcc.c ****   *            @arg @ref RCC_MCO_PA8  Clock source to output on MCO1 pin(PA8).
 974:Drivers/STM32G4xx_HAL_Driver/Src/stm32g4xx_hal_rcc.c ****   *            @arg @ref RCC_MCO_PG10  Clock source to output on MCO1 pin(PG10).
 975:Drivers/STM32G4xx_HAL_Driver/Src/stm32g4xx_hal_rcc.c ****   * @param  RCC_MCOSource  specifies the clock source to output.
 976:Drivers/STM32G4xx_HAL_Driver/Src/stm32g4xx_hal_rcc.c ****   *          This parameter can be one of the following values:
 977:Drivers/STM32G4xx_HAL_Driver/Src/stm32g4xx_hal_rcc.c ****   *            @arg @ref RCC_MCO1SOURCE_NOCLOCK  MCO output disabled, no clock on MCO
 978:Drivers/STM32G4xx_HAL_Driver/Src/stm32g4xx_hal_rcc.c ****   *            @arg @ref RCC_MCO1SOURCE_SYSCLK  system  clock selected as MCO source
 979:Drivers/STM32G4xx_HAL_Driver/Src/stm32g4xx_hal_rcc.c ****   *            @arg @ref RCC_MCO1SOURCE_HSI  HSI clock selected as MCO source
 980:Drivers/STM32G4xx_HAL_Driver/Src/stm32g4xx_hal_rcc.c ****   *            @arg @ref RCC_MCO1SOURCE_HSE  HSE clock selected as MCO source
 981:Drivers/STM32G4xx_HAL_Driver/Src/stm32g4xx_hal_rcc.c ****   *            @arg @ref RCC_MCO1SOURCE_PLLCLK  main PLL clock selected as MCO source
 982:Drivers/STM32G4xx_HAL_Driver/Src/stm32g4xx_hal_rcc.c ****   *            @arg @ref RCC_MCO1SOURCE_LSI  LSI clock selected as MCO source
 983:Drivers/STM32G4xx_HAL_Driver/Src/stm32g4xx_hal_rcc.c ****   *            @arg @ref RCC_MCO1SOURCE_LSE  LSE clock selected as MCO source
 984:Drivers/STM32G4xx_HAL_Driver/Src/stm32g4xx_hal_rcc.c ****   *            @arg @ref RCC_MCO1SOURCE_HSI48  HSI48 clock selected as MCO source for devices with 
 985:Drivers/STM32G4xx_HAL_Driver/Src/stm32g4xx_hal_rcc.c ****   * @param  RCC_MCODiv  specifies the MCO prescaler.
 986:Drivers/STM32G4xx_HAL_Driver/Src/stm32g4xx_hal_rcc.c ****   *          This parameter can be one of the following values:
 987:Drivers/STM32G4xx_HAL_Driver/Src/stm32g4xx_hal_rcc.c ****   *            @arg @ref RCC_MCODIV_1  no division applied to MCO clock
 988:Drivers/STM32G4xx_HAL_Driver/Src/stm32g4xx_hal_rcc.c ****   *            @arg @ref RCC_MCODIV_2  division by 2 applied to MCO clock
 989:Drivers/STM32G4xx_HAL_Driver/Src/stm32g4xx_hal_rcc.c ****   *            @arg @ref RCC_MCODIV_4  division by 4 applied to MCO clock
 990:Drivers/STM32G4xx_HAL_Driver/Src/stm32g4xx_hal_rcc.c ****   *            @arg @ref RCC_MCODIV_8  division by 8 applied to MCO clock
 991:Drivers/STM32G4xx_HAL_Driver/Src/stm32g4xx_hal_rcc.c ****   *            @arg @ref RCC_MCODIV_16  division by 16 applied to MCO clock
 992:Drivers/STM32G4xx_HAL_Driver/Src/stm32g4xx_hal_rcc.c ****   * @retval None
 993:Drivers/STM32G4xx_HAL_Driver/Src/stm32g4xx_hal_rcc.c ****   */
 994:Drivers/STM32G4xx_HAL_Driver/Src/stm32g4xx_hal_rcc.c **** void HAL_RCC_MCOConfig(uint32_t RCC_MCOx, uint32_t RCC_MCOSource, uint32_t RCC_MCODiv)
ARM GAS  /tmp/ccMcPfSr.s 			page 44


 995:Drivers/STM32G4xx_HAL_Driver/Src/stm32g4xx_hal_rcc.c **** {
 1274              		.loc 1 995 1 is_stmt 1 view -0
 1275              		.cfi_startproc
 1276              		@ args = 0, pretend = 0, frame = 24
 1277              		@ frame_needed = 0, uses_anonymous_args = 0
 1278              		.loc 1 995 1 is_stmt 0 view .LVU416
 1279 0000 70B5     		push	{r4, r5, r6, lr}
 1280              	.LCFI7:
 1281              		.cfi_def_cfa_offset 16
 1282              		.cfi_offset 4, -16
 1283              		.cfi_offset 5, -12
 1284              		.cfi_offset 6, -8
 1285              		.cfi_offset 14, -4
 1286 0002 86B0     		sub	sp, sp, #24
 1287              	.LCFI8:
 1288              		.cfi_def_cfa_offset 40
 1289 0004 0446     		mov	r4, r0
 1290 0006 0D46     		mov	r5, r1
 1291 0008 1646     		mov	r6, r2
 996:Drivers/STM32G4xx_HAL_Driver/Src/stm32g4xx_hal_rcc.c ****   GPIO_InitTypeDef gpio_initstruct;
 1292              		.loc 1 996 3 is_stmt 1 view .LVU417
 997:Drivers/STM32G4xx_HAL_Driver/Src/stm32g4xx_hal_rcc.c ****   uint32_t mcoindex;
 1293              		.loc 1 997 3 view .LVU418
 998:Drivers/STM32G4xx_HAL_Driver/Src/stm32g4xx_hal_rcc.c ****   uint32_t mco_gpio_index;
 1294              		.loc 1 998 3 view .LVU419
 999:Drivers/STM32G4xx_HAL_Driver/Src/stm32g4xx_hal_rcc.c ****   GPIO_TypeDef * mco_gpio_port;
 1295              		.loc 1 999 3 view .LVU420
1000:Drivers/STM32G4xx_HAL_Driver/Src/stm32g4xx_hal_rcc.c **** 
1001:Drivers/STM32G4xx_HAL_Driver/Src/stm32g4xx_hal_rcc.c ****   /* Check the parameters */
1002:Drivers/STM32G4xx_HAL_Driver/Src/stm32g4xx_hal_rcc.c ****   assert_param(IS_RCC_MCO(RCC_MCOx));
 1296              		.loc 1 1002 3 view .LVU421
1003:Drivers/STM32G4xx_HAL_Driver/Src/stm32g4xx_hal_rcc.c **** 
1004:Drivers/STM32G4xx_HAL_Driver/Src/stm32g4xx_hal_rcc.c ****   /* Common GPIO init parameters */
1005:Drivers/STM32G4xx_HAL_Driver/Src/stm32g4xx_hal_rcc.c ****   gpio_initstruct.Mode      = GPIO_MODE_AF_PP;
 1297              		.loc 1 1005 3 view .LVU422
 1298              		.loc 1 1005 29 is_stmt 0 view .LVU423
 1299 000a 0223     		movs	r3, #2
 1300 000c 0293     		str	r3, [sp, #8]
1006:Drivers/STM32G4xx_HAL_Driver/Src/stm32g4xx_hal_rcc.c ****   gpio_initstruct.Speed     = GPIO_SPEED_FREQ_VERY_HIGH;
 1301              		.loc 1 1006 3 is_stmt 1 view .LVU424
 1302              		.loc 1 1006 29 is_stmt 0 view .LVU425
 1303 000e 0323     		movs	r3, #3
 1304 0010 0493     		str	r3, [sp, #16]
1007:Drivers/STM32G4xx_HAL_Driver/Src/stm32g4xx_hal_rcc.c ****   gpio_initstruct.Pull      = GPIO_NOPULL;
 1305              		.loc 1 1007 3 is_stmt 1 view .LVU426
 1306              		.loc 1 1007 29 is_stmt 0 view .LVU427
 1307 0012 0023     		movs	r3, #0
 1308 0014 0393     		str	r3, [sp, #12]
1008:Drivers/STM32G4xx_HAL_Driver/Src/stm32g4xx_hal_rcc.c **** 
1009:Drivers/STM32G4xx_HAL_Driver/Src/stm32g4xx_hal_rcc.c ****   /* Get MCOx selection */
1010:Drivers/STM32G4xx_HAL_Driver/Src/stm32g4xx_hal_rcc.c ****   mcoindex = RCC_MCOx & RCC_MCO_INDEX_MASK;
 1309              		.loc 1 1010 3 is_stmt 1 view .LVU428
 1310              	.LVL117:
1011:Drivers/STM32G4xx_HAL_Driver/Src/stm32g4xx_hal_rcc.c **** 
1012:Drivers/STM32G4xx_HAL_Driver/Src/stm32g4xx_hal_rcc.c ****   /* Get MCOx GPIO Port */
1013:Drivers/STM32G4xx_HAL_Driver/Src/stm32g4xx_hal_rcc.c ****   mco_gpio_port = (GPIO_TypeDef *) RCC_GET_MCO_GPIO_PORT(RCC_MCOx);
 1311              		.loc 1 1013 3 view .LVU429
ARM GAS  /tmp/ccMcPfSr.s 			page 45


 1312              		.loc 1 1013 36 is_stmt 0 view .LVU430
 1313 0016 C0F30340 		ubfx	r0, r0, #16, #4
 1314              	.LVL118:
1014:Drivers/STM32G4xx_HAL_Driver/Src/stm32g4xx_hal_rcc.c **** 
1015:Drivers/STM32G4xx_HAL_Driver/Src/stm32g4xx_hal_rcc.c ****   /* MCOx Clock Enable */
1016:Drivers/STM32G4xx_HAL_Driver/Src/stm32g4xx_hal_rcc.c ****   mco_gpio_index = RCC_GET_MCO_GPIO_INDEX(RCC_MCOx);
 1315              		.loc 1 1016 3 is_stmt 1 view .LVU431
1017:Drivers/STM32G4xx_HAL_Driver/Src/stm32g4xx_hal_rcc.c ****   SET_BIT(RCC->AHB2ENR, (1UL << mco_gpio_index ));
 1316              		.loc 1 1017 3 view .LVU432
 1317 001a 0F4A     		ldr	r2, .L130
 1318              	.LVL119:
 1319              		.loc 1 1017 3 is_stmt 0 view .LVU433
 1320 001c D16C     		ldr	r1, [r2, #76]
 1321              	.LVL120:
 1322              		.loc 1 1017 3 view .LVU434
 1323 001e 0123     		movs	r3, #1
 1324 0020 8340     		lsls	r3, r3, r0
 1325 0022 0B43     		orrs	r3, r3, r1
 1326 0024 D364     		str	r3, [r2, #76]
1018:Drivers/STM32G4xx_HAL_Driver/Src/stm32g4xx_hal_rcc.c **** 
1019:Drivers/STM32G4xx_HAL_Driver/Src/stm32g4xx_hal_rcc.c ****   /* Configure the MCOx pin in alternate function mode */
1020:Drivers/STM32G4xx_HAL_Driver/Src/stm32g4xx_hal_rcc.c ****   gpio_initstruct.Pin = RCC_GET_MCO_GPIO_PIN(RCC_MCOx);
 1327              		.loc 1 1020 3 is_stmt 1 view .LVU435
 1328              		.loc 1 1020 25 is_stmt 0 view .LVU436
 1329 0026 A3B2     		uxth	r3, r4
 1330              		.loc 1 1020 23 view .LVU437
 1331 0028 0193     		str	r3, [sp, #4]
1021:Drivers/STM32G4xx_HAL_Driver/Src/stm32g4xx_hal_rcc.c ****   gpio_initstruct.Alternate = RCC_GET_MCO_GPIO_AF(RCC_MCOx);
 1332              		.loc 1 1021 3 is_stmt 1 view .LVU438
 1333              		.loc 1 1021 31 is_stmt 0 view .LVU439
 1334 002a C4F30753 		ubfx	r3, r4, #20, #8
 1335              		.loc 1 1021 29 view .LVU440
 1336 002e 0593     		str	r3, [sp, #20]
1022:Drivers/STM32G4xx_HAL_Driver/Src/stm32g4xx_hal_rcc.c ****   HAL_GPIO_Init(mco_gpio_port, &gpio_initstruct);
 1337              		.loc 1 1022 3 is_stmt 1 view .LVU441
1013:Drivers/STM32G4xx_HAL_Driver/Src/stm32g4xx_hal_rcc.c **** 
 1338              		.loc 1 1013 36 is_stmt 0 view .LVU442
 1339 0030 00F59010 		add	r0, r0, #1179648
 1340              	.LVL121:
 1341              		.loc 1 1022 3 view .LVU443
 1342 0034 01A9     		add	r1, sp, #4
 1343 0036 8002     		lsls	r0, r0, #10
 1344              	.LVL122:
 1345              		.loc 1 1022 3 view .LVU444
 1346 0038 FFF7FEFF 		bl	HAL_GPIO_Init
 1347              	.LVL123:
1023:Drivers/STM32G4xx_HAL_Driver/Src/stm32g4xx_hal_rcc.c **** 
1024:Drivers/STM32G4xx_HAL_Driver/Src/stm32g4xx_hal_rcc.c ****    if (mcoindex == RCC_MCO1_INDEX)
 1348              		.loc 1 1024 4 is_stmt 1 view .LVU445
 1349              		.loc 1 1024 7 is_stmt 0 view .LVU446
 1350 003c 14F0805F 		tst	r4, #268435456
 1351 0040 07D1     		bne	.L127
1025:Drivers/STM32G4xx_HAL_Driver/Src/stm32g4xx_hal_rcc.c ****   {
1026:Drivers/STM32G4xx_HAL_Driver/Src/stm32g4xx_hal_rcc.c ****     assert_param(IS_RCC_MCODIV(RCC_MCODiv));
 1352              		.loc 1 1026 5 is_stmt 1 view .LVU447
1027:Drivers/STM32G4xx_HAL_Driver/Src/stm32g4xx_hal_rcc.c ****     assert_param(IS_RCC_MCO1SOURCE(RCC_MCOSource));
 1353              		.loc 1 1027 5 view .LVU448
ARM GAS  /tmp/ccMcPfSr.s 			page 46


1028:Drivers/STM32G4xx_HAL_Driver/Src/stm32g4xx_hal_rcc.c ****     /* Mask MCOSEL[] and MCOPRE[] bits then set MCO clock source and prescaler */
1029:Drivers/STM32G4xx_HAL_Driver/Src/stm32g4xx_hal_rcc.c ****     MODIFY_REG(RCC->CFGR, (RCC_CFGR_MCOSEL | RCC_CFGR_MCOPRE), (RCC_MCOSource | RCC_MCODiv));
 1354              		.loc 1 1029 5 view .LVU449
 1355 0042 054B     		ldr	r3, .L130
 1356 0044 9968     		ldr	r1, [r3, #8]
 1357 0046 21F0FE41 		bic	r1, r1, #2130706432
 1358 004a 41EA0602 		orr	r2, r1, r6
 1359 004e 2A43     		orrs	r2, r2, r5
 1360 0050 9A60     		str	r2, [r3, #8]
 1361              	.L127:
1030:Drivers/STM32G4xx_HAL_Driver/Src/stm32g4xx_hal_rcc.c ****   }
1031:Drivers/STM32G4xx_HAL_Driver/Src/stm32g4xx_hal_rcc.c **** }
 1362              		.loc 1 1031 1 is_stmt 0 view .LVU450
 1363 0052 06B0     		add	sp, sp, #24
 1364              	.LCFI9:
 1365              		.cfi_def_cfa_offset 16
 1366              		@ sp needed
 1367 0054 70BD     		pop	{r4, r5, r6, pc}
 1368              	.LVL124:
 1369              	.L131:
 1370              		.loc 1 1031 1 view .LVU451
 1371 0056 00BF     		.align	2
 1372              	.L130:
 1373 0058 00100240 		.word	1073876992
 1374              		.cfi_endproc
 1375              	.LFE135:
 1377              		.section	.text.HAL_RCC_GetSysClockFreq,"ax",%progbits
 1378              		.align	1
 1379              		.global	HAL_RCC_GetSysClockFreq
 1380              		.syntax unified
 1381              		.thumb
 1382              		.thumb_func
 1383              		.fpu fpv4-sp-d16
 1385              	HAL_RCC_GetSysClockFreq:
 1386              	.LFB136:
1032:Drivers/STM32G4xx_HAL_Driver/Src/stm32g4xx_hal_rcc.c **** 
1033:Drivers/STM32G4xx_HAL_Driver/Src/stm32g4xx_hal_rcc.c **** /**
1034:Drivers/STM32G4xx_HAL_Driver/Src/stm32g4xx_hal_rcc.c ****   * @brief  Return the SYSCLK frequency.
1035:Drivers/STM32G4xx_HAL_Driver/Src/stm32g4xx_hal_rcc.c ****   *
1036:Drivers/STM32G4xx_HAL_Driver/Src/stm32g4xx_hal_rcc.c ****   * @note   The system frequency computed by this function is not the real
1037:Drivers/STM32G4xx_HAL_Driver/Src/stm32g4xx_hal_rcc.c ****   *         frequency in the chip. It is calculated based on the predefined
1038:Drivers/STM32G4xx_HAL_Driver/Src/stm32g4xx_hal_rcc.c ****   *         constant and the selected clock source:
1039:Drivers/STM32G4xx_HAL_Driver/Src/stm32g4xx_hal_rcc.c ****   * @note     If SYSCLK source is HSI, function returns values based on HSI_VALUE(*)
1040:Drivers/STM32G4xx_HAL_Driver/Src/stm32g4xx_hal_rcc.c ****   * @note     If SYSCLK source is HSE, function returns values based on HSE_VALUE(**)
1041:Drivers/STM32G4xx_HAL_Driver/Src/stm32g4xx_hal_rcc.c ****   * @note     If SYSCLK source is PLL, function returns values based on HSE_VALUE(**),
1042:Drivers/STM32G4xx_HAL_Driver/Src/stm32g4xx_hal_rcc.c ****   *           HSI_VALUE(*) Value multiplied/divided by the PLL factors.
1043:Drivers/STM32G4xx_HAL_Driver/Src/stm32g4xx_hal_rcc.c ****   * @note     (*) HSI_VALUE is a constant defined in stm32g4xx_hal_conf.h file (default value
1044:Drivers/STM32G4xx_HAL_Driver/Src/stm32g4xx_hal_rcc.c ****   *               16 MHz) but the real value may vary depending on the variations
1045:Drivers/STM32G4xx_HAL_Driver/Src/stm32g4xx_hal_rcc.c ****   *               in voltage and temperature.
1046:Drivers/STM32G4xx_HAL_Driver/Src/stm32g4xx_hal_rcc.c ****   * @note     (**) HSE_VALUE is a constant defined in stm32g4xx_hal_conf.h file (default value
1047:Drivers/STM32G4xx_HAL_Driver/Src/stm32g4xx_hal_rcc.c ****   *                8 MHz), user has to ensure that HSE_VALUE is same as the real
1048:Drivers/STM32G4xx_HAL_Driver/Src/stm32g4xx_hal_rcc.c ****   *                frequency of the crystal used. Otherwise, this function may
1049:Drivers/STM32G4xx_HAL_Driver/Src/stm32g4xx_hal_rcc.c ****   *                have wrong result.
1050:Drivers/STM32G4xx_HAL_Driver/Src/stm32g4xx_hal_rcc.c ****   *
1051:Drivers/STM32G4xx_HAL_Driver/Src/stm32g4xx_hal_rcc.c ****   * @note   The result of this function could be not correct when using fractional
1052:Drivers/STM32G4xx_HAL_Driver/Src/stm32g4xx_hal_rcc.c ****   *         value for HSE crystal.
1053:Drivers/STM32G4xx_HAL_Driver/Src/stm32g4xx_hal_rcc.c ****   *
ARM GAS  /tmp/ccMcPfSr.s 			page 47


1054:Drivers/STM32G4xx_HAL_Driver/Src/stm32g4xx_hal_rcc.c ****   * @note   This function can be used by the user application to compute the
1055:Drivers/STM32G4xx_HAL_Driver/Src/stm32g4xx_hal_rcc.c ****   *         baudrate for the communication peripherals or configure other parameters.
1056:Drivers/STM32G4xx_HAL_Driver/Src/stm32g4xx_hal_rcc.c ****   *
1057:Drivers/STM32G4xx_HAL_Driver/Src/stm32g4xx_hal_rcc.c ****   * @note   Each time SYSCLK changes, this function must be called to update the
1058:Drivers/STM32G4xx_HAL_Driver/Src/stm32g4xx_hal_rcc.c ****   *         right SYSCLK value. Otherwise, any configuration based on this function will be incorre
1059:Drivers/STM32G4xx_HAL_Driver/Src/stm32g4xx_hal_rcc.c ****   *
1060:Drivers/STM32G4xx_HAL_Driver/Src/stm32g4xx_hal_rcc.c ****   *
1061:Drivers/STM32G4xx_HAL_Driver/Src/stm32g4xx_hal_rcc.c ****   * @retval SYSCLK frequency
1062:Drivers/STM32G4xx_HAL_Driver/Src/stm32g4xx_hal_rcc.c ****   */
1063:Drivers/STM32G4xx_HAL_Driver/Src/stm32g4xx_hal_rcc.c **** uint32_t HAL_RCC_GetSysClockFreq(void)
1064:Drivers/STM32G4xx_HAL_Driver/Src/stm32g4xx_hal_rcc.c **** {
 1387              		.loc 1 1064 1 is_stmt 1 view -0
 1388              		.cfi_startproc
 1389              		@ args = 0, pretend = 0, frame = 0
 1390              		@ frame_needed = 0, uses_anonymous_args = 0
 1391              		@ link register save eliminated.
1065:Drivers/STM32G4xx_HAL_Driver/Src/stm32g4xx_hal_rcc.c ****   uint32_t pllvco, pllsource, pllr, pllm;
 1392              		.loc 1 1065 3 view .LVU453
1066:Drivers/STM32G4xx_HAL_Driver/Src/stm32g4xx_hal_rcc.c ****   uint32_t sysclockfreq;
 1393              		.loc 1 1066 3 view .LVU454
1067:Drivers/STM32G4xx_HAL_Driver/Src/stm32g4xx_hal_rcc.c **** 
1068:Drivers/STM32G4xx_HAL_Driver/Src/stm32g4xx_hal_rcc.c ****   if (__HAL_RCC_GET_SYSCLK_SOURCE() == RCC_CFGR_SWS_HSI)
 1394              		.loc 1 1068 3 view .LVU455
 1395              		.loc 1 1068 7 is_stmt 0 view .LVU456
 1396 0000 1A4B     		ldr	r3, .L140
 1397 0002 9B68     		ldr	r3, [r3, #8]
 1398 0004 03F00C03 		and	r3, r3, #12
 1399              		.loc 1 1068 6 view .LVU457
 1400 0008 042B     		cmp	r3, #4
 1401 000a 2AD0     		beq	.L136
1069:Drivers/STM32G4xx_HAL_Driver/Src/stm32g4xx_hal_rcc.c ****   {
1070:Drivers/STM32G4xx_HAL_Driver/Src/stm32g4xx_hal_rcc.c ****     /* HSI used as system clock source */
1071:Drivers/STM32G4xx_HAL_Driver/Src/stm32g4xx_hal_rcc.c ****     sysclockfreq = HSI_VALUE;
1072:Drivers/STM32G4xx_HAL_Driver/Src/stm32g4xx_hal_rcc.c ****   }
1073:Drivers/STM32G4xx_HAL_Driver/Src/stm32g4xx_hal_rcc.c ****   else if (__HAL_RCC_GET_SYSCLK_SOURCE() == RCC_CFGR_SWS_HSE)
 1402              		.loc 1 1073 8 is_stmt 1 view .LVU458
 1403              		.loc 1 1073 12 is_stmt 0 view .LVU459
 1404 000c 174B     		ldr	r3, .L140
 1405 000e 9B68     		ldr	r3, [r3, #8]
 1406 0010 03F00C03 		and	r3, r3, #12
 1407              		.loc 1 1073 11 view .LVU460
 1408 0014 082B     		cmp	r3, #8
 1409 0016 26D0     		beq	.L137
1074:Drivers/STM32G4xx_HAL_Driver/Src/stm32g4xx_hal_rcc.c ****   {
1075:Drivers/STM32G4xx_HAL_Driver/Src/stm32g4xx_hal_rcc.c ****     /* HSE used as system clock source */
1076:Drivers/STM32G4xx_HAL_Driver/Src/stm32g4xx_hal_rcc.c ****     sysclockfreq = HSE_VALUE;
1077:Drivers/STM32G4xx_HAL_Driver/Src/stm32g4xx_hal_rcc.c ****   }
1078:Drivers/STM32G4xx_HAL_Driver/Src/stm32g4xx_hal_rcc.c ****   else if (__HAL_RCC_GET_SYSCLK_SOURCE() == RCC_CFGR_SWS_PLL)
 1410              		.loc 1 1078 8 is_stmt 1 view .LVU461
 1411              		.loc 1 1078 12 is_stmt 0 view .LVU462
 1412 0018 144B     		ldr	r3, .L140
 1413 001a 9B68     		ldr	r3, [r3, #8]
 1414 001c 03F00C03 		and	r3, r3, #12
 1415              		.loc 1 1078 11 view .LVU463
 1416 0020 0C2B     		cmp	r3, #12
 1417 0022 01D0     		beq	.L139
1079:Drivers/STM32G4xx_HAL_Driver/Src/stm32g4xx_hal_rcc.c ****   {
ARM GAS  /tmp/ccMcPfSr.s 			page 48


1080:Drivers/STM32G4xx_HAL_Driver/Src/stm32g4xx_hal_rcc.c ****     /* PLL used as system clock  source */
1081:Drivers/STM32G4xx_HAL_Driver/Src/stm32g4xx_hal_rcc.c **** 
1082:Drivers/STM32G4xx_HAL_Driver/Src/stm32g4xx_hal_rcc.c ****     /* PLL_VCO = ((HSE_VALUE or HSI_VALUE)/ PLLM) * PLLN
1083:Drivers/STM32G4xx_HAL_Driver/Src/stm32g4xx_hal_rcc.c ****     SYSCLK = PLL_VCO / PLLR
1084:Drivers/STM32G4xx_HAL_Driver/Src/stm32g4xx_hal_rcc.c ****     */
1085:Drivers/STM32G4xx_HAL_Driver/Src/stm32g4xx_hal_rcc.c ****     pllsource = READ_BIT(RCC->PLLCFGR, RCC_PLLCFGR_PLLSRC);
1086:Drivers/STM32G4xx_HAL_Driver/Src/stm32g4xx_hal_rcc.c ****     pllm = (READ_BIT(RCC->PLLCFGR, RCC_PLLCFGR_PLLM) >> RCC_PLLCFGR_PLLM_Pos) + 1U ;
1087:Drivers/STM32G4xx_HAL_Driver/Src/stm32g4xx_hal_rcc.c **** 
1088:Drivers/STM32G4xx_HAL_Driver/Src/stm32g4xx_hal_rcc.c ****     switch (pllsource)
1089:Drivers/STM32G4xx_HAL_Driver/Src/stm32g4xx_hal_rcc.c ****     {
1090:Drivers/STM32G4xx_HAL_Driver/Src/stm32g4xx_hal_rcc.c ****     case RCC_PLLSOURCE_HSE:  /* HSE used as PLL clock source */
1091:Drivers/STM32G4xx_HAL_Driver/Src/stm32g4xx_hal_rcc.c ****       pllvco = (HSE_VALUE / pllm) * (READ_BIT(RCC->PLLCFGR, RCC_PLLCFGR_PLLN) >> RCC_PLLCFGR_PLLN_P
1092:Drivers/STM32G4xx_HAL_Driver/Src/stm32g4xx_hal_rcc.c ****       break;
1093:Drivers/STM32G4xx_HAL_Driver/Src/stm32g4xx_hal_rcc.c **** 
1094:Drivers/STM32G4xx_HAL_Driver/Src/stm32g4xx_hal_rcc.c ****     case RCC_PLLSOURCE_HSI:  /* HSI used as PLL clock source */
1095:Drivers/STM32G4xx_HAL_Driver/Src/stm32g4xx_hal_rcc.c ****     default:
1096:Drivers/STM32G4xx_HAL_Driver/Src/stm32g4xx_hal_rcc.c ****       pllvco = (HSI_VALUE / pllm) * (READ_BIT(RCC->PLLCFGR, RCC_PLLCFGR_PLLN) >> RCC_PLLCFGR_PLLN_P
1097:Drivers/STM32G4xx_HAL_Driver/Src/stm32g4xx_hal_rcc.c ****       break;
1098:Drivers/STM32G4xx_HAL_Driver/Src/stm32g4xx_hal_rcc.c ****     }
1099:Drivers/STM32G4xx_HAL_Driver/Src/stm32g4xx_hal_rcc.c ****     pllr = ((READ_BIT(RCC->PLLCFGR, RCC_PLLCFGR_PLLR) >> RCC_PLLCFGR_PLLR_Pos) + 1U ) * 2U;
1100:Drivers/STM32G4xx_HAL_Driver/Src/stm32g4xx_hal_rcc.c ****     sysclockfreq = pllvco/pllr;
1101:Drivers/STM32G4xx_HAL_Driver/Src/stm32g4xx_hal_rcc.c ****   }
1102:Drivers/STM32G4xx_HAL_Driver/Src/stm32g4xx_hal_rcc.c ****   else
1103:Drivers/STM32G4xx_HAL_Driver/Src/stm32g4xx_hal_rcc.c ****   {
1104:Drivers/STM32G4xx_HAL_Driver/Src/stm32g4xx_hal_rcc.c ****     sysclockfreq = 0U;
 1418              		.loc 1 1104 18 view .LVU464
 1419 0024 0020     		movs	r0, #0
 1420              	.LVL125:
1105:Drivers/STM32G4xx_HAL_Driver/Src/stm32g4xx_hal_rcc.c ****   }
1106:Drivers/STM32G4xx_HAL_Driver/Src/stm32g4xx_hal_rcc.c **** 
1107:Drivers/STM32G4xx_HAL_Driver/Src/stm32g4xx_hal_rcc.c ****   return sysclockfreq;
 1421              		.loc 1 1107 3 is_stmt 1 view .LVU465
1108:Drivers/STM32G4xx_HAL_Driver/Src/stm32g4xx_hal_rcc.c **** }
 1422              		.loc 1 1108 1 is_stmt 0 view .LVU466
 1423 0026 7047     		bx	lr
 1424              	.LVL126:
 1425              	.L139:
1085:Drivers/STM32G4xx_HAL_Driver/Src/stm32g4xx_hal_rcc.c ****     pllm = (READ_BIT(RCC->PLLCFGR, RCC_PLLCFGR_PLLM) >> RCC_PLLCFGR_PLLM_Pos) + 1U ;
 1426              		.loc 1 1085 5 is_stmt 1 view .LVU467
1085:Drivers/STM32G4xx_HAL_Driver/Src/stm32g4xx_hal_rcc.c ****     pllm = (READ_BIT(RCC->PLLCFGR, RCC_PLLCFGR_PLLM) >> RCC_PLLCFGR_PLLM_Pos) + 1U ;
 1427              		.loc 1 1085 17 is_stmt 0 view .LVU468
 1428 0028 104B     		ldr	r3, .L140
 1429 002a DA68     		ldr	r2, [r3, #12]
 1430              	.LVL127:
1086:Drivers/STM32G4xx_HAL_Driver/Src/stm32g4xx_hal_rcc.c **** 
 1431              		.loc 1 1086 5 is_stmt 1 view .LVU469
1086:Drivers/STM32G4xx_HAL_Driver/Src/stm32g4xx_hal_rcc.c **** 
 1432              		.loc 1 1086 13 is_stmt 0 view .LVU470
 1433 002c D868     		ldr	r0, [r3, #12]
1086:Drivers/STM32G4xx_HAL_Driver/Src/stm32g4xx_hal_rcc.c **** 
 1434              		.loc 1 1086 54 view .LVU471
 1435 002e C0F30310 		ubfx	r0, r0, #4, #4
1086:Drivers/STM32G4xx_HAL_Driver/Src/stm32g4xx_hal_rcc.c **** 
 1436              		.loc 1 1086 10 view .LVU472
 1437 0032 431C     		adds	r3, r0, #1
 1438              	.LVL128:
1088:Drivers/STM32G4xx_HAL_Driver/Src/stm32g4xx_hal_rcc.c ****     {
ARM GAS  /tmp/ccMcPfSr.s 			page 49


 1439              		.loc 1 1088 5 is_stmt 1 view .LVU473
1085:Drivers/STM32G4xx_HAL_Driver/Src/stm32g4xx_hal_rcc.c ****     pllm = (READ_BIT(RCC->PLLCFGR, RCC_PLLCFGR_PLLM) >> RCC_PLLCFGR_PLLM_Pos) + 1U ;
 1440              		.loc 1 1085 15 is_stmt 0 view .LVU474
 1441 0034 02F00302 		and	r2, r2, #3
 1442              	.LVL129:
1088:Drivers/STM32G4xx_HAL_Driver/Src/stm32g4xx_hal_rcc.c ****     {
 1443              		.loc 1 1088 5 view .LVU475
 1444 0038 032A     		cmp	r2, #3
1091:Drivers/STM32G4xx_HAL_Driver/Src/stm32g4xx_hal_rcc.c ****       break;
 1445              		.loc 1 1091 7 is_stmt 1 view .LVU476
1091:Drivers/STM32G4xx_HAL_Driver/Src/stm32g4xx_hal_rcc.c ****       break;
 1446              		.loc 1 1091 38 is_stmt 0 view .LVU477
 1447 003a 0C4A     		ldr	r2, .L140
 1448              	.LVL130:
1091:Drivers/STM32G4xx_HAL_Driver/Src/stm32g4xx_hal_rcc.c ****       break;
 1449              		.loc 1 1091 38 view .LVU478
 1450 003c D068     		ldr	r0, [r2, #12]
1091:Drivers/STM32G4xx_HAL_Driver/Src/stm32g4xx_hal_rcc.c ****       break;
 1451              		.loc 1 1091 79 view .LVU479
 1452 003e C0F30620 		ubfx	r0, r0, #8, #7
1091:Drivers/STM32G4xx_HAL_Driver/Src/stm32g4xx_hal_rcc.c ****       break;
 1453              		.loc 1 1091 27 view .LVU480
 1454 0042 0CBF     		ite	eq
 1455 0044 0A4A     		ldreq	r2, .L140+4
1096:Drivers/STM32G4xx_HAL_Driver/Src/stm32g4xx_hal_rcc.c ****       break;
 1456              		.loc 1 1096 7 is_stmt 1 view .LVU481
1096:Drivers/STM32G4xx_HAL_Driver/Src/stm32g4xx_hal_rcc.c ****       break;
 1457              		.loc 1 1096 27 is_stmt 0 view .LVU482
 1458 0046 0B4A     		ldrne	r2, .L140+8
 1459 0048 B2FBF3F3 		udiv	r3, r2, r3
 1460              	.LVL131:
1096:Drivers/STM32G4xx_HAL_Driver/Src/stm32g4xx_hal_rcc.c ****       break;
 1461              		.loc 1 1096 14 view .LVU483
 1462 004c 03FB00F0 		mul	r0, r3, r0
 1463              	.LVL132:
1097:Drivers/STM32G4xx_HAL_Driver/Src/stm32g4xx_hal_rcc.c ****     }
 1464              		.loc 1 1097 7 is_stmt 1 view .LVU484
1099:Drivers/STM32G4xx_HAL_Driver/Src/stm32g4xx_hal_rcc.c ****     sysclockfreq = pllvco/pllr;
 1465              		.loc 1 1099 5 view .LVU485
1099:Drivers/STM32G4xx_HAL_Driver/Src/stm32g4xx_hal_rcc.c ****     sysclockfreq = pllvco/pllr;
 1466              		.loc 1 1099 14 is_stmt 0 view .LVU486
 1467 0050 064B     		ldr	r3, .L140
 1468 0052 DB68     		ldr	r3, [r3, #12]
 1469              	.LVL133:
1100:Drivers/STM32G4xx_HAL_Driver/Src/stm32g4xx_hal_rcc.c ****   }
 1470              		.loc 1 1100 5 is_stmt 1 view .LVU487
1099:Drivers/STM32G4xx_HAL_Driver/Src/stm32g4xx_hal_rcc.c ****     sysclockfreq = pllvco/pllr;
 1471              		.loc 1 1099 55 is_stmt 0 view .LVU488
 1472 0054 C3F34163 		ubfx	r3, r3, #25, #2
 1473              	.LVL134:
1099:Drivers/STM32G4xx_HAL_Driver/Src/stm32g4xx_hal_rcc.c ****     sysclockfreq = pllvco/pllr;
 1474              		.loc 1 1099 80 view .LVU489
 1475 0058 0133     		adds	r3, r3, #1
1099:Drivers/STM32G4xx_HAL_Driver/Src/stm32g4xx_hal_rcc.c ****     sysclockfreq = pllvco/pllr;
 1476              		.loc 1 1099 10 view .LVU490
 1477 005a 5B00     		lsls	r3, r3, #1
1100:Drivers/STM32G4xx_HAL_Driver/Src/stm32g4xx_hal_rcc.c ****   }
ARM GAS  /tmp/ccMcPfSr.s 			page 50


 1478              		.loc 1 1100 18 view .LVU491
 1479 005c B0FBF3F0 		udiv	r0, r0, r3
 1480              	.LVL135:
1100:Drivers/STM32G4xx_HAL_Driver/Src/stm32g4xx_hal_rcc.c ****   }
 1481              		.loc 1 1100 18 view .LVU492
 1482 0060 7047     		bx	lr
 1483              	.LVL136:
 1484              	.L136:
1071:Drivers/STM32G4xx_HAL_Driver/Src/stm32g4xx_hal_rcc.c ****   }
 1485              		.loc 1 1071 18 view .LVU493
 1486 0062 0448     		ldr	r0, .L140+8
 1487 0064 7047     		bx	lr
 1488              	.L137:
1076:Drivers/STM32G4xx_HAL_Driver/Src/stm32g4xx_hal_rcc.c ****   }
 1489              		.loc 1 1076 18 view .LVU494
 1490 0066 0248     		ldr	r0, .L140+4
 1491 0068 7047     		bx	lr
 1492              	.L141:
 1493 006a 00BF     		.align	2
 1494              	.L140:
 1495 006c 00100240 		.word	1073876992
 1496 0070 00127A00 		.word	8000000
 1497 0074 0024F400 		.word	16000000
 1498              		.cfi_endproc
 1499              	.LFE136:
 1501              		.section	.text.HAL_RCC_ClockConfig,"ax",%progbits
 1502              		.align	1
 1503              		.global	HAL_RCC_ClockConfig
 1504              		.syntax unified
 1505              		.thumb
 1506              		.thumb_func
 1507              		.fpu fpv4-sp-d16
 1509              	HAL_RCC_ClockConfig:
 1510              	.LVL137:
 1511              	.LFB134:
 767:Drivers/STM32G4xx_HAL_Driver/Src/stm32g4xx_hal_rcc.c ****   uint32_t tickstart;
 1512              		.loc 1 767 1 is_stmt 1 view -0
 1513              		.cfi_startproc
 1514              		@ args = 0, pretend = 0, frame = 0
 1515              		@ frame_needed = 0, uses_anonymous_args = 0
 768:Drivers/STM32G4xx_HAL_Driver/Src/stm32g4xx_hal_rcc.c ****   uint32_t pllfreq;
 1516              		.loc 1 768 3 view .LVU496
 769:Drivers/STM32G4xx_HAL_Driver/Src/stm32g4xx_hal_rcc.c ****   uint32_t hpre = RCC_SYSCLK_DIV1;
 1517              		.loc 1 769 3 view .LVU497
 770:Drivers/STM32G4xx_HAL_Driver/Src/stm32g4xx_hal_rcc.c **** 
 1518              		.loc 1 770 3 view .LVU498
 773:Drivers/STM32G4xx_HAL_Driver/Src/stm32g4xx_hal_rcc.c ****   {
 1519              		.loc 1 773 3 view .LVU499
 773:Drivers/STM32G4xx_HAL_Driver/Src/stm32g4xx_hal_rcc.c ****   {
 1520              		.loc 1 773 6 is_stmt 0 view .LVU500
 1521 0000 0028     		cmp	r0, #0
 1522 0002 00F0BE80 		beq	.L165
 767:Drivers/STM32G4xx_HAL_Driver/Src/stm32g4xx_hal_rcc.c ****   uint32_t tickstart;
 1523              		.loc 1 767 1 view .LVU501
 1524 0006 2DE9F843 		push	{r3, r4, r5, r6, r7, r8, r9, lr}
 1525              	.LCFI10:
 1526              		.cfi_def_cfa_offset 32
ARM GAS  /tmp/ccMcPfSr.s 			page 51


 1527              		.cfi_offset 3, -32
 1528              		.cfi_offset 4, -28
 1529              		.cfi_offset 5, -24
 1530              		.cfi_offset 6, -20
 1531              		.cfi_offset 7, -16
 1532              		.cfi_offset 8, -12
 1533              		.cfi_offset 9, -8
 1534              		.cfi_offset 14, -4
 1535 000a 0C46     		mov	r4, r1
 1536 000c 0546     		mov	r5, r0
 779:Drivers/STM32G4xx_HAL_Driver/Src/stm32g4xx_hal_rcc.c ****   assert_param(IS_FLASH_LATENCY(FLatency));
 1537              		.loc 1 779 3 is_stmt 1 view .LVU502
 780:Drivers/STM32G4xx_HAL_Driver/Src/stm32g4xx_hal_rcc.c **** 
 1538              		.loc 1 780 3 view .LVU503
 787:Drivers/STM32G4xx_HAL_Driver/Src/stm32g4xx_hal_rcc.c ****   {
 1539              		.loc 1 787 3 view .LVU504
 787:Drivers/STM32G4xx_HAL_Driver/Src/stm32g4xx_hal_rcc.c ****   {
 1540              		.loc 1 787 18 is_stmt 0 view .LVU505
 1541 000e 864B     		ldr	r3, .L185
 1542 0010 1B68     		ldr	r3, [r3]
 1543 0012 03F00F03 		and	r3, r3, #15
 787:Drivers/STM32G4xx_HAL_Driver/Src/stm32g4xx_hal_rcc.c ****   {
 1544              		.loc 1 787 6 view .LVU506
 1545 0016 8B42     		cmp	r3, r1
 1546 0018 0BD2     		bcs	.L144
 790:Drivers/STM32G4xx_HAL_Driver/Src/stm32g4xx_hal_rcc.c **** 
 1547              		.loc 1 790 5 is_stmt 1 view .LVU507
 1548 001a 834A     		ldr	r2, .L185
 1549 001c 1368     		ldr	r3, [r2]
 1550 001e 23F00F03 		bic	r3, r3, #15
 1551 0022 0B43     		orrs	r3, r3, r1
 1552 0024 1360     		str	r3, [r2]
 794:Drivers/STM32G4xx_HAL_Driver/Src/stm32g4xx_hal_rcc.c ****     {
 1553              		.loc 1 794 5 view .LVU508
 794:Drivers/STM32G4xx_HAL_Driver/Src/stm32g4xx_hal_rcc.c ****     {
 1554              		.loc 1 794 9 is_stmt 0 view .LVU509
 1555 0026 1368     		ldr	r3, [r2]
 1556 0028 03F00F03 		and	r3, r3, #15
 794:Drivers/STM32G4xx_HAL_Driver/Src/stm32g4xx_hal_rcc.c ****     {
 1557              		.loc 1 794 8 view .LVU510
 1558 002c 8B42     		cmp	r3, r1
 1559 002e 40F0AA80 		bne	.L166
 1560              	.L144:
 801:Drivers/STM32G4xx_HAL_Driver/Src/stm32g4xx_hal_rcc.c ****   {
 1561              		.loc 1 801 3 is_stmt 1 view .LVU511
 801:Drivers/STM32G4xx_HAL_Driver/Src/stm32g4xx_hal_rcc.c ****   {
 1562              		.loc 1 801 25 is_stmt 0 view .LVU512
 1563 0032 2B68     		ldr	r3, [r5]
 801:Drivers/STM32G4xx_HAL_Driver/Src/stm32g4xx_hal_rcc.c ****   {
 1564              		.loc 1 801 5 view .LVU513
 1565 0034 13F0010F 		tst	r3, #1
 1566 0038 00F0A980 		beq	.L145
 803:Drivers/STM32G4xx_HAL_Driver/Src/stm32g4xx_hal_rcc.c **** 
 1567              		.loc 1 803 5 is_stmt 1 view .LVU514
 806:Drivers/STM32G4xx_HAL_Driver/Src/stm32g4xx_hal_rcc.c ****     {
 1568              		.loc 1 806 5 view .LVU515
 806:Drivers/STM32G4xx_HAL_Driver/Src/stm32g4xx_hal_rcc.c ****     {
ARM GAS  /tmp/ccMcPfSr.s 			page 52


 1569              		.loc 1 806 26 is_stmt 0 view .LVU516
 1570 003c 6A68     		ldr	r2, [r5, #4]
 806:Drivers/STM32G4xx_HAL_Driver/Src/stm32g4xx_hal_rcc.c ****     {
 1571              		.loc 1 806 8 view .LVU517
 1572 003e 032A     		cmp	r2, #3
 1573 0040 30D0     		beq	.L180
 832:Drivers/STM32G4xx_HAL_Driver/Src/stm32g4xx_hal_rcc.c ****       {
 1574              		.loc 1 832 7 is_stmt 1 view .LVU518
 832:Drivers/STM32G4xx_HAL_Driver/Src/stm32g4xx_hal_rcc.c ****       {
 1575              		.loc 1 832 10 is_stmt 0 view .LVU519
 1576 0042 022A     		cmp	r2, #2
 1577 0044 68D0     		beq	.L181
 844:Drivers/STM32G4xx_HAL_Driver/Src/stm32g4xx_hal_rcc.c ****         {
 1578              		.loc 1 844 9 is_stmt 1 view .LVU520
 844:Drivers/STM32G4xx_HAL_Driver/Src/stm32g4xx_hal_rcc.c ****         {
 1579              		.loc 1 844 12 is_stmt 0 view .LVU521
 1580 0046 794B     		ldr	r3, .L185+4
 1581 0048 1B68     		ldr	r3, [r3]
 844:Drivers/STM32G4xx_HAL_Driver/Src/stm32g4xx_hal_rcc.c ****         {
 1582              		.loc 1 844 11 view .LVU522
 1583 004a 13F4806F 		tst	r3, #1024
 1584 004e 00F09C80 		beq	.L171
 1585              	.L152:
 850:Drivers/STM32G4xx_HAL_Driver/Src/stm32g4xx_hal_rcc.c **** 
 1586              		.loc 1 850 7 is_stmt 1 view .LVU523
 850:Drivers/STM32G4xx_HAL_Driver/Src/stm32g4xx_hal_rcc.c **** 
 1587              		.loc 1 850 17 is_stmt 0 view .LVU524
 1588 0052 FFF7FEFF 		bl	HAL_RCC_GetSysClockFreq
 1589              	.LVL138:
 853:Drivers/STM32G4xx_HAL_Driver/Src/stm32g4xx_hal_rcc.c ****       {
 1590              		.loc 1 853 7 is_stmt 1 view .LVU525
 853:Drivers/STM32G4xx_HAL_Driver/Src/stm32g4xx_hal_rcc.c ****       {
 1591              		.loc 1 853 9 is_stmt 0 view .LVU526
 1592 0056 764B     		ldr	r3, .L185+8
 1593 0058 9842     		cmp	r0, r3
 1594 005a 6AD9     		bls	.L172
 855:Drivers/STM32G4xx_HAL_Driver/Src/stm32g4xx_hal_rcc.c ****         hpre = RCC_SYSCLK_DIV2;
 1595              		.loc 1 855 9 is_stmt 1 view .LVU527
 1596 005c 734A     		ldr	r2, .L185+4
 1597 005e 9368     		ldr	r3, [r2, #8]
 1598 0060 23F0F003 		bic	r3, r3, #240
 1599 0064 43F08003 		orr	r3, r3, #128
 1600 0068 9360     		str	r3, [r2, #8]
 856:Drivers/STM32G4xx_HAL_Driver/Src/stm32g4xx_hal_rcc.c ****       }
 1601              		.loc 1 856 9 view .LVU528
 1602              	.LVL139:
 856:Drivers/STM32G4xx_HAL_Driver/Src/stm32g4xx_hal_rcc.c ****       }
 1603              		.loc 1 856 14 is_stmt 0 view .LVU529
 1604 006a 4FF08009 		mov	r9, #128
 1605              	.LVL140:
 1606              	.L149:
 861:Drivers/STM32G4xx_HAL_Driver/Src/stm32g4xx_hal_rcc.c **** 
 1607              		.loc 1 861 5 is_stmt 1 view .LVU530
 1608 006e 6F4A     		ldr	r2, .L185+4
 1609 0070 9368     		ldr	r3, [r2, #8]
 1610 0072 23F00303 		bic	r3, r3, #3
 1611 0076 6968     		ldr	r1, [r5, #4]
ARM GAS  /tmp/ccMcPfSr.s 			page 53


 1612 0078 0B43     		orrs	r3, r3, r1
 1613 007a 9360     		str	r3, [r2, #8]
 864:Drivers/STM32G4xx_HAL_Driver/Src/stm32g4xx_hal_rcc.c **** 
 1614              		.loc 1 864 5 view .LVU531
 864:Drivers/STM32G4xx_HAL_Driver/Src/stm32g4xx_hal_rcc.c **** 
 1615              		.loc 1 864 17 is_stmt 0 view .LVU532
 1616 007c FFF7FEFF 		bl	HAL_GetTick
 1617              	.LVL141:
 1618 0080 0646     		mov	r6, r0
 1619              	.LVL142:
 866:Drivers/STM32G4xx_HAL_Driver/Src/stm32g4xx_hal_rcc.c ****     {
 1620              		.loc 1 866 5 is_stmt 1 view .LVU533
 866:Drivers/STM32G4xx_HAL_Driver/Src/stm32g4xx_hal_rcc.c ****     {
 1621              		.loc 1 866 12 is_stmt 0 view .LVU534
 1622 0082 6A4F     		ldr	r7, .L185+4
 868:Drivers/STM32G4xx_HAL_Driver/Src/stm32g4xx_hal_rcc.c ****       {
 1623              		.loc 1 868 10 view .LVU535
 1624 0084 41F28838 		movw	r8, #5000
 1625              	.LVL143:
 1626              	.L153:
 866:Drivers/STM32G4xx_HAL_Driver/Src/stm32g4xx_hal_rcc.c ****     {
 1627              		.loc 1 866 11 is_stmt 1 view .LVU536
 866:Drivers/STM32G4xx_HAL_Driver/Src/stm32g4xx_hal_rcc.c ****     {
 1628              		.loc 1 866 12 is_stmt 0 view .LVU537
 1629 0088 BB68     		ldr	r3, [r7, #8]
 1630 008a 03F00C03 		and	r3, r3, #12
 866:Drivers/STM32G4xx_HAL_Driver/Src/stm32g4xx_hal_rcc.c ****     {
 1631              		.loc 1 866 78 view .LVU538
 1632 008e 6A68     		ldr	r2, [r5, #4]
 866:Drivers/STM32G4xx_HAL_Driver/Src/stm32g4xx_hal_rcc.c ****     {
 1633              		.loc 1 866 11 view .LVU539
 1634 0090 B3EB820F 		cmp	r3, r2, lsl #2
 1635 0094 50D0     		beq	.L182
 868:Drivers/STM32G4xx_HAL_Driver/Src/stm32g4xx_hal_rcc.c ****       {
 1636              		.loc 1 868 7 is_stmt 1 view .LVU540
 868:Drivers/STM32G4xx_HAL_Driver/Src/stm32g4xx_hal_rcc.c ****       {
 1637              		.loc 1 868 12 is_stmt 0 view .LVU541
 1638 0096 FFF7FEFF 		bl	HAL_GetTick
 1639              	.LVL144:
 868:Drivers/STM32G4xx_HAL_Driver/Src/stm32g4xx_hal_rcc.c ****       {
 1640              		.loc 1 868 26 view .LVU542
 1641 009a 801B     		subs	r0, r0, r6
 868:Drivers/STM32G4xx_HAL_Driver/Src/stm32g4xx_hal_rcc.c ****       {
 1642              		.loc 1 868 10 view .LVU543
 1643 009c 4045     		cmp	r0, r8
 1644 009e F3D9     		bls	.L153
 870:Drivers/STM32G4xx_HAL_Driver/Src/stm32g4xx_hal_rcc.c ****       }
 1645              		.loc 1 870 16 view .LVU544
 1646 00a0 0320     		movs	r0, #3
 1647 00a2 BFE0     		b	.L175
 1648              	.LVL145:
 1649              	.L180:
 809:Drivers/STM32G4xx_HAL_Driver/Src/stm32g4xx_hal_rcc.c ****       {
 1650              		.loc 1 809 7 is_stmt 1 view .LVU545
 809:Drivers/STM32G4xx_HAL_Driver/Src/stm32g4xx_hal_rcc.c ****       {
 1651              		.loc 1 809 11 is_stmt 0 view .LVU546
 1652 00a4 614A     		ldr	r2, .L185+4
ARM GAS  /tmp/ccMcPfSr.s 			page 54


 1653 00a6 1268     		ldr	r2, [r2]
 809:Drivers/STM32G4xx_HAL_Driver/Src/stm32g4xx_hal_rcc.c ****       {
 1654              		.loc 1 809 10 view .LVU547
 1655 00a8 12F0007F 		tst	r2, #33554432
 1656 00ac 01D1     		bne	.L183
 811:Drivers/STM32G4xx_HAL_Driver/Src/stm32g4xx_hal_rcc.c ****       }
 1657              		.loc 1 811 16 view .LVU548
 1658 00ae 0120     		movs	r0, #1
 1659              	.LVL146:
 811:Drivers/STM32G4xx_HAL_Driver/Src/stm32g4xx_hal_rcc.c ****       }
 1660              		.loc 1 811 16 view .LVU549
 1661 00b0 B8E0     		b	.L175
 1662              	.LVL147:
 1663              	.L183:
 815:Drivers/STM32G4xx_HAL_Driver/Src/stm32g4xx_hal_rcc.c **** 
 1664              		.loc 1 815 7 is_stmt 1 view .LVU550
 1665              	.LBB7:
 1666              	.LBI7:
1109:Drivers/STM32G4xx_HAL_Driver/Src/stm32g4xx_hal_rcc.c **** 
1110:Drivers/STM32G4xx_HAL_Driver/Src/stm32g4xx_hal_rcc.c **** /**
1111:Drivers/STM32G4xx_HAL_Driver/Src/stm32g4xx_hal_rcc.c ****   * @brief  Return the HCLK frequency.
1112:Drivers/STM32G4xx_HAL_Driver/Src/stm32g4xx_hal_rcc.c ****   * @note   Each time HCLK changes, this function must be called to update the
1113:Drivers/STM32G4xx_HAL_Driver/Src/stm32g4xx_hal_rcc.c ****   *         right HCLK value. Otherwise, any configuration based on this function will be incorrect
1114:Drivers/STM32G4xx_HAL_Driver/Src/stm32g4xx_hal_rcc.c ****   *
1115:Drivers/STM32G4xx_HAL_Driver/Src/stm32g4xx_hal_rcc.c ****   * @note   The SystemCoreClock CMSIS variable is used to store System Clock Frequency.
1116:Drivers/STM32G4xx_HAL_Driver/Src/stm32g4xx_hal_rcc.c ****   * @retval HCLK frequency in Hz
1117:Drivers/STM32G4xx_HAL_Driver/Src/stm32g4xx_hal_rcc.c ****   */
1118:Drivers/STM32G4xx_HAL_Driver/Src/stm32g4xx_hal_rcc.c **** uint32_t HAL_RCC_GetHCLKFreq(void)
1119:Drivers/STM32G4xx_HAL_Driver/Src/stm32g4xx_hal_rcc.c **** {
1120:Drivers/STM32G4xx_HAL_Driver/Src/stm32g4xx_hal_rcc.c ****   return SystemCoreClock;
1121:Drivers/STM32G4xx_HAL_Driver/Src/stm32g4xx_hal_rcc.c **** }
1122:Drivers/STM32G4xx_HAL_Driver/Src/stm32g4xx_hal_rcc.c **** 
1123:Drivers/STM32G4xx_HAL_Driver/Src/stm32g4xx_hal_rcc.c **** /**
1124:Drivers/STM32G4xx_HAL_Driver/Src/stm32g4xx_hal_rcc.c ****   * @brief  Return the PCLK1 frequency.
1125:Drivers/STM32G4xx_HAL_Driver/Src/stm32g4xx_hal_rcc.c ****   * @note   Each time PCLK1 changes, this function must be called to update the
1126:Drivers/STM32G4xx_HAL_Driver/Src/stm32g4xx_hal_rcc.c ****   *         right PCLK1 value. Otherwise, any configuration based on this function will be incorrec
1127:Drivers/STM32G4xx_HAL_Driver/Src/stm32g4xx_hal_rcc.c ****   * @retval PCLK1 frequency in Hz
1128:Drivers/STM32G4xx_HAL_Driver/Src/stm32g4xx_hal_rcc.c ****   */
1129:Drivers/STM32G4xx_HAL_Driver/Src/stm32g4xx_hal_rcc.c **** uint32_t HAL_RCC_GetPCLK1Freq(void)
1130:Drivers/STM32G4xx_HAL_Driver/Src/stm32g4xx_hal_rcc.c **** {
1131:Drivers/STM32G4xx_HAL_Driver/Src/stm32g4xx_hal_rcc.c ****   /* Get HCLK source and Compute PCLK1 frequency ---------------------------*/
1132:Drivers/STM32G4xx_HAL_Driver/Src/stm32g4xx_hal_rcc.c ****   return (HAL_RCC_GetHCLKFreq() >> (APBPrescTable[READ_BIT(RCC->CFGR, RCC_CFGR_PPRE1) >> RCC_CFGR_P
1133:Drivers/STM32G4xx_HAL_Driver/Src/stm32g4xx_hal_rcc.c **** }
1134:Drivers/STM32G4xx_HAL_Driver/Src/stm32g4xx_hal_rcc.c **** 
1135:Drivers/STM32G4xx_HAL_Driver/Src/stm32g4xx_hal_rcc.c **** /**
1136:Drivers/STM32G4xx_HAL_Driver/Src/stm32g4xx_hal_rcc.c ****   * @brief  Return the PCLK2 frequency.
1137:Drivers/STM32G4xx_HAL_Driver/Src/stm32g4xx_hal_rcc.c ****   * @note   Each time PCLK2 changes, this function must be called to update the
1138:Drivers/STM32G4xx_HAL_Driver/Src/stm32g4xx_hal_rcc.c ****   *         right PCLK2 value. Otherwise, any configuration based on this function will be incorrec
1139:Drivers/STM32G4xx_HAL_Driver/Src/stm32g4xx_hal_rcc.c ****   * @retval PCLK2 frequency in Hz
1140:Drivers/STM32G4xx_HAL_Driver/Src/stm32g4xx_hal_rcc.c ****   */
1141:Drivers/STM32G4xx_HAL_Driver/Src/stm32g4xx_hal_rcc.c **** uint32_t HAL_RCC_GetPCLK2Freq(void)
1142:Drivers/STM32G4xx_HAL_Driver/Src/stm32g4xx_hal_rcc.c **** {
1143:Drivers/STM32G4xx_HAL_Driver/Src/stm32g4xx_hal_rcc.c ****   /* Get HCLK source and Compute PCLK2 frequency ---------------------------*/
1144:Drivers/STM32G4xx_HAL_Driver/Src/stm32g4xx_hal_rcc.c ****   return (HAL_RCC_GetHCLKFreq()>> (APBPrescTable[READ_BIT(RCC->CFGR, RCC_CFGR_PPRE2) >> RCC_CFGR_PP
1145:Drivers/STM32G4xx_HAL_Driver/Src/stm32g4xx_hal_rcc.c **** }
1146:Drivers/STM32G4xx_HAL_Driver/Src/stm32g4xx_hal_rcc.c **** 
1147:Drivers/STM32G4xx_HAL_Driver/Src/stm32g4xx_hal_rcc.c **** /**
ARM GAS  /tmp/ccMcPfSr.s 			page 55


1148:Drivers/STM32G4xx_HAL_Driver/Src/stm32g4xx_hal_rcc.c ****   * @brief  Configure the RCC_OscInitStruct according to the internal
1149:Drivers/STM32G4xx_HAL_Driver/Src/stm32g4xx_hal_rcc.c ****   *         RCC configuration registers.
1150:Drivers/STM32G4xx_HAL_Driver/Src/stm32g4xx_hal_rcc.c ****   * @param  RCC_OscInitStruct  pointer to an RCC_OscInitTypeDef structure that
1151:Drivers/STM32G4xx_HAL_Driver/Src/stm32g4xx_hal_rcc.c ****   *         will be configured.
1152:Drivers/STM32G4xx_HAL_Driver/Src/stm32g4xx_hal_rcc.c ****   * @retval None
1153:Drivers/STM32G4xx_HAL_Driver/Src/stm32g4xx_hal_rcc.c ****   */
1154:Drivers/STM32G4xx_HAL_Driver/Src/stm32g4xx_hal_rcc.c **** void HAL_RCC_GetOscConfig(RCC_OscInitTypeDef  *RCC_OscInitStruct)
1155:Drivers/STM32G4xx_HAL_Driver/Src/stm32g4xx_hal_rcc.c **** {
1156:Drivers/STM32G4xx_HAL_Driver/Src/stm32g4xx_hal_rcc.c ****   /* Check the parameters */
1157:Drivers/STM32G4xx_HAL_Driver/Src/stm32g4xx_hal_rcc.c ****   assert_param(RCC_OscInitStruct != (void *)NULL);
1158:Drivers/STM32G4xx_HAL_Driver/Src/stm32g4xx_hal_rcc.c **** 
1159:Drivers/STM32G4xx_HAL_Driver/Src/stm32g4xx_hal_rcc.c ****   /* Set all possible values for the Oscillator type parameter ---------------*/
1160:Drivers/STM32G4xx_HAL_Driver/Src/stm32g4xx_hal_rcc.c ****   RCC_OscInitStruct->OscillatorType = RCC_OSCILLATORTYPE_HSE | RCC_OSCILLATORTYPE_HSI | \
1161:Drivers/STM32G4xx_HAL_Driver/Src/stm32g4xx_hal_rcc.c ****                                       RCC_OSCILLATORTYPE_LSE | RCC_OSCILLATORTYPE_LSI | RCC_OSCILLA
1162:Drivers/STM32G4xx_HAL_Driver/Src/stm32g4xx_hal_rcc.c **** 
1163:Drivers/STM32G4xx_HAL_Driver/Src/stm32g4xx_hal_rcc.c ****   /* Get the HSE configuration -----------------------------------------------*/
1164:Drivers/STM32G4xx_HAL_Driver/Src/stm32g4xx_hal_rcc.c ****   if(READ_BIT(RCC->CR, RCC_CR_HSEBYP) == RCC_CR_HSEBYP)
1165:Drivers/STM32G4xx_HAL_Driver/Src/stm32g4xx_hal_rcc.c ****   {
1166:Drivers/STM32G4xx_HAL_Driver/Src/stm32g4xx_hal_rcc.c ****     RCC_OscInitStruct->HSEState = RCC_HSE_BYPASS;
1167:Drivers/STM32G4xx_HAL_Driver/Src/stm32g4xx_hal_rcc.c ****   }
1168:Drivers/STM32G4xx_HAL_Driver/Src/stm32g4xx_hal_rcc.c ****   else if(READ_BIT(RCC->CR, RCC_CR_HSEON) == RCC_CR_HSEON)
1169:Drivers/STM32G4xx_HAL_Driver/Src/stm32g4xx_hal_rcc.c ****   {
1170:Drivers/STM32G4xx_HAL_Driver/Src/stm32g4xx_hal_rcc.c ****     RCC_OscInitStruct->HSEState = RCC_HSE_ON;
1171:Drivers/STM32G4xx_HAL_Driver/Src/stm32g4xx_hal_rcc.c ****   }
1172:Drivers/STM32G4xx_HAL_Driver/Src/stm32g4xx_hal_rcc.c ****   else
1173:Drivers/STM32G4xx_HAL_Driver/Src/stm32g4xx_hal_rcc.c ****   {
1174:Drivers/STM32G4xx_HAL_Driver/Src/stm32g4xx_hal_rcc.c ****     RCC_OscInitStruct->HSEState = RCC_HSE_OFF;
1175:Drivers/STM32G4xx_HAL_Driver/Src/stm32g4xx_hal_rcc.c ****   }
1176:Drivers/STM32G4xx_HAL_Driver/Src/stm32g4xx_hal_rcc.c **** 
1177:Drivers/STM32G4xx_HAL_Driver/Src/stm32g4xx_hal_rcc.c ****   /* Get the HSI configuration -----------------------------------------------*/
1178:Drivers/STM32G4xx_HAL_Driver/Src/stm32g4xx_hal_rcc.c ****   if(READ_BIT(RCC->CR, RCC_CR_HSION) == RCC_CR_HSION)
1179:Drivers/STM32G4xx_HAL_Driver/Src/stm32g4xx_hal_rcc.c ****   {
1180:Drivers/STM32G4xx_HAL_Driver/Src/stm32g4xx_hal_rcc.c ****     RCC_OscInitStruct->HSIState = RCC_HSI_ON;
1181:Drivers/STM32G4xx_HAL_Driver/Src/stm32g4xx_hal_rcc.c ****   }
1182:Drivers/STM32G4xx_HAL_Driver/Src/stm32g4xx_hal_rcc.c ****   else
1183:Drivers/STM32G4xx_HAL_Driver/Src/stm32g4xx_hal_rcc.c ****   {
1184:Drivers/STM32G4xx_HAL_Driver/Src/stm32g4xx_hal_rcc.c ****     RCC_OscInitStruct->HSIState = RCC_HSI_OFF;
1185:Drivers/STM32G4xx_HAL_Driver/Src/stm32g4xx_hal_rcc.c ****   }
1186:Drivers/STM32G4xx_HAL_Driver/Src/stm32g4xx_hal_rcc.c **** 
1187:Drivers/STM32G4xx_HAL_Driver/Src/stm32g4xx_hal_rcc.c ****   RCC_OscInitStruct->HSICalibrationValue = READ_BIT(RCC->ICSCR, RCC_ICSCR_HSITRIM) >> RCC_ICSCR_HSI
1188:Drivers/STM32G4xx_HAL_Driver/Src/stm32g4xx_hal_rcc.c **** 
1189:Drivers/STM32G4xx_HAL_Driver/Src/stm32g4xx_hal_rcc.c ****   /* Get the LSE configuration -----------------------------------------------*/
1190:Drivers/STM32G4xx_HAL_Driver/Src/stm32g4xx_hal_rcc.c ****   if(READ_BIT(RCC->BDCR, RCC_BDCR_LSEBYP) == RCC_BDCR_LSEBYP)
1191:Drivers/STM32G4xx_HAL_Driver/Src/stm32g4xx_hal_rcc.c ****   {
1192:Drivers/STM32G4xx_HAL_Driver/Src/stm32g4xx_hal_rcc.c ****     RCC_OscInitStruct->LSEState = RCC_LSE_BYPASS;
1193:Drivers/STM32G4xx_HAL_Driver/Src/stm32g4xx_hal_rcc.c ****   }
1194:Drivers/STM32G4xx_HAL_Driver/Src/stm32g4xx_hal_rcc.c ****   else if(READ_BIT(RCC->BDCR, RCC_BDCR_LSEON) == RCC_BDCR_LSEON)
1195:Drivers/STM32G4xx_HAL_Driver/Src/stm32g4xx_hal_rcc.c ****   {
1196:Drivers/STM32G4xx_HAL_Driver/Src/stm32g4xx_hal_rcc.c ****     RCC_OscInitStruct->LSEState = RCC_LSE_ON;
1197:Drivers/STM32G4xx_HAL_Driver/Src/stm32g4xx_hal_rcc.c ****   }
1198:Drivers/STM32G4xx_HAL_Driver/Src/stm32g4xx_hal_rcc.c ****   else
1199:Drivers/STM32G4xx_HAL_Driver/Src/stm32g4xx_hal_rcc.c ****   {
1200:Drivers/STM32G4xx_HAL_Driver/Src/stm32g4xx_hal_rcc.c ****     RCC_OscInitStruct->LSEState = RCC_LSE_OFF;
1201:Drivers/STM32G4xx_HAL_Driver/Src/stm32g4xx_hal_rcc.c ****   }
1202:Drivers/STM32G4xx_HAL_Driver/Src/stm32g4xx_hal_rcc.c **** 
1203:Drivers/STM32G4xx_HAL_Driver/Src/stm32g4xx_hal_rcc.c ****   /* Get the LSI configuration -----------------------------------------------*/
1204:Drivers/STM32G4xx_HAL_Driver/Src/stm32g4xx_hal_rcc.c ****   if(READ_BIT(RCC->CSR, RCC_CSR_LSION) == RCC_CSR_LSION)
ARM GAS  /tmp/ccMcPfSr.s 			page 56


1205:Drivers/STM32G4xx_HAL_Driver/Src/stm32g4xx_hal_rcc.c ****   {
1206:Drivers/STM32G4xx_HAL_Driver/Src/stm32g4xx_hal_rcc.c ****     RCC_OscInitStruct->LSIState = RCC_LSI_ON;
1207:Drivers/STM32G4xx_HAL_Driver/Src/stm32g4xx_hal_rcc.c ****   }
1208:Drivers/STM32G4xx_HAL_Driver/Src/stm32g4xx_hal_rcc.c ****   else
1209:Drivers/STM32G4xx_HAL_Driver/Src/stm32g4xx_hal_rcc.c ****   {
1210:Drivers/STM32G4xx_HAL_Driver/Src/stm32g4xx_hal_rcc.c ****     RCC_OscInitStruct->LSIState = RCC_LSI_OFF;
1211:Drivers/STM32G4xx_HAL_Driver/Src/stm32g4xx_hal_rcc.c ****   }
1212:Drivers/STM32G4xx_HAL_Driver/Src/stm32g4xx_hal_rcc.c **** 
1213:Drivers/STM32G4xx_HAL_Driver/Src/stm32g4xx_hal_rcc.c ****   /* Get the HSI48 configuration ---------------------------------------------*/
1214:Drivers/STM32G4xx_HAL_Driver/Src/stm32g4xx_hal_rcc.c ****   if(READ_BIT(RCC->CRRCR, RCC_CRRCR_HSI48ON) == RCC_CRRCR_HSI48ON)
1215:Drivers/STM32G4xx_HAL_Driver/Src/stm32g4xx_hal_rcc.c ****   {
1216:Drivers/STM32G4xx_HAL_Driver/Src/stm32g4xx_hal_rcc.c ****     RCC_OscInitStruct->HSI48State = RCC_HSI48_ON;
1217:Drivers/STM32G4xx_HAL_Driver/Src/stm32g4xx_hal_rcc.c ****   }
1218:Drivers/STM32G4xx_HAL_Driver/Src/stm32g4xx_hal_rcc.c ****   else
1219:Drivers/STM32G4xx_HAL_Driver/Src/stm32g4xx_hal_rcc.c ****   {
1220:Drivers/STM32G4xx_HAL_Driver/Src/stm32g4xx_hal_rcc.c ****     RCC_OscInitStruct->HSI48State = RCC_HSI48_OFF;
1221:Drivers/STM32G4xx_HAL_Driver/Src/stm32g4xx_hal_rcc.c ****   }
1222:Drivers/STM32G4xx_HAL_Driver/Src/stm32g4xx_hal_rcc.c **** 
1223:Drivers/STM32G4xx_HAL_Driver/Src/stm32g4xx_hal_rcc.c ****   /* Get the PLL configuration -----------------------------------------------*/
1224:Drivers/STM32G4xx_HAL_Driver/Src/stm32g4xx_hal_rcc.c ****   if(READ_BIT(RCC->CR, RCC_CR_PLLON) == RCC_CR_PLLON)
1225:Drivers/STM32G4xx_HAL_Driver/Src/stm32g4xx_hal_rcc.c ****   {
1226:Drivers/STM32G4xx_HAL_Driver/Src/stm32g4xx_hal_rcc.c ****     RCC_OscInitStruct->PLL.PLLState = RCC_PLL_ON;
1227:Drivers/STM32G4xx_HAL_Driver/Src/stm32g4xx_hal_rcc.c ****   }
1228:Drivers/STM32G4xx_HAL_Driver/Src/stm32g4xx_hal_rcc.c ****   else
1229:Drivers/STM32G4xx_HAL_Driver/Src/stm32g4xx_hal_rcc.c ****   {
1230:Drivers/STM32G4xx_HAL_Driver/Src/stm32g4xx_hal_rcc.c ****     RCC_OscInitStruct->PLL.PLLState = RCC_PLL_OFF;
1231:Drivers/STM32G4xx_HAL_Driver/Src/stm32g4xx_hal_rcc.c ****   }
1232:Drivers/STM32G4xx_HAL_Driver/Src/stm32g4xx_hal_rcc.c ****   RCC_OscInitStruct->PLL.PLLSource = READ_BIT(RCC->PLLCFGR, RCC_PLLCFGR_PLLSRC);
1233:Drivers/STM32G4xx_HAL_Driver/Src/stm32g4xx_hal_rcc.c ****   RCC_OscInitStruct->PLL.PLLM = (READ_BIT(RCC->PLLCFGR, RCC_PLLCFGR_PLLM) >> RCC_PLLCFGR_PLLM_Pos) 
1234:Drivers/STM32G4xx_HAL_Driver/Src/stm32g4xx_hal_rcc.c ****   RCC_OscInitStruct->PLL.PLLN = READ_BIT(RCC->PLLCFGR, RCC_PLLCFGR_PLLN) >> RCC_PLLCFGR_PLLN_Pos;
1235:Drivers/STM32G4xx_HAL_Driver/Src/stm32g4xx_hal_rcc.c ****   RCC_OscInitStruct->PLL.PLLQ = (((READ_BIT(RCC->PLLCFGR, RCC_PLLCFGR_PLLQ) >> RCC_PLLCFGR_PLLQ_Pos
1236:Drivers/STM32G4xx_HAL_Driver/Src/stm32g4xx_hal_rcc.c ****   RCC_OscInitStruct->PLL.PLLR = (((READ_BIT(RCC->PLLCFGR, RCC_PLLCFGR_PLLR) >> RCC_PLLCFGR_PLLR_Pos
1237:Drivers/STM32G4xx_HAL_Driver/Src/stm32g4xx_hal_rcc.c ****   RCC_OscInitStruct->PLL.PLLP = READ_BIT(RCC->PLLCFGR, RCC_PLLCFGR_PLLPDIV) >> RCC_PLLCFGR_PLLPDIV_
1238:Drivers/STM32G4xx_HAL_Driver/Src/stm32g4xx_hal_rcc.c **** }
1239:Drivers/STM32G4xx_HAL_Driver/Src/stm32g4xx_hal_rcc.c **** 
1240:Drivers/STM32G4xx_HAL_Driver/Src/stm32g4xx_hal_rcc.c **** /**
1241:Drivers/STM32G4xx_HAL_Driver/Src/stm32g4xx_hal_rcc.c ****   * @brief  Configure the RCC_ClkInitStruct according to the internal
1242:Drivers/STM32G4xx_HAL_Driver/Src/stm32g4xx_hal_rcc.c ****   *         RCC configuration registers.
1243:Drivers/STM32G4xx_HAL_Driver/Src/stm32g4xx_hal_rcc.c ****   * @param  RCC_ClkInitStruct  pointer to an RCC_ClkInitTypeDef structure that
1244:Drivers/STM32G4xx_HAL_Driver/Src/stm32g4xx_hal_rcc.c ****   *         will be configured.
1245:Drivers/STM32G4xx_HAL_Driver/Src/stm32g4xx_hal_rcc.c ****   * @param  pFLatency  Pointer on the Flash Latency.
1246:Drivers/STM32G4xx_HAL_Driver/Src/stm32g4xx_hal_rcc.c ****   * @retval None
1247:Drivers/STM32G4xx_HAL_Driver/Src/stm32g4xx_hal_rcc.c ****   */
1248:Drivers/STM32G4xx_HAL_Driver/Src/stm32g4xx_hal_rcc.c **** void HAL_RCC_GetClockConfig(RCC_ClkInitTypeDef  *RCC_ClkInitStruct, uint32_t *pFLatency)
1249:Drivers/STM32G4xx_HAL_Driver/Src/stm32g4xx_hal_rcc.c **** {
1250:Drivers/STM32G4xx_HAL_Driver/Src/stm32g4xx_hal_rcc.c ****   /* Check the parameters */
1251:Drivers/STM32G4xx_HAL_Driver/Src/stm32g4xx_hal_rcc.c ****   assert_param(RCC_ClkInitStruct != (void  *)NULL);
1252:Drivers/STM32G4xx_HAL_Driver/Src/stm32g4xx_hal_rcc.c ****   assert_param(pFLatency != (void *)NULL);
1253:Drivers/STM32G4xx_HAL_Driver/Src/stm32g4xx_hal_rcc.c **** 
1254:Drivers/STM32G4xx_HAL_Driver/Src/stm32g4xx_hal_rcc.c ****   /* Set all possible values for the Clock type parameter --------------------*/
1255:Drivers/STM32G4xx_HAL_Driver/Src/stm32g4xx_hal_rcc.c ****   RCC_ClkInitStruct->ClockType = RCC_CLOCKTYPE_SYSCLK | RCC_CLOCKTYPE_HCLK | RCC_CLOCKTYPE_PCLK1 | 
1256:Drivers/STM32G4xx_HAL_Driver/Src/stm32g4xx_hal_rcc.c **** 
1257:Drivers/STM32G4xx_HAL_Driver/Src/stm32g4xx_hal_rcc.c ****   /* Get the SYSCLK configuration --------------------------------------------*/
1258:Drivers/STM32G4xx_HAL_Driver/Src/stm32g4xx_hal_rcc.c ****   RCC_ClkInitStruct->SYSCLKSource = READ_BIT(RCC->CFGR, RCC_CFGR_SW);
1259:Drivers/STM32G4xx_HAL_Driver/Src/stm32g4xx_hal_rcc.c **** 
1260:Drivers/STM32G4xx_HAL_Driver/Src/stm32g4xx_hal_rcc.c ****   /* Get the HCLK configuration ----------------------------------------------*/
1261:Drivers/STM32G4xx_HAL_Driver/Src/stm32g4xx_hal_rcc.c ****   RCC_ClkInitStruct->AHBCLKDivider = READ_BIT(RCC->CFGR, RCC_CFGR_HPRE);
ARM GAS  /tmp/ccMcPfSr.s 			page 57


1262:Drivers/STM32G4xx_HAL_Driver/Src/stm32g4xx_hal_rcc.c **** 
1263:Drivers/STM32G4xx_HAL_Driver/Src/stm32g4xx_hal_rcc.c ****   /* Get the APB1 configuration ----------------------------------------------*/
1264:Drivers/STM32G4xx_HAL_Driver/Src/stm32g4xx_hal_rcc.c ****   RCC_ClkInitStruct->APB1CLKDivider = READ_BIT(RCC->CFGR, RCC_CFGR_PPRE1);
1265:Drivers/STM32G4xx_HAL_Driver/Src/stm32g4xx_hal_rcc.c **** 
1266:Drivers/STM32G4xx_HAL_Driver/Src/stm32g4xx_hal_rcc.c ****   /* Get the APB2 configuration ----------------------------------------------*/
1267:Drivers/STM32G4xx_HAL_Driver/Src/stm32g4xx_hal_rcc.c ****   RCC_ClkInitStruct->APB2CLKDivider = (READ_BIT(RCC->CFGR, RCC_CFGR_PPRE2) >> 3U);
1268:Drivers/STM32G4xx_HAL_Driver/Src/stm32g4xx_hal_rcc.c **** 
1269:Drivers/STM32G4xx_HAL_Driver/Src/stm32g4xx_hal_rcc.c ****   /* Get the Flash Wait State (Latency) configuration ------------------------*/
1270:Drivers/STM32G4xx_HAL_Driver/Src/stm32g4xx_hal_rcc.c ****   *pFLatency = __HAL_FLASH_GET_LATENCY();
1271:Drivers/STM32G4xx_HAL_Driver/Src/stm32g4xx_hal_rcc.c **** }
1272:Drivers/STM32G4xx_HAL_Driver/Src/stm32g4xx_hal_rcc.c **** 
1273:Drivers/STM32G4xx_HAL_Driver/Src/stm32g4xx_hal_rcc.c **** /**
1274:Drivers/STM32G4xx_HAL_Driver/Src/stm32g4xx_hal_rcc.c ****   * @brief  Enable the Clock Security System.
1275:Drivers/STM32G4xx_HAL_Driver/Src/stm32g4xx_hal_rcc.c ****   * @note   If a failure is detected on the HSE oscillator clock, this oscillator
1276:Drivers/STM32G4xx_HAL_Driver/Src/stm32g4xx_hal_rcc.c ****   *         is automatically disabled and an interrupt is generated to inform the
1277:Drivers/STM32G4xx_HAL_Driver/Src/stm32g4xx_hal_rcc.c ****   *         software about the failure (Clock Security System Interrupt, CSSI),
1278:Drivers/STM32G4xx_HAL_Driver/Src/stm32g4xx_hal_rcc.c ****   *         allowing the MCU to perform rescue operations. The CSSI is linked to
1279:Drivers/STM32G4xx_HAL_Driver/Src/stm32g4xx_hal_rcc.c ****   *         the Cortex-M4 NMI (Non-Maskable Interrupt) exception vector.
1280:Drivers/STM32G4xx_HAL_Driver/Src/stm32g4xx_hal_rcc.c ****   * @note   The Clock Security System can only be cleared by reset.
1281:Drivers/STM32G4xx_HAL_Driver/Src/stm32g4xx_hal_rcc.c ****   * @retval None
1282:Drivers/STM32G4xx_HAL_Driver/Src/stm32g4xx_hal_rcc.c ****   */
1283:Drivers/STM32G4xx_HAL_Driver/Src/stm32g4xx_hal_rcc.c **** void HAL_RCC_EnableCSS(void)
1284:Drivers/STM32G4xx_HAL_Driver/Src/stm32g4xx_hal_rcc.c **** {
1285:Drivers/STM32G4xx_HAL_Driver/Src/stm32g4xx_hal_rcc.c ****   SET_BIT(RCC->CR, RCC_CR_CSSON) ;
1286:Drivers/STM32G4xx_HAL_Driver/Src/stm32g4xx_hal_rcc.c **** }
1287:Drivers/STM32G4xx_HAL_Driver/Src/stm32g4xx_hal_rcc.c **** 
1288:Drivers/STM32G4xx_HAL_Driver/Src/stm32g4xx_hal_rcc.c **** /**
1289:Drivers/STM32G4xx_HAL_Driver/Src/stm32g4xx_hal_rcc.c ****   * @brief  Enable the LSE Clock Security System.
1290:Drivers/STM32G4xx_HAL_Driver/Src/stm32g4xx_hal_rcc.c ****   * @note   If a failure is detected on the external 32 kHz oscillator,
1291:Drivers/STM32G4xx_HAL_Driver/Src/stm32g4xx_hal_rcc.c ****   *         the LSE clock is no longer supplied to the RTC but no hardware action
1292:Drivers/STM32G4xx_HAL_Driver/Src/stm32g4xx_hal_rcc.c ****   *         is made to the registers. If enabled, an interrupt will be generated
1293:Drivers/STM32G4xx_HAL_Driver/Src/stm32g4xx_hal_rcc.c ****   *         and handle through @ref RCCEx_EXTI_LINE_LSECSS
1294:Drivers/STM32G4xx_HAL_Driver/Src/stm32g4xx_hal_rcc.c ****   * @note   The Clock Security System can only be cleared by reset or after a LSE failure detection
1295:Drivers/STM32G4xx_HAL_Driver/Src/stm32g4xx_hal_rcc.c ****   * @retval None
1296:Drivers/STM32G4xx_HAL_Driver/Src/stm32g4xx_hal_rcc.c ****   */
1297:Drivers/STM32G4xx_HAL_Driver/Src/stm32g4xx_hal_rcc.c **** void HAL_RCC_EnableLSECSS(void)
1298:Drivers/STM32G4xx_HAL_Driver/Src/stm32g4xx_hal_rcc.c **** {
1299:Drivers/STM32G4xx_HAL_Driver/Src/stm32g4xx_hal_rcc.c ****   SET_BIT(RCC->BDCR, RCC_BDCR_LSECSSON) ;
1300:Drivers/STM32G4xx_HAL_Driver/Src/stm32g4xx_hal_rcc.c **** }
1301:Drivers/STM32G4xx_HAL_Driver/Src/stm32g4xx_hal_rcc.c **** 
1302:Drivers/STM32G4xx_HAL_Driver/Src/stm32g4xx_hal_rcc.c **** /**
1303:Drivers/STM32G4xx_HAL_Driver/Src/stm32g4xx_hal_rcc.c ****   * @brief  Disable the LSE Clock Security System.
1304:Drivers/STM32G4xx_HAL_Driver/Src/stm32g4xx_hal_rcc.c ****   * @note   After LSE failure detection, the software must disable LSECSSON
1305:Drivers/STM32G4xx_HAL_Driver/Src/stm32g4xx_hal_rcc.c ****   * @note   The Clock Security System can only be cleared by reset otherwise.
1306:Drivers/STM32G4xx_HAL_Driver/Src/stm32g4xx_hal_rcc.c ****   * @retval None
1307:Drivers/STM32G4xx_HAL_Driver/Src/stm32g4xx_hal_rcc.c ****   */
1308:Drivers/STM32G4xx_HAL_Driver/Src/stm32g4xx_hal_rcc.c **** void HAL_RCC_DisableLSECSS(void)
1309:Drivers/STM32G4xx_HAL_Driver/Src/stm32g4xx_hal_rcc.c **** {
1310:Drivers/STM32G4xx_HAL_Driver/Src/stm32g4xx_hal_rcc.c ****   CLEAR_BIT(RCC->BDCR, RCC_BDCR_LSECSSON) ;
1311:Drivers/STM32G4xx_HAL_Driver/Src/stm32g4xx_hal_rcc.c **** }
1312:Drivers/STM32G4xx_HAL_Driver/Src/stm32g4xx_hal_rcc.c **** 
1313:Drivers/STM32G4xx_HAL_Driver/Src/stm32g4xx_hal_rcc.c **** /**
1314:Drivers/STM32G4xx_HAL_Driver/Src/stm32g4xx_hal_rcc.c ****   * @brief Handle the RCC Clock Security System interrupt request.
1315:Drivers/STM32G4xx_HAL_Driver/Src/stm32g4xx_hal_rcc.c ****   * @note This API should be called under the NMI_Handler().
1316:Drivers/STM32G4xx_HAL_Driver/Src/stm32g4xx_hal_rcc.c ****   * @retval None
1317:Drivers/STM32G4xx_HAL_Driver/Src/stm32g4xx_hal_rcc.c ****   */
1318:Drivers/STM32G4xx_HAL_Driver/Src/stm32g4xx_hal_rcc.c **** void HAL_RCC_NMI_IRQHandler(void)
ARM GAS  /tmp/ccMcPfSr.s 			page 58


1319:Drivers/STM32G4xx_HAL_Driver/Src/stm32g4xx_hal_rcc.c **** {
1320:Drivers/STM32G4xx_HAL_Driver/Src/stm32g4xx_hal_rcc.c ****   /* Check RCC CSSF interrupt flag  */
1321:Drivers/STM32G4xx_HAL_Driver/Src/stm32g4xx_hal_rcc.c ****   if(__HAL_RCC_GET_IT(RCC_IT_CSS))
1322:Drivers/STM32G4xx_HAL_Driver/Src/stm32g4xx_hal_rcc.c ****   {
1323:Drivers/STM32G4xx_HAL_Driver/Src/stm32g4xx_hal_rcc.c ****     /* RCC Clock Security System interrupt user callback */
1324:Drivers/STM32G4xx_HAL_Driver/Src/stm32g4xx_hal_rcc.c ****     HAL_RCC_CSSCallback();
1325:Drivers/STM32G4xx_HAL_Driver/Src/stm32g4xx_hal_rcc.c **** 
1326:Drivers/STM32G4xx_HAL_Driver/Src/stm32g4xx_hal_rcc.c ****     /* Clear RCC CSS pending bit */
1327:Drivers/STM32G4xx_HAL_Driver/Src/stm32g4xx_hal_rcc.c ****     __HAL_RCC_CLEAR_IT(RCC_IT_CSS);
1328:Drivers/STM32G4xx_HAL_Driver/Src/stm32g4xx_hal_rcc.c ****   }
1329:Drivers/STM32G4xx_HAL_Driver/Src/stm32g4xx_hal_rcc.c **** }
1330:Drivers/STM32G4xx_HAL_Driver/Src/stm32g4xx_hal_rcc.c **** 
1331:Drivers/STM32G4xx_HAL_Driver/Src/stm32g4xx_hal_rcc.c **** /**
1332:Drivers/STM32G4xx_HAL_Driver/Src/stm32g4xx_hal_rcc.c ****   * @brief  RCC Clock Security System interrupt callback.
1333:Drivers/STM32G4xx_HAL_Driver/Src/stm32g4xx_hal_rcc.c ****   * @retval none
1334:Drivers/STM32G4xx_HAL_Driver/Src/stm32g4xx_hal_rcc.c ****   */
1335:Drivers/STM32G4xx_HAL_Driver/Src/stm32g4xx_hal_rcc.c **** __weak void HAL_RCC_CSSCallback(void)
1336:Drivers/STM32G4xx_HAL_Driver/Src/stm32g4xx_hal_rcc.c **** {
1337:Drivers/STM32G4xx_HAL_Driver/Src/stm32g4xx_hal_rcc.c ****   /* NOTE : This function should not be modified, when the callback is needed,
1338:Drivers/STM32G4xx_HAL_Driver/Src/stm32g4xx_hal_rcc.c ****             the HAL_RCC_CSSCallback should be implemented in the user file
1339:Drivers/STM32G4xx_HAL_Driver/Src/stm32g4xx_hal_rcc.c ****    */
1340:Drivers/STM32G4xx_HAL_Driver/Src/stm32g4xx_hal_rcc.c **** }
1341:Drivers/STM32G4xx_HAL_Driver/Src/stm32g4xx_hal_rcc.c **** 
1342:Drivers/STM32G4xx_HAL_Driver/Src/stm32g4xx_hal_rcc.c **** /**
1343:Drivers/STM32G4xx_HAL_Driver/Src/stm32g4xx_hal_rcc.c ****   * @}
1344:Drivers/STM32G4xx_HAL_Driver/Src/stm32g4xx_hal_rcc.c ****   */
1345:Drivers/STM32G4xx_HAL_Driver/Src/stm32g4xx_hal_rcc.c **** 
1346:Drivers/STM32G4xx_HAL_Driver/Src/stm32g4xx_hal_rcc.c **** /**
1347:Drivers/STM32G4xx_HAL_Driver/Src/stm32g4xx_hal_rcc.c ****   * @}
1348:Drivers/STM32G4xx_HAL_Driver/Src/stm32g4xx_hal_rcc.c ****   */
1349:Drivers/STM32G4xx_HAL_Driver/Src/stm32g4xx_hal_rcc.c **** 
1350:Drivers/STM32G4xx_HAL_Driver/Src/stm32g4xx_hal_rcc.c **** /* Private function prototypes -----------------------------------------------*/
1351:Drivers/STM32G4xx_HAL_Driver/Src/stm32g4xx_hal_rcc.c **** /** @addtogroup RCC_Private_Functions
1352:Drivers/STM32G4xx_HAL_Driver/Src/stm32g4xx_hal_rcc.c ****   * @{
1353:Drivers/STM32G4xx_HAL_Driver/Src/stm32g4xx_hal_rcc.c ****   */
1354:Drivers/STM32G4xx_HAL_Driver/Src/stm32g4xx_hal_rcc.c **** 
1355:Drivers/STM32G4xx_HAL_Driver/Src/stm32g4xx_hal_rcc.c **** /**
1356:Drivers/STM32G4xx_HAL_Driver/Src/stm32g4xx_hal_rcc.c ****   * @brief  Compute SYSCLK frequency based on PLL SYSCLK source.
1357:Drivers/STM32G4xx_HAL_Driver/Src/stm32g4xx_hal_rcc.c ****   * @retval SYSCLK frequency
1358:Drivers/STM32G4xx_HAL_Driver/Src/stm32g4xx_hal_rcc.c ****   */
1359:Drivers/STM32G4xx_HAL_Driver/Src/stm32g4xx_hal_rcc.c **** static uint32_t RCC_GetSysClockFreqFromPLLSource(void)
 1667              		.loc 1 1359 17 view .LVU551
 1668              	.LBB8:
1360:Drivers/STM32G4xx_HAL_Driver/Src/stm32g4xx_hal_rcc.c **** {
1361:Drivers/STM32G4xx_HAL_Driver/Src/stm32g4xx_hal_rcc.c ****   uint32_t pllvco, pllsource, pllr, pllm;
 1669              		.loc 1 1361 3 view .LVU552
1362:Drivers/STM32G4xx_HAL_Driver/Src/stm32g4xx_hal_rcc.c ****   uint32_t sysclockfreq;
 1670              		.loc 1 1362 3 view .LVU553
1363:Drivers/STM32G4xx_HAL_Driver/Src/stm32g4xx_hal_rcc.c **** 
1364:Drivers/STM32G4xx_HAL_Driver/Src/stm32g4xx_hal_rcc.c ****   /* PLL_VCO = (HSE_VALUE or HSI_VALUE/ PLLM) * PLLN
1365:Drivers/STM32G4xx_HAL_Driver/Src/stm32g4xx_hal_rcc.c ****      SYSCLK = PLL_VCO / PLLR
1366:Drivers/STM32G4xx_HAL_Driver/Src/stm32g4xx_hal_rcc.c ****    */
1367:Drivers/STM32G4xx_HAL_Driver/Src/stm32g4xx_hal_rcc.c ****   pllsource = READ_BIT(RCC->PLLCFGR, RCC_PLLCFGR_PLLSRC);
 1671              		.loc 1 1367 3 view .LVU554
 1672              		.loc 1 1367 15 is_stmt 0 view .LVU555
 1673 00b2 5E49     		ldr	r1, .L185+4
 1674              	.LVL148:
ARM GAS  /tmp/ccMcPfSr.s 			page 59


 1675              		.loc 1 1367 15 view .LVU556
 1676 00b4 CA68     		ldr	r2, [r1, #12]
 1677              	.LVL149:
1368:Drivers/STM32G4xx_HAL_Driver/Src/stm32g4xx_hal_rcc.c ****   pllm = (READ_BIT(RCC->PLLCFGR, RCC_PLLCFGR_PLLM) >> RCC_PLLCFGR_PLLM_Pos) + 1U ;
 1678              		.loc 1 1368 3 is_stmt 1 view .LVU557
 1679              		.loc 1 1368 11 is_stmt 0 view .LVU558
 1680 00b6 C968     		ldr	r1, [r1, #12]
 1681              		.loc 1 1368 52 view .LVU559
 1682 00b8 C1F30311 		ubfx	r1, r1, #4, #4
 1683              		.loc 1 1368 8 view .LVU560
 1684 00bc 0131     		adds	r1, r1, #1
 1685              	.LVL150:
1369:Drivers/STM32G4xx_HAL_Driver/Src/stm32g4xx_hal_rcc.c **** 
1370:Drivers/STM32G4xx_HAL_Driver/Src/stm32g4xx_hal_rcc.c ****   switch (pllsource)
 1686              		.loc 1 1370 3 is_stmt 1 view .LVU561
1367:Drivers/STM32G4xx_HAL_Driver/Src/stm32g4xx_hal_rcc.c ****   pllm = (READ_BIT(RCC->PLLCFGR, RCC_PLLCFGR_PLLM) >> RCC_PLLCFGR_PLLM_Pos) + 1U ;
 1687              		.loc 1 1367 13 is_stmt 0 view .LVU562
 1688 00be 02F00302 		and	r2, r2, #3
 1689              	.LVL151:
 1690              		.loc 1 1370 3 view .LVU563
 1691 00c2 032A     		cmp	r2, #3
1371:Drivers/STM32G4xx_HAL_Driver/Src/stm32g4xx_hal_rcc.c ****   {
1372:Drivers/STM32G4xx_HAL_Driver/Src/stm32g4xx_hal_rcc.c ****   case RCC_PLLSOURCE_HSE:  /* HSE used as PLL clock source */
1373:Drivers/STM32G4xx_HAL_Driver/Src/stm32g4xx_hal_rcc.c ****     pllvco = (HSE_VALUE / pllm) * (READ_BIT(RCC->PLLCFGR, RCC_PLLCFGR_PLLN) >> RCC_PLLCFGR_PLLN_Pos
 1692              		.loc 1 1373 5 is_stmt 1 view .LVU564
 1693              		.loc 1 1373 36 is_stmt 0 view .LVU565
 1694 00c4 594A     		ldr	r2, .L185+4
 1695              	.LVL152:
 1696              		.loc 1 1373 36 view .LVU566
 1697 00c6 D268     		ldr	r2, [r2, #12]
 1698              		.loc 1 1373 77 view .LVU567
 1699 00c8 C2F30622 		ubfx	r2, r2, #8, #7
 1700              		.loc 1 1373 25 view .LVU568
 1701 00cc 0CBF     		ite	eq
 1702 00ce 5948     		ldreq	r0, .L185+12
 1703              	.LVL153:
1374:Drivers/STM32G4xx_HAL_Driver/Src/stm32g4xx_hal_rcc.c ****     break;
1375:Drivers/STM32G4xx_HAL_Driver/Src/stm32g4xx_hal_rcc.c **** 
1376:Drivers/STM32G4xx_HAL_Driver/Src/stm32g4xx_hal_rcc.c ****   case RCC_PLLSOURCE_HSI:  /* HSI used as PLL clock source */
1377:Drivers/STM32G4xx_HAL_Driver/Src/stm32g4xx_hal_rcc.c ****   default:
1378:Drivers/STM32G4xx_HAL_Driver/Src/stm32g4xx_hal_rcc.c ****     pllvco = (HSI_VALUE / pllm) * (READ_BIT(RCC->PLLCFGR, RCC_PLLCFGR_PLLN) >> RCC_PLLCFGR_PLLN_Pos
 1704              		.loc 1 1378 5 is_stmt 1 view .LVU569
 1705              		.loc 1 1378 25 is_stmt 0 view .LVU570
 1706 00d0 5948     		ldrne	r0, .L185+16
 1707 00d2 B0FBF1F1 		udiv	r1, r0, r1
 1708              	.LVL154:
 1709              		.loc 1 1378 12 view .LVU571
 1710 00d6 01FB02F2 		mul	r2, r1, r2
 1711              	.LVL155:
1379:Drivers/STM32G4xx_HAL_Driver/Src/stm32g4xx_hal_rcc.c ****     break;
 1712              		.loc 1 1379 5 is_stmt 1 view .LVU572
1380:Drivers/STM32G4xx_HAL_Driver/Src/stm32g4xx_hal_rcc.c ****   }
1381:Drivers/STM32G4xx_HAL_Driver/Src/stm32g4xx_hal_rcc.c **** 
1382:Drivers/STM32G4xx_HAL_Driver/Src/stm32g4xx_hal_rcc.c ****   pllr = ((READ_BIT(RCC->PLLCFGR, RCC_PLLCFGR_PLLR) >> RCC_PLLCFGR_PLLR_Pos) + 1U ) * 2U;
 1713              		.loc 1 1382 3 view .LVU573
 1714              		.loc 1 1382 12 is_stmt 0 view .LVU574
 1715 00da 5449     		ldr	r1, .L185+4
ARM GAS  /tmp/ccMcPfSr.s 			page 60


 1716 00dc C968     		ldr	r1, [r1, #12]
 1717              	.LVL156:
1383:Drivers/STM32G4xx_HAL_Driver/Src/stm32g4xx_hal_rcc.c ****   sysclockfreq = pllvco/pllr;
 1718              		.loc 1 1383 3 is_stmt 1 view .LVU575
1384:Drivers/STM32G4xx_HAL_Driver/Src/stm32g4xx_hal_rcc.c **** 
1385:Drivers/STM32G4xx_HAL_Driver/Src/stm32g4xx_hal_rcc.c ****   return sysclockfreq;
 1719              		.loc 1 1385 3 view .LVU576
 1720              		.loc 1 1385 3 is_stmt 0 view .LVU577
 1721              	.LBE8:
 1722              	.LBE7:
 818:Drivers/STM32G4xx_HAL_Driver/Src/stm32g4xx_hal_rcc.c ****       {
 1723              		.loc 1 818 7 is_stmt 1 view .LVU578
 1724              	.LBB10:
 1725              	.LBB9:
1382:Drivers/STM32G4xx_HAL_Driver/Src/stm32g4xx_hal_rcc.c ****   sysclockfreq = pllvco/pllr;
 1726              		.loc 1 1382 53 is_stmt 0 view .LVU579
 1727 00de C1F34161 		ubfx	r1, r1, #25, #2
 1728              	.LVL157:
1382:Drivers/STM32G4xx_HAL_Driver/Src/stm32g4xx_hal_rcc.c ****   sysclockfreq = pllvco/pllr;
 1729              		.loc 1 1382 78 view .LVU580
 1730 00e2 0131     		adds	r1, r1, #1
1382:Drivers/STM32G4xx_HAL_Driver/Src/stm32g4xx_hal_rcc.c ****   sysclockfreq = pllvco/pllr;
 1731              		.loc 1 1382 8 view .LVU581
 1732 00e4 4900     		lsls	r1, r1, #1
1383:Drivers/STM32G4xx_HAL_Driver/Src/stm32g4xx_hal_rcc.c **** 
 1733              		.loc 1 1383 16 view .LVU582
 1734 00e6 B2FBF1F2 		udiv	r2, r2, r1
1383:Drivers/STM32G4xx_HAL_Driver/Src/stm32g4xx_hal_rcc.c **** 
 1735              		.loc 1 1383 16 view .LVU583
 1736              	.LBE9:
 1737              	.LBE10:
 818:Drivers/STM32G4xx_HAL_Driver/Src/stm32g4xx_hal_rcc.c ****       {
 1738              		.loc 1 818 9 view .LVU584
 1739 00ea 5149     		ldr	r1, .L185+8
 1740 00ec 8A42     		cmp	r2, r1
 1741 00ee 1AD9     		bls	.L168
 820:Drivers/STM32G4xx_HAL_Driver/Src/stm32g4xx_hal_rcc.c ****             (((((RCC_ClkInitStruct->ClockType) & RCC_CLOCKTYPE_HCLK) == RCC_CLOCKTYPE_HCLK) &&
 1742              		.loc 1 820 9 is_stmt 1 view .LVU585
 820:Drivers/STM32G4xx_HAL_Driver/Src/stm32g4xx_hal_rcc.c ****             (((((RCC_ClkInitStruct->ClockType) & RCC_CLOCKTYPE_HCLK) == RCC_CLOCKTYPE_HCLK) &&
 1743              		.loc 1 820 15 is_stmt 0 view .LVU586
 1744 00f0 4E4A     		ldr	r2, .L185+4
 1745 00f2 9268     		ldr	r2, [r2, #8]
 820:Drivers/STM32G4xx_HAL_Driver/Src/stm32g4xx_hal_rcc.c ****             (((((RCC_ClkInitStruct->ClockType) & RCC_CLOCKTYPE_HCLK) == RCC_CLOCKTYPE_HCLK) &&
 1746              		.loc 1 820 12 view .LVU587
 1747 00f4 12F0F00F 		tst	r2, #240
 1748 00f8 04D0     		beq	.L150
 820:Drivers/STM32G4xx_HAL_Driver/Src/stm32g4xx_hal_rcc.c ****             (((((RCC_ClkInitStruct->ClockType) & RCC_CLOCKTYPE_HCLK) == RCC_CLOCKTYPE_HCLK) &&
 1749              		.loc 1 820 71 discriminator 1 view .LVU588
 1750 00fa 13F00209 		ands	r9, r3, #2
 1751 00fe B6D0     		beq	.L149
 821:Drivers/STM32G4xx_HAL_Driver/Src/stm32g4xx_hal_rcc.c ****               (RCC_ClkInitStruct->AHBCLKDivider == RCC_SYSCLK_DIV1))))
 1752              		.loc 1 821 93 view .LVU589
 1753 0100 AB68     		ldr	r3, [r5, #8]
 1754 0102 9BB9     		cbnz	r3, .L169
 1755              	.L150:
 824:Drivers/STM32G4xx_HAL_Driver/Src/stm32g4xx_hal_rcc.c ****           hpre = RCC_SYSCLK_DIV2;
 1756              		.loc 1 824 11 is_stmt 1 view .LVU590
ARM GAS  /tmp/ccMcPfSr.s 			page 61


 1757 0104 494A     		ldr	r2, .L185+4
 1758 0106 9368     		ldr	r3, [r2, #8]
 1759 0108 23F0F003 		bic	r3, r3, #240
 1760 010c 43F08003 		orr	r3, r3, #128
 1761 0110 9360     		str	r3, [r2, #8]
 825:Drivers/STM32G4xx_HAL_Driver/Src/stm32g4xx_hal_rcc.c ****         }
 1762              		.loc 1 825 11 view .LVU591
 1763              	.LVL158:
 825:Drivers/STM32G4xx_HAL_Driver/Src/stm32g4xx_hal_rcc.c ****         }
 1764              		.loc 1 825 16 is_stmt 0 view .LVU592
 1765 0112 4FF08009 		mov	r9, #128
 1766 0116 AAE7     		b	.L149
 1767              	.LVL159:
 1768              	.L181:
 835:Drivers/STM32G4xx_HAL_Driver/Src/stm32g4xx_hal_rcc.c ****         {
 1769              		.loc 1 835 9 is_stmt 1 view .LVU593
 835:Drivers/STM32G4xx_HAL_Driver/Src/stm32g4xx_hal_rcc.c ****         {
 1770              		.loc 1 835 12 is_stmt 0 view .LVU594
 1771 0118 444B     		ldr	r3, .L185+4
 1772 011a 1B68     		ldr	r3, [r3]
 835:Drivers/STM32G4xx_HAL_Driver/Src/stm32g4xx_hal_rcc.c ****         {
 1773              		.loc 1 835 11 view .LVU595
 1774 011c 13F4003F 		tst	r3, #131072
 1775 0120 97D1     		bne	.L152
 837:Drivers/STM32G4xx_HAL_Driver/Src/stm32g4xx_hal_rcc.c ****         }
 1776              		.loc 1 837 18 view .LVU596
 1777 0122 0120     		movs	r0, #1
 1778              	.LVL160:
 837:Drivers/STM32G4xx_HAL_Driver/Src/stm32g4xx_hal_rcc.c ****         }
 1779              		.loc 1 837 18 view .LVU597
 1780 0124 7EE0     		b	.L175
 1781              	.LVL161:
 1782              	.L168:
 770:Drivers/STM32G4xx_HAL_Driver/Src/stm32g4xx_hal_rcc.c **** 
 1783              		.loc 1 770 12 view .LVU598
 1784 0126 4FF00009 		mov	r9, #0
 1785 012a A0E7     		b	.L149
 1786              	.L169:
 770:Drivers/STM32G4xx_HAL_Driver/Src/stm32g4xx_hal_rcc.c **** 
 1787              		.loc 1 770 12 view .LVU599
 1788 012c 4FF00009 		mov	r9, #0
 1789 0130 9DE7     		b	.L149
 1790              	.LVL162:
 1791              	.L172:
 770:Drivers/STM32G4xx_HAL_Driver/Src/stm32g4xx_hal_rcc.c **** 
 1792              		.loc 1 770 12 view .LVU600
 1793 0132 4FF00009 		mov	r9, #0
 1794 0136 9AE7     		b	.L149
 1795              	.LVL163:
 1796              	.L182:
 876:Drivers/STM32G4xx_HAL_Driver/Src/stm32g4xx_hal_rcc.c ****   {
 1797              		.loc 1 876 3 is_stmt 1 view .LVU601
 876:Drivers/STM32G4xx_HAL_Driver/Src/stm32g4xx_hal_rcc.c ****   {
 1798              		.loc 1 876 26 is_stmt 0 view .LVU602
 1799 0138 2B68     		ldr	r3, [r5]
 876:Drivers/STM32G4xx_HAL_Driver/Src/stm32g4xx_hal_rcc.c ****   {
 1800              		.loc 1 876 6 view .LVU603
ARM GAS  /tmp/ccMcPfSr.s 			page 62


 1801 013a 13F0020F 		tst	r3, #2
 1802 013e 29D1     		bne	.L164
 896:Drivers/STM32G4xx_HAL_Driver/Src/stm32g4xx_hal_rcc.c ****     {
 1803              		.loc 1 896 5 is_stmt 1 view .LVU604
 896:Drivers/STM32G4xx_HAL_Driver/Src/stm32g4xx_hal_rcc.c ****     {
 1804              		.loc 1 896 7 is_stmt 0 view .LVU605
 1805 0140 B9F1800F 		cmp	r9, #128
 1806 0144 40D1     		bne	.L158
 898:Drivers/STM32G4xx_HAL_Driver/Src/stm32g4xx_hal_rcc.c ****     }
 1807              		.loc 1 898 7 is_stmt 1 view .LVU606
 1808 0146 394A     		ldr	r2, .L185+4
 1809 0148 9368     		ldr	r3, [r2, #8]
 1810 014a 23F0F003 		bic	r3, r3, #240
 1811 014e 9360     		str	r3, [r2, #8]
 1812 0150 3AE0     		b	.L158
 1813              	.LVL164:
 1814              	.L184:
 906:Drivers/STM32G4xx_HAL_Driver/Src/stm32g4xx_hal_rcc.c **** 
 1815              		.loc 1 906 5 view .LVU607
 1816 0152 354A     		ldr	r2, .L185
 1817 0154 1368     		ldr	r3, [r2]
 1818 0156 23F00F03 		bic	r3, r3, #15
 1819 015a 2343     		orrs	r3, r3, r4
 1820 015c 1360     		str	r3, [r2]
 910:Drivers/STM32G4xx_HAL_Driver/Src/stm32g4xx_hal_rcc.c **** 
 1821              		.loc 1 910 5 view .LVU608
 910:Drivers/STM32G4xx_HAL_Driver/Src/stm32g4xx_hal_rcc.c **** 
 1822              		.loc 1 910 17 is_stmt 0 view .LVU609
 1823 015e FFF7FEFF 		bl	HAL_GetTick
 1824              	.LVL165:
 1825 0162 0646     		mov	r6, r0
 1826              	.LVL166:
 912:Drivers/STM32G4xx_HAL_Driver/Src/stm32g4xx_hal_rcc.c ****     {
 1827              		.loc 1 912 5 is_stmt 1 view .LVU610
 912:Drivers/STM32G4xx_HAL_Driver/Src/stm32g4xx_hal_rcc.c ****     {
 1828              		.loc 1 912 12 is_stmt 0 view .LVU611
 1829 0164 304F     		ldr	r7, .L185
 914:Drivers/STM32G4xx_HAL_Driver/Src/stm32g4xx_hal_rcc.c ****       {
 1830              		.loc 1 914 10 view .LVU612
 1831 0166 41F28838 		movw	r8, #5000
 1832              	.LVL167:
 1833              	.L160:
 912:Drivers/STM32G4xx_HAL_Driver/Src/stm32g4xx_hal_rcc.c ****     {
 1834              		.loc 1 912 11 is_stmt 1 view .LVU613
 912:Drivers/STM32G4xx_HAL_Driver/Src/stm32g4xx_hal_rcc.c ****     {
 1835              		.loc 1 912 12 is_stmt 0 view .LVU614
 1836 016a 3B68     		ldr	r3, [r7]
 1837 016c 03F00F03 		and	r3, r3, #15
 912:Drivers/STM32G4xx_HAL_Driver/Src/stm32g4xx_hal_rcc.c ****     {
 1838              		.loc 1 912 11 view .LVU615
 1839 0170 A342     		cmp	r3, r4
 1840 0172 2FD0     		beq	.L159
 914:Drivers/STM32G4xx_HAL_Driver/Src/stm32g4xx_hal_rcc.c ****       {
 1841              		.loc 1 914 7 is_stmt 1 view .LVU616
 914:Drivers/STM32G4xx_HAL_Driver/Src/stm32g4xx_hal_rcc.c ****       {
 1842              		.loc 1 914 12 is_stmt 0 view .LVU617
 1843 0174 FFF7FEFF 		bl	HAL_GetTick
ARM GAS  /tmp/ccMcPfSr.s 			page 63


 1844              	.LVL168:
 914:Drivers/STM32G4xx_HAL_Driver/Src/stm32g4xx_hal_rcc.c ****       {
 1845              		.loc 1 914 26 view .LVU618
 1846 0178 801B     		subs	r0, r0, r6
 914:Drivers/STM32G4xx_HAL_Driver/Src/stm32g4xx_hal_rcc.c ****       {
 1847              		.loc 1 914 10 view .LVU619
 1848 017a 4045     		cmp	r0, r8
 1849 017c F5D9     		bls	.L160
 916:Drivers/STM32G4xx_HAL_Driver/Src/stm32g4xx_hal_rcc.c ****       }
 1850              		.loc 1 916 16 view .LVU620
 1851 017e 0320     		movs	r0, #3
 1852 0180 50E0     		b	.L175
 1853              	.LVL169:
 1854              	.L165:
 1855              	.LCFI11:
 1856              		.cfi_def_cfa_offset 0
 1857              		.cfi_restore 3
 1858              		.cfi_restore 4
 1859              		.cfi_restore 5
 1860              		.cfi_restore 6
 1861              		.cfi_restore 7
 1862              		.cfi_restore 8
 1863              		.cfi_restore 9
 1864              		.cfi_restore 14
 775:Drivers/STM32G4xx_HAL_Driver/Src/stm32g4xx_hal_rcc.c ****   }
 1865              		.loc 1 775 12 view .LVU621
 1866 0182 0120     		movs	r0, #1
 1867              	.LVL170:
 940:Drivers/STM32G4xx_HAL_Driver/Src/stm32g4xx_hal_rcc.c **** 
 1868              		.loc 1 940 1 view .LVU622
 1869 0184 7047     		bx	lr
 1870              	.LVL171:
 1871              	.L166:
 1872              	.LCFI12:
 1873              		.cfi_def_cfa_offset 32
 1874              		.cfi_offset 3, -32
 1875              		.cfi_offset 4, -28
 1876              		.cfi_offset 5, -24
 1877              		.cfi_offset 6, -20
 1878              		.cfi_offset 7, -16
 1879              		.cfi_offset 8, -12
 1880              		.cfi_offset 9, -8
 1881              		.cfi_offset 14, -4
 796:Drivers/STM32G4xx_HAL_Driver/Src/stm32g4xx_hal_rcc.c ****     }
 1882              		.loc 1 796 14 view .LVU623
 1883 0186 0120     		movs	r0, #1
 1884              	.LVL172:
 796:Drivers/STM32G4xx_HAL_Driver/Src/stm32g4xx_hal_rcc.c ****     }
 1885              		.loc 1 796 14 view .LVU624
 1886 0188 4CE0     		b	.L175
 1887              	.LVL173:
 1888              	.L171:
 846:Drivers/STM32G4xx_HAL_Driver/Src/stm32g4xx_hal_rcc.c ****         }
 1889              		.loc 1 846 18 view .LVU625
 1890 018a 0120     		movs	r0, #1
 1891              	.LVL174:
 846:Drivers/STM32G4xx_HAL_Driver/Src/stm32g4xx_hal_rcc.c ****         }
ARM GAS  /tmp/ccMcPfSr.s 			page 64


 1892              		.loc 1 846 18 view .LVU626
 1893 018c 4AE0     		b	.L175
 1894              	.LVL175:
 1895              	.L145:
 876:Drivers/STM32G4xx_HAL_Driver/Src/stm32g4xx_hal_rcc.c ****   {
 1896              		.loc 1 876 3 is_stmt 1 view .LVU627
 876:Drivers/STM32G4xx_HAL_Driver/Src/stm32g4xx_hal_rcc.c ****   {
 1897              		.loc 1 876 6 is_stmt 0 view .LVU628
 1898 018e 13F0020F 		tst	r3, #2
 1899 0192 19D0     		beq	.L158
 1900              	.LVL176:
 1901              	.L164:
 880:Drivers/STM32G4xx_HAL_Driver/Src/stm32g4xx_hal_rcc.c ****     {
 1902              		.loc 1 880 5 is_stmt 1 view .LVU629
 880:Drivers/STM32G4xx_HAL_Driver/Src/stm32g4xx_hal_rcc.c ****     {
 1903              		.loc 1 880 8 is_stmt 0 view .LVU630
 1904 0194 13F0040F 		tst	r3, #4
 1905 0198 04D0     		beq	.L156
 882:Drivers/STM32G4xx_HAL_Driver/Src/stm32g4xx_hal_rcc.c ****     }
 1906              		.loc 1 882 7 is_stmt 1 view .LVU631
 1907 019a 244A     		ldr	r2, .L185+4
 1908 019c 9368     		ldr	r3, [r2, #8]
 1909 019e 43F4E063 		orr	r3, r3, #1792
 1910 01a2 9360     		str	r3, [r2, #8]
 1911              	.L156:
 884:Drivers/STM32G4xx_HAL_Driver/Src/stm32g4xx_hal_rcc.c ****     {
 1912              		.loc 1 884 5 view .LVU632
 884:Drivers/STM32G4xx_HAL_Driver/Src/stm32g4xx_hal_rcc.c ****     {
 1913              		.loc 1 884 41 is_stmt 0 view .LVU633
 1914 01a4 2B68     		ldr	r3, [r5]
 884:Drivers/STM32G4xx_HAL_Driver/Src/stm32g4xx_hal_rcc.c ****     {
 1915              		.loc 1 884 8 view .LVU634
 1916 01a6 13F0080F 		tst	r3, #8
 1917 01aa 06D0     		beq	.L157
 886:Drivers/STM32G4xx_HAL_Driver/Src/stm32g4xx_hal_rcc.c ****     }
 1918              		.loc 1 886 7 is_stmt 1 view .LVU635
 1919 01ac 1F4A     		ldr	r2, .L185+4
 1920 01ae 9368     		ldr	r3, [r2, #8]
 1921 01b0 23F47C53 		bic	r3, r3, #16128
 1922 01b4 43F4E063 		orr	r3, r3, #1792
 1923 01b8 9360     		str	r3, [r2, #8]
 1924              	.L157:
 890:Drivers/STM32G4xx_HAL_Driver/Src/stm32g4xx_hal_rcc.c ****     MODIFY_REG(RCC->CFGR, RCC_CFGR_HPRE, RCC_ClkInitStruct->AHBCLKDivider);
 1925              		.loc 1 890 5 view .LVU636
 891:Drivers/STM32G4xx_HAL_Driver/Src/stm32g4xx_hal_rcc.c ****   }
 1926              		.loc 1 891 5 view .LVU637
 1927 01ba 1C4A     		ldr	r2, .L185+4
 1928 01bc 9368     		ldr	r3, [r2, #8]
 1929 01be 23F0F003 		bic	r3, r3, #240
 1930 01c2 A968     		ldr	r1, [r5, #8]
 1931 01c4 0B43     		orrs	r3, r3, r1
 1932 01c6 9360     		str	r3, [r2, #8]
 1933              	.L158:
 903:Drivers/STM32G4xx_HAL_Driver/Src/stm32g4xx_hal_rcc.c ****   {
 1934              		.loc 1 903 3 view .LVU638
 903:Drivers/STM32G4xx_HAL_Driver/Src/stm32g4xx_hal_rcc.c ****   {
 1935              		.loc 1 903 18 is_stmt 0 view .LVU639
ARM GAS  /tmp/ccMcPfSr.s 			page 65


 1936 01c8 174B     		ldr	r3, .L185
 1937 01ca 1B68     		ldr	r3, [r3]
 1938 01cc 03F00F03 		and	r3, r3, #15
 903:Drivers/STM32G4xx_HAL_Driver/Src/stm32g4xx_hal_rcc.c ****   {
 1939              		.loc 1 903 6 view .LVU640
 1940 01d0 A342     		cmp	r3, r4
 1941 01d2 BED8     		bhi	.L184
 1942              	.L159:
 922:Drivers/STM32G4xx_HAL_Driver/Src/stm32g4xx_hal_rcc.c ****   {
 1943              		.loc 1 922 3 is_stmt 1 view .LVU641
 922:Drivers/STM32G4xx_HAL_Driver/Src/stm32g4xx_hal_rcc.c ****   {
 1944              		.loc 1 922 39 is_stmt 0 view .LVU642
 1945 01d4 2B68     		ldr	r3, [r5]
 922:Drivers/STM32G4xx_HAL_Driver/Src/stm32g4xx_hal_rcc.c ****   {
 1946              		.loc 1 922 6 view .LVU643
 1947 01d6 13F0040F 		tst	r3, #4
 1948 01da 06D0     		beq	.L162
 924:Drivers/STM32G4xx_HAL_Driver/Src/stm32g4xx_hal_rcc.c ****     MODIFY_REG(RCC->CFGR, RCC_CFGR_PPRE1, RCC_ClkInitStruct->APB1CLKDivider);
 1949              		.loc 1 924 5 is_stmt 1 view .LVU644
 925:Drivers/STM32G4xx_HAL_Driver/Src/stm32g4xx_hal_rcc.c ****   }
 1950              		.loc 1 925 5 view .LVU645
 1951 01dc 134A     		ldr	r2, .L185+4
 1952 01de 9368     		ldr	r3, [r2, #8]
 1953 01e0 23F4E063 		bic	r3, r3, #1792
 1954 01e4 E968     		ldr	r1, [r5, #12]
 1955 01e6 0B43     		orrs	r3, r3, r1
 1956 01e8 9360     		str	r3, [r2, #8]
 1957              	.L162:
 929:Drivers/STM32G4xx_HAL_Driver/Src/stm32g4xx_hal_rcc.c ****   {
 1958              		.loc 1 929 3 view .LVU646
 929:Drivers/STM32G4xx_HAL_Driver/Src/stm32g4xx_hal_rcc.c ****   {
 1959              		.loc 1 929 38 is_stmt 0 view .LVU647
 1960 01ea 2B68     		ldr	r3, [r5]
 929:Drivers/STM32G4xx_HAL_Driver/Src/stm32g4xx_hal_rcc.c ****   {
 1961              		.loc 1 929 5 view .LVU648
 1962 01ec 13F0080F 		tst	r3, #8
 1963 01f0 07D0     		beq	.L163
 931:Drivers/STM32G4xx_HAL_Driver/Src/stm32g4xx_hal_rcc.c ****     MODIFY_REG(RCC->CFGR, RCC_CFGR_PPRE2, ((RCC_ClkInitStruct->APB2CLKDivider) << 3U));
 1964              		.loc 1 931 5 is_stmt 1 view .LVU649
 932:Drivers/STM32G4xx_HAL_Driver/Src/stm32g4xx_hal_rcc.c ****   }
 1965              		.loc 1 932 5 view .LVU650
 1966 01f2 0E4A     		ldr	r2, .L185+4
 1967 01f4 9368     		ldr	r3, [r2, #8]
 1968 01f6 2969     		ldr	r1, [r5, #16]
 1969 01f8 23F46053 		bic	r3, r3, #14336
 1970 01fc 43EAC103 		orr	r3, r3, r1, lsl #3
 1971 0200 9360     		str	r3, [r2, #8]
 1972              	.L163:
 936:Drivers/STM32G4xx_HAL_Driver/Src/stm32g4xx_hal_rcc.c **** 
 1973              		.loc 1 936 3 view .LVU651
 936:Drivers/STM32G4xx_HAL_Driver/Src/stm32g4xx_hal_rcc.c **** 
 1974              		.loc 1 936 21 is_stmt 0 view .LVU652
 1975 0202 FFF7FEFF 		bl	HAL_RCC_GetSysClockFreq
 1976              	.LVL177:
 936:Drivers/STM32G4xx_HAL_Driver/Src/stm32g4xx_hal_rcc.c **** 
 1977              		.loc 1 936 65 view .LVU653
 1978 0206 094B     		ldr	r3, .L185+4
ARM GAS  /tmp/ccMcPfSr.s 			page 66


 1979 0208 9B68     		ldr	r3, [r3, #8]
 936:Drivers/STM32G4xx_HAL_Driver/Src/stm32g4xx_hal_rcc.c **** 
 1980              		.loc 1 936 100 view .LVU654
 1981 020a C3F30313 		ubfx	r3, r3, #4, #4
 936:Drivers/STM32G4xx_HAL_Driver/Src/stm32g4xx_hal_rcc.c **** 
 1982              		.loc 1 936 122 view .LVU655
 1983 020e 0B4A     		ldr	r2, .L185+20
 1984 0210 D35C     		ldrb	r3, [r2, r3]	@ zero_extendqisi2
 1985 0212 03F01F03 		and	r3, r3, #31
 936:Drivers/STM32G4xx_HAL_Driver/Src/stm32g4xx_hal_rcc.c **** 
 1986              		.loc 1 936 47 view .LVU656
 1987 0216 D840     		lsrs	r0, r0, r3
 936:Drivers/STM32G4xx_HAL_Driver/Src/stm32g4xx_hal_rcc.c **** 
 1988              		.loc 1 936 19 view .LVU657
 1989 0218 094B     		ldr	r3, .L185+24
 1990 021a 1860     		str	r0, [r3]
 939:Drivers/STM32G4xx_HAL_Driver/Src/stm32g4xx_hal_rcc.c **** }
 1991              		.loc 1 939 3 is_stmt 1 view .LVU658
 939:Drivers/STM32G4xx_HAL_Driver/Src/stm32g4xx_hal_rcc.c **** }
 1992              		.loc 1 939 10 is_stmt 0 view .LVU659
 1993 021c 094B     		ldr	r3, .L185+28
 1994 021e 1868     		ldr	r0, [r3]
 1995 0220 FFF7FEFF 		bl	HAL_InitTick
 1996              	.LVL178:
 1997              	.L175:
 940:Drivers/STM32G4xx_HAL_Driver/Src/stm32g4xx_hal_rcc.c **** 
 1998              		.loc 1 940 1 view .LVU660
 1999 0224 BDE8F883 		pop	{r3, r4, r5, r6, r7, r8, r9, pc}
 2000              	.LVL179:
 2001              	.L186:
 940:Drivers/STM32G4xx_HAL_Driver/Src/stm32g4xx_hal_rcc.c **** 
 2002              		.loc 1 940 1 view .LVU661
 2003              		.align	2
 2004              	.L185:
 2005 0228 00200240 		.word	1073881088
 2006 022c 00100240 		.word	1073876992
 2007 0230 00B4C404 		.word	80000000
 2008 0234 00127A00 		.word	8000000
 2009 0238 0024F400 		.word	16000000
 2010 023c 00000000 		.word	AHBPrescTable
 2011 0240 00000000 		.word	SystemCoreClock
 2012 0244 00000000 		.word	uwTickPrio
 2013              		.cfi_endproc
 2014              	.LFE134:
 2016              		.section	.text.HAL_RCC_GetHCLKFreq,"ax",%progbits
 2017              		.align	1
 2018              		.global	HAL_RCC_GetHCLKFreq
 2019              		.syntax unified
 2020              		.thumb
 2021              		.thumb_func
 2022              		.fpu fpv4-sp-d16
 2024              	HAL_RCC_GetHCLKFreq:
 2025              	.LFB137:
1119:Drivers/STM32G4xx_HAL_Driver/Src/stm32g4xx_hal_rcc.c ****   return SystemCoreClock;
 2026              		.loc 1 1119 1 is_stmt 1 view -0
 2027              		.cfi_startproc
 2028              		@ args = 0, pretend = 0, frame = 0
ARM GAS  /tmp/ccMcPfSr.s 			page 67


 2029              		@ frame_needed = 0, uses_anonymous_args = 0
 2030              		@ link register save eliminated.
1120:Drivers/STM32G4xx_HAL_Driver/Src/stm32g4xx_hal_rcc.c **** }
 2031              		.loc 1 1120 3 view .LVU663
1121:Drivers/STM32G4xx_HAL_Driver/Src/stm32g4xx_hal_rcc.c **** 
 2032              		.loc 1 1121 1 is_stmt 0 view .LVU664
 2033 0000 014B     		ldr	r3, .L188
 2034 0002 1868     		ldr	r0, [r3]
 2035 0004 7047     		bx	lr
 2036              	.L189:
 2037 0006 00BF     		.align	2
 2038              	.L188:
 2039 0008 00000000 		.word	SystemCoreClock
 2040              		.cfi_endproc
 2041              	.LFE137:
 2043              		.section	.text.HAL_RCC_GetPCLK1Freq,"ax",%progbits
 2044              		.align	1
 2045              		.global	HAL_RCC_GetPCLK1Freq
 2046              		.syntax unified
 2047              		.thumb
 2048              		.thumb_func
 2049              		.fpu fpv4-sp-d16
 2051              	HAL_RCC_GetPCLK1Freq:
 2052              	.LFB138:
1130:Drivers/STM32G4xx_HAL_Driver/Src/stm32g4xx_hal_rcc.c ****   /* Get HCLK source and Compute PCLK1 frequency ---------------------------*/
 2053              		.loc 1 1130 1 is_stmt 1 view -0
 2054              		.cfi_startproc
 2055              		@ args = 0, pretend = 0, frame = 0
 2056              		@ frame_needed = 0, uses_anonymous_args = 0
 2057              		@ link register save eliminated.
1132:Drivers/STM32G4xx_HAL_Driver/Src/stm32g4xx_hal_rcc.c **** }
 2058              		.loc 1 1132 3 view .LVU666
 2059              	.LBB13:
 2060              	.LBI13:
1118:Drivers/STM32G4xx_HAL_Driver/Src/stm32g4xx_hal_rcc.c **** {
 2061              		.loc 1 1118 10 view .LVU667
 2062              	.LBB14:
1120:Drivers/STM32G4xx_HAL_Driver/Src/stm32g4xx_hal_rcc.c **** }
 2063              		.loc 1 1120 3 view .LVU668
 2064              	.LBE14:
 2065              	.LBE13:
1132:Drivers/STM32G4xx_HAL_Driver/Src/stm32g4xx_hal_rcc.c **** }
 2066              		.loc 1 1132 51 is_stmt 0 view .LVU669
 2067 0000 054B     		ldr	r3, .L191
 2068 0002 9B68     		ldr	r3, [r3, #8]
1132:Drivers/STM32G4xx_HAL_Driver/Src/stm32g4xx_hal_rcc.c **** }
 2069              		.loc 1 1132 87 view .LVU670
 2070 0004 C3F30223 		ubfx	r3, r3, #8, #3
1132:Drivers/STM32G4xx_HAL_Driver/Src/stm32g4xx_hal_rcc.c **** }
 2071              		.loc 1 1132 110 view .LVU671
 2072 0008 044A     		ldr	r2, .L191+4
 2073 000a D35C     		ldrb	r3, [r2, r3]	@ zero_extendqisi2
 2074 000c 03F01F03 		and	r3, r3, #31
1132:Drivers/STM32G4xx_HAL_Driver/Src/stm32g4xx_hal_rcc.c **** }
 2075              		.loc 1 1132 33 view .LVU672
 2076 0010 034A     		ldr	r2, .L191+8
 2077 0012 1068     		ldr	r0, [r2]
ARM GAS  /tmp/ccMcPfSr.s 			page 68


1133:Drivers/STM32G4xx_HAL_Driver/Src/stm32g4xx_hal_rcc.c **** 
 2078              		.loc 1 1133 1 view .LVU673
 2079 0014 D840     		lsrs	r0, r0, r3
 2080 0016 7047     		bx	lr
 2081              	.L192:
 2082              		.align	2
 2083              	.L191:
 2084 0018 00100240 		.word	1073876992
 2085 001c 00000000 		.word	APBPrescTable
 2086 0020 00000000 		.word	SystemCoreClock
 2087              		.cfi_endproc
 2088              	.LFE138:
 2090              		.section	.text.HAL_RCC_GetPCLK2Freq,"ax",%progbits
 2091              		.align	1
 2092              		.global	HAL_RCC_GetPCLK2Freq
 2093              		.syntax unified
 2094              		.thumb
 2095              		.thumb_func
 2096              		.fpu fpv4-sp-d16
 2098              	HAL_RCC_GetPCLK2Freq:
 2099              	.LFB139:
1142:Drivers/STM32G4xx_HAL_Driver/Src/stm32g4xx_hal_rcc.c ****   /* Get HCLK source and Compute PCLK2 frequency ---------------------------*/
 2100              		.loc 1 1142 1 is_stmt 1 view -0
 2101              		.cfi_startproc
 2102              		@ args = 0, pretend = 0, frame = 0
 2103              		@ frame_needed = 0, uses_anonymous_args = 0
 2104              		@ link register save eliminated.
1144:Drivers/STM32G4xx_HAL_Driver/Src/stm32g4xx_hal_rcc.c **** }
 2105              		.loc 1 1144 3 view .LVU675
 2106              	.LBB17:
 2107              	.LBI17:
1118:Drivers/STM32G4xx_HAL_Driver/Src/stm32g4xx_hal_rcc.c **** {
 2108              		.loc 1 1118 10 view .LVU676
 2109              	.LBB18:
1120:Drivers/STM32G4xx_HAL_Driver/Src/stm32g4xx_hal_rcc.c **** }
 2110              		.loc 1 1120 3 view .LVU677
 2111              	.LBE18:
 2112              	.LBE17:
1144:Drivers/STM32G4xx_HAL_Driver/Src/stm32g4xx_hal_rcc.c **** }
 2113              		.loc 1 1144 50 is_stmt 0 view .LVU678
 2114 0000 054B     		ldr	r3, .L194
 2115 0002 9B68     		ldr	r3, [r3, #8]
1144:Drivers/STM32G4xx_HAL_Driver/Src/stm32g4xx_hal_rcc.c **** }
 2116              		.loc 1 1144 86 view .LVU679
 2117 0004 C3F3C223 		ubfx	r3, r3, #11, #3
1144:Drivers/STM32G4xx_HAL_Driver/Src/stm32g4xx_hal_rcc.c **** }
 2118              		.loc 1 1144 109 view .LVU680
 2119 0008 044A     		ldr	r2, .L194+4
 2120 000a D35C     		ldrb	r3, [r2, r3]	@ zero_extendqisi2
 2121 000c 03F01F03 		and	r3, r3, #31
1144:Drivers/STM32G4xx_HAL_Driver/Src/stm32g4xx_hal_rcc.c **** }
 2122              		.loc 1 1144 32 view .LVU681
 2123 0010 034A     		ldr	r2, .L194+8
 2124 0012 1068     		ldr	r0, [r2]
1145:Drivers/STM32G4xx_HAL_Driver/Src/stm32g4xx_hal_rcc.c **** 
 2125              		.loc 1 1145 1 view .LVU682
 2126 0014 D840     		lsrs	r0, r0, r3
ARM GAS  /tmp/ccMcPfSr.s 			page 69


 2127 0016 7047     		bx	lr
 2128              	.L195:
 2129              		.align	2
 2130              	.L194:
 2131 0018 00100240 		.word	1073876992
 2132 001c 00000000 		.word	APBPrescTable
 2133 0020 00000000 		.word	SystemCoreClock
 2134              		.cfi_endproc
 2135              	.LFE139:
 2137              		.section	.text.HAL_RCC_GetOscConfig,"ax",%progbits
 2138              		.align	1
 2139              		.global	HAL_RCC_GetOscConfig
 2140              		.syntax unified
 2141              		.thumb
 2142              		.thumb_func
 2143              		.fpu fpv4-sp-d16
 2145              	HAL_RCC_GetOscConfig:
 2146              	.LVL180:
 2147              	.LFB140:
1155:Drivers/STM32G4xx_HAL_Driver/Src/stm32g4xx_hal_rcc.c ****   /* Check the parameters */
 2148              		.loc 1 1155 1 is_stmt 1 view -0
 2149              		.cfi_startproc
 2150              		@ args = 0, pretend = 0, frame = 0
 2151              		@ frame_needed = 0, uses_anonymous_args = 0
 2152              		@ link register save eliminated.
1157:Drivers/STM32G4xx_HAL_Driver/Src/stm32g4xx_hal_rcc.c **** 
 2153              		.loc 1 1157 3 view .LVU684
1160:Drivers/STM32G4xx_HAL_Driver/Src/stm32g4xx_hal_rcc.c ****                                       RCC_OSCILLATORTYPE_LSE | RCC_OSCILLATORTYPE_LSI | RCC_OSCILLA
 2154              		.loc 1 1160 3 view .LVU685
1160:Drivers/STM32G4xx_HAL_Driver/Src/stm32g4xx_hal_rcc.c ****                                       RCC_OSCILLATORTYPE_LSE | RCC_OSCILLATORTYPE_LSI | RCC_OSCILLA
 2155              		.loc 1 1160 37 is_stmt 0 view .LVU686
 2156 0000 2F23     		movs	r3, #47
 2157 0002 0360     		str	r3, [r0]
1164:Drivers/STM32G4xx_HAL_Driver/Src/stm32g4xx_hal_rcc.c ****   {
 2158              		.loc 1 1164 3 is_stmt 1 view .LVU687
1164:Drivers/STM32G4xx_HAL_Driver/Src/stm32g4xx_hal_rcc.c ****   {
 2159              		.loc 1 1164 6 is_stmt 0 view .LVU688
 2160 0004 2E4B     		ldr	r3, .L207
 2161 0006 1B68     		ldr	r3, [r3]
1164:Drivers/STM32G4xx_HAL_Driver/Src/stm32g4xx_hal_rcc.c ****   {
 2162              		.loc 1 1164 5 view .LVU689
 2163 0008 13F4802F 		tst	r3, #262144
 2164 000c 43D0     		beq	.L197
1166:Drivers/STM32G4xx_HAL_Driver/Src/stm32g4xx_hal_rcc.c ****   }
 2165              		.loc 1 1166 5 is_stmt 1 view .LVU690
1166:Drivers/STM32G4xx_HAL_Driver/Src/stm32g4xx_hal_rcc.c ****   }
 2166              		.loc 1 1166 33 is_stmt 0 view .LVU691
 2167 000e 4FF4A023 		mov	r3, #327680
 2168 0012 4360     		str	r3, [r0, #4]
 2169              	.L198:
1178:Drivers/STM32G4xx_HAL_Driver/Src/stm32g4xx_hal_rcc.c ****   {
 2170              		.loc 1 1178 3 is_stmt 1 view .LVU692
1178:Drivers/STM32G4xx_HAL_Driver/Src/stm32g4xx_hal_rcc.c ****   {
 2171              		.loc 1 1178 6 is_stmt 0 view .LVU693
 2172 0014 2A4B     		ldr	r3, .L207
 2173 0016 1B68     		ldr	r3, [r3]
1180:Drivers/STM32G4xx_HAL_Driver/Src/stm32g4xx_hal_rcc.c ****   }
ARM GAS  /tmp/ccMcPfSr.s 			page 70


 2174              		.loc 1 1180 33 view .LVU694
 2175 0018 03F48073 		and	r3, r3, #256
 2176 001c C360     		str	r3, [r0, #12]
1187:Drivers/STM32G4xx_HAL_Driver/Src/stm32g4xx_hal_rcc.c **** 
 2177              		.loc 1 1187 3 is_stmt 1 view .LVU695
1187:Drivers/STM32G4xx_HAL_Driver/Src/stm32g4xx_hal_rcc.c **** 
 2178              		.loc 1 1187 44 is_stmt 0 view .LVU696
 2179 001e 284A     		ldr	r2, .L207
 2180 0020 5368     		ldr	r3, [r2, #4]
1187:Drivers/STM32G4xx_HAL_Driver/Src/stm32g4xx_hal_rcc.c **** 
 2181              		.loc 1 1187 84 view .LVU697
 2182 0022 C3F30663 		ubfx	r3, r3, #24, #7
1187:Drivers/STM32G4xx_HAL_Driver/Src/stm32g4xx_hal_rcc.c **** 
 2183              		.loc 1 1187 42 view .LVU698
 2184 0026 0361     		str	r3, [r0, #16]
1190:Drivers/STM32G4xx_HAL_Driver/Src/stm32g4xx_hal_rcc.c ****   {
 2185              		.loc 1 1190 3 is_stmt 1 view .LVU699
1190:Drivers/STM32G4xx_HAL_Driver/Src/stm32g4xx_hal_rcc.c ****   {
 2186              		.loc 1 1190 6 is_stmt 0 view .LVU700
 2187 0028 D2F89030 		ldr	r3, [r2, #144]
1190:Drivers/STM32G4xx_HAL_Driver/Src/stm32g4xx_hal_rcc.c ****   {
 2188              		.loc 1 1190 5 view .LVU701
 2189 002c 13F0040F 		tst	r3, #4
 2190 0030 3BD0     		beq	.L201
1192:Drivers/STM32G4xx_HAL_Driver/Src/stm32g4xx_hal_rcc.c ****   }
 2191              		.loc 1 1192 5 is_stmt 1 view .LVU702
1192:Drivers/STM32G4xx_HAL_Driver/Src/stm32g4xx_hal_rcc.c ****   }
 2192              		.loc 1 1192 33 is_stmt 0 view .LVU703
 2193 0032 0523     		movs	r3, #5
 2194 0034 8360     		str	r3, [r0, #8]
 2195              	.L202:
1204:Drivers/STM32G4xx_HAL_Driver/Src/stm32g4xx_hal_rcc.c ****   {
 2196              		.loc 1 1204 3 is_stmt 1 view .LVU704
1204:Drivers/STM32G4xx_HAL_Driver/Src/stm32g4xx_hal_rcc.c ****   {
 2197              		.loc 1 1204 6 is_stmt 0 view .LVU705
 2198 0036 224B     		ldr	r3, .L207
 2199 0038 D3F89420 		ldr	r2, [r3, #148]
1204:Drivers/STM32G4xx_HAL_Driver/Src/stm32g4xx_hal_rcc.c ****   {
 2200              		.loc 1 1204 5 view .LVU706
 2201 003c 02F00102 		and	r2, r2, #1
 2202 0040 4261     		str	r2, [r0, #20]
1214:Drivers/STM32G4xx_HAL_Driver/Src/stm32g4xx_hal_rcc.c ****   {
 2203              		.loc 1 1214 3 is_stmt 1 view .LVU707
1214:Drivers/STM32G4xx_HAL_Driver/Src/stm32g4xx_hal_rcc.c ****   {
 2204              		.loc 1 1214 6 is_stmt 0 view .LVU708
 2205 0042 D3F89820 		ldr	r2, [r3, #152]
1214:Drivers/STM32G4xx_HAL_Driver/Src/stm32g4xx_hal_rcc.c ****   {
 2206              		.loc 1 1214 5 view .LVU709
 2207 0046 02F00102 		and	r2, r2, #1
 2208 004a 8261     		str	r2, [r0, #24]
1224:Drivers/STM32G4xx_HAL_Driver/Src/stm32g4xx_hal_rcc.c ****   {
 2209              		.loc 1 1224 3 is_stmt 1 view .LVU710
1224:Drivers/STM32G4xx_HAL_Driver/Src/stm32g4xx_hal_rcc.c ****   {
 2210              		.loc 1 1224 6 is_stmt 0 view .LVU711
 2211 004c 1B68     		ldr	r3, [r3]
1230:Drivers/STM32G4xx_HAL_Driver/Src/stm32g4xx_hal_rcc.c ****   }
 2212              		.loc 1 1230 37 view .LVU712
ARM GAS  /tmp/ccMcPfSr.s 			page 71


 2213 004e 13F0807F 		tst	r3, #16777216
 2214 0052 14BF     		ite	ne
 2215 0054 0223     		movne	r3, #2
 2216 0056 0123     		moveq	r3, #1
 2217 0058 C361     		str	r3, [r0, #28]
1232:Drivers/STM32G4xx_HAL_Driver/Src/stm32g4xx_hal_rcc.c ****   RCC_OscInitStruct->PLL.PLLM = (READ_BIT(RCC->PLLCFGR, RCC_PLLCFGR_PLLM) >> RCC_PLLCFGR_PLLM_Pos) 
 2218              		.loc 1 1232 3 is_stmt 1 view .LVU713
1232:Drivers/STM32G4xx_HAL_Driver/Src/stm32g4xx_hal_rcc.c ****   RCC_OscInitStruct->PLL.PLLM = (READ_BIT(RCC->PLLCFGR, RCC_PLLCFGR_PLLM) >> RCC_PLLCFGR_PLLM_Pos) 
 2219              		.loc 1 1232 38 is_stmt 0 view .LVU714
 2220 005a 194A     		ldr	r2, .L207
 2221 005c D368     		ldr	r3, [r2, #12]
 2222 005e 03F00303 		and	r3, r3, #3
1232:Drivers/STM32G4xx_HAL_Driver/Src/stm32g4xx_hal_rcc.c ****   RCC_OscInitStruct->PLL.PLLM = (READ_BIT(RCC->PLLCFGR, RCC_PLLCFGR_PLLM) >> RCC_PLLCFGR_PLLM_Pos) 
 2223              		.loc 1 1232 36 view .LVU715
 2224 0062 0362     		str	r3, [r0, #32]
1233:Drivers/STM32G4xx_HAL_Driver/Src/stm32g4xx_hal_rcc.c ****   RCC_OscInitStruct->PLL.PLLN = READ_BIT(RCC->PLLCFGR, RCC_PLLCFGR_PLLN) >> RCC_PLLCFGR_PLLN_Pos;
 2225              		.loc 1 1233 3 is_stmt 1 view .LVU716
1233:Drivers/STM32G4xx_HAL_Driver/Src/stm32g4xx_hal_rcc.c ****   RCC_OscInitStruct->PLL.PLLN = READ_BIT(RCC->PLLCFGR, RCC_PLLCFGR_PLLN) >> RCC_PLLCFGR_PLLN_Pos;
 2226              		.loc 1 1233 34 is_stmt 0 view .LVU717
 2227 0064 D368     		ldr	r3, [r2, #12]
1233:Drivers/STM32G4xx_HAL_Driver/Src/stm32g4xx_hal_rcc.c ****   RCC_OscInitStruct->PLL.PLLN = READ_BIT(RCC->PLLCFGR, RCC_PLLCFGR_PLLN) >> RCC_PLLCFGR_PLLN_Pos;
 2228              		.loc 1 1233 75 view .LVU718
 2229 0066 C3F30313 		ubfx	r3, r3, #4, #4
1233:Drivers/STM32G4xx_HAL_Driver/Src/stm32g4xx_hal_rcc.c ****   RCC_OscInitStruct->PLL.PLLN = READ_BIT(RCC->PLLCFGR, RCC_PLLCFGR_PLLN) >> RCC_PLLCFGR_PLLN_Pos;
 2230              		.loc 1 1233 100 view .LVU719
 2231 006a 0133     		adds	r3, r3, #1
1233:Drivers/STM32G4xx_HAL_Driver/Src/stm32g4xx_hal_rcc.c ****   RCC_OscInitStruct->PLL.PLLN = READ_BIT(RCC->PLLCFGR, RCC_PLLCFGR_PLLN) >> RCC_PLLCFGR_PLLN_Pos;
 2232              		.loc 1 1233 31 view .LVU720
 2233 006c 4362     		str	r3, [r0, #36]
1234:Drivers/STM32G4xx_HAL_Driver/Src/stm32g4xx_hal_rcc.c ****   RCC_OscInitStruct->PLL.PLLQ = (((READ_BIT(RCC->PLLCFGR, RCC_PLLCFGR_PLLQ) >> RCC_PLLCFGR_PLLQ_Pos
 2234              		.loc 1 1234 3 is_stmt 1 view .LVU721
1234:Drivers/STM32G4xx_HAL_Driver/Src/stm32g4xx_hal_rcc.c ****   RCC_OscInitStruct->PLL.PLLQ = (((READ_BIT(RCC->PLLCFGR, RCC_PLLCFGR_PLLQ) >> RCC_PLLCFGR_PLLQ_Pos
 2235              		.loc 1 1234 33 is_stmt 0 view .LVU722
 2236 006e D368     		ldr	r3, [r2, #12]
1234:Drivers/STM32G4xx_HAL_Driver/Src/stm32g4xx_hal_rcc.c ****   RCC_OscInitStruct->PLL.PLLQ = (((READ_BIT(RCC->PLLCFGR, RCC_PLLCFGR_PLLQ) >> RCC_PLLCFGR_PLLQ_Pos
 2237              		.loc 1 1234 74 view .LVU723
 2238 0070 C3F30623 		ubfx	r3, r3, #8, #7
1234:Drivers/STM32G4xx_HAL_Driver/Src/stm32g4xx_hal_rcc.c ****   RCC_OscInitStruct->PLL.PLLQ = (((READ_BIT(RCC->PLLCFGR, RCC_PLLCFGR_PLLQ) >> RCC_PLLCFGR_PLLQ_Pos
 2239              		.loc 1 1234 31 view .LVU724
 2240 0074 8362     		str	r3, [r0, #40]
1235:Drivers/STM32G4xx_HAL_Driver/Src/stm32g4xx_hal_rcc.c ****   RCC_OscInitStruct->PLL.PLLR = (((READ_BIT(RCC->PLLCFGR, RCC_PLLCFGR_PLLR) >> RCC_PLLCFGR_PLLR_Pos
 2241              		.loc 1 1235 3 is_stmt 1 view .LVU725
1235:Drivers/STM32G4xx_HAL_Driver/Src/stm32g4xx_hal_rcc.c ****   RCC_OscInitStruct->PLL.PLLR = (((READ_BIT(RCC->PLLCFGR, RCC_PLLCFGR_PLLR) >> RCC_PLLCFGR_PLLR_Pos
 2242              		.loc 1 1235 36 is_stmt 0 view .LVU726
 2243 0076 D368     		ldr	r3, [r2, #12]
1235:Drivers/STM32G4xx_HAL_Driver/Src/stm32g4xx_hal_rcc.c ****   RCC_OscInitStruct->PLL.PLLR = (((READ_BIT(RCC->PLLCFGR, RCC_PLLCFGR_PLLR) >> RCC_PLLCFGR_PLLR_Pos
 2244              		.loc 1 1235 77 view .LVU727
 2245 0078 C3F34153 		ubfx	r3, r3, #21, #2
1235:Drivers/STM32G4xx_HAL_Driver/Src/stm32g4xx_hal_rcc.c ****   RCC_OscInitStruct->PLL.PLLR = (((READ_BIT(RCC->PLLCFGR, RCC_PLLCFGR_PLLR) >> RCC_PLLCFGR_PLLR_Pos
 2246              		.loc 1 1235 102 view .LVU728
 2247 007c 0133     		adds	r3, r3, #1
1235:Drivers/STM32G4xx_HAL_Driver/Src/stm32g4xx_hal_rcc.c ****   RCC_OscInitStruct->PLL.PLLR = (((READ_BIT(RCC->PLLCFGR, RCC_PLLCFGR_PLLR) >> RCC_PLLCFGR_PLLR_Pos
 2248              		.loc 1 1235 108 view .LVU729
 2249 007e 5B00     		lsls	r3, r3, #1
1235:Drivers/STM32G4xx_HAL_Driver/Src/stm32g4xx_hal_rcc.c ****   RCC_OscInitStruct->PLL.PLLR = (((READ_BIT(RCC->PLLCFGR, RCC_PLLCFGR_PLLR) >> RCC_PLLCFGR_PLLR_Pos
 2250              		.loc 1 1235 31 view .LVU730
 2251 0080 0363     		str	r3, [r0, #48]
ARM GAS  /tmp/ccMcPfSr.s 			page 72


1236:Drivers/STM32G4xx_HAL_Driver/Src/stm32g4xx_hal_rcc.c ****   RCC_OscInitStruct->PLL.PLLP = READ_BIT(RCC->PLLCFGR, RCC_PLLCFGR_PLLPDIV) >> RCC_PLLCFGR_PLLPDIV_
 2252              		.loc 1 1236 3 is_stmt 1 view .LVU731
1236:Drivers/STM32G4xx_HAL_Driver/Src/stm32g4xx_hal_rcc.c ****   RCC_OscInitStruct->PLL.PLLP = READ_BIT(RCC->PLLCFGR, RCC_PLLCFGR_PLLPDIV) >> RCC_PLLCFGR_PLLPDIV_
 2253              		.loc 1 1236 36 is_stmt 0 view .LVU732
 2254 0082 D368     		ldr	r3, [r2, #12]
1236:Drivers/STM32G4xx_HAL_Driver/Src/stm32g4xx_hal_rcc.c ****   RCC_OscInitStruct->PLL.PLLP = READ_BIT(RCC->PLLCFGR, RCC_PLLCFGR_PLLPDIV) >> RCC_PLLCFGR_PLLPDIV_
 2255              		.loc 1 1236 77 view .LVU733
 2256 0084 C3F34163 		ubfx	r3, r3, #25, #2
1236:Drivers/STM32G4xx_HAL_Driver/Src/stm32g4xx_hal_rcc.c ****   RCC_OscInitStruct->PLL.PLLP = READ_BIT(RCC->PLLCFGR, RCC_PLLCFGR_PLLPDIV) >> RCC_PLLCFGR_PLLPDIV_
 2257              		.loc 1 1236 102 view .LVU734
 2258 0088 0133     		adds	r3, r3, #1
1236:Drivers/STM32G4xx_HAL_Driver/Src/stm32g4xx_hal_rcc.c ****   RCC_OscInitStruct->PLL.PLLP = READ_BIT(RCC->PLLCFGR, RCC_PLLCFGR_PLLPDIV) >> RCC_PLLCFGR_PLLPDIV_
 2259              		.loc 1 1236 108 view .LVU735
 2260 008a 5B00     		lsls	r3, r3, #1
1236:Drivers/STM32G4xx_HAL_Driver/Src/stm32g4xx_hal_rcc.c ****   RCC_OscInitStruct->PLL.PLLP = READ_BIT(RCC->PLLCFGR, RCC_PLLCFGR_PLLPDIV) >> RCC_PLLCFGR_PLLPDIV_
 2261              		.loc 1 1236 31 view .LVU736
 2262 008c 4363     		str	r3, [r0, #52]
1237:Drivers/STM32G4xx_HAL_Driver/Src/stm32g4xx_hal_rcc.c **** }
 2263              		.loc 1 1237 3 is_stmt 1 view .LVU737
1237:Drivers/STM32G4xx_HAL_Driver/Src/stm32g4xx_hal_rcc.c **** }
 2264              		.loc 1 1237 33 is_stmt 0 view .LVU738
 2265 008e D368     		ldr	r3, [r2, #12]
1237:Drivers/STM32G4xx_HAL_Driver/Src/stm32g4xx_hal_rcc.c **** }
 2266              		.loc 1 1237 77 view .LVU739
 2267 0090 DB0E     		lsrs	r3, r3, #27
1237:Drivers/STM32G4xx_HAL_Driver/Src/stm32g4xx_hal_rcc.c **** }
 2268              		.loc 1 1237 31 view .LVU740
 2269 0092 C362     		str	r3, [r0, #44]
1238:Drivers/STM32G4xx_HAL_Driver/Src/stm32g4xx_hal_rcc.c **** 
 2270              		.loc 1 1238 1 view .LVU741
 2271 0094 7047     		bx	lr
 2272              	.L197:
1168:Drivers/STM32G4xx_HAL_Driver/Src/stm32g4xx_hal_rcc.c ****   {
 2273              		.loc 1 1168 8 is_stmt 1 view .LVU742
1168:Drivers/STM32G4xx_HAL_Driver/Src/stm32g4xx_hal_rcc.c ****   {
 2274              		.loc 1 1168 11 is_stmt 0 view .LVU743
 2275 0096 0A4B     		ldr	r3, .L207
 2276 0098 1B68     		ldr	r3, [r3]
1168:Drivers/STM32G4xx_HAL_Driver/Src/stm32g4xx_hal_rcc.c ****   {
 2277              		.loc 1 1168 10 view .LVU744
 2278 009a 13F4803F 		tst	r3, #65536
1170:Drivers/STM32G4xx_HAL_Driver/Src/stm32g4xx_hal_rcc.c ****   }
 2279              		.loc 1 1170 5 is_stmt 1 view .LVU745
1170:Drivers/STM32G4xx_HAL_Driver/Src/stm32g4xx_hal_rcc.c ****   }
 2280              		.loc 1 1170 33 is_stmt 0 view .LVU746
 2281 009e 14BF     		ite	ne
 2282 00a0 4FF48033 		movne	r3, #65536
1174:Drivers/STM32G4xx_HAL_Driver/Src/stm32g4xx_hal_rcc.c ****   }
 2283              		.loc 1 1174 5 is_stmt 1 view .LVU747
1174:Drivers/STM32G4xx_HAL_Driver/Src/stm32g4xx_hal_rcc.c ****   }
 2284              		.loc 1 1174 33 is_stmt 0 view .LVU748
 2285 00a4 0023     		moveq	r3, #0
 2286 00a6 4360     		str	r3, [r0, #4]
 2287 00a8 B4E7     		b	.L198
 2288              	.L201:
1194:Drivers/STM32G4xx_HAL_Driver/Src/stm32g4xx_hal_rcc.c ****   {
 2289              		.loc 1 1194 8 is_stmt 1 view .LVU749
ARM GAS  /tmp/ccMcPfSr.s 			page 73


1194:Drivers/STM32G4xx_HAL_Driver/Src/stm32g4xx_hal_rcc.c ****   {
 2290              		.loc 1 1194 11 is_stmt 0 view .LVU750
 2291 00aa 054B     		ldr	r3, .L207
 2292 00ac D3F89030 		ldr	r3, [r3, #144]
1194:Drivers/STM32G4xx_HAL_Driver/Src/stm32g4xx_hal_rcc.c ****   {
 2293              		.loc 1 1194 10 view .LVU751
 2294 00b0 13F0010F 		tst	r3, #1
1196:Drivers/STM32G4xx_HAL_Driver/Src/stm32g4xx_hal_rcc.c ****   }
 2295              		.loc 1 1196 5 is_stmt 1 view .LVU752
1196:Drivers/STM32G4xx_HAL_Driver/Src/stm32g4xx_hal_rcc.c ****   }
 2296              		.loc 1 1196 33 is_stmt 0 view .LVU753
 2297 00b4 14BF     		ite	ne
 2298 00b6 0123     		movne	r3, #1
1200:Drivers/STM32G4xx_HAL_Driver/Src/stm32g4xx_hal_rcc.c ****   }
 2299              		.loc 1 1200 5 is_stmt 1 view .LVU754
1200:Drivers/STM32G4xx_HAL_Driver/Src/stm32g4xx_hal_rcc.c ****   }
 2300              		.loc 1 1200 33 is_stmt 0 view .LVU755
 2301 00b8 0023     		moveq	r3, #0
 2302 00ba 8360     		str	r3, [r0, #8]
 2303 00bc BBE7     		b	.L202
 2304              	.L208:
 2305 00be 00BF     		.align	2
 2306              	.L207:
 2307 00c0 00100240 		.word	1073876992
 2308              		.cfi_endproc
 2309              	.LFE140:
 2311              		.section	.text.HAL_RCC_GetClockConfig,"ax",%progbits
 2312              		.align	1
 2313              		.global	HAL_RCC_GetClockConfig
 2314              		.syntax unified
 2315              		.thumb
 2316              		.thumb_func
 2317              		.fpu fpv4-sp-d16
 2319              	HAL_RCC_GetClockConfig:
 2320              	.LVL181:
 2321              	.LFB141:
1249:Drivers/STM32G4xx_HAL_Driver/Src/stm32g4xx_hal_rcc.c ****   /* Check the parameters */
 2322              		.loc 1 1249 1 is_stmt 1 view -0
 2323              		.cfi_startproc
 2324              		@ args = 0, pretend = 0, frame = 0
 2325              		@ frame_needed = 0, uses_anonymous_args = 0
 2326              		@ link register save eliminated.
1251:Drivers/STM32G4xx_HAL_Driver/Src/stm32g4xx_hal_rcc.c ****   assert_param(pFLatency != (void *)NULL);
 2327              		.loc 1 1251 3 view .LVU757
1252:Drivers/STM32G4xx_HAL_Driver/Src/stm32g4xx_hal_rcc.c **** 
 2328              		.loc 1 1252 3 view .LVU758
1255:Drivers/STM32G4xx_HAL_Driver/Src/stm32g4xx_hal_rcc.c **** 
 2329              		.loc 1 1255 3 view .LVU759
1255:Drivers/STM32G4xx_HAL_Driver/Src/stm32g4xx_hal_rcc.c **** 
 2330              		.loc 1 1255 32 is_stmt 0 view .LVU760
 2331 0000 0F23     		movs	r3, #15
 2332 0002 0360     		str	r3, [r0]
1258:Drivers/STM32G4xx_HAL_Driver/Src/stm32g4xx_hal_rcc.c **** 
 2333              		.loc 1 1258 3 is_stmt 1 view .LVU761
1258:Drivers/STM32G4xx_HAL_Driver/Src/stm32g4xx_hal_rcc.c **** 
 2334              		.loc 1 1258 37 is_stmt 0 view .LVU762
 2335 0004 0B4B     		ldr	r3, .L210
ARM GAS  /tmp/ccMcPfSr.s 			page 74


 2336 0006 9A68     		ldr	r2, [r3, #8]
 2337 0008 02F00302 		and	r2, r2, #3
1258:Drivers/STM32G4xx_HAL_Driver/Src/stm32g4xx_hal_rcc.c **** 
 2338              		.loc 1 1258 35 view .LVU763
 2339 000c 4260     		str	r2, [r0, #4]
1261:Drivers/STM32G4xx_HAL_Driver/Src/stm32g4xx_hal_rcc.c **** 
 2340              		.loc 1 1261 3 is_stmt 1 view .LVU764
1261:Drivers/STM32G4xx_HAL_Driver/Src/stm32g4xx_hal_rcc.c **** 
 2341              		.loc 1 1261 38 is_stmt 0 view .LVU765
 2342 000e 9A68     		ldr	r2, [r3, #8]
 2343 0010 02F0F002 		and	r2, r2, #240
1261:Drivers/STM32G4xx_HAL_Driver/Src/stm32g4xx_hal_rcc.c **** 
 2344              		.loc 1 1261 36 view .LVU766
 2345 0014 8260     		str	r2, [r0, #8]
1264:Drivers/STM32G4xx_HAL_Driver/Src/stm32g4xx_hal_rcc.c **** 
 2346              		.loc 1 1264 3 is_stmt 1 view .LVU767
1264:Drivers/STM32G4xx_HAL_Driver/Src/stm32g4xx_hal_rcc.c **** 
 2347              		.loc 1 1264 39 is_stmt 0 view .LVU768
 2348 0016 9A68     		ldr	r2, [r3, #8]
 2349 0018 02F4E062 		and	r2, r2, #1792
1264:Drivers/STM32G4xx_HAL_Driver/Src/stm32g4xx_hal_rcc.c **** 
 2350              		.loc 1 1264 37 view .LVU769
 2351 001c C260     		str	r2, [r0, #12]
1267:Drivers/STM32G4xx_HAL_Driver/Src/stm32g4xx_hal_rcc.c **** 
 2352              		.loc 1 1267 3 is_stmt 1 view .LVU770
1267:Drivers/STM32G4xx_HAL_Driver/Src/stm32g4xx_hal_rcc.c **** 
 2353              		.loc 1 1267 40 is_stmt 0 view .LVU771
 2354 001e 9B68     		ldr	r3, [r3, #8]
1267:Drivers/STM32G4xx_HAL_Driver/Src/stm32g4xx_hal_rcc.c **** 
 2355              		.loc 1 1267 76 view .LVU772
 2356 0020 DB08     		lsrs	r3, r3, #3
 2357 0022 03F4E063 		and	r3, r3, #1792
1267:Drivers/STM32G4xx_HAL_Driver/Src/stm32g4xx_hal_rcc.c **** 
 2358              		.loc 1 1267 37 view .LVU773
 2359 0026 0361     		str	r3, [r0, #16]
1270:Drivers/STM32G4xx_HAL_Driver/Src/stm32g4xx_hal_rcc.c **** }
 2360              		.loc 1 1270 3 is_stmt 1 view .LVU774
1270:Drivers/STM32G4xx_HAL_Driver/Src/stm32g4xx_hal_rcc.c **** }
 2361              		.loc 1 1270 16 is_stmt 0 view .LVU775
 2362 0028 034B     		ldr	r3, .L210+4
 2363 002a 1B68     		ldr	r3, [r3]
 2364 002c 03F00F03 		and	r3, r3, #15
1270:Drivers/STM32G4xx_HAL_Driver/Src/stm32g4xx_hal_rcc.c **** }
 2365              		.loc 1 1270 14 view .LVU776
 2366 0030 0B60     		str	r3, [r1]
1271:Drivers/STM32G4xx_HAL_Driver/Src/stm32g4xx_hal_rcc.c **** 
 2367              		.loc 1 1271 1 view .LVU777
 2368 0032 7047     		bx	lr
 2369              	.L211:
 2370              		.align	2
 2371              	.L210:
 2372 0034 00100240 		.word	1073876992
 2373 0038 00200240 		.word	1073881088
 2374              		.cfi_endproc
 2375              	.LFE141:
 2377              		.section	.text.HAL_RCC_EnableCSS,"ax",%progbits
 2378              		.align	1
ARM GAS  /tmp/ccMcPfSr.s 			page 75


 2379              		.global	HAL_RCC_EnableCSS
 2380              		.syntax unified
 2381              		.thumb
 2382              		.thumb_func
 2383              		.fpu fpv4-sp-d16
 2385              	HAL_RCC_EnableCSS:
 2386              	.LFB142:
1284:Drivers/STM32G4xx_HAL_Driver/Src/stm32g4xx_hal_rcc.c ****   SET_BIT(RCC->CR, RCC_CR_CSSON) ;
 2387              		.loc 1 1284 1 is_stmt 1 view -0
 2388              		.cfi_startproc
 2389              		@ args = 0, pretend = 0, frame = 0
 2390              		@ frame_needed = 0, uses_anonymous_args = 0
 2391              		@ link register save eliminated.
1285:Drivers/STM32G4xx_HAL_Driver/Src/stm32g4xx_hal_rcc.c **** }
 2392              		.loc 1 1285 3 view .LVU779
 2393 0000 024A     		ldr	r2, .L213
 2394 0002 1368     		ldr	r3, [r2]
 2395 0004 43F40023 		orr	r3, r3, #524288
 2396 0008 1360     		str	r3, [r2]
1286:Drivers/STM32G4xx_HAL_Driver/Src/stm32g4xx_hal_rcc.c **** 
 2397              		.loc 1 1286 1 is_stmt 0 view .LVU780
 2398 000a 7047     		bx	lr
 2399              	.L214:
 2400              		.align	2
 2401              	.L213:
 2402 000c 00100240 		.word	1073876992
 2403              		.cfi_endproc
 2404              	.LFE142:
 2406              		.section	.text.HAL_RCC_EnableLSECSS,"ax",%progbits
 2407              		.align	1
 2408              		.global	HAL_RCC_EnableLSECSS
 2409              		.syntax unified
 2410              		.thumb
 2411              		.thumb_func
 2412              		.fpu fpv4-sp-d16
 2414              	HAL_RCC_EnableLSECSS:
 2415              	.LFB143:
1298:Drivers/STM32G4xx_HAL_Driver/Src/stm32g4xx_hal_rcc.c ****   SET_BIT(RCC->BDCR, RCC_BDCR_LSECSSON) ;
 2416              		.loc 1 1298 1 is_stmt 1 view -0
 2417              		.cfi_startproc
 2418              		@ args = 0, pretend = 0, frame = 0
 2419              		@ frame_needed = 0, uses_anonymous_args = 0
 2420              		@ link register save eliminated.
1299:Drivers/STM32G4xx_HAL_Driver/Src/stm32g4xx_hal_rcc.c **** }
 2421              		.loc 1 1299 3 view .LVU782
 2422 0000 034A     		ldr	r2, .L216
 2423 0002 D2F89030 		ldr	r3, [r2, #144]
 2424 0006 43F02003 		orr	r3, r3, #32
 2425 000a C2F89030 		str	r3, [r2, #144]
1300:Drivers/STM32G4xx_HAL_Driver/Src/stm32g4xx_hal_rcc.c **** 
 2426              		.loc 1 1300 1 is_stmt 0 view .LVU783
 2427 000e 7047     		bx	lr
 2428              	.L217:
 2429              		.align	2
 2430              	.L216:
 2431 0010 00100240 		.word	1073876992
 2432              		.cfi_endproc
ARM GAS  /tmp/ccMcPfSr.s 			page 76


 2433              	.LFE143:
 2435              		.section	.text.HAL_RCC_DisableLSECSS,"ax",%progbits
 2436              		.align	1
 2437              		.global	HAL_RCC_DisableLSECSS
 2438              		.syntax unified
 2439              		.thumb
 2440              		.thumb_func
 2441              		.fpu fpv4-sp-d16
 2443              	HAL_RCC_DisableLSECSS:
 2444              	.LFB144:
1309:Drivers/STM32G4xx_HAL_Driver/Src/stm32g4xx_hal_rcc.c ****   CLEAR_BIT(RCC->BDCR, RCC_BDCR_LSECSSON) ;
 2445              		.loc 1 1309 1 is_stmt 1 view -0
 2446              		.cfi_startproc
 2447              		@ args = 0, pretend = 0, frame = 0
 2448              		@ frame_needed = 0, uses_anonymous_args = 0
 2449              		@ link register save eliminated.
1310:Drivers/STM32G4xx_HAL_Driver/Src/stm32g4xx_hal_rcc.c **** }
 2450              		.loc 1 1310 3 view .LVU785
 2451 0000 034A     		ldr	r2, .L219
 2452 0002 D2F89030 		ldr	r3, [r2, #144]
 2453 0006 23F02003 		bic	r3, r3, #32
 2454 000a C2F89030 		str	r3, [r2, #144]
1311:Drivers/STM32G4xx_HAL_Driver/Src/stm32g4xx_hal_rcc.c **** 
 2455              		.loc 1 1311 1 is_stmt 0 view .LVU786
 2456 000e 7047     		bx	lr
 2457              	.L220:
 2458              		.align	2
 2459              	.L219:
 2460 0010 00100240 		.word	1073876992
 2461              		.cfi_endproc
 2462              	.LFE144:
 2464              		.section	.text.HAL_RCC_CSSCallback,"ax",%progbits
 2465              		.align	1
 2466              		.weak	HAL_RCC_CSSCallback
 2467              		.syntax unified
 2468              		.thumb
 2469              		.thumb_func
 2470              		.fpu fpv4-sp-d16
 2472              	HAL_RCC_CSSCallback:
 2473              	.LFB146:
1336:Drivers/STM32G4xx_HAL_Driver/Src/stm32g4xx_hal_rcc.c ****   /* NOTE : This function should not be modified, when the callback is needed,
 2474              		.loc 1 1336 1 is_stmt 1 view -0
 2475              		.cfi_startproc
 2476              		@ args = 0, pretend = 0, frame = 0
 2477              		@ frame_needed = 0, uses_anonymous_args = 0
 2478              		@ link register save eliminated.
1340:Drivers/STM32G4xx_HAL_Driver/Src/stm32g4xx_hal_rcc.c **** 
 2479              		.loc 1 1340 1 view .LVU788
 2480 0000 7047     		bx	lr
 2481              		.cfi_endproc
 2482              	.LFE146:
 2484              		.section	.text.HAL_RCC_NMI_IRQHandler,"ax",%progbits
 2485              		.align	1
 2486              		.global	HAL_RCC_NMI_IRQHandler
 2487              		.syntax unified
 2488              		.thumb
 2489              		.thumb_func
ARM GAS  /tmp/ccMcPfSr.s 			page 77


 2490              		.fpu fpv4-sp-d16
 2492              	HAL_RCC_NMI_IRQHandler:
 2493              	.LFB145:
1319:Drivers/STM32G4xx_HAL_Driver/Src/stm32g4xx_hal_rcc.c ****   /* Check RCC CSSF interrupt flag  */
 2494              		.loc 1 1319 1 view -0
 2495              		.cfi_startproc
 2496              		@ args = 0, pretend = 0, frame = 0
 2497              		@ frame_needed = 0, uses_anonymous_args = 0
 2498 0000 08B5     		push	{r3, lr}
 2499              	.LCFI13:
 2500              		.cfi_def_cfa_offset 8
 2501              		.cfi_offset 3, -8
 2502              		.cfi_offset 14, -4
1321:Drivers/STM32G4xx_HAL_Driver/Src/stm32g4xx_hal_rcc.c ****   {
 2503              		.loc 1 1321 3 view .LVU790
1321:Drivers/STM32G4xx_HAL_Driver/Src/stm32g4xx_hal_rcc.c ****   {
 2504              		.loc 1 1321 6 is_stmt 0 view .LVU791
 2505 0002 064B     		ldr	r3, .L226
 2506 0004 DB69     		ldr	r3, [r3, #28]
1321:Drivers/STM32G4xx_HAL_Driver/Src/stm32g4xx_hal_rcc.c ****   {
 2507              		.loc 1 1321 5 view .LVU792
 2508 0006 13F4807F 		tst	r3, #256
 2509 000a 00D1     		bne	.L225
 2510              	.L222:
1329:Drivers/STM32G4xx_HAL_Driver/Src/stm32g4xx_hal_rcc.c **** 
 2511              		.loc 1 1329 1 view .LVU793
 2512 000c 08BD     		pop	{r3, pc}
 2513              	.L225:
1324:Drivers/STM32G4xx_HAL_Driver/Src/stm32g4xx_hal_rcc.c **** 
 2514              		.loc 1 1324 5 is_stmt 1 view .LVU794
 2515 000e FFF7FEFF 		bl	HAL_RCC_CSSCallback
 2516              	.LVL182:
1327:Drivers/STM32G4xx_HAL_Driver/Src/stm32g4xx_hal_rcc.c ****   }
 2517              		.loc 1 1327 5 view .LVU795
 2518 0012 024B     		ldr	r3, .L226
 2519 0014 4FF48072 		mov	r2, #256
 2520 0018 1A62     		str	r2, [r3, #32]
1329:Drivers/STM32G4xx_HAL_Driver/Src/stm32g4xx_hal_rcc.c **** 
 2521              		.loc 1 1329 1 is_stmt 0 view .LVU796
 2522 001a F7E7     		b	.L222
 2523              	.L227:
 2524              		.align	2
 2525              	.L226:
 2526 001c 00100240 		.word	1073876992
 2527              		.cfi_endproc
 2528              	.LFE145:
 2530              		.text
 2531              	.Letext0:
 2532              		.file 2 "/usr/share/gcc-arm-none-eabi-10-2020-q4-major/arm-none-eabi/include/machine/_default_type
 2533              		.file 3 "/usr/share/gcc-arm-none-eabi-10-2020-q4-major/arm-none-eabi/include/sys/_stdint.h"
 2534              		.file 4 "Drivers/CMSIS/Device/ST/STM32G4xx/Include/system_stm32g4xx.h"
 2535              		.file 5 "Drivers/CMSIS/Device/ST/STM32G4xx/Include/stm32g431xx.h"
 2536              		.file 6 "Drivers/CMSIS/Device/ST/STM32G4xx/Include/stm32g4xx.h"
 2537              		.file 7 "Drivers/STM32G4xx_HAL_Driver/Inc/stm32g4xx_hal_def.h"
 2538              		.file 8 "Drivers/STM32G4xx_HAL_Driver/Inc/stm32g4xx_hal_rcc.h"
 2539              		.file 9 "Drivers/STM32G4xx_HAL_Driver/Inc/stm32g4xx_hal_gpio.h"
 2540              		.file 10 "Drivers/STM32G4xx_HAL_Driver/Inc/stm32g4xx_hal.h"
ARM GAS  /tmp/ccMcPfSr.s 			page 78


ARM GAS  /tmp/ccMcPfSr.s 			page 79


DEFINED SYMBOLS
                            *ABS*:0000000000000000 stm32g4xx_hal_rcc.c
     /tmp/ccMcPfSr.s:18     .text.HAL_RCC_DeInit:0000000000000000 $t
     /tmp/ccMcPfSr.s:26     .text.HAL_RCC_DeInit:0000000000000000 HAL_RCC_DeInit
     /tmp/ccMcPfSr.s:203    .text.HAL_RCC_DeInit:00000000000000bc $d
     /tmp/ccMcPfSr.s:211    .text.HAL_RCC_OscConfig:0000000000000000 $t
     /tmp/ccMcPfSr.s:218    .text.HAL_RCC_OscConfig:0000000000000000 HAL_RCC_OscConfig
     /tmp/ccMcPfSr.s:796    .text.HAL_RCC_OscConfig:00000000000002ac $d
     /tmp/ccMcPfSr.s:801    .text.HAL_RCC_OscConfig:00000000000002b8 $t
     /tmp/ccMcPfSr.s:1257   .text.HAL_RCC_OscConfig:00000000000004dc $d
     /tmp/ccMcPfSr.s:1264   .text.HAL_RCC_MCOConfig:0000000000000000 $t
     /tmp/ccMcPfSr.s:1271   .text.HAL_RCC_MCOConfig:0000000000000000 HAL_RCC_MCOConfig
     /tmp/ccMcPfSr.s:1373   .text.HAL_RCC_MCOConfig:0000000000000058 $d
     /tmp/ccMcPfSr.s:1378   .text.HAL_RCC_GetSysClockFreq:0000000000000000 $t
     /tmp/ccMcPfSr.s:1385   .text.HAL_RCC_GetSysClockFreq:0000000000000000 HAL_RCC_GetSysClockFreq
     /tmp/ccMcPfSr.s:1495   .text.HAL_RCC_GetSysClockFreq:000000000000006c $d
     /tmp/ccMcPfSr.s:1502   .text.HAL_RCC_ClockConfig:0000000000000000 $t
     /tmp/ccMcPfSr.s:1509   .text.HAL_RCC_ClockConfig:0000000000000000 HAL_RCC_ClockConfig
     /tmp/ccMcPfSr.s:2005   .text.HAL_RCC_ClockConfig:0000000000000228 $d
     /tmp/ccMcPfSr.s:2017   .text.HAL_RCC_GetHCLKFreq:0000000000000000 $t
     /tmp/ccMcPfSr.s:2024   .text.HAL_RCC_GetHCLKFreq:0000000000000000 HAL_RCC_GetHCLKFreq
     /tmp/ccMcPfSr.s:2039   .text.HAL_RCC_GetHCLKFreq:0000000000000008 $d
     /tmp/ccMcPfSr.s:2044   .text.HAL_RCC_GetPCLK1Freq:0000000000000000 $t
     /tmp/ccMcPfSr.s:2051   .text.HAL_RCC_GetPCLK1Freq:0000000000000000 HAL_RCC_GetPCLK1Freq
     /tmp/ccMcPfSr.s:2084   .text.HAL_RCC_GetPCLK1Freq:0000000000000018 $d
     /tmp/ccMcPfSr.s:2091   .text.HAL_RCC_GetPCLK2Freq:0000000000000000 $t
     /tmp/ccMcPfSr.s:2098   .text.HAL_RCC_GetPCLK2Freq:0000000000000000 HAL_RCC_GetPCLK2Freq
     /tmp/ccMcPfSr.s:2131   .text.HAL_RCC_GetPCLK2Freq:0000000000000018 $d
     /tmp/ccMcPfSr.s:2138   .text.HAL_RCC_GetOscConfig:0000000000000000 $t
     /tmp/ccMcPfSr.s:2145   .text.HAL_RCC_GetOscConfig:0000000000000000 HAL_RCC_GetOscConfig
     /tmp/ccMcPfSr.s:2307   .text.HAL_RCC_GetOscConfig:00000000000000c0 $d
     /tmp/ccMcPfSr.s:2312   .text.HAL_RCC_GetClockConfig:0000000000000000 $t
     /tmp/ccMcPfSr.s:2319   .text.HAL_RCC_GetClockConfig:0000000000000000 HAL_RCC_GetClockConfig
     /tmp/ccMcPfSr.s:2372   .text.HAL_RCC_GetClockConfig:0000000000000034 $d
     /tmp/ccMcPfSr.s:2378   .text.HAL_RCC_EnableCSS:0000000000000000 $t
     /tmp/ccMcPfSr.s:2385   .text.HAL_RCC_EnableCSS:0000000000000000 HAL_RCC_EnableCSS
     /tmp/ccMcPfSr.s:2402   .text.HAL_RCC_EnableCSS:000000000000000c $d
     /tmp/ccMcPfSr.s:2407   .text.HAL_RCC_EnableLSECSS:0000000000000000 $t
     /tmp/ccMcPfSr.s:2414   .text.HAL_RCC_EnableLSECSS:0000000000000000 HAL_RCC_EnableLSECSS
     /tmp/ccMcPfSr.s:2431   .text.HAL_RCC_EnableLSECSS:0000000000000010 $d
     /tmp/ccMcPfSr.s:2436   .text.HAL_RCC_DisableLSECSS:0000000000000000 $t
     /tmp/ccMcPfSr.s:2443   .text.HAL_RCC_DisableLSECSS:0000000000000000 HAL_RCC_DisableLSECSS
     /tmp/ccMcPfSr.s:2460   .text.HAL_RCC_DisableLSECSS:0000000000000010 $d
     /tmp/ccMcPfSr.s:2465   .text.HAL_RCC_CSSCallback:0000000000000000 $t
     /tmp/ccMcPfSr.s:2472   .text.HAL_RCC_CSSCallback:0000000000000000 HAL_RCC_CSSCallback
     /tmp/ccMcPfSr.s:2485   .text.HAL_RCC_NMI_IRQHandler:0000000000000000 $t
     /tmp/ccMcPfSr.s:2492   .text.HAL_RCC_NMI_IRQHandler:0000000000000000 HAL_RCC_NMI_IRQHandler
     /tmp/ccMcPfSr.s:2526   .text.HAL_RCC_NMI_IRQHandler:000000000000001c $d

UNDEFINED SYMBOLS
HAL_GetTick
HAL_InitTick
SystemCoreClock
uwTickPrio
HAL_GPIO_Init
AHBPrescTable
APBPrescTable
ARM GAS  /tmp/ccMcPfSr.s 			page 80


