ARM GAS  /tmp/cchx7lg8.s 			page 1


   1              		.cpu cortex-m4
   2              		.eabi_attribute 27, 1
   3              		.eabi_attribute 28, 1
   4              		.eabi_attribute 20, 1
   5              		.eabi_attribute 21, 1
   6              		.eabi_attribute 23, 3
   7              		.eabi_attribute 24, 1
   8              		.eabi_attribute 25, 1
   9              		.eabi_attribute 26, 1
  10              		.eabi_attribute 30, 2
  11              		.eabi_attribute 34, 1
  12              		.eabi_attribute 18, 2
  13              		.file	"stm32g4xx_hal_flash.c"
  14              		.text
  15              	.Ltext0:
  16              		.cfi_sections	.debug_frame
  17              		.section	.text.HAL_FLASH_Program,"ax",%progbits
  18              		.align	1
  19              		.p2align 2,,3
  20              		.global	HAL_FLASH_Program
  21              		.arch armv7e-m
  22              		.syntax unified
  23              		.thumb
  24              		.thumb_func
  25              		.fpu fpv4-sp-d16
  27              	HAL_FLASH_Program:
  28              	.LVL0:
  29              	.LFB132:
  30              		.file 1 "Drivers/STM32G4xx_HAL_Driver/Src/stm32g4xx_hal_flash.c"
   1:Drivers/STM32G4xx_HAL_Driver/Src/stm32g4xx_hal_flash.c **** /**
   2:Drivers/STM32G4xx_HAL_Driver/Src/stm32g4xx_hal_flash.c ****   ******************************************************************************
   3:Drivers/STM32G4xx_HAL_Driver/Src/stm32g4xx_hal_flash.c ****   * @file    stm32g4xx_hal_flash.c
   4:Drivers/STM32G4xx_HAL_Driver/Src/stm32g4xx_hal_flash.c ****   * @author  MCD Application Team
   5:Drivers/STM32G4xx_HAL_Driver/Src/stm32g4xx_hal_flash.c ****   * @brief   FLASH HAL module driver.
   6:Drivers/STM32G4xx_HAL_Driver/Src/stm32g4xx_hal_flash.c ****   *          This file provides firmware functions to manage the following
   7:Drivers/STM32G4xx_HAL_Driver/Src/stm32g4xx_hal_flash.c ****   *          functionalities of the internal FLASH memory:
   8:Drivers/STM32G4xx_HAL_Driver/Src/stm32g4xx_hal_flash.c ****   *           + Program operations functions
   9:Drivers/STM32G4xx_HAL_Driver/Src/stm32g4xx_hal_flash.c ****   *           + Memory Control functions
  10:Drivers/STM32G4xx_HAL_Driver/Src/stm32g4xx_hal_flash.c ****   *           + Peripheral Errors functions
  11:Drivers/STM32G4xx_HAL_Driver/Src/stm32g4xx_hal_flash.c ****   *
  12:Drivers/STM32G4xx_HAL_Driver/Src/stm32g4xx_hal_flash.c ****   @verbatim
  13:Drivers/STM32G4xx_HAL_Driver/Src/stm32g4xx_hal_flash.c ****   ==============================================================================
  14:Drivers/STM32G4xx_HAL_Driver/Src/stm32g4xx_hal_flash.c ****                         ##### FLASH peripheral features #####
  15:Drivers/STM32G4xx_HAL_Driver/Src/stm32g4xx_hal_flash.c ****   ==============================================================================
  16:Drivers/STM32G4xx_HAL_Driver/Src/stm32g4xx_hal_flash.c **** 
  17:Drivers/STM32G4xx_HAL_Driver/Src/stm32g4xx_hal_flash.c ****   [..] The Flash memory interface manages CPU AHB I-Code and D-Code accesses
  18:Drivers/STM32G4xx_HAL_Driver/Src/stm32g4xx_hal_flash.c ****        to the Flash memory. It implements the erase and program Flash memory operations
  19:Drivers/STM32G4xx_HAL_Driver/Src/stm32g4xx_hal_flash.c ****        and the read and write protection mechanisms.
  20:Drivers/STM32G4xx_HAL_Driver/Src/stm32g4xx_hal_flash.c **** 
  21:Drivers/STM32G4xx_HAL_Driver/Src/stm32g4xx_hal_flash.c ****   [..] The Flash memory interface accelerates code execution with a system of instruction
  22:Drivers/STM32G4xx_HAL_Driver/Src/stm32g4xx_hal_flash.c ****        prefetch and cache lines.
  23:Drivers/STM32G4xx_HAL_Driver/Src/stm32g4xx_hal_flash.c **** 
  24:Drivers/STM32G4xx_HAL_Driver/Src/stm32g4xx_hal_flash.c ****   [..] The FLASH main features are:
  25:Drivers/STM32G4xx_HAL_Driver/Src/stm32g4xx_hal_flash.c ****       (+) Flash memory read operations
  26:Drivers/STM32G4xx_HAL_Driver/Src/stm32g4xx_hal_flash.c ****       (+) Flash memory program/erase operations
  27:Drivers/STM32G4xx_HAL_Driver/Src/stm32g4xx_hal_flash.c ****       (+) Read / write protections
  28:Drivers/STM32G4xx_HAL_Driver/Src/stm32g4xx_hal_flash.c ****       (+) Option bytes programming
ARM GAS  /tmp/cchx7lg8.s 			page 2


  29:Drivers/STM32G4xx_HAL_Driver/Src/stm32g4xx_hal_flash.c ****       (+) Prefetch on I-Code
  30:Drivers/STM32G4xx_HAL_Driver/Src/stm32g4xx_hal_flash.c ****       (+) 32 cache lines of 4*64 or 2*128 bits on I-Code
  31:Drivers/STM32G4xx_HAL_Driver/Src/stm32g4xx_hal_flash.c ****       (+) 8 cache lines of 4*64 or 2*128 bits on D-Code
  32:Drivers/STM32G4xx_HAL_Driver/Src/stm32g4xx_hal_flash.c ****       (+) Error code correction (ECC) : Data in flash are 72-bits word
  33:Drivers/STM32G4xx_HAL_Driver/Src/stm32g4xx_hal_flash.c ****           (8 bits added per double word)
  34:Drivers/STM32G4xx_HAL_Driver/Src/stm32g4xx_hal_flash.c **** 
  35:Drivers/STM32G4xx_HAL_Driver/Src/stm32g4xx_hal_flash.c **** 
  36:Drivers/STM32G4xx_HAL_Driver/Src/stm32g4xx_hal_flash.c ****                         ##### How to use this driver #####
  37:Drivers/STM32G4xx_HAL_Driver/Src/stm32g4xx_hal_flash.c ****   ==============================================================================
  38:Drivers/STM32G4xx_HAL_Driver/Src/stm32g4xx_hal_flash.c ****     [..]
  39:Drivers/STM32G4xx_HAL_Driver/Src/stm32g4xx_hal_flash.c ****       This driver provides functions and macros to configure and program the FLASH
  40:Drivers/STM32G4xx_HAL_Driver/Src/stm32g4xx_hal_flash.c ****       memory of all STM32G4xx devices.
  41:Drivers/STM32G4xx_HAL_Driver/Src/stm32g4xx_hal_flash.c **** 
  42:Drivers/STM32G4xx_HAL_Driver/Src/stm32g4xx_hal_flash.c ****       (#) Flash Memory IO Programming functions:
  43:Drivers/STM32G4xx_HAL_Driver/Src/stm32g4xx_hal_flash.c ****            (++) Lock and Unlock the FLASH interface using HAL_FLASH_Unlock() and
  44:Drivers/STM32G4xx_HAL_Driver/Src/stm32g4xx_hal_flash.c ****                 HAL_FLASH_Lock() functions
  45:Drivers/STM32G4xx_HAL_Driver/Src/stm32g4xx_hal_flash.c ****            (++) Program functions: double word and fast program (full row programming)
  46:Drivers/STM32G4xx_HAL_Driver/Src/stm32g4xx_hal_flash.c ****            (++) There are two modes of programming :
  47:Drivers/STM32G4xx_HAL_Driver/Src/stm32g4xx_hal_flash.c ****             (+++) Polling mode using HAL_FLASH_Program() function
  48:Drivers/STM32G4xx_HAL_Driver/Src/stm32g4xx_hal_flash.c ****             (+++) Interrupt mode using HAL_FLASH_Program_IT() function
  49:Drivers/STM32G4xx_HAL_Driver/Src/stm32g4xx_hal_flash.c **** 
  50:Drivers/STM32G4xx_HAL_Driver/Src/stm32g4xx_hal_flash.c ****       (#) Interrupts and flags management functions:
  51:Drivers/STM32G4xx_HAL_Driver/Src/stm32g4xx_hal_flash.c ****            (++) Handle FLASH interrupts by calling HAL_FLASH_IRQHandler()
  52:Drivers/STM32G4xx_HAL_Driver/Src/stm32g4xx_hal_flash.c ****            (++) Callback functions are called when the flash operations are finished :
  53:Drivers/STM32G4xx_HAL_Driver/Src/stm32g4xx_hal_flash.c ****                 HAL_FLASH_EndOfOperationCallback() when everything is ok, otherwise
  54:Drivers/STM32G4xx_HAL_Driver/Src/stm32g4xx_hal_flash.c ****                 HAL_FLASH_OperationErrorCallback()
  55:Drivers/STM32G4xx_HAL_Driver/Src/stm32g4xx_hal_flash.c ****            (++) Get error flag status by calling HAL_GetError()
  56:Drivers/STM32G4xx_HAL_Driver/Src/stm32g4xx_hal_flash.c **** 
  57:Drivers/STM32G4xx_HAL_Driver/Src/stm32g4xx_hal_flash.c ****       (#) Option bytes management functions:
  58:Drivers/STM32G4xx_HAL_Driver/Src/stm32g4xx_hal_flash.c ****            (++) Lock and Unlock the option bytes using HAL_FLASH_OB_Unlock() and
  59:Drivers/STM32G4xx_HAL_Driver/Src/stm32g4xx_hal_flash.c ****                 HAL_FLASH_OB_Lock() functions
  60:Drivers/STM32G4xx_HAL_Driver/Src/stm32g4xx_hal_flash.c ****            (++) Launch the reload of the option bytes using HAL_FLASH_Launch() function.
  61:Drivers/STM32G4xx_HAL_Driver/Src/stm32g4xx_hal_flash.c ****                 In this case, a reset is generated
  62:Drivers/STM32G4xx_HAL_Driver/Src/stm32g4xx_hal_flash.c **** 
  63:Drivers/STM32G4xx_HAL_Driver/Src/stm32g4xx_hal_flash.c ****     [..]
  64:Drivers/STM32G4xx_HAL_Driver/Src/stm32g4xx_hal_flash.c ****       In addition to these functions, this driver includes a set of macros allowing
  65:Drivers/STM32G4xx_HAL_Driver/Src/stm32g4xx_hal_flash.c ****       to handle the following operations:
  66:Drivers/STM32G4xx_HAL_Driver/Src/stm32g4xx_hal_flash.c ****        (+) Set the latency
  67:Drivers/STM32G4xx_HAL_Driver/Src/stm32g4xx_hal_flash.c ****        (+) Enable/Disable the prefetch buffer
  68:Drivers/STM32G4xx_HAL_Driver/Src/stm32g4xx_hal_flash.c ****        (+) Enable/Disable the Instruction cache and the Data cache
  69:Drivers/STM32G4xx_HAL_Driver/Src/stm32g4xx_hal_flash.c ****        (+) Reset the Instruction cache and the Data cache
  70:Drivers/STM32G4xx_HAL_Driver/Src/stm32g4xx_hal_flash.c ****        (+) Enable/Disable the Flash power-down during low-power run and sleep modes
  71:Drivers/STM32G4xx_HAL_Driver/Src/stm32g4xx_hal_flash.c ****        (+) Enable/Disable the Flash interrupts
  72:Drivers/STM32G4xx_HAL_Driver/Src/stm32g4xx_hal_flash.c ****        (+) Monitor the Flash flags status
  73:Drivers/STM32G4xx_HAL_Driver/Src/stm32g4xx_hal_flash.c **** 
  74:Drivers/STM32G4xx_HAL_Driver/Src/stm32g4xx_hal_flash.c ****   @endverbatim
  75:Drivers/STM32G4xx_HAL_Driver/Src/stm32g4xx_hal_flash.c ****   ******************************************************************************
  76:Drivers/STM32G4xx_HAL_Driver/Src/stm32g4xx_hal_flash.c ****   * @attention
  77:Drivers/STM32G4xx_HAL_Driver/Src/stm32g4xx_hal_flash.c ****   *
  78:Drivers/STM32G4xx_HAL_Driver/Src/stm32g4xx_hal_flash.c ****   * Copyright (c) 2019 STMicroelectronics.
  79:Drivers/STM32G4xx_HAL_Driver/Src/stm32g4xx_hal_flash.c ****   * All rights reserved.
  80:Drivers/STM32G4xx_HAL_Driver/Src/stm32g4xx_hal_flash.c ****   *
  81:Drivers/STM32G4xx_HAL_Driver/Src/stm32g4xx_hal_flash.c ****   * This software is licensed under terms that can be found in the LICENSE file in
  82:Drivers/STM32G4xx_HAL_Driver/Src/stm32g4xx_hal_flash.c ****   * the root directory of this software component.
  83:Drivers/STM32G4xx_HAL_Driver/Src/stm32g4xx_hal_flash.c ****   * If no LICENSE file comes with this software, it is provided AS-IS.
  84:Drivers/STM32G4xx_HAL_Driver/Src/stm32g4xx_hal_flash.c ****   ******************************************************************************
  85:Drivers/STM32G4xx_HAL_Driver/Src/stm32g4xx_hal_flash.c ****   */
ARM GAS  /tmp/cchx7lg8.s 			page 3


  86:Drivers/STM32G4xx_HAL_Driver/Src/stm32g4xx_hal_flash.c **** 
  87:Drivers/STM32G4xx_HAL_Driver/Src/stm32g4xx_hal_flash.c **** /* Includes ------------------------------------------------------------------*/
  88:Drivers/STM32G4xx_HAL_Driver/Src/stm32g4xx_hal_flash.c **** #include "stm32g4xx_hal.h"
  89:Drivers/STM32G4xx_HAL_Driver/Src/stm32g4xx_hal_flash.c **** 
  90:Drivers/STM32G4xx_HAL_Driver/Src/stm32g4xx_hal_flash.c **** /** @addtogroup STM32G4xx_HAL_Driver
  91:Drivers/STM32G4xx_HAL_Driver/Src/stm32g4xx_hal_flash.c ****   * @{
  92:Drivers/STM32G4xx_HAL_Driver/Src/stm32g4xx_hal_flash.c ****   */
  93:Drivers/STM32G4xx_HAL_Driver/Src/stm32g4xx_hal_flash.c **** 
  94:Drivers/STM32G4xx_HAL_Driver/Src/stm32g4xx_hal_flash.c **** /** @defgroup FLASH FLASH
  95:Drivers/STM32G4xx_HAL_Driver/Src/stm32g4xx_hal_flash.c ****   * @brief FLASH HAL module driver
  96:Drivers/STM32G4xx_HAL_Driver/Src/stm32g4xx_hal_flash.c ****   * @{
  97:Drivers/STM32G4xx_HAL_Driver/Src/stm32g4xx_hal_flash.c ****   */
  98:Drivers/STM32G4xx_HAL_Driver/Src/stm32g4xx_hal_flash.c **** 
  99:Drivers/STM32G4xx_HAL_Driver/Src/stm32g4xx_hal_flash.c **** #ifdef HAL_FLASH_MODULE_ENABLED
 100:Drivers/STM32G4xx_HAL_Driver/Src/stm32g4xx_hal_flash.c **** 
 101:Drivers/STM32G4xx_HAL_Driver/Src/stm32g4xx_hal_flash.c **** /* Private typedef -----------------------------------------------------------*/
 102:Drivers/STM32G4xx_HAL_Driver/Src/stm32g4xx_hal_flash.c **** /* Private defines -----------------------------------------------------------*/
 103:Drivers/STM32G4xx_HAL_Driver/Src/stm32g4xx_hal_flash.c **** /** @defgroup FLASH_Private_Constants FLASH Private Constants
 104:Drivers/STM32G4xx_HAL_Driver/Src/stm32g4xx_hal_flash.c ****   * @{
 105:Drivers/STM32G4xx_HAL_Driver/Src/stm32g4xx_hal_flash.c ****   */
 106:Drivers/STM32G4xx_HAL_Driver/Src/stm32g4xx_hal_flash.c **** #define FLASH_NB_DOUBLE_WORDS_IN_ROW  32
 107:Drivers/STM32G4xx_HAL_Driver/Src/stm32g4xx_hal_flash.c **** /**
 108:Drivers/STM32G4xx_HAL_Driver/Src/stm32g4xx_hal_flash.c ****   * @}
 109:Drivers/STM32G4xx_HAL_Driver/Src/stm32g4xx_hal_flash.c ****   */
 110:Drivers/STM32G4xx_HAL_Driver/Src/stm32g4xx_hal_flash.c **** 
 111:Drivers/STM32G4xx_HAL_Driver/Src/stm32g4xx_hal_flash.c **** /* Private macros ------------------------------------------------------------*/
 112:Drivers/STM32G4xx_HAL_Driver/Src/stm32g4xx_hal_flash.c **** /* Private variables ---------------------------------------------------------*/
 113:Drivers/STM32G4xx_HAL_Driver/Src/stm32g4xx_hal_flash.c **** /** @defgroup FLASH_Private_Variables FLASH Private Variables
 114:Drivers/STM32G4xx_HAL_Driver/Src/stm32g4xx_hal_flash.c ****   * @{
 115:Drivers/STM32G4xx_HAL_Driver/Src/stm32g4xx_hal_flash.c ****   */
 116:Drivers/STM32G4xx_HAL_Driver/Src/stm32g4xx_hal_flash.c **** 
 117:Drivers/STM32G4xx_HAL_Driver/Src/stm32g4xx_hal_flash.c **** /**
 118:Drivers/STM32G4xx_HAL_Driver/Src/stm32g4xx_hal_flash.c ****   * @brief  Variable used for Program/Erase sectors under interruption
 119:Drivers/STM32G4xx_HAL_Driver/Src/stm32g4xx_hal_flash.c ****   */
 120:Drivers/STM32G4xx_HAL_Driver/Src/stm32g4xx_hal_flash.c **** FLASH_ProcessTypeDef pFlash  = {.Lock = HAL_UNLOCKED,
 121:Drivers/STM32G4xx_HAL_Driver/Src/stm32g4xx_hal_flash.c ****                                 .ErrorCode = HAL_FLASH_ERROR_NONE,
 122:Drivers/STM32G4xx_HAL_Driver/Src/stm32g4xx_hal_flash.c ****                                 .ProcedureOnGoing = FLASH_PROC_NONE,
 123:Drivers/STM32G4xx_HAL_Driver/Src/stm32g4xx_hal_flash.c ****                                 .Address = 0U,
 124:Drivers/STM32G4xx_HAL_Driver/Src/stm32g4xx_hal_flash.c ****                                 .Bank = FLASH_BANK_1,
 125:Drivers/STM32G4xx_HAL_Driver/Src/stm32g4xx_hal_flash.c ****                                 .Page = 0U,
 126:Drivers/STM32G4xx_HAL_Driver/Src/stm32g4xx_hal_flash.c ****                                 .NbPagesToErase = 0U,
 127:Drivers/STM32G4xx_HAL_Driver/Src/stm32g4xx_hal_flash.c ****                                 .CacheToReactivate = FLASH_CACHE_DISABLED};
 128:Drivers/STM32G4xx_HAL_Driver/Src/stm32g4xx_hal_flash.c **** /**
 129:Drivers/STM32G4xx_HAL_Driver/Src/stm32g4xx_hal_flash.c ****   * @}
 130:Drivers/STM32G4xx_HAL_Driver/Src/stm32g4xx_hal_flash.c ****   */
 131:Drivers/STM32G4xx_HAL_Driver/Src/stm32g4xx_hal_flash.c **** 
 132:Drivers/STM32G4xx_HAL_Driver/Src/stm32g4xx_hal_flash.c **** /* Private function prototypes -----------------------------------------------*/
 133:Drivers/STM32G4xx_HAL_Driver/Src/stm32g4xx_hal_flash.c **** /** @defgroup FLASH_Private_Functions FLASH Private Functions
 134:Drivers/STM32G4xx_HAL_Driver/Src/stm32g4xx_hal_flash.c ****   * @{
 135:Drivers/STM32G4xx_HAL_Driver/Src/stm32g4xx_hal_flash.c ****   */
 136:Drivers/STM32G4xx_HAL_Driver/Src/stm32g4xx_hal_flash.c **** static void          FLASH_Program_DoubleWord(uint32_t Address, uint64_t Data);
 137:Drivers/STM32G4xx_HAL_Driver/Src/stm32g4xx_hal_flash.c **** static void          FLASH_Program_Fast(uint32_t Address, uint32_t DataAddress);
 138:Drivers/STM32G4xx_HAL_Driver/Src/stm32g4xx_hal_flash.c **** /**
 139:Drivers/STM32G4xx_HAL_Driver/Src/stm32g4xx_hal_flash.c ****   * @}
 140:Drivers/STM32G4xx_HAL_Driver/Src/stm32g4xx_hal_flash.c ****   */
 141:Drivers/STM32G4xx_HAL_Driver/Src/stm32g4xx_hal_flash.c **** 
 142:Drivers/STM32G4xx_HAL_Driver/Src/stm32g4xx_hal_flash.c **** /* Exported functions --------------------------------------------------------*/
ARM GAS  /tmp/cchx7lg8.s 			page 4


 143:Drivers/STM32G4xx_HAL_Driver/Src/stm32g4xx_hal_flash.c **** /** @defgroup FLASH_Exported_Functions FLASH Exported Functions
 144:Drivers/STM32G4xx_HAL_Driver/Src/stm32g4xx_hal_flash.c ****   * @{
 145:Drivers/STM32G4xx_HAL_Driver/Src/stm32g4xx_hal_flash.c ****   */
 146:Drivers/STM32G4xx_HAL_Driver/Src/stm32g4xx_hal_flash.c **** 
 147:Drivers/STM32G4xx_HAL_Driver/Src/stm32g4xx_hal_flash.c **** /** @defgroup FLASH_Exported_Functions_Group1 Programming operation functions
 148:Drivers/STM32G4xx_HAL_Driver/Src/stm32g4xx_hal_flash.c ****   *  @brief   Programming operation functions
 149:Drivers/STM32G4xx_HAL_Driver/Src/stm32g4xx_hal_flash.c ****   *
 150:Drivers/STM32G4xx_HAL_Driver/Src/stm32g4xx_hal_flash.c **** @verbatim
 151:Drivers/STM32G4xx_HAL_Driver/Src/stm32g4xx_hal_flash.c ****  ===============================================================================
 152:Drivers/STM32G4xx_HAL_Driver/Src/stm32g4xx_hal_flash.c ****                   ##### Programming operation functions #####
 153:Drivers/STM32G4xx_HAL_Driver/Src/stm32g4xx_hal_flash.c ****  ===============================================================================
 154:Drivers/STM32G4xx_HAL_Driver/Src/stm32g4xx_hal_flash.c ****     [..]
 155:Drivers/STM32G4xx_HAL_Driver/Src/stm32g4xx_hal_flash.c ****     This subsection provides a set of functions allowing to manage the FLASH
 156:Drivers/STM32G4xx_HAL_Driver/Src/stm32g4xx_hal_flash.c ****     program operations.
 157:Drivers/STM32G4xx_HAL_Driver/Src/stm32g4xx_hal_flash.c **** 
 158:Drivers/STM32G4xx_HAL_Driver/Src/stm32g4xx_hal_flash.c **** @endverbatim
 159:Drivers/STM32G4xx_HAL_Driver/Src/stm32g4xx_hal_flash.c ****   * @{
 160:Drivers/STM32G4xx_HAL_Driver/Src/stm32g4xx_hal_flash.c ****   */
 161:Drivers/STM32G4xx_HAL_Driver/Src/stm32g4xx_hal_flash.c **** 
 162:Drivers/STM32G4xx_HAL_Driver/Src/stm32g4xx_hal_flash.c **** /**
 163:Drivers/STM32G4xx_HAL_Driver/Src/stm32g4xx_hal_flash.c ****   * @brief  Program double word or fast program of a row at a specified address.
 164:Drivers/STM32G4xx_HAL_Driver/Src/stm32g4xx_hal_flash.c ****   * @param  TypeProgram Indicate the way to program at a specified address.
 165:Drivers/STM32G4xx_HAL_Driver/Src/stm32g4xx_hal_flash.c ****   *         This parameter can be a value of @ref FLASH_Type_Program.
 166:Drivers/STM32G4xx_HAL_Driver/Src/stm32g4xx_hal_flash.c ****   * @param  Address specifies the address to be programmed.
 167:Drivers/STM32G4xx_HAL_Driver/Src/stm32g4xx_hal_flash.c ****   * @param  Data specifies the data to be programmed.
 168:Drivers/STM32G4xx_HAL_Driver/Src/stm32g4xx_hal_flash.c ****   *         This parameter is the data for the double word program and the address where
 169:Drivers/STM32G4xx_HAL_Driver/Src/stm32g4xx_hal_flash.c ****   *         are stored the data for the row fast program.
 170:Drivers/STM32G4xx_HAL_Driver/Src/stm32g4xx_hal_flash.c ****   *
 171:Drivers/STM32G4xx_HAL_Driver/Src/stm32g4xx_hal_flash.c ****   * @retval HAL_Status
 172:Drivers/STM32G4xx_HAL_Driver/Src/stm32g4xx_hal_flash.c ****   */
 173:Drivers/STM32G4xx_HAL_Driver/Src/stm32g4xx_hal_flash.c **** HAL_StatusTypeDef HAL_FLASH_Program(uint32_t TypeProgram, uint32_t Address, uint64_t Data)
 174:Drivers/STM32G4xx_HAL_Driver/Src/stm32g4xx_hal_flash.c **** {
  31              		.loc 1 174 1 view -0
  32              		.cfi_startproc
  33              		@ args = 0, pretend = 0, frame = 0
  34              		@ frame_needed = 0, uses_anonymous_args = 0
  35              		.loc 1 174 1 is_stmt 0 view .LVU1
  36 0000 2DE9F047 		push	{r4, r5, r6, r7, r8, r9, r10, lr}
  37              	.LCFI0:
  38              		.cfi_def_cfa_offset 32
  39              		.cfi_offset 4, -32
  40              		.cfi_offset 5, -28
  41              		.cfi_offset 6, -24
  42              		.cfi_offset 7, -20
  43              		.cfi_offset 8, -16
  44              		.cfi_offset 9, -12
  45              		.cfi_offset 10, -8
  46              		.cfi_offset 14, -4
 175:Drivers/STM32G4xx_HAL_Driver/Src/stm32g4xx_hal_flash.c ****   HAL_StatusTypeDef status;
 176:Drivers/STM32G4xx_HAL_Driver/Src/stm32g4xx_hal_flash.c ****   uint32_t prog_bit = 0;
 177:Drivers/STM32G4xx_HAL_Driver/Src/stm32g4xx_hal_flash.c **** 
 178:Drivers/STM32G4xx_HAL_Driver/Src/stm32g4xx_hal_flash.c ****   /* Check the parameters */
 179:Drivers/STM32G4xx_HAL_Driver/Src/stm32g4xx_hal_flash.c ****   assert_param(IS_FLASH_TYPEPROGRAM(TypeProgram));
 180:Drivers/STM32G4xx_HAL_Driver/Src/stm32g4xx_hal_flash.c **** 
 181:Drivers/STM32G4xx_HAL_Driver/Src/stm32g4xx_hal_flash.c ****   /* Process Locked */
 182:Drivers/STM32G4xx_HAL_Driver/Src/stm32g4xx_hal_flash.c ****   __HAL_LOCK(&pFlash);
  47              		.loc 1 182 3 view .LVU2
ARM GAS  /tmp/cchx7lg8.s 			page 5


  48 0004 DFF86881 		ldr	r8, .L47+4
 175:Drivers/STM32G4xx_HAL_Driver/Src/stm32g4xx_hal_flash.c ****   HAL_StatusTypeDef status;
  49              		.loc 1 175 3 is_stmt 1 view .LVU3
 176:Drivers/STM32G4xx_HAL_Driver/Src/stm32g4xx_hal_flash.c **** 
  50              		.loc 1 176 3 view .LVU4
  51              	.LVL1:
 179:Drivers/STM32G4xx_HAL_Driver/Src/stm32g4xx_hal_flash.c **** 
  52              		.loc 1 179 3 view .LVU5
  53              		.loc 1 182 3 view .LVU6
  54              		.loc 1 182 3 view .LVU7
 174:Drivers/STM32G4xx_HAL_Driver/Src/stm32g4xx_hal_flash.c ****   HAL_StatusTypeDef status;
  55              		.loc 1 174 1 is_stmt 0 view .LVU8
  56 0008 9A46     		mov	r10, r3
  57              		.loc 1 182 3 view .LVU9
  58 000a 98F80030 		ldrb	r3, [r8]	@ zero_extendqisi2
  59 000e 012B     		cmp	r3, #1
  60 0010 5ED0     		beq	.L23
  61              		.loc 1 182 3 discriminator 2 view .LVU10
  62 0012 0123     		movs	r3, #1
  63 0014 8146     		mov	r9, r0
  64 0016 0E46     		mov	r6, r1
  65 0018 1746     		mov	r7, r2
  66              		.loc 1 182 3 is_stmt 1 discriminator 2 view .LVU11
  67 001a 88F80030 		strb	r3, [r8]
  68              		.loc 1 182 3 discriminator 2 view .LVU12
 183:Drivers/STM32G4xx_HAL_Driver/Src/stm32g4xx_hal_flash.c **** 
 184:Drivers/STM32G4xx_HAL_Driver/Src/stm32g4xx_hal_flash.c ****   /* Wait for last operation to be completed */
 185:Drivers/STM32G4xx_HAL_Driver/Src/stm32g4xx_hal_flash.c ****   status = FLASH_WaitForLastOperation((uint32_t)FLASH_TIMEOUT_VALUE);
  69              		.loc 1 185 3 discriminator 2 view .LVU13
  70              	.LVL2:
  71              	.LBB54:
  72              	.LBI54:
 186:Drivers/STM32G4xx_HAL_Driver/Src/stm32g4xx_hal_flash.c **** 
 187:Drivers/STM32G4xx_HAL_Driver/Src/stm32g4xx_hal_flash.c ****   if (status == HAL_OK)
 188:Drivers/STM32G4xx_HAL_Driver/Src/stm32g4xx_hal_flash.c ****   {
 189:Drivers/STM32G4xx_HAL_Driver/Src/stm32g4xx_hal_flash.c ****     pFlash.ErrorCode = HAL_FLASH_ERROR_NONE;
 190:Drivers/STM32G4xx_HAL_Driver/Src/stm32g4xx_hal_flash.c **** 
 191:Drivers/STM32G4xx_HAL_Driver/Src/stm32g4xx_hal_flash.c ****     /* Deactivate the data cache if they are activated to avoid data misbehavior */
 192:Drivers/STM32G4xx_HAL_Driver/Src/stm32g4xx_hal_flash.c ****     if(READ_BIT(FLASH->ACR, FLASH_ACR_DCEN) != 0U)
 193:Drivers/STM32G4xx_HAL_Driver/Src/stm32g4xx_hal_flash.c ****     {
 194:Drivers/STM32G4xx_HAL_Driver/Src/stm32g4xx_hal_flash.c ****       /* Disable data cache  */
 195:Drivers/STM32G4xx_HAL_Driver/Src/stm32g4xx_hal_flash.c ****       __HAL_FLASH_DATA_CACHE_DISABLE();
 196:Drivers/STM32G4xx_HAL_Driver/Src/stm32g4xx_hal_flash.c ****       pFlash.CacheToReactivate = FLASH_CACHE_DCACHE_ENABLED;
 197:Drivers/STM32G4xx_HAL_Driver/Src/stm32g4xx_hal_flash.c ****     }
 198:Drivers/STM32G4xx_HAL_Driver/Src/stm32g4xx_hal_flash.c ****     else
 199:Drivers/STM32G4xx_HAL_Driver/Src/stm32g4xx_hal_flash.c ****     {
 200:Drivers/STM32G4xx_HAL_Driver/Src/stm32g4xx_hal_flash.c ****       pFlash.CacheToReactivate = FLASH_CACHE_DISABLED;
 201:Drivers/STM32G4xx_HAL_Driver/Src/stm32g4xx_hal_flash.c ****     }
 202:Drivers/STM32G4xx_HAL_Driver/Src/stm32g4xx_hal_flash.c ****     if (TypeProgram == FLASH_TYPEPROGRAM_DOUBLEWORD)
 203:Drivers/STM32G4xx_HAL_Driver/Src/stm32g4xx_hal_flash.c ****     {
 204:Drivers/STM32G4xx_HAL_Driver/Src/stm32g4xx_hal_flash.c ****       /* Program double-word (64-bit) at a specified address */
 205:Drivers/STM32G4xx_HAL_Driver/Src/stm32g4xx_hal_flash.c ****       FLASH_Program_DoubleWord(Address, Data);
 206:Drivers/STM32G4xx_HAL_Driver/Src/stm32g4xx_hal_flash.c ****       prog_bit = FLASH_CR_PG;
 207:Drivers/STM32G4xx_HAL_Driver/Src/stm32g4xx_hal_flash.c ****     }
 208:Drivers/STM32G4xx_HAL_Driver/Src/stm32g4xx_hal_flash.c ****     else if ((TypeProgram == FLASH_TYPEPROGRAM_FAST) || (TypeProgram == FLASH_TYPEPROGRAM_FAST_AND_
 209:Drivers/STM32G4xx_HAL_Driver/Src/stm32g4xx_hal_flash.c ****     {
 210:Drivers/STM32G4xx_HAL_Driver/Src/stm32g4xx_hal_flash.c ****       /* Fast program a 32 row double-word (64-bit) at a specified address */
ARM GAS  /tmp/cchx7lg8.s 			page 6


 211:Drivers/STM32G4xx_HAL_Driver/Src/stm32g4xx_hal_flash.c ****       FLASH_Program_Fast(Address, (uint32_t)Data);
 212:Drivers/STM32G4xx_HAL_Driver/Src/stm32g4xx_hal_flash.c **** 
 213:Drivers/STM32G4xx_HAL_Driver/Src/stm32g4xx_hal_flash.c ****       /* If it is the last row, the bit will be cleared at the end of the operation */
 214:Drivers/STM32G4xx_HAL_Driver/Src/stm32g4xx_hal_flash.c ****       if (TypeProgram == FLASH_TYPEPROGRAM_FAST_AND_LAST)
 215:Drivers/STM32G4xx_HAL_Driver/Src/stm32g4xx_hal_flash.c ****       {
 216:Drivers/STM32G4xx_HAL_Driver/Src/stm32g4xx_hal_flash.c ****         prog_bit = FLASH_CR_FSTPG;
 217:Drivers/STM32G4xx_HAL_Driver/Src/stm32g4xx_hal_flash.c ****       }
 218:Drivers/STM32G4xx_HAL_Driver/Src/stm32g4xx_hal_flash.c ****     }
 219:Drivers/STM32G4xx_HAL_Driver/Src/stm32g4xx_hal_flash.c ****     else
 220:Drivers/STM32G4xx_HAL_Driver/Src/stm32g4xx_hal_flash.c ****     {
 221:Drivers/STM32G4xx_HAL_Driver/Src/stm32g4xx_hal_flash.c ****       /* Nothing to do */
 222:Drivers/STM32G4xx_HAL_Driver/Src/stm32g4xx_hal_flash.c ****     }
 223:Drivers/STM32G4xx_HAL_Driver/Src/stm32g4xx_hal_flash.c **** 
 224:Drivers/STM32G4xx_HAL_Driver/Src/stm32g4xx_hal_flash.c ****     /* Wait for last operation to be completed */
 225:Drivers/STM32G4xx_HAL_Driver/Src/stm32g4xx_hal_flash.c ****     status = FLASH_WaitForLastOperation((uint32_t)FLASH_TIMEOUT_VALUE);
 226:Drivers/STM32G4xx_HAL_Driver/Src/stm32g4xx_hal_flash.c **** 
 227:Drivers/STM32G4xx_HAL_Driver/Src/stm32g4xx_hal_flash.c ****     /* If the program operation is completed, disable the PG or FSTPG Bit */
 228:Drivers/STM32G4xx_HAL_Driver/Src/stm32g4xx_hal_flash.c ****     if (prog_bit != 0U)
 229:Drivers/STM32G4xx_HAL_Driver/Src/stm32g4xx_hal_flash.c ****     {
 230:Drivers/STM32G4xx_HAL_Driver/Src/stm32g4xx_hal_flash.c ****       CLEAR_BIT(FLASH->CR, prog_bit);
 231:Drivers/STM32G4xx_HAL_Driver/Src/stm32g4xx_hal_flash.c ****     }
 232:Drivers/STM32G4xx_HAL_Driver/Src/stm32g4xx_hal_flash.c **** 
 233:Drivers/STM32G4xx_HAL_Driver/Src/stm32g4xx_hal_flash.c ****     /* Flush the caches to be sure of the data consistency */
 234:Drivers/STM32G4xx_HAL_Driver/Src/stm32g4xx_hal_flash.c ****     FLASH_FlushCaches();
 235:Drivers/STM32G4xx_HAL_Driver/Src/stm32g4xx_hal_flash.c ****   }
 236:Drivers/STM32G4xx_HAL_Driver/Src/stm32g4xx_hal_flash.c **** 
 237:Drivers/STM32G4xx_HAL_Driver/Src/stm32g4xx_hal_flash.c ****   /* Process Unlocked */
 238:Drivers/STM32G4xx_HAL_Driver/Src/stm32g4xx_hal_flash.c ****   __HAL_UNLOCK(&pFlash);
 239:Drivers/STM32G4xx_HAL_Driver/Src/stm32g4xx_hal_flash.c **** 
 240:Drivers/STM32G4xx_HAL_Driver/Src/stm32g4xx_hal_flash.c ****   /* return status */
 241:Drivers/STM32G4xx_HAL_Driver/Src/stm32g4xx_hal_flash.c ****   return status;
 242:Drivers/STM32G4xx_HAL_Driver/Src/stm32g4xx_hal_flash.c **** }
 243:Drivers/STM32G4xx_HAL_Driver/Src/stm32g4xx_hal_flash.c **** 
 244:Drivers/STM32G4xx_HAL_Driver/Src/stm32g4xx_hal_flash.c **** /**
 245:Drivers/STM32G4xx_HAL_Driver/Src/stm32g4xx_hal_flash.c ****   * @brief  Program double word or fast program of a row at a specified address with interrupt enab
 246:Drivers/STM32G4xx_HAL_Driver/Src/stm32g4xx_hal_flash.c ****   * @param  TypeProgram Indicate the way to program at a specified address.
 247:Drivers/STM32G4xx_HAL_Driver/Src/stm32g4xx_hal_flash.c ****   *         This parameter can be a value of @ref FLASH_Type_Program.
 248:Drivers/STM32G4xx_HAL_Driver/Src/stm32g4xx_hal_flash.c ****   * @param  Address specifies the address to be programmed.
 249:Drivers/STM32G4xx_HAL_Driver/Src/stm32g4xx_hal_flash.c ****   * @param  Data specifies the data to be programmed.
 250:Drivers/STM32G4xx_HAL_Driver/Src/stm32g4xx_hal_flash.c ****   *         This parameter is the data for the double word program and the address where
 251:Drivers/STM32G4xx_HAL_Driver/Src/stm32g4xx_hal_flash.c ****   *         are stored the data for the row fast program.
 252:Drivers/STM32G4xx_HAL_Driver/Src/stm32g4xx_hal_flash.c ****   *
 253:Drivers/STM32G4xx_HAL_Driver/Src/stm32g4xx_hal_flash.c ****   * @retval HAL_Status
 254:Drivers/STM32G4xx_HAL_Driver/Src/stm32g4xx_hal_flash.c ****   */
 255:Drivers/STM32G4xx_HAL_Driver/Src/stm32g4xx_hal_flash.c **** HAL_StatusTypeDef HAL_FLASH_Program_IT(uint32_t TypeProgram, uint32_t Address, uint64_t Data)
 256:Drivers/STM32G4xx_HAL_Driver/Src/stm32g4xx_hal_flash.c **** {
 257:Drivers/STM32G4xx_HAL_Driver/Src/stm32g4xx_hal_flash.c ****   HAL_StatusTypeDef status;
 258:Drivers/STM32G4xx_HAL_Driver/Src/stm32g4xx_hal_flash.c **** 
 259:Drivers/STM32G4xx_HAL_Driver/Src/stm32g4xx_hal_flash.c ****   /* Check the parameters */
 260:Drivers/STM32G4xx_HAL_Driver/Src/stm32g4xx_hal_flash.c ****   assert_param(IS_FLASH_TYPEPROGRAM(TypeProgram));
 261:Drivers/STM32G4xx_HAL_Driver/Src/stm32g4xx_hal_flash.c **** 
 262:Drivers/STM32G4xx_HAL_Driver/Src/stm32g4xx_hal_flash.c ****   /* Process Locked */
 263:Drivers/STM32G4xx_HAL_Driver/Src/stm32g4xx_hal_flash.c ****   __HAL_LOCK(&pFlash);
 264:Drivers/STM32G4xx_HAL_Driver/Src/stm32g4xx_hal_flash.c **** 
 265:Drivers/STM32G4xx_HAL_Driver/Src/stm32g4xx_hal_flash.c ****   /* Reset error code */
 266:Drivers/STM32G4xx_HAL_Driver/Src/stm32g4xx_hal_flash.c ****   pFlash.ErrorCode = HAL_FLASH_ERROR_NONE;
 267:Drivers/STM32G4xx_HAL_Driver/Src/stm32g4xx_hal_flash.c **** 
ARM GAS  /tmp/cchx7lg8.s 			page 7


 268:Drivers/STM32G4xx_HAL_Driver/Src/stm32g4xx_hal_flash.c ****   /* Deactivate the data cache if they are activated to avoid data misbehavior */
 269:Drivers/STM32G4xx_HAL_Driver/Src/stm32g4xx_hal_flash.c ****   if(READ_BIT(FLASH->ACR, FLASH_ACR_DCEN) != 0U)
 270:Drivers/STM32G4xx_HAL_Driver/Src/stm32g4xx_hal_flash.c ****   {
 271:Drivers/STM32G4xx_HAL_Driver/Src/stm32g4xx_hal_flash.c ****     /* Disable data cache  */
 272:Drivers/STM32G4xx_HAL_Driver/Src/stm32g4xx_hal_flash.c ****     __HAL_FLASH_DATA_CACHE_DISABLE();
 273:Drivers/STM32G4xx_HAL_Driver/Src/stm32g4xx_hal_flash.c ****     pFlash.CacheToReactivate = FLASH_CACHE_DCACHE_ENABLED;
 274:Drivers/STM32G4xx_HAL_Driver/Src/stm32g4xx_hal_flash.c ****   }
 275:Drivers/STM32G4xx_HAL_Driver/Src/stm32g4xx_hal_flash.c ****   else
 276:Drivers/STM32G4xx_HAL_Driver/Src/stm32g4xx_hal_flash.c ****   {
 277:Drivers/STM32G4xx_HAL_Driver/Src/stm32g4xx_hal_flash.c ****     pFlash.CacheToReactivate = FLASH_CACHE_DISABLED;
 278:Drivers/STM32G4xx_HAL_Driver/Src/stm32g4xx_hal_flash.c ****   }
 279:Drivers/STM32G4xx_HAL_Driver/Src/stm32g4xx_hal_flash.c **** 
 280:Drivers/STM32G4xx_HAL_Driver/Src/stm32g4xx_hal_flash.c ****   /* Wait for last operation to be completed */
 281:Drivers/STM32G4xx_HAL_Driver/Src/stm32g4xx_hal_flash.c ****   status = FLASH_WaitForLastOperation(FLASH_TIMEOUT_VALUE);
 282:Drivers/STM32G4xx_HAL_Driver/Src/stm32g4xx_hal_flash.c **** 
 283:Drivers/STM32G4xx_HAL_Driver/Src/stm32g4xx_hal_flash.c ****   if (status != HAL_OK)
 284:Drivers/STM32G4xx_HAL_Driver/Src/stm32g4xx_hal_flash.c ****   {
 285:Drivers/STM32G4xx_HAL_Driver/Src/stm32g4xx_hal_flash.c ****     /* Process Unlocked */
 286:Drivers/STM32G4xx_HAL_Driver/Src/stm32g4xx_hal_flash.c ****     __HAL_UNLOCK(&pFlash);
 287:Drivers/STM32G4xx_HAL_Driver/Src/stm32g4xx_hal_flash.c ****   }
 288:Drivers/STM32G4xx_HAL_Driver/Src/stm32g4xx_hal_flash.c ****   else
 289:Drivers/STM32G4xx_HAL_Driver/Src/stm32g4xx_hal_flash.c ****   {
 290:Drivers/STM32G4xx_HAL_Driver/Src/stm32g4xx_hal_flash.c ****     /* Set internal variables used by the IRQ handler */
 291:Drivers/STM32G4xx_HAL_Driver/Src/stm32g4xx_hal_flash.c ****     if (TypeProgram == FLASH_TYPEPROGRAM_FAST_AND_LAST)
 292:Drivers/STM32G4xx_HAL_Driver/Src/stm32g4xx_hal_flash.c ****     {
 293:Drivers/STM32G4xx_HAL_Driver/Src/stm32g4xx_hal_flash.c ****       pFlash.ProcedureOnGoing = FLASH_PROC_PROGRAM_LAST;
 294:Drivers/STM32G4xx_HAL_Driver/Src/stm32g4xx_hal_flash.c ****     }
 295:Drivers/STM32G4xx_HAL_Driver/Src/stm32g4xx_hal_flash.c ****     else
 296:Drivers/STM32G4xx_HAL_Driver/Src/stm32g4xx_hal_flash.c ****     {
 297:Drivers/STM32G4xx_HAL_Driver/Src/stm32g4xx_hal_flash.c ****       pFlash.ProcedureOnGoing = FLASH_PROC_PROGRAM;
 298:Drivers/STM32G4xx_HAL_Driver/Src/stm32g4xx_hal_flash.c ****     }
 299:Drivers/STM32G4xx_HAL_Driver/Src/stm32g4xx_hal_flash.c ****     pFlash.Address = Address;
 300:Drivers/STM32G4xx_HAL_Driver/Src/stm32g4xx_hal_flash.c **** 
 301:Drivers/STM32G4xx_HAL_Driver/Src/stm32g4xx_hal_flash.c ****     /* Enable End of Operation and Error interrupts */
 302:Drivers/STM32G4xx_HAL_Driver/Src/stm32g4xx_hal_flash.c ****     __HAL_FLASH_ENABLE_IT(FLASH_IT_EOP | FLASH_IT_OPERR);
 303:Drivers/STM32G4xx_HAL_Driver/Src/stm32g4xx_hal_flash.c **** 
 304:Drivers/STM32G4xx_HAL_Driver/Src/stm32g4xx_hal_flash.c ****     if (TypeProgram == FLASH_TYPEPROGRAM_DOUBLEWORD)
 305:Drivers/STM32G4xx_HAL_Driver/Src/stm32g4xx_hal_flash.c ****     {
 306:Drivers/STM32G4xx_HAL_Driver/Src/stm32g4xx_hal_flash.c ****       /* Program double-word (64-bit) at a specified address */
 307:Drivers/STM32G4xx_HAL_Driver/Src/stm32g4xx_hal_flash.c ****       FLASH_Program_DoubleWord(Address, Data);
 308:Drivers/STM32G4xx_HAL_Driver/Src/stm32g4xx_hal_flash.c ****     }
 309:Drivers/STM32G4xx_HAL_Driver/Src/stm32g4xx_hal_flash.c ****     else if ((TypeProgram == FLASH_TYPEPROGRAM_FAST) || (TypeProgram == FLASH_TYPEPROGRAM_FAST_AND_
 310:Drivers/STM32G4xx_HAL_Driver/Src/stm32g4xx_hal_flash.c ****     {
 311:Drivers/STM32G4xx_HAL_Driver/Src/stm32g4xx_hal_flash.c ****       /* Fast program a 32 row double-word (64-bit) at a specified address */
 312:Drivers/STM32G4xx_HAL_Driver/Src/stm32g4xx_hal_flash.c ****       FLASH_Program_Fast(Address, (uint32_t)Data);
 313:Drivers/STM32G4xx_HAL_Driver/Src/stm32g4xx_hal_flash.c ****     }
 314:Drivers/STM32G4xx_HAL_Driver/Src/stm32g4xx_hal_flash.c ****     else
 315:Drivers/STM32G4xx_HAL_Driver/Src/stm32g4xx_hal_flash.c ****     {
 316:Drivers/STM32G4xx_HAL_Driver/Src/stm32g4xx_hal_flash.c ****       /* Nothing to do */
 317:Drivers/STM32G4xx_HAL_Driver/Src/stm32g4xx_hal_flash.c ****     }
 318:Drivers/STM32G4xx_HAL_Driver/Src/stm32g4xx_hal_flash.c ****   }
 319:Drivers/STM32G4xx_HAL_Driver/Src/stm32g4xx_hal_flash.c **** 
 320:Drivers/STM32G4xx_HAL_Driver/Src/stm32g4xx_hal_flash.c ****   return status;
 321:Drivers/STM32G4xx_HAL_Driver/Src/stm32g4xx_hal_flash.c **** }
 322:Drivers/STM32G4xx_HAL_Driver/Src/stm32g4xx_hal_flash.c **** 
 323:Drivers/STM32G4xx_HAL_Driver/Src/stm32g4xx_hal_flash.c **** /**
 324:Drivers/STM32G4xx_HAL_Driver/Src/stm32g4xx_hal_flash.c ****   * @brief  Handle FLASH interrupt request.
ARM GAS  /tmp/cchx7lg8.s 			page 8


 325:Drivers/STM32G4xx_HAL_Driver/Src/stm32g4xx_hal_flash.c ****   * @retval None
 326:Drivers/STM32G4xx_HAL_Driver/Src/stm32g4xx_hal_flash.c ****   */
 327:Drivers/STM32G4xx_HAL_Driver/Src/stm32g4xx_hal_flash.c **** void HAL_FLASH_IRQHandler(void)
 328:Drivers/STM32G4xx_HAL_Driver/Src/stm32g4xx_hal_flash.c **** {
 329:Drivers/STM32G4xx_HAL_Driver/Src/stm32g4xx_hal_flash.c ****   uint32_t tmp_page;
 330:Drivers/STM32G4xx_HAL_Driver/Src/stm32g4xx_hal_flash.c ****   uint32_t error;
 331:Drivers/STM32G4xx_HAL_Driver/Src/stm32g4xx_hal_flash.c ****   FLASH_ProcedureTypeDef procedure;
 332:Drivers/STM32G4xx_HAL_Driver/Src/stm32g4xx_hal_flash.c **** 
 333:Drivers/STM32G4xx_HAL_Driver/Src/stm32g4xx_hal_flash.c ****   /* If the operation is completed, disable the PG, PNB, MER1, MER2 and PER Bit */
 334:Drivers/STM32G4xx_HAL_Driver/Src/stm32g4xx_hal_flash.c ****   CLEAR_BIT(FLASH->CR, (FLASH_CR_PG | FLASH_CR_MER1 | FLASH_CR_PER | FLASH_CR_PNB));
 335:Drivers/STM32G4xx_HAL_Driver/Src/stm32g4xx_hal_flash.c **** #if defined (FLASH_OPTR_DBANK)
 336:Drivers/STM32G4xx_HAL_Driver/Src/stm32g4xx_hal_flash.c ****   CLEAR_BIT(FLASH->CR, FLASH_CR_MER2);
 337:Drivers/STM32G4xx_HAL_Driver/Src/stm32g4xx_hal_flash.c **** #endif
 338:Drivers/STM32G4xx_HAL_Driver/Src/stm32g4xx_hal_flash.c **** 
 339:Drivers/STM32G4xx_HAL_Driver/Src/stm32g4xx_hal_flash.c ****   /* Disable the FSTPG Bit only if it is the last row programmed */
 340:Drivers/STM32G4xx_HAL_Driver/Src/stm32g4xx_hal_flash.c ****   if (pFlash.ProcedureOnGoing == FLASH_PROC_PROGRAM_LAST)
 341:Drivers/STM32G4xx_HAL_Driver/Src/stm32g4xx_hal_flash.c ****   {
 342:Drivers/STM32G4xx_HAL_Driver/Src/stm32g4xx_hal_flash.c ****     CLEAR_BIT(FLASH->CR, FLASH_CR_FSTPG);
 343:Drivers/STM32G4xx_HAL_Driver/Src/stm32g4xx_hal_flash.c ****   }
 344:Drivers/STM32G4xx_HAL_Driver/Src/stm32g4xx_hal_flash.c **** 
 345:Drivers/STM32G4xx_HAL_Driver/Src/stm32g4xx_hal_flash.c ****   /* Check FLASH operation error flags */
 346:Drivers/STM32G4xx_HAL_Driver/Src/stm32g4xx_hal_flash.c ****   error = (FLASH->SR & FLASH_FLAG_SR_ERRORS);
 347:Drivers/STM32G4xx_HAL_Driver/Src/stm32g4xx_hal_flash.c **** 
 348:Drivers/STM32G4xx_HAL_Driver/Src/stm32g4xx_hal_flash.c ****   if (error != 0U)
 349:Drivers/STM32G4xx_HAL_Driver/Src/stm32g4xx_hal_flash.c ****   {
 350:Drivers/STM32G4xx_HAL_Driver/Src/stm32g4xx_hal_flash.c ****     /* Save the error code */
 351:Drivers/STM32G4xx_HAL_Driver/Src/stm32g4xx_hal_flash.c ****     pFlash.ErrorCode |= error;
 352:Drivers/STM32G4xx_HAL_Driver/Src/stm32g4xx_hal_flash.c **** 
 353:Drivers/STM32G4xx_HAL_Driver/Src/stm32g4xx_hal_flash.c ****     /* Clear error programming flags */
 354:Drivers/STM32G4xx_HAL_Driver/Src/stm32g4xx_hal_flash.c ****     __HAL_FLASH_CLEAR_FLAG(error);
 355:Drivers/STM32G4xx_HAL_Driver/Src/stm32g4xx_hal_flash.c **** 
 356:Drivers/STM32G4xx_HAL_Driver/Src/stm32g4xx_hal_flash.c ****     /* Flush the caches to be sure of the data consistency */
 357:Drivers/STM32G4xx_HAL_Driver/Src/stm32g4xx_hal_flash.c ****     FLASH_FlushCaches();
 358:Drivers/STM32G4xx_HAL_Driver/Src/stm32g4xx_hal_flash.c **** 
 359:Drivers/STM32G4xx_HAL_Driver/Src/stm32g4xx_hal_flash.c ****     /* FLASH error interrupt user callback */
 360:Drivers/STM32G4xx_HAL_Driver/Src/stm32g4xx_hal_flash.c ****     procedure = pFlash.ProcedureOnGoing;
 361:Drivers/STM32G4xx_HAL_Driver/Src/stm32g4xx_hal_flash.c ****     if (procedure == FLASH_PROC_PAGE_ERASE)
 362:Drivers/STM32G4xx_HAL_Driver/Src/stm32g4xx_hal_flash.c ****     {
 363:Drivers/STM32G4xx_HAL_Driver/Src/stm32g4xx_hal_flash.c ****       HAL_FLASH_OperationErrorCallback(pFlash.Page);
 364:Drivers/STM32G4xx_HAL_Driver/Src/stm32g4xx_hal_flash.c ****     }
 365:Drivers/STM32G4xx_HAL_Driver/Src/stm32g4xx_hal_flash.c ****     else if (procedure == FLASH_PROC_MASS_ERASE)
 366:Drivers/STM32G4xx_HAL_Driver/Src/stm32g4xx_hal_flash.c ****     {
 367:Drivers/STM32G4xx_HAL_Driver/Src/stm32g4xx_hal_flash.c ****       HAL_FLASH_OperationErrorCallback(pFlash.Bank);
 368:Drivers/STM32G4xx_HAL_Driver/Src/stm32g4xx_hal_flash.c ****     }
 369:Drivers/STM32G4xx_HAL_Driver/Src/stm32g4xx_hal_flash.c ****     else if ((procedure == FLASH_PROC_PROGRAM) ||
 370:Drivers/STM32G4xx_HAL_Driver/Src/stm32g4xx_hal_flash.c ****              (procedure == FLASH_PROC_PROGRAM_LAST))
 371:Drivers/STM32G4xx_HAL_Driver/Src/stm32g4xx_hal_flash.c ****     {
 372:Drivers/STM32G4xx_HAL_Driver/Src/stm32g4xx_hal_flash.c ****       HAL_FLASH_OperationErrorCallback(pFlash.Address);
 373:Drivers/STM32G4xx_HAL_Driver/Src/stm32g4xx_hal_flash.c ****     }
 374:Drivers/STM32G4xx_HAL_Driver/Src/stm32g4xx_hal_flash.c ****     else
 375:Drivers/STM32G4xx_HAL_Driver/Src/stm32g4xx_hal_flash.c ****     {
 376:Drivers/STM32G4xx_HAL_Driver/Src/stm32g4xx_hal_flash.c ****       /* Nothing to do */
 377:Drivers/STM32G4xx_HAL_Driver/Src/stm32g4xx_hal_flash.c ****     }
 378:Drivers/STM32G4xx_HAL_Driver/Src/stm32g4xx_hal_flash.c **** 
 379:Drivers/STM32G4xx_HAL_Driver/Src/stm32g4xx_hal_flash.c ****     /*Stop the procedure ongoing*/
 380:Drivers/STM32G4xx_HAL_Driver/Src/stm32g4xx_hal_flash.c ****     pFlash.ProcedureOnGoing = FLASH_PROC_NONE;
 381:Drivers/STM32G4xx_HAL_Driver/Src/stm32g4xx_hal_flash.c ****   }
ARM GAS  /tmp/cchx7lg8.s 			page 9


 382:Drivers/STM32G4xx_HAL_Driver/Src/stm32g4xx_hal_flash.c **** 
 383:Drivers/STM32G4xx_HAL_Driver/Src/stm32g4xx_hal_flash.c ****   /* Check FLASH End of Operation flag  */
 384:Drivers/STM32G4xx_HAL_Driver/Src/stm32g4xx_hal_flash.c ****   if (__HAL_FLASH_GET_FLAG(FLASH_FLAG_EOP))
 385:Drivers/STM32G4xx_HAL_Driver/Src/stm32g4xx_hal_flash.c ****   {
 386:Drivers/STM32G4xx_HAL_Driver/Src/stm32g4xx_hal_flash.c ****     /* Clear FLASH End of Operation pending bit */
 387:Drivers/STM32G4xx_HAL_Driver/Src/stm32g4xx_hal_flash.c ****     __HAL_FLASH_CLEAR_FLAG(FLASH_FLAG_EOP);
 388:Drivers/STM32G4xx_HAL_Driver/Src/stm32g4xx_hal_flash.c **** 
 389:Drivers/STM32G4xx_HAL_Driver/Src/stm32g4xx_hal_flash.c ****     if (pFlash.ProcedureOnGoing == FLASH_PROC_PAGE_ERASE)
 390:Drivers/STM32G4xx_HAL_Driver/Src/stm32g4xx_hal_flash.c ****     {
 391:Drivers/STM32G4xx_HAL_Driver/Src/stm32g4xx_hal_flash.c ****       /* Nb of pages to erased can be decreased */
 392:Drivers/STM32G4xx_HAL_Driver/Src/stm32g4xx_hal_flash.c ****       pFlash.NbPagesToErase--;
 393:Drivers/STM32G4xx_HAL_Driver/Src/stm32g4xx_hal_flash.c **** 
 394:Drivers/STM32G4xx_HAL_Driver/Src/stm32g4xx_hal_flash.c ****       /* Check if there are still pages to erase*/
 395:Drivers/STM32G4xx_HAL_Driver/Src/stm32g4xx_hal_flash.c ****       if (pFlash.NbPagesToErase != 0U)
 396:Drivers/STM32G4xx_HAL_Driver/Src/stm32g4xx_hal_flash.c ****       {
 397:Drivers/STM32G4xx_HAL_Driver/Src/stm32g4xx_hal_flash.c ****         /* Indicate user which page has been erased*/
 398:Drivers/STM32G4xx_HAL_Driver/Src/stm32g4xx_hal_flash.c ****         HAL_FLASH_EndOfOperationCallback(pFlash.Page);
 399:Drivers/STM32G4xx_HAL_Driver/Src/stm32g4xx_hal_flash.c **** 
 400:Drivers/STM32G4xx_HAL_Driver/Src/stm32g4xx_hal_flash.c ****         /* Increment page number */
 401:Drivers/STM32G4xx_HAL_Driver/Src/stm32g4xx_hal_flash.c ****         pFlash.Page++;
 402:Drivers/STM32G4xx_HAL_Driver/Src/stm32g4xx_hal_flash.c ****         tmp_page = pFlash.Page;
 403:Drivers/STM32G4xx_HAL_Driver/Src/stm32g4xx_hal_flash.c ****         FLASH_PageErase(tmp_page, pFlash.Bank);
 404:Drivers/STM32G4xx_HAL_Driver/Src/stm32g4xx_hal_flash.c ****       }
 405:Drivers/STM32G4xx_HAL_Driver/Src/stm32g4xx_hal_flash.c ****       else
 406:Drivers/STM32G4xx_HAL_Driver/Src/stm32g4xx_hal_flash.c ****       {
 407:Drivers/STM32G4xx_HAL_Driver/Src/stm32g4xx_hal_flash.c ****         /* No more pages to Erase */
 408:Drivers/STM32G4xx_HAL_Driver/Src/stm32g4xx_hal_flash.c ****         /* Reset Address and stop Erase pages procedure */
 409:Drivers/STM32G4xx_HAL_Driver/Src/stm32g4xx_hal_flash.c ****         pFlash.Page = 0xFFFFFFFFU;
 410:Drivers/STM32G4xx_HAL_Driver/Src/stm32g4xx_hal_flash.c ****         pFlash.ProcedureOnGoing = FLASH_PROC_NONE;
 411:Drivers/STM32G4xx_HAL_Driver/Src/stm32g4xx_hal_flash.c **** 
 412:Drivers/STM32G4xx_HAL_Driver/Src/stm32g4xx_hal_flash.c ****         /* Flush the caches to be sure of the data consistency */
 413:Drivers/STM32G4xx_HAL_Driver/Src/stm32g4xx_hal_flash.c ****         FLASH_FlushCaches();
 414:Drivers/STM32G4xx_HAL_Driver/Src/stm32g4xx_hal_flash.c **** 
 415:Drivers/STM32G4xx_HAL_Driver/Src/stm32g4xx_hal_flash.c ****         /* FLASH EOP interrupt user callback */
 416:Drivers/STM32G4xx_HAL_Driver/Src/stm32g4xx_hal_flash.c ****         HAL_FLASH_EndOfOperationCallback(pFlash.Page);
 417:Drivers/STM32G4xx_HAL_Driver/Src/stm32g4xx_hal_flash.c ****       }
 418:Drivers/STM32G4xx_HAL_Driver/Src/stm32g4xx_hal_flash.c ****     }
 419:Drivers/STM32G4xx_HAL_Driver/Src/stm32g4xx_hal_flash.c ****     else
 420:Drivers/STM32G4xx_HAL_Driver/Src/stm32g4xx_hal_flash.c ****     {
 421:Drivers/STM32G4xx_HAL_Driver/Src/stm32g4xx_hal_flash.c ****       /* Flush the caches to be sure of the data consistency */
 422:Drivers/STM32G4xx_HAL_Driver/Src/stm32g4xx_hal_flash.c ****       FLASH_FlushCaches();
 423:Drivers/STM32G4xx_HAL_Driver/Src/stm32g4xx_hal_flash.c **** 
 424:Drivers/STM32G4xx_HAL_Driver/Src/stm32g4xx_hal_flash.c ****       procedure = pFlash.ProcedureOnGoing;
 425:Drivers/STM32G4xx_HAL_Driver/Src/stm32g4xx_hal_flash.c ****       if (procedure == FLASH_PROC_MASS_ERASE)
 426:Drivers/STM32G4xx_HAL_Driver/Src/stm32g4xx_hal_flash.c ****       {
 427:Drivers/STM32G4xx_HAL_Driver/Src/stm32g4xx_hal_flash.c ****         /* MassErase ended. Return the selected bank */
 428:Drivers/STM32G4xx_HAL_Driver/Src/stm32g4xx_hal_flash.c ****         /* FLASH EOP interrupt user callback */
 429:Drivers/STM32G4xx_HAL_Driver/Src/stm32g4xx_hal_flash.c ****         HAL_FLASH_EndOfOperationCallback(pFlash.Bank);
 430:Drivers/STM32G4xx_HAL_Driver/Src/stm32g4xx_hal_flash.c ****       }
 431:Drivers/STM32G4xx_HAL_Driver/Src/stm32g4xx_hal_flash.c ****       else if ((procedure == FLASH_PROC_PROGRAM) ||
 432:Drivers/STM32G4xx_HAL_Driver/Src/stm32g4xx_hal_flash.c ****                (procedure == FLASH_PROC_PROGRAM_LAST))
 433:Drivers/STM32G4xx_HAL_Driver/Src/stm32g4xx_hal_flash.c ****       {
 434:Drivers/STM32G4xx_HAL_Driver/Src/stm32g4xx_hal_flash.c ****         /* Program ended. Return the selected address */
 435:Drivers/STM32G4xx_HAL_Driver/Src/stm32g4xx_hal_flash.c ****         /* FLASH EOP interrupt user callback */
 436:Drivers/STM32G4xx_HAL_Driver/Src/stm32g4xx_hal_flash.c ****         HAL_FLASH_EndOfOperationCallback(pFlash.Address);
 437:Drivers/STM32G4xx_HAL_Driver/Src/stm32g4xx_hal_flash.c ****       }
 438:Drivers/STM32G4xx_HAL_Driver/Src/stm32g4xx_hal_flash.c ****       else
ARM GAS  /tmp/cchx7lg8.s 			page 10


 439:Drivers/STM32G4xx_HAL_Driver/Src/stm32g4xx_hal_flash.c ****       {
 440:Drivers/STM32G4xx_HAL_Driver/Src/stm32g4xx_hal_flash.c ****         /* Nothing to do */
 441:Drivers/STM32G4xx_HAL_Driver/Src/stm32g4xx_hal_flash.c ****       }
 442:Drivers/STM32G4xx_HAL_Driver/Src/stm32g4xx_hal_flash.c **** 
 443:Drivers/STM32G4xx_HAL_Driver/Src/stm32g4xx_hal_flash.c ****       /*Clear the procedure ongoing*/
 444:Drivers/STM32G4xx_HAL_Driver/Src/stm32g4xx_hal_flash.c ****       pFlash.ProcedureOnGoing = FLASH_PROC_NONE;
 445:Drivers/STM32G4xx_HAL_Driver/Src/stm32g4xx_hal_flash.c ****     }
 446:Drivers/STM32G4xx_HAL_Driver/Src/stm32g4xx_hal_flash.c ****   }
 447:Drivers/STM32G4xx_HAL_Driver/Src/stm32g4xx_hal_flash.c **** 
 448:Drivers/STM32G4xx_HAL_Driver/Src/stm32g4xx_hal_flash.c ****   if (pFlash.ProcedureOnGoing == FLASH_PROC_NONE)
 449:Drivers/STM32G4xx_HAL_Driver/Src/stm32g4xx_hal_flash.c ****   {
 450:Drivers/STM32G4xx_HAL_Driver/Src/stm32g4xx_hal_flash.c ****     /* Disable End of Operation and Error interrupts */
 451:Drivers/STM32G4xx_HAL_Driver/Src/stm32g4xx_hal_flash.c ****     __HAL_FLASH_DISABLE_IT(FLASH_IT_EOP | FLASH_IT_OPERR);
 452:Drivers/STM32G4xx_HAL_Driver/Src/stm32g4xx_hal_flash.c **** 
 453:Drivers/STM32G4xx_HAL_Driver/Src/stm32g4xx_hal_flash.c ****     /* Process Unlocked */
 454:Drivers/STM32G4xx_HAL_Driver/Src/stm32g4xx_hal_flash.c ****     __HAL_UNLOCK(&pFlash);
 455:Drivers/STM32G4xx_HAL_Driver/Src/stm32g4xx_hal_flash.c ****   }
 456:Drivers/STM32G4xx_HAL_Driver/Src/stm32g4xx_hal_flash.c **** }
 457:Drivers/STM32G4xx_HAL_Driver/Src/stm32g4xx_hal_flash.c **** 
 458:Drivers/STM32G4xx_HAL_Driver/Src/stm32g4xx_hal_flash.c **** /**
 459:Drivers/STM32G4xx_HAL_Driver/Src/stm32g4xx_hal_flash.c ****   * @brief  FLASH end of operation interrupt callback.
 460:Drivers/STM32G4xx_HAL_Driver/Src/stm32g4xx_hal_flash.c ****   * @param  ReturnValue The value saved in this parameter depends on the ongoing procedure:
 461:Drivers/STM32G4xx_HAL_Driver/Src/stm32g4xx_hal_flash.c ****   *           @arg Mass Erase: Bank number which has been requested to erase
 462:Drivers/STM32G4xx_HAL_Driver/Src/stm32g4xx_hal_flash.c ****   *           @arg Page Erase: Page which has been erased
 463:Drivers/STM32G4xx_HAL_Driver/Src/stm32g4xx_hal_flash.c ****   *                            (if 0xFFFFFFFF, it means that all the selected pages have been erase
 464:Drivers/STM32G4xx_HAL_Driver/Src/stm32g4xx_hal_flash.c ****   *           @arg Program: Address which was selected for data program
 465:Drivers/STM32G4xx_HAL_Driver/Src/stm32g4xx_hal_flash.c ****   * @retval None
 466:Drivers/STM32G4xx_HAL_Driver/Src/stm32g4xx_hal_flash.c ****   */
 467:Drivers/STM32G4xx_HAL_Driver/Src/stm32g4xx_hal_flash.c **** __weak void HAL_FLASH_EndOfOperationCallback(uint32_t ReturnValue)
 468:Drivers/STM32G4xx_HAL_Driver/Src/stm32g4xx_hal_flash.c **** {
 469:Drivers/STM32G4xx_HAL_Driver/Src/stm32g4xx_hal_flash.c ****   /* Prevent unused argument(s) compilation warning */
 470:Drivers/STM32G4xx_HAL_Driver/Src/stm32g4xx_hal_flash.c ****   UNUSED(ReturnValue);
 471:Drivers/STM32G4xx_HAL_Driver/Src/stm32g4xx_hal_flash.c **** 
 472:Drivers/STM32G4xx_HAL_Driver/Src/stm32g4xx_hal_flash.c ****   /* NOTE : This function should not be modified, when the callback is needed,
 473:Drivers/STM32G4xx_HAL_Driver/Src/stm32g4xx_hal_flash.c ****             the HAL_FLASH_EndOfOperationCallback could be implemented in the user file
 474:Drivers/STM32G4xx_HAL_Driver/Src/stm32g4xx_hal_flash.c ****    */
 475:Drivers/STM32G4xx_HAL_Driver/Src/stm32g4xx_hal_flash.c **** }
 476:Drivers/STM32G4xx_HAL_Driver/Src/stm32g4xx_hal_flash.c **** 
 477:Drivers/STM32G4xx_HAL_Driver/Src/stm32g4xx_hal_flash.c **** /**
 478:Drivers/STM32G4xx_HAL_Driver/Src/stm32g4xx_hal_flash.c ****   * @brief  FLASH operation error interrupt callback.
 479:Drivers/STM32G4xx_HAL_Driver/Src/stm32g4xx_hal_flash.c ****   * @param  ReturnValue The value saved in this parameter depends on the ongoing procedure:
 480:Drivers/STM32G4xx_HAL_Driver/Src/stm32g4xx_hal_flash.c ****   *           @arg Mass Erase: Bank number which has been requested to erase
 481:Drivers/STM32G4xx_HAL_Driver/Src/stm32g4xx_hal_flash.c ****   *           @arg Page Erase: Page number which returned an error
 482:Drivers/STM32G4xx_HAL_Driver/Src/stm32g4xx_hal_flash.c ****   *           @arg Program: Address which was selected for data program
 483:Drivers/STM32G4xx_HAL_Driver/Src/stm32g4xx_hal_flash.c ****   * @retval None
 484:Drivers/STM32G4xx_HAL_Driver/Src/stm32g4xx_hal_flash.c ****   */
 485:Drivers/STM32G4xx_HAL_Driver/Src/stm32g4xx_hal_flash.c **** __weak void HAL_FLASH_OperationErrorCallback(uint32_t ReturnValue)
 486:Drivers/STM32G4xx_HAL_Driver/Src/stm32g4xx_hal_flash.c **** {
 487:Drivers/STM32G4xx_HAL_Driver/Src/stm32g4xx_hal_flash.c ****   /* Prevent unused argument(s) compilation warning */
 488:Drivers/STM32G4xx_HAL_Driver/Src/stm32g4xx_hal_flash.c ****   UNUSED(ReturnValue);
 489:Drivers/STM32G4xx_HAL_Driver/Src/stm32g4xx_hal_flash.c **** 
 490:Drivers/STM32G4xx_HAL_Driver/Src/stm32g4xx_hal_flash.c ****   /* NOTE : This function should not be modified, when the callback is needed,
 491:Drivers/STM32G4xx_HAL_Driver/Src/stm32g4xx_hal_flash.c ****             the HAL_FLASH_OperationErrorCallback could be implemented in the user file
 492:Drivers/STM32G4xx_HAL_Driver/Src/stm32g4xx_hal_flash.c ****    */
 493:Drivers/STM32G4xx_HAL_Driver/Src/stm32g4xx_hal_flash.c **** }
 494:Drivers/STM32G4xx_HAL_Driver/Src/stm32g4xx_hal_flash.c **** 
 495:Drivers/STM32G4xx_HAL_Driver/Src/stm32g4xx_hal_flash.c **** /**
ARM GAS  /tmp/cchx7lg8.s 			page 11


 496:Drivers/STM32G4xx_HAL_Driver/Src/stm32g4xx_hal_flash.c ****   * @}
 497:Drivers/STM32G4xx_HAL_Driver/Src/stm32g4xx_hal_flash.c ****   */
 498:Drivers/STM32G4xx_HAL_Driver/Src/stm32g4xx_hal_flash.c **** 
 499:Drivers/STM32G4xx_HAL_Driver/Src/stm32g4xx_hal_flash.c **** /** @defgroup FLASH_Exported_Functions_Group2 Peripheral Control functions
 500:Drivers/STM32G4xx_HAL_Driver/Src/stm32g4xx_hal_flash.c ****   * @brief   Management functions
 501:Drivers/STM32G4xx_HAL_Driver/Src/stm32g4xx_hal_flash.c ****   *
 502:Drivers/STM32G4xx_HAL_Driver/Src/stm32g4xx_hal_flash.c **** @verbatim
 503:Drivers/STM32G4xx_HAL_Driver/Src/stm32g4xx_hal_flash.c ****  ===============================================================================
 504:Drivers/STM32G4xx_HAL_Driver/Src/stm32g4xx_hal_flash.c ****                       ##### Peripheral Control functions #####
 505:Drivers/STM32G4xx_HAL_Driver/Src/stm32g4xx_hal_flash.c ****  ===============================================================================
 506:Drivers/STM32G4xx_HAL_Driver/Src/stm32g4xx_hal_flash.c ****     [..]
 507:Drivers/STM32G4xx_HAL_Driver/Src/stm32g4xx_hal_flash.c ****     This subsection provides a set of functions allowing to control the FLASH
 508:Drivers/STM32G4xx_HAL_Driver/Src/stm32g4xx_hal_flash.c ****     memory operations.
 509:Drivers/STM32G4xx_HAL_Driver/Src/stm32g4xx_hal_flash.c **** 
 510:Drivers/STM32G4xx_HAL_Driver/Src/stm32g4xx_hal_flash.c **** @endverbatim
 511:Drivers/STM32G4xx_HAL_Driver/Src/stm32g4xx_hal_flash.c ****   * @{
 512:Drivers/STM32G4xx_HAL_Driver/Src/stm32g4xx_hal_flash.c ****   */
 513:Drivers/STM32G4xx_HAL_Driver/Src/stm32g4xx_hal_flash.c **** 
 514:Drivers/STM32G4xx_HAL_Driver/Src/stm32g4xx_hal_flash.c **** /**
 515:Drivers/STM32G4xx_HAL_Driver/Src/stm32g4xx_hal_flash.c ****   * @brief  Unlock the FLASH control register access.
 516:Drivers/STM32G4xx_HAL_Driver/Src/stm32g4xx_hal_flash.c ****   * @retval HAL_Status
 517:Drivers/STM32G4xx_HAL_Driver/Src/stm32g4xx_hal_flash.c ****   */
 518:Drivers/STM32G4xx_HAL_Driver/Src/stm32g4xx_hal_flash.c **** HAL_StatusTypeDef HAL_FLASH_Unlock(void)
 519:Drivers/STM32G4xx_HAL_Driver/Src/stm32g4xx_hal_flash.c **** {
 520:Drivers/STM32G4xx_HAL_Driver/Src/stm32g4xx_hal_flash.c ****   HAL_StatusTypeDef status = HAL_OK;
 521:Drivers/STM32G4xx_HAL_Driver/Src/stm32g4xx_hal_flash.c **** 
 522:Drivers/STM32G4xx_HAL_Driver/Src/stm32g4xx_hal_flash.c ****   if (READ_BIT(FLASH->CR, FLASH_CR_LOCK) != 0U)
 523:Drivers/STM32G4xx_HAL_Driver/Src/stm32g4xx_hal_flash.c ****   {
 524:Drivers/STM32G4xx_HAL_Driver/Src/stm32g4xx_hal_flash.c ****     /* Authorize the FLASH Registers access */
 525:Drivers/STM32G4xx_HAL_Driver/Src/stm32g4xx_hal_flash.c ****     WRITE_REG(FLASH->KEYR, FLASH_KEY1);
 526:Drivers/STM32G4xx_HAL_Driver/Src/stm32g4xx_hal_flash.c ****     WRITE_REG(FLASH->KEYR, FLASH_KEY2);
 527:Drivers/STM32G4xx_HAL_Driver/Src/stm32g4xx_hal_flash.c **** 
 528:Drivers/STM32G4xx_HAL_Driver/Src/stm32g4xx_hal_flash.c ****     /* verify Flash is unlocked */
 529:Drivers/STM32G4xx_HAL_Driver/Src/stm32g4xx_hal_flash.c ****     if (READ_BIT(FLASH->CR, FLASH_CR_LOCK) != 0U)
 530:Drivers/STM32G4xx_HAL_Driver/Src/stm32g4xx_hal_flash.c ****     {
 531:Drivers/STM32G4xx_HAL_Driver/Src/stm32g4xx_hal_flash.c ****       status = HAL_ERROR;
 532:Drivers/STM32G4xx_HAL_Driver/Src/stm32g4xx_hal_flash.c ****     }
 533:Drivers/STM32G4xx_HAL_Driver/Src/stm32g4xx_hal_flash.c ****   }
 534:Drivers/STM32G4xx_HAL_Driver/Src/stm32g4xx_hal_flash.c **** 
 535:Drivers/STM32G4xx_HAL_Driver/Src/stm32g4xx_hal_flash.c ****   return status;
 536:Drivers/STM32G4xx_HAL_Driver/Src/stm32g4xx_hal_flash.c **** }
 537:Drivers/STM32G4xx_HAL_Driver/Src/stm32g4xx_hal_flash.c **** 
 538:Drivers/STM32G4xx_HAL_Driver/Src/stm32g4xx_hal_flash.c **** /**
 539:Drivers/STM32G4xx_HAL_Driver/Src/stm32g4xx_hal_flash.c ****   * @brief  Lock the FLASH control register access.
 540:Drivers/STM32G4xx_HAL_Driver/Src/stm32g4xx_hal_flash.c ****   * @retval HAL_Status
 541:Drivers/STM32G4xx_HAL_Driver/Src/stm32g4xx_hal_flash.c ****   */
 542:Drivers/STM32G4xx_HAL_Driver/Src/stm32g4xx_hal_flash.c **** HAL_StatusTypeDef HAL_FLASH_Lock(void)
 543:Drivers/STM32G4xx_HAL_Driver/Src/stm32g4xx_hal_flash.c **** {
 544:Drivers/STM32G4xx_HAL_Driver/Src/stm32g4xx_hal_flash.c ****   HAL_StatusTypeDef status = HAL_ERROR;
 545:Drivers/STM32G4xx_HAL_Driver/Src/stm32g4xx_hal_flash.c **** 
 546:Drivers/STM32G4xx_HAL_Driver/Src/stm32g4xx_hal_flash.c ****   /* Set the LOCK Bit to lock the FLASH Registers access */
 547:Drivers/STM32G4xx_HAL_Driver/Src/stm32g4xx_hal_flash.c ****   SET_BIT(FLASH->CR, FLASH_CR_LOCK);
 548:Drivers/STM32G4xx_HAL_Driver/Src/stm32g4xx_hal_flash.c **** 
 549:Drivers/STM32G4xx_HAL_Driver/Src/stm32g4xx_hal_flash.c ****   /* verify Flash is locked */
 550:Drivers/STM32G4xx_HAL_Driver/Src/stm32g4xx_hal_flash.c ****   if (READ_BIT(FLASH->CR, FLASH_CR_LOCK) != 0U)
 551:Drivers/STM32G4xx_HAL_Driver/Src/stm32g4xx_hal_flash.c ****   {
 552:Drivers/STM32G4xx_HAL_Driver/Src/stm32g4xx_hal_flash.c ****     status = HAL_OK;
ARM GAS  /tmp/cchx7lg8.s 			page 12


 553:Drivers/STM32G4xx_HAL_Driver/Src/stm32g4xx_hal_flash.c ****   }
 554:Drivers/STM32G4xx_HAL_Driver/Src/stm32g4xx_hal_flash.c **** 
 555:Drivers/STM32G4xx_HAL_Driver/Src/stm32g4xx_hal_flash.c ****   return status;
 556:Drivers/STM32G4xx_HAL_Driver/Src/stm32g4xx_hal_flash.c **** }
 557:Drivers/STM32G4xx_HAL_Driver/Src/stm32g4xx_hal_flash.c **** 
 558:Drivers/STM32G4xx_HAL_Driver/Src/stm32g4xx_hal_flash.c **** /**
 559:Drivers/STM32G4xx_HAL_Driver/Src/stm32g4xx_hal_flash.c ****   * @brief  Unlock the FLASH Option Bytes Registers access.
 560:Drivers/STM32G4xx_HAL_Driver/Src/stm32g4xx_hal_flash.c ****   * @retval HAL_Status
 561:Drivers/STM32G4xx_HAL_Driver/Src/stm32g4xx_hal_flash.c ****   */
 562:Drivers/STM32G4xx_HAL_Driver/Src/stm32g4xx_hal_flash.c **** HAL_StatusTypeDef HAL_FLASH_OB_Unlock(void)
 563:Drivers/STM32G4xx_HAL_Driver/Src/stm32g4xx_hal_flash.c **** {
 564:Drivers/STM32G4xx_HAL_Driver/Src/stm32g4xx_hal_flash.c ****   HAL_StatusTypeDef status = HAL_OK;
 565:Drivers/STM32G4xx_HAL_Driver/Src/stm32g4xx_hal_flash.c **** 
 566:Drivers/STM32G4xx_HAL_Driver/Src/stm32g4xx_hal_flash.c ****   if (READ_BIT(FLASH->CR, FLASH_CR_OPTLOCK) != 0U)
 567:Drivers/STM32G4xx_HAL_Driver/Src/stm32g4xx_hal_flash.c ****   {
 568:Drivers/STM32G4xx_HAL_Driver/Src/stm32g4xx_hal_flash.c ****     /* Authorizes the Option Byte register programming */
 569:Drivers/STM32G4xx_HAL_Driver/Src/stm32g4xx_hal_flash.c ****     WRITE_REG(FLASH->OPTKEYR, FLASH_OPTKEY1);
 570:Drivers/STM32G4xx_HAL_Driver/Src/stm32g4xx_hal_flash.c ****     WRITE_REG(FLASH->OPTKEYR, FLASH_OPTKEY2);
 571:Drivers/STM32G4xx_HAL_Driver/Src/stm32g4xx_hal_flash.c **** 
 572:Drivers/STM32G4xx_HAL_Driver/Src/stm32g4xx_hal_flash.c ****     /* verify option bytes are unlocked */
 573:Drivers/STM32G4xx_HAL_Driver/Src/stm32g4xx_hal_flash.c ****     if (READ_BIT(FLASH->CR, FLASH_CR_OPTLOCK) != 0U)
 574:Drivers/STM32G4xx_HAL_Driver/Src/stm32g4xx_hal_flash.c ****     {
 575:Drivers/STM32G4xx_HAL_Driver/Src/stm32g4xx_hal_flash.c ****       status = HAL_ERROR;
 576:Drivers/STM32G4xx_HAL_Driver/Src/stm32g4xx_hal_flash.c ****     }
 577:Drivers/STM32G4xx_HAL_Driver/Src/stm32g4xx_hal_flash.c ****   }
 578:Drivers/STM32G4xx_HAL_Driver/Src/stm32g4xx_hal_flash.c **** 
 579:Drivers/STM32G4xx_HAL_Driver/Src/stm32g4xx_hal_flash.c ****   return status;
 580:Drivers/STM32G4xx_HAL_Driver/Src/stm32g4xx_hal_flash.c **** }
 581:Drivers/STM32G4xx_HAL_Driver/Src/stm32g4xx_hal_flash.c **** 
 582:Drivers/STM32G4xx_HAL_Driver/Src/stm32g4xx_hal_flash.c **** /**
 583:Drivers/STM32G4xx_HAL_Driver/Src/stm32g4xx_hal_flash.c ****   * @brief  Lock the FLASH Option Bytes Registers access.
 584:Drivers/STM32G4xx_HAL_Driver/Src/stm32g4xx_hal_flash.c ****   * @retval HAL_Status
 585:Drivers/STM32G4xx_HAL_Driver/Src/stm32g4xx_hal_flash.c ****   */
 586:Drivers/STM32G4xx_HAL_Driver/Src/stm32g4xx_hal_flash.c **** HAL_StatusTypeDef HAL_FLASH_OB_Lock(void)
 587:Drivers/STM32G4xx_HAL_Driver/Src/stm32g4xx_hal_flash.c **** {
 588:Drivers/STM32G4xx_HAL_Driver/Src/stm32g4xx_hal_flash.c ****   HAL_StatusTypeDef status = HAL_ERROR;
 589:Drivers/STM32G4xx_HAL_Driver/Src/stm32g4xx_hal_flash.c **** 
 590:Drivers/STM32G4xx_HAL_Driver/Src/stm32g4xx_hal_flash.c ****   /* Set the OPTLOCK Bit to lock the FLASH Option Byte Registers access */
 591:Drivers/STM32G4xx_HAL_Driver/Src/stm32g4xx_hal_flash.c ****   SET_BIT(FLASH->CR, FLASH_CR_OPTLOCK);
 592:Drivers/STM32G4xx_HAL_Driver/Src/stm32g4xx_hal_flash.c **** 
 593:Drivers/STM32G4xx_HAL_Driver/Src/stm32g4xx_hal_flash.c ****   /* Verify option bytes are locked */
 594:Drivers/STM32G4xx_HAL_Driver/Src/stm32g4xx_hal_flash.c ****   if (READ_BIT(FLASH->CR, FLASH_CR_OPTLOCK) != 0U)
 595:Drivers/STM32G4xx_HAL_Driver/Src/stm32g4xx_hal_flash.c ****   {
 596:Drivers/STM32G4xx_HAL_Driver/Src/stm32g4xx_hal_flash.c ****     status = HAL_OK;
 597:Drivers/STM32G4xx_HAL_Driver/Src/stm32g4xx_hal_flash.c ****   }
 598:Drivers/STM32G4xx_HAL_Driver/Src/stm32g4xx_hal_flash.c **** 
 599:Drivers/STM32G4xx_HAL_Driver/Src/stm32g4xx_hal_flash.c ****   return status;
 600:Drivers/STM32G4xx_HAL_Driver/Src/stm32g4xx_hal_flash.c **** }
 601:Drivers/STM32G4xx_HAL_Driver/Src/stm32g4xx_hal_flash.c **** 
 602:Drivers/STM32G4xx_HAL_Driver/Src/stm32g4xx_hal_flash.c **** /**
 603:Drivers/STM32G4xx_HAL_Driver/Src/stm32g4xx_hal_flash.c ****   * @brief  Launch the option byte loading.
 604:Drivers/STM32G4xx_HAL_Driver/Src/stm32g4xx_hal_flash.c ****   * @retval HAL_Status
 605:Drivers/STM32G4xx_HAL_Driver/Src/stm32g4xx_hal_flash.c ****   */
 606:Drivers/STM32G4xx_HAL_Driver/Src/stm32g4xx_hal_flash.c **** HAL_StatusTypeDef HAL_FLASH_OB_Launch(void)
 607:Drivers/STM32G4xx_HAL_Driver/Src/stm32g4xx_hal_flash.c **** {
 608:Drivers/STM32G4xx_HAL_Driver/Src/stm32g4xx_hal_flash.c ****   /* Set the bit to force the option byte reloading */
 609:Drivers/STM32G4xx_HAL_Driver/Src/stm32g4xx_hal_flash.c ****   SET_BIT(FLASH->CR, FLASH_CR_OBL_LAUNCH);
ARM GAS  /tmp/cchx7lg8.s 			page 13


 610:Drivers/STM32G4xx_HAL_Driver/Src/stm32g4xx_hal_flash.c **** 
 611:Drivers/STM32G4xx_HAL_Driver/Src/stm32g4xx_hal_flash.c ****   /* Wait for last operation to be completed */
 612:Drivers/STM32G4xx_HAL_Driver/Src/stm32g4xx_hal_flash.c ****   return (FLASH_WaitForLastOperation((uint32_t)FLASH_TIMEOUT_VALUE));
 613:Drivers/STM32G4xx_HAL_Driver/Src/stm32g4xx_hal_flash.c **** }
 614:Drivers/STM32G4xx_HAL_Driver/Src/stm32g4xx_hal_flash.c **** 
 615:Drivers/STM32G4xx_HAL_Driver/Src/stm32g4xx_hal_flash.c **** /**
 616:Drivers/STM32G4xx_HAL_Driver/Src/stm32g4xx_hal_flash.c ****   * @}
 617:Drivers/STM32G4xx_HAL_Driver/Src/stm32g4xx_hal_flash.c ****   */
 618:Drivers/STM32G4xx_HAL_Driver/Src/stm32g4xx_hal_flash.c **** 
 619:Drivers/STM32G4xx_HAL_Driver/Src/stm32g4xx_hal_flash.c **** /** @defgroup FLASH_Exported_Functions_Group3 Peripheral State and Errors functions
 620:Drivers/STM32G4xx_HAL_Driver/Src/stm32g4xx_hal_flash.c ****   * @brief   Peripheral Errors functions
 621:Drivers/STM32G4xx_HAL_Driver/Src/stm32g4xx_hal_flash.c ****   *
 622:Drivers/STM32G4xx_HAL_Driver/Src/stm32g4xx_hal_flash.c **** @verbatim
 623:Drivers/STM32G4xx_HAL_Driver/Src/stm32g4xx_hal_flash.c ****  ===============================================================================
 624:Drivers/STM32G4xx_HAL_Driver/Src/stm32g4xx_hal_flash.c ****                 ##### Peripheral Errors functions #####
 625:Drivers/STM32G4xx_HAL_Driver/Src/stm32g4xx_hal_flash.c ****  ===============================================================================
 626:Drivers/STM32G4xx_HAL_Driver/Src/stm32g4xx_hal_flash.c ****     [..]
 627:Drivers/STM32G4xx_HAL_Driver/Src/stm32g4xx_hal_flash.c ****     This subsection permits to get in run-time Errors of the FLASH peripheral.
 628:Drivers/STM32G4xx_HAL_Driver/Src/stm32g4xx_hal_flash.c **** 
 629:Drivers/STM32G4xx_HAL_Driver/Src/stm32g4xx_hal_flash.c **** @endverbatim
 630:Drivers/STM32G4xx_HAL_Driver/Src/stm32g4xx_hal_flash.c ****   * @{
 631:Drivers/STM32G4xx_HAL_Driver/Src/stm32g4xx_hal_flash.c ****   */
 632:Drivers/STM32G4xx_HAL_Driver/Src/stm32g4xx_hal_flash.c **** 
 633:Drivers/STM32G4xx_HAL_Driver/Src/stm32g4xx_hal_flash.c **** /**
 634:Drivers/STM32G4xx_HAL_Driver/Src/stm32g4xx_hal_flash.c ****   * @brief  Get the specific FLASH error flag.
 635:Drivers/STM32G4xx_HAL_Driver/Src/stm32g4xx_hal_flash.c ****   * @retval FLASH_ErrorCode. The returned value can be:
 636:Drivers/STM32G4xx_HAL_Driver/Src/stm32g4xx_hal_flash.c ****   *            @arg HAL_FLASH_ERROR_RD: FLASH Read Protection error flag (PCROP)
 637:Drivers/STM32G4xx_HAL_Driver/Src/stm32g4xx_hal_flash.c ****   *            @arg HAL_FLASH_ERROR_PGS: FLASH Programming Sequence error flag
 638:Drivers/STM32G4xx_HAL_Driver/Src/stm32g4xx_hal_flash.c ****   *            @arg HAL_FLASH_ERROR_PGP: FLASH Programming Parallelism error flag
 639:Drivers/STM32G4xx_HAL_Driver/Src/stm32g4xx_hal_flash.c ****   *            @arg HAL_FLASH_ERROR_PGA: FLASH Programming Alignment error flag
 640:Drivers/STM32G4xx_HAL_Driver/Src/stm32g4xx_hal_flash.c ****   *            @arg HAL_FLASH_ERROR_WRP: FLASH Write protected error flag
 641:Drivers/STM32G4xx_HAL_Driver/Src/stm32g4xx_hal_flash.c ****   *            @arg HAL_FLASH_ERROR_OPERATION: FLASH operation Error flag
 642:Drivers/STM32G4xx_HAL_Driver/Src/stm32g4xx_hal_flash.c ****   *            @arg HAL_FLASH_ERROR_NONE: No error set
 643:Drivers/STM32G4xx_HAL_Driver/Src/stm32g4xx_hal_flash.c ****   *            @arg HAL_FLASH_ERROR_OP: FLASH Operation error
 644:Drivers/STM32G4xx_HAL_Driver/Src/stm32g4xx_hal_flash.c ****   *            @arg HAL_FLASH_ERROR_PROG: FLASH Programming error
 645:Drivers/STM32G4xx_HAL_Driver/Src/stm32g4xx_hal_flash.c ****   *            @arg HAL_FLASH_ERROR_WRP: FLASH Write protection error
 646:Drivers/STM32G4xx_HAL_Driver/Src/stm32g4xx_hal_flash.c ****   *            @arg HAL_FLASH_ERROR_PGA: FLASH Programming alignment error
 647:Drivers/STM32G4xx_HAL_Driver/Src/stm32g4xx_hal_flash.c ****   *            @arg HAL_FLASH_ERROR_SIZ: FLASH Size error
 648:Drivers/STM32G4xx_HAL_Driver/Src/stm32g4xx_hal_flash.c ****   *            @arg HAL_FLASH_ERROR_PGS: FLASH Programming sequence error
 649:Drivers/STM32G4xx_HAL_Driver/Src/stm32g4xx_hal_flash.c ****   *            @arg HAL_FLASH_ERROR_MIS: FLASH Fast programming data miss error
 650:Drivers/STM32G4xx_HAL_Driver/Src/stm32g4xx_hal_flash.c ****   *            @arg HAL_FLASH_ERROR_FAST: FLASH Fast programming error
 651:Drivers/STM32G4xx_HAL_Driver/Src/stm32g4xx_hal_flash.c ****   *            @arg HAL_FLASH_ERROR_RD: FLASH PCROP read error
 652:Drivers/STM32G4xx_HAL_Driver/Src/stm32g4xx_hal_flash.c ****   *            @arg HAL_FLASH_ERROR_OPTV: FLASH Option validity error
 653:Drivers/STM32G4xx_HAL_Driver/Src/stm32g4xx_hal_flash.c ****   */
 654:Drivers/STM32G4xx_HAL_Driver/Src/stm32g4xx_hal_flash.c **** uint32_t HAL_FLASH_GetError(void)
 655:Drivers/STM32G4xx_HAL_Driver/Src/stm32g4xx_hal_flash.c **** {
 656:Drivers/STM32G4xx_HAL_Driver/Src/stm32g4xx_hal_flash.c ****   return pFlash.ErrorCode;
 657:Drivers/STM32G4xx_HAL_Driver/Src/stm32g4xx_hal_flash.c **** }
 658:Drivers/STM32G4xx_HAL_Driver/Src/stm32g4xx_hal_flash.c **** 
 659:Drivers/STM32G4xx_HAL_Driver/Src/stm32g4xx_hal_flash.c **** /**
 660:Drivers/STM32G4xx_HAL_Driver/Src/stm32g4xx_hal_flash.c ****   * @}
 661:Drivers/STM32G4xx_HAL_Driver/Src/stm32g4xx_hal_flash.c ****   */
 662:Drivers/STM32G4xx_HAL_Driver/Src/stm32g4xx_hal_flash.c **** 
 663:Drivers/STM32G4xx_HAL_Driver/Src/stm32g4xx_hal_flash.c **** /**
 664:Drivers/STM32G4xx_HAL_Driver/Src/stm32g4xx_hal_flash.c ****   * @}
 665:Drivers/STM32G4xx_HAL_Driver/Src/stm32g4xx_hal_flash.c ****   */
 666:Drivers/STM32G4xx_HAL_Driver/Src/stm32g4xx_hal_flash.c **** 
ARM GAS  /tmp/cchx7lg8.s 			page 14


 667:Drivers/STM32G4xx_HAL_Driver/Src/stm32g4xx_hal_flash.c **** /* Private functions ---------------------------------------------------------*/
 668:Drivers/STM32G4xx_HAL_Driver/Src/stm32g4xx_hal_flash.c **** 
 669:Drivers/STM32G4xx_HAL_Driver/Src/stm32g4xx_hal_flash.c **** /** @addtogroup FLASH_Private_Functions
 670:Drivers/STM32G4xx_HAL_Driver/Src/stm32g4xx_hal_flash.c ****   * @{
 671:Drivers/STM32G4xx_HAL_Driver/Src/stm32g4xx_hal_flash.c ****   */
 672:Drivers/STM32G4xx_HAL_Driver/Src/stm32g4xx_hal_flash.c **** 
 673:Drivers/STM32G4xx_HAL_Driver/Src/stm32g4xx_hal_flash.c **** /**
 674:Drivers/STM32G4xx_HAL_Driver/Src/stm32g4xx_hal_flash.c ****   * @brief  Wait for a FLASH operation to complete.
 675:Drivers/STM32G4xx_HAL_Driver/Src/stm32g4xx_hal_flash.c ****   * @param  Timeout maximum flash operation timeout.
 676:Drivers/STM32G4xx_HAL_Driver/Src/stm32g4xx_hal_flash.c ****   * @retval HAL_Status
 677:Drivers/STM32G4xx_HAL_Driver/Src/stm32g4xx_hal_flash.c ****   */
 678:Drivers/STM32G4xx_HAL_Driver/Src/stm32g4xx_hal_flash.c **** HAL_StatusTypeDef FLASH_WaitForLastOperation(uint32_t Timeout)
  73              		.loc 1 678 19 discriminator 2 view .LVU14
  74              	.LBB55:
 679:Drivers/STM32G4xx_HAL_Driver/Src/stm32g4xx_hal_flash.c **** {
 680:Drivers/STM32G4xx_HAL_Driver/Src/stm32g4xx_hal_flash.c ****   /* Wait for the FLASH operation to complete by polling on BUSY flag to be reset.
 681:Drivers/STM32G4xx_HAL_Driver/Src/stm32g4xx_hal_flash.c ****      Even if the FLASH operation fails, the BUSY flag will be reset and an error
 682:Drivers/STM32G4xx_HAL_Driver/Src/stm32g4xx_hal_flash.c ****      flag will be set */
 683:Drivers/STM32G4xx_HAL_Driver/Src/stm32g4xx_hal_flash.c **** 
 684:Drivers/STM32G4xx_HAL_Driver/Src/stm32g4xx_hal_flash.c ****   uint32_t tickstart = HAL_GetTick();
  75              		.loc 1 684 3 discriminator 2 view .LVU15
  76              		.loc 1 684 24 is_stmt 0 discriminator 2 view .LVU16
  77 001e FFF7FEFF 		bl	HAL_GetTick
  78              	.LVL3:
 685:Drivers/STM32G4xx_HAL_Driver/Src/stm32g4xx_hal_flash.c ****   uint32_t error;
 686:Drivers/STM32G4xx_HAL_Driver/Src/stm32g4xx_hal_flash.c **** 
 687:Drivers/STM32G4xx_HAL_Driver/Src/stm32g4xx_hal_flash.c ****   while (__HAL_FLASH_GET_FLAG(FLASH_FLAG_BSY))
  79              		.loc 1 687 10 discriminator 2 view .LVU17
  80 0022 524D     		ldr	r5, .L47
 684:Drivers/STM32G4xx_HAL_Driver/Src/stm32g4xx_hal_flash.c ****   uint32_t error;
  81              		.loc 1 684 24 discriminator 2 view .LVU18
  82 0024 0446     		mov	r4, r0
  83              	.LVL4:
 685:Drivers/STM32G4xx_HAL_Driver/Src/stm32g4xx_hal_flash.c ****   uint32_t error;
  84              		.loc 1 685 3 is_stmt 1 discriminator 2 view .LVU19
  85              		.loc 1 687 3 discriminator 2 view .LVU20
  86              		.loc 1 687 9 is_stmt 0 discriminator 2 view .LVU21
  87 0026 06E0     		b	.L3
  88              	.LVL5:
  89              	.L5:
 688:Drivers/STM32G4xx_HAL_Driver/Src/stm32g4xx_hal_flash.c ****   {
 689:Drivers/STM32G4xx_HAL_Driver/Src/stm32g4xx_hal_flash.c ****     if ((HAL_GetTick() - tickstart) > Timeout)
  90              		.loc 1 689 10 view .LVU22
  91 0028 FFF7FEFF 		bl	HAL_GetTick
  92              	.LVL6:
  93              		.loc 1 689 24 view .LVU23
  94 002c A0EB040C 		sub	ip, r0, r4
  95              		.loc 1 689 8 view .LVU24
  96 0030 BCF57A7F 		cmp	ip, #1000
  97 0034 45D8     		bhi	.L24
  98              	.L3:
  99              		.loc 1 689 5 is_stmt 1 view .LVU25
 687:Drivers/STM32G4xx_HAL_Driver/Src/stm32g4xx_hal_flash.c ****   {
 100              		.loc 1 687 9 view .LVU26
 687:Drivers/STM32G4xx_HAL_Driver/Src/stm32g4xx_hal_flash.c ****   {
 101              		.loc 1 687 10 is_stmt 0 view .LVU27
 102 0036 2B69     		ldr	r3, [r5, #16]
ARM GAS  /tmp/cchx7lg8.s 			page 15


 687:Drivers/STM32G4xx_HAL_Driver/Src/stm32g4xx_hal_flash.c ****   {
 103              		.loc 1 687 9 view .LVU28
 104 0038 D803     		lsls	r0, r3, #15
 105 003a F5D4     		bmi	.L5
 690:Drivers/STM32G4xx_HAL_Driver/Src/stm32g4xx_hal_flash.c ****     {
 691:Drivers/STM32G4xx_HAL_Driver/Src/stm32g4xx_hal_flash.c ****       return HAL_TIMEOUT;
 692:Drivers/STM32G4xx_HAL_Driver/Src/stm32g4xx_hal_flash.c ****     }
 693:Drivers/STM32G4xx_HAL_Driver/Src/stm32g4xx_hal_flash.c ****   }
 694:Drivers/STM32G4xx_HAL_Driver/Src/stm32g4xx_hal_flash.c **** 
 695:Drivers/STM32G4xx_HAL_Driver/Src/stm32g4xx_hal_flash.c ****   /* Check FLASH operation error flags */
 696:Drivers/STM32G4xx_HAL_Driver/Src/stm32g4xx_hal_flash.c ****   error = (FLASH->SR & FLASH_FLAG_SR_ERRORS);
 106              		.loc 1 696 3 is_stmt 1 view .LVU29
 107              		.loc 1 696 17 is_stmt 0 view .LVU30
 108 003c 2C69     		ldr	r4, [r5, #16]
 109              	.LVL7:
 110              		.loc 1 696 9 view .LVU31
 111 003e 4CF2FA33 		movw	r3, #50170
 112              	.LVL8:
 697:Drivers/STM32G4xx_HAL_Driver/Src/stm32g4xx_hal_flash.c ****   if (error != 0u)
 113              		.loc 1 697 3 is_stmt 1 view .LVU32
 114              		.loc 1 697 6 is_stmt 0 view .LVU33
 115 0042 1C40     		ands	r4, r4, r3
 116              	.LVL9:
 117              		.loc 1 697 6 view .LVU34
 118 0044 56D1     		bne	.L43
 119              	.LBB56:
 120              	.LBI56:
 678:Drivers/STM32G4xx_HAL_Driver/Src/stm32g4xx_hal_flash.c **** {
 121              		.loc 1 678 19 is_stmt 1 view .LVU35
 122              	.LVL10:
 123              	.LBB57:
 698:Drivers/STM32G4xx_HAL_Driver/Src/stm32g4xx_hal_flash.c ****   {
 699:Drivers/STM32G4xx_HAL_Driver/Src/stm32g4xx_hal_flash.c ****     /* Save the error code */
 700:Drivers/STM32G4xx_HAL_Driver/Src/stm32g4xx_hal_flash.c ****     pFlash.ErrorCode |= error;
 701:Drivers/STM32G4xx_HAL_Driver/Src/stm32g4xx_hal_flash.c **** 
 702:Drivers/STM32G4xx_HAL_Driver/Src/stm32g4xx_hal_flash.c ****     /* Clear error programming flags */
 703:Drivers/STM32G4xx_HAL_Driver/Src/stm32g4xx_hal_flash.c ****     __HAL_FLASH_CLEAR_FLAG(error);
 704:Drivers/STM32G4xx_HAL_Driver/Src/stm32g4xx_hal_flash.c **** 
 705:Drivers/STM32G4xx_HAL_Driver/Src/stm32g4xx_hal_flash.c ****     return HAL_ERROR;
 706:Drivers/STM32G4xx_HAL_Driver/Src/stm32g4xx_hal_flash.c ****   }
 707:Drivers/STM32G4xx_HAL_Driver/Src/stm32g4xx_hal_flash.c **** 
 708:Drivers/STM32G4xx_HAL_Driver/Src/stm32g4xx_hal_flash.c ****   /* Check FLASH End of Operation flag  */
 709:Drivers/STM32G4xx_HAL_Driver/Src/stm32g4xx_hal_flash.c ****   if (__HAL_FLASH_GET_FLAG(FLASH_FLAG_EOP))
 124              		.loc 1 709 3 view .LVU36
 125              		.loc 1 709 7 is_stmt 0 view .LVU37
 126 0046 2B69     		ldr	r3, [r5, #16]
 127              	.LBE57:
 128              	.LBE56:
 129              	.LBE55:
 130              	.LBE54:
 192:Drivers/STM32G4xx_HAL_Driver/Src/stm32g4xx_hal_flash.c ****     {
 131              		.loc 1 192 8 view .LVU38
 132 0048 484A     		ldr	r2, .L47
 133              	.LBB63:
 134              	.LBB60:
 135              	.LBB59:
 136              	.LBB58:
ARM GAS  /tmp/cchx7lg8.s 			page 16


 137              		.loc 1 709 6 view .LVU39
 138 004a D907     		lsls	r1, r3, #31
 710:Drivers/STM32G4xx_HAL_Driver/Src/stm32g4xx_hal_flash.c ****   {
 711:Drivers/STM32G4xx_HAL_Driver/Src/stm32g4xx_hal_flash.c ****     /* Clear FLASH End of Operation pending bit */
 712:Drivers/STM32G4xx_HAL_Driver/Src/stm32g4xx_hal_flash.c ****     __HAL_FLASH_CLEAR_FLAG(FLASH_FLAG_EOP);
 139              		.loc 1 712 5 is_stmt 1 view .LVU40
 140              		.loc 1 712 5 view .LVU41
 141              		.loc 1 712 5 view .LVU42
 142              		.loc 1 712 5 view .LVU43
 143 004c 44BF     		itt	mi
 144 004e 0123     		movmi	r3, #1
 145 0050 2B61     		strmi	r3, [r5, #16]
 146              	.LVL11:
 147              		.loc 1 712 5 is_stmt 0 view .LVU44
 148              	.LBE58:
 149              	.LBE59:
 150              	.LBE60:
 151              	.LBE63:
 187:Drivers/STM32G4xx_HAL_Driver/Src/stm32g4xx_hal_flash.c ****   {
 152              		.loc 1 187 3 is_stmt 1 view .LVU45
 189:Drivers/STM32G4xx_HAL_Driver/Src/stm32g4xx_hal_flash.c **** 
 153              		.loc 1 189 5 view .LVU46
 189:Drivers/STM32G4xx_HAL_Driver/Src/stm32g4xx_hal_flash.c **** 
 154              		.loc 1 189 22 is_stmt 0 view .LVU47
 155 0052 0023     		movs	r3, #0
 156 0054 C8F80430 		str	r3, [r8, #4]
 192:Drivers/STM32G4xx_HAL_Driver/Src/stm32g4xx_hal_flash.c ****     {
 157              		.loc 1 192 5 is_stmt 1 view .LVU48
 192:Drivers/STM32G4xx_HAL_Driver/Src/stm32g4xx_hal_flash.c ****     {
 158              		.loc 1 192 8 is_stmt 0 view .LVU49
 159 0058 1368     		ldr	r3, [r2]
 192:Drivers/STM32G4xx_HAL_Driver/Src/stm32g4xx_hal_flash.c ****     {
 160              		.loc 1 192 7 view .LVU50
 161 005a 13F48063 		ands	r3, r3, #1024
 195:Drivers/STM32G4xx_HAL_Driver/Src/stm32g4xx_hal_flash.c ****       pFlash.CacheToReactivate = FLASH_CACHE_DCACHE_ENABLED;
 162              		.loc 1 195 7 is_stmt 1 view .LVU51
 163 005e 1FBF     		itttt	ne
 164 0060 1368     		ldrne	r3, [r2]
 165 0062 23F48063 		bicne	r3, r3, #1024
 166 0066 1360     		strne	r3, [r2]
 196:Drivers/STM32G4xx_HAL_Driver/Src/stm32g4xx_hal_flash.c ****     }
 167              		.loc 1 196 7 view .LVU52
 196:Drivers/STM32G4xx_HAL_Driver/Src/stm32g4xx_hal_flash.c ****     }
 168              		.loc 1 196 32 is_stmt 0 view .LVU53
 169 0068 0223     		movne	r3, #2
 200:Drivers/STM32G4xx_HAL_Driver/Src/stm32g4xx_hal_flash.c ****     }
 170              		.loc 1 200 7 is_stmt 1 view .LVU54
 202:Drivers/STM32G4xx_HAL_Driver/Src/stm32g4xx_hal_flash.c ****     {
 171              		.loc 1 202 5 view .LVU55
 200:Drivers/STM32G4xx_HAL_Driver/Src/stm32g4xx_hal_flash.c ****     }
 172              		.loc 1 200 32 is_stmt 0 view .LVU56
 173 006a 88F81C30 		strb	r3, [r8, #28]
 202:Drivers/STM32G4xx_HAL_Driver/Src/stm32g4xx_hal_flash.c ****     {
 174              		.loc 1 202 8 view .LVU57
 175 006e B9F1000F 		cmp	r9, #0
 176 0072 31D0     		beq	.L44
 208:Drivers/STM32G4xx_HAL_Driver/Src/stm32g4xx_hal_flash.c ****     {
ARM GAS  /tmp/cchx7lg8.s 			page 17


 177              		.loc 1 208 10 is_stmt 1 view .LVU58
 208:Drivers/STM32G4xx_HAL_Driver/Src/stm32g4xx_hal_flash.c ****     {
 178              		.loc 1 208 54 is_stmt 0 view .LVU59
 179 0074 09F1FF33 		add	r3, r9, #-1
 208:Drivers/STM32G4xx_HAL_Driver/Src/stm32g4xx_hal_flash.c ****     {
 180              		.loc 1 208 13 view .LVU60
 181 0078 012B     		cmp	r3, #1
 182 007a 43D9     		bls	.L45
 183              	.LVL12:
 184              	.L11:
 222:Drivers/STM32G4xx_HAL_Driver/Src/stm32g4xx_hal_flash.c **** 
 185              		.loc 1 222 5 is_stmt 1 view .LVU61
 225:Drivers/STM32G4xx_HAL_Driver/Src/stm32g4xx_hal_flash.c **** 
 186              		.loc 1 225 5 view .LVU62
 187              	.LBB64:
 188              	.LBI64:
 678:Drivers/STM32G4xx_HAL_Driver/Src/stm32g4xx_hal_flash.c **** {
 189              		.loc 1 678 19 view .LVU63
 190              	.LBB65:
 684:Drivers/STM32G4xx_HAL_Driver/Src/stm32g4xx_hal_flash.c ****   uint32_t error;
 191              		.loc 1 684 3 view .LVU64
 684:Drivers/STM32G4xx_HAL_Driver/Src/stm32g4xx_hal_flash.c ****   uint32_t error;
 192              		.loc 1 684 24 is_stmt 0 view .LVU65
 193 007c FFF7FEFF 		bl	HAL_GetTick
 194              	.LVL13:
 687:Drivers/STM32G4xx_HAL_Driver/Src/stm32g4xx_hal_flash.c ****   {
 195              		.loc 1 687 10 view .LVU66
 196 0080 3A4E     		ldr	r6, .L47
 684:Drivers/STM32G4xx_HAL_Driver/Src/stm32g4xx_hal_flash.c ****   uint32_t error;
 197              		.loc 1 684 24 view .LVU67
 198 0082 0546     		mov	r5, r0
 199              	.LVL14:
 685:Drivers/STM32G4xx_HAL_Driver/Src/stm32g4xx_hal_flash.c **** 
 200              		.loc 1 685 3 is_stmt 1 view .LVU68
 687:Drivers/STM32G4xx_HAL_Driver/Src/stm32g4xx_hal_flash.c ****   {
 201              		.loc 1 687 3 view .LVU69
 687:Drivers/STM32G4xx_HAL_Driver/Src/stm32g4xx_hal_flash.c ****   {
 202              		.loc 1 687 9 is_stmt 0 view .LVU70
 203 0084 05E0     		b	.L18
 204              	.LVL15:
 205              	.L20:
 689:Drivers/STM32G4xx_HAL_Driver/Src/stm32g4xx_hal_flash.c ****     {
 206              		.loc 1 689 10 view .LVU71
 207 0086 FFF7FEFF 		bl	HAL_GetTick
 208              	.LVL16:
 689:Drivers/STM32G4xx_HAL_Driver/Src/stm32g4xx_hal_flash.c ****     {
 209              		.loc 1 689 24 view .LVU72
 210 008a 401B     		subs	r0, r0, r5
 689:Drivers/STM32G4xx_HAL_Driver/Src/stm32g4xx_hal_flash.c ****     {
 211              		.loc 1 689 8 view .LVU73
 212 008c B0F57A7F 		cmp	r0, #1000
 213 0090 2ED8     		bhi	.L25
 214              	.L18:
 689:Drivers/STM32G4xx_HAL_Driver/Src/stm32g4xx_hal_flash.c ****     {
 215              		.loc 1 689 5 is_stmt 1 view .LVU74
 687:Drivers/STM32G4xx_HAL_Driver/Src/stm32g4xx_hal_flash.c ****   {
 216              		.loc 1 687 9 view .LVU75
ARM GAS  /tmp/cchx7lg8.s 			page 18


 687:Drivers/STM32G4xx_HAL_Driver/Src/stm32g4xx_hal_flash.c ****   {
 217              		.loc 1 687 10 is_stmt 0 view .LVU76
 218 0092 3369     		ldr	r3, [r6, #16]
 687:Drivers/STM32G4xx_HAL_Driver/Src/stm32g4xx_hal_flash.c ****   {
 219              		.loc 1 687 9 view .LVU77
 220 0094 DB03     		lsls	r3, r3, #15
 221 0096 F6D4     		bmi	.L20
 696:Drivers/STM32G4xx_HAL_Driver/Src/stm32g4xx_hal_flash.c ****   if (error != 0u)
 222              		.loc 1 696 3 is_stmt 1 view .LVU78
 696:Drivers/STM32G4xx_HAL_Driver/Src/stm32g4xx_hal_flash.c ****   if (error != 0u)
 223              		.loc 1 696 17 is_stmt 0 view .LVU79
 224 0098 3369     		ldr	r3, [r6, #16]
 696:Drivers/STM32G4xx_HAL_Driver/Src/stm32g4xx_hal_flash.c ****   if (error != 0u)
 225              		.loc 1 696 9 view .LVU80
 226 009a 4CF2FA32 		movw	r2, #50170
 227              	.LVL17:
 697:Drivers/STM32G4xx_HAL_Driver/Src/stm32g4xx_hal_flash.c ****   {
 228              		.loc 1 697 3 is_stmt 1 view .LVU81
 697:Drivers/STM32G4xx_HAL_Driver/Src/stm32g4xx_hal_flash.c ****   {
 229              		.loc 1 697 6 is_stmt 0 view .LVU82
 230 009e 1340     		ands	r3, r3, r2
 231              	.LVL18:
 697:Drivers/STM32G4xx_HAL_Driver/Src/stm32g4xx_hal_flash.c ****   {
 232              		.loc 1 697 6 view .LVU83
 233 00a0 53D1     		bne	.L46
 234              	.LBB66:
 235              	.LBI66:
 678:Drivers/STM32G4xx_HAL_Driver/Src/stm32g4xx_hal_flash.c **** {
 236              		.loc 1 678 19 is_stmt 1 view .LVU84
 237              	.LVL19:
 238              	.LBB67:
 709:Drivers/STM32G4xx_HAL_Driver/Src/stm32g4xx_hal_flash.c ****   {
 239              		.loc 1 709 3 view .LVU85
 709:Drivers/STM32G4xx_HAL_Driver/Src/stm32g4xx_hal_flash.c ****   {
 240              		.loc 1 709 7 is_stmt 0 view .LVU86
 241 00a2 3769     		ldr	r7, [r6, #16]
 709:Drivers/STM32G4xx_HAL_Driver/Src/stm32g4xx_hal_flash.c ****   {
 242              		.loc 1 709 6 view .LVU87
 243 00a4 17F00107 		ands	r7, r7, #1
 244 00a8 02D0     		beq	.L19
 245              		.loc 1 712 5 is_stmt 1 view .LVU88
 246              		.loc 1 712 5 view .LVU89
 247              		.loc 1 712 5 view .LVU90
 248              		.loc 1 712 5 view .LVU91
 249 00aa 0122     		movs	r2, #1
 250 00ac 3261     		str	r2, [r6, #16]
 251 00ae 1F46     		mov	r7, r3
 252              	.LVL20:
 253              	.L19:
 254              		.loc 1 712 5 is_stmt 0 view .LVU92
 255              	.LBE67:
 256              	.LBE66:
 257              	.LBE65:
 258              	.LBE64:
 228:Drivers/STM32G4xx_HAL_Driver/Src/stm32g4xx_hal_flash.c ****     {
 259              		.loc 1 228 5 is_stmt 1 view .LVU93
 228:Drivers/STM32G4xx_HAL_Driver/Src/stm32g4xx_hal_flash.c ****     {
ARM GAS  /tmp/cchx7lg8.s 			page 19


 260              		.loc 1 228 8 is_stmt 0 view .LVU94
 261 00b0 24B1     		cbz	r4, .L22
 230:Drivers/STM32G4xx_HAL_Driver/Src/stm32g4xx_hal_flash.c ****     }
 262              		.loc 1 230 7 is_stmt 1 view .LVU95
 263 00b2 2E4A     		ldr	r2, .L47
 264 00b4 5369     		ldr	r3, [r2, #20]
 265 00b6 23EA0404 		bic	r4, r3, r4
 266              	.LVL21:
 230:Drivers/STM32G4xx_HAL_Driver/Src/stm32g4xx_hal_flash.c ****     }
 267              		.loc 1 230 7 is_stmt 0 view .LVU96
 268 00ba 5461     		str	r4, [r2, #20]
 269              	.L22:
 234:Drivers/STM32G4xx_HAL_Driver/Src/stm32g4xx_hal_flash.c ****   }
 270              		.loc 1 234 5 is_stmt 1 view .LVU97
 271 00bc FFF7FEFF 		bl	FLASH_FlushCaches
 272              	.LVL22:
 273 00c0 00E0     		b	.L4
 274              	.LVL23:
 275              	.L24:
 276              	.LBB70:
 277              	.LBB61:
 234:Drivers/STM32G4xx_HAL_Driver/Src/stm32g4xx_hal_flash.c ****   }
 278              		.loc 1 234 5 is_stmt 0 view .LVU98
 279 00c2 0327     		movs	r7, #3
 280              	.LVL24:
 281              	.L4:
 234:Drivers/STM32G4xx_HAL_Driver/Src/stm32g4xx_hal_flash.c ****   }
 282              		.loc 1 234 5 view .LVU99
 283              	.LBE61:
 284              	.LBE70:
 238:Drivers/STM32G4xx_HAL_Driver/Src/stm32g4xx_hal_flash.c **** 
 285              		.loc 1 238 3 is_stmt 1 view .LVU100
 238:Drivers/STM32G4xx_HAL_Driver/Src/stm32g4xx_hal_flash.c **** 
 286              		.loc 1 238 3 view .LVU101
 287 00c4 0023     		movs	r3, #0
 288 00c6 88F80030 		strb	r3, [r8]
 238:Drivers/STM32G4xx_HAL_Driver/Src/stm32g4xx_hal_flash.c **** 
 289              		.loc 1 238 3 view .LVU102
 241:Drivers/STM32G4xx_HAL_Driver/Src/stm32g4xx_hal_flash.c **** }
 290              		.loc 1 241 3 view .LVU103
 242:Drivers/STM32G4xx_HAL_Driver/Src/stm32g4xx_hal_flash.c **** 
 291              		.loc 1 242 1 is_stmt 0 view .LVU104
 292 00ca 3846     		mov	r0, r7
 293 00cc BDE8F087 		pop	{r4, r5, r6, r7, r8, r9, r10, pc}
 294              	.LVL25:
 295              	.L23:
 182:Drivers/STM32G4xx_HAL_Driver/Src/stm32g4xx_hal_flash.c **** 
 296              		.loc 1 182 3 view .LVU105
 297 00d0 0227     		movs	r7, #2
 242:Drivers/STM32G4xx_HAL_Driver/Src/stm32g4xx_hal_flash.c **** 
 298              		.loc 1 242 1 view .LVU106
 299 00d2 3846     		mov	r0, r7
 300              	.LVL26:
 242:Drivers/STM32G4xx_HAL_Driver/Src/stm32g4xx_hal_flash.c **** 
 301              		.loc 1 242 1 view .LVU107
 302 00d4 BDE8F087 		pop	{r4, r5, r6, r7, r8, r9, r10, pc}
 303              	.LVL27:
ARM GAS  /tmp/cchx7lg8.s 			page 20


 304              	.L44:
 205:Drivers/STM32G4xx_HAL_Driver/Src/stm32g4xx_hal_flash.c ****       prog_bit = FLASH_CR_PG;
 305              		.loc 1 205 7 is_stmt 1 view .LVU108
 306              	.LBB71:
 307              	.LBI71:
 713:Drivers/STM32G4xx_HAL_Driver/Src/stm32g4xx_hal_flash.c ****   }
 714:Drivers/STM32G4xx_HAL_Driver/Src/stm32g4xx_hal_flash.c **** 
 715:Drivers/STM32G4xx_HAL_Driver/Src/stm32g4xx_hal_flash.c ****   /* If there is an error flag set */
 716:Drivers/STM32G4xx_HAL_Driver/Src/stm32g4xx_hal_flash.c ****   return HAL_OK;
 717:Drivers/STM32G4xx_HAL_Driver/Src/stm32g4xx_hal_flash.c **** }
 718:Drivers/STM32G4xx_HAL_Driver/Src/stm32g4xx_hal_flash.c **** 
 719:Drivers/STM32G4xx_HAL_Driver/Src/stm32g4xx_hal_flash.c **** /**
 720:Drivers/STM32G4xx_HAL_Driver/Src/stm32g4xx_hal_flash.c ****   * @brief  Program double-word (64-bit) at a specified address.
 721:Drivers/STM32G4xx_HAL_Driver/Src/stm32g4xx_hal_flash.c ****   * @param  Address specifies the address to be programmed.
 722:Drivers/STM32G4xx_HAL_Driver/Src/stm32g4xx_hal_flash.c ****   * @param  Data specifies the data to be programmed.
 723:Drivers/STM32G4xx_HAL_Driver/Src/stm32g4xx_hal_flash.c ****   * @retval None
 724:Drivers/STM32G4xx_HAL_Driver/Src/stm32g4xx_hal_flash.c ****   */
 725:Drivers/STM32G4xx_HAL_Driver/Src/stm32g4xx_hal_flash.c **** static void FLASH_Program_DoubleWord(uint32_t Address, uint64_t Data)
 308              		.loc 1 725 13 view .LVU109
 309              	.LBB72:
 726:Drivers/STM32G4xx_HAL_Driver/Src/stm32g4xx_hal_flash.c **** {
 727:Drivers/STM32G4xx_HAL_Driver/Src/stm32g4xx_hal_flash.c ****   /* Check the parameters */
 728:Drivers/STM32G4xx_HAL_Driver/Src/stm32g4xx_hal_flash.c ****   assert_param(IS_FLASH_PROGRAM_ADDRESS(Address));
 310              		.loc 1 728 3 view .LVU110
 729:Drivers/STM32G4xx_HAL_Driver/Src/stm32g4xx_hal_flash.c **** 
 730:Drivers/STM32G4xx_HAL_Driver/Src/stm32g4xx_hal_flash.c ****   /* Set PG bit */
 731:Drivers/STM32G4xx_HAL_Driver/Src/stm32g4xx_hal_flash.c ****   SET_BIT(FLASH->CR, FLASH_CR_PG);
 311              		.loc 1 731 3 view .LVU111
 312 00d8 244A     		ldr	r2, .L47
 313 00da 5369     		ldr	r3, [r2, #20]
 314 00dc 43F00103 		orr	r3, r3, #1
 315 00e0 5361     		str	r3, [r2, #20]
 732:Drivers/STM32G4xx_HAL_Driver/Src/stm32g4xx_hal_flash.c **** 
 733:Drivers/STM32G4xx_HAL_Driver/Src/stm32g4xx_hal_flash.c ****   /* Program first word */
 734:Drivers/STM32G4xx_HAL_Driver/Src/stm32g4xx_hal_flash.c ****   *(uint32_t *)Address = (uint32_t)Data;
 316              		.loc 1 734 3 view .LVU112
 317              		.loc 1 734 26 is_stmt 0 view .LVU113
 318 00e2 3760     		str	r7, [r6]
 735:Drivers/STM32G4xx_HAL_Driver/Src/stm32g4xx_hal_flash.c **** 
 736:Drivers/STM32G4xx_HAL_Driver/Src/stm32g4xx_hal_flash.c ****   /* Barrier to ensure programming is performed in 2 steps, in right order
 737:Drivers/STM32G4xx_HAL_Driver/Src/stm32g4xx_hal_flash.c ****     (independently of compiler optimization behavior) */
 738:Drivers/STM32G4xx_HAL_Driver/Src/stm32g4xx_hal_flash.c ****   __ISB();
 319              		.loc 1 738 3 is_stmt 1 view .LVU114
 320              	.LBB73:
 321              	.LBI73:
 322              		.file 2 "Drivers/CMSIS/Include/cmsis_gcc.h"
   1:Drivers/CMSIS/Include/cmsis_gcc.h **** /**************************************************************************//**
   2:Drivers/CMSIS/Include/cmsis_gcc.h ****  * @file     cmsis_gcc.h
   3:Drivers/CMSIS/Include/cmsis_gcc.h ****  * @brief    CMSIS compiler GCC header file
   4:Drivers/CMSIS/Include/cmsis_gcc.h ****  * @version  V5.2.0
   5:Drivers/CMSIS/Include/cmsis_gcc.h ****  * @date     08. May 2019
   6:Drivers/CMSIS/Include/cmsis_gcc.h ****  ******************************************************************************/
   7:Drivers/CMSIS/Include/cmsis_gcc.h **** /*
   8:Drivers/CMSIS/Include/cmsis_gcc.h ****  * Copyright (c) 2009-2019 Arm Limited. All rights reserved.
   9:Drivers/CMSIS/Include/cmsis_gcc.h ****  *
  10:Drivers/CMSIS/Include/cmsis_gcc.h ****  * SPDX-License-Identifier: Apache-2.0
  11:Drivers/CMSIS/Include/cmsis_gcc.h ****  *
ARM GAS  /tmp/cchx7lg8.s 			page 21


  12:Drivers/CMSIS/Include/cmsis_gcc.h ****  * Licensed under the Apache License, Version 2.0 (the License); you may
  13:Drivers/CMSIS/Include/cmsis_gcc.h ****  * not use this file except in compliance with the License.
  14:Drivers/CMSIS/Include/cmsis_gcc.h ****  * You may obtain a copy of the License at
  15:Drivers/CMSIS/Include/cmsis_gcc.h ****  *
  16:Drivers/CMSIS/Include/cmsis_gcc.h ****  * www.apache.org/licenses/LICENSE-2.0
  17:Drivers/CMSIS/Include/cmsis_gcc.h ****  *
  18:Drivers/CMSIS/Include/cmsis_gcc.h ****  * Unless required by applicable law or agreed to in writing, software
  19:Drivers/CMSIS/Include/cmsis_gcc.h ****  * distributed under the License is distributed on an AS IS BASIS, WITHOUT
  20:Drivers/CMSIS/Include/cmsis_gcc.h ****  * WARRANTIES OR CONDITIONS OF ANY KIND, either express or implied.
  21:Drivers/CMSIS/Include/cmsis_gcc.h ****  * See the License for the specific language governing permissions and
  22:Drivers/CMSIS/Include/cmsis_gcc.h ****  * limitations under the License.
  23:Drivers/CMSIS/Include/cmsis_gcc.h ****  */
  24:Drivers/CMSIS/Include/cmsis_gcc.h **** 
  25:Drivers/CMSIS/Include/cmsis_gcc.h **** #ifndef __CMSIS_GCC_H
  26:Drivers/CMSIS/Include/cmsis_gcc.h **** #define __CMSIS_GCC_H
  27:Drivers/CMSIS/Include/cmsis_gcc.h **** 
  28:Drivers/CMSIS/Include/cmsis_gcc.h **** /* ignore some GCC warnings */
  29:Drivers/CMSIS/Include/cmsis_gcc.h **** #pragma GCC diagnostic push
  30:Drivers/CMSIS/Include/cmsis_gcc.h **** #pragma GCC diagnostic ignored "-Wsign-conversion"
  31:Drivers/CMSIS/Include/cmsis_gcc.h **** #pragma GCC diagnostic ignored "-Wconversion"
  32:Drivers/CMSIS/Include/cmsis_gcc.h **** #pragma GCC diagnostic ignored "-Wunused-parameter"
  33:Drivers/CMSIS/Include/cmsis_gcc.h **** 
  34:Drivers/CMSIS/Include/cmsis_gcc.h **** /* Fallback for __has_builtin */
  35:Drivers/CMSIS/Include/cmsis_gcc.h **** #ifndef __has_builtin
  36:Drivers/CMSIS/Include/cmsis_gcc.h ****   #define __has_builtin(x) (0)
  37:Drivers/CMSIS/Include/cmsis_gcc.h **** #endif
  38:Drivers/CMSIS/Include/cmsis_gcc.h **** 
  39:Drivers/CMSIS/Include/cmsis_gcc.h **** /* CMSIS compiler specific defines */
  40:Drivers/CMSIS/Include/cmsis_gcc.h **** #ifndef   __ASM
  41:Drivers/CMSIS/Include/cmsis_gcc.h ****   #define __ASM                                  __asm
  42:Drivers/CMSIS/Include/cmsis_gcc.h **** #endif
  43:Drivers/CMSIS/Include/cmsis_gcc.h **** #ifndef   __INLINE
  44:Drivers/CMSIS/Include/cmsis_gcc.h ****   #define __INLINE                               inline
  45:Drivers/CMSIS/Include/cmsis_gcc.h **** #endif
  46:Drivers/CMSIS/Include/cmsis_gcc.h **** #ifndef   __STATIC_INLINE
  47:Drivers/CMSIS/Include/cmsis_gcc.h ****   #define __STATIC_INLINE                        static inline
  48:Drivers/CMSIS/Include/cmsis_gcc.h **** #endif
  49:Drivers/CMSIS/Include/cmsis_gcc.h **** #ifndef   __STATIC_FORCEINLINE                 
  50:Drivers/CMSIS/Include/cmsis_gcc.h ****   #define __STATIC_FORCEINLINE                   __attribute__((always_inline)) static inline
  51:Drivers/CMSIS/Include/cmsis_gcc.h **** #endif                                           
  52:Drivers/CMSIS/Include/cmsis_gcc.h **** #ifndef   __NO_RETURN
  53:Drivers/CMSIS/Include/cmsis_gcc.h ****   #define __NO_RETURN                            __attribute__((__noreturn__))
  54:Drivers/CMSIS/Include/cmsis_gcc.h **** #endif
  55:Drivers/CMSIS/Include/cmsis_gcc.h **** #ifndef   __USED
  56:Drivers/CMSIS/Include/cmsis_gcc.h ****   #define __USED                                 __attribute__((used))
  57:Drivers/CMSIS/Include/cmsis_gcc.h **** #endif
  58:Drivers/CMSIS/Include/cmsis_gcc.h **** #ifndef   __WEAK
  59:Drivers/CMSIS/Include/cmsis_gcc.h ****   #define __WEAK                                 __attribute__((weak))
  60:Drivers/CMSIS/Include/cmsis_gcc.h **** #endif
  61:Drivers/CMSIS/Include/cmsis_gcc.h **** #ifndef   __PACKED
  62:Drivers/CMSIS/Include/cmsis_gcc.h ****   #define __PACKED                               __attribute__((packed, aligned(1)))
  63:Drivers/CMSIS/Include/cmsis_gcc.h **** #endif
  64:Drivers/CMSIS/Include/cmsis_gcc.h **** #ifndef   __PACKED_STRUCT
  65:Drivers/CMSIS/Include/cmsis_gcc.h ****   #define __PACKED_STRUCT                        struct __attribute__((packed, aligned(1)))
  66:Drivers/CMSIS/Include/cmsis_gcc.h **** #endif
  67:Drivers/CMSIS/Include/cmsis_gcc.h **** #ifndef   __PACKED_UNION
  68:Drivers/CMSIS/Include/cmsis_gcc.h ****   #define __PACKED_UNION                         union __attribute__((packed, aligned(1)))
ARM GAS  /tmp/cchx7lg8.s 			page 22


  69:Drivers/CMSIS/Include/cmsis_gcc.h **** #endif
  70:Drivers/CMSIS/Include/cmsis_gcc.h **** #ifndef   __UNALIGNED_UINT32        /* deprecated */
  71:Drivers/CMSIS/Include/cmsis_gcc.h ****   #pragma GCC diagnostic push
  72:Drivers/CMSIS/Include/cmsis_gcc.h ****   #pragma GCC diagnostic ignored "-Wpacked"
  73:Drivers/CMSIS/Include/cmsis_gcc.h ****   #pragma GCC diagnostic ignored "-Wattributes"
  74:Drivers/CMSIS/Include/cmsis_gcc.h ****   struct __attribute__((packed)) T_UINT32 { uint32_t v; };
  75:Drivers/CMSIS/Include/cmsis_gcc.h ****   #pragma GCC diagnostic pop
  76:Drivers/CMSIS/Include/cmsis_gcc.h ****   #define __UNALIGNED_UINT32(x)                  (((struct T_UINT32 *)(x))->v)
  77:Drivers/CMSIS/Include/cmsis_gcc.h **** #endif
  78:Drivers/CMSIS/Include/cmsis_gcc.h **** #ifndef   __UNALIGNED_UINT16_WRITE
  79:Drivers/CMSIS/Include/cmsis_gcc.h ****   #pragma GCC diagnostic push
  80:Drivers/CMSIS/Include/cmsis_gcc.h ****   #pragma GCC diagnostic ignored "-Wpacked"
  81:Drivers/CMSIS/Include/cmsis_gcc.h ****   #pragma GCC diagnostic ignored "-Wattributes"
  82:Drivers/CMSIS/Include/cmsis_gcc.h ****   __PACKED_STRUCT T_UINT16_WRITE { uint16_t v; };
  83:Drivers/CMSIS/Include/cmsis_gcc.h ****   #pragma GCC diagnostic pop
  84:Drivers/CMSIS/Include/cmsis_gcc.h ****   #define __UNALIGNED_UINT16_WRITE(addr, val)    (void)((((struct T_UINT16_WRITE *)(void *)(addr))-
  85:Drivers/CMSIS/Include/cmsis_gcc.h **** #endif
  86:Drivers/CMSIS/Include/cmsis_gcc.h **** #ifndef   __UNALIGNED_UINT16_READ
  87:Drivers/CMSIS/Include/cmsis_gcc.h ****   #pragma GCC diagnostic push
  88:Drivers/CMSIS/Include/cmsis_gcc.h ****   #pragma GCC diagnostic ignored "-Wpacked"
  89:Drivers/CMSIS/Include/cmsis_gcc.h ****   #pragma GCC diagnostic ignored "-Wattributes"
  90:Drivers/CMSIS/Include/cmsis_gcc.h ****   __PACKED_STRUCT T_UINT16_READ { uint16_t v; };
  91:Drivers/CMSIS/Include/cmsis_gcc.h ****   #pragma GCC diagnostic pop
  92:Drivers/CMSIS/Include/cmsis_gcc.h ****   #define __UNALIGNED_UINT16_READ(addr)          (((const struct T_UINT16_READ *)(const void *)(add
  93:Drivers/CMSIS/Include/cmsis_gcc.h **** #endif
  94:Drivers/CMSIS/Include/cmsis_gcc.h **** #ifndef   __UNALIGNED_UINT32_WRITE
  95:Drivers/CMSIS/Include/cmsis_gcc.h ****   #pragma GCC diagnostic push
  96:Drivers/CMSIS/Include/cmsis_gcc.h ****   #pragma GCC diagnostic ignored "-Wpacked"
  97:Drivers/CMSIS/Include/cmsis_gcc.h ****   #pragma GCC diagnostic ignored "-Wattributes"
  98:Drivers/CMSIS/Include/cmsis_gcc.h ****   __PACKED_STRUCT T_UINT32_WRITE { uint32_t v; };
  99:Drivers/CMSIS/Include/cmsis_gcc.h ****   #pragma GCC diagnostic pop
 100:Drivers/CMSIS/Include/cmsis_gcc.h ****   #define __UNALIGNED_UINT32_WRITE(addr, val)    (void)((((struct T_UINT32_WRITE *)(void *)(addr))-
 101:Drivers/CMSIS/Include/cmsis_gcc.h **** #endif
 102:Drivers/CMSIS/Include/cmsis_gcc.h **** #ifndef   __UNALIGNED_UINT32_READ
 103:Drivers/CMSIS/Include/cmsis_gcc.h ****   #pragma GCC diagnostic push
 104:Drivers/CMSIS/Include/cmsis_gcc.h ****   #pragma GCC diagnostic ignored "-Wpacked"
 105:Drivers/CMSIS/Include/cmsis_gcc.h ****   #pragma GCC diagnostic ignored "-Wattributes"
 106:Drivers/CMSIS/Include/cmsis_gcc.h ****   __PACKED_STRUCT T_UINT32_READ { uint32_t v; };
 107:Drivers/CMSIS/Include/cmsis_gcc.h ****   #pragma GCC diagnostic pop
 108:Drivers/CMSIS/Include/cmsis_gcc.h ****   #define __UNALIGNED_UINT32_READ(addr)          (((const struct T_UINT32_READ *)(const void *)(add
 109:Drivers/CMSIS/Include/cmsis_gcc.h **** #endif
 110:Drivers/CMSIS/Include/cmsis_gcc.h **** #ifndef   __ALIGNED
 111:Drivers/CMSIS/Include/cmsis_gcc.h ****   #define __ALIGNED(x)                           __attribute__((aligned(x)))
 112:Drivers/CMSIS/Include/cmsis_gcc.h **** #endif
 113:Drivers/CMSIS/Include/cmsis_gcc.h **** #ifndef   __RESTRICT
 114:Drivers/CMSIS/Include/cmsis_gcc.h ****   #define __RESTRICT                             __restrict
 115:Drivers/CMSIS/Include/cmsis_gcc.h **** #endif
 116:Drivers/CMSIS/Include/cmsis_gcc.h **** #ifndef   __COMPILER_BARRIER
 117:Drivers/CMSIS/Include/cmsis_gcc.h ****   #define __COMPILER_BARRIER()                   __ASM volatile("":::"memory")
 118:Drivers/CMSIS/Include/cmsis_gcc.h **** #endif
 119:Drivers/CMSIS/Include/cmsis_gcc.h **** 
 120:Drivers/CMSIS/Include/cmsis_gcc.h **** /* #########################  Startup and Lowlevel Init  ######################## */
 121:Drivers/CMSIS/Include/cmsis_gcc.h **** 
 122:Drivers/CMSIS/Include/cmsis_gcc.h **** #ifndef __PROGRAM_START
 123:Drivers/CMSIS/Include/cmsis_gcc.h **** 
 124:Drivers/CMSIS/Include/cmsis_gcc.h **** /**
 125:Drivers/CMSIS/Include/cmsis_gcc.h ****   \brief   Initializes data and bss sections
ARM GAS  /tmp/cchx7lg8.s 			page 23


 126:Drivers/CMSIS/Include/cmsis_gcc.h ****   \details This default implementations initialized all data and additional bss
 127:Drivers/CMSIS/Include/cmsis_gcc.h ****            sections relying on .copy.table and .zero.table specified properly
 128:Drivers/CMSIS/Include/cmsis_gcc.h ****            in the used linker script.
 129:Drivers/CMSIS/Include/cmsis_gcc.h ****   
 130:Drivers/CMSIS/Include/cmsis_gcc.h ****  */
 131:Drivers/CMSIS/Include/cmsis_gcc.h **** __STATIC_FORCEINLINE __NO_RETURN void __cmsis_start(void)
 132:Drivers/CMSIS/Include/cmsis_gcc.h **** {
 133:Drivers/CMSIS/Include/cmsis_gcc.h ****   extern void _start(void) __NO_RETURN;
 134:Drivers/CMSIS/Include/cmsis_gcc.h ****   
 135:Drivers/CMSIS/Include/cmsis_gcc.h ****   typedef struct {
 136:Drivers/CMSIS/Include/cmsis_gcc.h ****     uint32_t const* src;
 137:Drivers/CMSIS/Include/cmsis_gcc.h ****     uint32_t* dest;
 138:Drivers/CMSIS/Include/cmsis_gcc.h ****     uint32_t  wlen;
 139:Drivers/CMSIS/Include/cmsis_gcc.h ****   } __copy_table_t;
 140:Drivers/CMSIS/Include/cmsis_gcc.h ****   
 141:Drivers/CMSIS/Include/cmsis_gcc.h ****   typedef struct {
 142:Drivers/CMSIS/Include/cmsis_gcc.h ****     uint32_t* dest;
 143:Drivers/CMSIS/Include/cmsis_gcc.h ****     uint32_t  wlen;
 144:Drivers/CMSIS/Include/cmsis_gcc.h ****   } __zero_table_t;
 145:Drivers/CMSIS/Include/cmsis_gcc.h ****   
 146:Drivers/CMSIS/Include/cmsis_gcc.h ****   extern const __copy_table_t __copy_table_start__;
 147:Drivers/CMSIS/Include/cmsis_gcc.h ****   extern const __copy_table_t __copy_table_end__;
 148:Drivers/CMSIS/Include/cmsis_gcc.h ****   extern const __zero_table_t __zero_table_start__;
 149:Drivers/CMSIS/Include/cmsis_gcc.h ****   extern const __zero_table_t __zero_table_end__;
 150:Drivers/CMSIS/Include/cmsis_gcc.h **** 
 151:Drivers/CMSIS/Include/cmsis_gcc.h ****   for (__copy_table_t const* pTable = &__copy_table_start__; pTable < &__copy_table_end__; ++pTable
 152:Drivers/CMSIS/Include/cmsis_gcc.h ****     for(uint32_t i=0u; i<pTable->wlen; ++i) {
 153:Drivers/CMSIS/Include/cmsis_gcc.h ****       pTable->dest[i] = pTable->src[i];
 154:Drivers/CMSIS/Include/cmsis_gcc.h ****     }
 155:Drivers/CMSIS/Include/cmsis_gcc.h ****   }
 156:Drivers/CMSIS/Include/cmsis_gcc.h ****  
 157:Drivers/CMSIS/Include/cmsis_gcc.h ****   for (__zero_table_t const* pTable = &__zero_table_start__; pTable < &__zero_table_end__; ++pTable
 158:Drivers/CMSIS/Include/cmsis_gcc.h ****     for(uint32_t i=0u; i<pTable->wlen; ++i) {
 159:Drivers/CMSIS/Include/cmsis_gcc.h ****       pTable->dest[i] = 0u;
 160:Drivers/CMSIS/Include/cmsis_gcc.h ****     }
 161:Drivers/CMSIS/Include/cmsis_gcc.h ****   }
 162:Drivers/CMSIS/Include/cmsis_gcc.h ****  
 163:Drivers/CMSIS/Include/cmsis_gcc.h ****   _start();
 164:Drivers/CMSIS/Include/cmsis_gcc.h **** }
 165:Drivers/CMSIS/Include/cmsis_gcc.h ****   
 166:Drivers/CMSIS/Include/cmsis_gcc.h **** #define __PROGRAM_START           __cmsis_start
 167:Drivers/CMSIS/Include/cmsis_gcc.h **** #endif
 168:Drivers/CMSIS/Include/cmsis_gcc.h **** 
 169:Drivers/CMSIS/Include/cmsis_gcc.h **** #ifndef __INITIAL_SP
 170:Drivers/CMSIS/Include/cmsis_gcc.h **** #define __INITIAL_SP              __StackTop
 171:Drivers/CMSIS/Include/cmsis_gcc.h **** #endif
 172:Drivers/CMSIS/Include/cmsis_gcc.h **** 
 173:Drivers/CMSIS/Include/cmsis_gcc.h **** #ifndef __STACK_LIMIT
 174:Drivers/CMSIS/Include/cmsis_gcc.h **** #define __STACK_LIMIT             __StackLimit
 175:Drivers/CMSIS/Include/cmsis_gcc.h **** #endif
 176:Drivers/CMSIS/Include/cmsis_gcc.h **** 
 177:Drivers/CMSIS/Include/cmsis_gcc.h **** #ifndef __VECTOR_TABLE
 178:Drivers/CMSIS/Include/cmsis_gcc.h **** #define __VECTOR_TABLE            __Vectors
 179:Drivers/CMSIS/Include/cmsis_gcc.h **** #endif
 180:Drivers/CMSIS/Include/cmsis_gcc.h **** 
 181:Drivers/CMSIS/Include/cmsis_gcc.h **** #ifndef __VECTOR_TABLE_ATTRIBUTE
 182:Drivers/CMSIS/Include/cmsis_gcc.h **** #define __VECTOR_TABLE_ATTRIBUTE  __attribute((used, section(".vectors")))
ARM GAS  /tmp/cchx7lg8.s 			page 24


 183:Drivers/CMSIS/Include/cmsis_gcc.h **** #endif
 184:Drivers/CMSIS/Include/cmsis_gcc.h **** 
 185:Drivers/CMSIS/Include/cmsis_gcc.h **** /* ###########################  Core Function Access  ########################### */
 186:Drivers/CMSIS/Include/cmsis_gcc.h **** /** \ingroup  CMSIS_Core_FunctionInterface
 187:Drivers/CMSIS/Include/cmsis_gcc.h ****     \defgroup CMSIS_Core_RegAccFunctions CMSIS Core Register Access Functions
 188:Drivers/CMSIS/Include/cmsis_gcc.h ****   @{
 189:Drivers/CMSIS/Include/cmsis_gcc.h ****  */
 190:Drivers/CMSIS/Include/cmsis_gcc.h **** 
 191:Drivers/CMSIS/Include/cmsis_gcc.h **** /**
 192:Drivers/CMSIS/Include/cmsis_gcc.h ****   \brief   Enable IRQ Interrupts
 193:Drivers/CMSIS/Include/cmsis_gcc.h ****   \details Enables IRQ interrupts by clearing the I-bit in the CPSR.
 194:Drivers/CMSIS/Include/cmsis_gcc.h ****            Can only be executed in Privileged modes.
 195:Drivers/CMSIS/Include/cmsis_gcc.h ****  */
 196:Drivers/CMSIS/Include/cmsis_gcc.h **** __STATIC_FORCEINLINE void __enable_irq(void)
 197:Drivers/CMSIS/Include/cmsis_gcc.h **** {
 198:Drivers/CMSIS/Include/cmsis_gcc.h ****   __ASM volatile ("cpsie i" : : : "memory");
 199:Drivers/CMSIS/Include/cmsis_gcc.h **** }
 200:Drivers/CMSIS/Include/cmsis_gcc.h **** 
 201:Drivers/CMSIS/Include/cmsis_gcc.h **** 
 202:Drivers/CMSIS/Include/cmsis_gcc.h **** /**
 203:Drivers/CMSIS/Include/cmsis_gcc.h ****   \brief   Disable IRQ Interrupts
 204:Drivers/CMSIS/Include/cmsis_gcc.h ****   \details Disables IRQ interrupts by setting the I-bit in the CPSR.
 205:Drivers/CMSIS/Include/cmsis_gcc.h ****            Can only be executed in Privileged modes.
 206:Drivers/CMSIS/Include/cmsis_gcc.h ****  */
 207:Drivers/CMSIS/Include/cmsis_gcc.h **** __STATIC_FORCEINLINE void __disable_irq(void)
 208:Drivers/CMSIS/Include/cmsis_gcc.h **** {
 209:Drivers/CMSIS/Include/cmsis_gcc.h ****   __ASM volatile ("cpsid i" : : : "memory");
 210:Drivers/CMSIS/Include/cmsis_gcc.h **** }
 211:Drivers/CMSIS/Include/cmsis_gcc.h **** 
 212:Drivers/CMSIS/Include/cmsis_gcc.h **** 
 213:Drivers/CMSIS/Include/cmsis_gcc.h **** /**
 214:Drivers/CMSIS/Include/cmsis_gcc.h ****   \brief   Get Control Register
 215:Drivers/CMSIS/Include/cmsis_gcc.h ****   \details Returns the content of the Control Register.
 216:Drivers/CMSIS/Include/cmsis_gcc.h ****   \return               Control Register value
 217:Drivers/CMSIS/Include/cmsis_gcc.h ****  */
 218:Drivers/CMSIS/Include/cmsis_gcc.h **** __STATIC_FORCEINLINE uint32_t __get_CONTROL(void)
 219:Drivers/CMSIS/Include/cmsis_gcc.h **** {
 220:Drivers/CMSIS/Include/cmsis_gcc.h ****   uint32_t result;
 221:Drivers/CMSIS/Include/cmsis_gcc.h **** 
 222:Drivers/CMSIS/Include/cmsis_gcc.h ****   __ASM volatile ("MRS %0, control" : "=r" (result) );
 223:Drivers/CMSIS/Include/cmsis_gcc.h ****   return(result);
 224:Drivers/CMSIS/Include/cmsis_gcc.h **** }
 225:Drivers/CMSIS/Include/cmsis_gcc.h **** 
 226:Drivers/CMSIS/Include/cmsis_gcc.h **** 
 227:Drivers/CMSIS/Include/cmsis_gcc.h **** #if (defined (__ARM_FEATURE_CMSE ) && (__ARM_FEATURE_CMSE == 3))
 228:Drivers/CMSIS/Include/cmsis_gcc.h **** /**
 229:Drivers/CMSIS/Include/cmsis_gcc.h ****   \brief   Get Control Register (non-secure)
 230:Drivers/CMSIS/Include/cmsis_gcc.h ****   \details Returns the content of the non-secure Control Register when in secure mode.
 231:Drivers/CMSIS/Include/cmsis_gcc.h ****   \return               non-secure Control Register value
 232:Drivers/CMSIS/Include/cmsis_gcc.h ****  */
 233:Drivers/CMSIS/Include/cmsis_gcc.h **** __STATIC_FORCEINLINE uint32_t __TZ_get_CONTROL_NS(void)
 234:Drivers/CMSIS/Include/cmsis_gcc.h **** {
 235:Drivers/CMSIS/Include/cmsis_gcc.h ****   uint32_t result;
 236:Drivers/CMSIS/Include/cmsis_gcc.h **** 
 237:Drivers/CMSIS/Include/cmsis_gcc.h ****   __ASM volatile ("MRS %0, control_ns" : "=r" (result) );
 238:Drivers/CMSIS/Include/cmsis_gcc.h ****   return(result);
 239:Drivers/CMSIS/Include/cmsis_gcc.h **** }
ARM GAS  /tmp/cchx7lg8.s 			page 25


 240:Drivers/CMSIS/Include/cmsis_gcc.h **** #endif
 241:Drivers/CMSIS/Include/cmsis_gcc.h **** 
 242:Drivers/CMSIS/Include/cmsis_gcc.h **** 
 243:Drivers/CMSIS/Include/cmsis_gcc.h **** /**
 244:Drivers/CMSIS/Include/cmsis_gcc.h ****   \brief   Set Control Register
 245:Drivers/CMSIS/Include/cmsis_gcc.h ****   \details Writes the given value to the Control Register.
 246:Drivers/CMSIS/Include/cmsis_gcc.h ****   \param [in]    control  Control Register value to set
 247:Drivers/CMSIS/Include/cmsis_gcc.h ****  */
 248:Drivers/CMSIS/Include/cmsis_gcc.h **** __STATIC_FORCEINLINE void __set_CONTROL(uint32_t control)
 249:Drivers/CMSIS/Include/cmsis_gcc.h **** {
 250:Drivers/CMSIS/Include/cmsis_gcc.h ****   __ASM volatile ("MSR control, %0" : : "r" (control) : "memory");
 251:Drivers/CMSIS/Include/cmsis_gcc.h **** }
 252:Drivers/CMSIS/Include/cmsis_gcc.h **** 
 253:Drivers/CMSIS/Include/cmsis_gcc.h **** 
 254:Drivers/CMSIS/Include/cmsis_gcc.h **** #if (defined (__ARM_FEATURE_CMSE ) && (__ARM_FEATURE_CMSE == 3))
 255:Drivers/CMSIS/Include/cmsis_gcc.h **** /**
 256:Drivers/CMSIS/Include/cmsis_gcc.h ****   \brief   Set Control Register (non-secure)
 257:Drivers/CMSIS/Include/cmsis_gcc.h ****   \details Writes the given value to the non-secure Control Register when in secure state.
 258:Drivers/CMSIS/Include/cmsis_gcc.h ****   \param [in]    control  Control Register value to set
 259:Drivers/CMSIS/Include/cmsis_gcc.h ****  */
 260:Drivers/CMSIS/Include/cmsis_gcc.h **** __STATIC_FORCEINLINE void __TZ_set_CONTROL_NS(uint32_t control)
 261:Drivers/CMSIS/Include/cmsis_gcc.h **** {
 262:Drivers/CMSIS/Include/cmsis_gcc.h ****   __ASM volatile ("MSR control_ns, %0" : : "r" (control) : "memory");
 263:Drivers/CMSIS/Include/cmsis_gcc.h **** }
 264:Drivers/CMSIS/Include/cmsis_gcc.h **** #endif
 265:Drivers/CMSIS/Include/cmsis_gcc.h **** 
 266:Drivers/CMSIS/Include/cmsis_gcc.h **** 
 267:Drivers/CMSIS/Include/cmsis_gcc.h **** /**
 268:Drivers/CMSIS/Include/cmsis_gcc.h ****   \brief   Get IPSR Register
 269:Drivers/CMSIS/Include/cmsis_gcc.h ****   \details Returns the content of the IPSR Register.
 270:Drivers/CMSIS/Include/cmsis_gcc.h ****   \return               IPSR Register value
 271:Drivers/CMSIS/Include/cmsis_gcc.h ****  */
 272:Drivers/CMSIS/Include/cmsis_gcc.h **** __STATIC_FORCEINLINE uint32_t __get_IPSR(void)
 273:Drivers/CMSIS/Include/cmsis_gcc.h **** {
 274:Drivers/CMSIS/Include/cmsis_gcc.h ****   uint32_t result;
 275:Drivers/CMSIS/Include/cmsis_gcc.h **** 
 276:Drivers/CMSIS/Include/cmsis_gcc.h ****   __ASM volatile ("MRS %0, ipsr" : "=r" (result) );
 277:Drivers/CMSIS/Include/cmsis_gcc.h ****   return(result);
 278:Drivers/CMSIS/Include/cmsis_gcc.h **** }
 279:Drivers/CMSIS/Include/cmsis_gcc.h **** 
 280:Drivers/CMSIS/Include/cmsis_gcc.h **** 
 281:Drivers/CMSIS/Include/cmsis_gcc.h **** /**
 282:Drivers/CMSIS/Include/cmsis_gcc.h ****   \brief   Get APSR Register
 283:Drivers/CMSIS/Include/cmsis_gcc.h ****   \details Returns the content of the APSR Register.
 284:Drivers/CMSIS/Include/cmsis_gcc.h ****   \return               APSR Register value
 285:Drivers/CMSIS/Include/cmsis_gcc.h ****  */
 286:Drivers/CMSIS/Include/cmsis_gcc.h **** __STATIC_FORCEINLINE uint32_t __get_APSR(void)
 287:Drivers/CMSIS/Include/cmsis_gcc.h **** {
 288:Drivers/CMSIS/Include/cmsis_gcc.h ****   uint32_t result;
 289:Drivers/CMSIS/Include/cmsis_gcc.h **** 
 290:Drivers/CMSIS/Include/cmsis_gcc.h ****   __ASM volatile ("MRS %0, apsr" : "=r" (result) );
 291:Drivers/CMSIS/Include/cmsis_gcc.h ****   return(result);
 292:Drivers/CMSIS/Include/cmsis_gcc.h **** }
 293:Drivers/CMSIS/Include/cmsis_gcc.h **** 
 294:Drivers/CMSIS/Include/cmsis_gcc.h **** 
 295:Drivers/CMSIS/Include/cmsis_gcc.h **** /**
 296:Drivers/CMSIS/Include/cmsis_gcc.h ****   \brief   Get xPSR Register
ARM GAS  /tmp/cchx7lg8.s 			page 26


 297:Drivers/CMSIS/Include/cmsis_gcc.h ****   \details Returns the content of the xPSR Register.
 298:Drivers/CMSIS/Include/cmsis_gcc.h ****   \return               xPSR Register value
 299:Drivers/CMSIS/Include/cmsis_gcc.h ****  */
 300:Drivers/CMSIS/Include/cmsis_gcc.h **** __STATIC_FORCEINLINE uint32_t __get_xPSR(void)
 301:Drivers/CMSIS/Include/cmsis_gcc.h **** {
 302:Drivers/CMSIS/Include/cmsis_gcc.h ****   uint32_t result;
 303:Drivers/CMSIS/Include/cmsis_gcc.h **** 
 304:Drivers/CMSIS/Include/cmsis_gcc.h ****   __ASM volatile ("MRS %0, xpsr" : "=r" (result) );
 305:Drivers/CMSIS/Include/cmsis_gcc.h ****   return(result);
 306:Drivers/CMSIS/Include/cmsis_gcc.h **** }
 307:Drivers/CMSIS/Include/cmsis_gcc.h **** 
 308:Drivers/CMSIS/Include/cmsis_gcc.h **** 
 309:Drivers/CMSIS/Include/cmsis_gcc.h **** /**
 310:Drivers/CMSIS/Include/cmsis_gcc.h ****   \brief   Get Process Stack Pointer
 311:Drivers/CMSIS/Include/cmsis_gcc.h ****   \details Returns the current value of the Process Stack Pointer (PSP).
 312:Drivers/CMSIS/Include/cmsis_gcc.h ****   \return               PSP Register value
 313:Drivers/CMSIS/Include/cmsis_gcc.h ****  */
 314:Drivers/CMSIS/Include/cmsis_gcc.h **** __STATIC_FORCEINLINE uint32_t __get_PSP(void)
 315:Drivers/CMSIS/Include/cmsis_gcc.h **** {
 316:Drivers/CMSIS/Include/cmsis_gcc.h ****   uint32_t result;
 317:Drivers/CMSIS/Include/cmsis_gcc.h **** 
 318:Drivers/CMSIS/Include/cmsis_gcc.h ****   __ASM volatile ("MRS %0, psp"  : "=r" (result) );
 319:Drivers/CMSIS/Include/cmsis_gcc.h ****   return(result);
 320:Drivers/CMSIS/Include/cmsis_gcc.h **** }
 321:Drivers/CMSIS/Include/cmsis_gcc.h **** 
 322:Drivers/CMSIS/Include/cmsis_gcc.h **** 
 323:Drivers/CMSIS/Include/cmsis_gcc.h **** #if (defined (__ARM_FEATURE_CMSE ) && (__ARM_FEATURE_CMSE == 3))
 324:Drivers/CMSIS/Include/cmsis_gcc.h **** /**
 325:Drivers/CMSIS/Include/cmsis_gcc.h ****   \brief   Get Process Stack Pointer (non-secure)
 326:Drivers/CMSIS/Include/cmsis_gcc.h ****   \details Returns the current value of the non-secure Process Stack Pointer (PSP) when in secure s
 327:Drivers/CMSIS/Include/cmsis_gcc.h ****   \return               PSP Register value
 328:Drivers/CMSIS/Include/cmsis_gcc.h ****  */
 329:Drivers/CMSIS/Include/cmsis_gcc.h **** __STATIC_FORCEINLINE uint32_t __TZ_get_PSP_NS(void)
 330:Drivers/CMSIS/Include/cmsis_gcc.h **** {
 331:Drivers/CMSIS/Include/cmsis_gcc.h ****   uint32_t result;
 332:Drivers/CMSIS/Include/cmsis_gcc.h **** 
 333:Drivers/CMSIS/Include/cmsis_gcc.h ****   __ASM volatile ("MRS %0, psp_ns"  : "=r" (result) );
 334:Drivers/CMSIS/Include/cmsis_gcc.h ****   return(result);
 335:Drivers/CMSIS/Include/cmsis_gcc.h **** }
 336:Drivers/CMSIS/Include/cmsis_gcc.h **** #endif
 337:Drivers/CMSIS/Include/cmsis_gcc.h **** 
 338:Drivers/CMSIS/Include/cmsis_gcc.h **** 
 339:Drivers/CMSIS/Include/cmsis_gcc.h **** /**
 340:Drivers/CMSIS/Include/cmsis_gcc.h ****   \brief   Set Process Stack Pointer
 341:Drivers/CMSIS/Include/cmsis_gcc.h ****   \details Assigns the given value to the Process Stack Pointer (PSP).
 342:Drivers/CMSIS/Include/cmsis_gcc.h ****   \param [in]    topOfProcStack  Process Stack Pointer value to set
 343:Drivers/CMSIS/Include/cmsis_gcc.h ****  */
 344:Drivers/CMSIS/Include/cmsis_gcc.h **** __STATIC_FORCEINLINE void __set_PSP(uint32_t topOfProcStack)
 345:Drivers/CMSIS/Include/cmsis_gcc.h **** {
 346:Drivers/CMSIS/Include/cmsis_gcc.h ****   __ASM volatile ("MSR psp, %0" : : "r" (topOfProcStack) : );
 347:Drivers/CMSIS/Include/cmsis_gcc.h **** }
 348:Drivers/CMSIS/Include/cmsis_gcc.h **** 
 349:Drivers/CMSIS/Include/cmsis_gcc.h **** 
 350:Drivers/CMSIS/Include/cmsis_gcc.h **** #if (defined (__ARM_FEATURE_CMSE ) && (__ARM_FEATURE_CMSE == 3))
 351:Drivers/CMSIS/Include/cmsis_gcc.h **** /**
 352:Drivers/CMSIS/Include/cmsis_gcc.h ****   \brief   Set Process Stack Pointer (non-secure)
 353:Drivers/CMSIS/Include/cmsis_gcc.h ****   \details Assigns the given value to the non-secure Process Stack Pointer (PSP) when in secure sta
ARM GAS  /tmp/cchx7lg8.s 			page 27


 354:Drivers/CMSIS/Include/cmsis_gcc.h ****   \param [in]    topOfProcStack  Process Stack Pointer value to set
 355:Drivers/CMSIS/Include/cmsis_gcc.h ****  */
 356:Drivers/CMSIS/Include/cmsis_gcc.h **** __STATIC_FORCEINLINE void __TZ_set_PSP_NS(uint32_t topOfProcStack)
 357:Drivers/CMSIS/Include/cmsis_gcc.h **** {
 358:Drivers/CMSIS/Include/cmsis_gcc.h ****   __ASM volatile ("MSR psp_ns, %0" : : "r" (topOfProcStack) : );
 359:Drivers/CMSIS/Include/cmsis_gcc.h **** }
 360:Drivers/CMSIS/Include/cmsis_gcc.h **** #endif
 361:Drivers/CMSIS/Include/cmsis_gcc.h **** 
 362:Drivers/CMSIS/Include/cmsis_gcc.h **** 
 363:Drivers/CMSIS/Include/cmsis_gcc.h **** /**
 364:Drivers/CMSIS/Include/cmsis_gcc.h ****   \brief   Get Main Stack Pointer
 365:Drivers/CMSIS/Include/cmsis_gcc.h ****   \details Returns the current value of the Main Stack Pointer (MSP).
 366:Drivers/CMSIS/Include/cmsis_gcc.h ****   \return               MSP Register value
 367:Drivers/CMSIS/Include/cmsis_gcc.h ****  */
 368:Drivers/CMSIS/Include/cmsis_gcc.h **** __STATIC_FORCEINLINE uint32_t __get_MSP(void)
 369:Drivers/CMSIS/Include/cmsis_gcc.h **** {
 370:Drivers/CMSIS/Include/cmsis_gcc.h ****   uint32_t result;
 371:Drivers/CMSIS/Include/cmsis_gcc.h **** 
 372:Drivers/CMSIS/Include/cmsis_gcc.h ****   __ASM volatile ("MRS %0, msp" : "=r" (result) );
 373:Drivers/CMSIS/Include/cmsis_gcc.h ****   return(result);
 374:Drivers/CMSIS/Include/cmsis_gcc.h **** }
 375:Drivers/CMSIS/Include/cmsis_gcc.h **** 
 376:Drivers/CMSIS/Include/cmsis_gcc.h **** 
 377:Drivers/CMSIS/Include/cmsis_gcc.h **** #if (defined (__ARM_FEATURE_CMSE ) && (__ARM_FEATURE_CMSE == 3))
 378:Drivers/CMSIS/Include/cmsis_gcc.h **** /**
 379:Drivers/CMSIS/Include/cmsis_gcc.h ****   \brief   Get Main Stack Pointer (non-secure)
 380:Drivers/CMSIS/Include/cmsis_gcc.h ****   \details Returns the current value of the non-secure Main Stack Pointer (MSP) when in secure stat
 381:Drivers/CMSIS/Include/cmsis_gcc.h ****   \return               MSP Register value
 382:Drivers/CMSIS/Include/cmsis_gcc.h ****  */
 383:Drivers/CMSIS/Include/cmsis_gcc.h **** __STATIC_FORCEINLINE uint32_t __TZ_get_MSP_NS(void)
 384:Drivers/CMSIS/Include/cmsis_gcc.h **** {
 385:Drivers/CMSIS/Include/cmsis_gcc.h ****   uint32_t result;
 386:Drivers/CMSIS/Include/cmsis_gcc.h **** 
 387:Drivers/CMSIS/Include/cmsis_gcc.h ****   __ASM volatile ("MRS %0, msp_ns" : "=r" (result) );
 388:Drivers/CMSIS/Include/cmsis_gcc.h ****   return(result);
 389:Drivers/CMSIS/Include/cmsis_gcc.h **** }
 390:Drivers/CMSIS/Include/cmsis_gcc.h **** #endif
 391:Drivers/CMSIS/Include/cmsis_gcc.h **** 
 392:Drivers/CMSIS/Include/cmsis_gcc.h **** 
 393:Drivers/CMSIS/Include/cmsis_gcc.h **** /**
 394:Drivers/CMSIS/Include/cmsis_gcc.h ****   \brief   Set Main Stack Pointer
 395:Drivers/CMSIS/Include/cmsis_gcc.h ****   \details Assigns the given value to the Main Stack Pointer (MSP).
 396:Drivers/CMSIS/Include/cmsis_gcc.h ****   \param [in]    topOfMainStack  Main Stack Pointer value to set
 397:Drivers/CMSIS/Include/cmsis_gcc.h ****  */
 398:Drivers/CMSIS/Include/cmsis_gcc.h **** __STATIC_FORCEINLINE void __set_MSP(uint32_t topOfMainStack)
 399:Drivers/CMSIS/Include/cmsis_gcc.h **** {
 400:Drivers/CMSIS/Include/cmsis_gcc.h ****   __ASM volatile ("MSR msp, %0" : : "r" (topOfMainStack) : );
 401:Drivers/CMSIS/Include/cmsis_gcc.h **** }
 402:Drivers/CMSIS/Include/cmsis_gcc.h **** 
 403:Drivers/CMSIS/Include/cmsis_gcc.h **** 
 404:Drivers/CMSIS/Include/cmsis_gcc.h **** #if (defined (__ARM_FEATURE_CMSE ) && (__ARM_FEATURE_CMSE == 3))
 405:Drivers/CMSIS/Include/cmsis_gcc.h **** /**
 406:Drivers/CMSIS/Include/cmsis_gcc.h ****   \brief   Set Main Stack Pointer (non-secure)
 407:Drivers/CMSIS/Include/cmsis_gcc.h ****   \details Assigns the given value to the non-secure Main Stack Pointer (MSP) when in secure state.
 408:Drivers/CMSIS/Include/cmsis_gcc.h ****   \param [in]    topOfMainStack  Main Stack Pointer value to set
 409:Drivers/CMSIS/Include/cmsis_gcc.h ****  */
 410:Drivers/CMSIS/Include/cmsis_gcc.h **** __STATIC_FORCEINLINE void __TZ_set_MSP_NS(uint32_t topOfMainStack)
ARM GAS  /tmp/cchx7lg8.s 			page 28


 411:Drivers/CMSIS/Include/cmsis_gcc.h **** {
 412:Drivers/CMSIS/Include/cmsis_gcc.h ****   __ASM volatile ("MSR msp_ns, %0" : : "r" (topOfMainStack) : );
 413:Drivers/CMSIS/Include/cmsis_gcc.h **** }
 414:Drivers/CMSIS/Include/cmsis_gcc.h **** #endif
 415:Drivers/CMSIS/Include/cmsis_gcc.h **** 
 416:Drivers/CMSIS/Include/cmsis_gcc.h **** 
 417:Drivers/CMSIS/Include/cmsis_gcc.h **** #if (defined (__ARM_FEATURE_CMSE ) && (__ARM_FEATURE_CMSE == 3))
 418:Drivers/CMSIS/Include/cmsis_gcc.h **** /**
 419:Drivers/CMSIS/Include/cmsis_gcc.h ****   \brief   Get Stack Pointer (non-secure)
 420:Drivers/CMSIS/Include/cmsis_gcc.h ****   \details Returns the current value of the non-secure Stack Pointer (SP) when in secure state.
 421:Drivers/CMSIS/Include/cmsis_gcc.h ****   \return               SP Register value
 422:Drivers/CMSIS/Include/cmsis_gcc.h ****  */
 423:Drivers/CMSIS/Include/cmsis_gcc.h **** __STATIC_FORCEINLINE uint32_t __TZ_get_SP_NS(void)
 424:Drivers/CMSIS/Include/cmsis_gcc.h **** {
 425:Drivers/CMSIS/Include/cmsis_gcc.h ****   uint32_t result;
 426:Drivers/CMSIS/Include/cmsis_gcc.h **** 
 427:Drivers/CMSIS/Include/cmsis_gcc.h ****   __ASM volatile ("MRS %0, sp_ns" : "=r" (result) );
 428:Drivers/CMSIS/Include/cmsis_gcc.h ****   return(result);
 429:Drivers/CMSIS/Include/cmsis_gcc.h **** }
 430:Drivers/CMSIS/Include/cmsis_gcc.h **** 
 431:Drivers/CMSIS/Include/cmsis_gcc.h **** 
 432:Drivers/CMSIS/Include/cmsis_gcc.h **** /**
 433:Drivers/CMSIS/Include/cmsis_gcc.h ****   \brief   Set Stack Pointer (non-secure)
 434:Drivers/CMSIS/Include/cmsis_gcc.h ****   \details Assigns the given value to the non-secure Stack Pointer (SP) when in secure state.
 435:Drivers/CMSIS/Include/cmsis_gcc.h ****   \param [in]    topOfStack  Stack Pointer value to set
 436:Drivers/CMSIS/Include/cmsis_gcc.h ****  */
 437:Drivers/CMSIS/Include/cmsis_gcc.h **** __STATIC_FORCEINLINE void __TZ_set_SP_NS(uint32_t topOfStack)
 438:Drivers/CMSIS/Include/cmsis_gcc.h **** {
 439:Drivers/CMSIS/Include/cmsis_gcc.h ****   __ASM volatile ("MSR sp_ns, %0" : : "r" (topOfStack) : );
 440:Drivers/CMSIS/Include/cmsis_gcc.h **** }
 441:Drivers/CMSIS/Include/cmsis_gcc.h **** #endif
 442:Drivers/CMSIS/Include/cmsis_gcc.h **** 
 443:Drivers/CMSIS/Include/cmsis_gcc.h **** 
 444:Drivers/CMSIS/Include/cmsis_gcc.h **** /**
 445:Drivers/CMSIS/Include/cmsis_gcc.h ****   \brief   Get Priority Mask
 446:Drivers/CMSIS/Include/cmsis_gcc.h ****   \details Returns the current state of the priority mask bit from the Priority Mask Register.
 447:Drivers/CMSIS/Include/cmsis_gcc.h ****   \return               Priority Mask value
 448:Drivers/CMSIS/Include/cmsis_gcc.h ****  */
 449:Drivers/CMSIS/Include/cmsis_gcc.h **** __STATIC_FORCEINLINE uint32_t __get_PRIMASK(void)
 450:Drivers/CMSIS/Include/cmsis_gcc.h **** {
 451:Drivers/CMSIS/Include/cmsis_gcc.h ****   uint32_t result;
 452:Drivers/CMSIS/Include/cmsis_gcc.h **** 
 453:Drivers/CMSIS/Include/cmsis_gcc.h ****   __ASM volatile ("MRS %0, primask" : "=r" (result) :: "memory");
 454:Drivers/CMSIS/Include/cmsis_gcc.h ****   return(result);
 455:Drivers/CMSIS/Include/cmsis_gcc.h **** }
 456:Drivers/CMSIS/Include/cmsis_gcc.h **** 
 457:Drivers/CMSIS/Include/cmsis_gcc.h **** 
 458:Drivers/CMSIS/Include/cmsis_gcc.h **** #if (defined (__ARM_FEATURE_CMSE ) && (__ARM_FEATURE_CMSE == 3))
 459:Drivers/CMSIS/Include/cmsis_gcc.h **** /**
 460:Drivers/CMSIS/Include/cmsis_gcc.h ****   \brief   Get Priority Mask (non-secure)
 461:Drivers/CMSIS/Include/cmsis_gcc.h ****   \details Returns the current state of the non-secure priority mask bit from the Priority Mask Reg
 462:Drivers/CMSIS/Include/cmsis_gcc.h ****   \return               Priority Mask value
 463:Drivers/CMSIS/Include/cmsis_gcc.h ****  */
 464:Drivers/CMSIS/Include/cmsis_gcc.h **** __STATIC_FORCEINLINE uint32_t __TZ_get_PRIMASK_NS(void)
 465:Drivers/CMSIS/Include/cmsis_gcc.h **** {
 466:Drivers/CMSIS/Include/cmsis_gcc.h ****   uint32_t result;
 467:Drivers/CMSIS/Include/cmsis_gcc.h **** 
ARM GAS  /tmp/cchx7lg8.s 			page 29


 468:Drivers/CMSIS/Include/cmsis_gcc.h ****   __ASM volatile ("MRS %0, primask_ns" : "=r" (result) :: "memory");
 469:Drivers/CMSIS/Include/cmsis_gcc.h ****   return(result);
 470:Drivers/CMSIS/Include/cmsis_gcc.h **** }
 471:Drivers/CMSIS/Include/cmsis_gcc.h **** #endif
 472:Drivers/CMSIS/Include/cmsis_gcc.h **** 
 473:Drivers/CMSIS/Include/cmsis_gcc.h **** 
 474:Drivers/CMSIS/Include/cmsis_gcc.h **** /**
 475:Drivers/CMSIS/Include/cmsis_gcc.h ****   \brief   Set Priority Mask
 476:Drivers/CMSIS/Include/cmsis_gcc.h ****   \details Assigns the given value to the Priority Mask Register.
 477:Drivers/CMSIS/Include/cmsis_gcc.h ****   \param [in]    priMask  Priority Mask
 478:Drivers/CMSIS/Include/cmsis_gcc.h ****  */
 479:Drivers/CMSIS/Include/cmsis_gcc.h **** __STATIC_FORCEINLINE void __set_PRIMASK(uint32_t priMask)
 480:Drivers/CMSIS/Include/cmsis_gcc.h **** {
 481:Drivers/CMSIS/Include/cmsis_gcc.h ****   __ASM volatile ("MSR primask, %0" : : "r" (priMask) : "memory");
 482:Drivers/CMSIS/Include/cmsis_gcc.h **** }
 483:Drivers/CMSIS/Include/cmsis_gcc.h **** 
 484:Drivers/CMSIS/Include/cmsis_gcc.h **** 
 485:Drivers/CMSIS/Include/cmsis_gcc.h **** #if (defined (__ARM_FEATURE_CMSE ) && (__ARM_FEATURE_CMSE == 3))
 486:Drivers/CMSIS/Include/cmsis_gcc.h **** /**
 487:Drivers/CMSIS/Include/cmsis_gcc.h ****   \brief   Set Priority Mask (non-secure)
 488:Drivers/CMSIS/Include/cmsis_gcc.h ****   \details Assigns the given value to the non-secure Priority Mask Register when in secure state.
 489:Drivers/CMSIS/Include/cmsis_gcc.h ****   \param [in]    priMask  Priority Mask
 490:Drivers/CMSIS/Include/cmsis_gcc.h ****  */
 491:Drivers/CMSIS/Include/cmsis_gcc.h **** __STATIC_FORCEINLINE void __TZ_set_PRIMASK_NS(uint32_t priMask)
 492:Drivers/CMSIS/Include/cmsis_gcc.h **** {
 493:Drivers/CMSIS/Include/cmsis_gcc.h ****   __ASM volatile ("MSR primask_ns, %0" : : "r" (priMask) : "memory");
 494:Drivers/CMSIS/Include/cmsis_gcc.h **** }
 495:Drivers/CMSIS/Include/cmsis_gcc.h **** #endif
 496:Drivers/CMSIS/Include/cmsis_gcc.h **** 
 497:Drivers/CMSIS/Include/cmsis_gcc.h **** 
 498:Drivers/CMSIS/Include/cmsis_gcc.h **** #if ((defined (__ARM_ARCH_7M__      ) && (__ARM_ARCH_7M__      == 1)) || \
 499:Drivers/CMSIS/Include/cmsis_gcc.h ****      (defined (__ARM_ARCH_7EM__     ) && (__ARM_ARCH_7EM__     == 1)) || \
 500:Drivers/CMSIS/Include/cmsis_gcc.h ****      (defined (__ARM_ARCH_8M_MAIN__ ) && (__ARM_ARCH_8M_MAIN__ == 1))    )
 501:Drivers/CMSIS/Include/cmsis_gcc.h **** /**
 502:Drivers/CMSIS/Include/cmsis_gcc.h ****   \brief   Enable FIQ
 503:Drivers/CMSIS/Include/cmsis_gcc.h ****   \details Enables FIQ interrupts by clearing the F-bit in the CPSR.
 504:Drivers/CMSIS/Include/cmsis_gcc.h ****            Can only be executed in Privileged modes.
 505:Drivers/CMSIS/Include/cmsis_gcc.h ****  */
 506:Drivers/CMSIS/Include/cmsis_gcc.h **** __STATIC_FORCEINLINE void __enable_fault_irq(void)
 507:Drivers/CMSIS/Include/cmsis_gcc.h **** {
 508:Drivers/CMSIS/Include/cmsis_gcc.h ****   __ASM volatile ("cpsie f" : : : "memory");
 509:Drivers/CMSIS/Include/cmsis_gcc.h **** }
 510:Drivers/CMSIS/Include/cmsis_gcc.h **** 
 511:Drivers/CMSIS/Include/cmsis_gcc.h **** 
 512:Drivers/CMSIS/Include/cmsis_gcc.h **** /**
 513:Drivers/CMSIS/Include/cmsis_gcc.h ****   \brief   Disable FIQ
 514:Drivers/CMSIS/Include/cmsis_gcc.h ****   \details Disables FIQ interrupts by setting the F-bit in the CPSR.
 515:Drivers/CMSIS/Include/cmsis_gcc.h ****            Can only be executed in Privileged modes.
 516:Drivers/CMSIS/Include/cmsis_gcc.h ****  */
 517:Drivers/CMSIS/Include/cmsis_gcc.h **** __STATIC_FORCEINLINE void __disable_fault_irq(void)
 518:Drivers/CMSIS/Include/cmsis_gcc.h **** {
 519:Drivers/CMSIS/Include/cmsis_gcc.h ****   __ASM volatile ("cpsid f" : : : "memory");
 520:Drivers/CMSIS/Include/cmsis_gcc.h **** }
 521:Drivers/CMSIS/Include/cmsis_gcc.h **** 
 522:Drivers/CMSIS/Include/cmsis_gcc.h **** 
 523:Drivers/CMSIS/Include/cmsis_gcc.h **** /**
 524:Drivers/CMSIS/Include/cmsis_gcc.h ****   \brief   Get Base Priority
ARM GAS  /tmp/cchx7lg8.s 			page 30


 525:Drivers/CMSIS/Include/cmsis_gcc.h ****   \details Returns the current value of the Base Priority register.
 526:Drivers/CMSIS/Include/cmsis_gcc.h ****   \return               Base Priority register value
 527:Drivers/CMSIS/Include/cmsis_gcc.h ****  */
 528:Drivers/CMSIS/Include/cmsis_gcc.h **** __STATIC_FORCEINLINE uint32_t __get_BASEPRI(void)
 529:Drivers/CMSIS/Include/cmsis_gcc.h **** {
 530:Drivers/CMSIS/Include/cmsis_gcc.h ****   uint32_t result;
 531:Drivers/CMSIS/Include/cmsis_gcc.h **** 
 532:Drivers/CMSIS/Include/cmsis_gcc.h ****   __ASM volatile ("MRS %0, basepri" : "=r" (result) );
 533:Drivers/CMSIS/Include/cmsis_gcc.h ****   return(result);
 534:Drivers/CMSIS/Include/cmsis_gcc.h **** }
 535:Drivers/CMSIS/Include/cmsis_gcc.h **** 
 536:Drivers/CMSIS/Include/cmsis_gcc.h **** 
 537:Drivers/CMSIS/Include/cmsis_gcc.h **** #if (defined (__ARM_FEATURE_CMSE ) && (__ARM_FEATURE_CMSE == 3))
 538:Drivers/CMSIS/Include/cmsis_gcc.h **** /**
 539:Drivers/CMSIS/Include/cmsis_gcc.h ****   \brief   Get Base Priority (non-secure)
 540:Drivers/CMSIS/Include/cmsis_gcc.h ****   \details Returns the current value of the non-secure Base Priority register when in secure state.
 541:Drivers/CMSIS/Include/cmsis_gcc.h ****   \return               Base Priority register value
 542:Drivers/CMSIS/Include/cmsis_gcc.h ****  */
 543:Drivers/CMSIS/Include/cmsis_gcc.h **** __STATIC_FORCEINLINE uint32_t __TZ_get_BASEPRI_NS(void)
 544:Drivers/CMSIS/Include/cmsis_gcc.h **** {
 545:Drivers/CMSIS/Include/cmsis_gcc.h ****   uint32_t result;
 546:Drivers/CMSIS/Include/cmsis_gcc.h **** 
 547:Drivers/CMSIS/Include/cmsis_gcc.h ****   __ASM volatile ("MRS %0, basepri_ns" : "=r" (result) );
 548:Drivers/CMSIS/Include/cmsis_gcc.h ****   return(result);
 549:Drivers/CMSIS/Include/cmsis_gcc.h **** }
 550:Drivers/CMSIS/Include/cmsis_gcc.h **** #endif
 551:Drivers/CMSIS/Include/cmsis_gcc.h **** 
 552:Drivers/CMSIS/Include/cmsis_gcc.h **** 
 553:Drivers/CMSIS/Include/cmsis_gcc.h **** /**
 554:Drivers/CMSIS/Include/cmsis_gcc.h ****   \brief   Set Base Priority
 555:Drivers/CMSIS/Include/cmsis_gcc.h ****   \details Assigns the given value to the Base Priority register.
 556:Drivers/CMSIS/Include/cmsis_gcc.h ****   \param [in]    basePri  Base Priority value to set
 557:Drivers/CMSIS/Include/cmsis_gcc.h ****  */
 558:Drivers/CMSIS/Include/cmsis_gcc.h **** __STATIC_FORCEINLINE void __set_BASEPRI(uint32_t basePri)
 559:Drivers/CMSIS/Include/cmsis_gcc.h **** {
 560:Drivers/CMSIS/Include/cmsis_gcc.h ****   __ASM volatile ("MSR basepri, %0" : : "r" (basePri) : "memory");
 561:Drivers/CMSIS/Include/cmsis_gcc.h **** }
 562:Drivers/CMSIS/Include/cmsis_gcc.h **** 
 563:Drivers/CMSIS/Include/cmsis_gcc.h **** 
 564:Drivers/CMSIS/Include/cmsis_gcc.h **** #if (defined (__ARM_FEATURE_CMSE ) && (__ARM_FEATURE_CMSE == 3))
 565:Drivers/CMSIS/Include/cmsis_gcc.h **** /**
 566:Drivers/CMSIS/Include/cmsis_gcc.h ****   \brief   Set Base Priority (non-secure)
 567:Drivers/CMSIS/Include/cmsis_gcc.h ****   \details Assigns the given value to the non-secure Base Priority register when in secure state.
 568:Drivers/CMSIS/Include/cmsis_gcc.h ****   \param [in]    basePri  Base Priority value to set
 569:Drivers/CMSIS/Include/cmsis_gcc.h ****  */
 570:Drivers/CMSIS/Include/cmsis_gcc.h **** __STATIC_FORCEINLINE void __TZ_set_BASEPRI_NS(uint32_t basePri)
 571:Drivers/CMSIS/Include/cmsis_gcc.h **** {
 572:Drivers/CMSIS/Include/cmsis_gcc.h ****   __ASM volatile ("MSR basepri_ns, %0" : : "r" (basePri) : "memory");
 573:Drivers/CMSIS/Include/cmsis_gcc.h **** }
 574:Drivers/CMSIS/Include/cmsis_gcc.h **** #endif
 575:Drivers/CMSIS/Include/cmsis_gcc.h **** 
 576:Drivers/CMSIS/Include/cmsis_gcc.h **** 
 577:Drivers/CMSIS/Include/cmsis_gcc.h **** /**
 578:Drivers/CMSIS/Include/cmsis_gcc.h ****   \brief   Set Base Priority with condition
 579:Drivers/CMSIS/Include/cmsis_gcc.h ****   \details Assigns the given value to the Base Priority register only if BASEPRI masking is disable
 580:Drivers/CMSIS/Include/cmsis_gcc.h ****            or the new value increases the BASEPRI priority level.
 581:Drivers/CMSIS/Include/cmsis_gcc.h ****   \param [in]    basePri  Base Priority value to set
ARM GAS  /tmp/cchx7lg8.s 			page 31


 582:Drivers/CMSIS/Include/cmsis_gcc.h ****  */
 583:Drivers/CMSIS/Include/cmsis_gcc.h **** __STATIC_FORCEINLINE void __set_BASEPRI_MAX(uint32_t basePri)
 584:Drivers/CMSIS/Include/cmsis_gcc.h **** {
 585:Drivers/CMSIS/Include/cmsis_gcc.h ****   __ASM volatile ("MSR basepri_max, %0" : : "r" (basePri) : "memory");
 586:Drivers/CMSIS/Include/cmsis_gcc.h **** }
 587:Drivers/CMSIS/Include/cmsis_gcc.h **** 
 588:Drivers/CMSIS/Include/cmsis_gcc.h **** 
 589:Drivers/CMSIS/Include/cmsis_gcc.h **** /**
 590:Drivers/CMSIS/Include/cmsis_gcc.h ****   \brief   Get Fault Mask
 591:Drivers/CMSIS/Include/cmsis_gcc.h ****   \details Returns the current value of the Fault Mask register.
 592:Drivers/CMSIS/Include/cmsis_gcc.h ****   \return               Fault Mask register value
 593:Drivers/CMSIS/Include/cmsis_gcc.h ****  */
 594:Drivers/CMSIS/Include/cmsis_gcc.h **** __STATIC_FORCEINLINE uint32_t __get_FAULTMASK(void)
 595:Drivers/CMSIS/Include/cmsis_gcc.h **** {
 596:Drivers/CMSIS/Include/cmsis_gcc.h ****   uint32_t result;
 597:Drivers/CMSIS/Include/cmsis_gcc.h **** 
 598:Drivers/CMSIS/Include/cmsis_gcc.h ****   __ASM volatile ("MRS %0, faultmask" : "=r" (result) );
 599:Drivers/CMSIS/Include/cmsis_gcc.h ****   return(result);
 600:Drivers/CMSIS/Include/cmsis_gcc.h **** }
 601:Drivers/CMSIS/Include/cmsis_gcc.h **** 
 602:Drivers/CMSIS/Include/cmsis_gcc.h **** 
 603:Drivers/CMSIS/Include/cmsis_gcc.h **** #if (defined (__ARM_FEATURE_CMSE ) && (__ARM_FEATURE_CMSE == 3))
 604:Drivers/CMSIS/Include/cmsis_gcc.h **** /**
 605:Drivers/CMSIS/Include/cmsis_gcc.h ****   \brief   Get Fault Mask (non-secure)
 606:Drivers/CMSIS/Include/cmsis_gcc.h ****   \details Returns the current value of the non-secure Fault Mask register when in secure state.
 607:Drivers/CMSIS/Include/cmsis_gcc.h ****   \return               Fault Mask register value
 608:Drivers/CMSIS/Include/cmsis_gcc.h ****  */
 609:Drivers/CMSIS/Include/cmsis_gcc.h **** __STATIC_FORCEINLINE uint32_t __TZ_get_FAULTMASK_NS(void)
 610:Drivers/CMSIS/Include/cmsis_gcc.h **** {
 611:Drivers/CMSIS/Include/cmsis_gcc.h ****   uint32_t result;
 612:Drivers/CMSIS/Include/cmsis_gcc.h **** 
 613:Drivers/CMSIS/Include/cmsis_gcc.h ****   __ASM volatile ("MRS %0, faultmask_ns" : "=r" (result) );
 614:Drivers/CMSIS/Include/cmsis_gcc.h ****   return(result);
 615:Drivers/CMSIS/Include/cmsis_gcc.h **** }
 616:Drivers/CMSIS/Include/cmsis_gcc.h **** #endif
 617:Drivers/CMSIS/Include/cmsis_gcc.h **** 
 618:Drivers/CMSIS/Include/cmsis_gcc.h **** 
 619:Drivers/CMSIS/Include/cmsis_gcc.h **** /**
 620:Drivers/CMSIS/Include/cmsis_gcc.h ****   \brief   Set Fault Mask
 621:Drivers/CMSIS/Include/cmsis_gcc.h ****   \details Assigns the given value to the Fault Mask register.
 622:Drivers/CMSIS/Include/cmsis_gcc.h ****   \param [in]    faultMask  Fault Mask value to set
 623:Drivers/CMSIS/Include/cmsis_gcc.h ****  */
 624:Drivers/CMSIS/Include/cmsis_gcc.h **** __STATIC_FORCEINLINE void __set_FAULTMASK(uint32_t faultMask)
 625:Drivers/CMSIS/Include/cmsis_gcc.h **** {
 626:Drivers/CMSIS/Include/cmsis_gcc.h ****   __ASM volatile ("MSR faultmask, %0" : : "r" (faultMask) : "memory");
 627:Drivers/CMSIS/Include/cmsis_gcc.h **** }
 628:Drivers/CMSIS/Include/cmsis_gcc.h **** 
 629:Drivers/CMSIS/Include/cmsis_gcc.h **** 
 630:Drivers/CMSIS/Include/cmsis_gcc.h **** #if (defined (__ARM_FEATURE_CMSE ) && (__ARM_FEATURE_CMSE == 3))
 631:Drivers/CMSIS/Include/cmsis_gcc.h **** /**
 632:Drivers/CMSIS/Include/cmsis_gcc.h ****   \brief   Set Fault Mask (non-secure)
 633:Drivers/CMSIS/Include/cmsis_gcc.h ****   \details Assigns the given value to the non-secure Fault Mask register when in secure state.
 634:Drivers/CMSIS/Include/cmsis_gcc.h ****   \param [in]    faultMask  Fault Mask value to set
 635:Drivers/CMSIS/Include/cmsis_gcc.h ****  */
 636:Drivers/CMSIS/Include/cmsis_gcc.h **** __STATIC_FORCEINLINE void __TZ_set_FAULTMASK_NS(uint32_t faultMask)
 637:Drivers/CMSIS/Include/cmsis_gcc.h **** {
 638:Drivers/CMSIS/Include/cmsis_gcc.h ****   __ASM volatile ("MSR faultmask_ns, %0" : : "r" (faultMask) : "memory");
ARM GAS  /tmp/cchx7lg8.s 			page 32


 639:Drivers/CMSIS/Include/cmsis_gcc.h **** }
 640:Drivers/CMSIS/Include/cmsis_gcc.h **** #endif
 641:Drivers/CMSIS/Include/cmsis_gcc.h **** 
 642:Drivers/CMSIS/Include/cmsis_gcc.h **** #endif /* ((defined (__ARM_ARCH_7M__      ) && (__ARM_ARCH_7M__      == 1)) || \
 643:Drivers/CMSIS/Include/cmsis_gcc.h ****            (defined (__ARM_ARCH_7EM__     ) && (__ARM_ARCH_7EM__     == 1)) || \
 644:Drivers/CMSIS/Include/cmsis_gcc.h ****            (defined (__ARM_ARCH_8M_MAIN__ ) && (__ARM_ARCH_8M_MAIN__ == 1))    ) */
 645:Drivers/CMSIS/Include/cmsis_gcc.h **** 
 646:Drivers/CMSIS/Include/cmsis_gcc.h **** 
 647:Drivers/CMSIS/Include/cmsis_gcc.h **** #if ((defined (__ARM_ARCH_8M_MAIN__ ) && (__ARM_ARCH_8M_MAIN__ == 1)) || \
 648:Drivers/CMSIS/Include/cmsis_gcc.h ****      (defined (__ARM_ARCH_8M_BASE__ ) && (__ARM_ARCH_8M_BASE__ == 1))    )
 649:Drivers/CMSIS/Include/cmsis_gcc.h **** 
 650:Drivers/CMSIS/Include/cmsis_gcc.h **** /**
 651:Drivers/CMSIS/Include/cmsis_gcc.h ****   \brief   Get Process Stack Pointer Limit
 652:Drivers/CMSIS/Include/cmsis_gcc.h ****   Devices without ARMv8-M Main Extensions (i.e. Cortex-M23) lack the non-secure
 653:Drivers/CMSIS/Include/cmsis_gcc.h ****   Stack Pointer Limit register hence zero is returned always in non-secure
 654:Drivers/CMSIS/Include/cmsis_gcc.h ****   mode.
 655:Drivers/CMSIS/Include/cmsis_gcc.h ****   
 656:Drivers/CMSIS/Include/cmsis_gcc.h ****   \details Returns the current value of the Process Stack Pointer Limit (PSPLIM).
 657:Drivers/CMSIS/Include/cmsis_gcc.h ****   \return               PSPLIM Register value
 658:Drivers/CMSIS/Include/cmsis_gcc.h ****  */
 659:Drivers/CMSIS/Include/cmsis_gcc.h **** __STATIC_FORCEINLINE uint32_t __get_PSPLIM(void)
 660:Drivers/CMSIS/Include/cmsis_gcc.h **** {
 661:Drivers/CMSIS/Include/cmsis_gcc.h **** #if (!(defined (__ARM_ARCH_8M_MAIN__ ) && (__ARM_ARCH_8M_MAIN__ == 1)) && \
 662:Drivers/CMSIS/Include/cmsis_gcc.h ****     (!defined (__ARM_FEATURE_CMSE) || (__ARM_FEATURE_CMSE < 3)))
 663:Drivers/CMSIS/Include/cmsis_gcc.h ****     // without main extensions, the non-secure PSPLIM is RAZ/WI
 664:Drivers/CMSIS/Include/cmsis_gcc.h ****   return 0U;
 665:Drivers/CMSIS/Include/cmsis_gcc.h **** #else
 666:Drivers/CMSIS/Include/cmsis_gcc.h ****   uint32_t result;
 667:Drivers/CMSIS/Include/cmsis_gcc.h ****   __ASM volatile ("MRS %0, psplim"  : "=r" (result) );
 668:Drivers/CMSIS/Include/cmsis_gcc.h ****   return result;
 669:Drivers/CMSIS/Include/cmsis_gcc.h **** #endif
 670:Drivers/CMSIS/Include/cmsis_gcc.h **** }
 671:Drivers/CMSIS/Include/cmsis_gcc.h **** 
 672:Drivers/CMSIS/Include/cmsis_gcc.h **** #if (defined (__ARM_FEATURE_CMSE) && (__ARM_FEATURE_CMSE == 3))
 673:Drivers/CMSIS/Include/cmsis_gcc.h **** /**
 674:Drivers/CMSIS/Include/cmsis_gcc.h ****   \brief   Get Process Stack Pointer Limit (non-secure)
 675:Drivers/CMSIS/Include/cmsis_gcc.h ****   Devices without ARMv8-M Main Extensions (i.e. Cortex-M23) lack the non-secure
 676:Drivers/CMSIS/Include/cmsis_gcc.h ****   Stack Pointer Limit register hence zero is returned always.
 677:Drivers/CMSIS/Include/cmsis_gcc.h **** 
 678:Drivers/CMSIS/Include/cmsis_gcc.h ****   \details Returns the current value of the non-secure Process Stack Pointer Limit (PSPLIM) when in
 679:Drivers/CMSIS/Include/cmsis_gcc.h ****   \return               PSPLIM Register value
 680:Drivers/CMSIS/Include/cmsis_gcc.h ****  */
 681:Drivers/CMSIS/Include/cmsis_gcc.h **** __STATIC_FORCEINLINE uint32_t __TZ_get_PSPLIM_NS(void)
 682:Drivers/CMSIS/Include/cmsis_gcc.h **** {
 683:Drivers/CMSIS/Include/cmsis_gcc.h **** #if (!(defined (__ARM_ARCH_8M_MAIN__ ) && (__ARM_ARCH_8M_MAIN__ == 1)))
 684:Drivers/CMSIS/Include/cmsis_gcc.h ****   // without main extensions, the non-secure PSPLIM is RAZ/WI
 685:Drivers/CMSIS/Include/cmsis_gcc.h ****   return 0U;
 686:Drivers/CMSIS/Include/cmsis_gcc.h **** #else
 687:Drivers/CMSIS/Include/cmsis_gcc.h ****   uint32_t result;
 688:Drivers/CMSIS/Include/cmsis_gcc.h ****   __ASM volatile ("MRS %0, psplim_ns"  : "=r" (result) );
 689:Drivers/CMSIS/Include/cmsis_gcc.h ****   return result;
 690:Drivers/CMSIS/Include/cmsis_gcc.h **** #endif
 691:Drivers/CMSIS/Include/cmsis_gcc.h **** }
 692:Drivers/CMSIS/Include/cmsis_gcc.h **** #endif
 693:Drivers/CMSIS/Include/cmsis_gcc.h **** 
 694:Drivers/CMSIS/Include/cmsis_gcc.h **** 
 695:Drivers/CMSIS/Include/cmsis_gcc.h **** /**
ARM GAS  /tmp/cchx7lg8.s 			page 33


 696:Drivers/CMSIS/Include/cmsis_gcc.h ****   \brief   Set Process Stack Pointer Limit
 697:Drivers/CMSIS/Include/cmsis_gcc.h ****   Devices without ARMv8-M Main Extensions (i.e. Cortex-M23) lack the non-secure
 698:Drivers/CMSIS/Include/cmsis_gcc.h ****   Stack Pointer Limit register hence the write is silently ignored in non-secure
 699:Drivers/CMSIS/Include/cmsis_gcc.h ****   mode.
 700:Drivers/CMSIS/Include/cmsis_gcc.h ****   
 701:Drivers/CMSIS/Include/cmsis_gcc.h ****   \details Assigns the given value to the Process Stack Pointer Limit (PSPLIM).
 702:Drivers/CMSIS/Include/cmsis_gcc.h ****   \param [in]    ProcStackPtrLimit  Process Stack Pointer Limit value to set
 703:Drivers/CMSIS/Include/cmsis_gcc.h ****  */
 704:Drivers/CMSIS/Include/cmsis_gcc.h **** __STATIC_FORCEINLINE void __set_PSPLIM(uint32_t ProcStackPtrLimit)
 705:Drivers/CMSIS/Include/cmsis_gcc.h **** {
 706:Drivers/CMSIS/Include/cmsis_gcc.h **** #if (!(defined (__ARM_ARCH_8M_MAIN__ ) && (__ARM_ARCH_8M_MAIN__ == 1)) && \
 707:Drivers/CMSIS/Include/cmsis_gcc.h ****     (!defined (__ARM_FEATURE_CMSE) || (__ARM_FEATURE_CMSE < 3)))
 708:Drivers/CMSIS/Include/cmsis_gcc.h ****   // without main extensions, the non-secure PSPLIM is RAZ/WI
 709:Drivers/CMSIS/Include/cmsis_gcc.h ****   (void)ProcStackPtrLimit;
 710:Drivers/CMSIS/Include/cmsis_gcc.h **** #else
 711:Drivers/CMSIS/Include/cmsis_gcc.h ****   __ASM volatile ("MSR psplim, %0" : : "r" (ProcStackPtrLimit));
 712:Drivers/CMSIS/Include/cmsis_gcc.h **** #endif
 713:Drivers/CMSIS/Include/cmsis_gcc.h **** }
 714:Drivers/CMSIS/Include/cmsis_gcc.h **** 
 715:Drivers/CMSIS/Include/cmsis_gcc.h **** 
 716:Drivers/CMSIS/Include/cmsis_gcc.h **** #if (defined (__ARM_FEATURE_CMSE  ) && (__ARM_FEATURE_CMSE   == 3))
 717:Drivers/CMSIS/Include/cmsis_gcc.h **** /**
 718:Drivers/CMSIS/Include/cmsis_gcc.h ****   \brief   Set Process Stack Pointer (non-secure)
 719:Drivers/CMSIS/Include/cmsis_gcc.h ****   Devices without ARMv8-M Main Extensions (i.e. Cortex-M23) lack the non-secure
 720:Drivers/CMSIS/Include/cmsis_gcc.h ****   Stack Pointer Limit register hence the write is silently ignored.
 721:Drivers/CMSIS/Include/cmsis_gcc.h **** 
 722:Drivers/CMSIS/Include/cmsis_gcc.h ****   \details Assigns the given value to the non-secure Process Stack Pointer Limit (PSPLIM) when in s
 723:Drivers/CMSIS/Include/cmsis_gcc.h ****   \param [in]    ProcStackPtrLimit  Process Stack Pointer Limit value to set
 724:Drivers/CMSIS/Include/cmsis_gcc.h ****  */
 725:Drivers/CMSIS/Include/cmsis_gcc.h **** __STATIC_FORCEINLINE void __TZ_set_PSPLIM_NS(uint32_t ProcStackPtrLimit)
 726:Drivers/CMSIS/Include/cmsis_gcc.h **** {
 727:Drivers/CMSIS/Include/cmsis_gcc.h **** #if (!(defined (__ARM_ARCH_8M_MAIN__ ) && (__ARM_ARCH_8M_MAIN__ == 1)))
 728:Drivers/CMSIS/Include/cmsis_gcc.h ****   // without main extensions, the non-secure PSPLIM is RAZ/WI
 729:Drivers/CMSIS/Include/cmsis_gcc.h ****   (void)ProcStackPtrLimit;
 730:Drivers/CMSIS/Include/cmsis_gcc.h **** #else
 731:Drivers/CMSIS/Include/cmsis_gcc.h ****   __ASM volatile ("MSR psplim_ns, %0\n" : : "r" (ProcStackPtrLimit));
 732:Drivers/CMSIS/Include/cmsis_gcc.h **** #endif
 733:Drivers/CMSIS/Include/cmsis_gcc.h **** }
 734:Drivers/CMSIS/Include/cmsis_gcc.h **** #endif
 735:Drivers/CMSIS/Include/cmsis_gcc.h **** 
 736:Drivers/CMSIS/Include/cmsis_gcc.h **** 
 737:Drivers/CMSIS/Include/cmsis_gcc.h **** /**
 738:Drivers/CMSIS/Include/cmsis_gcc.h ****   \brief   Get Main Stack Pointer Limit
 739:Drivers/CMSIS/Include/cmsis_gcc.h ****   Devices without ARMv8-M Main Extensions (i.e. Cortex-M23) lack the non-secure
 740:Drivers/CMSIS/Include/cmsis_gcc.h ****   Stack Pointer Limit register hence zero is returned always in non-secure
 741:Drivers/CMSIS/Include/cmsis_gcc.h ****   mode.
 742:Drivers/CMSIS/Include/cmsis_gcc.h **** 
 743:Drivers/CMSIS/Include/cmsis_gcc.h ****   \details Returns the current value of the Main Stack Pointer Limit (MSPLIM).
 744:Drivers/CMSIS/Include/cmsis_gcc.h ****   \return               MSPLIM Register value
 745:Drivers/CMSIS/Include/cmsis_gcc.h ****  */
 746:Drivers/CMSIS/Include/cmsis_gcc.h **** __STATIC_FORCEINLINE uint32_t __get_MSPLIM(void)
 747:Drivers/CMSIS/Include/cmsis_gcc.h **** {
 748:Drivers/CMSIS/Include/cmsis_gcc.h **** #if (!(defined (__ARM_ARCH_8M_MAIN__ ) && (__ARM_ARCH_8M_MAIN__ == 1)) && \
 749:Drivers/CMSIS/Include/cmsis_gcc.h ****     (!defined (__ARM_FEATURE_CMSE) || (__ARM_FEATURE_CMSE < 3)))
 750:Drivers/CMSIS/Include/cmsis_gcc.h ****   // without main extensions, the non-secure MSPLIM is RAZ/WI
 751:Drivers/CMSIS/Include/cmsis_gcc.h ****   return 0U;
 752:Drivers/CMSIS/Include/cmsis_gcc.h **** #else
ARM GAS  /tmp/cchx7lg8.s 			page 34


 753:Drivers/CMSIS/Include/cmsis_gcc.h ****   uint32_t result;
 754:Drivers/CMSIS/Include/cmsis_gcc.h ****   __ASM volatile ("MRS %0, msplim" : "=r" (result) );
 755:Drivers/CMSIS/Include/cmsis_gcc.h ****   return result;
 756:Drivers/CMSIS/Include/cmsis_gcc.h **** #endif
 757:Drivers/CMSIS/Include/cmsis_gcc.h **** }
 758:Drivers/CMSIS/Include/cmsis_gcc.h **** 
 759:Drivers/CMSIS/Include/cmsis_gcc.h **** 
 760:Drivers/CMSIS/Include/cmsis_gcc.h **** #if (defined (__ARM_FEATURE_CMSE  ) && (__ARM_FEATURE_CMSE   == 3))
 761:Drivers/CMSIS/Include/cmsis_gcc.h **** /**
 762:Drivers/CMSIS/Include/cmsis_gcc.h ****   \brief   Get Main Stack Pointer Limit (non-secure)
 763:Drivers/CMSIS/Include/cmsis_gcc.h ****   Devices without ARMv8-M Main Extensions (i.e. Cortex-M23) lack the non-secure
 764:Drivers/CMSIS/Include/cmsis_gcc.h ****   Stack Pointer Limit register hence zero is returned always.
 765:Drivers/CMSIS/Include/cmsis_gcc.h **** 
 766:Drivers/CMSIS/Include/cmsis_gcc.h ****   \details Returns the current value of the non-secure Main Stack Pointer Limit(MSPLIM) when in sec
 767:Drivers/CMSIS/Include/cmsis_gcc.h ****   \return               MSPLIM Register value
 768:Drivers/CMSIS/Include/cmsis_gcc.h ****  */
 769:Drivers/CMSIS/Include/cmsis_gcc.h **** __STATIC_FORCEINLINE uint32_t __TZ_get_MSPLIM_NS(void)
 770:Drivers/CMSIS/Include/cmsis_gcc.h **** {
 771:Drivers/CMSIS/Include/cmsis_gcc.h **** #if (!(defined (__ARM_ARCH_8M_MAIN__ ) && (__ARM_ARCH_8M_MAIN__ == 1)))
 772:Drivers/CMSIS/Include/cmsis_gcc.h ****   // without main extensions, the non-secure MSPLIM is RAZ/WI
 773:Drivers/CMSIS/Include/cmsis_gcc.h ****   return 0U;
 774:Drivers/CMSIS/Include/cmsis_gcc.h **** #else
 775:Drivers/CMSIS/Include/cmsis_gcc.h ****   uint32_t result;
 776:Drivers/CMSIS/Include/cmsis_gcc.h ****   __ASM volatile ("MRS %0, msplim_ns" : "=r" (result) );
 777:Drivers/CMSIS/Include/cmsis_gcc.h ****   return result;
 778:Drivers/CMSIS/Include/cmsis_gcc.h **** #endif
 779:Drivers/CMSIS/Include/cmsis_gcc.h **** }
 780:Drivers/CMSIS/Include/cmsis_gcc.h **** #endif
 781:Drivers/CMSIS/Include/cmsis_gcc.h **** 
 782:Drivers/CMSIS/Include/cmsis_gcc.h **** 
 783:Drivers/CMSIS/Include/cmsis_gcc.h **** /**
 784:Drivers/CMSIS/Include/cmsis_gcc.h ****   \brief   Set Main Stack Pointer Limit
 785:Drivers/CMSIS/Include/cmsis_gcc.h ****   Devices without ARMv8-M Main Extensions (i.e. Cortex-M23) lack the non-secure
 786:Drivers/CMSIS/Include/cmsis_gcc.h ****   Stack Pointer Limit register hence the write is silently ignored in non-secure
 787:Drivers/CMSIS/Include/cmsis_gcc.h ****   mode.
 788:Drivers/CMSIS/Include/cmsis_gcc.h **** 
 789:Drivers/CMSIS/Include/cmsis_gcc.h ****   \details Assigns the given value to the Main Stack Pointer Limit (MSPLIM).
 790:Drivers/CMSIS/Include/cmsis_gcc.h ****   \param [in]    MainStackPtrLimit  Main Stack Pointer Limit value to set
 791:Drivers/CMSIS/Include/cmsis_gcc.h ****  */
 792:Drivers/CMSIS/Include/cmsis_gcc.h **** __STATIC_FORCEINLINE void __set_MSPLIM(uint32_t MainStackPtrLimit)
 793:Drivers/CMSIS/Include/cmsis_gcc.h **** {
 794:Drivers/CMSIS/Include/cmsis_gcc.h **** #if (!(defined (__ARM_ARCH_8M_MAIN__ ) && (__ARM_ARCH_8M_MAIN__ == 1)) && \
 795:Drivers/CMSIS/Include/cmsis_gcc.h ****     (!defined (__ARM_FEATURE_CMSE) || (__ARM_FEATURE_CMSE < 3)))
 796:Drivers/CMSIS/Include/cmsis_gcc.h ****   // without main extensions, the non-secure MSPLIM is RAZ/WI
 797:Drivers/CMSIS/Include/cmsis_gcc.h ****   (void)MainStackPtrLimit;
 798:Drivers/CMSIS/Include/cmsis_gcc.h **** #else
 799:Drivers/CMSIS/Include/cmsis_gcc.h ****   __ASM volatile ("MSR msplim, %0" : : "r" (MainStackPtrLimit));
 800:Drivers/CMSIS/Include/cmsis_gcc.h **** #endif
 801:Drivers/CMSIS/Include/cmsis_gcc.h **** }
 802:Drivers/CMSIS/Include/cmsis_gcc.h **** 
 803:Drivers/CMSIS/Include/cmsis_gcc.h **** 
 804:Drivers/CMSIS/Include/cmsis_gcc.h **** #if (defined (__ARM_FEATURE_CMSE  ) && (__ARM_FEATURE_CMSE   == 3))
 805:Drivers/CMSIS/Include/cmsis_gcc.h **** /**
 806:Drivers/CMSIS/Include/cmsis_gcc.h ****   \brief   Set Main Stack Pointer Limit (non-secure)
 807:Drivers/CMSIS/Include/cmsis_gcc.h ****   Devices without ARMv8-M Main Extensions (i.e. Cortex-M23) lack the non-secure
 808:Drivers/CMSIS/Include/cmsis_gcc.h ****   Stack Pointer Limit register hence the write is silently ignored.
 809:Drivers/CMSIS/Include/cmsis_gcc.h **** 
ARM GAS  /tmp/cchx7lg8.s 			page 35


 810:Drivers/CMSIS/Include/cmsis_gcc.h ****   \details Assigns the given value to the non-secure Main Stack Pointer Limit (MSPLIM) when in secu
 811:Drivers/CMSIS/Include/cmsis_gcc.h ****   \param [in]    MainStackPtrLimit  Main Stack Pointer value to set
 812:Drivers/CMSIS/Include/cmsis_gcc.h ****  */
 813:Drivers/CMSIS/Include/cmsis_gcc.h **** __STATIC_FORCEINLINE void __TZ_set_MSPLIM_NS(uint32_t MainStackPtrLimit)
 814:Drivers/CMSIS/Include/cmsis_gcc.h **** {
 815:Drivers/CMSIS/Include/cmsis_gcc.h **** #if (!(defined (__ARM_ARCH_8M_MAIN__ ) && (__ARM_ARCH_8M_MAIN__ == 1)))
 816:Drivers/CMSIS/Include/cmsis_gcc.h ****   // without main extensions, the non-secure MSPLIM is RAZ/WI
 817:Drivers/CMSIS/Include/cmsis_gcc.h ****   (void)MainStackPtrLimit;
 818:Drivers/CMSIS/Include/cmsis_gcc.h **** #else
 819:Drivers/CMSIS/Include/cmsis_gcc.h ****   __ASM volatile ("MSR msplim_ns, %0" : : "r" (MainStackPtrLimit));
 820:Drivers/CMSIS/Include/cmsis_gcc.h **** #endif
 821:Drivers/CMSIS/Include/cmsis_gcc.h **** }
 822:Drivers/CMSIS/Include/cmsis_gcc.h **** #endif
 823:Drivers/CMSIS/Include/cmsis_gcc.h **** 
 824:Drivers/CMSIS/Include/cmsis_gcc.h **** #endif /* ((defined (__ARM_ARCH_8M_MAIN__ ) && (__ARM_ARCH_8M_MAIN__ == 1)) || \
 825:Drivers/CMSIS/Include/cmsis_gcc.h ****            (defined (__ARM_ARCH_8M_BASE__ ) && (__ARM_ARCH_8M_BASE__ == 1))    ) */
 826:Drivers/CMSIS/Include/cmsis_gcc.h **** 
 827:Drivers/CMSIS/Include/cmsis_gcc.h **** 
 828:Drivers/CMSIS/Include/cmsis_gcc.h **** /**
 829:Drivers/CMSIS/Include/cmsis_gcc.h ****   \brief   Get FPSCR
 830:Drivers/CMSIS/Include/cmsis_gcc.h ****   \details Returns the current value of the Floating Point Status/Control register.
 831:Drivers/CMSIS/Include/cmsis_gcc.h ****   \return               Floating Point Status/Control register value
 832:Drivers/CMSIS/Include/cmsis_gcc.h ****  */
 833:Drivers/CMSIS/Include/cmsis_gcc.h **** __STATIC_FORCEINLINE uint32_t __get_FPSCR(void)
 834:Drivers/CMSIS/Include/cmsis_gcc.h **** {
 835:Drivers/CMSIS/Include/cmsis_gcc.h **** #if ((defined (__FPU_PRESENT) && (__FPU_PRESENT == 1U)) && \
 836:Drivers/CMSIS/Include/cmsis_gcc.h ****      (defined (__FPU_USED   ) && (__FPU_USED    == 1U))     )
 837:Drivers/CMSIS/Include/cmsis_gcc.h **** #if __has_builtin(__builtin_arm_get_fpscr) 
 838:Drivers/CMSIS/Include/cmsis_gcc.h **** // Re-enable using built-in when GCC has been fixed
 839:Drivers/CMSIS/Include/cmsis_gcc.h **** // || (__GNUC__ > 7) || (__GNUC__ == 7 && __GNUC_MINOR__ >= 2)
 840:Drivers/CMSIS/Include/cmsis_gcc.h ****   /* see https://gcc.gnu.org/ml/gcc-patches/2017-04/msg00443.html */
 841:Drivers/CMSIS/Include/cmsis_gcc.h ****   return __builtin_arm_get_fpscr();
 842:Drivers/CMSIS/Include/cmsis_gcc.h **** #else
 843:Drivers/CMSIS/Include/cmsis_gcc.h ****   uint32_t result;
 844:Drivers/CMSIS/Include/cmsis_gcc.h **** 
 845:Drivers/CMSIS/Include/cmsis_gcc.h ****   __ASM volatile ("VMRS %0, fpscr" : "=r" (result) );
 846:Drivers/CMSIS/Include/cmsis_gcc.h ****   return(result);
 847:Drivers/CMSIS/Include/cmsis_gcc.h **** #endif
 848:Drivers/CMSIS/Include/cmsis_gcc.h **** #else
 849:Drivers/CMSIS/Include/cmsis_gcc.h ****   return(0U);
 850:Drivers/CMSIS/Include/cmsis_gcc.h **** #endif
 851:Drivers/CMSIS/Include/cmsis_gcc.h **** }
 852:Drivers/CMSIS/Include/cmsis_gcc.h **** 
 853:Drivers/CMSIS/Include/cmsis_gcc.h **** 
 854:Drivers/CMSIS/Include/cmsis_gcc.h **** /**
 855:Drivers/CMSIS/Include/cmsis_gcc.h ****   \brief   Set FPSCR
 856:Drivers/CMSIS/Include/cmsis_gcc.h ****   \details Assigns the given value to the Floating Point Status/Control register.
 857:Drivers/CMSIS/Include/cmsis_gcc.h ****   \param [in]    fpscr  Floating Point Status/Control value to set
 858:Drivers/CMSIS/Include/cmsis_gcc.h ****  */
 859:Drivers/CMSIS/Include/cmsis_gcc.h **** __STATIC_FORCEINLINE void __set_FPSCR(uint32_t fpscr)
 860:Drivers/CMSIS/Include/cmsis_gcc.h **** {
 861:Drivers/CMSIS/Include/cmsis_gcc.h **** #if ((defined (__FPU_PRESENT) && (__FPU_PRESENT == 1U)) && \
 862:Drivers/CMSIS/Include/cmsis_gcc.h ****      (defined (__FPU_USED   ) && (__FPU_USED    == 1U))     )
 863:Drivers/CMSIS/Include/cmsis_gcc.h **** #if __has_builtin(__builtin_arm_set_fpscr)
 864:Drivers/CMSIS/Include/cmsis_gcc.h **** // Re-enable using built-in when GCC has been fixed
 865:Drivers/CMSIS/Include/cmsis_gcc.h **** // || (__GNUC__ > 7) || (__GNUC__ == 7 && __GNUC_MINOR__ >= 2)
 866:Drivers/CMSIS/Include/cmsis_gcc.h ****   /* see https://gcc.gnu.org/ml/gcc-patches/2017-04/msg00443.html */
ARM GAS  /tmp/cchx7lg8.s 			page 36


 867:Drivers/CMSIS/Include/cmsis_gcc.h ****   __builtin_arm_set_fpscr(fpscr);
 868:Drivers/CMSIS/Include/cmsis_gcc.h **** #else
 869:Drivers/CMSIS/Include/cmsis_gcc.h ****   __ASM volatile ("VMSR fpscr, %0" : : "r" (fpscr) : "vfpcc", "memory");
 870:Drivers/CMSIS/Include/cmsis_gcc.h **** #endif
 871:Drivers/CMSIS/Include/cmsis_gcc.h **** #else
 872:Drivers/CMSIS/Include/cmsis_gcc.h ****   (void)fpscr;
 873:Drivers/CMSIS/Include/cmsis_gcc.h **** #endif
 874:Drivers/CMSIS/Include/cmsis_gcc.h **** }
 875:Drivers/CMSIS/Include/cmsis_gcc.h **** 
 876:Drivers/CMSIS/Include/cmsis_gcc.h **** 
 877:Drivers/CMSIS/Include/cmsis_gcc.h **** /*@} end of CMSIS_Core_RegAccFunctions */
 878:Drivers/CMSIS/Include/cmsis_gcc.h **** 
 879:Drivers/CMSIS/Include/cmsis_gcc.h **** 
 880:Drivers/CMSIS/Include/cmsis_gcc.h **** /* ##########################  Core Instruction Access  ######################### */
 881:Drivers/CMSIS/Include/cmsis_gcc.h **** /** \defgroup CMSIS_Core_InstructionInterface CMSIS Core Instruction Interface
 882:Drivers/CMSIS/Include/cmsis_gcc.h ****   Access to dedicated instructions
 883:Drivers/CMSIS/Include/cmsis_gcc.h ****   @{
 884:Drivers/CMSIS/Include/cmsis_gcc.h **** */
 885:Drivers/CMSIS/Include/cmsis_gcc.h **** 
 886:Drivers/CMSIS/Include/cmsis_gcc.h **** /* Define macros for porting to both thumb1 and thumb2.
 887:Drivers/CMSIS/Include/cmsis_gcc.h ****  * For thumb1, use low register (r0-r7), specified by constraint "l"
 888:Drivers/CMSIS/Include/cmsis_gcc.h ****  * Otherwise, use general registers, specified by constraint "r" */
 889:Drivers/CMSIS/Include/cmsis_gcc.h **** #if defined (__thumb__) && !defined (__thumb2__)
 890:Drivers/CMSIS/Include/cmsis_gcc.h **** #define __CMSIS_GCC_OUT_REG(r) "=l" (r)
 891:Drivers/CMSIS/Include/cmsis_gcc.h **** #define __CMSIS_GCC_RW_REG(r) "+l" (r)
 892:Drivers/CMSIS/Include/cmsis_gcc.h **** #define __CMSIS_GCC_USE_REG(r) "l" (r)
 893:Drivers/CMSIS/Include/cmsis_gcc.h **** #else
 894:Drivers/CMSIS/Include/cmsis_gcc.h **** #define __CMSIS_GCC_OUT_REG(r) "=r" (r)
 895:Drivers/CMSIS/Include/cmsis_gcc.h **** #define __CMSIS_GCC_RW_REG(r) "+r" (r)
 896:Drivers/CMSIS/Include/cmsis_gcc.h **** #define __CMSIS_GCC_USE_REG(r) "r" (r)
 897:Drivers/CMSIS/Include/cmsis_gcc.h **** #endif
 898:Drivers/CMSIS/Include/cmsis_gcc.h **** 
 899:Drivers/CMSIS/Include/cmsis_gcc.h **** /**
 900:Drivers/CMSIS/Include/cmsis_gcc.h ****   \brief   No Operation
 901:Drivers/CMSIS/Include/cmsis_gcc.h ****   \details No Operation does nothing. This instruction can be used for code alignment purposes.
 902:Drivers/CMSIS/Include/cmsis_gcc.h ****  */
 903:Drivers/CMSIS/Include/cmsis_gcc.h **** #define __NOP()                             __ASM volatile ("nop")
 904:Drivers/CMSIS/Include/cmsis_gcc.h **** 
 905:Drivers/CMSIS/Include/cmsis_gcc.h **** /**
 906:Drivers/CMSIS/Include/cmsis_gcc.h ****   \brief   Wait For Interrupt
 907:Drivers/CMSIS/Include/cmsis_gcc.h ****   \details Wait For Interrupt is a hint instruction that suspends execution until one of a number o
 908:Drivers/CMSIS/Include/cmsis_gcc.h ****  */
 909:Drivers/CMSIS/Include/cmsis_gcc.h **** #define __WFI()                             __ASM volatile ("wfi")
 910:Drivers/CMSIS/Include/cmsis_gcc.h **** 
 911:Drivers/CMSIS/Include/cmsis_gcc.h **** 
 912:Drivers/CMSIS/Include/cmsis_gcc.h **** /**
 913:Drivers/CMSIS/Include/cmsis_gcc.h ****   \brief   Wait For Event
 914:Drivers/CMSIS/Include/cmsis_gcc.h ****   \details Wait For Event is a hint instruction that permits the processor to enter
 915:Drivers/CMSIS/Include/cmsis_gcc.h ****            a low-power state until one of a number of events occurs.
 916:Drivers/CMSIS/Include/cmsis_gcc.h ****  */
 917:Drivers/CMSIS/Include/cmsis_gcc.h **** #define __WFE()                             __ASM volatile ("wfe")
 918:Drivers/CMSIS/Include/cmsis_gcc.h **** 
 919:Drivers/CMSIS/Include/cmsis_gcc.h **** 
 920:Drivers/CMSIS/Include/cmsis_gcc.h **** /**
 921:Drivers/CMSIS/Include/cmsis_gcc.h ****   \brief   Send Event
 922:Drivers/CMSIS/Include/cmsis_gcc.h ****   \details Send Event is a hint instruction. It causes an event to be signaled to the CPU.
 923:Drivers/CMSIS/Include/cmsis_gcc.h ****  */
ARM GAS  /tmp/cchx7lg8.s 			page 37


 924:Drivers/CMSIS/Include/cmsis_gcc.h **** #define __SEV()                             __ASM volatile ("sev")
 925:Drivers/CMSIS/Include/cmsis_gcc.h **** 
 926:Drivers/CMSIS/Include/cmsis_gcc.h **** 
 927:Drivers/CMSIS/Include/cmsis_gcc.h **** /**
 928:Drivers/CMSIS/Include/cmsis_gcc.h ****   \brief   Instruction Synchronization Barrier
 929:Drivers/CMSIS/Include/cmsis_gcc.h ****   \details Instruction Synchronization Barrier flushes the pipeline in the processor,
 930:Drivers/CMSIS/Include/cmsis_gcc.h ****            so that all instructions following the ISB are fetched from cache or memory,
 931:Drivers/CMSIS/Include/cmsis_gcc.h ****            after the instruction has been completed.
 932:Drivers/CMSIS/Include/cmsis_gcc.h ****  */
 933:Drivers/CMSIS/Include/cmsis_gcc.h **** __STATIC_FORCEINLINE void __ISB(void)
 323              		.loc 2 933 27 view .LVU115
 324              	.LBB74:
 934:Drivers/CMSIS/Include/cmsis_gcc.h **** {
 935:Drivers/CMSIS/Include/cmsis_gcc.h ****   __ASM volatile ("isb 0xF":::"memory");
 325              		.loc 2 935 3 view .LVU116
 326              		.syntax unified
 327              	@ 935 "Drivers/CMSIS/Include/cmsis_gcc.h" 1
 328 00e4 BFF36F8F 		isb 0xF
 329              	@ 0 "" 2
 330              		.thumb
 331              		.syntax unified
 332              	.LBE74:
 333              	.LBE73:
 739:Drivers/STM32G4xx_HAL_Driver/Src/stm32g4xx_hal_flash.c **** 
 740:Drivers/STM32G4xx_HAL_Driver/Src/stm32g4xx_hal_flash.c ****   /* Program second word */
 741:Drivers/STM32G4xx_HAL_Driver/Src/stm32g4xx_hal_flash.c ****   *(uint32_t *)(Address + 4U) = (uint32_t)(Data >> 32U);
 334              		.loc 1 741 3 view .LVU117
 335              	.LBE72:
 336              	.LBE71:
 206:Drivers/STM32G4xx_HAL_Driver/Src/stm32g4xx_hal_flash.c ****     }
 337              		.loc 1 206 16 is_stmt 0 view .LVU118
 338 00e8 0124     		movs	r4, #1
 339              	.LBB76:
 340              	.LBB75:
 341              		.loc 1 741 33 view .LVU119
 342 00ea C6F804A0 		str	r10, [r6, #4]
 343              	.LVL28:
 344              		.loc 1 741 33 view .LVU120
 345              	.LBE75:
 346              	.LBE76:
 206:Drivers/STM32G4xx_HAL_Driver/Src/stm32g4xx_hal_flash.c ****     }
 347              		.loc 1 206 7 is_stmt 1 view .LVU121
 206:Drivers/STM32G4xx_HAL_Driver/Src/stm32g4xx_hal_flash.c ****     }
 348              		.loc 1 206 7 is_stmt 0 view .LVU122
 349 00ee C5E7     		b	.L11
 350              	.LVL29:
 351              	.L25:
 352              	.LBB77:
 353              	.LBB68:
 691:Drivers/STM32G4xx_HAL_Driver/Src/stm32g4xx_hal_flash.c ****     }
 354              		.loc 1 691 14 view .LVU123
 355 00f0 0327     		movs	r7, #3
 356 00f2 DDE7     		b	.L19
 357              	.LVL30:
 358              	.L43:
 691:Drivers/STM32G4xx_HAL_Driver/Src/stm32g4xx_hal_flash.c ****     }
 359              		.loc 1 691 14 view .LVU124
ARM GAS  /tmp/cchx7lg8.s 			page 38


 360              	.LBE68:
 361              	.LBE77:
 362              	.LBB78:
 363              	.LBB62:
 700:Drivers/STM32G4xx_HAL_Driver/Src/stm32g4xx_hal_flash.c **** 
 364              		.loc 1 700 5 is_stmt 1 view .LVU125
 700:Drivers/STM32G4xx_HAL_Driver/Src/stm32g4xx_hal_flash.c **** 
 365              		.loc 1 700 22 is_stmt 0 view .LVU126
 366 00f4 D8F80430 		ldr	r3, [r8, #4]
 367 00f8 2343     		orrs	r3, r3, r4
 368 00fa C8F80430 		str	r3, [r8, #4]
 703:Drivers/STM32G4xx_HAL_Driver/Src/stm32g4xx_hal_flash.c **** 
 369              		.loc 1 703 5 is_stmt 1 view .LVU127
 703:Drivers/STM32G4xx_HAL_Driver/Src/stm32g4xx_hal_flash.c **** 
 370              		.loc 1 703 5 view .LVU128
 703:Drivers/STM32G4xx_HAL_Driver/Src/stm32g4xx_hal_flash.c **** 
 371              		.loc 1 703 5 view .LVU129
 703:Drivers/STM32G4xx_HAL_Driver/Src/stm32g4xx_hal_flash.c **** 
 372              		.loc 1 703 5 view .LVU130
 705:Drivers/STM32G4xx_HAL_Driver/Src/stm32g4xx_hal_flash.c ****   }
 373              		.loc 1 705 12 is_stmt 0 view .LVU131
 374 00fe 0127     		movs	r7, #1
 703:Drivers/STM32G4xx_HAL_Driver/Src/stm32g4xx_hal_flash.c **** 
 375              		.loc 1 703 5 view .LVU132
 376 0100 2C61     		str	r4, [r5, #16]
 703:Drivers/STM32G4xx_HAL_Driver/Src/stm32g4xx_hal_flash.c **** 
 377              		.loc 1 703 5 is_stmt 1 view .LVU133
 705:Drivers/STM32G4xx_HAL_Driver/Src/stm32g4xx_hal_flash.c ****   }
 378              		.loc 1 705 5 view .LVU134
 379              	.LVL31:
 705:Drivers/STM32G4xx_HAL_Driver/Src/stm32g4xx_hal_flash.c ****   }
 380              		.loc 1 705 5 is_stmt 0 view .LVU135
 381              	.LBE62:
 382              	.LBE78:
 187:Drivers/STM32G4xx_HAL_Driver/Src/stm32g4xx_hal_flash.c ****   {
 383              		.loc 1 187 3 is_stmt 1 view .LVU136
 384 0102 DFE7     		b	.L4
 385              	.LVL32:
 386              	.L45:
 211:Drivers/STM32G4xx_HAL_Driver/Src/stm32g4xx_hal_flash.c **** 
 387              		.loc 1 211 7 view .LVU137
 388              	.LBB79:
 389              	.LBI79:
 742:Drivers/STM32G4xx_HAL_Driver/Src/stm32g4xx_hal_flash.c **** }
 743:Drivers/STM32G4xx_HAL_Driver/Src/stm32g4xx_hal_flash.c **** 
 744:Drivers/STM32G4xx_HAL_Driver/Src/stm32g4xx_hal_flash.c **** /**
 745:Drivers/STM32G4xx_HAL_Driver/Src/stm32g4xx_hal_flash.c ****   * @brief  Fast program a row double-word (64-bit) at a specified address.
 746:Drivers/STM32G4xx_HAL_Driver/Src/stm32g4xx_hal_flash.c ****   * @param  Address specifies the address to be programmed.
 747:Drivers/STM32G4xx_HAL_Driver/Src/stm32g4xx_hal_flash.c ****   * @param  DataAddress specifies the address where the data are stored.
 748:Drivers/STM32G4xx_HAL_Driver/Src/stm32g4xx_hal_flash.c ****   * @retval None
 749:Drivers/STM32G4xx_HAL_Driver/Src/stm32g4xx_hal_flash.c ****   */
 750:Drivers/STM32G4xx_HAL_Driver/Src/stm32g4xx_hal_flash.c **** static void FLASH_Program_Fast(uint32_t Address, uint32_t DataAddress)
 390              		.loc 1 750 13 view .LVU138
 391              	.LBB80:
 751:Drivers/STM32G4xx_HAL_Driver/Src/stm32g4xx_hal_flash.c **** {
 752:Drivers/STM32G4xx_HAL_Driver/Src/stm32g4xx_hal_flash.c ****   uint8_t row_index = (2 * FLASH_NB_DOUBLE_WORDS_IN_ROW);
 392              		.loc 1 752 3 view .LVU139
ARM GAS  /tmp/cchx7lg8.s 			page 39


 753:Drivers/STM32G4xx_HAL_Driver/Src/stm32g4xx_hal_flash.c ****   uint32_t *dest_addr = (uint32_t *)Address;
 393              		.loc 1 753 3 view .LVU140
 754:Drivers/STM32G4xx_HAL_Driver/Src/stm32g4xx_hal_flash.c ****   uint32_t *src_addr = (uint32_t *)DataAddress;
 394              		.loc 1 754 3 view .LVU141
 755:Drivers/STM32G4xx_HAL_Driver/Src/stm32g4xx_hal_flash.c ****   uint32_t primask_bit;
 756:Drivers/STM32G4xx_HAL_Driver/Src/stm32g4xx_hal_flash.c **** 
 757:Drivers/STM32G4xx_HAL_Driver/Src/stm32g4xx_hal_flash.c ****   /* Check the parameters */
 758:Drivers/STM32G4xx_HAL_Driver/Src/stm32g4xx_hal_flash.c ****   assert_param(IS_FLASH_MAIN_MEM_ADDRESS(Address));
 759:Drivers/STM32G4xx_HAL_Driver/Src/stm32g4xx_hal_flash.c **** 
 760:Drivers/STM32G4xx_HAL_Driver/Src/stm32g4xx_hal_flash.c ****   /* Set FSTPG bit */
 761:Drivers/STM32G4xx_HAL_Driver/Src/stm32g4xx_hal_flash.c ****   SET_BIT(FLASH->CR, FLASH_CR_FSTPG);
 395              		.loc 1 761 3 is_stmt 0 view .LVU142
 396 0104 1949     		ldr	r1, .L47
 397 0106 4A69     		ldr	r2, [r1, #20]
 398 0108 42F48022 		orr	r2, r2, #262144
 754:Drivers/STM32G4xx_HAL_Driver/Src/stm32g4xx_hal_flash.c ****   uint32_t *src_addr = (uint32_t *)DataAddress;
 399              		.loc 1 754 13 view .LVU143
 400 010c 3B46     		mov	r3, r7
 401              	.LVL33:
 755:Drivers/STM32G4xx_HAL_Driver/Src/stm32g4xx_hal_flash.c ****   uint32_t primask_bit;
 402              		.loc 1 755 3 is_stmt 1 view .LVU144
 758:Drivers/STM32G4xx_HAL_Driver/Src/stm32g4xx_hal_flash.c **** 
 403              		.loc 1 758 3 view .LVU145
 404              		.loc 1 761 3 view .LVU146
 405 010e 4A61     		str	r2, [r1, #20]
 762:Drivers/STM32G4xx_HAL_Driver/Src/stm32g4xx_hal_flash.c **** 
 763:Drivers/STM32G4xx_HAL_Driver/Src/stm32g4xx_hal_flash.c ****   /* Enter critical section: Disable interrupts to avoid any interruption during the loop */
 764:Drivers/STM32G4xx_HAL_Driver/Src/stm32g4xx_hal_flash.c ****   primask_bit = __get_PRIMASK();
 406              		.loc 1 764 3 view .LVU147
 407              	.LBB81:
 408              	.LBI81:
 449:Drivers/CMSIS/Include/cmsis_gcc.h **** {
 409              		.loc 2 449 31 view .LVU148
 410              	.LBB82:
 451:Drivers/CMSIS/Include/cmsis_gcc.h **** 
 411              		.loc 2 451 3 view .LVU149
 453:Drivers/CMSIS/Include/cmsis_gcc.h ****   return(result);
 412              		.loc 2 453 3 view .LVU150
 413              		.syntax unified
 414              	@ 453 "Drivers/CMSIS/Include/cmsis_gcc.h" 1
 415 0110 EFF31085 		MRS r5, primask
 416              	@ 0 "" 2
 417              	.LVL34:
 454:Drivers/CMSIS/Include/cmsis_gcc.h **** }
 418              		.loc 2 454 3 view .LVU151
 454:Drivers/CMSIS/Include/cmsis_gcc.h **** }
 419              		.loc 2 454 3 is_stmt 0 view .LVU152
 420              		.thumb
 421              		.syntax unified
 422              	.LBE82:
 423              	.LBE81:
 765:Drivers/STM32G4xx_HAL_Driver/Src/stm32g4xx_hal_flash.c ****   __disable_irq();
 424              		.loc 1 765 3 is_stmt 1 view .LVU153
 425              	.LBB83:
 426              	.LBI83:
 207:Drivers/CMSIS/Include/cmsis_gcc.h **** {
 427              		.loc 2 207 27 view .LVU154
ARM GAS  /tmp/cchx7lg8.s 			page 40


 428              	.LBB84:
 209:Drivers/CMSIS/Include/cmsis_gcc.h **** }
 429              		.loc 2 209 3 view .LVU155
 430              		.syntax unified
 431              	@ 209 "Drivers/CMSIS/Include/cmsis_gcc.h" 1
 432 0114 72B6     		cpsid i
 433              	@ 0 "" 2
 434              		.thumb
 435              		.syntax unified
 436 0116 46EA0702 		orr	r2, r6, r7
 437 011a 5207     		lsls	r2, r2, #29
 438 011c 1DD1     		bne	.L13
 439              	.LVL35:
 209:Drivers/CMSIS/Include/cmsis_gcc.h **** }
 440              		.loc 2 209 3 is_stmt 0 view .LVU156
 441 011e 3A1D     		adds	r2, r7, #4
 442 0120 B242     		cmp	r2, r6
 443 0122 1AD0     		beq	.L13
 444 0124 07F58077 		add	r7, r7, #256
 445 0128 F61A     		subs	r6, r6, r3
 446              	.LVL36:
 447              	.L14:
 209:Drivers/CMSIS/Include/cmsis_gcc.h **** }
 448              		.loc 2 209 3 view .LVU157
 449              	.LBE84:
 450              	.LBE83:
 766:Drivers/STM32G4xx_HAL_Driver/Src/stm32g4xx_hal_flash.c **** 
 767:Drivers/STM32G4xx_HAL_Driver/Src/stm32g4xx_hal_flash.c ****   /* Program the double words of the row */
 768:Drivers/STM32G4xx_HAL_Driver/Src/stm32g4xx_hal_flash.c ****   do
 451              		.loc 1 768 3 is_stmt 1 view .LVU158
 769:Drivers/STM32G4xx_HAL_Driver/Src/stm32g4xx_hal_flash.c ****   {
 770:Drivers/STM32G4xx_HAL_Driver/Src/stm32g4xx_hal_flash.c ****     *dest_addr = *src_addr;
 452              		.loc 1 770 5 view .LVU159
 453              		.loc 1 770 18 is_stmt 0 view .LVU160
 454 012a D3E90001 		ldrd	r0, [r3]
 455              		.loc 1 770 16 view .LVU161
 456 012e F218     		adds	r2, r6, r3
 457 0130 0833     		adds	r3, r3, #8
 458 0132 BB42     		cmp	r3, r7
 459 0134 C2E90001 		strd	r0, [r2]
 771:Drivers/STM32G4xx_HAL_Driver/Src/stm32g4xx_hal_flash.c ****     dest_addr++;
 460              		.loc 1 771 5 is_stmt 1 view .LVU162
 772:Drivers/STM32G4xx_HAL_Driver/Src/stm32g4xx_hal_flash.c ****     src_addr++;
 461              		.loc 1 772 5 view .LVU163
 773:Drivers/STM32G4xx_HAL_Driver/Src/stm32g4xx_hal_flash.c ****     row_index--;
 462              		.loc 1 773 5 view .LVU164
 774:Drivers/STM32G4xx_HAL_Driver/Src/stm32g4xx_hal_flash.c ****   }
 775:Drivers/STM32G4xx_HAL_Driver/Src/stm32g4xx_hal_flash.c ****   while (row_index != 0U);
 463              		.loc 1 775 9 view .LVU165
 464 0138 F7D1     		bne	.L14
 465              	.LVL37:
 466              	.L15:
 776:Drivers/STM32G4xx_HAL_Driver/Src/stm32g4xx_hal_flash.c **** 
 777:Drivers/STM32G4xx_HAL_Driver/Src/stm32g4xx_hal_flash.c ****   /* Exit critical section: restore previous priority mask */
 778:Drivers/STM32G4xx_HAL_Driver/Src/stm32g4xx_hal_flash.c ****   __set_PRIMASK(primask_bit);
 467              		.loc 1 778 3 view .LVU166
 468              	.LBB85:
ARM GAS  /tmp/cchx7lg8.s 			page 41


 469              	.LBI85:
 479:Drivers/CMSIS/Include/cmsis_gcc.h **** {
 470              		.loc 2 479 27 view .LVU167
 471              	.LBB86:
 481:Drivers/CMSIS/Include/cmsis_gcc.h **** }
 472              		.loc 2 481 3 view .LVU168
 473              		.syntax unified
 474              	@ 481 "Drivers/CMSIS/Include/cmsis_gcc.h" 1
 475 013a 85F31088 		MSR primask, r5
 476              	@ 0 "" 2
 477              	.LVL38:
 481:Drivers/CMSIS/Include/cmsis_gcc.h **** }
 478              		.loc 2 481 3 is_stmt 0 view .LVU169
 479              		.thumb
 480              		.syntax unified
 481              	.LBE86:
 482              	.LBE85:
 483              	.LBE80:
 484              	.LBE79:
 214:Drivers/STM32G4xx_HAL_Driver/Src/stm32g4xx_hal_flash.c ****       {
 485              		.loc 1 214 7 is_stmt 1 view .LVU170
 216:Drivers/STM32G4xx_HAL_Driver/Src/stm32g4xx_hal_flash.c ****       }
 486              		.loc 1 216 18 is_stmt 0 view .LVU171
 487 013e B9F1020F 		cmp	r9, #2
 488 0142 08BF     		it	eq
 489 0144 4FF48024 		moveq	r4, #262144
 490 0148 98E7     		b	.L11
 491              	.LVL39:
 492              	.L46:
 493              	.LBB88:
 494              	.LBB69:
 700:Drivers/STM32G4xx_HAL_Driver/Src/stm32g4xx_hal_flash.c **** 
 495              		.loc 1 700 5 is_stmt 1 view .LVU172
 700:Drivers/STM32G4xx_HAL_Driver/Src/stm32g4xx_hal_flash.c **** 
 496              		.loc 1 700 22 is_stmt 0 view .LVU173
 497 014a D8F80420 		ldr	r2, [r8, #4]
 498 014e 1A43     		orrs	r2, r2, r3
 499 0150 C8F80420 		str	r2, [r8, #4]
 703:Drivers/STM32G4xx_HAL_Driver/Src/stm32g4xx_hal_flash.c **** 
 500              		.loc 1 703 5 is_stmt 1 view .LVU174
 703:Drivers/STM32G4xx_HAL_Driver/Src/stm32g4xx_hal_flash.c **** 
 501              		.loc 1 703 5 view .LVU175
 703:Drivers/STM32G4xx_HAL_Driver/Src/stm32g4xx_hal_flash.c **** 
 502              		.loc 1 703 5 view .LVU176
 703:Drivers/STM32G4xx_HAL_Driver/Src/stm32g4xx_hal_flash.c **** 
 503              		.loc 1 703 5 view .LVU177
 705:Drivers/STM32G4xx_HAL_Driver/Src/stm32g4xx_hal_flash.c ****   }
 504              		.loc 1 705 12 is_stmt 0 view .LVU178
 505 0154 0127     		movs	r7, #1
 703:Drivers/STM32G4xx_HAL_Driver/Src/stm32g4xx_hal_flash.c **** 
 506              		.loc 1 703 5 view .LVU179
 507 0156 3361     		str	r3, [r6, #16]
 703:Drivers/STM32G4xx_HAL_Driver/Src/stm32g4xx_hal_flash.c **** 
 508              		.loc 1 703 5 is_stmt 1 view .LVU180
 705:Drivers/STM32G4xx_HAL_Driver/Src/stm32g4xx_hal_flash.c ****   }
 509              		.loc 1 705 5 view .LVU181
 705:Drivers/STM32G4xx_HAL_Driver/Src/stm32g4xx_hal_flash.c ****   }
ARM GAS  /tmp/cchx7lg8.s 			page 42


 510              		.loc 1 705 12 is_stmt 0 view .LVU182
 511 0158 AAE7     		b	.L19
 512              	.LVL40:
 513              	.L13:
 705:Drivers/STM32G4xx_HAL_Driver/Src/stm32g4xx_hal_flash.c ****   }
 514              		.loc 1 705 12 view .LVU183
 515 015a F61B     		subs	r6, r6, r7
 516              	.LVL41:
 705:Drivers/STM32G4xx_HAL_Driver/Src/stm32g4xx_hal_flash.c ****   }
 517              		.loc 1 705 12 view .LVU184
 518 015c 07F58077 		add	r7, r7, #256
 519              	.LVL42:
 520              	.L16:
 705:Drivers/STM32G4xx_HAL_Driver/Src/stm32g4xx_hal_flash.c ****   }
 521              		.loc 1 705 12 view .LVU185
 522              	.LBE69:
 523              	.LBE88:
 524              	.LBB89:
 525              	.LBB87:
 768:Drivers/STM32G4xx_HAL_Driver/Src/stm32g4xx_hal_flash.c ****   {
 526              		.loc 1 768 3 is_stmt 1 view .LVU186
 770:Drivers/STM32G4xx_HAL_Driver/Src/stm32g4xx_hal_flash.c ****     dest_addr++;
 527              		.loc 1 770 5 view .LVU187
 770:Drivers/STM32G4xx_HAL_Driver/Src/stm32g4xx_hal_flash.c ****     dest_addr++;
 528              		.loc 1 770 18 is_stmt 0 view .LVU188
 529 0160 1A68     		ldr	r2, [r3]
 770:Drivers/STM32G4xx_HAL_Driver/Src/stm32g4xx_hal_flash.c ****     dest_addr++;
 530              		.loc 1 770 16 view .LVU189
 531 0162 9A51     		str	r2, [r3, r6]
 771:Drivers/STM32G4xx_HAL_Driver/Src/stm32g4xx_hal_flash.c ****     src_addr++;
 532              		.loc 1 771 5 is_stmt 1 view .LVU190
 533              	.LVL43:
 772:Drivers/STM32G4xx_HAL_Driver/Src/stm32g4xx_hal_flash.c ****     row_index--;
 534              		.loc 1 772 5 view .LVU191
 772:Drivers/STM32G4xx_HAL_Driver/Src/stm32g4xx_hal_flash.c ****     row_index--;
 535              		.loc 1 772 13 is_stmt 0 view .LVU192
 536 0164 0433     		adds	r3, r3, #4
 537              	.LVL44:
 773:Drivers/STM32G4xx_HAL_Driver/Src/stm32g4xx_hal_flash.c ****   }
 538              		.loc 1 773 5 is_stmt 1 view .LVU193
 775:Drivers/STM32G4xx_HAL_Driver/Src/stm32g4xx_hal_flash.c **** 
 539              		.loc 1 775 9 view .LVU194
 775:Drivers/STM32G4xx_HAL_Driver/Src/stm32g4xx_hal_flash.c **** 
 540              		.loc 1 775 3 is_stmt 0 view .LVU195
 541 0166 9F42     		cmp	r7, r3
 542 0168 FAD1     		bne	.L16
 543 016a E6E7     		b	.L15
 544              	.L48:
 545              		.align	2
 546              	.L47:
 547 016c 00200240 		.word	1073881088
 548 0170 00000000 		.word	.LANCHOR0
 549              	.LBE87:
 550              	.LBE89:
 551              		.cfi_endproc
 552              	.LFE132:
 554              		.section	.text.HAL_FLASH_Program_IT,"ax",%progbits
ARM GAS  /tmp/cchx7lg8.s 			page 43


 555              		.align	1
 556              		.p2align 2,,3
 557              		.global	HAL_FLASH_Program_IT
 558              		.syntax unified
 559              		.thumb
 560              		.thumb_func
 561              		.fpu fpv4-sp-d16
 563              	HAL_FLASH_Program_IT:
 564              	.LVL45:
 565              	.LFB133:
 256:Drivers/STM32G4xx_HAL_Driver/Src/stm32g4xx_hal_flash.c ****   HAL_StatusTypeDef status;
 566              		.loc 1 256 1 is_stmt 1 view -0
 567              		.cfi_startproc
 568              		@ args = 0, pretend = 0, frame = 0
 569              		@ frame_needed = 0, uses_anonymous_args = 0
 256:Drivers/STM32G4xx_HAL_Driver/Src/stm32g4xx_hal_flash.c ****   HAL_StatusTypeDef status;
 570              		.loc 1 256 1 is_stmt 0 view .LVU197
 571 0000 2DE9F047 		push	{r4, r5, r6, r7, r8, r9, r10, lr}
 572              	.LCFI1:
 573              		.cfi_def_cfa_offset 32
 574              		.cfi_offset 4, -32
 575              		.cfi_offset 5, -28
 576              		.cfi_offset 6, -24
 577              		.cfi_offset 7, -20
 578              		.cfi_offset 8, -16
 579              		.cfi_offset 9, -12
 580              		.cfi_offset 10, -8
 581              		.cfi_offset 14, -4
 263:Drivers/STM32G4xx_HAL_Driver/Src/stm32g4xx_hal_flash.c **** 
 582              		.loc 1 263 3 view .LVU198
 583 0004 DFF84081 		ldr	r8, .L84+4
 257:Drivers/STM32G4xx_HAL_Driver/Src/stm32g4xx_hal_flash.c **** 
 584              		.loc 1 257 3 is_stmt 1 view .LVU199
 260:Drivers/STM32G4xx_HAL_Driver/Src/stm32g4xx_hal_flash.c **** 
 585              		.loc 1 260 3 view .LVU200
 263:Drivers/STM32G4xx_HAL_Driver/Src/stm32g4xx_hal_flash.c **** 
 586              		.loc 1 263 3 view .LVU201
 263:Drivers/STM32G4xx_HAL_Driver/Src/stm32g4xx_hal_flash.c **** 
 587              		.loc 1 263 3 view .LVU202
 256:Drivers/STM32G4xx_HAL_Driver/Src/stm32g4xx_hal_flash.c ****   HAL_StatusTypeDef status;
 588              		.loc 1 256 1 is_stmt 0 view .LVU203
 589 0008 9A46     		mov	r10, r3
 263:Drivers/STM32G4xx_HAL_Driver/Src/stm32g4xx_hal_flash.c **** 
 590              		.loc 1 263 3 view .LVU204
 591 000a 98F80030 		ldrb	r3, [r8]	@ zero_extendqisi2
 592 000e 012B     		cmp	r3, #1
 593 0010 00F08A80 		beq	.L65
 263:Drivers/STM32G4xx_HAL_Driver/Src/stm32g4xx_hal_flash.c **** 
 594              		.loc 1 263 3 is_stmt 1 discriminator 2 view .LVU205
 595 0014 0123     		movs	r3, #1
 596 0016 88F80030 		strb	r3, [r8]
 263:Drivers/STM32G4xx_HAL_Driver/Src/stm32g4xx_hal_flash.c **** 
 597              		.loc 1 263 3 discriminator 2 view .LVU206
 266:Drivers/STM32G4xx_HAL_Driver/Src/stm32g4xx_hal_flash.c **** 
 598              		.loc 1 266 3 discriminator 2 view .LVU207
 599 001a 9146     		mov	r9, r2
 266:Drivers/STM32G4xx_HAL_Driver/Src/stm32g4xx_hal_flash.c **** 
ARM GAS  /tmp/cchx7lg8.s 			page 44


 600              		.loc 1 266 20 is_stmt 0 discriminator 2 view .LVU208
 601 001c 0023     		movs	r3, #0
 269:Drivers/STM32G4xx_HAL_Driver/Src/stm32g4xx_hal_flash.c ****   {
 602              		.loc 1 269 6 discriminator 2 view .LVU209
 603 001e 494A     		ldr	r2, .L84
 604              	.LVL46:
 266:Drivers/STM32G4xx_HAL_Driver/Src/stm32g4xx_hal_flash.c **** 
 605              		.loc 1 266 20 discriminator 2 view .LVU210
 606 0020 C8F80430 		str	r3, [r8, #4]
 269:Drivers/STM32G4xx_HAL_Driver/Src/stm32g4xx_hal_flash.c ****   {
 607              		.loc 1 269 3 is_stmt 1 discriminator 2 view .LVU211
 269:Drivers/STM32G4xx_HAL_Driver/Src/stm32g4xx_hal_flash.c ****   {
 608              		.loc 1 269 6 is_stmt 0 discriminator 2 view .LVU212
 609 0024 1368     		ldr	r3, [r2]
 610              	.LBB106:
 611              	.LBB107:
 687:Drivers/STM32G4xx_HAL_Driver/Src/stm32g4xx_hal_flash.c ****   {
 612              		.loc 1 687 10 discriminator 2 view .LVU213
 613 0026 474D     		ldr	r5, .L84
 614              	.LBE107:
 615              	.LBE106:
 269:Drivers/STM32G4xx_HAL_Driver/Src/stm32g4xx_hal_flash.c ****   {
 616              		.loc 1 269 5 discriminator 2 view .LVU214
 617 0028 13F48063 		ands	r3, r3, #1024
 272:Drivers/STM32G4xx_HAL_Driver/Src/stm32g4xx_hal_flash.c ****     pFlash.CacheToReactivate = FLASH_CACHE_DCACHE_ENABLED;
 618              		.loc 1 272 5 is_stmt 1 discriminator 2 view .LVU215
 619 002c 1FBF     		itttt	ne
 620 002e 1368     		ldrne	r3, [r2]
 621 0030 23F48063 		bicne	r3, r3, #1024
 622 0034 1360     		strne	r3, [r2]
 273:Drivers/STM32G4xx_HAL_Driver/Src/stm32g4xx_hal_flash.c ****   }
 623              		.loc 1 273 5 discriminator 2 view .LVU216
 273:Drivers/STM32G4xx_HAL_Driver/Src/stm32g4xx_hal_flash.c ****   }
 624              		.loc 1 273 30 is_stmt 0 discriminator 2 view .LVU217
 625 0036 0223     		movne	r3, #2
 277:Drivers/STM32G4xx_HAL_Driver/Src/stm32g4xx_hal_flash.c ****   }
 626              		.loc 1 277 5 is_stmt 1 discriminator 2 view .LVU218
 627 0038 0746     		mov	r7, r0
 628 003a 0E46     		mov	r6, r1
 277:Drivers/STM32G4xx_HAL_Driver/Src/stm32g4xx_hal_flash.c ****   }
 629              		.loc 1 277 30 is_stmt 0 discriminator 2 view .LVU219
 630 003c 88F81C30 		strb	r3, [r8, #28]
 281:Drivers/STM32G4xx_HAL_Driver/Src/stm32g4xx_hal_flash.c **** 
 631              		.loc 1 281 3 is_stmt 1 discriminator 2 view .LVU220
 632              	.LVL47:
 633              	.LBB119:
 634              	.LBI106:
 678:Drivers/STM32G4xx_HAL_Driver/Src/stm32g4xx_hal_flash.c **** {
 635              		.loc 1 678 19 discriminator 2 view .LVU221
 636              	.LBB114:
 684:Drivers/STM32G4xx_HAL_Driver/Src/stm32g4xx_hal_flash.c ****   uint32_t error;
 637              		.loc 1 684 3 discriminator 2 view .LVU222
 684:Drivers/STM32G4xx_HAL_Driver/Src/stm32g4xx_hal_flash.c ****   uint32_t error;
 638              		.loc 1 684 24 is_stmt 0 discriminator 2 view .LVU223
 639 0040 FFF7FEFF 		bl	HAL_GetTick
 640              	.LVL48:
 684:Drivers/STM32G4xx_HAL_Driver/Src/stm32g4xx_hal_flash.c ****   uint32_t error;
ARM GAS  /tmp/cchx7lg8.s 			page 45


 641              		.loc 1 684 24 discriminator 2 view .LVU224
 642 0044 0446     		mov	r4, r0
 643              	.LVL49:
 685:Drivers/STM32G4xx_HAL_Driver/Src/stm32g4xx_hal_flash.c **** 
 644              		.loc 1 685 3 is_stmt 1 discriminator 2 view .LVU225
 687:Drivers/STM32G4xx_HAL_Driver/Src/stm32g4xx_hal_flash.c ****   {
 645              		.loc 1 687 3 discriminator 2 view .LVU226
 687:Drivers/STM32G4xx_HAL_Driver/Src/stm32g4xx_hal_flash.c ****   {
 646              		.loc 1 687 9 is_stmt 0 discriminator 2 view .LVU227
 647 0046 06E0     		b	.L53
 648              	.LVL50:
 649              	.L55:
 689:Drivers/STM32G4xx_HAL_Driver/Src/stm32g4xx_hal_flash.c ****     {
 650              		.loc 1 689 10 view .LVU228
 651 0048 FFF7FEFF 		bl	HAL_GetTick
 652              	.LVL51:
 689:Drivers/STM32G4xx_HAL_Driver/Src/stm32g4xx_hal_flash.c ****     {
 653              		.loc 1 689 24 view .LVU229
 654 004c A0EB040C 		sub	ip, r0, r4
 689:Drivers/STM32G4xx_HAL_Driver/Src/stm32g4xx_hal_flash.c ****     {
 655              		.loc 1 689 8 view .LVU230
 656 0050 BCF57A7F 		cmp	ip, #1000
 657 0054 25D8     		bhi	.L66
 658              	.L53:
 689:Drivers/STM32G4xx_HAL_Driver/Src/stm32g4xx_hal_flash.c ****     {
 659              		.loc 1 689 5 is_stmt 1 view .LVU231
 687:Drivers/STM32G4xx_HAL_Driver/Src/stm32g4xx_hal_flash.c ****   {
 660              		.loc 1 687 9 view .LVU232
 687:Drivers/STM32G4xx_HAL_Driver/Src/stm32g4xx_hal_flash.c ****   {
 661              		.loc 1 687 10 is_stmt 0 view .LVU233
 662 0056 2B69     		ldr	r3, [r5, #16]
 687:Drivers/STM32G4xx_HAL_Driver/Src/stm32g4xx_hal_flash.c ****   {
 663              		.loc 1 687 9 view .LVU234
 664 0058 D803     		lsls	r0, r3, #15
 665 005a F5D4     		bmi	.L55
 696:Drivers/STM32G4xx_HAL_Driver/Src/stm32g4xx_hal_flash.c ****   if (error != 0u)
 666              		.loc 1 696 3 is_stmt 1 view .LVU235
 696:Drivers/STM32G4xx_HAL_Driver/Src/stm32g4xx_hal_flash.c ****   if (error != 0u)
 667              		.loc 1 696 17 is_stmt 0 view .LVU236
 668 005c 2B69     		ldr	r3, [r5, #16]
 696:Drivers/STM32G4xx_HAL_Driver/Src/stm32g4xx_hal_flash.c ****   if (error != 0u)
 669              		.loc 1 696 9 view .LVU237
 670 005e 4CF2FA32 		movw	r2, #50170
 671              	.LVL52:
 697:Drivers/STM32G4xx_HAL_Driver/Src/stm32g4xx_hal_flash.c ****   {
 672              		.loc 1 697 3 is_stmt 1 view .LVU238
 697:Drivers/STM32G4xx_HAL_Driver/Src/stm32g4xx_hal_flash.c ****   {
 673              		.loc 1 697 6 is_stmt 0 view .LVU239
 674 0062 1340     		ands	r3, r3, r2
 675              	.LVL53:
 697:Drivers/STM32G4xx_HAL_Driver/Src/stm32g4xx_hal_flash.c ****   {
 676              		.loc 1 697 6 view .LVU240
 677 0064 51D1     		bne	.L81
 678              	.LBB108:
 679              	.LBI108:
 678:Drivers/STM32G4xx_HAL_Driver/Src/stm32g4xx_hal_flash.c **** {
 680              		.loc 1 678 19 is_stmt 1 view .LVU241
ARM GAS  /tmp/cchx7lg8.s 			page 46


 681              	.LVL54:
 682              	.LBB109:
 709:Drivers/STM32G4xx_HAL_Driver/Src/stm32g4xx_hal_flash.c ****   {
 683              		.loc 1 709 3 view .LVU242
 709:Drivers/STM32G4xx_HAL_Driver/Src/stm32g4xx_hal_flash.c ****   {
 684              		.loc 1 709 7 is_stmt 0 view .LVU243
 685 0066 2B69     		ldr	r3, [r5, #16]
 686              	.LVL55:
 709:Drivers/STM32G4xx_HAL_Driver/Src/stm32g4xx_hal_flash.c ****   {
 687              		.loc 1 709 6 view .LVU244
 688 0068 D907     		lsls	r1, r3, #31
 689 006a 20D4     		bmi	.L82
 690              	.LVL56:
 709:Drivers/STM32G4xx_HAL_Driver/Src/stm32g4xx_hal_flash.c ****   {
 691              		.loc 1 709 6 view .LVU245
 692              	.LBE109:
 693              	.LBE108:
 694              	.LBE114:
 695              	.LBE119:
 291:Drivers/STM32G4xx_HAL_Driver/Src/stm32g4xx_hal_flash.c ****     {
 696              		.loc 1 291 5 is_stmt 1 view .LVU246
 291:Drivers/STM32G4xx_HAL_Driver/Src/stm32g4xx_hal_flash.c ****     {
 697              		.loc 1 291 8 is_stmt 0 view .LVU247
 698 006c 022F     		cmp	r7, #2
 699 006e 22D0     		beq	.L83
 700              	.L58:
 297:Drivers/STM32G4xx_HAL_Driver/Src/stm32g4xx_hal_flash.c ****     }
 701              		.loc 1 297 7 is_stmt 1 view .LVU248
 302:Drivers/STM32G4xx_HAL_Driver/Src/stm32g4xx_hal_flash.c **** 
 702              		.loc 1 302 5 is_stmt 0 view .LVU249
 703 0070 344B     		ldr	r3, .L84
 297:Drivers/STM32G4xx_HAL_Driver/Src/stm32g4xx_hal_flash.c ****     }
 704              		.loc 1 297 31 view .LVU250
 705 0072 0322     		movs	r2, #3
 706 0074 88F80820 		strb	r2, [r8, #8]
 299:Drivers/STM32G4xx_HAL_Driver/Src/stm32g4xx_hal_flash.c **** 
 707              		.loc 1 299 5 is_stmt 1 view .LVU251
 299:Drivers/STM32G4xx_HAL_Driver/Src/stm32g4xx_hal_flash.c **** 
 708              		.loc 1 299 20 is_stmt 0 view .LVU252
 709 0078 C8F80C60 		str	r6, [r8, #12]
 302:Drivers/STM32G4xx_HAL_Driver/Src/stm32g4xx_hal_flash.c **** 
 710              		.loc 1 302 5 is_stmt 1 view .LVU253
 302:Drivers/STM32G4xx_HAL_Driver/Src/stm32g4xx_hal_flash.c **** 
 711              		.loc 1 302 5 view .LVU254
 302:Drivers/STM32G4xx_HAL_Driver/Src/stm32g4xx_hal_flash.c **** 
 712              		.loc 1 302 5 view .LVU255
 302:Drivers/STM32G4xx_HAL_Driver/Src/stm32g4xx_hal_flash.c **** 
 713              		.loc 1 302 5 view .LVU256
 714 007c 5A69     		ldr	r2, [r3, #20]
 715 007e 42F04072 		orr	r2, r2, #50331648
 716 0082 5A61     		str	r2, [r3, #20]
 302:Drivers/STM32G4xx_HAL_Driver/Src/stm32g4xx_hal_flash.c **** 
 717              		.loc 1 302 5 view .LVU257
 304:Drivers/STM32G4xx_HAL_Driver/Src/stm32g4xx_hal_flash.c ****     {
 718              		.loc 1 304 5 view .LVU258
 304:Drivers/STM32G4xx_HAL_Driver/Src/stm32g4xx_hal_flash.c ****     {
 719              		.loc 1 304 8 is_stmt 0 view .LVU259
ARM GAS  /tmp/cchx7lg8.s 			page 47


 720 0084 002F     		cmp	r7, #0
 721 0086 48D1     		bne	.L60
 307:Drivers/STM32G4xx_HAL_Driver/Src/stm32g4xx_hal_flash.c ****     }
 722              		.loc 1 307 7 is_stmt 1 view .LVU260
 723              	.LVL57:
 724              	.LBB120:
 725              	.LBI120:
 725:Drivers/STM32G4xx_HAL_Driver/Src/stm32g4xx_hal_flash.c **** {
 726              		.loc 1 725 13 view .LVU261
 727              	.LBB121:
 728:Drivers/STM32G4xx_HAL_Driver/Src/stm32g4xx_hal_flash.c **** 
 728              		.loc 1 728 3 view .LVU262
 731:Drivers/STM32G4xx_HAL_Driver/Src/stm32g4xx_hal_flash.c **** 
 729              		.loc 1 731 3 view .LVU263
 730 0088 5A69     		ldr	r2, [r3, #20]
 731 008a 42F00102 		orr	r2, r2, #1
 732 008e 5A61     		str	r2, [r3, #20]
 734:Drivers/STM32G4xx_HAL_Driver/Src/stm32g4xx_hal_flash.c **** 
 733              		.loc 1 734 3 view .LVU264
 734:Drivers/STM32G4xx_HAL_Driver/Src/stm32g4xx_hal_flash.c **** 
 734              		.loc 1 734 26 is_stmt 0 view .LVU265
 735 0090 C6F80090 		str	r9, [r6]
 738:Drivers/STM32G4xx_HAL_Driver/Src/stm32g4xx_hal_flash.c **** 
 736              		.loc 1 738 3 is_stmt 1 view .LVU266
 737              	.LBB122:
 738              	.LBI122:
 933:Drivers/CMSIS/Include/cmsis_gcc.h **** {
 739              		.loc 2 933 27 view .LVU267
 740              	.LBB123:
 741              		.loc 2 935 3 view .LVU268
 742              		.syntax unified
 743              	@ 935 "Drivers/CMSIS/Include/cmsis_gcc.h" 1
 744 0094 BFF36F8F 		isb 0xF
 745              	@ 0 "" 2
 746              		.thumb
 747              		.syntax unified
 748              	.LBE123:
 749              	.LBE122:
 741:Drivers/STM32G4xx_HAL_Driver/Src/stm32g4xx_hal_flash.c **** }
 750              		.loc 1 741 3 view .LVU269
 741:Drivers/STM32G4xx_HAL_Driver/Src/stm32g4xx_hal_flash.c **** }
 751              		.loc 1 741 33 is_stmt 0 view .LVU270
 752 0098 C6F804A0 		str	r10, [r6, #4]
 742:Drivers/STM32G4xx_HAL_Driver/Src/stm32g4xx_hal_flash.c **** 
 753              		.loc 1 742 1 view .LVU271
 754 009c 3846     		mov	r0, r7
 755              	.LVL58:
 756              	.L50:
 742:Drivers/STM32G4xx_HAL_Driver/Src/stm32g4xx_hal_flash.c **** 
 757              		.loc 1 742 1 view .LVU272
 758              	.LBE121:
 759              	.LBE120:
 321:Drivers/STM32G4xx_HAL_Driver/Src/stm32g4xx_hal_flash.c **** 
 760              		.loc 1 321 1 view .LVU273
 761 009e BDE8F087 		pop	{r4, r5, r6, r7, r8, r9, r10, pc}
 762              	.LVL59:
 763              	.L66:
ARM GAS  /tmp/cchx7lg8.s 			page 48


 764              	.LBB124:
 765              	.LBB115:
 321:Drivers/STM32G4xx_HAL_Driver/Src/stm32g4xx_hal_flash.c **** 
 766              		.loc 1 321 1 view .LVU274
 767 00a2 0320     		movs	r0, #3
 768              	.LVL60:
 769              	.L54:
 321:Drivers/STM32G4xx_HAL_Driver/Src/stm32g4xx_hal_flash.c **** 
 770              		.loc 1 321 1 view .LVU275
 771              	.LBE115:
 772              	.LBE124:
 286:Drivers/STM32G4xx_HAL_Driver/Src/stm32g4xx_hal_flash.c ****   }
 773              		.loc 1 286 5 is_stmt 1 view .LVU276
 286:Drivers/STM32G4xx_HAL_Driver/Src/stm32g4xx_hal_flash.c ****   }
 774              		.loc 1 286 5 view .LVU277
 775 00a4 0023     		movs	r3, #0
 776 00a6 88F80030 		strb	r3, [r8]
 286:Drivers/STM32G4xx_HAL_Driver/Src/stm32g4xx_hal_flash.c ****   }
 777              		.loc 1 286 5 view .LVU278
 321:Drivers/STM32G4xx_HAL_Driver/Src/stm32g4xx_hal_flash.c **** 
 778              		.loc 1 321 1 is_stmt 0 view .LVU279
 779 00aa BDE8F087 		pop	{r4, r5, r6, r7, r8, r9, r10, pc}
 780              	.LVL61:
 781              	.L82:
 782              	.LBB125:
 783              	.LBB116:
 784              	.LBB112:
 785              	.LBB110:
 712:Drivers/STM32G4xx_HAL_Driver/Src/stm32g4xx_hal_flash.c ****   }
 786              		.loc 1 712 5 is_stmt 1 view .LVU280
 712:Drivers/STM32G4xx_HAL_Driver/Src/stm32g4xx_hal_flash.c ****   }
 787              		.loc 1 712 5 view .LVU281
 712:Drivers/STM32G4xx_HAL_Driver/Src/stm32g4xx_hal_flash.c ****   }
 788              		.loc 1 712 5 view .LVU282
 712:Drivers/STM32G4xx_HAL_Driver/Src/stm32g4xx_hal_flash.c ****   }
 789              		.loc 1 712 5 view .LVU283
 790 00ae 0123     		movs	r3, #1
 791              	.LBE110:
 792              	.LBE112:
 793              	.LBE116:
 794              	.LBE125:
 291:Drivers/STM32G4xx_HAL_Driver/Src/stm32g4xx_hal_flash.c ****     {
 795              		.loc 1 291 8 is_stmt 0 view .LVU284
 796 00b0 022F     		cmp	r7, #2
 797              	.LBB126:
 798              	.LBB117:
 799              	.LBB113:
 800              	.LBB111:
 712:Drivers/STM32G4xx_HAL_Driver/Src/stm32g4xx_hal_flash.c ****   }
 801              		.loc 1 712 5 view .LVU285
 802 00b2 2B61     		str	r3, [r5, #16]
 803              	.LVL62:
 712:Drivers/STM32G4xx_HAL_Driver/Src/stm32g4xx_hal_flash.c ****   }
 804              		.loc 1 712 5 view .LVU286
 805              	.LBE111:
 806              	.LBE113:
 807              	.LBE117:
ARM GAS  /tmp/cchx7lg8.s 			page 49


 808              	.LBE126:
 283:Drivers/STM32G4xx_HAL_Driver/Src/stm32g4xx_hal_flash.c ****   {
 809              		.loc 1 283 3 is_stmt 1 view .LVU287
 291:Drivers/STM32G4xx_HAL_Driver/Src/stm32g4xx_hal_flash.c ****     {
 810              		.loc 1 291 5 view .LVU288
 291:Drivers/STM32G4xx_HAL_Driver/Src/stm32g4xx_hal_flash.c ****     {
 811              		.loc 1 291 8 is_stmt 0 view .LVU289
 812 00b4 DCD1     		bne	.L58
 813              	.L83:
 293:Drivers/STM32G4xx_HAL_Driver/Src/stm32g4xx_hal_flash.c ****     }
 814              		.loc 1 293 7 is_stmt 1 view .LVU290
 302:Drivers/STM32G4xx_HAL_Driver/Src/stm32g4xx_hal_flash.c **** 
 815              		.loc 1 302 5 is_stmt 0 view .LVU291
 816 00b6 234A     		ldr	r2, .L84
 293:Drivers/STM32G4xx_HAL_Driver/Src/stm32g4xx_hal_flash.c ****     }
 817              		.loc 1 293 31 view .LVU292
 818 00b8 0423     		movs	r3, #4
 819 00ba 88F80830 		strb	r3, [r8, #8]
 299:Drivers/STM32G4xx_HAL_Driver/Src/stm32g4xx_hal_flash.c **** 
 820              		.loc 1 299 5 is_stmt 1 view .LVU293
 299:Drivers/STM32G4xx_HAL_Driver/Src/stm32g4xx_hal_flash.c **** 
 821              		.loc 1 299 20 is_stmt 0 view .LVU294
 822 00be C8F80C60 		str	r6, [r8, #12]
 302:Drivers/STM32G4xx_HAL_Driver/Src/stm32g4xx_hal_flash.c **** 
 823              		.loc 1 302 5 is_stmt 1 view .LVU295
 302:Drivers/STM32G4xx_HAL_Driver/Src/stm32g4xx_hal_flash.c **** 
 824              		.loc 1 302 5 view .LVU296
 302:Drivers/STM32G4xx_HAL_Driver/Src/stm32g4xx_hal_flash.c **** 
 825              		.loc 1 302 5 view .LVU297
 302:Drivers/STM32G4xx_HAL_Driver/Src/stm32g4xx_hal_flash.c **** 
 826              		.loc 1 302 5 view .LVU298
 827 00c2 5369     		ldr	r3, [r2, #20]
 828 00c4 43F04073 		orr	r3, r3, #50331648
 829 00c8 5361     		str	r3, [r2, #20]
 302:Drivers/STM32G4xx_HAL_Driver/Src/stm32g4xx_hal_flash.c **** 
 830              		.loc 1 302 5 view .LVU299
 304:Drivers/STM32G4xx_HAL_Driver/Src/stm32g4xx_hal_flash.c ****     {
 831              		.loc 1 304 5 view .LVU300
 309:Drivers/STM32G4xx_HAL_Driver/Src/stm32g4xx_hal_flash.c ****     {
 832              		.loc 1 309 10 view .LVU301
 833              	.LVL63:
 834              	.L59:
 312:Drivers/STM32G4xx_HAL_Driver/Src/stm32g4xx_hal_flash.c ****     }
 835              		.loc 1 312 7 view .LVU302
 836              	.LBB127:
 837              	.LBI127:
 750:Drivers/STM32G4xx_HAL_Driver/Src/stm32g4xx_hal_flash.c **** {
 838              		.loc 1 750 13 view .LVU303
 839              	.LBB128:
 752:Drivers/STM32G4xx_HAL_Driver/Src/stm32g4xx_hal_flash.c ****   uint32_t *dest_addr = (uint32_t *)Address;
 840              		.loc 1 752 3 view .LVU304
 753:Drivers/STM32G4xx_HAL_Driver/Src/stm32g4xx_hal_flash.c ****   uint32_t *src_addr = (uint32_t *)DataAddress;
 841              		.loc 1 753 3 view .LVU305
 754:Drivers/STM32G4xx_HAL_Driver/Src/stm32g4xx_hal_flash.c ****   uint32_t primask_bit;
 842              		.loc 1 754 3 view .LVU306
 761:Drivers/STM32G4xx_HAL_Driver/Src/stm32g4xx_hal_flash.c **** 
 843              		.loc 1 761 3 is_stmt 0 view .LVU307
ARM GAS  /tmp/cchx7lg8.s 			page 50


 844 00ca 1E49     		ldr	r1, .L84
 845 00cc 4A69     		ldr	r2, [r1, #20]
 846 00ce 42F48022 		orr	r2, r2, #262144
 754:Drivers/STM32G4xx_HAL_Driver/Src/stm32g4xx_hal_flash.c ****   uint32_t primask_bit;
 847              		.loc 1 754 13 view .LVU308
 848 00d2 4B46     		mov	r3, r9
 849              	.LVL64:
 755:Drivers/STM32G4xx_HAL_Driver/Src/stm32g4xx_hal_flash.c **** 
 850              		.loc 1 755 3 is_stmt 1 view .LVU309
 758:Drivers/STM32G4xx_HAL_Driver/Src/stm32g4xx_hal_flash.c **** 
 851              		.loc 1 758 3 view .LVU310
 761:Drivers/STM32G4xx_HAL_Driver/Src/stm32g4xx_hal_flash.c **** 
 852              		.loc 1 761 3 view .LVU311
 853 00d4 4A61     		str	r2, [r1, #20]
 764:Drivers/STM32G4xx_HAL_Driver/Src/stm32g4xx_hal_flash.c ****   __disable_irq();
 854              		.loc 1 764 3 view .LVU312
 855              	.LBB129:
 856              	.LBI129:
 449:Drivers/CMSIS/Include/cmsis_gcc.h **** {
 857              		.loc 2 449 31 view .LVU313
 858              	.LBB130:
 451:Drivers/CMSIS/Include/cmsis_gcc.h **** 
 859              		.loc 2 451 3 view .LVU314
 453:Drivers/CMSIS/Include/cmsis_gcc.h ****   return(result);
 860              		.loc 2 453 3 view .LVU315
 861              		.syntax unified
 862              	@ 453 "Drivers/CMSIS/Include/cmsis_gcc.h" 1
 863 00d6 EFF31084 		MRS r4, primask
 864              	@ 0 "" 2
 865              	.LVL65:
 454:Drivers/CMSIS/Include/cmsis_gcc.h **** }
 866              		.loc 2 454 3 view .LVU316
 454:Drivers/CMSIS/Include/cmsis_gcc.h **** }
 867              		.loc 2 454 3 is_stmt 0 view .LVU317
 868              		.thumb
 869              		.syntax unified
 870              	.LBE130:
 871              	.LBE129:
 765:Drivers/STM32G4xx_HAL_Driver/Src/stm32g4xx_hal_flash.c **** 
 872              		.loc 1 765 3 is_stmt 1 view .LVU318
 873              	.LBB131:
 874              	.LBI131:
 207:Drivers/CMSIS/Include/cmsis_gcc.h **** {
 875              		.loc 2 207 27 view .LVU319
 876              	.LBB132:
 209:Drivers/CMSIS/Include/cmsis_gcc.h **** }
 877              		.loc 2 209 3 view .LVU320
 878              		.syntax unified
 879              	@ 209 "Drivers/CMSIS/Include/cmsis_gcc.h" 1
 880 00da 72B6     		cpsid i
 881              	@ 0 "" 2
 882              		.thumb
 883              		.syntax unified
 884 00dc 46EA0902 		orr	r2, r6, r9
 885 00e0 5207     		lsls	r2, r2, #29
 886 00e2 24D1     		bne	.L61
 887              	.LVL66:
ARM GAS  /tmp/cchx7lg8.s 			page 51


 209:Drivers/CMSIS/Include/cmsis_gcc.h **** }
 888              		.loc 2 209 3 is_stmt 0 view .LVU321
 889 00e4 09F10402 		add	r2, r9, #4
 890 00e8 B242     		cmp	r2, r6
 891 00ea 20D0     		beq	.L61
 892 00ec 09F58079 		add	r9, r9, #256
 893 00f0 F61A     		subs	r6, r6, r3
 894              	.LVL67:
 895              	.L62:
 209:Drivers/CMSIS/Include/cmsis_gcc.h **** }
 896              		.loc 2 209 3 view .LVU322
 897              	.LBE132:
 898              	.LBE131:
 768:Drivers/STM32G4xx_HAL_Driver/Src/stm32g4xx_hal_flash.c ****   {
 899              		.loc 1 768 3 is_stmt 1 view .LVU323
 770:Drivers/STM32G4xx_HAL_Driver/Src/stm32g4xx_hal_flash.c ****     dest_addr++;
 900              		.loc 1 770 5 view .LVU324
 770:Drivers/STM32G4xx_HAL_Driver/Src/stm32g4xx_hal_flash.c ****     dest_addr++;
 901              		.loc 1 770 18 is_stmt 0 view .LVU325
 902 00f2 D3E90001 		ldrd	r0, [r3]
 770:Drivers/STM32G4xx_HAL_Driver/Src/stm32g4xx_hal_flash.c ****     dest_addr++;
 903              		.loc 1 770 16 view .LVU326
 904 00f6 F218     		adds	r2, r6, r3
 905 00f8 0833     		adds	r3, r3, #8
 906 00fa 4B45     		cmp	r3, r9
 907 00fc C2E90001 		strd	r0, [r2]
 771:Drivers/STM32G4xx_HAL_Driver/Src/stm32g4xx_hal_flash.c ****     src_addr++;
 908              		.loc 1 771 5 is_stmt 1 view .LVU327
 772:Drivers/STM32G4xx_HAL_Driver/Src/stm32g4xx_hal_flash.c ****     row_index--;
 909              		.loc 1 772 5 view .LVU328
 773:Drivers/STM32G4xx_HAL_Driver/Src/stm32g4xx_hal_flash.c ****   }
 910              		.loc 1 773 5 view .LVU329
 775:Drivers/STM32G4xx_HAL_Driver/Src/stm32g4xx_hal_flash.c **** 
 911              		.loc 1 775 9 view .LVU330
 912 0100 F7D1     		bne	.L62
 913              	.LVL68:
 914              	.L63:
 915              		.loc 1 778 3 view .LVU331
 916              	.LBB133:
 917              	.LBI133:
 479:Drivers/CMSIS/Include/cmsis_gcc.h **** {
 918              		.loc 2 479 27 view .LVU332
 919              	.LBB134:
 481:Drivers/CMSIS/Include/cmsis_gcc.h **** }
 920              		.loc 2 481 3 view .LVU333
 921              		.syntax unified
 922              	@ 481 "Drivers/CMSIS/Include/cmsis_gcc.h" 1
 923 0102 84F31088 		MSR primask, r4
 924              	@ 0 "" 2
 925              	.LVL69:
 481:Drivers/CMSIS/Include/cmsis_gcc.h **** }
 926              		.loc 2 481 3 is_stmt 0 view .LVU334
 927              		.thumb
 928              		.syntax unified
 929              	.LBE134:
 930              	.LBE133:
 779:Drivers/STM32G4xx_HAL_Driver/Src/stm32g4xx_hal_flash.c **** }
ARM GAS  /tmp/cchx7lg8.s 			page 52


 931              		.loc 1 779 1 view .LVU335
 932 0106 0020     		movs	r0, #0
 933 0108 C9E7     		b	.L50
 934              	.LVL70:
 935              	.L81:
 936              		.loc 1 779 1 view .LVU336
 937              	.LBE128:
 938              	.LBE127:
 939              	.LBB136:
 940              	.LBB118:
 700:Drivers/STM32G4xx_HAL_Driver/Src/stm32g4xx_hal_flash.c **** 
 941              		.loc 1 700 5 is_stmt 1 view .LVU337
 700:Drivers/STM32G4xx_HAL_Driver/Src/stm32g4xx_hal_flash.c **** 
 942              		.loc 1 700 22 is_stmt 0 view .LVU338
 943 010a D8F80420 		ldr	r2, [r8, #4]
 944 010e 1A43     		orrs	r2, r2, r3
 945 0110 C8F80420 		str	r2, [r8, #4]
 703:Drivers/STM32G4xx_HAL_Driver/Src/stm32g4xx_hal_flash.c **** 
 946              		.loc 1 703 5 is_stmt 1 view .LVU339
 703:Drivers/STM32G4xx_HAL_Driver/Src/stm32g4xx_hal_flash.c **** 
 947              		.loc 1 703 5 view .LVU340
 703:Drivers/STM32G4xx_HAL_Driver/Src/stm32g4xx_hal_flash.c **** 
 948              		.loc 1 703 5 view .LVU341
 703:Drivers/STM32G4xx_HAL_Driver/Src/stm32g4xx_hal_flash.c **** 
 949              		.loc 1 703 5 view .LVU342
 705:Drivers/STM32G4xx_HAL_Driver/Src/stm32g4xx_hal_flash.c ****   }
 950              		.loc 1 705 12 is_stmt 0 view .LVU343
 951 0114 0120     		movs	r0, #1
 703:Drivers/STM32G4xx_HAL_Driver/Src/stm32g4xx_hal_flash.c **** 
 952              		.loc 1 703 5 view .LVU344
 953 0116 2B61     		str	r3, [r5, #16]
 703:Drivers/STM32G4xx_HAL_Driver/Src/stm32g4xx_hal_flash.c **** 
 954              		.loc 1 703 5 is_stmt 1 view .LVU345
 705:Drivers/STM32G4xx_HAL_Driver/Src/stm32g4xx_hal_flash.c ****   }
 955              		.loc 1 705 5 view .LVU346
 956              	.LVL71:
 705:Drivers/STM32G4xx_HAL_Driver/Src/stm32g4xx_hal_flash.c ****   }
 957              		.loc 1 705 5 is_stmt 0 view .LVU347
 958              	.LBE118:
 959              	.LBE136:
 283:Drivers/STM32G4xx_HAL_Driver/Src/stm32g4xx_hal_flash.c ****   {
 960              		.loc 1 283 3 is_stmt 1 view .LVU348
 961 0118 C4E7     		b	.L54
 962              	.LVL72:
 963              	.L60:
 309:Drivers/STM32G4xx_HAL_Driver/Src/stm32g4xx_hal_flash.c ****     {
 964              		.loc 1 309 10 view .LVU349
 309:Drivers/STM32G4xx_HAL_Driver/Src/stm32g4xx_hal_flash.c ****     {
 965              		.loc 1 309 54 is_stmt 0 view .LVU350
 966 011a 013F     		subs	r7, r7, #1
 967              	.LVL73:
 309:Drivers/STM32G4xx_HAL_Driver/Src/stm32g4xx_hal_flash.c ****     {
 968              		.loc 1 309 13 view .LVU351
 969 011c 012F     		cmp	r7, #1
 970 011e 88BF     		it	hi
 971 0120 0020     		movhi	r0, #0
 972 0122 D2D9     		bls	.L59
ARM GAS  /tmp/cchx7lg8.s 			page 53


 321:Drivers/STM32G4xx_HAL_Driver/Src/stm32g4xx_hal_flash.c **** 
 973              		.loc 1 321 1 view .LVU352
 974 0124 BDE8F087 		pop	{r4, r5, r6, r7, r8, r9, r10, pc}
 975              	.LVL74:
 976              	.L65:
 263:Drivers/STM32G4xx_HAL_Driver/Src/stm32g4xx_hal_flash.c **** 
 977              		.loc 1 263 3 view .LVU353
 978 0128 0220     		movs	r0, #2
 979              	.LVL75:
 321:Drivers/STM32G4xx_HAL_Driver/Src/stm32g4xx_hal_flash.c **** 
 980              		.loc 1 321 1 view .LVU354
 981 012a BDE8F087 		pop	{r4, r5, r6, r7, r8, r9, r10, pc}
 982              	.LVL76:
 983              	.L61:
 321:Drivers/STM32G4xx_HAL_Driver/Src/stm32g4xx_hal_flash.c **** 
 984              		.loc 1 321 1 view .LVU355
 985 012e 09F58071 		add	r1, r9, #256
 986 0132 A6EB0906 		sub	r6, r6, r9
 987              	.LVL77:
 988              	.L64:
 989              	.LBB137:
 990              	.LBB135:
 768:Drivers/STM32G4xx_HAL_Driver/Src/stm32g4xx_hal_flash.c ****   {
 991              		.loc 1 768 3 is_stmt 1 view .LVU356
 770:Drivers/STM32G4xx_HAL_Driver/Src/stm32g4xx_hal_flash.c ****     dest_addr++;
 992              		.loc 1 770 5 view .LVU357
 770:Drivers/STM32G4xx_HAL_Driver/Src/stm32g4xx_hal_flash.c ****     dest_addr++;
 993              		.loc 1 770 18 is_stmt 0 view .LVU358
 994 0136 1A68     		ldr	r2, [r3]
 770:Drivers/STM32G4xx_HAL_Driver/Src/stm32g4xx_hal_flash.c ****     dest_addr++;
 995              		.loc 1 770 16 view .LVU359
 996 0138 9A51     		str	r2, [r3, r6]
 771:Drivers/STM32G4xx_HAL_Driver/Src/stm32g4xx_hal_flash.c ****     src_addr++;
 997              		.loc 1 771 5 is_stmt 1 view .LVU360
 998              	.LVL78:
 772:Drivers/STM32G4xx_HAL_Driver/Src/stm32g4xx_hal_flash.c ****     row_index--;
 999              		.loc 1 772 5 view .LVU361
 772:Drivers/STM32G4xx_HAL_Driver/Src/stm32g4xx_hal_flash.c ****     row_index--;
 1000              		.loc 1 772 13 is_stmt 0 view .LVU362
 1001 013a 0433     		adds	r3, r3, #4
 1002              	.LVL79:
 773:Drivers/STM32G4xx_HAL_Driver/Src/stm32g4xx_hal_flash.c ****   }
 1003              		.loc 1 773 5 is_stmt 1 view .LVU363
 775:Drivers/STM32G4xx_HAL_Driver/Src/stm32g4xx_hal_flash.c **** 
 1004              		.loc 1 775 9 view .LVU364
 775:Drivers/STM32G4xx_HAL_Driver/Src/stm32g4xx_hal_flash.c **** 
 1005              		.loc 1 775 3 is_stmt 0 view .LVU365
 1006 013c 9942     		cmp	r1, r3
 1007 013e FAD1     		bne	.L64
 1008 0140 DFE7     		b	.L63
 1009              	.L85:
 1010 0142 00BF     		.align	2
 1011              	.L84:
 1012 0144 00200240 		.word	1073881088
 1013 0148 00000000 		.word	.LANCHOR0
 1014              	.LBE135:
 1015              	.LBE137:
ARM GAS  /tmp/cchx7lg8.s 			page 54


 1016              		.cfi_endproc
 1017              	.LFE133:
 1019              		.section	.text.HAL_FLASH_EndOfOperationCallback,"ax",%progbits
 1020              		.align	1
 1021              		.p2align 2,,3
 1022              		.weak	HAL_FLASH_EndOfOperationCallback
 1023              		.syntax unified
 1024              		.thumb
 1025              		.thumb_func
 1026              		.fpu fpv4-sp-d16
 1028              	HAL_FLASH_EndOfOperationCallback:
 1029              	.LVL80:
 1030              	.LFB135:
 468:Drivers/STM32G4xx_HAL_Driver/Src/stm32g4xx_hal_flash.c ****   /* Prevent unused argument(s) compilation warning */
 1031              		.loc 1 468 1 is_stmt 1 view -0
 1032              		.cfi_startproc
 1033              		@ args = 0, pretend = 0, frame = 0
 1034              		@ frame_needed = 0, uses_anonymous_args = 0
 1035              		@ link register save eliminated.
 470:Drivers/STM32G4xx_HAL_Driver/Src/stm32g4xx_hal_flash.c **** 
 1036              		.loc 1 470 3 view .LVU367
 475:Drivers/STM32G4xx_HAL_Driver/Src/stm32g4xx_hal_flash.c **** 
 1037              		.loc 1 475 1 is_stmt 0 view .LVU368
 1038 0000 7047     		bx	lr
 1039              		.cfi_endproc
 1040              	.LFE135:
 1042 0002 00BF     		.section	.text.HAL_FLASH_OperationErrorCallback,"ax",%progbits
 1043              		.align	1
 1044              		.p2align 2,,3
 1045              		.weak	HAL_FLASH_OperationErrorCallback
 1046              		.syntax unified
 1047              		.thumb
 1048              		.thumb_func
 1049              		.fpu fpv4-sp-d16
 1051              	HAL_FLASH_OperationErrorCallback:
 1052              	.LFB148:
 1053              		.cfi_startproc
 1054              		@ args = 0, pretend = 0, frame = 0
 1055              		@ frame_needed = 0, uses_anonymous_args = 0
 1056              		@ link register save eliminated.
 1057 0000 7047     		bx	lr
 1058              		.cfi_endproc
 1059              	.LFE148:
 1061 0002 00BF     		.section	.text.HAL_FLASH_IRQHandler,"ax",%progbits
 1062              		.align	1
 1063              		.p2align 2,,3
 1064              		.global	HAL_FLASH_IRQHandler
 1065              		.syntax unified
 1066              		.thumb
 1067              		.thumb_func
 1068              		.fpu fpv4-sp-d16
 1070              	HAL_FLASH_IRQHandler:
 1071              	.LFB134:
 328:Drivers/STM32G4xx_HAL_Driver/Src/stm32g4xx_hal_flash.c ****   uint32_t tmp_page;
 1072              		.loc 1 328 1 is_stmt 1 view -0
 1073              		.cfi_startproc
 1074              		@ args = 0, pretend = 0, frame = 0
ARM GAS  /tmp/cchx7lg8.s 			page 55


 1075              		@ frame_needed = 0, uses_anonymous_args = 0
 329:Drivers/STM32G4xx_HAL_Driver/Src/stm32g4xx_hal_flash.c ****   uint32_t error;
 1076              		.loc 1 329 3 view .LVU370
 330:Drivers/STM32G4xx_HAL_Driver/Src/stm32g4xx_hal_flash.c ****   FLASH_ProcedureTypeDef procedure;
 1077              		.loc 1 330 3 view .LVU371
 331:Drivers/STM32G4xx_HAL_Driver/Src/stm32g4xx_hal_flash.c **** 
 1078              		.loc 1 331 3 view .LVU372
 334:Drivers/STM32G4xx_HAL_Driver/Src/stm32g4xx_hal_flash.c **** #if defined (FLASH_OPTR_DBANK)
 1079              		.loc 1 334 3 view .LVU373
 1080 0000 3A4A     		ldr	r2, .L113
 1081 0002 5369     		ldr	r3, [r2, #20]
 1082 0004 23F4FF73 		bic	r3, r3, #510
 328:Drivers/STM32G4xx_HAL_Driver/Src/stm32g4xx_hal_flash.c ****   uint32_t tmp_page;
 1083              		.loc 1 328 1 is_stmt 0 view .LVU374
 1084 0008 10B5     		push	{r4, lr}
 1085              	.LCFI2:
 1086              		.cfi_def_cfa_offset 8
 1087              		.cfi_offset 4, -8
 1088              		.cfi_offset 14, -4
 334:Drivers/STM32G4xx_HAL_Driver/Src/stm32g4xx_hal_flash.c **** #if defined (FLASH_OPTR_DBANK)
 1089              		.loc 1 334 3 view .LVU375
 1090 000a 23F00103 		bic	r3, r3, #1
 340:Drivers/STM32G4xx_HAL_Driver/Src/stm32g4xx_hal_flash.c ****   {
 1091              		.loc 1 340 13 view .LVU376
 1092 000e 384C     		ldr	r4, .L113+4
 334:Drivers/STM32G4xx_HAL_Driver/Src/stm32g4xx_hal_flash.c **** #if defined (FLASH_OPTR_DBANK)
 1093              		.loc 1 334 3 view .LVU377
 1094 0010 5361     		str	r3, [r2, #20]
 340:Drivers/STM32G4xx_HAL_Driver/Src/stm32g4xx_hal_flash.c ****   {
 1095              		.loc 1 340 3 is_stmt 1 view .LVU378
 340:Drivers/STM32G4xx_HAL_Driver/Src/stm32g4xx_hal_flash.c ****   {
 1096              		.loc 1 340 13 is_stmt 0 view .LVU379
 1097 0012 237A     		ldrb	r3, [r4, #8]	@ zero_extendqisi2
 340:Drivers/STM32G4xx_HAL_Driver/Src/stm32g4xx_hal_flash.c ****   {
 1098              		.loc 1 340 6 view .LVU380
 1099 0014 042B     		cmp	r3, #4
 1100 0016 03D1     		bne	.L89
 342:Drivers/STM32G4xx_HAL_Driver/Src/stm32g4xx_hal_flash.c ****   }
 1101              		.loc 1 342 5 is_stmt 1 view .LVU381
 1102 0018 5369     		ldr	r3, [r2, #20]
 1103 001a 23F48023 		bic	r3, r3, #262144
 1104 001e 5361     		str	r3, [r2, #20]
 1105              	.L89:
 346:Drivers/STM32G4xx_HAL_Driver/Src/stm32g4xx_hal_flash.c **** 
 1106              		.loc 1 346 3 view .LVU382
 346:Drivers/STM32G4xx_HAL_Driver/Src/stm32g4xx_hal_flash.c **** 
 1107              		.loc 1 346 17 is_stmt 0 view .LVU383
 1108 0020 3249     		ldr	r1, .L113
 1109 0022 0B69     		ldr	r3, [r1, #16]
 346:Drivers/STM32G4xx_HAL_Driver/Src/stm32g4xx_hal_flash.c **** 
 1110              		.loc 1 346 9 view .LVU384
 1111 0024 4CF2FA32 		movw	r2, #50170
 1112              	.LVL81:
 348:Drivers/STM32G4xx_HAL_Driver/Src/stm32g4xx_hal_flash.c ****   {
 1113              		.loc 1 348 3 is_stmt 1 view .LVU385
 348:Drivers/STM32G4xx_HAL_Driver/Src/stm32g4xx_hal_flash.c ****   {
 1114              		.loc 1 348 6 is_stmt 0 view .LVU386
ARM GAS  /tmp/cchx7lg8.s 			page 56


 1115 0028 1340     		ands	r3, r3, r2
 1116              	.LVL82:
 348:Drivers/STM32G4xx_HAL_Driver/Src/stm32g4xx_hal_flash.c ****   {
 1117              		.loc 1 348 6 view .LVU387
 1118 002a 2FD1     		bne	.L107
 1119              	.LVL83:
 1120              	.L90:
 384:Drivers/STM32G4xx_HAL_Driver/Src/stm32g4xx_hal_flash.c ****   {
 1121              		.loc 1 384 3 is_stmt 1 view .LVU388
 384:Drivers/STM32G4xx_HAL_Driver/Src/stm32g4xx_hal_flash.c ****   {
 1122              		.loc 1 384 7 is_stmt 0 view .LVU389
 1123 002c 2F4B     		ldr	r3, .L113
 1124 002e 1A69     		ldr	r2, [r3, #16]
 384:Drivers/STM32G4xx_HAL_Driver/Src/stm32g4xx_hal_flash.c ****   {
 1125              		.loc 1 384 6 view .LVU390
 1126 0030 D207     		lsls	r2, r2, #31
 1127 0032 14D5     		bpl	.L94
 387:Drivers/STM32G4xx_HAL_Driver/Src/stm32g4xx_hal_flash.c **** 
 1128              		.loc 1 387 5 is_stmt 1 discriminator 4 view .LVU391
 387:Drivers/STM32G4xx_HAL_Driver/Src/stm32g4xx_hal_flash.c **** 
 1129              		.loc 1 387 5 discriminator 4 view .LVU392
 387:Drivers/STM32G4xx_HAL_Driver/Src/stm32g4xx_hal_flash.c **** 
 1130              		.loc 1 387 5 discriminator 4 view .LVU393
 387:Drivers/STM32G4xx_HAL_Driver/Src/stm32g4xx_hal_flash.c **** 
 1131              		.loc 1 387 5 discriminator 4 view .LVU394
 1132 0034 0122     		movs	r2, #1
 1133 0036 1A61     		str	r2, [r3, #16]
 387:Drivers/STM32G4xx_HAL_Driver/Src/stm32g4xx_hal_flash.c **** 
 1134              		.loc 1 387 5 discriminator 4 view .LVU395
 389:Drivers/STM32G4xx_HAL_Driver/Src/stm32g4xx_hal_flash.c ****     {
 1135              		.loc 1 389 5 discriminator 4 view .LVU396
 389:Drivers/STM32G4xx_HAL_Driver/Src/stm32g4xx_hal_flash.c ****     {
 1136              		.loc 1 389 15 is_stmt 0 discriminator 4 view .LVU397
 1137 0038 237A     		ldrb	r3, [r4, #8]	@ zero_extendqisi2
 389:Drivers/STM32G4xx_HAL_Driver/Src/stm32g4xx_hal_flash.c ****     {
 1138              		.loc 1 389 8 discriminator 4 view .LVU398
 1139 003a 9342     		cmp	r3, r2
 1140 003c 1AD1     		bne	.L95
 392:Drivers/STM32G4xx_HAL_Driver/Src/stm32g4xx_hal_flash.c **** 
 1141              		.loc 1 392 7 is_stmt 1 view .LVU399
 392:Drivers/STM32G4xx_HAL_Driver/Src/stm32g4xx_hal_flash.c **** 
 1142              		.loc 1 392 13 is_stmt 0 view .LVU400
 1143 003e A369     		ldr	r3, [r4, #24]
 392:Drivers/STM32G4xx_HAL_Driver/Src/stm32g4xx_hal_flash.c **** 
 1144              		.loc 1 392 28 view .LVU401
 1145 0040 013B     		subs	r3, r3, #1
 1146 0042 A361     		str	r3, [r4, #24]
 395:Drivers/STM32G4xx_HAL_Driver/Src/stm32g4xx_hal_flash.c ****       {
 1147              		.loc 1 395 7 is_stmt 1 view .LVU402
 395:Drivers/STM32G4xx_HAL_Driver/Src/stm32g4xx_hal_flash.c ****       {
 1148              		.loc 1 395 17 is_stmt 0 view .LVU403
 1149 0044 A369     		ldr	r3, [r4, #24]
 395:Drivers/STM32G4xx_HAL_Driver/Src/stm32g4xx_hal_flash.c ****       {
 1150              		.loc 1 395 10 view .LVU404
 1151 0046 002B     		cmp	r3, #0
 1152 0048 32D0     		beq	.L96
 398:Drivers/STM32G4xx_HAL_Driver/Src/stm32g4xx_hal_flash.c **** 
ARM GAS  /tmp/cchx7lg8.s 			page 57


 1153              		.loc 1 398 9 is_stmt 1 view .LVU405
 1154 004a 6069     		ldr	r0, [r4, #20]
 1155 004c FFF7FEFF 		bl	HAL_FLASH_EndOfOperationCallback
 1156              	.LVL84:
 401:Drivers/STM32G4xx_HAL_Driver/Src/stm32g4xx_hal_flash.c ****         tmp_page = pFlash.Page;
 1157              		.loc 1 401 9 view .LVU406
 401:Drivers/STM32G4xx_HAL_Driver/Src/stm32g4xx_hal_flash.c ****         tmp_page = pFlash.Page;
 1158              		.loc 1 401 15 is_stmt 0 view .LVU407
 1159 0050 6369     		ldr	r3, [r4, #20]
 401:Drivers/STM32G4xx_HAL_Driver/Src/stm32g4xx_hal_flash.c ****         tmp_page = pFlash.Page;
 1160              		.loc 1 401 20 view .LVU408
 1161 0052 0133     		adds	r3, r3, #1
 1162 0054 6361     		str	r3, [r4, #20]
 402:Drivers/STM32G4xx_HAL_Driver/Src/stm32g4xx_hal_flash.c ****         FLASH_PageErase(tmp_page, pFlash.Bank);
 1163              		.loc 1 402 9 is_stmt 1 view .LVU409
 402:Drivers/STM32G4xx_HAL_Driver/Src/stm32g4xx_hal_flash.c ****         FLASH_PageErase(tmp_page, pFlash.Bank);
 1164              		.loc 1 402 18 is_stmt 0 view .LVU410
 1165 0056 6069     		ldr	r0, [r4, #20]
 1166              	.LVL85:
 403:Drivers/STM32G4xx_HAL_Driver/Src/stm32g4xx_hal_flash.c ****       }
 1167              		.loc 1 403 9 is_stmt 1 view .LVU411
 1168 0058 2169     		ldr	r1, [r4, #16]
 1169 005a FFF7FEFF 		bl	FLASH_PageErase
 1170              	.LVL86:
 1171              	.L94:
 448:Drivers/STM32G4xx_HAL_Driver/Src/stm32g4xx_hal_flash.c ****   {
 1172              		.loc 1 448 3 view .LVU412
 448:Drivers/STM32G4xx_HAL_Driver/Src/stm32g4xx_hal_flash.c ****   {
 1173              		.loc 1 448 13 is_stmt 0 view .LVU413
 1174 005e 237A     		ldrb	r3, [r4, #8]	@ zero_extendqisi2
 448:Drivers/STM32G4xx_HAL_Driver/Src/stm32g4xx_hal_flash.c ****   {
 1175              		.loc 1 448 6 view .LVU414
 1176 0060 03F0FF02 		and	r2, r3, #255
 1177 0064 2BB9     		cbnz	r3, .L88
 451:Drivers/STM32G4xx_HAL_Driver/Src/stm32g4xx_hal_flash.c **** 
 1178              		.loc 1 451 5 is_stmt 1 discriminator 4 view .LVU415
 451:Drivers/STM32G4xx_HAL_Driver/Src/stm32g4xx_hal_flash.c **** 
 1179              		.loc 1 451 5 discriminator 4 view .LVU416
 451:Drivers/STM32G4xx_HAL_Driver/Src/stm32g4xx_hal_flash.c **** 
 1180              		.loc 1 451 5 discriminator 4 view .LVU417
 451:Drivers/STM32G4xx_HAL_Driver/Src/stm32g4xx_hal_flash.c **** 
 1181              		.loc 1 451 5 discriminator 4 view .LVU418
 1182 0066 2149     		ldr	r1, .L113
 1183 0068 4B69     		ldr	r3, [r1, #20]
 1184 006a 23F04073 		bic	r3, r3, #50331648
 1185 006e 4B61     		str	r3, [r1, #20]
 451:Drivers/STM32G4xx_HAL_Driver/Src/stm32g4xx_hal_flash.c **** 
 1186              		.loc 1 451 5 discriminator 4 view .LVU419
 454:Drivers/STM32G4xx_HAL_Driver/Src/stm32g4xx_hal_flash.c ****   }
 1187              		.loc 1 454 5 discriminator 4 view .LVU420
 454:Drivers/STM32G4xx_HAL_Driver/Src/stm32g4xx_hal_flash.c ****   }
 1188              		.loc 1 454 5 discriminator 4 view .LVU421
 1189 0070 2270     		strb	r2, [r4]
 454:Drivers/STM32G4xx_HAL_Driver/Src/stm32g4xx_hal_flash.c ****   }
 1190              		.loc 1 454 5 discriminator 4 view .LVU422
 1191              	.L88:
 456:Drivers/STM32G4xx_HAL_Driver/Src/stm32g4xx_hal_flash.c **** 
ARM GAS  /tmp/cchx7lg8.s 			page 58


 1192              		.loc 1 456 1 is_stmt 0 view .LVU423
 1193 0072 10BD     		pop	{r4, pc}
 1194              	.L95:
 422:Drivers/STM32G4xx_HAL_Driver/Src/stm32g4xx_hal_flash.c **** 
 1195              		.loc 1 422 7 is_stmt 1 view .LVU424
 1196 0074 FFF7FEFF 		bl	FLASH_FlushCaches
 1197              	.LVL87:
 424:Drivers/STM32G4xx_HAL_Driver/Src/stm32g4xx_hal_flash.c ****       if (procedure == FLASH_PROC_MASS_ERASE)
 1198              		.loc 1 424 7 view .LVU425
 424:Drivers/STM32G4xx_HAL_Driver/Src/stm32g4xx_hal_flash.c ****       if (procedure == FLASH_PROC_MASS_ERASE)
 1199              		.loc 1 424 17 is_stmt 0 view .LVU426
 1200 0078 227A     		ldrb	r2, [r4, #8]	@ zero_extendqisi2
 425:Drivers/STM32G4xx_HAL_Driver/Src/stm32g4xx_hal_flash.c ****       {
 1201              		.loc 1 425 10 view .LVU427
 1202 007a 022A     		cmp	r2, #2
 424:Drivers/STM32G4xx_HAL_Driver/Src/stm32g4xx_hal_flash.c ****       if (procedure == FLASH_PROC_MASS_ERASE)
 1203              		.loc 1 424 17 view .LVU428
 1204 007c D3B2     		uxtb	r3, r2
 1205              	.LVL88:
 425:Drivers/STM32G4xx_HAL_Driver/Src/stm32g4xx_hal_flash.c ****       {
 1206              		.loc 1 425 7 is_stmt 1 view .LVU429
 425:Drivers/STM32G4xx_HAL_Driver/Src/stm32g4xx_hal_flash.c ****       {
 1207              		.loc 1 425 10 is_stmt 0 view .LVU430
 1208 007e 2DD0     		beq	.L108
 431:Drivers/STM32G4xx_HAL_Driver/Src/stm32g4xx_hal_flash.c ****                (procedure == FLASH_PROC_PROGRAM_LAST))
 1209              		.loc 1 431 12 is_stmt 1 view .LVU431
 431:Drivers/STM32G4xx_HAL_Driver/Src/stm32g4xx_hal_flash.c ****                (procedure == FLASH_PROC_PROGRAM_LAST))
 1210              		.loc 1 431 15 is_stmt 0 view .LVU432
 1211 0080 033B     		subs	r3, r3, #3
 1212              	.LVL89:
 431:Drivers/STM32G4xx_HAL_Driver/Src/stm32g4xx_hal_flash.c ****                (procedure == FLASH_PROC_PROGRAM_LAST))
 1213              		.loc 1 431 15 view .LVU433
 1214 0082 012B     		cmp	r3, #1
 1215 0084 2ED9     		bls	.L109
 1216              	.LVL90:
 1217              	.L98:
 441:Drivers/STM32G4xx_HAL_Driver/Src/stm32g4xx_hal_flash.c **** 
 1218              		.loc 1 441 7 is_stmt 1 view .LVU434
 444:Drivers/STM32G4xx_HAL_Driver/Src/stm32g4xx_hal_flash.c ****     }
 1219              		.loc 1 444 7 view .LVU435
 444:Drivers/STM32G4xx_HAL_Driver/Src/stm32g4xx_hal_flash.c ****     }
 1220              		.loc 1 444 31 is_stmt 0 view .LVU436
 1221 0086 0023     		movs	r3, #0
 1222 0088 2372     		strb	r3, [r4, #8]
 1223 008a E8E7     		b	.L94
 1224              	.LVL91:
 1225              	.L107:
 351:Drivers/STM32G4xx_HAL_Driver/Src/stm32g4xx_hal_flash.c **** 
 1226              		.loc 1 351 5 is_stmt 1 view .LVU437
 351:Drivers/STM32G4xx_HAL_Driver/Src/stm32g4xx_hal_flash.c **** 
 1227              		.loc 1 351 22 is_stmt 0 view .LVU438
 1228 008c 6268     		ldr	r2, [r4, #4]
 1229 008e 1A43     		orrs	r2, r2, r3
 1230 0090 6260     		str	r2, [r4, #4]
 354:Drivers/STM32G4xx_HAL_Driver/Src/stm32g4xx_hal_flash.c **** 
 1231              		.loc 1 354 5 is_stmt 1 view .LVU439
 354:Drivers/STM32G4xx_HAL_Driver/Src/stm32g4xx_hal_flash.c **** 
ARM GAS  /tmp/cchx7lg8.s 			page 59


 1232              		.loc 1 354 5 view .LVU440
 354:Drivers/STM32G4xx_HAL_Driver/Src/stm32g4xx_hal_flash.c **** 
 1233              		.loc 1 354 5 view .LVU441
 354:Drivers/STM32G4xx_HAL_Driver/Src/stm32g4xx_hal_flash.c **** 
 1234              		.loc 1 354 5 view .LVU442
 1235 0092 0B61     		str	r3, [r1, #16]
 354:Drivers/STM32G4xx_HAL_Driver/Src/stm32g4xx_hal_flash.c **** 
 1236              		.loc 1 354 5 view .LVU443
 357:Drivers/STM32G4xx_HAL_Driver/Src/stm32g4xx_hal_flash.c **** 
 1237              		.loc 1 357 5 view .LVU444
 1238 0094 FFF7FEFF 		bl	FLASH_FlushCaches
 1239              	.LVL92:
 360:Drivers/STM32G4xx_HAL_Driver/Src/stm32g4xx_hal_flash.c ****     if (procedure == FLASH_PROC_PAGE_ERASE)
 1240              		.loc 1 360 5 view .LVU445
 360:Drivers/STM32G4xx_HAL_Driver/Src/stm32g4xx_hal_flash.c ****     if (procedure == FLASH_PROC_PAGE_ERASE)
 1241              		.loc 1 360 15 is_stmt 0 view .LVU446
 1242 0098 227A     		ldrb	r2, [r4, #8]	@ zero_extendqisi2
 361:Drivers/STM32G4xx_HAL_Driver/Src/stm32g4xx_hal_flash.c ****     {
 1243              		.loc 1 361 8 view .LVU447
 1244 009a 012A     		cmp	r2, #1
 360:Drivers/STM32G4xx_HAL_Driver/Src/stm32g4xx_hal_flash.c ****     if (procedure == FLASH_PROC_PAGE_ERASE)
 1245              		.loc 1 360 15 view .LVU448
 1246 009c D3B2     		uxtb	r3, r2
 1247              	.LVL93:
 361:Drivers/STM32G4xx_HAL_Driver/Src/stm32g4xx_hal_flash.c ****     {
 1248              		.loc 1 361 5 is_stmt 1 view .LVU449
 361:Drivers/STM32G4xx_HAL_Driver/Src/stm32g4xx_hal_flash.c ****     {
 1249              		.loc 1 361 8 is_stmt 0 view .LVU450
 1250 009e 15D0     		beq	.L110
 365:Drivers/STM32G4xx_HAL_Driver/Src/stm32g4xx_hal_flash.c ****     {
 1251              		.loc 1 365 10 is_stmt 1 view .LVU451
 365:Drivers/STM32G4xx_HAL_Driver/Src/stm32g4xx_hal_flash.c ****     {
 1252              		.loc 1 365 13 is_stmt 0 view .LVU452
 1253 00a0 022B     		cmp	r3, #2
 1254 00a2 17D0     		beq	.L111
 369:Drivers/STM32G4xx_HAL_Driver/Src/stm32g4xx_hal_flash.c ****              (procedure == FLASH_PROC_PROGRAM_LAST))
 1255              		.loc 1 369 10 is_stmt 1 view .LVU453
 369:Drivers/STM32G4xx_HAL_Driver/Src/stm32g4xx_hal_flash.c ****              (procedure == FLASH_PROC_PROGRAM_LAST))
 1256              		.loc 1 369 13 is_stmt 0 view .LVU454
 1257 00a4 033B     		subs	r3, r3, #3
 1258              	.LVL94:
 369:Drivers/STM32G4xx_HAL_Driver/Src/stm32g4xx_hal_flash.c ****              (procedure == FLASH_PROC_PROGRAM_LAST))
 1259              		.loc 1 369 13 view .LVU455
 1260 00a6 012B     		cmp	r3, #1
 1261 00a8 0CD9     		bls	.L112
 1262              	.LVL95:
 1263              	.L92:
 377:Drivers/STM32G4xx_HAL_Driver/Src/stm32g4xx_hal_flash.c **** 
 1264              		.loc 1 377 5 is_stmt 1 view .LVU456
 380:Drivers/STM32G4xx_HAL_Driver/Src/stm32g4xx_hal_flash.c ****   }
 1265              		.loc 1 380 5 view .LVU457
 380:Drivers/STM32G4xx_HAL_Driver/Src/stm32g4xx_hal_flash.c ****   }
 1266              		.loc 1 380 29 is_stmt 0 view .LVU458
 1267 00aa 0023     		movs	r3, #0
 1268 00ac 2372     		strb	r3, [r4, #8]
 1269 00ae BDE7     		b	.L90
 1270              	.L96:
ARM GAS  /tmp/cchx7lg8.s 			page 60


 409:Drivers/STM32G4xx_HAL_Driver/Src/stm32g4xx_hal_flash.c ****         pFlash.ProcedureOnGoing = FLASH_PROC_NONE;
 1271              		.loc 1 409 9 is_stmt 1 view .LVU459
 409:Drivers/STM32G4xx_HAL_Driver/Src/stm32g4xx_hal_flash.c ****         pFlash.ProcedureOnGoing = FLASH_PROC_NONE;
 1272              		.loc 1 409 21 is_stmt 0 view .LVU460
 1273 00b0 4FF0FF32 		mov	r2, #-1
 1274 00b4 6261     		str	r2, [r4, #20]
 410:Drivers/STM32G4xx_HAL_Driver/Src/stm32g4xx_hal_flash.c **** 
 1275              		.loc 1 410 9 is_stmt 1 view .LVU461
 410:Drivers/STM32G4xx_HAL_Driver/Src/stm32g4xx_hal_flash.c **** 
 1276              		.loc 1 410 33 is_stmt 0 view .LVU462
 1277 00b6 2372     		strb	r3, [r4, #8]
 413:Drivers/STM32G4xx_HAL_Driver/Src/stm32g4xx_hal_flash.c **** 
 1278              		.loc 1 413 9 is_stmt 1 view .LVU463
 1279 00b8 FFF7FEFF 		bl	FLASH_FlushCaches
 1280              	.LVL96:
 416:Drivers/STM32G4xx_HAL_Driver/Src/stm32g4xx_hal_flash.c ****       }
 1281              		.loc 1 416 9 view .LVU464
 1282 00bc 6069     		ldr	r0, [r4, #20]
 1283 00be FFF7FEFF 		bl	HAL_FLASH_EndOfOperationCallback
 1284              	.LVL97:
 1285 00c2 CCE7     		b	.L94
 1286              	.LVL98:
 1287              	.L112:
 372:Drivers/STM32G4xx_HAL_Driver/Src/stm32g4xx_hal_flash.c ****     }
 1288              		.loc 1 372 7 view .LVU465
 1289 00c4 E068     		ldr	r0, [r4, #12]
 1290 00c6 FFF7FEFF 		bl	HAL_FLASH_OperationErrorCallback
 1291              	.LVL99:
 372:Drivers/STM32G4xx_HAL_Driver/Src/stm32g4xx_hal_flash.c ****     }
 1292              		.loc 1 372 7 is_stmt 0 view .LVU466
 1293 00ca EEE7     		b	.L92
 1294              	.LVL100:
 1295              	.L110:
 363:Drivers/STM32G4xx_HAL_Driver/Src/stm32g4xx_hal_flash.c ****     }
 1296              		.loc 1 363 7 is_stmt 1 view .LVU467
 1297 00cc 6069     		ldr	r0, [r4, #20]
 1298 00ce FFF7FEFF 		bl	HAL_FLASH_OperationErrorCallback
 1299              	.LVL101:
 363:Drivers/STM32G4xx_HAL_Driver/Src/stm32g4xx_hal_flash.c ****     }
 1300              		.loc 1 363 7 is_stmt 0 view .LVU468
 1301 00d2 EAE7     		b	.L92
 1302              	.LVL102:
 1303              	.L111:
 367:Drivers/STM32G4xx_HAL_Driver/Src/stm32g4xx_hal_flash.c ****     }
 1304              		.loc 1 367 7 is_stmt 1 view .LVU469
 1305 00d4 2069     		ldr	r0, [r4, #16]
 1306 00d6 FFF7FEFF 		bl	HAL_FLASH_OperationErrorCallback
 1307              	.LVL103:
 367:Drivers/STM32G4xx_HAL_Driver/Src/stm32g4xx_hal_flash.c ****     }
 1308              		.loc 1 367 7 is_stmt 0 view .LVU470
 1309 00da E6E7     		b	.L92
 1310              	.LVL104:
 1311              	.L108:
 429:Drivers/STM32G4xx_HAL_Driver/Src/stm32g4xx_hal_flash.c ****       }
 1312              		.loc 1 429 9 is_stmt 1 view .LVU471
 1313 00dc 2069     		ldr	r0, [r4, #16]
 1314 00de FFF7FEFF 		bl	HAL_FLASH_EndOfOperationCallback
ARM GAS  /tmp/cchx7lg8.s 			page 61


 1315              	.LVL105:
 429:Drivers/STM32G4xx_HAL_Driver/Src/stm32g4xx_hal_flash.c ****       }
 1316              		.loc 1 429 9 is_stmt 0 view .LVU472
 1317 00e2 D0E7     		b	.L98
 1318              	.LVL106:
 1319              	.L109:
 436:Drivers/STM32G4xx_HAL_Driver/Src/stm32g4xx_hal_flash.c ****       }
 1320              		.loc 1 436 9 is_stmt 1 view .LVU473
 1321 00e4 E068     		ldr	r0, [r4, #12]
 1322 00e6 FFF7FEFF 		bl	HAL_FLASH_EndOfOperationCallback
 1323              	.LVL107:
 436:Drivers/STM32G4xx_HAL_Driver/Src/stm32g4xx_hal_flash.c ****       }
 1324              		.loc 1 436 9 is_stmt 0 view .LVU474
 1325 00ea CCE7     		b	.L98
 1326              	.L114:
 1327              		.align	2
 1328              	.L113:
 1329 00ec 00200240 		.word	1073881088
 1330 00f0 00000000 		.word	.LANCHOR0
 1331              		.cfi_endproc
 1332              	.LFE134:
 1334              		.section	.text.HAL_FLASH_Unlock,"ax",%progbits
 1335              		.align	1
 1336              		.p2align 2,,3
 1337              		.global	HAL_FLASH_Unlock
 1338              		.syntax unified
 1339              		.thumb
 1340              		.thumb_func
 1341              		.fpu fpv4-sp-d16
 1343              	HAL_FLASH_Unlock:
 1344              	.LFB137:
 519:Drivers/STM32G4xx_HAL_Driver/Src/stm32g4xx_hal_flash.c ****   HAL_StatusTypeDef status = HAL_OK;
 1345              		.loc 1 519 1 is_stmt 1 view -0
 1346              		.cfi_startproc
 1347              		@ args = 0, pretend = 0, frame = 0
 1348              		@ frame_needed = 0, uses_anonymous_args = 0
 1349              		@ link register save eliminated.
 520:Drivers/STM32G4xx_HAL_Driver/Src/stm32g4xx_hal_flash.c **** 
 1350              		.loc 1 520 3 view .LVU476
 1351              	.LVL108:
 522:Drivers/STM32G4xx_HAL_Driver/Src/stm32g4xx_hal_flash.c ****   {
 1352              		.loc 1 522 3 view .LVU477
 522:Drivers/STM32G4xx_HAL_Driver/Src/stm32g4xx_hal_flash.c ****   {
 1353              		.loc 1 522 7 is_stmt 0 view .LVU478
 1354 0000 064B     		ldr	r3, .L119
 1355 0002 5A69     		ldr	r2, [r3, #20]
 522:Drivers/STM32G4xx_HAL_Driver/Src/stm32g4xx_hal_flash.c ****   {
 1356              		.loc 1 522 6 view .LVU479
 1357 0004 002A     		cmp	r2, #0
 1358 0006 01DB     		blt	.L118
 520:Drivers/STM32G4xx_HAL_Driver/Src/stm32g4xx_hal_flash.c **** 
 1359              		.loc 1 520 21 view .LVU480
 1360 0008 0020     		movs	r0, #0
 1361              	.LVL109:
 535:Drivers/STM32G4xx_HAL_Driver/Src/stm32g4xx_hal_flash.c **** }
 1362              		.loc 1 535 3 is_stmt 1 view .LVU481
 536:Drivers/STM32G4xx_HAL_Driver/Src/stm32g4xx_hal_flash.c **** 
ARM GAS  /tmp/cchx7lg8.s 			page 62


 1363              		.loc 1 536 1 is_stmt 0 view .LVU482
 1364 000a 7047     		bx	lr
 1365              	.LVL110:
 1366              	.L118:
 525:Drivers/STM32G4xx_HAL_Driver/Src/stm32g4xx_hal_flash.c ****     WRITE_REG(FLASH->KEYR, FLASH_KEY2);
 1367              		.loc 1 525 5 is_stmt 1 view .LVU483
 1368 000c 0449     		ldr	r1, .L119+4
 526:Drivers/STM32G4xx_HAL_Driver/Src/stm32g4xx_hal_flash.c **** 
 1369              		.loc 1 526 5 is_stmt 0 view .LVU484
 1370 000e 054A     		ldr	r2, .L119+8
 525:Drivers/STM32G4xx_HAL_Driver/Src/stm32g4xx_hal_flash.c ****     WRITE_REG(FLASH->KEYR, FLASH_KEY2);
 1371              		.loc 1 525 5 view .LVU485
 1372 0010 9960     		str	r1, [r3, #8]
 526:Drivers/STM32G4xx_HAL_Driver/Src/stm32g4xx_hal_flash.c **** 
 1373              		.loc 1 526 5 is_stmt 1 view .LVU486
 1374 0012 9A60     		str	r2, [r3, #8]
 529:Drivers/STM32G4xx_HAL_Driver/Src/stm32g4xx_hal_flash.c ****     {
 1375              		.loc 1 529 5 view .LVU487
 529:Drivers/STM32G4xx_HAL_Driver/Src/stm32g4xx_hal_flash.c ****     {
 1376              		.loc 1 529 9 is_stmt 0 view .LVU488
 1377 0014 5869     		ldr	r0, [r3, #20]
 520:Drivers/STM32G4xx_HAL_Driver/Src/stm32g4xx_hal_flash.c **** 
 1378              		.loc 1 520 21 view .LVU489
 1379 0016 C00F     		lsrs	r0, r0, #31
 1380 0018 7047     		bx	lr
 1381              	.L120:
 1382 001a 00BF     		.align	2
 1383              	.L119:
 1384 001c 00200240 		.word	1073881088
 1385 0020 23016745 		.word	1164378403
 1386 0024 AB89EFCD 		.word	-839939669
 1387              		.cfi_endproc
 1388              	.LFE137:
 1390              		.section	.text.HAL_FLASH_Lock,"ax",%progbits
 1391              		.align	1
 1392              		.p2align 2,,3
 1393              		.global	HAL_FLASH_Lock
 1394              		.syntax unified
 1395              		.thumb
 1396              		.thumb_func
 1397              		.fpu fpv4-sp-d16
 1399              	HAL_FLASH_Lock:
 1400              	.LFB138:
 543:Drivers/STM32G4xx_HAL_Driver/Src/stm32g4xx_hal_flash.c ****   HAL_StatusTypeDef status = HAL_ERROR;
 1401              		.loc 1 543 1 is_stmt 1 view -0
 1402              		.cfi_startproc
 1403              		@ args = 0, pretend = 0, frame = 0
 1404              		@ frame_needed = 0, uses_anonymous_args = 0
 1405              		@ link register save eliminated.
 544:Drivers/STM32G4xx_HAL_Driver/Src/stm32g4xx_hal_flash.c **** 
 1406              		.loc 1 544 3 view .LVU491
 1407              	.LVL111:
 547:Drivers/STM32G4xx_HAL_Driver/Src/stm32g4xx_hal_flash.c **** 
 1408              		.loc 1 547 3 view .LVU492
 1409 0000 044B     		ldr	r3, .L122
 1410 0002 5A69     		ldr	r2, [r3, #20]
 1411 0004 42F00042 		orr	r2, r2, #-2147483648
ARM GAS  /tmp/cchx7lg8.s 			page 63


 1412 0008 5A61     		str	r2, [r3, #20]
 550:Drivers/STM32G4xx_HAL_Driver/Src/stm32g4xx_hal_flash.c ****   {
 1413              		.loc 1 550 3 view .LVU493
 550:Drivers/STM32G4xx_HAL_Driver/Src/stm32g4xx_hal_flash.c ****   {
 1414              		.loc 1 550 7 is_stmt 0 view .LVU494
 1415 000a 5869     		ldr	r0, [r3, #20]
 1416              	.LVL112:
 555:Drivers/STM32G4xx_HAL_Driver/Src/stm32g4xx_hal_flash.c **** }
 1417              		.loc 1 555 3 is_stmt 1 view .LVU495
 556:Drivers/STM32G4xx_HAL_Driver/Src/stm32g4xx_hal_flash.c **** 
 1418              		.loc 1 556 1 is_stmt 0 view .LVU496
 1419 000c C043     		mvns	r0, r0
 1420              	.LVL113:
 556:Drivers/STM32G4xx_HAL_Driver/Src/stm32g4xx_hal_flash.c **** 
 1421              		.loc 1 556 1 view .LVU497
 1422 000e C00F     		lsrs	r0, r0, #31
 1423              	.LVL114:
 556:Drivers/STM32G4xx_HAL_Driver/Src/stm32g4xx_hal_flash.c **** 
 1424              		.loc 1 556 1 view .LVU498
 1425 0010 7047     		bx	lr
 1426              	.L123:
 1427 0012 00BF     		.align	2
 1428              	.L122:
 1429 0014 00200240 		.word	1073881088
 1430              		.cfi_endproc
 1431              	.LFE138:
 1433              		.section	.text.HAL_FLASH_OB_Unlock,"ax",%progbits
 1434              		.align	1
 1435              		.p2align 2,,3
 1436              		.global	HAL_FLASH_OB_Unlock
 1437              		.syntax unified
 1438              		.thumb
 1439              		.thumb_func
 1440              		.fpu fpv4-sp-d16
 1442              	HAL_FLASH_OB_Unlock:
 1443              	.LFB139:
 563:Drivers/STM32G4xx_HAL_Driver/Src/stm32g4xx_hal_flash.c ****   HAL_StatusTypeDef status = HAL_OK;
 1444              		.loc 1 563 1 is_stmt 1 view -0
 1445              		.cfi_startproc
 1446              		@ args = 0, pretend = 0, frame = 0
 1447              		@ frame_needed = 0, uses_anonymous_args = 0
 1448              		@ link register save eliminated.
 564:Drivers/STM32G4xx_HAL_Driver/Src/stm32g4xx_hal_flash.c **** 
 1449              		.loc 1 564 3 view .LVU500
 1450              	.LVL115:
 566:Drivers/STM32G4xx_HAL_Driver/Src/stm32g4xx_hal_flash.c ****   {
 1451              		.loc 1 566 3 view .LVU501
 566:Drivers/STM32G4xx_HAL_Driver/Src/stm32g4xx_hal_flash.c ****   {
 1452              		.loc 1 566 7 is_stmt 0 view .LVU502
 1453 0000 064B     		ldr	r3, .L127
 1454 0002 5869     		ldr	r0, [r3, #20]
 566:Drivers/STM32G4xx_HAL_Driver/Src/stm32g4xx_hal_flash.c ****   {
 1455              		.loc 1 566 6 view .LVU503
 1456 0004 10F08040 		ands	r0, r0, #1073741824
 1457 0008 06D0     		beq	.L125
 569:Drivers/STM32G4xx_HAL_Driver/Src/stm32g4xx_hal_flash.c ****     WRITE_REG(FLASH->OPTKEYR, FLASH_OPTKEY2);
 1458              		.loc 1 569 5 is_stmt 1 view .LVU504
ARM GAS  /tmp/cchx7lg8.s 			page 64


 1459 000a 0549     		ldr	r1, .L127+4
 570:Drivers/STM32G4xx_HAL_Driver/Src/stm32g4xx_hal_flash.c **** 
 1460              		.loc 1 570 5 is_stmt 0 view .LVU505
 1461 000c 054A     		ldr	r2, .L127+8
 569:Drivers/STM32G4xx_HAL_Driver/Src/stm32g4xx_hal_flash.c ****     WRITE_REG(FLASH->OPTKEYR, FLASH_OPTKEY2);
 1462              		.loc 1 569 5 view .LVU506
 1463 000e D960     		str	r1, [r3, #12]
 570:Drivers/STM32G4xx_HAL_Driver/Src/stm32g4xx_hal_flash.c **** 
 1464              		.loc 1 570 5 is_stmt 1 view .LVU507
 1465 0010 DA60     		str	r2, [r3, #12]
 573:Drivers/STM32G4xx_HAL_Driver/Src/stm32g4xx_hal_flash.c ****     {
 1466              		.loc 1 573 5 view .LVU508
 573:Drivers/STM32G4xx_HAL_Driver/Src/stm32g4xx_hal_flash.c ****     {
 1467              		.loc 1 573 9 is_stmt 0 view .LVU509
 1468 0012 5869     		ldr	r0, [r3, #20]
 564:Drivers/STM32G4xx_HAL_Driver/Src/stm32g4xx_hal_flash.c **** 
 1469              		.loc 1 564 21 view .LVU510
 1470 0014 C0F38070 		ubfx	r0, r0, #30, #1
 1471              	.L125:
 1472              	.LVL116:
 579:Drivers/STM32G4xx_HAL_Driver/Src/stm32g4xx_hal_flash.c **** }
 1473              		.loc 1 579 3 is_stmt 1 view .LVU511
 580:Drivers/STM32G4xx_HAL_Driver/Src/stm32g4xx_hal_flash.c **** 
 1474              		.loc 1 580 1 is_stmt 0 view .LVU512
 1475 0018 7047     		bx	lr
 1476              	.L128:
 1477 001a 00BF     		.align	2
 1478              	.L127:
 1479 001c 00200240 		.word	1073881088
 1480 0020 3B2A1908 		.word	135866939
 1481 0024 7F6E5D4C 		.word	1281191551
 1482              		.cfi_endproc
 1483              	.LFE139:
 1485              		.section	.text.HAL_FLASH_OB_Lock,"ax",%progbits
 1486              		.align	1
 1487              		.p2align 2,,3
 1488              		.global	HAL_FLASH_OB_Lock
 1489              		.syntax unified
 1490              		.thumb
 1491              		.thumb_func
 1492              		.fpu fpv4-sp-d16
 1494              	HAL_FLASH_OB_Lock:
 1495              	.LFB140:
 587:Drivers/STM32G4xx_HAL_Driver/Src/stm32g4xx_hal_flash.c ****   HAL_StatusTypeDef status = HAL_ERROR;
 1496              		.loc 1 587 1 is_stmt 1 view -0
 1497              		.cfi_startproc
 1498              		@ args = 0, pretend = 0, frame = 0
 1499              		@ frame_needed = 0, uses_anonymous_args = 0
 1500              		@ link register save eliminated.
 588:Drivers/STM32G4xx_HAL_Driver/Src/stm32g4xx_hal_flash.c **** 
 1501              		.loc 1 588 3 view .LVU514
 1502              	.LVL117:
 591:Drivers/STM32G4xx_HAL_Driver/Src/stm32g4xx_hal_flash.c **** 
 1503              		.loc 1 591 3 view .LVU515
 1504 0000 054B     		ldr	r3, .L130
 1505 0002 5A69     		ldr	r2, [r3, #20]
 1506 0004 42F08042 		orr	r2, r2, #1073741824
ARM GAS  /tmp/cchx7lg8.s 			page 65


 1507 0008 5A61     		str	r2, [r3, #20]
 594:Drivers/STM32G4xx_HAL_Driver/Src/stm32g4xx_hal_flash.c ****   {
 1508              		.loc 1 594 3 view .LVU516
 594:Drivers/STM32G4xx_HAL_Driver/Src/stm32g4xx_hal_flash.c ****   {
 1509              		.loc 1 594 7 is_stmt 0 view .LVU517
 1510 000a 5869     		ldr	r0, [r3, #20]
 1511              	.LVL118:
 599:Drivers/STM32G4xx_HAL_Driver/Src/stm32g4xx_hal_flash.c **** }
 1512              		.loc 1 599 3 is_stmt 1 view .LVU518
 594:Drivers/STM32G4xx_HAL_Driver/Src/stm32g4xx_hal_flash.c ****   {
 1513              		.loc 1 594 6 is_stmt 0 view .LVU519
 1514 000c 80F08040 		eor	r0, r0, #1073741824
 1515              	.LVL119:
 600:Drivers/STM32G4xx_HAL_Driver/Src/stm32g4xx_hal_flash.c **** 
 1516              		.loc 1 600 1 view .LVU520
 1517 0010 C0F38070 		ubfx	r0, r0, #30, #1
 1518              	.LVL120:
 600:Drivers/STM32G4xx_HAL_Driver/Src/stm32g4xx_hal_flash.c **** 
 1519              		.loc 1 600 1 view .LVU521
 1520 0014 7047     		bx	lr
 1521              	.L131:
 1522 0016 00BF     		.align	2
 1523              	.L130:
 1524 0018 00200240 		.word	1073881088
 1525              		.cfi_endproc
 1526              	.LFE140:
 1528              		.section	.text.HAL_FLASH_OB_Launch,"ax",%progbits
 1529              		.align	1
 1530              		.p2align 2,,3
 1531              		.global	HAL_FLASH_OB_Launch
 1532              		.syntax unified
 1533              		.thumb
 1534              		.thumb_func
 1535              		.fpu fpv4-sp-d16
 1537              	HAL_FLASH_OB_Launch:
 1538              	.LFB141:
 607:Drivers/STM32G4xx_HAL_Driver/Src/stm32g4xx_hal_flash.c ****   /* Set the bit to force the option byte reloading */
 1539              		.loc 1 607 1 is_stmt 1 view -0
 1540              		.cfi_startproc
 1541              		@ args = 0, pretend = 0, frame = 0
 1542              		@ frame_needed = 0, uses_anonymous_args = 0
 609:Drivers/STM32G4xx_HAL_Driver/Src/stm32g4xx_hal_flash.c **** 
 1543              		.loc 1 609 3 view .LVU523
 607:Drivers/STM32G4xx_HAL_Driver/Src/stm32g4xx_hal_flash.c ****   /* Set the bit to force the option byte reloading */
 1544              		.loc 1 607 1 is_stmt 0 view .LVU524
 1545 0000 38B5     		push	{r3, r4, r5, lr}
 1546              	.LCFI3:
 1547              		.cfi_def_cfa_offset 16
 1548              		.cfi_offset 3, -16
 1549              		.cfi_offset 4, -12
 1550              		.cfi_offset 5, -8
 1551              		.cfi_offset 14, -4
 609:Drivers/STM32G4xx_HAL_Driver/Src/stm32g4xx_hal_flash.c **** 
 1552              		.loc 1 609 3 view .LVU525
 1553 0002 144C     		ldr	r4, .L141
 1554 0004 6369     		ldr	r3, [r4, #20]
 1555 0006 43F00063 		orr	r3, r3, #134217728
ARM GAS  /tmp/cchx7lg8.s 			page 66


 1556 000a 6361     		str	r3, [r4, #20]
 612:Drivers/STM32G4xx_HAL_Driver/Src/stm32g4xx_hal_flash.c **** }
 1557              		.loc 1 612 3 is_stmt 1 view .LVU526
 1558              	.LVL121:
 1559              	.LBB142:
 1560              	.LBI142:
 678:Drivers/STM32G4xx_HAL_Driver/Src/stm32g4xx_hal_flash.c **** {
 1561              		.loc 1 678 19 view .LVU527
 1562              	.LBB143:
 684:Drivers/STM32G4xx_HAL_Driver/Src/stm32g4xx_hal_flash.c ****   uint32_t error;
 1563              		.loc 1 684 3 view .LVU528
 684:Drivers/STM32G4xx_HAL_Driver/Src/stm32g4xx_hal_flash.c ****   uint32_t error;
 1564              		.loc 1 684 24 is_stmt 0 view .LVU529
 1565 000c FFF7FEFF 		bl	HAL_GetTick
 1566              	.LVL122:
 1567 0010 0546     		mov	r5, r0
 1568              	.LVL123:
 685:Drivers/STM32G4xx_HAL_Driver/Src/stm32g4xx_hal_flash.c **** 
 1569              		.loc 1 685 3 is_stmt 1 view .LVU530
 687:Drivers/STM32G4xx_HAL_Driver/Src/stm32g4xx_hal_flash.c ****   {
 1570              		.loc 1 687 3 view .LVU531
 687:Drivers/STM32G4xx_HAL_Driver/Src/stm32g4xx_hal_flash.c ****   {
 1571              		.loc 1 687 9 is_stmt 0 view .LVU532
 1572 0012 05E0     		b	.L133
 1573              	.LVL124:
 1574              	.L135:
 689:Drivers/STM32G4xx_HAL_Driver/Src/stm32g4xx_hal_flash.c ****     {
 1575              		.loc 1 689 10 view .LVU533
 1576 0014 FFF7FEFF 		bl	HAL_GetTick
 1577              	.LVL125:
 689:Drivers/STM32G4xx_HAL_Driver/Src/stm32g4xx_hal_flash.c ****     {
 1578              		.loc 1 689 24 view .LVU534
 1579 0018 401B     		subs	r0, r0, r5
 689:Drivers/STM32G4xx_HAL_Driver/Src/stm32g4xx_hal_flash.c ****     {
 1580              		.loc 1 689 8 view .LVU535
 1581 001a B0F57A7F 		cmp	r0, #1000
 1582 001e 0FD8     		bhi	.L137
 1583              	.L133:
 689:Drivers/STM32G4xx_HAL_Driver/Src/stm32g4xx_hal_flash.c ****     {
 1584              		.loc 1 689 5 is_stmt 1 view .LVU536
 687:Drivers/STM32G4xx_HAL_Driver/Src/stm32g4xx_hal_flash.c ****   {
 1585              		.loc 1 687 9 view .LVU537
 687:Drivers/STM32G4xx_HAL_Driver/Src/stm32g4xx_hal_flash.c ****   {
 1586              		.loc 1 687 10 is_stmt 0 view .LVU538
 1587 0020 2369     		ldr	r3, [r4, #16]
 687:Drivers/STM32G4xx_HAL_Driver/Src/stm32g4xx_hal_flash.c ****   {
 1588              		.loc 1 687 9 view .LVU539
 1589 0022 DB03     		lsls	r3, r3, #15
 1590 0024 F6D4     		bmi	.L135
 696:Drivers/STM32G4xx_HAL_Driver/Src/stm32g4xx_hal_flash.c ****   if (error != 0u)
 1591              		.loc 1 696 3 is_stmt 1 view .LVU540
 696:Drivers/STM32G4xx_HAL_Driver/Src/stm32g4xx_hal_flash.c ****   if (error != 0u)
 1592              		.loc 1 696 17 is_stmt 0 view .LVU541
 1593 0026 2369     		ldr	r3, [r4, #16]
 696:Drivers/STM32G4xx_HAL_Driver/Src/stm32g4xx_hal_flash.c ****   if (error != 0u)
 1594              		.loc 1 696 9 view .LVU542
 1595 0028 4CF2FA32 		movw	r2, #50170
ARM GAS  /tmp/cchx7lg8.s 			page 67


 1596              	.LVL126:
 697:Drivers/STM32G4xx_HAL_Driver/Src/stm32g4xx_hal_flash.c ****   {
 1597              		.loc 1 697 3 is_stmt 1 view .LVU543
 697:Drivers/STM32G4xx_HAL_Driver/Src/stm32g4xx_hal_flash.c ****   {
 1598              		.loc 1 697 6 is_stmt 0 view .LVU544
 1599 002c 1340     		ands	r3, r3, r2
 1600              	.LVL127:
 697:Drivers/STM32G4xx_HAL_Driver/Src/stm32g4xx_hal_flash.c ****   {
 1601              		.loc 1 697 6 view .LVU545
 1602 002e 09D1     		bne	.L140
 1603              	.LBB144:
 1604              	.LBI144:
 678:Drivers/STM32G4xx_HAL_Driver/Src/stm32g4xx_hal_flash.c **** {
 1605              		.loc 1 678 19 is_stmt 1 view .LVU546
 1606              	.LVL128:
 1607              	.LBB145:
 709:Drivers/STM32G4xx_HAL_Driver/Src/stm32g4xx_hal_flash.c ****   {
 1608              		.loc 1 709 3 view .LVU547
 709:Drivers/STM32G4xx_HAL_Driver/Src/stm32g4xx_hal_flash.c ****   {
 1609              		.loc 1 709 7 is_stmt 0 view .LVU548
 1610 0030 2069     		ldr	r0, [r4, #16]
 709:Drivers/STM32G4xx_HAL_Driver/Src/stm32g4xx_hal_flash.c ****   {
 1611              		.loc 1 709 6 view .LVU549
 1612 0032 10F00100 		ands	r0, r0, #1
 1613 0036 02D0     		beq	.L134
 712:Drivers/STM32G4xx_HAL_Driver/Src/stm32g4xx_hal_flash.c ****   }
 1614              		.loc 1 712 5 is_stmt 1 view .LVU550
 712:Drivers/STM32G4xx_HAL_Driver/Src/stm32g4xx_hal_flash.c ****   }
 1615              		.loc 1 712 5 view .LVU551
 712:Drivers/STM32G4xx_HAL_Driver/Src/stm32g4xx_hal_flash.c ****   }
 1616              		.loc 1 712 5 view .LVU552
 712:Drivers/STM32G4xx_HAL_Driver/Src/stm32g4xx_hal_flash.c ****   }
 1617              		.loc 1 712 5 view .LVU553
 1618 0038 0122     		movs	r2, #1
 1619 003a 2261     		str	r2, [r4, #16]
 1620 003c 1846     		mov	r0, r3
 1621              	.L134:
 1622              	.LVL129:
 712:Drivers/STM32G4xx_HAL_Driver/Src/stm32g4xx_hal_flash.c ****   }
 1623              		.loc 1 712 5 is_stmt 0 view .LVU554
 1624              	.LBE145:
 1625              	.LBE144:
 1626              	.LBE143:
 1627              	.LBE142:
 613:Drivers/STM32G4xx_HAL_Driver/Src/stm32g4xx_hal_flash.c **** 
 1628              		.loc 1 613 1 view .LVU555
 1629 003e 38BD     		pop	{r3, r4, r5, pc}
 1630              	.LVL130:
 1631              	.L137:
 1632              	.LBB148:
 1633              	.LBB146:
 691:Drivers/STM32G4xx_HAL_Driver/Src/stm32g4xx_hal_flash.c ****     }
 1634              		.loc 1 691 14 view .LVU556
 1635 0040 0320     		movs	r0, #3
 1636              	.LVL131:
 691:Drivers/STM32G4xx_HAL_Driver/Src/stm32g4xx_hal_flash.c ****     }
 1637              		.loc 1 691 14 view .LVU557
ARM GAS  /tmp/cchx7lg8.s 			page 68


 1638              	.LBE146:
 1639              	.LBE148:
 613:Drivers/STM32G4xx_HAL_Driver/Src/stm32g4xx_hal_flash.c **** 
 1640              		.loc 1 613 1 view .LVU558
 1641 0042 38BD     		pop	{r3, r4, r5, pc}
 1642              	.LVL132:
 1643              	.L140:
 1644              	.LBB149:
 1645              	.LBB147:
 700:Drivers/STM32G4xx_HAL_Driver/Src/stm32g4xx_hal_flash.c **** 
 1646              		.loc 1 700 5 is_stmt 1 view .LVU559
 700:Drivers/STM32G4xx_HAL_Driver/Src/stm32g4xx_hal_flash.c **** 
 1647              		.loc 1 700 22 is_stmt 0 view .LVU560
 1648 0044 0449     		ldr	r1, .L141+4
 1649 0046 4A68     		ldr	r2, [r1, #4]
 1650 0048 1A43     		orrs	r2, r2, r3
 1651 004a 4A60     		str	r2, [r1, #4]
 703:Drivers/STM32G4xx_HAL_Driver/Src/stm32g4xx_hal_flash.c **** 
 1652              		.loc 1 703 5 is_stmt 1 view .LVU561
 703:Drivers/STM32G4xx_HAL_Driver/Src/stm32g4xx_hal_flash.c **** 
 1653              		.loc 1 703 5 view .LVU562
 703:Drivers/STM32G4xx_HAL_Driver/Src/stm32g4xx_hal_flash.c **** 
 1654              		.loc 1 703 5 view .LVU563
 703:Drivers/STM32G4xx_HAL_Driver/Src/stm32g4xx_hal_flash.c **** 
 1655              		.loc 1 703 5 view .LVU564
 705:Drivers/STM32G4xx_HAL_Driver/Src/stm32g4xx_hal_flash.c ****   }
 1656              		.loc 1 705 12 is_stmt 0 view .LVU565
 1657 004c 0120     		movs	r0, #1
 703:Drivers/STM32G4xx_HAL_Driver/Src/stm32g4xx_hal_flash.c **** 
 1658              		.loc 1 703 5 view .LVU566
 1659 004e 2361     		str	r3, [r4, #16]
 703:Drivers/STM32G4xx_HAL_Driver/Src/stm32g4xx_hal_flash.c **** 
 1660              		.loc 1 703 5 is_stmt 1 view .LVU567
 705:Drivers/STM32G4xx_HAL_Driver/Src/stm32g4xx_hal_flash.c ****   }
 1661              		.loc 1 705 5 view .LVU568
 1662              	.LVL133:
 705:Drivers/STM32G4xx_HAL_Driver/Src/stm32g4xx_hal_flash.c ****   }
 1663              		.loc 1 705 5 is_stmt 0 view .LVU569
 1664              	.LBE147:
 1665              	.LBE149:
 613:Drivers/STM32G4xx_HAL_Driver/Src/stm32g4xx_hal_flash.c **** 
 1666              		.loc 1 613 1 view .LVU570
 1667 0050 38BD     		pop	{r3, r4, r5, pc}
 1668              	.L142:
 1669 0052 00BF     		.align	2
 1670              	.L141:
 1671 0054 00200240 		.word	1073881088
 1672 0058 00000000 		.word	.LANCHOR0
 1673              		.cfi_endproc
 1674              	.LFE141:
 1676              		.section	.text.HAL_FLASH_GetError,"ax",%progbits
 1677              		.align	1
 1678              		.p2align 2,,3
 1679              		.global	HAL_FLASH_GetError
 1680              		.syntax unified
 1681              		.thumb
 1682              		.thumb_func
ARM GAS  /tmp/cchx7lg8.s 			page 69


 1683              		.fpu fpv4-sp-d16
 1685              	HAL_FLASH_GetError:
 1686              	.LFB142:
