ARM GAS  /tmp/ccBOcut4.s 			page 1


   1              		.cpu cortex-m4
   2              		.eabi_attribute 27, 1
   3              		.eabi_attribute 28, 1
   4              		.eabi_attribute 20, 1
   5              		.eabi_attribute 21, 1
   6              		.eabi_attribute 23, 3
   7              		.eabi_attribute 24, 1
   8              		.eabi_attribute 25, 1
   9              		.eabi_attribute 26, 1
  10              		.eabi_attribute 30, 1
  11              		.eabi_attribute 34, 1
  12              		.eabi_attribute 18, 2
  13              		.file	"stm32g4xx_hal_flash_ex.c"
  14              		.text
  15              	.Ltext0:
  16              		.cfi_sections	.debug_frame
  17              		.section	.text.FLASH_MassErase,"ax",%progbits
  18              		.align	1
  19              		.arch armv7e-m
  20              		.syntax unified
  21              		.thumb
  22              		.thumb_func
  23              		.fpu fpv4-sp-d16
  25              	FLASH_MassErase:
  26              	.LVL0:
  27              	.LFB139:
  28              		.file 1 "Drivers/STM32G4xx_HAL_Driver/Src/stm32g4xx_hal_flash_ex.c"
   1:Drivers/STM32G4xx_HAL_Driver/Src/stm32g4xx_hal_flash_ex.c **** /**
   2:Drivers/STM32G4xx_HAL_Driver/Src/stm32g4xx_hal_flash_ex.c ****   ******************************************************************************
   3:Drivers/STM32G4xx_HAL_Driver/Src/stm32g4xx_hal_flash_ex.c ****   * @file    stm32g4xx_hal_flash_ex.c
   4:Drivers/STM32G4xx_HAL_Driver/Src/stm32g4xx_hal_flash_ex.c ****   * @author  MCD Application Team
   5:Drivers/STM32G4xx_HAL_Driver/Src/stm32g4xx_hal_flash_ex.c ****   * @brief   Extended FLASH HAL module driver.
   6:Drivers/STM32G4xx_HAL_Driver/Src/stm32g4xx_hal_flash_ex.c ****   *          This file provides firmware functions to manage the following
   7:Drivers/STM32G4xx_HAL_Driver/Src/stm32g4xx_hal_flash_ex.c ****   *          functionalities of the FLASH extended peripheral:
   8:Drivers/STM32G4xx_HAL_Driver/Src/stm32g4xx_hal_flash_ex.c ****   *           + Extended programming operations functions
   9:Drivers/STM32G4xx_HAL_Driver/Src/stm32g4xx_hal_flash_ex.c ****   *
  10:Drivers/STM32G4xx_HAL_Driver/Src/stm32g4xx_hal_flash_ex.c ****   @verbatim
  11:Drivers/STM32G4xx_HAL_Driver/Src/stm32g4xx_hal_flash_ex.c ****   ==============================================================================
  12:Drivers/STM32G4xx_HAL_Driver/Src/stm32g4xx_hal_flash_ex.c ****                    ##### Flash Extended features #####
  13:Drivers/STM32G4xx_HAL_Driver/Src/stm32g4xx_hal_flash_ex.c ****   ==============================================================================
  14:Drivers/STM32G4xx_HAL_Driver/Src/stm32g4xx_hal_flash_ex.c **** 
  15:Drivers/STM32G4xx_HAL_Driver/Src/stm32g4xx_hal_flash_ex.c ****   [..] Comparing to other previous devices, the FLASH interface for STM32G4xx
  16:Drivers/STM32G4xx_HAL_Driver/Src/stm32g4xx_hal_flash_ex.c ****        devices contains the following additional features
  17:Drivers/STM32G4xx_HAL_Driver/Src/stm32g4xx_hal_flash_ex.c **** 
  18:Drivers/STM32G4xx_HAL_Driver/Src/stm32g4xx_hal_flash_ex.c ****        (+) Capacity up to 512 Kbytes with dual bank architecture supporting read-while-write
  19:Drivers/STM32G4xx_HAL_Driver/Src/stm32g4xx_hal_flash_ex.c ****            capability (RWW)
  20:Drivers/STM32G4xx_HAL_Driver/Src/stm32g4xx_hal_flash_ex.c ****        (+) Dual bank 64-bits memory organization with possibility of single bank 128-bits
  21:Drivers/STM32G4xx_HAL_Driver/Src/stm32g4xx_hal_flash_ex.c ****        (+) Protected areas including WRP, PCROP and Securable memory
  22:Drivers/STM32G4xx_HAL_Driver/Src/stm32g4xx_hal_flash_ex.c **** 
  23:Drivers/STM32G4xx_HAL_Driver/Src/stm32g4xx_hal_flash_ex.c ****                         ##### How to use this driver #####
  24:Drivers/STM32G4xx_HAL_Driver/Src/stm32g4xx_hal_flash_ex.c ****   ==============================================================================
  25:Drivers/STM32G4xx_HAL_Driver/Src/stm32g4xx_hal_flash_ex.c ****   [..] This driver provides functions to configure and program the FLASH memory
  26:Drivers/STM32G4xx_HAL_Driver/Src/stm32g4xx_hal_flash_ex.c ****        of all STM32G4xx devices. It includes
  27:Drivers/STM32G4xx_HAL_Driver/Src/stm32g4xx_hal_flash_ex.c ****       (#) Flash Memory Erase functions:
  28:Drivers/STM32G4xx_HAL_Driver/Src/stm32g4xx_hal_flash_ex.c ****            (++) Lock and Unlock the FLASH interface using HAL_FLASH_Unlock() and
  29:Drivers/STM32G4xx_HAL_Driver/Src/stm32g4xx_hal_flash_ex.c ****                 HAL_FLASH_Lock() functions
  30:Drivers/STM32G4xx_HAL_Driver/Src/stm32g4xx_hal_flash_ex.c ****            (++) Erase function: Erase pages, or mass erase banks
ARM GAS  /tmp/ccBOcut4.s 			page 2


  31:Drivers/STM32G4xx_HAL_Driver/Src/stm32g4xx_hal_flash_ex.c ****            (++) There are two modes of erase :
  32:Drivers/STM32G4xx_HAL_Driver/Src/stm32g4xx_hal_flash_ex.c ****              (+++) Polling Mode using HAL_FLASHEx_Erase()
  33:Drivers/STM32G4xx_HAL_Driver/Src/stm32g4xx_hal_flash_ex.c ****              (+++) Interrupt Mode using HAL_FLASHEx_Erase_IT()
  34:Drivers/STM32G4xx_HAL_Driver/Src/stm32g4xx_hal_flash_ex.c **** 
  35:Drivers/STM32G4xx_HAL_Driver/Src/stm32g4xx_hal_flash_ex.c ****       (#) Option Bytes Programming function: Use HAL_FLASHEx_OBProgram() to:
  36:Drivers/STM32G4xx_HAL_Driver/Src/stm32g4xx_hal_flash_ex.c ****         (++) Configure the write protection areas (WRP)
  37:Drivers/STM32G4xx_HAL_Driver/Src/stm32g4xx_hal_flash_ex.c ****         (++) Set the Read protection Level (RDP)
  38:Drivers/STM32G4xx_HAL_Driver/Src/stm32g4xx_hal_flash_ex.c ****         (++) Program the user Option Bytes
  39:Drivers/STM32G4xx_HAL_Driver/Src/stm32g4xx_hal_flash_ex.c ****         (++) Configure the Proprietary Code ReadOut protection areas (PCROP)
  40:Drivers/STM32G4xx_HAL_Driver/Src/stm32g4xx_hal_flash_ex.c ****         (++) Configure the Securable memory areas
  41:Drivers/STM32G4xx_HAL_Driver/Src/stm32g4xx_hal_flash_ex.c ****         (++) Configure the Boot Lock
  42:Drivers/STM32G4xx_HAL_Driver/Src/stm32g4xx_hal_flash_ex.c **** 
  43:Drivers/STM32G4xx_HAL_Driver/Src/stm32g4xx_hal_flash_ex.c ****       (#) Get Option Bytes Configuration function: Use HAL_FLASHEx_OBGetConfig() to:
  44:Drivers/STM32G4xx_HAL_Driver/Src/stm32g4xx_hal_flash_ex.c ****         (++) Get the configuration of write protection areas (WRP)
  45:Drivers/STM32G4xx_HAL_Driver/Src/stm32g4xx_hal_flash_ex.c ****         (++) Get the level of read protection (RDP)
  46:Drivers/STM32G4xx_HAL_Driver/Src/stm32g4xx_hal_flash_ex.c ****         (++) Get the value of the user Option Bytes
  47:Drivers/STM32G4xx_HAL_Driver/Src/stm32g4xx_hal_flash_ex.c ****         (++) Get the configuration of Proprietary Code ReadOut Protection areas (PCROP)
  48:Drivers/STM32G4xx_HAL_Driver/Src/stm32g4xx_hal_flash_ex.c ****         (++) Get the configuration of Securable memory areas
  49:Drivers/STM32G4xx_HAL_Driver/Src/stm32g4xx_hal_flash_ex.c ****         (++) Get the status of Boot Lock
  50:Drivers/STM32G4xx_HAL_Driver/Src/stm32g4xx_hal_flash_ex.c **** 
  51:Drivers/STM32G4xx_HAL_Driver/Src/stm32g4xx_hal_flash_ex.c ****       (#) Activation of Securable memory area: Use HAL_FLASHEx_EnableSecMemProtection()
  52:Drivers/STM32G4xx_HAL_Driver/Src/stm32g4xx_hal_flash_ex.c ****         (++) Deny the access to securable memory area
  53:Drivers/STM32G4xx_HAL_Driver/Src/stm32g4xx_hal_flash_ex.c **** 
  54:Drivers/STM32G4xx_HAL_Driver/Src/stm32g4xx_hal_flash_ex.c ****       (#) Enable or disable debugger: Use HAL_FLASHEx_EnableDebugger() or
  55:Drivers/STM32G4xx_HAL_Driver/Src/stm32g4xx_hal_flash_ex.c ****           HAL_FLASHEx_DisableDebugger()
  56:Drivers/STM32G4xx_HAL_Driver/Src/stm32g4xx_hal_flash_ex.c **** 
  57:Drivers/STM32G4xx_HAL_Driver/Src/stm32g4xx_hal_flash_ex.c ****   @endverbatim
  58:Drivers/STM32G4xx_HAL_Driver/Src/stm32g4xx_hal_flash_ex.c ****   ******************************************************************************
  59:Drivers/STM32G4xx_HAL_Driver/Src/stm32g4xx_hal_flash_ex.c ****   * @attention
  60:Drivers/STM32G4xx_HAL_Driver/Src/stm32g4xx_hal_flash_ex.c ****   *
  61:Drivers/STM32G4xx_HAL_Driver/Src/stm32g4xx_hal_flash_ex.c ****   * Copyright (c) 2019 STMicroelectronics.
  62:Drivers/STM32G4xx_HAL_Driver/Src/stm32g4xx_hal_flash_ex.c ****   * All rights reserved.
  63:Drivers/STM32G4xx_HAL_Driver/Src/stm32g4xx_hal_flash_ex.c ****   *
  64:Drivers/STM32G4xx_HAL_Driver/Src/stm32g4xx_hal_flash_ex.c ****   * This software is licensed under terms that can be found in the LICENSE file in
  65:Drivers/STM32G4xx_HAL_Driver/Src/stm32g4xx_hal_flash_ex.c ****   * the root directory of this software component.
  66:Drivers/STM32G4xx_HAL_Driver/Src/stm32g4xx_hal_flash_ex.c ****   * If no LICENSE file comes with this software, it is provided AS-IS.
  67:Drivers/STM32G4xx_HAL_Driver/Src/stm32g4xx_hal_flash_ex.c ****   ******************************************************************************
  68:Drivers/STM32G4xx_HAL_Driver/Src/stm32g4xx_hal_flash_ex.c ****   */
  69:Drivers/STM32G4xx_HAL_Driver/Src/stm32g4xx_hal_flash_ex.c **** 
  70:Drivers/STM32G4xx_HAL_Driver/Src/stm32g4xx_hal_flash_ex.c **** /* Includes ------------------------------------------------------------------*/
  71:Drivers/STM32G4xx_HAL_Driver/Src/stm32g4xx_hal_flash_ex.c **** #include "stm32g4xx_hal.h"
  72:Drivers/STM32G4xx_HAL_Driver/Src/stm32g4xx_hal_flash_ex.c **** 
  73:Drivers/STM32G4xx_HAL_Driver/Src/stm32g4xx_hal_flash_ex.c **** /** @addtogroup STM32G4xx_HAL_Driver
  74:Drivers/STM32G4xx_HAL_Driver/Src/stm32g4xx_hal_flash_ex.c ****   * @{
  75:Drivers/STM32G4xx_HAL_Driver/Src/stm32g4xx_hal_flash_ex.c ****   */
  76:Drivers/STM32G4xx_HAL_Driver/Src/stm32g4xx_hal_flash_ex.c **** 
  77:Drivers/STM32G4xx_HAL_Driver/Src/stm32g4xx_hal_flash_ex.c **** /** @defgroup FLASHEx FLASHEx
  78:Drivers/STM32G4xx_HAL_Driver/Src/stm32g4xx_hal_flash_ex.c ****   * @brief FLASH Extended HAL module driver
  79:Drivers/STM32G4xx_HAL_Driver/Src/stm32g4xx_hal_flash_ex.c ****   * @{
  80:Drivers/STM32G4xx_HAL_Driver/Src/stm32g4xx_hal_flash_ex.c ****   */
  81:Drivers/STM32G4xx_HAL_Driver/Src/stm32g4xx_hal_flash_ex.c **** 
  82:Drivers/STM32G4xx_HAL_Driver/Src/stm32g4xx_hal_flash_ex.c **** #ifdef HAL_FLASH_MODULE_ENABLED
  83:Drivers/STM32G4xx_HAL_Driver/Src/stm32g4xx_hal_flash_ex.c **** 
  84:Drivers/STM32G4xx_HAL_Driver/Src/stm32g4xx_hal_flash_ex.c **** /* Private typedef -----------------------------------------------------------*/
  85:Drivers/STM32G4xx_HAL_Driver/Src/stm32g4xx_hal_flash_ex.c **** /* Private define ------------------------------------------------------------*/
  86:Drivers/STM32G4xx_HAL_Driver/Src/stm32g4xx_hal_flash_ex.c **** /* Private macro -------------------------------------------------------------*/
  87:Drivers/STM32G4xx_HAL_Driver/Src/stm32g4xx_hal_flash_ex.c **** /* Private variables ---------------------------------------------------------*/
ARM GAS  /tmp/ccBOcut4.s 			page 3


  88:Drivers/STM32G4xx_HAL_Driver/Src/stm32g4xx_hal_flash_ex.c **** /* Private function prototypes -----------------------------------------------*/
  89:Drivers/STM32G4xx_HAL_Driver/Src/stm32g4xx_hal_flash_ex.c **** /** @defgroup FLASHEx_Private_Functions FLASHEx Private Functions
  90:Drivers/STM32G4xx_HAL_Driver/Src/stm32g4xx_hal_flash_ex.c ****   * @{
  91:Drivers/STM32G4xx_HAL_Driver/Src/stm32g4xx_hal_flash_ex.c ****   */
  92:Drivers/STM32G4xx_HAL_Driver/Src/stm32g4xx_hal_flash_ex.c **** static void              FLASH_MassErase(uint32_t Banks);
  93:Drivers/STM32G4xx_HAL_Driver/Src/stm32g4xx_hal_flash_ex.c **** static HAL_StatusTypeDef FLASH_OB_WRPConfig(uint32_t WRPArea, uint32_t WRPStartOffset, uint32_t WRD
  94:Drivers/STM32G4xx_HAL_Driver/Src/stm32g4xx_hal_flash_ex.c **** static HAL_StatusTypeDef FLASH_OB_RDPConfig(uint32_t RDPLevel);
  95:Drivers/STM32G4xx_HAL_Driver/Src/stm32g4xx_hal_flash_ex.c **** static HAL_StatusTypeDef FLASH_OB_UserConfig(uint32_t UserType, uint32_t UserConfig);
  96:Drivers/STM32G4xx_HAL_Driver/Src/stm32g4xx_hal_flash_ex.c **** static HAL_StatusTypeDef FLASH_OB_PCROPConfig(uint32_t PCROPConfig, uint32_t PCROPStartAddr, uint32
  97:Drivers/STM32G4xx_HAL_Driver/Src/stm32g4xx_hal_flash_ex.c **** static void              FLASH_OB_GetWRP(uint32_t WRPArea, uint32_t *WRPStartOffset, uint32_t *WRDP
  98:Drivers/STM32G4xx_HAL_Driver/Src/stm32g4xx_hal_flash_ex.c **** static uint32_t          FLASH_OB_GetRDP(void);
  99:Drivers/STM32G4xx_HAL_Driver/Src/stm32g4xx_hal_flash_ex.c **** static uint32_t          FLASH_OB_GetUser(void);
 100:Drivers/STM32G4xx_HAL_Driver/Src/stm32g4xx_hal_flash_ex.c **** static void              FLASH_OB_GetPCROP(uint32_t *PCROPConfig, uint32_t *PCROPStartAddr, uint32_
 101:Drivers/STM32G4xx_HAL_Driver/Src/stm32g4xx_hal_flash_ex.c **** static HAL_StatusTypeDef FLASH_OB_SecMemConfig(uint32_t SecMemBank, uint32_t SecMemSize);
 102:Drivers/STM32G4xx_HAL_Driver/Src/stm32g4xx_hal_flash_ex.c **** static void              FLASH_OB_GetSecMem(uint32_t SecMemBank, uint32_t *SecMemSize);
 103:Drivers/STM32G4xx_HAL_Driver/Src/stm32g4xx_hal_flash_ex.c **** static HAL_StatusTypeDef FLASH_OB_BootLockConfig(uint32_t BootLockConfig);
 104:Drivers/STM32G4xx_HAL_Driver/Src/stm32g4xx_hal_flash_ex.c **** static uint32_t          FLASH_OB_GetBootLock(void);
 105:Drivers/STM32G4xx_HAL_Driver/Src/stm32g4xx_hal_flash_ex.c **** 
 106:Drivers/STM32G4xx_HAL_Driver/Src/stm32g4xx_hal_flash_ex.c **** /**
 107:Drivers/STM32G4xx_HAL_Driver/Src/stm32g4xx_hal_flash_ex.c ****   * @}
 108:Drivers/STM32G4xx_HAL_Driver/Src/stm32g4xx_hal_flash_ex.c ****   */
 109:Drivers/STM32G4xx_HAL_Driver/Src/stm32g4xx_hal_flash_ex.c **** 
 110:Drivers/STM32G4xx_HAL_Driver/Src/stm32g4xx_hal_flash_ex.c **** /* Exported functions -------------------------------------------------------*/
 111:Drivers/STM32G4xx_HAL_Driver/Src/stm32g4xx_hal_flash_ex.c **** /** @defgroup FLASHEx_Exported_Functions FLASHEx Exported Functions
 112:Drivers/STM32G4xx_HAL_Driver/Src/stm32g4xx_hal_flash_ex.c ****   * @{
 113:Drivers/STM32G4xx_HAL_Driver/Src/stm32g4xx_hal_flash_ex.c ****   */
 114:Drivers/STM32G4xx_HAL_Driver/Src/stm32g4xx_hal_flash_ex.c **** 
 115:Drivers/STM32G4xx_HAL_Driver/Src/stm32g4xx_hal_flash_ex.c **** /** @defgroup FLASHEx_Exported_Functions_Group1 Extended IO operation functions
 116:Drivers/STM32G4xx_HAL_Driver/Src/stm32g4xx_hal_flash_ex.c ****   * @brief   Extended IO operation functions
 117:Drivers/STM32G4xx_HAL_Driver/Src/stm32g4xx_hal_flash_ex.c ****   *
 118:Drivers/STM32G4xx_HAL_Driver/Src/stm32g4xx_hal_flash_ex.c **** @verbatim
 119:Drivers/STM32G4xx_HAL_Driver/Src/stm32g4xx_hal_flash_ex.c ****  ===============================================================================
 120:Drivers/STM32G4xx_HAL_Driver/Src/stm32g4xx_hal_flash_ex.c ****                 ##### Extended programming operation functions #####
 121:Drivers/STM32G4xx_HAL_Driver/Src/stm32g4xx_hal_flash_ex.c ****  ===============================================================================
 122:Drivers/STM32G4xx_HAL_Driver/Src/stm32g4xx_hal_flash_ex.c ****     [..]
 123:Drivers/STM32G4xx_HAL_Driver/Src/stm32g4xx_hal_flash_ex.c ****     This subsection provides a set of functions allowing to manage the Extended FLASH
 124:Drivers/STM32G4xx_HAL_Driver/Src/stm32g4xx_hal_flash_ex.c ****     programming operations Operations.
 125:Drivers/STM32G4xx_HAL_Driver/Src/stm32g4xx_hal_flash_ex.c **** 
 126:Drivers/STM32G4xx_HAL_Driver/Src/stm32g4xx_hal_flash_ex.c **** @endverbatim
 127:Drivers/STM32G4xx_HAL_Driver/Src/stm32g4xx_hal_flash_ex.c ****   * @{
 128:Drivers/STM32G4xx_HAL_Driver/Src/stm32g4xx_hal_flash_ex.c ****   */
 129:Drivers/STM32G4xx_HAL_Driver/Src/stm32g4xx_hal_flash_ex.c **** /**
 130:Drivers/STM32G4xx_HAL_Driver/Src/stm32g4xx_hal_flash_ex.c ****   * @brief  Perform a mass erase or erase the specified FLASH memory pages.
 131:Drivers/STM32G4xx_HAL_Driver/Src/stm32g4xx_hal_flash_ex.c ****   * @param[in]  pEraseInit pointer to an FLASH_EraseInitTypeDef structure that
 132:Drivers/STM32G4xx_HAL_Driver/Src/stm32g4xx_hal_flash_ex.c ****   *         contains the configuration information for the erasing.
 133:Drivers/STM32G4xx_HAL_Driver/Src/stm32g4xx_hal_flash_ex.c ****   * @param[out]  PageError pointer to variable that contains the configuration
 134:Drivers/STM32G4xx_HAL_Driver/Src/stm32g4xx_hal_flash_ex.c ****   *         information on faulty page in case of error (0xFFFFFFFF means that all
 135:Drivers/STM32G4xx_HAL_Driver/Src/stm32g4xx_hal_flash_ex.c ****   *         the pages have been correctly erased).
 136:Drivers/STM32G4xx_HAL_Driver/Src/stm32g4xx_hal_flash_ex.c ****   * @retval HAL_Status
 137:Drivers/STM32G4xx_HAL_Driver/Src/stm32g4xx_hal_flash_ex.c ****   */
 138:Drivers/STM32G4xx_HAL_Driver/Src/stm32g4xx_hal_flash_ex.c **** HAL_StatusTypeDef HAL_FLASHEx_Erase(FLASH_EraseInitTypeDef *pEraseInit, uint32_t *PageError)
 139:Drivers/STM32G4xx_HAL_Driver/Src/stm32g4xx_hal_flash_ex.c **** {
 140:Drivers/STM32G4xx_HAL_Driver/Src/stm32g4xx_hal_flash_ex.c ****   HAL_StatusTypeDef status;
 141:Drivers/STM32G4xx_HAL_Driver/Src/stm32g4xx_hal_flash_ex.c ****   uint32_t page_index;
 142:Drivers/STM32G4xx_HAL_Driver/Src/stm32g4xx_hal_flash_ex.c **** 
 143:Drivers/STM32G4xx_HAL_Driver/Src/stm32g4xx_hal_flash_ex.c ****   /* Check the parameters */
 144:Drivers/STM32G4xx_HAL_Driver/Src/stm32g4xx_hal_flash_ex.c ****   assert_param(IS_FLASH_TYPEERASE(pEraseInit->TypeErase));
ARM GAS  /tmp/ccBOcut4.s 			page 4


 145:Drivers/STM32G4xx_HAL_Driver/Src/stm32g4xx_hal_flash_ex.c **** 
 146:Drivers/STM32G4xx_HAL_Driver/Src/stm32g4xx_hal_flash_ex.c ****   /* Process Locked */
 147:Drivers/STM32G4xx_HAL_Driver/Src/stm32g4xx_hal_flash_ex.c ****   __HAL_LOCK(&pFlash);
 148:Drivers/STM32G4xx_HAL_Driver/Src/stm32g4xx_hal_flash_ex.c **** 
 149:Drivers/STM32G4xx_HAL_Driver/Src/stm32g4xx_hal_flash_ex.c ****   /* Wait for last operation to be completed */
 150:Drivers/STM32G4xx_HAL_Driver/Src/stm32g4xx_hal_flash_ex.c ****   status = FLASH_WaitForLastOperation((uint32_t)FLASH_TIMEOUT_VALUE);
 151:Drivers/STM32G4xx_HAL_Driver/Src/stm32g4xx_hal_flash_ex.c **** 
 152:Drivers/STM32G4xx_HAL_Driver/Src/stm32g4xx_hal_flash_ex.c ****   if (status == HAL_OK)
 153:Drivers/STM32G4xx_HAL_Driver/Src/stm32g4xx_hal_flash_ex.c ****   {
 154:Drivers/STM32G4xx_HAL_Driver/Src/stm32g4xx_hal_flash_ex.c ****     pFlash.ErrorCode = HAL_FLASH_ERROR_NONE;
 155:Drivers/STM32G4xx_HAL_Driver/Src/stm32g4xx_hal_flash_ex.c **** 
 156:Drivers/STM32G4xx_HAL_Driver/Src/stm32g4xx_hal_flash_ex.c ****     /* Deactivate the cache if they are activated to avoid data misbehavior */
 157:Drivers/STM32G4xx_HAL_Driver/Src/stm32g4xx_hal_flash_ex.c ****     if (READ_BIT(FLASH->ACR, FLASH_ACR_ICEN) != 0U)
 158:Drivers/STM32G4xx_HAL_Driver/Src/stm32g4xx_hal_flash_ex.c ****     {
 159:Drivers/STM32G4xx_HAL_Driver/Src/stm32g4xx_hal_flash_ex.c ****       if (READ_BIT(FLASH->ACR, FLASH_ACR_DCEN) != 0U)
 160:Drivers/STM32G4xx_HAL_Driver/Src/stm32g4xx_hal_flash_ex.c ****       {
 161:Drivers/STM32G4xx_HAL_Driver/Src/stm32g4xx_hal_flash_ex.c ****         /* Disable data cache  */
 162:Drivers/STM32G4xx_HAL_Driver/Src/stm32g4xx_hal_flash_ex.c ****         __HAL_FLASH_DATA_CACHE_DISABLE();
 163:Drivers/STM32G4xx_HAL_Driver/Src/stm32g4xx_hal_flash_ex.c ****         pFlash.CacheToReactivate = FLASH_CACHE_ICACHE_DCACHE_ENABLED;
 164:Drivers/STM32G4xx_HAL_Driver/Src/stm32g4xx_hal_flash_ex.c ****       }
 165:Drivers/STM32G4xx_HAL_Driver/Src/stm32g4xx_hal_flash_ex.c ****       else
 166:Drivers/STM32G4xx_HAL_Driver/Src/stm32g4xx_hal_flash_ex.c ****       {
 167:Drivers/STM32G4xx_HAL_Driver/Src/stm32g4xx_hal_flash_ex.c ****         pFlash.CacheToReactivate = FLASH_CACHE_ICACHE_ENABLED;
 168:Drivers/STM32G4xx_HAL_Driver/Src/stm32g4xx_hal_flash_ex.c ****       }
 169:Drivers/STM32G4xx_HAL_Driver/Src/stm32g4xx_hal_flash_ex.c ****     }
 170:Drivers/STM32G4xx_HAL_Driver/Src/stm32g4xx_hal_flash_ex.c ****     else if (READ_BIT(FLASH->ACR, FLASH_ACR_DCEN) != 0U)
 171:Drivers/STM32G4xx_HAL_Driver/Src/stm32g4xx_hal_flash_ex.c ****     {
 172:Drivers/STM32G4xx_HAL_Driver/Src/stm32g4xx_hal_flash_ex.c ****       /* Disable data cache  */
 173:Drivers/STM32G4xx_HAL_Driver/Src/stm32g4xx_hal_flash_ex.c ****       __HAL_FLASH_DATA_CACHE_DISABLE();
 174:Drivers/STM32G4xx_HAL_Driver/Src/stm32g4xx_hal_flash_ex.c ****       pFlash.CacheToReactivate = FLASH_CACHE_DCACHE_ENABLED;
 175:Drivers/STM32G4xx_HAL_Driver/Src/stm32g4xx_hal_flash_ex.c ****     }
 176:Drivers/STM32G4xx_HAL_Driver/Src/stm32g4xx_hal_flash_ex.c ****     else
 177:Drivers/STM32G4xx_HAL_Driver/Src/stm32g4xx_hal_flash_ex.c ****     {
 178:Drivers/STM32G4xx_HAL_Driver/Src/stm32g4xx_hal_flash_ex.c ****       pFlash.CacheToReactivate = FLASH_CACHE_DISABLED;
 179:Drivers/STM32G4xx_HAL_Driver/Src/stm32g4xx_hal_flash_ex.c ****     }
 180:Drivers/STM32G4xx_HAL_Driver/Src/stm32g4xx_hal_flash_ex.c **** 
 181:Drivers/STM32G4xx_HAL_Driver/Src/stm32g4xx_hal_flash_ex.c ****     if (pEraseInit->TypeErase == FLASH_TYPEERASE_MASSERASE)
 182:Drivers/STM32G4xx_HAL_Driver/Src/stm32g4xx_hal_flash_ex.c ****     {
 183:Drivers/STM32G4xx_HAL_Driver/Src/stm32g4xx_hal_flash_ex.c ****       /* Mass erase to be done */
 184:Drivers/STM32G4xx_HAL_Driver/Src/stm32g4xx_hal_flash_ex.c ****       FLASH_MassErase(pEraseInit->Banks);
 185:Drivers/STM32G4xx_HAL_Driver/Src/stm32g4xx_hal_flash_ex.c **** 
 186:Drivers/STM32G4xx_HAL_Driver/Src/stm32g4xx_hal_flash_ex.c ****       /* Wait for last operation to be completed */
 187:Drivers/STM32G4xx_HAL_Driver/Src/stm32g4xx_hal_flash_ex.c ****       status = FLASH_WaitForLastOperation((uint32_t)FLASH_TIMEOUT_VALUE);
 188:Drivers/STM32G4xx_HAL_Driver/Src/stm32g4xx_hal_flash_ex.c **** 
 189:Drivers/STM32G4xx_HAL_Driver/Src/stm32g4xx_hal_flash_ex.c **** #if defined (FLASH_OPTR_DBANK)
 190:Drivers/STM32G4xx_HAL_Driver/Src/stm32g4xx_hal_flash_ex.c ****       /* If the erase operation is completed, disable the MER1 and MER2 Bits */
 191:Drivers/STM32G4xx_HAL_Driver/Src/stm32g4xx_hal_flash_ex.c ****       CLEAR_BIT(FLASH->CR, (FLASH_CR_MER1 | FLASH_CR_MER2));
 192:Drivers/STM32G4xx_HAL_Driver/Src/stm32g4xx_hal_flash_ex.c **** #else
 193:Drivers/STM32G4xx_HAL_Driver/Src/stm32g4xx_hal_flash_ex.c ****       /* If the erase operation is completed, disable the MER1 Bit */
 194:Drivers/STM32G4xx_HAL_Driver/Src/stm32g4xx_hal_flash_ex.c ****       CLEAR_BIT(FLASH->CR, (FLASH_CR_MER1));
 195:Drivers/STM32G4xx_HAL_Driver/Src/stm32g4xx_hal_flash_ex.c **** #endif
 196:Drivers/STM32G4xx_HAL_Driver/Src/stm32g4xx_hal_flash_ex.c ****     }
 197:Drivers/STM32G4xx_HAL_Driver/Src/stm32g4xx_hal_flash_ex.c ****     else
 198:Drivers/STM32G4xx_HAL_Driver/Src/stm32g4xx_hal_flash_ex.c ****     {
 199:Drivers/STM32G4xx_HAL_Driver/Src/stm32g4xx_hal_flash_ex.c ****       /*Initialization of PageError variable*/
 200:Drivers/STM32G4xx_HAL_Driver/Src/stm32g4xx_hal_flash_ex.c ****       *PageError = 0xFFFFFFFFU;
 201:Drivers/STM32G4xx_HAL_Driver/Src/stm32g4xx_hal_flash_ex.c **** 
ARM GAS  /tmp/ccBOcut4.s 			page 5


 202:Drivers/STM32G4xx_HAL_Driver/Src/stm32g4xx_hal_flash_ex.c ****       for (page_index = pEraseInit->Page; page_index < (pEraseInit->Page + pEraseInit->NbPages); pa
 203:Drivers/STM32G4xx_HAL_Driver/Src/stm32g4xx_hal_flash_ex.c ****       {
 204:Drivers/STM32G4xx_HAL_Driver/Src/stm32g4xx_hal_flash_ex.c ****         FLASH_PageErase(page_index, pEraseInit->Banks);
 205:Drivers/STM32G4xx_HAL_Driver/Src/stm32g4xx_hal_flash_ex.c **** 
 206:Drivers/STM32G4xx_HAL_Driver/Src/stm32g4xx_hal_flash_ex.c ****         /* Wait for last operation to be completed */
 207:Drivers/STM32G4xx_HAL_Driver/Src/stm32g4xx_hal_flash_ex.c ****         status = FLASH_WaitForLastOperation((uint32_t)FLASH_TIMEOUT_VALUE);
 208:Drivers/STM32G4xx_HAL_Driver/Src/stm32g4xx_hal_flash_ex.c **** 
 209:Drivers/STM32G4xx_HAL_Driver/Src/stm32g4xx_hal_flash_ex.c ****         /* If the erase operation is completed, disable the PER Bit */
 210:Drivers/STM32G4xx_HAL_Driver/Src/stm32g4xx_hal_flash_ex.c ****         CLEAR_BIT(FLASH->CR, (FLASH_CR_PER | FLASH_CR_PNB));
 211:Drivers/STM32G4xx_HAL_Driver/Src/stm32g4xx_hal_flash_ex.c **** 
 212:Drivers/STM32G4xx_HAL_Driver/Src/stm32g4xx_hal_flash_ex.c ****         if (status != HAL_OK)
 213:Drivers/STM32G4xx_HAL_Driver/Src/stm32g4xx_hal_flash_ex.c ****         {
 214:Drivers/STM32G4xx_HAL_Driver/Src/stm32g4xx_hal_flash_ex.c ****           /* In case of error, stop erase procedure and return the faulty page */
 215:Drivers/STM32G4xx_HAL_Driver/Src/stm32g4xx_hal_flash_ex.c ****           *PageError = page_index;
 216:Drivers/STM32G4xx_HAL_Driver/Src/stm32g4xx_hal_flash_ex.c ****           break;
 217:Drivers/STM32G4xx_HAL_Driver/Src/stm32g4xx_hal_flash_ex.c ****         }
 218:Drivers/STM32G4xx_HAL_Driver/Src/stm32g4xx_hal_flash_ex.c ****       }
 219:Drivers/STM32G4xx_HAL_Driver/Src/stm32g4xx_hal_flash_ex.c ****     }
 220:Drivers/STM32G4xx_HAL_Driver/Src/stm32g4xx_hal_flash_ex.c **** 
 221:Drivers/STM32G4xx_HAL_Driver/Src/stm32g4xx_hal_flash_ex.c ****     /* Flush the caches to be sure of the data consistency */
 222:Drivers/STM32G4xx_HAL_Driver/Src/stm32g4xx_hal_flash_ex.c ****     FLASH_FlushCaches();
 223:Drivers/STM32G4xx_HAL_Driver/Src/stm32g4xx_hal_flash_ex.c ****   }
 224:Drivers/STM32G4xx_HAL_Driver/Src/stm32g4xx_hal_flash_ex.c **** 
 225:Drivers/STM32G4xx_HAL_Driver/Src/stm32g4xx_hal_flash_ex.c ****   /* Process Unlocked */
 226:Drivers/STM32G4xx_HAL_Driver/Src/stm32g4xx_hal_flash_ex.c ****   __HAL_UNLOCK(&pFlash);
 227:Drivers/STM32G4xx_HAL_Driver/Src/stm32g4xx_hal_flash_ex.c **** 
 228:Drivers/STM32G4xx_HAL_Driver/Src/stm32g4xx_hal_flash_ex.c ****   return status;
 229:Drivers/STM32G4xx_HAL_Driver/Src/stm32g4xx_hal_flash_ex.c **** }
 230:Drivers/STM32G4xx_HAL_Driver/Src/stm32g4xx_hal_flash_ex.c **** 
 231:Drivers/STM32G4xx_HAL_Driver/Src/stm32g4xx_hal_flash_ex.c **** /**
 232:Drivers/STM32G4xx_HAL_Driver/Src/stm32g4xx_hal_flash_ex.c ****   * @brief  Perform a mass erase or erase the specified FLASH memory pages with interrupt enabled.
 233:Drivers/STM32G4xx_HAL_Driver/Src/stm32g4xx_hal_flash_ex.c ****   * @param  pEraseInit pointer to an FLASH_EraseInitTypeDef structure that
 234:Drivers/STM32G4xx_HAL_Driver/Src/stm32g4xx_hal_flash_ex.c ****   *         contains the configuration information for the erasing.
 235:Drivers/STM32G4xx_HAL_Driver/Src/stm32g4xx_hal_flash_ex.c ****   * @retval HAL_Status
 236:Drivers/STM32G4xx_HAL_Driver/Src/stm32g4xx_hal_flash_ex.c ****   */
 237:Drivers/STM32G4xx_HAL_Driver/Src/stm32g4xx_hal_flash_ex.c **** HAL_StatusTypeDef HAL_FLASHEx_Erase_IT(FLASH_EraseInitTypeDef *pEraseInit)
 238:Drivers/STM32G4xx_HAL_Driver/Src/stm32g4xx_hal_flash_ex.c **** {
 239:Drivers/STM32G4xx_HAL_Driver/Src/stm32g4xx_hal_flash_ex.c ****   HAL_StatusTypeDef status = HAL_OK;
 240:Drivers/STM32G4xx_HAL_Driver/Src/stm32g4xx_hal_flash_ex.c **** 
 241:Drivers/STM32G4xx_HAL_Driver/Src/stm32g4xx_hal_flash_ex.c ****   /* Process Locked */
 242:Drivers/STM32G4xx_HAL_Driver/Src/stm32g4xx_hal_flash_ex.c ****   __HAL_LOCK(&pFlash);
 243:Drivers/STM32G4xx_HAL_Driver/Src/stm32g4xx_hal_flash_ex.c **** 
 244:Drivers/STM32G4xx_HAL_Driver/Src/stm32g4xx_hal_flash_ex.c ****   /* Check the parameters */
 245:Drivers/STM32G4xx_HAL_Driver/Src/stm32g4xx_hal_flash_ex.c ****   assert_param(IS_FLASH_TYPEERASE(pEraseInit->TypeErase));
 246:Drivers/STM32G4xx_HAL_Driver/Src/stm32g4xx_hal_flash_ex.c **** 
 247:Drivers/STM32G4xx_HAL_Driver/Src/stm32g4xx_hal_flash_ex.c ****   pFlash.ErrorCode = HAL_FLASH_ERROR_NONE;
 248:Drivers/STM32G4xx_HAL_Driver/Src/stm32g4xx_hal_flash_ex.c **** 
 249:Drivers/STM32G4xx_HAL_Driver/Src/stm32g4xx_hal_flash_ex.c ****   /* Deactivate the cache if they are activated to avoid data misbehavior */
 250:Drivers/STM32G4xx_HAL_Driver/Src/stm32g4xx_hal_flash_ex.c ****   if (READ_BIT(FLASH->ACR, FLASH_ACR_ICEN) != 0U)
 251:Drivers/STM32G4xx_HAL_Driver/Src/stm32g4xx_hal_flash_ex.c ****   {
 252:Drivers/STM32G4xx_HAL_Driver/Src/stm32g4xx_hal_flash_ex.c ****     if (READ_BIT(FLASH->ACR, FLASH_ACR_DCEN) != 0U)
 253:Drivers/STM32G4xx_HAL_Driver/Src/stm32g4xx_hal_flash_ex.c ****     {
 254:Drivers/STM32G4xx_HAL_Driver/Src/stm32g4xx_hal_flash_ex.c ****       /* Disable data cache  */
 255:Drivers/STM32G4xx_HAL_Driver/Src/stm32g4xx_hal_flash_ex.c ****       __HAL_FLASH_DATA_CACHE_DISABLE();
 256:Drivers/STM32G4xx_HAL_Driver/Src/stm32g4xx_hal_flash_ex.c ****       pFlash.CacheToReactivate = FLASH_CACHE_ICACHE_DCACHE_ENABLED;
 257:Drivers/STM32G4xx_HAL_Driver/Src/stm32g4xx_hal_flash_ex.c ****     }
 258:Drivers/STM32G4xx_HAL_Driver/Src/stm32g4xx_hal_flash_ex.c ****     else
ARM GAS  /tmp/ccBOcut4.s 			page 6


 259:Drivers/STM32G4xx_HAL_Driver/Src/stm32g4xx_hal_flash_ex.c ****     {
 260:Drivers/STM32G4xx_HAL_Driver/Src/stm32g4xx_hal_flash_ex.c ****       pFlash.CacheToReactivate = FLASH_CACHE_ICACHE_ENABLED;
 261:Drivers/STM32G4xx_HAL_Driver/Src/stm32g4xx_hal_flash_ex.c ****     }
 262:Drivers/STM32G4xx_HAL_Driver/Src/stm32g4xx_hal_flash_ex.c ****   }
 263:Drivers/STM32G4xx_HAL_Driver/Src/stm32g4xx_hal_flash_ex.c ****   else if (READ_BIT(FLASH->ACR, FLASH_ACR_DCEN) != 0U)
 264:Drivers/STM32G4xx_HAL_Driver/Src/stm32g4xx_hal_flash_ex.c ****   {
 265:Drivers/STM32G4xx_HAL_Driver/Src/stm32g4xx_hal_flash_ex.c ****     /* Disable data cache  */
 266:Drivers/STM32G4xx_HAL_Driver/Src/stm32g4xx_hal_flash_ex.c ****     __HAL_FLASH_DATA_CACHE_DISABLE();
 267:Drivers/STM32G4xx_HAL_Driver/Src/stm32g4xx_hal_flash_ex.c ****     pFlash.CacheToReactivate = FLASH_CACHE_DCACHE_ENABLED;
 268:Drivers/STM32G4xx_HAL_Driver/Src/stm32g4xx_hal_flash_ex.c ****   }
 269:Drivers/STM32G4xx_HAL_Driver/Src/stm32g4xx_hal_flash_ex.c ****   else
 270:Drivers/STM32G4xx_HAL_Driver/Src/stm32g4xx_hal_flash_ex.c ****   {
 271:Drivers/STM32G4xx_HAL_Driver/Src/stm32g4xx_hal_flash_ex.c ****     pFlash.CacheToReactivate = FLASH_CACHE_DISABLED;
 272:Drivers/STM32G4xx_HAL_Driver/Src/stm32g4xx_hal_flash_ex.c ****   }
 273:Drivers/STM32G4xx_HAL_Driver/Src/stm32g4xx_hal_flash_ex.c **** 
 274:Drivers/STM32G4xx_HAL_Driver/Src/stm32g4xx_hal_flash_ex.c ****   /* Enable End of Operation and Error interrupts */
 275:Drivers/STM32G4xx_HAL_Driver/Src/stm32g4xx_hal_flash_ex.c ****   __HAL_FLASH_ENABLE_IT(FLASH_IT_EOP | FLASH_IT_OPERR);
 276:Drivers/STM32G4xx_HAL_Driver/Src/stm32g4xx_hal_flash_ex.c **** 
 277:Drivers/STM32G4xx_HAL_Driver/Src/stm32g4xx_hal_flash_ex.c ****   pFlash.Bank = pEraseInit->Banks;
 278:Drivers/STM32G4xx_HAL_Driver/Src/stm32g4xx_hal_flash_ex.c **** 
 279:Drivers/STM32G4xx_HAL_Driver/Src/stm32g4xx_hal_flash_ex.c ****   if (pEraseInit->TypeErase == FLASH_TYPEERASE_MASSERASE)
 280:Drivers/STM32G4xx_HAL_Driver/Src/stm32g4xx_hal_flash_ex.c ****   {
 281:Drivers/STM32G4xx_HAL_Driver/Src/stm32g4xx_hal_flash_ex.c ****     /* Mass erase to be done */
 282:Drivers/STM32G4xx_HAL_Driver/Src/stm32g4xx_hal_flash_ex.c ****     pFlash.ProcedureOnGoing = FLASH_PROC_MASS_ERASE;
 283:Drivers/STM32G4xx_HAL_Driver/Src/stm32g4xx_hal_flash_ex.c ****     FLASH_MassErase(pEraseInit->Banks);
 284:Drivers/STM32G4xx_HAL_Driver/Src/stm32g4xx_hal_flash_ex.c ****   }
 285:Drivers/STM32G4xx_HAL_Driver/Src/stm32g4xx_hal_flash_ex.c ****   else
 286:Drivers/STM32G4xx_HAL_Driver/Src/stm32g4xx_hal_flash_ex.c ****   {
 287:Drivers/STM32G4xx_HAL_Driver/Src/stm32g4xx_hal_flash_ex.c ****     /* Erase by page to be done */
 288:Drivers/STM32G4xx_HAL_Driver/Src/stm32g4xx_hal_flash_ex.c ****     pFlash.ProcedureOnGoing = FLASH_PROC_PAGE_ERASE;
 289:Drivers/STM32G4xx_HAL_Driver/Src/stm32g4xx_hal_flash_ex.c ****     pFlash.NbPagesToErase = pEraseInit->NbPages;
 290:Drivers/STM32G4xx_HAL_Driver/Src/stm32g4xx_hal_flash_ex.c ****     pFlash.Page = pEraseInit->Page;
 291:Drivers/STM32G4xx_HAL_Driver/Src/stm32g4xx_hal_flash_ex.c **** 
 292:Drivers/STM32G4xx_HAL_Driver/Src/stm32g4xx_hal_flash_ex.c ****     /*Erase 1st page and wait for IT */
 293:Drivers/STM32G4xx_HAL_Driver/Src/stm32g4xx_hal_flash_ex.c ****     FLASH_PageErase(pEraseInit->Page, pEraseInit->Banks);
 294:Drivers/STM32G4xx_HAL_Driver/Src/stm32g4xx_hal_flash_ex.c ****   }
 295:Drivers/STM32G4xx_HAL_Driver/Src/stm32g4xx_hal_flash_ex.c **** 
 296:Drivers/STM32G4xx_HAL_Driver/Src/stm32g4xx_hal_flash_ex.c ****   return status;
 297:Drivers/STM32G4xx_HAL_Driver/Src/stm32g4xx_hal_flash_ex.c **** }
 298:Drivers/STM32G4xx_HAL_Driver/Src/stm32g4xx_hal_flash_ex.c **** 
 299:Drivers/STM32G4xx_HAL_Driver/Src/stm32g4xx_hal_flash_ex.c **** /**
 300:Drivers/STM32G4xx_HAL_Driver/Src/stm32g4xx_hal_flash_ex.c ****   * @brief  Program Option bytes.
 301:Drivers/STM32G4xx_HAL_Driver/Src/stm32g4xx_hal_flash_ex.c ****   * @param  pOBInit pointer to an FLASH_OBInitStruct structure that
 302:Drivers/STM32G4xx_HAL_Driver/Src/stm32g4xx_hal_flash_ex.c ****   *         contains the configuration information for the programming.
 303:Drivers/STM32G4xx_HAL_Driver/Src/stm32g4xx_hal_flash_ex.c ****   * @note   To configure any option bytes, the option lock bit OPTLOCK must be
 304:Drivers/STM32G4xx_HAL_Driver/Src/stm32g4xx_hal_flash_ex.c ****   *         cleared with the call of HAL_FLASH_OB_Unlock() function.
 305:Drivers/STM32G4xx_HAL_Driver/Src/stm32g4xx_hal_flash_ex.c ****   * @note   New option bytes configuration will be taken into account in two cases:
 306:Drivers/STM32G4xx_HAL_Driver/Src/stm32g4xx_hal_flash_ex.c ****   *         - after an option bytes launch through the call of HAL_FLASH_OB_Launch()
 307:Drivers/STM32G4xx_HAL_Driver/Src/stm32g4xx_hal_flash_ex.c ****   *         - after a power reset (BOR reset or exit from Standby/Shutdown modes)
 308:Drivers/STM32G4xx_HAL_Driver/Src/stm32g4xx_hal_flash_ex.c ****   * @retval HAL_Status
 309:Drivers/STM32G4xx_HAL_Driver/Src/stm32g4xx_hal_flash_ex.c ****   */
 310:Drivers/STM32G4xx_HAL_Driver/Src/stm32g4xx_hal_flash_ex.c **** HAL_StatusTypeDef HAL_FLASHEx_OBProgram(FLASH_OBProgramInitTypeDef *pOBInit)
 311:Drivers/STM32G4xx_HAL_Driver/Src/stm32g4xx_hal_flash_ex.c **** {
 312:Drivers/STM32G4xx_HAL_Driver/Src/stm32g4xx_hal_flash_ex.c ****   HAL_StatusTypeDef status = HAL_OK;
 313:Drivers/STM32G4xx_HAL_Driver/Src/stm32g4xx_hal_flash_ex.c **** 
 314:Drivers/STM32G4xx_HAL_Driver/Src/stm32g4xx_hal_flash_ex.c ****   /* Check the parameters */
 315:Drivers/STM32G4xx_HAL_Driver/Src/stm32g4xx_hal_flash_ex.c ****   assert_param(IS_OPTIONBYTE(pOBInit->OptionType));
ARM GAS  /tmp/ccBOcut4.s 			page 7


 316:Drivers/STM32G4xx_HAL_Driver/Src/stm32g4xx_hal_flash_ex.c **** 
 317:Drivers/STM32G4xx_HAL_Driver/Src/stm32g4xx_hal_flash_ex.c ****   /* Process Locked */
 318:Drivers/STM32G4xx_HAL_Driver/Src/stm32g4xx_hal_flash_ex.c ****   __HAL_LOCK(&pFlash);
 319:Drivers/STM32G4xx_HAL_Driver/Src/stm32g4xx_hal_flash_ex.c **** 
 320:Drivers/STM32G4xx_HAL_Driver/Src/stm32g4xx_hal_flash_ex.c ****   pFlash.ErrorCode = HAL_FLASH_ERROR_NONE;
 321:Drivers/STM32G4xx_HAL_Driver/Src/stm32g4xx_hal_flash_ex.c **** 
 322:Drivers/STM32G4xx_HAL_Driver/Src/stm32g4xx_hal_flash_ex.c ****   /* Write protection configuration */
 323:Drivers/STM32G4xx_HAL_Driver/Src/stm32g4xx_hal_flash_ex.c ****   if ((pOBInit->OptionType & OPTIONBYTE_WRP) != 0U)
 324:Drivers/STM32G4xx_HAL_Driver/Src/stm32g4xx_hal_flash_ex.c ****   {
 325:Drivers/STM32G4xx_HAL_Driver/Src/stm32g4xx_hal_flash_ex.c ****     /* Configure of Write protection on the selected area */
 326:Drivers/STM32G4xx_HAL_Driver/Src/stm32g4xx_hal_flash_ex.c ****     if (FLASH_OB_WRPConfig(pOBInit->WRPArea, pOBInit->WRPStartOffset, pOBInit->WRPEndOffset) != HAL
 327:Drivers/STM32G4xx_HAL_Driver/Src/stm32g4xx_hal_flash_ex.c ****     {
 328:Drivers/STM32G4xx_HAL_Driver/Src/stm32g4xx_hal_flash_ex.c ****       status = HAL_ERROR;
 329:Drivers/STM32G4xx_HAL_Driver/Src/stm32g4xx_hal_flash_ex.c ****     }
 330:Drivers/STM32G4xx_HAL_Driver/Src/stm32g4xx_hal_flash_ex.c ****   }
 331:Drivers/STM32G4xx_HAL_Driver/Src/stm32g4xx_hal_flash_ex.c **** 
 332:Drivers/STM32G4xx_HAL_Driver/Src/stm32g4xx_hal_flash_ex.c ****   /* Read protection configuration */
 333:Drivers/STM32G4xx_HAL_Driver/Src/stm32g4xx_hal_flash_ex.c ****   if ((pOBInit->OptionType & OPTIONBYTE_RDP) != 0U)
 334:Drivers/STM32G4xx_HAL_Driver/Src/stm32g4xx_hal_flash_ex.c ****   {
 335:Drivers/STM32G4xx_HAL_Driver/Src/stm32g4xx_hal_flash_ex.c ****     /* Configure the Read protection level */
 336:Drivers/STM32G4xx_HAL_Driver/Src/stm32g4xx_hal_flash_ex.c ****     if (FLASH_OB_RDPConfig(pOBInit->RDPLevel) != HAL_OK)
 337:Drivers/STM32G4xx_HAL_Driver/Src/stm32g4xx_hal_flash_ex.c ****     {
 338:Drivers/STM32G4xx_HAL_Driver/Src/stm32g4xx_hal_flash_ex.c ****       status = HAL_ERROR;
 339:Drivers/STM32G4xx_HAL_Driver/Src/stm32g4xx_hal_flash_ex.c ****     }
 340:Drivers/STM32G4xx_HAL_Driver/Src/stm32g4xx_hal_flash_ex.c ****   }
 341:Drivers/STM32G4xx_HAL_Driver/Src/stm32g4xx_hal_flash_ex.c **** 
 342:Drivers/STM32G4xx_HAL_Driver/Src/stm32g4xx_hal_flash_ex.c ****   /* User Configuration */
 343:Drivers/STM32G4xx_HAL_Driver/Src/stm32g4xx_hal_flash_ex.c ****   if ((pOBInit->OptionType & OPTIONBYTE_USER) != 0U)
 344:Drivers/STM32G4xx_HAL_Driver/Src/stm32g4xx_hal_flash_ex.c ****   {
 345:Drivers/STM32G4xx_HAL_Driver/Src/stm32g4xx_hal_flash_ex.c ****     /* Configure the user option bytes */
 346:Drivers/STM32G4xx_HAL_Driver/Src/stm32g4xx_hal_flash_ex.c ****     if (FLASH_OB_UserConfig(pOBInit->USERType, pOBInit->USERConfig) != HAL_OK)
 347:Drivers/STM32G4xx_HAL_Driver/Src/stm32g4xx_hal_flash_ex.c ****     {
 348:Drivers/STM32G4xx_HAL_Driver/Src/stm32g4xx_hal_flash_ex.c ****       status = HAL_ERROR;
 349:Drivers/STM32G4xx_HAL_Driver/Src/stm32g4xx_hal_flash_ex.c ****     }
 350:Drivers/STM32G4xx_HAL_Driver/Src/stm32g4xx_hal_flash_ex.c ****   }
 351:Drivers/STM32G4xx_HAL_Driver/Src/stm32g4xx_hal_flash_ex.c **** 
 352:Drivers/STM32G4xx_HAL_Driver/Src/stm32g4xx_hal_flash_ex.c ****   /* PCROP Configuration */
 353:Drivers/STM32G4xx_HAL_Driver/Src/stm32g4xx_hal_flash_ex.c ****   if ((pOBInit->OptionType & OPTIONBYTE_PCROP) != 0U)
 354:Drivers/STM32G4xx_HAL_Driver/Src/stm32g4xx_hal_flash_ex.c ****   {
 355:Drivers/STM32G4xx_HAL_Driver/Src/stm32g4xx_hal_flash_ex.c ****     if (pOBInit->PCROPStartAddr != pOBInit->PCROPEndAddr)
 356:Drivers/STM32G4xx_HAL_Driver/Src/stm32g4xx_hal_flash_ex.c ****     {
 357:Drivers/STM32G4xx_HAL_Driver/Src/stm32g4xx_hal_flash_ex.c ****       /* Configure the Proprietary code readout protection */
 358:Drivers/STM32G4xx_HAL_Driver/Src/stm32g4xx_hal_flash_ex.c ****       if (FLASH_OB_PCROPConfig(pOBInit->PCROPConfig, pOBInit->PCROPStartAddr, pOBInit->PCROPEndAddr
 359:Drivers/STM32G4xx_HAL_Driver/Src/stm32g4xx_hal_flash_ex.c ****       {
 360:Drivers/STM32G4xx_HAL_Driver/Src/stm32g4xx_hal_flash_ex.c ****         status = HAL_ERROR;
 361:Drivers/STM32G4xx_HAL_Driver/Src/stm32g4xx_hal_flash_ex.c ****       }
 362:Drivers/STM32G4xx_HAL_Driver/Src/stm32g4xx_hal_flash_ex.c ****     }
 363:Drivers/STM32G4xx_HAL_Driver/Src/stm32g4xx_hal_flash_ex.c ****   }
 364:Drivers/STM32G4xx_HAL_Driver/Src/stm32g4xx_hal_flash_ex.c **** 
 365:Drivers/STM32G4xx_HAL_Driver/Src/stm32g4xx_hal_flash_ex.c ****   /* Securable memory Configuration */
 366:Drivers/STM32G4xx_HAL_Driver/Src/stm32g4xx_hal_flash_ex.c ****   if ((pOBInit->OptionType & OPTIONBYTE_SEC) != 0U)
 367:Drivers/STM32G4xx_HAL_Driver/Src/stm32g4xx_hal_flash_ex.c ****   {
 368:Drivers/STM32G4xx_HAL_Driver/Src/stm32g4xx_hal_flash_ex.c ****     /* Configure the securable memory area */
 369:Drivers/STM32G4xx_HAL_Driver/Src/stm32g4xx_hal_flash_ex.c ****     if (FLASH_OB_SecMemConfig(pOBInit->SecBank, pOBInit->SecSize) != HAL_OK)
 370:Drivers/STM32G4xx_HAL_Driver/Src/stm32g4xx_hal_flash_ex.c ****     {
 371:Drivers/STM32G4xx_HAL_Driver/Src/stm32g4xx_hal_flash_ex.c ****       status = HAL_ERROR;
 372:Drivers/STM32G4xx_HAL_Driver/Src/stm32g4xx_hal_flash_ex.c ****     }
ARM GAS  /tmp/ccBOcut4.s 			page 8


 373:Drivers/STM32G4xx_HAL_Driver/Src/stm32g4xx_hal_flash_ex.c ****   }
 374:Drivers/STM32G4xx_HAL_Driver/Src/stm32g4xx_hal_flash_ex.c **** 
 375:Drivers/STM32G4xx_HAL_Driver/Src/stm32g4xx_hal_flash_ex.c ****   /* Boot Entry Point Configuration */
 376:Drivers/STM32G4xx_HAL_Driver/Src/stm32g4xx_hal_flash_ex.c ****   if ((pOBInit->OptionType & OPTIONBYTE_BOOT_LOCK) != 0U)
 377:Drivers/STM32G4xx_HAL_Driver/Src/stm32g4xx_hal_flash_ex.c ****   {
 378:Drivers/STM32G4xx_HAL_Driver/Src/stm32g4xx_hal_flash_ex.c ****     /* Configure the boot unique entry point option */
 379:Drivers/STM32G4xx_HAL_Driver/Src/stm32g4xx_hal_flash_ex.c ****     if (FLASH_OB_BootLockConfig(pOBInit->BootEntryPoint) != HAL_OK)
 380:Drivers/STM32G4xx_HAL_Driver/Src/stm32g4xx_hal_flash_ex.c ****     {
 381:Drivers/STM32G4xx_HAL_Driver/Src/stm32g4xx_hal_flash_ex.c ****       status = HAL_ERROR;
 382:Drivers/STM32G4xx_HAL_Driver/Src/stm32g4xx_hal_flash_ex.c ****     }
 383:Drivers/STM32G4xx_HAL_Driver/Src/stm32g4xx_hal_flash_ex.c ****   }
 384:Drivers/STM32G4xx_HAL_Driver/Src/stm32g4xx_hal_flash_ex.c **** 
 385:Drivers/STM32G4xx_HAL_Driver/Src/stm32g4xx_hal_flash_ex.c ****   /* Process Unlocked */
 386:Drivers/STM32G4xx_HAL_Driver/Src/stm32g4xx_hal_flash_ex.c ****   __HAL_UNLOCK(&pFlash);
 387:Drivers/STM32G4xx_HAL_Driver/Src/stm32g4xx_hal_flash_ex.c **** 
 388:Drivers/STM32G4xx_HAL_Driver/Src/stm32g4xx_hal_flash_ex.c ****   return status;
 389:Drivers/STM32G4xx_HAL_Driver/Src/stm32g4xx_hal_flash_ex.c **** }
 390:Drivers/STM32G4xx_HAL_Driver/Src/stm32g4xx_hal_flash_ex.c **** 
 391:Drivers/STM32G4xx_HAL_Driver/Src/stm32g4xx_hal_flash_ex.c **** /**
 392:Drivers/STM32G4xx_HAL_Driver/Src/stm32g4xx_hal_flash_ex.c ****   * @brief  Get the Option bytes configuration.
 393:Drivers/STM32G4xx_HAL_Driver/Src/stm32g4xx_hal_flash_ex.c ****   * @param  pOBInit pointer to an FLASH_OBInitStruct structure that contains the
 394:Drivers/STM32G4xx_HAL_Driver/Src/stm32g4xx_hal_flash_ex.c ****   *         configuration information.
 395:Drivers/STM32G4xx_HAL_Driver/Src/stm32g4xx_hal_flash_ex.c ****   * @note   The fields pOBInit->WRPArea and pOBInit->PCROPConfig should indicate
 396:Drivers/STM32G4xx_HAL_Driver/Src/stm32g4xx_hal_flash_ex.c ****   *         which area is requested for the WRP and PCROP, else no information will be returned.
 397:Drivers/STM32G4xx_HAL_Driver/Src/stm32g4xx_hal_flash_ex.c ****   * @retval None
 398:Drivers/STM32G4xx_HAL_Driver/Src/stm32g4xx_hal_flash_ex.c ****   */
 399:Drivers/STM32G4xx_HAL_Driver/Src/stm32g4xx_hal_flash_ex.c **** void HAL_FLASHEx_OBGetConfig(FLASH_OBProgramInitTypeDef *pOBInit)
 400:Drivers/STM32G4xx_HAL_Driver/Src/stm32g4xx_hal_flash_ex.c **** {
 401:Drivers/STM32G4xx_HAL_Driver/Src/stm32g4xx_hal_flash_ex.c ****   pOBInit->OptionType = (OPTIONBYTE_RDP | OPTIONBYTE_USER);
 402:Drivers/STM32G4xx_HAL_Driver/Src/stm32g4xx_hal_flash_ex.c **** 
 403:Drivers/STM32G4xx_HAL_Driver/Src/stm32g4xx_hal_flash_ex.c **** #if defined (FLASH_OPTR_DBANK)
 404:Drivers/STM32G4xx_HAL_Driver/Src/stm32g4xx_hal_flash_ex.c ****   if ((pOBInit->WRPArea == OB_WRPAREA_BANK1_AREAA) || (pOBInit->WRPArea == OB_WRPAREA_BANK1_AREAB) 
 405:Drivers/STM32G4xx_HAL_Driver/Src/stm32g4xx_hal_flash_ex.c ****       (pOBInit->WRPArea == OB_WRPAREA_BANK2_AREAA) || (pOBInit->WRPArea == OB_WRPAREA_BANK2_AREAB))
 406:Drivers/STM32G4xx_HAL_Driver/Src/stm32g4xx_hal_flash_ex.c **** #else
 407:Drivers/STM32G4xx_HAL_Driver/Src/stm32g4xx_hal_flash_ex.c ****   if ((pOBInit->WRPArea == OB_WRPAREA_BANK1_AREAA) || (pOBInit->WRPArea == OB_WRPAREA_BANK1_AREAB))
 408:Drivers/STM32G4xx_HAL_Driver/Src/stm32g4xx_hal_flash_ex.c **** #endif
 409:Drivers/STM32G4xx_HAL_Driver/Src/stm32g4xx_hal_flash_ex.c ****   {
 410:Drivers/STM32G4xx_HAL_Driver/Src/stm32g4xx_hal_flash_ex.c ****     pOBInit->OptionType |= OPTIONBYTE_WRP;
 411:Drivers/STM32G4xx_HAL_Driver/Src/stm32g4xx_hal_flash_ex.c ****     /* Get write protection on the selected area */
 412:Drivers/STM32G4xx_HAL_Driver/Src/stm32g4xx_hal_flash_ex.c ****     FLASH_OB_GetWRP(pOBInit->WRPArea, &(pOBInit->WRPStartOffset), &(pOBInit->WRPEndOffset));
 413:Drivers/STM32G4xx_HAL_Driver/Src/stm32g4xx_hal_flash_ex.c ****   }
 414:Drivers/STM32G4xx_HAL_Driver/Src/stm32g4xx_hal_flash_ex.c **** 
 415:Drivers/STM32G4xx_HAL_Driver/Src/stm32g4xx_hal_flash_ex.c ****   /* Get Read protection level */
 416:Drivers/STM32G4xx_HAL_Driver/Src/stm32g4xx_hal_flash_ex.c ****   pOBInit->RDPLevel = FLASH_OB_GetRDP();
 417:Drivers/STM32G4xx_HAL_Driver/Src/stm32g4xx_hal_flash_ex.c **** 
 418:Drivers/STM32G4xx_HAL_Driver/Src/stm32g4xx_hal_flash_ex.c ****   /* Get the user option bytes */
 419:Drivers/STM32G4xx_HAL_Driver/Src/stm32g4xx_hal_flash_ex.c ****   pOBInit->USERConfig = FLASH_OB_GetUser();
 420:Drivers/STM32G4xx_HAL_Driver/Src/stm32g4xx_hal_flash_ex.c **** 
 421:Drivers/STM32G4xx_HAL_Driver/Src/stm32g4xx_hal_flash_ex.c **** #if defined (FLASH_OPTR_DBANK)
 422:Drivers/STM32G4xx_HAL_Driver/Src/stm32g4xx_hal_flash_ex.c ****   if ((pOBInit->PCROPConfig == FLASH_BANK_1) || (pOBInit->PCROPConfig == FLASH_BANK_2))
 423:Drivers/STM32G4xx_HAL_Driver/Src/stm32g4xx_hal_flash_ex.c **** #else
 424:Drivers/STM32G4xx_HAL_Driver/Src/stm32g4xx_hal_flash_ex.c ****   if (pOBInit->PCROPConfig == FLASH_BANK_1)
 425:Drivers/STM32G4xx_HAL_Driver/Src/stm32g4xx_hal_flash_ex.c **** #endif
 426:Drivers/STM32G4xx_HAL_Driver/Src/stm32g4xx_hal_flash_ex.c ****   {
 427:Drivers/STM32G4xx_HAL_Driver/Src/stm32g4xx_hal_flash_ex.c ****     pOBInit->OptionType |= OPTIONBYTE_PCROP;
 428:Drivers/STM32G4xx_HAL_Driver/Src/stm32g4xx_hal_flash_ex.c ****     /* Get the Proprietary code readout protection */
 429:Drivers/STM32G4xx_HAL_Driver/Src/stm32g4xx_hal_flash_ex.c ****     FLASH_OB_GetPCROP(&(pOBInit->PCROPConfig), &(pOBInit->PCROPStartAddr), &(pOBInit->PCROPEndAddr)
ARM GAS  /tmp/ccBOcut4.s 			page 9


 430:Drivers/STM32G4xx_HAL_Driver/Src/stm32g4xx_hal_flash_ex.c ****   }
 431:Drivers/STM32G4xx_HAL_Driver/Src/stm32g4xx_hal_flash_ex.c **** 
 432:Drivers/STM32G4xx_HAL_Driver/Src/stm32g4xx_hal_flash_ex.c ****   pOBInit->OptionType |= OPTIONBYTE_BOOT_LOCK;
 433:Drivers/STM32G4xx_HAL_Driver/Src/stm32g4xx_hal_flash_ex.c **** 
 434:Drivers/STM32G4xx_HAL_Driver/Src/stm32g4xx_hal_flash_ex.c ****   /* Get the boot entry point */
 435:Drivers/STM32G4xx_HAL_Driver/Src/stm32g4xx_hal_flash_ex.c ****   pOBInit->BootEntryPoint = FLASH_OB_GetBootLock();
 436:Drivers/STM32G4xx_HAL_Driver/Src/stm32g4xx_hal_flash_ex.c **** 
 437:Drivers/STM32G4xx_HAL_Driver/Src/stm32g4xx_hal_flash_ex.c ****   /* Get the securable memory area configuration */
 438:Drivers/STM32G4xx_HAL_Driver/Src/stm32g4xx_hal_flash_ex.c **** #if defined (FLASH_OPTR_DBANK)
 439:Drivers/STM32G4xx_HAL_Driver/Src/stm32g4xx_hal_flash_ex.c ****   if ((pOBInit->SecBank == FLASH_BANK_1) || (pOBInit->SecBank == FLASH_BANK_2))
 440:Drivers/STM32G4xx_HAL_Driver/Src/stm32g4xx_hal_flash_ex.c **** #else
 441:Drivers/STM32G4xx_HAL_Driver/Src/stm32g4xx_hal_flash_ex.c ****   if (pOBInit->SecBank == FLASH_BANK_1)
 442:Drivers/STM32G4xx_HAL_Driver/Src/stm32g4xx_hal_flash_ex.c **** #endif
 443:Drivers/STM32G4xx_HAL_Driver/Src/stm32g4xx_hal_flash_ex.c ****   {
 444:Drivers/STM32G4xx_HAL_Driver/Src/stm32g4xx_hal_flash_ex.c ****     pOBInit->OptionType |= OPTIONBYTE_SEC;
 445:Drivers/STM32G4xx_HAL_Driver/Src/stm32g4xx_hal_flash_ex.c ****     FLASH_OB_GetSecMem(pOBInit->SecBank, &(pOBInit->SecSize));
 446:Drivers/STM32G4xx_HAL_Driver/Src/stm32g4xx_hal_flash_ex.c ****   }
 447:Drivers/STM32G4xx_HAL_Driver/Src/stm32g4xx_hal_flash_ex.c **** }
 448:Drivers/STM32G4xx_HAL_Driver/Src/stm32g4xx_hal_flash_ex.c **** 
 449:Drivers/STM32G4xx_HAL_Driver/Src/stm32g4xx_hal_flash_ex.c **** /**
 450:Drivers/STM32G4xx_HAL_Driver/Src/stm32g4xx_hal_flash_ex.c ****   * @brief  Enable the FLASH Securable Memory protection.
 451:Drivers/STM32G4xx_HAL_Driver/Src/stm32g4xx_hal_flash_ex.c ****   * @param  Bank: Bank to be protected
 452:Drivers/STM32G4xx_HAL_Driver/Src/stm32g4xx_hal_flash_ex.c ****   *          This parameter can be one of the following values:
 453:Drivers/STM32G4xx_HAL_Driver/Src/stm32g4xx_hal_flash_ex.c ****   *            @arg FLASH_BANK_1: Bank1 to be protected
 454:Drivers/STM32G4xx_HAL_Driver/Src/stm32g4xx_hal_flash_ex.c ****   *            @arg FLASH_BANK_2: Bank2 to be protected (*)
 455:Drivers/STM32G4xx_HAL_Driver/Src/stm32g4xx_hal_flash_ex.c ****   *            @arg FLASH_BANK_BOTH: Bank1 and Bank2 to be protected (*)
 456:Drivers/STM32G4xx_HAL_Driver/Src/stm32g4xx_hal_flash_ex.c ****   * @note   (*) availability depends on devices
 457:Drivers/STM32G4xx_HAL_Driver/Src/stm32g4xx_hal_flash_ex.c ****   * @retval HAL Status
 458:Drivers/STM32G4xx_HAL_Driver/Src/stm32g4xx_hal_flash_ex.c ****   */
 459:Drivers/STM32G4xx_HAL_Driver/Src/stm32g4xx_hal_flash_ex.c **** HAL_StatusTypeDef HAL_FLASHEx_EnableSecMemProtection(uint32_t Bank)
 460:Drivers/STM32G4xx_HAL_Driver/Src/stm32g4xx_hal_flash_ex.c **** {
 461:Drivers/STM32G4xx_HAL_Driver/Src/stm32g4xx_hal_flash_ex.c **** #if defined (FLASH_OPTR_DBANK)
 462:Drivers/STM32G4xx_HAL_Driver/Src/stm32g4xx_hal_flash_ex.c ****   if (READ_BIT(FLASH->OPTR, FLASH_OPTR_DBANK) != 0U)
 463:Drivers/STM32G4xx_HAL_Driver/Src/stm32g4xx_hal_flash_ex.c ****   {
 464:Drivers/STM32G4xx_HAL_Driver/Src/stm32g4xx_hal_flash_ex.c ****     /* Check the parameters */
 465:Drivers/STM32G4xx_HAL_Driver/Src/stm32g4xx_hal_flash_ex.c ****     assert_param(IS_FLASH_BANK(Bank));
 466:Drivers/STM32G4xx_HAL_Driver/Src/stm32g4xx_hal_flash_ex.c **** 
 467:Drivers/STM32G4xx_HAL_Driver/Src/stm32g4xx_hal_flash_ex.c ****     /* Enable the Securable Memory Protection Bit for the bank 1 if requested */
 468:Drivers/STM32G4xx_HAL_Driver/Src/stm32g4xx_hal_flash_ex.c ****     if ((Bank & FLASH_BANK_1) != 0U)
 469:Drivers/STM32G4xx_HAL_Driver/Src/stm32g4xx_hal_flash_ex.c ****     {
 470:Drivers/STM32G4xx_HAL_Driver/Src/stm32g4xx_hal_flash_ex.c ****       SET_BIT(FLASH->CR, FLASH_CR_SEC_PROT1);
 471:Drivers/STM32G4xx_HAL_Driver/Src/stm32g4xx_hal_flash_ex.c ****     }
 472:Drivers/STM32G4xx_HAL_Driver/Src/stm32g4xx_hal_flash_ex.c **** 
 473:Drivers/STM32G4xx_HAL_Driver/Src/stm32g4xx_hal_flash_ex.c ****     /* Enable the Securable Memory Protection Bit for the bank 2 if requested */
 474:Drivers/STM32G4xx_HAL_Driver/Src/stm32g4xx_hal_flash_ex.c ****     if ((Bank & FLASH_BANK_2) != 0U)
 475:Drivers/STM32G4xx_HAL_Driver/Src/stm32g4xx_hal_flash_ex.c ****     {
 476:Drivers/STM32G4xx_HAL_Driver/Src/stm32g4xx_hal_flash_ex.c ****       SET_BIT(FLASH->CR, FLASH_CR_SEC_PROT2);
 477:Drivers/STM32G4xx_HAL_Driver/Src/stm32g4xx_hal_flash_ex.c ****     }
 478:Drivers/STM32G4xx_HAL_Driver/Src/stm32g4xx_hal_flash_ex.c ****   }
 479:Drivers/STM32G4xx_HAL_Driver/Src/stm32g4xx_hal_flash_ex.c ****   else
 480:Drivers/STM32G4xx_HAL_Driver/Src/stm32g4xx_hal_flash_ex.c ****   {
 481:Drivers/STM32G4xx_HAL_Driver/Src/stm32g4xx_hal_flash_ex.c ****     SET_BIT(FLASH->CR, FLASH_CR_SEC_PROT1);
 482:Drivers/STM32G4xx_HAL_Driver/Src/stm32g4xx_hal_flash_ex.c ****   }
 483:Drivers/STM32G4xx_HAL_Driver/Src/stm32g4xx_hal_flash_ex.c **** #else
 484:Drivers/STM32G4xx_HAL_Driver/Src/stm32g4xx_hal_flash_ex.c ****   /* Prevent unused argument(s) compilation warning */
 485:Drivers/STM32G4xx_HAL_Driver/Src/stm32g4xx_hal_flash_ex.c ****   UNUSED(Bank);
 486:Drivers/STM32G4xx_HAL_Driver/Src/stm32g4xx_hal_flash_ex.c ****   SET_BIT(FLASH->CR, FLASH_CR_SEC_PROT1);
ARM GAS  /tmp/ccBOcut4.s 			page 10


 487:Drivers/STM32G4xx_HAL_Driver/Src/stm32g4xx_hal_flash_ex.c **** #endif /* FLASH_OPTR_DBANK */
 488:Drivers/STM32G4xx_HAL_Driver/Src/stm32g4xx_hal_flash_ex.c **** 
 489:Drivers/STM32G4xx_HAL_Driver/Src/stm32g4xx_hal_flash_ex.c ****   return HAL_OK;
 490:Drivers/STM32G4xx_HAL_Driver/Src/stm32g4xx_hal_flash_ex.c **** }
 491:Drivers/STM32G4xx_HAL_Driver/Src/stm32g4xx_hal_flash_ex.c **** 
 492:Drivers/STM32G4xx_HAL_Driver/Src/stm32g4xx_hal_flash_ex.c **** /**
 493:Drivers/STM32G4xx_HAL_Driver/Src/stm32g4xx_hal_flash_ex.c ****   * @brief  Enable Debugger.
 494:Drivers/STM32G4xx_HAL_Driver/Src/stm32g4xx_hal_flash_ex.c ****   * @note   After calling this API, flash interface allow debugger intrusion.
 495:Drivers/STM32G4xx_HAL_Driver/Src/stm32g4xx_hal_flash_ex.c ****   * @retval None
 496:Drivers/STM32G4xx_HAL_Driver/Src/stm32g4xx_hal_flash_ex.c ****   */
 497:Drivers/STM32G4xx_HAL_Driver/Src/stm32g4xx_hal_flash_ex.c **** void HAL_FLASHEx_EnableDebugger(void)
 498:Drivers/STM32G4xx_HAL_Driver/Src/stm32g4xx_hal_flash_ex.c **** {
 499:Drivers/STM32G4xx_HAL_Driver/Src/stm32g4xx_hal_flash_ex.c ****   FLASH->ACR |= FLASH_ACR_DBG_SWEN;
 500:Drivers/STM32G4xx_HAL_Driver/Src/stm32g4xx_hal_flash_ex.c **** }
 501:Drivers/STM32G4xx_HAL_Driver/Src/stm32g4xx_hal_flash_ex.c **** 
 502:Drivers/STM32G4xx_HAL_Driver/Src/stm32g4xx_hal_flash_ex.c **** 
 503:Drivers/STM32G4xx_HAL_Driver/Src/stm32g4xx_hal_flash_ex.c **** /**
 504:Drivers/STM32G4xx_HAL_Driver/Src/stm32g4xx_hal_flash_ex.c ****   * @brief  Disable Debugger.
 505:Drivers/STM32G4xx_HAL_Driver/Src/stm32g4xx_hal_flash_ex.c ****   * @note   After calling this API, Debugger is disabled: it's no more possible to
 506:Drivers/STM32G4xx_HAL_Driver/Src/stm32g4xx_hal_flash_ex.c ****   *         break, see CPU register, etc...
 507:Drivers/STM32G4xx_HAL_Driver/Src/stm32g4xx_hal_flash_ex.c ****   * @retval None
 508:Drivers/STM32G4xx_HAL_Driver/Src/stm32g4xx_hal_flash_ex.c ****   */
 509:Drivers/STM32G4xx_HAL_Driver/Src/stm32g4xx_hal_flash_ex.c **** void HAL_FLASHEx_DisableDebugger(void)
 510:Drivers/STM32G4xx_HAL_Driver/Src/stm32g4xx_hal_flash_ex.c **** {
 511:Drivers/STM32G4xx_HAL_Driver/Src/stm32g4xx_hal_flash_ex.c ****   FLASH->ACR &= ~FLASH_ACR_DBG_SWEN;
 512:Drivers/STM32G4xx_HAL_Driver/Src/stm32g4xx_hal_flash_ex.c **** }
 513:Drivers/STM32G4xx_HAL_Driver/Src/stm32g4xx_hal_flash_ex.c **** 
 514:Drivers/STM32G4xx_HAL_Driver/Src/stm32g4xx_hal_flash_ex.c **** /**
 515:Drivers/STM32G4xx_HAL_Driver/Src/stm32g4xx_hal_flash_ex.c ****   * @}
 516:Drivers/STM32G4xx_HAL_Driver/Src/stm32g4xx_hal_flash_ex.c ****   */
 517:Drivers/STM32G4xx_HAL_Driver/Src/stm32g4xx_hal_flash_ex.c **** 
 518:Drivers/STM32G4xx_HAL_Driver/Src/stm32g4xx_hal_flash_ex.c **** /**
 519:Drivers/STM32G4xx_HAL_Driver/Src/stm32g4xx_hal_flash_ex.c ****   * @}
 520:Drivers/STM32G4xx_HAL_Driver/Src/stm32g4xx_hal_flash_ex.c ****   */
 521:Drivers/STM32G4xx_HAL_Driver/Src/stm32g4xx_hal_flash_ex.c **** 
 522:Drivers/STM32G4xx_HAL_Driver/Src/stm32g4xx_hal_flash_ex.c **** /* Private functions ---------------------------------------------------------*/
 523:Drivers/STM32G4xx_HAL_Driver/Src/stm32g4xx_hal_flash_ex.c **** 
 524:Drivers/STM32G4xx_HAL_Driver/Src/stm32g4xx_hal_flash_ex.c **** /** @addtogroup FLASHEx_Private_Functions
 525:Drivers/STM32G4xx_HAL_Driver/Src/stm32g4xx_hal_flash_ex.c ****   * @{
 526:Drivers/STM32G4xx_HAL_Driver/Src/stm32g4xx_hal_flash_ex.c ****   */
 527:Drivers/STM32G4xx_HAL_Driver/Src/stm32g4xx_hal_flash_ex.c **** /**
 528:Drivers/STM32G4xx_HAL_Driver/Src/stm32g4xx_hal_flash_ex.c ****   * @brief  Mass erase of FLASH memory.
 529:Drivers/STM32G4xx_HAL_Driver/Src/stm32g4xx_hal_flash_ex.c ****   * @param  Banks Banks to be erased.
 530:Drivers/STM32G4xx_HAL_Driver/Src/stm32g4xx_hal_flash_ex.c ****   *         This parameter can be one of the following values:
 531:Drivers/STM32G4xx_HAL_Driver/Src/stm32g4xx_hal_flash_ex.c ****   *            @arg FLASH_BANK_1: Bank1 to be erased
 532:Drivers/STM32G4xx_HAL_Driver/Src/stm32g4xx_hal_flash_ex.c ****   *            @arg FLASH_BANK_2: Bank2 to be erased (*)
 533:Drivers/STM32G4xx_HAL_Driver/Src/stm32g4xx_hal_flash_ex.c ****   *            @arg FLASH_BANK_BOTH: Bank1 and Bank2 to be erased (*)
 534:Drivers/STM32G4xx_HAL_Driver/Src/stm32g4xx_hal_flash_ex.c ****   * @note   (*) availability depends on devices
 535:Drivers/STM32G4xx_HAL_Driver/Src/stm32g4xx_hal_flash_ex.c ****   * @retval None
 536:Drivers/STM32G4xx_HAL_Driver/Src/stm32g4xx_hal_flash_ex.c ****   */
 537:Drivers/STM32G4xx_HAL_Driver/Src/stm32g4xx_hal_flash_ex.c **** static void FLASH_MassErase(uint32_t Banks)
 538:Drivers/STM32G4xx_HAL_Driver/Src/stm32g4xx_hal_flash_ex.c **** {
  29              		.loc 1 538 1 view -0
  30              		.cfi_startproc
  31              		@ args = 0, pretend = 0, frame = 0
  32              		@ frame_needed = 0, uses_anonymous_args = 0
  33              		@ link register save eliminated.
ARM GAS  /tmp/ccBOcut4.s 			page 11


 539:Drivers/STM32G4xx_HAL_Driver/Src/stm32g4xx_hal_flash_ex.c **** #if defined (FLASH_OPTR_DBANK)
 540:Drivers/STM32G4xx_HAL_Driver/Src/stm32g4xx_hal_flash_ex.c ****   if (READ_BIT(FLASH->OPTR, FLASH_OPTR_DBANK) != 0U)
 541:Drivers/STM32G4xx_HAL_Driver/Src/stm32g4xx_hal_flash_ex.c **** #endif
 542:Drivers/STM32G4xx_HAL_Driver/Src/stm32g4xx_hal_flash_ex.c ****   {
 543:Drivers/STM32G4xx_HAL_Driver/Src/stm32g4xx_hal_flash_ex.c ****     /* Check the parameters */
 544:Drivers/STM32G4xx_HAL_Driver/Src/stm32g4xx_hal_flash_ex.c ****     assert_param(IS_FLASH_BANK(Banks));
  34              		.loc 1 544 5 view .LVU1
 545:Drivers/STM32G4xx_HAL_Driver/Src/stm32g4xx_hal_flash_ex.c **** 
 546:Drivers/STM32G4xx_HAL_Driver/Src/stm32g4xx_hal_flash_ex.c ****     /* Set the Mass Erase Bit for the bank 1 if requested */
 547:Drivers/STM32G4xx_HAL_Driver/Src/stm32g4xx_hal_flash_ex.c ****     if ((Banks & FLASH_BANK_1) != 0U)
  35              		.loc 1 547 5 view .LVU2
  36              		.loc 1 547 8 is_stmt 0 view .LVU3
  37 0000 10F0010F 		tst	r0, #1
  38 0004 04D0     		beq	.L2
 548:Drivers/STM32G4xx_HAL_Driver/Src/stm32g4xx_hal_flash_ex.c ****     {
 549:Drivers/STM32G4xx_HAL_Driver/Src/stm32g4xx_hal_flash_ex.c ****       SET_BIT(FLASH->CR, FLASH_CR_MER1);
  39              		.loc 1 549 7 is_stmt 1 view .LVU4
  40 0006 054A     		ldr	r2, .L3
  41 0008 5369     		ldr	r3, [r2, #20]
  42 000a 43F00403 		orr	r3, r3, #4
  43 000e 5361     		str	r3, [r2, #20]
  44              	.L2:
 550:Drivers/STM32G4xx_HAL_Driver/Src/stm32g4xx_hal_flash_ex.c ****     }
 551:Drivers/STM32G4xx_HAL_Driver/Src/stm32g4xx_hal_flash_ex.c **** 
 552:Drivers/STM32G4xx_HAL_Driver/Src/stm32g4xx_hal_flash_ex.c **** #if defined (FLASH_OPTR_DBANK)
 553:Drivers/STM32G4xx_HAL_Driver/Src/stm32g4xx_hal_flash_ex.c ****     /* Set the Mass Erase Bit for the bank 2 if requested */
 554:Drivers/STM32G4xx_HAL_Driver/Src/stm32g4xx_hal_flash_ex.c ****     if ((Banks & FLASH_BANK_2) != 0U)
 555:Drivers/STM32G4xx_HAL_Driver/Src/stm32g4xx_hal_flash_ex.c ****     {
 556:Drivers/STM32G4xx_HAL_Driver/Src/stm32g4xx_hal_flash_ex.c ****       SET_BIT(FLASH->CR, FLASH_CR_MER2);
 557:Drivers/STM32G4xx_HAL_Driver/Src/stm32g4xx_hal_flash_ex.c ****     }
 558:Drivers/STM32G4xx_HAL_Driver/Src/stm32g4xx_hal_flash_ex.c **** #endif
 559:Drivers/STM32G4xx_HAL_Driver/Src/stm32g4xx_hal_flash_ex.c ****   }
 560:Drivers/STM32G4xx_HAL_Driver/Src/stm32g4xx_hal_flash_ex.c **** #if defined (FLASH_OPTR_DBANK)
 561:Drivers/STM32G4xx_HAL_Driver/Src/stm32g4xx_hal_flash_ex.c ****   else
 562:Drivers/STM32G4xx_HAL_Driver/Src/stm32g4xx_hal_flash_ex.c ****   {
 563:Drivers/STM32G4xx_HAL_Driver/Src/stm32g4xx_hal_flash_ex.c ****     SET_BIT(FLASH->CR, (FLASH_CR_MER1 | FLASH_CR_MER2));
 564:Drivers/STM32G4xx_HAL_Driver/Src/stm32g4xx_hal_flash_ex.c ****   }
 565:Drivers/STM32G4xx_HAL_Driver/Src/stm32g4xx_hal_flash_ex.c **** #endif
 566:Drivers/STM32G4xx_HAL_Driver/Src/stm32g4xx_hal_flash_ex.c **** 
 567:Drivers/STM32G4xx_HAL_Driver/Src/stm32g4xx_hal_flash_ex.c ****   /* Proceed to erase all sectors */
 568:Drivers/STM32G4xx_HAL_Driver/Src/stm32g4xx_hal_flash_ex.c ****   SET_BIT(FLASH->CR, FLASH_CR_STRT);
  45              		.loc 1 568 3 view .LVU5
  46 0010 024A     		ldr	r2, .L3
  47 0012 5369     		ldr	r3, [r2, #20]
  48 0014 43F48033 		orr	r3, r3, #65536
  49 0018 5361     		str	r3, [r2, #20]
 569:Drivers/STM32G4xx_HAL_Driver/Src/stm32g4xx_hal_flash_ex.c **** }
  50              		.loc 1 569 1 is_stmt 0 view .LVU6
  51 001a 7047     		bx	lr
  52              	.L4:
  53              		.align	2
  54              	.L3:
  55 001c 00200240 		.word	1073881088
  56              		.cfi_endproc
  57              	.LFE139:
  59              		.section	.text.HAL_FLASHEx_OBProgram,"ax",%progbits
  60              		.align	1
ARM GAS  /tmp/ccBOcut4.s 			page 12


  61              		.global	HAL_FLASHEx_OBProgram
  62              		.syntax unified
  63              		.thumb
  64              		.thumb_func
  65              		.fpu fpv4-sp-d16
  67              	HAL_FLASHEx_OBProgram:
  68              	.LVL1:
  69              	.LFB134:
 311:Drivers/STM32G4xx_HAL_Driver/Src/stm32g4xx_hal_flash_ex.c ****   HAL_StatusTypeDef status = HAL_OK;
  70              		.loc 1 311 1 is_stmt 1 view -0
  71              		.cfi_startproc
  72              		@ args = 0, pretend = 0, frame = 0
  73              		@ frame_needed = 0, uses_anonymous_args = 0
 311:Drivers/STM32G4xx_HAL_Driver/Src/stm32g4xx_hal_flash_ex.c ****   HAL_StatusTypeDef status = HAL_OK;
  74              		.loc 1 311 1 is_stmt 0 view .LVU8
  75 0000 2DE9F041 		push	{r4, r5, r6, r7, r8, lr}
  76              	.LCFI0:
  77              		.cfi_def_cfa_offset 24
  78              		.cfi_offset 4, -24
  79              		.cfi_offset 5, -20
  80              		.cfi_offset 6, -16
  81              		.cfi_offset 7, -12
  82              		.cfi_offset 8, -8
  83              		.cfi_offset 14, -4
 312:Drivers/STM32G4xx_HAL_Driver/Src/stm32g4xx_hal_flash_ex.c **** 
  84              		.loc 1 312 3 is_stmt 1 view .LVU9
  85              	.LVL2:
 315:Drivers/STM32G4xx_HAL_Driver/Src/stm32g4xx_hal_flash_ex.c **** 
  86              		.loc 1 315 3 view .LVU10
 318:Drivers/STM32G4xx_HAL_Driver/Src/stm32g4xx_hal_flash_ex.c **** 
  87              		.loc 1 318 3 view .LVU11
 318:Drivers/STM32G4xx_HAL_Driver/Src/stm32g4xx_hal_flash_ex.c **** 
  88              		.loc 1 318 3 view .LVU12
  89 0004 B04B     		ldr	r3, .L51
  90 0006 1B78     		ldrb	r3, [r3]	@ zero_extendqisi2
  91 0008 012B     		cmp	r3, #1
  92 000a 00F07381 		beq	.L33
  93 000e 0446     		mov	r4, r0
 318:Drivers/STM32G4xx_HAL_Driver/Src/stm32g4xx_hal_flash_ex.c **** 
  94              		.loc 1 318 3 discriminator 2 view .LVU13
  95 0010 AD4B     		ldr	r3, .L51
  96 0012 0122     		movs	r2, #1
  97 0014 1A70     		strb	r2, [r3]
 318:Drivers/STM32G4xx_HAL_Driver/Src/stm32g4xx_hal_flash_ex.c **** 
  98              		.loc 1 318 3 discriminator 2 view .LVU14
 320:Drivers/STM32G4xx_HAL_Driver/Src/stm32g4xx_hal_flash_ex.c **** 
  99              		.loc 1 320 3 discriminator 2 view .LVU15
 320:Drivers/STM32G4xx_HAL_Driver/Src/stm32g4xx_hal_flash_ex.c **** 
 100              		.loc 1 320 20 is_stmt 0 discriminator 2 view .LVU16
 101 0016 0022     		movs	r2, #0
 102 0018 5A60     		str	r2, [r3, #4]
 323:Drivers/STM32G4xx_HAL_Driver/Src/stm32g4xx_hal_flash_ex.c ****   {
 103              		.loc 1 323 3 is_stmt 1 discriminator 2 view .LVU17
 323:Drivers/STM32G4xx_HAL_Driver/Src/stm32g4xx_hal_flash_ex.c ****   {
 104              		.loc 1 323 28 is_stmt 0 discriminator 2 view .LVU18
 105 001a 0368     		ldr	r3, [r0]
 323:Drivers/STM32G4xx_HAL_Driver/Src/stm32g4xx_hal_flash_ex.c ****   {
ARM GAS  /tmp/ccBOcut4.s 			page 13


 106              		.loc 1 323 6 discriminator 2 view .LVU19
 107 001c 13F0010F 		tst	r3, #1
 108 0020 21D1     		bne	.L42
 312:Drivers/STM32G4xx_HAL_Driver/Src/stm32g4xx_hal_flash_ex.c **** 
 109              		.loc 1 312 21 view .LVU20
 110 0022 0025     		movs	r5, #0
 111              	.LVL3:
 112              	.L7:
 333:Drivers/STM32G4xx_HAL_Driver/Src/stm32g4xx_hal_flash_ex.c ****   {
 113              		.loc 1 333 3 is_stmt 1 view .LVU21
 333:Drivers/STM32G4xx_HAL_Driver/Src/stm32g4xx_hal_flash_ex.c ****   {
 114              		.loc 1 333 28 is_stmt 0 view .LVU22
 115 0024 2368     		ldr	r3, [r4]
 333:Drivers/STM32G4xx_HAL_Driver/Src/stm32g4xx_hal_flash_ex.c ****   {
 116              		.loc 1 333 6 view .LVU23
 117 0026 13F0020F 		tst	r3, #2
 118 002a 40D1     		bne	.L43
 119              	.LVL4:
 120              	.L11:
 343:Drivers/STM32G4xx_HAL_Driver/Src/stm32g4xx_hal_flash_ex.c ****   {
 121              		.loc 1 343 3 is_stmt 1 view .LVU24
 343:Drivers/STM32G4xx_HAL_Driver/Src/stm32g4xx_hal_flash_ex.c ****   {
 122              		.loc 1 343 28 is_stmt 0 view .LVU25
 123 002c 2368     		ldr	r3, [r4]
 343:Drivers/STM32G4xx_HAL_Driver/Src/stm32g4xx_hal_flash_ex.c ****   {
 124              		.loc 1 343 6 view .LVU26
 125 002e 13F0040F 		tst	r3, #4
 126 0032 56D1     		bne	.L44
 127              	.LVL5:
 128              	.L12:
 353:Drivers/STM32G4xx_HAL_Driver/Src/stm32g4xx_hal_flash_ex.c ****   {
 129              		.loc 1 353 3 is_stmt 1 view .LVU27
 353:Drivers/STM32G4xx_HAL_Driver/Src/stm32g4xx_hal_flash_ex.c ****   {
 130              		.loc 1 353 28 is_stmt 0 view .LVU28
 131 0034 2368     		ldr	r3, [r4]
 353:Drivers/STM32G4xx_HAL_Driver/Src/stm32g4xx_hal_flash_ex.c ****   {
 132              		.loc 1 353 6 view .LVU29
 133 0036 13F0080F 		tst	r3, #8
 134 003a 04D0     		beq	.L28
 355:Drivers/STM32G4xx_HAL_Driver/Src/stm32g4xx_hal_flash_ex.c ****     {
 135              		.loc 1 355 5 is_stmt 1 view .LVU30
 355:Drivers/STM32G4xx_HAL_Driver/Src/stm32g4xx_hal_flash_ex.c ****     {
 136              		.loc 1 355 16 is_stmt 0 view .LVU31
 137 003c 276A     		ldr	r7, [r4, #32]
 355:Drivers/STM32G4xx_HAL_Driver/Src/stm32g4xx_hal_flash_ex.c ****     {
 138              		.loc 1 355 43 view .LVU32
 139 003e 666A     		ldr	r6, [r4, #36]
 355:Drivers/STM32G4xx_HAL_Driver/Src/stm32g4xx_hal_flash_ex.c ****     {
 140              		.loc 1 355 8 view .LVU33
 141 0040 B742     		cmp	r7, r6
 142 0042 40F0E380 		bne	.L45
 143              	.LVL6:
 144              	.L28:
 366:Drivers/STM32G4xx_HAL_Driver/Src/stm32g4xx_hal_flash_ex.c ****   {
 145              		.loc 1 366 3 is_stmt 1 view .LVU34
 366:Drivers/STM32G4xx_HAL_Driver/Src/stm32g4xx_hal_flash_ex.c ****   {
 146              		.loc 1 366 28 is_stmt 0 view .LVU35
ARM GAS  /tmp/ccBOcut4.s 			page 14


 147 0046 2368     		ldr	r3, [r4]
 366:Drivers/STM32G4xx_HAL_Driver/Src/stm32g4xx_hal_flash_ex.c ****   {
 148              		.loc 1 366 6 view .LVU36
 149 0048 13F0200F 		tst	r3, #32
 150 004c 40F01481 		bne	.L46
 151              	.LVL7:
 152              	.L30:
 376:Drivers/STM32G4xx_HAL_Driver/Src/stm32g4xx_hal_flash_ex.c ****   {
 153              		.loc 1 376 3 is_stmt 1 view .LVU37
 376:Drivers/STM32G4xx_HAL_Driver/Src/stm32g4xx_hal_flash_ex.c ****   {
 154              		.loc 1 376 28 is_stmt 0 view .LVU38
 155 0050 2368     		ldr	r3, [r4]
 376:Drivers/STM32G4xx_HAL_Driver/Src/stm32g4xx_hal_flash_ex.c ****   {
 156              		.loc 1 376 6 view .LVU39
 157 0052 13F0100F 		tst	r3, #16
 158 0056 40F02E81 		bne	.L47
 159              	.LVL8:
 160              	.L32:
 386:Drivers/STM32G4xx_HAL_Driver/Src/stm32g4xx_hal_flash_ex.c **** 
 161              		.loc 1 386 3 is_stmt 1 view .LVU40
 386:Drivers/STM32G4xx_HAL_Driver/Src/stm32g4xx_hal_flash_ex.c **** 
 162              		.loc 1 386 3 view .LVU41
 163 005a 9B4B     		ldr	r3, .L51
 164 005c 0022     		movs	r2, #0
 165 005e 1A70     		strb	r2, [r3]
 386:Drivers/STM32G4xx_HAL_Driver/Src/stm32g4xx_hal_flash_ex.c **** 
 166              		.loc 1 386 3 view .LVU42
 388:Drivers/STM32G4xx_HAL_Driver/Src/stm32g4xx_hal_flash_ex.c **** }
 167              		.loc 1 388 3 view .LVU43
 168              	.LVL9:
 169              	.L6:
 389:Drivers/STM32G4xx_HAL_Driver/Src/stm32g4xx_hal_flash_ex.c **** 
 170              		.loc 1 389 1 is_stmt 0 view .LVU44
 171 0060 2846     		mov	r0, r5
 172 0062 BDE8F081 		pop	{r4, r5, r6, r7, r8, pc}
 173              	.LVL10:
 174              	.L42:
 326:Drivers/STM32G4xx_HAL_Driver/Src/stm32g4xx_hal_flash_ex.c ****     {
 175              		.loc 1 326 5 is_stmt 1 view .LVU45
 326:Drivers/STM32G4xx_HAL_Driver/Src/stm32g4xx_hal_flash_ex.c ****     {
 176              		.loc 1 326 9 is_stmt 0 view .LVU46
 177 0066 4768     		ldr	r7, [r0, #4]
 178 0068 8668     		ldr	r6, [r0, #8]
 179 006a D0F80C80 		ldr	r8, [r0, #12]
 180              	.LVL11:
 181              	.LBB14:
 182              	.LBI14:
 570:Drivers/STM32G4xx_HAL_Driver/Src/stm32g4xx_hal_flash_ex.c **** 
 571:Drivers/STM32G4xx_HAL_Driver/Src/stm32g4xx_hal_flash_ex.c **** /**
 572:Drivers/STM32G4xx_HAL_Driver/Src/stm32g4xx_hal_flash_ex.c ****   * @brief  Erase the specified FLASH memory page.
 573:Drivers/STM32G4xx_HAL_Driver/Src/stm32g4xx_hal_flash_ex.c ****   * @param  Page FLASH page to erase.
 574:Drivers/STM32G4xx_HAL_Driver/Src/stm32g4xx_hal_flash_ex.c ****   *         This parameter must be a value between 0 and (max number of pages in the bank - 1).
 575:Drivers/STM32G4xx_HAL_Driver/Src/stm32g4xx_hal_flash_ex.c ****   * @param  Banks Bank where the page will be erased.
 576:Drivers/STM32G4xx_HAL_Driver/Src/stm32g4xx_hal_flash_ex.c ****   *         This parameter can be one of the following values:
 577:Drivers/STM32G4xx_HAL_Driver/Src/stm32g4xx_hal_flash_ex.c ****   *            @arg FLASH_BANK_1: Page in bank 1 to be erased
 578:Drivers/STM32G4xx_HAL_Driver/Src/stm32g4xx_hal_flash_ex.c ****   *            @arg FLASH_BANK_2: Page in bank 2 to be erased (*)
 579:Drivers/STM32G4xx_HAL_Driver/Src/stm32g4xx_hal_flash_ex.c ****   * @note   (*) availability depends on devices
ARM GAS  /tmp/ccBOcut4.s 			page 15


 580:Drivers/STM32G4xx_HAL_Driver/Src/stm32g4xx_hal_flash_ex.c ****   * @retval None
 581:Drivers/STM32G4xx_HAL_Driver/Src/stm32g4xx_hal_flash_ex.c ****   */
 582:Drivers/STM32G4xx_HAL_Driver/Src/stm32g4xx_hal_flash_ex.c **** void FLASH_PageErase(uint32_t Page, uint32_t Banks)
 583:Drivers/STM32G4xx_HAL_Driver/Src/stm32g4xx_hal_flash_ex.c **** {
 584:Drivers/STM32G4xx_HAL_Driver/Src/stm32g4xx_hal_flash_ex.c ****   /* Check the parameters */
 585:Drivers/STM32G4xx_HAL_Driver/Src/stm32g4xx_hal_flash_ex.c ****   assert_param(IS_FLASH_PAGE(Page));
 586:Drivers/STM32G4xx_HAL_Driver/Src/stm32g4xx_hal_flash_ex.c **** 
 587:Drivers/STM32G4xx_HAL_Driver/Src/stm32g4xx_hal_flash_ex.c **** #if defined (FLASH_OPTR_DBANK)
 588:Drivers/STM32G4xx_HAL_Driver/Src/stm32g4xx_hal_flash_ex.c ****   if (READ_BIT(FLASH->OPTR, FLASH_OPTR_DBANK) == 0U)
 589:Drivers/STM32G4xx_HAL_Driver/Src/stm32g4xx_hal_flash_ex.c ****   {
 590:Drivers/STM32G4xx_HAL_Driver/Src/stm32g4xx_hal_flash_ex.c ****     CLEAR_BIT(FLASH->CR, FLASH_CR_BKER);
 591:Drivers/STM32G4xx_HAL_Driver/Src/stm32g4xx_hal_flash_ex.c ****   }
 592:Drivers/STM32G4xx_HAL_Driver/Src/stm32g4xx_hal_flash_ex.c ****   else
 593:Drivers/STM32G4xx_HAL_Driver/Src/stm32g4xx_hal_flash_ex.c ****   {
 594:Drivers/STM32G4xx_HAL_Driver/Src/stm32g4xx_hal_flash_ex.c ****     assert_param(IS_FLASH_BANK_EXCLUSIVE(Banks));
 595:Drivers/STM32G4xx_HAL_Driver/Src/stm32g4xx_hal_flash_ex.c **** 
 596:Drivers/STM32G4xx_HAL_Driver/Src/stm32g4xx_hal_flash_ex.c ****     if ((Banks & FLASH_BANK_1) != 0U)
 597:Drivers/STM32G4xx_HAL_Driver/Src/stm32g4xx_hal_flash_ex.c ****     {
 598:Drivers/STM32G4xx_HAL_Driver/Src/stm32g4xx_hal_flash_ex.c ****       CLEAR_BIT(FLASH->CR, FLASH_CR_BKER);
 599:Drivers/STM32G4xx_HAL_Driver/Src/stm32g4xx_hal_flash_ex.c ****     }
 600:Drivers/STM32G4xx_HAL_Driver/Src/stm32g4xx_hal_flash_ex.c ****     else
 601:Drivers/STM32G4xx_HAL_Driver/Src/stm32g4xx_hal_flash_ex.c ****     {
 602:Drivers/STM32G4xx_HAL_Driver/Src/stm32g4xx_hal_flash_ex.c ****       SET_BIT(FLASH->CR, FLASH_CR_BKER);
 603:Drivers/STM32G4xx_HAL_Driver/Src/stm32g4xx_hal_flash_ex.c ****     }
 604:Drivers/STM32G4xx_HAL_Driver/Src/stm32g4xx_hal_flash_ex.c ****   }
 605:Drivers/STM32G4xx_HAL_Driver/Src/stm32g4xx_hal_flash_ex.c **** #else
 606:Drivers/STM32G4xx_HAL_Driver/Src/stm32g4xx_hal_flash_ex.c ****   /* Prevent unused argument(s) compilation warning */
 607:Drivers/STM32G4xx_HAL_Driver/Src/stm32g4xx_hal_flash_ex.c ****   UNUSED(Banks);
 608:Drivers/STM32G4xx_HAL_Driver/Src/stm32g4xx_hal_flash_ex.c **** #endif /* FLASH_OPTR_DBANK */
 609:Drivers/STM32G4xx_HAL_Driver/Src/stm32g4xx_hal_flash_ex.c **** 
 610:Drivers/STM32G4xx_HAL_Driver/Src/stm32g4xx_hal_flash_ex.c ****   /* Proceed to erase the page */
 611:Drivers/STM32G4xx_HAL_Driver/Src/stm32g4xx_hal_flash_ex.c ****   MODIFY_REG(FLASH->CR, FLASH_CR_PNB, ((Page & 0xFFU) << FLASH_CR_PNB_Pos));
 612:Drivers/STM32G4xx_HAL_Driver/Src/stm32g4xx_hal_flash_ex.c ****   SET_BIT(FLASH->CR, FLASH_CR_PER);
 613:Drivers/STM32G4xx_HAL_Driver/Src/stm32g4xx_hal_flash_ex.c ****   SET_BIT(FLASH->CR, FLASH_CR_STRT);
 614:Drivers/STM32G4xx_HAL_Driver/Src/stm32g4xx_hal_flash_ex.c **** }
 615:Drivers/STM32G4xx_HAL_Driver/Src/stm32g4xx_hal_flash_ex.c **** 
 616:Drivers/STM32G4xx_HAL_Driver/Src/stm32g4xx_hal_flash_ex.c **** /**
 617:Drivers/STM32G4xx_HAL_Driver/Src/stm32g4xx_hal_flash_ex.c ****   * @brief  Flush the instruction and data caches.
 618:Drivers/STM32G4xx_HAL_Driver/Src/stm32g4xx_hal_flash_ex.c ****   * @retval None
 619:Drivers/STM32G4xx_HAL_Driver/Src/stm32g4xx_hal_flash_ex.c ****   */
 620:Drivers/STM32G4xx_HAL_Driver/Src/stm32g4xx_hal_flash_ex.c **** void FLASH_FlushCaches(void)
 621:Drivers/STM32G4xx_HAL_Driver/Src/stm32g4xx_hal_flash_ex.c **** {
 622:Drivers/STM32G4xx_HAL_Driver/Src/stm32g4xx_hal_flash_ex.c ****   FLASH_CacheTypeDef cache = pFlash.CacheToReactivate;
 623:Drivers/STM32G4xx_HAL_Driver/Src/stm32g4xx_hal_flash_ex.c **** 
 624:Drivers/STM32G4xx_HAL_Driver/Src/stm32g4xx_hal_flash_ex.c ****   /* Flush instruction cache  */
 625:Drivers/STM32G4xx_HAL_Driver/Src/stm32g4xx_hal_flash_ex.c ****   if ((cache == FLASH_CACHE_ICACHE_ENABLED) ||
 626:Drivers/STM32G4xx_HAL_Driver/Src/stm32g4xx_hal_flash_ex.c ****       (cache == FLASH_CACHE_ICACHE_DCACHE_ENABLED))
 627:Drivers/STM32G4xx_HAL_Driver/Src/stm32g4xx_hal_flash_ex.c ****   {
 628:Drivers/STM32G4xx_HAL_Driver/Src/stm32g4xx_hal_flash_ex.c ****     /* Disable instruction cache */
 629:Drivers/STM32G4xx_HAL_Driver/Src/stm32g4xx_hal_flash_ex.c ****     __HAL_FLASH_INSTRUCTION_CACHE_DISABLE();
 630:Drivers/STM32G4xx_HAL_Driver/Src/stm32g4xx_hal_flash_ex.c ****     /* Reset instruction cache */
 631:Drivers/STM32G4xx_HAL_Driver/Src/stm32g4xx_hal_flash_ex.c ****     __HAL_FLASH_INSTRUCTION_CACHE_RESET();
 632:Drivers/STM32G4xx_HAL_Driver/Src/stm32g4xx_hal_flash_ex.c ****     /* Enable instruction cache */
 633:Drivers/STM32G4xx_HAL_Driver/Src/stm32g4xx_hal_flash_ex.c ****     __HAL_FLASH_INSTRUCTION_CACHE_ENABLE();
 634:Drivers/STM32G4xx_HAL_Driver/Src/stm32g4xx_hal_flash_ex.c ****   }
 635:Drivers/STM32G4xx_HAL_Driver/Src/stm32g4xx_hal_flash_ex.c **** 
 636:Drivers/STM32G4xx_HAL_Driver/Src/stm32g4xx_hal_flash_ex.c ****   /* Flush data cache */
ARM GAS  /tmp/ccBOcut4.s 			page 16


 637:Drivers/STM32G4xx_HAL_Driver/Src/stm32g4xx_hal_flash_ex.c ****   if ((cache == FLASH_CACHE_DCACHE_ENABLED) ||
 638:Drivers/STM32G4xx_HAL_Driver/Src/stm32g4xx_hal_flash_ex.c ****       (cache == FLASH_CACHE_ICACHE_DCACHE_ENABLED))
 639:Drivers/STM32G4xx_HAL_Driver/Src/stm32g4xx_hal_flash_ex.c ****   {
 640:Drivers/STM32G4xx_HAL_Driver/Src/stm32g4xx_hal_flash_ex.c ****     /* Reset data cache */
 641:Drivers/STM32G4xx_HAL_Driver/Src/stm32g4xx_hal_flash_ex.c ****     __HAL_FLASH_DATA_CACHE_RESET();
 642:Drivers/STM32G4xx_HAL_Driver/Src/stm32g4xx_hal_flash_ex.c ****     /* Enable data cache */
 643:Drivers/STM32G4xx_HAL_Driver/Src/stm32g4xx_hal_flash_ex.c ****     __HAL_FLASH_DATA_CACHE_ENABLE();
 644:Drivers/STM32G4xx_HAL_Driver/Src/stm32g4xx_hal_flash_ex.c ****   }
 645:Drivers/STM32G4xx_HAL_Driver/Src/stm32g4xx_hal_flash_ex.c **** 
 646:Drivers/STM32G4xx_HAL_Driver/Src/stm32g4xx_hal_flash_ex.c ****   /* Reset internal variable */
 647:Drivers/STM32G4xx_HAL_Driver/Src/stm32g4xx_hal_flash_ex.c ****   pFlash.CacheToReactivate = FLASH_CACHE_DISABLED;
 648:Drivers/STM32G4xx_HAL_Driver/Src/stm32g4xx_hal_flash_ex.c **** }
 649:Drivers/STM32G4xx_HAL_Driver/Src/stm32g4xx_hal_flash_ex.c **** 
 650:Drivers/STM32G4xx_HAL_Driver/Src/stm32g4xx_hal_flash_ex.c **** /**
 651:Drivers/STM32G4xx_HAL_Driver/Src/stm32g4xx_hal_flash_ex.c ****   * @brief  Configure the write protection area into Option Bytes.
 652:Drivers/STM32G4xx_HAL_Driver/Src/stm32g4xx_hal_flash_ex.c ****   * @note   When the memory read protection level is selected (RDP level = 1),
 653:Drivers/STM32G4xx_HAL_Driver/Src/stm32g4xx_hal_flash_ex.c ****   *         it is not possible to program or erase Flash memory if the CPU debug
 654:Drivers/STM32G4xx_HAL_Driver/Src/stm32g4xx_hal_flash_ex.c ****   *         features are connected (JTAG or single wire) or boot code is being
 655:Drivers/STM32G4xx_HAL_Driver/Src/stm32g4xx_hal_flash_ex.c ****   *         executed from RAM or System flash, even if WRP is not activated.
 656:Drivers/STM32G4xx_HAL_Driver/Src/stm32g4xx_hal_flash_ex.c ****   * @note   To configure any option bytes, the option lock bit OPTLOCK must be
 657:Drivers/STM32G4xx_HAL_Driver/Src/stm32g4xx_hal_flash_ex.c ****   *         cleared with the call of HAL_FLASH_OB_Unlock() function.
 658:Drivers/STM32G4xx_HAL_Driver/Src/stm32g4xx_hal_flash_ex.c ****   * @note   New option bytes configuration will be taken into account in two cases:
 659:Drivers/STM32G4xx_HAL_Driver/Src/stm32g4xx_hal_flash_ex.c ****   *         - after an option bytes launch through the call of HAL_FLASH_OB_Launch()
 660:Drivers/STM32G4xx_HAL_Driver/Src/stm32g4xx_hal_flash_ex.c ****   *         - after a power reset (BOR reset or exit from Standby/Shutdown modes)
 661:Drivers/STM32G4xx_HAL_Driver/Src/stm32g4xx_hal_flash_ex.c ****   * @param  WRPArea specifies the area to be configured.
 662:Drivers/STM32G4xx_HAL_Driver/Src/stm32g4xx_hal_flash_ex.c ****   *         This parameter can be one of the following values:
 663:Drivers/STM32G4xx_HAL_Driver/Src/stm32g4xx_hal_flash_ex.c ****   *            @arg OB_WRPAREA_BANK1_AREAA: Flash Bank 1 Area A
 664:Drivers/STM32G4xx_HAL_Driver/Src/stm32g4xx_hal_flash_ex.c ****   *            @arg OB_WRPAREA_BANK1_AREAB: Flash Bank 1 Area B
 665:Drivers/STM32G4xx_HAL_Driver/Src/stm32g4xx_hal_flash_ex.c ****   *            @arg OB_WRPAREA_BANK2_AREAA: Flash Bank 2 Area A (*)
 666:Drivers/STM32G4xx_HAL_Driver/Src/stm32g4xx_hal_flash_ex.c ****   *            @arg OB_WRPAREA_BANK2_AREAB: Flash Bank 2 Area B (*)
 667:Drivers/STM32G4xx_HAL_Driver/Src/stm32g4xx_hal_flash_ex.c ****   * @note   (*) availability depends on devices
 668:Drivers/STM32G4xx_HAL_Driver/Src/stm32g4xx_hal_flash_ex.c ****   * @param  WRPStartOffset specifies the start page of the write protected area.
 669:Drivers/STM32G4xx_HAL_Driver/Src/stm32g4xx_hal_flash_ex.c ****   *         This parameter can be page number between 0 and (max number of pages in the bank - 1).
 670:Drivers/STM32G4xx_HAL_Driver/Src/stm32g4xx_hal_flash_ex.c ****   * @param  WRDPEndOffset specifies the end page of the write protected area.
 671:Drivers/STM32G4xx_HAL_Driver/Src/stm32g4xx_hal_flash_ex.c ****   *         This parameter can be page number between WRPStartOffset and (max number of pages in th
 672:Drivers/STM32G4xx_HAL_Driver/Src/stm32g4xx_hal_flash_ex.c ****   * @retval HAL_Status
 673:Drivers/STM32G4xx_HAL_Driver/Src/stm32g4xx_hal_flash_ex.c ****   */
 674:Drivers/STM32G4xx_HAL_Driver/Src/stm32g4xx_hal_flash_ex.c **** static HAL_StatusTypeDef FLASH_OB_WRPConfig(uint32_t WRPArea, uint32_t WRPStartOffset, uint32_t WRD
 183              		.loc 1 674 26 is_stmt 1 view .LVU47
 184              	.LBB15:
 675:Drivers/STM32G4xx_HAL_Driver/Src/stm32g4xx_hal_flash_ex.c **** {
 676:Drivers/STM32G4xx_HAL_Driver/Src/stm32g4xx_hal_flash_ex.c ****   HAL_StatusTypeDef status;
 185              		.loc 1 676 3 view .LVU48
 677:Drivers/STM32G4xx_HAL_Driver/Src/stm32g4xx_hal_flash_ex.c **** 
 678:Drivers/STM32G4xx_HAL_Driver/Src/stm32g4xx_hal_flash_ex.c ****   /* Check the parameters */
 679:Drivers/STM32G4xx_HAL_Driver/Src/stm32g4xx_hal_flash_ex.c ****   assert_param(IS_OB_WRPAREA(WRPArea));
 186              		.loc 1 679 3 view .LVU49
 680:Drivers/STM32G4xx_HAL_Driver/Src/stm32g4xx_hal_flash_ex.c ****   assert_param(IS_FLASH_PAGE(WRPStartOffset));
 187              		.loc 1 680 3 view .LVU50
 681:Drivers/STM32G4xx_HAL_Driver/Src/stm32g4xx_hal_flash_ex.c ****   assert_param(IS_FLASH_PAGE(WRDPEndOffset));
 188              		.loc 1 681 3 view .LVU51
 682:Drivers/STM32G4xx_HAL_Driver/Src/stm32g4xx_hal_flash_ex.c **** 
 683:Drivers/STM32G4xx_HAL_Driver/Src/stm32g4xx_hal_flash_ex.c ****   /* Wait for last operation to be completed */
 684:Drivers/STM32G4xx_HAL_Driver/Src/stm32g4xx_hal_flash_ex.c ****   status = FLASH_WaitForLastOperation((uint32_t)FLASH_TIMEOUT_VALUE);
 189              		.loc 1 684 3 view .LVU52
 190              		.loc 1 684 12 is_stmt 0 view .LVU53
 191 006e 4FF47A70 		mov	r0, #1000
ARM GAS  /tmp/ccBOcut4.s 			page 17


 192              	.LVL12:
 193              		.loc 1 684 12 view .LVU54
 194 0072 FFF7FEFF 		bl	FLASH_WaitForLastOperation
 195              	.LVL13:
 685:Drivers/STM32G4xx_HAL_Driver/Src/stm32g4xx_hal_flash_ex.c **** 
 686:Drivers/STM32G4xx_HAL_Driver/Src/stm32g4xx_hal_flash_ex.c ****   if (status == HAL_OK)
 196              		.loc 1 686 3 is_stmt 1 view .LVU55
 197              		.loc 1 686 6 is_stmt 0 view .LVU56
 198 0076 0546     		mov	r5, r0
 199 0078 70B9     		cbnz	r0, .L8
 687:Drivers/STM32G4xx_HAL_Driver/Src/stm32g4xx_hal_flash_ex.c ****   {
 688:Drivers/STM32G4xx_HAL_Driver/Src/stm32g4xx_hal_flash_ex.c ****     /* Configure the write protected area */
 689:Drivers/STM32G4xx_HAL_Driver/Src/stm32g4xx_hal_flash_ex.c ****     if (WRPArea == OB_WRPAREA_BANK1_AREAA)
 200              		.loc 1 689 5 is_stmt 1 view .LVU57
 201              		.loc 1 689 8 is_stmt 0 view .LVU58
 202 007a 8FB9     		cbnz	r7, .L9
 690:Drivers/STM32G4xx_HAL_Driver/Src/stm32g4xx_hal_flash_ex.c ****     {
 691:Drivers/STM32G4xx_HAL_Driver/Src/stm32g4xx_hal_flash_ex.c ****       FLASH->WRP1AR = ((WRDPEndOffset << FLASH_WRP1AR_WRP1A_END_Pos) | WRPStartOffset);
 203              		.loc 1 691 7 is_stmt 1 view .LVU59
 204              		.loc 1 691 70 is_stmt 0 view .LVU60
 205 007c 46EA0846 		orr	r6, r6, r8, lsl #16
 206              	.LVL14:
 207              		.loc 1 691 21 view .LVU61
 208 0080 924B     		ldr	r3, .L51+4
 209 0082 DE62     		str	r6, [r3, #44]
 210              	.L10:
 692:Drivers/STM32G4xx_HAL_Driver/Src/stm32g4xx_hal_flash_ex.c ****     }
 693:Drivers/STM32G4xx_HAL_Driver/Src/stm32g4xx_hal_flash_ex.c ****     else if (WRPArea == OB_WRPAREA_BANK1_AREAB)
 694:Drivers/STM32G4xx_HAL_Driver/Src/stm32g4xx_hal_flash_ex.c ****     {
 695:Drivers/STM32G4xx_HAL_Driver/Src/stm32g4xx_hal_flash_ex.c ****       FLASH->WRP1BR = ((WRDPEndOffset << FLASH_WRP1BR_WRP1B_END_Pos) | WRPStartOffset);
 696:Drivers/STM32G4xx_HAL_Driver/Src/stm32g4xx_hal_flash_ex.c ****     }
 697:Drivers/STM32G4xx_HAL_Driver/Src/stm32g4xx_hal_flash_ex.c **** #if defined (FLASH_OPTR_DBANK)
 698:Drivers/STM32G4xx_HAL_Driver/Src/stm32g4xx_hal_flash_ex.c ****     else if (WRPArea == OB_WRPAREA_BANK2_AREAA)
 699:Drivers/STM32G4xx_HAL_Driver/Src/stm32g4xx_hal_flash_ex.c ****     {
 700:Drivers/STM32G4xx_HAL_Driver/Src/stm32g4xx_hal_flash_ex.c ****       FLASH->WRP2AR = ((WRDPEndOffset << FLASH_WRP2AR_WRP2A_END_Pos) | WRPStartOffset);
 701:Drivers/STM32G4xx_HAL_Driver/Src/stm32g4xx_hal_flash_ex.c ****     }
 702:Drivers/STM32G4xx_HAL_Driver/Src/stm32g4xx_hal_flash_ex.c ****     else if (WRPArea == OB_WRPAREA_BANK2_AREAB)
 703:Drivers/STM32G4xx_HAL_Driver/Src/stm32g4xx_hal_flash_ex.c ****     {
 704:Drivers/STM32G4xx_HAL_Driver/Src/stm32g4xx_hal_flash_ex.c ****       FLASH->WRP2BR = ((WRDPEndOffset << FLASH_WRP2BR_WRP2B_END_Pos) | WRPStartOffset);
 705:Drivers/STM32G4xx_HAL_Driver/Src/stm32g4xx_hal_flash_ex.c ****     }
 706:Drivers/STM32G4xx_HAL_Driver/Src/stm32g4xx_hal_flash_ex.c **** #endif
 707:Drivers/STM32G4xx_HAL_Driver/Src/stm32g4xx_hal_flash_ex.c ****     else
 708:Drivers/STM32G4xx_HAL_Driver/Src/stm32g4xx_hal_flash_ex.c ****     {
 709:Drivers/STM32G4xx_HAL_Driver/Src/stm32g4xx_hal_flash_ex.c ****       /* Nothing to do */
 710:Drivers/STM32G4xx_HAL_Driver/Src/stm32g4xx_hal_flash_ex.c ****     }
 211              		.loc 1 710 5 is_stmt 1 view .LVU62
 711:Drivers/STM32G4xx_HAL_Driver/Src/stm32g4xx_hal_flash_ex.c **** 
 712:Drivers/STM32G4xx_HAL_Driver/Src/stm32g4xx_hal_flash_ex.c ****     /* Set OPTSTRT Bit */
 713:Drivers/STM32G4xx_HAL_Driver/Src/stm32g4xx_hal_flash_ex.c ****     SET_BIT(FLASH->CR, FLASH_CR_OPTSTRT);
 212              		.loc 1 713 5 view .LVU63
 213 0084 914A     		ldr	r2, .L51+4
 214 0086 5369     		ldr	r3, [r2, #20]
 215 0088 43F40033 		orr	r3, r3, #131072
 216 008c 5361     		str	r3, [r2, #20]
 714:Drivers/STM32G4xx_HAL_Driver/Src/stm32g4xx_hal_flash_ex.c **** 
 715:Drivers/STM32G4xx_HAL_Driver/Src/stm32g4xx_hal_flash_ex.c ****     /* Wait for last operation to be completed */
 716:Drivers/STM32G4xx_HAL_Driver/Src/stm32g4xx_hal_flash_ex.c ****     status = FLASH_WaitForLastOperation((uint32_t)FLASH_TIMEOUT_VALUE);
ARM GAS  /tmp/ccBOcut4.s 			page 18


 217              		.loc 1 716 5 view .LVU64
 218              		.loc 1 716 14 is_stmt 0 view .LVU65
 219 008e 4FF47A70 		mov	r0, #1000
 220              	.LVL15:
 221              		.loc 1 716 14 view .LVU66
 222 0092 FFF7FEFF 		bl	FLASH_WaitForLastOperation
 223              	.LVL16:
 224 0096 0546     		mov	r5, r0
 225              	.LVL17:
 226              	.L8:
 717:Drivers/STM32G4xx_HAL_Driver/Src/stm32g4xx_hal_flash_ex.c ****   }
 718:Drivers/STM32G4xx_HAL_Driver/Src/stm32g4xx_hal_flash_ex.c **** 
 719:Drivers/STM32G4xx_HAL_Driver/Src/stm32g4xx_hal_flash_ex.c ****   return status;
 227              		.loc 1 719 3 is_stmt 1 view .LVU67
 228              		.loc 1 719 3 is_stmt 0 view .LVU68
 229              	.LBE15:
 230              	.LBE14:
 312:Drivers/STM32G4xx_HAL_Driver/Src/stm32g4xx_hal_flash_ex.c **** 
 231              		.loc 1 312 21 view .LVU69
 232 0098 003D     		subs	r5, r5, #0
 233 009a 18BF     		it	ne
 234 009c 0125     		movne	r5, #1
 235 009e C1E7     		b	.L7
 236              	.LVL18:
 237              	.L9:
 238              	.LBB17:
 239              	.LBB16:
 693:Drivers/STM32G4xx_HAL_Driver/Src/stm32g4xx_hal_flash_ex.c ****     {
 240              		.loc 1 693 10 is_stmt 1 view .LVU70
 693:Drivers/STM32G4xx_HAL_Driver/Src/stm32g4xx_hal_flash_ex.c ****     {
 241              		.loc 1 693 13 is_stmt 0 view .LVU71
 242 00a0 012F     		cmp	r7, #1
 243 00a2 EFD1     		bne	.L10
 695:Drivers/STM32G4xx_HAL_Driver/Src/stm32g4xx_hal_flash_ex.c ****     }
 244              		.loc 1 695 7 is_stmt 1 view .LVU72
 695:Drivers/STM32G4xx_HAL_Driver/Src/stm32g4xx_hal_flash_ex.c ****     }
 245              		.loc 1 695 70 is_stmt 0 view .LVU73
 246 00a4 46EA0846 		orr	r6, r6, r8, lsl #16
 247              	.LVL19:
 695:Drivers/STM32G4xx_HAL_Driver/Src/stm32g4xx_hal_flash_ex.c ****     }
 248              		.loc 1 695 21 view .LVU74
 249 00a8 884B     		ldr	r3, .L51+4
 250 00aa 1E63     		str	r6, [r3, #48]
 251 00ac EAE7     		b	.L10
 252              	.LVL20:
 253              	.L43:
 695:Drivers/STM32G4xx_HAL_Driver/Src/stm32g4xx_hal_flash_ex.c ****     }
 254              		.loc 1 695 21 view .LVU75
 255              	.LBE16:
 256              	.LBE17:
 336:Drivers/STM32G4xx_HAL_Driver/Src/stm32g4xx_hal_flash_ex.c ****     {
 257              		.loc 1 336 5 is_stmt 1 view .LVU76
 336:Drivers/STM32G4xx_HAL_Driver/Src/stm32g4xx_hal_flash_ex.c ****     {
 258              		.loc 1 336 9 is_stmt 0 view .LVU77
 259 00ae 2669     		ldr	r6, [r4, #16]
 260              	.LVL21:
 261              	.LBB18:
ARM GAS  /tmp/ccBOcut4.s 			page 19


 262              	.LBI18:
 720:Drivers/STM32G4xx_HAL_Driver/Src/stm32g4xx_hal_flash_ex.c **** }
 721:Drivers/STM32G4xx_HAL_Driver/Src/stm32g4xx_hal_flash_ex.c **** 
 722:Drivers/STM32G4xx_HAL_Driver/Src/stm32g4xx_hal_flash_ex.c **** /**
 723:Drivers/STM32G4xx_HAL_Driver/Src/stm32g4xx_hal_flash_ex.c ****   * @brief  Set the read protection level into Option Bytes.
 724:Drivers/STM32G4xx_HAL_Driver/Src/stm32g4xx_hal_flash_ex.c ****   * @note   To configure any option bytes, the option lock bit OPTLOCK must be
 725:Drivers/STM32G4xx_HAL_Driver/Src/stm32g4xx_hal_flash_ex.c ****   *         cleared with the call of HAL_FLASH_OB_Unlock() function.
 726:Drivers/STM32G4xx_HAL_Driver/Src/stm32g4xx_hal_flash_ex.c ****   * @note   New option bytes configuration will be taken into account in two cases:
 727:Drivers/STM32G4xx_HAL_Driver/Src/stm32g4xx_hal_flash_ex.c ****   *         - after an option bytes launch through the call of HAL_FLASH_OB_Launch()
 728:Drivers/STM32G4xx_HAL_Driver/Src/stm32g4xx_hal_flash_ex.c ****   *         - after a power reset (BOR reset or exit from Standby/Shutdown modes)
 729:Drivers/STM32G4xx_HAL_Driver/Src/stm32g4xx_hal_flash_ex.c ****   * @note   !!! Warning : When enabling OB_RDP level 2 it's no more possible
 730:Drivers/STM32G4xx_HAL_Driver/Src/stm32g4xx_hal_flash_ex.c ****   *         to go back to level 1 or 0 !!!
 731:Drivers/STM32G4xx_HAL_Driver/Src/stm32g4xx_hal_flash_ex.c ****   * @param  RDPLevel specifies the read protection level.
 732:Drivers/STM32G4xx_HAL_Driver/Src/stm32g4xx_hal_flash_ex.c ****   *         This parameter can be one of the following values:
 733:Drivers/STM32G4xx_HAL_Driver/Src/stm32g4xx_hal_flash_ex.c ****   *            @arg OB_RDP_LEVEL_0: No protection
 734:Drivers/STM32G4xx_HAL_Driver/Src/stm32g4xx_hal_flash_ex.c ****   *            @arg OB_RDP_LEVEL_1: Memory Read protection
 735:Drivers/STM32G4xx_HAL_Driver/Src/stm32g4xx_hal_flash_ex.c ****   *            @arg OB_RDP_LEVEL_2: Full chip protection
 736:Drivers/STM32G4xx_HAL_Driver/Src/stm32g4xx_hal_flash_ex.c ****   *
 737:Drivers/STM32G4xx_HAL_Driver/Src/stm32g4xx_hal_flash_ex.c ****   * @retval HAL_Status
 738:Drivers/STM32G4xx_HAL_Driver/Src/stm32g4xx_hal_flash_ex.c ****   */
 739:Drivers/STM32G4xx_HAL_Driver/Src/stm32g4xx_hal_flash_ex.c **** static HAL_StatusTypeDef FLASH_OB_RDPConfig(uint32_t RDPLevel)
 263              		.loc 1 739 26 is_stmt 1 view .LVU78
 264              	.LBB19:
 740:Drivers/STM32G4xx_HAL_Driver/Src/stm32g4xx_hal_flash_ex.c **** {
 741:Drivers/STM32G4xx_HAL_Driver/Src/stm32g4xx_hal_flash_ex.c ****   HAL_StatusTypeDef status;
 265              		.loc 1 741 3 view .LVU79
 742:Drivers/STM32G4xx_HAL_Driver/Src/stm32g4xx_hal_flash_ex.c **** 
 743:Drivers/STM32G4xx_HAL_Driver/Src/stm32g4xx_hal_flash_ex.c ****   /* Check the parameters */
 744:Drivers/STM32G4xx_HAL_Driver/Src/stm32g4xx_hal_flash_ex.c ****   assert_param(IS_OB_RDP_LEVEL(RDPLevel));
 266              		.loc 1 744 3 view .LVU80
 745:Drivers/STM32G4xx_HAL_Driver/Src/stm32g4xx_hal_flash_ex.c **** 
 746:Drivers/STM32G4xx_HAL_Driver/Src/stm32g4xx_hal_flash_ex.c ****   /* Wait for last operation to be completed */
 747:Drivers/STM32G4xx_HAL_Driver/Src/stm32g4xx_hal_flash_ex.c ****   status = FLASH_WaitForLastOperation((uint32_t)FLASH_TIMEOUT_VALUE);
 267              		.loc 1 747 3 view .LVU81
 268              		.loc 1 747 12 is_stmt 0 view .LVU82
 269 00b0 4FF47A70 		mov	r0, #1000
 270 00b4 FFF7FEFF 		bl	FLASH_WaitForLastOperation
 271              	.LVL22:
 748:Drivers/STM32G4xx_HAL_Driver/Src/stm32g4xx_hal_flash_ex.c **** 
 749:Drivers/STM32G4xx_HAL_Driver/Src/stm32g4xx_hal_flash_ex.c ****   if (status == HAL_OK)
 272              		.loc 1 749 3 is_stmt 1 view .LVU83
 273              		.loc 1 749 6 is_stmt 0 view .LVU84
 274 00b8 08B1     		cbz	r0, .L48
 275              	.LBE19:
 276              	.LBE18:
 338:Drivers/STM32G4xx_HAL_Driver/Src/stm32g4xx_hal_flash_ex.c ****     }
 277              		.loc 1 338 14 view .LVU85
 278 00ba 0125     		movs	r5, #1
 279              	.LVL23:
 338:Drivers/STM32G4xx_HAL_Driver/Src/stm32g4xx_hal_flash_ex.c ****     }
 280              		.loc 1 338 14 view .LVU86
 281 00bc B6E7     		b	.L11
 282              	.LVL24:
 283              	.L48:
 284              	.LBB21:
 285              	.LBB20:
 750:Drivers/STM32G4xx_HAL_Driver/Src/stm32g4xx_hal_flash_ex.c ****   {
ARM GAS  /tmp/ccBOcut4.s 			page 20


 751:Drivers/STM32G4xx_HAL_Driver/Src/stm32g4xx_hal_flash_ex.c ****     /* Configure the RDP level in the option bytes register */
 752:Drivers/STM32G4xx_HAL_Driver/Src/stm32g4xx_hal_flash_ex.c ****     MODIFY_REG(FLASH->OPTR, FLASH_OPTR_RDP, RDPLevel);
 286              		.loc 1 752 5 is_stmt 1 view .LVU87
 287 00be 834A     		ldr	r2, .L51+4
 288 00c0 136A     		ldr	r3, [r2, #32]
 289 00c2 23F0FF03 		bic	r3, r3, #255
 290 00c6 3343     		orrs	r3, r3, r6
 291 00c8 1362     		str	r3, [r2, #32]
 753:Drivers/STM32G4xx_HAL_Driver/Src/stm32g4xx_hal_flash_ex.c **** 
 754:Drivers/STM32G4xx_HAL_Driver/Src/stm32g4xx_hal_flash_ex.c ****     /* Set OPTSTRT Bit */
 755:Drivers/STM32G4xx_HAL_Driver/Src/stm32g4xx_hal_flash_ex.c ****     SET_BIT(FLASH->CR, FLASH_CR_OPTSTRT);
 292              		.loc 1 755 5 view .LVU88
 293 00ca 5369     		ldr	r3, [r2, #20]
 294 00cc 43F40033 		orr	r3, r3, #131072
 295 00d0 5361     		str	r3, [r2, #20]
 756:Drivers/STM32G4xx_HAL_Driver/Src/stm32g4xx_hal_flash_ex.c **** 
 757:Drivers/STM32G4xx_HAL_Driver/Src/stm32g4xx_hal_flash_ex.c ****     /* Wait for last operation to be completed */
 758:Drivers/STM32G4xx_HAL_Driver/Src/stm32g4xx_hal_flash_ex.c ****     status = FLASH_WaitForLastOperation((uint32_t)FLASH_TIMEOUT_VALUE);
 296              		.loc 1 758 5 view .LVU89
 297              		.loc 1 758 14 is_stmt 0 view .LVU90
 298 00d2 4FF47A70 		mov	r0, #1000
 299              	.LVL25:
 300              		.loc 1 758 14 view .LVU91
 301 00d6 FFF7FEFF 		bl	FLASH_WaitForLastOperation
 302              	.LVL26:
 759:Drivers/STM32G4xx_HAL_Driver/Src/stm32g4xx_hal_flash_ex.c ****   }
 760:Drivers/STM32G4xx_HAL_Driver/Src/stm32g4xx_hal_flash_ex.c **** 
 761:Drivers/STM32G4xx_HAL_Driver/Src/stm32g4xx_hal_flash_ex.c ****   return status;
 303              		.loc 1 761 3 is_stmt 1 view .LVU92
 304              		.loc 1 761 3 is_stmt 0 view .LVU93
 305              	.LBE20:
 306              	.LBE21:
 338:Drivers/STM32G4xx_HAL_Driver/Src/stm32g4xx_hal_flash_ex.c ****     }
 307              		.loc 1 338 14 view .LVU94
 308 00da 0028     		cmp	r0, #0
 309 00dc 18BF     		it	ne
 310 00de 0125     		movne	r5, #1
 311              	.LVL27:
 338:Drivers/STM32G4xx_HAL_Driver/Src/stm32g4xx_hal_flash_ex.c ****     }
 312              		.loc 1 338 14 view .LVU95
 313 00e0 A4E7     		b	.L11
 314              	.LVL28:
 315              	.L44:
 346:Drivers/STM32G4xx_HAL_Driver/Src/stm32g4xx_hal_flash_ex.c ****     {
 316              		.loc 1 346 5 is_stmt 1 view .LVU96
 346:Drivers/STM32G4xx_HAL_Driver/Src/stm32g4xx_hal_flash_ex.c ****     {
 317              		.loc 1 346 9 is_stmt 0 view .LVU97
 318 00e2 6669     		ldr	r6, [r4, #20]
 319 00e4 A769     		ldr	r7, [r4, #24]
 320              	.LVL29:
 321              	.LBB22:
 322              	.LBI22:
 762:Drivers/STM32G4xx_HAL_Driver/Src/stm32g4xx_hal_flash_ex.c **** }
 763:Drivers/STM32G4xx_HAL_Driver/Src/stm32g4xx_hal_flash_ex.c **** 
 764:Drivers/STM32G4xx_HAL_Driver/Src/stm32g4xx_hal_flash_ex.c **** /**
 765:Drivers/STM32G4xx_HAL_Driver/Src/stm32g4xx_hal_flash_ex.c ****   * @brief  Program the FLASH User Option Bytes.
 766:Drivers/STM32G4xx_HAL_Driver/Src/stm32g4xx_hal_flash_ex.c ****   * @note   To configure any option bytes, the option lock bit OPTLOCK must be
ARM GAS  /tmp/ccBOcut4.s 			page 21


 767:Drivers/STM32G4xx_HAL_Driver/Src/stm32g4xx_hal_flash_ex.c ****   *         cleared with the call of HAL_FLASH_OB_Unlock() function.
 768:Drivers/STM32G4xx_HAL_Driver/Src/stm32g4xx_hal_flash_ex.c ****   * @note   New option bytes configuration will be taken into account in two cases:
 769:Drivers/STM32G4xx_HAL_Driver/Src/stm32g4xx_hal_flash_ex.c ****   *         - after an option bytes launch through the call of HAL_FLASH_OB_Launch()
 770:Drivers/STM32G4xx_HAL_Driver/Src/stm32g4xx_hal_flash_ex.c ****   *         - after a power reset (BOR reset or exit from Standby/Shutdown modes)
 771:Drivers/STM32G4xx_HAL_Driver/Src/stm32g4xx_hal_flash_ex.c ****   * @param  UserType The FLASH User Option Bytes to be modified.
 772:Drivers/STM32G4xx_HAL_Driver/Src/stm32g4xx_hal_flash_ex.c ****   *         This parameter can be a combination of @ref FLASH_OB_USER_Type.
 773:Drivers/STM32G4xx_HAL_Driver/Src/stm32g4xx_hal_flash_ex.c ****   * @param  UserConfig The selected User Option Bytes values:
 774:Drivers/STM32G4xx_HAL_Driver/Src/stm32g4xx_hal_flash_ex.c ****   *         This parameter can be a combination of @ref FLASH_OB_USER_BOR_LEVEL,
 775:Drivers/STM32G4xx_HAL_Driver/Src/stm32g4xx_hal_flash_ex.c ****   *         @ref FLASH_OB_USER_nRST_STOP, @ref FLASH_OB_USER_nRST_STANDBY ,
 776:Drivers/STM32G4xx_HAL_Driver/Src/stm32g4xx_hal_flash_ex.c ****   *         @ref FLASH_OB_USER_nRST_SHUTDOWN, @ref FLASH_OB_USER_IWDG_SW,
 777:Drivers/STM32G4xx_HAL_Driver/Src/stm32g4xx_hal_flash_ex.c ****   *         @ref FLASH_OB_USER_IWDG_STOP, @ref FLASH_OB_USER_IWDG_STANDBY,
 778:Drivers/STM32G4xx_HAL_Driver/Src/stm32g4xx_hal_flash_ex.c ****   *         @ref FLASH_OB_USER_WWDG_SW, @ref FLASH_OB_USER_WWDG_SW,
 779:Drivers/STM32G4xx_HAL_Driver/Src/stm32g4xx_hal_flash_ex.c ****   *         @ref FLASH_OB_USER_BFB2 (*), @ref FLASH_OB_USER_nBOOT1,
 780:Drivers/STM32G4xx_HAL_Driver/Src/stm32g4xx_hal_flash_ex.c ****   *         @ref FLASH_OB_USER_SRAM_PE, @ref FLASH_OB_USER_CCMSRAM_RST,
 781:Drivers/STM32G4xx_HAL_Driver/Src/stm32g4xx_hal_flash_ex.c ****   *         @ref FLASH_OB_USER_nSWBOOT0, @ref FLASH_OB_USER_nBOOT0,
 782:Drivers/STM32G4xx_HAL_Driver/Src/stm32g4xx_hal_flash_ex.c ****   *         @ref FLASH_OB_USER_NRST_MODE, @ref FLASH_OB_USER_INTERNAL_RESET_HOLDER
 783:Drivers/STM32G4xx_HAL_Driver/Src/stm32g4xx_hal_flash_ex.c ****   * @note   (*) availability depends on devices
 784:Drivers/STM32G4xx_HAL_Driver/Src/stm32g4xx_hal_flash_ex.c ****   * @retval HAL_Status
 785:Drivers/STM32G4xx_HAL_Driver/Src/stm32g4xx_hal_flash_ex.c ****   */
 786:Drivers/STM32G4xx_HAL_Driver/Src/stm32g4xx_hal_flash_ex.c **** static HAL_StatusTypeDef FLASH_OB_UserConfig(uint32_t UserType, uint32_t UserConfig)
 323              		.loc 1 786 26 is_stmt 1 view .LVU98
 324              	.LBB23:
 787:Drivers/STM32G4xx_HAL_Driver/Src/stm32g4xx_hal_flash_ex.c **** {
 788:Drivers/STM32G4xx_HAL_Driver/Src/stm32g4xx_hal_flash_ex.c ****   uint32_t optr_reg_val = 0;
 325              		.loc 1 788 3 view .LVU99
 789:Drivers/STM32G4xx_HAL_Driver/Src/stm32g4xx_hal_flash_ex.c ****   uint32_t optr_reg_mask = 0;
 326              		.loc 1 789 3 view .LVU100
 790:Drivers/STM32G4xx_HAL_Driver/Src/stm32g4xx_hal_flash_ex.c ****   HAL_StatusTypeDef status;
 327              		.loc 1 790 3 view .LVU101
 791:Drivers/STM32G4xx_HAL_Driver/Src/stm32g4xx_hal_flash_ex.c **** 
 792:Drivers/STM32G4xx_HAL_Driver/Src/stm32g4xx_hal_flash_ex.c ****   /* Check the parameters */
 793:Drivers/STM32G4xx_HAL_Driver/Src/stm32g4xx_hal_flash_ex.c ****   assert_param(IS_OB_USER_TYPE(UserType));
 328              		.loc 1 793 3 view .LVU102
 794:Drivers/STM32G4xx_HAL_Driver/Src/stm32g4xx_hal_flash_ex.c **** 
 795:Drivers/STM32G4xx_HAL_Driver/Src/stm32g4xx_hal_flash_ex.c ****   /* Wait for last operation to be completed */
 796:Drivers/STM32G4xx_HAL_Driver/Src/stm32g4xx_hal_flash_ex.c ****   status = FLASH_WaitForLastOperation((uint32_t)FLASH_TIMEOUT_VALUE);
 329              		.loc 1 796 3 view .LVU103
 330              		.loc 1 796 12 is_stmt 0 view .LVU104
 331 00e6 4FF47A70 		mov	r0, #1000
 332 00ea FFF7FEFF 		bl	FLASH_WaitForLastOperation
 333              	.LVL30:
 797:Drivers/STM32G4xx_HAL_Driver/Src/stm32g4xx_hal_flash_ex.c **** 
 798:Drivers/STM32G4xx_HAL_Driver/Src/stm32g4xx_hal_flash_ex.c ****   if (status == HAL_OK)
 334              		.loc 1 798 3 is_stmt 1 view .LVU105
 335              		.loc 1 798 6 is_stmt 0 view .LVU106
 336 00ee 0028     		cmp	r0, #0
 337 00f0 40F08A80 		bne	.L36
 799:Drivers/STM32G4xx_HAL_Driver/Src/stm32g4xx_hal_flash_ex.c ****   {
 800:Drivers/STM32G4xx_HAL_Driver/Src/stm32g4xx_hal_flash_ex.c **** #if defined(FLASH_OPTR_PB4_PUPEN)
 801:Drivers/STM32G4xx_HAL_Driver/Src/stm32g4xx_hal_flash_ex.c ****     if ((UserType & OB_USER_PB4_PUPEN) != 0U)
 802:Drivers/STM32G4xx_HAL_Driver/Src/stm32g4xx_hal_flash_ex.c ****     {
 803:Drivers/STM32G4xx_HAL_Driver/Src/stm32g4xx_hal_flash_ex.c ****       /* PB4_PUPEN option byte should be modified */
 804:Drivers/STM32G4xx_HAL_Driver/Src/stm32g4xx_hal_flash_ex.c ****       assert_param(IS_OB_USER_PB4_PUPEN(UserConfig & FLASH_OPTR_PB4_PUPEN));
 805:Drivers/STM32G4xx_HAL_Driver/Src/stm32g4xx_hal_flash_ex.c **** 
 806:Drivers/STM32G4xx_HAL_Driver/Src/stm32g4xx_hal_flash_ex.c ****       /* Set value and mask for PB4_PUPEN option byte */
 807:Drivers/STM32G4xx_HAL_Driver/Src/stm32g4xx_hal_flash_ex.c ****       optr_reg_val |= (UserConfig & FLASH_OPTR_PB4_PUPEN);
 808:Drivers/STM32G4xx_HAL_Driver/Src/stm32g4xx_hal_flash_ex.c ****       optr_reg_mask |= FLASH_OPTR_PB4_PUPEN;
ARM GAS  /tmp/ccBOcut4.s 			page 22


 809:Drivers/STM32G4xx_HAL_Driver/Src/stm32g4xx_hal_flash_ex.c ****     }
 810:Drivers/STM32G4xx_HAL_Driver/Src/stm32g4xx_hal_flash_ex.c **** #endif /* FLASH_OPTR_PB4_PUPEN */
 811:Drivers/STM32G4xx_HAL_Driver/Src/stm32g4xx_hal_flash_ex.c **** 
 812:Drivers/STM32G4xx_HAL_Driver/Src/stm32g4xx_hal_flash_ex.c ****     if ((UserType & OB_USER_BOR_LEV) != 0U)
 338              		.loc 1 812 5 is_stmt 1 view .LVU107
 339              		.loc 1 812 8 is_stmt 0 view .LVU108
 340 00f4 16F00103 		ands	r3, r6, #1
 813:Drivers/STM32G4xx_HAL_Driver/Src/stm32g4xx_hal_flash_ex.c ****     {
 814:Drivers/STM32G4xx_HAL_Driver/Src/stm32g4xx_hal_flash_ex.c ****       /* BOR level option byte should be modified */
 815:Drivers/STM32G4xx_HAL_Driver/Src/stm32g4xx_hal_flash_ex.c ****       assert_param(IS_OB_USER_BOR_LEVEL(UserConfig & FLASH_OPTR_BOR_LEV));
 341              		.loc 1 815 7 is_stmt 1 view .LVU109
 816:Drivers/STM32G4xx_HAL_Driver/Src/stm32g4xx_hal_flash_ex.c **** 
 817:Drivers/STM32G4xx_HAL_Driver/Src/stm32g4xx_hal_flash_ex.c ****       /* Set value and mask for BOR level option byte */
 818:Drivers/STM32G4xx_HAL_Driver/Src/stm32g4xx_hal_flash_ex.c ****       optr_reg_val |= (UserConfig & FLASH_OPTR_BOR_LEV);
 342              		.loc 1 818 7 view .LVU110
 343              		.loc 1 818 35 is_stmt 0 view .LVU111
 344 00f8 1ABF     		itte	ne
 345 00fa 07F4E063 		andne	r3, r7, #1792
 346              	.LVL31:
 819:Drivers/STM32G4xx_HAL_Driver/Src/stm32g4xx_hal_flash_ex.c ****       optr_reg_mask |= FLASH_OPTR_BOR_LEV;
 347              		.loc 1 819 7 is_stmt 1 view .LVU112
 348              		.loc 1 819 21 is_stmt 0 view .LVU113
 349 00fe 4FF4E062 		movne	r2, #1792
 789:Drivers/STM32G4xx_HAL_Driver/Src/stm32g4xx_hal_flash_ex.c ****   HAL_StatusTypeDef status;
 350              		.loc 1 789 12 view .LVU114
 351 0102 1A46     		moveq	r2, r3
 352              	.LVL32:
 820:Drivers/STM32G4xx_HAL_Driver/Src/stm32g4xx_hal_flash_ex.c ****     }
 821:Drivers/STM32G4xx_HAL_Driver/Src/stm32g4xx_hal_flash_ex.c **** 
 822:Drivers/STM32G4xx_HAL_Driver/Src/stm32g4xx_hal_flash_ex.c ****     if ((UserType & OB_USER_nRST_STOP) != 0U)
 353              		.loc 1 822 5 is_stmt 1 view .LVU115
 354              		.loc 1 822 8 is_stmt 0 view .LVU116
 355 0104 16F0020F 		tst	r6, #2
 356 0108 04D0     		beq	.L14
 823:Drivers/STM32G4xx_HAL_Driver/Src/stm32g4xx_hal_flash_ex.c ****     {
 824:Drivers/STM32G4xx_HAL_Driver/Src/stm32g4xx_hal_flash_ex.c ****       /* nRST_STOP option byte should be modified */
 825:Drivers/STM32G4xx_HAL_Driver/Src/stm32g4xx_hal_flash_ex.c ****       assert_param(IS_OB_USER_STOP(UserConfig & FLASH_OPTR_nRST_STOP));
 357              		.loc 1 825 7 is_stmt 1 view .LVU117
 826:Drivers/STM32G4xx_HAL_Driver/Src/stm32g4xx_hal_flash_ex.c **** 
 827:Drivers/STM32G4xx_HAL_Driver/Src/stm32g4xx_hal_flash_ex.c ****       /* Set value and mask for nRST_STOP option byte */
 828:Drivers/STM32G4xx_HAL_Driver/Src/stm32g4xx_hal_flash_ex.c ****       optr_reg_val |= (UserConfig & FLASH_OPTR_nRST_STOP);
 358              		.loc 1 828 7 view .LVU118
 359              		.loc 1 828 35 is_stmt 0 view .LVU119
 360 010a 07F48051 		and	r1, r7, #4096
 361              		.loc 1 828 20 view .LVU120
 362 010e 0B43     		orrs	r3, r3, r1
 363              	.LVL33:
 829:Drivers/STM32G4xx_HAL_Driver/Src/stm32g4xx_hal_flash_ex.c ****       optr_reg_mask |= FLASH_OPTR_nRST_STOP;
 364              		.loc 1 829 7 is_stmt 1 view .LVU121
 365              		.loc 1 829 21 is_stmt 0 view .LVU122
 366 0110 42F48052 		orr	r2, r2, #4096
 367              	.LVL34:
 368              	.L14:
 830:Drivers/STM32G4xx_HAL_Driver/Src/stm32g4xx_hal_flash_ex.c ****     }
 831:Drivers/STM32G4xx_HAL_Driver/Src/stm32g4xx_hal_flash_ex.c **** 
 832:Drivers/STM32G4xx_HAL_Driver/Src/stm32g4xx_hal_flash_ex.c ****     if ((UserType & OB_USER_nRST_STDBY) != 0U)
 369              		.loc 1 832 5 is_stmt 1 view .LVU123
ARM GAS  /tmp/ccBOcut4.s 			page 23


 370              		.loc 1 832 8 is_stmt 0 view .LVU124
 371 0114 16F0040F 		tst	r6, #4
 372 0118 04D0     		beq	.L15
 833:Drivers/STM32G4xx_HAL_Driver/Src/stm32g4xx_hal_flash_ex.c ****     {
 834:Drivers/STM32G4xx_HAL_Driver/Src/stm32g4xx_hal_flash_ex.c ****       /* nRST_STDBY option byte should be modified */
 835:Drivers/STM32G4xx_HAL_Driver/Src/stm32g4xx_hal_flash_ex.c ****       assert_param(IS_OB_USER_STANDBY(UserConfig & FLASH_OPTR_nRST_STDBY));
 373              		.loc 1 835 7 is_stmt 1 view .LVU125
 836:Drivers/STM32G4xx_HAL_Driver/Src/stm32g4xx_hal_flash_ex.c **** 
 837:Drivers/STM32G4xx_HAL_Driver/Src/stm32g4xx_hal_flash_ex.c ****       /* Set value and mask for nRST_STDBY option byte */
 838:Drivers/STM32G4xx_HAL_Driver/Src/stm32g4xx_hal_flash_ex.c ****       optr_reg_val |= (UserConfig & FLASH_OPTR_nRST_STDBY);
 374              		.loc 1 838 7 view .LVU126
 375              		.loc 1 838 35 is_stmt 0 view .LVU127
 376 011a 07F40051 		and	r1, r7, #8192
 377              		.loc 1 838 20 view .LVU128
 378 011e 0B43     		orrs	r3, r3, r1
 379              	.LVL35:
 839:Drivers/STM32G4xx_HAL_Driver/Src/stm32g4xx_hal_flash_ex.c ****       optr_reg_mask |= FLASH_OPTR_nRST_STDBY;
 380              		.loc 1 839 7 is_stmt 1 view .LVU129
 381              		.loc 1 839 21 is_stmt 0 view .LVU130
 382 0120 42F40052 		orr	r2, r2, #8192
 383              	.LVL36:
 384              	.L15:
 840:Drivers/STM32G4xx_HAL_Driver/Src/stm32g4xx_hal_flash_ex.c ****     }
 841:Drivers/STM32G4xx_HAL_Driver/Src/stm32g4xx_hal_flash_ex.c **** 
 842:Drivers/STM32G4xx_HAL_Driver/Src/stm32g4xx_hal_flash_ex.c ****     if ((UserType & OB_USER_nRST_SHDW) != 0U)
 385              		.loc 1 842 5 is_stmt 1 view .LVU131
 386              		.loc 1 842 8 is_stmt 0 view .LVU132
 387 0124 16F4805F 		tst	r6, #4096
 388 0128 04D0     		beq	.L16
 843:Drivers/STM32G4xx_HAL_Driver/Src/stm32g4xx_hal_flash_ex.c ****     {
 844:Drivers/STM32G4xx_HAL_Driver/Src/stm32g4xx_hal_flash_ex.c ****       /* nRST_SHDW option byte should be modified */
 845:Drivers/STM32G4xx_HAL_Driver/Src/stm32g4xx_hal_flash_ex.c ****       assert_param(IS_OB_USER_SHUTDOWN(UserConfig & FLASH_OPTR_nRST_SHDW));
 389              		.loc 1 845 7 is_stmt 1 view .LVU133
 846:Drivers/STM32G4xx_HAL_Driver/Src/stm32g4xx_hal_flash_ex.c **** 
 847:Drivers/STM32G4xx_HAL_Driver/Src/stm32g4xx_hal_flash_ex.c ****       /* Set value and mask for nRST_SHDW option byte */
 848:Drivers/STM32G4xx_HAL_Driver/Src/stm32g4xx_hal_flash_ex.c ****       optr_reg_val |= (UserConfig & FLASH_OPTR_nRST_SHDW);
 390              		.loc 1 848 7 view .LVU134
 391              		.loc 1 848 35 is_stmt 0 view .LVU135
 392 012a 07F48041 		and	r1, r7, #16384
 393              		.loc 1 848 20 view .LVU136
 394 012e 0B43     		orrs	r3, r3, r1
 395              	.LVL37:
 849:Drivers/STM32G4xx_HAL_Driver/Src/stm32g4xx_hal_flash_ex.c ****       optr_reg_mask |= FLASH_OPTR_nRST_SHDW;
 396              		.loc 1 849 7 is_stmt 1 view .LVU137
 397              		.loc 1 849 21 is_stmt 0 view .LVU138
 398 0130 42F48042 		orr	r2, r2, #16384
 399              	.LVL38:
 400              	.L16:
 850:Drivers/STM32G4xx_HAL_Driver/Src/stm32g4xx_hal_flash_ex.c ****     }
 851:Drivers/STM32G4xx_HAL_Driver/Src/stm32g4xx_hal_flash_ex.c **** 
 852:Drivers/STM32G4xx_HAL_Driver/Src/stm32g4xx_hal_flash_ex.c ****     if ((UserType & OB_USER_IWDG_SW) != 0U)
 401              		.loc 1 852 5 is_stmt 1 view .LVU139
 402              		.loc 1 852 8 is_stmt 0 view .LVU140
 403 0134 16F0080F 		tst	r6, #8
 404 0138 04D0     		beq	.L17
 853:Drivers/STM32G4xx_HAL_Driver/Src/stm32g4xx_hal_flash_ex.c ****     {
 854:Drivers/STM32G4xx_HAL_Driver/Src/stm32g4xx_hal_flash_ex.c ****       /* IWDG_SW option byte should be modified */
ARM GAS  /tmp/ccBOcut4.s 			page 24


 855:Drivers/STM32G4xx_HAL_Driver/Src/stm32g4xx_hal_flash_ex.c ****       assert_param(IS_OB_USER_IWDG(UserConfig & FLASH_OPTR_IWDG_SW));
 405              		.loc 1 855 7 is_stmt 1 view .LVU141
 856:Drivers/STM32G4xx_HAL_Driver/Src/stm32g4xx_hal_flash_ex.c **** 
 857:Drivers/STM32G4xx_HAL_Driver/Src/stm32g4xx_hal_flash_ex.c ****       /* Set value and mask for IWDG_SW option byte */
 858:Drivers/STM32G4xx_HAL_Driver/Src/stm32g4xx_hal_flash_ex.c ****       optr_reg_val |= (UserConfig & FLASH_OPTR_IWDG_SW);
 406              		.loc 1 858 7 view .LVU142
 407              		.loc 1 858 35 is_stmt 0 view .LVU143
 408 013a 07F48031 		and	r1, r7, #65536
 409              		.loc 1 858 20 view .LVU144
 410 013e 0B43     		orrs	r3, r3, r1
 411              	.LVL39:
 859:Drivers/STM32G4xx_HAL_Driver/Src/stm32g4xx_hal_flash_ex.c ****       optr_reg_mask |= FLASH_OPTR_IWDG_SW;
 412              		.loc 1 859 7 is_stmt 1 view .LVU145
 413              		.loc 1 859 21 is_stmt 0 view .LVU146
 414 0140 42F48032 		orr	r2, r2, #65536
 415              	.LVL40:
 416              	.L17:
 860:Drivers/STM32G4xx_HAL_Driver/Src/stm32g4xx_hal_flash_ex.c ****     }
 861:Drivers/STM32G4xx_HAL_Driver/Src/stm32g4xx_hal_flash_ex.c **** 
 862:Drivers/STM32G4xx_HAL_Driver/Src/stm32g4xx_hal_flash_ex.c ****     if ((UserType & OB_USER_IWDG_STOP) != 0U)
 417              		.loc 1 862 5 is_stmt 1 view .LVU147
 418              		.loc 1 862 8 is_stmt 0 view .LVU148
 419 0144 16F0100F 		tst	r6, #16
 420 0148 04D0     		beq	.L18
 863:Drivers/STM32G4xx_HAL_Driver/Src/stm32g4xx_hal_flash_ex.c ****     {
 864:Drivers/STM32G4xx_HAL_Driver/Src/stm32g4xx_hal_flash_ex.c ****       /* IWDG_STOP option byte should be modified */
 865:Drivers/STM32G4xx_HAL_Driver/Src/stm32g4xx_hal_flash_ex.c ****       assert_param(IS_OB_USER_IWDG_STOP(UserConfig & FLASH_OPTR_IWDG_STOP));
 421              		.loc 1 865 7 is_stmt 1 view .LVU149
 866:Drivers/STM32G4xx_HAL_Driver/Src/stm32g4xx_hal_flash_ex.c **** 
 867:Drivers/STM32G4xx_HAL_Driver/Src/stm32g4xx_hal_flash_ex.c ****       /* Set value and mask for IWDG_STOP option byte */
 868:Drivers/STM32G4xx_HAL_Driver/Src/stm32g4xx_hal_flash_ex.c ****       optr_reg_val |= (UserConfig & FLASH_OPTR_IWDG_STOP);
 422              		.loc 1 868 7 view .LVU150
 423              		.loc 1 868 35 is_stmt 0 view .LVU151
 424 014a 07F40031 		and	r1, r7, #131072
 425              		.loc 1 868 20 view .LVU152
 426 014e 0B43     		orrs	r3, r3, r1
 427              	.LVL41:
 869:Drivers/STM32G4xx_HAL_Driver/Src/stm32g4xx_hal_flash_ex.c ****       optr_reg_mask |= FLASH_OPTR_IWDG_STOP;
 428              		.loc 1 869 7 is_stmt 1 view .LVU153
 429              		.loc 1 869 21 is_stmt 0 view .LVU154
 430 0150 42F40032 		orr	r2, r2, #131072
 431              	.LVL42:
 432              	.L18:
 870:Drivers/STM32G4xx_HAL_Driver/Src/stm32g4xx_hal_flash_ex.c ****     }
 871:Drivers/STM32G4xx_HAL_Driver/Src/stm32g4xx_hal_flash_ex.c **** 
 872:Drivers/STM32G4xx_HAL_Driver/Src/stm32g4xx_hal_flash_ex.c ****     if ((UserType & OB_USER_IWDG_STDBY) != 0U)
 433              		.loc 1 872 5 is_stmt 1 view .LVU155
 434              		.loc 1 872 8 is_stmt 0 view .LVU156
 435 0154 16F0200F 		tst	r6, #32
 436 0158 04D0     		beq	.L19
 873:Drivers/STM32G4xx_HAL_Driver/Src/stm32g4xx_hal_flash_ex.c ****     {
 874:Drivers/STM32G4xx_HAL_Driver/Src/stm32g4xx_hal_flash_ex.c ****       /* IWDG_STDBY option byte should be modified */
 875:Drivers/STM32G4xx_HAL_Driver/Src/stm32g4xx_hal_flash_ex.c ****       assert_param(IS_OB_USER_IWDG_STDBY(UserConfig & FLASH_OPTR_IWDG_STDBY));
 437              		.loc 1 875 7 is_stmt 1 view .LVU157
 876:Drivers/STM32G4xx_HAL_Driver/Src/stm32g4xx_hal_flash_ex.c **** 
 877:Drivers/STM32G4xx_HAL_Driver/Src/stm32g4xx_hal_flash_ex.c ****       /* Set value and mask for IWDG_STDBY option byte */
 878:Drivers/STM32G4xx_HAL_Driver/Src/stm32g4xx_hal_flash_ex.c ****       optr_reg_val |= (UserConfig & FLASH_OPTR_IWDG_STDBY);
ARM GAS  /tmp/ccBOcut4.s 			page 25


 438              		.loc 1 878 7 view .LVU158
 439              		.loc 1 878 35 is_stmt 0 view .LVU159
 440 015a 07F48021 		and	r1, r7, #262144
 441              		.loc 1 878 20 view .LVU160
 442 015e 0B43     		orrs	r3, r3, r1
 443              	.LVL43:
 879:Drivers/STM32G4xx_HAL_Driver/Src/stm32g4xx_hal_flash_ex.c ****       optr_reg_mask |= FLASH_OPTR_IWDG_STDBY;
 444              		.loc 1 879 7 is_stmt 1 view .LVU161
 445              		.loc 1 879 21 is_stmt 0 view .LVU162
 446 0160 42F48022 		orr	r2, r2, #262144
 447              	.LVL44:
 448              	.L19:
 880:Drivers/STM32G4xx_HAL_Driver/Src/stm32g4xx_hal_flash_ex.c ****     }
 881:Drivers/STM32G4xx_HAL_Driver/Src/stm32g4xx_hal_flash_ex.c **** 
 882:Drivers/STM32G4xx_HAL_Driver/Src/stm32g4xx_hal_flash_ex.c ****     if ((UserType & OB_USER_WWDG_SW) != 0U)
 449              		.loc 1 882 5 is_stmt 1 view .LVU163
 450              		.loc 1 882 8 is_stmt 0 view .LVU164
 451 0164 16F0400F 		tst	r6, #64
 452 0168 04D0     		beq	.L20
 883:Drivers/STM32G4xx_HAL_Driver/Src/stm32g4xx_hal_flash_ex.c ****     {
 884:Drivers/STM32G4xx_HAL_Driver/Src/stm32g4xx_hal_flash_ex.c ****       /* WWDG_SW option byte should be modified */
 885:Drivers/STM32G4xx_HAL_Driver/Src/stm32g4xx_hal_flash_ex.c ****       assert_param(IS_OB_USER_WWDG(UserConfig & FLASH_OPTR_WWDG_SW));
 453              		.loc 1 885 7 is_stmt 1 view .LVU165
 886:Drivers/STM32G4xx_HAL_Driver/Src/stm32g4xx_hal_flash_ex.c **** 
 887:Drivers/STM32G4xx_HAL_Driver/Src/stm32g4xx_hal_flash_ex.c ****       /* Set value and mask for WWDG_SW option byte */
 888:Drivers/STM32G4xx_HAL_Driver/Src/stm32g4xx_hal_flash_ex.c ****       optr_reg_val |= (UserConfig & FLASH_OPTR_WWDG_SW);
 454              		.loc 1 888 7 view .LVU166
 455              		.loc 1 888 35 is_stmt 0 view .LVU167
 456 016a 07F40021 		and	r1, r7, #524288
 457              		.loc 1 888 20 view .LVU168
 458 016e 0B43     		orrs	r3, r3, r1
 459              	.LVL45:
 889:Drivers/STM32G4xx_HAL_Driver/Src/stm32g4xx_hal_flash_ex.c ****       optr_reg_mask |= FLASH_OPTR_WWDG_SW;
 460              		.loc 1 889 7 is_stmt 1 view .LVU169
 461              		.loc 1 889 21 is_stmt 0 view .LVU170
 462 0170 42F40022 		orr	r2, r2, #524288
 463              	.LVL46:
 464              	.L20:
 890:Drivers/STM32G4xx_HAL_Driver/Src/stm32g4xx_hal_flash_ex.c ****     }
 891:Drivers/STM32G4xx_HAL_Driver/Src/stm32g4xx_hal_flash_ex.c **** 
 892:Drivers/STM32G4xx_HAL_Driver/Src/stm32g4xx_hal_flash_ex.c **** #if defined (FLASH_OPTR_BFB2)
 893:Drivers/STM32G4xx_HAL_Driver/Src/stm32g4xx_hal_flash_ex.c ****     if ((UserType & OB_USER_BFB2) != 0U)
 894:Drivers/STM32G4xx_HAL_Driver/Src/stm32g4xx_hal_flash_ex.c ****     {
 895:Drivers/STM32G4xx_HAL_Driver/Src/stm32g4xx_hal_flash_ex.c ****       /* BFB2 option byte should be modified */
 896:Drivers/STM32G4xx_HAL_Driver/Src/stm32g4xx_hal_flash_ex.c ****       assert_param(IS_OB_USER_BFB2(UserConfig & FLASH_OPTR_BFB2));
 897:Drivers/STM32G4xx_HAL_Driver/Src/stm32g4xx_hal_flash_ex.c **** 
 898:Drivers/STM32G4xx_HAL_Driver/Src/stm32g4xx_hal_flash_ex.c ****       /* Set value and mask for BFB2 option byte */
 899:Drivers/STM32G4xx_HAL_Driver/Src/stm32g4xx_hal_flash_ex.c ****       optr_reg_val |= (UserConfig & FLASH_OPTR_BFB2);
 900:Drivers/STM32G4xx_HAL_Driver/Src/stm32g4xx_hal_flash_ex.c ****       optr_reg_mask |= FLASH_OPTR_BFB2;
 901:Drivers/STM32G4xx_HAL_Driver/Src/stm32g4xx_hal_flash_ex.c ****     }
 902:Drivers/STM32G4xx_HAL_Driver/Src/stm32g4xx_hal_flash_ex.c **** #endif
 903:Drivers/STM32G4xx_HAL_Driver/Src/stm32g4xx_hal_flash_ex.c **** 
 904:Drivers/STM32G4xx_HAL_Driver/Src/stm32g4xx_hal_flash_ex.c ****     if ((UserType & OB_USER_nBOOT1) != 0U)
 465              		.loc 1 904 5 is_stmt 1 view .LVU171
 466              		.loc 1 904 8 is_stmt 0 view .LVU172
 467 0174 16F4007F 		tst	r6, #512
 468 0178 04D0     		beq	.L21
ARM GAS  /tmp/ccBOcut4.s 			page 26


 905:Drivers/STM32G4xx_HAL_Driver/Src/stm32g4xx_hal_flash_ex.c ****     {
 906:Drivers/STM32G4xx_HAL_Driver/Src/stm32g4xx_hal_flash_ex.c ****       /* nBOOT1 option byte should be modified */
 907:Drivers/STM32G4xx_HAL_Driver/Src/stm32g4xx_hal_flash_ex.c ****       assert_param(IS_OB_USER_BOOT1(UserConfig & FLASH_OPTR_nBOOT1));
 469              		.loc 1 907 7 is_stmt 1 view .LVU173
 908:Drivers/STM32G4xx_HAL_Driver/Src/stm32g4xx_hal_flash_ex.c **** 
 909:Drivers/STM32G4xx_HAL_Driver/Src/stm32g4xx_hal_flash_ex.c ****       /* Set value and mask for nBOOT1 option byte */
 910:Drivers/STM32G4xx_HAL_Driver/Src/stm32g4xx_hal_flash_ex.c ****       optr_reg_val |= (UserConfig & FLASH_OPTR_nBOOT1);
 470              		.loc 1 910 7 view .LVU174
 471              		.loc 1 910 35 is_stmt 0 view .LVU175
 472 017a 07F40001 		and	r1, r7, #8388608
 473              		.loc 1 910 20 view .LVU176
 474 017e 0B43     		orrs	r3, r3, r1
 475              	.LVL47:
 911:Drivers/STM32G4xx_HAL_Driver/Src/stm32g4xx_hal_flash_ex.c ****       optr_reg_mask |= FLASH_OPTR_nBOOT1;
 476              		.loc 1 911 7 is_stmt 1 view .LVU177
 477              		.loc 1 911 21 is_stmt 0 view .LVU178
 478 0180 42F40002 		orr	r2, r2, #8388608
 479              	.LVL48:
 480              	.L21:
 912:Drivers/STM32G4xx_HAL_Driver/Src/stm32g4xx_hal_flash_ex.c ****     }
 913:Drivers/STM32G4xx_HAL_Driver/Src/stm32g4xx_hal_flash_ex.c **** 
 914:Drivers/STM32G4xx_HAL_Driver/Src/stm32g4xx_hal_flash_ex.c ****     if ((UserType & OB_USER_SRAM_PE) != 0U)
 481              		.loc 1 914 5 is_stmt 1 view .LVU179
 482              		.loc 1 914 8 is_stmt 0 view .LVU180
 483 0184 16F4806F 		tst	r6, #1024
 484 0188 04D0     		beq	.L22
 915:Drivers/STM32G4xx_HAL_Driver/Src/stm32g4xx_hal_flash_ex.c ****     {
 916:Drivers/STM32G4xx_HAL_Driver/Src/stm32g4xx_hal_flash_ex.c ****       /* SRAM_PE option byte should be modified */
 917:Drivers/STM32G4xx_HAL_Driver/Src/stm32g4xx_hal_flash_ex.c ****       assert_param(IS_OB_USER_SRAM_PARITY(UserConfig & FLASH_OPTR_SRAM_PE));
 485              		.loc 1 917 7 is_stmt 1 view .LVU181
 918:Drivers/STM32G4xx_HAL_Driver/Src/stm32g4xx_hal_flash_ex.c **** 
 919:Drivers/STM32G4xx_HAL_Driver/Src/stm32g4xx_hal_flash_ex.c ****       /* Set value and mask for SRAM_PE option byte */
 920:Drivers/STM32G4xx_HAL_Driver/Src/stm32g4xx_hal_flash_ex.c ****       optr_reg_val |= (UserConfig & FLASH_OPTR_SRAM_PE);
 486              		.loc 1 920 7 view .LVU182
 487              		.loc 1 920 35 is_stmt 0 view .LVU183
 488 018a 07F08071 		and	r1, r7, #16777216
 489              		.loc 1 920 20 view .LVU184
 490 018e 0B43     		orrs	r3, r3, r1
 491              	.LVL49:
 921:Drivers/STM32G4xx_HAL_Driver/Src/stm32g4xx_hal_flash_ex.c ****       optr_reg_mask |= FLASH_OPTR_SRAM_PE;
 492              		.loc 1 921 7 is_stmt 1 view .LVU185
 493              		.loc 1 921 21 is_stmt 0 view .LVU186
 494 0190 42F08072 		orr	r2, r2, #16777216
 495              	.LVL50:
 496              	.L22:
 922:Drivers/STM32G4xx_HAL_Driver/Src/stm32g4xx_hal_flash_ex.c ****     }
 923:Drivers/STM32G4xx_HAL_Driver/Src/stm32g4xx_hal_flash_ex.c **** 
 924:Drivers/STM32G4xx_HAL_Driver/Src/stm32g4xx_hal_flash_ex.c ****     if ((UserType & OB_USER_CCMSRAM_RST) != 0U)
 497              		.loc 1 924 5 is_stmt 1 view .LVU187
 498              		.loc 1 924 8 is_stmt 0 view .LVU188
 499 0194 16F4006F 		tst	r6, #2048
 500 0198 04D0     		beq	.L23
 925:Drivers/STM32G4xx_HAL_Driver/Src/stm32g4xx_hal_flash_ex.c ****     {
 926:Drivers/STM32G4xx_HAL_Driver/Src/stm32g4xx_hal_flash_ex.c ****       /* CCMSRAM_RST option byte should be modified */
 927:Drivers/STM32G4xx_HAL_Driver/Src/stm32g4xx_hal_flash_ex.c ****       assert_param(IS_OB_USER_CCMSRAM_RST(UserConfig & FLASH_OPTR_CCMSRAM_RST));
 501              		.loc 1 927 7 is_stmt 1 view .LVU189
 928:Drivers/STM32G4xx_HAL_Driver/Src/stm32g4xx_hal_flash_ex.c **** 
ARM GAS  /tmp/ccBOcut4.s 			page 27


 929:Drivers/STM32G4xx_HAL_Driver/Src/stm32g4xx_hal_flash_ex.c ****       /* Set value and mask for CCMSRAM_RST option byte */
 930:Drivers/STM32G4xx_HAL_Driver/Src/stm32g4xx_hal_flash_ex.c ****       optr_reg_val |= (UserConfig & FLASH_OPTR_CCMSRAM_RST);
 502              		.loc 1 930 7 view .LVU190
 503              		.loc 1 930 35 is_stmt 0 view .LVU191
 504 019a 07F00071 		and	r1, r7, #33554432
 505              		.loc 1 930 20 view .LVU192
 506 019e 0B43     		orrs	r3, r3, r1
 507              	.LVL51:
 931:Drivers/STM32G4xx_HAL_Driver/Src/stm32g4xx_hal_flash_ex.c ****       optr_reg_mask |= FLASH_OPTR_CCMSRAM_RST;
 508              		.loc 1 931 7 is_stmt 1 view .LVU193
 509              		.loc 1 931 21 is_stmt 0 view .LVU194
 510 01a0 42F00072 		orr	r2, r2, #33554432
 511              	.LVL52:
 512              	.L23:
 932:Drivers/STM32G4xx_HAL_Driver/Src/stm32g4xx_hal_flash_ex.c ****     }
 933:Drivers/STM32G4xx_HAL_Driver/Src/stm32g4xx_hal_flash_ex.c **** 
 934:Drivers/STM32G4xx_HAL_Driver/Src/stm32g4xx_hal_flash_ex.c ****     if ((UserType & OB_USER_nSWBOOT0) != 0U)
 513              		.loc 1 934 5 is_stmt 1 view .LVU195
 514              		.loc 1 934 8 is_stmt 0 view .LVU196
 515 01a4 16F4005F 		tst	r6, #8192
 516 01a8 04D0     		beq	.L24
 935:Drivers/STM32G4xx_HAL_Driver/Src/stm32g4xx_hal_flash_ex.c ****     {
 936:Drivers/STM32G4xx_HAL_Driver/Src/stm32g4xx_hal_flash_ex.c ****       /* nSWBOOT0 option byte should be modified */
 937:Drivers/STM32G4xx_HAL_Driver/Src/stm32g4xx_hal_flash_ex.c ****       assert_param(IS_OB_USER_SWBOOT0(UserConfig & FLASH_OPTR_nSWBOOT0));
 517              		.loc 1 937 7 is_stmt 1 view .LVU197
 938:Drivers/STM32G4xx_HAL_Driver/Src/stm32g4xx_hal_flash_ex.c **** 
 939:Drivers/STM32G4xx_HAL_Driver/Src/stm32g4xx_hal_flash_ex.c ****       /* Set value and mask for nSWBOOT0 option byte */
 940:Drivers/STM32G4xx_HAL_Driver/Src/stm32g4xx_hal_flash_ex.c ****       optr_reg_val |= (UserConfig & FLASH_OPTR_nSWBOOT0);
 518              		.loc 1 940 7 view .LVU198
 519              		.loc 1 940 35 is_stmt 0 view .LVU199
 520 01aa 07F08061 		and	r1, r7, #67108864
 521              		.loc 1 940 20 view .LVU200
 522 01ae 0B43     		orrs	r3, r3, r1
 523              	.LVL53:
 941:Drivers/STM32G4xx_HAL_Driver/Src/stm32g4xx_hal_flash_ex.c ****       optr_reg_mask |= FLASH_OPTR_nSWBOOT0;
 524              		.loc 1 941 7 is_stmt 1 view .LVU201
 525              		.loc 1 941 21 is_stmt 0 view .LVU202
 526 01b0 42F08062 		orr	r2, r2, #67108864
 527              	.LVL54:
 528              	.L24:
 942:Drivers/STM32G4xx_HAL_Driver/Src/stm32g4xx_hal_flash_ex.c ****     }
 943:Drivers/STM32G4xx_HAL_Driver/Src/stm32g4xx_hal_flash_ex.c **** 
 944:Drivers/STM32G4xx_HAL_Driver/Src/stm32g4xx_hal_flash_ex.c ****     if ((UserType & OB_USER_nBOOT0) != 0U)
 529              		.loc 1 944 5 is_stmt 1 view .LVU203
 530              		.loc 1 944 8 is_stmt 0 view .LVU204
 531 01b4 16F4804F 		tst	r6, #16384
 532 01b8 04D0     		beq	.L25
 945:Drivers/STM32G4xx_HAL_Driver/Src/stm32g4xx_hal_flash_ex.c ****     {
 946:Drivers/STM32G4xx_HAL_Driver/Src/stm32g4xx_hal_flash_ex.c ****       /* nBOOT0 option byte should be modified */
 947:Drivers/STM32G4xx_HAL_Driver/Src/stm32g4xx_hal_flash_ex.c ****       assert_param(IS_OB_USER_BOOT0(UserConfig & FLASH_OPTR_nBOOT0));
 533              		.loc 1 947 7 is_stmt 1 view .LVU205
 948:Drivers/STM32G4xx_HAL_Driver/Src/stm32g4xx_hal_flash_ex.c **** 
 949:Drivers/STM32G4xx_HAL_Driver/Src/stm32g4xx_hal_flash_ex.c ****       /* Set value and mask for nBOOT0 option byte */
 950:Drivers/STM32G4xx_HAL_Driver/Src/stm32g4xx_hal_flash_ex.c ****       optr_reg_val |= (UserConfig & FLASH_OPTR_nBOOT0);
 534              		.loc 1 950 7 view .LVU206
 535              		.loc 1 950 35 is_stmt 0 view .LVU207
 536 01ba 07F00061 		and	r1, r7, #134217728
ARM GAS  /tmp/ccBOcut4.s 			page 28


 537              		.loc 1 950 20 view .LVU208
 538 01be 0B43     		orrs	r3, r3, r1
 539              	.LVL55:
 951:Drivers/STM32G4xx_HAL_Driver/Src/stm32g4xx_hal_flash_ex.c ****       optr_reg_mask |= FLASH_OPTR_nBOOT0;
 540              		.loc 1 951 7 is_stmt 1 view .LVU209
 541              		.loc 1 951 21 is_stmt 0 view .LVU210
 542 01c0 42F00062 		orr	r2, r2, #134217728
 543              	.LVL56:
 544              	.L25:
 952:Drivers/STM32G4xx_HAL_Driver/Src/stm32g4xx_hal_flash_ex.c ****     }
 953:Drivers/STM32G4xx_HAL_Driver/Src/stm32g4xx_hal_flash_ex.c **** 
 954:Drivers/STM32G4xx_HAL_Driver/Src/stm32g4xx_hal_flash_ex.c ****     if ((UserType & OB_USER_NRST_MODE) != 0U)
 545              		.loc 1 954 5 is_stmt 1 view .LVU211
 546              		.loc 1 954 8 is_stmt 0 view .LVU212
 547 01c4 16F4004F 		tst	r6, #32768
 548 01c8 04D0     		beq	.L26
 955:Drivers/STM32G4xx_HAL_Driver/Src/stm32g4xx_hal_flash_ex.c ****     {
 956:Drivers/STM32G4xx_HAL_Driver/Src/stm32g4xx_hal_flash_ex.c ****       /* Reset Configuration option byte should be modified */
 957:Drivers/STM32G4xx_HAL_Driver/Src/stm32g4xx_hal_flash_ex.c ****       assert_param(IS_OB_USER_NRST_MODE(UserConfig & FLASH_OPTR_NRST_MODE));
 549              		.loc 1 957 7 is_stmt 1 view .LVU213
 958:Drivers/STM32G4xx_HAL_Driver/Src/stm32g4xx_hal_flash_ex.c **** 
 959:Drivers/STM32G4xx_HAL_Driver/Src/stm32g4xx_hal_flash_ex.c ****       /* Set value and mask for Reset Configuration option byte */
 960:Drivers/STM32G4xx_HAL_Driver/Src/stm32g4xx_hal_flash_ex.c ****       optr_reg_val |= (UserConfig & FLASH_OPTR_NRST_MODE);
 550              		.loc 1 960 7 view .LVU214
 551              		.loc 1 960 35 is_stmt 0 view .LVU215
 552 01ca 07F04051 		and	r1, r7, #805306368
 553              		.loc 1 960 20 view .LVU216
 554 01ce 0B43     		orrs	r3, r3, r1
 555              	.LVL57:
 961:Drivers/STM32G4xx_HAL_Driver/Src/stm32g4xx_hal_flash_ex.c ****       optr_reg_mask |= FLASH_OPTR_NRST_MODE;
 556              		.loc 1 961 7 is_stmt 1 view .LVU217
 557              		.loc 1 961 21 is_stmt 0 view .LVU218
 558 01d0 42F04052 		orr	r2, r2, #805306368
 559              	.LVL58:
 560              	.L26:
 962:Drivers/STM32G4xx_HAL_Driver/Src/stm32g4xx_hal_flash_ex.c ****     }
 963:Drivers/STM32G4xx_HAL_Driver/Src/stm32g4xx_hal_flash_ex.c **** 
 964:Drivers/STM32G4xx_HAL_Driver/Src/stm32g4xx_hal_flash_ex.c ****     if ((UserType & OB_USER_IRHEN) != 0U)
 561              		.loc 1 964 5 is_stmt 1 view .LVU219
 562              		.loc 1 964 8 is_stmt 0 view .LVU220
 563 01d4 16F4803F 		tst	r6, #65536
 564 01d8 04D0     		beq	.L27
 965:Drivers/STM32G4xx_HAL_Driver/Src/stm32g4xx_hal_flash_ex.c ****     {
 966:Drivers/STM32G4xx_HAL_Driver/Src/stm32g4xx_hal_flash_ex.c ****       /* IRH option byte should be modified */
 967:Drivers/STM32G4xx_HAL_Driver/Src/stm32g4xx_hal_flash_ex.c ****       assert_param(IS_OB_USER_IRHEN(UserConfig & FLASH_OPTR_IRHEN));
 565              		.loc 1 967 7 is_stmt 1 view .LVU221
 968:Drivers/STM32G4xx_HAL_Driver/Src/stm32g4xx_hal_flash_ex.c **** 
 969:Drivers/STM32G4xx_HAL_Driver/Src/stm32g4xx_hal_flash_ex.c ****       /* Set value and mask for IRH option byte */
 970:Drivers/STM32G4xx_HAL_Driver/Src/stm32g4xx_hal_flash_ex.c ****       optr_reg_val |= (UserConfig & FLASH_OPTR_IRHEN);
 566              		.loc 1 970 7 view .LVU222
 567              		.loc 1 970 35 is_stmt 0 view .LVU223
 568 01da 07F08047 		and	r7, r7, #1073741824
 569              	.LVL59:
 570              		.loc 1 970 20 view .LVU224
 571 01de 3B43     		orrs	r3, r3, r7
 572              	.LVL60:
 971:Drivers/STM32G4xx_HAL_Driver/Src/stm32g4xx_hal_flash_ex.c ****       optr_reg_mask |= FLASH_OPTR_IRHEN;
ARM GAS  /tmp/ccBOcut4.s 			page 29


 573              		.loc 1 971 7 is_stmt 1 view .LVU225
 574              		.loc 1 971 21 is_stmt 0 view .LVU226
 575 01e0 42F08042 		orr	r2, r2, #1073741824
 576              	.LVL61:
 577              	.L27:
 972:Drivers/STM32G4xx_HAL_Driver/Src/stm32g4xx_hal_flash_ex.c ****     }
 973:Drivers/STM32G4xx_HAL_Driver/Src/stm32g4xx_hal_flash_ex.c **** 
 974:Drivers/STM32G4xx_HAL_Driver/Src/stm32g4xx_hal_flash_ex.c ****     /* Configure the option bytes register */
 975:Drivers/STM32G4xx_HAL_Driver/Src/stm32g4xx_hal_flash_ex.c ****     MODIFY_REG(FLASH->OPTR, optr_reg_mask, optr_reg_val);
 578              		.loc 1 975 5 is_stmt 1 view .LVU227
 579 01e4 3948     		ldr	r0, .L51+4
 580              	.LVL62:
 581              		.loc 1 975 5 is_stmt 0 view .LVU228
 582 01e6 016A     		ldr	r1, [r0, #32]
 583 01e8 21EA0202 		bic	r2, r1, r2
 584              	.LVL63:
 585              		.loc 1 975 5 view .LVU229
 586 01ec 1343     		orrs	r3, r3, r2
 587              	.LVL64:
 588              		.loc 1 975 5 view .LVU230
 589 01ee 0362     		str	r3, [r0, #32]
 976:Drivers/STM32G4xx_HAL_Driver/Src/stm32g4xx_hal_flash_ex.c **** 
 977:Drivers/STM32G4xx_HAL_Driver/Src/stm32g4xx_hal_flash_ex.c ****     /* Set OPTSTRT Bit */
 978:Drivers/STM32G4xx_HAL_Driver/Src/stm32g4xx_hal_flash_ex.c ****     SET_BIT(FLASH->CR, FLASH_CR_OPTSTRT);
 590              		.loc 1 978 5 is_stmt 1 view .LVU231
 591 01f0 4369     		ldr	r3, [r0, #20]
 592 01f2 43F40033 		orr	r3, r3, #131072
 593 01f6 4361     		str	r3, [r0, #20]
 979:Drivers/STM32G4xx_HAL_Driver/Src/stm32g4xx_hal_flash_ex.c **** 
 980:Drivers/STM32G4xx_HAL_Driver/Src/stm32g4xx_hal_flash_ex.c ****     /* Wait for last operation to be completed */
 981:Drivers/STM32G4xx_HAL_Driver/Src/stm32g4xx_hal_flash_ex.c ****     status = FLASH_WaitForLastOperation((uint32_t)FLASH_TIMEOUT_VALUE);
 594              		.loc 1 981 5 view .LVU232
 595              		.loc 1 981 14 is_stmt 0 view .LVU233
 596 01f8 4FF47A70 		mov	r0, #1000
 597 01fc FFF7FEFF 		bl	FLASH_WaitForLastOperation
 598              	.LVL65:
 982:Drivers/STM32G4xx_HAL_Driver/Src/stm32g4xx_hal_flash_ex.c ****   }
 983:Drivers/STM32G4xx_HAL_Driver/Src/stm32g4xx_hal_flash_ex.c **** 
 984:Drivers/STM32G4xx_HAL_Driver/Src/stm32g4xx_hal_flash_ex.c ****   return status;
 599              		.loc 1 984 3 is_stmt 1 view .LVU234
 600              		.loc 1 984 3 is_stmt 0 view .LVU235
 601              	.LBE23:
 602              	.LBE22:
 348:Drivers/STM32G4xx_HAL_Driver/Src/stm32g4xx_hal_flash_ex.c ****     }
 603              		.loc 1 348 14 view .LVU236
 604 0200 0028     		cmp	r0, #0
 605 0202 18BF     		it	ne
 606 0204 0125     		movne	r5, #1
 607              	.LVL66:
 348:Drivers/STM32G4xx_HAL_Driver/Src/stm32g4xx_hal_flash_ex.c ****     }
 608              		.loc 1 348 14 view .LVU237
 609 0206 15E7     		b	.L12
 610              	.LVL67:
 611              	.L36:
 348:Drivers/STM32G4xx_HAL_Driver/Src/stm32g4xx_hal_flash_ex.c ****     }
 612              		.loc 1 348 14 view .LVU238
 613 0208 0125     		movs	r5, #1
ARM GAS  /tmp/ccBOcut4.s 			page 30


 614              	.LVL68:
 348:Drivers/STM32G4xx_HAL_Driver/Src/stm32g4xx_hal_flash_ex.c ****     }
 615              		.loc 1 348 14 view .LVU239
 616 020a 13E7     		b	.L12
 617              	.LVL69:
 618              	.L45:
 358:Drivers/STM32G4xx_HAL_Driver/Src/stm32g4xx_hal_flash_ex.c ****       {
 619              		.loc 1 358 7 is_stmt 1 view .LVU240
 358:Drivers/STM32G4xx_HAL_Driver/Src/stm32g4xx_hal_flash_ex.c ****       {
 620              		.loc 1 358 11 is_stmt 0 view .LVU241
 621 020c D4F81C80 		ldr	r8, [r4, #28]
 622              	.LVL70:
 623              	.LBB24:
 624              	.LBI24:
 985:Drivers/STM32G4xx_HAL_Driver/Src/stm32g4xx_hal_flash_ex.c **** }
 986:Drivers/STM32G4xx_HAL_Driver/Src/stm32g4xx_hal_flash_ex.c **** 
 987:Drivers/STM32G4xx_HAL_Driver/Src/stm32g4xx_hal_flash_ex.c **** /**
 988:Drivers/STM32G4xx_HAL_Driver/Src/stm32g4xx_hal_flash_ex.c ****   * @brief  Configure the Proprietary code readout protection area into Option Bytes.
 989:Drivers/STM32G4xx_HAL_Driver/Src/stm32g4xx_hal_flash_ex.c ****   * @note   To configure any option bytes, the option lock bit OPTLOCK must be
 990:Drivers/STM32G4xx_HAL_Driver/Src/stm32g4xx_hal_flash_ex.c ****   *         cleared with the call of HAL_FLASH_OB_Unlock() function.
 991:Drivers/STM32G4xx_HAL_Driver/Src/stm32g4xx_hal_flash_ex.c ****   * @note   New option bytes configuration will be taken into account in two cases:
 992:Drivers/STM32G4xx_HAL_Driver/Src/stm32g4xx_hal_flash_ex.c ****   *         - after an option bytes launch through the call of HAL_FLASH_OB_Launch()
 993:Drivers/STM32G4xx_HAL_Driver/Src/stm32g4xx_hal_flash_ex.c ****   *         - after a power reset (BOR reset or exit from Standby/Shutdown modes)
 994:Drivers/STM32G4xx_HAL_Driver/Src/stm32g4xx_hal_flash_ex.c ****   * @param  PCROPConfig specifies the configuration (Bank to be configured and PCROP_RDP option).
 995:Drivers/STM32G4xx_HAL_Driver/Src/stm32g4xx_hal_flash_ex.c ****   *         This parameter must be a combination of FLASH_BANK_1 or FLASH_BANK_2 (*)
 996:Drivers/STM32G4xx_HAL_Driver/Src/stm32g4xx_hal_flash_ex.c ****   *         with OB_PCROP_RDP_NOT_ERASE or OB_PCROP_RDP_ERASE.
 997:Drivers/STM32G4xx_HAL_Driver/Src/stm32g4xx_hal_flash_ex.c ****   * @note   (*) availability depends on devices
 998:Drivers/STM32G4xx_HAL_Driver/Src/stm32g4xx_hal_flash_ex.c ****   * @param  PCROPStartAddr specifies the start address of the Proprietary code readout protection.
 999:Drivers/STM32G4xx_HAL_Driver/Src/stm32g4xx_hal_flash_ex.c ****   *         This parameter can be an address between begin and end of the bank.
1000:Drivers/STM32G4xx_HAL_Driver/Src/stm32g4xx_hal_flash_ex.c ****   * @param  PCROPEndAddr specifies the end address of the Proprietary code readout protection.
1001:Drivers/STM32G4xx_HAL_Driver/Src/stm32g4xx_hal_flash_ex.c ****   *         This parameter can be an address between PCROPStartAddr and end of the bank.
1002:Drivers/STM32G4xx_HAL_Driver/Src/stm32g4xx_hal_flash_ex.c ****   * @retval HAL_Status
1003:Drivers/STM32G4xx_HAL_Driver/Src/stm32g4xx_hal_flash_ex.c ****   */
1004:Drivers/STM32G4xx_HAL_Driver/Src/stm32g4xx_hal_flash_ex.c **** static HAL_StatusTypeDef FLASH_OB_PCROPConfig(uint32_t PCROPConfig, uint32_t PCROPStartAddr, uint32
 625              		.loc 1 1004 26 is_stmt 1 view .LVU242
 626              	.LBB25:
1005:Drivers/STM32G4xx_HAL_Driver/Src/stm32g4xx_hal_flash_ex.c **** {
1006:Drivers/STM32G4xx_HAL_Driver/Src/stm32g4xx_hal_flash_ex.c ****   HAL_StatusTypeDef status;
 627              		.loc 1 1006 3 view .LVU243
1007:Drivers/STM32G4xx_HAL_Driver/Src/stm32g4xx_hal_flash_ex.c ****   uint32_t reg_value;
 628              		.loc 1 1007 3 view .LVU244
1008:Drivers/STM32G4xx_HAL_Driver/Src/stm32g4xx_hal_flash_ex.c ****   uint32_t bank1_addr;
 629              		.loc 1 1008 3 view .LVU245
1009:Drivers/STM32G4xx_HAL_Driver/Src/stm32g4xx_hal_flash_ex.c **** #if defined (FLASH_OPTR_DBANK)
1010:Drivers/STM32G4xx_HAL_Driver/Src/stm32g4xx_hal_flash_ex.c ****   uint32_t bank2_addr;
1011:Drivers/STM32G4xx_HAL_Driver/Src/stm32g4xx_hal_flash_ex.c **** #endif
1012:Drivers/STM32G4xx_HAL_Driver/Src/stm32g4xx_hal_flash_ex.c **** 
1013:Drivers/STM32G4xx_HAL_Driver/Src/stm32g4xx_hal_flash_ex.c ****   /* Check the parameters */
1014:Drivers/STM32G4xx_HAL_Driver/Src/stm32g4xx_hal_flash_ex.c ****   assert_param(IS_FLASH_BANK_EXCLUSIVE(PCROPConfig & FLASH_BANK_BOTH));
 630              		.loc 1 1014 3 view .LVU246
1015:Drivers/STM32G4xx_HAL_Driver/Src/stm32g4xx_hal_flash_ex.c ****   assert_param(IS_OB_PCROP_RDP(PCROPConfig & FLASH_PCROP1ER_PCROP_RDP));
 631              		.loc 1 1015 3 view .LVU247
1016:Drivers/STM32G4xx_HAL_Driver/Src/stm32g4xx_hal_flash_ex.c ****   assert_param(IS_FLASH_MAIN_MEM_ADDRESS(PCROPStartAddr));
 632              		.loc 1 1016 3 view .LVU248
1017:Drivers/STM32G4xx_HAL_Driver/Src/stm32g4xx_hal_flash_ex.c ****   assert_param(IS_FLASH_MAIN_MEM_ADDRESS(PCROPEndAddr));
 633              		.loc 1 1017 3 view .LVU249
1018:Drivers/STM32G4xx_HAL_Driver/Src/stm32g4xx_hal_flash_ex.c **** 
ARM GAS  /tmp/ccBOcut4.s 			page 31


1019:Drivers/STM32G4xx_HAL_Driver/Src/stm32g4xx_hal_flash_ex.c ****   /* Wait for last operation to be completed */
1020:Drivers/STM32G4xx_HAL_Driver/Src/stm32g4xx_hal_flash_ex.c ****   status = FLASH_WaitForLastOperation((uint32_t)FLASH_TIMEOUT_VALUE);
 634              		.loc 1 1020 3 view .LVU250
 635              		.loc 1 1020 12 is_stmt 0 view .LVU251
 636 0210 4FF47A70 		mov	r0, #1000
 637 0214 FFF7FEFF 		bl	FLASH_WaitForLastOperation
 638              	.LVL71:
1021:Drivers/STM32G4xx_HAL_Driver/Src/stm32g4xx_hal_flash_ex.c **** 
1022:Drivers/STM32G4xx_HAL_Driver/Src/stm32g4xx_hal_flash_ex.c ****   if (status == HAL_OK)
 639              		.loc 1 1022 3 is_stmt 1 view .LVU252
 640              		.loc 1 1022 6 is_stmt 0 view .LVU253
 641 0218 60BB     		cbnz	r0, .L38
1023:Drivers/STM32G4xx_HAL_Driver/Src/stm32g4xx_hal_flash_ex.c ****   {
1024:Drivers/STM32G4xx_HAL_Driver/Src/stm32g4xx_hal_flash_ex.c **** #if defined (FLASH_OPTR_DBANK)
1025:Drivers/STM32G4xx_HAL_Driver/Src/stm32g4xx_hal_flash_ex.c ****     /* Get the information about the bank swapping */
1026:Drivers/STM32G4xx_HAL_Driver/Src/stm32g4xx_hal_flash_ex.c ****     if (READ_BIT(SYSCFG->MEMRMP, SYSCFG_MEMRMP_FB_MODE) == 0U)
1027:Drivers/STM32G4xx_HAL_Driver/Src/stm32g4xx_hal_flash_ex.c ****     {
1028:Drivers/STM32G4xx_HAL_Driver/Src/stm32g4xx_hal_flash_ex.c ****       bank1_addr = FLASH_BASE;
1029:Drivers/STM32G4xx_HAL_Driver/Src/stm32g4xx_hal_flash_ex.c ****       bank2_addr = FLASH_BASE + FLASH_BANK_SIZE;
1030:Drivers/STM32G4xx_HAL_Driver/Src/stm32g4xx_hal_flash_ex.c ****     }
1031:Drivers/STM32G4xx_HAL_Driver/Src/stm32g4xx_hal_flash_ex.c ****     else
1032:Drivers/STM32G4xx_HAL_Driver/Src/stm32g4xx_hal_flash_ex.c ****     {
1033:Drivers/STM32G4xx_HAL_Driver/Src/stm32g4xx_hal_flash_ex.c ****       bank1_addr = FLASH_BASE + FLASH_BANK_SIZE;
1034:Drivers/STM32G4xx_HAL_Driver/Src/stm32g4xx_hal_flash_ex.c ****       bank2_addr = FLASH_BASE;
1035:Drivers/STM32G4xx_HAL_Driver/Src/stm32g4xx_hal_flash_ex.c ****     }
1036:Drivers/STM32G4xx_HAL_Driver/Src/stm32g4xx_hal_flash_ex.c **** #else
1037:Drivers/STM32G4xx_HAL_Driver/Src/stm32g4xx_hal_flash_ex.c ****     bank1_addr = FLASH_BASE;
 642              		.loc 1 1037 5 is_stmt 1 view .LVU254
 643              	.LVL72:
1038:Drivers/STM32G4xx_HAL_Driver/Src/stm32g4xx_hal_flash_ex.c **** #endif
1039:Drivers/STM32G4xx_HAL_Driver/Src/stm32g4xx_hal_flash_ex.c **** 
1040:Drivers/STM32G4xx_HAL_Driver/Src/stm32g4xx_hal_flash_ex.c **** #if defined (FLASH_OPTR_DBANK)
1041:Drivers/STM32G4xx_HAL_Driver/Src/stm32g4xx_hal_flash_ex.c ****     if (READ_BIT(FLASH->OPTR, FLASH_OPTR_DBANK) == 0U)
1042:Drivers/STM32G4xx_HAL_Driver/Src/stm32g4xx_hal_flash_ex.c ****     {
1043:Drivers/STM32G4xx_HAL_Driver/Src/stm32g4xx_hal_flash_ex.c ****       /* Configure the Proprietary code readout protection */
1044:Drivers/STM32G4xx_HAL_Driver/Src/stm32g4xx_hal_flash_ex.c ****       if ((PCROPConfig & FLASH_BANK_BOTH) == FLASH_BANK_1)
1045:Drivers/STM32G4xx_HAL_Driver/Src/stm32g4xx_hal_flash_ex.c ****       {
1046:Drivers/STM32G4xx_HAL_Driver/Src/stm32g4xx_hal_flash_ex.c ****         reg_value = ((PCROPStartAddr - FLASH_BASE) >> 4);
1047:Drivers/STM32G4xx_HAL_Driver/Src/stm32g4xx_hal_flash_ex.c ****         MODIFY_REG(FLASH->PCROP1SR, FLASH_PCROP1SR_PCROP1_STRT, reg_value);
1048:Drivers/STM32G4xx_HAL_Driver/Src/stm32g4xx_hal_flash_ex.c **** 
1049:Drivers/STM32G4xx_HAL_Driver/Src/stm32g4xx_hal_flash_ex.c ****         reg_value = ((PCROPEndAddr - FLASH_BASE) >> 4);
1050:Drivers/STM32G4xx_HAL_Driver/Src/stm32g4xx_hal_flash_ex.c ****         MODIFY_REG(FLASH->PCROP1ER, FLASH_PCROP1ER_PCROP1_END, reg_value);
1051:Drivers/STM32G4xx_HAL_Driver/Src/stm32g4xx_hal_flash_ex.c ****       }
1052:Drivers/STM32G4xx_HAL_Driver/Src/stm32g4xx_hal_flash_ex.c ****       else if ((PCROPConfig & FLASH_BANK_BOTH) == FLASH_BANK_2)
1053:Drivers/STM32G4xx_HAL_Driver/Src/stm32g4xx_hal_flash_ex.c ****       {
1054:Drivers/STM32G4xx_HAL_Driver/Src/stm32g4xx_hal_flash_ex.c ****         reg_value = ((PCROPStartAddr - FLASH_BASE) >> 4);
1055:Drivers/STM32G4xx_HAL_Driver/Src/stm32g4xx_hal_flash_ex.c ****         MODIFY_REG(FLASH->PCROP2SR, FLASH_PCROP2SR_PCROP2_STRT, reg_value);
1056:Drivers/STM32G4xx_HAL_Driver/Src/stm32g4xx_hal_flash_ex.c **** 
1057:Drivers/STM32G4xx_HAL_Driver/Src/stm32g4xx_hal_flash_ex.c ****         reg_value = ((PCROPEndAddr - FLASH_BASE) >> 4);
1058:Drivers/STM32G4xx_HAL_Driver/Src/stm32g4xx_hal_flash_ex.c ****         MODIFY_REG(FLASH->PCROP2ER, FLASH_PCROP2ER_PCROP2_END, reg_value);
1059:Drivers/STM32G4xx_HAL_Driver/Src/stm32g4xx_hal_flash_ex.c ****       }
1060:Drivers/STM32G4xx_HAL_Driver/Src/stm32g4xx_hal_flash_ex.c ****       else
1061:Drivers/STM32G4xx_HAL_Driver/Src/stm32g4xx_hal_flash_ex.c ****       {
1062:Drivers/STM32G4xx_HAL_Driver/Src/stm32g4xx_hal_flash_ex.c ****         /* Nothing to do */
1063:Drivers/STM32G4xx_HAL_Driver/Src/stm32g4xx_hal_flash_ex.c ****       }
1064:Drivers/STM32G4xx_HAL_Driver/Src/stm32g4xx_hal_flash_ex.c ****     }
1065:Drivers/STM32G4xx_HAL_Driver/Src/stm32g4xx_hal_flash_ex.c ****     else
ARM GAS  /tmp/ccBOcut4.s 			page 32


1066:Drivers/STM32G4xx_HAL_Driver/Src/stm32g4xx_hal_flash_ex.c **** #endif
1067:Drivers/STM32G4xx_HAL_Driver/Src/stm32g4xx_hal_flash_ex.c ****     {
1068:Drivers/STM32G4xx_HAL_Driver/Src/stm32g4xx_hal_flash_ex.c ****       /* Configure the Proprietary code readout protection */
1069:Drivers/STM32G4xx_HAL_Driver/Src/stm32g4xx_hal_flash_ex.c ****       if ((PCROPConfig & FLASH_BANK_BOTH) == FLASH_BANK_1)
 644              		.loc 1 1069 7 view .LVU255
 645              		.loc 1 1069 10 is_stmt 0 view .LVU256
 646 021a 18F0010F 		tst	r8, #1
 647 021e 14D0     		beq	.L29
1070:Drivers/STM32G4xx_HAL_Driver/Src/stm32g4xx_hal_flash_ex.c ****       {
1071:Drivers/STM32G4xx_HAL_Driver/Src/stm32g4xx_hal_flash_ex.c ****         reg_value = ((PCROPStartAddr - bank1_addr) >> 3);
 648              		.loc 1 1071 9 is_stmt 1 view .LVU257
 649              	.LVL73:
1072:Drivers/STM32G4xx_HAL_Driver/Src/stm32g4xx_hal_flash_ex.c ****         MODIFY_REG(FLASH->PCROP1SR, FLASH_PCROP1SR_PCROP1_STRT, reg_value);
 650              		.loc 1 1072 9 view .LVU258
 651 0220 2A4A     		ldr	r2, .L51+4
 652 0222 536A     		ldr	r3, [r2, #36]
1071:Drivers/STM32G4xx_HAL_Driver/Src/stm32g4xx_hal_flash_ex.c ****         MODIFY_REG(FLASH->PCROP1SR, FLASH_PCROP1SR_PCROP1_STRT, reg_value);
 653              		.loc 1 1071 38 is_stmt 0 view .LVU259
 654 0224 07F17847 		add	r7, r7, #-134217728
 655              	.LVL74:
 656              		.loc 1 1072 9 view .LVU260
 657 0228 23F47F53 		bic	r3, r3, #16320
 658 022c 23F03F03 		bic	r3, r3, #63
 659 0230 43EAD707 		orr	r7, r3, r7, lsr #3
 660              	.LVL75:
 661              		.loc 1 1072 9 view .LVU261
 662 0234 5762     		str	r7, [r2, #36]
1073:Drivers/STM32G4xx_HAL_Driver/Src/stm32g4xx_hal_flash_ex.c **** 
1074:Drivers/STM32G4xx_HAL_Driver/Src/stm32g4xx_hal_flash_ex.c ****         reg_value = ((PCROPEndAddr - bank1_addr) >> 3);
 663              		.loc 1 1074 9 is_stmt 1 view .LVU262
 664              	.LVL76:
1075:Drivers/STM32G4xx_HAL_Driver/Src/stm32g4xx_hal_flash_ex.c ****         MODIFY_REG(FLASH->PCROP1ER, FLASH_PCROP1ER_PCROP1_END, reg_value);
 665              		.loc 1 1075 9 view .LVU263
 666 0236 936A     		ldr	r3, [r2, #40]
1074:Drivers/STM32G4xx_HAL_Driver/Src/stm32g4xx_hal_flash_ex.c ****         MODIFY_REG(FLASH->PCROP1ER, FLASH_PCROP1ER_PCROP1_END, reg_value);
 667              		.loc 1 1074 36 is_stmt 0 view .LVU264
 668 0238 06F17846 		add	r6, r6, #-134217728
 669              	.LVL77:
 670              		.loc 1 1075 9 view .LVU265
 671 023c 23F47F53 		bic	r3, r3, #16320
 672 0240 23F03F03 		bic	r3, r3, #63
 673 0244 43EAD606 		orr	r6, r3, r6, lsr #3
 674              	.LVL78:
 675              		.loc 1 1075 9 view .LVU266
 676 0248 9662     		str	r6, [r2, #40]
 677              	.L29:
1076:Drivers/STM32G4xx_HAL_Driver/Src/stm32g4xx_hal_flash_ex.c ****       }
1077:Drivers/STM32G4xx_HAL_Driver/Src/stm32g4xx_hal_flash_ex.c **** #if defined (FLASH_OPTR_DBANK)
1078:Drivers/STM32G4xx_HAL_Driver/Src/stm32g4xx_hal_flash_ex.c ****       else if ((PCROPConfig & FLASH_BANK_BOTH) == FLASH_BANK_2)
1079:Drivers/STM32G4xx_HAL_Driver/Src/stm32g4xx_hal_flash_ex.c ****       {
1080:Drivers/STM32G4xx_HAL_Driver/Src/stm32g4xx_hal_flash_ex.c ****         reg_value = ((PCROPStartAddr - bank2_addr) >> 3);
1081:Drivers/STM32G4xx_HAL_Driver/Src/stm32g4xx_hal_flash_ex.c ****         MODIFY_REG(FLASH->PCROP2SR, FLASH_PCROP2SR_PCROP2_STRT, reg_value);
1082:Drivers/STM32G4xx_HAL_Driver/Src/stm32g4xx_hal_flash_ex.c **** 
1083:Drivers/STM32G4xx_HAL_Driver/Src/stm32g4xx_hal_flash_ex.c ****         reg_value = ((PCROPEndAddr - bank2_addr) >> 3);
1084:Drivers/STM32G4xx_HAL_Driver/Src/stm32g4xx_hal_flash_ex.c ****         MODIFY_REG(FLASH->PCROP2ER, FLASH_PCROP2ER_PCROP2_END, reg_value);
1085:Drivers/STM32G4xx_HAL_Driver/Src/stm32g4xx_hal_flash_ex.c ****       }
1086:Drivers/STM32G4xx_HAL_Driver/Src/stm32g4xx_hal_flash_ex.c **** #endif
ARM GAS  /tmp/ccBOcut4.s 			page 33


1087:Drivers/STM32G4xx_HAL_Driver/Src/stm32g4xx_hal_flash_ex.c ****       else
1088:Drivers/STM32G4xx_HAL_Driver/Src/stm32g4xx_hal_flash_ex.c ****       {
1089:Drivers/STM32G4xx_HAL_Driver/Src/stm32g4xx_hal_flash_ex.c ****         /* Nothing to do */
1090:Drivers/STM32G4xx_HAL_Driver/Src/stm32g4xx_hal_flash_ex.c ****       }
 678              		.loc 1 1090 7 is_stmt 1 view .LVU267
1091:Drivers/STM32G4xx_HAL_Driver/Src/stm32g4xx_hal_flash_ex.c ****     }
1092:Drivers/STM32G4xx_HAL_Driver/Src/stm32g4xx_hal_flash_ex.c **** 
1093:Drivers/STM32G4xx_HAL_Driver/Src/stm32g4xx_hal_flash_ex.c ****     MODIFY_REG(FLASH->PCROP1ER, FLASH_PCROP1ER_PCROP_RDP, (PCROPConfig & FLASH_PCROP1ER_PCROP_RDP))
 679              		.loc 1 1093 5 view .LVU268
 680 024a 204A     		ldr	r2, .L51+4
 681 024c 936A     		ldr	r3, [r2, #40]
 682 024e 23F00043 		bic	r3, r3, #-2147483648
 683 0252 08F00048 		and	r8, r8, #-2147483648
 684              	.LVL79:
 685              		.loc 1 1093 5 is_stmt 0 view .LVU269
 686 0256 43EA0803 		orr	r3, r3, r8
 687 025a 9362     		str	r3, [r2, #40]
1094:Drivers/STM32G4xx_HAL_Driver/Src/stm32g4xx_hal_flash_ex.c **** 
1095:Drivers/STM32G4xx_HAL_Driver/Src/stm32g4xx_hal_flash_ex.c ****     /* Set OPTSTRT Bit */
1096:Drivers/STM32G4xx_HAL_Driver/Src/stm32g4xx_hal_flash_ex.c ****     SET_BIT(FLASH->CR, FLASH_CR_OPTSTRT);
 688              		.loc 1 1096 5 is_stmt 1 view .LVU270
 689 025c 5369     		ldr	r3, [r2, #20]
 690 025e 43F40033 		orr	r3, r3, #131072
 691 0262 5361     		str	r3, [r2, #20]
1097:Drivers/STM32G4xx_HAL_Driver/Src/stm32g4xx_hal_flash_ex.c **** 
1098:Drivers/STM32G4xx_HAL_Driver/Src/stm32g4xx_hal_flash_ex.c ****     /* Wait for last operation to be completed */
1099:Drivers/STM32G4xx_HAL_Driver/Src/stm32g4xx_hal_flash_ex.c ****     status = FLASH_WaitForLastOperation((uint32_t)FLASH_TIMEOUT_VALUE);
 692              		.loc 1 1099 5 view .LVU271
 693              		.loc 1 1099 14 is_stmt 0 view .LVU272
 694 0264 4FF47A70 		mov	r0, #1000
 695              	.LVL80:
 696              		.loc 1 1099 14 view .LVU273
 697 0268 FFF7FEFF 		bl	FLASH_WaitForLastOperation
 698              	.LVL81:
1100:Drivers/STM32G4xx_HAL_Driver/Src/stm32g4xx_hal_flash_ex.c ****   }
1101:Drivers/STM32G4xx_HAL_Driver/Src/stm32g4xx_hal_flash_ex.c **** 
1102:Drivers/STM32G4xx_HAL_Driver/Src/stm32g4xx_hal_flash_ex.c ****   return status;
 699              		.loc 1 1102 3 is_stmt 1 view .LVU274
 700              		.loc 1 1102 3 is_stmt 0 view .LVU275
 701              	.LBE25:
 702              	.LBE24:
 360:Drivers/STM32G4xx_HAL_Driver/Src/stm32g4xx_hal_flash_ex.c ****       }
 703              		.loc 1 360 16 view .LVU276
 704 026c 0028     		cmp	r0, #0
 705 026e 18BF     		it	ne
 706 0270 0125     		movne	r5, #1
 707              	.LVL82:
 360:Drivers/STM32G4xx_HAL_Driver/Src/stm32g4xx_hal_flash_ex.c ****       }
 708              		.loc 1 360 16 view .LVU277
 709 0272 E8E6     		b	.L28
 710              	.LVL83:
 711              	.L38:
 360:Drivers/STM32G4xx_HAL_Driver/Src/stm32g4xx_hal_flash_ex.c ****       }
 712              		.loc 1 360 16 view .LVU278
 713 0274 0125     		movs	r5, #1
 714              	.LVL84:
 360:Drivers/STM32G4xx_HAL_Driver/Src/stm32g4xx_hal_flash_ex.c ****       }
ARM GAS  /tmp/ccBOcut4.s 			page 34


 715              		.loc 1 360 16 view .LVU279
 716 0276 E6E6     		b	.L28
 717              	.LVL85:
 718              	.L46:
 369:Drivers/STM32G4xx_HAL_Driver/Src/stm32g4xx_hal_flash_ex.c ****     {
 719              		.loc 1 369 5 is_stmt 1 view .LVU280
 369:Drivers/STM32G4xx_HAL_Driver/Src/stm32g4xx_hal_flash_ex.c ****     {
 720              		.loc 1 369 9 is_stmt 0 view .LVU281
 721 0278 E66A     		ldr	r6, [r4, #44]
 722 027a 276B     		ldr	r7, [r4, #48]
 723              	.LVL86:
 724              	.LBB26:
 725              	.LBI26:
1103:Drivers/STM32G4xx_HAL_Driver/Src/stm32g4xx_hal_flash_ex.c **** }
1104:Drivers/STM32G4xx_HAL_Driver/Src/stm32g4xx_hal_flash_ex.c **** 
1105:Drivers/STM32G4xx_HAL_Driver/Src/stm32g4xx_hal_flash_ex.c **** /**
1106:Drivers/STM32G4xx_HAL_Driver/Src/stm32g4xx_hal_flash_ex.c ****   * @brief  Configure the Securable memory area into Option Bytes.
1107:Drivers/STM32G4xx_HAL_Driver/Src/stm32g4xx_hal_flash_ex.c ****   * @note   To configure any option bytes, the option lock bit OPTLOCK must be
1108:Drivers/STM32G4xx_HAL_Driver/Src/stm32g4xx_hal_flash_ex.c ****   *         cleared with the call of HAL_FLASH_OB_Unlock() function.
1109:Drivers/STM32G4xx_HAL_Driver/Src/stm32g4xx_hal_flash_ex.c ****   * @note   New option bytes configuration will be taken into account in two cases:
1110:Drivers/STM32G4xx_HAL_Driver/Src/stm32g4xx_hal_flash_ex.c ****   *         - after an option bytes launch through the call of HAL_FLASH_OB_Launch()
1111:Drivers/STM32G4xx_HAL_Driver/Src/stm32g4xx_hal_flash_ex.c ****   *         - after a power reset (BOR reset or exit from Standby/Shutdown modes)
1112:Drivers/STM32G4xx_HAL_Driver/Src/stm32g4xx_hal_flash_ex.c ****   * @param  SecBank specifies bank of securable memory area to be configured.
1113:Drivers/STM32G4xx_HAL_Driver/Src/stm32g4xx_hal_flash_ex.c ****   *          This parameter can be one of the following values:
1114:Drivers/STM32G4xx_HAL_Driver/Src/stm32g4xx_hal_flash_ex.c ****   *            @arg FLASH_BANK_1: Securable memory in Bank1 to be configured
1115:Drivers/STM32G4xx_HAL_Driver/Src/stm32g4xx_hal_flash_ex.c ****   *            @arg FLASH_BANK_2: Securable memory in Bank2 to be configured (*)
1116:Drivers/STM32G4xx_HAL_Driver/Src/stm32g4xx_hal_flash_ex.c ****   * @note   (*) availability depends on devices
1117:Drivers/STM32G4xx_HAL_Driver/Src/stm32g4xx_hal_flash_ex.c ****   * @param  SecSize specifies the number of pages of the Securable memory area,
1118:Drivers/STM32G4xx_HAL_Driver/Src/stm32g4xx_hal_flash_ex.c ****   *         starting from first page of the bank.
1119:Drivers/STM32G4xx_HAL_Driver/Src/stm32g4xx_hal_flash_ex.c ****   *         This parameter can be page number between 0 and (max number of pages in the bank - 1)
1120:Drivers/STM32G4xx_HAL_Driver/Src/stm32g4xx_hal_flash_ex.c ****   * @retval HAL Status
1121:Drivers/STM32G4xx_HAL_Driver/Src/stm32g4xx_hal_flash_ex.c ****   */
1122:Drivers/STM32G4xx_HAL_Driver/Src/stm32g4xx_hal_flash_ex.c **** static HAL_StatusTypeDef FLASH_OB_SecMemConfig(uint32_t SecBank, uint32_t SecSize)
 726              		.loc 1 1122 26 is_stmt 1 view .LVU282
 727              	.LBB27:
1123:Drivers/STM32G4xx_HAL_Driver/Src/stm32g4xx_hal_flash_ex.c **** {
1124:Drivers/STM32G4xx_HAL_Driver/Src/stm32g4xx_hal_flash_ex.c ****   HAL_StatusTypeDef status;
 728              		.loc 1 1124 3 view .LVU283
1125:Drivers/STM32G4xx_HAL_Driver/Src/stm32g4xx_hal_flash_ex.c **** 
1126:Drivers/STM32G4xx_HAL_Driver/Src/stm32g4xx_hal_flash_ex.c ****   /* Check the parameters */
1127:Drivers/STM32G4xx_HAL_Driver/Src/stm32g4xx_hal_flash_ex.c ****   assert_param(IS_FLASH_BANK_EXCLUSIVE(SecBank));
 729              		.loc 1 1127 3 view .LVU284
1128:Drivers/STM32G4xx_HAL_Driver/Src/stm32g4xx_hal_flash_ex.c ****   assert_param(IS_OB_SECMEM_SIZE(SecSize));
 730              		.loc 1 1128 3 view .LVU285
1129:Drivers/STM32G4xx_HAL_Driver/Src/stm32g4xx_hal_flash_ex.c **** 
1130:Drivers/STM32G4xx_HAL_Driver/Src/stm32g4xx_hal_flash_ex.c ****   /* Wait for last operation to be completed */
1131:Drivers/STM32G4xx_HAL_Driver/Src/stm32g4xx_hal_flash_ex.c ****   status = FLASH_WaitForLastOperation((uint32_t)FLASH_TIMEOUT_VALUE);
 731              		.loc 1 1131 3 view .LVU286
 732              		.loc 1 1131 12 is_stmt 0 view .LVU287
 733 027c 4FF47A70 		mov	r0, #1000
 734 0280 FFF7FEFF 		bl	FLASH_WaitForLastOperation
 735              	.LVL87:
1132:Drivers/STM32G4xx_HAL_Driver/Src/stm32g4xx_hal_flash_ex.c **** 
1133:Drivers/STM32G4xx_HAL_Driver/Src/stm32g4xx_hal_flash_ex.c ****   if (status == HAL_OK)
 736              		.loc 1 1133 3 is_stmt 1 view .LVU288
 737              		.loc 1 1133 6 is_stmt 0 view .LVU289
 738 0284 A8B9     		cbnz	r0, .L39
ARM GAS  /tmp/ccBOcut4.s 			page 35


1134:Drivers/STM32G4xx_HAL_Driver/Src/stm32g4xx_hal_flash_ex.c ****   {
1135:Drivers/STM32G4xx_HAL_Driver/Src/stm32g4xx_hal_flash_ex.c ****     /* Configure the write protected area */
1136:Drivers/STM32G4xx_HAL_Driver/Src/stm32g4xx_hal_flash_ex.c ****     if (SecBank == FLASH_BANK_1)
 739              		.loc 1 1136 5 is_stmt 1 view .LVU290
 740              		.loc 1 1136 8 is_stmt 0 view .LVU291
 741 0286 012E     		cmp	r6, #1
 742 0288 0CD0     		beq	.L49
 743              	.LVL88:
 744              	.L31:
1137:Drivers/STM32G4xx_HAL_Driver/Src/stm32g4xx_hal_flash_ex.c ****     {
1138:Drivers/STM32G4xx_HAL_Driver/Src/stm32g4xx_hal_flash_ex.c ****       MODIFY_REG(FLASH->SEC1R, FLASH_SEC1R_SEC_SIZE1, SecSize);
1139:Drivers/STM32G4xx_HAL_Driver/Src/stm32g4xx_hal_flash_ex.c ****     }
1140:Drivers/STM32G4xx_HAL_Driver/Src/stm32g4xx_hal_flash_ex.c **** #if defined (FLASH_OPTR_DBANK)
1141:Drivers/STM32G4xx_HAL_Driver/Src/stm32g4xx_hal_flash_ex.c ****     else if (SecBank == FLASH_BANK_2)
1142:Drivers/STM32G4xx_HAL_Driver/Src/stm32g4xx_hal_flash_ex.c ****     {
1143:Drivers/STM32G4xx_HAL_Driver/Src/stm32g4xx_hal_flash_ex.c ****       MODIFY_REG(FLASH->SEC2R, FLASH_SEC2R_SEC_SIZE2, SecSize);
1144:Drivers/STM32G4xx_HAL_Driver/Src/stm32g4xx_hal_flash_ex.c ****     }
1145:Drivers/STM32G4xx_HAL_Driver/Src/stm32g4xx_hal_flash_ex.c ****     else
1146:Drivers/STM32G4xx_HAL_Driver/Src/stm32g4xx_hal_flash_ex.c ****     {
1147:Drivers/STM32G4xx_HAL_Driver/Src/stm32g4xx_hal_flash_ex.c ****       /* Nothing to do */
1148:Drivers/STM32G4xx_HAL_Driver/Src/stm32g4xx_hal_flash_ex.c ****     }
1149:Drivers/STM32G4xx_HAL_Driver/Src/stm32g4xx_hal_flash_ex.c **** #endif
1150:Drivers/STM32G4xx_HAL_Driver/Src/stm32g4xx_hal_flash_ex.c **** 
1151:Drivers/STM32G4xx_HAL_Driver/Src/stm32g4xx_hal_flash_ex.c ****     /* Set OPTSTRT Bit */
1152:Drivers/STM32G4xx_HAL_Driver/Src/stm32g4xx_hal_flash_ex.c ****     SET_BIT(FLASH->CR, FLASH_CR_OPTSTRT);
 745              		.loc 1 1152 5 is_stmt 1 view .LVU292
 746 028a 104A     		ldr	r2, .L51+4
 747 028c 5369     		ldr	r3, [r2, #20]
 748 028e 43F40033 		orr	r3, r3, #131072
 749 0292 5361     		str	r3, [r2, #20]
1153:Drivers/STM32G4xx_HAL_Driver/Src/stm32g4xx_hal_flash_ex.c **** 
1154:Drivers/STM32G4xx_HAL_Driver/Src/stm32g4xx_hal_flash_ex.c ****     /* Wait for last operation to be completed */
1155:Drivers/STM32G4xx_HAL_Driver/Src/stm32g4xx_hal_flash_ex.c ****     status = FLASH_WaitForLastOperation((uint32_t)FLASH_TIMEOUT_VALUE);
 750              		.loc 1 1155 5 view .LVU293
 751              		.loc 1 1155 14 is_stmt 0 view .LVU294
 752 0294 4FF47A70 		mov	r0, #1000
 753              	.LVL89:
 754              		.loc 1 1155 14 view .LVU295
 755 0298 FFF7FEFF 		bl	FLASH_WaitForLastOperation
 756              	.LVL90:
1156:Drivers/STM32G4xx_HAL_Driver/Src/stm32g4xx_hal_flash_ex.c ****   }
1157:Drivers/STM32G4xx_HAL_Driver/Src/stm32g4xx_hal_flash_ex.c **** 
1158:Drivers/STM32G4xx_HAL_Driver/Src/stm32g4xx_hal_flash_ex.c ****   return status;
 757              		.loc 1 1158 3 is_stmt 1 view .LVU296
 758              		.loc 1 1158 3 is_stmt 0 view .LVU297
 759              	.LBE27:
 760              	.LBE26:
 371:Drivers/STM32G4xx_HAL_Driver/Src/stm32g4xx_hal_flash_ex.c ****     }
 761              		.loc 1 371 14 view .LVU298
 762 029c 0028     		cmp	r0, #0
 763 029e 18BF     		it	ne
 764 02a0 0125     		movne	r5, #1
 765              	.LVL91:
 371:Drivers/STM32G4xx_HAL_Driver/Src/stm32g4xx_hal_flash_ex.c ****     }
 766              		.loc 1 371 14 view .LVU299
 767 02a2 D5E6     		b	.L30
 768              	.LVL92:
ARM GAS  /tmp/ccBOcut4.s 			page 36


 769              	.L49:
 770              	.LBB29:
 771              	.LBB28:
1138:Drivers/STM32G4xx_HAL_Driver/Src/stm32g4xx_hal_flash_ex.c ****     }
 772              		.loc 1 1138 7 is_stmt 1 view .LVU300
 773 02a4 094A     		ldr	r2, .L51+4
 774 02a6 136F     		ldr	r3, [r2, #112]
 775 02a8 23F07F03 		bic	r3, r3, #127
 776 02ac 1F43     		orrs	r7, r7, r3
 777              	.LVL93:
1138:Drivers/STM32G4xx_HAL_Driver/Src/stm32g4xx_hal_flash_ex.c ****     }
 778              		.loc 1 1138 7 is_stmt 0 view .LVU301
 779 02ae 1767     		str	r7, [r2, #112]
 780 02b0 EBE7     		b	.L31
 781              	.LVL94:
 782              	.L39:
1138:Drivers/STM32G4xx_HAL_Driver/Src/stm32g4xx_hal_flash_ex.c ****     }
 783              		.loc 1 1138 7 view .LVU302
 784              	.LBE28:
 785              	.LBE29:
 371:Drivers/STM32G4xx_HAL_Driver/Src/stm32g4xx_hal_flash_ex.c ****     }
 786              		.loc 1 371 14 view .LVU303
 787 02b2 0125     		movs	r5, #1
 788              	.LVL95:
 371:Drivers/STM32G4xx_HAL_Driver/Src/stm32g4xx_hal_flash_ex.c ****     }
 789              		.loc 1 371 14 view .LVU304
 790 02b4 CCE6     		b	.L30
 791              	.LVL96:
 792              	.L47:
 379:Drivers/STM32G4xx_HAL_Driver/Src/stm32g4xx_hal_flash_ex.c ****     {
 793              		.loc 1 379 5 is_stmt 1 view .LVU305
 379:Drivers/STM32G4xx_HAL_Driver/Src/stm32g4xx_hal_flash_ex.c ****     {
 794              		.loc 1 379 9 is_stmt 0 view .LVU306
 795 02b6 A46A     		ldr	r4, [r4, #40]
 796              	.LVL97:
 797              	.LBB30:
 798              	.LBI30:
1159:Drivers/STM32G4xx_HAL_Driver/Src/stm32g4xx_hal_flash_ex.c **** }
1160:Drivers/STM32G4xx_HAL_Driver/Src/stm32g4xx_hal_flash_ex.c **** 
1161:Drivers/STM32G4xx_HAL_Driver/Src/stm32g4xx_hal_flash_ex.c **** /**
1162:Drivers/STM32G4xx_HAL_Driver/Src/stm32g4xx_hal_flash_ex.c ****   * @brief  Configure the Boot Lock into Option Bytes.
1163:Drivers/STM32G4xx_HAL_Driver/Src/stm32g4xx_hal_flash_ex.c ****   * @note   To configure any option bytes, the option lock bit OPTLOCK must be
1164:Drivers/STM32G4xx_HAL_Driver/Src/stm32g4xx_hal_flash_ex.c ****   *         cleared with the call of HAL_FLASH_OB_Unlock() function.
1165:Drivers/STM32G4xx_HAL_Driver/Src/stm32g4xx_hal_flash_ex.c ****   * @note   New option bytes configuration will be taken into account in two cases:
1166:Drivers/STM32G4xx_HAL_Driver/Src/stm32g4xx_hal_flash_ex.c ****   *         - after an option bytes launch through the call of HAL_FLASH_OB_Launch()
1167:Drivers/STM32G4xx_HAL_Driver/Src/stm32g4xx_hal_flash_ex.c ****   *         - after a power reset (BOR reset or exit from Standby/Shutdown modes)
1168:Drivers/STM32G4xx_HAL_Driver/Src/stm32g4xx_hal_flash_ex.c ****   * @param  BootLockConfig specifies the boot lock configuration.
1169:Drivers/STM32G4xx_HAL_Driver/Src/stm32g4xx_hal_flash_ex.c ****   *          This parameter can be one of the following values:
1170:Drivers/STM32G4xx_HAL_Driver/Src/stm32g4xx_hal_flash_ex.c ****   *            @arg OB_BOOT_LOCK_ENABLE: Enable Boot Lock
1171:Drivers/STM32G4xx_HAL_Driver/Src/stm32g4xx_hal_flash_ex.c ****   *            @arg OB_BOOT_LOCK_DISABLE: Disable Boot Lock
1172:Drivers/STM32G4xx_HAL_Driver/Src/stm32g4xx_hal_flash_ex.c ****   *
1173:Drivers/STM32G4xx_HAL_Driver/Src/stm32g4xx_hal_flash_ex.c ****   * @retval HAL_Status
1174:Drivers/STM32G4xx_HAL_Driver/Src/stm32g4xx_hal_flash_ex.c ****   */
1175:Drivers/STM32G4xx_HAL_Driver/Src/stm32g4xx_hal_flash_ex.c **** static HAL_StatusTypeDef FLASH_OB_BootLockConfig(uint32_t BootLockConfig)
 799              		.loc 1 1175 26 is_stmt 1 view .LVU307
 800              	.LBB31:
1176:Drivers/STM32G4xx_HAL_Driver/Src/stm32g4xx_hal_flash_ex.c **** {
ARM GAS  /tmp/ccBOcut4.s 			page 37


1177:Drivers/STM32G4xx_HAL_Driver/Src/stm32g4xx_hal_flash_ex.c ****   HAL_StatusTypeDef status;
 801              		.loc 1 1177 3 view .LVU308
1178:Drivers/STM32G4xx_HAL_Driver/Src/stm32g4xx_hal_flash_ex.c **** 
1179:Drivers/STM32G4xx_HAL_Driver/Src/stm32g4xx_hal_flash_ex.c ****   /* Check the parameters */
1180:Drivers/STM32G4xx_HAL_Driver/Src/stm32g4xx_hal_flash_ex.c ****   assert_param(IS_OB_BOOT_LOCK(BootLockConfig));
 802              		.loc 1 1180 3 view .LVU309
1181:Drivers/STM32G4xx_HAL_Driver/Src/stm32g4xx_hal_flash_ex.c **** 
1182:Drivers/STM32G4xx_HAL_Driver/Src/stm32g4xx_hal_flash_ex.c ****   /* Wait for last operation to be completed */
1183:Drivers/STM32G4xx_HAL_Driver/Src/stm32g4xx_hal_flash_ex.c ****   status = FLASH_WaitForLastOperation((uint32_t)FLASH_TIMEOUT_VALUE);
 803              		.loc 1 1183 3 view .LVU310
 804              		.loc 1 1183 12 is_stmt 0 view .LVU311
 805 02b8 4FF47A70 		mov	r0, #1000
 806 02bc FFF7FEFF 		bl	FLASH_WaitForLastOperation
 807              	.LVL98:
1184:Drivers/STM32G4xx_HAL_Driver/Src/stm32g4xx_hal_flash_ex.c **** 
1185:Drivers/STM32G4xx_HAL_Driver/Src/stm32g4xx_hal_flash_ex.c ****   if (status == HAL_OK)
 808              		.loc 1 1185 3 is_stmt 1 view .LVU312
 809              		.loc 1 1185 6 is_stmt 0 view .LVU313
 810 02c0 30B1     		cbz	r0, .L50
 811              	.LBE31:
 812              	.LBE30:
 381:Drivers/STM32G4xx_HAL_Driver/Src/stm32g4xx_hal_flash_ex.c ****     }
 813              		.loc 1 381 14 view .LVU314
 814 02c2 0125     		movs	r5, #1
 815              	.LVL99:
 381:Drivers/STM32G4xx_HAL_Driver/Src/stm32g4xx_hal_flash_ex.c ****     }
 816              		.loc 1 381 14 view .LVU315
 817 02c4 C9E6     		b	.L32
 818              	.L52:
 819 02c6 00BF     		.align	2
 820              	.L51:
 821 02c8 00000000 		.word	pFlash
 822 02cc 00200240 		.word	1073881088
 823              	.LVL100:
 824              	.L50:
 825              	.LBB33:
 826              	.LBB32:
1186:Drivers/STM32G4xx_HAL_Driver/Src/stm32g4xx_hal_flash_ex.c ****   {
1187:Drivers/STM32G4xx_HAL_Driver/Src/stm32g4xx_hal_flash_ex.c ****     MODIFY_REG(FLASH->SEC1R, FLASH_SEC1R_BOOT_LOCK, BootLockConfig);
 827              		.loc 1 1187 5 is_stmt 1 view .LVU316
 828 02d0 094A     		ldr	r2, .L53
 829 02d2 136F     		ldr	r3, [r2, #112]
 830 02d4 23F48033 		bic	r3, r3, #65536
 831 02d8 2343     		orrs	r3, r3, r4
 832 02da 1367     		str	r3, [r2, #112]
1188:Drivers/STM32G4xx_HAL_Driver/Src/stm32g4xx_hal_flash_ex.c **** 
1189:Drivers/STM32G4xx_HAL_Driver/Src/stm32g4xx_hal_flash_ex.c ****     /* Set OPTSTRT Bit */
1190:Drivers/STM32G4xx_HAL_Driver/Src/stm32g4xx_hal_flash_ex.c ****     SET_BIT(FLASH->CR, FLASH_CR_OPTSTRT);
 833              		.loc 1 1190 5 view .LVU317
 834 02dc 5369     		ldr	r3, [r2, #20]
 835 02de 43F40033 		orr	r3, r3, #131072
 836 02e2 5361     		str	r3, [r2, #20]
1191:Drivers/STM32G4xx_HAL_Driver/Src/stm32g4xx_hal_flash_ex.c **** 
1192:Drivers/STM32G4xx_HAL_Driver/Src/stm32g4xx_hal_flash_ex.c ****     /* Wait for last operation to be completed */
1193:Drivers/STM32G4xx_HAL_Driver/Src/stm32g4xx_hal_flash_ex.c ****     status = FLASH_WaitForLastOperation((uint32_t)FLASH_TIMEOUT_VALUE);
 837              		.loc 1 1193 5 view .LVU318
 838              		.loc 1 1193 14 is_stmt 0 view .LVU319
ARM GAS  /tmp/ccBOcut4.s 			page 38


 839 02e4 4FF47A70 		mov	r0, #1000
 840              	.LVL101:
 841              		.loc 1 1193 14 view .LVU320
 842 02e8 FFF7FEFF 		bl	FLASH_WaitForLastOperation
 843              	.LVL102:
1194:Drivers/STM32G4xx_HAL_Driver/Src/stm32g4xx_hal_flash_ex.c ****   }
1195:Drivers/STM32G4xx_HAL_Driver/Src/stm32g4xx_hal_flash_ex.c **** 
1196:Drivers/STM32G4xx_HAL_Driver/Src/stm32g4xx_hal_flash_ex.c ****   return status;
 844              		.loc 1 1196 3 is_stmt 1 view .LVU321
 845              		.loc 1 1196 3 is_stmt 0 view .LVU322
 846              	.LBE32:
 847              	.LBE33:
 381:Drivers/STM32G4xx_HAL_Driver/Src/stm32g4xx_hal_flash_ex.c ****     }
 848              		.loc 1 381 14 view .LVU323
 849 02ec 0028     		cmp	r0, #0
 850 02ee 18BF     		it	ne
 851 02f0 0125     		movne	r5, #1
 852              	.LVL103:
 381:Drivers/STM32G4xx_HAL_Driver/Src/stm32g4xx_hal_flash_ex.c ****     }
 853              		.loc 1 381 14 view .LVU324
 854 02f2 B2E6     		b	.L32
 855              	.LVL104:
 856              	.L33:
 318:Drivers/STM32G4xx_HAL_Driver/Src/stm32g4xx_hal_flash_ex.c **** 
 857              		.loc 1 318 3 view .LVU325
 858 02f4 0225     		movs	r5, #2
 859 02f6 B3E6     		b	.L6
 860              	.L54:
 861              		.align	2
 862              	.L53:
 863 02f8 00200240 		.word	1073881088
 864              		.cfi_endproc
 865              	.LFE134:
 867              		.section	.text.HAL_FLASHEx_OBGetConfig,"ax",%progbits
 868              		.align	1
 869              		.global	HAL_FLASHEx_OBGetConfig
 870              		.syntax unified
 871              		.thumb
 872              		.thumb_func
 873              		.fpu fpv4-sp-d16
 875              	HAL_FLASHEx_OBGetConfig:
 876              	.LVL105:
 877              	.LFB135:
 400:Drivers/STM32G4xx_HAL_Driver/Src/stm32g4xx_hal_flash_ex.c ****   pOBInit->OptionType = (OPTIONBYTE_RDP | OPTIONBYTE_USER);
 878              		.loc 1 400 1 is_stmt 1 view -0
 879              		.cfi_startproc
 880              		@ args = 0, pretend = 0, frame = 0
 881              		@ frame_needed = 0, uses_anonymous_args = 0
 882              		@ link register save eliminated.
 401:Drivers/STM32G4xx_HAL_Driver/Src/stm32g4xx_hal_flash_ex.c **** 
 883              		.loc 1 401 3 view .LVU327
 401:Drivers/STM32G4xx_HAL_Driver/Src/stm32g4xx_hal_flash_ex.c **** 
 884              		.loc 1 401 23 is_stmt 0 view .LVU328
 885 0000 0623     		movs	r3, #6
 886 0002 0360     		str	r3, [r0]
 407:Drivers/STM32G4xx_HAL_Driver/Src/stm32g4xx_hal_flash_ex.c **** #endif
 887              		.loc 1 407 3 is_stmt 1 view .LVU329
ARM GAS  /tmp/ccBOcut4.s 			page 39


 407:Drivers/STM32G4xx_HAL_Driver/Src/stm32g4xx_hal_flash_ex.c **** #endif
 888              		.loc 1 407 15 is_stmt 0 view .LVU330
 889 0004 4368     		ldr	r3, [r0, #4]
 407:Drivers/STM32G4xx_HAL_Driver/Src/stm32g4xx_hal_flash_ex.c **** #endif
 890              		.loc 1 407 6 view .LVU331
 891 0006 012B     		cmp	r3, #1
 892 0008 1DD9     		bls	.L61
 893              	.L56:
 416:Drivers/STM32G4xx_HAL_Driver/Src/stm32g4xx_hal_flash_ex.c **** 
 894              		.loc 1 416 3 is_stmt 1 view .LVU332
 895              	.LBB46:
 896              	.LBI46:
1197:Drivers/STM32G4xx_HAL_Driver/Src/stm32g4xx_hal_flash_ex.c **** }
1198:Drivers/STM32G4xx_HAL_Driver/Src/stm32g4xx_hal_flash_ex.c **** 
1199:Drivers/STM32G4xx_HAL_Driver/Src/stm32g4xx_hal_flash_ex.c **** /**
1200:Drivers/STM32G4xx_HAL_Driver/Src/stm32g4xx_hal_flash_ex.c ****   * @brief  Return the Securable memory area configuration into Option Bytes.
1201:Drivers/STM32G4xx_HAL_Driver/Src/stm32g4xx_hal_flash_ex.c ****   * @param[in]  SecBank specifies the bank where securable memory area is located.
1202:Drivers/STM32G4xx_HAL_Driver/Src/stm32g4xx_hal_flash_ex.c ****   *          This parameter can be one of the following values:
1203:Drivers/STM32G4xx_HAL_Driver/Src/stm32g4xx_hal_flash_ex.c ****   *            @arg FLASH_BANK_1: Securable memory in Bank1
1204:Drivers/STM32G4xx_HAL_Driver/Src/stm32g4xx_hal_flash_ex.c ****   *            @arg FLASH_BANK_2: Securable memory in Bank2 (*)
1205:Drivers/STM32G4xx_HAL_Driver/Src/stm32g4xx_hal_flash_ex.c ****   * @note   (*) availability depends on devices
1206:Drivers/STM32G4xx_HAL_Driver/Src/stm32g4xx_hal_flash_ex.c ****   * @param[out]  SecSize specifies the number of pages used in the securable
1207:Drivers/STM32G4xx_HAL_Driver/Src/stm32g4xx_hal_flash_ex.c ****                  memory area of the bank.
1208:Drivers/STM32G4xx_HAL_Driver/Src/stm32g4xx_hal_flash_ex.c ****   * @retval None
1209:Drivers/STM32G4xx_HAL_Driver/Src/stm32g4xx_hal_flash_ex.c ****   */
1210:Drivers/STM32G4xx_HAL_Driver/Src/stm32g4xx_hal_flash_ex.c **** static void FLASH_OB_GetSecMem(uint32_t SecBank, uint32_t *SecSize)
1211:Drivers/STM32G4xx_HAL_Driver/Src/stm32g4xx_hal_flash_ex.c **** {
1212:Drivers/STM32G4xx_HAL_Driver/Src/stm32g4xx_hal_flash_ex.c ****   /* Get the configuration of the securable memory area */
1213:Drivers/STM32G4xx_HAL_Driver/Src/stm32g4xx_hal_flash_ex.c ****   if (SecBank == FLASH_BANK_1)
1214:Drivers/STM32G4xx_HAL_Driver/Src/stm32g4xx_hal_flash_ex.c ****   {
1215:Drivers/STM32G4xx_HAL_Driver/Src/stm32g4xx_hal_flash_ex.c ****     *SecSize = READ_BIT(FLASH->SEC1R, FLASH_SEC1R_SEC_SIZE1);
1216:Drivers/STM32G4xx_HAL_Driver/Src/stm32g4xx_hal_flash_ex.c ****   }
1217:Drivers/STM32G4xx_HAL_Driver/Src/stm32g4xx_hal_flash_ex.c **** #if defined (FLASH_OPTR_DBANK)
1218:Drivers/STM32G4xx_HAL_Driver/Src/stm32g4xx_hal_flash_ex.c ****   else if (SecBank == FLASH_BANK_2)
1219:Drivers/STM32G4xx_HAL_Driver/Src/stm32g4xx_hal_flash_ex.c ****   {
1220:Drivers/STM32G4xx_HAL_Driver/Src/stm32g4xx_hal_flash_ex.c ****     *SecSize = READ_BIT(FLASH->SEC2R, FLASH_SEC2R_SEC_SIZE2);
1221:Drivers/STM32G4xx_HAL_Driver/Src/stm32g4xx_hal_flash_ex.c ****   }
1222:Drivers/STM32G4xx_HAL_Driver/Src/stm32g4xx_hal_flash_ex.c ****   else
1223:Drivers/STM32G4xx_HAL_Driver/Src/stm32g4xx_hal_flash_ex.c ****   {
1224:Drivers/STM32G4xx_HAL_Driver/Src/stm32g4xx_hal_flash_ex.c ****     /* Nothing to do */
1225:Drivers/STM32G4xx_HAL_Driver/Src/stm32g4xx_hal_flash_ex.c ****   }
1226:Drivers/STM32G4xx_HAL_Driver/Src/stm32g4xx_hal_flash_ex.c **** #endif
1227:Drivers/STM32G4xx_HAL_Driver/Src/stm32g4xx_hal_flash_ex.c **** }
1228:Drivers/STM32G4xx_HAL_Driver/Src/stm32g4xx_hal_flash_ex.c **** 
1229:Drivers/STM32G4xx_HAL_Driver/Src/stm32g4xx_hal_flash_ex.c **** /**
1230:Drivers/STM32G4xx_HAL_Driver/Src/stm32g4xx_hal_flash_ex.c ****   * @brief  Return the Boot Lock configuration into Option Byte.
1231:Drivers/STM32G4xx_HAL_Driver/Src/stm32g4xx_hal_flash_ex.c ****   * @retval BootLockConfig.
1232:Drivers/STM32G4xx_HAL_Driver/Src/stm32g4xx_hal_flash_ex.c ****   *         This return value can be one of the following values:
1233:Drivers/STM32G4xx_HAL_Driver/Src/stm32g4xx_hal_flash_ex.c ****   *            @arg OB_BOOT_LOCK_ENABLE: Boot lock enabled
1234:Drivers/STM32G4xx_HAL_Driver/Src/stm32g4xx_hal_flash_ex.c ****   *            @arg OB_BOOT_LOCK_DISABLE: Boot lock disabled
1235:Drivers/STM32G4xx_HAL_Driver/Src/stm32g4xx_hal_flash_ex.c ****   */
1236:Drivers/STM32G4xx_HAL_Driver/Src/stm32g4xx_hal_flash_ex.c **** static uint32_t FLASH_OB_GetBootLock(void)
1237:Drivers/STM32G4xx_HAL_Driver/Src/stm32g4xx_hal_flash_ex.c **** {
1238:Drivers/STM32G4xx_HAL_Driver/Src/stm32g4xx_hal_flash_ex.c ****   return (READ_REG(FLASH->SEC1R) & FLASH_SEC1R_BOOT_LOCK);
1239:Drivers/STM32G4xx_HAL_Driver/Src/stm32g4xx_hal_flash_ex.c **** }
1240:Drivers/STM32G4xx_HAL_Driver/Src/stm32g4xx_hal_flash_ex.c **** 
1241:Drivers/STM32G4xx_HAL_Driver/Src/stm32g4xx_hal_flash_ex.c **** /**
ARM GAS  /tmp/ccBOcut4.s 			page 40


1242:Drivers/STM32G4xx_HAL_Driver/Src/stm32g4xx_hal_flash_ex.c ****   * @brief  Return the Write Protection configuration into Option Bytes.
1243:Drivers/STM32G4xx_HAL_Driver/Src/stm32g4xx_hal_flash_ex.c ****   * @param[in]  WRPArea specifies the area to be returned.
1244:Drivers/STM32G4xx_HAL_Driver/Src/stm32g4xx_hal_flash_ex.c ****   *          This parameter can be one of the following values:
1245:Drivers/STM32G4xx_HAL_Driver/Src/stm32g4xx_hal_flash_ex.c ****   *            @arg OB_WRPAREA_BANK1_AREAA: Flash Bank 1 Area A
1246:Drivers/STM32G4xx_HAL_Driver/Src/stm32g4xx_hal_flash_ex.c ****   *            @arg OB_WRPAREA_BANK1_AREAB: Flash Bank 1 Area B
1247:Drivers/STM32G4xx_HAL_Driver/Src/stm32g4xx_hal_flash_ex.c ****   *            @arg OB_WRPAREA_BANK2_AREAA: Flash Bank 2 Area A (don't apply to STM32G43x/STM32G44x
1248:Drivers/STM32G4xx_HAL_Driver/Src/stm32g4xx_hal_flash_ex.c ****   *            @arg OB_WRPAREA_BANK2_AREAB: Flash Bank 2 Area B (don't apply to STM32G43x/STM32G44x
1249:Drivers/STM32G4xx_HAL_Driver/Src/stm32g4xx_hal_flash_ex.c ****   * @param[out]  WRPStartOffset specifies the address where to copied the start page
1250:Drivers/STM32G4xx_HAL_Driver/Src/stm32g4xx_hal_flash_ex.c ****   *              of the write protected area.
1251:Drivers/STM32G4xx_HAL_Driver/Src/stm32g4xx_hal_flash_ex.c ****   * @param[out]  WRDPEndOffset specifies the address where to copied the end page of
1252:Drivers/STM32G4xx_HAL_Driver/Src/stm32g4xx_hal_flash_ex.c ****   *              the write protected area.
1253:Drivers/STM32G4xx_HAL_Driver/Src/stm32g4xx_hal_flash_ex.c ****   * @retval None
1254:Drivers/STM32G4xx_HAL_Driver/Src/stm32g4xx_hal_flash_ex.c ****   */
1255:Drivers/STM32G4xx_HAL_Driver/Src/stm32g4xx_hal_flash_ex.c **** static void FLASH_OB_GetWRP(uint32_t WRPArea, uint32_t *WRPStartOffset, uint32_t *WRDPEndOffset)
1256:Drivers/STM32G4xx_HAL_Driver/Src/stm32g4xx_hal_flash_ex.c **** {
1257:Drivers/STM32G4xx_HAL_Driver/Src/stm32g4xx_hal_flash_ex.c ****   /* Get the configuration of the write protected area */
1258:Drivers/STM32G4xx_HAL_Driver/Src/stm32g4xx_hal_flash_ex.c ****   if (WRPArea == OB_WRPAREA_BANK1_AREAA)
1259:Drivers/STM32G4xx_HAL_Driver/Src/stm32g4xx_hal_flash_ex.c ****   {
1260:Drivers/STM32G4xx_HAL_Driver/Src/stm32g4xx_hal_flash_ex.c ****     *WRPStartOffset = READ_BIT(FLASH->WRP1AR, FLASH_WRP1AR_WRP1A_STRT);
1261:Drivers/STM32G4xx_HAL_Driver/Src/stm32g4xx_hal_flash_ex.c ****     *WRDPEndOffset = (READ_BIT(FLASH->WRP1AR, FLASH_WRP1AR_WRP1A_END) >> FLASH_WRP1AR_WRP1A_END_Pos
1262:Drivers/STM32G4xx_HAL_Driver/Src/stm32g4xx_hal_flash_ex.c ****   }
1263:Drivers/STM32G4xx_HAL_Driver/Src/stm32g4xx_hal_flash_ex.c ****   else if (WRPArea == OB_WRPAREA_BANK1_AREAB)
1264:Drivers/STM32G4xx_HAL_Driver/Src/stm32g4xx_hal_flash_ex.c ****   {
1265:Drivers/STM32G4xx_HAL_Driver/Src/stm32g4xx_hal_flash_ex.c ****     *WRPStartOffset = READ_BIT(FLASH->WRP1BR, FLASH_WRP1BR_WRP1B_STRT);
1266:Drivers/STM32G4xx_HAL_Driver/Src/stm32g4xx_hal_flash_ex.c ****     *WRDPEndOffset = (READ_BIT(FLASH->WRP1BR, FLASH_WRP1BR_WRP1B_END) >> FLASH_WRP1BR_WRP1B_END_Pos
1267:Drivers/STM32G4xx_HAL_Driver/Src/stm32g4xx_hal_flash_ex.c ****   }
1268:Drivers/STM32G4xx_HAL_Driver/Src/stm32g4xx_hal_flash_ex.c **** #if defined (FLASH_OPTR_DBANK)
1269:Drivers/STM32G4xx_HAL_Driver/Src/stm32g4xx_hal_flash_ex.c ****   else if (WRPArea == OB_WRPAREA_BANK2_AREAA)
1270:Drivers/STM32G4xx_HAL_Driver/Src/stm32g4xx_hal_flash_ex.c ****   {
1271:Drivers/STM32G4xx_HAL_Driver/Src/stm32g4xx_hal_flash_ex.c ****     *WRPStartOffset = READ_BIT(FLASH->WRP2AR, FLASH_WRP2AR_WRP2A_STRT);
1272:Drivers/STM32G4xx_HAL_Driver/Src/stm32g4xx_hal_flash_ex.c ****     *WRDPEndOffset = (READ_BIT(FLASH->WRP2AR, FLASH_WRP2AR_WRP2A_END) >> FLASH_WRP2AR_WRP2A_END_Pos
1273:Drivers/STM32G4xx_HAL_Driver/Src/stm32g4xx_hal_flash_ex.c ****   }
1274:Drivers/STM32G4xx_HAL_Driver/Src/stm32g4xx_hal_flash_ex.c ****   else if (WRPArea == OB_WRPAREA_BANK2_AREAB)
1275:Drivers/STM32G4xx_HAL_Driver/Src/stm32g4xx_hal_flash_ex.c ****   {
1276:Drivers/STM32G4xx_HAL_Driver/Src/stm32g4xx_hal_flash_ex.c ****     *WRPStartOffset = READ_BIT(FLASH->WRP2BR, FLASH_WRP2BR_WRP2B_STRT);
1277:Drivers/STM32G4xx_HAL_Driver/Src/stm32g4xx_hal_flash_ex.c ****     *WRDPEndOffset = (READ_BIT(FLASH->WRP2BR, FLASH_WRP2BR_WRP2B_END) >> FLASH_WRP2BR_WRP2B_END_Pos
1278:Drivers/STM32G4xx_HAL_Driver/Src/stm32g4xx_hal_flash_ex.c ****   }
1279:Drivers/STM32G4xx_HAL_Driver/Src/stm32g4xx_hal_flash_ex.c **** #endif
1280:Drivers/STM32G4xx_HAL_Driver/Src/stm32g4xx_hal_flash_ex.c ****   else
1281:Drivers/STM32G4xx_HAL_Driver/Src/stm32g4xx_hal_flash_ex.c ****   {
1282:Drivers/STM32G4xx_HAL_Driver/Src/stm32g4xx_hal_flash_ex.c ****     /* Nothing to do */
1283:Drivers/STM32G4xx_HAL_Driver/Src/stm32g4xx_hal_flash_ex.c ****   }
1284:Drivers/STM32G4xx_HAL_Driver/Src/stm32g4xx_hal_flash_ex.c **** }
1285:Drivers/STM32G4xx_HAL_Driver/Src/stm32g4xx_hal_flash_ex.c **** 
1286:Drivers/STM32G4xx_HAL_Driver/Src/stm32g4xx_hal_flash_ex.c **** /**
1287:Drivers/STM32G4xx_HAL_Driver/Src/stm32g4xx_hal_flash_ex.c ****   * @brief  Return the FLASH Read Protection level into Option Bytes.
1288:Drivers/STM32G4xx_HAL_Driver/Src/stm32g4xx_hal_flash_ex.c ****   * @retval RDP_Level
1289:Drivers/STM32G4xx_HAL_Driver/Src/stm32g4xx_hal_flash_ex.c ****   *         This return value can be one of the following values:
1290:Drivers/STM32G4xx_HAL_Driver/Src/stm32g4xx_hal_flash_ex.c ****   *            @arg OB_RDP_LEVEL_0: No protection
1291:Drivers/STM32G4xx_HAL_Driver/Src/stm32g4xx_hal_flash_ex.c ****   *            @arg OB_RDP_LEVEL_1: Read protection of the memory
1292:Drivers/STM32G4xx_HAL_Driver/Src/stm32g4xx_hal_flash_ex.c ****   *            @arg OB_RDP_LEVEL_2: Full chip protection
1293:Drivers/STM32G4xx_HAL_Driver/Src/stm32g4xx_hal_flash_ex.c ****   */
1294:Drivers/STM32G4xx_HAL_Driver/Src/stm32g4xx_hal_flash_ex.c **** static uint32_t FLASH_OB_GetRDP(void)
 897              		.loc 1 1294 17 view .LVU333
 898              	.LBB47:
1295:Drivers/STM32G4xx_HAL_Driver/Src/stm32g4xx_hal_flash_ex.c **** {
1296:Drivers/STM32G4xx_HAL_Driver/Src/stm32g4xx_hal_flash_ex.c ****   uint32_t rdp_level = READ_BIT(FLASH->OPTR, FLASH_OPTR_RDP);
ARM GAS  /tmp/ccBOcut4.s 			page 41


 899              		.loc 1 1296 3 view .LVU334
 900              		.loc 1 1296 24 is_stmt 0 view .LVU335
 901 000a 2B4B     		ldr	r3, .L64
 902 000c 1B6A     		ldr	r3, [r3, #32]
 903              		.loc 1 1296 12 view .LVU336
 904 000e DBB2     		uxtb	r3, r3
 905              	.LVL106:
1297:Drivers/STM32G4xx_HAL_Driver/Src/stm32g4xx_hal_flash_ex.c **** 
1298:Drivers/STM32G4xx_HAL_Driver/Src/stm32g4xx_hal_flash_ex.c ****   if ((rdp_level != OB_RDP_LEVEL_0) && (rdp_level != OB_RDP_LEVEL_2))
 906              		.loc 1 1298 3 is_stmt 1 view .LVU337
 907              		.loc 1 1298 6 is_stmt 0 view .LVU338
 908 0010 AA2B     		cmp	r3, #170
 909 0012 02D0     		beq	.L58
1299:Drivers/STM32G4xx_HAL_Driver/Src/stm32g4xx_hal_flash_ex.c ****   {
1300:Drivers/STM32G4xx_HAL_Driver/Src/stm32g4xx_hal_flash_ex.c ****     return (OB_RDP_LEVEL_1);
 910              		.loc 1 1300 12 view .LVU339
 911 0014 CC2B     		cmp	r3, #204
 912 0016 18BF     		it	ne
 913 0018 BB23     		movne	r3, #187
 914              	.LVL107:
 915              	.L58:
 916              		.loc 1 1300 12 view .LVU340
 917              	.LBE47:
 918              	.LBE46:
 416:Drivers/STM32G4xx_HAL_Driver/Src/stm32g4xx_hal_flash_ex.c **** 
 919              		.loc 1 416 21 view .LVU341
 920 001a 0361     		str	r3, [r0, #16]
 419:Drivers/STM32G4xx_HAL_Driver/Src/stm32g4xx_hal_flash_ex.c **** 
 921              		.loc 1 419 3 is_stmt 1 view .LVU342
 922              	.LBB48:
 923              	.LBI48:
1301:Drivers/STM32G4xx_HAL_Driver/Src/stm32g4xx_hal_flash_ex.c ****   }
1302:Drivers/STM32G4xx_HAL_Driver/Src/stm32g4xx_hal_flash_ex.c ****   else
1303:Drivers/STM32G4xx_HAL_Driver/Src/stm32g4xx_hal_flash_ex.c ****   {
1304:Drivers/STM32G4xx_HAL_Driver/Src/stm32g4xx_hal_flash_ex.c ****     return rdp_level;
1305:Drivers/STM32G4xx_HAL_Driver/Src/stm32g4xx_hal_flash_ex.c ****   }
1306:Drivers/STM32G4xx_HAL_Driver/Src/stm32g4xx_hal_flash_ex.c **** }
1307:Drivers/STM32G4xx_HAL_Driver/Src/stm32g4xx_hal_flash_ex.c **** 
1308:Drivers/STM32G4xx_HAL_Driver/Src/stm32g4xx_hal_flash_ex.c **** /**
1309:Drivers/STM32G4xx_HAL_Driver/Src/stm32g4xx_hal_flash_ex.c ****   * @brief  Return the FLASH User Option Byte value.
1310:Drivers/STM32G4xx_HAL_Driver/Src/stm32g4xx_hal_flash_ex.c ****   * @retval OB_user_config
1311:Drivers/STM32G4xx_HAL_Driver/Src/stm32g4xx_hal_flash_ex.c ****   *         This return value is a combination of @ref FLASH_OB_USER_BOR_LEVEL,
1312:Drivers/STM32G4xx_HAL_Driver/Src/stm32g4xx_hal_flash_ex.c ****   *         @ref FLASH_OB_USER_nRST_STOP, @ref FLASH_OB_USER_nRST_STANDBY,
1313:Drivers/STM32G4xx_HAL_Driver/Src/stm32g4xx_hal_flash_ex.c ****   *         @ref FLASH_OB_USER_nRST_SHUTDOWN, @ref FLASH_OB_USER_IWDG_SW,
1314:Drivers/STM32G4xx_HAL_Driver/Src/stm32g4xx_hal_flash_ex.c ****   *         @ref FLASH_OB_USER_IWDG_STOP, @ref FLASH_OB_USER_IWDG_STANDBY,
1315:Drivers/STM32G4xx_HAL_Driver/Src/stm32g4xx_hal_flash_ex.c ****   *         @ref FLASH_OB_USER_WWDG_SW, @ref FLASH_OB_USER_WWDG_SW,
1316:Drivers/STM32G4xx_HAL_Driver/Src/stm32g4xx_hal_flash_ex.c ****   *         @ref FLASH_OB_USER_BFB2 (*), @ref FLASH_OB_USER_DBANK (*),
1317:Drivers/STM32G4xx_HAL_Driver/Src/stm32g4xx_hal_flash_ex.c ****   *         @ref FLASH_OB_USER_nBOOT1, @ref FLASH_OB_USER_SRAM_PE,
1318:Drivers/STM32G4xx_HAL_Driver/Src/stm32g4xx_hal_flash_ex.c ****   *         @ref FLASH_OB_USER_CCMSRAM_RST, @ref OB_USER_nSWBOOT0,@ref FLASH_OB_USER_nBOOT0,
1319:Drivers/STM32G4xx_HAL_Driver/Src/stm32g4xx_hal_flash_ex.c ****   *         @ref FLASH_OB_USER_NRST_MODE, @ref FLASH_OB_USER_INTERNAL_RESET_HOLDER
1320:Drivers/STM32G4xx_HAL_Driver/Src/stm32g4xx_hal_flash_ex.c ****   * @note  (*) availability depends on devices
1321:Drivers/STM32G4xx_HAL_Driver/Src/stm32g4xx_hal_flash_ex.c ****   */
1322:Drivers/STM32G4xx_HAL_Driver/Src/stm32g4xx_hal_flash_ex.c **** static uint32_t FLASH_OB_GetUser(void)
 924              		.loc 1 1322 17 view .LVU343
 925              	.LBB49:
1323:Drivers/STM32G4xx_HAL_Driver/Src/stm32g4xx_hal_flash_ex.c **** {
1324:Drivers/STM32G4xx_HAL_Driver/Src/stm32g4xx_hal_flash_ex.c ****   uint32_t user_config = READ_REG(FLASH->OPTR);
ARM GAS  /tmp/ccBOcut4.s 			page 42


 926              		.loc 1 1324 3 view .LVU344
 927              		.loc 1 1324 12 is_stmt 0 view .LVU345
 928 001c 264B     		ldr	r3, .L64
 929 001e 1B6A     		ldr	r3, [r3, #32]
 930              	.LVL108:
1325:Drivers/STM32G4xx_HAL_Driver/Src/stm32g4xx_hal_flash_ex.c ****   CLEAR_BIT(user_config, FLASH_OPTR_RDP);
 931              		.loc 1 1325 3 is_stmt 1 view .LVU346
1326:Drivers/STM32G4xx_HAL_Driver/Src/stm32g4xx_hal_flash_ex.c **** 
1327:Drivers/STM32G4xx_HAL_Driver/Src/stm32g4xx_hal_flash_ex.c ****   return user_config;
 932              		.loc 1 1327 3 view .LVU347
1325:Drivers/STM32G4xx_HAL_Driver/Src/stm32g4xx_hal_flash_ex.c ****   CLEAR_BIT(user_config, FLASH_OPTR_RDP);
 933              		.loc 1 1325 3 is_stmt 0 view .LVU348
 934 0020 23F0FF03 		bic	r3, r3, #255
 935              	.LBE49:
 936              	.LBE48:
 419:Drivers/STM32G4xx_HAL_Driver/Src/stm32g4xx_hal_flash_ex.c **** 
 937              		.loc 1 419 23 view .LVU349
 938 0024 8361     		str	r3, [r0, #24]
 424:Drivers/STM32G4xx_HAL_Driver/Src/stm32g4xx_hal_flash_ex.c **** #endif
 939              		.loc 1 424 3 is_stmt 1 view .LVU350
 424:Drivers/STM32G4xx_HAL_Driver/Src/stm32g4xx_hal_flash_ex.c **** #endif
 940              		.loc 1 424 6 is_stmt 0 view .LVU351
 941 0026 C369     		ldr	r3, [r0, #28]
 942 0028 012B     		cmp	r3, #1
 943 002a 23D0     		beq	.L62
 944              	.L59:
 432:Drivers/STM32G4xx_HAL_Driver/Src/stm32g4xx_hal_flash_ex.c **** 
 945              		.loc 1 432 3 is_stmt 1 view .LVU352
 432:Drivers/STM32G4xx_HAL_Driver/Src/stm32g4xx_hal_flash_ex.c **** 
 946              		.loc 1 432 23 is_stmt 0 view .LVU353
 947 002c 0268     		ldr	r2, [r0]
 948 002e 42F01003 		orr	r3, r2, #16
 949 0032 0360     		str	r3, [r0]
 435:Drivers/STM32G4xx_HAL_Driver/Src/stm32g4xx_hal_flash_ex.c **** 
 950              		.loc 1 435 3 is_stmt 1 view .LVU354
 951              	.LBB50:
 952              	.LBI50:
1236:Drivers/STM32G4xx_HAL_Driver/Src/stm32g4xx_hal_flash_ex.c **** {
 953              		.loc 1 1236 17 view .LVU355
 954              	.LBB51:
1238:Drivers/STM32G4xx_HAL_Driver/Src/stm32g4xx_hal_flash_ex.c **** }
 955              		.loc 1 1238 3 view .LVU356
1238:Drivers/STM32G4xx_HAL_Driver/Src/stm32g4xx_hal_flash_ex.c **** }
 956              		.loc 1 1238 11 is_stmt 0 view .LVU357
 957 0034 204B     		ldr	r3, .L64
 958 0036 1B6F     		ldr	r3, [r3, #112]
1238:Drivers/STM32G4xx_HAL_Driver/Src/stm32g4xx_hal_flash_ex.c **** }
 959              		.loc 1 1238 34 view .LVU358
 960 0038 03F48033 		and	r3, r3, #65536
 961              	.LBE51:
 962              	.LBE50:
 435:Drivers/STM32G4xx_HAL_Driver/Src/stm32g4xx_hal_flash_ex.c **** 
 963              		.loc 1 435 27 view .LVU359
 964 003c 8362     		str	r3, [r0, #40]
 441:Drivers/STM32G4xx_HAL_Driver/Src/stm32g4xx_hal_flash_ex.c **** #endif
 965              		.loc 1 441 3 is_stmt 1 view .LVU360
 441:Drivers/STM32G4xx_HAL_Driver/Src/stm32g4xx_hal_flash_ex.c **** #endif
ARM GAS  /tmp/ccBOcut4.s 			page 43


 966              		.loc 1 441 6 is_stmt 0 view .LVU361
 967 003e C36A     		ldr	r3, [r0, #44]
 968 0040 012B     		cmp	r3, #1
 969 0042 30D0     		beq	.L63
 970              	.L55:
 447:Drivers/STM32G4xx_HAL_Driver/Src/stm32g4xx_hal_flash_ex.c **** 
 971              		.loc 1 447 1 view .LVU362
 972 0044 7047     		bx	lr
 973              	.L61:
 410:Drivers/STM32G4xx_HAL_Driver/Src/stm32g4xx_hal_flash_ex.c ****     /* Get write protection on the selected area */
 974              		.loc 1 410 5 is_stmt 1 view .LVU363
 410:Drivers/STM32G4xx_HAL_Driver/Src/stm32g4xx_hal_flash_ex.c ****     /* Get write protection on the selected area */
 975              		.loc 1 410 25 is_stmt 0 view .LVU364
 976 0046 0722     		movs	r2, #7
 977 0048 0260     		str	r2, [r0]
 412:Drivers/STM32G4xx_HAL_Driver/Src/stm32g4xx_hal_flash_ex.c ****   }
 978              		.loc 1 412 5 is_stmt 1 view .LVU365
 979              	.LVL109:
 980              	.LBB52:
 981              	.LBI52:
1255:Drivers/STM32G4xx_HAL_Driver/Src/stm32g4xx_hal_flash_ex.c **** {
 982              		.loc 1 1255 13 view .LVU366
 983              	.LBB53:
1258:Drivers/STM32G4xx_HAL_Driver/Src/stm32g4xx_hal_flash_ex.c ****   {
 984              		.loc 1 1258 3 view .LVU367
1258:Drivers/STM32G4xx_HAL_Driver/Src/stm32g4xx_hal_flash_ex.c ****   {
 985              		.loc 1 1258 6 is_stmt 0 view .LVU368
 986 004a 4BB9     		cbnz	r3, .L57
1260:Drivers/STM32G4xx_HAL_Driver/Src/stm32g4xx_hal_flash_ex.c ****     *WRDPEndOffset = (READ_BIT(FLASH->WRP1AR, FLASH_WRP1AR_WRP1A_END) >> FLASH_WRP1AR_WRP1A_END_Pos
 987              		.loc 1 1260 5 is_stmt 1 view .LVU369
1260:Drivers/STM32G4xx_HAL_Driver/Src/stm32g4xx_hal_flash_ex.c ****     *WRDPEndOffset = (READ_BIT(FLASH->WRP1AR, FLASH_WRP1AR_WRP1A_END) >> FLASH_WRP1AR_WRP1A_END_Pos
 988              		.loc 1 1260 23 is_stmt 0 view .LVU370
 989 004c 1A4A     		ldr	r2, .L64
 990 004e D36A     		ldr	r3, [r2, #44]
 991              	.LVL110:
1260:Drivers/STM32G4xx_HAL_Driver/Src/stm32g4xx_hal_flash_ex.c ****     *WRDPEndOffset = (READ_BIT(FLASH->WRP1AR, FLASH_WRP1AR_WRP1A_END) >> FLASH_WRP1AR_WRP1A_END_Pos
 992              		.loc 1 1260 23 view .LVU371
 993 0050 03F03F03 		and	r3, r3, #63
1260:Drivers/STM32G4xx_HAL_Driver/Src/stm32g4xx_hal_flash_ex.c ****     *WRDPEndOffset = (READ_BIT(FLASH->WRP1AR, FLASH_WRP1AR_WRP1A_END) >> FLASH_WRP1AR_WRP1A_END_Pos
 994              		.loc 1 1260 21 view .LVU372
 995 0054 8360     		str	r3, [r0, #8]
1261:Drivers/STM32G4xx_HAL_Driver/Src/stm32g4xx_hal_flash_ex.c ****   }
 996              		.loc 1 1261 5 is_stmt 1 view .LVU373
1261:Drivers/STM32G4xx_HAL_Driver/Src/stm32g4xx_hal_flash_ex.c ****   }
 997              		.loc 1 1261 23 is_stmt 0 view .LVU374
 998 0056 D36A     		ldr	r3, [r2, #44]
1261:Drivers/STM32G4xx_HAL_Driver/Src/stm32g4xx_hal_flash_ex.c ****   }
 999              		.loc 1 1261 71 view .LVU375
 1000 0058 C3F30543 		ubfx	r3, r3, #16, #6
1261:Drivers/STM32G4xx_HAL_Driver/Src/stm32g4xx_hal_flash_ex.c ****   }
 1001              		.loc 1 1261 20 view .LVU376
 1002 005c C360     		str	r3, [r0, #12]
 1003 005e D4E7     		b	.L56
 1004              	.LVL111:
 1005              	.L57:
1263:Drivers/STM32G4xx_HAL_Driver/Src/stm32g4xx_hal_flash_ex.c ****   {
 1006              		.loc 1 1263 8 is_stmt 1 view .LVU377
ARM GAS  /tmp/ccBOcut4.s 			page 44


1265:Drivers/STM32G4xx_HAL_Driver/Src/stm32g4xx_hal_flash_ex.c ****     *WRDPEndOffset = (READ_BIT(FLASH->WRP1BR, FLASH_WRP1BR_WRP1B_END) >> FLASH_WRP1BR_WRP1B_END_Pos
 1007              		.loc 1 1265 5 view .LVU378
1265:Drivers/STM32G4xx_HAL_Driver/Src/stm32g4xx_hal_flash_ex.c ****     *WRDPEndOffset = (READ_BIT(FLASH->WRP1BR, FLASH_WRP1BR_WRP1B_END) >> FLASH_WRP1BR_WRP1B_END_Pos
 1008              		.loc 1 1265 23 is_stmt 0 view .LVU379
 1009 0060 154A     		ldr	r2, .L64
 1010 0062 136B     		ldr	r3, [r2, #48]
 1011              	.LVL112:
1265:Drivers/STM32G4xx_HAL_Driver/Src/stm32g4xx_hal_flash_ex.c ****     *WRDPEndOffset = (READ_BIT(FLASH->WRP1BR, FLASH_WRP1BR_WRP1B_END) >> FLASH_WRP1BR_WRP1B_END_Pos
 1012              		.loc 1 1265 23 view .LVU380
 1013 0064 03F03F03 		and	r3, r3, #63
1265:Drivers/STM32G4xx_HAL_Driver/Src/stm32g4xx_hal_flash_ex.c ****     *WRDPEndOffset = (READ_BIT(FLASH->WRP1BR, FLASH_WRP1BR_WRP1B_END) >> FLASH_WRP1BR_WRP1B_END_Pos
 1014              		.loc 1 1265 21 view .LVU381
 1015 0068 8360     		str	r3, [r0, #8]
1266:Drivers/STM32G4xx_HAL_Driver/Src/stm32g4xx_hal_flash_ex.c ****   }
 1016              		.loc 1 1266 5 is_stmt 1 view .LVU382
1266:Drivers/STM32G4xx_HAL_Driver/Src/stm32g4xx_hal_flash_ex.c ****   }
 1017              		.loc 1 1266 23 is_stmt 0 view .LVU383
 1018 006a 136B     		ldr	r3, [r2, #48]
1266:Drivers/STM32G4xx_HAL_Driver/Src/stm32g4xx_hal_flash_ex.c ****   }
 1019              		.loc 1 1266 71 view .LVU384
 1020 006c C3F30543 		ubfx	r3, r3, #16, #6
1266:Drivers/STM32G4xx_HAL_Driver/Src/stm32g4xx_hal_flash_ex.c ****   }
 1021              		.loc 1 1266 20 view .LVU385
 1022 0070 C360     		str	r3, [r0, #12]
 1023 0072 CAE7     		b	.L56
 1024              	.LVL113:
 1025              	.L62:
1266:Drivers/STM32G4xx_HAL_Driver/Src/stm32g4xx_hal_flash_ex.c ****   }
 1026              		.loc 1 1266 20 view .LVU386
 1027              	.LBE53:
 1028              	.LBE52:
 427:Drivers/STM32G4xx_HAL_Driver/Src/stm32g4xx_hal_flash_ex.c ****     /* Get the Proprietary code readout protection */
 1029              		.loc 1 427 5 is_stmt 1 view .LVU387
 427:Drivers/STM32G4xx_HAL_Driver/Src/stm32g4xx_hal_flash_ex.c ****     /* Get the Proprietary code readout protection */
 1030              		.loc 1 427 25 is_stmt 0 view .LVU388
 1031 0074 0368     		ldr	r3, [r0]
 1032 0076 43F00803 		orr	r3, r3, #8
 1033 007a 0360     		str	r3, [r0]
 429:Drivers/STM32G4xx_HAL_Driver/Src/stm32g4xx_hal_flash_ex.c ****   }
 1034              		.loc 1 429 5 is_stmt 1 view .LVU389
 1035              	.LVL114:
 1036              	.LBB54:
 1037              	.LBI54:
1328:Drivers/STM32G4xx_HAL_Driver/Src/stm32g4xx_hal_flash_ex.c **** }
1329:Drivers/STM32G4xx_HAL_Driver/Src/stm32g4xx_hal_flash_ex.c **** 
1330:Drivers/STM32G4xx_HAL_Driver/Src/stm32g4xx_hal_flash_ex.c **** /**
1331:Drivers/STM32G4xx_HAL_Driver/Src/stm32g4xx_hal_flash_ex.c ****   * @brief  Return the FLASH PCROP configuration into Option Bytes.
1332:Drivers/STM32G4xx_HAL_Driver/Src/stm32g4xx_hal_flash_ex.c ****   * @param[in,out] PCROPConfig specifies the configuration (Bank to be configured and PCROP_RDP opt
1333:Drivers/STM32G4xx_HAL_Driver/Src/stm32g4xx_hal_flash_ex.c ****   *        This parameter must be a combination of FLASH_BANK_1 or FLASH_BANK_2
1334:Drivers/STM32G4xx_HAL_Driver/Src/stm32g4xx_hal_flash_ex.c ****   *        with OB_PCROP_RDP_NOT_ERASE or OB_PCROP_RDP_ERASE.
1335:Drivers/STM32G4xx_HAL_Driver/Src/stm32g4xx_hal_flash_ex.c ****   * @param[out] PCROPStartAddr specifies the address where to copied the start address
1336:Drivers/STM32G4xx_HAL_Driver/Src/stm32g4xx_hal_flash_ex.c ****   *        of the Proprietary code readout protection.
1337:Drivers/STM32G4xx_HAL_Driver/Src/stm32g4xx_hal_flash_ex.c ****   * @param[out] PCROPEndAddr specifies the address where to copied the end address of
1338:Drivers/STM32G4xx_HAL_Driver/Src/stm32g4xx_hal_flash_ex.c ****   *        the Proprietary code readout protection.
1339:Drivers/STM32G4xx_HAL_Driver/Src/stm32g4xx_hal_flash_ex.c ****   * @retval None
1340:Drivers/STM32G4xx_HAL_Driver/Src/stm32g4xx_hal_flash_ex.c ****   */
1341:Drivers/STM32G4xx_HAL_Driver/Src/stm32g4xx_hal_flash_ex.c **** static void FLASH_OB_GetPCROP(uint32_t *PCROPConfig, uint32_t *PCROPStartAddr, uint32_t *PCROPEndAd
ARM GAS  /tmp/ccBOcut4.s 			page 45


 1038              		.loc 1 1341 13 view .LVU390
 1039              	.LBB55:
1342:Drivers/STM32G4xx_HAL_Driver/Src/stm32g4xx_hal_flash_ex.c **** {
1343:Drivers/STM32G4xx_HAL_Driver/Src/stm32g4xx_hal_flash_ex.c ****   uint32_t reg_value;
 1040              		.loc 1 1343 3 view .LVU391
1344:Drivers/STM32G4xx_HAL_Driver/Src/stm32g4xx_hal_flash_ex.c ****   uint32_t bank1_addr;
 1041              		.loc 1 1344 3 view .LVU392
1345:Drivers/STM32G4xx_HAL_Driver/Src/stm32g4xx_hal_flash_ex.c **** #if defined (FLASH_OPTR_DBANK)
1346:Drivers/STM32G4xx_HAL_Driver/Src/stm32g4xx_hal_flash_ex.c ****   uint32_t bank2_addr;
1347:Drivers/STM32G4xx_HAL_Driver/Src/stm32g4xx_hal_flash_ex.c **** 
1348:Drivers/STM32G4xx_HAL_Driver/Src/stm32g4xx_hal_flash_ex.c ****   /* Get the information about the bank swapping */
1349:Drivers/STM32G4xx_HAL_Driver/Src/stm32g4xx_hal_flash_ex.c ****   if (READ_BIT(SYSCFG->MEMRMP, SYSCFG_MEMRMP_FB_MODE) == 0U)
1350:Drivers/STM32G4xx_HAL_Driver/Src/stm32g4xx_hal_flash_ex.c ****   {
1351:Drivers/STM32G4xx_HAL_Driver/Src/stm32g4xx_hal_flash_ex.c ****     bank1_addr = FLASH_BASE;
1352:Drivers/STM32G4xx_HAL_Driver/Src/stm32g4xx_hal_flash_ex.c ****     bank2_addr = FLASH_BASE + FLASH_BANK_SIZE;
1353:Drivers/STM32G4xx_HAL_Driver/Src/stm32g4xx_hal_flash_ex.c ****   }
1354:Drivers/STM32G4xx_HAL_Driver/Src/stm32g4xx_hal_flash_ex.c ****   else
1355:Drivers/STM32G4xx_HAL_Driver/Src/stm32g4xx_hal_flash_ex.c ****   {
1356:Drivers/STM32G4xx_HAL_Driver/Src/stm32g4xx_hal_flash_ex.c ****     bank1_addr = FLASH_BASE + FLASH_BANK_SIZE;
1357:Drivers/STM32G4xx_HAL_Driver/Src/stm32g4xx_hal_flash_ex.c ****     bank2_addr = FLASH_BASE;
1358:Drivers/STM32G4xx_HAL_Driver/Src/stm32g4xx_hal_flash_ex.c ****   }
1359:Drivers/STM32G4xx_HAL_Driver/Src/stm32g4xx_hal_flash_ex.c **** #else
1360:Drivers/STM32G4xx_HAL_Driver/Src/stm32g4xx_hal_flash_ex.c ****   bank1_addr = FLASH_BASE;
 1042              		.loc 1 1360 3 view .LVU393
1361:Drivers/STM32G4xx_HAL_Driver/Src/stm32g4xx_hal_flash_ex.c **** #endif
1362:Drivers/STM32G4xx_HAL_Driver/Src/stm32g4xx_hal_flash_ex.c **** 
1363:Drivers/STM32G4xx_HAL_Driver/Src/stm32g4xx_hal_flash_ex.c **** #if defined (FLASH_OPTR_DBANK)
1364:Drivers/STM32G4xx_HAL_Driver/Src/stm32g4xx_hal_flash_ex.c ****   if (READ_BIT(FLASH->OPTR, FLASH_OPTR_DBANK) == 0U)
1365:Drivers/STM32G4xx_HAL_Driver/Src/stm32g4xx_hal_flash_ex.c ****   {
1366:Drivers/STM32G4xx_HAL_Driver/Src/stm32g4xx_hal_flash_ex.c ****     if (((*PCROPConfig) & FLASH_BANK_BOTH) == FLASH_BANK_1)
1367:Drivers/STM32G4xx_HAL_Driver/Src/stm32g4xx_hal_flash_ex.c ****     {
1368:Drivers/STM32G4xx_HAL_Driver/Src/stm32g4xx_hal_flash_ex.c ****       reg_value       = (READ_REG(FLASH->PCROP1SR) & FLASH_PCROP1SR_PCROP1_STRT);
1369:Drivers/STM32G4xx_HAL_Driver/Src/stm32g4xx_hal_flash_ex.c ****       *PCROPStartAddr = (reg_value << 4) + FLASH_BASE;
1370:Drivers/STM32G4xx_HAL_Driver/Src/stm32g4xx_hal_flash_ex.c **** 
1371:Drivers/STM32G4xx_HAL_Driver/Src/stm32g4xx_hal_flash_ex.c ****       reg_value     = (READ_REG(FLASH->PCROP1ER) & FLASH_PCROP1ER_PCROP1_END);
1372:Drivers/STM32G4xx_HAL_Driver/Src/stm32g4xx_hal_flash_ex.c ****       *PCROPEndAddr = (reg_value << 4) + FLASH_BASE;
1373:Drivers/STM32G4xx_HAL_Driver/Src/stm32g4xx_hal_flash_ex.c ****     }
1374:Drivers/STM32G4xx_HAL_Driver/Src/stm32g4xx_hal_flash_ex.c ****     else if (((*PCROPConfig) & FLASH_BANK_BOTH) == FLASH_BANK_2)
1375:Drivers/STM32G4xx_HAL_Driver/Src/stm32g4xx_hal_flash_ex.c ****     {
1376:Drivers/STM32G4xx_HAL_Driver/Src/stm32g4xx_hal_flash_ex.c ****       reg_value       = (READ_REG(FLASH->PCROP2SR) & FLASH_PCROP2SR_PCROP2_STRT);
1377:Drivers/STM32G4xx_HAL_Driver/Src/stm32g4xx_hal_flash_ex.c ****       *PCROPStartAddr = (reg_value << 4) + FLASH_BASE;
1378:Drivers/STM32G4xx_HAL_Driver/Src/stm32g4xx_hal_flash_ex.c **** 
1379:Drivers/STM32G4xx_HAL_Driver/Src/stm32g4xx_hal_flash_ex.c ****       reg_value     = (READ_REG(FLASH->PCROP2ER) & FLASH_PCROP2ER_PCROP2_END);
1380:Drivers/STM32G4xx_HAL_Driver/Src/stm32g4xx_hal_flash_ex.c ****       *PCROPEndAddr = (reg_value << 4) + FLASH_BASE;
1381:Drivers/STM32G4xx_HAL_Driver/Src/stm32g4xx_hal_flash_ex.c ****     }
1382:Drivers/STM32G4xx_HAL_Driver/Src/stm32g4xx_hal_flash_ex.c ****     else
1383:Drivers/STM32G4xx_HAL_Driver/Src/stm32g4xx_hal_flash_ex.c ****     {
1384:Drivers/STM32G4xx_HAL_Driver/Src/stm32g4xx_hal_flash_ex.c ****       /* Nothing to do */
1385:Drivers/STM32G4xx_HAL_Driver/Src/stm32g4xx_hal_flash_ex.c ****     }
1386:Drivers/STM32G4xx_HAL_Driver/Src/stm32g4xx_hal_flash_ex.c ****   }
1387:Drivers/STM32G4xx_HAL_Driver/Src/stm32g4xx_hal_flash_ex.c ****   else
1388:Drivers/STM32G4xx_HAL_Driver/Src/stm32g4xx_hal_flash_ex.c **** #endif
1389:Drivers/STM32G4xx_HAL_Driver/Src/stm32g4xx_hal_flash_ex.c ****   {
1390:Drivers/STM32G4xx_HAL_Driver/Src/stm32g4xx_hal_flash_ex.c ****     if (((*PCROPConfig) & FLASH_BANK_BOTH) == FLASH_BANK_1)
 1043              		.loc 1 1390 5 view .LVU394
1391:Drivers/STM32G4xx_HAL_Driver/Src/stm32g4xx_hal_flash_ex.c ****     {
1392:Drivers/STM32G4xx_HAL_Driver/Src/stm32g4xx_hal_flash_ex.c ****       reg_value       = (READ_REG(FLASH->PCROP1SR) & FLASH_PCROP1SR_PCROP1_STRT);
ARM GAS  /tmp/ccBOcut4.s 			page 46


 1044              		.loc 1 1392 7 view .LVU395
 1045              		.loc 1 1392 26 is_stmt 0 view .LVU396
 1046 007c 0E49     		ldr	r1, .L64
 1047 007e 4A6A     		ldr	r2, [r1, #36]
 1048              	.LVL115:
1393:Drivers/STM32G4xx_HAL_Driver/Src/stm32g4xx_hal_flash_ex.c ****       *PCROPStartAddr = (reg_value << 3) + bank1_addr;
 1049              		.loc 1 1393 7 is_stmt 1 view .LVU397
 1050              		.loc 1 1393 36 is_stmt 0 view .LVU398
 1051 0080 0E4B     		ldr	r3, .L64+4
 1052 0082 03EAC202 		and	r2, r3, r2, lsl #3
 1053              	.LVL116:
 1054              		.loc 1 1393 42 view .LVU399
 1055 0086 02F10062 		add	r2, r2, #134217728
 1056              		.loc 1 1393 23 view .LVU400
 1057 008a 0262     		str	r2, [r0, #32]
1394:Drivers/STM32G4xx_HAL_Driver/Src/stm32g4xx_hal_flash_ex.c **** 
1395:Drivers/STM32G4xx_HAL_Driver/Src/stm32g4xx_hal_flash_ex.c ****       reg_value     = (READ_REG(FLASH->PCROP1ER) & FLASH_PCROP1ER_PCROP1_END);
 1058              		.loc 1 1395 7 is_stmt 1 view .LVU401
 1059              		.loc 1 1395 24 is_stmt 0 view .LVU402
 1060 008c 8A6A     		ldr	r2, [r1, #40]
 1061              	.LVL117:
1396:Drivers/STM32G4xx_HAL_Driver/Src/stm32g4xx_hal_flash_ex.c ****       *PCROPEndAddr = (reg_value << 3) + bank1_addr;
 1062              		.loc 1 1396 7 is_stmt 1 view .LVU403
 1063              		.loc 1 1396 34 is_stmt 0 view .LVU404
 1064 008e 03EAC203 		and	r3, r3, r2, lsl #3
 1065              		.loc 1 1396 40 view .LVU405
 1066 0092 03F10063 		add	r3, r3, #134217728
 1067              		.loc 1 1396 21 view .LVU406
 1068 0096 4362     		str	r3, [r0, #36]
1397:Drivers/STM32G4xx_HAL_Driver/Src/stm32g4xx_hal_flash_ex.c ****     }
1398:Drivers/STM32G4xx_HAL_Driver/Src/stm32g4xx_hal_flash_ex.c **** #if defined (FLASH_OPTR_DBANK)
1399:Drivers/STM32G4xx_HAL_Driver/Src/stm32g4xx_hal_flash_ex.c ****     else if (((*PCROPConfig) & FLASH_BANK_BOTH) == FLASH_BANK_2)
1400:Drivers/STM32G4xx_HAL_Driver/Src/stm32g4xx_hal_flash_ex.c ****     {
1401:Drivers/STM32G4xx_HAL_Driver/Src/stm32g4xx_hal_flash_ex.c ****       reg_value       = (READ_REG(FLASH->PCROP2SR) & FLASH_PCROP2SR_PCROP2_STRT);
1402:Drivers/STM32G4xx_HAL_Driver/Src/stm32g4xx_hal_flash_ex.c ****       *PCROPStartAddr = (reg_value << 3) + bank2_addr;
1403:Drivers/STM32G4xx_HAL_Driver/Src/stm32g4xx_hal_flash_ex.c **** 
1404:Drivers/STM32G4xx_HAL_Driver/Src/stm32g4xx_hal_flash_ex.c ****       reg_value     = (READ_REG(FLASH->PCROP2ER) & FLASH_PCROP2ER_PCROP2_END);
1405:Drivers/STM32G4xx_HAL_Driver/Src/stm32g4xx_hal_flash_ex.c ****       *PCROPEndAddr = (reg_value << 3) + bank2_addr;
1406:Drivers/STM32G4xx_HAL_Driver/Src/stm32g4xx_hal_flash_ex.c ****     }
1407:Drivers/STM32G4xx_HAL_Driver/Src/stm32g4xx_hal_flash_ex.c **** #endif
1408:Drivers/STM32G4xx_HAL_Driver/Src/stm32g4xx_hal_flash_ex.c ****     else
1409:Drivers/STM32G4xx_HAL_Driver/Src/stm32g4xx_hal_flash_ex.c ****     {
1410:Drivers/STM32G4xx_HAL_Driver/Src/stm32g4xx_hal_flash_ex.c ****       /* Nothing to do */
1411:Drivers/STM32G4xx_HAL_Driver/Src/stm32g4xx_hal_flash_ex.c ****     }
 1069              		.loc 1 1411 5 is_stmt 1 view .LVU407
1412:Drivers/STM32G4xx_HAL_Driver/Src/stm32g4xx_hal_flash_ex.c ****   }
1413:Drivers/STM32G4xx_HAL_Driver/Src/stm32g4xx_hal_flash_ex.c **** 
1414:Drivers/STM32G4xx_HAL_Driver/Src/stm32g4xx_hal_flash_ex.c ****   *PCROPConfig |= (READ_REG(FLASH->PCROP1ER) & FLASH_PCROP1ER_PCROP_RDP);
 1070              		.loc 1 1414 3 view .LVU408
 1071              		.loc 1 1414 20 is_stmt 0 view .LVU409
 1072 0098 8B6A     		ldr	r3, [r1, #40]
 1073              		.loc 1 1414 46 view .LVU410
 1074 009a 03F00043 		and	r3, r3, #-2147483648
 1075              		.loc 1 1414 16 view .LVU411
 1076 009e 43F00103 		orr	r3, r3, #1
 1077 00a2 C361     		str	r3, [r0, #28]
1415:Drivers/STM32G4xx_HAL_Driver/Src/stm32g4xx_hal_flash_ex.c **** }
ARM GAS  /tmp/ccBOcut4.s 			page 47


 1078              		.loc 1 1415 1 view .LVU412
 1079 00a4 C2E7     		b	.L59
 1080              	.LVL118:
 1081              	.L63:
 1082              		.loc 1 1415 1 view .LVU413
 1083              	.LBE55:
 1084              	.LBE54:
 444:Drivers/STM32G4xx_HAL_Driver/Src/stm32g4xx_hal_flash_ex.c ****     FLASH_OB_GetSecMem(pOBInit->SecBank, &(pOBInit->SecSize));
 1085              		.loc 1 444 5 is_stmt 1 view .LVU414
 444:Drivers/STM32G4xx_HAL_Driver/Src/stm32g4xx_hal_flash_ex.c ****     FLASH_OB_GetSecMem(pOBInit->SecBank, &(pOBInit->SecSize));
 1086              		.loc 1 444 25 is_stmt 0 view .LVU415
 1087 00a6 42F03002 		orr	r2, r2, #48
 1088 00aa 0260     		str	r2, [r0]
 445:Drivers/STM32G4xx_HAL_Driver/Src/stm32g4xx_hal_flash_ex.c ****   }
 1089              		.loc 1 445 5 is_stmt 1 view .LVU416
 1090              	.LVL119:
 1091              	.LBB56:
 1092              	.LBI56:
1210:Drivers/STM32G4xx_HAL_Driver/Src/stm32g4xx_hal_flash_ex.c **** {
 1093              		.loc 1 1210 13 view .LVU417
 1094              	.LBB57:
1213:Drivers/STM32G4xx_HAL_Driver/Src/stm32g4xx_hal_flash_ex.c ****   {
 1095              		.loc 1 1213 3 view .LVU418
1215:Drivers/STM32G4xx_HAL_Driver/Src/stm32g4xx_hal_flash_ex.c ****   }
 1096              		.loc 1 1215 5 view .LVU419
1215:Drivers/STM32G4xx_HAL_Driver/Src/stm32g4xx_hal_flash_ex.c ****   }
 1097              		.loc 1 1215 16 is_stmt 0 view .LVU420
 1098 00ac 024B     		ldr	r3, .L64
 1099 00ae 1B6F     		ldr	r3, [r3, #112]
 1100 00b0 03F07F03 		and	r3, r3, #127
1215:Drivers/STM32G4xx_HAL_Driver/Src/stm32g4xx_hal_flash_ex.c ****   }
 1101              		.loc 1 1215 14 view .LVU421
 1102 00b4 0363     		str	r3, [r0, #48]
 1103              	.LVL120:
1215:Drivers/STM32G4xx_HAL_Driver/Src/stm32g4xx_hal_flash_ex.c ****   }
 1104              		.loc 1 1215 14 view .LVU422
 1105              	.LBE57:
 1106              	.LBE56:
 447:Drivers/STM32G4xx_HAL_Driver/Src/stm32g4xx_hal_flash_ex.c **** 
 1107              		.loc 1 447 1 view .LVU423
 1108 00b6 C5E7     		b	.L55
 1109              	.L65:
 1110              		.align	2
 1111              	.L64:
 1112 00b8 00200240 		.word	1073881088
 1113 00bc F8FF0100 		.word	131064
 1114              		.cfi_endproc
 1115              	.LFE135:
 1117              		.section	.text.HAL_FLASHEx_EnableSecMemProtection,"ax",%progbits
 1118              		.align	1
 1119              		.global	HAL_FLASHEx_EnableSecMemProtection
 1120              		.syntax unified
 1121              		.thumb
 1122              		.thumb_func
 1123              		.fpu fpv4-sp-d16
 1125              	HAL_FLASHEx_EnableSecMemProtection:
 1126              	.LVL121:
ARM GAS  /tmp/ccBOcut4.s 			page 48


 1127              	.LFB136:
 460:Drivers/STM32G4xx_HAL_Driver/Src/stm32g4xx_hal_flash_ex.c **** #if defined (FLASH_OPTR_DBANK)
 1128              		.loc 1 460 1 is_stmt 1 view -0
 1129              		.cfi_startproc
 1130              		@ args = 0, pretend = 0, frame = 0
 1131              		@ frame_needed = 0, uses_anonymous_args = 0
 1132              		@ link register save eliminated.
 485:Drivers/STM32G4xx_HAL_Driver/Src/stm32g4xx_hal_flash_ex.c ****   SET_BIT(FLASH->CR, FLASH_CR_SEC_PROT1);
 1133              		.loc 1 485 3 view .LVU425
 486:Drivers/STM32G4xx_HAL_Driver/Src/stm32g4xx_hal_flash_ex.c **** #endif /* FLASH_OPTR_DBANK */
 1134              		.loc 1 486 3 view .LVU426
 1135 0000 034A     		ldr	r2, .L67
 1136 0002 5369     		ldr	r3, [r2, #20]
 1137 0004 43F08053 		orr	r3, r3, #268435456
 1138 0008 5361     		str	r3, [r2, #20]
 489:Drivers/STM32G4xx_HAL_Driver/Src/stm32g4xx_hal_flash_ex.c **** }
 1139              		.loc 1 489 3 view .LVU427
 490:Drivers/STM32G4xx_HAL_Driver/Src/stm32g4xx_hal_flash_ex.c **** 
 1140              		.loc 1 490 1 is_stmt 0 view .LVU428
 1141 000a 0020     		movs	r0, #0
 1142              	.LVL122:
 490:Drivers/STM32G4xx_HAL_Driver/Src/stm32g4xx_hal_flash_ex.c **** 
 1143              		.loc 1 490 1 view .LVU429
 1144 000c 7047     		bx	lr
 1145              	.L68:
 1146 000e 00BF     		.align	2
 1147              	.L67:
 1148 0010 00200240 		.word	1073881088
 1149              		.cfi_endproc
 1150              	.LFE136:
 1152              		.section	.text.HAL_FLASHEx_EnableDebugger,"ax",%progbits
 1153              		.align	1
 1154              		.global	HAL_FLASHEx_EnableDebugger
 1155              		.syntax unified
 1156              		.thumb
 1157              		.thumb_func
 1158              		.fpu fpv4-sp-d16
 1160              	HAL_FLASHEx_EnableDebugger:
 1161              	.LFB137:
 498:Drivers/STM32G4xx_HAL_Driver/Src/stm32g4xx_hal_flash_ex.c ****   FLASH->ACR |= FLASH_ACR_DBG_SWEN;
 1162              		.loc 1 498 1 is_stmt 1 view -0
 1163              		.cfi_startproc
 1164              		@ args = 0, pretend = 0, frame = 0
 1165              		@ frame_needed = 0, uses_anonymous_args = 0
 1166              		@ link register save eliminated.
 499:Drivers/STM32G4xx_HAL_Driver/Src/stm32g4xx_hal_flash_ex.c **** }
 1167              		.loc 1 499 3 view .LVU431
 499:Drivers/STM32G4xx_HAL_Driver/Src/stm32g4xx_hal_flash_ex.c **** }
 1168              		.loc 1 499 14 is_stmt 0 view .LVU432
 1169 0000 024A     		ldr	r2, .L70
 1170 0002 1368     		ldr	r3, [r2]
 1171 0004 43F48023 		orr	r3, r3, #262144
 1172 0008 1360     		str	r3, [r2]
 500:Drivers/STM32G4xx_HAL_Driver/Src/stm32g4xx_hal_flash_ex.c **** 
 1173              		.loc 1 500 1 view .LVU433
 1174 000a 7047     		bx	lr
 1175              	.L71:
ARM GAS  /tmp/ccBOcut4.s 			page 49


 1176              		.align	2
 1177              	.L70:
 1178 000c 00200240 		.word	1073881088
 1179              		.cfi_endproc
 1180              	.LFE137:
 1182              		.section	.text.HAL_FLASHEx_DisableDebugger,"ax",%progbits
 1183              		.align	1
 1184              		.global	HAL_FLASHEx_DisableDebugger
 1185              		.syntax unified
 1186              		.thumb
 1187              		.thumb_func
 1188              		.fpu fpv4-sp-d16
 1190              	HAL_FLASHEx_DisableDebugger:
 1191              	.LFB138:
 510:Drivers/STM32G4xx_HAL_Driver/Src/stm32g4xx_hal_flash_ex.c ****   FLASH->ACR &= ~FLASH_ACR_DBG_SWEN;
 1192              		.loc 1 510 1 is_stmt 1 view -0
 1193              		.cfi_startproc
 1194              		@ args = 0, pretend = 0, frame = 0
 1195              		@ frame_needed = 0, uses_anonymous_args = 0
 1196              		@ link register save eliminated.
 511:Drivers/STM32G4xx_HAL_Driver/Src/stm32g4xx_hal_flash_ex.c **** }
 1197              		.loc 1 511 3 view .LVU435
 511:Drivers/STM32G4xx_HAL_Driver/Src/stm32g4xx_hal_flash_ex.c **** }
 1198              		.loc 1 511 14 is_stmt 0 view .LVU436
 1199 0000 024A     		ldr	r2, .L73
 1200 0002 1368     		ldr	r3, [r2]
 1201 0004 23F48023 		bic	r3, r3, #262144
 1202 0008 1360     		str	r3, [r2]
 512:Drivers/STM32G4xx_HAL_Driver/Src/stm32g4xx_hal_flash_ex.c **** 
 1203              		.loc 1 512 1 view .LVU437
 1204 000a 7047     		bx	lr
 1205              	.L74:
 1206              		.align	2
 1207              	.L73:
 1208 000c 00200240 		.word	1073881088
 1209              		.cfi_endproc
 1210              	.LFE138:
 1212              		.section	.text.FLASH_PageErase,"ax",%progbits
 1213              		.align	1
 1214              		.global	FLASH_PageErase
 1215              		.syntax unified
 1216              		.thumb
 1217              		.thumb_func
 1218              		.fpu fpv4-sp-d16
 1220              	FLASH_PageErase:
 1221              	.LVL123:
 1222              	.LFB140:
 583:Drivers/STM32G4xx_HAL_Driver/Src/stm32g4xx_hal_flash_ex.c ****   /* Check the parameters */
 1223              		.loc 1 583 1 is_stmt 1 view -0
 1224              		.cfi_startproc
 1225              		@ args = 0, pretend = 0, frame = 0
 1226              		@ frame_needed = 0, uses_anonymous_args = 0
 1227              		@ link register save eliminated.
 585:Drivers/STM32G4xx_HAL_Driver/Src/stm32g4xx_hal_flash_ex.c **** 
 1228              		.loc 1 585 3 view .LVU439
 607:Drivers/STM32G4xx_HAL_Driver/Src/stm32g4xx_hal_flash_ex.c **** #endif /* FLASH_OPTR_DBANK */
 1229              		.loc 1 607 3 view .LVU440
ARM GAS  /tmp/ccBOcut4.s 			page 50


 611:Drivers/STM32G4xx_HAL_Driver/Src/stm32g4xx_hal_flash_ex.c ****   SET_BIT(FLASH->CR, FLASH_CR_PER);
 1230              		.loc 1 611 3 view .LVU441
 1231 0000 084B     		ldr	r3, .L76
 1232 0002 5A69     		ldr	r2, [r3, #20]
 1233 0004 C000     		lsls	r0, r0, #3
 1234              	.LVL124:
 611:Drivers/STM32G4xx_HAL_Driver/Src/stm32g4xx_hal_flash_ex.c ****   SET_BIT(FLASH->CR, FLASH_CR_PER);
 1235              		.loc 1 611 3 is_stmt 0 view .LVU442
 1236 0006 00F4FF60 		and	r0, r0, #2040
 1237 000a 22F4FC72 		bic	r2, r2, #504
 1238 000e 1043     		orrs	r0, r0, r2
 1239 0010 5861     		str	r0, [r3, #20]
 612:Drivers/STM32G4xx_HAL_Driver/Src/stm32g4xx_hal_flash_ex.c ****   SET_BIT(FLASH->CR, FLASH_CR_STRT);
 1240              		.loc 1 612 3 is_stmt 1 view .LVU443
 1241 0012 5A69     		ldr	r2, [r3, #20]
 1242 0014 42F00202 		orr	r2, r2, #2
 1243 0018 5A61     		str	r2, [r3, #20]
 613:Drivers/STM32G4xx_HAL_Driver/Src/stm32g4xx_hal_flash_ex.c **** }
 1244              		.loc 1 613 3 view .LVU444
 1245 001a 5A69     		ldr	r2, [r3, #20]
 1246 001c 42F48032 		orr	r2, r2, #65536
 1247 0020 5A61     		str	r2, [r3, #20]
 614:Drivers/STM32G4xx_HAL_Driver/Src/stm32g4xx_hal_flash_ex.c **** 
 1248              		.loc 1 614 1 is_stmt 0 view .LVU445
 1249 0022 7047     		bx	lr
 1250              	.L77:
 1251              		.align	2
 1252              	.L76:
 1253 0024 00200240 		.word	1073881088
 1254              		.cfi_endproc
 1255              	.LFE140:
 1257              		.section	.text.HAL_FLASHEx_Erase_IT,"ax",%progbits
 1258              		.align	1
 1259              		.global	HAL_FLASHEx_Erase_IT
 1260              		.syntax unified
 1261              		.thumb
 1262              		.thumb_func
 1263              		.fpu fpv4-sp-d16
 1265              	HAL_FLASHEx_Erase_IT:
 1266              	.LVL125:
 1267              	.LFB133:
 238:Drivers/STM32G4xx_HAL_Driver/Src/stm32g4xx_hal_flash_ex.c ****   HAL_StatusTypeDef status = HAL_OK;
 1268              		.loc 1 238 1 is_stmt 1 view -0
 1269              		.cfi_startproc
 1270              		@ args = 0, pretend = 0, frame = 0
 1271              		@ frame_needed = 0, uses_anonymous_args = 0
 239:Drivers/STM32G4xx_HAL_Driver/Src/stm32g4xx_hal_flash_ex.c **** 
 1272              		.loc 1 239 3 view .LVU447
 242:Drivers/STM32G4xx_HAL_Driver/Src/stm32g4xx_hal_flash_ex.c **** 
 1273              		.loc 1 242 3 view .LVU448
 242:Drivers/STM32G4xx_HAL_Driver/Src/stm32g4xx_hal_flash_ex.c **** 
 1274              		.loc 1 242 3 view .LVU449
 1275 0000 294A     		ldr	r2, .L91
 1276 0002 1278     		ldrb	r2, [r2]	@ zero_extendqisi2
 1277 0004 012A     		cmp	r2, #1
 1278 0006 4DD0     		beq	.L85
 238:Drivers/STM32G4xx_HAL_Driver/Src/stm32g4xx_hal_flash_ex.c ****   HAL_StatusTypeDef status = HAL_OK;
ARM GAS  /tmp/ccBOcut4.s 			page 51


 1279              		.loc 1 238 1 is_stmt 0 discriminator 2 view .LVU450
 1280 0008 08B5     		push	{r3, lr}
 1281              	.LCFI1:
 1282              		.cfi_def_cfa_offset 8
 1283              		.cfi_offset 3, -8
 1284              		.cfi_offset 14, -4
 1285 000a 0346     		mov	r3, r0
 242:Drivers/STM32G4xx_HAL_Driver/Src/stm32g4xx_hal_flash_ex.c **** 
 1286              		.loc 1 242 3 is_stmt 1 discriminator 2 view .LVU451
 1287 000c 264A     		ldr	r2, .L91
 1288 000e 0121     		movs	r1, #1
 1289 0010 1170     		strb	r1, [r2]
 242:Drivers/STM32G4xx_HAL_Driver/Src/stm32g4xx_hal_flash_ex.c **** 
 1290              		.loc 1 242 3 discriminator 2 view .LVU452
 245:Drivers/STM32G4xx_HAL_Driver/Src/stm32g4xx_hal_flash_ex.c **** 
 1291              		.loc 1 245 3 discriminator 2 view .LVU453
 247:Drivers/STM32G4xx_HAL_Driver/Src/stm32g4xx_hal_flash_ex.c **** 
 1292              		.loc 1 247 3 discriminator 2 view .LVU454
 247:Drivers/STM32G4xx_HAL_Driver/Src/stm32g4xx_hal_flash_ex.c **** 
 1293              		.loc 1 247 20 is_stmt 0 discriminator 2 view .LVU455
 1294 0012 0021     		movs	r1, #0
 1295 0014 5160     		str	r1, [r2, #4]
 250:Drivers/STM32G4xx_HAL_Driver/Src/stm32g4xx_hal_flash_ex.c ****   {
 1296              		.loc 1 250 3 is_stmt 1 discriminator 2 view .LVU456
 250:Drivers/STM32G4xx_HAL_Driver/Src/stm32g4xx_hal_flash_ex.c ****   {
 1297              		.loc 1 250 7 is_stmt 0 discriminator 2 view .LVU457
 1298 0016 254A     		ldr	r2, .L91+4
 1299 0018 1268     		ldr	r2, [r2]
 250:Drivers/STM32G4xx_HAL_Driver/Src/stm32g4xx_hal_flash_ex.c ****   {
 1300              		.loc 1 250 6 discriminator 2 view .LVU458
 1301 001a 12F4007F 		tst	r2, #512
 1302 001e 27D0     		beq	.L80
 252:Drivers/STM32G4xx_HAL_Driver/Src/stm32g4xx_hal_flash_ex.c ****     {
 1303              		.loc 1 252 5 is_stmt 1 view .LVU459
 252:Drivers/STM32G4xx_HAL_Driver/Src/stm32g4xx_hal_flash_ex.c ****     {
 1304              		.loc 1 252 9 is_stmt 0 view .LVU460
 1305 0020 224A     		ldr	r2, .L91+4
 1306 0022 1268     		ldr	r2, [r2]
 252:Drivers/STM32G4xx_HAL_Driver/Src/stm32g4xx_hal_flash_ex.c ****     {
 1307              		.loc 1 252 8 view .LVU461
 1308 0024 12F4806F 		tst	r2, #1024
 1309 0028 1ED0     		beq	.L81
 255:Drivers/STM32G4xx_HAL_Driver/Src/stm32g4xx_hal_flash_ex.c ****       pFlash.CacheToReactivate = FLASH_CACHE_ICACHE_DCACHE_ENABLED;
 1310              		.loc 1 255 7 is_stmt 1 view .LVU462
 1311 002a 2049     		ldr	r1, .L91+4
 1312 002c 0A68     		ldr	r2, [r1]
 1313 002e 22F48062 		bic	r2, r2, #1024
 1314 0032 0A60     		str	r2, [r1]
 256:Drivers/STM32G4xx_HAL_Driver/Src/stm32g4xx_hal_flash_ex.c ****     }
 1315              		.loc 1 256 7 view .LVU463
 256:Drivers/STM32G4xx_HAL_Driver/Src/stm32g4xx_hal_flash_ex.c ****     }
 1316              		.loc 1 256 32 is_stmt 0 view .LVU464
 1317 0034 1C4A     		ldr	r2, .L91
 1318 0036 0321     		movs	r1, #3
 1319 0038 1177     		strb	r1, [r2, #28]
 1320              	.L82:
 275:Drivers/STM32G4xx_HAL_Driver/Src/stm32g4xx_hal_flash_ex.c **** 
ARM GAS  /tmp/ccBOcut4.s 			page 52


 1321              		.loc 1 275 3 is_stmt 1 discriminator 4 view .LVU465
 275:Drivers/STM32G4xx_HAL_Driver/Src/stm32g4xx_hal_flash_ex.c **** 
 1322              		.loc 1 275 3 discriminator 4 view .LVU466
 275:Drivers/STM32G4xx_HAL_Driver/Src/stm32g4xx_hal_flash_ex.c **** 
 1323              		.loc 1 275 3 discriminator 4 view .LVU467
 275:Drivers/STM32G4xx_HAL_Driver/Src/stm32g4xx_hal_flash_ex.c **** 
 1324              		.loc 1 275 3 discriminator 4 view .LVU468
 1325 003a 1C49     		ldr	r1, .L91+4
 1326 003c 4A69     		ldr	r2, [r1, #20]
 1327 003e 42F04072 		orr	r2, r2, #50331648
 1328 0042 4A61     		str	r2, [r1, #20]
 275:Drivers/STM32G4xx_HAL_Driver/Src/stm32g4xx_hal_flash_ex.c **** 
 1329              		.loc 1 275 3 discriminator 4 view .LVU469
 277:Drivers/STM32G4xx_HAL_Driver/Src/stm32g4xx_hal_flash_ex.c **** 
 1330              		.loc 1 277 3 discriminator 4 view .LVU470
 277:Drivers/STM32G4xx_HAL_Driver/Src/stm32g4xx_hal_flash_ex.c **** 
 1331              		.loc 1 277 27 is_stmt 0 discriminator 4 view .LVU471
 1332 0044 5968     		ldr	r1, [r3, #4]
 277:Drivers/STM32G4xx_HAL_Driver/Src/stm32g4xx_hal_flash_ex.c **** 
 1333              		.loc 1 277 15 discriminator 4 view .LVU472
 1334 0046 184A     		ldr	r2, .L91
 1335 0048 1161     		str	r1, [r2, #16]
 279:Drivers/STM32G4xx_HAL_Driver/Src/stm32g4xx_hal_flash_ex.c ****   {
 1336              		.loc 1 279 3 is_stmt 1 discriminator 4 view .LVU473
 279:Drivers/STM32G4xx_HAL_Driver/Src/stm32g4xx_hal_flash_ex.c ****   {
 1337              		.loc 1 279 6 is_stmt 0 discriminator 4 view .LVU474
 1338 004a 1A68     		ldr	r2, [r3]
 1339 004c 012A     		cmp	r2, #1
 1340 004e 21D0     		beq	.L90
 288:Drivers/STM32G4xx_HAL_Driver/Src/stm32g4xx_hal_flash_ex.c ****     pFlash.NbPagesToErase = pEraseInit->NbPages;
 1341              		.loc 1 288 5 is_stmt 1 view .LVU475
 288:Drivers/STM32G4xx_HAL_Driver/Src/stm32g4xx_hal_flash_ex.c ****     pFlash.NbPagesToErase = pEraseInit->NbPages;
 1342              		.loc 1 288 29 is_stmt 0 view .LVU476
 1343 0050 154A     		ldr	r2, .L91
 1344 0052 0121     		movs	r1, #1
 1345 0054 1172     		strb	r1, [r2, #8]
 289:Drivers/STM32G4xx_HAL_Driver/Src/stm32g4xx_hal_flash_ex.c ****     pFlash.Page = pEraseInit->Page;
 1346              		.loc 1 289 5 is_stmt 1 view .LVU477
 289:Drivers/STM32G4xx_HAL_Driver/Src/stm32g4xx_hal_flash_ex.c ****     pFlash.Page = pEraseInit->Page;
 1347              		.loc 1 289 39 is_stmt 0 view .LVU478
 1348 0056 D968     		ldr	r1, [r3, #12]
 289:Drivers/STM32G4xx_HAL_Driver/Src/stm32g4xx_hal_flash_ex.c ****     pFlash.Page = pEraseInit->Page;
 1349              		.loc 1 289 27 view .LVU479
 1350 0058 9161     		str	r1, [r2, #24]
 290:Drivers/STM32G4xx_HAL_Driver/Src/stm32g4xx_hal_flash_ex.c **** 
 1351              		.loc 1 290 5 is_stmt 1 view .LVU480
 290:Drivers/STM32G4xx_HAL_Driver/Src/stm32g4xx_hal_flash_ex.c **** 
 1352              		.loc 1 290 29 is_stmt 0 view .LVU481
 1353 005a 9868     		ldr	r0, [r3, #8]
 1354              	.LVL126:
 290:Drivers/STM32G4xx_HAL_Driver/Src/stm32g4xx_hal_flash_ex.c **** 
 1355              		.loc 1 290 17 view .LVU482
 1356 005c 5061     		str	r0, [r2, #20]
 293:Drivers/STM32G4xx_HAL_Driver/Src/stm32g4xx_hal_flash_ex.c ****   }
 1357              		.loc 1 293 5 is_stmt 1 view .LVU483
 1358 005e 5968     		ldr	r1, [r3, #4]
 1359 0060 FFF7FEFF 		bl	FLASH_PageErase
ARM GAS  /tmp/ccBOcut4.s 			page 53


 1360              	.LVL127:
 296:Drivers/STM32G4xx_HAL_Driver/Src/stm32g4xx_hal_flash_ex.c **** }
 1361              		.loc 1 296 10 is_stmt 0 view .LVU484
 1362 0064 0020     		movs	r0, #0
 1363              	.L79:
 297:Drivers/STM32G4xx_HAL_Driver/Src/stm32g4xx_hal_flash_ex.c **** 
 1364              		.loc 1 297 1 view .LVU485
 1365 0066 08BD     		pop	{r3, pc}
 1366              	.LVL128:
 1367              	.L81:
 260:Drivers/STM32G4xx_HAL_Driver/Src/stm32g4xx_hal_flash_ex.c ****     }
 1368              		.loc 1 260 7 is_stmt 1 view .LVU486
 260:Drivers/STM32G4xx_HAL_Driver/Src/stm32g4xx_hal_flash_ex.c ****     }
 1369              		.loc 1 260 32 is_stmt 0 view .LVU487
 1370 0068 0F4A     		ldr	r2, .L91
 1371 006a 0121     		movs	r1, #1
 1372 006c 1177     		strb	r1, [r2, #28]
 1373 006e E4E7     		b	.L82
 1374              	.L80:
 263:Drivers/STM32G4xx_HAL_Driver/Src/stm32g4xx_hal_flash_ex.c ****   {
 1375              		.loc 1 263 8 is_stmt 1 view .LVU488
 263:Drivers/STM32G4xx_HAL_Driver/Src/stm32g4xx_hal_flash_ex.c ****   {
 1376              		.loc 1 263 12 is_stmt 0 view .LVU489
 1377 0070 0E4A     		ldr	r2, .L91+4
 1378 0072 1268     		ldr	r2, [r2]
 263:Drivers/STM32G4xx_HAL_Driver/Src/stm32g4xx_hal_flash_ex.c ****   {
 1379              		.loc 1 263 11 view .LVU490
 1380 0074 12F4806F 		tst	r2, #1024
 1381 0078 08D0     		beq	.L83
 266:Drivers/STM32G4xx_HAL_Driver/Src/stm32g4xx_hal_flash_ex.c ****     pFlash.CacheToReactivate = FLASH_CACHE_DCACHE_ENABLED;
 1382              		.loc 1 266 5 is_stmt 1 view .LVU491
 1383 007a 0C49     		ldr	r1, .L91+4
 1384 007c 0A68     		ldr	r2, [r1]
 1385 007e 22F48062 		bic	r2, r2, #1024
 1386 0082 0A60     		str	r2, [r1]
 267:Drivers/STM32G4xx_HAL_Driver/Src/stm32g4xx_hal_flash_ex.c ****   }
 1387              		.loc 1 267 5 view .LVU492
 267:Drivers/STM32G4xx_HAL_Driver/Src/stm32g4xx_hal_flash_ex.c ****   }
 1388              		.loc 1 267 30 is_stmt 0 view .LVU493
 1389 0084 084A     		ldr	r2, .L91
 1390 0086 0221     		movs	r1, #2
 1391 0088 1177     		strb	r1, [r2, #28]
 1392 008a D6E7     		b	.L82
 1393              	.L83:
 271:Drivers/STM32G4xx_HAL_Driver/Src/stm32g4xx_hal_flash_ex.c ****   }
 1394              		.loc 1 271 5 is_stmt 1 view .LVU494
 271:Drivers/STM32G4xx_HAL_Driver/Src/stm32g4xx_hal_flash_ex.c ****   }
 1395              		.loc 1 271 30 is_stmt 0 view .LVU495
 1396 008c 064A     		ldr	r2, .L91
 1397 008e 0021     		movs	r1, #0
 1398 0090 1177     		strb	r1, [r2, #28]
 1399 0092 D2E7     		b	.L82
 1400              	.L90:
 282:Drivers/STM32G4xx_HAL_Driver/Src/stm32g4xx_hal_flash_ex.c ****     FLASH_MassErase(pEraseInit->Banks);
 1401              		.loc 1 282 5 is_stmt 1 view .LVU496
 282:Drivers/STM32G4xx_HAL_Driver/Src/stm32g4xx_hal_flash_ex.c ****     FLASH_MassErase(pEraseInit->Banks);
 1402              		.loc 1 282 29 is_stmt 0 view .LVU497
ARM GAS  /tmp/ccBOcut4.s 			page 54


 1403 0094 044A     		ldr	r2, .L91
 1404 0096 0221     		movs	r1, #2
 1405 0098 1172     		strb	r1, [r2, #8]
 283:Drivers/STM32G4xx_HAL_Driver/Src/stm32g4xx_hal_flash_ex.c ****   }
 1406              		.loc 1 283 5 is_stmt 1 view .LVU498
 1407 009a 5868     		ldr	r0, [r3, #4]
 1408              	.LVL129:
 283:Drivers/STM32G4xx_HAL_Driver/Src/stm32g4xx_hal_flash_ex.c ****   }
 1409              		.loc 1 283 5 is_stmt 0 view .LVU499
 1410 009c FFF7FEFF 		bl	FLASH_MassErase
 1411              	.LVL130:
 296:Drivers/STM32G4xx_HAL_Driver/Src/stm32g4xx_hal_flash_ex.c **** }
 1412              		.loc 1 296 10 view .LVU500
 1413 00a0 0020     		movs	r0, #0
 1414 00a2 E0E7     		b	.L79
 1415              	.LVL131:
 1416              	.L85:
 1417              	.LCFI2:
 1418              		.cfi_def_cfa_offset 0
 1419              		.cfi_restore 3
 1420              		.cfi_restore 14
 242:Drivers/STM32G4xx_HAL_Driver/Src/stm32g4xx_hal_flash_ex.c **** 
 1421              		.loc 1 242 3 view .LVU501
 1422 00a4 0220     		movs	r0, #2
 1423              	.LVL132:
 297:Drivers/STM32G4xx_HAL_Driver/Src/stm32g4xx_hal_flash_ex.c **** 
 1424              		.loc 1 297 1 view .LVU502
 1425 00a6 7047     		bx	lr
 1426              	.L92:
 1427              		.align	2
 1428              	.L91:
 1429 00a8 00000000 		.word	pFlash
 1430 00ac 00200240 		.word	1073881088
 1431              		.cfi_endproc
 1432              	.LFE133:
 1434              		.section	.text.FLASH_FlushCaches,"ax",%progbits
 1435              		.align	1
 1436              		.global	FLASH_FlushCaches
 1437              		.syntax unified
 1438              		.thumb
 1439              		.thumb_func
 1440              		.fpu fpv4-sp-d16
 1442              	FLASH_FlushCaches:
 1443              	.LFB141:
 621:Drivers/STM32G4xx_HAL_Driver/Src/stm32g4xx_hal_flash_ex.c ****   FLASH_CacheTypeDef cache = pFlash.CacheToReactivate;
 1444              		.loc 1 621 1 is_stmt 1 view -0
 1445              		.cfi_startproc
 1446              		@ args = 0, pretend = 0, frame = 0
 1447              		@ frame_needed = 0, uses_anonymous_args = 0
 1448              		@ link register save eliminated.
 622:Drivers/STM32G4xx_HAL_Driver/Src/stm32g4xx_hal_flash_ex.c **** 
 1449              		.loc 1 622 3 view .LVU504
 622:Drivers/STM32G4xx_HAL_Driver/Src/stm32g4xx_hal_flash_ex.c **** 
 1450              		.loc 1 622 22 is_stmt 0 view .LVU505
 1451 0000 174B     		ldr	r3, .L98
 1452 0002 1A7F     		ldrb	r2, [r3, #28]	@ zero_extendqisi2
 1453 0004 D3B2     		uxtb	r3, r2
ARM GAS  /tmp/ccBOcut4.s 			page 55


 1454              	.LVL133:
 625:Drivers/STM32G4xx_HAL_Driver/Src/stm32g4xx_hal_flash_ex.c ****       (cache == FLASH_CACHE_ICACHE_DCACHE_ENABLED))
 1455              		.loc 1 625 3 is_stmt 1 view .LVU506
 625:Drivers/STM32G4xx_HAL_Driver/Src/stm32g4xx_hal_flash_ex.c ****       (cache == FLASH_CACHE_ICACHE_DCACHE_ENABLED))
 1456              		.loc 1 625 6 is_stmt 0 view .LVU507
 1457 0006 02F0FD02 		and	r2, r2, #253
 1458 000a 012A     		cmp	r2, #1
 1459 000c 07D0     		beq	.L96
 1460              	.L94:
 637:Drivers/STM32G4xx_HAL_Driver/Src/stm32g4xx_hal_flash_ex.c ****       (cache == FLASH_CACHE_ICACHE_DCACHE_ENABLED))
 1461              		.loc 1 637 3 is_stmt 1 view .LVU508
 637:Drivers/STM32G4xx_HAL_Driver/Src/stm32g4xx_hal_flash_ex.c ****       (cache == FLASH_CACHE_ICACHE_DCACHE_ENABLED))
 1462              		.loc 1 637 45 is_stmt 0 view .LVU509
 1463 000e 023B     		subs	r3, r3, #2
 1464              	.LVL134:
 637:Drivers/STM32G4xx_HAL_Driver/Src/stm32g4xx_hal_flash_ex.c ****       (cache == FLASH_CACHE_ICACHE_DCACHE_ENABLED))
 1465              		.loc 1 637 6 view .LVU510
 1466 0010 DBB2     		uxtb	r3, r3
 1467              	.LVL135:
 637:Drivers/STM32G4xx_HAL_Driver/Src/stm32g4xx_hal_flash_ex.c ****       (cache == FLASH_CACHE_ICACHE_DCACHE_ENABLED))
 1468              		.loc 1 637 6 view .LVU511
 1469 0012 012B     		cmp	r3, #1
 1470 0014 15D9     		bls	.L97
 1471              	.L95:
 647:Drivers/STM32G4xx_HAL_Driver/Src/stm32g4xx_hal_flash_ex.c **** }
 1472              		.loc 1 647 3 is_stmt 1 view .LVU512
 647:Drivers/STM32G4xx_HAL_Driver/Src/stm32g4xx_hal_flash_ex.c **** }
 1473              		.loc 1 647 28 is_stmt 0 view .LVU513
 1474 0016 124B     		ldr	r3, .L98
 1475 0018 0022     		movs	r2, #0
 1476 001a 1A77     		strb	r2, [r3, #28]
 648:Drivers/STM32G4xx_HAL_Driver/Src/stm32g4xx_hal_flash_ex.c **** 
 1477              		.loc 1 648 1 view .LVU514
 1478 001c 7047     		bx	lr
 1479              	.LVL136:
 1480              	.L96:
 629:Drivers/STM32G4xx_HAL_Driver/Src/stm32g4xx_hal_flash_ex.c ****     /* Reset instruction cache */
 1481              		.loc 1 629 5 is_stmt 1 view .LVU515
 1482 001e 114A     		ldr	r2, .L98+4
 1483 0020 1168     		ldr	r1, [r2]
 1484 0022 21F40071 		bic	r1, r1, #512
 1485 0026 1160     		str	r1, [r2]
 631:Drivers/STM32G4xx_HAL_Driver/Src/stm32g4xx_hal_flash_ex.c ****     /* Enable instruction cache */
 1486              		.loc 1 631 5 view .LVU516
 631:Drivers/STM32G4xx_HAL_Driver/Src/stm32g4xx_hal_flash_ex.c ****     /* Enable instruction cache */
 1487              		.loc 1 631 5 view .LVU517
 1488 0028 1168     		ldr	r1, [r2]
 1489 002a 41F40061 		orr	r1, r1, #2048
 1490 002e 1160     		str	r1, [r2]
 631:Drivers/STM32G4xx_HAL_Driver/Src/stm32g4xx_hal_flash_ex.c ****     /* Enable instruction cache */
 1491              		.loc 1 631 5 view .LVU518
 1492 0030 1168     		ldr	r1, [r2]
 1493 0032 21F40061 		bic	r1, r1, #2048
 1494 0036 1160     		str	r1, [r2]
 631:Drivers/STM32G4xx_HAL_Driver/Src/stm32g4xx_hal_flash_ex.c ****     /* Enable instruction cache */
 1495              		.loc 1 631 5 view .LVU519
 633:Drivers/STM32G4xx_HAL_Driver/Src/stm32g4xx_hal_flash_ex.c ****   }
ARM GAS  /tmp/ccBOcut4.s 			page 56


 1496              		.loc 1 633 5 view .LVU520
 1497 0038 1168     		ldr	r1, [r2]
 1498 003a 41F40071 		orr	r1, r1, #512
 1499 003e 1160     		str	r1, [r2]
 1500 0040 E5E7     		b	.L94
 1501              	.LVL137:
 1502              	.L97:
 641:Drivers/STM32G4xx_HAL_Driver/Src/stm32g4xx_hal_flash_ex.c ****     /* Enable data cache */
 1503              		.loc 1 641 5 view .LVU521
 641:Drivers/STM32G4xx_HAL_Driver/Src/stm32g4xx_hal_flash_ex.c ****     /* Enable data cache */
 1504              		.loc 1 641 5 view .LVU522
 1505 0042 084B     		ldr	r3, .L98+4
 1506 0044 1A68     		ldr	r2, [r3]
 1507 0046 42F48052 		orr	r2, r2, #4096
 1508 004a 1A60     		str	r2, [r3]
 641:Drivers/STM32G4xx_HAL_Driver/Src/stm32g4xx_hal_flash_ex.c ****     /* Enable data cache */
 1509              		.loc 1 641 5 view .LVU523
 1510 004c 1A68     		ldr	r2, [r3]
 1511 004e 22F48052 		bic	r2, r2, #4096
 1512 0052 1A60     		str	r2, [r3]
 641:Drivers/STM32G4xx_HAL_Driver/Src/stm32g4xx_hal_flash_ex.c ****     /* Enable data cache */
 1513              		.loc 1 641 5 view .LVU524
 643:Drivers/STM32G4xx_HAL_Driver/Src/stm32g4xx_hal_flash_ex.c ****   }
 1514              		.loc 1 643 5 view .LVU525
 1515 0054 1A68     		ldr	r2, [r3]
 1516 0056 42F48062 		orr	r2, r2, #1024
 1517 005a 1A60     		str	r2, [r3]
 1518 005c DBE7     		b	.L95
 1519              	.L99:
 1520 005e 00BF     		.align	2
 1521              	.L98:
 1522 0060 00000000 		.word	pFlash
 1523 0064 00200240 		.word	1073881088
 1524              		.cfi_endproc
 1525              	.LFE141:
 1527              		.section	.text.HAL_FLASHEx_Erase,"ax",%progbits
 1528              		.align	1
 1529              		.global	HAL_FLASHEx_Erase
 1530              		.syntax unified
 1531              		.thumb
 1532              		.thumb_func
 1533              		.fpu fpv4-sp-d16
 1535              	HAL_FLASHEx_Erase:
 1536              	.LVL138:
 1537              	.LFB132:
 139:Drivers/STM32G4xx_HAL_Driver/Src/stm32g4xx_hal_flash_ex.c ****   HAL_StatusTypeDef status;
 1538              		.loc 1 139 1 view -0
 1539              		.cfi_startproc
 1540              		@ args = 0, pretend = 0, frame = 0
 1541              		@ frame_needed = 0, uses_anonymous_args = 0
 139:Drivers/STM32G4xx_HAL_Driver/Src/stm32g4xx_hal_flash_ex.c ****   HAL_StatusTypeDef status;
 1542              		.loc 1 139 1 is_stmt 0 view .LVU527
 1543 0000 2DE9F843 		push	{r3, r4, r5, r6, r7, r8, r9, lr}
 1544              	.LCFI3:
 1545              		.cfi_def_cfa_offset 32
 1546              		.cfi_offset 3, -32
 1547              		.cfi_offset 4, -28
ARM GAS  /tmp/ccBOcut4.s 			page 57


 1548              		.cfi_offset 5, -24
 1549              		.cfi_offset 6, -20
 1550              		.cfi_offset 7, -16
 1551              		.cfi_offset 8, -12
 1552              		.cfi_offset 9, -8
 1553              		.cfi_offset 14, -4
 140:Drivers/STM32G4xx_HAL_Driver/Src/stm32g4xx_hal_flash_ex.c ****   uint32_t page_index;
 1554              		.loc 1 140 3 is_stmt 1 view .LVU528
 141:Drivers/STM32G4xx_HAL_Driver/Src/stm32g4xx_hal_flash_ex.c **** 
 1555              		.loc 1 141 3 view .LVU529
 144:Drivers/STM32G4xx_HAL_Driver/Src/stm32g4xx_hal_flash_ex.c **** 
 1556              		.loc 1 144 3 view .LVU530
 147:Drivers/STM32G4xx_HAL_Driver/Src/stm32g4xx_hal_flash_ex.c **** 
 1557              		.loc 1 147 3 view .LVU531
 147:Drivers/STM32G4xx_HAL_Driver/Src/stm32g4xx_hal_flash_ex.c **** 
 1558              		.loc 1 147 3 view .LVU532
 1559 0004 3B4B     		ldr	r3, .L116
 1560 0006 1B78     		ldrb	r3, [r3]	@ zero_extendqisi2
 1561 0008 012B     		cmp	r3, #1
 1562 000a 6FD0     		beq	.L111
 1563 000c 0446     		mov	r4, r0
 1564 000e 0F46     		mov	r7, r1
 147:Drivers/STM32G4xx_HAL_Driver/Src/stm32g4xx_hal_flash_ex.c **** 
 1565              		.loc 1 147 3 discriminator 2 view .LVU533
 1566 0010 384B     		ldr	r3, .L116
 1567 0012 0122     		movs	r2, #1
 1568 0014 1A70     		strb	r2, [r3]
 147:Drivers/STM32G4xx_HAL_Driver/Src/stm32g4xx_hal_flash_ex.c **** 
 1569              		.loc 1 147 3 discriminator 2 view .LVU534
 150:Drivers/STM32G4xx_HAL_Driver/Src/stm32g4xx_hal_flash_ex.c **** 
 1570              		.loc 1 150 3 discriminator 2 view .LVU535
 150:Drivers/STM32G4xx_HAL_Driver/Src/stm32g4xx_hal_flash_ex.c **** 
 1571              		.loc 1 150 12 is_stmt 0 discriminator 2 view .LVU536
 1572 0016 4FF47A70 		mov	r0, #1000
 1573              	.LVL139:
 150:Drivers/STM32G4xx_HAL_Driver/Src/stm32g4xx_hal_flash_ex.c **** 
 1574              		.loc 1 150 12 discriminator 2 view .LVU537
 1575 001a FFF7FEFF 		bl	FLASH_WaitForLastOperation
 1576              	.LVL140:
 152:Drivers/STM32G4xx_HAL_Driver/Src/stm32g4xx_hal_flash_ex.c ****   {
 1577              		.loc 1 152 3 is_stmt 1 discriminator 2 view .LVU538
 152:Drivers/STM32G4xx_HAL_Driver/Src/stm32g4xx_hal_flash_ex.c ****   {
 1578              		.loc 1 152 6 is_stmt 0 discriminator 2 view .LVU539
 1579 001e 8146     		mov	r9, r0
 1580 0020 0028     		cmp	r0, #0
 1581 0022 5DD1     		bne	.L102
 154:Drivers/STM32G4xx_HAL_Driver/Src/stm32g4xx_hal_flash_ex.c **** 
 1582              		.loc 1 154 5 is_stmt 1 view .LVU540
 154:Drivers/STM32G4xx_HAL_Driver/Src/stm32g4xx_hal_flash_ex.c **** 
 1583              		.loc 1 154 22 is_stmt 0 view .LVU541
 1584 0024 334B     		ldr	r3, .L116
 1585 0026 0022     		movs	r2, #0
 1586 0028 5A60     		str	r2, [r3, #4]
 157:Drivers/STM32G4xx_HAL_Driver/Src/stm32g4xx_hal_flash_ex.c ****     {
 1587              		.loc 1 157 5 is_stmt 1 view .LVU542
 157:Drivers/STM32G4xx_HAL_Driver/Src/stm32g4xx_hal_flash_ex.c ****     {
 1588              		.loc 1 157 9 is_stmt 0 view .LVU543
ARM GAS  /tmp/ccBOcut4.s 			page 58


 1589 002a 334B     		ldr	r3, .L116+4
 1590 002c 1B68     		ldr	r3, [r3]
 157:Drivers/STM32G4xx_HAL_Driver/Src/stm32g4xx_hal_flash_ex.c ****     {
 1591              		.loc 1 157 8 view .LVU544
 1592 002e 13F4007F 		tst	r3, #512
 1593 0032 32D0     		beq	.L103
 159:Drivers/STM32G4xx_HAL_Driver/Src/stm32g4xx_hal_flash_ex.c ****       {
 1594              		.loc 1 159 7 is_stmt 1 view .LVU545
 159:Drivers/STM32G4xx_HAL_Driver/Src/stm32g4xx_hal_flash_ex.c ****       {
 1595              		.loc 1 159 11 is_stmt 0 view .LVU546
 1596 0034 304B     		ldr	r3, .L116+4
 1597 0036 1B68     		ldr	r3, [r3]
 159:Drivers/STM32G4xx_HAL_Driver/Src/stm32g4xx_hal_flash_ex.c ****       {
 1598              		.loc 1 159 10 view .LVU547
 1599 0038 13F4806F 		tst	r3, #1024
 1600 003c 29D0     		beq	.L104
 162:Drivers/STM32G4xx_HAL_Driver/Src/stm32g4xx_hal_flash_ex.c ****         pFlash.CacheToReactivate = FLASH_CACHE_ICACHE_DCACHE_ENABLED;
 1601              		.loc 1 162 9 is_stmt 1 view .LVU548
 1602 003e 2E4A     		ldr	r2, .L116+4
 1603 0040 1368     		ldr	r3, [r2]
 1604 0042 23F48063 		bic	r3, r3, #1024
 1605 0046 1360     		str	r3, [r2]
 163:Drivers/STM32G4xx_HAL_Driver/Src/stm32g4xx_hal_flash_ex.c ****       }
 1606              		.loc 1 163 9 view .LVU549
 163:Drivers/STM32G4xx_HAL_Driver/Src/stm32g4xx_hal_flash_ex.c ****       }
 1607              		.loc 1 163 34 is_stmt 0 view .LVU550
 1608 0048 2A4B     		ldr	r3, .L116
 1609 004a 0322     		movs	r2, #3
 1610 004c 1A77     		strb	r2, [r3, #28]
 1611              	.L105:
 181:Drivers/STM32G4xx_HAL_Driver/Src/stm32g4xx_hal_flash_ex.c ****     {
 1612              		.loc 1 181 5 is_stmt 1 view .LVU551
 181:Drivers/STM32G4xx_HAL_Driver/Src/stm32g4xx_hal_flash_ex.c ****     {
 1613              		.loc 1 181 8 is_stmt 0 view .LVU552
 1614 004e 2368     		ldr	r3, [r4]
 1615 0050 012B     		cmp	r3, #1
 1616 0052 34D0     		beq	.L114
 200:Drivers/STM32G4xx_HAL_Driver/Src/stm32g4xx_hal_flash_ex.c **** 
 1617              		.loc 1 200 7 is_stmt 1 view .LVU553
 200:Drivers/STM32G4xx_HAL_Driver/Src/stm32g4xx_hal_flash_ex.c **** 
 1618              		.loc 1 200 18 is_stmt 0 view .LVU554
 1619 0054 4FF0FF33 		mov	r3, #-1
 1620 0058 3B60     		str	r3, [r7]
 202:Drivers/STM32G4xx_HAL_Driver/Src/stm32g4xx_hal_flash_ex.c ****       {
 1621              		.loc 1 202 7 is_stmt 1 view .LVU555
 202:Drivers/STM32G4xx_HAL_Driver/Src/stm32g4xx_hal_flash_ex.c ****       {
 1622              		.loc 1 202 23 is_stmt 0 view .LVU556
 1623 005a A568     		ldr	r5, [r4, #8]
 1624              	.LVL141:
 202:Drivers/STM32G4xx_HAL_Driver/Src/stm32g4xx_hal_flash_ex.c ****       {
 1625              		.loc 1 202 43 is_stmt 1 view .LVU557
 202:Drivers/STM32G4xx_HAL_Driver/Src/stm32g4xx_hal_flash_ex.c ****       {
 1626              		.loc 1 202 74 is_stmt 0 view .LVU558
 1627 005c E368     		ldr	r3, [r4, #12]
 1628 005e 2B44     		add	r3, r3, r5
 202:Drivers/STM32G4xx_HAL_Driver/Src/stm32g4xx_hal_flash_ex.c ****       {
 1629              		.loc 1 202 7 view .LVU559
ARM GAS  /tmp/ccBOcut4.s 			page 59


 1630 0060 9D42     		cmp	r5, r3
 1631 0062 3BD2     		bcs	.L108
 207:Drivers/STM32G4xx_HAL_Driver/Src/stm32g4xx_hal_flash_ex.c **** 
 1632              		.loc 1 207 18 view .LVU560
 1633 0064 4FF47A78 		mov	r8, #1000
 210:Drivers/STM32G4xx_HAL_Driver/Src/stm32g4xx_hal_flash_ex.c **** 
 1634              		.loc 1 210 9 view .LVU561
 1635 0068 234E     		ldr	r6, .L116+4
 1636              	.L110:
 204:Drivers/STM32G4xx_HAL_Driver/Src/stm32g4xx_hal_flash_ex.c **** 
 1637              		.loc 1 204 9 is_stmt 1 view .LVU562
 1638 006a 6168     		ldr	r1, [r4, #4]
 1639 006c 2846     		mov	r0, r5
 1640 006e FFF7FEFF 		bl	FLASH_PageErase
 1641              	.LVL142:
 207:Drivers/STM32G4xx_HAL_Driver/Src/stm32g4xx_hal_flash_ex.c **** 
 1642              		.loc 1 207 9 view .LVU563
 207:Drivers/STM32G4xx_HAL_Driver/Src/stm32g4xx_hal_flash_ex.c **** 
 1643              		.loc 1 207 18 is_stmt 0 view .LVU564
 1644 0072 4046     		mov	r0, r8
 1645 0074 FFF7FEFF 		bl	FLASH_WaitForLastOperation
 1646              	.LVL143:
 210:Drivers/STM32G4xx_HAL_Driver/Src/stm32g4xx_hal_flash_ex.c **** 
 1647              		.loc 1 210 9 is_stmt 1 view .LVU565
 1648 0078 7369     		ldr	r3, [r6, #20]
 1649 007a 23F4FD73 		bic	r3, r3, #506
 1650 007e 7361     		str	r3, [r6, #20]
 212:Drivers/STM32G4xx_HAL_Driver/Src/stm32g4xx_hal_flash_ex.c ****         {
 1651              		.loc 1 212 9 view .LVU566
 212:Drivers/STM32G4xx_HAL_Driver/Src/stm32g4xx_hal_flash_ex.c ****         {
 1652              		.loc 1 212 12 is_stmt 0 view .LVU567
 1653 0080 8146     		mov	r9, r0
 1654 0082 50BB     		cbnz	r0, .L115
 202:Drivers/STM32G4xx_HAL_Driver/Src/stm32g4xx_hal_flash_ex.c ****       {
 1655              		.loc 1 202 98 is_stmt 1 discriminator 2 view .LVU568
 202:Drivers/STM32G4xx_HAL_Driver/Src/stm32g4xx_hal_flash_ex.c ****       {
 1656              		.loc 1 202 108 is_stmt 0 discriminator 2 view .LVU569
 1657 0084 0135     		adds	r5, r5, #1
 1658              	.LVL144:
 202:Drivers/STM32G4xx_HAL_Driver/Src/stm32g4xx_hal_flash_ex.c ****       {
 1659              		.loc 1 202 43 is_stmt 1 discriminator 2 view .LVU570
 202:Drivers/STM32G4xx_HAL_Driver/Src/stm32g4xx_hal_flash_ex.c ****       {
 1660              		.loc 1 202 74 is_stmt 0 discriminator 2 view .LVU571
 1661 0086 A368     		ldr	r3, [r4, #8]
 1662 0088 E268     		ldr	r2, [r4, #12]
 1663 008a 1344     		add	r3, r3, r2
 202:Drivers/STM32G4xx_HAL_Driver/Src/stm32g4xx_hal_flash_ex.c ****       {
 1664              		.loc 1 202 7 discriminator 2 view .LVU572
 1665 008c AB42     		cmp	r3, r5
 1666 008e ECD8     		bhi	.L110
 1667 0090 24E0     		b	.L108
 1668              	.LVL145:
 1669              	.L104:
 167:Drivers/STM32G4xx_HAL_Driver/Src/stm32g4xx_hal_flash_ex.c ****       }
 1670              		.loc 1 167 9 is_stmt 1 view .LVU573
 167:Drivers/STM32G4xx_HAL_Driver/Src/stm32g4xx_hal_flash_ex.c ****       }
 1671              		.loc 1 167 34 is_stmt 0 view .LVU574
ARM GAS  /tmp/ccBOcut4.s 			page 60


 1672 0092 184B     		ldr	r3, .L116
 1673 0094 0122     		movs	r2, #1
 1674 0096 1A77     		strb	r2, [r3, #28]
 1675 0098 D9E7     		b	.L105
 1676              	.L103:
 170:Drivers/STM32G4xx_HAL_Driver/Src/stm32g4xx_hal_flash_ex.c ****     {
 1677              		.loc 1 170 10 is_stmt 1 view .LVU575
 170:Drivers/STM32G4xx_HAL_Driver/Src/stm32g4xx_hal_flash_ex.c ****     {
 1678              		.loc 1 170 14 is_stmt 0 view .LVU576
 1679 009a 174B     		ldr	r3, .L116+4
 1680 009c 1B68     		ldr	r3, [r3]
 170:Drivers/STM32G4xx_HAL_Driver/Src/stm32g4xx_hal_flash_ex.c ****     {
 1681              		.loc 1 170 13 view .LVU577
 1682 009e 13F4806F 		tst	r3, #1024
 1683 00a2 08D0     		beq	.L106
 173:Drivers/STM32G4xx_HAL_Driver/Src/stm32g4xx_hal_flash_ex.c ****       pFlash.CacheToReactivate = FLASH_CACHE_DCACHE_ENABLED;
 1684              		.loc 1 173 7 is_stmt 1 view .LVU578
 1685 00a4 144A     		ldr	r2, .L116+4
 1686 00a6 1368     		ldr	r3, [r2]
 1687 00a8 23F48063 		bic	r3, r3, #1024
 1688 00ac 1360     		str	r3, [r2]
 174:Drivers/STM32G4xx_HAL_Driver/Src/stm32g4xx_hal_flash_ex.c ****     }
 1689              		.loc 1 174 7 view .LVU579
 174:Drivers/STM32G4xx_HAL_Driver/Src/stm32g4xx_hal_flash_ex.c ****     }
 1690              		.loc 1 174 32 is_stmt 0 view .LVU580
 1691 00ae 114B     		ldr	r3, .L116
 1692 00b0 0222     		movs	r2, #2
 1693 00b2 1A77     		strb	r2, [r3, #28]
 1694 00b4 CBE7     		b	.L105
 1695              	.L106:
 178:Drivers/STM32G4xx_HAL_Driver/Src/stm32g4xx_hal_flash_ex.c ****     }
 1696              		.loc 1 178 7 is_stmt 1 view .LVU581
 178:Drivers/STM32G4xx_HAL_Driver/Src/stm32g4xx_hal_flash_ex.c ****     }
 1697              		.loc 1 178 32 is_stmt 0 view .LVU582
 1698 00b6 0F4B     		ldr	r3, .L116
 1699 00b8 0022     		movs	r2, #0
 1700 00ba 1A77     		strb	r2, [r3, #28]
 1701 00bc C7E7     		b	.L105
 1702              	.L114:
 184:Drivers/STM32G4xx_HAL_Driver/Src/stm32g4xx_hal_flash_ex.c **** 
 1703              		.loc 1 184 7 is_stmt 1 view .LVU583
 1704 00be 6068     		ldr	r0, [r4, #4]
 1705              	.LVL146:
 184:Drivers/STM32G4xx_HAL_Driver/Src/stm32g4xx_hal_flash_ex.c **** 
 1706              		.loc 1 184 7 is_stmt 0 view .LVU584
 1707 00c0 FFF7FEFF 		bl	FLASH_MassErase
 1708              	.LVL147:
 187:Drivers/STM32G4xx_HAL_Driver/Src/stm32g4xx_hal_flash_ex.c **** 
 1709              		.loc 1 187 7 is_stmt 1 view .LVU585
 187:Drivers/STM32G4xx_HAL_Driver/Src/stm32g4xx_hal_flash_ex.c **** 
 1710              		.loc 1 187 16 is_stmt 0 view .LVU586
 1711 00c4 4FF47A70 		mov	r0, #1000
 1712 00c8 FFF7FEFF 		bl	FLASH_WaitForLastOperation
 1713              	.LVL148:
 1714 00cc 8146     		mov	r9, r0
 1715              	.LVL149:
 194:Drivers/STM32G4xx_HAL_Driver/Src/stm32g4xx_hal_flash_ex.c **** #endif
ARM GAS  /tmp/ccBOcut4.s 			page 61


 1716              		.loc 1 194 7 is_stmt 1 view .LVU587
 1717 00ce 0A4A     		ldr	r2, .L116+4
 1718 00d0 5369     		ldr	r3, [r2, #20]
 1719 00d2 23F00403 		bic	r3, r3, #4
 1720 00d6 5361     		str	r3, [r2, #20]
 1721 00d8 00E0     		b	.L108
 1722              	.LVL150:
 1723              	.L115:
 215:Drivers/STM32G4xx_HAL_Driver/Src/stm32g4xx_hal_flash_ex.c ****           break;
 1724              		.loc 1 215 11 view .LVU588
 215:Drivers/STM32G4xx_HAL_Driver/Src/stm32g4xx_hal_flash_ex.c ****           break;
 1725              		.loc 1 215 22 is_stmt 0 view .LVU589
 1726 00da 3D60     		str	r5, [r7]
 216:Drivers/STM32G4xx_HAL_Driver/Src/stm32g4xx_hal_flash_ex.c ****         }
 1727              		.loc 1 216 11 is_stmt 1 view .LVU590
 1728              	.LVL151:
 1729              	.L108:
 222:Drivers/STM32G4xx_HAL_Driver/Src/stm32g4xx_hal_flash_ex.c ****   }
 1730              		.loc 1 222 5 view .LVU591
 1731 00dc FFF7FEFF 		bl	FLASH_FlushCaches
 1732              	.LVL152:
 1733              	.L102:
 226:Drivers/STM32G4xx_HAL_Driver/Src/stm32g4xx_hal_flash_ex.c **** 
 1734              		.loc 1 226 3 view .LVU592
 226:Drivers/STM32G4xx_HAL_Driver/Src/stm32g4xx_hal_flash_ex.c **** 
 1735              		.loc 1 226 3 view .LVU593
 1736 00e0 044B     		ldr	r3, .L116
 1737 00e2 0022     		movs	r2, #0
 1738 00e4 1A70     		strb	r2, [r3]
 226:Drivers/STM32G4xx_HAL_Driver/Src/stm32g4xx_hal_flash_ex.c **** 
 1739              		.loc 1 226 3 view .LVU594
 228:Drivers/STM32G4xx_HAL_Driver/Src/stm32g4xx_hal_flash_ex.c **** }
 1740              		.loc 1 228 3 view .LVU595
 1741              	.LVL153:
 1742              	.L101:
 229:Drivers/STM32G4xx_HAL_Driver/Src/stm32g4xx_hal_flash_ex.c **** 
 1743              		.loc 1 229 1 is_stmt 0 view .LVU596
 1744 00e6 4846     		mov	r0, r9
 1745 00e8 BDE8F883 		pop	{r3, r4, r5, r6, r7, r8, r9, pc}
 1746              	.LVL154:
 1747              	.L111:
 147:Drivers/STM32G4xx_HAL_Driver/Src/stm32g4xx_hal_flash_ex.c **** 
 1748              		.loc 1 147 3 view .LVU597
 1749 00ec 4FF00209 		mov	r9, #2
 1750 00f0 F9E7     		b	.L101
 1751              	.L117:
 1752 00f2 00BF     		.align	2
 1753              	.L116:
 1754 00f4 00000000 		.word	pFlash
 1755 00f8 00200240 		.word	1073881088
 1756              		.cfi_endproc
 1757              	.LFE132:
 1759              		.text
 1760              	.Letext0:
 1761              		.file 2 "/usr/share/gcc-arm-none-eabi-10-2020-q4-major/arm-none-eabi/include/machine/_default_type
 1762              		.file 3 "/usr/share/gcc-arm-none-eabi-10-2020-q4-major/arm-none-eabi/include/sys/_stdint.h"
 1763              		.file 4 "Drivers/CMSIS/Device/ST/STM32G4xx/Include/stm32g431xx.h"
ARM GAS  /tmp/ccBOcut4.s 			page 62


 1764              		.file 5 "Drivers/STM32G4xx_HAL_Driver/Inc/stm32g4xx_hal_def.h"
 1765              		.file 6 "Drivers/STM32G4xx_HAL_Driver/Inc/stm32g4xx_hal_flash.h"
ARM GAS  /tmp/ccBOcut4.s 			page 63

