ARM GAS  /tmp/ccweegFn.s 			page 1


   1              		.cpu cortex-m4
   2              		.eabi_attribute 27, 1
   3              		.eabi_attribute 28, 1
   4              		.eabi_attribute 20, 1
   5              		.eabi_attribute 21, 1
   6              		.eabi_attribute 23, 3
   7              		.eabi_attribute 24, 1
   8              		.eabi_attribute 25, 1
   9              		.eabi_attribute 26, 1
  10              		.eabi_attribute 30, 6
  11              		.eabi_attribute 34, 1
  12              		.eabi_attribute 18, 2
  13              		.file	"stm32g4xx_ll_utils.c"
  14              		.text
  15              	.Ltext0:
  16              		.cfi_sections	.debug_frame
  17              		.section	.text.LL_InitTick,"ax",%progbits
  18              		.align	1
  19              		.arch armv7e-m
  20              		.syntax unified
  21              		.thumb
  22              		.thumb_func
  23              		.fpu fpv4-sp-d16
  25              	LL_InitTick:
  26              	.LFB137:
  27              		.file 1 "Drivers/STM32G4xx_HAL_Driver/Inc/stm32g4xx_ll_utils.h"
   1:Drivers/STM32G4xx_HAL_Driver/Inc/stm32g4xx_ll_utils.h **** /**
   2:Drivers/STM32G4xx_HAL_Driver/Inc/stm32g4xx_ll_utils.h ****   ******************************************************************************
   3:Drivers/STM32G4xx_HAL_Driver/Inc/stm32g4xx_ll_utils.h ****   * @file    stm32g4xx_ll_utils.h
   4:Drivers/STM32G4xx_HAL_Driver/Inc/stm32g4xx_ll_utils.h ****   * @author  MCD Application Team
   5:Drivers/STM32G4xx_HAL_Driver/Inc/stm32g4xx_ll_utils.h ****   * @brief   Header file of UTILS LL module.
   6:Drivers/STM32G4xx_HAL_Driver/Inc/stm32g4xx_ll_utils.h ****   ******************************************************************************
   7:Drivers/STM32G4xx_HAL_Driver/Inc/stm32g4xx_ll_utils.h ****   * @attention
   8:Drivers/STM32G4xx_HAL_Driver/Inc/stm32g4xx_ll_utils.h ****   *
   9:Drivers/STM32G4xx_HAL_Driver/Inc/stm32g4xx_ll_utils.h ****   * Copyright (c) 2019 STMicroelectronics.
  10:Drivers/STM32G4xx_HAL_Driver/Inc/stm32g4xx_ll_utils.h ****   * All rights reserved.
  11:Drivers/STM32G4xx_HAL_Driver/Inc/stm32g4xx_ll_utils.h ****   *
  12:Drivers/STM32G4xx_HAL_Driver/Inc/stm32g4xx_ll_utils.h ****   * This software is licensed under terms that can be found in the LICENSE file
  13:Drivers/STM32G4xx_HAL_Driver/Inc/stm32g4xx_ll_utils.h ****   * in the root directory of this software component.
  14:Drivers/STM32G4xx_HAL_Driver/Inc/stm32g4xx_ll_utils.h ****   * If no LICENSE file comes with this software, it is provided AS-IS.
  15:Drivers/STM32G4xx_HAL_Driver/Inc/stm32g4xx_ll_utils.h ****   *
  16:Drivers/STM32G4xx_HAL_Driver/Inc/stm32g4xx_ll_utils.h ****   ******************************************************************************
  17:Drivers/STM32G4xx_HAL_Driver/Inc/stm32g4xx_ll_utils.h ****   @verbatim
  18:Drivers/STM32G4xx_HAL_Driver/Inc/stm32g4xx_ll_utils.h ****   ==============================================================================
  19:Drivers/STM32G4xx_HAL_Driver/Inc/stm32g4xx_ll_utils.h ****                      ##### How to use this driver #####
  20:Drivers/STM32G4xx_HAL_Driver/Inc/stm32g4xx_ll_utils.h ****   ==============================================================================
  21:Drivers/STM32G4xx_HAL_Driver/Inc/stm32g4xx_ll_utils.h ****     [..]
  22:Drivers/STM32G4xx_HAL_Driver/Inc/stm32g4xx_ll_utils.h ****     The LL UTILS driver contains a set of generic APIs that can be
  23:Drivers/STM32G4xx_HAL_Driver/Inc/stm32g4xx_ll_utils.h ****     used by user:
  24:Drivers/STM32G4xx_HAL_Driver/Inc/stm32g4xx_ll_utils.h ****       (+) Device electronic signature
  25:Drivers/STM32G4xx_HAL_Driver/Inc/stm32g4xx_ll_utils.h ****       (+) Timing functions
  26:Drivers/STM32G4xx_HAL_Driver/Inc/stm32g4xx_ll_utils.h ****       (+) PLL configuration functions
  27:Drivers/STM32G4xx_HAL_Driver/Inc/stm32g4xx_ll_utils.h **** 
  28:Drivers/STM32G4xx_HAL_Driver/Inc/stm32g4xx_ll_utils.h ****   @endverbatim
  29:Drivers/STM32G4xx_HAL_Driver/Inc/stm32g4xx_ll_utils.h ****   */
  30:Drivers/STM32G4xx_HAL_Driver/Inc/stm32g4xx_ll_utils.h **** 
  31:Drivers/STM32G4xx_HAL_Driver/Inc/stm32g4xx_ll_utils.h **** /* Define to prevent recursive inclusion -------------------------------------*/
ARM GAS  /tmp/ccweegFn.s 			page 2


  32:Drivers/STM32G4xx_HAL_Driver/Inc/stm32g4xx_ll_utils.h **** #ifndef STM32G4xx_LL_UTILS_H
  33:Drivers/STM32G4xx_HAL_Driver/Inc/stm32g4xx_ll_utils.h **** #define STM32G4xx_LL_UTILS_H
  34:Drivers/STM32G4xx_HAL_Driver/Inc/stm32g4xx_ll_utils.h **** 
  35:Drivers/STM32G4xx_HAL_Driver/Inc/stm32g4xx_ll_utils.h **** #ifdef __cplusplus
  36:Drivers/STM32G4xx_HAL_Driver/Inc/stm32g4xx_ll_utils.h **** extern "C" {
  37:Drivers/STM32G4xx_HAL_Driver/Inc/stm32g4xx_ll_utils.h **** #endif
  38:Drivers/STM32G4xx_HAL_Driver/Inc/stm32g4xx_ll_utils.h **** 
  39:Drivers/STM32G4xx_HAL_Driver/Inc/stm32g4xx_ll_utils.h **** /* Includes ------------------------------------------------------------------*/
  40:Drivers/STM32G4xx_HAL_Driver/Inc/stm32g4xx_ll_utils.h **** #include "stm32g4xx.h"
  41:Drivers/STM32G4xx_HAL_Driver/Inc/stm32g4xx_ll_utils.h **** 
  42:Drivers/STM32G4xx_HAL_Driver/Inc/stm32g4xx_ll_utils.h **** /** @addtogroup STM32G4xx_LL_Driver
  43:Drivers/STM32G4xx_HAL_Driver/Inc/stm32g4xx_ll_utils.h ****   * @{
  44:Drivers/STM32G4xx_HAL_Driver/Inc/stm32g4xx_ll_utils.h ****   */
  45:Drivers/STM32G4xx_HAL_Driver/Inc/stm32g4xx_ll_utils.h **** 
  46:Drivers/STM32G4xx_HAL_Driver/Inc/stm32g4xx_ll_utils.h **** /** @defgroup UTILS_LL UTILS
  47:Drivers/STM32G4xx_HAL_Driver/Inc/stm32g4xx_ll_utils.h ****   * @{
  48:Drivers/STM32G4xx_HAL_Driver/Inc/stm32g4xx_ll_utils.h ****   */
  49:Drivers/STM32G4xx_HAL_Driver/Inc/stm32g4xx_ll_utils.h **** 
  50:Drivers/STM32G4xx_HAL_Driver/Inc/stm32g4xx_ll_utils.h **** /* Private types -------------------------------------------------------------*/
  51:Drivers/STM32G4xx_HAL_Driver/Inc/stm32g4xx_ll_utils.h **** /* Private variables ---------------------------------------------------------*/
  52:Drivers/STM32G4xx_HAL_Driver/Inc/stm32g4xx_ll_utils.h **** 
  53:Drivers/STM32G4xx_HAL_Driver/Inc/stm32g4xx_ll_utils.h **** /* Private constants ---------------------------------------------------------*/
  54:Drivers/STM32G4xx_HAL_Driver/Inc/stm32g4xx_ll_utils.h **** /** @defgroup UTILS_LL_Private_Constants UTILS Private Constants
  55:Drivers/STM32G4xx_HAL_Driver/Inc/stm32g4xx_ll_utils.h ****   * @{
  56:Drivers/STM32G4xx_HAL_Driver/Inc/stm32g4xx_ll_utils.h ****   */
  57:Drivers/STM32G4xx_HAL_Driver/Inc/stm32g4xx_ll_utils.h **** 
  58:Drivers/STM32G4xx_HAL_Driver/Inc/stm32g4xx_ll_utils.h **** /* Max delay can be used in LL_mDelay */
  59:Drivers/STM32G4xx_HAL_Driver/Inc/stm32g4xx_ll_utils.h **** #define LL_MAX_DELAY                  0xFFFFFFFFU
  60:Drivers/STM32G4xx_HAL_Driver/Inc/stm32g4xx_ll_utils.h **** 
  61:Drivers/STM32G4xx_HAL_Driver/Inc/stm32g4xx_ll_utils.h **** /**
  62:Drivers/STM32G4xx_HAL_Driver/Inc/stm32g4xx_ll_utils.h ****  * @brief Unique device ID register base address
  63:Drivers/STM32G4xx_HAL_Driver/Inc/stm32g4xx_ll_utils.h ****  */
  64:Drivers/STM32G4xx_HAL_Driver/Inc/stm32g4xx_ll_utils.h **** #define UID_BASE_ADDRESS              UID_BASE
  65:Drivers/STM32G4xx_HAL_Driver/Inc/stm32g4xx_ll_utils.h **** 
  66:Drivers/STM32G4xx_HAL_Driver/Inc/stm32g4xx_ll_utils.h **** /**
  67:Drivers/STM32G4xx_HAL_Driver/Inc/stm32g4xx_ll_utils.h ****  * @brief Flash size data register base address
  68:Drivers/STM32G4xx_HAL_Driver/Inc/stm32g4xx_ll_utils.h ****  */
  69:Drivers/STM32G4xx_HAL_Driver/Inc/stm32g4xx_ll_utils.h **** #define FLASHSIZE_BASE_ADDRESS        FLASHSIZE_BASE
  70:Drivers/STM32G4xx_HAL_Driver/Inc/stm32g4xx_ll_utils.h **** 
  71:Drivers/STM32G4xx_HAL_Driver/Inc/stm32g4xx_ll_utils.h **** /**
  72:Drivers/STM32G4xx_HAL_Driver/Inc/stm32g4xx_ll_utils.h ****  * @brief Package data register base address
  73:Drivers/STM32G4xx_HAL_Driver/Inc/stm32g4xx_ll_utils.h ****  */
  74:Drivers/STM32G4xx_HAL_Driver/Inc/stm32g4xx_ll_utils.h **** #define PACKAGE_BASE_ADDRESS          PACKAGE_BASE
  75:Drivers/STM32G4xx_HAL_Driver/Inc/stm32g4xx_ll_utils.h **** 
  76:Drivers/STM32G4xx_HAL_Driver/Inc/stm32g4xx_ll_utils.h **** /**
  77:Drivers/STM32G4xx_HAL_Driver/Inc/stm32g4xx_ll_utils.h ****   * @}
  78:Drivers/STM32G4xx_HAL_Driver/Inc/stm32g4xx_ll_utils.h ****   */
  79:Drivers/STM32G4xx_HAL_Driver/Inc/stm32g4xx_ll_utils.h **** 
  80:Drivers/STM32G4xx_HAL_Driver/Inc/stm32g4xx_ll_utils.h **** /* Private macros ------------------------------------------------------------*/
  81:Drivers/STM32G4xx_HAL_Driver/Inc/stm32g4xx_ll_utils.h **** /** @defgroup UTILS_LL_Private_Macros UTILS Private Macros
  82:Drivers/STM32G4xx_HAL_Driver/Inc/stm32g4xx_ll_utils.h ****   * @{
  83:Drivers/STM32G4xx_HAL_Driver/Inc/stm32g4xx_ll_utils.h ****   */
  84:Drivers/STM32G4xx_HAL_Driver/Inc/stm32g4xx_ll_utils.h **** /**
  85:Drivers/STM32G4xx_HAL_Driver/Inc/stm32g4xx_ll_utils.h ****   * @}
  86:Drivers/STM32G4xx_HAL_Driver/Inc/stm32g4xx_ll_utils.h ****   */
  87:Drivers/STM32G4xx_HAL_Driver/Inc/stm32g4xx_ll_utils.h **** /* Exported types ------------------------------------------------------------*/
  88:Drivers/STM32G4xx_HAL_Driver/Inc/stm32g4xx_ll_utils.h **** /** @defgroup UTILS_LL_ES_INIT UTILS Exported structures
ARM GAS  /tmp/ccweegFn.s 			page 3


  89:Drivers/STM32G4xx_HAL_Driver/Inc/stm32g4xx_ll_utils.h ****   * @{
  90:Drivers/STM32G4xx_HAL_Driver/Inc/stm32g4xx_ll_utils.h ****   */
  91:Drivers/STM32G4xx_HAL_Driver/Inc/stm32g4xx_ll_utils.h **** /**
  92:Drivers/STM32G4xx_HAL_Driver/Inc/stm32g4xx_ll_utils.h ****   * @brief  UTILS PLL structure definition
  93:Drivers/STM32G4xx_HAL_Driver/Inc/stm32g4xx_ll_utils.h ****   */
  94:Drivers/STM32G4xx_HAL_Driver/Inc/stm32g4xx_ll_utils.h **** typedef struct
  95:Drivers/STM32G4xx_HAL_Driver/Inc/stm32g4xx_ll_utils.h **** {
  96:Drivers/STM32G4xx_HAL_Driver/Inc/stm32g4xx_ll_utils.h ****   uint32_t PLLM;   /*!< Division factor for PLL VCO input clock.
  97:Drivers/STM32G4xx_HAL_Driver/Inc/stm32g4xx_ll_utils.h ****                         This parameter can be a value of @ref RCC_LL_EC_PLLM_DIV
  98:Drivers/STM32G4xx_HAL_Driver/Inc/stm32g4xx_ll_utils.h **** 
  99:Drivers/STM32G4xx_HAL_Driver/Inc/stm32g4xx_ll_utils.h ****                         This feature can be modified afterwards using unitary function
 100:Drivers/STM32G4xx_HAL_Driver/Inc/stm32g4xx_ll_utils.h ****                         @ref LL_RCC_PLL_ConfigDomain_SYS(). */
 101:Drivers/STM32G4xx_HAL_Driver/Inc/stm32g4xx_ll_utils.h **** 
 102:Drivers/STM32G4xx_HAL_Driver/Inc/stm32g4xx_ll_utils.h ****   uint32_t PLLN;   /*!< Multiplication factor for PLL VCO output clock.
 103:Drivers/STM32G4xx_HAL_Driver/Inc/stm32g4xx_ll_utils.h ****                         This parameter must be a number between Min_Data = 8 and Max_Data = 86
 104:Drivers/STM32G4xx_HAL_Driver/Inc/stm32g4xx_ll_utils.h **** 
 105:Drivers/STM32G4xx_HAL_Driver/Inc/stm32g4xx_ll_utils.h ****                         This feature can be modified afterwards using unitary function
 106:Drivers/STM32G4xx_HAL_Driver/Inc/stm32g4xx_ll_utils.h ****                         @ref LL_RCC_PLL_ConfigDomain_SYS(). */
 107:Drivers/STM32G4xx_HAL_Driver/Inc/stm32g4xx_ll_utils.h **** 
 108:Drivers/STM32G4xx_HAL_Driver/Inc/stm32g4xx_ll_utils.h ****   uint32_t PLLR;   /*!< Division for the main system clock.
 109:Drivers/STM32G4xx_HAL_Driver/Inc/stm32g4xx_ll_utils.h ****                         This parameter can be a value of @ref RCC_LL_EC_PLLR_DIV
 110:Drivers/STM32G4xx_HAL_Driver/Inc/stm32g4xx_ll_utils.h **** 
 111:Drivers/STM32G4xx_HAL_Driver/Inc/stm32g4xx_ll_utils.h ****                         This feature can be modified afterwards using unitary function
 112:Drivers/STM32G4xx_HAL_Driver/Inc/stm32g4xx_ll_utils.h ****                         @ref LL_RCC_PLL_ConfigDomain_SYS(). */
 113:Drivers/STM32G4xx_HAL_Driver/Inc/stm32g4xx_ll_utils.h **** } LL_UTILS_PLLInitTypeDef;
 114:Drivers/STM32G4xx_HAL_Driver/Inc/stm32g4xx_ll_utils.h **** 
 115:Drivers/STM32G4xx_HAL_Driver/Inc/stm32g4xx_ll_utils.h **** /**
 116:Drivers/STM32G4xx_HAL_Driver/Inc/stm32g4xx_ll_utils.h ****   * @brief  UTILS System, AHB and APB buses clock configuration structure definition
 117:Drivers/STM32G4xx_HAL_Driver/Inc/stm32g4xx_ll_utils.h ****   */
 118:Drivers/STM32G4xx_HAL_Driver/Inc/stm32g4xx_ll_utils.h **** typedef struct
 119:Drivers/STM32G4xx_HAL_Driver/Inc/stm32g4xx_ll_utils.h **** {
 120:Drivers/STM32G4xx_HAL_Driver/Inc/stm32g4xx_ll_utils.h ****   uint32_t AHBCLKDivider;         /*!< The AHB clock (HCLK) divider. This clock is derived from the
 121:Drivers/STM32G4xx_HAL_Driver/Inc/stm32g4xx_ll_utils.h ****                                        This parameter can be a value of @ref RCC_LL_EC_SYSCLK_DIV
 122:Drivers/STM32G4xx_HAL_Driver/Inc/stm32g4xx_ll_utils.h **** 
 123:Drivers/STM32G4xx_HAL_Driver/Inc/stm32g4xx_ll_utils.h ****                                        This feature can be modified afterwards using unitary functi
 124:Drivers/STM32G4xx_HAL_Driver/Inc/stm32g4xx_ll_utils.h ****                                        @ref LL_RCC_SetAHBPrescaler(). */
 125:Drivers/STM32G4xx_HAL_Driver/Inc/stm32g4xx_ll_utils.h **** 
 126:Drivers/STM32G4xx_HAL_Driver/Inc/stm32g4xx_ll_utils.h ****   uint32_t APB1CLKDivider;        /*!< The APB1 clock (PCLK1) divider. This clock is derived from t
 127:Drivers/STM32G4xx_HAL_Driver/Inc/stm32g4xx_ll_utils.h ****                                        This parameter can be a value of @ref RCC_LL_EC_APB1_DIV
 128:Drivers/STM32G4xx_HAL_Driver/Inc/stm32g4xx_ll_utils.h **** 
 129:Drivers/STM32G4xx_HAL_Driver/Inc/stm32g4xx_ll_utils.h ****                                        This feature can be modified afterwards using unitary functi
 130:Drivers/STM32G4xx_HAL_Driver/Inc/stm32g4xx_ll_utils.h ****                                        @ref LL_RCC_SetAPB1Prescaler(). */
 131:Drivers/STM32G4xx_HAL_Driver/Inc/stm32g4xx_ll_utils.h **** 
 132:Drivers/STM32G4xx_HAL_Driver/Inc/stm32g4xx_ll_utils.h ****   uint32_t APB2CLKDivider;        /*!< The APB2 clock (PCLK2) divider. This clock is derived from t
 133:Drivers/STM32G4xx_HAL_Driver/Inc/stm32g4xx_ll_utils.h ****                                        This parameter can be a value of @ref RCC_LL_EC_APB2_DIV
 134:Drivers/STM32G4xx_HAL_Driver/Inc/stm32g4xx_ll_utils.h **** 
 135:Drivers/STM32G4xx_HAL_Driver/Inc/stm32g4xx_ll_utils.h ****                                        This feature can be modified afterwards using unitary functi
 136:Drivers/STM32G4xx_HAL_Driver/Inc/stm32g4xx_ll_utils.h ****                                        @ref LL_RCC_SetAPB2Prescaler(). */
 137:Drivers/STM32G4xx_HAL_Driver/Inc/stm32g4xx_ll_utils.h **** 
 138:Drivers/STM32G4xx_HAL_Driver/Inc/stm32g4xx_ll_utils.h **** } LL_UTILS_ClkInitTypeDef;
 139:Drivers/STM32G4xx_HAL_Driver/Inc/stm32g4xx_ll_utils.h **** 
 140:Drivers/STM32G4xx_HAL_Driver/Inc/stm32g4xx_ll_utils.h **** /**
 141:Drivers/STM32G4xx_HAL_Driver/Inc/stm32g4xx_ll_utils.h ****   * @}
 142:Drivers/STM32G4xx_HAL_Driver/Inc/stm32g4xx_ll_utils.h ****   */
 143:Drivers/STM32G4xx_HAL_Driver/Inc/stm32g4xx_ll_utils.h **** 
 144:Drivers/STM32G4xx_HAL_Driver/Inc/stm32g4xx_ll_utils.h **** /* Exported constants --------------------------------------------------------*/
 145:Drivers/STM32G4xx_HAL_Driver/Inc/stm32g4xx_ll_utils.h **** /** @defgroup UTILS_LL_Exported_Constants UTILS Exported Constants
ARM GAS  /tmp/ccweegFn.s 			page 4


 146:Drivers/STM32G4xx_HAL_Driver/Inc/stm32g4xx_ll_utils.h ****   * @{
 147:Drivers/STM32G4xx_HAL_Driver/Inc/stm32g4xx_ll_utils.h ****   */
 148:Drivers/STM32G4xx_HAL_Driver/Inc/stm32g4xx_ll_utils.h **** 
 149:Drivers/STM32G4xx_HAL_Driver/Inc/stm32g4xx_ll_utils.h **** /** @defgroup UTILS_EC_HSE_BYPASS HSE Bypass activation
 150:Drivers/STM32G4xx_HAL_Driver/Inc/stm32g4xx_ll_utils.h ****   * @{
 151:Drivers/STM32G4xx_HAL_Driver/Inc/stm32g4xx_ll_utils.h ****   */
 152:Drivers/STM32G4xx_HAL_Driver/Inc/stm32g4xx_ll_utils.h **** #define LL_UTILS_HSEBYPASS_OFF        0x00000000U       /*!< HSE Bypass is not enabled             
 153:Drivers/STM32G4xx_HAL_Driver/Inc/stm32g4xx_ll_utils.h **** #define LL_UTILS_HSEBYPASS_ON         0x00000001U       /*!< HSE Bypass is enabled                 
 154:Drivers/STM32G4xx_HAL_Driver/Inc/stm32g4xx_ll_utils.h **** /**
 155:Drivers/STM32G4xx_HAL_Driver/Inc/stm32g4xx_ll_utils.h ****   * @}
 156:Drivers/STM32G4xx_HAL_Driver/Inc/stm32g4xx_ll_utils.h ****   */
 157:Drivers/STM32G4xx_HAL_Driver/Inc/stm32g4xx_ll_utils.h **** 
 158:Drivers/STM32G4xx_HAL_Driver/Inc/stm32g4xx_ll_utils.h **** /** @defgroup UTILS_EC_PACKAGETYPE PACKAGE TYPE
 159:Drivers/STM32G4xx_HAL_Driver/Inc/stm32g4xx_ll_utils.h ****   * @{
 160:Drivers/STM32G4xx_HAL_Driver/Inc/stm32g4xx_ll_utils.h ****   */
 161:Drivers/STM32G4xx_HAL_Driver/Inc/stm32g4xx_ll_utils.h **** #define LL_UTILS_PACKAGETYPE_LQFP64             0x00000000U /*!< LQFP64 package type               
 162:Drivers/STM32G4xx_HAL_Driver/Inc/stm32g4xx_ll_utils.h **** #define LL_UTILS_PACKAGETYPE_WLCSP64            0x00000001U /*!< WLCSP64 package type              
 163:Drivers/STM32G4xx_HAL_Driver/Inc/stm32g4xx_ll_utils.h **** #if defined (STM32G431xx) || defined (STM32G441xx) || defined (STM32G471xx) || \
 164:Drivers/STM32G4xx_HAL_Driver/Inc/stm32g4xx_ll_utils.h ****     defined (STM32G473xx) || defined (STM32G483xx) || defined (STM32G474xx) || \
 165:Drivers/STM32G4xx_HAL_Driver/Inc/stm32g4xx_ll_utils.h ****     defined (STM32G484xx)
 166:Drivers/STM32G4xx_HAL_Driver/Inc/stm32g4xx_ll_utils.h **** #define LL_UTILS_PACKAGETYPE_LQFP100_LQFP80     0x00000002U /*!< LQFP100 \ LQFP80 package type     
 167:Drivers/STM32G4xx_HAL_Driver/Inc/stm32g4xx_ll_utils.h **** #define LL_UTILS_PACKAGETYPE_LQFP100 LL_UTILS_PACKAGETYPE_LQFP100_LQFP80  /*!< For backward compati
 168:Drivers/STM32G4xx_HAL_Driver/Inc/stm32g4xx_ll_utils.h **** #else
 169:Drivers/STM32G4xx_HAL_Driver/Inc/stm32g4xx_ll_utils.h **** #define LL_UTILS_PACKAGETYPE_LQFP100            0x00000002U /*!< LQFP100 package type              
 170:Drivers/STM32G4xx_HAL_Driver/Inc/stm32g4xx_ll_utils.h **** #endif /* STM32G431xx || STM32G441xx || STM32G471xx || STM32G473xx || STM32G483xx ||STM32G474xx || 
 171:Drivers/STM32G4xx_HAL_Driver/Inc/stm32g4xx_ll_utils.h **** #define LL_UTILS_PACKAGETYPE_WLCSP81            0x00000005U /*!< WLCSP81 package type              
 172:Drivers/STM32G4xx_HAL_Driver/Inc/stm32g4xx_ll_utils.h **** #define LL_UTILS_PACKAGETYPE_LQFP128_UFBGA121   0x00000007U /*!< LQFP128 \ UFBGA121 package type   
 173:Drivers/STM32G4xx_HAL_Driver/Inc/stm32g4xx_ll_utils.h **** #define LL_UTILS_PACKAGETYPE_LQFP128 LL_UTILS_PACKAGETYPE_LQFP128_UFBGA121 /*!< For backward compat
 174:Drivers/STM32G4xx_HAL_Driver/Inc/stm32g4xx_ll_utils.h **** #define LL_UTILS_PACKAGETYPE_UFQFPN32           0x00000008U /*!< UFQFPN32 package type             
 175:Drivers/STM32G4xx_HAL_Driver/Inc/stm32g4xx_ll_utils.h **** #define LL_UTILS_PACKAGETYPE_LQFP32             0x00000009U /*!< LQFP32 package type               
 176:Drivers/STM32G4xx_HAL_Driver/Inc/stm32g4xx_ll_utils.h **** #define LL_UTILS_PACKAGETYPE_UFQFPN48           0x0000000AU /*!< UFQFPN48 package type             
 177:Drivers/STM32G4xx_HAL_Driver/Inc/stm32g4xx_ll_utils.h **** #define LL_UTILS_PACKAGETYPE_LQFP48             0x0000000BU /*!< LQFP48 package type               
 178:Drivers/STM32G4xx_HAL_Driver/Inc/stm32g4xx_ll_utils.h **** #define LL_UTILS_PACKAGETYPE_WLCSP49            0x0000000CU /*!< WLCSP49 package type              
 179:Drivers/STM32G4xx_HAL_Driver/Inc/stm32g4xx_ll_utils.h **** #define LL_UTILS_PACKAGETYPE_UFBGA64            0x0000000DU /*!< UFBGA64 package type              
 180:Drivers/STM32G4xx_HAL_Driver/Inc/stm32g4xx_ll_utils.h **** #define LL_UTILS_PACKAGETYPE_TFBGA100           0x0000000EU /*!< TFBGA100 package type             
 181:Drivers/STM32G4xx_HAL_Driver/Inc/stm32g4xx_ll_utils.h **** #define LL_UTILS_PACKAGETYPE_UFBGA100 LL_UTILS_PACKAGETYPE_TFBGA100  /*!< For backward compatibilit
 182:Drivers/STM32G4xx_HAL_Driver/Inc/stm32g4xx_ll_utils.h **** #define LL_UTILS_PACKAGETYPE_LQFP48_EBIKE       0x00000010U /*!< LQFP48 EBIKE package type         
 183:Drivers/STM32G4xx_HAL_Driver/Inc/stm32g4xx_ll_utils.h **** #if defined (STM32G491xx) || defined (STM32G4A1xx)
 184:Drivers/STM32G4xx_HAL_Driver/Inc/stm32g4xx_ll_utils.h **** #define LL_UTILS_PACKAGETYPE_LQFP80             0x00000011U /*!< LQFP80 package type               
 185:Drivers/STM32G4xx_HAL_Driver/Inc/stm32g4xx_ll_utils.h **** #endif /* STM32G491xx || STM32G4A1xx */
 186:Drivers/STM32G4xx_HAL_Driver/Inc/stm32g4xx_ll_utils.h **** 
 187:Drivers/STM32G4xx_HAL_Driver/Inc/stm32g4xx_ll_utils.h **** /**
 188:Drivers/STM32G4xx_HAL_Driver/Inc/stm32g4xx_ll_utils.h ****   * @}
 189:Drivers/STM32G4xx_HAL_Driver/Inc/stm32g4xx_ll_utils.h ****   */
 190:Drivers/STM32G4xx_HAL_Driver/Inc/stm32g4xx_ll_utils.h **** 
 191:Drivers/STM32G4xx_HAL_Driver/Inc/stm32g4xx_ll_utils.h **** /**
 192:Drivers/STM32G4xx_HAL_Driver/Inc/stm32g4xx_ll_utils.h ****   * @}
 193:Drivers/STM32G4xx_HAL_Driver/Inc/stm32g4xx_ll_utils.h ****   */
 194:Drivers/STM32G4xx_HAL_Driver/Inc/stm32g4xx_ll_utils.h **** 
 195:Drivers/STM32G4xx_HAL_Driver/Inc/stm32g4xx_ll_utils.h **** /* Exported macro ------------------------------------------------------------*/
 196:Drivers/STM32G4xx_HAL_Driver/Inc/stm32g4xx_ll_utils.h **** 
 197:Drivers/STM32G4xx_HAL_Driver/Inc/stm32g4xx_ll_utils.h **** /* Exported functions --------------------------------------------------------*/
 198:Drivers/STM32G4xx_HAL_Driver/Inc/stm32g4xx_ll_utils.h **** /** @defgroup UTILS_LL_Exported_Functions UTILS Exported Functions
 199:Drivers/STM32G4xx_HAL_Driver/Inc/stm32g4xx_ll_utils.h ****   * @{
 200:Drivers/STM32G4xx_HAL_Driver/Inc/stm32g4xx_ll_utils.h ****   */
 201:Drivers/STM32G4xx_HAL_Driver/Inc/stm32g4xx_ll_utils.h **** 
 202:Drivers/STM32G4xx_HAL_Driver/Inc/stm32g4xx_ll_utils.h **** /** @defgroup UTILS_EF_DEVICE_ELECTRONIC_SIGNATURE DEVICE ELECTRONIC SIGNATURE
ARM GAS  /tmp/ccweegFn.s 			page 5


 203:Drivers/STM32G4xx_HAL_Driver/Inc/stm32g4xx_ll_utils.h ****   * @{
 204:Drivers/STM32G4xx_HAL_Driver/Inc/stm32g4xx_ll_utils.h ****   */
 205:Drivers/STM32G4xx_HAL_Driver/Inc/stm32g4xx_ll_utils.h **** 
 206:Drivers/STM32G4xx_HAL_Driver/Inc/stm32g4xx_ll_utils.h **** /**
 207:Drivers/STM32G4xx_HAL_Driver/Inc/stm32g4xx_ll_utils.h ****   * @brief  Get Word0 of the unique device identifier (UID based on 96 bits)
 208:Drivers/STM32G4xx_HAL_Driver/Inc/stm32g4xx_ll_utils.h ****   * @retval UID[31:0]: X and Y coordinates on the wafer expressed in BCD format
 209:Drivers/STM32G4xx_HAL_Driver/Inc/stm32g4xx_ll_utils.h ****   */
 210:Drivers/STM32G4xx_HAL_Driver/Inc/stm32g4xx_ll_utils.h **** __STATIC_INLINE uint32_t LL_GetUID_Word0(void)
 211:Drivers/STM32G4xx_HAL_Driver/Inc/stm32g4xx_ll_utils.h **** {
 212:Drivers/STM32G4xx_HAL_Driver/Inc/stm32g4xx_ll_utils.h ****   return (uint32_t)(READ_REG(*((uint32_t *)UID_BASE_ADDRESS)));
 213:Drivers/STM32G4xx_HAL_Driver/Inc/stm32g4xx_ll_utils.h **** }
 214:Drivers/STM32G4xx_HAL_Driver/Inc/stm32g4xx_ll_utils.h **** 
 215:Drivers/STM32G4xx_HAL_Driver/Inc/stm32g4xx_ll_utils.h **** /**
 216:Drivers/STM32G4xx_HAL_Driver/Inc/stm32g4xx_ll_utils.h ****   * @brief  Get Word1 of the unique device identifier (UID based on 96 bits)
 217:Drivers/STM32G4xx_HAL_Driver/Inc/stm32g4xx_ll_utils.h ****   * @retval UID[63:32]: Wafer number (UID[39:32]) & LOT_NUM[23:0] (UID[63:40])
 218:Drivers/STM32G4xx_HAL_Driver/Inc/stm32g4xx_ll_utils.h ****   */
 219:Drivers/STM32G4xx_HAL_Driver/Inc/stm32g4xx_ll_utils.h **** __STATIC_INLINE uint32_t LL_GetUID_Word1(void)
 220:Drivers/STM32G4xx_HAL_Driver/Inc/stm32g4xx_ll_utils.h **** {
 221:Drivers/STM32G4xx_HAL_Driver/Inc/stm32g4xx_ll_utils.h ****   return (uint32_t)(READ_REG(*((uint32_t *)(UID_BASE_ADDRESS + 4U))));
 222:Drivers/STM32G4xx_HAL_Driver/Inc/stm32g4xx_ll_utils.h **** }
 223:Drivers/STM32G4xx_HAL_Driver/Inc/stm32g4xx_ll_utils.h **** 
 224:Drivers/STM32G4xx_HAL_Driver/Inc/stm32g4xx_ll_utils.h **** /**
 225:Drivers/STM32G4xx_HAL_Driver/Inc/stm32g4xx_ll_utils.h ****   * @brief  Get Word2 of the unique device identifier (UID based on 96 bits)
 226:Drivers/STM32G4xx_HAL_Driver/Inc/stm32g4xx_ll_utils.h ****   * @retval UID[95:64]: Lot number (ASCII encoded) - LOT_NUM[55:24]
 227:Drivers/STM32G4xx_HAL_Driver/Inc/stm32g4xx_ll_utils.h ****   */
 228:Drivers/STM32G4xx_HAL_Driver/Inc/stm32g4xx_ll_utils.h **** __STATIC_INLINE uint32_t LL_GetUID_Word2(void)
 229:Drivers/STM32G4xx_HAL_Driver/Inc/stm32g4xx_ll_utils.h **** {
 230:Drivers/STM32G4xx_HAL_Driver/Inc/stm32g4xx_ll_utils.h ****   return (uint32_t)(READ_REG(*((uint32_t *)(UID_BASE_ADDRESS + 8U))));
 231:Drivers/STM32G4xx_HAL_Driver/Inc/stm32g4xx_ll_utils.h **** }
 232:Drivers/STM32G4xx_HAL_Driver/Inc/stm32g4xx_ll_utils.h **** 
 233:Drivers/STM32G4xx_HAL_Driver/Inc/stm32g4xx_ll_utils.h **** /**
 234:Drivers/STM32G4xx_HAL_Driver/Inc/stm32g4xx_ll_utils.h ****   * @brief  Get Flash memory size
 235:Drivers/STM32G4xx_HAL_Driver/Inc/stm32g4xx_ll_utils.h ****   * @note   This bitfield indicates the size of the device Flash memory expressed in
 236:Drivers/STM32G4xx_HAL_Driver/Inc/stm32g4xx_ll_utils.h ****   *         Kbytes. As an example, 0x040 corresponds to 64 Kbytes.
 237:Drivers/STM32G4xx_HAL_Driver/Inc/stm32g4xx_ll_utils.h ****   * @retval FLASH_SIZE[15:0]: Flash memory size
 238:Drivers/STM32G4xx_HAL_Driver/Inc/stm32g4xx_ll_utils.h ****   */
 239:Drivers/STM32G4xx_HAL_Driver/Inc/stm32g4xx_ll_utils.h **** __STATIC_INLINE uint32_t LL_GetFlashSize(void)
 240:Drivers/STM32G4xx_HAL_Driver/Inc/stm32g4xx_ll_utils.h **** {
 241:Drivers/STM32G4xx_HAL_Driver/Inc/stm32g4xx_ll_utils.h ****   return (uint32_t)(READ_REG(*((uint32_t *)FLASHSIZE_BASE_ADDRESS)) & 0x0000FFFFUL);
 242:Drivers/STM32G4xx_HAL_Driver/Inc/stm32g4xx_ll_utils.h **** }
 243:Drivers/STM32G4xx_HAL_Driver/Inc/stm32g4xx_ll_utils.h **** 
 244:Drivers/STM32G4xx_HAL_Driver/Inc/stm32g4xx_ll_utils.h **** /**
 245:Drivers/STM32G4xx_HAL_Driver/Inc/stm32g4xx_ll_utils.h ****   * @brief  Get Package type
 246:Drivers/STM32G4xx_HAL_Driver/Inc/stm32g4xx_ll_utils.h ****   * @retval Returned value can be one of the following values:
 247:Drivers/STM32G4xx_HAL_Driver/Inc/stm32g4xx_ll_utils.h ****   *         @arg @ref LL_UTILS_PACKAGETYPE_LQFP64
 248:Drivers/STM32G4xx_HAL_Driver/Inc/stm32g4xx_ll_utils.h ****   *         @arg @ref LL_UTILS_PACKAGETYPE_LQFP100
 249:Drivers/STM32G4xx_HAL_Driver/Inc/stm32g4xx_ll_utils.h ****   *         @arg @ref LL_UTILS_PACKAGETYPE_WLCSP81
 250:Drivers/STM32G4xx_HAL_Driver/Inc/stm32g4xx_ll_utils.h ****   *         @arg @ref LL_UTILS_PACKAGETYPE_LQFP128
 251:Drivers/STM32G4xx_HAL_Driver/Inc/stm32g4xx_ll_utils.h ****   *         @arg @ref LL_UTILS_PACKAGETYPE_UFQFPN32
 252:Drivers/STM32G4xx_HAL_Driver/Inc/stm32g4xx_ll_utils.h ****   *         @arg @ref LL_UTILS_PACKAGETYPE_LQFP32
 253:Drivers/STM32G4xx_HAL_Driver/Inc/stm32g4xx_ll_utils.h ****   *         @arg @ref LL_UTILS_PACKAGETYPE_UFQFPN48
 254:Drivers/STM32G4xx_HAL_Driver/Inc/stm32g4xx_ll_utils.h ****   *         @arg @ref LL_UTILS_PACKAGETYPE_LQFP48
 255:Drivers/STM32G4xx_HAL_Driver/Inc/stm32g4xx_ll_utils.h ****   *         @arg @ref LL_UTILS_PACKAGETYPE_WLCSP49
 256:Drivers/STM32G4xx_HAL_Driver/Inc/stm32g4xx_ll_utils.h ****   *         @arg @ref LL_UTILS_PACKAGETYPE_UFBGA64
 257:Drivers/STM32G4xx_HAL_Driver/Inc/stm32g4xx_ll_utils.h ****   *         @arg @ref LL_UTILS_PACKAGETYPE_UFBGA100
 258:Drivers/STM32G4xx_HAL_Driver/Inc/stm32g4xx_ll_utils.h ****   *         @arg @ref LL_UTILS_PACKAGETYPE_LQFP48_EBIKE
 259:Drivers/STM32G4xx_HAL_Driver/Inc/stm32g4xx_ll_utils.h ****   *
ARM GAS  /tmp/ccweegFn.s 			page 6


 260:Drivers/STM32G4xx_HAL_Driver/Inc/stm32g4xx_ll_utils.h **** */
 261:Drivers/STM32G4xx_HAL_Driver/Inc/stm32g4xx_ll_utils.h **** __STATIC_INLINE uint32_t LL_GetPackageType(void)
 262:Drivers/STM32G4xx_HAL_Driver/Inc/stm32g4xx_ll_utils.h **** {
 263:Drivers/STM32G4xx_HAL_Driver/Inc/stm32g4xx_ll_utils.h ****   return (uint32_t)(READ_REG(*((uint32_t *)PACKAGE_BASE_ADDRESS)) & 0x1FU);
 264:Drivers/STM32G4xx_HAL_Driver/Inc/stm32g4xx_ll_utils.h **** }
 265:Drivers/STM32G4xx_HAL_Driver/Inc/stm32g4xx_ll_utils.h **** 
 266:Drivers/STM32G4xx_HAL_Driver/Inc/stm32g4xx_ll_utils.h **** /**
 267:Drivers/STM32G4xx_HAL_Driver/Inc/stm32g4xx_ll_utils.h ****   * @}
 268:Drivers/STM32G4xx_HAL_Driver/Inc/stm32g4xx_ll_utils.h ****   */
 269:Drivers/STM32G4xx_HAL_Driver/Inc/stm32g4xx_ll_utils.h **** 
 270:Drivers/STM32G4xx_HAL_Driver/Inc/stm32g4xx_ll_utils.h **** /** @defgroup UTILS_LL_EF_DELAY DELAY
 271:Drivers/STM32G4xx_HAL_Driver/Inc/stm32g4xx_ll_utils.h ****   * @{
 272:Drivers/STM32G4xx_HAL_Driver/Inc/stm32g4xx_ll_utils.h ****   */
 273:Drivers/STM32G4xx_HAL_Driver/Inc/stm32g4xx_ll_utils.h **** 
 274:Drivers/STM32G4xx_HAL_Driver/Inc/stm32g4xx_ll_utils.h **** /**
 275:Drivers/STM32G4xx_HAL_Driver/Inc/stm32g4xx_ll_utils.h ****   * @brief  This function configures the Cortex-M SysTick source of the time base.
 276:Drivers/STM32G4xx_HAL_Driver/Inc/stm32g4xx_ll_utils.h ****   * @param  HCLKFrequency HCLK frequency in Hz (can be calculated thanks to RCC helper macro)
 277:Drivers/STM32G4xx_HAL_Driver/Inc/stm32g4xx_ll_utils.h ****   * @note   When a RTOS is used, it is recommended to avoid changing the SysTick
 278:Drivers/STM32G4xx_HAL_Driver/Inc/stm32g4xx_ll_utils.h ****   *         configuration by calling this function, for a delay use rather osDelay RTOS service.
 279:Drivers/STM32G4xx_HAL_Driver/Inc/stm32g4xx_ll_utils.h ****   * @param  Ticks Frequency of Ticks (Hz)
 280:Drivers/STM32G4xx_HAL_Driver/Inc/stm32g4xx_ll_utils.h ****   * @retval None
 281:Drivers/STM32G4xx_HAL_Driver/Inc/stm32g4xx_ll_utils.h ****   */
 282:Drivers/STM32G4xx_HAL_Driver/Inc/stm32g4xx_ll_utils.h **** __STATIC_INLINE void LL_InitTick(uint32_t HCLKFrequency, uint32_t Ticks)
 283:Drivers/STM32G4xx_HAL_Driver/Inc/stm32g4xx_ll_utils.h **** {
  28              		.loc 1 283 1
  29              		.cfi_startproc
  30              		@ args = 0, pretend = 0, frame = 8
  31              		@ frame_needed = 1, uses_anonymous_args = 0
  32              		@ link register save eliminated.
  33 0000 80B4     		push	{r7}
  34              	.LCFI0:
  35              		.cfi_def_cfa_offset 4
  36              		.cfi_offset 7, -4
  37 0002 83B0     		sub	sp, sp, #12
  38              	.LCFI1:
  39              		.cfi_def_cfa_offset 16
  40 0004 00AF     		add	r7, sp, #0
  41              	.LCFI2:
  42              		.cfi_def_cfa_register 7
  43 0006 7860     		str	r0, [r7, #4]
  44 0008 3960     		str	r1, [r7]
 284:Drivers/STM32G4xx_HAL_Driver/Inc/stm32g4xx_ll_utils.h ****   /* Configure the SysTick to have interrupt in 1ms time base */
 285:Drivers/STM32G4xx_HAL_Driver/Inc/stm32g4xx_ll_utils.h ****   SysTick->LOAD  = (uint32_t)((HCLKFrequency / Ticks) - 1UL);  /* set reload register */
  45              		.loc 1 285 46
  46 000a 7A68     		ldr	r2, [r7, #4]
  47 000c 3B68     		ldr	r3, [r7]
  48 000e B2FBF3F3 		udiv	r3, r2, r3
  49              		.loc 1 285 10
  50 0012 074A     		ldr	r2, .L2
  51              		.loc 1 285 20
  52 0014 013B     		subs	r3, r3, #1
  53              		.loc 1 285 18
  54 0016 5360     		str	r3, [r2, #4]
 286:Drivers/STM32G4xx_HAL_Driver/Inc/stm32g4xx_ll_utils.h ****   SysTick->VAL   = 0UL;                                       /* Load the SysTick Counter Value */
  55              		.loc 1 286 10
  56 0018 054B     		ldr	r3, .L2
  57              		.loc 1 286 18
ARM GAS  /tmp/ccweegFn.s 			page 7


  58 001a 0022     		movs	r2, #0
  59 001c 9A60     		str	r2, [r3, #8]
 287:Drivers/STM32G4xx_HAL_Driver/Inc/stm32g4xx_ll_utils.h ****   SysTick->CTRL  = SysTick_CTRL_CLKSOURCE_Msk |
  60              		.loc 1 287 10
  61 001e 044B     		ldr	r3, .L2
  62              		.loc 1 287 18
  63 0020 0522     		movs	r2, #5
  64 0022 1A60     		str	r2, [r3]
 288:Drivers/STM32G4xx_HAL_Driver/Inc/stm32g4xx_ll_utils.h ****                    SysTick_CTRL_ENABLE_Msk;                   /* Enable the Systick Timer */
 289:Drivers/STM32G4xx_HAL_Driver/Inc/stm32g4xx_ll_utils.h **** }
  65              		.loc 1 289 1
  66 0024 00BF     		nop
  67 0026 0C37     		adds	r7, r7, #12
  68              	.LCFI3:
  69              		.cfi_def_cfa_offset 4
  70 0028 BD46     		mov	sp, r7
  71              	.LCFI4:
  72              		.cfi_def_cfa_register 13
  73              		@ sp needed
  74 002a 5DF8047B 		ldr	r7, [sp], #4
  75              	.LCFI5:
  76              		.cfi_restore 7
  77              		.cfi_def_cfa_offset 0
  78 002e 7047     		bx	lr
  79              	.L3:
  80              		.align	2
  81              	.L2:
  82 0030 10E000E0 		.word	-536813552
  83              		.cfi_endproc
  84              	.LFE137:
  86              		.section	.text.LL_RCC_HSE_EnableBypass,"ax",%progbits
  87              		.align	1
  88              		.syntax unified
  89              		.thumb
  90              		.thumb_func
  91              		.fpu fpv4-sp-d16
  93              	LL_RCC_HSE_EnableBypass:
  94              	.LFB139:
  95              		.file 2 "Drivers/STM32G4xx_HAL_Driver/Inc/stm32g4xx_ll_rcc.h"
   1:Drivers/STM32G4xx_HAL_Driver/Inc/stm32g4xx_ll_rcc.h **** /**
   2:Drivers/STM32G4xx_HAL_Driver/Inc/stm32g4xx_ll_rcc.h ****   ******************************************************************************
   3:Drivers/STM32G4xx_HAL_Driver/Inc/stm32g4xx_ll_rcc.h ****   * @file    stm32g4xx_ll_rcc.h
   4:Drivers/STM32G4xx_HAL_Driver/Inc/stm32g4xx_ll_rcc.h ****   * @author  MCD Application Team
   5:Drivers/STM32G4xx_HAL_Driver/Inc/stm32g4xx_ll_rcc.h ****   * @brief   Header file of RCC LL module.
   6:Drivers/STM32G4xx_HAL_Driver/Inc/stm32g4xx_ll_rcc.h ****   ******************************************************************************
   7:Drivers/STM32G4xx_HAL_Driver/Inc/stm32g4xx_ll_rcc.h ****   * @attention
   8:Drivers/STM32G4xx_HAL_Driver/Inc/stm32g4xx_ll_rcc.h ****   *
   9:Drivers/STM32G4xx_HAL_Driver/Inc/stm32g4xx_ll_rcc.h ****   * Copyright (c) 2019 STMicroelectronics.
  10:Drivers/STM32G4xx_HAL_Driver/Inc/stm32g4xx_ll_rcc.h ****   * All rights reserved.
  11:Drivers/STM32G4xx_HAL_Driver/Inc/stm32g4xx_ll_rcc.h ****   *
  12:Drivers/STM32G4xx_HAL_Driver/Inc/stm32g4xx_ll_rcc.h ****   * This software is licensed under terms that can be found in the LICENSE file in
  13:Drivers/STM32G4xx_HAL_Driver/Inc/stm32g4xx_ll_rcc.h ****   * the root directory of this software component.
  14:Drivers/STM32G4xx_HAL_Driver/Inc/stm32g4xx_ll_rcc.h ****   * If no LICENSE file comes with this software, it is provided AS-IS.
  15:Drivers/STM32G4xx_HAL_Driver/Inc/stm32g4xx_ll_rcc.h ****   ******************************************************************************
  16:Drivers/STM32G4xx_HAL_Driver/Inc/stm32g4xx_ll_rcc.h ****   */
  17:Drivers/STM32G4xx_HAL_Driver/Inc/stm32g4xx_ll_rcc.h **** 
  18:Drivers/STM32G4xx_HAL_Driver/Inc/stm32g4xx_ll_rcc.h **** /* Define to prevent recursive inclusion -------------------------------------*/
ARM GAS  /tmp/ccweegFn.s 			page 8


  19:Drivers/STM32G4xx_HAL_Driver/Inc/stm32g4xx_ll_rcc.h **** #ifndef STM32G4xx_LL_RCC_H
  20:Drivers/STM32G4xx_HAL_Driver/Inc/stm32g4xx_ll_rcc.h **** #define STM32G4xx_LL_RCC_H
  21:Drivers/STM32G4xx_HAL_Driver/Inc/stm32g4xx_ll_rcc.h **** 
  22:Drivers/STM32G4xx_HAL_Driver/Inc/stm32g4xx_ll_rcc.h **** #ifdef __cplusplus
  23:Drivers/STM32G4xx_HAL_Driver/Inc/stm32g4xx_ll_rcc.h **** extern "C" {
  24:Drivers/STM32G4xx_HAL_Driver/Inc/stm32g4xx_ll_rcc.h **** #endif
  25:Drivers/STM32G4xx_HAL_Driver/Inc/stm32g4xx_ll_rcc.h **** 
  26:Drivers/STM32G4xx_HAL_Driver/Inc/stm32g4xx_ll_rcc.h **** /* Includes ------------------------------------------------------------------*/
  27:Drivers/STM32G4xx_HAL_Driver/Inc/stm32g4xx_ll_rcc.h **** #include "stm32g4xx.h"
  28:Drivers/STM32G4xx_HAL_Driver/Inc/stm32g4xx_ll_rcc.h **** 
  29:Drivers/STM32G4xx_HAL_Driver/Inc/stm32g4xx_ll_rcc.h **** /** @addtogroup STM32G4xx_LL_Driver
  30:Drivers/STM32G4xx_HAL_Driver/Inc/stm32g4xx_ll_rcc.h ****   * @{
  31:Drivers/STM32G4xx_HAL_Driver/Inc/stm32g4xx_ll_rcc.h ****   */
  32:Drivers/STM32G4xx_HAL_Driver/Inc/stm32g4xx_ll_rcc.h **** 
  33:Drivers/STM32G4xx_HAL_Driver/Inc/stm32g4xx_ll_rcc.h **** /** @defgroup RCC_LL RCC
  34:Drivers/STM32G4xx_HAL_Driver/Inc/stm32g4xx_ll_rcc.h ****   * @{
  35:Drivers/STM32G4xx_HAL_Driver/Inc/stm32g4xx_ll_rcc.h ****   */
  36:Drivers/STM32G4xx_HAL_Driver/Inc/stm32g4xx_ll_rcc.h **** 
  37:Drivers/STM32G4xx_HAL_Driver/Inc/stm32g4xx_ll_rcc.h **** /* Private types -------------------------------------------------------------*/
  38:Drivers/STM32G4xx_HAL_Driver/Inc/stm32g4xx_ll_rcc.h **** /* Private variables ---------------------------------------------------------*/
  39:Drivers/STM32G4xx_HAL_Driver/Inc/stm32g4xx_ll_rcc.h **** /** @defgroup RCC_LL_Private_Variables RCC Private Variables
  40:Drivers/STM32G4xx_HAL_Driver/Inc/stm32g4xx_ll_rcc.h ****   * @{
  41:Drivers/STM32G4xx_HAL_Driver/Inc/stm32g4xx_ll_rcc.h ****   */
  42:Drivers/STM32G4xx_HAL_Driver/Inc/stm32g4xx_ll_rcc.h **** 
  43:Drivers/STM32G4xx_HAL_Driver/Inc/stm32g4xx_ll_rcc.h **** /**
  44:Drivers/STM32G4xx_HAL_Driver/Inc/stm32g4xx_ll_rcc.h ****   * @}
  45:Drivers/STM32G4xx_HAL_Driver/Inc/stm32g4xx_ll_rcc.h ****   */
  46:Drivers/STM32G4xx_HAL_Driver/Inc/stm32g4xx_ll_rcc.h **** 
  47:Drivers/STM32G4xx_HAL_Driver/Inc/stm32g4xx_ll_rcc.h **** /* Private constants ---------------------------------------------------------*/
  48:Drivers/STM32G4xx_HAL_Driver/Inc/stm32g4xx_ll_rcc.h **** /** @defgroup RCC_LL_Private_Constants RCC Private Constants
  49:Drivers/STM32G4xx_HAL_Driver/Inc/stm32g4xx_ll_rcc.h ****   * @{
  50:Drivers/STM32G4xx_HAL_Driver/Inc/stm32g4xx_ll_rcc.h ****   */
  51:Drivers/STM32G4xx_HAL_Driver/Inc/stm32g4xx_ll_rcc.h **** /* Defines used to perform offsets*/
  52:Drivers/STM32G4xx_HAL_Driver/Inc/stm32g4xx_ll_rcc.h **** /* Offset used to access to RCC_CCIPR and RCC_CCIPR2 registers */
  53:Drivers/STM32G4xx_HAL_Driver/Inc/stm32g4xx_ll_rcc.h **** #define RCC_OFFSET_CCIPR        0U
  54:Drivers/STM32G4xx_HAL_Driver/Inc/stm32g4xx_ll_rcc.h **** #define RCC_OFFSET_CCIPR2       0x14U
  55:Drivers/STM32G4xx_HAL_Driver/Inc/stm32g4xx_ll_rcc.h **** 
  56:Drivers/STM32G4xx_HAL_Driver/Inc/stm32g4xx_ll_rcc.h **** /**
  57:Drivers/STM32G4xx_HAL_Driver/Inc/stm32g4xx_ll_rcc.h ****   * @}
  58:Drivers/STM32G4xx_HAL_Driver/Inc/stm32g4xx_ll_rcc.h ****   */
  59:Drivers/STM32G4xx_HAL_Driver/Inc/stm32g4xx_ll_rcc.h **** 
  60:Drivers/STM32G4xx_HAL_Driver/Inc/stm32g4xx_ll_rcc.h **** /* Private macros ------------------------------------------------------------*/
  61:Drivers/STM32G4xx_HAL_Driver/Inc/stm32g4xx_ll_rcc.h **** #if defined(USE_FULL_LL_DRIVER)
  62:Drivers/STM32G4xx_HAL_Driver/Inc/stm32g4xx_ll_rcc.h **** /** @defgroup RCC_LL_Private_Macros RCC Private Macros
  63:Drivers/STM32G4xx_HAL_Driver/Inc/stm32g4xx_ll_rcc.h ****   * @{
  64:Drivers/STM32G4xx_HAL_Driver/Inc/stm32g4xx_ll_rcc.h ****   */
  65:Drivers/STM32G4xx_HAL_Driver/Inc/stm32g4xx_ll_rcc.h **** /**
  66:Drivers/STM32G4xx_HAL_Driver/Inc/stm32g4xx_ll_rcc.h ****   * @}
  67:Drivers/STM32G4xx_HAL_Driver/Inc/stm32g4xx_ll_rcc.h ****   */
  68:Drivers/STM32G4xx_HAL_Driver/Inc/stm32g4xx_ll_rcc.h **** #endif /*USE_FULL_LL_DRIVER*/
  69:Drivers/STM32G4xx_HAL_Driver/Inc/stm32g4xx_ll_rcc.h **** 
  70:Drivers/STM32G4xx_HAL_Driver/Inc/stm32g4xx_ll_rcc.h **** /* Exported types ------------------------------------------------------------*/
  71:Drivers/STM32G4xx_HAL_Driver/Inc/stm32g4xx_ll_rcc.h **** #if defined(USE_FULL_LL_DRIVER)
  72:Drivers/STM32G4xx_HAL_Driver/Inc/stm32g4xx_ll_rcc.h **** /** @defgroup RCC_LL_Exported_Types RCC Exported Types
  73:Drivers/STM32G4xx_HAL_Driver/Inc/stm32g4xx_ll_rcc.h ****   * @{
  74:Drivers/STM32G4xx_HAL_Driver/Inc/stm32g4xx_ll_rcc.h ****   */
  75:Drivers/STM32G4xx_HAL_Driver/Inc/stm32g4xx_ll_rcc.h **** 
ARM GAS  /tmp/ccweegFn.s 			page 9


  76:Drivers/STM32G4xx_HAL_Driver/Inc/stm32g4xx_ll_rcc.h **** /** @defgroup LL_ES_CLOCK_FREQ Clocks Frequency Structure
  77:Drivers/STM32G4xx_HAL_Driver/Inc/stm32g4xx_ll_rcc.h ****   * @{
  78:Drivers/STM32G4xx_HAL_Driver/Inc/stm32g4xx_ll_rcc.h ****   */
  79:Drivers/STM32G4xx_HAL_Driver/Inc/stm32g4xx_ll_rcc.h **** 
  80:Drivers/STM32G4xx_HAL_Driver/Inc/stm32g4xx_ll_rcc.h **** /**
  81:Drivers/STM32G4xx_HAL_Driver/Inc/stm32g4xx_ll_rcc.h ****   * @brief  RCC Clocks Frequency Structure
  82:Drivers/STM32G4xx_HAL_Driver/Inc/stm32g4xx_ll_rcc.h ****   */
  83:Drivers/STM32G4xx_HAL_Driver/Inc/stm32g4xx_ll_rcc.h **** typedef struct
  84:Drivers/STM32G4xx_HAL_Driver/Inc/stm32g4xx_ll_rcc.h **** {
  85:Drivers/STM32G4xx_HAL_Driver/Inc/stm32g4xx_ll_rcc.h ****   uint32_t SYSCLK_Frequency;        /*!< SYSCLK clock frequency */
  86:Drivers/STM32G4xx_HAL_Driver/Inc/stm32g4xx_ll_rcc.h ****   uint32_t HCLK_Frequency;          /*!< HCLK clock frequency */
  87:Drivers/STM32G4xx_HAL_Driver/Inc/stm32g4xx_ll_rcc.h ****   uint32_t PCLK1_Frequency;         /*!< PCLK1 clock frequency */
  88:Drivers/STM32G4xx_HAL_Driver/Inc/stm32g4xx_ll_rcc.h ****   uint32_t PCLK2_Frequency;         /*!< PCLK2 clock frequency */
  89:Drivers/STM32G4xx_HAL_Driver/Inc/stm32g4xx_ll_rcc.h **** } LL_RCC_ClocksTypeDef;
  90:Drivers/STM32G4xx_HAL_Driver/Inc/stm32g4xx_ll_rcc.h **** 
  91:Drivers/STM32G4xx_HAL_Driver/Inc/stm32g4xx_ll_rcc.h **** /**
  92:Drivers/STM32G4xx_HAL_Driver/Inc/stm32g4xx_ll_rcc.h ****   * @}
  93:Drivers/STM32G4xx_HAL_Driver/Inc/stm32g4xx_ll_rcc.h ****   */
  94:Drivers/STM32G4xx_HAL_Driver/Inc/stm32g4xx_ll_rcc.h **** 
  95:Drivers/STM32G4xx_HAL_Driver/Inc/stm32g4xx_ll_rcc.h **** /**
  96:Drivers/STM32G4xx_HAL_Driver/Inc/stm32g4xx_ll_rcc.h ****   * @}
  97:Drivers/STM32G4xx_HAL_Driver/Inc/stm32g4xx_ll_rcc.h ****   */
  98:Drivers/STM32G4xx_HAL_Driver/Inc/stm32g4xx_ll_rcc.h **** #endif /* USE_FULL_LL_DRIVER */
  99:Drivers/STM32G4xx_HAL_Driver/Inc/stm32g4xx_ll_rcc.h **** 
 100:Drivers/STM32G4xx_HAL_Driver/Inc/stm32g4xx_ll_rcc.h **** /* Exported constants --------------------------------------------------------*/
 101:Drivers/STM32G4xx_HAL_Driver/Inc/stm32g4xx_ll_rcc.h **** /** @defgroup RCC_LL_Exported_Constants RCC Exported Constants
 102:Drivers/STM32G4xx_HAL_Driver/Inc/stm32g4xx_ll_rcc.h ****   * @{
 103:Drivers/STM32G4xx_HAL_Driver/Inc/stm32g4xx_ll_rcc.h ****   */
 104:Drivers/STM32G4xx_HAL_Driver/Inc/stm32g4xx_ll_rcc.h **** 
 105:Drivers/STM32G4xx_HAL_Driver/Inc/stm32g4xx_ll_rcc.h **** /** @defgroup RCC_LL_EC_OSC_VALUES Oscillator Values adaptation
 106:Drivers/STM32G4xx_HAL_Driver/Inc/stm32g4xx_ll_rcc.h ****   * @brief    Defines used to adapt values of different oscillators
 107:Drivers/STM32G4xx_HAL_Driver/Inc/stm32g4xx_ll_rcc.h ****   * @note     These values could be modified in the user environment according to
 108:Drivers/STM32G4xx_HAL_Driver/Inc/stm32g4xx_ll_rcc.h ****   *           HW set-up.
 109:Drivers/STM32G4xx_HAL_Driver/Inc/stm32g4xx_ll_rcc.h ****   * @{
 110:Drivers/STM32G4xx_HAL_Driver/Inc/stm32g4xx_ll_rcc.h ****   */
 111:Drivers/STM32G4xx_HAL_Driver/Inc/stm32g4xx_ll_rcc.h **** #if !defined  (HSE_VALUE)
 112:Drivers/STM32G4xx_HAL_Driver/Inc/stm32g4xx_ll_rcc.h **** #define HSE_VALUE    8000000U   /*!< Value of the HSE oscillator in Hz */
 113:Drivers/STM32G4xx_HAL_Driver/Inc/stm32g4xx_ll_rcc.h **** #endif /* HSE_VALUE */
 114:Drivers/STM32G4xx_HAL_Driver/Inc/stm32g4xx_ll_rcc.h **** 
 115:Drivers/STM32G4xx_HAL_Driver/Inc/stm32g4xx_ll_rcc.h **** #if !defined  (HSI_VALUE)
 116:Drivers/STM32G4xx_HAL_Driver/Inc/stm32g4xx_ll_rcc.h **** #define HSI_VALUE    16000000U  /*!< Value of the HSI oscillator in Hz */
 117:Drivers/STM32G4xx_HAL_Driver/Inc/stm32g4xx_ll_rcc.h **** #endif /* HSI_VALUE */
 118:Drivers/STM32G4xx_HAL_Driver/Inc/stm32g4xx_ll_rcc.h **** 
 119:Drivers/STM32G4xx_HAL_Driver/Inc/stm32g4xx_ll_rcc.h **** #if !defined  (LSE_VALUE)
 120:Drivers/STM32G4xx_HAL_Driver/Inc/stm32g4xx_ll_rcc.h **** #define LSE_VALUE    32768U     /*!< Value of the LSE oscillator in Hz */
 121:Drivers/STM32G4xx_HAL_Driver/Inc/stm32g4xx_ll_rcc.h **** #endif /* LSE_VALUE */
 122:Drivers/STM32G4xx_HAL_Driver/Inc/stm32g4xx_ll_rcc.h **** 
 123:Drivers/STM32G4xx_HAL_Driver/Inc/stm32g4xx_ll_rcc.h **** #if !defined  (LSI_VALUE)
 124:Drivers/STM32G4xx_HAL_Driver/Inc/stm32g4xx_ll_rcc.h **** #define LSI_VALUE    32000U     /*!< Value of the LSI oscillator in Hz */
 125:Drivers/STM32G4xx_HAL_Driver/Inc/stm32g4xx_ll_rcc.h **** #endif /* LSI_VALUE */
 126:Drivers/STM32G4xx_HAL_Driver/Inc/stm32g4xx_ll_rcc.h **** 
 127:Drivers/STM32G4xx_HAL_Driver/Inc/stm32g4xx_ll_rcc.h **** #if !defined  (HSI48_VALUE)
 128:Drivers/STM32G4xx_HAL_Driver/Inc/stm32g4xx_ll_rcc.h **** #define HSI48_VALUE  48000000U  /*!< Value of the HSI48 oscillator in Hz */
 129:Drivers/STM32G4xx_HAL_Driver/Inc/stm32g4xx_ll_rcc.h **** #endif /* HSI48_VALUE */
 130:Drivers/STM32G4xx_HAL_Driver/Inc/stm32g4xx_ll_rcc.h **** 
 131:Drivers/STM32G4xx_HAL_Driver/Inc/stm32g4xx_ll_rcc.h **** #if !defined  (EXTERNAL_CLOCK_VALUE)
 132:Drivers/STM32G4xx_HAL_Driver/Inc/stm32g4xx_ll_rcc.h **** #define EXTERNAL_CLOCK_VALUE    48000U     /*!< Value of the I2S_CKIN, I2S and SAI1 external clock 
ARM GAS  /tmp/ccweegFn.s 			page 10


 133:Drivers/STM32G4xx_HAL_Driver/Inc/stm32g4xx_ll_rcc.h **** #endif /* EXTERNAL_CLOCK_VALUE */
 134:Drivers/STM32G4xx_HAL_Driver/Inc/stm32g4xx_ll_rcc.h **** 
 135:Drivers/STM32G4xx_HAL_Driver/Inc/stm32g4xx_ll_rcc.h **** /**
 136:Drivers/STM32G4xx_HAL_Driver/Inc/stm32g4xx_ll_rcc.h ****   * @}
 137:Drivers/STM32G4xx_HAL_Driver/Inc/stm32g4xx_ll_rcc.h ****   */
 138:Drivers/STM32G4xx_HAL_Driver/Inc/stm32g4xx_ll_rcc.h **** 
 139:Drivers/STM32G4xx_HAL_Driver/Inc/stm32g4xx_ll_rcc.h **** /** @defgroup RCC_LL_EC_CLEAR_FLAG Clear Flags Defines
 140:Drivers/STM32G4xx_HAL_Driver/Inc/stm32g4xx_ll_rcc.h ****   * @brief    Flags defines which can be used with LL_RCC_WriteReg function
 141:Drivers/STM32G4xx_HAL_Driver/Inc/stm32g4xx_ll_rcc.h ****   * @{
 142:Drivers/STM32G4xx_HAL_Driver/Inc/stm32g4xx_ll_rcc.h ****   */
 143:Drivers/STM32G4xx_HAL_Driver/Inc/stm32g4xx_ll_rcc.h **** #define LL_RCC_CICR_LSIRDYC                RCC_CICR_LSIRDYC     /*!< LSI Ready Interrupt Clear */
 144:Drivers/STM32G4xx_HAL_Driver/Inc/stm32g4xx_ll_rcc.h **** #define LL_RCC_CICR_LSERDYC                RCC_CICR_LSERDYC     /*!< LSE Ready Interrupt Clear */
 145:Drivers/STM32G4xx_HAL_Driver/Inc/stm32g4xx_ll_rcc.h **** #define LL_RCC_CICR_HSIRDYC                RCC_CICR_HSIRDYC     /*!< HSI Ready Interrupt Clear */
 146:Drivers/STM32G4xx_HAL_Driver/Inc/stm32g4xx_ll_rcc.h **** #define LL_RCC_CICR_HSERDYC                RCC_CICR_HSERDYC     /*!< HSE Ready Interrupt Clear */
 147:Drivers/STM32G4xx_HAL_Driver/Inc/stm32g4xx_ll_rcc.h **** #define LL_RCC_CICR_PLLRDYC                RCC_CICR_PLLRDYC     /*!< PLL Ready Interrupt Clear */
 148:Drivers/STM32G4xx_HAL_Driver/Inc/stm32g4xx_ll_rcc.h **** #define LL_RCC_CICR_HSI48RDYC              RCC_CICR_HSI48RDYC   /*!< HSI48 Ready Interrupt Clear */
 149:Drivers/STM32G4xx_HAL_Driver/Inc/stm32g4xx_ll_rcc.h **** #define LL_RCC_CICR_LSECSSC                RCC_CICR_LSECSSC     /*!< LSE Clock Security System Inte
 150:Drivers/STM32G4xx_HAL_Driver/Inc/stm32g4xx_ll_rcc.h **** #define LL_RCC_CICR_CSSC                   RCC_CICR_CSSC        /*!< Clock Security System Interrup
 151:Drivers/STM32G4xx_HAL_Driver/Inc/stm32g4xx_ll_rcc.h **** /**
 152:Drivers/STM32G4xx_HAL_Driver/Inc/stm32g4xx_ll_rcc.h ****   * @}
 153:Drivers/STM32G4xx_HAL_Driver/Inc/stm32g4xx_ll_rcc.h ****   */
 154:Drivers/STM32G4xx_HAL_Driver/Inc/stm32g4xx_ll_rcc.h **** 
 155:Drivers/STM32G4xx_HAL_Driver/Inc/stm32g4xx_ll_rcc.h **** /** @defgroup RCC_LL_EC_GET_FLAG Get Flags Defines
 156:Drivers/STM32G4xx_HAL_Driver/Inc/stm32g4xx_ll_rcc.h ****   * @brief    Flags defines which can be used with LL_RCC_ReadReg function
 157:Drivers/STM32G4xx_HAL_Driver/Inc/stm32g4xx_ll_rcc.h ****   * @{
 158:Drivers/STM32G4xx_HAL_Driver/Inc/stm32g4xx_ll_rcc.h ****   */
 159:Drivers/STM32G4xx_HAL_Driver/Inc/stm32g4xx_ll_rcc.h **** #define LL_RCC_CIFR_LSIRDYF                RCC_CIFR_LSIRDYF     /*!< LSI Ready Interrupt flag */
 160:Drivers/STM32G4xx_HAL_Driver/Inc/stm32g4xx_ll_rcc.h **** #define LL_RCC_CIFR_LSERDYF                RCC_CIFR_LSERDYF     /*!< LSE Ready Interrupt flag */
 161:Drivers/STM32G4xx_HAL_Driver/Inc/stm32g4xx_ll_rcc.h **** #define LL_RCC_CIFR_HSIRDYF                RCC_CIFR_HSIRDYF     /*!< HSI Ready Interrupt flag */
 162:Drivers/STM32G4xx_HAL_Driver/Inc/stm32g4xx_ll_rcc.h **** #define LL_RCC_CIFR_HSERDYF                RCC_CIFR_HSERDYF     /*!< HSE Ready Interrupt flag */
 163:Drivers/STM32G4xx_HAL_Driver/Inc/stm32g4xx_ll_rcc.h **** #define LL_RCC_CIFR_PLLRDYF                RCC_CIFR_PLLRDYF     /*!< PLL Ready Interrupt flag */
 164:Drivers/STM32G4xx_HAL_Driver/Inc/stm32g4xx_ll_rcc.h **** #define LL_RCC_CIFR_HSI48RDYF              RCC_CIFR_HSI48RDYF   /*!< HSI48 Ready Interrupt flag */
 165:Drivers/STM32G4xx_HAL_Driver/Inc/stm32g4xx_ll_rcc.h **** #define LL_RCC_CIFR_LSECSSF                RCC_CIFR_LSECSSF     /*!< LSE Clock Security System Inte
 166:Drivers/STM32G4xx_HAL_Driver/Inc/stm32g4xx_ll_rcc.h **** #define LL_RCC_CIFR_CSSF                   RCC_CIFR_CSSF        /*!< Clock Security System Interrup
 167:Drivers/STM32G4xx_HAL_Driver/Inc/stm32g4xx_ll_rcc.h **** #define LL_RCC_CSR_LPWRRSTF                RCC_CSR_LPWRRSTF   /*!< Low-Power reset flag */
 168:Drivers/STM32G4xx_HAL_Driver/Inc/stm32g4xx_ll_rcc.h **** #define LL_RCC_CSR_OBLRSTF                 RCC_CSR_OBLRSTF    /*!< OBL reset flag */
 169:Drivers/STM32G4xx_HAL_Driver/Inc/stm32g4xx_ll_rcc.h **** #define LL_RCC_CSR_PINRSTF                 RCC_CSR_PINRSTF    /*!< PIN reset flag */
 170:Drivers/STM32G4xx_HAL_Driver/Inc/stm32g4xx_ll_rcc.h **** #define LL_RCC_CSR_SFTRSTF                 RCC_CSR_SFTRSTF    /*!< Software Reset flag */
 171:Drivers/STM32G4xx_HAL_Driver/Inc/stm32g4xx_ll_rcc.h **** #define LL_RCC_CSR_IWDGRSTF                RCC_CSR_IWDGRSTF   /*!< Independent Watchdog reset flag 
 172:Drivers/STM32G4xx_HAL_Driver/Inc/stm32g4xx_ll_rcc.h **** #define LL_RCC_CSR_WWDGRSTF                RCC_CSR_WWDGRSTF   /*!< Window watchdog reset flag */
 173:Drivers/STM32G4xx_HAL_Driver/Inc/stm32g4xx_ll_rcc.h **** #define LL_RCC_CSR_BORRSTF                 RCC_CSR_BORRSTF    /*!< BOR reset flag */
 174:Drivers/STM32G4xx_HAL_Driver/Inc/stm32g4xx_ll_rcc.h **** /**
 175:Drivers/STM32G4xx_HAL_Driver/Inc/stm32g4xx_ll_rcc.h ****   * @}
 176:Drivers/STM32G4xx_HAL_Driver/Inc/stm32g4xx_ll_rcc.h ****   */
 177:Drivers/STM32G4xx_HAL_Driver/Inc/stm32g4xx_ll_rcc.h **** 
 178:Drivers/STM32G4xx_HAL_Driver/Inc/stm32g4xx_ll_rcc.h **** /** @defgroup RCC_LL_EC_IT IT Defines
 179:Drivers/STM32G4xx_HAL_Driver/Inc/stm32g4xx_ll_rcc.h ****   * @brief    IT defines which can be used with LL_RCC_ReadReg and  LL_RCC_WriteReg functions
 180:Drivers/STM32G4xx_HAL_Driver/Inc/stm32g4xx_ll_rcc.h ****   * @{
 181:Drivers/STM32G4xx_HAL_Driver/Inc/stm32g4xx_ll_rcc.h ****   */
 182:Drivers/STM32G4xx_HAL_Driver/Inc/stm32g4xx_ll_rcc.h **** #define LL_RCC_CIER_LSIRDYIE               RCC_CIER_LSIRDYIE      /*!< LSI Ready Interrupt Enable *
 183:Drivers/STM32G4xx_HAL_Driver/Inc/stm32g4xx_ll_rcc.h **** #define LL_RCC_CIER_LSERDYIE               RCC_CIER_LSERDYIE      /*!< LSE Ready Interrupt Enable *
 184:Drivers/STM32G4xx_HAL_Driver/Inc/stm32g4xx_ll_rcc.h **** #define LL_RCC_CIER_HSIRDYIE               RCC_CIER_HSIRDYIE      /*!< HSI Ready Interrupt Enable *
 185:Drivers/STM32G4xx_HAL_Driver/Inc/stm32g4xx_ll_rcc.h **** #define LL_RCC_CIER_HSERDYIE               RCC_CIER_HSERDYIE      /*!< HSE Ready Interrupt Enable *
 186:Drivers/STM32G4xx_HAL_Driver/Inc/stm32g4xx_ll_rcc.h **** #define LL_RCC_CIER_PLLRDYIE               RCC_CIER_PLLRDYIE      /*!< PLL Ready Interrupt Enable *
 187:Drivers/STM32G4xx_HAL_Driver/Inc/stm32g4xx_ll_rcc.h **** #define LL_RCC_CIER_HSI48RDYIE             RCC_CIER_HSI48RDYIE    /*!< HSI48 Ready Interrupt Enable
 188:Drivers/STM32G4xx_HAL_Driver/Inc/stm32g4xx_ll_rcc.h **** #define LL_RCC_CIER_LSECSSIE               RCC_CIER_LSECSSIE      /*!< LSE CSS Interrupt Enable */
 189:Drivers/STM32G4xx_HAL_Driver/Inc/stm32g4xx_ll_rcc.h **** /**
ARM GAS  /tmp/ccweegFn.s 			page 11


 190:Drivers/STM32G4xx_HAL_Driver/Inc/stm32g4xx_ll_rcc.h ****   * @}
 191:Drivers/STM32G4xx_HAL_Driver/Inc/stm32g4xx_ll_rcc.h ****   */
 192:Drivers/STM32G4xx_HAL_Driver/Inc/stm32g4xx_ll_rcc.h **** 
 193:Drivers/STM32G4xx_HAL_Driver/Inc/stm32g4xx_ll_rcc.h **** /** @defgroup RCC_LL_EC_LSEDRIVE  LSE oscillator drive capability
 194:Drivers/STM32G4xx_HAL_Driver/Inc/stm32g4xx_ll_rcc.h ****   * @{
 195:Drivers/STM32G4xx_HAL_Driver/Inc/stm32g4xx_ll_rcc.h ****   */
 196:Drivers/STM32G4xx_HAL_Driver/Inc/stm32g4xx_ll_rcc.h **** #define LL_RCC_LSEDRIVE_LOW                0x00000000U             /*!< Xtal mode lower driving cap
 197:Drivers/STM32G4xx_HAL_Driver/Inc/stm32g4xx_ll_rcc.h **** #define LL_RCC_LSEDRIVE_MEDIUMLOW          RCC_BDCR_LSEDRV_0       /*!< Xtal mode medium low drivin
 198:Drivers/STM32G4xx_HAL_Driver/Inc/stm32g4xx_ll_rcc.h **** #define LL_RCC_LSEDRIVE_MEDIUMHIGH         RCC_BDCR_LSEDRV_1       /*!< Xtal mode medium high drivi
 199:Drivers/STM32G4xx_HAL_Driver/Inc/stm32g4xx_ll_rcc.h **** #define LL_RCC_LSEDRIVE_HIGH               RCC_BDCR_LSEDRV         /*!< Xtal mode higher driving ca
 200:Drivers/STM32G4xx_HAL_Driver/Inc/stm32g4xx_ll_rcc.h **** /**
 201:Drivers/STM32G4xx_HAL_Driver/Inc/stm32g4xx_ll_rcc.h ****   * @}
 202:Drivers/STM32G4xx_HAL_Driver/Inc/stm32g4xx_ll_rcc.h ****   */
 203:Drivers/STM32G4xx_HAL_Driver/Inc/stm32g4xx_ll_rcc.h **** 
 204:Drivers/STM32G4xx_HAL_Driver/Inc/stm32g4xx_ll_rcc.h **** /** @defgroup RCC_LL_EC_LSCO_CLKSOURCE  LSCO Selection
 205:Drivers/STM32G4xx_HAL_Driver/Inc/stm32g4xx_ll_rcc.h ****   * @{
 206:Drivers/STM32G4xx_HAL_Driver/Inc/stm32g4xx_ll_rcc.h ****   */
 207:Drivers/STM32G4xx_HAL_Driver/Inc/stm32g4xx_ll_rcc.h **** #define LL_RCC_LSCO_CLKSOURCE_LSI          0x00000000U                 /*!< LSI selection for low s
 208:Drivers/STM32G4xx_HAL_Driver/Inc/stm32g4xx_ll_rcc.h **** #define LL_RCC_LSCO_CLKSOURCE_LSE          RCC_BDCR_LSCOSEL            /*!< LSE selection for low s
 209:Drivers/STM32G4xx_HAL_Driver/Inc/stm32g4xx_ll_rcc.h **** /**
 210:Drivers/STM32G4xx_HAL_Driver/Inc/stm32g4xx_ll_rcc.h ****   * @}
 211:Drivers/STM32G4xx_HAL_Driver/Inc/stm32g4xx_ll_rcc.h ****   */
 212:Drivers/STM32G4xx_HAL_Driver/Inc/stm32g4xx_ll_rcc.h **** 
 213:Drivers/STM32G4xx_HAL_Driver/Inc/stm32g4xx_ll_rcc.h **** /** @defgroup RCC_LL_EC_SYS_CLKSOURCE  System clock switch
 214:Drivers/STM32G4xx_HAL_Driver/Inc/stm32g4xx_ll_rcc.h ****   * @{
 215:Drivers/STM32G4xx_HAL_Driver/Inc/stm32g4xx_ll_rcc.h ****   */
 216:Drivers/STM32G4xx_HAL_Driver/Inc/stm32g4xx_ll_rcc.h **** #define LL_RCC_SYS_CLKSOURCE_HSI           RCC_CFGR_SW_HSI    /*!< HSI selection as system clock */
 217:Drivers/STM32G4xx_HAL_Driver/Inc/stm32g4xx_ll_rcc.h **** #define LL_RCC_SYS_CLKSOURCE_HSE           RCC_CFGR_SW_HSE    /*!< HSE selection as system clock */
 218:Drivers/STM32G4xx_HAL_Driver/Inc/stm32g4xx_ll_rcc.h **** #define LL_RCC_SYS_CLKSOURCE_PLL           RCC_CFGR_SW_PLL    /*!< PLL selection as system clock */
 219:Drivers/STM32G4xx_HAL_Driver/Inc/stm32g4xx_ll_rcc.h **** /**
 220:Drivers/STM32G4xx_HAL_Driver/Inc/stm32g4xx_ll_rcc.h ****   * @}
 221:Drivers/STM32G4xx_HAL_Driver/Inc/stm32g4xx_ll_rcc.h ****   */
 222:Drivers/STM32G4xx_HAL_Driver/Inc/stm32g4xx_ll_rcc.h **** 
 223:Drivers/STM32G4xx_HAL_Driver/Inc/stm32g4xx_ll_rcc.h **** /** @defgroup RCC_LL_EC_SYS_CLKSOURCE_STATUS  System clock switch status
 224:Drivers/STM32G4xx_HAL_Driver/Inc/stm32g4xx_ll_rcc.h ****   * @{
 225:Drivers/STM32G4xx_HAL_Driver/Inc/stm32g4xx_ll_rcc.h ****   */
 226:Drivers/STM32G4xx_HAL_Driver/Inc/stm32g4xx_ll_rcc.h **** #define LL_RCC_SYS_CLKSOURCE_STATUS_HSI    RCC_CFGR_SWS_HSI   /*!< HSI used as system clock */
 227:Drivers/STM32G4xx_HAL_Driver/Inc/stm32g4xx_ll_rcc.h **** #define LL_RCC_SYS_CLKSOURCE_STATUS_HSE    RCC_CFGR_SWS_HSE   /*!< HSE used as system clock */
 228:Drivers/STM32G4xx_HAL_Driver/Inc/stm32g4xx_ll_rcc.h **** #define LL_RCC_SYS_CLKSOURCE_STATUS_PLL    RCC_CFGR_SWS_PLL   /*!< PLL used as system clock */
 229:Drivers/STM32G4xx_HAL_Driver/Inc/stm32g4xx_ll_rcc.h **** /**
 230:Drivers/STM32G4xx_HAL_Driver/Inc/stm32g4xx_ll_rcc.h ****   * @}
 231:Drivers/STM32G4xx_HAL_Driver/Inc/stm32g4xx_ll_rcc.h ****   */
 232:Drivers/STM32G4xx_HAL_Driver/Inc/stm32g4xx_ll_rcc.h **** 
 233:Drivers/STM32G4xx_HAL_Driver/Inc/stm32g4xx_ll_rcc.h **** /** @defgroup RCC_LL_EC_SYSCLK_DIV  AHB prescaler
 234:Drivers/STM32G4xx_HAL_Driver/Inc/stm32g4xx_ll_rcc.h ****   * @{
 235:Drivers/STM32G4xx_HAL_Driver/Inc/stm32g4xx_ll_rcc.h ****   */
 236:Drivers/STM32G4xx_HAL_Driver/Inc/stm32g4xx_ll_rcc.h **** #define LL_RCC_SYSCLK_DIV_1                RCC_CFGR_HPRE_DIV1   /*!< SYSCLK not divided */
 237:Drivers/STM32G4xx_HAL_Driver/Inc/stm32g4xx_ll_rcc.h **** #define LL_RCC_SYSCLK_DIV_2                RCC_CFGR_HPRE_DIV2   /*!< SYSCLK divided by 2 */
 238:Drivers/STM32G4xx_HAL_Driver/Inc/stm32g4xx_ll_rcc.h **** #define LL_RCC_SYSCLK_DIV_4                RCC_CFGR_HPRE_DIV4   /*!< SYSCLK divided by 4 */
 239:Drivers/STM32G4xx_HAL_Driver/Inc/stm32g4xx_ll_rcc.h **** #define LL_RCC_SYSCLK_DIV_8                RCC_CFGR_HPRE_DIV8   /*!< SYSCLK divided by 8 */
 240:Drivers/STM32G4xx_HAL_Driver/Inc/stm32g4xx_ll_rcc.h **** #define LL_RCC_SYSCLK_DIV_16               RCC_CFGR_HPRE_DIV16  /*!< SYSCLK divided by 16 */
 241:Drivers/STM32G4xx_HAL_Driver/Inc/stm32g4xx_ll_rcc.h **** #define LL_RCC_SYSCLK_DIV_64               RCC_CFGR_HPRE_DIV64  /*!< SYSCLK divided by 64 */
 242:Drivers/STM32G4xx_HAL_Driver/Inc/stm32g4xx_ll_rcc.h **** #define LL_RCC_SYSCLK_DIV_128              RCC_CFGR_HPRE_DIV128 /*!< SYSCLK divided by 128 */
 243:Drivers/STM32G4xx_HAL_Driver/Inc/stm32g4xx_ll_rcc.h **** #define LL_RCC_SYSCLK_DIV_256              RCC_CFGR_HPRE_DIV256 /*!< SYSCLK divided by 256 */
 244:Drivers/STM32G4xx_HAL_Driver/Inc/stm32g4xx_ll_rcc.h **** #define LL_RCC_SYSCLK_DIV_512              RCC_CFGR_HPRE_DIV512 /*!< SYSCLK divided by 512 */
 245:Drivers/STM32G4xx_HAL_Driver/Inc/stm32g4xx_ll_rcc.h **** /**
 246:Drivers/STM32G4xx_HAL_Driver/Inc/stm32g4xx_ll_rcc.h ****   * @}
ARM GAS  /tmp/ccweegFn.s 			page 12


 247:Drivers/STM32G4xx_HAL_Driver/Inc/stm32g4xx_ll_rcc.h ****   */
 248:Drivers/STM32G4xx_HAL_Driver/Inc/stm32g4xx_ll_rcc.h **** 
 249:Drivers/STM32G4xx_HAL_Driver/Inc/stm32g4xx_ll_rcc.h **** /** @defgroup RCC_LL_EC_APB1_DIV  APB low-speed prescaler (APB1)
 250:Drivers/STM32G4xx_HAL_Driver/Inc/stm32g4xx_ll_rcc.h ****   * @{
 251:Drivers/STM32G4xx_HAL_Driver/Inc/stm32g4xx_ll_rcc.h ****   */
 252:Drivers/STM32G4xx_HAL_Driver/Inc/stm32g4xx_ll_rcc.h **** #define LL_RCC_APB1_DIV_1                  RCC_CFGR_PPRE1_DIV1  /*!< HCLK not divided */
 253:Drivers/STM32G4xx_HAL_Driver/Inc/stm32g4xx_ll_rcc.h **** #define LL_RCC_APB1_DIV_2                  RCC_CFGR_PPRE1_DIV2  /*!< HCLK divided by 2 */
 254:Drivers/STM32G4xx_HAL_Driver/Inc/stm32g4xx_ll_rcc.h **** #define LL_RCC_APB1_DIV_4                  RCC_CFGR_PPRE1_DIV4  /*!< HCLK divided by 4 */
 255:Drivers/STM32G4xx_HAL_Driver/Inc/stm32g4xx_ll_rcc.h **** #define LL_RCC_APB1_DIV_8                  RCC_CFGR_PPRE1_DIV8  /*!< HCLK divided by 8 */
 256:Drivers/STM32G4xx_HAL_Driver/Inc/stm32g4xx_ll_rcc.h **** #define LL_RCC_APB1_DIV_16                 RCC_CFGR_PPRE1_DIV16 /*!< HCLK divided by 16 */
 257:Drivers/STM32G4xx_HAL_Driver/Inc/stm32g4xx_ll_rcc.h **** /**
 258:Drivers/STM32G4xx_HAL_Driver/Inc/stm32g4xx_ll_rcc.h ****   * @}
 259:Drivers/STM32G4xx_HAL_Driver/Inc/stm32g4xx_ll_rcc.h ****   */
 260:Drivers/STM32G4xx_HAL_Driver/Inc/stm32g4xx_ll_rcc.h **** 
 261:Drivers/STM32G4xx_HAL_Driver/Inc/stm32g4xx_ll_rcc.h **** /** @defgroup RCC_LL_EC_APB2_DIV  APB high-speed prescaler (APB2)
 262:Drivers/STM32G4xx_HAL_Driver/Inc/stm32g4xx_ll_rcc.h ****   * @{
 263:Drivers/STM32G4xx_HAL_Driver/Inc/stm32g4xx_ll_rcc.h ****   */
 264:Drivers/STM32G4xx_HAL_Driver/Inc/stm32g4xx_ll_rcc.h **** #define LL_RCC_APB2_DIV_1                  RCC_CFGR_PPRE2_DIV1  /*!< HCLK not divided */
 265:Drivers/STM32G4xx_HAL_Driver/Inc/stm32g4xx_ll_rcc.h **** #define LL_RCC_APB2_DIV_2                  RCC_CFGR_PPRE2_DIV2  /*!< HCLK divided by 2 */
 266:Drivers/STM32G4xx_HAL_Driver/Inc/stm32g4xx_ll_rcc.h **** #define LL_RCC_APB2_DIV_4                  RCC_CFGR_PPRE2_DIV4  /*!< HCLK divided by 4 */
 267:Drivers/STM32G4xx_HAL_Driver/Inc/stm32g4xx_ll_rcc.h **** #define LL_RCC_APB2_DIV_8                  RCC_CFGR_PPRE2_DIV8  /*!< HCLK divided by 8 */
 268:Drivers/STM32G4xx_HAL_Driver/Inc/stm32g4xx_ll_rcc.h **** #define LL_RCC_APB2_DIV_16                 RCC_CFGR_PPRE2_DIV16 /*!< HCLK divided by 16 */
 269:Drivers/STM32G4xx_HAL_Driver/Inc/stm32g4xx_ll_rcc.h **** /**
 270:Drivers/STM32G4xx_HAL_Driver/Inc/stm32g4xx_ll_rcc.h ****   * @}
 271:Drivers/STM32G4xx_HAL_Driver/Inc/stm32g4xx_ll_rcc.h ****   */
 272:Drivers/STM32G4xx_HAL_Driver/Inc/stm32g4xx_ll_rcc.h **** 
 273:Drivers/STM32G4xx_HAL_Driver/Inc/stm32g4xx_ll_rcc.h **** /** @defgroup RCC_LL_EC_MCO1SOURCE  MCO1 SOURCE selection
 274:Drivers/STM32G4xx_HAL_Driver/Inc/stm32g4xx_ll_rcc.h ****   * @{
 275:Drivers/STM32G4xx_HAL_Driver/Inc/stm32g4xx_ll_rcc.h ****   */
 276:Drivers/STM32G4xx_HAL_Driver/Inc/stm32g4xx_ll_rcc.h **** #define LL_RCC_MCO1SOURCE_NOCLOCK          0x00000000U                            /*!< MCO output d
 277:Drivers/STM32G4xx_HAL_Driver/Inc/stm32g4xx_ll_rcc.h **** #define LL_RCC_MCO1SOURCE_SYSCLK           RCC_CFGR_MCOSEL_0                      /*!< SYSCLK selec
 278:Drivers/STM32G4xx_HAL_Driver/Inc/stm32g4xx_ll_rcc.h **** #define LL_RCC_MCO1SOURCE_HSI              (RCC_CFGR_MCOSEL_0| RCC_CFGR_MCOSEL_1) /*!< HSI16 select
 279:Drivers/STM32G4xx_HAL_Driver/Inc/stm32g4xx_ll_rcc.h **** #define LL_RCC_MCO1SOURCE_HSE              RCC_CFGR_MCOSEL_2                      /*!< HSE selectio
 280:Drivers/STM32G4xx_HAL_Driver/Inc/stm32g4xx_ll_rcc.h **** #define LL_RCC_MCO1SOURCE_PLLCLK           (RCC_CFGR_MCOSEL_0|RCC_CFGR_MCOSEL_2)  /*!< Main PLL sel
 281:Drivers/STM32G4xx_HAL_Driver/Inc/stm32g4xx_ll_rcc.h **** #define LL_RCC_MCO1SOURCE_LSI              (RCC_CFGR_MCOSEL_1|RCC_CFGR_MCOSEL_2)  /*!< LSI selectio
 282:Drivers/STM32G4xx_HAL_Driver/Inc/stm32g4xx_ll_rcc.h **** #define LL_RCC_MCO1SOURCE_LSE              (RCC_CFGR_MCOSEL_0|RCC_CFGR_MCOSEL_1|RCC_CFGR_MCOSEL_2) 
 283:Drivers/STM32G4xx_HAL_Driver/Inc/stm32g4xx_ll_rcc.h **** #define LL_RCC_MCO1SOURCE_HSI48            RCC_CFGR_MCOSEL_3                      /*!< HSI48 select
 284:Drivers/STM32G4xx_HAL_Driver/Inc/stm32g4xx_ll_rcc.h **** /**
 285:Drivers/STM32G4xx_HAL_Driver/Inc/stm32g4xx_ll_rcc.h ****   * @}
 286:Drivers/STM32G4xx_HAL_Driver/Inc/stm32g4xx_ll_rcc.h ****   */
 287:Drivers/STM32G4xx_HAL_Driver/Inc/stm32g4xx_ll_rcc.h **** 
 288:Drivers/STM32G4xx_HAL_Driver/Inc/stm32g4xx_ll_rcc.h **** /** @defgroup RCC_LL_EC_MCO1_DIV  MCO1 prescaler
 289:Drivers/STM32G4xx_HAL_Driver/Inc/stm32g4xx_ll_rcc.h ****   * @{
 290:Drivers/STM32G4xx_HAL_Driver/Inc/stm32g4xx_ll_rcc.h ****   */
 291:Drivers/STM32G4xx_HAL_Driver/Inc/stm32g4xx_ll_rcc.h **** #define LL_RCC_MCO1_DIV_1                  RCC_CFGR_MCOPRE_DIV1       /*!< MCO not divided */
 292:Drivers/STM32G4xx_HAL_Driver/Inc/stm32g4xx_ll_rcc.h **** #define LL_RCC_MCO1_DIV_2                  RCC_CFGR_MCOPRE_DIV2       /*!< MCO divided by 2 */
 293:Drivers/STM32G4xx_HAL_Driver/Inc/stm32g4xx_ll_rcc.h **** #define LL_RCC_MCO1_DIV_4                  RCC_CFGR_MCOPRE_DIV4       /*!< MCO divided by 4 */
 294:Drivers/STM32G4xx_HAL_Driver/Inc/stm32g4xx_ll_rcc.h **** #define LL_RCC_MCO1_DIV_8                  RCC_CFGR_MCOPRE_DIV8       /*!< MCO divided by 8 */
 295:Drivers/STM32G4xx_HAL_Driver/Inc/stm32g4xx_ll_rcc.h **** #define LL_RCC_MCO1_DIV_16                 RCC_CFGR_MCOPRE_DIV16      /*!< MCO divided by 16 */
 296:Drivers/STM32G4xx_HAL_Driver/Inc/stm32g4xx_ll_rcc.h **** /**
 297:Drivers/STM32G4xx_HAL_Driver/Inc/stm32g4xx_ll_rcc.h ****   * @}
 298:Drivers/STM32G4xx_HAL_Driver/Inc/stm32g4xx_ll_rcc.h ****   */
 299:Drivers/STM32G4xx_HAL_Driver/Inc/stm32g4xx_ll_rcc.h **** 
 300:Drivers/STM32G4xx_HAL_Driver/Inc/stm32g4xx_ll_rcc.h **** #if defined(USE_FULL_LL_DRIVER)
 301:Drivers/STM32G4xx_HAL_Driver/Inc/stm32g4xx_ll_rcc.h **** /** @defgroup RCC_LL_EC_PERIPH_FREQUENCY Peripheral clock frequency
 302:Drivers/STM32G4xx_HAL_Driver/Inc/stm32g4xx_ll_rcc.h ****   * @{
 303:Drivers/STM32G4xx_HAL_Driver/Inc/stm32g4xx_ll_rcc.h ****   */
ARM GAS  /tmp/ccweegFn.s 			page 13


 304:Drivers/STM32G4xx_HAL_Driver/Inc/stm32g4xx_ll_rcc.h **** #define LL_RCC_PERIPH_FREQUENCY_NO         0x00000000U                 /*!< No clock enabled for th
 305:Drivers/STM32G4xx_HAL_Driver/Inc/stm32g4xx_ll_rcc.h **** #define LL_RCC_PERIPH_FREQUENCY_NA         0xFFFFFFFFU                 /*!< Frequency cannot be pro
 306:Drivers/STM32G4xx_HAL_Driver/Inc/stm32g4xx_ll_rcc.h **** /**
 307:Drivers/STM32G4xx_HAL_Driver/Inc/stm32g4xx_ll_rcc.h ****   * @}
 308:Drivers/STM32G4xx_HAL_Driver/Inc/stm32g4xx_ll_rcc.h ****   */
 309:Drivers/STM32G4xx_HAL_Driver/Inc/stm32g4xx_ll_rcc.h **** #endif /* USE_FULL_LL_DRIVER */
 310:Drivers/STM32G4xx_HAL_Driver/Inc/stm32g4xx_ll_rcc.h **** 
 311:Drivers/STM32G4xx_HAL_Driver/Inc/stm32g4xx_ll_rcc.h **** /** @defgroup RCC_LL_EC_USARTx_CLKSOURCE  Peripheral USART clock source selection
 312:Drivers/STM32G4xx_HAL_Driver/Inc/stm32g4xx_ll_rcc.h ****   * @{
 313:Drivers/STM32G4xx_HAL_Driver/Inc/stm32g4xx_ll_rcc.h ****   */
 314:Drivers/STM32G4xx_HAL_Driver/Inc/stm32g4xx_ll_rcc.h **** #define LL_RCC_USART1_CLKSOURCE_PCLK2      (RCC_CCIPR_USART1SEL << 16U)                           /
 315:Drivers/STM32G4xx_HAL_Driver/Inc/stm32g4xx_ll_rcc.h **** #define LL_RCC_USART1_CLKSOURCE_SYSCLK     ((RCC_CCIPR_USART1SEL << 16U) | RCC_CCIPR_USART1SEL_0) /
 316:Drivers/STM32G4xx_HAL_Driver/Inc/stm32g4xx_ll_rcc.h **** #define LL_RCC_USART1_CLKSOURCE_HSI        ((RCC_CCIPR_USART1SEL << 16U) | RCC_CCIPR_USART1SEL_1) /
 317:Drivers/STM32G4xx_HAL_Driver/Inc/stm32g4xx_ll_rcc.h **** #define LL_RCC_USART1_CLKSOURCE_LSE        ((RCC_CCIPR_USART1SEL << 16U) | RCC_CCIPR_USART1SEL)   /
 318:Drivers/STM32G4xx_HAL_Driver/Inc/stm32g4xx_ll_rcc.h **** #define LL_RCC_USART2_CLKSOURCE_PCLK1      (RCC_CCIPR_USART2SEL << 16U)                           /
 319:Drivers/STM32G4xx_HAL_Driver/Inc/stm32g4xx_ll_rcc.h **** #define LL_RCC_USART2_CLKSOURCE_SYSCLK     ((RCC_CCIPR_USART2SEL << 16U) | RCC_CCIPR_USART2SEL_0) /
 320:Drivers/STM32G4xx_HAL_Driver/Inc/stm32g4xx_ll_rcc.h **** #define LL_RCC_USART2_CLKSOURCE_HSI        ((RCC_CCIPR_USART2SEL << 16U) | RCC_CCIPR_USART2SEL_1) /
 321:Drivers/STM32G4xx_HAL_Driver/Inc/stm32g4xx_ll_rcc.h **** #define LL_RCC_USART2_CLKSOURCE_LSE        ((RCC_CCIPR_USART2SEL << 16U) | RCC_CCIPR_USART2SEL)   /
 322:Drivers/STM32G4xx_HAL_Driver/Inc/stm32g4xx_ll_rcc.h **** #define LL_RCC_USART3_CLKSOURCE_PCLK1      (RCC_CCIPR_USART3SEL << 16U)                           /
 323:Drivers/STM32G4xx_HAL_Driver/Inc/stm32g4xx_ll_rcc.h **** #define LL_RCC_USART3_CLKSOURCE_SYSCLK     ((RCC_CCIPR_USART3SEL << 16U) | RCC_CCIPR_USART3SEL_0) /
 324:Drivers/STM32G4xx_HAL_Driver/Inc/stm32g4xx_ll_rcc.h **** #define LL_RCC_USART3_CLKSOURCE_HSI        ((RCC_CCIPR_USART3SEL << 16U) | RCC_CCIPR_USART3SEL_1) /
 325:Drivers/STM32G4xx_HAL_Driver/Inc/stm32g4xx_ll_rcc.h **** #define LL_RCC_USART3_CLKSOURCE_LSE        ((RCC_CCIPR_USART3SEL << 16U) | RCC_CCIPR_USART3SEL)   /
 326:Drivers/STM32G4xx_HAL_Driver/Inc/stm32g4xx_ll_rcc.h **** /**
 327:Drivers/STM32G4xx_HAL_Driver/Inc/stm32g4xx_ll_rcc.h ****   * @}
 328:Drivers/STM32G4xx_HAL_Driver/Inc/stm32g4xx_ll_rcc.h ****   */
 329:Drivers/STM32G4xx_HAL_Driver/Inc/stm32g4xx_ll_rcc.h **** 
 330:Drivers/STM32G4xx_HAL_Driver/Inc/stm32g4xx_ll_rcc.h **** /** @defgroup RCC_LL_EC_UARTx_CLKSOURCE  Peripheral UART clock source selection
 331:Drivers/STM32G4xx_HAL_Driver/Inc/stm32g4xx_ll_rcc.h ****   * @{
 332:Drivers/STM32G4xx_HAL_Driver/Inc/stm32g4xx_ll_rcc.h ****   */
 333:Drivers/STM32G4xx_HAL_Driver/Inc/stm32g4xx_ll_rcc.h **** #if defined(RCC_CCIPR_UART4SEL)
 334:Drivers/STM32G4xx_HAL_Driver/Inc/stm32g4xx_ll_rcc.h **** #define LL_RCC_UART4_CLKSOURCE_PCLK1       (RCC_CCIPR_UART4SEL << 16U)                           /*
 335:Drivers/STM32G4xx_HAL_Driver/Inc/stm32g4xx_ll_rcc.h **** #define LL_RCC_UART4_CLKSOURCE_SYSCLK      ((RCC_CCIPR_UART4SEL << 16U) | RCC_CCIPR_UART4SEL_0)  /*
 336:Drivers/STM32G4xx_HAL_Driver/Inc/stm32g4xx_ll_rcc.h **** #define LL_RCC_UART4_CLKSOURCE_HSI         ((RCC_CCIPR_UART4SEL << 16U) | RCC_CCIPR_UART4SEL_1)  /*
 337:Drivers/STM32G4xx_HAL_Driver/Inc/stm32g4xx_ll_rcc.h **** #define LL_RCC_UART4_CLKSOURCE_LSE         ((RCC_CCIPR_UART4SEL << 16U) | RCC_CCIPR_UART4SEL)    /*
 338:Drivers/STM32G4xx_HAL_Driver/Inc/stm32g4xx_ll_rcc.h **** #endif /* RCC_CCIPR_UART4SEL */
 339:Drivers/STM32G4xx_HAL_Driver/Inc/stm32g4xx_ll_rcc.h **** #if defined(RCC_CCIPR_UART5SEL)
 340:Drivers/STM32G4xx_HAL_Driver/Inc/stm32g4xx_ll_rcc.h **** #define LL_RCC_UART5_CLKSOURCE_PCLK1       (RCC_CCIPR_UART5SEL << 16U)                           /*
 341:Drivers/STM32G4xx_HAL_Driver/Inc/stm32g4xx_ll_rcc.h **** #define LL_RCC_UART5_CLKSOURCE_SYSCLK      ((RCC_CCIPR_UART5SEL << 16U) | RCC_CCIPR_UART5SEL_0)  /*
 342:Drivers/STM32G4xx_HAL_Driver/Inc/stm32g4xx_ll_rcc.h **** #define LL_RCC_UART5_CLKSOURCE_HSI         ((RCC_CCIPR_UART5SEL << 16U) | RCC_CCIPR_UART5SEL_1)  /*
 343:Drivers/STM32G4xx_HAL_Driver/Inc/stm32g4xx_ll_rcc.h **** #define LL_RCC_UART5_CLKSOURCE_LSE         ((RCC_CCIPR_UART5SEL << 16U) | RCC_CCIPR_UART5SEL)    /*
 344:Drivers/STM32G4xx_HAL_Driver/Inc/stm32g4xx_ll_rcc.h **** #endif /* RCC_CCIPR_UART5SEL */
 345:Drivers/STM32G4xx_HAL_Driver/Inc/stm32g4xx_ll_rcc.h **** /**
 346:Drivers/STM32G4xx_HAL_Driver/Inc/stm32g4xx_ll_rcc.h ****   * @}
 347:Drivers/STM32G4xx_HAL_Driver/Inc/stm32g4xx_ll_rcc.h ****   */
 348:Drivers/STM32G4xx_HAL_Driver/Inc/stm32g4xx_ll_rcc.h **** 
 349:Drivers/STM32G4xx_HAL_Driver/Inc/stm32g4xx_ll_rcc.h **** /** @defgroup RCC_LL_EC_LPUART1_CLKSOURCE  Peripheral LPUART clock source selection
 350:Drivers/STM32G4xx_HAL_Driver/Inc/stm32g4xx_ll_rcc.h ****   * @{
 351:Drivers/STM32G4xx_HAL_Driver/Inc/stm32g4xx_ll_rcc.h ****   */
 352:Drivers/STM32G4xx_HAL_Driver/Inc/stm32g4xx_ll_rcc.h **** #define LL_RCC_LPUART1_CLKSOURCE_PCLK1     0x00000000U                     /*!< PCLK1 clock used as
 353:Drivers/STM32G4xx_HAL_Driver/Inc/stm32g4xx_ll_rcc.h **** #define LL_RCC_LPUART1_CLKSOURCE_SYSCLK    RCC_CCIPR_LPUART1SEL_0          /*!< SYSCLK clock used a
 354:Drivers/STM32G4xx_HAL_Driver/Inc/stm32g4xx_ll_rcc.h **** #define LL_RCC_LPUART1_CLKSOURCE_HSI       RCC_CCIPR_LPUART1SEL_1          /*!< HSI clock used as L
 355:Drivers/STM32G4xx_HAL_Driver/Inc/stm32g4xx_ll_rcc.h **** #define LL_RCC_LPUART1_CLKSOURCE_LSE       RCC_CCIPR_LPUART1SEL            /*!< LSE clock used as L
 356:Drivers/STM32G4xx_HAL_Driver/Inc/stm32g4xx_ll_rcc.h **** /**
 357:Drivers/STM32G4xx_HAL_Driver/Inc/stm32g4xx_ll_rcc.h ****   * @}
 358:Drivers/STM32G4xx_HAL_Driver/Inc/stm32g4xx_ll_rcc.h ****   */
 359:Drivers/STM32G4xx_HAL_Driver/Inc/stm32g4xx_ll_rcc.h **** 
 360:Drivers/STM32G4xx_HAL_Driver/Inc/stm32g4xx_ll_rcc.h **** /** @defgroup RCC_LL_EC_I2Cx_CLKSOURCE  Peripheral I2C clock source selection
ARM GAS  /tmp/ccweegFn.s 			page 14


 361:Drivers/STM32G4xx_HAL_Driver/Inc/stm32g4xx_ll_rcc.h ****   * @{
 362:Drivers/STM32G4xx_HAL_Driver/Inc/stm32g4xx_ll_rcc.h ****   */
 363:Drivers/STM32G4xx_HAL_Driver/Inc/stm32g4xx_ll_rcc.h **** #define LL_RCC_I2C1_CLKSOURCE_PCLK1        (((uint32_t)RCC_OFFSET_CCIPR << 24U) | ((uint32_t)RCC_CC
 364:Drivers/STM32G4xx_HAL_Driver/Inc/stm32g4xx_ll_rcc.h **** #define LL_RCC_I2C1_CLKSOURCE_SYSCLK       (((uint32_t)RCC_OFFSET_CCIPR << 24U) | ((uint32_t)RCC_CC
 365:Drivers/STM32G4xx_HAL_Driver/Inc/stm32g4xx_ll_rcc.h **** #define LL_RCC_I2C1_CLKSOURCE_HSI          (((uint32_t)RCC_OFFSET_CCIPR << 24U) | ((uint32_t)RCC_CC
 366:Drivers/STM32G4xx_HAL_Driver/Inc/stm32g4xx_ll_rcc.h **** #define LL_RCC_I2C2_CLKSOURCE_PCLK1        (((uint32_t)RCC_OFFSET_CCIPR << 24U) | ((uint32_t)RCC_CC
 367:Drivers/STM32G4xx_HAL_Driver/Inc/stm32g4xx_ll_rcc.h **** #define LL_RCC_I2C2_CLKSOURCE_SYSCLK       (((uint32_t)RCC_OFFSET_CCIPR << 24U) | ((uint32_t)RCC_CC
 368:Drivers/STM32G4xx_HAL_Driver/Inc/stm32g4xx_ll_rcc.h **** #define LL_RCC_I2C2_CLKSOURCE_HSI          (((uint32_t)RCC_OFFSET_CCIPR << 24U) | ((uint32_t)RCC_CC
 369:Drivers/STM32G4xx_HAL_Driver/Inc/stm32g4xx_ll_rcc.h **** #define LL_RCC_I2C3_CLKSOURCE_PCLK1        (((uint32_t)RCC_OFFSET_CCIPR << 24U) | ((uint32_t)RCC_CC
 370:Drivers/STM32G4xx_HAL_Driver/Inc/stm32g4xx_ll_rcc.h **** #define LL_RCC_I2C3_CLKSOURCE_SYSCLK       (((uint32_t)RCC_OFFSET_CCIPR << 24U) | ((uint32_t)RCC_CC
 371:Drivers/STM32G4xx_HAL_Driver/Inc/stm32g4xx_ll_rcc.h **** #define LL_RCC_I2C3_CLKSOURCE_HSI          (((uint32_t)RCC_OFFSET_CCIPR << 24U) | ((uint32_t)RCC_CC
 372:Drivers/STM32G4xx_HAL_Driver/Inc/stm32g4xx_ll_rcc.h **** #if defined(RCC_CCIPR2_I2C4SEL)
 373:Drivers/STM32G4xx_HAL_Driver/Inc/stm32g4xx_ll_rcc.h **** #define LL_RCC_I2C4_CLKSOURCE_PCLK1        (((uint32_t)RCC_OFFSET_CCIPR2 << 24U) | ((uint32_t)RCC_C
 374:Drivers/STM32G4xx_HAL_Driver/Inc/stm32g4xx_ll_rcc.h **** #define LL_RCC_I2C4_CLKSOURCE_SYSCLK       (((uint32_t)RCC_OFFSET_CCIPR2 << 24U) | ((uint32_t)RCC_C
 375:Drivers/STM32G4xx_HAL_Driver/Inc/stm32g4xx_ll_rcc.h **** #define LL_RCC_I2C4_CLKSOURCE_HSI          (((uint32_t)RCC_OFFSET_CCIPR2 << 24U) | ((uint32_t)RCC_C
 376:Drivers/STM32G4xx_HAL_Driver/Inc/stm32g4xx_ll_rcc.h **** #endif /* RCC_CCIPR2_I2C4SEL */
 377:Drivers/STM32G4xx_HAL_Driver/Inc/stm32g4xx_ll_rcc.h **** /**
 378:Drivers/STM32G4xx_HAL_Driver/Inc/stm32g4xx_ll_rcc.h ****   * @}
 379:Drivers/STM32G4xx_HAL_Driver/Inc/stm32g4xx_ll_rcc.h ****   */
 380:Drivers/STM32G4xx_HAL_Driver/Inc/stm32g4xx_ll_rcc.h **** 
 381:Drivers/STM32G4xx_HAL_Driver/Inc/stm32g4xx_ll_rcc.h **** /** @defgroup RCC_LL_EC_LPTIM1_CLKSOURCE  Peripheral LPTIM clock source selection
 382:Drivers/STM32G4xx_HAL_Driver/Inc/stm32g4xx_ll_rcc.h ****   * @{
 383:Drivers/STM32G4xx_HAL_Driver/Inc/stm32g4xx_ll_rcc.h ****   */
 384:Drivers/STM32G4xx_HAL_Driver/Inc/stm32g4xx_ll_rcc.h **** #define LL_RCC_LPTIM1_CLKSOURCE_PCLK1      0x00000000U                                            /
 385:Drivers/STM32G4xx_HAL_Driver/Inc/stm32g4xx_ll_rcc.h **** #define LL_RCC_LPTIM1_CLKSOURCE_LSI        RCC_CCIPR_LPTIM1SEL_0                                  /
 386:Drivers/STM32G4xx_HAL_Driver/Inc/stm32g4xx_ll_rcc.h **** #define LL_RCC_LPTIM1_CLKSOURCE_HSI        RCC_CCIPR_LPTIM1SEL_1                                  /
 387:Drivers/STM32G4xx_HAL_Driver/Inc/stm32g4xx_ll_rcc.h **** #define LL_RCC_LPTIM1_CLKSOURCE_LSE        RCC_CCIPR_LPTIM1SEL                                    /
 388:Drivers/STM32G4xx_HAL_Driver/Inc/stm32g4xx_ll_rcc.h **** /**
 389:Drivers/STM32G4xx_HAL_Driver/Inc/stm32g4xx_ll_rcc.h ****   * @}
 390:Drivers/STM32G4xx_HAL_Driver/Inc/stm32g4xx_ll_rcc.h ****   */
 391:Drivers/STM32G4xx_HAL_Driver/Inc/stm32g4xx_ll_rcc.h **** 
 392:Drivers/STM32G4xx_HAL_Driver/Inc/stm32g4xx_ll_rcc.h **** /** @defgroup RCC_LL_EC_SAI1_CLKSOURCE  Peripheral SAI clock source selection
 393:Drivers/STM32G4xx_HAL_Driver/Inc/stm32g4xx_ll_rcc.h ****   * @{
 394:Drivers/STM32G4xx_HAL_Driver/Inc/stm32g4xx_ll_rcc.h ****   */
 395:Drivers/STM32G4xx_HAL_Driver/Inc/stm32g4xx_ll_rcc.h **** #define LL_RCC_SAI1_CLKSOURCE_SYSCLK       0x00000000U                                           /*
 396:Drivers/STM32G4xx_HAL_Driver/Inc/stm32g4xx_ll_rcc.h **** #define LL_RCC_SAI1_CLKSOURCE_PLL          RCC_CCIPR_SAI1SEL_0                                   /*
 397:Drivers/STM32G4xx_HAL_Driver/Inc/stm32g4xx_ll_rcc.h **** #define LL_RCC_SAI1_CLKSOURCE_PIN          RCC_CCIPR_SAI1SEL_1                                   /*
 398:Drivers/STM32G4xx_HAL_Driver/Inc/stm32g4xx_ll_rcc.h **** #define LL_RCC_SAI1_CLKSOURCE_HSI          (RCC_CCIPR_SAI1SEL_0 | RCC_CCIPR_SAI1SEL_1)           /*
 399:Drivers/STM32G4xx_HAL_Driver/Inc/stm32g4xx_ll_rcc.h **** /**
 400:Drivers/STM32G4xx_HAL_Driver/Inc/stm32g4xx_ll_rcc.h ****   * @}
 401:Drivers/STM32G4xx_HAL_Driver/Inc/stm32g4xx_ll_rcc.h ****   */
 402:Drivers/STM32G4xx_HAL_Driver/Inc/stm32g4xx_ll_rcc.h **** 
 403:Drivers/STM32G4xx_HAL_Driver/Inc/stm32g4xx_ll_rcc.h **** /** @defgroup RCC_LL_EC_I2S_CLKSOURCE  Peripheral I2S clock source selection
 404:Drivers/STM32G4xx_HAL_Driver/Inc/stm32g4xx_ll_rcc.h ****   * @{
 405:Drivers/STM32G4xx_HAL_Driver/Inc/stm32g4xx_ll_rcc.h ****   */
 406:Drivers/STM32G4xx_HAL_Driver/Inc/stm32g4xx_ll_rcc.h **** #define LL_RCC_I2S_CLKSOURCE_SYSCLK       0x00000000U                                          /*!<
 407:Drivers/STM32G4xx_HAL_Driver/Inc/stm32g4xx_ll_rcc.h **** #define LL_RCC_I2S_CLKSOURCE_PLL          RCC_CCIPR_I2S23SEL_0                                 /*!<
 408:Drivers/STM32G4xx_HAL_Driver/Inc/stm32g4xx_ll_rcc.h **** #define LL_RCC_I2S_CLKSOURCE_PIN          RCC_CCIPR_I2S23SEL_1                                 /*!<
 409:Drivers/STM32G4xx_HAL_Driver/Inc/stm32g4xx_ll_rcc.h **** #define LL_RCC_I2S_CLKSOURCE_HSI          (RCC_CCIPR_I2S23SEL_0 | RCC_CCIPR_I2S23SEL_1)        /*!<
 410:Drivers/STM32G4xx_HAL_Driver/Inc/stm32g4xx_ll_rcc.h **** /**
 411:Drivers/STM32G4xx_HAL_Driver/Inc/stm32g4xx_ll_rcc.h ****   * @}
 412:Drivers/STM32G4xx_HAL_Driver/Inc/stm32g4xx_ll_rcc.h ****   */
 413:Drivers/STM32G4xx_HAL_Driver/Inc/stm32g4xx_ll_rcc.h **** 
 414:Drivers/STM32G4xx_HAL_Driver/Inc/stm32g4xx_ll_rcc.h **** #if defined(FDCAN1)
 415:Drivers/STM32G4xx_HAL_Driver/Inc/stm32g4xx_ll_rcc.h **** /** @defgroup RCC_LL_EC_FDCAN_CLKSOURCE  Peripheral FDCAN clock source selection
 416:Drivers/STM32G4xx_HAL_Driver/Inc/stm32g4xx_ll_rcc.h ****   * @{
 417:Drivers/STM32G4xx_HAL_Driver/Inc/stm32g4xx_ll_rcc.h ****   */
ARM GAS  /tmp/ccweegFn.s 			page 15


 418:Drivers/STM32G4xx_HAL_Driver/Inc/stm32g4xx_ll_rcc.h **** #define LL_RCC_FDCAN_CLKSOURCE_HSE        0x00000000U             /*!< HSE clock used as FDCAN cloc
 419:Drivers/STM32G4xx_HAL_Driver/Inc/stm32g4xx_ll_rcc.h **** #define LL_RCC_FDCAN_CLKSOURCE_PLL        RCC_CCIPR_FDCANSEL_0    /*!< PLL clock used as FDCAN cloc
 420:Drivers/STM32G4xx_HAL_Driver/Inc/stm32g4xx_ll_rcc.h **** #define LL_RCC_FDCAN_CLKSOURCE_PCLK1      RCC_CCIPR_FDCANSEL_1    /*!< PCLK1 clock used as FDCAN cl
 421:Drivers/STM32G4xx_HAL_Driver/Inc/stm32g4xx_ll_rcc.h **** /**
 422:Drivers/STM32G4xx_HAL_Driver/Inc/stm32g4xx_ll_rcc.h ****   * @}
 423:Drivers/STM32G4xx_HAL_Driver/Inc/stm32g4xx_ll_rcc.h ****   */
 424:Drivers/STM32G4xx_HAL_Driver/Inc/stm32g4xx_ll_rcc.h **** #endif /* FDCAN1 */
 425:Drivers/STM32G4xx_HAL_Driver/Inc/stm32g4xx_ll_rcc.h **** 
 426:Drivers/STM32G4xx_HAL_Driver/Inc/stm32g4xx_ll_rcc.h **** /** @defgroup RCC_LL_EC_RNG_CLKSOURCE  Peripheral RNG clock source selection
 427:Drivers/STM32G4xx_HAL_Driver/Inc/stm32g4xx_ll_rcc.h ****   * @{
 428:Drivers/STM32G4xx_HAL_Driver/Inc/stm32g4xx_ll_rcc.h ****   */
 429:Drivers/STM32G4xx_HAL_Driver/Inc/stm32g4xx_ll_rcc.h **** #define LL_RCC_RNG_CLKSOURCE_HSI48        0x00000000U             /*!< HSI48 clock used as RNG cloc
 430:Drivers/STM32G4xx_HAL_Driver/Inc/stm32g4xx_ll_rcc.h **** #define LL_RCC_RNG_CLKSOURCE_PLL          RCC_CCIPR_CLK48SEL_1    /*!< PLL clock used as RNG clock 
 431:Drivers/STM32G4xx_HAL_Driver/Inc/stm32g4xx_ll_rcc.h **** /**
 432:Drivers/STM32G4xx_HAL_Driver/Inc/stm32g4xx_ll_rcc.h ****   * @}
 433:Drivers/STM32G4xx_HAL_Driver/Inc/stm32g4xx_ll_rcc.h ****   */
 434:Drivers/STM32G4xx_HAL_Driver/Inc/stm32g4xx_ll_rcc.h **** 
 435:Drivers/STM32G4xx_HAL_Driver/Inc/stm32g4xx_ll_rcc.h **** /** @defgroup RCC_LL_EC_USB_CLKSOURCE  Peripheral USB clock source selection
 436:Drivers/STM32G4xx_HAL_Driver/Inc/stm32g4xx_ll_rcc.h ****   * @{
 437:Drivers/STM32G4xx_HAL_Driver/Inc/stm32g4xx_ll_rcc.h ****   */
 438:Drivers/STM32G4xx_HAL_Driver/Inc/stm32g4xx_ll_rcc.h **** #define LL_RCC_USB_CLKSOURCE_HSI48        0x00000000U             /*!< HSI48 clock used as USB cloc
 439:Drivers/STM32G4xx_HAL_Driver/Inc/stm32g4xx_ll_rcc.h **** #define LL_RCC_USB_CLKSOURCE_PLL          RCC_CCIPR_CLK48SEL_1    /*!< PLL clock used as USB clock 
 440:Drivers/STM32G4xx_HAL_Driver/Inc/stm32g4xx_ll_rcc.h **** /**
 441:Drivers/STM32G4xx_HAL_Driver/Inc/stm32g4xx_ll_rcc.h ****   * @}
 442:Drivers/STM32G4xx_HAL_Driver/Inc/stm32g4xx_ll_rcc.h ****   */
 443:Drivers/STM32G4xx_HAL_Driver/Inc/stm32g4xx_ll_rcc.h **** 
 444:Drivers/STM32G4xx_HAL_Driver/Inc/stm32g4xx_ll_rcc.h **** /** @defgroup RCC_LL_EC_ADC_CLKSOURCE  Peripheral ADC clock source selection
 445:Drivers/STM32G4xx_HAL_Driver/Inc/stm32g4xx_ll_rcc.h ****   * @{
 446:Drivers/STM32G4xx_HAL_Driver/Inc/stm32g4xx_ll_rcc.h ****   */
 447:Drivers/STM32G4xx_HAL_Driver/Inc/stm32g4xx_ll_rcc.h **** #define LL_RCC_ADC12_CLKSOURCE_NONE        (((uint32_t)RCC_OFFSET_CCIPR << 24U) | ((uint32_t)RCC_CC
 448:Drivers/STM32G4xx_HAL_Driver/Inc/stm32g4xx_ll_rcc.h **** #define LL_RCC_ADC12_CLKSOURCE_PLL         (((uint32_t)RCC_OFFSET_CCIPR << 24U) | ((uint32_t)RCC_CC
 449:Drivers/STM32G4xx_HAL_Driver/Inc/stm32g4xx_ll_rcc.h **** #define LL_RCC_ADC12_CLKSOURCE_SYSCLK      (((uint32_t)RCC_OFFSET_CCIPR << 24U) | ((uint32_t)RCC_CC
 450:Drivers/STM32G4xx_HAL_Driver/Inc/stm32g4xx_ll_rcc.h **** #if defined(RCC_CCIPR_ADC345SEL)
 451:Drivers/STM32G4xx_HAL_Driver/Inc/stm32g4xx_ll_rcc.h **** #define LL_RCC_ADC345_CLKSOURCE_NONE       (((uint32_t)RCC_OFFSET_CCIPR << 24U) | ((uint32_t)RCC_CC
 452:Drivers/STM32G4xx_HAL_Driver/Inc/stm32g4xx_ll_rcc.h **** #define LL_RCC_ADC345_CLKSOURCE_PLL        (((uint32_t)RCC_OFFSET_CCIPR << 24U) | ((uint32_t)RCC_CC
 453:Drivers/STM32G4xx_HAL_Driver/Inc/stm32g4xx_ll_rcc.h **** #define LL_RCC_ADC345_CLKSOURCE_SYSCLK     (((uint32_t)RCC_OFFSET_CCIPR << 24U) | ((uint32_t)RCC_CC
 454:Drivers/STM32G4xx_HAL_Driver/Inc/stm32g4xx_ll_rcc.h **** #endif /* RCC_CCIPR_ADC345SEL */
 455:Drivers/STM32G4xx_HAL_Driver/Inc/stm32g4xx_ll_rcc.h **** /**
 456:Drivers/STM32G4xx_HAL_Driver/Inc/stm32g4xx_ll_rcc.h ****   * @}
 457:Drivers/STM32G4xx_HAL_Driver/Inc/stm32g4xx_ll_rcc.h ****   */
 458:Drivers/STM32G4xx_HAL_Driver/Inc/stm32g4xx_ll_rcc.h **** 
 459:Drivers/STM32G4xx_HAL_Driver/Inc/stm32g4xx_ll_rcc.h **** /** @defgroup RCC_LL_EC_QUADSPI  Peripheral QUADSPI get clock source
 460:Drivers/STM32G4xx_HAL_Driver/Inc/stm32g4xx_ll_rcc.h ****   * @{
 461:Drivers/STM32G4xx_HAL_Driver/Inc/stm32g4xx_ll_rcc.h ****   */
 462:Drivers/STM32G4xx_HAL_Driver/Inc/stm32g4xx_ll_rcc.h **** #define LL_RCC_QUADSPI_CLKSOURCE_SYSCLK    0x00000000U              /*!< SYSCLK used as QuadSPI clo
 463:Drivers/STM32G4xx_HAL_Driver/Inc/stm32g4xx_ll_rcc.h **** #define LL_RCC_QUADSPI_CLKSOURCE_HSI       RCC_CCIPR2_QSPISEL_0     /*!< HSI used as QuadSPI clock 
 464:Drivers/STM32G4xx_HAL_Driver/Inc/stm32g4xx_ll_rcc.h **** #define LL_RCC_QUADSPI_CLKSOURCE_PLL       RCC_CCIPR2_QSPISEL_1     /*!< PLL used as QuadSPI clock 
 465:Drivers/STM32G4xx_HAL_Driver/Inc/stm32g4xx_ll_rcc.h **** /**
 466:Drivers/STM32G4xx_HAL_Driver/Inc/stm32g4xx_ll_rcc.h ****   * @}
 467:Drivers/STM32G4xx_HAL_Driver/Inc/stm32g4xx_ll_rcc.h ****   */
 468:Drivers/STM32G4xx_HAL_Driver/Inc/stm32g4xx_ll_rcc.h **** 
 469:Drivers/STM32G4xx_HAL_Driver/Inc/stm32g4xx_ll_rcc.h **** 
 470:Drivers/STM32G4xx_HAL_Driver/Inc/stm32g4xx_ll_rcc.h **** /** @defgroup RCC_LL_EC_USARTx Peripheral USART get clock source
 471:Drivers/STM32G4xx_HAL_Driver/Inc/stm32g4xx_ll_rcc.h ****   * @{
 472:Drivers/STM32G4xx_HAL_Driver/Inc/stm32g4xx_ll_rcc.h ****   */
 473:Drivers/STM32G4xx_HAL_Driver/Inc/stm32g4xx_ll_rcc.h **** #define LL_RCC_USART1_CLKSOURCE            RCC_CCIPR_USART1SEL /*!< USART1 Clock source selection *
 474:Drivers/STM32G4xx_HAL_Driver/Inc/stm32g4xx_ll_rcc.h **** #define LL_RCC_USART2_CLKSOURCE            RCC_CCIPR_USART2SEL /*!< USART2 Clock source selection *
ARM GAS  /tmp/ccweegFn.s 			page 16


 475:Drivers/STM32G4xx_HAL_Driver/Inc/stm32g4xx_ll_rcc.h **** #define LL_RCC_USART3_CLKSOURCE            RCC_CCIPR_USART3SEL /*!< USART3 Clock source selection *
 476:Drivers/STM32G4xx_HAL_Driver/Inc/stm32g4xx_ll_rcc.h **** /**
 477:Drivers/STM32G4xx_HAL_Driver/Inc/stm32g4xx_ll_rcc.h ****   * @}
 478:Drivers/STM32G4xx_HAL_Driver/Inc/stm32g4xx_ll_rcc.h ****   */
 479:Drivers/STM32G4xx_HAL_Driver/Inc/stm32g4xx_ll_rcc.h **** 
 480:Drivers/STM32G4xx_HAL_Driver/Inc/stm32g4xx_ll_rcc.h **** /** @defgroup RCC_LL_EC_UARTx Peripheral UART get clock source
 481:Drivers/STM32G4xx_HAL_Driver/Inc/stm32g4xx_ll_rcc.h ****   * @{
 482:Drivers/STM32G4xx_HAL_Driver/Inc/stm32g4xx_ll_rcc.h ****   */
 483:Drivers/STM32G4xx_HAL_Driver/Inc/stm32g4xx_ll_rcc.h **** #if defined(RCC_CCIPR_UART4SEL)
 484:Drivers/STM32G4xx_HAL_Driver/Inc/stm32g4xx_ll_rcc.h **** #define LL_RCC_UART4_CLKSOURCE             RCC_CCIPR_UART4SEL /*!< UART4 Clock source selection */
 485:Drivers/STM32G4xx_HAL_Driver/Inc/stm32g4xx_ll_rcc.h **** #endif /* RCC_CCIPR_UART4SEL */
 486:Drivers/STM32G4xx_HAL_Driver/Inc/stm32g4xx_ll_rcc.h **** #if defined(RCC_CCIPR_UART5SEL)
 487:Drivers/STM32G4xx_HAL_Driver/Inc/stm32g4xx_ll_rcc.h **** #define LL_RCC_UART5_CLKSOURCE             RCC_CCIPR_UART5SEL /*!< UART5 Clock source selection */
 488:Drivers/STM32G4xx_HAL_Driver/Inc/stm32g4xx_ll_rcc.h **** #endif /* RCC_CCIPR_UART5SEL */
 489:Drivers/STM32G4xx_HAL_Driver/Inc/stm32g4xx_ll_rcc.h **** /**
 490:Drivers/STM32G4xx_HAL_Driver/Inc/stm32g4xx_ll_rcc.h ****   * @}
 491:Drivers/STM32G4xx_HAL_Driver/Inc/stm32g4xx_ll_rcc.h ****   */
 492:Drivers/STM32G4xx_HAL_Driver/Inc/stm32g4xx_ll_rcc.h **** 
 493:Drivers/STM32G4xx_HAL_Driver/Inc/stm32g4xx_ll_rcc.h **** /** @defgroup RCC_LL_EC_LPUART1 Peripheral LPUART get clock source
 494:Drivers/STM32G4xx_HAL_Driver/Inc/stm32g4xx_ll_rcc.h ****   * @{
 495:Drivers/STM32G4xx_HAL_Driver/Inc/stm32g4xx_ll_rcc.h ****   */
 496:Drivers/STM32G4xx_HAL_Driver/Inc/stm32g4xx_ll_rcc.h **** #define LL_RCC_LPUART1_CLKSOURCE           RCC_CCIPR_LPUART1SEL /*!< LPUART1 Clock source selection
 497:Drivers/STM32G4xx_HAL_Driver/Inc/stm32g4xx_ll_rcc.h **** /**
 498:Drivers/STM32G4xx_HAL_Driver/Inc/stm32g4xx_ll_rcc.h ****   * @}
 499:Drivers/STM32G4xx_HAL_Driver/Inc/stm32g4xx_ll_rcc.h ****   */
 500:Drivers/STM32G4xx_HAL_Driver/Inc/stm32g4xx_ll_rcc.h **** 
 501:Drivers/STM32G4xx_HAL_Driver/Inc/stm32g4xx_ll_rcc.h **** /** @defgroup RCC_LL_EC_I2C1 Peripheral I2C get clock source
 502:Drivers/STM32G4xx_HAL_Driver/Inc/stm32g4xx_ll_rcc.h ****   * @{
 503:Drivers/STM32G4xx_HAL_Driver/Inc/stm32g4xx_ll_rcc.h ****   */
 504:Drivers/STM32G4xx_HAL_Driver/Inc/stm32g4xx_ll_rcc.h **** #define LL_RCC_I2C1_CLKSOURCE              (((uint32_t)RCC_OFFSET_CCIPR << 24U) | ((uint32_t)RCC_CC
 505:Drivers/STM32G4xx_HAL_Driver/Inc/stm32g4xx_ll_rcc.h **** #define LL_RCC_I2C2_CLKSOURCE              (((uint32_t)RCC_OFFSET_CCIPR << 24U) | ((uint32_t)RCC_CC
 506:Drivers/STM32G4xx_HAL_Driver/Inc/stm32g4xx_ll_rcc.h **** #define LL_RCC_I2C3_CLKSOURCE              (((uint32_t)RCC_OFFSET_CCIPR << 24U) | ((uint32_t)RCC_CC
 507:Drivers/STM32G4xx_HAL_Driver/Inc/stm32g4xx_ll_rcc.h **** #if defined(RCC_CCIPR2_I2C4SEL)
 508:Drivers/STM32G4xx_HAL_Driver/Inc/stm32g4xx_ll_rcc.h **** #define LL_RCC_I2C4_CLKSOURCE              (((uint32_t)RCC_OFFSET_CCIPR2 << 24U) | ((uint32_t)RCC_C
 509:Drivers/STM32G4xx_HAL_Driver/Inc/stm32g4xx_ll_rcc.h **** #endif /* RCC_CCIPR2_I2C4SEL */
 510:Drivers/STM32G4xx_HAL_Driver/Inc/stm32g4xx_ll_rcc.h **** /**
 511:Drivers/STM32G4xx_HAL_Driver/Inc/stm32g4xx_ll_rcc.h ****   * @}
 512:Drivers/STM32G4xx_HAL_Driver/Inc/stm32g4xx_ll_rcc.h ****   */
 513:Drivers/STM32G4xx_HAL_Driver/Inc/stm32g4xx_ll_rcc.h **** 
 514:Drivers/STM32G4xx_HAL_Driver/Inc/stm32g4xx_ll_rcc.h **** /** @defgroup RCC_LL_EC_LPTIM1 Peripheral LPTIM get clock source
 515:Drivers/STM32G4xx_HAL_Driver/Inc/stm32g4xx_ll_rcc.h ****   * @{
 516:Drivers/STM32G4xx_HAL_Driver/Inc/stm32g4xx_ll_rcc.h ****   */
 517:Drivers/STM32G4xx_HAL_Driver/Inc/stm32g4xx_ll_rcc.h **** #define LL_RCC_LPTIM1_CLKSOURCE            RCC_CCIPR_LPTIM1SEL /*!< LPTIM1 Clock source selection *
 518:Drivers/STM32G4xx_HAL_Driver/Inc/stm32g4xx_ll_rcc.h **** /**
 519:Drivers/STM32G4xx_HAL_Driver/Inc/stm32g4xx_ll_rcc.h ****   * @}
 520:Drivers/STM32G4xx_HAL_Driver/Inc/stm32g4xx_ll_rcc.h ****   */
 521:Drivers/STM32G4xx_HAL_Driver/Inc/stm32g4xx_ll_rcc.h **** 
 522:Drivers/STM32G4xx_HAL_Driver/Inc/stm32g4xx_ll_rcc.h **** /** @defgroup RCC_LL_EC_SAI1  Peripheral SAI get clock source
 523:Drivers/STM32G4xx_HAL_Driver/Inc/stm32g4xx_ll_rcc.h ****   * @{
 524:Drivers/STM32G4xx_HAL_Driver/Inc/stm32g4xx_ll_rcc.h ****   */
 525:Drivers/STM32G4xx_HAL_Driver/Inc/stm32g4xx_ll_rcc.h **** #define LL_RCC_SAI1_CLKSOURCE              RCC_CCIPR_SAI1SEL /*!< SAI1 Clock source selection */
 526:Drivers/STM32G4xx_HAL_Driver/Inc/stm32g4xx_ll_rcc.h **** /**
 527:Drivers/STM32G4xx_HAL_Driver/Inc/stm32g4xx_ll_rcc.h ****   * @}
 528:Drivers/STM32G4xx_HAL_Driver/Inc/stm32g4xx_ll_rcc.h ****   */
 529:Drivers/STM32G4xx_HAL_Driver/Inc/stm32g4xx_ll_rcc.h **** 
 530:Drivers/STM32G4xx_HAL_Driver/Inc/stm32g4xx_ll_rcc.h **** /** @defgroup RCC_LL_EC_I2S  Peripheral I2S get clock source
 531:Drivers/STM32G4xx_HAL_Driver/Inc/stm32g4xx_ll_rcc.h ****   * @{
ARM GAS  /tmp/ccweegFn.s 			page 17


 532:Drivers/STM32G4xx_HAL_Driver/Inc/stm32g4xx_ll_rcc.h ****   */
 533:Drivers/STM32G4xx_HAL_Driver/Inc/stm32g4xx_ll_rcc.h **** #define LL_RCC_I2S_CLKSOURCE              RCC_CCIPR_I2S23SEL /*!< I2S Clock source selection */
 534:Drivers/STM32G4xx_HAL_Driver/Inc/stm32g4xx_ll_rcc.h **** /**
 535:Drivers/STM32G4xx_HAL_Driver/Inc/stm32g4xx_ll_rcc.h ****   * @}
 536:Drivers/STM32G4xx_HAL_Driver/Inc/stm32g4xx_ll_rcc.h ****   */
 537:Drivers/STM32G4xx_HAL_Driver/Inc/stm32g4xx_ll_rcc.h **** 
 538:Drivers/STM32G4xx_HAL_Driver/Inc/stm32g4xx_ll_rcc.h **** #if defined(FDCAN1)
 539:Drivers/STM32G4xx_HAL_Driver/Inc/stm32g4xx_ll_rcc.h **** /** @defgroup RCC_LL_EC_FDCAN  Peripheral FDCAN get clock source
 540:Drivers/STM32G4xx_HAL_Driver/Inc/stm32g4xx_ll_rcc.h ****   * @{
 541:Drivers/STM32G4xx_HAL_Driver/Inc/stm32g4xx_ll_rcc.h ****   */
 542:Drivers/STM32G4xx_HAL_Driver/Inc/stm32g4xx_ll_rcc.h **** #define LL_RCC_FDCAN_CLKSOURCE             RCC_CCIPR_FDCANSEL /*!< FDCAN Clock source selection */
 543:Drivers/STM32G4xx_HAL_Driver/Inc/stm32g4xx_ll_rcc.h **** #endif /* FDCAN1 */
 544:Drivers/STM32G4xx_HAL_Driver/Inc/stm32g4xx_ll_rcc.h **** 
 545:Drivers/STM32G4xx_HAL_Driver/Inc/stm32g4xx_ll_rcc.h **** /**
 546:Drivers/STM32G4xx_HAL_Driver/Inc/stm32g4xx_ll_rcc.h ****   * @}
 547:Drivers/STM32G4xx_HAL_Driver/Inc/stm32g4xx_ll_rcc.h ****   */
 548:Drivers/STM32G4xx_HAL_Driver/Inc/stm32g4xx_ll_rcc.h **** 
 549:Drivers/STM32G4xx_HAL_Driver/Inc/stm32g4xx_ll_rcc.h **** /** @defgroup RCC_LL_EC_RNG  Peripheral RNG get clock source
 550:Drivers/STM32G4xx_HAL_Driver/Inc/stm32g4xx_ll_rcc.h ****   * @{
 551:Drivers/STM32G4xx_HAL_Driver/Inc/stm32g4xx_ll_rcc.h ****   */
 552:Drivers/STM32G4xx_HAL_Driver/Inc/stm32g4xx_ll_rcc.h **** #define LL_RCC_RNG_CLKSOURCE               RCC_CCIPR_CLK48SEL /*!< RNG Clock source selection */
 553:Drivers/STM32G4xx_HAL_Driver/Inc/stm32g4xx_ll_rcc.h **** /**
 554:Drivers/STM32G4xx_HAL_Driver/Inc/stm32g4xx_ll_rcc.h ****   * @}
 555:Drivers/STM32G4xx_HAL_Driver/Inc/stm32g4xx_ll_rcc.h ****   */
 556:Drivers/STM32G4xx_HAL_Driver/Inc/stm32g4xx_ll_rcc.h **** 
 557:Drivers/STM32G4xx_HAL_Driver/Inc/stm32g4xx_ll_rcc.h **** /** @defgroup RCC_LL_EC_USB  Peripheral USB get clock source
 558:Drivers/STM32G4xx_HAL_Driver/Inc/stm32g4xx_ll_rcc.h ****   * @{
 559:Drivers/STM32G4xx_HAL_Driver/Inc/stm32g4xx_ll_rcc.h ****   */
 560:Drivers/STM32G4xx_HAL_Driver/Inc/stm32g4xx_ll_rcc.h **** #define LL_RCC_USB_CLKSOURCE               RCC_CCIPR_CLK48SEL /*!< USB Clock source selection */
 561:Drivers/STM32G4xx_HAL_Driver/Inc/stm32g4xx_ll_rcc.h **** /**
 562:Drivers/STM32G4xx_HAL_Driver/Inc/stm32g4xx_ll_rcc.h ****   * @}
 563:Drivers/STM32G4xx_HAL_Driver/Inc/stm32g4xx_ll_rcc.h ****   */
 564:Drivers/STM32G4xx_HAL_Driver/Inc/stm32g4xx_ll_rcc.h **** 
 565:Drivers/STM32G4xx_HAL_Driver/Inc/stm32g4xx_ll_rcc.h **** /** @defgroup RCC_LL_EC_ADC  Peripheral ADC get clock source
 566:Drivers/STM32G4xx_HAL_Driver/Inc/stm32g4xx_ll_rcc.h ****   * @{
 567:Drivers/STM32G4xx_HAL_Driver/Inc/stm32g4xx_ll_rcc.h ****   */
 568:Drivers/STM32G4xx_HAL_Driver/Inc/stm32g4xx_ll_rcc.h **** #define LL_RCC_ADC12_CLKSOURCE             (((uint32_t)RCC_OFFSET_CCIPR << 24U) | ((uint32_t)RCC_CC
 569:Drivers/STM32G4xx_HAL_Driver/Inc/stm32g4xx_ll_rcc.h **** #if defined(RCC_CCIPR_ADC345SEL_Pos)
 570:Drivers/STM32G4xx_HAL_Driver/Inc/stm32g4xx_ll_rcc.h **** #define LL_RCC_ADC345_CLKSOURCE            (((uint32_t)RCC_OFFSET_CCIPR << 24U) | ((uint32_t)RCC_CC
 571:Drivers/STM32G4xx_HAL_Driver/Inc/stm32g4xx_ll_rcc.h **** #endif /* RCC_CCIPR_ADC345SEL_Pos */
 572:Drivers/STM32G4xx_HAL_Driver/Inc/stm32g4xx_ll_rcc.h **** /**
 573:Drivers/STM32G4xx_HAL_Driver/Inc/stm32g4xx_ll_rcc.h ****   * @}
 574:Drivers/STM32G4xx_HAL_Driver/Inc/stm32g4xx_ll_rcc.h ****   */
 575:Drivers/STM32G4xx_HAL_Driver/Inc/stm32g4xx_ll_rcc.h **** 
 576:Drivers/STM32G4xx_HAL_Driver/Inc/stm32g4xx_ll_rcc.h **** /** @defgroup RCC_LL_EC_QUADSPI  Peripheral QUADSPI get clock source
 577:Drivers/STM32G4xx_HAL_Driver/Inc/stm32g4xx_ll_rcc.h ****   * @{
 578:Drivers/STM32G4xx_HAL_Driver/Inc/stm32g4xx_ll_rcc.h ****   */
 579:Drivers/STM32G4xx_HAL_Driver/Inc/stm32g4xx_ll_rcc.h **** #define LL_RCC_QUADSPI_CLKSOURCE           RCC_CCIPR2_QSPISEL    /*!< QuadSPI Clock source selectio
 580:Drivers/STM32G4xx_HAL_Driver/Inc/stm32g4xx_ll_rcc.h **** /**
 581:Drivers/STM32G4xx_HAL_Driver/Inc/stm32g4xx_ll_rcc.h ****   * @}
 582:Drivers/STM32G4xx_HAL_Driver/Inc/stm32g4xx_ll_rcc.h ****   */
 583:Drivers/STM32G4xx_HAL_Driver/Inc/stm32g4xx_ll_rcc.h **** 
 584:Drivers/STM32G4xx_HAL_Driver/Inc/stm32g4xx_ll_rcc.h **** /** @defgroup RCC_LL_EC_RTC_CLKSOURCE  RTC clock source selection
 585:Drivers/STM32G4xx_HAL_Driver/Inc/stm32g4xx_ll_rcc.h ****   * @{
 586:Drivers/STM32G4xx_HAL_Driver/Inc/stm32g4xx_ll_rcc.h ****   */
 587:Drivers/STM32G4xx_HAL_Driver/Inc/stm32g4xx_ll_rcc.h **** #define LL_RCC_RTC_CLKSOURCE_NONE          0x00000000U                   /*!< No clock used as RTC 
 588:Drivers/STM32G4xx_HAL_Driver/Inc/stm32g4xx_ll_rcc.h **** #define LL_RCC_RTC_CLKSOURCE_LSE           RCC_BDCR_RTCSEL_0       /*!< LSE oscillator clock used a
ARM GAS  /tmp/ccweegFn.s 			page 18


 589:Drivers/STM32G4xx_HAL_Driver/Inc/stm32g4xx_ll_rcc.h **** #define LL_RCC_RTC_CLKSOURCE_LSI           RCC_BDCR_RTCSEL_1       /*!< LSI oscillator clock used a
 590:Drivers/STM32G4xx_HAL_Driver/Inc/stm32g4xx_ll_rcc.h **** #define LL_RCC_RTC_CLKSOURCE_HSE_DIV32     RCC_BDCR_RTCSEL         /*!< HSE oscillator clock divide
 591:Drivers/STM32G4xx_HAL_Driver/Inc/stm32g4xx_ll_rcc.h **** /**
 592:Drivers/STM32G4xx_HAL_Driver/Inc/stm32g4xx_ll_rcc.h ****   * @}
 593:Drivers/STM32G4xx_HAL_Driver/Inc/stm32g4xx_ll_rcc.h ****   */
 594:Drivers/STM32G4xx_HAL_Driver/Inc/stm32g4xx_ll_rcc.h **** 
 595:Drivers/STM32G4xx_HAL_Driver/Inc/stm32g4xx_ll_rcc.h **** 
 596:Drivers/STM32G4xx_HAL_Driver/Inc/stm32g4xx_ll_rcc.h **** /** @defgroup RCC_LL_EC_PLLSOURCE  PLL entry clock source
 597:Drivers/STM32G4xx_HAL_Driver/Inc/stm32g4xx_ll_rcc.h ****   * @{
 598:Drivers/STM32G4xx_HAL_Driver/Inc/stm32g4xx_ll_rcc.h ****   */
 599:Drivers/STM32G4xx_HAL_Driver/Inc/stm32g4xx_ll_rcc.h **** #define LL_RCC_PLLSOURCE_NONE              0x00000000U             /*!< No clock */
 600:Drivers/STM32G4xx_HAL_Driver/Inc/stm32g4xx_ll_rcc.h **** #define LL_RCC_PLLSOURCE_HSI               RCC_PLLCFGR_PLLSRC_HSI  /*!< HSI16 clock selected as PLL
 601:Drivers/STM32G4xx_HAL_Driver/Inc/stm32g4xx_ll_rcc.h **** #define LL_RCC_PLLSOURCE_HSE               RCC_PLLCFGR_PLLSRC_HSE  /*!< HSE clock selected as PLL e
 602:Drivers/STM32G4xx_HAL_Driver/Inc/stm32g4xx_ll_rcc.h **** /**
 603:Drivers/STM32G4xx_HAL_Driver/Inc/stm32g4xx_ll_rcc.h ****   * @}
 604:Drivers/STM32G4xx_HAL_Driver/Inc/stm32g4xx_ll_rcc.h ****   */
 605:Drivers/STM32G4xx_HAL_Driver/Inc/stm32g4xx_ll_rcc.h **** 
 606:Drivers/STM32G4xx_HAL_Driver/Inc/stm32g4xx_ll_rcc.h **** /** @defgroup RCC_LL_EC_PLLM_DIV  PLL division factor
 607:Drivers/STM32G4xx_HAL_Driver/Inc/stm32g4xx_ll_rcc.h ****   * @{
 608:Drivers/STM32G4xx_HAL_Driver/Inc/stm32g4xx_ll_rcc.h ****   */
 609:Drivers/STM32G4xx_HAL_Driver/Inc/stm32g4xx_ll_rcc.h **** #define LL_RCC_PLLM_DIV_1                  0x00000000U                                             
 610:Drivers/STM32G4xx_HAL_Driver/Inc/stm32g4xx_ll_rcc.h **** #define LL_RCC_PLLM_DIV_2                  RCC_PLLCFGR_PLLM_0                                      
 611:Drivers/STM32G4xx_HAL_Driver/Inc/stm32g4xx_ll_rcc.h **** #define LL_RCC_PLLM_DIV_3                  RCC_PLLCFGR_PLLM_1                                      
 612:Drivers/STM32G4xx_HAL_Driver/Inc/stm32g4xx_ll_rcc.h **** #define LL_RCC_PLLM_DIV_4                  (RCC_PLLCFGR_PLLM_1 | RCC_PLLCFGR_PLLM_0)               
 613:Drivers/STM32G4xx_HAL_Driver/Inc/stm32g4xx_ll_rcc.h **** #define LL_RCC_PLLM_DIV_5                  RCC_PLLCFGR_PLLM_2                                      
 614:Drivers/STM32G4xx_HAL_Driver/Inc/stm32g4xx_ll_rcc.h **** #define LL_RCC_PLLM_DIV_6                  (RCC_PLLCFGR_PLLM_2 | RCC_PLLCFGR_PLLM_0)               
 615:Drivers/STM32G4xx_HAL_Driver/Inc/stm32g4xx_ll_rcc.h **** #define LL_RCC_PLLM_DIV_7                  (RCC_PLLCFGR_PLLM_2 | RCC_PLLCFGR_PLLM_1)               
 616:Drivers/STM32G4xx_HAL_Driver/Inc/stm32g4xx_ll_rcc.h **** #define LL_RCC_PLLM_DIV_8                  (RCC_PLLCFGR_PLLM_2 | RCC_PLLCFGR_PLLM_1 | RCC_PLLCFGR_P
 617:Drivers/STM32G4xx_HAL_Driver/Inc/stm32g4xx_ll_rcc.h **** #define LL_RCC_PLLM_DIV_9                  RCC_PLLCFGR_PLLM_3                                      
 618:Drivers/STM32G4xx_HAL_Driver/Inc/stm32g4xx_ll_rcc.h **** #define LL_RCC_PLLM_DIV_10                 (RCC_PLLCFGR_PLLM_3 | RCC_PLLCFGR_PLLM_0)               
 619:Drivers/STM32G4xx_HAL_Driver/Inc/stm32g4xx_ll_rcc.h **** #define LL_RCC_PLLM_DIV_11                 (RCC_PLLCFGR_PLLM_3 | RCC_PLLCFGR_PLLM_1)               
 620:Drivers/STM32G4xx_HAL_Driver/Inc/stm32g4xx_ll_rcc.h **** #define LL_RCC_PLLM_DIV_12                 (RCC_PLLCFGR_PLLM_3 | RCC_PLLCFGR_PLLM_1 | RCC_PLLCFGR_P
 621:Drivers/STM32G4xx_HAL_Driver/Inc/stm32g4xx_ll_rcc.h **** #define LL_RCC_PLLM_DIV_13                 (RCC_PLLCFGR_PLLM_3 | RCC_PLLCFGR_PLLM_2)               
 622:Drivers/STM32G4xx_HAL_Driver/Inc/stm32g4xx_ll_rcc.h **** #define LL_RCC_PLLM_DIV_14                 (RCC_PLLCFGR_PLLM_3 | RCC_PLLCFGR_PLLM_2 | RCC_PLLCFGR_P
 623:Drivers/STM32G4xx_HAL_Driver/Inc/stm32g4xx_ll_rcc.h **** #define LL_RCC_PLLM_DIV_15                 (RCC_PLLCFGR_PLLM_3 | RCC_PLLCFGR_PLLM_2 | RCC_PLLCFGR_P
 624:Drivers/STM32G4xx_HAL_Driver/Inc/stm32g4xx_ll_rcc.h **** #define LL_RCC_PLLM_DIV_16                 (RCC_PLLCFGR_PLLM_3 | RCC_PLLCFGR_PLLM_2 | RCC_PLLCFGR_P
 625:Drivers/STM32G4xx_HAL_Driver/Inc/stm32g4xx_ll_rcc.h **** /**
 626:Drivers/STM32G4xx_HAL_Driver/Inc/stm32g4xx_ll_rcc.h ****   * @}
 627:Drivers/STM32G4xx_HAL_Driver/Inc/stm32g4xx_ll_rcc.h ****   */
 628:Drivers/STM32G4xx_HAL_Driver/Inc/stm32g4xx_ll_rcc.h **** 
 629:Drivers/STM32G4xx_HAL_Driver/Inc/stm32g4xx_ll_rcc.h **** /** @defgroup RCC_LL_EC_PLLR_DIV  PLL division factor (PLLR)
 630:Drivers/STM32G4xx_HAL_Driver/Inc/stm32g4xx_ll_rcc.h ****   * @{
 631:Drivers/STM32G4xx_HAL_Driver/Inc/stm32g4xx_ll_rcc.h ****   */
 632:Drivers/STM32G4xx_HAL_Driver/Inc/stm32g4xx_ll_rcc.h **** #define LL_RCC_PLLR_DIV_2                  0x00000000U            /*!< Main PLL division factor for
 633:Drivers/STM32G4xx_HAL_Driver/Inc/stm32g4xx_ll_rcc.h **** #define LL_RCC_PLLR_DIV_4                  (RCC_PLLCFGR_PLLR_0)   /*!< Main PLL division factor for
 634:Drivers/STM32G4xx_HAL_Driver/Inc/stm32g4xx_ll_rcc.h **** #define LL_RCC_PLLR_DIV_6                  (RCC_PLLCFGR_PLLR_1)   /*!< Main PLL division factor for
 635:Drivers/STM32G4xx_HAL_Driver/Inc/stm32g4xx_ll_rcc.h **** #define LL_RCC_PLLR_DIV_8                  (RCC_PLLCFGR_PLLR)     /*!< Main PLL division factor for
 636:Drivers/STM32G4xx_HAL_Driver/Inc/stm32g4xx_ll_rcc.h **** /**
 637:Drivers/STM32G4xx_HAL_Driver/Inc/stm32g4xx_ll_rcc.h ****   * @}
 638:Drivers/STM32G4xx_HAL_Driver/Inc/stm32g4xx_ll_rcc.h ****   */
 639:Drivers/STM32G4xx_HAL_Driver/Inc/stm32g4xx_ll_rcc.h **** 
 640:Drivers/STM32G4xx_HAL_Driver/Inc/stm32g4xx_ll_rcc.h **** /** @defgroup RCC_LL_EC_PLLP_DIV  PLL division factor (PLLP)
 641:Drivers/STM32G4xx_HAL_Driver/Inc/stm32g4xx_ll_rcc.h ****   * @{
 642:Drivers/STM32G4xx_HAL_Driver/Inc/stm32g4xx_ll_rcc.h ****   */
 643:Drivers/STM32G4xx_HAL_Driver/Inc/stm32g4xx_ll_rcc.h **** #define LL_RCC_PLLP_DIV_2                  (RCC_PLLCFGR_PLLPDIV_1)                                 
 644:Drivers/STM32G4xx_HAL_Driver/Inc/stm32g4xx_ll_rcc.h **** #define LL_RCC_PLLP_DIV_3                  (RCC_PLLCFGR_PLLPDIV_1|RCC_PLLCFGR_PLLPDIV_0)           
 645:Drivers/STM32G4xx_HAL_Driver/Inc/stm32g4xx_ll_rcc.h **** #define LL_RCC_PLLP_DIV_4                  (RCC_PLLCFGR_PLLPDIV_2)                                 
ARM GAS  /tmp/ccweegFn.s 			page 19


 646:Drivers/STM32G4xx_HAL_Driver/Inc/stm32g4xx_ll_rcc.h **** #define LL_RCC_PLLP_DIV_5                  (RCC_PLLCFGR_PLLPDIV_2|RCC_PLLCFGR_PLLPDIV_0)           
 647:Drivers/STM32G4xx_HAL_Driver/Inc/stm32g4xx_ll_rcc.h **** #define LL_RCC_PLLP_DIV_6                  (RCC_PLLCFGR_PLLPDIV_2|RCC_PLLCFGR_PLLPDIV_1)           
 648:Drivers/STM32G4xx_HAL_Driver/Inc/stm32g4xx_ll_rcc.h **** #define LL_RCC_PLLP_DIV_7                  (RCC_PLLCFGR_PLLPDIV_2|RCC_PLLCFGR_PLLPDIV_1|RCC_PLLCFGR
 649:Drivers/STM32G4xx_HAL_Driver/Inc/stm32g4xx_ll_rcc.h **** #define LL_RCC_PLLP_DIV_8                  (RCC_PLLCFGR_PLLPDIV_3)                                 
 650:Drivers/STM32G4xx_HAL_Driver/Inc/stm32g4xx_ll_rcc.h **** #define LL_RCC_PLLP_DIV_9                  (RCC_PLLCFGR_PLLPDIV_3|RCC_PLLCFGR_PLLPDIV_0)           
 651:Drivers/STM32G4xx_HAL_Driver/Inc/stm32g4xx_ll_rcc.h **** #define LL_RCC_PLLP_DIV_10                 (RCC_PLLCFGR_PLLPDIV_3|RCC_PLLCFGR_PLLPDIV_1)           
 652:Drivers/STM32G4xx_HAL_Driver/Inc/stm32g4xx_ll_rcc.h **** #define LL_RCC_PLLP_DIV_11                 (RCC_PLLCFGR_PLLPDIV_3|RCC_PLLCFGR_PLLPDIV_1|RCC_PLLCFGR
 653:Drivers/STM32G4xx_HAL_Driver/Inc/stm32g4xx_ll_rcc.h **** #define LL_RCC_PLLP_DIV_12                 (RCC_PLLCFGR_PLLPDIV_3|RCC_PLLCFGR_PLLPDIV_2)           
 654:Drivers/STM32G4xx_HAL_Driver/Inc/stm32g4xx_ll_rcc.h **** #define LL_RCC_PLLP_DIV_13                 (RCC_PLLCFGR_PLLPDIV_3|RCC_PLLCFGR_PLLPDIV_2|RCC_PLLCFGR
 655:Drivers/STM32G4xx_HAL_Driver/Inc/stm32g4xx_ll_rcc.h **** #define LL_RCC_PLLP_DIV_14                 (RCC_PLLCFGR_PLLPDIV_3|RCC_PLLCFGR_PLLPDIV_2|RCC_PLLCFGR
 656:Drivers/STM32G4xx_HAL_Driver/Inc/stm32g4xx_ll_rcc.h **** #define LL_RCC_PLLP_DIV_15                 (RCC_PLLCFGR_PLLPDIV_3|RCC_PLLCFGR_PLLPDIV_2|RCC_PLLCFGR
 657:Drivers/STM32G4xx_HAL_Driver/Inc/stm32g4xx_ll_rcc.h **** #define LL_RCC_PLLP_DIV_16                 (RCC_PLLCFGR_PLLPDIV_4)                                 
 658:Drivers/STM32G4xx_HAL_Driver/Inc/stm32g4xx_ll_rcc.h **** #define LL_RCC_PLLP_DIV_17                 (RCC_PLLCFGR_PLLPDIV_4|RCC_PLLCFGR_PLLPDIV_0)           
 659:Drivers/STM32G4xx_HAL_Driver/Inc/stm32g4xx_ll_rcc.h **** #define LL_RCC_PLLP_DIV_18                 (RCC_PLLCFGR_PLLPDIV_4|RCC_PLLCFGR_PLLPDIV_1)           
 660:Drivers/STM32G4xx_HAL_Driver/Inc/stm32g4xx_ll_rcc.h **** #define LL_RCC_PLLP_DIV_19                 (RCC_PLLCFGR_PLLPDIV_4|RCC_PLLCFGR_PLLPDIV_1|RCC_PLLCFGR
 661:Drivers/STM32G4xx_HAL_Driver/Inc/stm32g4xx_ll_rcc.h **** #define LL_RCC_PLLP_DIV_20                 (RCC_PLLCFGR_PLLPDIV_4|RCC_PLLCFGR_PLLPDIV_2)           
 662:Drivers/STM32G4xx_HAL_Driver/Inc/stm32g4xx_ll_rcc.h **** #define LL_RCC_PLLP_DIV_21                 (RCC_PLLCFGR_PLLPDIV_4|RCC_PLLCFGR_PLLPDIV_2|RCC_PLLCFGR
 663:Drivers/STM32G4xx_HAL_Driver/Inc/stm32g4xx_ll_rcc.h **** #define LL_RCC_PLLP_DIV_22                 (RCC_PLLCFGR_PLLPDIV_4|RCC_PLLCFGR_PLLPDIV_2|RCC_PLLCFGR
 664:Drivers/STM32G4xx_HAL_Driver/Inc/stm32g4xx_ll_rcc.h **** #define LL_RCC_PLLP_DIV_23                 (RCC_PLLCFGR_PLLPDIV_4|RCC_PLLCFGR_PLLPDIV_2|RCC_PLLCFGR
 665:Drivers/STM32G4xx_HAL_Driver/Inc/stm32g4xx_ll_rcc.h **** #define LL_RCC_PLLP_DIV_24                 (RCC_PLLCFGR_PLLPDIV_4|RCC_PLLCFGR_PLLPDIV_3)           
 666:Drivers/STM32G4xx_HAL_Driver/Inc/stm32g4xx_ll_rcc.h **** #define LL_RCC_PLLP_DIV_25                 (RCC_PLLCFGR_PLLPDIV_4|RCC_PLLCFGR_PLLPDIV_3|RCC_PLLCFGR
 667:Drivers/STM32G4xx_HAL_Driver/Inc/stm32g4xx_ll_rcc.h **** #define LL_RCC_PLLP_DIV_26                 (RCC_PLLCFGR_PLLPDIV_4|RCC_PLLCFGR_PLLPDIV_3|RCC_PLLCFGR
 668:Drivers/STM32G4xx_HAL_Driver/Inc/stm32g4xx_ll_rcc.h **** #define LL_RCC_PLLP_DIV_27                 (RCC_PLLCFGR_PLLPDIV_4|RCC_PLLCFGR_PLLPDIV_3|RCC_PLLCFGR
 669:Drivers/STM32G4xx_HAL_Driver/Inc/stm32g4xx_ll_rcc.h **** #define LL_RCC_PLLP_DIV_28                 (RCC_PLLCFGR_PLLPDIV_4|RCC_PLLCFGR_PLLPDIV_3|RCC_PLLCFGR
 670:Drivers/STM32G4xx_HAL_Driver/Inc/stm32g4xx_ll_rcc.h **** #define LL_RCC_PLLP_DIV_29                 (RCC_PLLCFGR_PLLPDIV_4|RCC_PLLCFGR_PLLPDIV_3|RCC_PLLCFGR
 671:Drivers/STM32G4xx_HAL_Driver/Inc/stm32g4xx_ll_rcc.h **** #define LL_RCC_PLLP_DIV_30                 (RCC_PLLCFGR_PLLPDIV_4|RCC_PLLCFGR_PLLPDIV_3|RCC_PLLCFGR
 672:Drivers/STM32G4xx_HAL_Driver/Inc/stm32g4xx_ll_rcc.h **** #define LL_RCC_PLLP_DIV_31                 (RCC_PLLCFGR_PLLPDIV_4|RCC_PLLCFGR_PLLPDIV_3|RCC_PLLCFGR
 673:Drivers/STM32G4xx_HAL_Driver/Inc/stm32g4xx_ll_rcc.h **** /**
 674:Drivers/STM32G4xx_HAL_Driver/Inc/stm32g4xx_ll_rcc.h ****   * @}
 675:Drivers/STM32G4xx_HAL_Driver/Inc/stm32g4xx_ll_rcc.h ****   */
 676:Drivers/STM32G4xx_HAL_Driver/Inc/stm32g4xx_ll_rcc.h **** 
 677:Drivers/STM32G4xx_HAL_Driver/Inc/stm32g4xx_ll_rcc.h **** /** @defgroup RCC_LL_EC_PLLQ_DIV  PLL division factor (PLLQ)
 678:Drivers/STM32G4xx_HAL_Driver/Inc/stm32g4xx_ll_rcc.h ****   * @{
 679:Drivers/STM32G4xx_HAL_Driver/Inc/stm32g4xx_ll_rcc.h ****   */
 680:Drivers/STM32G4xx_HAL_Driver/Inc/stm32g4xx_ll_rcc.h **** #define LL_RCC_PLLQ_DIV_2                  0x00000000U             /*!< Main PLL division factor fo
 681:Drivers/STM32G4xx_HAL_Driver/Inc/stm32g4xx_ll_rcc.h **** #define LL_RCC_PLLQ_DIV_4                  (RCC_PLLCFGR_PLLQ_0)    /*!< Main PLL division factor fo
 682:Drivers/STM32G4xx_HAL_Driver/Inc/stm32g4xx_ll_rcc.h **** #define LL_RCC_PLLQ_DIV_6                  (RCC_PLLCFGR_PLLQ_1)    /*!< Main PLL division factor fo
 683:Drivers/STM32G4xx_HAL_Driver/Inc/stm32g4xx_ll_rcc.h **** #define LL_RCC_PLLQ_DIV_8                  (RCC_PLLCFGR_PLLQ)      /*!< Main PLL division factor fo
 684:Drivers/STM32G4xx_HAL_Driver/Inc/stm32g4xx_ll_rcc.h **** /**
 685:Drivers/STM32G4xx_HAL_Driver/Inc/stm32g4xx_ll_rcc.h ****   * @}
 686:Drivers/STM32G4xx_HAL_Driver/Inc/stm32g4xx_ll_rcc.h ****   */
 687:Drivers/STM32G4xx_HAL_Driver/Inc/stm32g4xx_ll_rcc.h **** 
 688:Drivers/STM32G4xx_HAL_Driver/Inc/stm32g4xx_ll_rcc.h **** /**
 689:Drivers/STM32G4xx_HAL_Driver/Inc/stm32g4xx_ll_rcc.h ****   * @}
 690:Drivers/STM32G4xx_HAL_Driver/Inc/stm32g4xx_ll_rcc.h ****   */
 691:Drivers/STM32G4xx_HAL_Driver/Inc/stm32g4xx_ll_rcc.h **** 
 692:Drivers/STM32G4xx_HAL_Driver/Inc/stm32g4xx_ll_rcc.h **** /* Exported macro ------------------------------------------------------------*/
 693:Drivers/STM32G4xx_HAL_Driver/Inc/stm32g4xx_ll_rcc.h **** /** @defgroup RCC_LL_Exported_Macros RCC Exported Macros
 694:Drivers/STM32G4xx_HAL_Driver/Inc/stm32g4xx_ll_rcc.h ****   * @{
 695:Drivers/STM32G4xx_HAL_Driver/Inc/stm32g4xx_ll_rcc.h ****   */
 696:Drivers/STM32G4xx_HAL_Driver/Inc/stm32g4xx_ll_rcc.h **** 
 697:Drivers/STM32G4xx_HAL_Driver/Inc/stm32g4xx_ll_rcc.h **** /** @defgroup RCC_LL_EM_WRITE_READ Common Write and read registers Macros
 698:Drivers/STM32G4xx_HAL_Driver/Inc/stm32g4xx_ll_rcc.h ****   * @{
 699:Drivers/STM32G4xx_HAL_Driver/Inc/stm32g4xx_ll_rcc.h ****   */
 700:Drivers/STM32G4xx_HAL_Driver/Inc/stm32g4xx_ll_rcc.h **** 
 701:Drivers/STM32G4xx_HAL_Driver/Inc/stm32g4xx_ll_rcc.h **** /**
 702:Drivers/STM32G4xx_HAL_Driver/Inc/stm32g4xx_ll_rcc.h ****   * @brief  Write a value in RCC register
ARM GAS  /tmp/ccweegFn.s 			page 20


 703:Drivers/STM32G4xx_HAL_Driver/Inc/stm32g4xx_ll_rcc.h ****   * @param  __REG__ Register to be written
 704:Drivers/STM32G4xx_HAL_Driver/Inc/stm32g4xx_ll_rcc.h ****   * @param  __VALUE__ Value to be written in the register
 705:Drivers/STM32G4xx_HAL_Driver/Inc/stm32g4xx_ll_rcc.h ****   * @retval None
 706:Drivers/STM32G4xx_HAL_Driver/Inc/stm32g4xx_ll_rcc.h ****   */
 707:Drivers/STM32G4xx_HAL_Driver/Inc/stm32g4xx_ll_rcc.h **** #define LL_RCC_WriteReg(__REG__, __VALUE__) WRITE_REG(RCC->__REG__, __VALUE__)
 708:Drivers/STM32G4xx_HAL_Driver/Inc/stm32g4xx_ll_rcc.h **** 
 709:Drivers/STM32G4xx_HAL_Driver/Inc/stm32g4xx_ll_rcc.h **** /**
 710:Drivers/STM32G4xx_HAL_Driver/Inc/stm32g4xx_ll_rcc.h ****   * @brief  Read a value in RCC register
 711:Drivers/STM32G4xx_HAL_Driver/Inc/stm32g4xx_ll_rcc.h ****   * @param  __REG__ Register to be read
 712:Drivers/STM32G4xx_HAL_Driver/Inc/stm32g4xx_ll_rcc.h ****   * @retval Register value
 713:Drivers/STM32G4xx_HAL_Driver/Inc/stm32g4xx_ll_rcc.h ****   */
 714:Drivers/STM32G4xx_HAL_Driver/Inc/stm32g4xx_ll_rcc.h **** #define LL_RCC_ReadReg(__REG__) READ_REG(RCC->__REG__)
 715:Drivers/STM32G4xx_HAL_Driver/Inc/stm32g4xx_ll_rcc.h **** /**
 716:Drivers/STM32G4xx_HAL_Driver/Inc/stm32g4xx_ll_rcc.h ****   * @}
 717:Drivers/STM32G4xx_HAL_Driver/Inc/stm32g4xx_ll_rcc.h ****   */
 718:Drivers/STM32G4xx_HAL_Driver/Inc/stm32g4xx_ll_rcc.h **** 
 719:Drivers/STM32G4xx_HAL_Driver/Inc/stm32g4xx_ll_rcc.h **** /** @defgroup RCC_LL_EM_CALC_FREQ Calculate frequencies
 720:Drivers/STM32G4xx_HAL_Driver/Inc/stm32g4xx_ll_rcc.h ****   * @{
 721:Drivers/STM32G4xx_HAL_Driver/Inc/stm32g4xx_ll_rcc.h ****   */
 722:Drivers/STM32G4xx_HAL_Driver/Inc/stm32g4xx_ll_rcc.h **** 
 723:Drivers/STM32G4xx_HAL_Driver/Inc/stm32g4xx_ll_rcc.h **** /**
 724:Drivers/STM32G4xx_HAL_Driver/Inc/stm32g4xx_ll_rcc.h ****   * @brief  Helper macro to calculate the PLLCLK frequency on system domain
 725:Drivers/STM32G4xx_HAL_Driver/Inc/stm32g4xx_ll_rcc.h ****   * @note ex: @ref __LL_RCC_CALC_PLLCLK_FREQ (HSE_VALUE,@ref LL_RCC_PLL_GetDivider (),
 726:Drivers/STM32G4xx_HAL_Driver/Inc/stm32g4xx_ll_rcc.h ****   *             @ref LL_RCC_PLL_GetN (), @ref LL_RCC_PLL_GetR ());
 727:Drivers/STM32G4xx_HAL_Driver/Inc/stm32g4xx_ll_rcc.h ****   * @param  __INPUTFREQ__ PLL Input frequency (based on HSE/HSI)
 728:Drivers/STM32G4xx_HAL_Driver/Inc/stm32g4xx_ll_rcc.h ****   * @param  __PLLM__ This parameter can be one of the following values:
 729:Drivers/STM32G4xx_HAL_Driver/Inc/stm32g4xx_ll_rcc.h ****   *         @arg @ref LL_RCC_PLLM_DIV_1
 730:Drivers/STM32G4xx_HAL_Driver/Inc/stm32g4xx_ll_rcc.h ****   *         @arg @ref LL_RCC_PLLM_DIV_2
 731:Drivers/STM32G4xx_HAL_Driver/Inc/stm32g4xx_ll_rcc.h ****   *         @arg @ref LL_RCC_PLLM_DIV_3
 732:Drivers/STM32G4xx_HAL_Driver/Inc/stm32g4xx_ll_rcc.h ****   *         @arg @ref LL_RCC_PLLM_DIV_4
 733:Drivers/STM32G4xx_HAL_Driver/Inc/stm32g4xx_ll_rcc.h ****   *         @arg @ref LL_RCC_PLLM_DIV_5
 734:Drivers/STM32G4xx_HAL_Driver/Inc/stm32g4xx_ll_rcc.h ****   *         @arg @ref LL_RCC_PLLM_DIV_6
 735:Drivers/STM32G4xx_HAL_Driver/Inc/stm32g4xx_ll_rcc.h ****   *         @arg @ref LL_RCC_PLLM_DIV_7
 736:Drivers/STM32G4xx_HAL_Driver/Inc/stm32g4xx_ll_rcc.h ****   *         @arg @ref LL_RCC_PLLM_DIV_8
 737:Drivers/STM32G4xx_HAL_Driver/Inc/stm32g4xx_ll_rcc.h ****   *         @arg @ref LL_RCC_PLLM_DIV_9
 738:Drivers/STM32G4xx_HAL_Driver/Inc/stm32g4xx_ll_rcc.h ****   *         @arg @ref LL_RCC_PLLM_DIV_10
 739:Drivers/STM32G4xx_HAL_Driver/Inc/stm32g4xx_ll_rcc.h ****   *         @arg @ref LL_RCC_PLLM_DIV_11
 740:Drivers/STM32G4xx_HAL_Driver/Inc/stm32g4xx_ll_rcc.h ****   *         @arg @ref LL_RCC_PLLM_DIV_12
 741:Drivers/STM32G4xx_HAL_Driver/Inc/stm32g4xx_ll_rcc.h ****   *         @arg @ref LL_RCC_PLLM_DIV_13
 742:Drivers/STM32G4xx_HAL_Driver/Inc/stm32g4xx_ll_rcc.h ****   *         @arg @ref LL_RCC_PLLM_DIV_14
 743:Drivers/STM32G4xx_HAL_Driver/Inc/stm32g4xx_ll_rcc.h ****   *         @arg @ref LL_RCC_PLLM_DIV_15
 744:Drivers/STM32G4xx_HAL_Driver/Inc/stm32g4xx_ll_rcc.h ****   *         @arg @ref LL_RCC_PLLM_DIV_16
 745:Drivers/STM32G4xx_HAL_Driver/Inc/stm32g4xx_ll_rcc.h ****   * @param  __PLLN__ Between Min_Data = 8 and Max_Data = 127
 746:Drivers/STM32G4xx_HAL_Driver/Inc/stm32g4xx_ll_rcc.h ****   * @param  __PLLR__ This parameter can be one of the following values:
 747:Drivers/STM32G4xx_HAL_Driver/Inc/stm32g4xx_ll_rcc.h ****   *         @arg @ref LL_RCC_PLLR_DIV_2
 748:Drivers/STM32G4xx_HAL_Driver/Inc/stm32g4xx_ll_rcc.h ****   *         @arg @ref LL_RCC_PLLR_DIV_4
 749:Drivers/STM32G4xx_HAL_Driver/Inc/stm32g4xx_ll_rcc.h ****   *         @arg @ref LL_RCC_PLLR_DIV_6
 750:Drivers/STM32G4xx_HAL_Driver/Inc/stm32g4xx_ll_rcc.h ****   *         @arg @ref LL_RCC_PLLR_DIV_8
 751:Drivers/STM32G4xx_HAL_Driver/Inc/stm32g4xx_ll_rcc.h ****   * @retval PLL clock frequency (in Hz)
 752:Drivers/STM32G4xx_HAL_Driver/Inc/stm32g4xx_ll_rcc.h ****   */
 753:Drivers/STM32G4xx_HAL_Driver/Inc/stm32g4xx_ll_rcc.h **** #define __LL_RCC_CALC_PLLCLK_FREQ(__INPUTFREQ__, __PLLM__, __PLLN__, __PLLR__) ((__INPUTFREQ__) * (
 754:Drivers/STM32G4xx_HAL_Driver/Inc/stm32g4xx_ll_rcc.h ****                    ((((__PLLR__) >> RCC_PLLCFGR_PLLR_Pos) + 1U) * 2U))
 755:Drivers/STM32G4xx_HAL_Driver/Inc/stm32g4xx_ll_rcc.h **** 
 756:Drivers/STM32G4xx_HAL_Driver/Inc/stm32g4xx_ll_rcc.h **** /**
 757:Drivers/STM32G4xx_HAL_Driver/Inc/stm32g4xx_ll_rcc.h ****   * @brief  Helper macro to calculate the PLLCLK frequency used on ADC domain
 758:Drivers/STM32G4xx_HAL_Driver/Inc/stm32g4xx_ll_rcc.h ****   * @note ex: @ref __LL_RCC_CALC_PLLCLK_ADC_FREQ (HSE_VALUE,@ref LL_RCC_PLL_GetDivider (),
 759:Drivers/STM32G4xx_HAL_Driver/Inc/stm32g4xx_ll_rcc.h ****   *             @ref LL_RCC_PLL_GetN (), @ref LL_RCC_PLL_GetP ());
ARM GAS  /tmp/ccweegFn.s 			page 21


 760:Drivers/STM32G4xx_HAL_Driver/Inc/stm32g4xx_ll_rcc.h ****   * @param  __INPUTFREQ__ PLL Input frequency (based on HSE/HSI)
 761:Drivers/STM32G4xx_HAL_Driver/Inc/stm32g4xx_ll_rcc.h ****   * @param  __PLLM__ This parameter can be one of the following values:
 762:Drivers/STM32G4xx_HAL_Driver/Inc/stm32g4xx_ll_rcc.h ****   *         @arg @ref LL_RCC_PLLM_DIV_1
 763:Drivers/STM32G4xx_HAL_Driver/Inc/stm32g4xx_ll_rcc.h ****   *         @arg @ref LL_RCC_PLLM_DIV_2
 764:Drivers/STM32G4xx_HAL_Driver/Inc/stm32g4xx_ll_rcc.h ****   *         @arg @ref LL_RCC_PLLM_DIV_3
 765:Drivers/STM32G4xx_HAL_Driver/Inc/stm32g4xx_ll_rcc.h ****   *         @arg @ref LL_RCC_PLLM_DIV_4
 766:Drivers/STM32G4xx_HAL_Driver/Inc/stm32g4xx_ll_rcc.h ****   *         @arg @ref LL_RCC_PLLM_DIV_5
 767:Drivers/STM32G4xx_HAL_Driver/Inc/stm32g4xx_ll_rcc.h ****   *         @arg @ref LL_RCC_PLLM_DIV_6
 768:Drivers/STM32G4xx_HAL_Driver/Inc/stm32g4xx_ll_rcc.h ****   *         @arg @ref LL_RCC_PLLM_DIV_7
 769:Drivers/STM32G4xx_HAL_Driver/Inc/stm32g4xx_ll_rcc.h ****   *         @arg @ref LL_RCC_PLLM_DIV_8
 770:Drivers/STM32G4xx_HAL_Driver/Inc/stm32g4xx_ll_rcc.h ****   *         @arg @ref LL_RCC_PLLM_DIV_9
 771:Drivers/STM32G4xx_HAL_Driver/Inc/stm32g4xx_ll_rcc.h ****   *         @arg @ref LL_RCC_PLLM_DIV_10
 772:Drivers/STM32G4xx_HAL_Driver/Inc/stm32g4xx_ll_rcc.h ****   *         @arg @ref LL_RCC_PLLM_DIV_11
 773:Drivers/STM32G4xx_HAL_Driver/Inc/stm32g4xx_ll_rcc.h ****   *         @arg @ref LL_RCC_PLLM_DIV_12
 774:Drivers/STM32G4xx_HAL_Driver/Inc/stm32g4xx_ll_rcc.h ****   *         @arg @ref LL_RCC_PLLM_DIV_13
 775:Drivers/STM32G4xx_HAL_Driver/Inc/stm32g4xx_ll_rcc.h ****   *         @arg @ref LL_RCC_PLLM_DIV_14
 776:Drivers/STM32G4xx_HAL_Driver/Inc/stm32g4xx_ll_rcc.h ****   *         @arg @ref LL_RCC_PLLM_DIV_15
 777:Drivers/STM32G4xx_HAL_Driver/Inc/stm32g4xx_ll_rcc.h ****   *         @arg @ref LL_RCC_PLLM_DIV_16
 778:Drivers/STM32G4xx_HAL_Driver/Inc/stm32g4xx_ll_rcc.h **** 
 779:Drivers/STM32G4xx_HAL_Driver/Inc/stm32g4xx_ll_rcc.h ****   * @param  __PLLN__ Between Min_Data = 8 and Max_Data = 127
 780:Drivers/STM32G4xx_HAL_Driver/Inc/stm32g4xx_ll_rcc.h ****   * @param  __PLLP__ This parameter can be one of the following values:
 781:Drivers/STM32G4xx_HAL_Driver/Inc/stm32g4xx_ll_rcc.h ****   *         @arg @ref LL_RCC_PLLP_DIV_2
 782:Drivers/STM32G4xx_HAL_Driver/Inc/stm32g4xx_ll_rcc.h ****   *         @arg @ref LL_RCC_PLLP_DIV_3
 783:Drivers/STM32G4xx_HAL_Driver/Inc/stm32g4xx_ll_rcc.h ****   *         @arg @ref LL_RCC_PLLP_DIV_4
 784:Drivers/STM32G4xx_HAL_Driver/Inc/stm32g4xx_ll_rcc.h ****   *         @arg @ref LL_RCC_PLLP_DIV_5
 785:Drivers/STM32G4xx_HAL_Driver/Inc/stm32g4xx_ll_rcc.h ****   *         @arg @ref LL_RCC_PLLP_DIV_6
 786:Drivers/STM32G4xx_HAL_Driver/Inc/stm32g4xx_ll_rcc.h ****   *         @arg @ref LL_RCC_PLLP_DIV_7
 787:Drivers/STM32G4xx_HAL_Driver/Inc/stm32g4xx_ll_rcc.h ****   *         @arg @ref LL_RCC_PLLP_DIV_8
 788:Drivers/STM32G4xx_HAL_Driver/Inc/stm32g4xx_ll_rcc.h ****   *         @arg @ref LL_RCC_PLLP_DIV_9
 789:Drivers/STM32G4xx_HAL_Driver/Inc/stm32g4xx_ll_rcc.h ****   *         @arg @ref LL_RCC_PLLP_DIV_10
 790:Drivers/STM32G4xx_HAL_Driver/Inc/stm32g4xx_ll_rcc.h ****   *         @arg @ref LL_RCC_PLLP_DIV_11
 791:Drivers/STM32G4xx_HAL_Driver/Inc/stm32g4xx_ll_rcc.h ****   *         @arg @ref LL_RCC_PLLP_DIV_12
 792:Drivers/STM32G4xx_HAL_Driver/Inc/stm32g4xx_ll_rcc.h ****   *         @arg @ref LL_RCC_PLLP_DIV_13
 793:Drivers/STM32G4xx_HAL_Driver/Inc/stm32g4xx_ll_rcc.h ****   *         @arg @ref LL_RCC_PLLP_DIV_14
 794:Drivers/STM32G4xx_HAL_Driver/Inc/stm32g4xx_ll_rcc.h ****   *         @arg @ref LL_RCC_PLLP_DIV_15
 795:Drivers/STM32G4xx_HAL_Driver/Inc/stm32g4xx_ll_rcc.h ****   *         @arg @ref LL_RCC_PLLP_DIV_16
 796:Drivers/STM32G4xx_HAL_Driver/Inc/stm32g4xx_ll_rcc.h ****   *         @arg @ref LL_RCC_PLLP_DIV_17
 797:Drivers/STM32G4xx_HAL_Driver/Inc/stm32g4xx_ll_rcc.h ****   *         @arg @ref LL_RCC_PLLP_DIV_18
 798:Drivers/STM32G4xx_HAL_Driver/Inc/stm32g4xx_ll_rcc.h ****   *         @arg @ref LL_RCC_PLLP_DIV_19
 799:Drivers/STM32G4xx_HAL_Driver/Inc/stm32g4xx_ll_rcc.h ****   *         @arg @ref LL_RCC_PLLP_DIV_20
 800:Drivers/STM32G4xx_HAL_Driver/Inc/stm32g4xx_ll_rcc.h ****   *         @arg @ref LL_RCC_PLLP_DIV_21
 801:Drivers/STM32G4xx_HAL_Driver/Inc/stm32g4xx_ll_rcc.h ****   *         @arg @ref LL_RCC_PLLP_DIV_22
 802:Drivers/STM32G4xx_HAL_Driver/Inc/stm32g4xx_ll_rcc.h ****   *         @arg @ref LL_RCC_PLLP_DIV_23
 803:Drivers/STM32G4xx_HAL_Driver/Inc/stm32g4xx_ll_rcc.h ****   *         @arg @ref LL_RCC_PLLP_DIV_24
 804:Drivers/STM32G4xx_HAL_Driver/Inc/stm32g4xx_ll_rcc.h ****   *         @arg @ref LL_RCC_PLLP_DIV_25
 805:Drivers/STM32G4xx_HAL_Driver/Inc/stm32g4xx_ll_rcc.h ****   *         @arg @ref LL_RCC_PLLP_DIV_26
 806:Drivers/STM32G4xx_HAL_Driver/Inc/stm32g4xx_ll_rcc.h ****   *         @arg @ref LL_RCC_PLLP_DIV_27
 807:Drivers/STM32G4xx_HAL_Driver/Inc/stm32g4xx_ll_rcc.h ****   *         @arg @ref LL_RCC_PLLP_DIV_28
 808:Drivers/STM32G4xx_HAL_Driver/Inc/stm32g4xx_ll_rcc.h ****   *         @arg @ref LL_RCC_PLLP_DIV_29
 809:Drivers/STM32G4xx_HAL_Driver/Inc/stm32g4xx_ll_rcc.h ****   *         @arg @ref LL_RCC_PLLP_DIV_30
 810:Drivers/STM32G4xx_HAL_Driver/Inc/stm32g4xx_ll_rcc.h ****   *         @arg @ref LL_RCC_PLLP_DIV_31
 811:Drivers/STM32G4xx_HAL_Driver/Inc/stm32g4xx_ll_rcc.h ****   * @retval PLL clock frequency (in Hz)
 812:Drivers/STM32G4xx_HAL_Driver/Inc/stm32g4xx_ll_rcc.h ****   */
 813:Drivers/STM32G4xx_HAL_Driver/Inc/stm32g4xx_ll_rcc.h **** #define __LL_RCC_CALC_PLLCLK_ADC_FREQ(__INPUTFREQ__, __PLLM__, __PLLN__, __PLLP__) ((__INPUTFREQ__)
 814:Drivers/STM32G4xx_HAL_Driver/Inc/stm32g4xx_ll_rcc.h ****                    ((__PLLP__) >> RCC_PLLCFGR_PLLPDIV_Pos))
 815:Drivers/STM32G4xx_HAL_Driver/Inc/stm32g4xx_ll_rcc.h **** 
 816:Drivers/STM32G4xx_HAL_Driver/Inc/stm32g4xx_ll_rcc.h **** /**
ARM GAS  /tmp/ccweegFn.s 			page 22


 817:Drivers/STM32G4xx_HAL_Driver/Inc/stm32g4xx_ll_rcc.h ****   * @brief  Helper macro to calculate the PLLCLK frequency used on 48M domain
 818:Drivers/STM32G4xx_HAL_Driver/Inc/stm32g4xx_ll_rcc.h ****   * @note ex: @ref __LL_RCC_CALC_PLLCLK_48M_FREQ (HSE_VALUE,@ref LL_RCC_PLL_GetDivider (),
 819:Drivers/STM32G4xx_HAL_Driver/Inc/stm32g4xx_ll_rcc.h ****   *             @ref LL_RCC_PLL_GetN (), @ref LL_RCC_PLL_GetQ ());
 820:Drivers/STM32G4xx_HAL_Driver/Inc/stm32g4xx_ll_rcc.h ****   * @param  __INPUTFREQ__ PLL Input frequency (based on HSE/HSI)
 821:Drivers/STM32G4xx_HAL_Driver/Inc/stm32g4xx_ll_rcc.h ****   * @param  __PLLM__ This parameter can be one of the following values:
 822:Drivers/STM32G4xx_HAL_Driver/Inc/stm32g4xx_ll_rcc.h ****   *         @arg @ref LL_RCC_PLLM_DIV_1
 823:Drivers/STM32G4xx_HAL_Driver/Inc/stm32g4xx_ll_rcc.h ****   *         @arg @ref LL_RCC_PLLM_DIV_2
 824:Drivers/STM32G4xx_HAL_Driver/Inc/stm32g4xx_ll_rcc.h ****   *         @arg @ref LL_RCC_PLLM_DIV_3
 825:Drivers/STM32G4xx_HAL_Driver/Inc/stm32g4xx_ll_rcc.h ****   *         @arg @ref LL_RCC_PLLM_DIV_4
 826:Drivers/STM32G4xx_HAL_Driver/Inc/stm32g4xx_ll_rcc.h ****   *         @arg @ref LL_RCC_PLLM_DIV_5
 827:Drivers/STM32G4xx_HAL_Driver/Inc/stm32g4xx_ll_rcc.h ****   *         @arg @ref LL_RCC_PLLM_DIV_6
 828:Drivers/STM32G4xx_HAL_Driver/Inc/stm32g4xx_ll_rcc.h ****   *         @arg @ref LL_RCC_PLLM_DIV_7
 829:Drivers/STM32G4xx_HAL_Driver/Inc/stm32g4xx_ll_rcc.h ****   *         @arg @ref LL_RCC_PLLM_DIV_8
 830:Drivers/STM32G4xx_HAL_Driver/Inc/stm32g4xx_ll_rcc.h ****   *         @arg @ref LL_RCC_PLLM_DIV_9
 831:Drivers/STM32G4xx_HAL_Driver/Inc/stm32g4xx_ll_rcc.h ****   *         @arg @ref LL_RCC_PLLM_DIV_10
 832:Drivers/STM32G4xx_HAL_Driver/Inc/stm32g4xx_ll_rcc.h ****   *         @arg @ref LL_RCC_PLLM_DIV_11
 833:Drivers/STM32G4xx_HAL_Driver/Inc/stm32g4xx_ll_rcc.h ****   *         @arg @ref LL_RCC_PLLM_DIV_12
 834:Drivers/STM32G4xx_HAL_Driver/Inc/stm32g4xx_ll_rcc.h ****   *         @arg @ref LL_RCC_PLLM_DIV_13
 835:Drivers/STM32G4xx_HAL_Driver/Inc/stm32g4xx_ll_rcc.h ****   *         @arg @ref LL_RCC_PLLM_DIV_14
 836:Drivers/STM32G4xx_HAL_Driver/Inc/stm32g4xx_ll_rcc.h ****   *         @arg @ref LL_RCC_PLLM_DIV_15
 837:Drivers/STM32G4xx_HAL_Driver/Inc/stm32g4xx_ll_rcc.h ****   *         @arg @ref LL_RCC_PLLM_DIV_16
 838:Drivers/STM32G4xx_HAL_Driver/Inc/stm32g4xx_ll_rcc.h ****   * @param  __PLLN__ Between Min_Data = 8 and Max_Data = 127
 839:Drivers/STM32G4xx_HAL_Driver/Inc/stm32g4xx_ll_rcc.h ****   * @param  __PLLQ__ This parameter can be one of the following values:
 840:Drivers/STM32G4xx_HAL_Driver/Inc/stm32g4xx_ll_rcc.h ****   *         @arg @ref LL_RCC_PLLQ_DIV_2
 841:Drivers/STM32G4xx_HAL_Driver/Inc/stm32g4xx_ll_rcc.h ****   *         @arg @ref LL_RCC_PLLQ_DIV_4
 842:Drivers/STM32G4xx_HAL_Driver/Inc/stm32g4xx_ll_rcc.h ****   *         @arg @ref LL_RCC_PLLQ_DIV_6
 843:Drivers/STM32G4xx_HAL_Driver/Inc/stm32g4xx_ll_rcc.h ****   *         @arg @ref LL_RCC_PLLQ_DIV_8
 844:Drivers/STM32G4xx_HAL_Driver/Inc/stm32g4xx_ll_rcc.h ****   * @retval PLL clock frequency (in Hz)
 845:Drivers/STM32G4xx_HAL_Driver/Inc/stm32g4xx_ll_rcc.h ****   */
 846:Drivers/STM32G4xx_HAL_Driver/Inc/stm32g4xx_ll_rcc.h **** #define __LL_RCC_CALC_PLLCLK_48M_FREQ(__INPUTFREQ__, __PLLM__, __PLLN__, __PLLQ__) ((__INPUTFREQ__)
 847:Drivers/STM32G4xx_HAL_Driver/Inc/stm32g4xx_ll_rcc.h ****                    ((((__PLLQ__) >> RCC_PLLCFGR_PLLQ_Pos) + 1U) << 1U))
 848:Drivers/STM32G4xx_HAL_Driver/Inc/stm32g4xx_ll_rcc.h **** 
 849:Drivers/STM32G4xx_HAL_Driver/Inc/stm32g4xx_ll_rcc.h **** /**
 850:Drivers/STM32G4xx_HAL_Driver/Inc/stm32g4xx_ll_rcc.h ****   * @brief  Helper macro to calculate the HCLK frequency
 851:Drivers/STM32G4xx_HAL_Driver/Inc/stm32g4xx_ll_rcc.h ****   * @param  __SYSCLKFREQ__ SYSCLK frequency (based on HSE/HSI/PLLCLK)
 852:Drivers/STM32G4xx_HAL_Driver/Inc/stm32g4xx_ll_rcc.h ****   * @param  __AHBPRESCALER__ This parameter can be one of the following values:
 853:Drivers/STM32G4xx_HAL_Driver/Inc/stm32g4xx_ll_rcc.h ****   *         @arg @ref LL_RCC_SYSCLK_DIV_1
 854:Drivers/STM32G4xx_HAL_Driver/Inc/stm32g4xx_ll_rcc.h ****   *         @arg @ref LL_RCC_SYSCLK_DIV_2
 855:Drivers/STM32G4xx_HAL_Driver/Inc/stm32g4xx_ll_rcc.h ****   *         @arg @ref LL_RCC_SYSCLK_DIV_4
 856:Drivers/STM32G4xx_HAL_Driver/Inc/stm32g4xx_ll_rcc.h ****   *         @arg @ref LL_RCC_SYSCLK_DIV_8
 857:Drivers/STM32G4xx_HAL_Driver/Inc/stm32g4xx_ll_rcc.h ****   *         @arg @ref LL_RCC_SYSCLK_DIV_16
 858:Drivers/STM32G4xx_HAL_Driver/Inc/stm32g4xx_ll_rcc.h ****   *         @arg @ref LL_RCC_SYSCLK_DIV_64
 859:Drivers/STM32G4xx_HAL_Driver/Inc/stm32g4xx_ll_rcc.h ****   *         @arg @ref LL_RCC_SYSCLK_DIV_128
 860:Drivers/STM32G4xx_HAL_Driver/Inc/stm32g4xx_ll_rcc.h ****   *         @arg @ref LL_RCC_SYSCLK_DIV_256
 861:Drivers/STM32G4xx_HAL_Driver/Inc/stm32g4xx_ll_rcc.h ****   *         @arg @ref LL_RCC_SYSCLK_DIV_512
 862:Drivers/STM32G4xx_HAL_Driver/Inc/stm32g4xx_ll_rcc.h ****   * @retval HCLK clock frequency (in Hz)
 863:Drivers/STM32G4xx_HAL_Driver/Inc/stm32g4xx_ll_rcc.h ****   */
 864:Drivers/STM32G4xx_HAL_Driver/Inc/stm32g4xx_ll_rcc.h **** #define __LL_RCC_CALC_HCLK_FREQ(__SYSCLKFREQ__,__AHBPRESCALER__) ((__SYSCLKFREQ__) >> (AHBPrescTabl
 865:Drivers/STM32G4xx_HAL_Driver/Inc/stm32g4xx_ll_rcc.h **** 
 866:Drivers/STM32G4xx_HAL_Driver/Inc/stm32g4xx_ll_rcc.h **** /**
 867:Drivers/STM32G4xx_HAL_Driver/Inc/stm32g4xx_ll_rcc.h ****   * @brief  Helper macro to calculate the PCLK1 frequency (ABP1)
 868:Drivers/STM32G4xx_HAL_Driver/Inc/stm32g4xx_ll_rcc.h ****   * @param  __HCLKFREQ__ HCLK frequency
 869:Drivers/STM32G4xx_HAL_Driver/Inc/stm32g4xx_ll_rcc.h ****   * @param  __APB1PRESCALER__ This parameter can be one of the following values:
 870:Drivers/STM32G4xx_HAL_Driver/Inc/stm32g4xx_ll_rcc.h ****   *         @arg @ref LL_RCC_APB1_DIV_1
 871:Drivers/STM32G4xx_HAL_Driver/Inc/stm32g4xx_ll_rcc.h ****   *         @arg @ref LL_RCC_APB1_DIV_2
 872:Drivers/STM32G4xx_HAL_Driver/Inc/stm32g4xx_ll_rcc.h ****   *         @arg @ref LL_RCC_APB1_DIV_4
 873:Drivers/STM32G4xx_HAL_Driver/Inc/stm32g4xx_ll_rcc.h ****   *         @arg @ref LL_RCC_APB1_DIV_8
ARM GAS  /tmp/ccweegFn.s 			page 23


 874:Drivers/STM32G4xx_HAL_Driver/Inc/stm32g4xx_ll_rcc.h ****   *         @arg @ref LL_RCC_APB1_DIV_16
 875:Drivers/STM32G4xx_HAL_Driver/Inc/stm32g4xx_ll_rcc.h ****   * @retval PCLK1 clock frequency (in Hz)
 876:Drivers/STM32G4xx_HAL_Driver/Inc/stm32g4xx_ll_rcc.h ****   */
 877:Drivers/STM32G4xx_HAL_Driver/Inc/stm32g4xx_ll_rcc.h **** #define __LL_RCC_CALC_PCLK1_FREQ(__HCLKFREQ__, __APB1PRESCALER__) ((__HCLKFREQ__) >> (APBPrescTable
 878:Drivers/STM32G4xx_HAL_Driver/Inc/stm32g4xx_ll_rcc.h **** 
 879:Drivers/STM32G4xx_HAL_Driver/Inc/stm32g4xx_ll_rcc.h **** /**
 880:Drivers/STM32G4xx_HAL_Driver/Inc/stm32g4xx_ll_rcc.h ****   * @brief  Helper macro to calculate the PCLK2 frequency (ABP2)
 881:Drivers/STM32G4xx_HAL_Driver/Inc/stm32g4xx_ll_rcc.h ****   * @param  __HCLKFREQ__ HCLK frequency
 882:Drivers/STM32G4xx_HAL_Driver/Inc/stm32g4xx_ll_rcc.h ****   * @param  __APB2PRESCALER__ This parameter can be one of the following values:
 883:Drivers/STM32G4xx_HAL_Driver/Inc/stm32g4xx_ll_rcc.h ****   *         @arg @ref LL_RCC_APB2_DIV_1
 884:Drivers/STM32G4xx_HAL_Driver/Inc/stm32g4xx_ll_rcc.h ****   *         @arg @ref LL_RCC_APB2_DIV_2
 885:Drivers/STM32G4xx_HAL_Driver/Inc/stm32g4xx_ll_rcc.h ****   *         @arg @ref LL_RCC_APB2_DIV_4
 886:Drivers/STM32G4xx_HAL_Driver/Inc/stm32g4xx_ll_rcc.h ****   *         @arg @ref LL_RCC_APB2_DIV_8
 887:Drivers/STM32G4xx_HAL_Driver/Inc/stm32g4xx_ll_rcc.h ****   *         @arg @ref LL_RCC_APB2_DIV_16
 888:Drivers/STM32G4xx_HAL_Driver/Inc/stm32g4xx_ll_rcc.h ****   * @retval PCLK2 clock frequency (in Hz)
 889:Drivers/STM32G4xx_HAL_Driver/Inc/stm32g4xx_ll_rcc.h ****   */
 890:Drivers/STM32G4xx_HAL_Driver/Inc/stm32g4xx_ll_rcc.h **** #define __LL_RCC_CALC_PCLK2_FREQ(__HCLKFREQ__, __APB2PRESCALER__) ((__HCLKFREQ__) >> (APBPrescTable
 891:Drivers/STM32G4xx_HAL_Driver/Inc/stm32g4xx_ll_rcc.h **** 
 892:Drivers/STM32G4xx_HAL_Driver/Inc/stm32g4xx_ll_rcc.h **** /**
 893:Drivers/STM32G4xx_HAL_Driver/Inc/stm32g4xx_ll_rcc.h ****   * @}
 894:Drivers/STM32G4xx_HAL_Driver/Inc/stm32g4xx_ll_rcc.h ****   */
 895:Drivers/STM32G4xx_HAL_Driver/Inc/stm32g4xx_ll_rcc.h **** 
 896:Drivers/STM32G4xx_HAL_Driver/Inc/stm32g4xx_ll_rcc.h **** /**
 897:Drivers/STM32G4xx_HAL_Driver/Inc/stm32g4xx_ll_rcc.h ****   * @}
 898:Drivers/STM32G4xx_HAL_Driver/Inc/stm32g4xx_ll_rcc.h ****   */
 899:Drivers/STM32G4xx_HAL_Driver/Inc/stm32g4xx_ll_rcc.h **** 
 900:Drivers/STM32G4xx_HAL_Driver/Inc/stm32g4xx_ll_rcc.h **** /* Exported functions --------------------------------------------------------*/
 901:Drivers/STM32G4xx_HAL_Driver/Inc/stm32g4xx_ll_rcc.h **** /** @defgroup RCC_LL_Exported_Functions RCC Exported Functions
 902:Drivers/STM32G4xx_HAL_Driver/Inc/stm32g4xx_ll_rcc.h ****   * @{
 903:Drivers/STM32G4xx_HAL_Driver/Inc/stm32g4xx_ll_rcc.h ****   */
 904:Drivers/STM32G4xx_HAL_Driver/Inc/stm32g4xx_ll_rcc.h **** 
 905:Drivers/STM32G4xx_HAL_Driver/Inc/stm32g4xx_ll_rcc.h **** /** @defgroup RCC_LL_EF_HSE HSE
 906:Drivers/STM32G4xx_HAL_Driver/Inc/stm32g4xx_ll_rcc.h ****   * @{
 907:Drivers/STM32G4xx_HAL_Driver/Inc/stm32g4xx_ll_rcc.h ****   */
 908:Drivers/STM32G4xx_HAL_Driver/Inc/stm32g4xx_ll_rcc.h **** 
 909:Drivers/STM32G4xx_HAL_Driver/Inc/stm32g4xx_ll_rcc.h **** /**
 910:Drivers/STM32G4xx_HAL_Driver/Inc/stm32g4xx_ll_rcc.h ****   * @brief  Enable the Clock Security System.
 911:Drivers/STM32G4xx_HAL_Driver/Inc/stm32g4xx_ll_rcc.h ****   * @rmtoll CR           CSSON         LL_RCC_HSE_EnableCSS
 912:Drivers/STM32G4xx_HAL_Driver/Inc/stm32g4xx_ll_rcc.h ****   * @retval None
 913:Drivers/STM32G4xx_HAL_Driver/Inc/stm32g4xx_ll_rcc.h ****   */
 914:Drivers/STM32G4xx_HAL_Driver/Inc/stm32g4xx_ll_rcc.h **** __STATIC_INLINE void LL_RCC_HSE_EnableCSS(void)
 915:Drivers/STM32G4xx_HAL_Driver/Inc/stm32g4xx_ll_rcc.h **** {
 916:Drivers/STM32G4xx_HAL_Driver/Inc/stm32g4xx_ll_rcc.h ****   SET_BIT(RCC->CR, RCC_CR_CSSON);
 917:Drivers/STM32G4xx_HAL_Driver/Inc/stm32g4xx_ll_rcc.h **** }
 918:Drivers/STM32G4xx_HAL_Driver/Inc/stm32g4xx_ll_rcc.h **** 
 919:Drivers/STM32G4xx_HAL_Driver/Inc/stm32g4xx_ll_rcc.h **** /**
 920:Drivers/STM32G4xx_HAL_Driver/Inc/stm32g4xx_ll_rcc.h ****   * @brief  Enable HSE external oscillator (HSE Bypass)
 921:Drivers/STM32G4xx_HAL_Driver/Inc/stm32g4xx_ll_rcc.h ****   * @rmtoll CR           HSEBYP        LL_RCC_HSE_EnableBypass
 922:Drivers/STM32G4xx_HAL_Driver/Inc/stm32g4xx_ll_rcc.h ****   * @retval None
 923:Drivers/STM32G4xx_HAL_Driver/Inc/stm32g4xx_ll_rcc.h ****   */
 924:Drivers/STM32G4xx_HAL_Driver/Inc/stm32g4xx_ll_rcc.h **** __STATIC_INLINE void LL_RCC_HSE_EnableBypass(void)
 925:Drivers/STM32G4xx_HAL_Driver/Inc/stm32g4xx_ll_rcc.h **** {
  96              		.loc 2 925 1
  97              		.cfi_startproc
  98              		@ args = 0, pretend = 0, frame = 0
  99              		@ frame_needed = 1, uses_anonymous_args = 0
 100              		@ link register save eliminated.
ARM GAS  /tmp/ccweegFn.s 			page 24


 101 0000 80B4     		push	{r7}
 102              	.LCFI6:
 103              		.cfi_def_cfa_offset 4
 104              		.cfi_offset 7, -4
 105 0002 00AF     		add	r7, sp, #0
 106              	.LCFI7:
 107              		.cfi_def_cfa_register 7
 926:Drivers/STM32G4xx_HAL_Driver/Inc/stm32g4xx_ll_rcc.h ****   SET_BIT(RCC->CR, RCC_CR_HSEBYP);
 108              		.loc 2 926 3
 109 0004 054B     		ldr	r3, .L5
 110 0006 1B68     		ldr	r3, [r3]
 111 0008 044A     		ldr	r2, .L5
 112 000a 43F48023 		orr	r3, r3, #262144
 113 000e 1360     		str	r3, [r2]
 927:Drivers/STM32G4xx_HAL_Driver/Inc/stm32g4xx_ll_rcc.h **** }
 114              		.loc 2 927 1
 115 0010 00BF     		nop
 116 0012 BD46     		mov	sp, r7
 117              	.LCFI8:
 118              		.cfi_def_cfa_register 13
 119              		@ sp needed
 120 0014 5DF8047B 		ldr	r7, [sp], #4
 121              	.LCFI9:
 122              		.cfi_restore 7
 123              		.cfi_def_cfa_offset 0
 124 0018 7047     		bx	lr
 125              	.L6:
 126 001a 00BF     		.align	2
 127              	.L5:
 128 001c 00100240 		.word	1073876992
 129              		.cfi_endproc
 130              	.LFE139:
 132              		.section	.text.LL_RCC_HSE_DisableBypass,"ax",%progbits
 133              		.align	1
 134              		.syntax unified
 135              		.thumb
 136              		.thumb_func
 137              		.fpu fpv4-sp-d16
 139              	LL_RCC_HSE_DisableBypass:
 140              	.LFB140:
 928:Drivers/STM32G4xx_HAL_Driver/Inc/stm32g4xx_ll_rcc.h **** 
 929:Drivers/STM32G4xx_HAL_Driver/Inc/stm32g4xx_ll_rcc.h **** /**
 930:Drivers/STM32G4xx_HAL_Driver/Inc/stm32g4xx_ll_rcc.h ****   * @brief  Disable HSE external oscillator (HSE Bypass)
 931:Drivers/STM32G4xx_HAL_Driver/Inc/stm32g4xx_ll_rcc.h ****   * @rmtoll CR           HSEBYP        LL_RCC_HSE_DisableBypass
 932:Drivers/STM32G4xx_HAL_Driver/Inc/stm32g4xx_ll_rcc.h ****   * @retval None
 933:Drivers/STM32G4xx_HAL_Driver/Inc/stm32g4xx_ll_rcc.h ****   */
 934:Drivers/STM32G4xx_HAL_Driver/Inc/stm32g4xx_ll_rcc.h **** __STATIC_INLINE void LL_RCC_HSE_DisableBypass(void)
 935:Drivers/STM32G4xx_HAL_Driver/Inc/stm32g4xx_ll_rcc.h **** {
 141              		.loc 2 935 1
 142              		.cfi_startproc
 143              		@ args = 0, pretend = 0, frame = 0
 144              		@ frame_needed = 1, uses_anonymous_args = 0
 145              		@ link register save eliminated.
 146 0000 80B4     		push	{r7}
 147              	.LCFI10:
 148              		.cfi_def_cfa_offset 4
 149              		.cfi_offset 7, -4
ARM GAS  /tmp/ccweegFn.s 			page 25


 150 0002 00AF     		add	r7, sp, #0
 151              	.LCFI11:
 152              		.cfi_def_cfa_register 7
 936:Drivers/STM32G4xx_HAL_Driver/Inc/stm32g4xx_ll_rcc.h ****   CLEAR_BIT(RCC->CR, RCC_CR_HSEBYP);
 153              		.loc 2 936 3
 154 0004 054B     		ldr	r3, .L8
 155 0006 1B68     		ldr	r3, [r3]
 156 0008 044A     		ldr	r2, .L8
 157 000a 23F48023 		bic	r3, r3, #262144
 158 000e 1360     		str	r3, [r2]
 937:Drivers/STM32G4xx_HAL_Driver/Inc/stm32g4xx_ll_rcc.h **** }
 159              		.loc 2 937 1
 160 0010 00BF     		nop
 161 0012 BD46     		mov	sp, r7
 162              	.LCFI12:
 163              		.cfi_def_cfa_register 13
 164              		@ sp needed
 165 0014 5DF8047B 		ldr	r7, [sp], #4
 166              	.LCFI13:
 167              		.cfi_restore 7
 168              		.cfi_def_cfa_offset 0
 169 0018 7047     		bx	lr
 170              	.L9:
 171 001a 00BF     		.align	2
 172              	.L8:
 173 001c 00100240 		.word	1073876992
 174              		.cfi_endproc
 175              	.LFE140:
 177              		.section	.text.LL_RCC_HSE_Enable,"ax",%progbits
 178              		.align	1
 179              		.syntax unified
 180              		.thumb
 181              		.thumb_func
 182              		.fpu fpv4-sp-d16
 184              	LL_RCC_HSE_Enable:
 185              	.LFB141:
 938:Drivers/STM32G4xx_HAL_Driver/Inc/stm32g4xx_ll_rcc.h **** 
 939:Drivers/STM32G4xx_HAL_Driver/Inc/stm32g4xx_ll_rcc.h **** /**
 940:Drivers/STM32G4xx_HAL_Driver/Inc/stm32g4xx_ll_rcc.h ****   * @brief  Enable HSE crystal oscillator (HSE ON)
 941:Drivers/STM32G4xx_HAL_Driver/Inc/stm32g4xx_ll_rcc.h ****   * @rmtoll CR           HSEON         LL_RCC_HSE_Enable
 942:Drivers/STM32G4xx_HAL_Driver/Inc/stm32g4xx_ll_rcc.h ****   * @retval None
 943:Drivers/STM32G4xx_HAL_Driver/Inc/stm32g4xx_ll_rcc.h ****   */
 944:Drivers/STM32G4xx_HAL_Driver/Inc/stm32g4xx_ll_rcc.h **** __STATIC_INLINE void LL_RCC_HSE_Enable(void)
 945:Drivers/STM32G4xx_HAL_Driver/Inc/stm32g4xx_ll_rcc.h **** {
 186              		.loc 2 945 1
 187              		.cfi_startproc
 188              		@ args = 0, pretend = 0, frame = 0
 189              		@ frame_needed = 1, uses_anonymous_args = 0
 190              		@ link register save eliminated.
 191 0000 80B4     		push	{r7}
 192              	.LCFI14:
 193              		.cfi_def_cfa_offset 4
 194              		.cfi_offset 7, -4
 195 0002 00AF     		add	r7, sp, #0
 196              	.LCFI15:
 197              		.cfi_def_cfa_register 7
 946:Drivers/STM32G4xx_HAL_Driver/Inc/stm32g4xx_ll_rcc.h ****   SET_BIT(RCC->CR, RCC_CR_HSEON);
ARM GAS  /tmp/ccweegFn.s 			page 26


 198              		.loc 2 946 3
 199 0004 054B     		ldr	r3, .L11
 200 0006 1B68     		ldr	r3, [r3]
 201 0008 044A     		ldr	r2, .L11
 202 000a 43F48033 		orr	r3, r3, #65536
 203 000e 1360     		str	r3, [r2]
 947:Drivers/STM32G4xx_HAL_Driver/Inc/stm32g4xx_ll_rcc.h **** }
 204              		.loc 2 947 1
 205 0010 00BF     		nop
 206 0012 BD46     		mov	sp, r7
 207              	.LCFI16:
 208              		.cfi_def_cfa_register 13
 209              		@ sp needed
 210 0014 5DF8047B 		ldr	r7, [sp], #4
 211              	.LCFI17:
 212              		.cfi_restore 7
 213              		.cfi_def_cfa_offset 0
 214 0018 7047     		bx	lr
 215              	.L12:
 216 001a 00BF     		.align	2
 217              	.L11:
 218 001c 00100240 		.word	1073876992
 219              		.cfi_endproc
 220              	.LFE141:
 222              		.section	.text.LL_RCC_HSE_IsReady,"ax",%progbits
 223              		.align	1
 224              		.syntax unified
 225              		.thumb
 226              		.thumb_func
 227              		.fpu fpv4-sp-d16
 229              	LL_RCC_HSE_IsReady:
 230              	.LFB143:
 948:Drivers/STM32G4xx_HAL_Driver/Inc/stm32g4xx_ll_rcc.h **** 
 949:Drivers/STM32G4xx_HAL_Driver/Inc/stm32g4xx_ll_rcc.h **** /**
 950:Drivers/STM32G4xx_HAL_Driver/Inc/stm32g4xx_ll_rcc.h ****   * @brief  Disable HSE crystal oscillator (HSE ON)
 951:Drivers/STM32G4xx_HAL_Driver/Inc/stm32g4xx_ll_rcc.h ****   * @rmtoll CR           HSEON         LL_RCC_HSE_Disable
 952:Drivers/STM32G4xx_HAL_Driver/Inc/stm32g4xx_ll_rcc.h ****   * @retval None
 953:Drivers/STM32G4xx_HAL_Driver/Inc/stm32g4xx_ll_rcc.h ****   */
 954:Drivers/STM32G4xx_HAL_Driver/Inc/stm32g4xx_ll_rcc.h **** __STATIC_INLINE void LL_RCC_HSE_Disable(void)
 955:Drivers/STM32G4xx_HAL_Driver/Inc/stm32g4xx_ll_rcc.h **** {
 956:Drivers/STM32G4xx_HAL_Driver/Inc/stm32g4xx_ll_rcc.h ****   CLEAR_BIT(RCC->CR, RCC_CR_HSEON);
 957:Drivers/STM32G4xx_HAL_Driver/Inc/stm32g4xx_ll_rcc.h **** }
 958:Drivers/STM32G4xx_HAL_Driver/Inc/stm32g4xx_ll_rcc.h **** 
 959:Drivers/STM32G4xx_HAL_Driver/Inc/stm32g4xx_ll_rcc.h **** /**
 960:Drivers/STM32G4xx_HAL_Driver/Inc/stm32g4xx_ll_rcc.h ****   * @brief  Check if HSE oscillator Ready
 961:Drivers/STM32G4xx_HAL_Driver/Inc/stm32g4xx_ll_rcc.h ****   * @rmtoll CR           HSERDY        LL_RCC_HSE_IsReady
 962:Drivers/STM32G4xx_HAL_Driver/Inc/stm32g4xx_ll_rcc.h ****   * @retval State of bit (1 or 0).
 963:Drivers/STM32G4xx_HAL_Driver/Inc/stm32g4xx_ll_rcc.h ****   */
 964:Drivers/STM32G4xx_HAL_Driver/Inc/stm32g4xx_ll_rcc.h **** __STATIC_INLINE uint32_t LL_RCC_HSE_IsReady(void)
 965:Drivers/STM32G4xx_HAL_Driver/Inc/stm32g4xx_ll_rcc.h **** {
 231              		.loc 2 965 1
 232              		.cfi_startproc
 233              		@ args = 0, pretend = 0, frame = 0
 234              		@ frame_needed = 1, uses_anonymous_args = 0
 235              		@ link register save eliminated.
 236 0000 80B4     		push	{r7}
 237              	.LCFI18:
ARM GAS  /tmp/ccweegFn.s 			page 27


 238              		.cfi_def_cfa_offset 4
 239              		.cfi_offset 7, -4
 240 0002 00AF     		add	r7, sp, #0
 241              	.LCFI19:
 242              		.cfi_def_cfa_register 7
 966:Drivers/STM32G4xx_HAL_Driver/Inc/stm32g4xx_ll_rcc.h ****   return ((READ_BIT(RCC->CR, RCC_CR_HSERDY) == (RCC_CR_HSERDY)) ? 1UL : 0UL);
 243              		.loc 2 966 12
 244 0004 074B     		ldr	r3, .L17
 245 0006 1B68     		ldr	r3, [r3]
 246 0008 03F40033 		and	r3, r3, #131072
 247              		.loc 2 966 71
 248 000c B3F5003F 		cmp	r3, #131072
 249 0010 01D1     		bne	.L14
 250              		.loc 2 966 71 is_stmt 0 discriminator 1
 251 0012 0123     		movs	r3, #1
 252 0014 00E0     		b	.L16
 253              	.L14:
 254              		.loc 2 966 71 discriminator 2
 255 0016 0023     		movs	r3, #0
 256              	.L16:
 967:Drivers/STM32G4xx_HAL_Driver/Inc/stm32g4xx_ll_rcc.h **** }
 257              		.loc 2 967 1 is_stmt 1 discriminator 5
 258 0018 1846     		mov	r0, r3
 259 001a BD46     		mov	sp, r7
 260              	.LCFI20:
 261              		.cfi_def_cfa_register 13
 262              		@ sp needed
 263 001c 5DF8047B 		ldr	r7, [sp], #4
 264              	.LCFI21:
 265              		.cfi_restore 7
 266              		.cfi_def_cfa_offset 0
 267 0020 7047     		bx	lr
 268              	.L18:
 269 0022 00BF     		.align	2
 270              	.L17:
 271 0024 00100240 		.word	1073876992
 272              		.cfi_endproc
 273              	.LFE143:
 275              		.section	.text.LL_RCC_HSI_Enable,"ax",%progbits
 276              		.align	1
 277              		.syntax unified
 278              		.thumb
 279              		.thumb_func
 280              		.fpu fpv4-sp-d16
 282              	LL_RCC_HSI_Enable:
 283              	.LFB146:
 968:Drivers/STM32G4xx_HAL_Driver/Inc/stm32g4xx_ll_rcc.h **** 
 969:Drivers/STM32G4xx_HAL_Driver/Inc/stm32g4xx_ll_rcc.h **** /**
 970:Drivers/STM32G4xx_HAL_Driver/Inc/stm32g4xx_ll_rcc.h ****   * @}
 971:Drivers/STM32G4xx_HAL_Driver/Inc/stm32g4xx_ll_rcc.h ****   */
 972:Drivers/STM32G4xx_HAL_Driver/Inc/stm32g4xx_ll_rcc.h **** 
 973:Drivers/STM32G4xx_HAL_Driver/Inc/stm32g4xx_ll_rcc.h **** /** @defgroup RCC_LL_EF_HSI HSI
 974:Drivers/STM32G4xx_HAL_Driver/Inc/stm32g4xx_ll_rcc.h ****   * @{
 975:Drivers/STM32G4xx_HAL_Driver/Inc/stm32g4xx_ll_rcc.h ****   */
 976:Drivers/STM32G4xx_HAL_Driver/Inc/stm32g4xx_ll_rcc.h **** 
 977:Drivers/STM32G4xx_HAL_Driver/Inc/stm32g4xx_ll_rcc.h **** /**
 978:Drivers/STM32G4xx_HAL_Driver/Inc/stm32g4xx_ll_rcc.h ****   * @brief  Enable HSI even in stop mode
ARM GAS  /tmp/ccweegFn.s 			page 28


 979:Drivers/STM32G4xx_HAL_Driver/Inc/stm32g4xx_ll_rcc.h ****   * @note HSI oscillator is forced ON even in Stop mode
 980:Drivers/STM32G4xx_HAL_Driver/Inc/stm32g4xx_ll_rcc.h ****   * @rmtoll CR           HSIKERON      LL_RCC_HSI_EnableInStopMode
 981:Drivers/STM32G4xx_HAL_Driver/Inc/stm32g4xx_ll_rcc.h ****   * @retval None
 982:Drivers/STM32G4xx_HAL_Driver/Inc/stm32g4xx_ll_rcc.h ****   */
 983:Drivers/STM32G4xx_HAL_Driver/Inc/stm32g4xx_ll_rcc.h **** __STATIC_INLINE void LL_RCC_HSI_EnableInStopMode(void)
 984:Drivers/STM32G4xx_HAL_Driver/Inc/stm32g4xx_ll_rcc.h **** {
 985:Drivers/STM32G4xx_HAL_Driver/Inc/stm32g4xx_ll_rcc.h ****   SET_BIT(RCC->CR, RCC_CR_HSIKERON);
 986:Drivers/STM32G4xx_HAL_Driver/Inc/stm32g4xx_ll_rcc.h **** }
 987:Drivers/STM32G4xx_HAL_Driver/Inc/stm32g4xx_ll_rcc.h **** 
 988:Drivers/STM32G4xx_HAL_Driver/Inc/stm32g4xx_ll_rcc.h **** /**
 989:Drivers/STM32G4xx_HAL_Driver/Inc/stm32g4xx_ll_rcc.h ****   * @brief  Disable HSI in stop mode
 990:Drivers/STM32G4xx_HAL_Driver/Inc/stm32g4xx_ll_rcc.h ****   * @rmtoll CR           HSIKERON      LL_RCC_HSI_DisableInStopMode
 991:Drivers/STM32G4xx_HAL_Driver/Inc/stm32g4xx_ll_rcc.h ****   * @retval None
 992:Drivers/STM32G4xx_HAL_Driver/Inc/stm32g4xx_ll_rcc.h ****   */
 993:Drivers/STM32G4xx_HAL_Driver/Inc/stm32g4xx_ll_rcc.h **** __STATIC_INLINE void LL_RCC_HSI_DisableInStopMode(void)
 994:Drivers/STM32G4xx_HAL_Driver/Inc/stm32g4xx_ll_rcc.h **** {
 995:Drivers/STM32G4xx_HAL_Driver/Inc/stm32g4xx_ll_rcc.h ****   CLEAR_BIT(RCC->CR, RCC_CR_HSIKERON);
 996:Drivers/STM32G4xx_HAL_Driver/Inc/stm32g4xx_ll_rcc.h **** }
 997:Drivers/STM32G4xx_HAL_Driver/Inc/stm32g4xx_ll_rcc.h **** 
 998:Drivers/STM32G4xx_HAL_Driver/Inc/stm32g4xx_ll_rcc.h **** /**
 999:Drivers/STM32G4xx_HAL_Driver/Inc/stm32g4xx_ll_rcc.h ****   * @brief  Enable HSI oscillator
1000:Drivers/STM32G4xx_HAL_Driver/Inc/stm32g4xx_ll_rcc.h ****   * @rmtoll CR           HSION         LL_RCC_HSI_Enable
1001:Drivers/STM32G4xx_HAL_Driver/Inc/stm32g4xx_ll_rcc.h ****   * @retval None
1002:Drivers/STM32G4xx_HAL_Driver/Inc/stm32g4xx_ll_rcc.h ****   */
1003:Drivers/STM32G4xx_HAL_Driver/Inc/stm32g4xx_ll_rcc.h **** __STATIC_INLINE void LL_RCC_HSI_Enable(void)
1004:Drivers/STM32G4xx_HAL_Driver/Inc/stm32g4xx_ll_rcc.h **** {
 284              		.loc 2 1004 1
 285              		.cfi_startproc
 286              		@ args = 0, pretend = 0, frame = 0
 287              		@ frame_needed = 1, uses_anonymous_args = 0
 288              		@ link register save eliminated.
 289 0000 80B4     		push	{r7}
 290              	.LCFI22:
 291              		.cfi_def_cfa_offset 4
 292              		.cfi_offset 7, -4
 293 0002 00AF     		add	r7, sp, #0
 294              	.LCFI23:
 295              		.cfi_def_cfa_register 7
1005:Drivers/STM32G4xx_HAL_Driver/Inc/stm32g4xx_ll_rcc.h ****   SET_BIT(RCC->CR, RCC_CR_HSION);
 296              		.loc 2 1005 3
 297 0004 054B     		ldr	r3, .L20
 298 0006 1B68     		ldr	r3, [r3]
 299 0008 044A     		ldr	r2, .L20
 300 000a 43F48073 		orr	r3, r3, #256
 301 000e 1360     		str	r3, [r2]
1006:Drivers/STM32G4xx_HAL_Driver/Inc/stm32g4xx_ll_rcc.h **** }
 302              		.loc 2 1006 1
 303 0010 00BF     		nop
 304 0012 BD46     		mov	sp, r7
 305              	.LCFI24:
 306              		.cfi_def_cfa_register 13
 307              		@ sp needed
 308 0014 5DF8047B 		ldr	r7, [sp], #4
 309              	.LCFI25:
 310              		.cfi_restore 7
 311              		.cfi_def_cfa_offset 0
 312 0018 7047     		bx	lr
ARM GAS  /tmp/ccweegFn.s 			page 29


 313              	.L21:
 314 001a 00BF     		.align	2
 315              	.L20:
 316 001c 00100240 		.word	1073876992
 317              		.cfi_endproc
 318              	.LFE146:
 320              		.section	.text.LL_RCC_HSI_IsReady,"ax",%progbits
 321              		.align	1
 322              		.syntax unified
 323              		.thumb
 324              		.thumb_func
 325              		.fpu fpv4-sp-d16
 327              	LL_RCC_HSI_IsReady:
 328              	.LFB148:
1007:Drivers/STM32G4xx_HAL_Driver/Inc/stm32g4xx_ll_rcc.h **** 
1008:Drivers/STM32G4xx_HAL_Driver/Inc/stm32g4xx_ll_rcc.h **** /**
1009:Drivers/STM32G4xx_HAL_Driver/Inc/stm32g4xx_ll_rcc.h ****   * @brief  Disable HSI oscillator
1010:Drivers/STM32G4xx_HAL_Driver/Inc/stm32g4xx_ll_rcc.h ****   * @rmtoll CR           HSION         LL_RCC_HSI_Disable
1011:Drivers/STM32G4xx_HAL_Driver/Inc/stm32g4xx_ll_rcc.h ****   * @retval None
1012:Drivers/STM32G4xx_HAL_Driver/Inc/stm32g4xx_ll_rcc.h ****   */
1013:Drivers/STM32G4xx_HAL_Driver/Inc/stm32g4xx_ll_rcc.h **** __STATIC_INLINE void LL_RCC_HSI_Disable(void)
1014:Drivers/STM32G4xx_HAL_Driver/Inc/stm32g4xx_ll_rcc.h **** {
1015:Drivers/STM32G4xx_HAL_Driver/Inc/stm32g4xx_ll_rcc.h ****   CLEAR_BIT(RCC->CR, RCC_CR_HSION);
1016:Drivers/STM32G4xx_HAL_Driver/Inc/stm32g4xx_ll_rcc.h **** }
1017:Drivers/STM32G4xx_HAL_Driver/Inc/stm32g4xx_ll_rcc.h **** 
1018:Drivers/STM32G4xx_HAL_Driver/Inc/stm32g4xx_ll_rcc.h **** /**
1019:Drivers/STM32G4xx_HAL_Driver/Inc/stm32g4xx_ll_rcc.h ****   * @brief  Check if HSI clock is ready
1020:Drivers/STM32G4xx_HAL_Driver/Inc/stm32g4xx_ll_rcc.h ****   * @rmtoll CR           HSIRDY        LL_RCC_HSI_IsReady
1021:Drivers/STM32G4xx_HAL_Driver/Inc/stm32g4xx_ll_rcc.h ****   * @retval State of bit (1 or 0).
1022:Drivers/STM32G4xx_HAL_Driver/Inc/stm32g4xx_ll_rcc.h ****   */
1023:Drivers/STM32G4xx_HAL_Driver/Inc/stm32g4xx_ll_rcc.h **** __STATIC_INLINE uint32_t LL_RCC_HSI_IsReady(void)
1024:Drivers/STM32G4xx_HAL_Driver/Inc/stm32g4xx_ll_rcc.h **** {
 329              		.loc 2 1024 1
 330              		.cfi_startproc
 331              		@ args = 0, pretend = 0, frame = 0
 332              		@ frame_needed = 1, uses_anonymous_args = 0
 333              		@ link register save eliminated.
 334 0000 80B4     		push	{r7}
 335              	.LCFI26:
 336              		.cfi_def_cfa_offset 4
 337              		.cfi_offset 7, -4
 338 0002 00AF     		add	r7, sp, #0
 339              	.LCFI27:
 340              		.cfi_def_cfa_register 7
1025:Drivers/STM32G4xx_HAL_Driver/Inc/stm32g4xx_ll_rcc.h ****   return ((READ_BIT(RCC->CR, RCC_CR_HSIRDY) == (RCC_CR_HSIRDY)) ? 1UL : 0UL);
 341              		.loc 2 1025 12
 342 0004 074B     		ldr	r3, .L26
 343 0006 1B68     		ldr	r3, [r3]
 344 0008 03F48063 		and	r3, r3, #1024
 345              		.loc 2 1025 71
 346 000c B3F5806F 		cmp	r3, #1024
 347 0010 01D1     		bne	.L23
 348              		.loc 2 1025 71 is_stmt 0 discriminator 1
 349 0012 0123     		movs	r3, #1
 350 0014 00E0     		b	.L25
 351              	.L23:
 352              		.loc 2 1025 71 discriminator 2
ARM GAS  /tmp/ccweegFn.s 			page 30


 353 0016 0023     		movs	r3, #0
 354              	.L25:
1026:Drivers/STM32G4xx_HAL_Driver/Inc/stm32g4xx_ll_rcc.h **** }
 355              		.loc 2 1026 1 is_stmt 1 discriminator 5
 356 0018 1846     		mov	r0, r3
 357 001a BD46     		mov	sp, r7
 358              	.LCFI28:
 359              		.cfi_def_cfa_register 13
 360              		@ sp needed
 361 001c 5DF8047B 		ldr	r7, [sp], #4
 362              	.LCFI29:
 363              		.cfi_restore 7
 364              		.cfi_def_cfa_offset 0
 365 0020 7047     		bx	lr
 366              	.L27:
 367 0022 00BF     		.align	2
 368              	.L26:
 369 0024 00100240 		.word	1073876992
 370              		.cfi_endproc
 371              	.LFE148:
 373              		.section	.text.LL_RCC_SetSysClkSource,"ax",%progbits
 374              		.align	1
 375              		.syntax unified
 376              		.thumb
 377              		.thumb_func
 378              		.fpu fpv4-sp-d16
 380              	LL_RCC_SetSysClkSource:
 381              	.LFB173:
1027:Drivers/STM32G4xx_HAL_Driver/Inc/stm32g4xx_ll_rcc.h **** 
1028:Drivers/STM32G4xx_HAL_Driver/Inc/stm32g4xx_ll_rcc.h **** /**
1029:Drivers/STM32G4xx_HAL_Driver/Inc/stm32g4xx_ll_rcc.h ****   * @brief  Get HSI Calibration value
1030:Drivers/STM32G4xx_HAL_Driver/Inc/stm32g4xx_ll_rcc.h ****   * @note When HSITRIM is written, HSICAL is updated with the sum of
1031:Drivers/STM32G4xx_HAL_Driver/Inc/stm32g4xx_ll_rcc.h ****   *       HSITRIM and the factory trim value
1032:Drivers/STM32G4xx_HAL_Driver/Inc/stm32g4xx_ll_rcc.h ****   * @rmtoll ICSCR        HSICAL        LL_RCC_HSI_GetCalibration
1033:Drivers/STM32G4xx_HAL_Driver/Inc/stm32g4xx_ll_rcc.h ****   * @retval Between Min_Data = 0x00 and Max_Data = 0xFF
1034:Drivers/STM32G4xx_HAL_Driver/Inc/stm32g4xx_ll_rcc.h ****   */
1035:Drivers/STM32G4xx_HAL_Driver/Inc/stm32g4xx_ll_rcc.h **** __STATIC_INLINE uint32_t LL_RCC_HSI_GetCalibration(void)
1036:Drivers/STM32G4xx_HAL_Driver/Inc/stm32g4xx_ll_rcc.h **** {
1037:Drivers/STM32G4xx_HAL_Driver/Inc/stm32g4xx_ll_rcc.h ****   return (uint32_t)(READ_BIT(RCC->ICSCR, RCC_ICSCR_HSICAL) >> RCC_ICSCR_HSICAL_Pos);
1038:Drivers/STM32G4xx_HAL_Driver/Inc/stm32g4xx_ll_rcc.h **** }
1039:Drivers/STM32G4xx_HAL_Driver/Inc/stm32g4xx_ll_rcc.h **** 
1040:Drivers/STM32G4xx_HAL_Driver/Inc/stm32g4xx_ll_rcc.h **** /**
1041:Drivers/STM32G4xx_HAL_Driver/Inc/stm32g4xx_ll_rcc.h ****   * @brief  Set HSI Calibration trimming
1042:Drivers/STM32G4xx_HAL_Driver/Inc/stm32g4xx_ll_rcc.h ****   * @note user-programmable trimming value that is added to the HSICAL
1043:Drivers/STM32G4xx_HAL_Driver/Inc/stm32g4xx_ll_rcc.h ****   * @note Default value is 16, which, when added to the HSICAL value,
1044:Drivers/STM32G4xx_HAL_Driver/Inc/stm32g4xx_ll_rcc.h ****   *       should trim the HSI to 16 MHz +/- 1 %
1045:Drivers/STM32G4xx_HAL_Driver/Inc/stm32g4xx_ll_rcc.h ****   * @rmtoll ICSCR        HSITRIM       LL_RCC_HSI_SetCalibTrimming
1046:Drivers/STM32G4xx_HAL_Driver/Inc/stm32g4xx_ll_rcc.h ****   * @param  Value Between Min_Data = 0 and Max_Data = 127
1047:Drivers/STM32G4xx_HAL_Driver/Inc/stm32g4xx_ll_rcc.h ****   * @retval None
1048:Drivers/STM32G4xx_HAL_Driver/Inc/stm32g4xx_ll_rcc.h ****   */
1049:Drivers/STM32G4xx_HAL_Driver/Inc/stm32g4xx_ll_rcc.h **** __STATIC_INLINE void LL_RCC_HSI_SetCalibTrimming(uint32_t Value)
1050:Drivers/STM32G4xx_HAL_Driver/Inc/stm32g4xx_ll_rcc.h **** {
1051:Drivers/STM32G4xx_HAL_Driver/Inc/stm32g4xx_ll_rcc.h ****   MODIFY_REG(RCC->ICSCR, RCC_ICSCR_HSITRIM, Value << RCC_ICSCR_HSITRIM_Pos);
1052:Drivers/STM32G4xx_HAL_Driver/Inc/stm32g4xx_ll_rcc.h **** }
1053:Drivers/STM32G4xx_HAL_Driver/Inc/stm32g4xx_ll_rcc.h **** 
1054:Drivers/STM32G4xx_HAL_Driver/Inc/stm32g4xx_ll_rcc.h **** /**
1055:Drivers/STM32G4xx_HAL_Driver/Inc/stm32g4xx_ll_rcc.h ****   * @brief  Get HSI Calibration trimming
ARM GAS  /tmp/ccweegFn.s 			page 31


1056:Drivers/STM32G4xx_HAL_Driver/Inc/stm32g4xx_ll_rcc.h ****   * @rmtoll ICSCR        HSITRIM       LL_RCC_HSI_GetCalibTrimming
1057:Drivers/STM32G4xx_HAL_Driver/Inc/stm32g4xx_ll_rcc.h ****   * @retval Between Min_Data = 0 and Max_Data = 127
1058:Drivers/STM32G4xx_HAL_Driver/Inc/stm32g4xx_ll_rcc.h ****   */
1059:Drivers/STM32G4xx_HAL_Driver/Inc/stm32g4xx_ll_rcc.h **** __STATIC_INLINE uint32_t LL_RCC_HSI_GetCalibTrimming(void)
1060:Drivers/STM32G4xx_HAL_Driver/Inc/stm32g4xx_ll_rcc.h **** {
1061:Drivers/STM32G4xx_HAL_Driver/Inc/stm32g4xx_ll_rcc.h ****   return (uint32_t)(READ_BIT(RCC->ICSCR, RCC_ICSCR_HSITRIM) >> RCC_ICSCR_HSITRIM_Pos);
1062:Drivers/STM32G4xx_HAL_Driver/Inc/stm32g4xx_ll_rcc.h **** }
1063:Drivers/STM32G4xx_HAL_Driver/Inc/stm32g4xx_ll_rcc.h **** 
1064:Drivers/STM32G4xx_HAL_Driver/Inc/stm32g4xx_ll_rcc.h **** /**
1065:Drivers/STM32G4xx_HAL_Driver/Inc/stm32g4xx_ll_rcc.h ****   * @}
1066:Drivers/STM32G4xx_HAL_Driver/Inc/stm32g4xx_ll_rcc.h ****   */
1067:Drivers/STM32G4xx_HAL_Driver/Inc/stm32g4xx_ll_rcc.h **** 
1068:Drivers/STM32G4xx_HAL_Driver/Inc/stm32g4xx_ll_rcc.h **** /** @defgroup RCC_LL_EF_HSI48 HSI48
1069:Drivers/STM32G4xx_HAL_Driver/Inc/stm32g4xx_ll_rcc.h ****   * @{
1070:Drivers/STM32G4xx_HAL_Driver/Inc/stm32g4xx_ll_rcc.h ****   */
1071:Drivers/STM32G4xx_HAL_Driver/Inc/stm32g4xx_ll_rcc.h **** 
1072:Drivers/STM32G4xx_HAL_Driver/Inc/stm32g4xx_ll_rcc.h **** /**
1073:Drivers/STM32G4xx_HAL_Driver/Inc/stm32g4xx_ll_rcc.h ****   * @brief  Enable HSI48
1074:Drivers/STM32G4xx_HAL_Driver/Inc/stm32g4xx_ll_rcc.h ****   * @rmtoll CRRCR          HSI48ON       LL_RCC_HSI48_Enable
1075:Drivers/STM32G4xx_HAL_Driver/Inc/stm32g4xx_ll_rcc.h ****   * @retval None
1076:Drivers/STM32G4xx_HAL_Driver/Inc/stm32g4xx_ll_rcc.h ****   */
1077:Drivers/STM32G4xx_HAL_Driver/Inc/stm32g4xx_ll_rcc.h **** __STATIC_INLINE void LL_RCC_HSI48_Enable(void)
1078:Drivers/STM32G4xx_HAL_Driver/Inc/stm32g4xx_ll_rcc.h **** {
1079:Drivers/STM32G4xx_HAL_Driver/Inc/stm32g4xx_ll_rcc.h ****   SET_BIT(RCC->CRRCR, RCC_CRRCR_HSI48ON);
1080:Drivers/STM32G4xx_HAL_Driver/Inc/stm32g4xx_ll_rcc.h **** }
1081:Drivers/STM32G4xx_HAL_Driver/Inc/stm32g4xx_ll_rcc.h **** 
1082:Drivers/STM32G4xx_HAL_Driver/Inc/stm32g4xx_ll_rcc.h **** /**
1083:Drivers/STM32G4xx_HAL_Driver/Inc/stm32g4xx_ll_rcc.h ****   * @brief  Disable HSI48
1084:Drivers/STM32G4xx_HAL_Driver/Inc/stm32g4xx_ll_rcc.h ****   * @rmtoll CRRCR          HSI48ON       LL_RCC_HSI48_Disable
1085:Drivers/STM32G4xx_HAL_Driver/Inc/stm32g4xx_ll_rcc.h ****   * @retval None
1086:Drivers/STM32G4xx_HAL_Driver/Inc/stm32g4xx_ll_rcc.h ****   */
1087:Drivers/STM32G4xx_HAL_Driver/Inc/stm32g4xx_ll_rcc.h **** __STATIC_INLINE void LL_RCC_HSI48_Disable(void)
1088:Drivers/STM32G4xx_HAL_Driver/Inc/stm32g4xx_ll_rcc.h **** {
1089:Drivers/STM32G4xx_HAL_Driver/Inc/stm32g4xx_ll_rcc.h ****   CLEAR_BIT(RCC->CRRCR, RCC_CRRCR_HSI48ON);
1090:Drivers/STM32G4xx_HAL_Driver/Inc/stm32g4xx_ll_rcc.h **** }
1091:Drivers/STM32G4xx_HAL_Driver/Inc/stm32g4xx_ll_rcc.h **** 
1092:Drivers/STM32G4xx_HAL_Driver/Inc/stm32g4xx_ll_rcc.h **** /**
1093:Drivers/STM32G4xx_HAL_Driver/Inc/stm32g4xx_ll_rcc.h ****   * @brief  Check if HSI48 oscillator Ready
1094:Drivers/STM32G4xx_HAL_Driver/Inc/stm32g4xx_ll_rcc.h ****   * @rmtoll CRRCR          HSI48RDY      LL_RCC_HSI48_IsReady
1095:Drivers/STM32G4xx_HAL_Driver/Inc/stm32g4xx_ll_rcc.h ****   * @retval State of bit (1 or 0).
1096:Drivers/STM32G4xx_HAL_Driver/Inc/stm32g4xx_ll_rcc.h ****   */
1097:Drivers/STM32G4xx_HAL_Driver/Inc/stm32g4xx_ll_rcc.h **** __STATIC_INLINE uint32_t LL_RCC_HSI48_IsReady(void)
1098:Drivers/STM32G4xx_HAL_Driver/Inc/stm32g4xx_ll_rcc.h **** {
1099:Drivers/STM32G4xx_HAL_Driver/Inc/stm32g4xx_ll_rcc.h ****   return ((READ_BIT(RCC->CRRCR, RCC_CRRCR_HSI48RDY) == (RCC_CRRCR_HSI48RDY)) ? 1UL : 0UL);
1100:Drivers/STM32G4xx_HAL_Driver/Inc/stm32g4xx_ll_rcc.h **** }
1101:Drivers/STM32G4xx_HAL_Driver/Inc/stm32g4xx_ll_rcc.h **** 
1102:Drivers/STM32G4xx_HAL_Driver/Inc/stm32g4xx_ll_rcc.h **** /**
1103:Drivers/STM32G4xx_HAL_Driver/Inc/stm32g4xx_ll_rcc.h ****   * @brief  Get HSI48 Calibration value
1104:Drivers/STM32G4xx_HAL_Driver/Inc/stm32g4xx_ll_rcc.h ****   * @rmtoll CRRCR          HSI48CAL      LL_RCC_HSI48_GetCalibration
1105:Drivers/STM32G4xx_HAL_Driver/Inc/stm32g4xx_ll_rcc.h ****   * @retval Between Min_Data = 0x00 and Max_Data = 0x1FF
1106:Drivers/STM32G4xx_HAL_Driver/Inc/stm32g4xx_ll_rcc.h ****   */
1107:Drivers/STM32G4xx_HAL_Driver/Inc/stm32g4xx_ll_rcc.h **** __STATIC_INLINE uint32_t LL_RCC_HSI48_GetCalibration(void)
1108:Drivers/STM32G4xx_HAL_Driver/Inc/stm32g4xx_ll_rcc.h **** {
1109:Drivers/STM32G4xx_HAL_Driver/Inc/stm32g4xx_ll_rcc.h ****   return (uint32_t)(READ_BIT(RCC->CRRCR, RCC_CRRCR_HSI48CAL) >> RCC_CRRCR_HSI48CAL_Pos);
1110:Drivers/STM32G4xx_HAL_Driver/Inc/stm32g4xx_ll_rcc.h **** }
1111:Drivers/STM32G4xx_HAL_Driver/Inc/stm32g4xx_ll_rcc.h **** 
1112:Drivers/STM32G4xx_HAL_Driver/Inc/stm32g4xx_ll_rcc.h **** /**
ARM GAS  /tmp/ccweegFn.s 			page 32


1113:Drivers/STM32G4xx_HAL_Driver/Inc/stm32g4xx_ll_rcc.h ****   * @}
1114:Drivers/STM32G4xx_HAL_Driver/Inc/stm32g4xx_ll_rcc.h ****   */
1115:Drivers/STM32G4xx_HAL_Driver/Inc/stm32g4xx_ll_rcc.h **** 
1116:Drivers/STM32G4xx_HAL_Driver/Inc/stm32g4xx_ll_rcc.h **** /** @defgroup RCC_LL_EF_LSE LSE
1117:Drivers/STM32G4xx_HAL_Driver/Inc/stm32g4xx_ll_rcc.h ****   * @{
1118:Drivers/STM32G4xx_HAL_Driver/Inc/stm32g4xx_ll_rcc.h ****   */
1119:Drivers/STM32G4xx_HAL_Driver/Inc/stm32g4xx_ll_rcc.h **** 
1120:Drivers/STM32G4xx_HAL_Driver/Inc/stm32g4xx_ll_rcc.h **** /**
1121:Drivers/STM32G4xx_HAL_Driver/Inc/stm32g4xx_ll_rcc.h ****   * @brief  Enable  Low Speed External (LSE) crystal.
1122:Drivers/STM32G4xx_HAL_Driver/Inc/stm32g4xx_ll_rcc.h ****   * @rmtoll BDCR         LSEON         LL_RCC_LSE_Enable
1123:Drivers/STM32G4xx_HAL_Driver/Inc/stm32g4xx_ll_rcc.h ****   * @retval None
1124:Drivers/STM32G4xx_HAL_Driver/Inc/stm32g4xx_ll_rcc.h ****   */
1125:Drivers/STM32G4xx_HAL_Driver/Inc/stm32g4xx_ll_rcc.h **** __STATIC_INLINE void LL_RCC_LSE_Enable(void)
1126:Drivers/STM32G4xx_HAL_Driver/Inc/stm32g4xx_ll_rcc.h **** {
1127:Drivers/STM32G4xx_HAL_Driver/Inc/stm32g4xx_ll_rcc.h ****   SET_BIT(RCC->BDCR, RCC_BDCR_LSEON);
1128:Drivers/STM32G4xx_HAL_Driver/Inc/stm32g4xx_ll_rcc.h **** }
1129:Drivers/STM32G4xx_HAL_Driver/Inc/stm32g4xx_ll_rcc.h **** 
1130:Drivers/STM32G4xx_HAL_Driver/Inc/stm32g4xx_ll_rcc.h **** /**
1131:Drivers/STM32G4xx_HAL_Driver/Inc/stm32g4xx_ll_rcc.h ****   * @brief  Disable  Low Speed External (LSE) crystal.
1132:Drivers/STM32G4xx_HAL_Driver/Inc/stm32g4xx_ll_rcc.h ****   * @rmtoll BDCR         LSEON         LL_RCC_LSE_Disable
1133:Drivers/STM32G4xx_HAL_Driver/Inc/stm32g4xx_ll_rcc.h ****   * @retval None
1134:Drivers/STM32G4xx_HAL_Driver/Inc/stm32g4xx_ll_rcc.h ****   */
1135:Drivers/STM32G4xx_HAL_Driver/Inc/stm32g4xx_ll_rcc.h **** __STATIC_INLINE void LL_RCC_LSE_Disable(void)
1136:Drivers/STM32G4xx_HAL_Driver/Inc/stm32g4xx_ll_rcc.h **** {
1137:Drivers/STM32G4xx_HAL_Driver/Inc/stm32g4xx_ll_rcc.h ****   CLEAR_BIT(RCC->BDCR, RCC_BDCR_LSEON);
1138:Drivers/STM32G4xx_HAL_Driver/Inc/stm32g4xx_ll_rcc.h **** }
1139:Drivers/STM32G4xx_HAL_Driver/Inc/stm32g4xx_ll_rcc.h **** 
1140:Drivers/STM32G4xx_HAL_Driver/Inc/stm32g4xx_ll_rcc.h **** /**
1141:Drivers/STM32G4xx_HAL_Driver/Inc/stm32g4xx_ll_rcc.h ****   * @brief  Enable external clock source (LSE bypass).
1142:Drivers/STM32G4xx_HAL_Driver/Inc/stm32g4xx_ll_rcc.h ****   * @rmtoll BDCR         LSEBYP        LL_RCC_LSE_EnableBypass
1143:Drivers/STM32G4xx_HAL_Driver/Inc/stm32g4xx_ll_rcc.h ****   * @retval None
1144:Drivers/STM32G4xx_HAL_Driver/Inc/stm32g4xx_ll_rcc.h ****   */
1145:Drivers/STM32G4xx_HAL_Driver/Inc/stm32g4xx_ll_rcc.h **** __STATIC_INLINE void LL_RCC_LSE_EnableBypass(void)
1146:Drivers/STM32G4xx_HAL_Driver/Inc/stm32g4xx_ll_rcc.h **** {
1147:Drivers/STM32G4xx_HAL_Driver/Inc/stm32g4xx_ll_rcc.h ****   SET_BIT(RCC->BDCR, RCC_BDCR_LSEBYP);
1148:Drivers/STM32G4xx_HAL_Driver/Inc/stm32g4xx_ll_rcc.h **** }
1149:Drivers/STM32G4xx_HAL_Driver/Inc/stm32g4xx_ll_rcc.h **** 
1150:Drivers/STM32G4xx_HAL_Driver/Inc/stm32g4xx_ll_rcc.h **** /**
1151:Drivers/STM32G4xx_HAL_Driver/Inc/stm32g4xx_ll_rcc.h ****   * @brief  Disable external clock source (LSE bypass).
1152:Drivers/STM32G4xx_HAL_Driver/Inc/stm32g4xx_ll_rcc.h ****   * @rmtoll BDCR         LSEBYP        LL_RCC_LSE_DisableBypass
1153:Drivers/STM32G4xx_HAL_Driver/Inc/stm32g4xx_ll_rcc.h ****   * @retval None
1154:Drivers/STM32G4xx_HAL_Driver/Inc/stm32g4xx_ll_rcc.h ****   */
1155:Drivers/STM32G4xx_HAL_Driver/Inc/stm32g4xx_ll_rcc.h **** __STATIC_INLINE void LL_RCC_LSE_DisableBypass(void)
1156:Drivers/STM32G4xx_HAL_Driver/Inc/stm32g4xx_ll_rcc.h **** {
1157:Drivers/STM32G4xx_HAL_Driver/Inc/stm32g4xx_ll_rcc.h ****   CLEAR_BIT(RCC->BDCR, RCC_BDCR_LSEBYP);
1158:Drivers/STM32G4xx_HAL_Driver/Inc/stm32g4xx_ll_rcc.h **** }
1159:Drivers/STM32G4xx_HAL_Driver/Inc/stm32g4xx_ll_rcc.h **** 
1160:Drivers/STM32G4xx_HAL_Driver/Inc/stm32g4xx_ll_rcc.h **** /**
1161:Drivers/STM32G4xx_HAL_Driver/Inc/stm32g4xx_ll_rcc.h ****   * @brief  Set LSE oscillator drive capability
1162:Drivers/STM32G4xx_HAL_Driver/Inc/stm32g4xx_ll_rcc.h ****   * @note The oscillator is in Xtal mode when it is not in bypass mode.
1163:Drivers/STM32G4xx_HAL_Driver/Inc/stm32g4xx_ll_rcc.h ****   * @rmtoll BDCR         LSEDRV        LL_RCC_LSE_SetDriveCapability
1164:Drivers/STM32G4xx_HAL_Driver/Inc/stm32g4xx_ll_rcc.h ****   * @param  LSEDrive This parameter can be one of the following values:
1165:Drivers/STM32G4xx_HAL_Driver/Inc/stm32g4xx_ll_rcc.h ****   *         @arg @ref LL_RCC_LSEDRIVE_LOW
1166:Drivers/STM32G4xx_HAL_Driver/Inc/stm32g4xx_ll_rcc.h ****   *         @arg @ref LL_RCC_LSEDRIVE_MEDIUMLOW
1167:Drivers/STM32G4xx_HAL_Driver/Inc/stm32g4xx_ll_rcc.h ****   *         @arg @ref LL_RCC_LSEDRIVE_MEDIUMHIGH
1168:Drivers/STM32G4xx_HAL_Driver/Inc/stm32g4xx_ll_rcc.h ****   *         @arg @ref LL_RCC_LSEDRIVE_HIGH
1169:Drivers/STM32G4xx_HAL_Driver/Inc/stm32g4xx_ll_rcc.h ****   * @retval None
ARM GAS  /tmp/ccweegFn.s 			page 33


1170:Drivers/STM32G4xx_HAL_Driver/Inc/stm32g4xx_ll_rcc.h ****   */
1171:Drivers/STM32G4xx_HAL_Driver/Inc/stm32g4xx_ll_rcc.h **** __STATIC_INLINE void LL_RCC_LSE_SetDriveCapability(uint32_t LSEDrive)
1172:Drivers/STM32G4xx_HAL_Driver/Inc/stm32g4xx_ll_rcc.h **** {
1173:Drivers/STM32G4xx_HAL_Driver/Inc/stm32g4xx_ll_rcc.h ****   MODIFY_REG(RCC->BDCR, RCC_BDCR_LSEDRV, LSEDrive);
1174:Drivers/STM32G4xx_HAL_Driver/Inc/stm32g4xx_ll_rcc.h **** }
1175:Drivers/STM32G4xx_HAL_Driver/Inc/stm32g4xx_ll_rcc.h **** 
1176:Drivers/STM32G4xx_HAL_Driver/Inc/stm32g4xx_ll_rcc.h **** /**
1177:Drivers/STM32G4xx_HAL_Driver/Inc/stm32g4xx_ll_rcc.h ****   * @brief  Get LSE oscillator drive capability
1178:Drivers/STM32G4xx_HAL_Driver/Inc/stm32g4xx_ll_rcc.h ****   * @rmtoll BDCR         LSEDRV        LL_RCC_LSE_GetDriveCapability
1179:Drivers/STM32G4xx_HAL_Driver/Inc/stm32g4xx_ll_rcc.h ****   * @retval Returned value can be one of the following values:
1180:Drivers/STM32G4xx_HAL_Driver/Inc/stm32g4xx_ll_rcc.h ****   *         @arg @ref LL_RCC_LSEDRIVE_LOW
1181:Drivers/STM32G4xx_HAL_Driver/Inc/stm32g4xx_ll_rcc.h ****   *         @arg @ref LL_RCC_LSEDRIVE_MEDIUMLOW
1182:Drivers/STM32G4xx_HAL_Driver/Inc/stm32g4xx_ll_rcc.h ****   *         @arg @ref LL_RCC_LSEDRIVE_MEDIUMHIGH
1183:Drivers/STM32G4xx_HAL_Driver/Inc/stm32g4xx_ll_rcc.h ****   *         @arg @ref LL_RCC_LSEDRIVE_HIGH
1184:Drivers/STM32G4xx_HAL_Driver/Inc/stm32g4xx_ll_rcc.h ****   */
1185:Drivers/STM32G4xx_HAL_Driver/Inc/stm32g4xx_ll_rcc.h **** __STATIC_INLINE uint32_t LL_RCC_LSE_GetDriveCapability(void)
1186:Drivers/STM32G4xx_HAL_Driver/Inc/stm32g4xx_ll_rcc.h **** {
1187:Drivers/STM32G4xx_HAL_Driver/Inc/stm32g4xx_ll_rcc.h ****   return (uint32_t)(READ_BIT(RCC->BDCR, RCC_BDCR_LSEDRV));
1188:Drivers/STM32G4xx_HAL_Driver/Inc/stm32g4xx_ll_rcc.h **** }
1189:Drivers/STM32G4xx_HAL_Driver/Inc/stm32g4xx_ll_rcc.h **** 
1190:Drivers/STM32G4xx_HAL_Driver/Inc/stm32g4xx_ll_rcc.h **** /**
1191:Drivers/STM32G4xx_HAL_Driver/Inc/stm32g4xx_ll_rcc.h ****   * @brief  Enable Clock security system on LSE.
1192:Drivers/STM32G4xx_HAL_Driver/Inc/stm32g4xx_ll_rcc.h ****   * @rmtoll BDCR         LSECSSON      LL_RCC_LSE_EnableCSS
1193:Drivers/STM32G4xx_HAL_Driver/Inc/stm32g4xx_ll_rcc.h ****   * @retval None
1194:Drivers/STM32G4xx_HAL_Driver/Inc/stm32g4xx_ll_rcc.h ****   */
1195:Drivers/STM32G4xx_HAL_Driver/Inc/stm32g4xx_ll_rcc.h **** __STATIC_INLINE void LL_RCC_LSE_EnableCSS(void)
1196:Drivers/STM32G4xx_HAL_Driver/Inc/stm32g4xx_ll_rcc.h **** {
1197:Drivers/STM32G4xx_HAL_Driver/Inc/stm32g4xx_ll_rcc.h ****   SET_BIT(RCC->BDCR, RCC_BDCR_LSECSSON);
1198:Drivers/STM32G4xx_HAL_Driver/Inc/stm32g4xx_ll_rcc.h **** }
1199:Drivers/STM32G4xx_HAL_Driver/Inc/stm32g4xx_ll_rcc.h **** 
1200:Drivers/STM32G4xx_HAL_Driver/Inc/stm32g4xx_ll_rcc.h **** /**
1201:Drivers/STM32G4xx_HAL_Driver/Inc/stm32g4xx_ll_rcc.h ****   * @brief  Disable Clock security system on LSE.
1202:Drivers/STM32G4xx_HAL_Driver/Inc/stm32g4xx_ll_rcc.h ****   * @note Clock security system can be disabled only after a LSE
1203:Drivers/STM32G4xx_HAL_Driver/Inc/stm32g4xx_ll_rcc.h ****   *       failure detection. In that case it MUST be disabled by software.
1204:Drivers/STM32G4xx_HAL_Driver/Inc/stm32g4xx_ll_rcc.h ****   * @rmtoll BDCR         LSECSSON      LL_RCC_LSE_DisableCSS
1205:Drivers/STM32G4xx_HAL_Driver/Inc/stm32g4xx_ll_rcc.h ****   * @retval None
1206:Drivers/STM32G4xx_HAL_Driver/Inc/stm32g4xx_ll_rcc.h ****   */
1207:Drivers/STM32G4xx_HAL_Driver/Inc/stm32g4xx_ll_rcc.h **** __STATIC_INLINE void LL_RCC_LSE_DisableCSS(void)
1208:Drivers/STM32G4xx_HAL_Driver/Inc/stm32g4xx_ll_rcc.h **** {
1209:Drivers/STM32G4xx_HAL_Driver/Inc/stm32g4xx_ll_rcc.h ****   CLEAR_BIT(RCC->BDCR, RCC_BDCR_LSECSSON);
1210:Drivers/STM32G4xx_HAL_Driver/Inc/stm32g4xx_ll_rcc.h **** }
1211:Drivers/STM32G4xx_HAL_Driver/Inc/stm32g4xx_ll_rcc.h **** 
1212:Drivers/STM32G4xx_HAL_Driver/Inc/stm32g4xx_ll_rcc.h **** /**
1213:Drivers/STM32G4xx_HAL_Driver/Inc/stm32g4xx_ll_rcc.h ****   * @brief  Check if LSE oscillator Ready
1214:Drivers/STM32G4xx_HAL_Driver/Inc/stm32g4xx_ll_rcc.h ****   * @rmtoll BDCR         LSERDY        LL_RCC_LSE_IsReady
1215:Drivers/STM32G4xx_HAL_Driver/Inc/stm32g4xx_ll_rcc.h ****   * @retval State of bit (1 or 0).
1216:Drivers/STM32G4xx_HAL_Driver/Inc/stm32g4xx_ll_rcc.h ****   */
1217:Drivers/STM32G4xx_HAL_Driver/Inc/stm32g4xx_ll_rcc.h **** __STATIC_INLINE uint32_t LL_RCC_LSE_IsReady(void)
1218:Drivers/STM32G4xx_HAL_Driver/Inc/stm32g4xx_ll_rcc.h **** {
1219:Drivers/STM32G4xx_HAL_Driver/Inc/stm32g4xx_ll_rcc.h ****   return ((READ_BIT(RCC->BDCR, RCC_BDCR_LSERDY) == (RCC_BDCR_LSERDY)) ? 1UL : 0UL);
1220:Drivers/STM32G4xx_HAL_Driver/Inc/stm32g4xx_ll_rcc.h **** }
1221:Drivers/STM32G4xx_HAL_Driver/Inc/stm32g4xx_ll_rcc.h **** 
1222:Drivers/STM32G4xx_HAL_Driver/Inc/stm32g4xx_ll_rcc.h **** /**
1223:Drivers/STM32G4xx_HAL_Driver/Inc/stm32g4xx_ll_rcc.h ****   * @brief  Check if CSS on LSE failure Detection
1224:Drivers/STM32G4xx_HAL_Driver/Inc/stm32g4xx_ll_rcc.h ****   * @rmtoll BDCR         LSECSSD       LL_RCC_LSE_IsCSSDetected
1225:Drivers/STM32G4xx_HAL_Driver/Inc/stm32g4xx_ll_rcc.h ****   * @retval State of bit (1 or 0).
1226:Drivers/STM32G4xx_HAL_Driver/Inc/stm32g4xx_ll_rcc.h ****   */
ARM GAS  /tmp/ccweegFn.s 			page 34


1227:Drivers/STM32G4xx_HAL_Driver/Inc/stm32g4xx_ll_rcc.h **** __STATIC_INLINE uint32_t LL_RCC_LSE_IsCSSDetected(void)
1228:Drivers/STM32G4xx_HAL_Driver/Inc/stm32g4xx_ll_rcc.h **** {
1229:Drivers/STM32G4xx_HAL_Driver/Inc/stm32g4xx_ll_rcc.h ****   return ((READ_BIT(RCC->BDCR, RCC_BDCR_LSECSSD) == (RCC_BDCR_LSECSSD)) ? 1UL : 0UL);
1230:Drivers/STM32G4xx_HAL_Driver/Inc/stm32g4xx_ll_rcc.h **** }
1231:Drivers/STM32G4xx_HAL_Driver/Inc/stm32g4xx_ll_rcc.h **** 
1232:Drivers/STM32G4xx_HAL_Driver/Inc/stm32g4xx_ll_rcc.h **** /**
1233:Drivers/STM32G4xx_HAL_Driver/Inc/stm32g4xx_ll_rcc.h ****   * @}
1234:Drivers/STM32G4xx_HAL_Driver/Inc/stm32g4xx_ll_rcc.h ****   */
1235:Drivers/STM32G4xx_HAL_Driver/Inc/stm32g4xx_ll_rcc.h **** 
1236:Drivers/STM32G4xx_HAL_Driver/Inc/stm32g4xx_ll_rcc.h **** /** @defgroup RCC_LL_EF_LSI LSI
1237:Drivers/STM32G4xx_HAL_Driver/Inc/stm32g4xx_ll_rcc.h ****   * @{
1238:Drivers/STM32G4xx_HAL_Driver/Inc/stm32g4xx_ll_rcc.h ****   */
1239:Drivers/STM32G4xx_HAL_Driver/Inc/stm32g4xx_ll_rcc.h **** 
1240:Drivers/STM32G4xx_HAL_Driver/Inc/stm32g4xx_ll_rcc.h **** /**
1241:Drivers/STM32G4xx_HAL_Driver/Inc/stm32g4xx_ll_rcc.h ****   * @brief  Enable LSI Oscillator
1242:Drivers/STM32G4xx_HAL_Driver/Inc/stm32g4xx_ll_rcc.h ****   * @rmtoll CSR          LSION         LL_RCC_LSI_Enable
1243:Drivers/STM32G4xx_HAL_Driver/Inc/stm32g4xx_ll_rcc.h ****   * @retval None
1244:Drivers/STM32G4xx_HAL_Driver/Inc/stm32g4xx_ll_rcc.h ****   */
1245:Drivers/STM32G4xx_HAL_Driver/Inc/stm32g4xx_ll_rcc.h **** __STATIC_INLINE void LL_RCC_LSI_Enable(void)
1246:Drivers/STM32G4xx_HAL_Driver/Inc/stm32g4xx_ll_rcc.h **** {
1247:Drivers/STM32G4xx_HAL_Driver/Inc/stm32g4xx_ll_rcc.h ****   SET_BIT(RCC->CSR, RCC_CSR_LSION);
1248:Drivers/STM32G4xx_HAL_Driver/Inc/stm32g4xx_ll_rcc.h **** }
1249:Drivers/STM32G4xx_HAL_Driver/Inc/stm32g4xx_ll_rcc.h **** 
1250:Drivers/STM32G4xx_HAL_Driver/Inc/stm32g4xx_ll_rcc.h **** /**
1251:Drivers/STM32G4xx_HAL_Driver/Inc/stm32g4xx_ll_rcc.h ****   * @brief  Disable LSI Oscillator
1252:Drivers/STM32G4xx_HAL_Driver/Inc/stm32g4xx_ll_rcc.h ****   * @rmtoll CSR          LSION         LL_RCC_LSI_Disable
1253:Drivers/STM32G4xx_HAL_Driver/Inc/stm32g4xx_ll_rcc.h ****   * @retval None
1254:Drivers/STM32G4xx_HAL_Driver/Inc/stm32g4xx_ll_rcc.h ****   */
1255:Drivers/STM32G4xx_HAL_Driver/Inc/stm32g4xx_ll_rcc.h **** __STATIC_INLINE void LL_RCC_LSI_Disable(void)
1256:Drivers/STM32G4xx_HAL_Driver/Inc/stm32g4xx_ll_rcc.h **** {
1257:Drivers/STM32G4xx_HAL_Driver/Inc/stm32g4xx_ll_rcc.h ****   CLEAR_BIT(RCC->CSR, RCC_CSR_LSION);
1258:Drivers/STM32G4xx_HAL_Driver/Inc/stm32g4xx_ll_rcc.h **** }
1259:Drivers/STM32G4xx_HAL_Driver/Inc/stm32g4xx_ll_rcc.h **** 
1260:Drivers/STM32G4xx_HAL_Driver/Inc/stm32g4xx_ll_rcc.h **** /**
1261:Drivers/STM32G4xx_HAL_Driver/Inc/stm32g4xx_ll_rcc.h ****   * @brief  Check if LSI is Ready
1262:Drivers/STM32G4xx_HAL_Driver/Inc/stm32g4xx_ll_rcc.h ****   * @rmtoll CSR          LSIRDY        LL_RCC_LSI_IsReady
1263:Drivers/STM32G4xx_HAL_Driver/Inc/stm32g4xx_ll_rcc.h ****   * @retval State of bit (1 or 0).
1264:Drivers/STM32G4xx_HAL_Driver/Inc/stm32g4xx_ll_rcc.h ****   */
1265:Drivers/STM32G4xx_HAL_Driver/Inc/stm32g4xx_ll_rcc.h **** __STATIC_INLINE uint32_t LL_RCC_LSI_IsReady(void)
1266:Drivers/STM32G4xx_HAL_Driver/Inc/stm32g4xx_ll_rcc.h **** {
1267:Drivers/STM32G4xx_HAL_Driver/Inc/stm32g4xx_ll_rcc.h ****   return ((READ_BIT(RCC->CSR, RCC_CSR_LSIRDY) == (RCC_CSR_LSIRDY)) ? 1UL : 0UL);
1268:Drivers/STM32G4xx_HAL_Driver/Inc/stm32g4xx_ll_rcc.h **** }
1269:Drivers/STM32G4xx_HAL_Driver/Inc/stm32g4xx_ll_rcc.h **** 
1270:Drivers/STM32G4xx_HAL_Driver/Inc/stm32g4xx_ll_rcc.h **** /**
1271:Drivers/STM32G4xx_HAL_Driver/Inc/stm32g4xx_ll_rcc.h ****   * @}
1272:Drivers/STM32G4xx_HAL_Driver/Inc/stm32g4xx_ll_rcc.h ****   */
1273:Drivers/STM32G4xx_HAL_Driver/Inc/stm32g4xx_ll_rcc.h **** 
1274:Drivers/STM32G4xx_HAL_Driver/Inc/stm32g4xx_ll_rcc.h **** /** @defgroup RCC_LL_EF_LSCO LSCO
1275:Drivers/STM32G4xx_HAL_Driver/Inc/stm32g4xx_ll_rcc.h ****   * @{
1276:Drivers/STM32G4xx_HAL_Driver/Inc/stm32g4xx_ll_rcc.h ****   */
1277:Drivers/STM32G4xx_HAL_Driver/Inc/stm32g4xx_ll_rcc.h **** 
1278:Drivers/STM32G4xx_HAL_Driver/Inc/stm32g4xx_ll_rcc.h **** /**
1279:Drivers/STM32G4xx_HAL_Driver/Inc/stm32g4xx_ll_rcc.h ****   * @brief  Enable Low speed clock
1280:Drivers/STM32G4xx_HAL_Driver/Inc/stm32g4xx_ll_rcc.h ****   * @rmtoll BDCR         LSCOEN        LL_RCC_LSCO_Enable
1281:Drivers/STM32G4xx_HAL_Driver/Inc/stm32g4xx_ll_rcc.h ****   * @retval None
1282:Drivers/STM32G4xx_HAL_Driver/Inc/stm32g4xx_ll_rcc.h ****   */
1283:Drivers/STM32G4xx_HAL_Driver/Inc/stm32g4xx_ll_rcc.h **** __STATIC_INLINE void LL_RCC_LSCO_Enable(void)
ARM GAS  /tmp/ccweegFn.s 			page 35


1284:Drivers/STM32G4xx_HAL_Driver/Inc/stm32g4xx_ll_rcc.h **** {
1285:Drivers/STM32G4xx_HAL_Driver/Inc/stm32g4xx_ll_rcc.h ****   SET_BIT(RCC->BDCR, RCC_BDCR_LSCOEN);
1286:Drivers/STM32G4xx_HAL_Driver/Inc/stm32g4xx_ll_rcc.h **** }
1287:Drivers/STM32G4xx_HAL_Driver/Inc/stm32g4xx_ll_rcc.h **** 
1288:Drivers/STM32G4xx_HAL_Driver/Inc/stm32g4xx_ll_rcc.h **** /**
1289:Drivers/STM32G4xx_HAL_Driver/Inc/stm32g4xx_ll_rcc.h ****   * @brief  Disable Low speed clock
1290:Drivers/STM32G4xx_HAL_Driver/Inc/stm32g4xx_ll_rcc.h ****   * @rmtoll BDCR         LSCOEN        LL_RCC_LSCO_Disable
1291:Drivers/STM32G4xx_HAL_Driver/Inc/stm32g4xx_ll_rcc.h ****   * @retval None
1292:Drivers/STM32G4xx_HAL_Driver/Inc/stm32g4xx_ll_rcc.h ****   */
1293:Drivers/STM32G4xx_HAL_Driver/Inc/stm32g4xx_ll_rcc.h **** __STATIC_INLINE void LL_RCC_LSCO_Disable(void)
1294:Drivers/STM32G4xx_HAL_Driver/Inc/stm32g4xx_ll_rcc.h **** {
1295:Drivers/STM32G4xx_HAL_Driver/Inc/stm32g4xx_ll_rcc.h ****   CLEAR_BIT(RCC->BDCR, RCC_BDCR_LSCOEN);
1296:Drivers/STM32G4xx_HAL_Driver/Inc/stm32g4xx_ll_rcc.h **** }
1297:Drivers/STM32G4xx_HAL_Driver/Inc/stm32g4xx_ll_rcc.h **** 
1298:Drivers/STM32G4xx_HAL_Driver/Inc/stm32g4xx_ll_rcc.h **** /**
1299:Drivers/STM32G4xx_HAL_Driver/Inc/stm32g4xx_ll_rcc.h ****   * @brief  Configure Low speed clock selection
1300:Drivers/STM32G4xx_HAL_Driver/Inc/stm32g4xx_ll_rcc.h ****   * @rmtoll BDCR         LSCOSEL       LL_RCC_LSCO_SetSource
1301:Drivers/STM32G4xx_HAL_Driver/Inc/stm32g4xx_ll_rcc.h ****   * @param  Source This parameter can be one of the following values:
1302:Drivers/STM32G4xx_HAL_Driver/Inc/stm32g4xx_ll_rcc.h ****   *         @arg @ref LL_RCC_LSCO_CLKSOURCE_LSI
1303:Drivers/STM32G4xx_HAL_Driver/Inc/stm32g4xx_ll_rcc.h ****   *         @arg @ref LL_RCC_LSCO_CLKSOURCE_LSE
1304:Drivers/STM32G4xx_HAL_Driver/Inc/stm32g4xx_ll_rcc.h ****   * @retval None
1305:Drivers/STM32G4xx_HAL_Driver/Inc/stm32g4xx_ll_rcc.h ****   */
1306:Drivers/STM32G4xx_HAL_Driver/Inc/stm32g4xx_ll_rcc.h **** __STATIC_INLINE void LL_RCC_LSCO_SetSource(uint32_t Source)
1307:Drivers/STM32G4xx_HAL_Driver/Inc/stm32g4xx_ll_rcc.h **** {
1308:Drivers/STM32G4xx_HAL_Driver/Inc/stm32g4xx_ll_rcc.h ****   MODIFY_REG(RCC->BDCR, RCC_BDCR_LSCOSEL, Source);
1309:Drivers/STM32G4xx_HAL_Driver/Inc/stm32g4xx_ll_rcc.h **** }
1310:Drivers/STM32G4xx_HAL_Driver/Inc/stm32g4xx_ll_rcc.h **** 
1311:Drivers/STM32G4xx_HAL_Driver/Inc/stm32g4xx_ll_rcc.h **** /**
1312:Drivers/STM32G4xx_HAL_Driver/Inc/stm32g4xx_ll_rcc.h ****   * @brief  Get Low speed clock selection
1313:Drivers/STM32G4xx_HAL_Driver/Inc/stm32g4xx_ll_rcc.h ****   * @rmtoll BDCR         LSCOSEL       LL_RCC_LSCO_GetSource
1314:Drivers/STM32G4xx_HAL_Driver/Inc/stm32g4xx_ll_rcc.h ****   * @retval Returned value can be one of the following values:
1315:Drivers/STM32G4xx_HAL_Driver/Inc/stm32g4xx_ll_rcc.h ****   *         @arg @ref LL_RCC_LSCO_CLKSOURCE_LSI
1316:Drivers/STM32G4xx_HAL_Driver/Inc/stm32g4xx_ll_rcc.h ****   *         @arg @ref LL_RCC_LSCO_CLKSOURCE_LSE
1317:Drivers/STM32G4xx_HAL_Driver/Inc/stm32g4xx_ll_rcc.h ****   */
1318:Drivers/STM32G4xx_HAL_Driver/Inc/stm32g4xx_ll_rcc.h **** __STATIC_INLINE uint32_t LL_RCC_LSCO_GetSource(void)
1319:Drivers/STM32G4xx_HAL_Driver/Inc/stm32g4xx_ll_rcc.h **** {
1320:Drivers/STM32G4xx_HAL_Driver/Inc/stm32g4xx_ll_rcc.h ****   return (uint32_t)(READ_BIT(RCC->BDCR, RCC_BDCR_LSCOSEL));
1321:Drivers/STM32G4xx_HAL_Driver/Inc/stm32g4xx_ll_rcc.h **** }
1322:Drivers/STM32G4xx_HAL_Driver/Inc/stm32g4xx_ll_rcc.h **** 
1323:Drivers/STM32G4xx_HAL_Driver/Inc/stm32g4xx_ll_rcc.h **** /**
1324:Drivers/STM32G4xx_HAL_Driver/Inc/stm32g4xx_ll_rcc.h ****   * @}
1325:Drivers/STM32G4xx_HAL_Driver/Inc/stm32g4xx_ll_rcc.h ****   */
1326:Drivers/STM32G4xx_HAL_Driver/Inc/stm32g4xx_ll_rcc.h **** 
1327:Drivers/STM32G4xx_HAL_Driver/Inc/stm32g4xx_ll_rcc.h **** /** @defgroup RCC_LL_EF_System System
1328:Drivers/STM32G4xx_HAL_Driver/Inc/stm32g4xx_ll_rcc.h ****   * @{
1329:Drivers/STM32G4xx_HAL_Driver/Inc/stm32g4xx_ll_rcc.h ****   */
1330:Drivers/STM32G4xx_HAL_Driver/Inc/stm32g4xx_ll_rcc.h **** 
1331:Drivers/STM32G4xx_HAL_Driver/Inc/stm32g4xx_ll_rcc.h **** /**
1332:Drivers/STM32G4xx_HAL_Driver/Inc/stm32g4xx_ll_rcc.h ****   * @brief  Configure the system clock source
1333:Drivers/STM32G4xx_HAL_Driver/Inc/stm32g4xx_ll_rcc.h ****   * @rmtoll CFGR         SW            LL_RCC_SetSysClkSource
1334:Drivers/STM32G4xx_HAL_Driver/Inc/stm32g4xx_ll_rcc.h ****   * @param  Source This parameter can be one of the following values:
1335:Drivers/STM32G4xx_HAL_Driver/Inc/stm32g4xx_ll_rcc.h ****   *         @arg @ref LL_RCC_SYS_CLKSOURCE_HSI
1336:Drivers/STM32G4xx_HAL_Driver/Inc/stm32g4xx_ll_rcc.h ****   *         @arg @ref LL_RCC_SYS_CLKSOURCE_HSE
1337:Drivers/STM32G4xx_HAL_Driver/Inc/stm32g4xx_ll_rcc.h ****   *         @arg @ref LL_RCC_SYS_CLKSOURCE_PLL
1338:Drivers/STM32G4xx_HAL_Driver/Inc/stm32g4xx_ll_rcc.h ****   * @retval None
1339:Drivers/STM32G4xx_HAL_Driver/Inc/stm32g4xx_ll_rcc.h ****   */
1340:Drivers/STM32G4xx_HAL_Driver/Inc/stm32g4xx_ll_rcc.h **** __STATIC_INLINE void LL_RCC_SetSysClkSource(uint32_t Source)
ARM GAS  /tmp/ccweegFn.s 			page 36


1341:Drivers/STM32G4xx_HAL_Driver/Inc/stm32g4xx_ll_rcc.h **** {
 382              		.loc 2 1341 1
 383              		.cfi_startproc
 384              		@ args = 0, pretend = 0, frame = 8
 385              		@ frame_needed = 1, uses_anonymous_args = 0
 386              		@ link register save eliminated.
 387 0000 80B4     		push	{r7}
 388              	.LCFI30:
 389              		.cfi_def_cfa_offset 4
 390              		.cfi_offset 7, -4
 391 0002 83B0     		sub	sp, sp, #12
 392              	.LCFI31:
 393              		.cfi_def_cfa_offset 16
 394 0004 00AF     		add	r7, sp, #0
 395              	.LCFI32:
 396              		.cfi_def_cfa_register 7
 397 0006 7860     		str	r0, [r7, #4]
1342:Drivers/STM32G4xx_HAL_Driver/Inc/stm32g4xx_ll_rcc.h ****   MODIFY_REG(RCC->CFGR, RCC_CFGR_SW, Source);
 398              		.loc 2 1342 3
 399 0008 064B     		ldr	r3, .L29
 400 000a 9B68     		ldr	r3, [r3, #8]
 401 000c 23F00302 		bic	r2, r3, #3
 402 0010 0449     		ldr	r1, .L29
 403 0012 7B68     		ldr	r3, [r7, #4]
 404 0014 1343     		orrs	r3, r3, r2
 405 0016 8B60     		str	r3, [r1, #8]
1343:Drivers/STM32G4xx_HAL_Driver/Inc/stm32g4xx_ll_rcc.h **** }
 406              		.loc 2 1343 1
 407 0018 00BF     		nop
 408 001a 0C37     		adds	r7, r7, #12
 409              	.LCFI33:
 410              		.cfi_def_cfa_offset 4
 411 001c BD46     		mov	sp, r7
 412              	.LCFI34:
 413              		.cfi_def_cfa_register 13
 414              		@ sp needed
 415 001e 5DF8047B 		ldr	r7, [sp], #4
 416              	.LCFI35:
 417              		.cfi_restore 7
 418              		.cfi_def_cfa_offset 0
 419 0022 7047     		bx	lr
 420              	.L30:
 421              		.align	2
 422              	.L29:
 423 0024 00100240 		.word	1073876992
 424              		.cfi_endproc
 425              	.LFE173:
 427              		.section	.text.LL_RCC_GetSysClkSource,"ax",%progbits
 428              		.align	1
 429              		.syntax unified
 430              		.thumb
 431              		.thumb_func
 432              		.fpu fpv4-sp-d16
 434              	LL_RCC_GetSysClkSource:
 435              	.LFB174:
1344:Drivers/STM32G4xx_HAL_Driver/Inc/stm32g4xx_ll_rcc.h **** 
1345:Drivers/STM32G4xx_HAL_Driver/Inc/stm32g4xx_ll_rcc.h **** /**
ARM GAS  /tmp/ccweegFn.s 			page 37


1346:Drivers/STM32G4xx_HAL_Driver/Inc/stm32g4xx_ll_rcc.h ****   * @brief  Get the system clock source
1347:Drivers/STM32G4xx_HAL_Driver/Inc/stm32g4xx_ll_rcc.h ****   * @rmtoll CFGR         SWS           LL_RCC_GetSysClkSource
1348:Drivers/STM32G4xx_HAL_Driver/Inc/stm32g4xx_ll_rcc.h ****   * @retval Returned value can be one of the following values:
1349:Drivers/STM32G4xx_HAL_Driver/Inc/stm32g4xx_ll_rcc.h ****   *         @arg @ref LL_RCC_SYS_CLKSOURCE_STATUS_HSI
1350:Drivers/STM32G4xx_HAL_Driver/Inc/stm32g4xx_ll_rcc.h ****   *         @arg @ref LL_RCC_SYS_CLKSOURCE_STATUS_HSE
1351:Drivers/STM32G4xx_HAL_Driver/Inc/stm32g4xx_ll_rcc.h ****   *         @arg @ref LL_RCC_SYS_CLKSOURCE_STATUS_PLL
1352:Drivers/STM32G4xx_HAL_Driver/Inc/stm32g4xx_ll_rcc.h ****   */
1353:Drivers/STM32G4xx_HAL_Driver/Inc/stm32g4xx_ll_rcc.h **** __STATIC_INLINE uint32_t LL_RCC_GetSysClkSource(void)
1354:Drivers/STM32G4xx_HAL_Driver/Inc/stm32g4xx_ll_rcc.h **** {
 436              		.loc 2 1354 1
 437              		.cfi_startproc
 438              		@ args = 0, pretend = 0, frame = 0
 439              		@ frame_needed = 1, uses_anonymous_args = 0
 440              		@ link register save eliminated.
 441 0000 80B4     		push	{r7}
 442              	.LCFI36:
 443              		.cfi_def_cfa_offset 4
 444              		.cfi_offset 7, -4
 445 0002 00AF     		add	r7, sp, #0
 446              	.LCFI37:
 447              		.cfi_def_cfa_register 7
1355:Drivers/STM32G4xx_HAL_Driver/Inc/stm32g4xx_ll_rcc.h ****   return (uint32_t)(READ_BIT(RCC->CFGR, RCC_CFGR_SWS));
 448              		.loc 2 1355 21
 449 0004 044B     		ldr	r3, .L33
 450 0006 9B68     		ldr	r3, [r3, #8]
 451              		.loc 2 1355 10
 452 0008 03F00C03 		and	r3, r3, #12
1356:Drivers/STM32G4xx_HAL_Driver/Inc/stm32g4xx_ll_rcc.h **** }
 453              		.loc 2 1356 1
 454 000c 1846     		mov	r0, r3
 455 000e BD46     		mov	sp, r7
 456              	.LCFI38:
 457              		.cfi_def_cfa_register 13
 458              		@ sp needed
 459 0010 5DF8047B 		ldr	r7, [sp], #4
 460              	.LCFI39:
 461              		.cfi_restore 7
 462              		.cfi_def_cfa_offset 0
 463 0014 7047     		bx	lr
 464              	.L34:
 465 0016 00BF     		.align	2
 466              	.L33:
 467 0018 00100240 		.word	1073876992
 468              		.cfi_endproc
 469              	.LFE174:
 471              		.section	.text.LL_RCC_SetAHBPrescaler,"ax",%progbits
 472              		.align	1
 473              		.syntax unified
 474              		.thumb
 475              		.thumb_func
 476              		.fpu fpv4-sp-d16
 478              	LL_RCC_SetAHBPrescaler:
 479              	.LFB175:
1357:Drivers/STM32G4xx_HAL_Driver/Inc/stm32g4xx_ll_rcc.h **** 
1358:Drivers/STM32G4xx_HAL_Driver/Inc/stm32g4xx_ll_rcc.h **** /**
1359:Drivers/STM32G4xx_HAL_Driver/Inc/stm32g4xx_ll_rcc.h ****   * @brief  Set AHB prescaler
1360:Drivers/STM32G4xx_HAL_Driver/Inc/stm32g4xx_ll_rcc.h ****   * @rmtoll CFGR         HPRE          LL_RCC_SetAHBPrescaler
ARM GAS  /tmp/ccweegFn.s 			page 38


1361:Drivers/STM32G4xx_HAL_Driver/Inc/stm32g4xx_ll_rcc.h ****   * @param  Prescaler This parameter can be one of the following values:
1362:Drivers/STM32G4xx_HAL_Driver/Inc/stm32g4xx_ll_rcc.h ****   *         @arg @ref LL_RCC_SYSCLK_DIV_1
1363:Drivers/STM32G4xx_HAL_Driver/Inc/stm32g4xx_ll_rcc.h ****   *         @arg @ref LL_RCC_SYSCLK_DIV_2
1364:Drivers/STM32G4xx_HAL_Driver/Inc/stm32g4xx_ll_rcc.h ****   *         @arg @ref LL_RCC_SYSCLK_DIV_4
1365:Drivers/STM32G4xx_HAL_Driver/Inc/stm32g4xx_ll_rcc.h ****   *         @arg @ref LL_RCC_SYSCLK_DIV_8
1366:Drivers/STM32G4xx_HAL_Driver/Inc/stm32g4xx_ll_rcc.h ****   *         @arg @ref LL_RCC_SYSCLK_DIV_16
1367:Drivers/STM32G4xx_HAL_Driver/Inc/stm32g4xx_ll_rcc.h ****   *         @arg @ref LL_RCC_SYSCLK_DIV_64
1368:Drivers/STM32G4xx_HAL_Driver/Inc/stm32g4xx_ll_rcc.h ****   *         @arg @ref LL_RCC_SYSCLK_DIV_128
1369:Drivers/STM32G4xx_HAL_Driver/Inc/stm32g4xx_ll_rcc.h ****   *         @arg @ref LL_RCC_SYSCLK_DIV_256
1370:Drivers/STM32G4xx_HAL_Driver/Inc/stm32g4xx_ll_rcc.h ****   *         @arg @ref LL_RCC_SYSCLK_DIV_512
1371:Drivers/STM32G4xx_HAL_Driver/Inc/stm32g4xx_ll_rcc.h ****   * @retval None
1372:Drivers/STM32G4xx_HAL_Driver/Inc/stm32g4xx_ll_rcc.h ****   */
1373:Drivers/STM32G4xx_HAL_Driver/Inc/stm32g4xx_ll_rcc.h **** __STATIC_INLINE void LL_RCC_SetAHBPrescaler(uint32_t Prescaler)
1374:Drivers/STM32G4xx_HAL_Driver/Inc/stm32g4xx_ll_rcc.h **** {
 480              		.loc 2 1374 1
 481              		.cfi_startproc
 482              		@ args = 0, pretend = 0, frame = 8
 483              		@ frame_needed = 1, uses_anonymous_args = 0
 484              		@ link register save eliminated.
 485 0000 80B4     		push	{r7}
 486              	.LCFI40:
 487              		.cfi_def_cfa_offset 4
 488              		.cfi_offset 7, -4
 489 0002 83B0     		sub	sp, sp, #12
 490              	.LCFI41:
 491              		.cfi_def_cfa_offset 16
 492 0004 00AF     		add	r7, sp, #0
 493              	.LCFI42:
 494              		.cfi_def_cfa_register 7
 495 0006 7860     		str	r0, [r7, #4]
1375:Drivers/STM32G4xx_HAL_Driver/Inc/stm32g4xx_ll_rcc.h ****   MODIFY_REG(RCC->CFGR, RCC_CFGR_HPRE, Prescaler);
 496              		.loc 2 1375 3
 497 0008 064B     		ldr	r3, .L36
 498 000a 9B68     		ldr	r3, [r3, #8]
 499 000c 23F0F002 		bic	r2, r3, #240
 500 0010 0449     		ldr	r1, .L36
 501 0012 7B68     		ldr	r3, [r7, #4]
 502 0014 1343     		orrs	r3, r3, r2
 503 0016 8B60     		str	r3, [r1, #8]
1376:Drivers/STM32G4xx_HAL_Driver/Inc/stm32g4xx_ll_rcc.h **** }
 504              		.loc 2 1376 1
 505 0018 00BF     		nop
 506 001a 0C37     		adds	r7, r7, #12
 507              	.LCFI43:
 508              		.cfi_def_cfa_offset 4
 509 001c BD46     		mov	sp, r7
 510              	.LCFI44:
 511              		.cfi_def_cfa_register 13
 512              		@ sp needed
 513 001e 5DF8047B 		ldr	r7, [sp], #4
 514              	.LCFI45:
 515              		.cfi_restore 7
 516              		.cfi_def_cfa_offset 0
 517 0022 7047     		bx	lr
 518              	.L37:
 519              		.align	2
 520              	.L36:
ARM GAS  /tmp/ccweegFn.s 			page 39


 521 0024 00100240 		.word	1073876992
 522              		.cfi_endproc
 523              	.LFE175:
 525              		.section	.text.LL_RCC_SetAPB1Prescaler,"ax",%progbits
 526              		.align	1
 527              		.syntax unified
 528              		.thumb
 529              		.thumb_func
 530              		.fpu fpv4-sp-d16
 532              	LL_RCC_SetAPB1Prescaler:
 533              	.LFB176:
1377:Drivers/STM32G4xx_HAL_Driver/Inc/stm32g4xx_ll_rcc.h **** 
1378:Drivers/STM32G4xx_HAL_Driver/Inc/stm32g4xx_ll_rcc.h **** /**
1379:Drivers/STM32G4xx_HAL_Driver/Inc/stm32g4xx_ll_rcc.h ****   * @brief  Set APB1 prescaler
1380:Drivers/STM32G4xx_HAL_Driver/Inc/stm32g4xx_ll_rcc.h ****   * @rmtoll CFGR         PPRE1         LL_RCC_SetAPB1Prescaler
1381:Drivers/STM32G4xx_HAL_Driver/Inc/stm32g4xx_ll_rcc.h ****   * @param  Prescaler This parameter can be one of the following values:
1382:Drivers/STM32G4xx_HAL_Driver/Inc/stm32g4xx_ll_rcc.h ****   *         @arg @ref LL_RCC_APB1_DIV_1
1383:Drivers/STM32G4xx_HAL_Driver/Inc/stm32g4xx_ll_rcc.h ****   *         @arg @ref LL_RCC_APB1_DIV_2
1384:Drivers/STM32G4xx_HAL_Driver/Inc/stm32g4xx_ll_rcc.h ****   *         @arg @ref LL_RCC_APB1_DIV_4
1385:Drivers/STM32G4xx_HAL_Driver/Inc/stm32g4xx_ll_rcc.h ****   *         @arg @ref LL_RCC_APB1_DIV_8
1386:Drivers/STM32G4xx_HAL_Driver/Inc/stm32g4xx_ll_rcc.h ****   *         @arg @ref LL_RCC_APB1_DIV_16
1387:Drivers/STM32G4xx_HAL_Driver/Inc/stm32g4xx_ll_rcc.h ****   * @retval None
1388:Drivers/STM32G4xx_HAL_Driver/Inc/stm32g4xx_ll_rcc.h ****   */
1389:Drivers/STM32G4xx_HAL_Driver/Inc/stm32g4xx_ll_rcc.h **** __STATIC_INLINE void LL_RCC_SetAPB1Prescaler(uint32_t Prescaler)
1390:Drivers/STM32G4xx_HAL_Driver/Inc/stm32g4xx_ll_rcc.h **** {
 534              		.loc 2 1390 1
 535              		.cfi_startproc
 536              		@ args = 0, pretend = 0, frame = 8
 537              		@ frame_needed = 1, uses_anonymous_args = 0
 538              		@ link register save eliminated.
 539 0000 80B4     		push	{r7}
 540              	.LCFI46:
 541              		.cfi_def_cfa_offset 4
 542              		.cfi_offset 7, -4
 543 0002 83B0     		sub	sp, sp, #12
 544              	.LCFI47:
 545              		.cfi_def_cfa_offset 16
 546 0004 00AF     		add	r7, sp, #0
 547              	.LCFI48:
 548              		.cfi_def_cfa_register 7
 549 0006 7860     		str	r0, [r7, #4]
1391:Drivers/STM32G4xx_HAL_Driver/Inc/stm32g4xx_ll_rcc.h ****   MODIFY_REG(RCC->CFGR, RCC_CFGR_PPRE1, Prescaler);
 550              		.loc 2 1391 3
 551 0008 064B     		ldr	r3, .L39
 552 000a 9B68     		ldr	r3, [r3, #8]
 553 000c 23F4E062 		bic	r2, r3, #1792
 554 0010 0449     		ldr	r1, .L39
 555 0012 7B68     		ldr	r3, [r7, #4]
 556 0014 1343     		orrs	r3, r3, r2
 557 0016 8B60     		str	r3, [r1, #8]
1392:Drivers/STM32G4xx_HAL_Driver/Inc/stm32g4xx_ll_rcc.h **** }
 558              		.loc 2 1392 1
 559 0018 00BF     		nop
 560 001a 0C37     		adds	r7, r7, #12
 561              	.LCFI49:
 562              		.cfi_def_cfa_offset 4
 563 001c BD46     		mov	sp, r7
ARM GAS  /tmp/ccweegFn.s 			page 40


 564              	.LCFI50:
 565              		.cfi_def_cfa_register 13
 566              		@ sp needed
 567 001e 5DF8047B 		ldr	r7, [sp], #4
 568              	.LCFI51:
 569              		.cfi_restore 7
 570              		.cfi_def_cfa_offset 0
 571 0022 7047     		bx	lr
 572              	.L40:
 573              		.align	2
 574              	.L39:
 575 0024 00100240 		.word	1073876992
 576              		.cfi_endproc
 577              	.LFE176:
 579              		.section	.text.LL_RCC_SetAPB2Prescaler,"ax",%progbits
 580              		.align	1
 581              		.syntax unified
 582              		.thumb
 583              		.thumb_func
 584              		.fpu fpv4-sp-d16
 586              	LL_RCC_SetAPB2Prescaler:
 587              	.LFB177:
1393:Drivers/STM32G4xx_HAL_Driver/Inc/stm32g4xx_ll_rcc.h **** 
1394:Drivers/STM32G4xx_HAL_Driver/Inc/stm32g4xx_ll_rcc.h **** /**
1395:Drivers/STM32G4xx_HAL_Driver/Inc/stm32g4xx_ll_rcc.h ****   * @brief  Set APB2 prescaler
1396:Drivers/STM32G4xx_HAL_Driver/Inc/stm32g4xx_ll_rcc.h ****   * @rmtoll CFGR         PPRE2         LL_RCC_SetAPB2Prescaler
1397:Drivers/STM32G4xx_HAL_Driver/Inc/stm32g4xx_ll_rcc.h ****   * @param  Prescaler This parameter can be one of the following values:
1398:Drivers/STM32G4xx_HAL_Driver/Inc/stm32g4xx_ll_rcc.h ****   *         @arg @ref LL_RCC_APB2_DIV_1
1399:Drivers/STM32G4xx_HAL_Driver/Inc/stm32g4xx_ll_rcc.h ****   *         @arg @ref LL_RCC_APB2_DIV_2
1400:Drivers/STM32G4xx_HAL_Driver/Inc/stm32g4xx_ll_rcc.h ****   *         @arg @ref LL_RCC_APB2_DIV_4
1401:Drivers/STM32G4xx_HAL_Driver/Inc/stm32g4xx_ll_rcc.h ****   *         @arg @ref LL_RCC_APB2_DIV_8
1402:Drivers/STM32G4xx_HAL_Driver/Inc/stm32g4xx_ll_rcc.h ****   *         @arg @ref LL_RCC_APB2_DIV_16
1403:Drivers/STM32G4xx_HAL_Driver/Inc/stm32g4xx_ll_rcc.h ****   * @retval None
1404:Drivers/STM32G4xx_HAL_Driver/Inc/stm32g4xx_ll_rcc.h ****   */
1405:Drivers/STM32G4xx_HAL_Driver/Inc/stm32g4xx_ll_rcc.h **** __STATIC_INLINE void LL_RCC_SetAPB2Prescaler(uint32_t Prescaler)
1406:Drivers/STM32G4xx_HAL_Driver/Inc/stm32g4xx_ll_rcc.h **** {
 588              		.loc 2 1406 1
 589              		.cfi_startproc
 590              		@ args = 0, pretend = 0, frame = 8
 591              		@ frame_needed = 1, uses_anonymous_args = 0
 592              		@ link register save eliminated.
 593 0000 80B4     		push	{r7}
 594              	.LCFI52:
 595              		.cfi_def_cfa_offset 4
 596              		.cfi_offset 7, -4
 597 0002 83B0     		sub	sp, sp, #12
 598              	.LCFI53:
 599              		.cfi_def_cfa_offset 16
 600 0004 00AF     		add	r7, sp, #0
 601              	.LCFI54:
 602              		.cfi_def_cfa_register 7
 603 0006 7860     		str	r0, [r7, #4]
1407:Drivers/STM32G4xx_HAL_Driver/Inc/stm32g4xx_ll_rcc.h ****   MODIFY_REG(RCC->CFGR, RCC_CFGR_PPRE2, Prescaler);
 604              		.loc 2 1407 3
 605 0008 064B     		ldr	r3, .L42
 606 000a 9B68     		ldr	r3, [r3, #8]
 607 000c 23F46052 		bic	r2, r3, #14336
ARM GAS  /tmp/ccweegFn.s 			page 41


 608 0010 0449     		ldr	r1, .L42
 609 0012 7B68     		ldr	r3, [r7, #4]
 610 0014 1343     		orrs	r3, r3, r2
 611 0016 8B60     		str	r3, [r1, #8]
1408:Drivers/STM32G4xx_HAL_Driver/Inc/stm32g4xx_ll_rcc.h **** }
 612              		.loc 2 1408 1
 613 0018 00BF     		nop
 614 001a 0C37     		adds	r7, r7, #12
 615              	.LCFI55:
 616              		.cfi_def_cfa_offset 4
 617 001c BD46     		mov	sp, r7
 618              	.LCFI56:
 619              		.cfi_def_cfa_register 13
 620              		@ sp needed
 621 001e 5DF8047B 		ldr	r7, [sp], #4
 622              	.LCFI57:
 623              		.cfi_restore 7
 624              		.cfi_def_cfa_offset 0
 625 0022 7047     		bx	lr
 626              	.L43:
 627              		.align	2
 628              	.L42:
 629 0024 00100240 		.word	1073876992
 630              		.cfi_endproc
 631              	.LFE177:
 633              		.section	.text.LL_RCC_PLL_Enable,"ax",%progbits
 634              		.align	1
 635              		.syntax unified
 636              		.thumb
 637              		.thumb_func
 638              		.fpu fpv4-sp-d16
 640              	LL_RCC_PLL_Enable:
 641              	.LFB211:
1409:Drivers/STM32G4xx_HAL_Driver/Inc/stm32g4xx_ll_rcc.h **** 
1410:Drivers/STM32G4xx_HAL_Driver/Inc/stm32g4xx_ll_rcc.h **** /**
1411:Drivers/STM32G4xx_HAL_Driver/Inc/stm32g4xx_ll_rcc.h ****   * @brief  Get AHB prescaler
1412:Drivers/STM32G4xx_HAL_Driver/Inc/stm32g4xx_ll_rcc.h ****   * @rmtoll CFGR         HPRE          LL_RCC_GetAHBPrescaler
1413:Drivers/STM32G4xx_HAL_Driver/Inc/stm32g4xx_ll_rcc.h ****   * @retval Returned value can be one of the following values:
1414:Drivers/STM32G4xx_HAL_Driver/Inc/stm32g4xx_ll_rcc.h ****   *         @arg @ref LL_RCC_SYSCLK_DIV_1
1415:Drivers/STM32G4xx_HAL_Driver/Inc/stm32g4xx_ll_rcc.h ****   *         @arg @ref LL_RCC_SYSCLK_DIV_2
1416:Drivers/STM32G4xx_HAL_Driver/Inc/stm32g4xx_ll_rcc.h ****   *         @arg @ref LL_RCC_SYSCLK_DIV_4
1417:Drivers/STM32G4xx_HAL_Driver/Inc/stm32g4xx_ll_rcc.h ****   *         @arg @ref LL_RCC_SYSCLK_DIV_8
1418:Drivers/STM32G4xx_HAL_Driver/Inc/stm32g4xx_ll_rcc.h ****   *         @arg @ref LL_RCC_SYSCLK_DIV_16
1419:Drivers/STM32G4xx_HAL_Driver/Inc/stm32g4xx_ll_rcc.h ****   *         @arg @ref LL_RCC_SYSCLK_DIV_64
1420:Drivers/STM32G4xx_HAL_Driver/Inc/stm32g4xx_ll_rcc.h ****   *         @arg @ref LL_RCC_SYSCLK_DIV_128
1421:Drivers/STM32G4xx_HAL_Driver/Inc/stm32g4xx_ll_rcc.h ****   *         @arg @ref LL_RCC_SYSCLK_DIV_256
1422:Drivers/STM32G4xx_HAL_Driver/Inc/stm32g4xx_ll_rcc.h ****   *         @arg @ref LL_RCC_SYSCLK_DIV_512
1423:Drivers/STM32G4xx_HAL_Driver/Inc/stm32g4xx_ll_rcc.h ****   */
1424:Drivers/STM32G4xx_HAL_Driver/Inc/stm32g4xx_ll_rcc.h **** __STATIC_INLINE uint32_t LL_RCC_GetAHBPrescaler(void)
1425:Drivers/STM32G4xx_HAL_Driver/Inc/stm32g4xx_ll_rcc.h **** {
1426:Drivers/STM32G4xx_HAL_Driver/Inc/stm32g4xx_ll_rcc.h ****   return (uint32_t)(READ_BIT(RCC->CFGR, RCC_CFGR_HPRE));
1427:Drivers/STM32G4xx_HAL_Driver/Inc/stm32g4xx_ll_rcc.h **** }
1428:Drivers/STM32G4xx_HAL_Driver/Inc/stm32g4xx_ll_rcc.h **** 
1429:Drivers/STM32G4xx_HAL_Driver/Inc/stm32g4xx_ll_rcc.h **** /**
1430:Drivers/STM32G4xx_HAL_Driver/Inc/stm32g4xx_ll_rcc.h ****   * @brief  Get APB1 prescaler
1431:Drivers/STM32G4xx_HAL_Driver/Inc/stm32g4xx_ll_rcc.h ****   * @rmtoll CFGR         PPRE1         LL_RCC_GetAPB1Prescaler
1432:Drivers/STM32G4xx_HAL_Driver/Inc/stm32g4xx_ll_rcc.h ****   * @retval Returned value can be one of the following values:
ARM GAS  /tmp/ccweegFn.s 			page 42


1433:Drivers/STM32G4xx_HAL_Driver/Inc/stm32g4xx_ll_rcc.h ****   *         @arg @ref LL_RCC_APB1_DIV_1
1434:Drivers/STM32G4xx_HAL_Driver/Inc/stm32g4xx_ll_rcc.h ****   *         @arg @ref LL_RCC_APB1_DIV_2
1435:Drivers/STM32G4xx_HAL_Driver/Inc/stm32g4xx_ll_rcc.h ****   *         @arg @ref LL_RCC_APB1_DIV_4
1436:Drivers/STM32G4xx_HAL_Driver/Inc/stm32g4xx_ll_rcc.h ****   *         @arg @ref LL_RCC_APB1_DIV_8
1437:Drivers/STM32G4xx_HAL_Driver/Inc/stm32g4xx_ll_rcc.h ****   *         @arg @ref LL_RCC_APB1_DIV_16
1438:Drivers/STM32G4xx_HAL_Driver/Inc/stm32g4xx_ll_rcc.h ****   */
1439:Drivers/STM32G4xx_HAL_Driver/Inc/stm32g4xx_ll_rcc.h **** __STATIC_INLINE uint32_t LL_RCC_GetAPB1Prescaler(void)
1440:Drivers/STM32G4xx_HAL_Driver/Inc/stm32g4xx_ll_rcc.h **** {
1441:Drivers/STM32G4xx_HAL_Driver/Inc/stm32g4xx_ll_rcc.h ****   return (uint32_t)(READ_BIT(RCC->CFGR, RCC_CFGR_PPRE1));
1442:Drivers/STM32G4xx_HAL_Driver/Inc/stm32g4xx_ll_rcc.h **** }
1443:Drivers/STM32G4xx_HAL_Driver/Inc/stm32g4xx_ll_rcc.h **** 
1444:Drivers/STM32G4xx_HAL_Driver/Inc/stm32g4xx_ll_rcc.h **** /**
1445:Drivers/STM32G4xx_HAL_Driver/Inc/stm32g4xx_ll_rcc.h ****   * @brief  Get APB2 prescaler
1446:Drivers/STM32G4xx_HAL_Driver/Inc/stm32g4xx_ll_rcc.h ****   * @rmtoll CFGR         PPRE2         LL_RCC_GetAPB2Prescaler
1447:Drivers/STM32G4xx_HAL_Driver/Inc/stm32g4xx_ll_rcc.h ****   * @retval Returned value can be one of the following values:
1448:Drivers/STM32G4xx_HAL_Driver/Inc/stm32g4xx_ll_rcc.h ****   *         @arg @ref LL_RCC_APB2_DIV_1
1449:Drivers/STM32G4xx_HAL_Driver/Inc/stm32g4xx_ll_rcc.h ****   *         @arg @ref LL_RCC_APB2_DIV_2
1450:Drivers/STM32G4xx_HAL_Driver/Inc/stm32g4xx_ll_rcc.h ****   *         @arg @ref LL_RCC_APB2_DIV_4
1451:Drivers/STM32G4xx_HAL_Driver/Inc/stm32g4xx_ll_rcc.h ****   *         @arg @ref LL_RCC_APB2_DIV_8
1452:Drivers/STM32G4xx_HAL_Driver/Inc/stm32g4xx_ll_rcc.h ****   *         @arg @ref LL_RCC_APB2_DIV_16
1453:Drivers/STM32G4xx_HAL_Driver/Inc/stm32g4xx_ll_rcc.h ****   */
1454:Drivers/STM32G4xx_HAL_Driver/Inc/stm32g4xx_ll_rcc.h **** __STATIC_INLINE uint32_t LL_RCC_GetAPB2Prescaler(void)
1455:Drivers/STM32G4xx_HAL_Driver/Inc/stm32g4xx_ll_rcc.h **** {
1456:Drivers/STM32G4xx_HAL_Driver/Inc/stm32g4xx_ll_rcc.h ****   return (uint32_t)(READ_BIT(RCC->CFGR, RCC_CFGR_PPRE2));
1457:Drivers/STM32G4xx_HAL_Driver/Inc/stm32g4xx_ll_rcc.h **** }
1458:Drivers/STM32G4xx_HAL_Driver/Inc/stm32g4xx_ll_rcc.h **** 
1459:Drivers/STM32G4xx_HAL_Driver/Inc/stm32g4xx_ll_rcc.h **** /**
1460:Drivers/STM32G4xx_HAL_Driver/Inc/stm32g4xx_ll_rcc.h ****   * @}
1461:Drivers/STM32G4xx_HAL_Driver/Inc/stm32g4xx_ll_rcc.h ****   */
1462:Drivers/STM32G4xx_HAL_Driver/Inc/stm32g4xx_ll_rcc.h **** 
1463:Drivers/STM32G4xx_HAL_Driver/Inc/stm32g4xx_ll_rcc.h **** /** @defgroup RCC_LL_EF_MCO MCO
1464:Drivers/STM32G4xx_HAL_Driver/Inc/stm32g4xx_ll_rcc.h ****   * @{
1465:Drivers/STM32G4xx_HAL_Driver/Inc/stm32g4xx_ll_rcc.h ****   */
1466:Drivers/STM32G4xx_HAL_Driver/Inc/stm32g4xx_ll_rcc.h **** 
1467:Drivers/STM32G4xx_HAL_Driver/Inc/stm32g4xx_ll_rcc.h **** /**
1468:Drivers/STM32G4xx_HAL_Driver/Inc/stm32g4xx_ll_rcc.h ****   * @brief  Configure MCOx
1469:Drivers/STM32G4xx_HAL_Driver/Inc/stm32g4xx_ll_rcc.h ****   * @rmtoll CFGR         MCOSEL        LL_RCC_ConfigMCO\n
1470:Drivers/STM32G4xx_HAL_Driver/Inc/stm32g4xx_ll_rcc.h ****   *         CFGR         MCOPRE        LL_RCC_ConfigMCO
1471:Drivers/STM32G4xx_HAL_Driver/Inc/stm32g4xx_ll_rcc.h ****   * @param  MCOxSource This parameter can be one of the following values:
1472:Drivers/STM32G4xx_HAL_Driver/Inc/stm32g4xx_ll_rcc.h ****   *         @arg @ref LL_RCC_MCO1SOURCE_NOCLOCK
1473:Drivers/STM32G4xx_HAL_Driver/Inc/stm32g4xx_ll_rcc.h ****   *         @arg @ref LL_RCC_MCO1SOURCE_SYSCLK
1474:Drivers/STM32G4xx_HAL_Driver/Inc/stm32g4xx_ll_rcc.h ****   *         @arg @ref LL_RCC_MCO1SOURCE_HSI
1475:Drivers/STM32G4xx_HAL_Driver/Inc/stm32g4xx_ll_rcc.h ****   *         @arg @ref LL_RCC_MCO1SOURCE_HSE
1476:Drivers/STM32G4xx_HAL_Driver/Inc/stm32g4xx_ll_rcc.h ****   *         @arg @ref LL_RCC_MCO1SOURCE_HSI48
1477:Drivers/STM32G4xx_HAL_Driver/Inc/stm32g4xx_ll_rcc.h ****   *         @arg @ref LL_RCC_MCO1SOURCE_PLLCLK
1478:Drivers/STM32G4xx_HAL_Driver/Inc/stm32g4xx_ll_rcc.h ****   *         @arg @ref LL_RCC_MCO1SOURCE_LSI
1479:Drivers/STM32G4xx_HAL_Driver/Inc/stm32g4xx_ll_rcc.h ****   *         @arg @ref LL_RCC_MCO1SOURCE_LSE
1480:Drivers/STM32G4xx_HAL_Driver/Inc/stm32g4xx_ll_rcc.h ****   *
1481:Drivers/STM32G4xx_HAL_Driver/Inc/stm32g4xx_ll_rcc.h ****   *         (*) value not defined in all devices.
1482:Drivers/STM32G4xx_HAL_Driver/Inc/stm32g4xx_ll_rcc.h ****   * @param  MCOxPrescaler This parameter can be one of the following values:
1483:Drivers/STM32G4xx_HAL_Driver/Inc/stm32g4xx_ll_rcc.h ****   *         @arg @ref LL_RCC_MCO1_DIV_1
1484:Drivers/STM32G4xx_HAL_Driver/Inc/stm32g4xx_ll_rcc.h ****   *         @arg @ref LL_RCC_MCO1_DIV_2
1485:Drivers/STM32G4xx_HAL_Driver/Inc/stm32g4xx_ll_rcc.h ****   *         @arg @ref LL_RCC_MCO1_DIV_4
1486:Drivers/STM32G4xx_HAL_Driver/Inc/stm32g4xx_ll_rcc.h ****   *         @arg @ref LL_RCC_MCO1_DIV_8
1487:Drivers/STM32G4xx_HAL_Driver/Inc/stm32g4xx_ll_rcc.h ****   *         @arg @ref LL_RCC_MCO1_DIV_16
1488:Drivers/STM32G4xx_HAL_Driver/Inc/stm32g4xx_ll_rcc.h ****   * @retval None
1489:Drivers/STM32G4xx_HAL_Driver/Inc/stm32g4xx_ll_rcc.h ****   */
ARM GAS  /tmp/ccweegFn.s 			page 43


1490:Drivers/STM32G4xx_HAL_Driver/Inc/stm32g4xx_ll_rcc.h **** __STATIC_INLINE void LL_RCC_ConfigMCO(uint32_t MCOxSource, uint32_t MCOxPrescaler)
1491:Drivers/STM32G4xx_HAL_Driver/Inc/stm32g4xx_ll_rcc.h **** {
1492:Drivers/STM32G4xx_HAL_Driver/Inc/stm32g4xx_ll_rcc.h ****   MODIFY_REG(RCC->CFGR, RCC_CFGR_MCOSEL | RCC_CFGR_MCOPRE, MCOxSource | MCOxPrescaler);
1493:Drivers/STM32G4xx_HAL_Driver/Inc/stm32g4xx_ll_rcc.h **** }
1494:Drivers/STM32G4xx_HAL_Driver/Inc/stm32g4xx_ll_rcc.h **** 
1495:Drivers/STM32G4xx_HAL_Driver/Inc/stm32g4xx_ll_rcc.h **** /**
1496:Drivers/STM32G4xx_HAL_Driver/Inc/stm32g4xx_ll_rcc.h ****   * @}
1497:Drivers/STM32G4xx_HAL_Driver/Inc/stm32g4xx_ll_rcc.h ****   */
1498:Drivers/STM32G4xx_HAL_Driver/Inc/stm32g4xx_ll_rcc.h **** 
1499:Drivers/STM32G4xx_HAL_Driver/Inc/stm32g4xx_ll_rcc.h **** /** @defgroup RCC_LL_EF_Peripheral_Clock_Source Peripheral Clock Source
1500:Drivers/STM32G4xx_HAL_Driver/Inc/stm32g4xx_ll_rcc.h ****   * @{
1501:Drivers/STM32G4xx_HAL_Driver/Inc/stm32g4xx_ll_rcc.h ****   */
1502:Drivers/STM32G4xx_HAL_Driver/Inc/stm32g4xx_ll_rcc.h **** 
1503:Drivers/STM32G4xx_HAL_Driver/Inc/stm32g4xx_ll_rcc.h **** /**
1504:Drivers/STM32G4xx_HAL_Driver/Inc/stm32g4xx_ll_rcc.h ****   * @brief  Configure USARTx clock source
1505:Drivers/STM32G4xx_HAL_Driver/Inc/stm32g4xx_ll_rcc.h ****   * @rmtoll CCIPR        USARTxSEL     LL_RCC_SetUSARTClockSource
1506:Drivers/STM32G4xx_HAL_Driver/Inc/stm32g4xx_ll_rcc.h ****   * @param  USARTxSource This parameter can be one of the following values:
1507:Drivers/STM32G4xx_HAL_Driver/Inc/stm32g4xx_ll_rcc.h ****   *         @arg @ref LL_RCC_USART1_CLKSOURCE_PCLK2
1508:Drivers/STM32G4xx_HAL_Driver/Inc/stm32g4xx_ll_rcc.h ****   *         @arg @ref LL_RCC_USART1_CLKSOURCE_SYSCLK
1509:Drivers/STM32G4xx_HAL_Driver/Inc/stm32g4xx_ll_rcc.h ****   *         @arg @ref LL_RCC_USART1_CLKSOURCE_HSI
1510:Drivers/STM32G4xx_HAL_Driver/Inc/stm32g4xx_ll_rcc.h ****   *         @arg @ref LL_RCC_USART1_CLKSOURCE_LSE
1511:Drivers/STM32G4xx_HAL_Driver/Inc/stm32g4xx_ll_rcc.h ****   *         @arg @ref LL_RCC_USART2_CLKSOURCE_PCLK1
1512:Drivers/STM32G4xx_HAL_Driver/Inc/stm32g4xx_ll_rcc.h ****   *         @arg @ref LL_RCC_USART2_CLKSOURCE_SYSCLK
1513:Drivers/STM32G4xx_HAL_Driver/Inc/stm32g4xx_ll_rcc.h ****   *         @arg @ref LL_RCC_USART2_CLKSOURCE_HSI
1514:Drivers/STM32G4xx_HAL_Driver/Inc/stm32g4xx_ll_rcc.h ****   *         @arg @ref LL_RCC_USART2_CLKSOURCE_LSE
1515:Drivers/STM32G4xx_HAL_Driver/Inc/stm32g4xx_ll_rcc.h ****   *         @arg @ref LL_RCC_USART3_CLKSOURCE_PCLK1
1516:Drivers/STM32G4xx_HAL_Driver/Inc/stm32g4xx_ll_rcc.h ****   *         @arg @ref LL_RCC_USART3_CLKSOURCE_SYSCLK
1517:Drivers/STM32G4xx_HAL_Driver/Inc/stm32g4xx_ll_rcc.h ****   *         @arg @ref LL_RCC_USART3_CLKSOURCE_HSI
1518:Drivers/STM32G4xx_HAL_Driver/Inc/stm32g4xx_ll_rcc.h ****   *         @arg @ref LL_RCC_USART3_CLKSOURCE_LSE
1519:Drivers/STM32G4xx_HAL_Driver/Inc/stm32g4xx_ll_rcc.h ****   * @retval None
1520:Drivers/STM32G4xx_HAL_Driver/Inc/stm32g4xx_ll_rcc.h ****   */
1521:Drivers/STM32G4xx_HAL_Driver/Inc/stm32g4xx_ll_rcc.h **** __STATIC_INLINE void LL_RCC_SetUSARTClockSource(uint32_t USARTxSource)
1522:Drivers/STM32G4xx_HAL_Driver/Inc/stm32g4xx_ll_rcc.h **** {
1523:Drivers/STM32G4xx_HAL_Driver/Inc/stm32g4xx_ll_rcc.h ****   MODIFY_REG(RCC->CCIPR, (USARTxSource >> 16U), (USARTxSource & 0x0000FFFFU));
1524:Drivers/STM32G4xx_HAL_Driver/Inc/stm32g4xx_ll_rcc.h **** }
1525:Drivers/STM32G4xx_HAL_Driver/Inc/stm32g4xx_ll_rcc.h **** 
1526:Drivers/STM32G4xx_HAL_Driver/Inc/stm32g4xx_ll_rcc.h **** #if defined(UART4)
1527:Drivers/STM32G4xx_HAL_Driver/Inc/stm32g4xx_ll_rcc.h **** /**
1528:Drivers/STM32G4xx_HAL_Driver/Inc/stm32g4xx_ll_rcc.h ****   * @brief  Configure UARTx clock source
1529:Drivers/STM32G4xx_HAL_Driver/Inc/stm32g4xx_ll_rcc.h ****   * @rmtoll CCIPR        UARTxSEL      LL_RCC_SetUARTClockSource
1530:Drivers/STM32G4xx_HAL_Driver/Inc/stm32g4xx_ll_rcc.h ****   * @param  UARTxSource This parameter can be one of the following values:
1531:Drivers/STM32G4xx_HAL_Driver/Inc/stm32g4xx_ll_rcc.h ****   *         @arg @ref LL_RCC_UART4_CLKSOURCE_PCLK1 (*)
1532:Drivers/STM32G4xx_HAL_Driver/Inc/stm32g4xx_ll_rcc.h ****   *         @arg @ref LL_RCC_UART4_CLKSOURCE_SYSCLK (*)
1533:Drivers/STM32G4xx_HAL_Driver/Inc/stm32g4xx_ll_rcc.h ****   *         @arg @ref LL_RCC_UART4_CLKSOURCE_HSI (*)
1534:Drivers/STM32G4xx_HAL_Driver/Inc/stm32g4xx_ll_rcc.h ****   *         @arg @ref LL_RCC_UART4_CLKSOURCE_LSE (*)
1535:Drivers/STM32G4xx_HAL_Driver/Inc/stm32g4xx_ll_rcc.h ****   *         @arg @ref LL_RCC_UART5_CLKSOURCE_PCLK1 (*)
1536:Drivers/STM32G4xx_HAL_Driver/Inc/stm32g4xx_ll_rcc.h ****   *         @arg @ref LL_RCC_UART5_CLKSOURCE_SYSCLK (*)
1537:Drivers/STM32G4xx_HAL_Driver/Inc/stm32g4xx_ll_rcc.h ****   *         @arg @ref LL_RCC_UART5_CLKSOURCE_HSI (*)
1538:Drivers/STM32G4xx_HAL_Driver/Inc/stm32g4xx_ll_rcc.h ****   *         @arg @ref LL_RCC_UART5_CLKSOURCE_LSE (*)
1539:Drivers/STM32G4xx_HAL_Driver/Inc/stm32g4xx_ll_rcc.h ****   *
1540:Drivers/STM32G4xx_HAL_Driver/Inc/stm32g4xx_ll_rcc.h ****   *         (*) value not defined in all devices.
1541:Drivers/STM32G4xx_HAL_Driver/Inc/stm32g4xx_ll_rcc.h ****   * @retval None
1542:Drivers/STM32G4xx_HAL_Driver/Inc/stm32g4xx_ll_rcc.h ****   */
1543:Drivers/STM32G4xx_HAL_Driver/Inc/stm32g4xx_ll_rcc.h **** __STATIC_INLINE void LL_RCC_SetUARTClockSource(uint32_t UARTxSource)
1544:Drivers/STM32G4xx_HAL_Driver/Inc/stm32g4xx_ll_rcc.h **** {
1545:Drivers/STM32G4xx_HAL_Driver/Inc/stm32g4xx_ll_rcc.h ****   MODIFY_REG(RCC->CCIPR, (UARTxSource >> 16U), (UARTxSource & 0x0000FFFFU));
1546:Drivers/STM32G4xx_HAL_Driver/Inc/stm32g4xx_ll_rcc.h **** }
ARM GAS  /tmp/ccweegFn.s 			page 44


1547:Drivers/STM32G4xx_HAL_Driver/Inc/stm32g4xx_ll_rcc.h **** #endif /* UART4 */
1548:Drivers/STM32G4xx_HAL_Driver/Inc/stm32g4xx_ll_rcc.h **** 
1549:Drivers/STM32G4xx_HAL_Driver/Inc/stm32g4xx_ll_rcc.h **** /**
1550:Drivers/STM32G4xx_HAL_Driver/Inc/stm32g4xx_ll_rcc.h ****   * @brief  Configure LPUART1x clock source
1551:Drivers/STM32G4xx_HAL_Driver/Inc/stm32g4xx_ll_rcc.h ****   * @rmtoll CCIPR        LPUART1SEL    LL_RCC_SetLPUARTClockSource
1552:Drivers/STM32G4xx_HAL_Driver/Inc/stm32g4xx_ll_rcc.h ****   * @param  LPUARTxSource This parameter can be one of the following values:
1553:Drivers/STM32G4xx_HAL_Driver/Inc/stm32g4xx_ll_rcc.h ****   *         @arg @ref LL_RCC_LPUART1_CLKSOURCE_PCLK1
1554:Drivers/STM32G4xx_HAL_Driver/Inc/stm32g4xx_ll_rcc.h ****   *         @arg @ref LL_RCC_LPUART1_CLKSOURCE_SYSCLK
1555:Drivers/STM32G4xx_HAL_Driver/Inc/stm32g4xx_ll_rcc.h ****   *         @arg @ref LL_RCC_LPUART1_CLKSOURCE_HSI
1556:Drivers/STM32G4xx_HAL_Driver/Inc/stm32g4xx_ll_rcc.h ****   *         @arg @ref LL_RCC_LPUART1_CLKSOURCE_LSE
1557:Drivers/STM32G4xx_HAL_Driver/Inc/stm32g4xx_ll_rcc.h ****   * @retval None
1558:Drivers/STM32G4xx_HAL_Driver/Inc/stm32g4xx_ll_rcc.h ****   */
1559:Drivers/STM32G4xx_HAL_Driver/Inc/stm32g4xx_ll_rcc.h **** __STATIC_INLINE void LL_RCC_SetLPUARTClockSource(uint32_t LPUARTxSource)
1560:Drivers/STM32G4xx_HAL_Driver/Inc/stm32g4xx_ll_rcc.h **** {
1561:Drivers/STM32G4xx_HAL_Driver/Inc/stm32g4xx_ll_rcc.h ****   MODIFY_REG(RCC->CCIPR, RCC_CCIPR_LPUART1SEL, LPUARTxSource);
1562:Drivers/STM32G4xx_HAL_Driver/Inc/stm32g4xx_ll_rcc.h **** }
1563:Drivers/STM32G4xx_HAL_Driver/Inc/stm32g4xx_ll_rcc.h **** 
1564:Drivers/STM32G4xx_HAL_Driver/Inc/stm32g4xx_ll_rcc.h **** /**
1565:Drivers/STM32G4xx_HAL_Driver/Inc/stm32g4xx_ll_rcc.h ****   * @brief  Configure I2Cx clock source
1566:Drivers/STM32G4xx_HAL_Driver/Inc/stm32g4xx_ll_rcc.h ****   * @rmtoll CCIPR        I2CxSEL       LL_RCC_SetI2CClockSource
1567:Drivers/STM32G4xx_HAL_Driver/Inc/stm32g4xx_ll_rcc.h ****   * @param  I2CxSource This parameter can be one of the following values:
1568:Drivers/STM32G4xx_HAL_Driver/Inc/stm32g4xx_ll_rcc.h ****   *         @arg @ref LL_RCC_I2C1_CLKSOURCE_PCLK1
1569:Drivers/STM32G4xx_HAL_Driver/Inc/stm32g4xx_ll_rcc.h ****   *         @arg @ref LL_RCC_I2C1_CLKSOURCE_SYSCLK
1570:Drivers/STM32G4xx_HAL_Driver/Inc/stm32g4xx_ll_rcc.h ****   *         @arg @ref LL_RCC_I2C1_CLKSOURCE_HSI
1571:Drivers/STM32G4xx_HAL_Driver/Inc/stm32g4xx_ll_rcc.h ****   *         @arg @ref LL_RCC_I2C2_CLKSOURCE_PCLK1
1572:Drivers/STM32G4xx_HAL_Driver/Inc/stm32g4xx_ll_rcc.h ****   *         @arg @ref LL_RCC_I2C2_CLKSOURCE_SYSCLK
1573:Drivers/STM32G4xx_HAL_Driver/Inc/stm32g4xx_ll_rcc.h ****   *         @arg @ref LL_RCC_I2C2_CLKSOURCE_HSI
1574:Drivers/STM32G4xx_HAL_Driver/Inc/stm32g4xx_ll_rcc.h ****   *         @arg @ref LL_RCC_I2C3_CLKSOURCE_PCLK1
1575:Drivers/STM32G4xx_HAL_Driver/Inc/stm32g4xx_ll_rcc.h ****   *         @arg @ref LL_RCC_I2C3_CLKSOURCE_SYSCLK
1576:Drivers/STM32G4xx_HAL_Driver/Inc/stm32g4xx_ll_rcc.h ****   *         @arg @ref LL_RCC_I2C3_CLKSOURCE_HSI
1577:Drivers/STM32G4xx_HAL_Driver/Inc/stm32g4xx_ll_rcc.h ****   *         @arg @ref LL_RCC_I2C4_CLKSOURCE_PCLK1 (*)
1578:Drivers/STM32G4xx_HAL_Driver/Inc/stm32g4xx_ll_rcc.h ****   *         @arg @ref LL_RCC_I2C4_CLKSOURCE_SYSCLK (*)
1579:Drivers/STM32G4xx_HAL_Driver/Inc/stm32g4xx_ll_rcc.h ****   *         @arg @ref LL_RCC_I2C4_CLKSOURCE_HSI (*)
1580:Drivers/STM32G4xx_HAL_Driver/Inc/stm32g4xx_ll_rcc.h ****   *
1581:Drivers/STM32G4xx_HAL_Driver/Inc/stm32g4xx_ll_rcc.h ****   *         (*) value not defined in all devices.
1582:Drivers/STM32G4xx_HAL_Driver/Inc/stm32g4xx_ll_rcc.h ****   * @retval None
1583:Drivers/STM32G4xx_HAL_Driver/Inc/stm32g4xx_ll_rcc.h ****   */
1584:Drivers/STM32G4xx_HAL_Driver/Inc/stm32g4xx_ll_rcc.h **** __STATIC_INLINE void LL_RCC_SetI2CClockSource(uint32_t I2CxSource)
1585:Drivers/STM32G4xx_HAL_Driver/Inc/stm32g4xx_ll_rcc.h **** {
1586:Drivers/STM32G4xx_HAL_Driver/Inc/stm32g4xx_ll_rcc.h ****   __IO uint32_t *reg = (__IO uint32_t *)(uint32_t)(RCC_BASE + 0x88U + (I2CxSource >> 24U));
1587:Drivers/STM32G4xx_HAL_Driver/Inc/stm32g4xx_ll_rcc.h ****   MODIFY_REG(*reg, 3UL << ((I2CxSource & 0x001F0000U) >> 16U), ((I2CxSource & 0x000000FFU) << ((I2C
1588:Drivers/STM32G4xx_HAL_Driver/Inc/stm32g4xx_ll_rcc.h **** }
1589:Drivers/STM32G4xx_HAL_Driver/Inc/stm32g4xx_ll_rcc.h **** 
1590:Drivers/STM32G4xx_HAL_Driver/Inc/stm32g4xx_ll_rcc.h **** /**
1591:Drivers/STM32G4xx_HAL_Driver/Inc/stm32g4xx_ll_rcc.h ****   * @brief  Configure LPTIMx clock source
1592:Drivers/STM32G4xx_HAL_Driver/Inc/stm32g4xx_ll_rcc.h ****   * @rmtoll CCIPR        LPTIM1SEL     LL_RCC_SetLPTIMClockSource
1593:Drivers/STM32G4xx_HAL_Driver/Inc/stm32g4xx_ll_rcc.h ****   * @param  LPTIMxSource This parameter can be one of the following values:
1594:Drivers/STM32G4xx_HAL_Driver/Inc/stm32g4xx_ll_rcc.h ****   *         @arg @ref LL_RCC_LPTIM1_CLKSOURCE_PCLK1
1595:Drivers/STM32G4xx_HAL_Driver/Inc/stm32g4xx_ll_rcc.h ****   *         @arg @ref LL_RCC_LPTIM1_CLKSOURCE_LSI
1596:Drivers/STM32G4xx_HAL_Driver/Inc/stm32g4xx_ll_rcc.h ****   *         @arg @ref LL_RCC_LPTIM1_CLKSOURCE_HSI
1597:Drivers/STM32G4xx_HAL_Driver/Inc/stm32g4xx_ll_rcc.h ****   *         @arg @ref LL_RCC_LPTIM1_CLKSOURCE_LSE
1598:Drivers/STM32G4xx_HAL_Driver/Inc/stm32g4xx_ll_rcc.h ****   * @retval None
1599:Drivers/STM32G4xx_HAL_Driver/Inc/stm32g4xx_ll_rcc.h ****   */
1600:Drivers/STM32G4xx_HAL_Driver/Inc/stm32g4xx_ll_rcc.h **** __STATIC_INLINE void LL_RCC_SetLPTIMClockSource(uint32_t LPTIMxSource)
1601:Drivers/STM32G4xx_HAL_Driver/Inc/stm32g4xx_ll_rcc.h **** {
1602:Drivers/STM32G4xx_HAL_Driver/Inc/stm32g4xx_ll_rcc.h ****   MODIFY_REG(RCC->CCIPR, RCC_CCIPR_LPTIM1SEL, LPTIMxSource);
1603:Drivers/STM32G4xx_HAL_Driver/Inc/stm32g4xx_ll_rcc.h **** }
ARM GAS  /tmp/ccweegFn.s 			page 45


1604:Drivers/STM32G4xx_HAL_Driver/Inc/stm32g4xx_ll_rcc.h **** 
1605:Drivers/STM32G4xx_HAL_Driver/Inc/stm32g4xx_ll_rcc.h **** /**
1606:Drivers/STM32G4xx_HAL_Driver/Inc/stm32g4xx_ll_rcc.h ****   * @brief  Configure SAIx clock source
1607:Drivers/STM32G4xx_HAL_Driver/Inc/stm32g4xx_ll_rcc.h ****   * @rmtoll CCIPR        SAI1SEL       LL_RCC_SetSAIClockSource
1608:Drivers/STM32G4xx_HAL_Driver/Inc/stm32g4xx_ll_rcc.h ****   * @param  SAIxSource This parameter can be one of the following values:
1609:Drivers/STM32G4xx_HAL_Driver/Inc/stm32g4xx_ll_rcc.h ****   *         @arg @ref LL_RCC_SAI1_CLKSOURCE_SYSCLK
1610:Drivers/STM32G4xx_HAL_Driver/Inc/stm32g4xx_ll_rcc.h ****   *         @arg @ref LL_RCC_SAI1_CLKSOURCE_PLL
1611:Drivers/STM32G4xx_HAL_Driver/Inc/stm32g4xx_ll_rcc.h ****   *         @arg @ref LL_RCC_SAI1_CLKSOURCE_PIN
1612:Drivers/STM32G4xx_HAL_Driver/Inc/stm32g4xx_ll_rcc.h ****   *         @arg @ref LL_RCC_SAI1_CLKSOURCE_HSI
1613:Drivers/STM32G4xx_HAL_Driver/Inc/stm32g4xx_ll_rcc.h ****   *
1614:Drivers/STM32G4xx_HAL_Driver/Inc/stm32g4xx_ll_rcc.h ****   *         (*) value not defined in all devices.
1615:Drivers/STM32G4xx_HAL_Driver/Inc/stm32g4xx_ll_rcc.h ****   * @retval None
1616:Drivers/STM32G4xx_HAL_Driver/Inc/stm32g4xx_ll_rcc.h ****   */
1617:Drivers/STM32G4xx_HAL_Driver/Inc/stm32g4xx_ll_rcc.h **** __STATIC_INLINE void LL_RCC_SetSAIClockSource(uint32_t SAIxSource)
1618:Drivers/STM32G4xx_HAL_Driver/Inc/stm32g4xx_ll_rcc.h **** {
1619:Drivers/STM32G4xx_HAL_Driver/Inc/stm32g4xx_ll_rcc.h ****   MODIFY_REG(RCC->CCIPR, RCC_CCIPR_SAI1SEL, SAIxSource);
1620:Drivers/STM32G4xx_HAL_Driver/Inc/stm32g4xx_ll_rcc.h **** }
1621:Drivers/STM32G4xx_HAL_Driver/Inc/stm32g4xx_ll_rcc.h **** 
1622:Drivers/STM32G4xx_HAL_Driver/Inc/stm32g4xx_ll_rcc.h **** /**
1623:Drivers/STM32G4xx_HAL_Driver/Inc/stm32g4xx_ll_rcc.h ****   * @brief  Configure I2S clock source
1624:Drivers/STM32G4xx_HAL_Driver/Inc/stm32g4xx_ll_rcc.h ****   * @rmtoll CCIPR        I2S23SEL      LL_RCC_SetI2SClockSource
1625:Drivers/STM32G4xx_HAL_Driver/Inc/stm32g4xx_ll_rcc.h ****   * @param  I2SxSource This parameter can be one of the following values:
1626:Drivers/STM32G4xx_HAL_Driver/Inc/stm32g4xx_ll_rcc.h ****   *         @arg @ref LL_RCC_I2S_CLKSOURCE_SYSCLK
1627:Drivers/STM32G4xx_HAL_Driver/Inc/stm32g4xx_ll_rcc.h ****   *         @arg @ref LL_RCC_I2S_CLKSOURCE_PLL
1628:Drivers/STM32G4xx_HAL_Driver/Inc/stm32g4xx_ll_rcc.h ****   *         @arg @ref LL_RCC_I2S_CLKSOURCE_PIN
1629:Drivers/STM32G4xx_HAL_Driver/Inc/stm32g4xx_ll_rcc.h ****   *         @arg @ref LL_RCC_I2S_CLKSOURCE_HSI
1630:Drivers/STM32G4xx_HAL_Driver/Inc/stm32g4xx_ll_rcc.h ****   * @retval None
1631:Drivers/STM32G4xx_HAL_Driver/Inc/stm32g4xx_ll_rcc.h ****   */
1632:Drivers/STM32G4xx_HAL_Driver/Inc/stm32g4xx_ll_rcc.h **** __STATIC_INLINE void LL_RCC_SetI2SClockSource(uint32_t I2SxSource)
1633:Drivers/STM32G4xx_HAL_Driver/Inc/stm32g4xx_ll_rcc.h **** {
1634:Drivers/STM32G4xx_HAL_Driver/Inc/stm32g4xx_ll_rcc.h ****   MODIFY_REG(RCC->CCIPR, RCC_CCIPR_I2S23SEL, I2SxSource);
1635:Drivers/STM32G4xx_HAL_Driver/Inc/stm32g4xx_ll_rcc.h **** }
1636:Drivers/STM32G4xx_HAL_Driver/Inc/stm32g4xx_ll_rcc.h **** 
1637:Drivers/STM32G4xx_HAL_Driver/Inc/stm32g4xx_ll_rcc.h **** #if defined(FDCAN1)
1638:Drivers/STM32G4xx_HAL_Driver/Inc/stm32g4xx_ll_rcc.h **** /**
1639:Drivers/STM32G4xx_HAL_Driver/Inc/stm32g4xx_ll_rcc.h ****   * @brief  Configure FDCAN clock source
1640:Drivers/STM32G4xx_HAL_Driver/Inc/stm32g4xx_ll_rcc.h ****   * @rmtoll CCIPR        FDCANSEL      LL_RCC_SetFDCANClockSource
1641:Drivers/STM32G4xx_HAL_Driver/Inc/stm32g4xx_ll_rcc.h ****   * @param  FDCANxSource This parameter can be one of the following values:
1642:Drivers/STM32G4xx_HAL_Driver/Inc/stm32g4xx_ll_rcc.h ****   *         @arg @ref LL_RCC_FDCAN_CLKSOURCE_HSE
1643:Drivers/STM32G4xx_HAL_Driver/Inc/stm32g4xx_ll_rcc.h ****   *         @arg @ref LL_RCC_FDCAN_CLKSOURCE_PLL
1644:Drivers/STM32G4xx_HAL_Driver/Inc/stm32g4xx_ll_rcc.h ****   *         @arg @ref LL_RCC_FDCAN_CLKSOURCE_PCLK1
1645:Drivers/STM32G4xx_HAL_Driver/Inc/stm32g4xx_ll_rcc.h ****   * @retval None
1646:Drivers/STM32G4xx_HAL_Driver/Inc/stm32g4xx_ll_rcc.h ****   */
1647:Drivers/STM32G4xx_HAL_Driver/Inc/stm32g4xx_ll_rcc.h **** __STATIC_INLINE void LL_RCC_SetFDCANClockSource(uint32_t FDCANxSource)
1648:Drivers/STM32G4xx_HAL_Driver/Inc/stm32g4xx_ll_rcc.h **** {
1649:Drivers/STM32G4xx_HAL_Driver/Inc/stm32g4xx_ll_rcc.h ****   MODIFY_REG(RCC->CCIPR, RCC_CCIPR_FDCANSEL, FDCANxSource);
1650:Drivers/STM32G4xx_HAL_Driver/Inc/stm32g4xx_ll_rcc.h **** }
1651:Drivers/STM32G4xx_HAL_Driver/Inc/stm32g4xx_ll_rcc.h **** #endif /* FDCAN1 */
1652:Drivers/STM32G4xx_HAL_Driver/Inc/stm32g4xx_ll_rcc.h **** 
1653:Drivers/STM32G4xx_HAL_Driver/Inc/stm32g4xx_ll_rcc.h **** /**
1654:Drivers/STM32G4xx_HAL_Driver/Inc/stm32g4xx_ll_rcc.h ****   * @brief  Configure RNG clock source
1655:Drivers/STM32G4xx_HAL_Driver/Inc/stm32g4xx_ll_rcc.h ****   * @rmtoll CCIPR        CLK48SEL      LL_RCC_SetRNGClockSource
1656:Drivers/STM32G4xx_HAL_Driver/Inc/stm32g4xx_ll_rcc.h ****   * @param  RNGxSource This parameter can be one of the following values:
1657:Drivers/STM32G4xx_HAL_Driver/Inc/stm32g4xx_ll_rcc.h ****   *         @arg @ref LL_RCC_RNG_CLKSOURCE_HSI48
1658:Drivers/STM32G4xx_HAL_Driver/Inc/stm32g4xx_ll_rcc.h ****   *         @arg @ref LL_RCC_RNG_CLKSOURCE_PLL
1659:Drivers/STM32G4xx_HAL_Driver/Inc/stm32g4xx_ll_rcc.h ****   * @retval None
1660:Drivers/STM32G4xx_HAL_Driver/Inc/stm32g4xx_ll_rcc.h ****   */
ARM GAS  /tmp/ccweegFn.s 			page 46


1661:Drivers/STM32G4xx_HAL_Driver/Inc/stm32g4xx_ll_rcc.h **** __STATIC_INLINE void LL_RCC_SetRNGClockSource(uint32_t RNGxSource)
1662:Drivers/STM32G4xx_HAL_Driver/Inc/stm32g4xx_ll_rcc.h **** {
1663:Drivers/STM32G4xx_HAL_Driver/Inc/stm32g4xx_ll_rcc.h ****   MODIFY_REG(RCC->CCIPR, RCC_CCIPR_CLK48SEL, RNGxSource);
1664:Drivers/STM32G4xx_HAL_Driver/Inc/stm32g4xx_ll_rcc.h **** }
1665:Drivers/STM32G4xx_HAL_Driver/Inc/stm32g4xx_ll_rcc.h **** 
1666:Drivers/STM32G4xx_HAL_Driver/Inc/stm32g4xx_ll_rcc.h **** /**
1667:Drivers/STM32G4xx_HAL_Driver/Inc/stm32g4xx_ll_rcc.h ****   * @brief  Configure USB clock source
1668:Drivers/STM32G4xx_HAL_Driver/Inc/stm32g4xx_ll_rcc.h ****   * @rmtoll CCIPR        CLK48SEL      LL_RCC_SetUSBClockSource
1669:Drivers/STM32G4xx_HAL_Driver/Inc/stm32g4xx_ll_rcc.h ****   * @param  USBxSource This parameter can be one of the following values:
1670:Drivers/STM32G4xx_HAL_Driver/Inc/stm32g4xx_ll_rcc.h ****   *         @arg @ref LL_RCC_USB_CLKSOURCE_HSI48
1671:Drivers/STM32G4xx_HAL_Driver/Inc/stm32g4xx_ll_rcc.h ****   *         @arg @ref LL_RCC_USB_CLKSOURCE_PLL
1672:Drivers/STM32G4xx_HAL_Driver/Inc/stm32g4xx_ll_rcc.h ****   * @retval None
1673:Drivers/STM32G4xx_HAL_Driver/Inc/stm32g4xx_ll_rcc.h ****   */
1674:Drivers/STM32G4xx_HAL_Driver/Inc/stm32g4xx_ll_rcc.h **** __STATIC_INLINE void LL_RCC_SetUSBClockSource(uint32_t USBxSource)
1675:Drivers/STM32G4xx_HAL_Driver/Inc/stm32g4xx_ll_rcc.h **** {
1676:Drivers/STM32G4xx_HAL_Driver/Inc/stm32g4xx_ll_rcc.h ****   MODIFY_REG(RCC->CCIPR, RCC_CCIPR_CLK48SEL, USBxSource);
1677:Drivers/STM32G4xx_HAL_Driver/Inc/stm32g4xx_ll_rcc.h **** }
1678:Drivers/STM32G4xx_HAL_Driver/Inc/stm32g4xx_ll_rcc.h **** 
1679:Drivers/STM32G4xx_HAL_Driver/Inc/stm32g4xx_ll_rcc.h **** /**
1680:Drivers/STM32G4xx_HAL_Driver/Inc/stm32g4xx_ll_rcc.h ****   * @brief  Configure ADC clock source
1681:Drivers/STM32G4xx_HAL_Driver/Inc/stm32g4xx_ll_rcc.h ****   * @rmtoll CCIPR        ADC12SEL         LL_RCC_SetADCClockSource\n
1682:Drivers/STM32G4xx_HAL_Driver/Inc/stm32g4xx_ll_rcc.h ****   *         CCIPR        ADC345SEL        LL_RCC_SetADCClockSource
1683:Drivers/STM32G4xx_HAL_Driver/Inc/stm32g4xx_ll_rcc.h ****   * @param  ADCxSource This parameter can be one of the following values:
1684:Drivers/STM32G4xx_HAL_Driver/Inc/stm32g4xx_ll_rcc.h ****   *         @arg @ref LL_RCC_ADC12_CLKSOURCE_NONE
1685:Drivers/STM32G4xx_HAL_Driver/Inc/stm32g4xx_ll_rcc.h ****   *         @arg @ref LL_RCC_ADC12_CLKSOURCE_PLL
1686:Drivers/STM32G4xx_HAL_Driver/Inc/stm32g4xx_ll_rcc.h ****   *         @arg @ref LL_RCC_ADC12_CLKSOURCE_SYSCLK
1687:Drivers/STM32G4xx_HAL_Driver/Inc/stm32g4xx_ll_rcc.h ****   *         @arg @ref LL_RCC_ADC345_CLKSOURCE_NONE   (*)
1688:Drivers/STM32G4xx_HAL_Driver/Inc/stm32g4xx_ll_rcc.h ****   *         @arg @ref LL_RCC_ADC345_CLKSOURCE_PLL    (*)
1689:Drivers/STM32G4xx_HAL_Driver/Inc/stm32g4xx_ll_rcc.h ****   *         @arg @ref LL_RCC_ADC345_CLKSOURCE_SYSCLK (*)
1690:Drivers/STM32G4xx_HAL_Driver/Inc/stm32g4xx_ll_rcc.h ****   *
1691:Drivers/STM32G4xx_HAL_Driver/Inc/stm32g4xx_ll_rcc.h ****   *         (*) value not defined in all devices.
1692:Drivers/STM32G4xx_HAL_Driver/Inc/stm32g4xx_ll_rcc.h ****   * @retval None
1693:Drivers/STM32G4xx_HAL_Driver/Inc/stm32g4xx_ll_rcc.h ****   */
1694:Drivers/STM32G4xx_HAL_Driver/Inc/stm32g4xx_ll_rcc.h **** __STATIC_INLINE void LL_RCC_SetADCClockSource(uint32_t ADCxSource)
1695:Drivers/STM32G4xx_HAL_Driver/Inc/stm32g4xx_ll_rcc.h **** {
1696:Drivers/STM32G4xx_HAL_Driver/Inc/stm32g4xx_ll_rcc.h ****   MODIFY_REG(RCC->CCIPR, 3U << ((ADCxSource & 0x001F0000U) >> 16U), ((ADCxSource & 0x000000FFU) << 
1697:Drivers/STM32G4xx_HAL_Driver/Inc/stm32g4xx_ll_rcc.h **** }
1698:Drivers/STM32G4xx_HAL_Driver/Inc/stm32g4xx_ll_rcc.h **** 
1699:Drivers/STM32G4xx_HAL_Driver/Inc/stm32g4xx_ll_rcc.h **** #if defined(QUADSPI)
1700:Drivers/STM32G4xx_HAL_Driver/Inc/stm32g4xx_ll_rcc.h **** /**
1701:Drivers/STM32G4xx_HAL_Driver/Inc/stm32g4xx_ll_rcc.h ****   * @brief  Configure QUADSPI clock source
1702:Drivers/STM32G4xx_HAL_Driver/Inc/stm32g4xx_ll_rcc.h ****   * @rmtoll CCIPR2         QSPISEL     LL_RCC_SetQUADSPIClockSource
1703:Drivers/STM32G4xx_HAL_Driver/Inc/stm32g4xx_ll_rcc.h ****   * @param  Source This parameter can be one of the following values:
1704:Drivers/STM32G4xx_HAL_Driver/Inc/stm32g4xx_ll_rcc.h ****   *         @arg @ref LL_RCC_QUADSPI_CLKSOURCE_SYSCLK
1705:Drivers/STM32G4xx_HAL_Driver/Inc/stm32g4xx_ll_rcc.h ****   *         @arg @ref LL_RCC_QUADSPI_CLKSOURCE_HSI
1706:Drivers/STM32G4xx_HAL_Driver/Inc/stm32g4xx_ll_rcc.h ****   *         @arg @ref LL_RCC_QUADSPI_CLKSOURCE_PLL
1707:Drivers/STM32G4xx_HAL_Driver/Inc/stm32g4xx_ll_rcc.h ****   * @retval None
1708:Drivers/STM32G4xx_HAL_Driver/Inc/stm32g4xx_ll_rcc.h ****   */
1709:Drivers/STM32G4xx_HAL_Driver/Inc/stm32g4xx_ll_rcc.h **** __STATIC_INLINE void LL_RCC_SetQUADSPIClockSource(uint32_t Source)
1710:Drivers/STM32G4xx_HAL_Driver/Inc/stm32g4xx_ll_rcc.h **** {
1711:Drivers/STM32G4xx_HAL_Driver/Inc/stm32g4xx_ll_rcc.h ****   MODIFY_REG(RCC->CCIPR2, RCC_CCIPR2_QSPISEL, Source);
1712:Drivers/STM32G4xx_HAL_Driver/Inc/stm32g4xx_ll_rcc.h **** }
1713:Drivers/STM32G4xx_HAL_Driver/Inc/stm32g4xx_ll_rcc.h **** #endif /* QUADSPI */
1714:Drivers/STM32G4xx_HAL_Driver/Inc/stm32g4xx_ll_rcc.h **** 
1715:Drivers/STM32G4xx_HAL_Driver/Inc/stm32g4xx_ll_rcc.h **** /**
1716:Drivers/STM32G4xx_HAL_Driver/Inc/stm32g4xx_ll_rcc.h ****   * @brief  Get USARTx clock source
1717:Drivers/STM32G4xx_HAL_Driver/Inc/stm32g4xx_ll_rcc.h ****   * @rmtoll CCIPR        USARTxSEL     LL_RCC_GetUSARTClockSource
ARM GAS  /tmp/ccweegFn.s 			page 47


1718:Drivers/STM32G4xx_HAL_Driver/Inc/stm32g4xx_ll_rcc.h ****   * @param  USARTx This parameter can be one of the following values:
1719:Drivers/STM32G4xx_HAL_Driver/Inc/stm32g4xx_ll_rcc.h ****   *         @arg @ref LL_RCC_USART1_CLKSOURCE
1720:Drivers/STM32G4xx_HAL_Driver/Inc/stm32g4xx_ll_rcc.h ****   *         @arg @ref LL_RCC_USART2_CLKSOURCE
1721:Drivers/STM32G4xx_HAL_Driver/Inc/stm32g4xx_ll_rcc.h ****   *         @arg @ref LL_RCC_USART3_CLKSOURCE
1722:Drivers/STM32G4xx_HAL_Driver/Inc/stm32g4xx_ll_rcc.h ****   * @retval Returned value can be one of the following values:
1723:Drivers/STM32G4xx_HAL_Driver/Inc/stm32g4xx_ll_rcc.h ****   *         @arg @ref LL_RCC_USART1_CLKSOURCE_PCLK2
1724:Drivers/STM32G4xx_HAL_Driver/Inc/stm32g4xx_ll_rcc.h ****   *         @arg @ref LL_RCC_USART1_CLKSOURCE_SYSCLK
1725:Drivers/STM32G4xx_HAL_Driver/Inc/stm32g4xx_ll_rcc.h ****   *         @arg @ref LL_RCC_USART1_CLKSOURCE_HSI
1726:Drivers/STM32G4xx_HAL_Driver/Inc/stm32g4xx_ll_rcc.h ****   *         @arg @ref LL_RCC_USART1_CLKSOURCE_LSE
1727:Drivers/STM32G4xx_HAL_Driver/Inc/stm32g4xx_ll_rcc.h ****   *         @arg @ref LL_RCC_USART2_CLKSOURCE_PCLK1
1728:Drivers/STM32G4xx_HAL_Driver/Inc/stm32g4xx_ll_rcc.h ****   *         @arg @ref LL_RCC_USART2_CLKSOURCE_SYSCLK
1729:Drivers/STM32G4xx_HAL_Driver/Inc/stm32g4xx_ll_rcc.h ****   *         @arg @ref LL_RCC_USART2_CLKSOURCE_HSI
1730:Drivers/STM32G4xx_HAL_Driver/Inc/stm32g4xx_ll_rcc.h ****   *         @arg @ref LL_RCC_USART2_CLKSOURCE_LSE
1731:Drivers/STM32G4xx_HAL_Driver/Inc/stm32g4xx_ll_rcc.h ****   *         @arg @ref LL_RCC_USART3_CLKSOURCE_PCLK1
1732:Drivers/STM32G4xx_HAL_Driver/Inc/stm32g4xx_ll_rcc.h ****   *         @arg @ref LL_RCC_USART3_CLKSOURCE_SYSCLK
1733:Drivers/STM32G4xx_HAL_Driver/Inc/stm32g4xx_ll_rcc.h ****   *         @arg @ref LL_RCC_USART3_CLKSOURCE_HSI
1734:Drivers/STM32G4xx_HAL_Driver/Inc/stm32g4xx_ll_rcc.h ****   *         @arg @ref LL_RCC_USART3_CLKSOURCE_LSE
1735:Drivers/STM32G4xx_HAL_Driver/Inc/stm32g4xx_ll_rcc.h ****   */
1736:Drivers/STM32G4xx_HAL_Driver/Inc/stm32g4xx_ll_rcc.h **** __STATIC_INLINE uint32_t LL_RCC_GetUSARTClockSource(uint32_t USARTx)
1737:Drivers/STM32G4xx_HAL_Driver/Inc/stm32g4xx_ll_rcc.h **** {
1738:Drivers/STM32G4xx_HAL_Driver/Inc/stm32g4xx_ll_rcc.h ****   return (uint32_t)(READ_BIT(RCC->CCIPR, USARTx) | (USARTx << 16U));
1739:Drivers/STM32G4xx_HAL_Driver/Inc/stm32g4xx_ll_rcc.h **** }
1740:Drivers/STM32G4xx_HAL_Driver/Inc/stm32g4xx_ll_rcc.h **** 
1741:Drivers/STM32G4xx_HAL_Driver/Inc/stm32g4xx_ll_rcc.h **** #if defined(UART4)
1742:Drivers/STM32G4xx_HAL_Driver/Inc/stm32g4xx_ll_rcc.h **** /**
1743:Drivers/STM32G4xx_HAL_Driver/Inc/stm32g4xx_ll_rcc.h ****   * @brief  Get UARTx clock source
1744:Drivers/STM32G4xx_HAL_Driver/Inc/stm32g4xx_ll_rcc.h ****   * @rmtoll CCIPR        UARTxSEL      LL_RCC_GetUARTClockSource
1745:Drivers/STM32G4xx_HAL_Driver/Inc/stm32g4xx_ll_rcc.h ****   * @param  UARTx This parameter can be one of the following values:
1746:Drivers/STM32G4xx_HAL_Driver/Inc/stm32g4xx_ll_rcc.h ****   *         @arg @ref LL_RCC_UART4_CLKSOURCE (*)
1747:Drivers/STM32G4xx_HAL_Driver/Inc/stm32g4xx_ll_rcc.h ****   *         @arg @ref LL_RCC_UART5_CLKSOURCE (*)
1748:Drivers/STM32G4xx_HAL_Driver/Inc/stm32g4xx_ll_rcc.h ****   * @retval Returned value can be one of the following values:
1749:Drivers/STM32G4xx_HAL_Driver/Inc/stm32g4xx_ll_rcc.h ****   *         @arg @ref LL_RCC_UART4_CLKSOURCE_PCLK1 (*)
1750:Drivers/STM32G4xx_HAL_Driver/Inc/stm32g4xx_ll_rcc.h ****   *         @arg @ref LL_RCC_UART4_CLKSOURCE_SYSCLK (*)
1751:Drivers/STM32G4xx_HAL_Driver/Inc/stm32g4xx_ll_rcc.h ****   *         @arg @ref LL_RCC_UART4_CLKSOURCE_HSI (*)
1752:Drivers/STM32G4xx_HAL_Driver/Inc/stm32g4xx_ll_rcc.h ****   *         @arg @ref LL_RCC_UART4_CLKSOURCE_LSE (*)
1753:Drivers/STM32G4xx_HAL_Driver/Inc/stm32g4xx_ll_rcc.h ****   *         @arg @ref LL_RCC_UART5_CLKSOURCE_PCLK1 (*)
1754:Drivers/STM32G4xx_HAL_Driver/Inc/stm32g4xx_ll_rcc.h ****   *         @arg @ref LL_RCC_UART5_CLKSOURCE_SYSCLK (*)
1755:Drivers/STM32G4xx_HAL_Driver/Inc/stm32g4xx_ll_rcc.h ****   *         @arg @ref LL_RCC_UART5_CLKSOURCE_HSI (*)
1756:Drivers/STM32G4xx_HAL_Driver/Inc/stm32g4xx_ll_rcc.h ****   *         @arg @ref LL_RCC_UART5_CLKSOURCE_LSE (*)
1757:Drivers/STM32G4xx_HAL_Driver/Inc/stm32g4xx_ll_rcc.h ****   *
1758:Drivers/STM32G4xx_HAL_Driver/Inc/stm32g4xx_ll_rcc.h ****   *         (*) value not defined in all devices.
1759:Drivers/STM32G4xx_HAL_Driver/Inc/stm32g4xx_ll_rcc.h ****   */
1760:Drivers/STM32G4xx_HAL_Driver/Inc/stm32g4xx_ll_rcc.h **** __STATIC_INLINE uint32_t LL_RCC_GetUARTClockSource(uint32_t UARTx)
1761:Drivers/STM32G4xx_HAL_Driver/Inc/stm32g4xx_ll_rcc.h **** {
1762:Drivers/STM32G4xx_HAL_Driver/Inc/stm32g4xx_ll_rcc.h ****   return (uint32_t)(READ_BIT(RCC->CCIPR, UARTx) | (UARTx << 16U));
1763:Drivers/STM32G4xx_HAL_Driver/Inc/stm32g4xx_ll_rcc.h **** }
1764:Drivers/STM32G4xx_HAL_Driver/Inc/stm32g4xx_ll_rcc.h **** #endif /* UART4 */
1765:Drivers/STM32G4xx_HAL_Driver/Inc/stm32g4xx_ll_rcc.h **** 
1766:Drivers/STM32G4xx_HAL_Driver/Inc/stm32g4xx_ll_rcc.h **** /**
1767:Drivers/STM32G4xx_HAL_Driver/Inc/stm32g4xx_ll_rcc.h ****   * @brief  Get LPUARTx clock source
1768:Drivers/STM32G4xx_HAL_Driver/Inc/stm32g4xx_ll_rcc.h ****   * @rmtoll CCIPR        LPUART1SEL    LL_RCC_GetLPUARTClockSource
1769:Drivers/STM32G4xx_HAL_Driver/Inc/stm32g4xx_ll_rcc.h ****   * @param  LPUARTx This parameter can be one of the following values:
1770:Drivers/STM32G4xx_HAL_Driver/Inc/stm32g4xx_ll_rcc.h ****   *         @arg @ref LL_RCC_LPUART1_CLKSOURCE
1771:Drivers/STM32G4xx_HAL_Driver/Inc/stm32g4xx_ll_rcc.h ****   * @retval Returned value can be one of the following values:
1772:Drivers/STM32G4xx_HAL_Driver/Inc/stm32g4xx_ll_rcc.h ****   *         @arg @ref LL_RCC_LPUART1_CLKSOURCE_PCLK1
1773:Drivers/STM32G4xx_HAL_Driver/Inc/stm32g4xx_ll_rcc.h ****   *         @arg @ref LL_RCC_LPUART1_CLKSOURCE_SYSCLK
1774:Drivers/STM32G4xx_HAL_Driver/Inc/stm32g4xx_ll_rcc.h ****   *         @arg @ref LL_RCC_LPUART1_CLKSOURCE_HSI
ARM GAS  /tmp/ccweegFn.s 			page 48


1775:Drivers/STM32G4xx_HAL_Driver/Inc/stm32g4xx_ll_rcc.h ****   *         @arg @ref LL_RCC_LPUART1_CLKSOURCE_LSE
1776:Drivers/STM32G4xx_HAL_Driver/Inc/stm32g4xx_ll_rcc.h ****   */
1777:Drivers/STM32G4xx_HAL_Driver/Inc/stm32g4xx_ll_rcc.h **** __STATIC_INLINE uint32_t LL_RCC_GetLPUARTClockSource(uint32_t LPUARTx)
1778:Drivers/STM32G4xx_HAL_Driver/Inc/stm32g4xx_ll_rcc.h **** {
1779:Drivers/STM32G4xx_HAL_Driver/Inc/stm32g4xx_ll_rcc.h ****   return (uint32_t)(READ_BIT(RCC->CCIPR, LPUARTx));
1780:Drivers/STM32G4xx_HAL_Driver/Inc/stm32g4xx_ll_rcc.h **** }
1781:Drivers/STM32G4xx_HAL_Driver/Inc/stm32g4xx_ll_rcc.h **** 
1782:Drivers/STM32G4xx_HAL_Driver/Inc/stm32g4xx_ll_rcc.h **** /**
1783:Drivers/STM32G4xx_HAL_Driver/Inc/stm32g4xx_ll_rcc.h ****   * @brief  Get I2Cx clock source
1784:Drivers/STM32G4xx_HAL_Driver/Inc/stm32g4xx_ll_rcc.h ****   * @rmtoll CCIPR        I2CxSEL       LL_RCC_GetI2CClockSource
1785:Drivers/STM32G4xx_HAL_Driver/Inc/stm32g4xx_ll_rcc.h ****   * @param  I2Cx This parameter can be one of the following values:
1786:Drivers/STM32G4xx_HAL_Driver/Inc/stm32g4xx_ll_rcc.h ****   *         @arg @ref LL_RCC_I2C1_CLKSOURCE
1787:Drivers/STM32G4xx_HAL_Driver/Inc/stm32g4xx_ll_rcc.h ****   *         @arg @ref LL_RCC_I2C2_CLKSOURCE
1788:Drivers/STM32G4xx_HAL_Driver/Inc/stm32g4xx_ll_rcc.h ****   *         @arg @ref LL_RCC_I2C3_CLKSOURCE
1789:Drivers/STM32G4xx_HAL_Driver/Inc/stm32g4xx_ll_rcc.h ****   *         @arg @ref LL_RCC_I2C4_CLKSOURCE (*)
1790:Drivers/STM32G4xx_HAL_Driver/Inc/stm32g4xx_ll_rcc.h ****   *
1791:Drivers/STM32G4xx_HAL_Driver/Inc/stm32g4xx_ll_rcc.h ****   *         (*) value not defined in all devices.
1792:Drivers/STM32G4xx_HAL_Driver/Inc/stm32g4xx_ll_rcc.h ****   * @retval Returned value can be one of the following values:
1793:Drivers/STM32G4xx_HAL_Driver/Inc/stm32g4xx_ll_rcc.h ****   *         @arg @ref LL_RCC_I2C1_CLKSOURCE_PCLK1
1794:Drivers/STM32G4xx_HAL_Driver/Inc/stm32g4xx_ll_rcc.h ****   *         @arg @ref LL_RCC_I2C1_CLKSOURCE_SYSCLK
1795:Drivers/STM32G4xx_HAL_Driver/Inc/stm32g4xx_ll_rcc.h ****   *         @arg @ref LL_RCC_I2C1_CLKSOURCE_HSI
1796:Drivers/STM32G4xx_HAL_Driver/Inc/stm32g4xx_ll_rcc.h ****   *         @arg @ref LL_RCC_I2C2_CLKSOURCE_PCLK1
1797:Drivers/STM32G4xx_HAL_Driver/Inc/stm32g4xx_ll_rcc.h ****   *         @arg @ref LL_RCC_I2C2_CLKSOURCE_SYSCLK
1798:Drivers/STM32G4xx_HAL_Driver/Inc/stm32g4xx_ll_rcc.h ****   *         @arg @ref LL_RCC_I2C2_CLKSOURCE_HSI
1799:Drivers/STM32G4xx_HAL_Driver/Inc/stm32g4xx_ll_rcc.h ****   *         @arg @ref LL_RCC_I2C3_CLKSOURCE_PCLK1
1800:Drivers/STM32G4xx_HAL_Driver/Inc/stm32g4xx_ll_rcc.h ****   *         @arg @ref LL_RCC_I2C3_CLKSOURCE_SYSCLK
1801:Drivers/STM32G4xx_HAL_Driver/Inc/stm32g4xx_ll_rcc.h ****   *         @arg @ref LL_RCC_I2C3_CLKSOURCE_HSI
1802:Drivers/STM32G4xx_HAL_Driver/Inc/stm32g4xx_ll_rcc.h ****   *         @arg @ref LL_RCC_I2C4_CLKSOURCE_PCLK1 (*)
1803:Drivers/STM32G4xx_HAL_Driver/Inc/stm32g4xx_ll_rcc.h ****   *         @arg @ref LL_RCC_I2C4_CLKSOURCE_SYSCLK (*)
1804:Drivers/STM32G4xx_HAL_Driver/Inc/stm32g4xx_ll_rcc.h ****   *         @arg @ref LL_RCC_I2C4_CLKSOURCE_HSI (*)
1805:Drivers/STM32G4xx_HAL_Driver/Inc/stm32g4xx_ll_rcc.h ****   *
1806:Drivers/STM32G4xx_HAL_Driver/Inc/stm32g4xx_ll_rcc.h ****   *         (*) value not defined in all devices.
1807:Drivers/STM32G4xx_HAL_Driver/Inc/stm32g4xx_ll_rcc.h ****  */
1808:Drivers/STM32G4xx_HAL_Driver/Inc/stm32g4xx_ll_rcc.h **** __STATIC_INLINE uint32_t LL_RCC_GetI2CClockSource(uint32_t I2Cx)
1809:Drivers/STM32G4xx_HAL_Driver/Inc/stm32g4xx_ll_rcc.h **** {
1810:Drivers/STM32G4xx_HAL_Driver/Inc/stm32g4xx_ll_rcc.h ****   __IO const uint32_t *reg = (__IO uint32_t *)(uint32_t)(RCC_BASE + 0x88U + (I2Cx >> 24U));
1811:Drivers/STM32G4xx_HAL_Driver/Inc/stm32g4xx_ll_rcc.h ****   return (uint32_t)((READ_BIT(*reg, 3UL << ((I2Cx & 0x001F0000U) >> 16U)) >> ((I2Cx & 0x001F0000U) 
1812:Drivers/STM32G4xx_HAL_Driver/Inc/stm32g4xx_ll_rcc.h **** }
1813:Drivers/STM32G4xx_HAL_Driver/Inc/stm32g4xx_ll_rcc.h **** 
1814:Drivers/STM32G4xx_HAL_Driver/Inc/stm32g4xx_ll_rcc.h **** /**
1815:Drivers/STM32G4xx_HAL_Driver/Inc/stm32g4xx_ll_rcc.h ****   * @brief  Get LPTIMx clock source
1816:Drivers/STM32G4xx_HAL_Driver/Inc/stm32g4xx_ll_rcc.h ****   * @rmtoll CCIPR        LPTIMxSEL     LL_RCC_GetLPTIMClockSource
1817:Drivers/STM32G4xx_HAL_Driver/Inc/stm32g4xx_ll_rcc.h ****   * @param  LPTIMx This parameter can be one of the following values:
1818:Drivers/STM32G4xx_HAL_Driver/Inc/stm32g4xx_ll_rcc.h ****   *         @arg @ref LL_RCC_LPTIM1_CLKSOURCE
1819:Drivers/STM32G4xx_HAL_Driver/Inc/stm32g4xx_ll_rcc.h ****   * @retval Returned value can be one of the following values:
1820:Drivers/STM32G4xx_HAL_Driver/Inc/stm32g4xx_ll_rcc.h ****   *         @arg @ref LL_RCC_LPTIM1_CLKSOURCE_PCLK1
1821:Drivers/STM32G4xx_HAL_Driver/Inc/stm32g4xx_ll_rcc.h ****   *         @arg @ref LL_RCC_LPTIM1_CLKSOURCE_LSI
1822:Drivers/STM32G4xx_HAL_Driver/Inc/stm32g4xx_ll_rcc.h ****   *         @arg @ref LL_RCC_LPTIM1_CLKSOURCE_HSI
1823:Drivers/STM32G4xx_HAL_Driver/Inc/stm32g4xx_ll_rcc.h ****   *         @arg @ref LL_RCC_LPTIM1_CLKSOURCE_LSE
1824:Drivers/STM32G4xx_HAL_Driver/Inc/stm32g4xx_ll_rcc.h ****   */
1825:Drivers/STM32G4xx_HAL_Driver/Inc/stm32g4xx_ll_rcc.h **** __STATIC_INLINE uint32_t LL_RCC_GetLPTIMClockSource(uint32_t LPTIMx)
1826:Drivers/STM32G4xx_HAL_Driver/Inc/stm32g4xx_ll_rcc.h **** {
1827:Drivers/STM32G4xx_HAL_Driver/Inc/stm32g4xx_ll_rcc.h ****   return (uint32_t)(READ_BIT(RCC->CCIPR, LPTIMx));
1828:Drivers/STM32G4xx_HAL_Driver/Inc/stm32g4xx_ll_rcc.h **** }
1829:Drivers/STM32G4xx_HAL_Driver/Inc/stm32g4xx_ll_rcc.h **** 
1830:Drivers/STM32G4xx_HAL_Driver/Inc/stm32g4xx_ll_rcc.h **** /**
1831:Drivers/STM32G4xx_HAL_Driver/Inc/stm32g4xx_ll_rcc.h ****   * @brief  Get SAIx clock source
ARM GAS  /tmp/ccweegFn.s 			page 49


1832:Drivers/STM32G4xx_HAL_Driver/Inc/stm32g4xx_ll_rcc.h ****   * @rmtoll CCIPR        SAI1SEL       LL_RCC_GetSAIClockSource
1833:Drivers/STM32G4xx_HAL_Driver/Inc/stm32g4xx_ll_rcc.h ****   * @param  SAIx This parameter can be one of the following values:
1834:Drivers/STM32G4xx_HAL_Driver/Inc/stm32g4xx_ll_rcc.h ****   *         @arg @ref LL_RCC_SAI1_CLKSOURCE
1835:Drivers/STM32G4xx_HAL_Driver/Inc/stm32g4xx_ll_rcc.h ****   *
1836:Drivers/STM32G4xx_HAL_Driver/Inc/stm32g4xx_ll_rcc.h ****   *         (*) value not defined in all devices.
1837:Drivers/STM32G4xx_HAL_Driver/Inc/stm32g4xx_ll_rcc.h ****   * @retval Returned value can be one of the following values:
1838:Drivers/STM32G4xx_HAL_Driver/Inc/stm32g4xx_ll_rcc.h ****   *         @arg @ref LL_RCC_SAI1_CLKSOURCE_SYSCLK
1839:Drivers/STM32G4xx_HAL_Driver/Inc/stm32g4xx_ll_rcc.h ****   *         @arg @ref LL_RCC_SAI1_CLKSOURCE_PLL
1840:Drivers/STM32G4xx_HAL_Driver/Inc/stm32g4xx_ll_rcc.h ****   *         @arg @ref LL_RCC_SAI1_CLKSOURCE_PIN
1841:Drivers/STM32G4xx_HAL_Driver/Inc/stm32g4xx_ll_rcc.h ****   *         @arg @ref LL_RCC_SAI1_CLKSOURCE_HSI
1842:Drivers/STM32G4xx_HAL_Driver/Inc/stm32g4xx_ll_rcc.h ****   *
1843:Drivers/STM32G4xx_HAL_Driver/Inc/stm32g4xx_ll_rcc.h ****   *         (*) value not defined in all devices.
1844:Drivers/STM32G4xx_HAL_Driver/Inc/stm32g4xx_ll_rcc.h ****   */
1845:Drivers/STM32G4xx_HAL_Driver/Inc/stm32g4xx_ll_rcc.h **** __STATIC_INLINE uint32_t LL_RCC_GetSAIClockSource(uint32_t SAIx)
1846:Drivers/STM32G4xx_HAL_Driver/Inc/stm32g4xx_ll_rcc.h **** {
1847:Drivers/STM32G4xx_HAL_Driver/Inc/stm32g4xx_ll_rcc.h ****   return (uint32_t)(READ_BIT(RCC->CCIPR, SAIx));
1848:Drivers/STM32G4xx_HAL_Driver/Inc/stm32g4xx_ll_rcc.h **** }
1849:Drivers/STM32G4xx_HAL_Driver/Inc/stm32g4xx_ll_rcc.h **** 
1850:Drivers/STM32G4xx_HAL_Driver/Inc/stm32g4xx_ll_rcc.h **** /**
1851:Drivers/STM32G4xx_HAL_Driver/Inc/stm32g4xx_ll_rcc.h ****   * @brief  Get I2Sx clock source
1852:Drivers/STM32G4xx_HAL_Driver/Inc/stm32g4xx_ll_rcc.h ****   * @rmtoll CCIPR        I2S23SEL      LL_RCC_GetI2SClockSource
1853:Drivers/STM32G4xx_HAL_Driver/Inc/stm32g4xx_ll_rcc.h ****   * @param  I2Sx This parameter can be one of the following values:
1854:Drivers/STM32G4xx_HAL_Driver/Inc/stm32g4xx_ll_rcc.h ****   *         @arg @ref LL_RCC_I2S_CLKSOURCE
1855:Drivers/STM32G4xx_HAL_Driver/Inc/stm32g4xx_ll_rcc.h ****   * @retval Returned value can be one of the following values:
1856:Drivers/STM32G4xx_HAL_Driver/Inc/stm32g4xx_ll_rcc.h ****   *         @arg @ref LL_RCC_I2S_CLKSOURCE_SYSCLK
1857:Drivers/STM32G4xx_HAL_Driver/Inc/stm32g4xx_ll_rcc.h ****   *         @arg @ref LL_RCC_I2S_CLKSOURCE_PLL
1858:Drivers/STM32G4xx_HAL_Driver/Inc/stm32g4xx_ll_rcc.h ****   *         @arg @ref LL_RCC_I2S_CLKSOURCE_PIN
1859:Drivers/STM32G4xx_HAL_Driver/Inc/stm32g4xx_ll_rcc.h ****   *         @arg @ref LL_RCC_I2S_CLKSOURCE_HSI
1860:Drivers/STM32G4xx_HAL_Driver/Inc/stm32g4xx_ll_rcc.h ****   */
1861:Drivers/STM32G4xx_HAL_Driver/Inc/stm32g4xx_ll_rcc.h **** __STATIC_INLINE uint32_t LL_RCC_GetI2SClockSource(uint32_t I2Sx)
1862:Drivers/STM32G4xx_HAL_Driver/Inc/stm32g4xx_ll_rcc.h **** {
1863:Drivers/STM32G4xx_HAL_Driver/Inc/stm32g4xx_ll_rcc.h ****   return (uint32_t)(READ_BIT(RCC->CCIPR, I2Sx));
1864:Drivers/STM32G4xx_HAL_Driver/Inc/stm32g4xx_ll_rcc.h **** }
1865:Drivers/STM32G4xx_HAL_Driver/Inc/stm32g4xx_ll_rcc.h **** 
1866:Drivers/STM32G4xx_HAL_Driver/Inc/stm32g4xx_ll_rcc.h **** #if defined(FDCAN1)
1867:Drivers/STM32G4xx_HAL_Driver/Inc/stm32g4xx_ll_rcc.h **** /**
1868:Drivers/STM32G4xx_HAL_Driver/Inc/stm32g4xx_ll_rcc.h ****   * @brief  Get FDCANx clock source
1869:Drivers/STM32G4xx_HAL_Driver/Inc/stm32g4xx_ll_rcc.h ****   * @rmtoll CCIPR        FDCANSEL      LL_RCC_GetFDCANClockSource
1870:Drivers/STM32G4xx_HAL_Driver/Inc/stm32g4xx_ll_rcc.h ****   * @param  FDCANx This parameter can be one of the following values:
1871:Drivers/STM32G4xx_HAL_Driver/Inc/stm32g4xx_ll_rcc.h ****   *         @arg @ref LL_RCC_FDCAN_CLKSOURCE
1872:Drivers/STM32G4xx_HAL_Driver/Inc/stm32g4xx_ll_rcc.h ****   * @retval Returned value can be one of the following values:
1873:Drivers/STM32G4xx_HAL_Driver/Inc/stm32g4xx_ll_rcc.h ****   *         @arg @ref LL_RCC_FDCAN_CLKSOURCE_HSE
1874:Drivers/STM32G4xx_HAL_Driver/Inc/stm32g4xx_ll_rcc.h ****   *         @arg @ref LL_RCC_FDCAN_CLKSOURCE_PLL
1875:Drivers/STM32G4xx_HAL_Driver/Inc/stm32g4xx_ll_rcc.h ****   *         @arg @ref LL_RCC_FDCAN_CLKSOURCE_PCLK1
1876:Drivers/STM32G4xx_HAL_Driver/Inc/stm32g4xx_ll_rcc.h ****   * @retval None
1877:Drivers/STM32G4xx_HAL_Driver/Inc/stm32g4xx_ll_rcc.h ****   */
1878:Drivers/STM32G4xx_HAL_Driver/Inc/stm32g4xx_ll_rcc.h **** __STATIC_INLINE uint32_t LL_RCC_GetFDCANClockSource(uint32_t FDCANx)
1879:Drivers/STM32G4xx_HAL_Driver/Inc/stm32g4xx_ll_rcc.h **** {
1880:Drivers/STM32G4xx_HAL_Driver/Inc/stm32g4xx_ll_rcc.h ****   return (uint32_t)(READ_BIT(RCC->CCIPR, FDCANx));
1881:Drivers/STM32G4xx_HAL_Driver/Inc/stm32g4xx_ll_rcc.h **** }
1882:Drivers/STM32G4xx_HAL_Driver/Inc/stm32g4xx_ll_rcc.h **** #endif /* FDCAN1 */
1883:Drivers/STM32G4xx_HAL_Driver/Inc/stm32g4xx_ll_rcc.h **** 
1884:Drivers/STM32G4xx_HAL_Driver/Inc/stm32g4xx_ll_rcc.h **** /**
1885:Drivers/STM32G4xx_HAL_Driver/Inc/stm32g4xx_ll_rcc.h ****   * @brief  Get RNGx clock source
1886:Drivers/STM32G4xx_HAL_Driver/Inc/stm32g4xx_ll_rcc.h ****   * @rmtoll CCIPR        CLK48SEL      LL_RCC_GetRNGClockSource
1887:Drivers/STM32G4xx_HAL_Driver/Inc/stm32g4xx_ll_rcc.h ****   * @param  RNGx This parameter can be one of the following values:
1888:Drivers/STM32G4xx_HAL_Driver/Inc/stm32g4xx_ll_rcc.h ****   *         @arg @ref LL_RCC_RNG_CLKSOURCE
ARM GAS  /tmp/ccweegFn.s 			page 50


1889:Drivers/STM32G4xx_HAL_Driver/Inc/stm32g4xx_ll_rcc.h ****   * @retval Returned value can be one of the following values:
1890:Drivers/STM32G4xx_HAL_Driver/Inc/stm32g4xx_ll_rcc.h ****   *         @arg @ref LL_RCC_RNG_CLKSOURCE_HSI48
1891:Drivers/STM32G4xx_HAL_Driver/Inc/stm32g4xx_ll_rcc.h ****   *         @arg @ref LL_RCC_RNG_CLKSOURCE_PLL
1892:Drivers/STM32G4xx_HAL_Driver/Inc/stm32g4xx_ll_rcc.h ****   */
1893:Drivers/STM32G4xx_HAL_Driver/Inc/stm32g4xx_ll_rcc.h **** __STATIC_INLINE uint32_t LL_RCC_GetRNGClockSource(uint32_t RNGx)
1894:Drivers/STM32G4xx_HAL_Driver/Inc/stm32g4xx_ll_rcc.h **** {
1895:Drivers/STM32G4xx_HAL_Driver/Inc/stm32g4xx_ll_rcc.h ****   return (uint32_t)(READ_BIT(RCC->CCIPR, RNGx));
1896:Drivers/STM32G4xx_HAL_Driver/Inc/stm32g4xx_ll_rcc.h **** }
1897:Drivers/STM32G4xx_HAL_Driver/Inc/stm32g4xx_ll_rcc.h **** 
1898:Drivers/STM32G4xx_HAL_Driver/Inc/stm32g4xx_ll_rcc.h **** /**
1899:Drivers/STM32G4xx_HAL_Driver/Inc/stm32g4xx_ll_rcc.h ****   * @brief  Get USBx clock source
1900:Drivers/STM32G4xx_HAL_Driver/Inc/stm32g4xx_ll_rcc.h ****   * @rmtoll CCIPR        CLK48SEL      LL_RCC_GetUSBClockSource
1901:Drivers/STM32G4xx_HAL_Driver/Inc/stm32g4xx_ll_rcc.h ****   * @param  USBx This parameter can be one of the following values:
1902:Drivers/STM32G4xx_HAL_Driver/Inc/stm32g4xx_ll_rcc.h ****   *         @arg @ref LL_RCC_USB_CLKSOURCE
1903:Drivers/STM32G4xx_HAL_Driver/Inc/stm32g4xx_ll_rcc.h ****   * @retval Returned value can be one of the following values:
1904:Drivers/STM32G4xx_HAL_Driver/Inc/stm32g4xx_ll_rcc.h ****   *         @arg @ref LL_RCC_USB_CLKSOURCE_HSI48
1905:Drivers/STM32G4xx_HAL_Driver/Inc/stm32g4xx_ll_rcc.h ****   *         @arg @ref LL_RCC_USB_CLKSOURCE_PLL
1906:Drivers/STM32G4xx_HAL_Driver/Inc/stm32g4xx_ll_rcc.h ****   */
1907:Drivers/STM32G4xx_HAL_Driver/Inc/stm32g4xx_ll_rcc.h **** __STATIC_INLINE uint32_t LL_RCC_GetUSBClockSource(uint32_t USBx)
1908:Drivers/STM32G4xx_HAL_Driver/Inc/stm32g4xx_ll_rcc.h **** {
1909:Drivers/STM32G4xx_HAL_Driver/Inc/stm32g4xx_ll_rcc.h ****   return (uint32_t)(READ_BIT(RCC->CCIPR, USBx));
1910:Drivers/STM32G4xx_HAL_Driver/Inc/stm32g4xx_ll_rcc.h **** }
1911:Drivers/STM32G4xx_HAL_Driver/Inc/stm32g4xx_ll_rcc.h **** 
1912:Drivers/STM32G4xx_HAL_Driver/Inc/stm32g4xx_ll_rcc.h **** /**
1913:Drivers/STM32G4xx_HAL_Driver/Inc/stm32g4xx_ll_rcc.h ****   * @brief  Get ADCx clock source
1914:Drivers/STM32G4xx_HAL_Driver/Inc/stm32g4xx_ll_rcc.h ****   * @rmtoll CCIPR        ADCSEL        LL_RCC_GetADCClockSource
1915:Drivers/STM32G4xx_HAL_Driver/Inc/stm32g4xx_ll_rcc.h ****   * @param  ADCx This parameter can be one of the following values:
1916:Drivers/STM32G4xx_HAL_Driver/Inc/stm32g4xx_ll_rcc.h ****   *         @arg @ref LL_RCC_ADC12_CLKSOURCE
1917:Drivers/STM32G4xx_HAL_Driver/Inc/stm32g4xx_ll_rcc.h ****   *         @arg @ref LL_RCC_ADC345_CLKSOURCE        (*)
1918:Drivers/STM32G4xx_HAL_Driver/Inc/stm32g4xx_ll_rcc.h ****   * @retval Returned value can be one of the following values:
1919:Drivers/STM32G4xx_HAL_Driver/Inc/stm32g4xx_ll_rcc.h ****   *         @arg @ref LL_RCC_ADC12_CLKSOURCE_NONE
1920:Drivers/STM32G4xx_HAL_Driver/Inc/stm32g4xx_ll_rcc.h ****   *         @arg @ref LL_RCC_ADC12_CLKSOURCE_PLL
1921:Drivers/STM32G4xx_HAL_Driver/Inc/stm32g4xx_ll_rcc.h ****   *         @arg @ref LL_RCC_ADC12_CLKSOURCE_SYSCLK
1922:Drivers/STM32G4xx_HAL_Driver/Inc/stm32g4xx_ll_rcc.h ****   *         @arg @ref LL_RCC_ADC345_CLKSOURCE_NONE   (*)
1923:Drivers/STM32G4xx_HAL_Driver/Inc/stm32g4xx_ll_rcc.h ****   *         @arg @ref LL_RCC_ADC345_CLKSOURCE_PLL    (*)
1924:Drivers/STM32G4xx_HAL_Driver/Inc/stm32g4xx_ll_rcc.h ****   *         @arg @ref LL_RCC_ADC345_CLKSOURCE_SYSCLK (*)
1925:Drivers/STM32G4xx_HAL_Driver/Inc/stm32g4xx_ll_rcc.h ****   *
1926:Drivers/STM32G4xx_HAL_Driver/Inc/stm32g4xx_ll_rcc.h ****   *         (*) value not defined in all devices.
1927:Drivers/STM32G4xx_HAL_Driver/Inc/stm32g4xx_ll_rcc.h ****   */
1928:Drivers/STM32G4xx_HAL_Driver/Inc/stm32g4xx_ll_rcc.h **** __STATIC_INLINE uint32_t LL_RCC_GetADCClockSource(uint32_t ADCx)
1929:Drivers/STM32G4xx_HAL_Driver/Inc/stm32g4xx_ll_rcc.h **** {
1930:Drivers/STM32G4xx_HAL_Driver/Inc/stm32g4xx_ll_rcc.h ****   return (uint32_t)((READ_BIT(RCC->CCIPR, 3UL << ((ADCx & 0x001F0000U) >> 16U)) >> ((ADCx & 0x001F0
1931:Drivers/STM32G4xx_HAL_Driver/Inc/stm32g4xx_ll_rcc.h **** }
1932:Drivers/STM32G4xx_HAL_Driver/Inc/stm32g4xx_ll_rcc.h **** 
1933:Drivers/STM32G4xx_HAL_Driver/Inc/stm32g4xx_ll_rcc.h **** #if defined(QUADSPI)
1934:Drivers/STM32G4xx_HAL_Driver/Inc/stm32g4xx_ll_rcc.h **** /**
1935:Drivers/STM32G4xx_HAL_Driver/Inc/stm32g4xx_ll_rcc.h ****   * @brief  Get QUADSPI clock source
1936:Drivers/STM32G4xx_HAL_Driver/Inc/stm32g4xx_ll_rcc.h ****   * @rmtoll CCIPR2         QSPISEL     LL_RCC_GetQUADSPIClockSource
1937:Drivers/STM32G4xx_HAL_Driver/Inc/stm32g4xx_ll_rcc.h ****   * @param  QUADSPIx This parameter can be one of the following values:
1938:Drivers/STM32G4xx_HAL_Driver/Inc/stm32g4xx_ll_rcc.h ****   *         @arg @ref LL_RCC_QUADSPI_CLKSOURCE
1939:Drivers/STM32G4xx_HAL_Driver/Inc/stm32g4xx_ll_rcc.h ****   * @retval Returned value can be one of the following values:
1940:Drivers/STM32G4xx_HAL_Driver/Inc/stm32g4xx_ll_rcc.h ****   *         @arg @ref LL_RCC_QUADSPI_CLKSOURCE_SYSCLK
1941:Drivers/STM32G4xx_HAL_Driver/Inc/stm32g4xx_ll_rcc.h ****   *         @arg @ref LL_RCC_QUADSPI_CLKSOURCE_HSI
1942:Drivers/STM32G4xx_HAL_Driver/Inc/stm32g4xx_ll_rcc.h ****   *         @arg @ref LL_RCC_QUADSPI_CLKSOURCE_PLL
1943:Drivers/STM32G4xx_HAL_Driver/Inc/stm32g4xx_ll_rcc.h ****   */
1944:Drivers/STM32G4xx_HAL_Driver/Inc/stm32g4xx_ll_rcc.h **** __STATIC_INLINE uint32_t LL_RCC_GetQUADSPIClockSource(uint32_t QUADSPIx)
1945:Drivers/STM32G4xx_HAL_Driver/Inc/stm32g4xx_ll_rcc.h **** {
ARM GAS  /tmp/ccweegFn.s 			page 51


1946:Drivers/STM32G4xx_HAL_Driver/Inc/stm32g4xx_ll_rcc.h ****   return (uint32_t)(READ_BIT(RCC->CCIPR2, QUADSPIx));
1947:Drivers/STM32G4xx_HAL_Driver/Inc/stm32g4xx_ll_rcc.h **** }
1948:Drivers/STM32G4xx_HAL_Driver/Inc/stm32g4xx_ll_rcc.h **** #endif /* QUADSPI */
1949:Drivers/STM32G4xx_HAL_Driver/Inc/stm32g4xx_ll_rcc.h **** /**
1950:Drivers/STM32G4xx_HAL_Driver/Inc/stm32g4xx_ll_rcc.h ****   * @}
1951:Drivers/STM32G4xx_HAL_Driver/Inc/stm32g4xx_ll_rcc.h ****   */
1952:Drivers/STM32G4xx_HAL_Driver/Inc/stm32g4xx_ll_rcc.h **** 
1953:Drivers/STM32G4xx_HAL_Driver/Inc/stm32g4xx_ll_rcc.h **** /** @defgroup RCC_LL_EF_RTC RTC
1954:Drivers/STM32G4xx_HAL_Driver/Inc/stm32g4xx_ll_rcc.h ****   * @{
1955:Drivers/STM32G4xx_HAL_Driver/Inc/stm32g4xx_ll_rcc.h ****   */
1956:Drivers/STM32G4xx_HAL_Driver/Inc/stm32g4xx_ll_rcc.h **** 
1957:Drivers/STM32G4xx_HAL_Driver/Inc/stm32g4xx_ll_rcc.h **** /**
1958:Drivers/STM32G4xx_HAL_Driver/Inc/stm32g4xx_ll_rcc.h ****   * @brief  Set RTC Clock Source
1959:Drivers/STM32G4xx_HAL_Driver/Inc/stm32g4xx_ll_rcc.h ****   * @note Once the RTC clock source has been selected, it cannot be changed anymore unless
1960:Drivers/STM32G4xx_HAL_Driver/Inc/stm32g4xx_ll_rcc.h ****   *       the Backup domain is reset, or unless a failure is detected on LSE (LSECSSD is
1961:Drivers/STM32G4xx_HAL_Driver/Inc/stm32g4xx_ll_rcc.h ****   *       set). The BDRST bit can be used to reset them.
1962:Drivers/STM32G4xx_HAL_Driver/Inc/stm32g4xx_ll_rcc.h ****   * @rmtoll BDCR         RTCSEL        LL_RCC_SetRTCClockSource
1963:Drivers/STM32G4xx_HAL_Driver/Inc/stm32g4xx_ll_rcc.h ****   * @param  Source This parameter can be one of the following values:
1964:Drivers/STM32G4xx_HAL_Driver/Inc/stm32g4xx_ll_rcc.h ****   *         @arg @ref LL_RCC_RTC_CLKSOURCE_NONE
1965:Drivers/STM32G4xx_HAL_Driver/Inc/stm32g4xx_ll_rcc.h ****   *         @arg @ref LL_RCC_RTC_CLKSOURCE_LSE
1966:Drivers/STM32G4xx_HAL_Driver/Inc/stm32g4xx_ll_rcc.h ****   *         @arg @ref LL_RCC_RTC_CLKSOURCE_LSI
1967:Drivers/STM32G4xx_HAL_Driver/Inc/stm32g4xx_ll_rcc.h ****   *         @arg @ref LL_RCC_RTC_CLKSOURCE_HSE_DIV32
1968:Drivers/STM32G4xx_HAL_Driver/Inc/stm32g4xx_ll_rcc.h ****   * @retval None
1969:Drivers/STM32G4xx_HAL_Driver/Inc/stm32g4xx_ll_rcc.h ****   */
1970:Drivers/STM32G4xx_HAL_Driver/Inc/stm32g4xx_ll_rcc.h **** __STATIC_INLINE void LL_RCC_SetRTCClockSource(uint32_t Source)
1971:Drivers/STM32G4xx_HAL_Driver/Inc/stm32g4xx_ll_rcc.h **** {
1972:Drivers/STM32G4xx_HAL_Driver/Inc/stm32g4xx_ll_rcc.h ****   MODIFY_REG(RCC->BDCR, RCC_BDCR_RTCSEL, Source);
1973:Drivers/STM32G4xx_HAL_Driver/Inc/stm32g4xx_ll_rcc.h **** }
1974:Drivers/STM32G4xx_HAL_Driver/Inc/stm32g4xx_ll_rcc.h **** 
1975:Drivers/STM32G4xx_HAL_Driver/Inc/stm32g4xx_ll_rcc.h **** /**
1976:Drivers/STM32G4xx_HAL_Driver/Inc/stm32g4xx_ll_rcc.h ****   * @brief  Get RTC Clock Source
1977:Drivers/STM32G4xx_HAL_Driver/Inc/stm32g4xx_ll_rcc.h ****   * @rmtoll BDCR         RTCSEL        LL_RCC_GetRTCClockSource
1978:Drivers/STM32G4xx_HAL_Driver/Inc/stm32g4xx_ll_rcc.h ****   * @retval Returned value can be one of the following values:
1979:Drivers/STM32G4xx_HAL_Driver/Inc/stm32g4xx_ll_rcc.h ****   *         @arg @ref LL_RCC_RTC_CLKSOURCE_NONE
1980:Drivers/STM32G4xx_HAL_Driver/Inc/stm32g4xx_ll_rcc.h ****   *         @arg @ref LL_RCC_RTC_CLKSOURCE_LSE
1981:Drivers/STM32G4xx_HAL_Driver/Inc/stm32g4xx_ll_rcc.h ****   *         @arg @ref LL_RCC_RTC_CLKSOURCE_LSI
1982:Drivers/STM32G4xx_HAL_Driver/Inc/stm32g4xx_ll_rcc.h ****   *         @arg @ref LL_RCC_RTC_CLKSOURCE_HSE_DIV32
1983:Drivers/STM32G4xx_HAL_Driver/Inc/stm32g4xx_ll_rcc.h ****   */
