ARM GAS  /tmp/ccE4sfSH.s 			page 1


   1              		.cpu cortex-m4
   2              		.eabi_attribute 27, 1
   3              		.eabi_attribute 28, 1
   4              		.eabi_attribute 20, 1
   5              		.eabi_attribute 21, 1
   6              		.eabi_attribute 23, 3
   7              		.eabi_attribute 24, 1
   8              		.eabi_attribute 25, 1
   9              		.eabi_attribute 26, 1
  10              		.eabi_attribute 30, 2
  11              		.eabi_attribute 34, 1
  12              		.eabi_attribute 18, 4
  13              		.file	"stm32g4xx_hal_rcc.c"
  14              		.text
  15              	.Ltext0:
  16              		.cfi_sections	.debug_frame
  17              		.section	.text.HAL_RCC_DeInit,"ax",%progbits
  18              		.align	1
  19              		.p2align 2,,3
  20              		.global	HAL_RCC_DeInit
  21              		.arch armv7e-m
  22              		.syntax unified
  23              		.thumb
  24              		.thumb_func
  25              		.fpu fpv4-sp-d16
  27              	HAL_RCC_DeInit:
  28              	.LFB132:
  29              		.file 1 "Drivers/STM32G4xx_HAL_Driver/Src/stm32g4xx_hal_rcc.c"
   1:Drivers/STM32G4xx_HAL_Driver/Src/stm32g4xx_hal_rcc.c **** /**
   2:Drivers/STM32G4xx_HAL_Driver/Src/stm32g4xx_hal_rcc.c ****   ******************************************************************************
   3:Drivers/STM32G4xx_HAL_Driver/Src/stm32g4xx_hal_rcc.c ****   * @file    stm32g4xx_hal_rcc.c
   4:Drivers/STM32G4xx_HAL_Driver/Src/stm32g4xx_hal_rcc.c ****   * @author  MCD Application Team
   5:Drivers/STM32G4xx_HAL_Driver/Src/stm32g4xx_hal_rcc.c ****   * @brief   RCC HAL module driver.
   6:Drivers/STM32G4xx_HAL_Driver/Src/stm32g4xx_hal_rcc.c ****   *          This file provides firmware functions to manage the following
   7:Drivers/STM32G4xx_HAL_Driver/Src/stm32g4xx_hal_rcc.c ****   *          functionalities of the Reset and Clock Control (RCC) peripheral:
   8:Drivers/STM32G4xx_HAL_Driver/Src/stm32g4xx_hal_rcc.c ****   *           + Initialization and de-initialization functions
   9:Drivers/STM32G4xx_HAL_Driver/Src/stm32g4xx_hal_rcc.c ****   *           + Peripheral Control functions
  10:Drivers/STM32G4xx_HAL_Driver/Src/stm32g4xx_hal_rcc.c ****   *
  11:Drivers/STM32G4xx_HAL_Driver/Src/stm32g4xx_hal_rcc.c ****   @verbatim
  12:Drivers/STM32G4xx_HAL_Driver/Src/stm32g4xx_hal_rcc.c ****   ==============================================================================
  13:Drivers/STM32G4xx_HAL_Driver/Src/stm32g4xx_hal_rcc.c ****                       ##### RCC specific features #####
  14:Drivers/STM32G4xx_HAL_Driver/Src/stm32g4xx_hal_rcc.c ****   ==============================================================================
  15:Drivers/STM32G4xx_HAL_Driver/Src/stm32g4xx_hal_rcc.c ****     [..]
  16:Drivers/STM32G4xx_HAL_Driver/Src/stm32g4xx_hal_rcc.c ****       After reset the device is running from High Speed Internal oscillator
  17:Drivers/STM32G4xx_HAL_Driver/Src/stm32g4xx_hal_rcc.c ****       (16 MHz) with Flash 0 wait state. Flash prefetch buffer, D-Cache
  18:Drivers/STM32G4xx_HAL_Driver/Src/stm32g4xx_hal_rcc.c ****       and I-Cache are disabled, and all peripherals are off except internal
  19:Drivers/STM32G4xx_HAL_Driver/Src/stm32g4xx_hal_rcc.c ****       SRAM, Flash and JTAG.
  20:Drivers/STM32G4xx_HAL_Driver/Src/stm32g4xx_hal_rcc.c **** 
  21:Drivers/STM32G4xx_HAL_Driver/Src/stm32g4xx_hal_rcc.c ****       (+) There is no prescaler on High speed (AHBs) and Low speed (APBs) buses:
  22:Drivers/STM32G4xx_HAL_Driver/Src/stm32g4xx_hal_rcc.c ****           all peripherals mapped on these buses are running at HSI speed.
  23:Drivers/STM32G4xx_HAL_Driver/Src/stm32g4xx_hal_rcc.c ****       (+) The clock for all peripherals is switched off, except the SRAM and FLASH.
  24:Drivers/STM32G4xx_HAL_Driver/Src/stm32g4xx_hal_rcc.c ****       (+) All GPIOs are in analog mode, except the JTAG pins which
  25:Drivers/STM32G4xx_HAL_Driver/Src/stm32g4xx_hal_rcc.c ****           are assigned to be used for debug purpose.
  26:Drivers/STM32G4xx_HAL_Driver/Src/stm32g4xx_hal_rcc.c **** 
  27:Drivers/STM32G4xx_HAL_Driver/Src/stm32g4xx_hal_rcc.c ****     [..]
  28:Drivers/STM32G4xx_HAL_Driver/Src/stm32g4xx_hal_rcc.c ****       Once the device started from reset, the user application has to:
  29:Drivers/STM32G4xx_HAL_Driver/Src/stm32g4xx_hal_rcc.c ****       (+) Configure the clock source to be used to drive the System clock
ARM GAS  /tmp/ccE4sfSH.s 			page 2


  30:Drivers/STM32G4xx_HAL_Driver/Src/stm32g4xx_hal_rcc.c ****           (if the application needs higher frequency/performance)
  31:Drivers/STM32G4xx_HAL_Driver/Src/stm32g4xx_hal_rcc.c ****       (+) Configure the System clock frequency and Flash settings
  32:Drivers/STM32G4xx_HAL_Driver/Src/stm32g4xx_hal_rcc.c ****       (+) Configure the AHB and APB buses prescalers
  33:Drivers/STM32G4xx_HAL_Driver/Src/stm32g4xx_hal_rcc.c ****       (+) Enable the clock for the peripheral(s) to be used
  34:Drivers/STM32G4xx_HAL_Driver/Src/stm32g4xx_hal_rcc.c ****       (+) Configure the clock source(s) for peripherals which clocks are not
  35:Drivers/STM32G4xx_HAL_Driver/Src/stm32g4xx_hal_rcc.c ****           derived from the System clock (USB, RNG, USART, LPUART, FDCAN, some TIMERs,
  36:Drivers/STM32G4xx_HAL_Driver/Src/stm32g4xx_hal_rcc.c ****           UCPD, I2S, I2C, LPTIM, ADC, QSPI)
  37:Drivers/STM32G4xx_HAL_Driver/Src/stm32g4xx_hal_rcc.c **** 
  38:Drivers/STM32G4xx_HAL_Driver/Src/stm32g4xx_hal_rcc.c ****   @endverbatim
  39:Drivers/STM32G4xx_HAL_Driver/Src/stm32g4xx_hal_rcc.c ****   ******************************************************************************
  40:Drivers/STM32G4xx_HAL_Driver/Src/stm32g4xx_hal_rcc.c ****   * @attention
  41:Drivers/STM32G4xx_HAL_Driver/Src/stm32g4xx_hal_rcc.c ****   *
  42:Drivers/STM32G4xx_HAL_Driver/Src/stm32g4xx_hal_rcc.c ****   * Copyright (c) 2019 STMicroelectronics.
  43:Drivers/STM32G4xx_HAL_Driver/Src/stm32g4xx_hal_rcc.c ****   * All rights reserved.
  44:Drivers/STM32G4xx_HAL_Driver/Src/stm32g4xx_hal_rcc.c ****   *
  45:Drivers/STM32G4xx_HAL_Driver/Src/stm32g4xx_hal_rcc.c ****   * This software is licensed under terms that can be found in the LICENSE file in
  46:Drivers/STM32G4xx_HAL_Driver/Src/stm32g4xx_hal_rcc.c ****   * the root directory of this software component.
  47:Drivers/STM32G4xx_HAL_Driver/Src/stm32g4xx_hal_rcc.c ****   * If no LICENSE file comes with this software, it is provided AS-IS.
  48:Drivers/STM32G4xx_HAL_Driver/Src/stm32g4xx_hal_rcc.c ****   ******************************************************************************
  49:Drivers/STM32G4xx_HAL_Driver/Src/stm32g4xx_hal_rcc.c ****   */
  50:Drivers/STM32G4xx_HAL_Driver/Src/stm32g4xx_hal_rcc.c **** 
  51:Drivers/STM32G4xx_HAL_Driver/Src/stm32g4xx_hal_rcc.c **** /* Includes ------------------------------------------------------------------*/
  52:Drivers/STM32G4xx_HAL_Driver/Src/stm32g4xx_hal_rcc.c **** #include "stm32g4xx_hal.h"
  53:Drivers/STM32G4xx_HAL_Driver/Src/stm32g4xx_hal_rcc.c **** 
  54:Drivers/STM32G4xx_HAL_Driver/Src/stm32g4xx_hal_rcc.c **** /** @addtogroup STM32G4xx_HAL_Driver
  55:Drivers/STM32G4xx_HAL_Driver/Src/stm32g4xx_hal_rcc.c ****   * @{
  56:Drivers/STM32G4xx_HAL_Driver/Src/stm32g4xx_hal_rcc.c ****   */
  57:Drivers/STM32G4xx_HAL_Driver/Src/stm32g4xx_hal_rcc.c **** 
  58:Drivers/STM32G4xx_HAL_Driver/Src/stm32g4xx_hal_rcc.c **** /** @defgroup RCC RCC
  59:Drivers/STM32G4xx_HAL_Driver/Src/stm32g4xx_hal_rcc.c ****   * @brief RCC HAL module driver
  60:Drivers/STM32G4xx_HAL_Driver/Src/stm32g4xx_hal_rcc.c ****   * @{
  61:Drivers/STM32G4xx_HAL_Driver/Src/stm32g4xx_hal_rcc.c ****   */
  62:Drivers/STM32G4xx_HAL_Driver/Src/stm32g4xx_hal_rcc.c **** 
  63:Drivers/STM32G4xx_HAL_Driver/Src/stm32g4xx_hal_rcc.c **** #ifdef HAL_RCC_MODULE_ENABLED
  64:Drivers/STM32G4xx_HAL_Driver/Src/stm32g4xx_hal_rcc.c **** 
  65:Drivers/STM32G4xx_HAL_Driver/Src/stm32g4xx_hal_rcc.c **** /* Private typedef -----------------------------------------------------------*/
  66:Drivers/STM32G4xx_HAL_Driver/Src/stm32g4xx_hal_rcc.c **** /* Private define ------------------------------------------------------------*/
  67:Drivers/STM32G4xx_HAL_Driver/Src/stm32g4xx_hal_rcc.c **** /** @defgroup RCC_Private_Constants RCC Private Constants
  68:Drivers/STM32G4xx_HAL_Driver/Src/stm32g4xx_hal_rcc.c ****  * @{
  69:Drivers/STM32G4xx_HAL_Driver/Src/stm32g4xx_hal_rcc.c ****  */
  70:Drivers/STM32G4xx_HAL_Driver/Src/stm32g4xx_hal_rcc.c **** #define HSE_TIMEOUT_VALUE          HSE_STARTUP_TIMEOUT
  71:Drivers/STM32G4xx_HAL_Driver/Src/stm32g4xx_hal_rcc.c **** #define HSI_TIMEOUT_VALUE          2U                /* 2 ms (minimum Tick + 1) */
  72:Drivers/STM32G4xx_HAL_Driver/Src/stm32g4xx_hal_rcc.c **** #define LSI_TIMEOUT_VALUE          2U                /* 2 ms (minimum Tick + 1) */
  73:Drivers/STM32G4xx_HAL_Driver/Src/stm32g4xx_hal_rcc.c **** #define HSI48_TIMEOUT_VALUE        2U                /* 2 ms (minimum Tick + 1) */
  74:Drivers/STM32G4xx_HAL_Driver/Src/stm32g4xx_hal_rcc.c **** #define PLL_TIMEOUT_VALUE          2U                /* 2 ms (minimum Tick + 1) */
  75:Drivers/STM32G4xx_HAL_Driver/Src/stm32g4xx_hal_rcc.c **** #define CLOCKSWITCH_TIMEOUT_VALUE  5000U             /* 5 s    */
  76:Drivers/STM32G4xx_HAL_Driver/Src/stm32g4xx_hal_rcc.c **** /**
  77:Drivers/STM32G4xx_HAL_Driver/Src/stm32g4xx_hal_rcc.c ****   * @}
  78:Drivers/STM32G4xx_HAL_Driver/Src/stm32g4xx_hal_rcc.c ****   */
  79:Drivers/STM32G4xx_HAL_Driver/Src/stm32g4xx_hal_rcc.c **** 
  80:Drivers/STM32G4xx_HAL_Driver/Src/stm32g4xx_hal_rcc.c **** /* Private macro -------------------------------------------------------------*/
  81:Drivers/STM32G4xx_HAL_Driver/Src/stm32g4xx_hal_rcc.c **** /** @defgroup RCC_Private_Macros RCC Private Macros
  82:Drivers/STM32G4xx_HAL_Driver/Src/stm32g4xx_hal_rcc.c ****   * @{
  83:Drivers/STM32G4xx_HAL_Driver/Src/stm32g4xx_hal_rcc.c ****   */
  84:Drivers/STM32G4xx_HAL_Driver/Src/stm32g4xx_hal_rcc.c **** #define RCC_GET_MCO_GPIO_PIN(__RCC_MCOx__)   ((__RCC_MCOx__) & GPIO_PIN_MASK)
  85:Drivers/STM32G4xx_HAL_Driver/Src/stm32g4xx_hal_rcc.c **** 
  86:Drivers/STM32G4xx_HAL_Driver/Src/stm32g4xx_hal_rcc.c **** #define RCC_GET_MCO_GPIO_AF(__RCC_MCOx__)    (((__RCC_MCOx__) & RCC_MCO_GPIOAF_MASK) >> RCC_MCO_GPI
ARM GAS  /tmp/ccE4sfSH.s 			page 3


  87:Drivers/STM32G4xx_HAL_Driver/Src/stm32g4xx_hal_rcc.c **** 
  88:Drivers/STM32G4xx_HAL_Driver/Src/stm32g4xx_hal_rcc.c **** #define RCC_GET_MCO_GPIO_INDEX(__RCC_MCOx__) (((__RCC_MCOx__) & RCC_MCO_GPIOPORT_MASK) >> RCC_MCO_G
  89:Drivers/STM32G4xx_HAL_Driver/Src/stm32g4xx_hal_rcc.c **** 
  90:Drivers/STM32G4xx_HAL_Driver/Src/stm32g4xx_hal_rcc.c **** #define RCC_GET_MCO_GPIO_PORT(__RCC_MCOx__)  (AHB2PERIPH_BASE + ((0x00000400UL) * RCC_GET_MCO_GPIO_
  91:Drivers/STM32G4xx_HAL_Driver/Src/stm32g4xx_hal_rcc.c **** 
  92:Drivers/STM32G4xx_HAL_Driver/Src/stm32g4xx_hal_rcc.c **** #define RCC_PLL_OSCSOURCE_CONFIG(__HAL_RCC_PLLSOURCE__) \
  93:Drivers/STM32G4xx_HAL_Driver/Src/stm32g4xx_hal_rcc.c ****             (MODIFY_REG(RCC->PLLCFGR, RCC_PLLCFGR_PLLSRC, (__HAL_RCC_PLLSOURCE__)))
  94:Drivers/STM32G4xx_HAL_Driver/Src/stm32g4xx_hal_rcc.c **** /**
  95:Drivers/STM32G4xx_HAL_Driver/Src/stm32g4xx_hal_rcc.c ****   * @}
  96:Drivers/STM32G4xx_HAL_Driver/Src/stm32g4xx_hal_rcc.c ****   */
  97:Drivers/STM32G4xx_HAL_Driver/Src/stm32g4xx_hal_rcc.c **** 
  98:Drivers/STM32G4xx_HAL_Driver/Src/stm32g4xx_hal_rcc.c **** /* Private variables ---------------------------------------------------------*/
  99:Drivers/STM32G4xx_HAL_Driver/Src/stm32g4xx_hal_rcc.c **** 
 100:Drivers/STM32G4xx_HAL_Driver/Src/stm32g4xx_hal_rcc.c **** /* Private function prototypes -----------------------------------------------*/
 101:Drivers/STM32G4xx_HAL_Driver/Src/stm32g4xx_hal_rcc.c **** /** @defgroup RCC_Private_Functions RCC Private Functions
 102:Drivers/STM32G4xx_HAL_Driver/Src/stm32g4xx_hal_rcc.c ****   * @{
 103:Drivers/STM32G4xx_HAL_Driver/Src/stm32g4xx_hal_rcc.c ****   */
 104:Drivers/STM32G4xx_HAL_Driver/Src/stm32g4xx_hal_rcc.c **** static uint32_t          RCC_GetSysClockFreqFromPLLSource(void);
 105:Drivers/STM32G4xx_HAL_Driver/Src/stm32g4xx_hal_rcc.c **** /**
 106:Drivers/STM32G4xx_HAL_Driver/Src/stm32g4xx_hal_rcc.c ****   * @}
 107:Drivers/STM32G4xx_HAL_Driver/Src/stm32g4xx_hal_rcc.c ****   */
 108:Drivers/STM32G4xx_HAL_Driver/Src/stm32g4xx_hal_rcc.c **** 
 109:Drivers/STM32G4xx_HAL_Driver/Src/stm32g4xx_hal_rcc.c **** /* Exported functions --------------------------------------------------------*/
 110:Drivers/STM32G4xx_HAL_Driver/Src/stm32g4xx_hal_rcc.c **** 
 111:Drivers/STM32G4xx_HAL_Driver/Src/stm32g4xx_hal_rcc.c **** /** @defgroup RCC_Exported_Functions RCC Exported Functions
 112:Drivers/STM32G4xx_HAL_Driver/Src/stm32g4xx_hal_rcc.c ****   * @{
 113:Drivers/STM32G4xx_HAL_Driver/Src/stm32g4xx_hal_rcc.c ****   */
 114:Drivers/STM32G4xx_HAL_Driver/Src/stm32g4xx_hal_rcc.c **** 
 115:Drivers/STM32G4xx_HAL_Driver/Src/stm32g4xx_hal_rcc.c **** /** @defgroup RCC_Exported_Functions_Group1 Initialization and de-initialization functions
 116:Drivers/STM32G4xx_HAL_Driver/Src/stm32g4xx_hal_rcc.c ****   *  @brief    Initialization and Configuration functions
 117:Drivers/STM32G4xx_HAL_Driver/Src/stm32g4xx_hal_rcc.c ****   *
 118:Drivers/STM32G4xx_HAL_Driver/Src/stm32g4xx_hal_rcc.c ****   @verbatim
 119:Drivers/STM32G4xx_HAL_Driver/Src/stm32g4xx_hal_rcc.c ****  ===============================================================================
 120:Drivers/STM32G4xx_HAL_Driver/Src/stm32g4xx_hal_rcc.c ****            ##### Initialization and de-initialization functions #####
 121:Drivers/STM32G4xx_HAL_Driver/Src/stm32g4xx_hal_rcc.c ****  ===============================================================================
 122:Drivers/STM32G4xx_HAL_Driver/Src/stm32g4xx_hal_rcc.c ****     [..]
 123:Drivers/STM32G4xx_HAL_Driver/Src/stm32g4xx_hal_rcc.c ****       This section provides functions allowing to configure the internal and external oscillators
 124:Drivers/STM32G4xx_HAL_Driver/Src/stm32g4xx_hal_rcc.c ****       (HSE, HSI, LSE, LSI, PLL, CSS and MCO) and the System buses clocks (SYSCLK, AHB, APB1
 125:Drivers/STM32G4xx_HAL_Driver/Src/stm32g4xx_hal_rcc.c ****        and APB2).
 126:Drivers/STM32G4xx_HAL_Driver/Src/stm32g4xx_hal_rcc.c **** 
 127:Drivers/STM32G4xx_HAL_Driver/Src/stm32g4xx_hal_rcc.c ****     [..] Internal/external clock and PLL configuration
 128:Drivers/STM32G4xx_HAL_Driver/Src/stm32g4xx_hal_rcc.c ****          (+) HSI (high-speed internal): 16 MHz factory-trimmed RC used directly or through
 129:Drivers/STM32G4xx_HAL_Driver/Src/stm32g4xx_hal_rcc.c ****              the PLL as System clock source.
 130:Drivers/STM32G4xx_HAL_Driver/Src/stm32g4xx_hal_rcc.c **** 
 131:Drivers/STM32G4xx_HAL_Driver/Src/stm32g4xx_hal_rcc.c ****          (+) LSI (low-speed internal): 32 KHz low consumption RC used as IWDG and/or RTC
 132:Drivers/STM32G4xx_HAL_Driver/Src/stm32g4xx_hal_rcc.c ****              clock source.
 133:Drivers/STM32G4xx_HAL_Driver/Src/stm32g4xx_hal_rcc.c **** 
 134:Drivers/STM32G4xx_HAL_Driver/Src/stm32g4xx_hal_rcc.c ****          (+) HSE (high-speed external): 4 to 48 MHz crystal oscillator used directly or
 135:Drivers/STM32G4xx_HAL_Driver/Src/stm32g4xx_hal_rcc.c ****              through the PLL as System clock source. Can be used also optionally as RTC clock sourc
 136:Drivers/STM32G4xx_HAL_Driver/Src/stm32g4xx_hal_rcc.c **** 
 137:Drivers/STM32G4xx_HAL_Driver/Src/stm32g4xx_hal_rcc.c ****          (+) LSE (low-speed external): 32.768 KHz oscillator used optionally as RTC clock source.
 138:Drivers/STM32G4xx_HAL_Driver/Src/stm32g4xx_hal_rcc.c **** 
 139:Drivers/STM32G4xx_HAL_Driver/Src/stm32g4xx_hal_rcc.c ****          (+) PLL (clocked by HSI, HSE) providing up to three independent output clocks:
 140:Drivers/STM32G4xx_HAL_Driver/Src/stm32g4xx_hal_rcc.c ****            (++) The first output is used to generate the high speed system clock (up to 170 MHz).
 141:Drivers/STM32G4xx_HAL_Driver/Src/stm32g4xx_hal_rcc.c ****            (++) The second output is used to generate the clock for the USB (48 MHz),
 142:Drivers/STM32G4xx_HAL_Driver/Src/stm32g4xx_hal_rcc.c ****                 the QSPI (<= 48 MHz), the FDCAN, the SAI and the I2S.
 143:Drivers/STM32G4xx_HAL_Driver/Src/stm32g4xx_hal_rcc.c ****            (++) The third output is used to generate a clock for ADC
ARM GAS  /tmp/ccE4sfSH.s 			page 4


 144:Drivers/STM32G4xx_HAL_Driver/Src/stm32g4xx_hal_rcc.c **** 
 145:Drivers/STM32G4xx_HAL_Driver/Src/stm32g4xx_hal_rcc.c ****          (+) CSS (Clock security system): once enabled, if a HSE clock failure occurs
 146:Drivers/STM32G4xx_HAL_Driver/Src/stm32g4xx_hal_rcc.c ****             (HSE used directly or through PLL as System clock source), the System clock
 147:Drivers/STM32G4xx_HAL_Driver/Src/stm32g4xx_hal_rcc.c ****              is automatically switched to HSI and an interrupt is generated if enabled.
 148:Drivers/STM32G4xx_HAL_Driver/Src/stm32g4xx_hal_rcc.c ****              The interrupt is linked to the Cortex-M4 NMI (Non-Maskable Interrupt)
 149:Drivers/STM32G4xx_HAL_Driver/Src/stm32g4xx_hal_rcc.c ****              exception vector.
 150:Drivers/STM32G4xx_HAL_Driver/Src/stm32g4xx_hal_rcc.c **** 
 151:Drivers/STM32G4xx_HAL_Driver/Src/stm32g4xx_hal_rcc.c ****          (+) MCO (microcontroller clock output): used to output LSI, HSI, LSE, HSE,
 152:Drivers/STM32G4xx_HAL_Driver/Src/stm32g4xx_hal_rcc.c ****              main PLL clock, system clock or RC48 clock (through a configurable prescaler) on PA8 p
 153:Drivers/STM32G4xx_HAL_Driver/Src/stm32g4xx_hal_rcc.c **** 
 154:Drivers/STM32G4xx_HAL_Driver/Src/stm32g4xx_hal_rcc.c ****     [..] System, AHB and APB buses clocks configuration
 155:Drivers/STM32G4xx_HAL_Driver/Src/stm32g4xx_hal_rcc.c ****          (+) Several clock sources can be used to drive the System clock (SYSCLK): HSI,
 156:Drivers/STM32G4xx_HAL_Driver/Src/stm32g4xx_hal_rcc.c ****              HSE and main PLL.
 157:Drivers/STM32G4xx_HAL_Driver/Src/stm32g4xx_hal_rcc.c ****              The AHB clock (HCLK) is derived from System clock through configurable
 158:Drivers/STM32G4xx_HAL_Driver/Src/stm32g4xx_hal_rcc.c ****              prescaler and used to clock the CPU, memory and peripherals mapped
 159:Drivers/STM32G4xx_HAL_Driver/Src/stm32g4xx_hal_rcc.c ****              on AHB bus (DMA, GPIO...). APB1 (PCLK1) and APB2 (PCLK2) clocks are derived
 160:Drivers/STM32G4xx_HAL_Driver/Src/stm32g4xx_hal_rcc.c ****              from AHB clock through configurable prescalers and used to clock
 161:Drivers/STM32G4xx_HAL_Driver/Src/stm32g4xx_hal_rcc.c ****              the peripherals mapped on these buses. You can use
 162:Drivers/STM32G4xx_HAL_Driver/Src/stm32g4xx_hal_rcc.c ****              "HAL_RCC_GetSysClockFreq()" function to retrieve the frequencies of these clocks.
 163:Drivers/STM32G4xx_HAL_Driver/Src/stm32g4xx_hal_rcc.c **** 
 164:Drivers/STM32G4xx_HAL_Driver/Src/stm32g4xx_hal_rcc.c ****          -@- All the peripheral clocks are derived from the System clock (SYSCLK) except:
 165:Drivers/STM32G4xx_HAL_Driver/Src/stm32g4xx_hal_rcc.c **** 
 166:Drivers/STM32G4xx_HAL_Driver/Src/stm32g4xx_hal_rcc.c ****            (+@) RTC: the RTC clock can be derived either from the LSI, LSE or HSE clock
 167:Drivers/STM32G4xx_HAL_Driver/Src/stm32g4xx_hal_rcc.c ****                 divided by 2 to 31.
 168:Drivers/STM32G4xx_HAL_Driver/Src/stm32g4xx_hal_rcc.c ****                 You have to use __HAL_RCC_RTC_ENABLE() and HAL_RCCEx_PeriphCLKConfig() function
 169:Drivers/STM32G4xx_HAL_Driver/Src/stm32g4xx_hal_rcc.c ****                 to configure this clock.
 170:Drivers/STM32G4xx_HAL_Driver/Src/stm32g4xx_hal_rcc.c ****            (+@) USB FS and RNG: USB FS requires a frequency equal to 48 MHz
 171:Drivers/STM32G4xx_HAL_Driver/Src/stm32g4xx_hal_rcc.c ****                 to work correctly, while the RNG peripheral requires a frequency
 172:Drivers/STM32G4xx_HAL_Driver/Src/stm32g4xx_hal_rcc.c ****                 equal or lower than to 48 MHz. This clock is derived of the main PLL
 173:Drivers/STM32G4xx_HAL_Driver/Src/stm32g4xx_hal_rcc.c ****                 through PLLQ divider. You have to enable the peripheral clock and use
 174:Drivers/STM32G4xx_HAL_Driver/Src/stm32g4xx_hal_rcc.c ****                 HAL_RCCEx_PeriphCLKConfig() function to configure this clock.
 175:Drivers/STM32G4xx_HAL_Driver/Src/stm32g4xx_hal_rcc.c ****            (+@) IWDG clock which is always the LSI clock.
 176:Drivers/STM32G4xx_HAL_Driver/Src/stm32g4xx_hal_rcc.c **** 
 177:Drivers/STM32G4xx_HAL_Driver/Src/stm32g4xx_hal_rcc.c **** 
 178:Drivers/STM32G4xx_HAL_Driver/Src/stm32g4xx_hal_rcc.c ****          (+) The maximum frequency of the SYSCLK, HCLK, PCLK1 and PCLK2 is 170 MHz.
 179:Drivers/STM32G4xx_HAL_Driver/Src/stm32g4xx_hal_rcc.c ****              The clock source frequency should be adapted depending on the device voltage range
 180:Drivers/STM32G4xx_HAL_Driver/Src/stm32g4xx_hal_rcc.c ****              as listed in the Reference Manual "Clock source frequency versus voltage scaling" chap
 181:Drivers/STM32G4xx_HAL_Driver/Src/stm32g4xx_hal_rcc.c **** 
 182:Drivers/STM32G4xx_HAL_Driver/Src/stm32g4xx_hal_rcc.c ****   @endverbatim
 183:Drivers/STM32G4xx_HAL_Driver/Src/stm32g4xx_hal_rcc.c **** 
 184:Drivers/STM32G4xx_HAL_Driver/Src/stm32g4xx_hal_rcc.c ****            Table 1. HCLK clock frequency for STM32G4xx devices
 185:Drivers/STM32G4xx_HAL_Driver/Src/stm32g4xx_hal_rcc.c ****            +----------------------------------------------------------------------------+
 186:Drivers/STM32G4xx_HAL_Driver/Src/stm32g4xx_hal_rcc.c ****            | Latency         |            HCLK clock frequency (MHz)                    |
 187:Drivers/STM32G4xx_HAL_Driver/Src/stm32g4xx_hal_rcc.c ****            |                 |----------------------------------------------------------|
 188:Drivers/STM32G4xx_HAL_Driver/Src/stm32g4xx_hal_rcc.c ****            |                 |  voltage range 1  |  voltage range 1  | voltage range 2  |
 189:Drivers/STM32G4xx_HAL_Driver/Src/stm32g4xx_hal_rcc.c ****            |                 | boost mode 1.28 V | normal mode 1.2 V |     1.0 V        |
 190:Drivers/STM32G4xx_HAL_Driver/Src/stm32g4xx_hal_rcc.c ****            |-----------------|-------------------|-------------------|------------------|
 191:Drivers/STM32G4xx_HAL_Driver/Src/stm32g4xx_hal_rcc.c ****            |0WS(1 CPU cycles)|    HCLK <= 34     |    HCLK <= 30     |    HCLK <= 13    |
 192:Drivers/STM32G4xx_HAL_Driver/Src/stm32g4xx_hal_rcc.c ****            |-----------------|-------------------|-------------------|------------------|
 193:Drivers/STM32G4xx_HAL_Driver/Src/stm32g4xx_hal_rcc.c ****            |1WS(2 CPU cycles)|    HCLK <= 68     |    HCLK <= 60     |    HCLK <= 26    |
 194:Drivers/STM32G4xx_HAL_Driver/Src/stm32g4xx_hal_rcc.c ****            |-----------------|-------------------|-------------------|------------------|
 195:Drivers/STM32G4xx_HAL_Driver/Src/stm32g4xx_hal_rcc.c ****            |2WS(3 CPU cycles)|    HCLK <= 102    |    HCLK <= 90     |        -         |
 196:Drivers/STM32G4xx_HAL_Driver/Src/stm32g4xx_hal_rcc.c ****            |-----------------|-------------------|-------------------|------------------|
 197:Drivers/STM32G4xx_HAL_Driver/Src/stm32g4xx_hal_rcc.c ****            |3WS(4 CPU cycles)|    HCLK <= 136    |    HCLK <= 120    |        -         |
 198:Drivers/STM32G4xx_HAL_Driver/Src/stm32g4xx_hal_rcc.c ****            |-----------------|-------------------|-------------------|------------------|
 199:Drivers/STM32G4xx_HAL_Driver/Src/stm32g4xx_hal_rcc.c ****            |4WS(5 CPU cycles)|    HCLK <= 170    |    HCLK <= 150    |        -         |
 200:Drivers/STM32G4xx_HAL_Driver/Src/stm32g4xx_hal_rcc.c ****            +----------------------------------------------------------------------------+
ARM GAS  /tmp/ccE4sfSH.s 			page 5


 201:Drivers/STM32G4xx_HAL_Driver/Src/stm32g4xx_hal_rcc.c **** 
 202:Drivers/STM32G4xx_HAL_Driver/Src/stm32g4xx_hal_rcc.c ****   * @{
 203:Drivers/STM32G4xx_HAL_Driver/Src/stm32g4xx_hal_rcc.c ****   */
 204:Drivers/STM32G4xx_HAL_Driver/Src/stm32g4xx_hal_rcc.c **** 
 205:Drivers/STM32G4xx_HAL_Driver/Src/stm32g4xx_hal_rcc.c **** /**
 206:Drivers/STM32G4xx_HAL_Driver/Src/stm32g4xx_hal_rcc.c ****   * @brief  Reset the RCC clock configuration to the default reset state.
 207:Drivers/STM32G4xx_HAL_Driver/Src/stm32g4xx_hal_rcc.c ****   * @note   The default reset state of the clock configuration is given below:
 208:Drivers/STM32G4xx_HAL_Driver/Src/stm32g4xx_hal_rcc.c ****   *            - HSI ON and used as system clock source
 209:Drivers/STM32G4xx_HAL_Driver/Src/stm32g4xx_hal_rcc.c ****   *            - HSE, PLL OFF
 210:Drivers/STM32G4xx_HAL_Driver/Src/stm32g4xx_hal_rcc.c ****   *            - AHB, APB1 and APB2 prescaler set to 1.
 211:Drivers/STM32G4xx_HAL_Driver/Src/stm32g4xx_hal_rcc.c ****   *            - CSS, MCO1 OFF
 212:Drivers/STM32G4xx_HAL_Driver/Src/stm32g4xx_hal_rcc.c ****   *            - All interrupts disabled
 213:Drivers/STM32G4xx_HAL_Driver/Src/stm32g4xx_hal_rcc.c ****   *            - All interrupt and reset flags cleared
 214:Drivers/STM32G4xx_HAL_Driver/Src/stm32g4xx_hal_rcc.c ****   * @note   This function doesn't modify the configuration of the
 215:Drivers/STM32G4xx_HAL_Driver/Src/stm32g4xx_hal_rcc.c ****   *            - Peripheral clocks
 216:Drivers/STM32G4xx_HAL_Driver/Src/stm32g4xx_hal_rcc.c ****   *            - LSI, LSE and RTC clocks
 217:Drivers/STM32G4xx_HAL_Driver/Src/stm32g4xx_hal_rcc.c ****   * @retval HAL status
 218:Drivers/STM32G4xx_HAL_Driver/Src/stm32g4xx_hal_rcc.c ****   */
 219:Drivers/STM32G4xx_HAL_Driver/Src/stm32g4xx_hal_rcc.c **** HAL_StatusTypeDef HAL_RCC_DeInit(void)
 220:Drivers/STM32G4xx_HAL_Driver/Src/stm32g4xx_hal_rcc.c **** {
  30              		.loc 1 220 1 view -0
  31              		.cfi_startproc
  32              		@ args = 0, pretend = 0, frame = 0
  33              		@ frame_needed = 0, uses_anonymous_args = 0
 221:Drivers/STM32G4xx_HAL_Driver/Src/stm32g4xx_hal_rcc.c ****   uint32_t tickstart;
  34              		.loc 1 221 3 view .LVU1
 222:Drivers/STM32G4xx_HAL_Driver/Src/stm32g4xx_hal_rcc.c **** 
 223:Drivers/STM32G4xx_HAL_Driver/Src/stm32g4xx_hal_rcc.c ****   /* Get Start Tick*/
 224:Drivers/STM32G4xx_HAL_Driver/Src/stm32g4xx_hal_rcc.c ****   tickstart = HAL_GetTick();
  35              		.loc 1 224 3 view .LVU2
 220:Drivers/STM32G4xx_HAL_Driver/Src/stm32g4xx_hal_rcc.c ****   uint32_t tickstart;
  36              		.loc 1 220 1 is_stmt 0 view .LVU3
  37 0000 70B5     		push	{r4, r5, r6, lr}
  38              	.LCFI0:
  39              		.cfi_def_cfa_offset 16
  40              		.cfi_offset 4, -16
  41              		.cfi_offset 5, -12
  42              		.cfi_offset 6, -8
  43              		.cfi_offset 14, -4
 225:Drivers/STM32G4xx_HAL_Driver/Src/stm32g4xx_hal_rcc.c **** 
 226:Drivers/STM32G4xx_HAL_Driver/Src/stm32g4xx_hal_rcc.c ****   /* Set HSION bit to the reset value */
 227:Drivers/STM32G4xx_HAL_Driver/Src/stm32g4xx_hal_rcc.c ****   SET_BIT(RCC->CR, RCC_CR_HSION);
  44              		.loc 1 227 3 view .LVU4
  45 0002 2B4C     		ldr	r4, .L15
 224:Drivers/STM32G4xx_HAL_Driver/Src/stm32g4xx_hal_rcc.c **** 
  46              		.loc 1 224 15 view .LVU5
  47 0004 FFF7FEFF 		bl	HAL_GetTick
  48              	.LVL0:
  49              		.loc 1 227 3 view .LVU6
  50 0008 2368     		ldr	r3, [r4]
  51 000a 43F48073 		orr	r3, r3, #256
 224:Drivers/STM32G4xx_HAL_Driver/Src/stm32g4xx_hal_rcc.c **** 
  52              		.loc 1 224 15 view .LVU7
  53 000e 0546     		mov	r5, r0
  54              	.LVL1:
  55              		.loc 1 227 3 is_stmt 1 view .LVU8
  56 0010 2360     		str	r3, [r4]
ARM GAS  /tmp/ccE4sfSH.s 			page 6


 228:Drivers/STM32G4xx_HAL_Driver/Src/stm32g4xx_hal_rcc.c **** 
 229:Drivers/STM32G4xx_HAL_Driver/Src/stm32g4xx_hal_rcc.c ****   /* Wait till HSI is ready */
 230:Drivers/STM32G4xx_HAL_Driver/Src/stm32g4xx_hal_rcc.c ****   while (READ_BIT(RCC->CR, RCC_CR_HSIRDY) == 0U)
  57              		.loc 1 230 3 view .LVU9
  58              		.loc 1 230 9 is_stmt 0 view .LVU10
  59 0012 04E0     		b	.L2
  60              	.LVL2:
  61              	.L4:
 231:Drivers/STM32G4xx_HAL_Driver/Src/stm32g4xx_hal_rcc.c ****   {
 232:Drivers/STM32G4xx_HAL_Driver/Src/stm32g4xx_hal_rcc.c ****     if ((HAL_GetTick() - tickstart) > HSI_TIMEOUT_VALUE)
  62              		.loc 1 232 10 view .LVU11
  63 0014 FFF7FEFF 		bl	HAL_GetTick
  64              	.LVL3:
  65              		.loc 1 232 24 view .LVU12
  66 0018 401B     		subs	r0, r0, r5
  67              		.loc 1 232 8 view .LVU13
  68 001a 0228     		cmp	r0, #2
  69 001c 25D8     		bhi	.L6
  70              	.L2:
  71              		.loc 1 232 5 is_stmt 1 view .LVU14
 230:Drivers/STM32G4xx_HAL_Driver/Src/stm32g4xx_hal_rcc.c ****   {
  72              		.loc 1 230 9 view .LVU15
 230:Drivers/STM32G4xx_HAL_Driver/Src/stm32g4xx_hal_rcc.c ****   {
  73              		.loc 1 230 10 is_stmt 0 view .LVU16
  74 001e 2368     		ldr	r3, [r4]
 230:Drivers/STM32G4xx_HAL_Driver/Src/stm32g4xx_hal_rcc.c ****   {
  75              		.loc 1 230 9 view .LVU17
  76 0020 5B05     		lsls	r3, r3, #21
  77 0022 F7D5     		bpl	.L4
 233:Drivers/STM32G4xx_HAL_Driver/Src/stm32g4xx_hal_rcc.c ****     {
 234:Drivers/STM32G4xx_HAL_Driver/Src/stm32g4xx_hal_rcc.c ****       return HAL_TIMEOUT;
 235:Drivers/STM32G4xx_HAL_Driver/Src/stm32g4xx_hal_rcc.c ****     }
 236:Drivers/STM32G4xx_HAL_Driver/Src/stm32g4xx_hal_rcc.c ****   }
 237:Drivers/STM32G4xx_HAL_Driver/Src/stm32g4xx_hal_rcc.c **** 
 238:Drivers/STM32G4xx_HAL_Driver/Src/stm32g4xx_hal_rcc.c ****  /* Set HSITRIM[6:0] bits to the reset value */
 239:Drivers/STM32G4xx_HAL_Driver/Src/stm32g4xx_hal_rcc.c ****   SET_BIT(RCC->ICSCR, RCC_HSICALIBRATION_DEFAULT << RCC_ICSCR_HSITRIM_Pos);
  78              		.loc 1 239 3 is_stmt 1 view .LVU18
  79 0024 6368     		ldr	r3, [r4, #4]
 240:Drivers/STM32G4xx_HAL_Driver/Src/stm32g4xx_hal_rcc.c **** 
 241:Drivers/STM32G4xx_HAL_Driver/Src/stm32g4xx_hal_rcc.c ****   /* Get Start Tick*/
 242:Drivers/STM32G4xx_HAL_Driver/Src/stm32g4xx_hal_rcc.c ****   tickstart = HAL_GetTick();
 243:Drivers/STM32G4xx_HAL_Driver/Src/stm32g4xx_hal_rcc.c **** 
 244:Drivers/STM32G4xx_HAL_Driver/Src/stm32g4xx_hal_rcc.c ****   /* Reset CFGR register (HSI is selected as system clock source) */
 245:Drivers/STM32G4xx_HAL_Driver/Src/stm32g4xx_hal_rcc.c ****   RCC->CFGR = 0x00000001u;
 246:Drivers/STM32G4xx_HAL_Driver/Src/stm32g4xx_hal_rcc.c **** 
 247:Drivers/STM32G4xx_HAL_Driver/Src/stm32g4xx_hal_rcc.c ****   /* Wait till HSI is ready */
 248:Drivers/STM32G4xx_HAL_Driver/Src/stm32g4xx_hal_rcc.c ****   while (READ_BIT(RCC->CFGR, RCC_CFGR_SWS) != RCC_CFGR_SWS_HSI)
  80              		.loc 1 248 10 is_stmt 0 view .LVU19
  81 0026 224E     		ldr	r6, .L15
 239:Drivers/STM32G4xx_HAL_Driver/Src/stm32g4xx_hal_rcc.c **** 
  82              		.loc 1 239 3 view .LVU20
  83 0028 43F08043 		orr	r3, r3, #1073741824
  84 002c 6360     		str	r3, [r4, #4]
 242:Drivers/STM32G4xx_HAL_Driver/Src/stm32g4xx_hal_rcc.c **** 
  85              		.loc 1 242 3 is_stmt 1 view .LVU21
 242:Drivers/STM32G4xx_HAL_Driver/Src/stm32g4xx_hal_rcc.c **** 
  86              		.loc 1 242 15 is_stmt 0 view .LVU22
ARM GAS  /tmp/ccE4sfSH.s 			page 7


  87 002e FFF7FEFF 		bl	HAL_GetTick
  88              	.LVL4:
 245:Drivers/STM32G4xx_HAL_Driver/Src/stm32g4xx_hal_rcc.c **** 
  89              		.loc 1 245 13 view .LVU23
  90 0032 0123     		movs	r3, #1
  91 0034 A360     		str	r3, [r4, #8]
 242:Drivers/STM32G4xx_HAL_Driver/Src/stm32g4xx_hal_rcc.c **** 
  92              		.loc 1 242 15 view .LVU24
  93 0036 0546     		mov	r5, r0
  94              	.LVL5:
 245:Drivers/STM32G4xx_HAL_Driver/Src/stm32g4xx_hal_rcc.c **** 
  95              		.loc 1 245 3 is_stmt 1 view .LVU25
  96              		.loc 1 248 3 view .LVU26
 249:Drivers/STM32G4xx_HAL_Driver/Src/stm32g4xx_hal_rcc.c ****   {
 250:Drivers/STM32G4xx_HAL_Driver/Src/stm32g4xx_hal_rcc.c ****     if ((HAL_GetTick() - tickstart) > CLOCKSWITCH_TIMEOUT_VALUE)
  97              		.loc 1 250 8 is_stmt 0 view .LVU27
  98 0038 41F28834 		movw	r4, #5000
 248:Drivers/STM32G4xx_HAL_Driver/Src/stm32g4xx_hal_rcc.c ****   {
  99              		.loc 1 248 9 view .LVU28
 100 003c 04E0     		b	.L5
 101              	.LVL6:
 102              	.L7:
 103              		.loc 1 250 10 view .LVU29
 104 003e FFF7FEFF 		bl	HAL_GetTick
 105              	.LVL7:
 106              		.loc 1 250 24 view .LVU30
 107 0042 401B     		subs	r0, r0, r5
 108              		.loc 1 250 8 view .LVU31
 109 0044 A042     		cmp	r0, r4
 110 0046 10D8     		bhi	.L6
 111              	.L5:
 112              		.loc 1 250 5 is_stmt 1 view .LVU32
 248:Drivers/STM32G4xx_HAL_Driver/Src/stm32g4xx_hal_rcc.c ****   {
 113              		.loc 1 248 9 view .LVU33
 248:Drivers/STM32G4xx_HAL_Driver/Src/stm32g4xx_hal_rcc.c ****   {
 114              		.loc 1 248 10 is_stmt 0 view .LVU34
 115 0048 B368     		ldr	r3, [r6, #8]
 116 004a 03F00C03 		and	r3, r3, #12
 248:Drivers/STM32G4xx_HAL_Driver/Src/stm32g4xx_hal_rcc.c ****   {
 117              		.loc 1 248 9 view .LVU35
 118 004e 042B     		cmp	r3, #4
 119 0050 F5D1     		bne	.L7
 251:Drivers/STM32G4xx_HAL_Driver/Src/stm32g4xx_hal_rcc.c ****     {
 252:Drivers/STM32G4xx_HAL_Driver/Src/stm32g4xx_hal_rcc.c ****       return HAL_TIMEOUT;
 253:Drivers/STM32G4xx_HAL_Driver/Src/stm32g4xx_hal_rcc.c ****     }
 254:Drivers/STM32G4xx_HAL_Driver/Src/stm32g4xx_hal_rcc.c ****   }
 255:Drivers/STM32G4xx_HAL_Driver/Src/stm32g4xx_hal_rcc.c **** 
 256:Drivers/STM32G4xx_HAL_Driver/Src/stm32g4xx_hal_rcc.c ****   /* Update the SystemCoreClock global variable */
 257:Drivers/STM32G4xx_HAL_Driver/Src/stm32g4xx_hal_rcc.c ****   SystemCoreClock = HSI_VALUE;
 120              		.loc 1 257 3 is_stmt 1 view .LVU36
 258:Drivers/STM32G4xx_HAL_Driver/Src/stm32g4xx_hal_rcc.c **** 
 259:Drivers/STM32G4xx_HAL_Driver/Src/stm32g4xx_hal_rcc.c ****   /* Adapt Systick interrupt period */
 260:Drivers/STM32G4xx_HAL_Driver/Src/stm32g4xx_hal_rcc.c ****   if (HAL_InitTick(uwTickPrio) != HAL_OK)
 121              		.loc 1 260 7 is_stmt 0 view .LVU37
 122 0052 1849     		ldr	r1, .L15+4
 257:Drivers/STM32G4xx_HAL_Driver/Src/stm32g4xx_hal_rcc.c **** 
 123              		.loc 1 257 19 view .LVU38
ARM GAS  /tmp/ccE4sfSH.s 			page 8


 124 0054 184B     		ldr	r3, .L15+8
 125 0056 194A     		ldr	r2, .L15+12
 126              		.loc 1 260 7 view .LVU39
 127 0058 0868     		ldr	r0, [r1]
 257:Drivers/STM32G4xx_HAL_Driver/Src/stm32g4xx_hal_rcc.c **** 
 128              		.loc 1 257 19 view .LVU40
 129 005a 1A60     		str	r2, [r3]
 130              		.loc 1 260 3 is_stmt 1 view .LVU41
 131              		.loc 1 260 7 is_stmt 0 view .LVU42
 132 005c FFF7FEFF 		bl	HAL_InitTick
 133              	.LVL8:
 134              		.loc 1 260 6 view .LVU43
 135 0060 0446     		mov	r4, r0
 136 0062 28B1     		cbz	r0, .L14
 261:Drivers/STM32G4xx_HAL_Driver/Src/stm32g4xx_hal_rcc.c ****   {
 262:Drivers/STM32G4xx_HAL_Driver/Src/stm32g4xx_hal_rcc.c ****     return HAL_ERROR;
 137              		.loc 1 262 12 view .LVU44
 138 0064 0124     		movs	r4, #1
 263:Drivers/STM32G4xx_HAL_Driver/Src/stm32g4xx_hal_rcc.c ****   }
 264:Drivers/STM32G4xx_HAL_Driver/Src/stm32g4xx_hal_rcc.c **** 
 265:Drivers/STM32G4xx_HAL_Driver/Src/stm32g4xx_hal_rcc.c ****   /* Clear CR register in 2 steps: first to clear HSEON in case bypass was enabled */
 266:Drivers/STM32G4xx_HAL_Driver/Src/stm32g4xx_hal_rcc.c ****   RCC->CR = RCC_CR_HSION;
 267:Drivers/STM32G4xx_HAL_Driver/Src/stm32g4xx_hal_rcc.c **** 
 268:Drivers/STM32G4xx_HAL_Driver/Src/stm32g4xx_hal_rcc.c ****   /* Then again to HSEBYP in case bypass was enabled */
 269:Drivers/STM32G4xx_HAL_Driver/Src/stm32g4xx_hal_rcc.c ****   RCC->CR = RCC_CR_HSION;
 270:Drivers/STM32G4xx_HAL_Driver/Src/stm32g4xx_hal_rcc.c **** 
 271:Drivers/STM32G4xx_HAL_Driver/Src/stm32g4xx_hal_rcc.c ****   /* Get Start Tick*/
 272:Drivers/STM32G4xx_HAL_Driver/Src/stm32g4xx_hal_rcc.c ****   tickstart = HAL_GetTick();
 273:Drivers/STM32G4xx_HAL_Driver/Src/stm32g4xx_hal_rcc.c **** 
 274:Drivers/STM32G4xx_HAL_Driver/Src/stm32g4xx_hal_rcc.c ****   /* Wait till PLL is OFF */
 275:Drivers/STM32G4xx_HAL_Driver/Src/stm32g4xx_hal_rcc.c ****   while (READ_BIT(RCC->CR, RCC_CR_PLLRDY) != 0U)
 276:Drivers/STM32G4xx_HAL_Driver/Src/stm32g4xx_hal_rcc.c ****   {
 277:Drivers/STM32G4xx_HAL_Driver/Src/stm32g4xx_hal_rcc.c ****     if ((HAL_GetTick() - tickstart) > PLL_TIMEOUT_VALUE)
 278:Drivers/STM32G4xx_HAL_Driver/Src/stm32g4xx_hal_rcc.c ****     {
 279:Drivers/STM32G4xx_HAL_Driver/Src/stm32g4xx_hal_rcc.c ****       return HAL_TIMEOUT;
 280:Drivers/STM32G4xx_HAL_Driver/Src/stm32g4xx_hal_rcc.c ****     }
 281:Drivers/STM32G4xx_HAL_Driver/Src/stm32g4xx_hal_rcc.c ****   }
 282:Drivers/STM32G4xx_HAL_Driver/Src/stm32g4xx_hal_rcc.c **** 
 283:Drivers/STM32G4xx_HAL_Driver/Src/stm32g4xx_hal_rcc.c ****   /* once PLL is OFF, reset PLLCFGR register to default value */
 284:Drivers/STM32G4xx_HAL_Driver/Src/stm32g4xx_hal_rcc.c ****   RCC->PLLCFGR = RCC_PLLCFGR_PLLN_4;
 285:Drivers/STM32G4xx_HAL_Driver/Src/stm32g4xx_hal_rcc.c **** 
 286:Drivers/STM32G4xx_HAL_Driver/Src/stm32g4xx_hal_rcc.c ****   /* Disable all interrupts */
 287:Drivers/STM32G4xx_HAL_Driver/Src/stm32g4xx_hal_rcc.c ****   CLEAR_REG(RCC->CIER);
 288:Drivers/STM32G4xx_HAL_Driver/Src/stm32g4xx_hal_rcc.c **** 
 289:Drivers/STM32G4xx_HAL_Driver/Src/stm32g4xx_hal_rcc.c ****   /* Clear all interrupt flags */
 290:Drivers/STM32G4xx_HAL_Driver/Src/stm32g4xx_hal_rcc.c ****   WRITE_REG(RCC->CICR, 0xFFFFFFFFU);
 291:Drivers/STM32G4xx_HAL_Driver/Src/stm32g4xx_hal_rcc.c **** 
 292:Drivers/STM32G4xx_HAL_Driver/Src/stm32g4xx_hal_rcc.c ****   /* Clear all reset flags */
 293:Drivers/STM32G4xx_HAL_Driver/Src/stm32g4xx_hal_rcc.c ****   SET_BIT(RCC->CSR, RCC_CSR_RMVF);
 294:Drivers/STM32G4xx_HAL_Driver/Src/stm32g4xx_hal_rcc.c **** 
 295:Drivers/STM32G4xx_HAL_Driver/Src/stm32g4xx_hal_rcc.c ****   return HAL_OK;
 296:Drivers/STM32G4xx_HAL_Driver/Src/stm32g4xx_hal_rcc.c **** }
 139              		.loc 1 296 1 view .LVU45
 140 0066 2046     		mov	r0, r4
 141 0068 70BD     		pop	{r4, r5, r6, pc}
 142              	.LVL9:
 143              	.L6:
ARM GAS  /tmp/ccE4sfSH.s 			page 9


 234:Drivers/STM32G4xx_HAL_Driver/Src/stm32g4xx_hal_rcc.c ****     }
 144              		.loc 1 234 14 view .LVU46
 145 006a 0324     		movs	r4, #3
 146              	.L3:
 147              		.loc 1 296 1 view .LVU47
 148 006c 2046     		mov	r0, r4
 149 006e 70BD     		pop	{r4, r5, r6, pc}
 150              	.LVL10:
 151              	.L14:
 266:Drivers/STM32G4xx_HAL_Driver/Src/stm32g4xx_hal_rcc.c **** 
 152              		.loc 1 266 3 is_stmt 1 view .LVU48
 266:Drivers/STM32G4xx_HAL_Driver/Src/stm32g4xx_hal_rcc.c **** 
 153              		.loc 1 266 11 is_stmt 0 view .LVU49
 154 0070 4FF48073 		mov	r3, #256
 155 0074 3360     		str	r3, [r6]
 269:Drivers/STM32G4xx_HAL_Driver/Src/stm32g4xx_hal_rcc.c **** 
 156              		.loc 1 269 3 is_stmt 1 view .LVU50
 269:Drivers/STM32G4xx_HAL_Driver/Src/stm32g4xx_hal_rcc.c **** 
 157              		.loc 1 269 11 is_stmt 0 view .LVU51
 158 0076 3360     		str	r3, [r6]
 272:Drivers/STM32G4xx_HAL_Driver/Src/stm32g4xx_hal_rcc.c **** 
 159              		.loc 1 272 3 is_stmt 1 view .LVU52
 272:Drivers/STM32G4xx_HAL_Driver/Src/stm32g4xx_hal_rcc.c **** 
 160              		.loc 1 272 15 is_stmt 0 view .LVU53
 161 0078 FFF7FEFF 		bl	HAL_GetTick
 162              	.LVL11:
 275:Drivers/STM32G4xx_HAL_Driver/Src/stm32g4xx_hal_rcc.c ****   {
 163              		.loc 1 275 10 view .LVU54
 164 007c 0C4E     		ldr	r6, .L15
 272:Drivers/STM32G4xx_HAL_Driver/Src/stm32g4xx_hal_rcc.c **** 
 165              		.loc 1 272 15 view .LVU55
 166 007e 0546     		mov	r5, r0
 167              	.LVL12:
 275:Drivers/STM32G4xx_HAL_Driver/Src/stm32g4xx_hal_rcc.c ****   {
 168              		.loc 1 275 3 is_stmt 1 view .LVU56
 275:Drivers/STM32G4xx_HAL_Driver/Src/stm32g4xx_hal_rcc.c ****   {
 169              		.loc 1 275 9 is_stmt 0 view .LVU57
 170 0080 04E0     		b	.L8
 171              	.LVL13:
 172              	.L9:
 277:Drivers/STM32G4xx_HAL_Driver/Src/stm32g4xx_hal_rcc.c ****     {
 173              		.loc 1 277 10 view .LVU58
 174 0082 FFF7FEFF 		bl	HAL_GetTick
 175              	.LVL14:
 277:Drivers/STM32G4xx_HAL_Driver/Src/stm32g4xx_hal_rcc.c ****     {
 176              		.loc 1 277 24 view .LVU59
 177 0086 431B     		subs	r3, r0, r5
 277:Drivers/STM32G4xx_HAL_Driver/Src/stm32g4xx_hal_rcc.c ****     {
 178              		.loc 1 277 8 view .LVU60
 179 0088 022B     		cmp	r3, #2
 180 008a EED8     		bhi	.L6
 181              	.L8:
 277:Drivers/STM32G4xx_HAL_Driver/Src/stm32g4xx_hal_rcc.c ****     {
 182              		.loc 1 277 5 is_stmt 1 view .LVU61
 275:Drivers/STM32G4xx_HAL_Driver/Src/stm32g4xx_hal_rcc.c ****   {
 183              		.loc 1 275 9 view .LVU62
 275:Drivers/STM32G4xx_HAL_Driver/Src/stm32g4xx_hal_rcc.c ****   {
ARM GAS  /tmp/ccE4sfSH.s 			page 10


 184              		.loc 1 275 10 is_stmt 0 view .LVU63
 185 008c 3368     		ldr	r3, [r6]
 275:Drivers/STM32G4xx_HAL_Driver/Src/stm32g4xx_hal_rcc.c ****   {
 186              		.loc 1 275 9 view .LVU64
 187 008e 13F00073 		ands	r3, r3, #33554432
 188 0092 F6D1     		bne	.L9
 284:Drivers/STM32G4xx_HAL_Driver/Src/stm32g4xx_hal_rcc.c **** 
 189              		.loc 1 284 3 is_stmt 1 view .LVU65
 284:Drivers/STM32G4xx_HAL_Driver/Src/stm32g4xx_hal_rcc.c **** 
 190              		.loc 1 284 16 is_stmt 0 view .LVU66
 191 0094 4FF48051 		mov	r1, #4096
 290:Drivers/STM32G4xx_HAL_Driver/Src/stm32g4xx_hal_rcc.c **** 
 192              		.loc 1 290 3 view .LVU67
 193 0098 4FF0FF32 		mov	r2, #-1
 284:Drivers/STM32G4xx_HAL_Driver/Src/stm32g4xx_hal_rcc.c **** 
 194              		.loc 1 284 16 view .LVU68
 195 009c F160     		str	r1, [r6, #12]
 287:Drivers/STM32G4xx_HAL_Driver/Src/stm32g4xx_hal_rcc.c **** 
 196              		.loc 1 287 3 is_stmt 1 view .LVU69
 197 009e B361     		str	r3, [r6, #24]
 290:Drivers/STM32G4xx_HAL_Driver/Src/stm32g4xx_hal_rcc.c **** 
 198              		.loc 1 290 3 view .LVU70
 199 00a0 3262     		str	r2, [r6, #32]
 293:Drivers/STM32G4xx_HAL_Driver/Src/stm32g4xx_hal_rcc.c **** 
 200              		.loc 1 293 3 view .LVU71
 201 00a2 D6F89430 		ldr	r3, [r6, #148]
 202 00a6 43F40003 		orr	r3, r3, #8388608
 203 00aa C6F89430 		str	r3, [r6, #148]
 295:Drivers/STM32G4xx_HAL_Driver/Src/stm32g4xx_hal_rcc.c **** }
 204              		.loc 1 295 3 view .LVU72
 295:Drivers/STM32G4xx_HAL_Driver/Src/stm32g4xx_hal_rcc.c **** }
 205              		.loc 1 295 10 is_stmt 0 view .LVU73
 206 00ae DDE7     		b	.L3
 207              	.L16:
 208              		.align	2
 209              	.L15:
 210 00b0 00100240 		.word	1073876992
 211 00b4 00000000 		.word	uwTickPrio
 212 00b8 00000000 		.word	SystemCoreClock
 213 00bc 0024F400 		.word	16000000
 214              		.cfi_endproc
 215              	.LFE132:
 217              		.section	.text.HAL_RCC_OscConfig,"ax",%progbits
 218              		.align	1
 219              		.p2align 2,,3
 220              		.global	HAL_RCC_OscConfig
 221              		.syntax unified
 222              		.thumb
 223              		.thumb_func
 224              		.fpu fpv4-sp-d16
 226              	HAL_RCC_OscConfig:
 227              	.LVL15:
 228              	.LFB133:
 297:Drivers/STM32G4xx_HAL_Driver/Src/stm32g4xx_hal_rcc.c **** 
 298:Drivers/STM32G4xx_HAL_Driver/Src/stm32g4xx_hal_rcc.c **** /**
 299:Drivers/STM32G4xx_HAL_Driver/Src/stm32g4xx_hal_rcc.c ****   * @brief  Initialize the RCC Oscillators according to the specified parameters in the
 300:Drivers/STM32G4xx_HAL_Driver/Src/stm32g4xx_hal_rcc.c ****   *         RCC_OscInitTypeDef.
ARM GAS  /tmp/ccE4sfSH.s 			page 11


 301:Drivers/STM32G4xx_HAL_Driver/Src/stm32g4xx_hal_rcc.c ****   * @param  RCC_OscInitStruct  pointer to an RCC_OscInitTypeDef structure that
 302:Drivers/STM32G4xx_HAL_Driver/Src/stm32g4xx_hal_rcc.c ****   *         contains the configuration information for the RCC Oscillators.
 303:Drivers/STM32G4xx_HAL_Driver/Src/stm32g4xx_hal_rcc.c ****   * @note   The PLL is not disabled when used as system clock.
 304:Drivers/STM32G4xx_HAL_Driver/Src/stm32g4xx_hal_rcc.c ****   * @note   Transitions LSE Bypass to LSE On and LSE On to LSE Bypass are not
 305:Drivers/STM32G4xx_HAL_Driver/Src/stm32g4xx_hal_rcc.c ****   *         supported by this macro. User should request a transition to LSE Off
 306:Drivers/STM32G4xx_HAL_Driver/Src/stm32g4xx_hal_rcc.c ****   *         first and then LSE On or LSE Bypass.
 307:Drivers/STM32G4xx_HAL_Driver/Src/stm32g4xx_hal_rcc.c ****   * @note   Transition HSE Bypass to HSE On and HSE On to HSE Bypass are not
 308:Drivers/STM32G4xx_HAL_Driver/Src/stm32g4xx_hal_rcc.c ****   *         supported by this macro. User should request a transition to HSE Off
 309:Drivers/STM32G4xx_HAL_Driver/Src/stm32g4xx_hal_rcc.c ****   *         first and then HSE On or HSE Bypass.
 310:Drivers/STM32G4xx_HAL_Driver/Src/stm32g4xx_hal_rcc.c ****   * @retval HAL status
 311:Drivers/STM32G4xx_HAL_Driver/Src/stm32g4xx_hal_rcc.c ****   */
 312:Drivers/STM32G4xx_HAL_Driver/Src/stm32g4xx_hal_rcc.c **** HAL_StatusTypeDef HAL_RCC_OscConfig(RCC_OscInitTypeDef  *RCC_OscInitStruct)
 313:Drivers/STM32G4xx_HAL_Driver/Src/stm32g4xx_hal_rcc.c **** {
 229              		.loc 1 313 1 is_stmt 1 view -0
 230              		.cfi_startproc
 231              		@ args = 0, pretend = 0, frame = 8
 232              		@ frame_needed = 0, uses_anonymous_args = 0
 314:Drivers/STM32G4xx_HAL_Driver/Src/stm32g4xx_hal_rcc.c ****   uint32_t tickstart;
 233              		.loc 1 314 3 view .LVU75
 315:Drivers/STM32G4xx_HAL_Driver/Src/stm32g4xx_hal_rcc.c ****   uint32_t temp_sysclksrc;
 234              		.loc 1 315 3 view .LVU76
 316:Drivers/STM32G4xx_HAL_Driver/Src/stm32g4xx_hal_rcc.c ****   uint32_t temp_pllckcfg;
 235              		.loc 1 316 3 view .LVU77
 317:Drivers/STM32G4xx_HAL_Driver/Src/stm32g4xx_hal_rcc.c **** 
 318:Drivers/STM32G4xx_HAL_Driver/Src/stm32g4xx_hal_rcc.c ****   /* Check Null pointer */
 319:Drivers/STM32G4xx_HAL_Driver/Src/stm32g4xx_hal_rcc.c ****   if (RCC_OscInitStruct == NULL)
 236              		.loc 1 319 3 view .LVU78
 237              		.loc 1 319 6 is_stmt 0 view .LVU79
 238 0000 0028     		cmp	r0, #0
 239 0002 00F00082 		beq	.L132
 320:Drivers/STM32G4xx_HAL_Driver/Src/stm32g4xx_hal_rcc.c ****   {
 321:Drivers/STM32G4xx_HAL_Driver/Src/stm32g4xx_hal_rcc.c ****     return HAL_ERROR;
 322:Drivers/STM32G4xx_HAL_Driver/Src/stm32g4xx_hal_rcc.c ****   }
 323:Drivers/STM32G4xx_HAL_Driver/Src/stm32g4xx_hal_rcc.c **** 
 324:Drivers/STM32G4xx_HAL_Driver/Src/stm32g4xx_hal_rcc.c ****   /* Check the parameters */
 325:Drivers/STM32G4xx_HAL_Driver/Src/stm32g4xx_hal_rcc.c ****   assert_param(IS_RCC_OSCILLATORTYPE(RCC_OscInitStruct->OscillatorType));
 240              		.loc 1 325 3 is_stmt 1 view .LVU80
 326:Drivers/STM32G4xx_HAL_Driver/Src/stm32g4xx_hal_rcc.c **** 
 327:Drivers/STM32G4xx_HAL_Driver/Src/stm32g4xx_hal_rcc.c ****   /*------------------------------- HSE Configuration ------------------------*/
 328:Drivers/STM32G4xx_HAL_Driver/Src/stm32g4xx_hal_rcc.c ****   if (((RCC_OscInitStruct->OscillatorType) & RCC_OSCILLATORTYPE_HSE) == RCC_OSCILLATORTYPE_HSE)
 241              		.loc 1 328 3 view .LVU81
 313:Drivers/STM32G4xx_HAL_Driver/Src/stm32g4xx_hal_rcc.c ****   uint32_t tickstart;
 242              		.loc 1 313 1 is_stmt 0 view .LVU82
 243 0006 2DE9F041 		push	{r4, r5, r6, r7, r8, lr}
 244              	.LCFI1:
 245              		.cfi_def_cfa_offset 24
 246              		.cfi_offset 4, -24
 247              		.cfi_offset 5, -20
 248              		.cfi_offset 6, -16
 249              		.cfi_offset 7, -12
 250              		.cfi_offset 8, -8
 251              		.cfi_offset 14, -4
 252              		.loc 1 328 26 view .LVU83
 253 000a 0368     		ldr	r3, [r0]
 254              		.loc 1 328 6 view .LVU84
 255 000c D907     		lsls	r1, r3, #31
 313:Drivers/STM32G4xx_HAL_Driver/Src/stm32g4xx_hal_rcc.c ****   uint32_t tickstart;
ARM GAS  /tmp/ccE4sfSH.s 			page 12


 256              		.loc 1 313 1 view .LVU85
 257 000e 82B0     		sub	sp, sp, #8
 258              	.LCFI2:
 259              		.cfi_def_cfa_offset 32
 260 0010 0446     		mov	r4, r0
 261              		.loc 1 328 6 view .LVU86
 262 0012 2DD5     		bpl	.L20
 329:Drivers/STM32G4xx_HAL_Driver/Src/stm32g4xx_hal_rcc.c ****   {
 330:Drivers/STM32G4xx_HAL_Driver/Src/stm32g4xx_hal_rcc.c ****     /* Check the parameters */
 331:Drivers/STM32G4xx_HAL_Driver/Src/stm32g4xx_hal_rcc.c ****     assert_param(IS_RCC_HSE(RCC_OscInitStruct->HSEState));
 263              		.loc 1 331 5 is_stmt 1 view .LVU87
 332:Drivers/STM32G4xx_HAL_Driver/Src/stm32g4xx_hal_rcc.c **** 
 333:Drivers/STM32G4xx_HAL_Driver/Src/stm32g4xx_hal_rcc.c ****     temp_sysclksrc = __HAL_RCC_GET_SYSCLK_SOURCE();
 264              		.loc 1 333 5 view .LVU88
 265              		.loc 1 333 22 is_stmt 0 view .LVU89
 266 0014 AF49     		ldr	r1, .L141
 267 0016 8A68     		ldr	r2, [r1, #8]
 334:Drivers/STM32G4xx_HAL_Driver/Src/stm32g4xx_hal_rcc.c ****     temp_pllckcfg = __HAL_RCC_GET_PLL_OSCSOURCE();
 268              		.loc 1 334 21 view .LVU90
 269 0018 C968     		ldr	r1, [r1, #12]
 333:Drivers/STM32G4xx_HAL_Driver/Src/stm32g4xx_hal_rcc.c ****     temp_pllckcfg = __HAL_RCC_GET_PLL_OSCSOURCE();
 270              		.loc 1 333 20 view .LVU91
 271 001a 02F00C02 		and	r2, r2, #12
 272              	.LVL16:
 273              		.loc 1 334 5 is_stmt 1 view .LVU92
 335:Drivers/STM32G4xx_HAL_Driver/Src/stm32g4xx_hal_rcc.c **** 
 336:Drivers/STM32G4xx_HAL_Driver/Src/stm32g4xx_hal_rcc.c ****     /* When the HSE is used as system clock or clock source for PLL in these cases it is not allowe
 337:Drivers/STM32G4xx_HAL_Driver/Src/stm32g4xx_hal_rcc.c ****     if (((temp_sysclksrc == RCC_CFGR_SWS_PLL) && (temp_pllckcfg == RCC_PLLSOURCE_HSE)) || (temp_sys
 274              		.loc 1 337 5 view .LVU93
 275              		.loc 1 337 8 is_stmt 0 view .LVU94
 276 001e 0C2A     		cmp	r2, #12
 277 0020 00F00681 		beq	.L133
 278              		.loc 1 337 88 discriminator 3 view .LVU95
 279 0024 082A     		cmp	r2, #8
 280 0026 00F00881 		beq	.L22
 281              	.LVL17:
 282              	.L23:
 338:Drivers/STM32G4xx_HAL_Driver/Src/stm32g4xx_hal_rcc.c ****     {
 339:Drivers/STM32G4xx_HAL_Driver/Src/stm32g4xx_hal_rcc.c ****       if ((READ_BIT(RCC->CR, RCC_CR_HSERDY) != 0U) && (RCC_OscInitStruct->HSEState == RCC_HSE_OFF))
 340:Drivers/STM32G4xx_HAL_Driver/Src/stm32g4xx_hal_rcc.c ****       {
 341:Drivers/STM32G4xx_HAL_Driver/Src/stm32g4xx_hal_rcc.c ****         return HAL_ERROR;
 342:Drivers/STM32G4xx_HAL_Driver/Src/stm32g4xx_hal_rcc.c ****       }
 343:Drivers/STM32G4xx_HAL_Driver/Src/stm32g4xx_hal_rcc.c ****     }
 344:Drivers/STM32G4xx_HAL_Driver/Src/stm32g4xx_hal_rcc.c ****     else
 345:Drivers/STM32G4xx_HAL_Driver/Src/stm32g4xx_hal_rcc.c ****     {
 346:Drivers/STM32G4xx_HAL_Driver/Src/stm32g4xx_hal_rcc.c ****       /* Set the new HSE configuration ---------------------------------------*/
 347:Drivers/STM32G4xx_HAL_Driver/Src/stm32g4xx_hal_rcc.c ****       __HAL_RCC_HSE_CONFIG(RCC_OscInitStruct->HSEState);
 283              		.loc 1 347 7 is_stmt 1 view .LVU96
 284              		.loc 1 347 7 view .LVU97
 285 002a 6368     		ldr	r3, [r4, #4]
 286 002c B3F5803F 		cmp	r3, #65536
 287 0030 00F07781 		beq	.L134
 288              		.loc 1 347 7 discriminator 2 view .LVU98
 289 0034 B3F5A02F 		cmp	r3, #327680
 290 0038 00F0D881 		beq	.L135
 291              		.loc 1 347 7 discriminator 5 view .LVU99
 292 003c A54D     		ldr	r5, .L141
ARM GAS  /tmp/ccE4sfSH.s 			page 13


 293 003e 2A68     		ldr	r2, [r5]
 294              	.LVL18:
 295              		.loc 1 347 7 is_stmt 0 discriminator 5 view .LVU100
 296 0040 22F48032 		bic	r2, r2, #65536
 297 0044 2A60     		str	r2, [r5]
 298              		.loc 1 347 7 is_stmt 1 discriminator 5 view .LVU101
 299 0046 2A68     		ldr	r2, [r5]
 300 0048 22F48022 		bic	r2, r2, #262144
 301 004c 2A60     		str	r2, [r5]
 302              		.loc 1 347 7 discriminator 5 view .LVU102
 348:Drivers/STM32G4xx_HAL_Driver/Src/stm32g4xx_hal_rcc.c **** 
 349:Drivers/STM32G4xx_HAL_Driver/Src/stm32g4xx_hal_rcc.c ****       /* Check the HSE State */
 350:Drivers/STM32G4xx_HAL_Driver/Src/stm32g4xx_hal_rcc.c ****       if (RCC_OscInitStruct->HSEState != RCC_HSE_OFF)
 303              		.loc 1 350 7 discriminator 5 view .LVU103
 304              		.loc 1 350 10 is_stmt 0 discriminator 5 view .LVU104
 305 004e 002B     		cmp	r3, #0
 306 0050 40F06C81 		bne	.L26
 351:Drivers/STM32G4xx_HAL_Driver/Src/stm32g4xx_hal_rcc.c ****       {
 352:Drivers/STM32G4xx_HAL_Driver/Src/stm32g4xx_hal_rcc.c ****         /* Get Start Tick*/
 353:Drivers/STM32G4xx_HAL_Driver/Src/stm32g4xx_hal_rcc.c ****         tickstart = HAL_GetTick();
 354:Drivers/STM32G4xx_HAL_Driver/Src/stm32g4xx_hal_rcc.c **** 
 355:Drivers/STM32G4xx_HAL_Driver/Src/stm32g4xx_hal_rcc.c ****         /* Wait till HSE is ready */
 356:Drivers/STM32G4xx_HAL_Driver/Src/stm32g4xx_hal_rcc.c ****         while (READ_BIT(RCC->CR, RCC_CR_HSERDY) == 0U)
 357:Drivers/STM32G4xx_HAL_Driver/Src/stm32g4xx_hal_rcc.c ****         {
 358:Drivers/STM32G4xx_HAL_Driver/Src/stm32g4xx_hal_rcc.c ****           if ((HAL_GetTick() - tickstart) > HSE_TIMEOUT_VALUE)
 359:Drivers/STM32G4xx_HAL_Driver/Src/stm32g4xx_hal_rcc.c ****           {
 360:Drivers/STM32G4xx_HAL_Driver/Src/stm32g4xx_hal_rcc.c ****             return HAL_TIMEOUT;
 361:Drivers/STM32G4xx_HAL_Driver/Src/stm32g4xx_hal_rcc.c ****           }
 362:Drivers/STM32G4xx_HAL_Driver/Src/stm32g4xx_hal_rcc.c ****         }
 363:Drivers/STM32G4xx_HAL_Driver/Src/stm32g4xx_hal_rcc.c ****       }
 364:Drivers/STM32G4xx_HAL_Driver/Src/stm32g4xx_hal_rcc.c ****       else
 365:Drivers/STM32G4xx_HAL_Driver/Src/stm32g4xx_hal_rcc.c ****       {
 366:Drivers/STM32G4xx_HAL_Driver/Src/stm32g4xx_hal_rcc.c ****         /* Get Start Tick*/
 367:Drivers/STM32G4xx_HAL_Driver/Src/stm32g4xx_hal_rcc.c ****         tickstart = HAL_GetTick();
 307              		.loc 1 367 9 is_stmt 1 view .LVU105
 308              		.loc 1 367 21 is_stmt 0 view .LVU106
 309 0054 FFF7FEFF 		bl	HAL_GetTick
 310              	.LVL19:
 311              		.loc 1 367 21 view .LVU107
 312 0058 0646     		mov	r6, r0
 313              	.LVL20:
 368:Drivers/STM32G4xx_HAL_Driver/Src/stm32g4xx_hal_rcc.c **** 
 369:Drivers/STM32G4xx_HAL_Driver/Src/stm32g4xx_hal_rcc.c ****         /* Wait till HSE is disabled */
 370:Drivers/STM32G4xx_HAL_Driver/Src/stm32g4xx_hal_rcc.c ****         while (READ_BIT(RCC->CR, RCC_CR_HSERDY) != 0U)
 314              		.loc 1 370 9 is_stmt 1 view .LVU108
 315              		.loc 1 370 15 is_stmt 0 view .LVU109
 316 005a 05E0     		b	.L31
 317              	.LVL21:
 318              	.L33:
 371:Drivers/STM32G4xx_HAL_Driver/Src/stm32g4xx_hal_rcc.c ****         {
 372:Drivers/STM32G4xx_HAL_Driver/Src/stm32g4xx_hal_rcc.c ****           if ((HAL_GetTick() - tickstart) > HSE_TIMEOUT_VALUE)
 319              		.loc 1 372 16 view .LVU110
 320 005c FFF7FEFF 		bl	HAL_GetTick
 321              	.LVL22:
 322              		.loc 1 372 30 view .LVU111
 323 0060 801B     		subs	r0, r0, r6
 324              		.loc 1 372 14 view .LVU112
ARM GAS  /tmp/ccE4sfSH.s 			page 14


 325 0062 6428     		cmp	r0, #100
 326 0064 00F27F81 		bhi	.L32
 327              	.L31:
 328              		.loc 1 372 11 is_stmt 1 view .LVU113
 370:Drivers/STM32G4xx_HAL_Driver/Src/stm32g4xx_hal_rcc.c ****         {
 329              		.loc 1 370 15 view .LVU114
 370:Drivers/STM32G4xx_HAL_Driver/Src/stm32g4xx_hal_rcc.c ****         {
 330              		.loc 1 370 16 is_stmt 0 view .LVU115
 331 0068 2B68     		ldr	r3, [r5]
 370:Drivers/STM32G4xx_HAL_Driver/Src/stm32g4xx_hal_rcc.c ****         {
 332              		.loc 1 370 15 view .LVU116
 333 006a 9F03     		lsls	r7, r3, #14
 334 006c F6D4     		bmi	.L33
 335              	.LVL23:
 336              	.L128:
 373:Drivers/STM32G4xx_HAL_Driver/Src/stm32g4xx_hal_rcc.c ****           {
 374:Drivers/STM32G4xx_HAL_Driver/Src/stm32g4xx_hal_rcc.c ****             return HAL_TIMEOUT;
 375:Drivers/STM32G4xx_HAL_Driver/Src/stm32g4xx_hal_rcc.c ****           }
 376:Drivers/STM32G4xx_HAL_Driver/Src/stm32g4xx_hal_rcc.c ****         }
 377:Drivers/STM32G4xx_HAL_Driver/Src/stm32g4xx_hal_rcc.c ****       }
 378:Drivers/STM32G4xx_HAL_Driver/Src/stm32g4xx_hal_rcc.c ****     }
 379:Drivers/STM32G4xx_HAL_Driver/Src/stm32g4xx_hal_rcc.c ****   }
 380:Drivers/STM32G4xx_HAL_Driver/Src/stm32g4xx_hal_rcc.c ****   /*----------------------------- HSI Configuration --------------------------*/
 381:Drivers/STM32G4xx_HAL_Driver/Src/stm32g4xx_hal_rcc.c ****   if (((RCC_OscInitStruct->OscillatorType) & RCC_OSCILLATORTYPE_HSI) == RCC_OSCILLATORTYPE_HSI)
 337              		.loc 1 381 26 view .LVU117
 338 006e 2368     		ldr	r3, [r4]
 339              	.L20:
 340              		.loc 1 381 3 is_stmt 1 view .LVU118
 341              		.loc 1 381 6 is_stmt 0 view .LVU119
 342 0070 9E07     		lsls	r6, r3, #30
 343 0072 28D5     		bpl	.L34
 382:Drivers/STM32G4xx_HAL_Driver/Src/stm32g4xx_hal_rcc.c ****   {
 383:Drivers/STM32G4xx_HAL_Driver/Src/stm32g4xx_hal_rcc.c ****     /* Check the parameters */
 384:Drivers/STM32G4xx_HAL_Driver/Src/stm32g4xx_hal_rcc.c ****     assert_param(IS_RCC_HSI(RCC_OscInitStruct->HSIState));
 344              		.loc 1 384 5 is_stmt 1 view .LVU120
 385:Drivers/STM32G4xx_HAL_Driver/Src/stm32g4xx_hal_rcc.c ****     assert_param(IS_RCC_HSI_CALIBRATION_VALUE(RCC_OscInitStruct->HSICalibrationValue));
 345              		.loc 1 385 5 view .LVU121
 386:Drivers/STM32G4xx_HAL_Driver/Src/stm32g4xx_hal_rcc.c **** 
 387:Drivers/STM32G4xx_HAL_Driver/Src/stm32g4xx_hal_rcc.c ****     /* Check if HSI is used as system clock or as PLL source when PLL is selected as system clock *
 388:Drivers/STM32G4xx_HAL_Driver/Src/stm32g4xx_hal_rcc.c ****     temp_sysclksrc = __HAL_RCC_GET_SYSCLK_SOURCE();
 346              		.loc 1 388 5 view .LVU122
 347              		.loc 1 388 22 is_stmt 0 view .LVU123
 348 0074 974A     		ldr	r2, .L141
 349 0076 9368     		ldr	r3, [r2, #8]
 389:Drivers/STM32G4xx_HAL_Driver/Src/stm32g4xx_hal_rcc.c ****     temp_pllckcfg = __HAL_RCC_GET_PLL_OSCSOURCE();
 350              		.loc 1 389 21 view .LVU124
 351 0078 D268     		ldr	r2, [r2, #12]
 388:Drivers/STM32G4xx_HAL_Driver/Src/stm32g4xx_hal_rcc.c ****     temp_pllckcfg = __HAL_RCC_GET_PLL_OSCSOURCE();
 352              		.loc 1 388 20 view .LVU125
 353 007a 03F00C03 		and	r3, r3, #12
 354              	.LVL24:
 355              		.loc 1 389 5 is_stmt 1 view .LVU126
 390:Drivers/STM32G4xx_HAL_Driver/Src/stm32g4xx_hal_rcc.c ****     if (((temp_sysclksrc == RCC_CFGR_SWS_PLL) && (temp_pllckcfg == RCC_PLLSOURCE_HSI)) || (temp_sys
 356              		.loc 1 390 5 view .LVU127
 357              		.loc 1 390 8 is_stmt 0 view .LVU128
 358 007e 0C2B     		cmp	r3, #12
 359 0080 00F03081 		beq	.L136
ARM GAS  /tmp/ccE4sfSH.s 			page 15


 360              		.loc 1 390 88 discriminator 3 view .LVU129
 361 0084 042B     		cmp	r3, #4
 362 0086 00F03281 		beq	.L36
 363              	.LVL25:
 364              	.L37:
 391:Drivers/STM32G4xx_HAL_Driver/Src/stm32g4xx_hal_rcc.c ****     {
 392:Drivers/STM32G4xx_HAL_Driver/Src/stm32g4xx_hal_rcc.c ****       /* When HSI is used as system clock it will not be disabled */
 393:Drivers/STM32G4xx_HAL_Driver/Src/stm32g4xx_hal_rcc.c ****       if ((READ_BIT(RCC->CR, RCC_CR_HSIRDY) != 0U) && (RCC_OscInitStruct->HSIState == RCC_HSI_OFF))
 394:Drivers/STM32G4xx_HAL_Driver/Src/stm32g4xx_hal_rcc.c ****       {
 395:Drivers/STM32G4xx_HAL_Driver/Src/stm32g4xx_hal_rcc.c ****         return HAL_ERROR;
 396:Drivers/STM32G4xx_HAL_Driver/Src/stm32g4xx_hal_rcc.c ****       }
 397:Drivers/STM32G4xx_HAL_Driver/Src/stm32g4xx_hal_rcc.c ****       /* Otherwise, just the calibration is allowed */
 398:Drivers/STM32G4xx_HAL_Driver/Src/stm32g4xx_hal_rcc.c ****       else
 399:Drivers/STM32G4xx_HAL_Driver/Src/stm32g4xx_hal_rcc.c ****       {
 400:Drivers/STM32G4xx_HAL_Driver/Src/stm32g4xx_hal_rcc.c ****         /* Adjusts the Internal High Speed oscillator (HSI) calibration value.*/
 401:Drivers/STM32G4xx_HAL_Driver/Src/stm32g4xx_hal_rcc.c ****         __HAL_RCC_HSI_CALIBRATIONVALUE_ADJUST(RCC_OscInitStruct->HSICalibrationValue);
 402:Drivers/STM32G4xx_HAL_Driver/Src/stm32g4xx_hal_rcc.c **** 
 403:Drivers/STM32G4xx_HAL_Driver/Src/stm32g4xx_hal_rcc.c ****         /* Adapt Systick interrupt period */
 404:Drivers/STM32G4xx_HAL_Driver/Src/stm32g4xx_hal_rcc.c ****         if (HAL_InitTick(uwTickPrio) != HAL_OK)
 405:Drivers/STM32G4xx_HAL_Driver/Src/stm32g4xx_hal_rcc.c ****         {
 406:Drivers/STM32G4xx_HAL_Driver/Src/stm32g4xx_hal_rcc.c ****           return HAL_ERROR;
 407:Drivers/STM32G4xx_HAL_Driver/Src/stm32g4xx_hal_rcc.c ****         }
 408:Drivers/STM32G4xx_HAL_Driver/Src/stm32g4xx_hal_rcc.c ****       }
 409:Drivers/STM32G4xx_HAL_Driver/Src/stm32g4xx_hal_rcc.c ****     }
 410:Drivers/STM32G4xx_HAL_Driver/Src/stm32g4xx_hal_rcc.c ****     else
 411:Drivers/STM32G4xx_HAL_Driver/Src/stm32g4xx_hal_rcc.c ****     {
 412:Drivers/STM32G4xx_HAL_Driver/Src/stm32g4xx_hal_rcc.c ****       /* Check the HSI State */
 413:Drivers/STM32G4xx_HAL_Driver/Src/stm32g4xx_hal_rcc.c ****       if (RCC_OscInitStruct->HSIState != RCC_HSI_OFF)
 365              		.loc 1 413 7 is_stmt 1 view .LVU130
 366              		.loc 1 413 10 is_stmt 0 view .LVU131
 367 008a E368     		ldr	r3, [r4, #12]
 368              	.LVL26:
 414:Drivers/STM32G4xx_HAL_Driver/Src/stm32g4xx_hal_rcc.c ****       {
 415:Drivers/STM32G4xx_HAL_Driver/Src/stm32g4xx_hal_rcc.c ****         /* Enable the Internal High Speed oscillator (HSI). */
 416:Drivers/STM32G4xx_HAL_Driver/Src/stm32g4xx_hal_rcc.c ****         __HAL_RCC_HSI_ENABLE();
 369              		.loc 1 416 9 view .LVU132
 370 008c 914D     		ldr	r5, .L141
 413:Drivers/STM32G4xx_HAL_Driver/Src/stm32g4xx_hal_rcc.c ****       {
 371              		.loc 1 413 10 view .LVU133
 372 008e 002B     		cmp	r3, #0
 373 0090 00F05A81 		beq	.L39
 374              		.loc 1 416 9 is_stmt 1 view .LVU134
 375 0094 2B68     		ldr	r3, [r5]
 376 0096 43F48073 		orr	r3, r3, #256
 377 009a 2B60     		str	r3, [r5]
 417:Drivers/STM32G4xx_HAL_Driver/Src/stm32g4xx_hal_rcc.c **** 
 418:Drivers/STM32G4xx_HAL_Driver/Src/stm32g4xx_hal_rcc.c ****         /* Get Start Tick*/
 419:Drivers/STM32G4xx_HAL_Driver/Src/stm32g4xx_hal_rcc.c ****         tickstart = HAL_GetTick();
 378              		.loc 1 419 9 view .LVU135
 379              		.loc 1 419 21 is_stmt 0 view .LVU136
 380 009c FFF7FEFF 		bl	HAL_GetTick
 381              	.LVL27:
 382 00a0 0646     		mov	r6, r0
 383              	.LVL28:
 420:Drivers/STM32G4xx_HAL_Driver/Src/stm32g4xx_hal_rcc.c **** 
 421:Drivers/STM32G4xx_HAL_Driver/Src/stm32g4xx_hal_rcc.c ****         /* Wait till HSI is ready */
 422:Drivers/STM32G4xx_HAL_Driver/Src/stm32g4xx_hal_rcc.c ****         while (READ_BIT(RCC->CR, RCC_CR_HSIRDY) == 0U)
ARM GAS  /tmp/ccE4sfSH.s 			page 16


 384              		.loc 1 422 9 is_stmt 1 view .LVU137
 385              		.loc 1 422 15 is_stmt 0 view .LVU138
 386 00a2 05E0     		b	.L40
 387              	.LVL29:
 388              	.L41:
 423:Drivers/STM32G4xx_HAL_Driver/Src/stm32g4xx_hal_rcc.c ****         {
 424:Drivers/STM32G4xx_HAL_Driver/Src/stm32g4xx_hal_rcc.c ****           if ((HAL_GetTick() - tickstart) > HSI_TIMEOUT_VALUE)
 389              		.loc 1 424 16 view .LVU139
 390 00a4 FFF7FEFF 		bl	HAL_GetTick
 391              	.LVL30:
 392              		.loc 1 424 30 view .LVU140
 393 00a8 801B     		subs	r0, r0, r6
 394              		.loc 1 424 14 view .LVU141
 395 00aa 0228     		cmp	r0, #2
 396 00ac 00F25B81 		bhi	.L32
 397              	.L40:
 398              		.loc 1 424 11 is_stmt 1 view .LVU142
 422:Drivers/STM32G4xx_HAL_Driver/Src/stm32g4xx_hal_rcc.c ****         {
 399              		.loc 1 422 15 view .LVU143
 422:Drivers/STM32G4xx_HAL_Driver/Src/stm32g4xx_hal_rcc.c ****         {
 400              		.loc 1 422 16 is_stmt 0 view .LVU144
 401 00b0 2B68     		ldr	r3, [r5]
 422:Drivers/STM32G4xx_HAL_Driver/Src/stm32g4xx_hal_rcc.c ****         {
 402              		.loc 1 422 15 view .LVU145
 403 00b2 5805     		lsls	r0, r3, #21
 404 00b4 F6D5     		bpl	.L41
 425:Drivers/STM32G4xx_HAL_Driver/Src/stm32g4xx_hal_rcc.c ****           {
 426:Drivers/STM32G4xx_HAL_Driver/Src/stm32g4xx_hal_rcc.c ****             return HAL_TIMEOUT;
 427:Drivers/STM32G4xx_HAL_Driver/Src/stm32g4xx_hal_rcc.c ****           }
 428:Drivers/STM32G4xx_HAL_Driver/Src/stm32g4xx_hal_rcc.c ****         }
 429:Drivers/STM32G4xx_HAL_Driver/Src/stm32g4xx_hal_rcc.c **** 
 430:Drivers/STM32G4xx_HAL_Driver/Src/stm32g4xx_hal_rcc.c ****         /* Adjusts the Internal High Speed oscillator (HSI) calibration value.*/
 431:Drivers/STM32G4xx_HAL_Driver/Src/stm32g4xx_hal_rcc.c ****         __HAL_RCC_HSI_CALIBRATIONVALUE_ADJUST(RCC_OscInitStruct->HSICalibrationValue);
 405              		.loc 1 431 9 is_stmt 1 view .LVU146
 406 00b6 6B68     		ldr	r3, [r5, #4]
 407 00b8 2269     		ldr	r2, [r4, #16]
 408 00ba 23F0FE43 		bic	r3, r3, #2130706432
 409 00be 43EA0263 		orr	r3, r3, r2, lsl #24
 410 00c2 6B60     		str	r3, [r5, #4]
 432:Drivers/STM32G4xx_HAL_Driver/Src/stm32g4xx_hal_rcc.c ****       }
 433:Drivers/STM32G4xx_HAL_Driver/Src/stm32g4xx_hal_rcc.c ****       else
 434:Drivers/STM32G4xx_HAL_Driver/Src/stm32g4xx_hal_rcc.c ****       {
 435:Drivers/STM32G4xx_HAL_Driver/Src/stm32g4xx_hal_rcc.c ****         /* Disable the Internal High Speed oscillator (HSI). */
 436:Drivers/STM32G4xx_HAL_Driver/Src/stm32g4xx_hal_rcc.c ****         __HAL_RCC_HSI_DISABLE();
 437:Drivers/STM32G4xx_HAL_Driver/Src/stm32g4xx_hal_rcc.c **** 
 438:Drivers/STM32G4xx_HAL_Driver/Src/stm32g4xx_hal_rcc.c ****         /* Get Start Tick*/
 439:Drivers/STM32G4xx_HAL_Driver/Src/stm32g4xx_hal_rcc.c ****         tickstart = HAL_GetTick();
 440:Drivers/STM32G4xx_HAL_Driver/Src/stm32g4xx_hal_rcc.c **** 
 441:Drivers/STM32G4xx_HAL_Driver/Src/stm32g4xx_hal_rcc.c ****         /* Wait till HSI is disabled */
 442:Drivers/STM32G4xx_HAL_Driver/Src/stm32g4xx_hal_rcc.c ****         while (READ_BIT(RCC->CR, RCC_CR_HSIRDY) != 0U)
 443:Drivers/STM32G4xx_HAL_Driver/Src/stm32g4xx_hal_rcc.c ****         {
 444:Drivers/STM32G4xx_HAL_Driver/Src/stm32g4xx_hal_rcc.c ****           if ((HAL_GetTick() - tickstart) > HSI_TIMEOUT_VALUE)
 445:Drivers/STM32G4xx_HAL_Driver/Src/stm32g4xx_hal_rcc.c ****           {
 446:Drivers/STM32G4xx_HAL_Driver/Src/stm32g4xx_hal_rcc.c ****             return HAL_TIMEOUT;
 447:Drivers/STM32G4xx_HAL_Driver/Src/stm32g4xx_hal_rcc.c ****           }
 448:Drivers/STM32G4xx_HAL_Driver/Src/stm32g4xx_hal_rcc.c ****         }
 449:Drivers/STM32G4xx_HAL_Driver/Src/stm32g4xx_hal_rcc.c ****       }
ARM GAS  /tmp/ccE4sfSH.s 			page 17


 450:Drivers/STM32G4xx_HAL_Driver/Src/stm32g4xx_hal_rcc.c ****     }
 451:Drivers/STM32G4xx_HAL_Driver/Src/stm32g4xx_hal_rcc.c ****   }
 452:Drivers/STM32G4xx_HAL_Driver/Src/stm32g4xx_hal_rcc.c ****   /*------------------------------ LSI Configuration -------------------------*/
 453:Drivers/STM32G4xx_HAL_Driver/Src/stm32g4xx_hal_rcc.c ****   if (((RCC_OscInitStruct->OscillatorType) & RCC_OSCILLATORTYPE_LSI) == RCC_OSCILLATORTYPE_LSI)
 411              		.loc 1 453 26 is_stmt 0 view .LVU147
 412 00c4 2368     		ldr	r3, [r4]
 413              	.LVL31:
 414              	.L34:
 415              		.loc 1 453 3 is_stmt 1 view .LVU148
 416              		.loc 1 453 6 is_stmt 0 view .LVU149
 417 00c6 1A07     		lsls	r2, r3, #28
 418 00c8 19D5     		bpl	.L44
 419              	.L140:
 454:Drivers/STM32G4xx_HAL_Driver/Src/stm32g4xx_hal_rcc.c ****   {
 455:Drivers/STM32G4xx_HAL_Driver/Src/stm32g4xx_hal_rcc.c ****     /* Check the parameters */
 456:Drivers/STM32G4xx_HAL_Driver/Src/stm32g4xx_hal_rcc.c ****     assert_param(IS_RCC_LSI(RCC_OscInitStruct->LSIState));
 420              		.loc 1 456 5 is_stmt 1 view .LVU150
 457:Drivers/STM32G4xx_HAL_Driver/Src/stm32g4xx_hal_rcc.c **** 
 458:Drivers/STM32G4xx_HAL_Driver/Src/stm32g4xx_hal_rcc.c ****     /* Check the LSI State */
 459:Drivers/STM32G4xx_HAL_Driver/Src/stm32g4xx_hal_rcc.c ****     if(RCC_OscInitStruct->LSIState != RCC_LSI_OFF)
 421              		.loc 1 459 5 view .LVU151
 422              		.loc 1 459 7 is_stmt 0 view .LVU152
 423 00ca 6369     		ldr	r3, [r4, #20]
 460:Drivers/STM32G4xx_HAL_Driver/Src/stm32g4xx_hal_rcc.c ****     {
 461:Drivers/STM32G4xx_HAL_Driver/Src/stm32g4xx_hal_rcc.c ****       /* Enable the Internal Low Speed oscillator (LSI). */
 462:Drivers/STM32G4xx_HAL_Driver/Src/stm32g4xx_hal_rcc.c ****       __HAL_RCC_LSI_ENABLE();
 424              		.loc 1 462 7 view .LVU153
 425 00cc 814D     		ldr	r5, .L141
 459:Drivers/STM32G4xx_HAL_Driver/Src/stm32g4xx_hal_rcc.c ****     {
 426              		.loc 1 459 7 view .LVU154
 427 00ce 002B     		cmp	r3, #0
 428 00d0 00F09980 		beq	.L45
 429              		.loc 1 462 7 is_stmt 1 view .LVU155
 430 00d4 D5F89430 		ldr	r3, [r5, #148]
 431 00d8 43F00103 		orr	r3, r3, #1
 432 00dc C5F89430 		str	r3, [r5, #148]
 463:Drivers/STM32G4xx_HAL_Driver/Src/stm32g4xx_hal_rcc.c **** 
 464:Drivers/STM32G4xx_HAL_Driver/Src/stm32g4xx_hal_rcc.c ****       /* Get Start Tick*/
 465:Drivers/STM32G4xx_HAL_Driver/Src/stm32g4xx_hal_rcc.c ****       tickstart = HAL_GetTick();
 433              		.loc 1 465 7 view .LVU156
 434              		.loc 1 465 19 is_stmt 0 view .LVU157
 435 00e0 FFF7FEFF 		bl	HAL_GetTick
 436              	.LVL32:
 437 00e4 0646     		mov	r6, r0
 438              	.LVL33:
 466:Drivers/STM32G4xx_HAL_Driver/Src/stm32g4xx_hal_rcc.c **** 
 467:Drivers/STM32G4xx_HAL_Driver/Src/stm32g4xx_hal_rcc.c ****       /* Wait till LSI is ready */
 468:Drivers/STM32G4xx_HAL_Driver/Src/stm32g4xx_hal_rcc.c ****       while (READ_BIT(RCC->CSR, RCC_CSR_LSIRDY) == 0U)
 439              		.loc 1 468 7 is_stmt 1 view .LVU158
 440              		.loc 1 468 13 is_stmt 0 view .LVU159
 441 00e6 05E0     		b	.L46
 442              	.LVL34:
 443              	.L47:
 469:Drivers/STM32G4xx_HAL_Driver/Src/stm32g4xx_hal_rcc.c ****       {
 470:Drivers/STM32G4xx_HAL_Driver/Src/stm32g4xx_hal_rcc.c ****         if ((HAL_GetTick() - tickstart) > LSI_TIMEOUT_VALUE)
 444              		.loc 1 470 14 view .LVU160
 445 00e8 FFF7FEFF 		bl	HAL_GetTick
ARM GAS  /tmp/ccE4sfSH.s 			page 18


 446              	.LVL35:
 447              		.loc 1 470 28 view .LVU161
 448 00ec 801B     		subs	r0, r0, r6
 449              		.loc 1 470 12 view .LVU162
 450 00ee 0228     		cmp	r0, #2
 451 00f0 00F23981 		bhi	.L32
 452              	.L46:
 453              		.loc 1 470 9 is_stmt 1 view .LVU163
 468:Drivers/STM32G4xx_HAL_Driver/Src/stm32g4xx_hal_rcc.c ****       {
 454              		.loc 1 468 13 view .LVU164
 468:Drivers/STM32G4xx_HAL_Driver/Src/stm32g4xx_hal_rcc.c ****       {
 455              		.loc 1 468 14 is_stmt 0 view .LVU165
 456 00f4 D5F89430 		ldr	r3, [r5, #148]
 468:Drivers/STM32G4xx_HAL_Driver/Src/stm32g4xx_hal_rcc.c ****       {
 457              		.loc 1 468 13 view .LVU166
 458 00f8 9B07     		lsls	r3, r3, #30
 459 00fa F5D5     		bpl	.L47
 460              	.L130:
 471:Drivers/STM32G4xx_HAL_Driver/Src/stm32g4xx_hal_rcc.c ****         {
 472:Drivers/STM32G4xx_HAL_Driver/Src/stm32g4xx_hal_rcc.c ****           return HAL_TIMEOUT;
 473:Drivers/STM32G4xx_HAL_Driver/Src/stm32g4xx_hal_rcc.c ****         }
 474:Drivers/STM32G4xx_HAL_Driver/Src/stm32g4xx_hal_rcc.c ****       }
 475:Drivers/STM32G4xx_HAL_Driver/Src/stm32g4xx_hal_rcc.c ****     }
 476:Drivers/STM32G4xx_HAL_Driver/Src/stm32g4xx_hal_rcc.c ****     else
 477:Drivers/STM32G4xx_HAL_Driver/Src/stm32g4xx_hal_rcc.c ****     {
 478:Drivers/STM32G4xx_HAL_Driver/Src/stm32g4xx_hal_rcc.c ****       /* Disable the Internal Low Speed oscillator (LSI). */
 479:Drivers/STM32G4xx_HAL_Driver/Src/stm32g4xx_hal_rcc.c ****       __HAL_RCC_LSI_DISABLE();
 480:Drivers/STM32G4xx_HAL_Driver/Src/stm32g4xx_hal_rcc.c **** 
 481:Drivers/STM32G4xx_HAL_Driver/Src/stm32g4xx_hal_rcc.c ****       /* Get Start Tick*/
 482:Drivers/STM32G4xx_HAL_Driver/Src/stm32g4xx_hal_rcc.c ****       tickstart = HAL_GetTick();
 483:Drivers/STM32G4xx_HAL_Driver/Src/stm32g4xx_hal_rcc.c **** 
 484:Drivers/STM32G4xx_HAL_Driver/Src/stm32g4xx_hal_rcc.c ****       /* Wait till LSI is disabled */
 485:Drivers/STM32G4xx_HAL_Driver/Src/stm32g4xx_hal_rcc.c ****       while(READ_BIT(RCC->CSR, RCC_CSR_LSIRDY) != 0U)
 486:Drivers/STM32G4xx_HAL_Driver/Src/stm32g4xx_hal_rcc.c ****       {
 487:Drivers/STM32G4xx_HAL_Driver/Src/stm32g4xx_hal_rcc.c ****         if((HAL_GetTick() - tickstart) > LSI_TIMEOUT_VALUE)
 488:Drivers/STM32G4xx_HAL_Driver/Src/stm32g4xx_hal_rcc.c ****         {
 489:Drivers/STM32G4xx_HAL_Driver/Src/stm32g4xx_hal_rcc.c ****           return HAL_TIMEOUT;
 490:Drivers/STM32G4xx_HAL_Driver/Src/stm32g4xx_hal_rcc.c ****         }
 491:Drivers/STM32G4xx_HAL_Driver/Src/stm32g4xx_hal_rcc.c ****       }
 492:Drivers/STM32G4xx_HAL_Driver/Src/stm32g4xx_hal_rcc.c ****     }
 493:Drivers/STM32G4xx_HAL_Driver/Src/stm32g4xx_hal_rcc.c ****   }
 494:Drivers/STM32G4xx_HAL_Driver/Src/stm32g4xx_hal_rcc.c ****   /*------------------------------ LSE Configuration -------------------------*/
 495:Drivers/STM32G4xx_HAL_Driver/Src/stm32g4xx_hal_rcc.c ****   if (((RCC_OscInitStruct->OscillatorType) & RCC_OSCILLATORTYPE_LSE) == RCC_OSCILLATORTYPE_LSE)
 461              		.loc 1 495 26 view .LVU167
 462 00fc 2368     		ldr	r3, [r4]
 463              	.LVL36:
 464              	.L44:
 465              		.loc 1 495 3 is_stmt 1 view .LVU168
 466              		.loc 1 495 6 is_stmt 0 view .LVU169
 467 00fe 5E07     		lsls	r6, r3, #29
 468 0100 41D5     		bpl	.L50
 469              	.LBB6:
 496:Drivers/STM32G4xx_HAL_Driver/Src/stm32g4xx_hal_rcc.c ****   {
 497:Drivers/STM32G4xx_HAL_Driver/Src/stm32g4xx_hal_rcc.c ****     FlagStatus       pwrclkchanged = RESET;
 470              		.loc 1 497 5 is_stmt 1 view .LVU170
 471              	.LVL37:
 498:Drivers/STM32G4xx_HAL_Driver/Src/stm32g4xx_hal_rcc.c **** 
ARM GAS  /tmp/ccE4sfSH.s 			page 19


 499:Drivers/STM32G4xx_HAL_Driver/Src/stm32g4xx_hal_rcc.c ****     /* Check the parameters */
 500:Drivers/STM32G4xx_HAL_Driver/Src/stm32g4xx_hal_rcc.c ****     assert_param(IS_RCC_LSE(RCC_OscInitStruct->LSEState));
 472              		.loc 1 500 5 view .LVU171
 501:Drivers/STM32G4xx_HAL_Driver/Src/stm32g4xx_hal_rcc.c **** 
 502:Drivers/STM32G4xx_HAL_Driver/Src/stm32g4xx_hal_rcc.c ****     /* Update LSE configuration in Backup Domain control register    */
 503:Drivers/STM32G4xx_HAL_Driver/Src/stm32g4xx_hal_rcc.c ****     /* Requires to enable write access to Backup Domain if necessary */
 504:Drivers/STM32G4xx_HAL_Driver/Src/stm32g4xx_hal_rcc.c ****     if (__HAL_RCC_PWR_IS_CLK_DISABLED() != 0U)
 473              		.loc 1 504 5 view .LVU172
 474              		.loc 1 504 9 is_stmt 0 view .LVU173
 475 0102 744B     		ldr	r3, .L141
 476 0104 9A6D     		ldr	r2, [r3, #88]
 477              		.loc 1 504 41 view .LVU174
 478 0106 D500     		lsls	r5, r2, #3
 479 0108 00F13181 		bmi	.L85
 505:Drivers/STM32G4xx_HAL_Driver/Src/stm32g4xx_hal_rcc.c ****     {
 506:Drivers/STM32G4xx_HAL_Driver/Src/stm32g4xx_hal_rcc.c ****       __HAL_RCC_PWR_CLK_ENABLE();
 480              		.loc 1 506 7 is_stmt 1 view .LVU175
 481              	.LBB7:
 482              		.loc 1 506 7 view .LVU176
 483              		.loc 1 506 7 view .LVU177
 484 010c 9A6D     		ldr	r2, [r3, #88]
 485 010e 42F08052 		orr	r2, r2, #268435456
 486 0112 9A65     		str	r2, [r3, #88]
 487              		.loc 1 506 7 view .LVU178
 488 0114 9B6D     		ldr	r3, [r3, #88]
 489 0116 03F08053 		and	r3, r3, #268435456
 490 011a 0193     		str	r3, [sp, #4]
 491              		.loc 1 506 7 view .LVU179
 492 011c 019B     		ldr	r3, [sp, #4]
 493              	.LBE7:
 494              		.loc 1 506 7 view .LVU180
 507:Drivers/STM32G4xx_HAL_Driver/Src/stm32g4xx_hal_rcc.c ****       pwrclkchanged = SET;
 495              		.loc 1 507 7 view .LVU181
 496              	.LVL38:
 497              		.loc 1 507 21 is_stmt 0 view .LVU182
 498 011e 0125     		movs	r5, #1
 499              	.LVL39:
 500              	.L51:
 508:Drivers/STM32G4xx_HAL_Driver/Src/stm32g4xx_hal_rcc.c ****     }
 509:Drivers/STM32G4xx_HAL_Driver/Src/stm32g4xx_hal_rcc.c **** 
 510:Drivers/STM32G4xx_HAL_Driver/Src/stm32g4xx_hal_rcc.c ****     if (HAL_IS_BIT_CLR(PWR->CR1, PWR_CR1_DBP))
 501              		.loc 1 510 5 is_stmt 1 view .LVU183
 502              		.loc 1 510 9 is_stmt 0 view .LVU184
 503 0120 6D4E     		ldr	r6, .L141+4
 504 0122 3368     		ldr	r3, [r6]
 505              		.loc 1 510 8 view .LVU185
 506 0124 D805     		lsls	r0, r3, #23
 507 0126 40F15081 		bpl	.L52
 508              	.L57:
 511:Drivers/STM32G4xx_HAL_Driver/Src/stm32g4xx_hal_rcc.c ****     {
 512:Drivers/STM32G4xx_HAL_Driver/Src/stm32g4xx_hal_rcc.c ****       /* Enable write access to Backup domain */
 513:Drivers/STM32G4xx_HAL_Driver/Src/stm32g4xx_hal_rcc.c ****       SET_BIT(PWR->CR1, PWR_CR1_DBP);
 514:Drivers/STM32G4xx_HAL_Driver/Src/stm32g4xx_hal_rcc.c **** 
 515:Drivers/STM32G4xx_HAL_Driver/Src/stm32g4xx_hal_rcc.c ****       /* Wait for Backup domain Write protection disable */
 516:Drivers/STM32G4xx_HAL_Driver/Src/stm32g4xx_hal_rcc.c ****       tickstart = HAL_GetTick();
 517:Drivers/STM32G4xx_HAL_Driver/Src/stm32g4xx_hal_rcc.c **** 
 518:Drivers/STM32G4xx_HAL_Driver/Src/stm32g4xx_hal_rcc.c ****       while (HAL_IS_BIT_CLR(PWR->CR1, PWR_CR1_DBP))
ARM GAS  /tmp/ccE4sfSH.s 			page 20


 519:Drivers/STM32G4xx_HAL_Driver/Src/stm32g4xx_hal_rcc.c ****       {
 520:Drivers/STM32G4xx_HAL_Driver/Src/stm32g4xx_hal_rcc.c ****         if ((HAL_GetTick() - tickstart) > RCC_DBP_TIMEOUT_VALUE)
 521:Drivers/STM32G4xx_HAL_Driver/Src/stm32g4xx_hal_rcc.c ****         {
 522:Drivers/STM32G4xx_HAL_Driver/Src/stm32g4xx_hal_rcc.c ****           return HAL_TIMEOUT;
 523:Drivers/STM32G4xx_HAL_Driver/Src/stm32g4xx_hal_rcc.c ****         }
 524:Drivers/STM32G4xx_HAL_Driver/Src/stm32g4xx_hal_rcc.c ****       }
 525:Drivers/STM32G4xx_HAL_Driver/Src/stm32g4xx_hal_rcc.c ****     }
 526:Drivers/STM32G4xx_HAL_Driver/Src/stm32g4xx_hal_rcc.c **** 
 527:Drivers/STM32G4xx_HAL_Driver/Src/stm32g4xx_hal_rcc.c ****     /* Set the new LSE configuration -----------------------------------------*/
 528:Drivers/STM32G4xx_HAL_Driver/Src/stm32g4xx_hal_rcc.c ****     __HAL_RCC_LSE_CONFIG(RCC_OscInitStruct->LSEState);
 509              		.loc 1 528 5 is_stmt 1 view .LVU186
 510              		.loc 1 528 5 view .LVU187
 511 012a A368     		ldr	r3, [r4, #8]
 512 012c 012B     		cmp	r3, #1
 513 012e 00F02081 		beq	.L137
 514              		.loc 1 528 5 discriminator 2 view .LVU188
 515 0132 052B     		cmp	r3, #5
 516 0134 00F06981 		beq	.L138
 517              		.loc 1 528 5 discriminator 5 view .LVU189
 518 0138 664E     		ldr	r6, .L141
 519 013a D6F89020 		ldr	r2, [r6, #144]
 520 013e 22F00102 		bic	r2, r2, #1
 521 0142 C6F89020 		str	r2, [r6, #144]
 522              		.loc 1 528 5 discriminator 5 view .LVU190
 523 0146 D6F89020 		ldr	r2, [r6, #144]
 524 014a 22F00402 		bic	r2, r2, #4
 525 014e C6F89020 		str	r2, [r6, #144]
 526              		.loc 1 528 5 discriminator 5 view .LVU191
 529:Drivers/STM32G4xx_HAL_Driver/Src/stm32g4xx_hal_rcc.c **** 
 530:Drivers/STM32G4xx_HAL_Driver/Src/stm32g4xx_hal_rcc.c ****     /* Check the LSE State */
 531:Drivers/STM32G4xx_HAL_Driver/Src/stm32g4xx_hal_rcc.c ****     if (RCC_OscInitStruct->LSEState != RCC_LSE_OFF)
 527              		.loc 1 531 5 discriminator 5 view .LVU192
 528              		.loc 1 531 8 is_stmt 0 discriminator 5 view .LVU193
 529 0152 002B     		cmp	r3, #0
 530 0154 40F01481 		bne	.L58
 532:Drivers/STM32G4xx_HAL_Driver/Src/stm32g4xx_hal_rcc.c ****     {
 533:Drivers/STM32G4xx_HAL_Driver/Src/stm32g4xx_hal_rcc.c ****       /* Get Start Tick*/
 534:Drivers/STM32G4xx_HAL_Driver/Src/stm32g4xx_hal_rcc.c ****       tickstart = HAL_GetTick();
 535:Drivers/STM32G4xx_HAL_Driver/Src/stm32g4xx_hal_rcc.c **** 
 536:Drivers/STM32G4xx_HAL_Driver/Src/stm32g4xx_hal_rcc.c ****       /* Wait till LSE is ready */
 537:Drivers/STM32G4xx_HAL_Driver/Src/stm32g4xx_hal_rcc.c ****       while (READ_BIT(RCC->BDCR, RCC_BDCR_LSERDY) == 0U)
 538:Drivers/STM32G4xx_HAL_Driver/Src/stm32g4xx_hal_rcc.c ****       {
 539:Drivers/STM32G4xx_HAL_Driver/Src/stm32g4xx_hal_rcc.c ****         if((HAL_GetTick() - tickstart) > RCC_LSE_TIMEOUT_VALUE)
 540:Drivers/STM32G4xx_HAL_Driver/Src/stm32g4xx_hal_rcc.c ****         {
 541:Drivers/STM32G4xx_HAL_Driver/Src/stm32g4xx_hal_rcc.c ****           return HAL_TIMEOUT;
 542:Drivers/STM32G4xx_HAL_Driver/Src/stm32g4xx_hal_rcc.c ****         }
 543:Drivers/STM32G4xx_HAL_Driver/Src/stm32g4xx_hal_rcc.c ****       }
 544:Drivers/STM32G4xx_HAL_Driver/Src/stm32g4xx_hal_rcc.c ****     }
 545:Drivers/STM32G4xx_HAL_Driver/Src/stm32g4xx_hal_rcc.c ****     else
 546:Drivers/STM32G4xx_HAL_Driver/Src/stm32g4xx_hal_rcc.c ****     {
 547:Drivers/STM32G4xx_HAL_Driver/Src/stm32g4xx_hal_rcc.c ****       /* Get Start Tick*/
 548:Drivers/STM32G4xx_HAL_Driver/Src/stm32g4xx_hal_rcc.c ****       tickstart = HAL_GetTick();
 531              		.loc 1 548 7 is_stmt 1 view .LVU194
 532              		.loc 1 548 19 is_stmt 0 view .LVU195
 533 0158 FFF7FEFF 		bl	HAL_GetTick
 534              	.LVL40:
 549:Drivers/STM32G4xx_HAL_Driver/Src/stm32g4xx_hal_rcc.c **** 
ARM GAS  /tmp/ccE4sfSH.s 			page 21


 550:Drivers/STM32G4xx_HAL_Driver/Src/stm32g4xx_hal_rcc.c ****       /* Wait till LSE is disabled */
 551:Drivers/STM32G4xx_HAL_Driver/Src/stm32g4xx_hal_rcc.c ****       while (READ_BIT(RCC->BDCR, RCC_BDCR_LSERDY) != 0U)
 552:Drivers/STM32G4xx_HAL_Driver/Src/stm32g4xx_hal_rcc.c ****       {
 553:Drivers/STM32G4xx_HAL_Driver/Src/stm32g4xx_hal_rcc.c ****         if((HAL_GetTick() - tickstart) > RCC_LSE_TIMEOUT_VALUE)
 535              		.loc 1 553 11 view .LVU196
 536 015c 41F28838 		movw	r8, #5000
 548:Drivers/STM32G4xx_HAL_Driver/Src/stm32g4xx_hal_rcc.c **** 
 537              		.loc 1 548 19 view .LVU197
 538 0160 0746     		mov	r7, r0
 539              	.LVL41:
 551:Drivers/STM32G4xx_HAL_Driver/Src/stm32g4xx_hal_rcc.c ****       {
 540              		.loc 1 551 7 is_stmt 1 view .LVU198
 551:Drivers/STM32G4xx_HAL_Driver/Src/stm32g4xx_hal_rcc.c ****       {
 541              		.loc 1 551 13 is_stmt 0 view .LVU199
 542 0162 05E0     		b	.L65
 543              	.LVL42:
 544              	.L66:
 545              		.loc 1 553 13 view .LVU200
 546 0164 FFF7FEFF 		bl	HAL_GetTick
 547              	.LVL43:
 548              		.loc 1 553 27 view .LVU201
 549 0168 C01B     		subs	r0, r0, r7
 550              		.loc 1 553 11 view .LVU202
 551 016a 4045     		cmp	r0, r8
 552 016c 00F2FB80 		bhi	.L32
 553              	.L65:
 554              		.loc 1 553 9 is_stmt 1 view .LVU203
 551:Drivers/STM32G4xx_HAL_Driver/Src/stm32g4xx_hal_rcc.c ****       {
 555              		.loc 1 551 13 view .LVU204
 551:Drivers/STM32G4xx_HAL_Driver/Src/stm32g4xx_hal_rcc.c ****       {
 556              		.loc 1 551 14 is_stmt 0 view .LVU205
 557 0170 D6F89030 		ldr	r3, [r6, #144]
 551:Drivers/STM32G4xx_HAL_Driver/Src/stm32g4xx_hal_rcc.c ****       {
 558              		.loc 1 551 13 view .LVU206
 559 0174 9B07     		lsls	r3, r3, #30
 560 0176 F5D4     		bmi	.L66
 561              	.LVL44:
 562              	.L67:
 554:Drivers/STM32G4xx_HAL_Driver/Src/stm32g4xx_hal_rcc.c ****         {
 555:Drivers/STM32G4xx_HAL_Driver/Src/stm32g4xx_hal_rcc.c ****           return HAL_TIMEOUT;
 556:Drivers/STM32G4xx_HAL_Driver/Src/stm32g4xx_hal_rcc.c ****         }
 557:Drivers/STM32G4xx_HAL_Driver/Src/stm32g4xx_hal_rcc.c ****       }
 558:Drivers/STM32G4xx_HAL_Driver/Src/stm32g4xx_hal_rcc.c ****     }
 559:Drivers/STM32G4xx_HAL_Driver/Src/stm32g4xx_hal_rcc.c **** 
 560:Drivers/STM32G4xx_HAL_Driver/Src/stm32g4xx_hal_rcc.c ****     /* Restore clock configuration if changed */
 561:Drivers/STM32G4xx_HAL_Driver/Src/stm32g4xx_hal_rcc.c ****     if (pwrclkchanged == SET)
 563              		.loc 1 561 5 is_stmt 1 view .LVU207
 564              		.loc 1 561 8 is_stmt 0 view .LVU208
 565 0178 25B1     		cbz	r5, .L131
 562:Drivers/STM32G4xx_HAL_Driver/Src/stm32g4xx_hal_rcc.c ****     {
 563:Drivers/STM32G4xx_HAL_Driver/Src/stm32g4xx_hal_rcc.c ****       __HAL_RCC_PWR_CLK_DISABLE();
 566              		.loc 1 563 7 is_stmt 1 view .LVU209
 567 017a 564A     		ldr	r2, .L141
 568 017c 936D     		ldr	r3, [r2, #88]
 569 017e 23F08053 		bic	r3, r3, #268435456
 570 0182 9365     		str	r3, [r2, #88]
 571              	.L131:
ARM GAS  /tmp/ccE4sfSH.s 			page 22


 572              	.LBE6:
 564:Drivers/STM32G4xx_HAL_Driver/Src/stm32g4xx_hal_rcc.c ****     }
 565:Drivers/STM32G4xx_HAL_Driver/Src/stm32g4xx_hal_rcc.c ****   }
 566:Drivers/STM32G4xx_HAL_Driver/Src/stm32g4xx_hal_rcc.c **** 
 567:Drivers/STM32G4xx_HAL_Driver/Src/stm32g4xx_hal_rcc.c ****   /*------------------------------ HSI48 Configuration -----------------------*/
 568:Drivers/STM32G4xx_HAL_Driver/Src/stm32g4xx_hal_rcc.c ****   if(((RCC_OscInitStruct->OscillatorType) & RCC_OSCILLATORTYPE_HSI48) == RCC_OSCILLATORTYPE_HSI48)
 573              		.loc 1 568 25 is_stmt 0 view .LVU210
 574 0184 2368     		ldr	r3, [r4]
 575              	.LVL45:
 576              	.L50:
 577              		.loc 1 568 3 is_stmt 1 view .LVU211
 578              		.loc 1 568 5 is_stmt 0 view .LVU212
 579 0186 9D06     		lsls	r5, r3, #26
 580 0188 18D5     		bpl	.L74
 569:Drivers/STM32G4xx_HAL_Driver/Src/stm32g4xx_hal_rcc.c ****   {
 570:Drivers/STM32G4xx_HAL_Driver/Src/stm32g4xx_hal_rcc.c ****     /* Check the parameters */
 571:Drivers/STM32G4xx_HAL_Driver/Src/stm32g4xx_hal_rcc.c ****     assert_param(IS_RCC_HSI48(RCC_OscInitStruct->HSI48State));
 581              		.loc 1 571 5 is_stmt 1 view .LVU213
 572:Drivers/STM32G4xx_HAL_Driver/Src/stm32g4xx_hal_rcc.c **** 
 573:Drivers/STM32G4xx_HAL_Driver/Src/stm32g4xx_hal_rcc.c ****     /* Check the HSI48 State */
 574:Drivers/STM32G4xx_HAL_Driver/Src/stm32g4xx_hal_rcc.c ****     if(RCC_OscInitStruct->HSI48State != RCC_HSI48_OFF)
 582              		.loc 1 574 5 view .LVU214
 583              		.loc 1 574 7 is_stmt 0 view .LVU215
 584 018a A369     		ldr	r3, [r4, #24]
 575:Drivers/STM32G4xx_HAL_Driver/Src/stm32g4xx_hal_rcc.c ****     {
 576:Drivers/STM32G4xx_HAL_Driver/Src/stm32g4xx_hal_rcc.c ****       /* Enable the Internal Low Speed oscillator (HSI48). */
 577:Drivers/STM32G4xx_HAL_Driver/Src/stm32g4xx_hal_rcc.c ****       __HAL_RCC_HSI48_ENABLE();
 585              		.loc 1 577 7 view .LVU216
 586 018c 514D     		ldr	r5, .L141
 574:Drivers/STM32G4xx_HAL_Driver/Src/stm32g4xx_hal_rcc.c ****     {
 587              		.loc 1 574 7 view .LVU217
 588 018e 002B     		cmp	r3, #0
 589 0190 00F00781 		beq	.L71
 590              		.loc 1 577 7 is_stmt 1 view .LVU218
 591 0194 D5F89830 		ldr	r3, [r5, #152]
 592 0198 43F00103 		orr	r3, r3, #1
 593 019c C5F89830 		str	r3, [r5, #152]
 578:Drivers/STM32G4xx_HAL_Driver/Src/stm32g4xx_hal_rcc.c **** 
 579:Drivers/STM32G4xx_HAL_Driver/Src/stm32g4xx_hal_rcc.c ****       /* Get Start Tick*/
 580:Drivers/STM32G4xx_HAL_Driver/Src/stm32g4xx_hal_rcc.c ****       tickstart = HAL_GetTick();
 594              		.loc 1 580 7 view .LVU219
 595              		.loc 1 580 19 is_stmt 0 view .LVU220
 596 01a0 FFF7FEFF 		bl	HAL_GetTick
 597              	.LVL46:
 598 01a4 0646     		mov	r6, r0
 599              	.LVL47:
 581:Drivers/STM32G4xx_HAL_Driver/Src/stm32g4xx_hal_rcc.c **** 
 582:Drivers/STM32G4xx_HAL_Driver/Src/stm32g4xx_hal_rcc.c ****       /* Wait till HSI48 is ready */
 583:Drivers/STM32G4xx_HAL_Driver/Src/stm32g4xx_hal_rcc.c ****       while(READ_BIT(RCC->CRRCR, RCC_CRRCR_HSI48RDY) == 0U)
 600              		.loc 1 583 7 is_stmt 1 view .LVU221
 601              		.loc 1 583 12 is_stmt 0 view .LVU222
 602 01a6 05E0     		b	.L72
 603              	.LVL48:
 604              	.L73:
 584:Drivers/STM32G4xx_HAL_Driver/Src/stm32g4xx_hal_rcc.c ****       {
 585:Drivers/STM32G4xx_HAL_Driver/Src/stm32g4xx_hal_rcc.c ****         if((HAL_GetTick() - tickstart) > HSI48_TIMEOUT_VALUE)
 605              		.loc 1 585 13 view .LVU223
ARM GAS  /tmp/ccE4sfSH.s 			page 23


 606 01a8 FFF7FEFF 		bl	HAL_GetTick
 607              	.LVL49:
 608              		.loc 1 585 27 view .LVU224
 609 01ac 801B     		subs	r0, r0, r6
 610              		.loc 1 585 11 view .LVU225
 611 01ae 0228     		cmp	r0, #2
 612 01b0 00F2D980 		bhi	.L32
 613              	.L72:
 614              		.loc 1 585 9 is_stmt 1 view .LVU226
 583:Drivers/STM32G4xx_HAL_Driver/Src/stm32g4xx_hal_rcc.c ****       {
 615              		.loc 1 583 12 view .LVU227
 583:Drivers/STM32G4xx_HAL_Driver/Src/stm32g4xx_hal_rcc.c ****       {
 616              		.loc 1 583 13 is_stmt 0 view .LVU228
 617 01b4 D5F89830 		ldr	r3, [r5, #152]
 583:Drivers/STM32G4xx_HAL_Driver/Src/stm32g4xx_hal_rcc.c ****       {
 618              		.loc 1 583 12 view .LVU229
 619 01b8 9807     		lsls	r0, r3, #30
 620 01ba F5D5     		bpl	.L73
 621              	.LVL50:
 622              	.L74:
 586:Drivers/STM32G4xx_HAL_Driver/Src/stm32g4xx_hal_rcc.c ****         {
 587:Drivers/STM32G4xx_HAL_Driver/Src/stm32g4xx_hal_rcc.c ****           return HAL_TIMEOUT;
 588:Drivers/STM32G4xx_HAL_Driver/Src/stm32g4xx_hal_rcc.c ****         }
 589:Drivers/STM32G4xx_HAL_Driver/Src/stm32g4xx_hal_rcc.c ****       }
 590:Drivers/STM32G4xx_HAL_Driver/Src/stm32g4xx_hal_rcc.c ****     }
 591:Drivers/STM32G4xx_HAL_Driver/Src/stm32g4xx_hal_rcc.c ****     else
 592:Drivers/STM32G4xx_HAL_Driver/Src/stm32g4xx_hal_rcc.c ****     {
 593:Drivers/STM32G4xx_HAL_Driver/Src/stm32g4xx_hal_rcc.c ****       /* Disable the Internal Low Speed oscillator (HSI48). */
 594:Drivers/STM32G4xx_HAL_Driver/Src/stm32g4xx_hal_rcc.c ****       __HAL_RCC_HSI48_DISABLE();
 595:Drivers/STM32G4xx_HAL_Driver/Src/stm32g4xx_hal_rcc.c **** 
 596:Drivers/STM32G4xx_HAL_Driver/Src/stm32g4xx_hal_rcc.c ****       /* Get Start Tick*/
 597:Drivers/STM32G4xx_HAL_Driver/Src/stm32g4xx_hal_rcc.c ****       tickstart = HAL_GetTick();
 598:Drivers/STM32G4xx_HAL_Driver/Src/stm32g4xx_hal_rcc.c **** 
 599:Drivers/STM32G4xx_HAL_Driver/Src/stm32g4xx_hal_rcc.c ****       /* Wait till HSI48 is disabled */
 600:Drivers/STM32G4xx_HAL_Driver/Src/stm32g4xx_hal_rcc.c ****       while(READ_BIT(RCC->CRRCR, RCC_CRRCR_HSI48RDY) != 0U)
 601:Drivers/STM32G4xx_HAL_Driver/Src/stm32g4xx_hal_rcc.c ****       {
 602:Drivers/STM32G4xx_HAL_Driver/Src/stm32g4xx_hal_rcc.c ****         if((HAL_GetTick() - tickstart) > HSI48_TIMEOUT_VALUE)
 603:Drivers/STM32G4xx_HAL_Driver/Src/stm32g4xx_hal_rcc.c ****         {
 604:Drivers/STM32G4xx_HAL_Driver/Src/stm32g4xx_hal_rcc.c ****           return HAL_TIMEOUT;
 605:Drivers/STM32G4xx_HAL_Driver/Src/stm32g4xx_hal_rcc.c ****         }
 606:Drivers/STM32G4xx_HAL_Driver/Src/stm32g4xx_hal_rcc.c ****       }
 607:Drivers/STM32G4xx_HAL_Driver/Src/stm32g4xx_hal_rcc.c ****     }
 608:Drivers/STM32G4xx_HAL_Driver/Src/stm32g4xx_hal_rcc.c ****   }
 609:Drivers/STM32G4xx_HAL_Driver/Src/stm32g4xx_hal_rcc.c **** 
 610:Drivers/STM32G4xx_HAL_Driver/Src/stm32g4xx_hal_rcc.c ****   /*-------------------------------- PLL Configuration -----------------------*/
 611:Drivers/STM32G4xx_HAL_Driver/Src/stm32g4xx_hal_rcc.c ****   /* Check the parameters */
 612:Drivers/STM32G4xx_HAL_Driver/Src/stm32g4xx_hal_rcc.c ****   assert_param(IS_RCC_PLL(RCC_OscInitStruct->PLL.PLLState));
 623              		.loc 1 612 3 is_stmt 1 view .LVU230
 613:Drivers/STM32G4xx_HAL_Driver/Src/stm32g4xx_hal_rcc.c **** 
 614:Drivers/STM32G4xx_HAL_Driver/Src/stm32g4xx_hal_rcc.c ****   if (RCC_OscInitStruct->PLL.PLLState != RCC_PLL_NONE)
 624              		.loc 1 614 3 view .LVU231
 625              		.loc 1 614 29 is_stmt 0 view .LVU232
 626 01bc E069     		ldr	r0, [r4, #28]
 627              		.loc 1 614 6 view .LVU233
 628 01be 0028     		cmp	r0, #0
 629 01c0 00F08380 		beq	.L70
 615:Drivers/STM32G4xx_HAL_Driver/Src/stm32g4xx_hal_rcc.c ****   {
ARM GAS  /tmp/ccE4sfSH.s 			page 24


 616:Drivers/STM32G4xx_HAL_Driver/Src/stm32g4xx_hal_rcc.c ****     /* Check if the PLL is used as system clock or not */
 617:Drivers/STM32G4xx_HAL_Driver/Src/stm32g4xx_hal_rcc.c ****     if (__HAL_RCC_GET_SYSCLK_SOURCE() != RCC_CFGR_SWS_PLL)
 630              		.loc 1 617 5 is_stmt 1 view .LVU234
 631              		.loc 1 617 9 is_stmt 0 view .LVU235
 632 01c4 434D     		ldr	r5, .L141
 633 01c6 AB68     		ldr	r3, [r5, #8]
 634 01c8 03F00C03 		and	r3, r3, #12
 635              		.loc 1 617 8 view .LVU236
 636 01cc 0C2B     		cmp	r3, #12
 637 01ce 00F02A81 		beq	.L77
 618:Drivers/STM32G4xx_HAL_Driver/Src/stm32g4xx_hal_rcc.c ****     {
 619:Drivers/STM32G4xx_HAL_Driver/Src/stm32g4xx_hal_rcc.c ****       if (RCC_OscInitStruct->PLL.PLLState == RCC_PLL_ON)
 638              		.loc 1 619 7 is_stmt 1 view .LVU237
 620:Drivers/STM32G4xx_HAL_Driver/Src/stm32g4xx_hal_rcc.c ****       {
 621:Drivers/STM32G4xx_HAL_Driver/Src/stm32g4xx_hal_rcc.c ****         /* Check the parameters */
 622:Drivers/STM32G4xx_HAL_Driver/Src/stm32g4xx_hal_rcc.c ****         assert_param(IS_RCC_PLLSOURCE(RCC_OscInitStruct->PLL.PLLSource));
 623:Drivers/STM32G4xx_HAL_Driver/Src/stm32g4xx_hal_rcc.c ****         assert_param(IS_RCC_PLLM_VALUE(RCC_OscInitStruct->PLL.PLLM));
 624:Drivers/STM32G4xx_HAL_Driver/Src/stm32g4xx_hal_rcc.c ****         assert_param(IS_RCC_PLLN_VALUE(RCC_OscInitStruct->PLL.PLLN));
 625:Drivers/STM32G4xx_HAL_Driver/Src/stm32g4xx_hal_rcc.c ****         assert_param(IS_RCC_PLLP_VALUE(RCC_OscInitStruct->PLL.PLLP));
 626:Drivers/STM32G4xx_HAL_Driver/Src/stm32g4xx_hal_rcc.c ****         assert_param(IS_RCC_PLLQ_VALUE(RCC_OscInitStruct->PLL.PLLQ));
 627:Drivers/STM32G4xx_HAL_Driver/Src/stm32g4xx_hal_rcc.c ****         assert_param(IS_RCC_PLLR_VALUE(RCC_OscInitStruct->PLL.PLLR));
 628:Drivers/STM32G4xx_HAL_Driver/Src/stm32g4xx_hal_rcc.c **** 
 629:Drivers/STM32G4xx_HAL_Driver/Src/stm32g4xx_hal_rcc.c ****         /* Disable the main PLL. */
 630:Drivers/STM32G4xx_HAL_Driver/Src/stm32g4xx_hal_rcc.c ****         __HAL_RCC_PLL_DISABLE();
 639              		.loc 1 630 9 is_stmt 0 view .LVU238
 640 01d2 2B68     		ldr	r3, [r5]
 619:Drivers/STM32G4xx_HAL_Driver/Src/stm32g4xx_hal_rcc.c ****       {
 641              		.loc 1 619 10 view .LVU239
 642 01d4 0228     		cmp	r0, #2
 643              		.loc 1 630 9 view .LVU240
 644 01d6 23F08073 		bic	r3, r3, #16777216
 645 01da 2B60     		str	r3, [r5]
 619:Drivers/STM32G4xx_HAL_Driver/Src/stm32g4xx_hal_rcc.c ****       {
 646              		.loc 1 619 10 view .LVU241
 647 01dc 3AD0     		beq	.L139
 631:Drivers/STM32G4xx_HAL_Driver/Src/stm32g4xx_hal_rcc.c **** 
 632:Drivers/STM32G4xx_HAL_Driver/Src/stm32g4xx_hal_rcc.c ****         /* Get Start Tick*/
 633:Drivers/STM32G4xx_HAL_Driver/Src/stm32g4xx_hal_rcc.c ****         tickstart = HAL_GetTick();
 634:Drivers/STM32G4xx_HAL_Driver/Src/stm32g4xx_hal_rcc.c **** 
 635:Drivers/STM32G4xx_HAL_Driver/Src/stm32g4xx_hal_rcc.c ****         /* Wait till PLL is disabled */
 636:Drivers/STM32G4xx_HAL_Driver/Src/stm32g4xx_hal_rcc.c ****         while (READ_BIT(RCC->CR, RCC_CR_PLLRDY) != 0U)
 637:Drivers/STM32G4xx_HAL_Driver/Src/stm32g4xx_hal_rcc.c ****         {
 638:Drivers/STM32G4xx_HAL_Driver/Src/stm32g4xx_hal_rcc.c ****           if ((HAL_GetTick() - tickstart) > PLL_TIMEOUT_VALUE)
 639:Drivers/STM32G4xx_HAL_Driver/Src/stm32g4xx_hal_rcc.c ****           {
 640:Drivers/STM32G4xx_HAL_Driver/Src/stm32g4xx_hal_rcc.c ****             return HAL_TIMEOUT;
 641:Drivers/STM32G4xx_HAL_Driver/Src/stm32g4xx_hal_rcc.c ****           }
 642:Drivers/STM32G4xx_HAL_Driver/Src/stm32g4xx_hal_rcc.c ****         }
 643:Drivers/STM32G4xx_HAL_Driver/Src/stm32g4xx_hal_rcc.c **** 
 644:Drivers/STM32G4xx_HAL_Driver/Src/stm32g4xx_hal_rcc.c ****         /* Configure the main PLL clock source, multiplication and division factors. */
 645:Drivers/STM32G4xx_HAL_Driver/Src/stm32g4xx_hal_rcc.c ****         __HAL_RCC_PLL_CONFIG(RCC_OscInitStruct->PLL.PLLSource,
 646:Drivers/STM32G4xx_HAL_Driver/Src/stm32g4xx_hal_rcc.c ****                              RCC_OscInitStruct->PLL.PLLM,
 647:Drivers/STM32G4xx_HAL_Driver/Src/stm32g4xx_hal_rcc.c ****                              RCC_OscInitStruct->PLL.PLLN,
 648:Drivers/STM32G4xx_HAL_Driver/Src/stm32g4xx_hal_rcc.c ****                              RCC_OscInitStruct->PLL.PLLP,
 649:Drivers/STM32G4xx_HAL_Driver/Src/stm32g4xx_hal_rcc.c ****                              RCC_OscInitStruct->PLL.PLLQ,
 650:Drivers/STM32G4xx_HAL_Driver/Src/stm32g4xx_hal_rcc.c ****                              RCC_OscInitStruct->PLL.PLLR);
 651:Drivers/STM32G4xx_HAL_Driver/Src/stm32g4xx_hal_rcc.c **** 
 652:Drivers/STM32G4xx_HAL_Driver/Src/stm32g4xx_hal_rcc.c ****         /* Enable the main PLL. */
ARM GAS  /tmp/ccE4sfSH.s 			page 25


 653:Drivers/STM32G4xx_HAL_Driver/Src/stm32g4xx_hal_rcc.c ****         __HAL_RCC_PLL_ENABLE();
 654:Drivers/STM32G4xx_HAL_Driver/Src/stm32g4xx_hal_rcc.c **** 
 655:Drivers/STM32G4xx_HAL_Driver/Src/stm32g4xx_hal_rcc.c ****         /* Enable PLL System Clock output. */
 656:Drivers/STM32G4xx_HAL_Driver/Src/stm32g4xx_hal_rcc.c ****          __HAL_RCC_PLLCLKOUT_ENABLE(RCC_PLL_SYSCLK);
 657:Drivers/STM32G4xx_HAL_Driver/Src/stm32g4xx_hal_rcc.c **** 
 658:Drivers/STM32G4xx_HAL_Driver/Src/stm32g4xx_hal_rcc.c ****         /* Get Start Tick*/
 659:Drivers/STM32G4xx_HAL_Driver/Src/stm32g4xx_hal_rcc.c ****         tickstart = HAL_GetTick();
 660:Drivers/STM32G4xx_HAL_Driver/Src/stm32g4xx_hal_rcc.c **** 
 661:Drivers/STM32G4xx_HAL_Driver/Src/stm32g4xx_hal_rcc.c ****         /* Wait till PLL is ready */
 662:Drivers/STM32G4xx_HAL_Driver/Src/stm32g4xx_hal_rcc.c ****         while (READ_BIT(RCC->CR, RCC_CR_PLLRDY) == 0U)
 663:Drivers/STM32G4xx_HAL_Driver/Src/stm32g4xx_hal_rcc.c ****         {
 664:Drivers/STM32G4xx_HAL_Driver/Src/stm32g4xx_hal_rcc.c ****           if ((HAL_GetTick() - tickstart) > PLL_TIMEOUT_VALUE)
 665:Drivers/STM32G4xx_HAL_Driver/Src/stm32g4xx_hal_rcc.c ****           {
 666:Drivers/STM32G4xx_HAL_Driver/Src/stm32g4xx_hal_rcc.c ****             return HAL_TIMEOUT;
 667:Drivers/STM32G4xx_HAL_Driver/Src/stm32g4xx_hal_rcc.c ****           }
 668:Drivers/STM32G4xx_HAL_Driver/Src/stm32g4xx_hal_rcc.c ****         }
 669:Drivers/STM32G4xx_HAL_Driver/Src/stm32g4xx_hal_rcc.c ****       }
 670:Drivers/STM32G4xx_HAL_Driver/Src/stm32g4xx_hal_rcc.c ****       else
 671:Drivers/STM32G4xx_HAL_Driver/Src/stm32g4xx_hal_rcc.c ****       {
 672:Drivers/STM32G4xx_HAL_Driver/Src/stm32g4xx_hal_rcc.c ****         /* Disable the main PLL. */
 673:Drivers/STM32G4xx_HAL_Driver/Src/stm32g4xx_hal_rcc.c ****         __HAL_RCC_PLL_DISABLE();
 648              		.loc 1 673 9 is_stmt 1 view .LVU242
 674:Drivers/STM32G4xx_HAL_Driver/Src/stm32g4xx_hal_rcc.c **** 
 675:Drivers/STM32G4xx_HAL_Driver/Src/stm32g4xx_hal_rcc.c ****         /* Get Start Tick*/
 676:Drivers/STM32G4xx_HAL_Driver/Src/stm32g4xx_hal_rcc.c ****         tickstart = HAL_GetTick();
 649              		.loc 1 676 9 view .LVU243
 650              		.loc 1 676 21 is_stmt 0 view .LVU244
 651 01de FFF7FEFF 		bl	HAL_GetTick
 652              	.LVL51:
 653 01e2 0446     		mov	r4, r0
 654              	.LVL52:
 677:Drivers/STM32G4xx_HAL_Driver/Src/stm32g4xx_hal_rcc.c **** 
 678:Drivers/STM32G4xx_HAL_Driver/Src/stm32g4xx_hal_rcc.c ****         /* Wait till PLL is disabled */
 679:Drivers/STM32G4xx_HAL_Driver/Src/stm32g4xx_hal_rcc.c ****         while (READ_BIT(RCC->CR, RCC_CR_PLLRDY) != 0U)
 655              		.loc 1 679 9 is_stmt 1 view .LVU245
 656              		.loc 1 679 15 is_stmt 0 view .LVU246
 657 01e4 05E0     		b	.L83
 658              	.LVL53:
 659              	.L84:
 680:Drivers/STM32G4xx_HAL_Driver/Src/stm32g4xx_hal_rcc.c ****         {
 681:Drivers/STM32G4xx_HAL_Driver/Src/stm32g4xx_hal_rcc.c ****           if ((HAL_GetTick() - tickstart) > PLL_TIMEOUT_VALUE)
 660              		.loc 1 681 16 view .LVU247
 661 01e6 FFF7FEFF 		bl	HAL_GetTick
 662              	.LVL54:
 663              		.loc 1 681 30 view .LVU248
 664 01ea 001B     		subs	r0, r0, r4
 665              		.loc 1 681 14 view .LVU249
 666 01ec 0228     		cmp	r0, #2
 667 01ee 00F2BA80 		bhi	.L32
 668              	.L83:
 669              		.loc 1 681 11 is_stmt 1 view .LVU250
 679:Drivers/STM32G4xx_HAL_Driver/Src/stm32g4xx_hal_rcc.c ****         {
 670              		.loc 1 679 15 view .LVU251
 679:Drivers/STM32G4xx_HAL_Driver/Src/stm32g4xx_hal_rcc.c ****         {
 671              		.loc 1 679 16 is_stmt 0 view .LVU252
 672 01f2 2B68     		ldr	r3, [r5]
 679:Drivers/STM32G4xx_HAL_Driver/Src/stm32g4xx_hal_rcc.c ****         {
ARM GAS  /tmp/ccE4sfSH.s 			page 26


 673              		.loc 1 679 15 view .LVU253
 674 01f4 13F00073 		ands	r3, r3, #33554432
 675 01f8 F5D1     		bne	.L84
 682:Drivers/STM32G4xx_HAL_Driver/Src/stm32g4xx_hal_rcc.c ****           {
 683:Drivers/STM32G4xx_HAL_Driver/Src/stm32g4xx_hal_rcc.c ****             return HAL_TIMEOUT;
 684:Drivers/STM32G4xx_HAL_Driver/Src/stm32g4xx_hal_rcc.c ****           }
 685:Drivers/STM32G4xx_HAL_Driver/Src/stm32g4xx_hal_rcc.c ****         }
 686:Drivers/STM32G4xx_HAL_Driver/Src/stm32g4xx_hal_rcc.c **** 
 687:Drivers/STM32G4xx_HAL_Driver/Src/stm32g4xx_hal_rcc.c ****         /* Unselect PLL clock source and disable outputs to save power */
 688:Drivers/STM32G4xx_HAL_Driver/Src/stm32g4xx_hal_rcc.c ****         RCC->PLLCFGR &= ~(RCC_PLLCFGR_PLLSRC | RCC_PLL_SYSCLK | RCC_PLL_48M1CLK | RCC_PLL_ADCCLK);
 676              		.loc 1 688 9 is_stmt 1 view .LVU254
 677              		.loc 1 688 22 is_stmt 0 view .LVU255
 678 01fa E968     		ldr	r1, [r5, #12]
 679 01fc 374A     		ldr	r2, .L141+8
 680 01fe 0A40     		ands	r2, r2, r1
 689:Drivers/STM32G4xx_HAL_Driver/Src/stm32g4xx_hal_rcc.c ****       }
 690:Drivers/STM32G4xx_HAL_Driver/Src/stm32g4xx_hal_rcc.c ****     }
 691:Drivers/STM32G4xx_HAL_Driver/Src/stm32g4xx_hal_rcc.c ****     else
 692:Drivers/STM32G4xx_HAL_Driver/Src/stm32g4xx_hal_rcc.c ****     {
 693:Drivers/STM32G4xx_HAL_Driver/Src/stm32g4xx_hal_rcc.c ****       /* Check if there is a request to disable the PLL used as System clock source */
 694:Drivers/STM32G4xx_HAL_Driver/Src/stm32g4xx_hal_rcc.c ****       if((RCC_OscInitStruct->PLL.PLLState) == RCC_PLL_OFF)
 695:Drivers/STM32G4xx_HAL_Driver/Src/stm32g4xx_hal_rcc.c ****       {
 696:Drivers/STM32G4xx_HAL_Driver/Src/stm32g4xx_hal_rcc.c ****         return HAL_ERROR;
 697:Drivers/STM32G4xx_HAL_Driver/Src/stm32g4xx_hal_rcc.c ****       }
 698:Drivers/STM32G4xx_HAL_Driver/Src/stm32g4xx_hal_rcc.c ****       else
 699:Drivers/STM32G4xx_HAL_Driver/Src/stm32g4xx_hal_rcc.c ****       {
 700:Drivers/STM32G4xx_HAL_Driver/Src/stm32g4xx_hal_rcc.c ****       /* Do not return HAL_ERROR if request repeats the current configuration */
 701:Drivers/STM32G4xx_HAL_Driver/Src/stm32g4xx_hal_rcc.c ****       temp_pllckcfg = RCC->PLLCFGR;
 702:Drivers/STM32G4xx_HAL_Driver/Src/stm32g4xx_hal_rcc.c ****       if((READ_BIT(temp_pllckcfg, RCC_PLLCFGR_PLLSRC) != RCC_OscInitStruct->PLL.PLLSource) ||
 703:Drivers/STM32G4xx_HAL_Driver/Src/stm32g4xx_hal_rcc.c ****          (READ_BIT(temp_pllckcfg, RCC_PLLCFGR_PLLM) != (((RCC_OscInitStruct->PLL.PLLM) - 1U) << RCC
 704:Drivers/STM32G4xx_HAL_Driver/Src/stm32g4xx_hal_rcc.c ****          (READ_BIT(temp_pllckcfg, RCC_PLLCFGR_PLLN) != ((RCC_OscInitStruct->PLL.PLLN) << RCC_PLLCFG
 705:Drivers/STM32G4xx_HAL_Driver/Src/stm32g4xx_hal_rcc.c ****          (READ_BIT(temp_pllckcfg, RCC_PLLCFGR_PLLPDIV) != ((RCC_OscInitStruct->PLL.PLLP) << RCC_PLL
 706:Drivers/STM32G4xx_HAL_Driver/Src/stm32g4xx_hal_rcc.c ****          (READ_BIT(temp_pllckcfg, RCC_PLLCFGR_PLLQ) != ((((RCC_OscInitStruct->PLL.PLLQ) >> 1U) - 1U
 707:Drivers/STM32G4xx_HAL_Driver/Src/stm32g4xx_hal_rcc.c ****          (READ_BIT(temp_pllckcfg, RCC_PLLCFGR_PLLR) != ((((RCC_OscInitStruct->PLL.PLLR) >> 1U) - 1U
 708:Drivers/STM32G4xx_HAL_Driver/Src/stm32g4xx_hal_rcc.c ****       {
 709:Drivers/STM32G4xx_HAL_Driver/Src/stm32g4xx_hal_rcc.c ****         return HAL_ERROR;
 710:Drivers/STM32G4xx_HAL_Driver/Src/stm32g4xx_hal_rcc.c ****       }
 711:Drivers/STM32G4xx_HAL_Driver/Src/stm32g4xx_hal_rcc.c ****     }
 712:Drivers/STM32G4xx_HAL_Driver/Src/stm32g4xx_hal_rcc.c ****   }
 713:Drivers/STM32G4xx_HAL_Driver/Src/stm32g4xx_hal_rcc.c ****   }
 714:Drivers/STM32G4xx_HAL_Driver/Src/stm32g4xx_hal_rcc.c **** 
 715:Drivers/STM32G4xx_HAL_Driver/Src/stm32g4xx_hal_rcc.c ****   return HAL_OK;
 681              		.loc 1 715 10 view .LVU256
 682 0200 1846     		mov	r0, r3
 688:Drivers/STM32G4xx_HAL_Driver/Src/stm32g4xx_hal_rcc.c ****       }
 683              		.loc 1 688 22 view .LVU257
 684 0202 EA60     		str	r2, [r5, #12]
 685 0204 62E0     		b	.L19
 686              	.LVL55:
 687              	.L45:
 479:Drivers/STM32G4xx_HAL_Driver/Src/stm32g4xx_hal_rcc.c **** 
 688              		.loc 1 479 7 is_stmt 1 view .LVU258
 689 0206 D5F89430 		ldr	r3, [r5, #148]
 690 020a 23F00103 		bic	r3, r3, #1
 691 020e C5F89430 		str	r3, [r5, #148]
 482:Drivers/STM32G4xx_HAL_Driver/Src/stm32g4xx_hal_rcc.c **** 
 692              		.loc 1 482 7 view .LVU259
ARM GAS  /tmp/ccE4sfSH.s 			page 27


 482:Drivers/STM32G4xx_HAL_Driver/Src/stm32g4xx_hal_rcc.c **** 
 693              		.loc 1 482 19 is_stmt 0 view .LVU260
 694 0212 FFF7FEFF 		bl	HAL_GetTick
 695              	.LVL56:
 696 0216 0646     		mov	r6, r0
 697              	.LVL57:
 485:Drivers/STM32G4xx_HAL_Driver/Src/stm32g4xx_hal_rcc.c ****       {
 698              		.loc 1 485 7 is_stmt 1 view .LVU261
 485:Drivers/STM32G4xx_HAL_Driver/Src/stm32g4xx_hal_rcc.c ****       {
 699              		.loc 1 485 12 is_stmt 0 view .LVU262
 700 0218 05E0     		b	.L48
 701              	.LVL58:
 702              	.L49:
 487:Drivers/STM32G4xx_HAL_Driver/Src/stm32g4xx_hal_rcc.c ****         {
 703              		.loc 1 487 13 view .LVU263
 704 021a FFF7FEFF 		bl	HAL_GetTick
 705              	.LVL59:
 487:Drivers/STM32G4xx_HAL_Driver/Src/stm32g4xx_hal_rcc.c ****         {
 706              		.loc 1 487 27 view .LVU264
 707 021e 801B     		subs	r0, r0, r6
 487:Drivers/STM32G4xx_HAL_Driver/Src/stm32g4xx_hal_rcc.c ****         {
 708              		.loc 1 487 11 view .LVU265
 709 0220 0228     		cmp	r0, #2
 710 0222 00F2A080 		bhi	.L32
 711              	.L48:
 487:Drivers/STM32G4xx_HAL_Driver/Src/stm32g4xx_hal_rcc.c ****         {
 712              		.loc 1 487 9 is_stmt 1 view .LVU266
 485:Drivers/STM32G4xx_HAL_Driver/Src/stm32g4xx_hal_rcc.c ****       {
 713              		.loc 1 485 12 view .LVU267
 485:Drivers/STM32G4xx_HAL_Driver/Src/stm32g4xx_hal_rcc.c ****       {
 714              		.loc 1 485 13 is_stmt 0 view .LVU268
 715 0226 D5F89430 		ldr	r3, [r5, #148]
 485:Drivers/STM32G4xx_HAL_Driver/Src/stm32g4xx_hal_rcc.c ****       {
 716              		.loc 1 485 12 view .LVU269
 717 022a 9F07     		lsls	r7, r3, #30
 718 022c F5D4     		bmi	.L49
 719 022e 65E7     		b	.L130
 720              	.LVL60:
 721              	.L133:
 334:Drivers/STM32G4xx_HAL_Driver/Src/stm32g4xx_hal_rcc.c **** 
 722              		.loc 1 334 19 discriminator 1 view .LVU270
 723 0230 01F00301 		and	r1, r1, #3
 724              	.LVL61:
 337:Drivers/STM32G4xx_HAL_Driver/Src/stm32g4xx_hal_rcc.c ****     {
 725              		.loc 1 337 47 discriminator 1 view .LVU271
 726 0234 0329     		cmp	r1, #3
 727 0236 7FF4F8AE 		bne	.L23
 728              	.L22:
 339:Drivers/STM32G4xx_HAL_Driver/Src/stm32g4xx_hal_rcc.c ****       {
 729              		.loc 1 339 7 is_stmt 1 view .LVU272
 339:Drivers/STM32G4xx_HAL_Driver/Src/stm32g4xx_hal_rcc.c ****       {
 730              		.loc 1 339 12 is_stmt 0 view .LVU273
 731 023a 264A     		ldr	r2, .L141
 732              	.LVL62:
 339:Drivers/STM32G4xx_HAL_Driver/Src/stm32g4xx_hal_rcc.c ****       {
 733              		.loc 1 339 12 view .LVU274
 734 023c 1268     		ldr	r2, [r2]
ARM GAS  /tmp/ccE4sfSH.s 			page 28


 339:Drivers/STM32G4xx_HAL_Driver/Src/stm32g4xx_hal_rcc.c ****       {
 735              		.loc 1 339 10 view .LVU275
 736 023e 9203     		lsls	r2, r2, #14
 737 0240 7FF516AF 		bpl	.L20
 339:Drivers/STM32G4xx_HAL_Driver/Src/stm32g4xx_hal_rcc.c ****       {
 738              		.loc 1 339 52 discriminator 1 view .LVU276
 739 0244 6268     		ldr	r2, [r4, #4]
 740 0246 002A     		cmp	r2, #0
 741 0248 7FF412AF 		bne	.L20
 742              	.LVL63:
 743              	.L91:
 696:Drivers/STM32G4xx_HAL_Driver/Src/stm32g4xx_hal_rcc.c ****       }
 744              		.loc 1 696 16 view .LVU277
 745 024c 0120     		movs	r0, #1
 716:Drivers/STM32G4xx_HAL_Driver/Src/stm32g4xx_hal_rcc.c **** }
 746              		.loc 1 716 1 view .LVU278
 747 024e 02B0     		add	sp, sp, #8
 748              	.LCFI3:
 749              		.cfi_remember_state
 750              		.cfi_def_cfa_offset 24
 751              		@ sp needed
 752 0250 BDE8F081 		pop	{r4, r5, r6, r7, r8, pc}
 753              	.LVL64:
 754              	.L139:
 755              	.LCFI4:
 756              		.cfi_restore_state
 622:Drivers/STM32G4xx_HAL_Driver/Src/stm32g4xx_hal_rcc.c ****         assert_param(IS_RCC_PLLM_VALUE(RCC_OscInitStruct->PLL.PLLM));
 757              		.loc 1 622 9 is_stmt 1 view .LVU279
 623:Drivers/STM32G4xx_HAL_Driver/Src/stm32g4xx_hal_rcc.c ****         assert_param(IS_RCC_PLLN_VALUE(RCC_OscInitStruct->PLL.PLLN));
 758              		.loc 1 623 9 view .LVU280
 624:Drivers/STM32G4xx_HAL_Driver/Src/stm32g4xx_hal_rcc.c ****         assert_param(IS_RCC_PLLP_VALUE(RCC_OscInitStruct->PLL.PLLP));
 759              		.loc 1 624 9 view .LVU281
 625:Drivers/STM32G4xx_HAL_Driver/Src/stm32g4xx_hal_rcc.c ****         assert_param(IS_RCC_PLLQ_VALUE(RCC_OscInitStruct->PLL.PLLQ));
 760              		.loc 1 625 9 view .LVU282
 626:Drivers/STM32G4xx_HAL_Driver/Src/stm32g4xx_hal_rcc.c ****         assert_param(IS_RCC_PLLR_VALUE(RCC_OscInitStruct->PLL.PLLR));
 761              		.loc 1 626 9 view .LVU283
 627:Drivers/STM32G4xx_HAL_Driver/Src/stm32g4xx_hal_rcc.c **** 
 762              		.loc 1 627 9 view .LVU284
 630:Drivers/STM32G4xx_HAL_Driver/Src/stm32g4xx_hal_rcc.c **** 
 763              		.loc 1 630 9 view .LVU285
 633:Drivers/STM32G4xx_HAL_Driver/Src/stm32g4xx_hal_rcc.c **** 
 764              		.loc 1 633 9 view .LVU286
 633:Drivers/STM32G4xx_HAL_Driver/Src/stm32g4xx_hal_rcc.c **** 
 765              		.loc 1 633 21 is_stmt 0 view .LVU287
 766 0254 FFF7FEFF 		bl	HAL_GetTick
 767              	.LVL65:
 768 0258 0646     		mov	r6, r0
 769              	.LVL66:
 636:Drivers/STM32G4xx_HAL_Driver/Src/stm32g4xx_hal_rcc.c ****         {
 770              		.loc 1 636 9 is_stmt 1 view .LVU288
 636:Drivers/STM32G4xx_HAL_Driver/Src/stm32g4xx_hal_rcc.c ****         {
 771              		.loc 1 636 15 is_stmt 0 view .LVU289
 772 025a 04E0     		b	.L79
 773              	.LVL67:
 774              	.L80:
 638:Drivers/STM32G4xx_HAL_Driver/Src/stm32g4xx_hal_rcc.c ****           {
 775              		.loc 1 638 16 view .LVU290
ARM GAS  /tmp/ccE4sfSH.s 			page 29


 776 025c FFF7FEFF 		bl	HAL_GetTick
 777              	.LVL68:
 638:Drivers/STM32G4xx_HAL_Driver/Src/stm32g4xx_hal_rcc.c ****           {
 778              		.loc 1 638 30 view .LVU291
 779 0260 801B     		subs	r0, r0, r6
 638:Drivers/STM32G4xx_HAL_Driver/Src/stm32g4xx_hal_rcc.c ****           {
 780              		.loc 1 638 14 view .LVU292
 781 0262 0228     		cmp	r0, #2
 782 0264 7FD8     		bhi	.L32
 783              	.L79:
 638:Drivers/STM32G4xx_HAL_Driver/Src/stm32g4xx_hal_rcc.c ****           {
 784              		.loc 1 638 11 is_stmt 1 view .LVU293
 636:Drivers/STM32G4xx_HAL_Driver/Src/stm32g4xx_hal_rcc.c ****         {
 785              		.loc 1 636 15 view .LVU294
 636:Drivers/STM32G4xx_HAL_Driver/Src/stm32g4xx_hal_rcc.c ****         {
 786              		.loc 1 636 16 is_stmt 0 view .LVU295
 787 0266 2B68     		ldr	r3, [r5]
 636:Drivers/STM32G4xx_HAL_Driver/Src/stm32g4xx_hal_rcc.c ****         {
 788              		.loc 1 636 15 view .LVU296
 789 0268 9A01     		lsls	r2, r3, #6
 790 026a F7D4     		bmi	.L80
 645:Drivers/STM32G4xx_HAL_Driver/Src/stm32g4xx_hal_rcc.c ****                              RCC_OscInitStruct->PLL.PLLM,
 791              		.loc 1 645 9 is_stmt 1 view .LVU297
 792 026c E968     		ldr	r1, [r5, #12]
 793 026e 1C4B     		ldr	r3, .L141+12
 794 0270 226A     		ldr	r2, [r4, #32]
 795 0272 606A     		ldr	r0, [r4, #36]
 662:Drivers/STM32G4xx_HAL_Driver/Src/stm32g4xx_hal_rcc.c ****         {
 796              		.loc 1 662 16 is_stmt 0 view .LVU298
 797 0274 174E     		ldr	r6, .L141
 798              	.LVL69:
 645:Drivers/STM32G4xx_HAL_Driver/Src/stm32g4xx_hal_rcc.c ****                              RCC_OscInitStruct->PLL.PLLM,
 799              		.loc 1 645 9 view .LVU299
 800 0276 0B40     		ands	r3, r3, r1
 801 0278 1343     		orrs	r3, r3, r2
 802 027a D4E90A12 		ldrd	r1, r2, [r4, #40]
 803 027e 43EA0123 		orr	r3, r3, r1, lsl #8
 804 0282 43EAC263 		orr	r3, r3, r2, lsl #27
 805 0286 D4E90C12 		ldrd	r1, r2, [r4, #48]
 806 028a 0138     		subs	r0, r0, #1
 807 028c 4908     		lsrs	r1, r1, #1
 808 028e 43EA0013 		orr	r3, r3, r0, lsl #4
 809 0292 0139     		subs	r1, r1, #1
 810 0294 5208     		lsrs	r2, r2, #1
 811 0296 43EA4153 		orr	r3, r3, r1, lsl #21
 812 029a 013A     		subs	r2, r2, #1
 813 029c 43EA4263 		orr	r3, r3, r2, lsl #25
 814 02a0 EB60     		str	r3, [r5, #12]
 653:Drivers/STM32G4xx_HAL_Driver/Src/stm32g4xx_hal_rcc.c **** 
 815              		.loc 1 653 9 is_stmt 1 view .LVU300
 816 02a2 2B68     		ldr	r3, [r5]
 817 02a4 43F08073 		orr	r3, r3, #16777216
 818 02a8 2B60     		str	r3, [r5]
 656:Drivers/STM32G4xx_HAL_Driver/Src/stm32g4xx_hal_rcc.c **** 
 819              		.loc 1 656 10 view .LVU301
 820 02aa EB68     		ldr	r3, [r5, #12]
 821 02ac 43F08073 		orr	r3, r3, #16777216
ARM GAS  /tmp/ccE4sfSH.s 			page 30


 822 02b0 EB60     		str	r3, [r5, #12]
 659:Drivers/STM32G4xx_HAL_Driver/Src/stm32g4xx_hal_rcc.c **** 
 823              		.loc 1 659 9 view .LVU302
 659:Drivers/STM32G4xx_HAL_Driver/Src/stm32g4xx_hal_rcc.c **** 
 824              		.loc 1 659 21 is_stmt 0 view .LVU303
 825 02b2 FFF7FEFF 		bl	HAL_GetTick
 826              	.LVL70:
 827 02b6 0446     		mov	r4, r0
 828              	.LVL71:
 662:Drivers/STM32G4xx_HAL_Driver/Src/stm32g4xx_hal_rcc.c ****         {
 829              		.loc 1 662 9 is_stmt 1 view .LVU304
 662:Drivers/STM32G4xx_HAL_Driver/Src/stm32g4xx_hal_rcc.c ****         {
 830              		.loc 1 662 15 is_stmt 0 view .LVU305
 831 02b8 04E0     		b	.L81
 832              	.LVL72:
 833              	.L82:
 664:Drivers/STM32G4xx_HAL_Driver/Src/stm32g4xx_hal_rcc.c ****           {
 834              		.loc 1 664 16 view .LVU306
 835 02ba FFF7FEFF 		bl	HAL_GetTick
 836              	.LVL73:
 664:Drivers/STM32G4xx_HAL_Driver/Src/stm32g4xx_hal_rcc.c ****           {
 837              		.loc 1 664 30 view .LVU307
 838 02be 001B     		subs	r0, r0, r4
 664:Drivers/STM32G4xx_HAL_Driver/Src/stm32g4xx_hal_rcc.c ****           {
 839              		.loc 1 664 14 view .LVU308
 840 02c0 0228     		cmp	r0, #2
 841 02c2 50D8     		bhi	.L32
 842              	.L81:
 664:Drivers/STM32G4xx_HAL_Driver/Src/stm32g4xx_hal_rcc.c ****           {
 843              		.loc 1 664 11 is_stmt 1 view .LVU309
 662:Drivers/STM32G4xx_HAL_Driver/Src/stm32g4xx_hal_rcc.c ****         {
 844              		.loc 1 662 15 view .LVU310
 662:Drivers/STM32G4xx_HAL_Driver/Src/stm32g4xx_hal_rcc.c ****         {
 845              		.loc 1 662 16 is_stmt 0 view .LVU311
 846 02c4 3368     		ldr	r3, [r6]
 662:Drivers/STM32G4xx_HAL_Driver/Src/stm32g4xx_hal_rcc.c ****         {
 847              		.loc 1 662 15 view .LVU312
 848 02c6 9B01     		lsls	r3, r3, #6
 849 02c8 F7D5     		bpl	.L82
 850              	.LVL74:
 851              	.L70:
 715:Drivers/STM32G4xx_HAL_Driver/Src/stm32g4xx_hal_rcc.c **** }
 852              		.loc 1 715 10 view .LVU313
 853 02ca 0020     		movs	r0, #0
 854              	.L19:
 855              		.loc 1 716 1 view .LVU314
 856 02cc 02B0     		add	sp, sp, #8
 857              	.LCFI5:
 858              		.cfi_remember_state
 859              		.cfi_def_cfa_offset 24
 860              		@ sp needed
 861 02ce BDE8F081 		pop	{r4, r5, r6, r7, r8, pc}
 862              	.L142:
 863 02d2 00BF     		.align	2
 864              	.L141:
 865 02d4 00100240 		.word	1073876992
 866 02d8 00700040 		.word	1073770496
ARM GAS  /tmp/ccE4sfSH.s 			page 31


 867 02dc FCFFEEFE 		.word	-17891332
 868 02e0 0C809F01 		.word	27230220
 869              	.LVL75:
 870              	.L136:
 871              	.LCFI6:
 872              		.cfi_restore_state
 389:Drivers/STM32G4xx_HAL_Driver/Src/stm32g4xx_hal_rcc.c ****     if (((temp_sysclksrc == RCC_CFGR_SWS_PLL) && (temp_pllckcfg == RCC_PLLSOURCE_HSI)) || (temp_sys
 873              		.loc 1 389 19 discriminator 1 view .LVU315
 874 02e4 02F00302 		and	r2, r2, #3
 875              	.LVL76:
 390:Drivers/STM32G4xx_HAL_Driver/Src/stm32g4xx_hal_rcc.c ****     {
 876              		.loc 1 390 47 discriminator 1 view .LVU316
 877 02e8 022A     		cmp	r2, #2
 878 02ea 7FF4CEAE 		bne	.L37
 879              	.L36:
 393:Drivers/STM32G4xx_HAL_Driver/Src/stm32g4xx_hal_rcc.c ****       {
 880              		.loc 1 393 7 is_stmt 1 view .LVU317
 393:Drivers/STM32G4xx_HAL_Driver/Src/stm32g4xx_hal_rcc.c ****       {
 881              		.loc 1 393 12 is_stmt 0 view .LVU318
 882 02ee 684B     		ldr	r3, .L143
 883              	.LVL77:
 393:Drivers/STM32G4xx_HAL_Driver/Src/stm32g4xx_hal_rcc.c ****       {
 884              		.loc 1 393 12 view .LVU319
 885 02f0 1B68     		ldr	r3, [r3]
 393:Drivers/STM32G4xx_HAL_Driver/Src/stm32g4xx_hal_rcc.c ****       {
 886              		.loc 1 393 10 view .LVU320
 887 02f2 5D05     		lsls	r5, r3, #21
 888 02f4 02D5     		bpl	.L38
 393:Drivers/STM32G4xx_HAL_Driver/Src/stm32g4xx_hal_rcc.c ****       {
 889              		.loc 1 393 52 discriminator 1 view .LVU321
 890 02f6 E368     		ldr	r3, [r4, #12]
 891 02f8 002B     		cmp	r3, #0
 892 02fa A7D0     		beq	.L91
 893              	.L38:
 401:Drivers/STM32G4xx_HAL_Driver/Src/stm32g4xx_hal_rcc.c **** 
 894              		.loc 1 401 9 is_stmt 1 view .LVU322
 895 02fc 644A     		ldr	r2, .L143
 896 02fe 2069     		ldr	r0, [r4, #16]
 897 0300 5368     		ldr	r3, [r2, #4]
 404:Drivers/STM32G4xx_HAL_Driver/Src/stm32g4xx_hal_rcc.c ****         {
 898              		.loc 1 404 13 is_stmt 0 view .LVU323
 899 0302 6449     		ldr	r1, .L143+4
 401:Drivers/STM32G4xx_HAL_Driver/Src/stm32g4xx_hal_rcc.c **** 
 900              		.loc 1 401 9 view .LVU324
 901 0304 23F0FE43 		bic	r3, r3, #2130706432
 902 0308 43EA0063 		orr	r3, r3, r0, lsl #24
 903 030c 5360     		str	r3, [r2, #4]
 404:Drivers/STM32G4xx_HAL_Driver/Src/stm32g4xx_hal_rcc.c ****         {
 904              		.loc 1 404 9 is_stmt 1 view .LVU325
 404:Drivers/STM32G4xx_HAL_Driver/Src/stm32g4xx_hal_rcc.c ****         {
 905              		.loc 1 404 13 is_stmt 0 view .LVU326
 906 030e 0868     		ldr	r0, [r1]
 907 0310 FFF7FEFF 		bl	HAL_InitTick
 908              	.LVL78:
 404:Drivers/STM32G4xx_HAL_Driver/Src/stm32g4xx_hal_rcc.c ****         {
 909              		.loc 1 404 12 view .LVU327
 910 0314 0028     		cmp	r0, #0
ARM GAS  /tmp/ccE4sfSH.s 			page 32


 911 0316 99D1     		bne	.L91
 912              	.L129:
 453:Drivers/STM32G4xx_HAL_Driver/Src/stm32g4xx_hal_rcc.c ****   {
 913              		.loc 1 453 26 view .LVU328
 914 0318 2368     		ldr	r3, [r4]
 453:Drivers/STM32G4xx_HAL_Driver/Src/stm32g4xx_hal_rcc.c ****   {
 915              		.loc 1 453 3 is_stmt 1 view .LVU329
 453:Drivers/STM32G4xx_HAL_Driver/Src/stm32g4xx_hal_rcc.c ****   {
 916              		.loc 1 453 6 is_stmt 0 view .LVU330
 917 031a 1A07     		lsls	r2, r3, #28
 918 031c 7FF5EFAE 		bpl	.L44
 919 0320 D3E6     		b	.L140
 920              	.LVL79:
 921              	.L134:
 347:Drivers/STM32G4xx_HAL_Driver/Src/stm32g4xx_hal_rcc.c **** 
 922              		.loc 1 347 7 is_stmt 1 discriminator 1 view .LVU331
 923 0322 5B4A     		ldr	r2, .L143
 924              	.LVL80:
 347:Drivers/STM32G4xx_HAL_Driver/Src/stm32g4xx_hal_rcc.c **** 
 925              		.loc 1 347 7 is_stmt 0 discriminator 1 view .LVU332
 926 0324 1368     		ldr	r3, [r2]
 927 0326 43F48033 		orr	r3, r3, #65536
 928 032a 1360     		str	r3, [r2]
 347:Drivers/STM32G4xx_HAL_Driver/Src/stm32g4xx_hal_rcc.c **** 
 929              		.loc 1 347 7 is_stmt 1 discriminator 1 view .LVU333
 350:Drivers/STM32G4xx_HAL_Driver/Src/stm32g4xx_hal_rcc.c ****       {
 930              		.loc 1 350 7 discriminator 1 view .LVU334
 931              	.L26:
 353:Drivers/STM32G4xx_HAL_Driver/Src/stm32g4xx_hal_rcc.c **** 
 932              		.loc 1 353 9 view .LVU335
 353:Drivers/STM32G4xx_HAL_Driver/Src/stm32g4xx_hal_rcc.c **** 
 933              		.loc 1 353 21 is_stmt 0 view .LVU336
 934 032c FFF7FEFF 		bl	HAL_GetTick
 935              	.LVL81:
 356:Drivers/STM32G4xx_HAL_Driver/Src/stm32g4xx_hal_rcc.c ****         {
 936              		.loc 1 356 16 view .LVU337
 937 0330 574E     		ldr	r6, .L143
 353:Drivers/STM32G4xx_HAL_Driver/Src/stm32g4xx_hal_rcc.c **** 
 938              		.loc 1 353 21 view .LVU338
 939 0332 0546     		mov	r5, r0
 940              	.LVL82:
 356:Drivers/STM32G4xx_HAL_Driver/Src/stm32g4xx_hal_rcc.c ****         {
 941              		.loc 1 356 9 is_stmt 1 view .LVU339
 356:Drivers/STM32G4xx_HAL_Driver/Src/stm32g4xx_hal_rcc.c ****         {
 942              		.loc 1 356 15 is_stmt 0 view .LVU340
 943 0334 04E0     		b	.L29
 944              	.LVL83:
 945              	.L30:
 358:Drivers/STM32G4xx_HAL_Driver/Src/stm32g4xx_hal_rcc.c ****           {
 946              		.loc 1 358 16 view .LVU341
 947 0336 FFF7FEFF 		bl	HAL_GetTick
 948              	.LVL84:
 358:Drivers/STM32G4xx_HAL_Driver/Src/stm32g4xx_hal_rcc.c ****           {
 949              		.loc 1 358 30 view .LVU342
 950 033a 401B     		subs	r0, r0, r5
 358:Drivers/STM32G4xx_HAL_Driver/Src/stm32g4xx_hal_rcc.c ****           {
 951              		.loc 1 358 14 view .LVU343
ARM GAS  /tmp/ccE4sfSH.s 			page 33


 952 033c 6428     		cmp	r0, #100
 953 033e 12D8     		bhi	.L32
 954              	.L29:
 358:Drivers/STM32G4xx_HAL_Driver/Src/stm32g4xx_hal_rcc.c ****           {
 955              		.loc 1 358 11 is_stmt 1 view .LVU344
 356:Drivers/STM32G4xx_HAL_Driver/Src/stm32g4xx_hal_rcc.c ****         {
 956              		.loc 1 356 15 view .LVU345
 356:Drivers/STM32G4xx_HAL_Driver/Src/stm32g4xx_hal_rcc.c ****         {
 957              		.loc 1 356 16 is_stmt 0 view .LVU346
 958 0340 3368     		ldr	r3, [r6]
 356:Drivers/STM32G4xx_HAL_Driver/Src/stm32g4xx_hal_rcc.c ****         {
 959              		.loc 1 356 15 view .LVU347
 960 0342 9B03     		lsls	r3, r3, #14
 961 0344 F7D5     		bpl	.L30
 962 0346 92E6     		b	.L128
 963              	.LVL85:
 964              	.L39:
 436:Drivers/STM32G4xx_HAL_Driver/Src/stm32g4xx_hal_rcc.c **** 
 965              		.loc 1 436 9 is_stmt 1 view .LVU348
 966 0348 2B68     		ldr	r3, [r5]
 967 034a 23F48073 		bic	r3, r3, #256
 968 034e 2B60     		str	r3, [r5]
 439:Drivers/STM32G4xx_HAL_Driver/Src/stm32g4xx_hal_rcc.c **** 
 969              		.loc 1 439 9 view .LVU349
 439:Drivers/STM32G4xx_HAL_Driver/Src/stm32g4xx_hal_rcc.c **** 
 970              		.loc 1 439 21 is_stmt 0 view .LVU350
 971 0350 FFF7FEFF 		bl	HAL_GetTick
 972              	.LVL86:
 973 0354 0646     		mov	r6, r0
 974              	.LVL87:
 442:Drivers/STM32G4xx_HAL_Driver/Src/stm32g4xx_hal_rcc.c ****         {
 975              		.loc 1 442 9 is_stmt 1 view .LVU351
 976              	.L42:
 444:Drivers/STM32G4xx_HAL_Driver/Src/stm32g4xx_hal_rcc.c ****           {
 977              		.loc 1 444 11 view .LVU352
 442:Drivers/STM32G4xx_HAL_Driver/Src/stm32g4xx_hal_rcc.c ****         {
 978              		.loc 1 442 15 view .LVU353
 442:Drivers/STM32G4xx_HAL_Driver/Src/stm32g4xx_hal_rcc.c ****         {
 979              		.loc 1 442 16 is_stmt 0 view .LVU354
 980 0356 2B68     		ldr	r3, [r5]
 442:Drivers/STM32G4xx_HAL_Driver/Src/stm32g4xx_hal_rcc.c ****         {
 981              		.loc 1 442 15 view .LVU355
 982 0358 5905     		lsls	r1, r3, #21
 983 035a DDD5     		bpl	.L129
 444:Drivers/STM32G4xx_HAL_Driver/Src/stm32g4xx_hal_rcc.c ****           {
 984              		.loc 1 444 16 view .LVU356
 985 035c FFF7FEFF 		bl	HAL_GetTick
 986              	.LVL88:
 444:Drivers/STM32G4xx_HAL_Driver/Src/stm32g4xx_hal_rcc.c ****           {
 987              		.loc 1 444 30 view .LVU357
 988 0360 801B     		subs	r0, r0, r6
 444:Drivers/STM32G4xx_HAL_Driver/Src/stm32g4xx_hal_rcc.c ****           {
 989              		.loc 1 444 14 view .LVU358
 990 0362 0228     		cmp	r0, #2
 991 0364 F7D9     		bls	.L42
 992              	.LVL89:
 993              	.L32:
ARM GAS  /tmp/ccE4sfSH.s 			page 34


 360:Drivers/STM32G4xx_HAL_Driver/Src/stm32g4xx_hal_rcc.c ****           }
 994              		.loc 1 360 20 view .LVU359
 995 0366 0320     		movs	r0, #3
 996              		.loc 1 716 1 view .LVU360
 997 0368 02B0     		add	sp, sp, #8
 998              	.LCFI7:
 999              		.cfi_remember_state
 1000              		.cfi_def_cfa_offset 24
 1001              		@ sp needed
 1002 036a BDE8F081 		pop	{r4, r5, r6, r7, r8, pc}
 1003              	.LVL90:
 1004              	.L85:
 1005              	.LCFI8:
 1006              		.cfi_restore_state
 1007              	.LBB8:
 497:Drivers/STM32G4xx_HAL_Driver/Src/stm32g4xx_hal_rcc.c **** 
 1008              		.loc 1 497 22 view .LVU361
 1009 036e 0025     		movs	r5, #0
 1010 0370 D6E6     		b	.L51
 1011              	.LVL91:
 1012              	.L137:
 528:Drivers/STM32G4xx_HAL_Driver/Src/stm32g4xx_hal_rcc.c **** 
 1013              		.loc 1 528 5 is_stmt 1 discriminator 1 view .LVU362
 1014 0372 474A     		ldr	r2, .L143
 1015 0374 D2F89030 		ldr	r3, [r2, #144]
 1016 0378 43F00103 		orr	r3, r3, #1
 1017 037c C2F89030 		str	r3, [r2, #144]
 528:Drivers/STM32G4xx_HAL_Driver/Src/stm32g4xx_hal_rcc.c **** 
 1018              		.loc 1 528 5 discriminator 1 view .LVU363
 531:Drivers/STM32G4xx_HAL_Driver/Src/stm32g4xx_hal_rcc.c ****     {
 1019              		.loc 1 531 5 discriminator 1 view .LVU364
 1020              	.L58:
 534:Drivers/STM32G4xx_HAL_Driver/Src/stm32g4xx_hal_rcc.c **** 
 1021              		.loc 1 534 7 view .LVU365
 534:Drivers/STM32G4xx_HAL_Driver/Src/stm32g4xx_hal_rcc.c **** 
 1022              		.loc 1 534 19 is_stmt 0 view .LVU366
 1023 0380 FFF7FEFF 		bl	HAL_GetTick
 1024              	.LVL92:
 537:Drivers/STM32G4xx_HAL_Driver/Src/stm32g4xx_hal_rcc.c ****       {
 1025              		.loc 1 537 14 view .LVU367
 1026 0384 424F     		ldr	r7, .L143
 534:Drivers/STM32G4xx_HAL_Driver/Src/stm32g4xx_hal_rcc.c **** 
 1027              		.loc 1 534 19 view .LVU368
 1028 0386 0646     		mov	r6, r0
 1029              	.LVL93:
 537:Drivers/STM32G4xx_HAL_Driver/Src/stm32g4xx_hal_rcc.c ****       {
 1030              		.loc 1 537 7 is_stmt 1 view .LVU369
 539:Drivers/STM32G4xx_HAL_Driver/Src/stm32g4xx_hal_rcc.c ****         {
 1031              		.loc 1 539 11 is_stmt 0 view .LVU370
 1032 0388 41F28838 		movw	r8, #5000
 537:Drivers/STM32G4xx_HAL_Driver/Src/stm32g4xx_hal_rcc.c ****       {
 1033              		.loc 1 537 13 view .LVU371
 1034 038c 04E0     		b	.L61
 1035              	.LVL94:
 1036              	.L62:
 539:Drivers/STM32G4xx_HAL_Driver/Src/stm32g4xx_hal_rcc.c ****         {
 1037              		.loc 1 539 13 view .LVU372
ARM GAS  /tmp/ccE4sfSH.s 			page 35


 1038 038e FFF7FEFF 		bl	HAL_GetTick
 1039              	.LVL95:
 539:Drivers/STM32G4xx_HAL_Driver/Src/stm32g4xx_hal_rcc.c ****         {
 1040              		.loc 1 539 27 view .LVU373
 1041 0392 801B     		subs	r0, r0, r6
 539:Drivers/STM32G4xx_HAL_Driver/Src/stm32g4xx_hal_rcc.c ****         {
 1042              		.loc 1 539 11 view .LVU374
 1043 0394 4045     		cmp	r0, r8
 1044 0396 E6D8     		bhi	.L32
 1045              	.L61:
 539:Drivers/STM32G4xx_HAL_Driver/Src/stm32g4xx_hal_rcc.c ****         {
 1046              		.loc 1 539 9 is_stmt 1 view .LVU375
 537:Drivers/STM32G4xx_HAL_Driver/Src/stm32g4xx_hal_rcc.c ****       {
 1047              		.loc 1 537 13 view .LVU376
 537:Drivers/STM32G4xx_HAL_Driver/Src/stm32g4xx_hal_rcc.c ****       {
 1048              		.loc 1 537 14 is_stmt 0 view .LVU377
 1049 0398 D7F89030 		ldr	r3, [r7, #144]
 537:Drivers/STM32G4xx_HAL_Driver/Src/stm32g4xx_hal_rcc.c ****       {
 1050              		.loc 1 537 13 view .LVU378
 1051 039c 9A07     		lsls	r2, r3, #30
 1052 039e F6D5     		bpl	.L62
 1053 03a0 EAE6     		b	.L67
 1054              	.LVL96:
 1055              	.L71:
 537:Drivers/STM32G4xx_HAL_Driver/Src/stm32g4xx_hal_rcc.c ****       {
 1056              		.loc 1 537 13 view .LVU379
 1057              	.LBE8:
 594:Drivers/STM32G4xx_HAL_Driver/Src/stm32g4xx_hal_rcc.c **** 
 1058              		.loc 1 594 7 is_stmt 1 view .LVU380
 1059 03a2 D5F89830 		ldr	r3, [r5, #152]
 1060 03a6 23F00103 		bic	r3, r3, #1
 1061 03aa C5F89830 		str	r3, [r5, #152]
 597:Drivers/STM32G4xx_HAL_Driver/Src/stm32g4xx_hal_rcc.c **** 
 1062              		.loc 1 597 7 view .LVU381
 597:Drivers/STM32G4xx_HAL_Driver/Src/stm32g4xx_hal_rcc.c **** 
 1063              		.loc 1 597 19 is_stmt 0 view .LVU382
 1064 03ae FFF7FEFF 		bl	HAL_GetTick
 1065              	.LVL97:
 1066 03b2 0646     		mov	r6, r0
 1067              	.LVL98:
 600:Drivers/STM32G4xx_HAL_Driver/Src/stm32g4xx_hal_rcc.c ****       {
 1068              		.loc 1 600 7 is_stmt 1 view .LVU383
 600:Drivers/STM32G4xx_HAL_Driver/Src/stm32g4xx_hal_rcc.c ****       {
 1069              		.loc 1 600 12 is_stmt 0 view .LVU384
 1070 03b4 04E0     		b	.L75
 1071              	.LVL99:
 1072              	.L76:
 602:Drivers/STM32G4xx_HAL_Driver/Src/stm32g4xx_hal_rcc.c ****         {
 1073              		.loc 1 602 13 view .LVU385
 1074 03b6 FFF7FEFF 		bl	HAL_GetTick
 1075              	.LVL100:
 602:Drivers/STM32G4xx_HAL_Driver/Src/stm32g4xx_hal_rcc.c ****         {
 1076              		.loc 1 602 27 view .LVU386
 1077 03ba 801B     		subs	r0, r0, r6
 602:Drivers/STM32G4xx_HAL_Driver/Src/stm32g4xx_hal_rcc.c ****         {
 1078              		.loc 1 602 11 view .LVU387
 1079 03bc 0228     		cmp	r0, #2
ARM GAS  /tmp/ccE4sfSH.s 			page 36


 1080 03be D2D8     		bhi	.L32
 1081              	.L75:
 602:Drivers/STM32G4xx_HAL_Driver/Src/stm32g4xx_hal_rcc.c ****         {
 1082              		.loc 1 602 9 is_stmt 1 view .LVU388
 600:Drivers/STM32G4xx_HAL_Driver/Src/stm32g4xx_hal_rcc.c ****       {
 1083              		.loc 1 600 12 view .LVU389
 600:Drivers/STM32G4xx_HAL_Driver/Src/stm32g4xx_hal_rcc.c ****       {
 1084              		.loc 1 600 13 is_stmt 0 view .LVU390
 1085 03c0 D5F89830 		ldr	r3, [r5, #152]
 600:Drivers/STM32G4xx_HAL_Driver/Src/stm32g4xx_hal_rcc.c ****       {
 1086              		.loc 1 600 12 view .LVU391
 1087 03c4 9907     		lsls	r1, r3, #30
 1088 03c6 F6D4     		bmi	.L76
 1089 03c8 F8E6     		b	.L74
 1090              	.LVL101:
 1091              	.L52:
 1092              	.LBB9:
 513:Drivers/STM32G4xx_HAL_Driver/Src/stm32g4xx_hal_rcc.c **** 
 1093              		.loc 1 513 7 is_stmt 1 view .LVU392
 1094 03ca 3368     		ldr	r3, [r6]
 1095 03cc 43F48073 		orr	r3, r3, #256
 1096 03d0 3360     		str	r3, [r6]
 516:Drivers/STM32G4xx_HAL_Driver/Src/stm32g4xx_hal_rcc.c **** 
 1097              		.loc 1 516 7 view .LVU393
 516:Drivers/STM32G4xx_HAL_Driver/Src/stm32g4xx_hal_rcc.c **** 
 1098              		.loc 1 516 19 is_stmt 0 view .LVU394
 1099 03d2 FFF7FEFF 		bl	HAL_GetTick
 1100              	.LVL102:
 1101 03d6 0746     		mov	r7, r0
 1102              	.LVL103:
 518:Drivers/STM32G4xx_HAL_Driver/Src/stm32g4xx_hal_rcc.c ****       {
 1103              		.loc 1 518 7 is_stmt 1 view .LVU395
 1104              	.L55:
 520:Drivers/STM32G4xx_HAL_Driver/Src/stm32g4xx_hal_rcc.c ****         {
 1105              		.loc 1 520 9 view .LVU396
 518:Drivers/STM32G4xx_HAL_Driver/Src/stm32g4xx_hal_rcc.c ****       {
 1106              		.loc 1 518 13 view .LVU397
 518:Drivers/STM32G4xx_HAL_Driver/Src/stm32g4xx_hal_rcc.c ****       {
 1107              		.loc 1 518 14 is_stmt 0 view .LVU398
 1108 03d8 3368     		ldr	r3, [r6]
 518:Drivers/STM32G4xx_HAL_Driver/Src/stm32g4xx_hal_rcc.c ****       {
 1109              		.loc 1 518 13 view .LVU399
 1110 03da D905     		lsls	r1, r3, #23
 1111 03dc 3FF5A5AE 		bmi	.L57
 520:Drivers/STM32G4xx_HAL_Driver/Src/stm32g4xx_hal_rcc.c ****         {
 1112              		.loc 1 520 14 view .LVU400
 1113 03e0 FFF7FEFF 		bl	HAL_GetTick
 1114              	.LVL104:
 520:Drivers/STM32G4xx_HAL_Driver/Src/stm32g4xx_hal_rcc.c ****         {
 1115              		.loc 1 520 28 view .LVU401
 1116 03e4 C01B     		subs	r0, r0, r7
 520:Drivers/STM32G4xx_HAL_Driver/Src/stm32g4xx_hal_rcc.c ****         {
 1117              		.loc 1 520 12 view .LVU402
 1118 03e6 0228     		cmp	r0, #2
 1119 03e8 F6D9     		bls	.L55
 1120 03ea BCE7     		b	.L32
 1121              	.LVL105:
ARM GAS  /tmp/ccE4sfSH.s 			page 37


 1122              	.L135:
 520:Drivers/STM32G4xx_HAL_Driver/Src/stm32g4xx_hal_rcc.c ****         {
 1123              		.loc 1 520 12 view .LVU403
 1124              	.LBE9:
 347:Drivers/STM32G4xx_HAL_Driver/Src/stm32g4xx_hal_rcc.c **** 
 1125              		.loc 1 347 7 is_stmt 1 discriminator 4 view .LVU404
 1126 03ec 03F18043 		add	r3, r3, #1073741824
 1127 03f0 A3F53C33 		sub	r3, r3, #192512
 1128 03f4 1A68     		ldr	r2, [r3]
 1129              	.LVL106:
 347:Drivers/STM32G4xx_HAL_Driver/Src/stm32g4xx_hal_rcc.c **** 
 1130              		.loc 1 347 7 is_stmt 0 discriminator 4 view .LVU405
 1131 03f6 42F48022 		orr	r2, r2, #262144
 1132 03fa 1A60     		str	r2, [r3]
 347:Drivers/STM32G4xx_HAL_Driver/Src/stm32g4xx_hal_rcc.c **** 
 1133              		.loc 1 347 7 is_stmt 1 discriminator 4 view .LVU406
 1134 03fc 1A68     		ldr	r2, [r3]
 1135 03fe 42F48032 		orr	r2, r2, #65536
 1136 0402 1A60     		str	r2, [r3]
 347:Drivers/STM32G4xx_HAL_Driver/Src/stm32g4xx_hal_rcc.c **** 
 1137              		.loc 1 347 7 discriminator 4 view .LVU407
 350:Drivers/STM32G4xx_HAL_Driver/Src/stm32g4xx_hal_rcc.c ****       {
 1138              		.loc 1 350 7 discriminator 4 view .LVU408
 1139 0404 92E7     		b	.L26
 1140              	.L132:
 1141              	.LCFI9:
 1142              		.cfi_def_cfa_offset 0
 1143              		.cfi_restore 4
 1144              		.cfi_restore 5
 1145              		.cfi_restore 6
 1146              		.cfi_restore 7
 1147              		.cfi_restore 8
 1148              		.cfi_restore 14
 321:Drivers/STM32G4xx_HAL_Driver/Src/stm32g4xx_hal_rcc.c ****   }
 1149              		.loc 1 321 12 is_stmt 0 view .LVU409
 1150 0406 0120     		movs	r0, #1
 1151              	.LVL107:
 1152              		.loc 1 716 1 view .LVU410
 1153 0408 7047     		bx	lr
 1154              	.LVL108:
 1155              	.L138:
 1156              	.LCFI10:
 1157              		.cfi_def_cfa_offset 32
 1158              		.cfi_offset 4, -24
 1159              		.cfi_offset 5, -20
 1160              		.cfi_offset 6, -16
 1161              		.cfi_offset 7, -12
 1162              		.cfi_offset 8, -8
 1163              		.cfi_offset 14, -4
 1164              	.LBB10:
 528:Drivers/STM32G4xx_HAL_Driver/Src/stm32g4xx_hal_rcc.c **** 
 1165              		.loc 1 528 5 is_stmt 1 discriminator 4 view .LVU411
 1166 040a 214B     		ldr	r3, .L143
 1167 040c D3F89020 		ldr	r2, [r3, #144]
 1168 0410 42F00402 		orr	r2, r2, #4
 1169 0414 C3F89020 		str	r2, [r3, #144]
 528:Drivers/STM32G4xx_HAL_Driver/Src/stm32g4xx_hal_rcc.c **** 
ARM GAS  /tmp/ccE4sfSH.s 			page 38


 1170              		.loc 1 528 5 discriminator 4 view .LVU412
 1171 0418 D3F89020 		ldr	r2, [r3, #144]
 1172 041c 42F00102 		orr	r2, r2, #1
 1173 0420 C3F89020 		str	r2, [r3, #144]
 528:Drivers/STM32G4xx_HAL_Driver/Src/stm32g4xx_hal_rcc.c **** 
 1174              		.loc 1 528 5 discriminator 4 view .LVU413
 531:Drivers/STM32G4xx_HAL_Driver/Src/stm32g4xx_hal_rcc.c ****     {
 1175              		.loc 1 531 5 discriminator 4 view .LVU414
 1176 0424 ACE7     		b	.L58
 1177              	.LVL109:
 1178              	.L77:
 531:Drivers/STM32G4xx_HAL_Driver/Src/stm32g4xx_hal_rcc.c ****     {
 1179              		.loc 1 531 5 is_stmt 0 discriminator 4 view .LVU415
 1180              	.LBE10:
 694:Drivers/STM32G4xx_HAL_Driver/Src/stm32g4xx_hal_rcc.c ****       {
 1181              		.loc 1 694 7 is_stmt 1 view .LVU416
 694:Drivers/STM32G4xx_HAL_Driver/Src/stm32g4xx_hal_rcc.c ****       {
 1182              		.loc 1 694 9 is_stmt 0 view .LVU417
 1183 0426 0128     		cmp	r0, #1
 1184 0428 3FF450AF 		beq	.L19
 701:Drivers/STM32G4xx_HAL_Driver/Src/stm32g4xx_hal_rcc.c ****       if((READ_BIT(temp_pllckcfg, RCC_PLLCFGR_PLLSRC) != RCC_OscInitStruct->PLL.PLLSource) ||
 1185              		.loc 1 701 7 is_stmt 1 view .LVU418
 701:Drivers/STM32G4xx_HAL_Driver/Src/stm32g4xx_hal_rcc.c ****       if((READ_BIT(temp_pllckcfg, RCC_PLLCFGR_PLLSRC) != RCC_OscInitStruct->PLL.PLLSource) ||
 1186              		.loc 1 701 21 is_stmt 0 view .LVU419
 1187 042c EB68     		ldr	r3, [r5, #12]
 1188              	.LVL110:
 702:Drivers/STM32G4xx_HAL_Driver/Src/stm32g4xx_hal_rcc.c ****          (READ_BIT(temp_pllckcfg, RCC_PLLCFGR_PLLM) != (((RCC_OscInitStruct->PLL.PLLM) - 1U) << RCC
 1189              		.loc 1 702 7 is_stmt 1 view .LVU420
 702:Drivers/STM32G4xx_HAL_Driver/Src/stm32g4xx_hal_rcc.c ****          (READ_BIT(temp_pllckcfg, RCC_PLLCFGR_PLLM) != (((RCC_OscInitStruct->PLL.PLLM) - 1U) << RCC
 1190              		.loc 1 702 9 is_stmt 0 view .LVU421
 1191 042e 226A     		ldr	r2, [r4, #32]
 702:Drivers/STM32G4xx_HAL_Driver/Src/stm32g4xx_hal_rcc.c ****          (READ_BIT(temp_pllckcfg, RCC_PLLCFGR_PLLM) != (((RCC_OscInitStruct->PLL.PLLM) - 1U) << RCC
 1192              		.loc 1 702 11 view .LVU422
 1193 0430 03F00301 		and	r1, r3, #3
 702:Drivers/STM32G4xx_HAL_Driver/Src/stm32g4xx_hal_rcc.c ****          (READ_BIT(temp_pllckcfg, RCC_PLLCFGR_PLLM) != (((RCC_OscInitStruct->PLL.PLLM) - 1U) << RCC
 1194              		.loc 1 702 9 view .LVU423
 1195 0434 9142     		cmp	r1, r2
 1196 0436 7FF409AF 		bne	.L91
 703:Drivers/STM32G4xx_HAL_Driver/Src/stm32g4xx_hal_rcc.c ****          (READ_BIT(temp_pllckcfg, RCC_PLLCFGR_PLLN) != ((RCC_OscInitStruct->PLL.PLLN) << RCC_PLLCFG
 1197              		.loc 1 703 88 discriminator 1 view .LVU424
 1198 043a 616A     		ldr	r1, [r4, #36]
 703:Drivers/STM32G4xx_HAL_Driver/Src/stm32g4xx_hal_rcc.c ****          (READ_BIT(temp_pllckcfg, RCC_PLLCFGR_PLLN) != ((RCC_OscInitStruct->PLL.PLLN) << RCC_PLLCFG
 1199              		.loc 1 703 11 discriminator 1 view .LVU425
 1200 043c 03F0F002 		and	r2, r3, #240
 703:Drivers/STM32G4xx_HAL_Driver/Src/stm32g4xx_hal_rcc.c ****          (READ_BIT(temp_pllckcfg, RCC_PLLCFGR_PLLN) != ((RCC_OscInitStruct->PLL.PLLN) << RCC_PLLCFG
 1201              		.loc 1 703 88 discriminator 1 view .LVU426
 1202 0440 0139     		subs	r1, r1, #1
 702:Drivers/STM32G4xx_HAL_Driver/Src/stm32g4xx_hal_rcc.c ****          (READ_BIT(temp_pllckcfg, RCC_PLLCFGR_PLLM) != (((RCC_OscInitStruct->PLL.PLLM) - 1U) << RCC
 1203              		.loc 1 702 92 discriminator 1 view .LVU427
 1204 0442 B2EB011F 		cmp	r2, r1, lsl #4
 1205 0446 7FF401AF 		bne	.L91
 704:Drivers/STM32G4xx_HAL_Driver/Src/stm32g4xx_hal_rcc.c ****          (READ_BIT(temp_pllckcfg, RCC_PLLCFGR_PLLPDIV) != ((RCC_OscInitStruct->PLL.PLLP) << RCC_PLL
 1206              		.loc 1 704 87 view .LVU428
 1207 044a A16A     		ldr	r1, [r4, #40]
 704:Drivers/STM32G4xx_HAL_Driver/Src/stm32g4xx_hal_rcc.c ****          (READ_BIT(temp_pllckcfg, RCC_PLLCFGR_PLLPDIV) != ((RCC_OscInitStruct->PLL.PLLP) << RCC_PLL
 1208              		.loc 1 704 11 view .LVU429
 1209 044c 03F4FE42 		and	r2, r3, #32512
ARM GAS  /tmp/ccE4sfSH.s 			page 39


 703:Drivers/STM32G4xx_HAL_Driver/Src/stm32g4xx_hal_rcc.c ****          (READ_BIT(temp_pllckcfg, RCC_PLLCFGR_PLLN) != ((RCC_OscInitStruct->PLL.PLLN) << RCC_PLLCFG
 1210              		.loc 1 703 120 view .LVU430
 1211 0450 B2EB012F 		cmp	r2, r1, lsl #8
 1212 0454 7FF4FAAE 		bne	.L91
 705:Drivers/STM32G4xx_HAL_Driver/Src/stm32g4xx_hal_rcc.c ****          (READ_BIT(temp_pllckcfg, RCC_PLLCFGR_PLLQ) != ((((RCC_OscInitStruct->PLL.PLLQ) >> 1U) - 1U
 1213              		.loc 1 705 90 view .LVU431
 1214 0458 E16A     		ldr	r1, [r4, #44]
 705:Drivers/STM32G4xx_HAL_Driver/Src/stm32g4xx_hal_rcc.c ****          (READ_BIT(temp_pllckcfg, RCC_PLLCFGR_PLLQ) != ((((RCC_OscInitStruct->PLL.PLLQ) >> 1U) - 1U
 1215              		.loc 1 705 11 view .LVU432
 1216 045a 03F07842 		and	r2, r3, #-134217728
 704:Drivers/STM32G4xx_HAL_Driver/Src/stm32g4xx_hal_rcc.c ****          (READ_BIT(temp_pllckcfg, RCC_PLLCFGR_PLLPDIV) != ((RCC_OscInitStruct->PLL.PLLP) << RCC_PLL
 1217              		.loc 1 704 113 view .LVU433
 1218 045e B2EBC16F 		cmp	r2, r1, lsl #27
 1219 0462 7FF4F3AE 		bne	.L91
 706:Drivers/STM32G4xx_HAL_Driver/Src/stm32g4xx_hal_rcc.c ****          (READ_BIT(temp_pllckcfg, RCC_PLLCFGR_PLLR) != ((((RCC_OscInitStruct->PLL.PLLR) >> 1U) - 1U
 1220              		.loc 1 706 89 view .LVU434
 1221 0466 226B     		ldr	r2, [r4, #48]
 1222 0468 5208     		lsrs	r2, r2, #1
 706:Drivers/STM32G4xx_HAL_Driver/Src/stm32g4xx_hal_rcc.c ****          (READ_BIT(temp_pllckcfg, RCC_PLLCFGR_PLLR) != ((((RCC_OscInitStruct->PLL.PLLR) >> 1U) - 1U
 1223              		.loc 1 706 11 view .LVU435
 1224 046a 03F4C001 		and	r1, r3, #6291456
 706:Drivers/STM32G4xx_HAL_Driver/Src/stm32g4xx_hal_rcc.c ****          (READ_BIT(temp_pllckcfg, RCC_PLLCFGR_PLLR) != ((((RCC_OscInitStruct->PLL.PLLR) >> 1U) - 1U
 1225              		.loc 1 706 96 view .LVU436
 1226 046e 013A     		subs	r2, r2, #1
 705:Drivers/STM32G4xx_HAL_Driver/Src/stm32g4xx_hal_rcc.c ****          (READ_BIT(temp_pllckcfg, RCC_PLLCFGR_PLLQ) != ((((RCC_OscInitStruct->PLL.PLLQ) >> 1U) - 1U
 1227              		.loc 1 705 119 view .LVU437
 1228 0470 B1EB425F 		cmp	r1, r2, lsl #21
 1229 0474 7FF4EAAE 		bne	.L91
 707:Drivers/STM32G4xx_HAL_Driver/Src/stm32g4xx_hal_rcc.c ****       {
 1230              		.loc 1 707 89 view .LVU438
 1231 0478 626B     		ldr	r2, [r4, #52]
 1232 047a 5208     		lsrs	r2, r2, #1
 707:Drivers/STM32G4xx_HAL_Driver/Src/stm32g4xx_hal_rcc.c ****       {
 1233              		.loc 1 707 11 view .LVU439
 1234 047c 03F0C063 		and	r3, r3, #100663296
 1235              	.LVL111:
 707:Drivers/STM32G4xx_HAL_Driver/Src/stm32g4xx_hal_rcc.c ****       {
 1236              		.loc 1 707 96 view .LVU440
 1237 0480 013A     		subs	r2, r2, #1
 706:Drivers/STM32G4xx_HAL_Driver/Src/stm32g4xx_hal_rcc.c ****          (READ_BIT(temp_pllckcfg, RCC_PLLCFGR_PLLR) != ((((RCC_OscInitStruct->PLL.PLLR) >> 1U) - 1U
 1238              		.loc 1 706 128 view .LVU441
 1239 0482 B3EB426F 		cmp	r3, r2, lsl #25
 696:Drivers/STM32G4xx_HAL_Driver/Src/stm32g4xx_hal_rcc.c ****       }
 1240              		.loc 1 696 16 view .LVU442
 1241 0486 14BF     		ite	ne
 1242 0488 0120     		movne	r0, #1
 1243 048a 0020     		moveq	r0, #0
 1244 048c 1EE7     		b	.L19
 1245              	.L144:
 1246 048e 00BF     		.align	2
 1247              	.L143:
 1248 0490 00100240 		.word	1073876992
 1249 0494 00000000 		.word	uwTickPrio
 1250              		.cfi_endproc
 1251              	.LFE133:
 1253              		.section	.text.HAL_RCC_MCOConfig,"ax",%progbits
 1254              		.align	1
ARM GAS  /tmp/ccE4sfSH.s 			page 40


 1255              		.p2align 2,,3
 1256              		.global	HAL_RCC_MCOConfig
 1257              		.syntax unified
 1258              		.thumb
 1259              		.thumb_func
 1260              		.fpu fpv4-sp-d16
 1262              	HAL_RCC_MCOConfig:
 1263              	.LVL112:
 1264              	.LFB135:
 717:Drivers/STM32G4xx_HAL_Driver/Src/stm32g4xx_hal_rcc.c **** 
 718:Drivers/STM32G4xx_HAL_Driver/Src/stm32g4xx_hal_rcc.c **** /**
 719:Drivers/STM32G4xx_HAL_Driver/Src/stm32g4xx_hal_rcc.c ****   * @brief  Initialize the CPU, AHB and APB buses clocks according to the specified
 720:Drivers/STM32G4xx_HAL_Driver/Src/stm32g4xx_hal_rcc.c ****   *         parameters in the RCC_ClkInitStruct.
 721:Drivers/STM32G4xx_HAL_Driver/Src/stm32g4xx_hal_rcc.c ****   * @param  RCC_ClkInitStruct  pointer to an RCC_OscInitTypeDef structure that
 722:Drivers/STM32G4xx_HAL_Driver/Src/stm32g4xx_hal_rcc.c ****   *         contains the configuration information for the RCC peripheral.
 723:Drivers/STM32G4xx_HAL_Driver/Src/stm32g4xx_hal_rcc.c ****   * @param  FLatency  FLASH Latency
 724:Drivers/STM32G4xx_HAL_Driver/Src/stm32g4xx_hal_rcc.c ****   *          This parameter can be one of the following values:
 725:Drivers/STM32G4xx_HAL_Driver/Src/stm32g4xx_hal_rcc.c ****   *            @arg FLASH_LATENCY_0   FLASH 0 Latency cycle
 726:Drivers/STM32G4xx_HAL_Driver/Src/stm32g4xx_hal_rcc.c ****   *            @arg FLASH_LATENCY_1   FLASH 1 Latency cycle
 727:Drivers/STM32G4xx_HAL_Driver/Src/stm32g4xx_hal_rcc.c ****   *            @arg FLASH_LATENCY_2   FLASH 2 Latency cycles
 728:Drivers/STM32G4xx_HAL_Driver/Src/stm32g4xx_hal_rcc.c ****   *            @arg FLASH_LATENCY_3   FLASH 3 Latency cycles
 729:Drivers/STM32G4xx_HAL_Driver/Src/stm32g4xx_hal_rcc.c ****   *            @arg FLASH_LATENCY_4   FLASH 4 Latency cycles
 730:Drivers/STM32G4xx_HAL_Driver/Src/stm32g4xx_hal_rcc.c ****   *            @arg FLASH_LATENCY_5   FLASH 5 Latency cycles
 731:Drivers/STM32G4xx_HAL_Driver/Src/stm32g4xx_hal_rcc.c ****   *            @arg FLASH_LATENCY_6   FLASH 6 Latency cycles
 732:Drivers/STM32G4xx_HAL_Driver/Src/stm32g4xx_hal_rcc.c ****   *            @arg FLASH_LATENCY_7   FLASH 7 Latency cycles
 733:Drivers/STM32G4xx_HAL_Driver/Src/stm32g4xx_hal_rcc.c ****   *            @arg FLASH_LATENCY_8   FLASH 8 Latency cycles
 734:Drivers/STM32G4xx_HAL_Driver/Src/stm32g4xx_hal_rcc.c ****   *            @arg FLASH_LATENCY_9   FLASH 9 Latency cycles
 735:Drivers/STM32G4xx_HAL_Driver/Src/stm32g4xx_hal_rcc.c ****   *            @arg FLASH_LATENCY_10  FLASH 10 Latency cycles
 736:Drivers/STM32G4xx_HAL_Driver/Src/stm32g4xx_hal_rcc.c ****   *            @arg FLASH_LATENCY_11  FLASH 11 Latency cycles
 737:Drivers/STM32G4xx_HAL_Driver/Src/stm32g4xx_hal_rcc.c ****   *            @arg FLASH_LATENCY_12  FLASH 12 Latency cycles
 738:Drivers/STM32G4xx_HAL_Driver/Src/stm32g4xx_hal_rcc.c ****   *            @arg FLASH_LATENCY_13  FLASH 13 Latency cycles
 739:Drivers/STM32G4xx_HAL_Driver/Src/stm32g4xx_hal_rcc.c ****   *            @arg FLASH_LATENCY_14  FLASH 14 Latency cycles
 740:Drivers/STM32G4xx_HAL_Driver/Src/stm32g4xx_hal_rcc.c ****   *            @arg FLASH_LATENCY_15  FLASH 15 Latency cycles
 741:Drivers/STM32G4xx_HAL_Driver/Src/stm32g4xx_hal_rcc.c ****   *
 742:Drivers/STM32G4xx_HAL_Driver/Src/stm32g4xx_hal_rcc.c ****   * @note   The SystemCoreClock CMSIS variable is used to store System Clock Frequency
 743:Drivers/STM32G4xx_HAL_Driver/Src/stm32g4xx_hal_rcc.c ****   *         and updated by HAL_RCC_GetHCLKFreq() function called within this function
 744:Drivers/STM32G4xx_HAL_Driver/Src/stm32g4xx_hal_rcc.c ****   *
 745:Drivers/STM32G4xx_HAL_Driver/Src/stm32g4xx_hal_rcc.c ****   * @note   The HSI is used by default as system clock source after
 746:Drivers/STM32G4xx_HAL_Driver/Src/stm32g4xx_hal_rcc.c ****   *         startup from Reset, wake-up from STANDBY mode. After restart from Reset,
 747:Drivers/STM32G4xx_HAL_Driver/Src/stm32g4xx_hal_rcc.c ****   *         the HSI frequency is set to its default value 16 MHz.
 748:Drivers/STM32G4xx_HAL_Driver/Src/stm32g4xx_hal_rcc.c ****   *
 749:Drivers/STM32G4xx_HAL_Driver/Src/stm32g4xx_hal_rcc.c ****   * @note   The HSI can be selected as system clock source after
 750:Drivers/STM32G4xx_HAL_Driver/Src/stm32g4xx_hal_rcc.c ****   *         from STOP modes or in case of failure of the HSE used directly or indirectly
 751:Drivers/STM32G4xx_HAL_Driver/Src/stm32g4xx_hal_rcc.c ****   *         as system clock (if the Clock Security System CSS is enabled).
 752:Drivers/STM32G4xx_HAL_Driver/Src/stm32g4xx_hal_rcc.c ****   *
 753:Drivers/STM32G4xx_HAL_Driver/Src/stm32g4xx_hal_rcc.c ****   * @note   A switch from one clock source to another occurs only if the target
 754:Drivers/STM32G4xx_HAL_Driver/Src/stm32g4xx_hal_rcc.c ****   *         clock source is ready (clock stable after startup delay or PLL locked).
 755:Drivers/STM32G4xx_HAL_Driver/Src/stm32g4xx_hal_rcc.c ****   *         If a clock source which is not yet ready is selected, the switch will
 756:Drivers/STM32G4xx_HAL_Driver/Src/stm32g4xx_hal_rcc.c ****   *         occur when the clock source is ready.
 757:Drivers/STM32G4xx_HAL_Driver/Src/stm32g4xx_hal_rcc.c ****   *
 758:Drivers/STM32G4xx_HAL_Driver/Src/stm32g4xx_hal_rcc.c ****   * @note   You can use HAL_RCC_GetClockConfig() function to know which clock is
 759:Drivers/STM32G4xx_HAL_Driver/Src/stm32g4xx_hal_rcc.c ****   *         currently used as system clock source.
 760:Drivers/STM32G4xx_HAL_Driver/Src/stm32g4xx_hal_rcc.c ****   *
 761:Drivers/STM32G4xx_HAL_Driver/Src/stm32g4xx_hal_rcc.c ****   * @note   Depending on the device voltage range, the software has to set correctly
 762:Drivers/STM32G4xx_HAL_Driver/Src/stm32g4xx_hal_rcc.c ****   *         HPRE[3:0] bits to ensure that HCLK not exceed the maximum allowed frequency
 763:Drivers/STM32G4xx_HAL_Driver/Src/stm32g4xx_hal_rcc.c ****   *         (for more details refer to section above "Initialization/de-initialization functions")
 764:Drivers/STM32G4xx_HAL_Driver/Src/stm32g4xx_hal_rcc.c ****   * @retval None
ARM GAS  /tmp/ccE4sfSH.s 			page 41


 765:Drivers/STM32G4xx_HAL_Driver/Src/stm32g4xx_hal_rcc.c ****   */
 766:Drivers/STM32G4xx_HAL_Driver/Src/stm32g4xx_hal_rcc.c **** HAL_StatusTypeDef HAL_RCC_ClockConfig(RCC_ClkInitTypeDef  *RCC_ClkInitStruct, uint32_t FLatency)
 767:Drivers/STM32G4xx_HAL_Driver/Src/stm32g4xx_hal_rcc.c **** {
 768:Drivers/STM32G4xx_HAL_Driver/Src/stm32g4xx_hal_rcc.c ****   uint32_t tickstart;
 769:Drivers/STM32G4xx_HAL_Driver/Src/stm32g4xx_hal_rcc.c ****   uint32_t pllfreq;
 770:Drivers/STM32G4xx_HAL_Driver/Src/stm32g4xx_hal_rcc.c ****   uint32_t hpre = RCC_SYSCLK_DIV1;
 771:Drivers/STM32G4xx_HAL_Driver/Src/stm32g4xx_hal_rcc.c **** 
 772:Drivers/STM32G4xx_HAL_Driver/Src/stm32g4xx_hal_rcc.c ****   /* Check Null pointer */
 773:Drivers/STM32G4xx_HAL_Driver/Src/stm32g4xx_hal_rcc.c ****   if (RCC_ClkInitStruct == NULL)
 774:Drivers/STM32G4xx_HAL_Driver/Src/stm32g4xx_hal_rcc.c ****   {
 775:Drivers/STM32G4xx_HAL_Driver/Src/stm32g4xx_hal_rcc.c ****     return HAL_ERROR;
 776:Drivers/STM32G4xx_HAL_Driver/Src/stm32g4xx_hal_rcc.c ****   }
 777:Drivers/STM32G4xx_HAL_Driver/Src/stm32g4xx_hal_rcc.c **** 
 778:Drivers/STM32G4xx_HAL_Driver/Src/stm32g4xx_hal_rcc.c ****   /* Check the parameters */
 779:Drivers/STM32G4xx_HAL_Driver/Src/stm32g4xx_hal_rcc.c ****   assert_param(IS_RCC_CLOCKTYPE(RCC_ClkInitStruct->ClockType));
 780:Drivers/STM32G4xx_HAL_Driver/Src/stm32g4xx_hal_rcc.c ****   assert_param(IS_FLASH_LATENCY(FLatency));
 781:Drivers/STM32G4xx_HAL_Driver/Src/stm32g4xx_hal_rcc.c **** 
 782:Drivers/STM32G4xx_HAL_Driver/Src/stm32g4xx_hal_rcc.c ****   /* To correctly read data from FLASH memory, the number of wait states (LATENCY)
 783:Drivers/STM32G4xx_HAL_Driver/Src/stm32g4xx_hal_rcc.c ****     must be correctly programmed according to the frequency of the CPU clock
 784:Drivers/STM32G4xx_HAL_Driver/Src/stm32g4xx_hal_rcc.c ****     (HCLK) and the supply voltage of the device. */
 785:Drivers/STM32G4xx_HAL_Driver/Src/stm32g4xx_hal_rcc.c **** 
 786:Drivers/STM32G4xx_HAL_Driver/Src/stm32g4xx_hal_rcc.c ****   /* Increasing the number of wait states because of higher CPU frequency */
 787:Drivers/STM32G4xx_HAL_Driver/Src/stm32g4xx_hal_rcc.c ****   if (FLatency > __HAL_FLASH_GET_LATENCY())
 788:Drivers/STM32G4xx_HAL_Driver/Src/stm32g4xx_hal_rcc.c ****   {
 789:Drivers/STM32G4xx_HAL_Driver/Src/stm32g4xx_hal_rcc.c ****     /* Program the new number of wait states to the LATENCY bits in the FLASH_ACR register */
 790:Drivers/STM32G4xx_HAL_Driver/Src/stm32g4xx_hal_rcc.c ****     __HAL_FLASH_SET_LATENCY(FLatency);
 791:Drivers/STM32G4xx_HAL_Driver/Src/stm32g4xx_hal_rcc.c **** 
 792:Drivers/STM32G4xx_HAL_Driver/Src/stm32g4xx_hal_rcc.c ****     /* Check that the new number of wait states is taken into account to access the Flash
 793:Drivers/STM32G4xx_HAL_Driver/Src/stm32g4xx_hal_rcc.c ****     memory by reading the FLASH_ACR register */
 794:Drivers/STM32G4xx_HAL_Driver/Src/stm32g4xx_hal_rcc.c ****     if (__HAL_FLASH_GET_LATENCY() != FLatency)
 795:Drivers/STM32G4xx_HAL_Driver/Src/stm32g4xx_hal_rcc.c ****     {
 796:Drivers/STM32G4xx_HAL_Driver/Src/stm32g4xx_hal_rcc.c ****       return HAL_ERROR;
 797:Drivers/STM32G4xx_HAL_Driver/Src/stm32g4xx_hal_rcc.c ****     }
 798:Drivers/STM32G4xx_HAL_Driver/Src/stm32g4xx_hal_rcc.c ****   }
 799:Drivers/STM32G4xx_HAL_Driver/Src/stm32g4xx_hal_rcc.c **** 
 800:Drivers/STM32G4xx_HAL_Driver/Src/stm32g4xx_hal_rcc.c ****   /*------------------------- SYSCLK Configuration ---------------------------*/
 801:Drivers/STM32G4xx_HAL_Driver/Src/stm32g4xx_hal_rcc.c ****   if(((RCC_ClkInitStruct->ClockType) & RCC_CLOCKTYPE_SYSCLK) == RCC_CLOCKTYPE_SYSCLK)
 802:Drivers/STM32G4xx_HAL_Driver/Src/stm32g4xx_hal_rcc.c ****   {
 803:Drivers/STM32G4xx_HAL_Driver/Src/stm32g4xx_hal_rcc.c ****     assert_param(IS_RCC_SYSCLKSOURCE(RCC_ClkInitStruct->SYSCLKSource));
 804:Drivers/STM32G4xx_HAL_Driver/Src/stm32g4xx_hal_rcc.c **** 
 805:Drivers/STM32G4xx_HAL_Driver/Src/stm32g4xx_hal_rcc.c ****     /* PLL is selected as System Clock Source */
 806:Drivers/STM32G4xx_HAL_Driver/Src/stm32g4xx_hal_rcc.c ****     if (RCC_ClkInitStruct->SYSCLKSource == RCC_SYSCLKSOURCE_PLLCLK)
 807:Drivers/STM32G4xx_HAL_Driver/Src/stm32g4xx_hal_rcc.c ****     {
 808:Drivers/STM32G4xx_HAL_Driver/Src/stm32g4xx_hal_rcc.c ****       /* Check the PLL ready flag */
 809:Drivers/STM32G4xx_HAL_Driver/Src/stm32g4xx_hal_rcc.c ****       if (READ_BIT(RCC->CR, RCC_CR_PLLRDY) == 0U)
 810:Drivers/STM32G4xx_HAL_Driver/Src/stm32g4xx_hal_rcc.c ****       {
 811:Drivers/STM32G4xx_HAL_Driver/Src/stm32g4xx_hal_rcc.c ****         return HAL_ERROR;
 812:Drivers/STM32G4xx_HAL_Driver/Src/stm32g4xx_hal_rcc.c ****       }
 813:Drivers/STM32G4xx_HAL_Driver/Src/stm32g4xx_hal_rcc.c ****       /* Undershoot management when selection PLL as SYSCLK source and frequency above 80Mhz */
 814:Drivers/STM32G4xx_HAL_Driver/Src/stm32g4xx_hal_rcc.c ****       /* Compute target PLL output frequency */
 815:Drivers/STM32G4xx_HAL_Driver/Src/stm32g4xx_hal_rcc.c ****       pllfreq = RCC_GetSysClockFreqFromPLLSource();
 816:Drivers/STM32G4xx_HAL_Driver/Src/stm32g4xx_hal_rcc.c **** 
 817:Drivers/STM32G4xx_HAL_Driver/Src/stm32g4xx_hal_rcc.c ****       /* Intermediate step with HCLK prescaler 2 necessary before to go over 80Mhz */
 818:Drivers/STM32G4xx_HAL_Driver/Src/stm32g4xx_hal_rcc.c ****       if(pllfreq > 80000000U)
 819:Drivers/STM32G4xx_HAL_Driver/Src/stm32g4xx_hal_rcc.c ****       {
 820:Drivers/STM32G4xx_HAL_Driver/Src/stm32g4xx_hal_rcc.c ****         if (((READ_BIT(RCC->CFGR, RCC_CFGR_HPRE) == RCC_SYSCLK_DIV1)) ||
 821:Drivers/STM32G4xx_HAL_Driver/Src/stm32g4xx_hal_rcc.c ****             (((((RCC_ClkInitStruct->ClockType) & RCC_CLOCKTYPE_HCLK) == RCC_CLOCKTYPE_HCLK) &&
ARM GAS  /tmp/ccE4sfSH.s 			page 42


 822:Drivers/STM32G4xx_HAL_Driver/Src/stm32g4xx_hal_rcc.c ****               (RCC_ClkInitStruct->AHBCLKDivider == RCC_SYSCLK_DIV1))))
 823:Drivers/STM32G4xx_HAL_Driver/Src/stm32g4xx_hal_rcc.c ****         {
 824:Drivers/STM32G4xx_HAL_Driver/Src/stm32g4xx_hal_rcc.c ****           MODIFY_REG(RCC->CFGR, RCC_CFGR_HPRE, RCC_SYSCLK_DIV2);
 825:Drivers/STM32G4xx_HAL_Driver/Src/stm32g4xx_hal_rcc.c ****           hpre = RCC_SYSCLK_DIV2;
 826:Drivers/STM32G4xx_HAL_Driver/Src/stm32g4xx_hal_rcc.c ****         }
 827:Drivers/STM32G4xx_HAL_Driver/Src/stm32g4xx_hal_rcc.c ****       }
 828:Drivers/STM32G4xx_HAL_Driver/Src/stm32g4xx_hal_rcc.c ****     }
 829:Drivers/STM32G4xx_HAL_Driver/Src/stm32g4xx_hal_rcc.c ****     else
 830:Drivers/STM32G4xx_HAL_Driver/Src/stm32g4xx_hal_rcc.c ****     {
 831:Drivers/STM32G4xx_HAL_Driver/Src/stm32g4xx_hal_rcc.c ****       /* HSE is selected as System Clock Source */
 832:Drivers/STM32G4xx_HAL_Driver/Src/stm32g4xx_hal_rcc.c ****       if (RCC_ClkInitStruct->SYSCLKSource == RCC_SYSCLKSOURCE_HSE)
 833:Drivers/STM32G4xx_HAL_Driver/Src/stm32g4xx_hal_rcc.c ****       {
 834:Drivers/STM32G4xx_HAL_Driver/Src/stm32g4xx_hal_rcc.c ****         /* Check the HSE ready flag */
 835:Drivers/STM32G4xx_HAL_Driver/Src/stm32g4xx_hal_rcc.c ****         if(READ_BIT(RCC->CR, RCC_CR_HSERDY) == 0U)
 836:Drivers/STM32G4xx_HAL_Driver/Src/stm32g4xx_hal_rcc.c ****         {
 837:Drivers/STM32G4xx_HAL_Driver/Src/stm32g4xx_hal_rcc.c ****           return HAL_ERROR;
 838:Drivers/STM32G4xx_HAL_Driver/Src/stm32g4xx_hal_rcc.c ****         }
 839:Drivers/STM32G4xx_HAL_Driver/Src/stm32g4xx_hal_rcc.c ****       }
 840:Drivers/STM32G4xx_HAL_Driver/Src/stm32g4xx_hal_rcc.c ****       /* HSI is selected as System Clock Source */
 841:Drivers/STM32G4xx_HAL_Driver/Src/stm32g4xx_hal_rcc.c ****       else
 842:Drivers/STM32G4xx_HAL_Driver/Src/stm32g4xx_hal_rcc.c ****       {
 843:Drivers/STM32G4xx_HAL_Driver/Src/stm32g4xx_hal_rcc.c ****         /* Check the HSI ready flag */
 844:Drivers/STM32G4xx_HAL_Driver/Src/stm32g4xx_hal_rcc.c ****         if(READ_BIT(RCC->CR, RCC_CR_HSIRDY) == 0U)
 845:Drivers/STM32G4xx_HAL_Driver/Src/stm32g4xx_hal_rcc.c ****         {
 846:Drivers/STM32G4xx_HAL_Driver/Src/stm32g4xx_hal_rcc.c ****           return HAL_ERROR;
 847:Drivers/STM32G4xx_HAL_Driver/Src/stm32g4xx_hal_rcc.c ****         }
 848:Drivers/STM32G4xx_HAL_Driver/Src/stm32g4xx_hal_rcc.c ****       }
 849:Drivers/STM32G4xx_HAL_Driver/Src/stm32g4xx_hal_rcc.c ****       /* Overshoot management when going down from PLL as SYSCLK source and frequency above 80Mhz *
 850:Drivers/STM32G4xx_HAL_Driver/Src/stm32g4xx_hal_rcc.c ****       pllfreq = HAL_RCC_GetSysClockFreq();
 851:Drivers/STM32G4xx_HAL_Driver/Src/stm32g4xx_hal_rcc.c **** 
 852:Drivers/STM32G4xx_HAL_Driver/Src/stm32g4xx_hal_rcc.c ****       /* Intermediate step with HCLK prescaler 2 necessary before to go under 80Mhz */
 853:Drivers/STM32G4xx_HAL_Driver/Src/stm32g4xx_hal_rcc.c ****       if(pllfreq > 80000000U)
 854:Drivers/STM32G4xx_HAL_Driver/Src/stm32g4xx_hal_rcc.c ****       {
 855:Drivers/STM32G4xx_HAL_Driver/Src/stm32g4xx_hal_rcc.c ****         MODIFY_REG(RCC->CFGR, RCC_CFGR_HPRE, RCC_SYSCLK_DIV2);
 856:Drivers/STM32G4xx_HAL_Driver/Src/stm32g4xx_hal_rcc.c ****         hpre = RCC_SYSCLK_DIV2;
 857:Drivers/STM32G4xx_HAL_Driver/Src/stm32g4xx_hal_rcc.c ****       }
 858:Drivers/STM32G4xx_HAL_Driver/Src/stm32g4xx_hal_rcc.c **** 
 859:Drivers/STM32G4xx_HAL_Driver/Src/stm32g4xx_hal_rcc.c ****     }
 860:Drivers/STM32G4xx_HAL_Driver/Src/stm32g4xx_hal_rcc.c **** 
 861:Drivers/STM32G4xx_HAL_Driver/Src/stm32g4xx_hal_rcc.c ****     MODIFY_REG(RCC->CFGR, RCC_CFGR_SW, RCC_ClkInitStruct->SYSCLKSource);
 862:Drivers/STM32G4xx_HAL_Driver/Src/stm32g4xx_hal_rcc.c **** 
 863:Drivers/STM32G4xx_HAL_Driver/Src/stm32g4xx_hal_rcc.c ****     /* Get Start Tick*/
 864:Drivers/STM32G4xx_HAL_Driver/Src/stm32g4xx_hal_rcc.c ****     tickstart = HAL_GetTick();
 865:Drivers/STM32G4xx_HAL_Driver/Src/stm32g4xx_hal_rcc.c **** 
 866:Drivers/STM32G4xx_HAL_Driver/Src/stm32g4xx_hal_rcc.c ****     while (__HAL_RCC_GET_SYSCLK_SOURCE() != (RCC_ClkInitStruct->SYSCLKSource << RCC_CFGR_SWS_Pos))
 867:Drivers/STM32G4xx_HAL_Driver/Src/stm32g4xx_hal_rcc.c ****     {
 868:Drivers/STM32G4xx_HAL_Driver/Src/stm32g4xx_hal_rcc.c ****       if ((HAL_GetTick() - tickstart) > CLOCKSWITCH_TIMEOUT_VALUE)
 869:Drivers/STM32G4xx_HAL_Driver/Src/stm32g4xx_hal_rcc.c ****       {
 870:Drivers/STM32G4xx_HAL_Driver/Src/stm32g4xx_hal_rcc.c ****         return HAL_TIMEOUT;
 871:Drivers/STM32G4xx_HAL_Driver/Src/stm32g4xx_hal_rcc.c ****       }
 872:Drivers/STM32G4xx_HAL_Driver/Src/stm32g4xx_hal_rcc.c ****     }
 873:Drivers/STM32G4xx_HAL_Driver/Src/stm32g4xx_hal_rcc.c ****   }
 874:Drivers/STM32G4xx_HAL_Driver/Src/stm32g4xx_hal_rcc.c **** 
 875:Drivers/STM32G4xx_HAL_Driver/Src/stm32g4xx_hal_rcc.c ****   /*-------------------------- HCLK Configuration --------------------------*/
 876:Drivers/STM32G4xx_HAL_Driver/Src/stm32g4xx_hal_rcc.c ****   if (((RCC_ClkInitStruct->ClockType) & RCC_CLOCKTYPE_HCLK) == RCC_CLOCKTYPE_HCLK)
 877:Drivers/STM32G4xx_HAL_Driver/Src/stm32g4xx_hal_rcc.c ****   {
 878:Drivers/STM32G4xx_HAL_Driver/Src/stm32g4xx_hal_rcc.c ****     /* Set the highest APB divider in order to ensure that we do not go through
ARM GAS  /tmp/ccE4sfSH.s 			page 43


 879:Drivers/STM32G4xx_HAL_Driver/Src/stm32g4xx_hal_rcc.c ****        a non-spec phase whatever we decrease or increase HCLK. */
 880:Drivers/STM32G4xx_HAL_Driver/Src/stm32g4xx_hal_rcc.c ****     if (((RCC_ClkInitStruct->ClockType) & RCC_CLOCKTYPE_PCLK1) == RCC_CLOCKTYPE_PCLK1)
 881:Drivers/STM32G4xx_HAL_Driver/Src/stm32g4xx_hal_rcc.c ****     {
 882:Drivers/STM32G4xx_HAL_Driver/Src/stm32g4xx_hal_rcc.c ****       MODIFY_REG(RCC->CFGR, RCC_CFGR_PPRE1, RCC_HCLK_DIV16);
 883:Drivers/STM32G4xx_HAL_Driver/Src/stm32g4xx_hal_rcc.c ****     }
 884:Drivers/STM32G4xx_HAL_Driver/Src/stm32g4xx_hal_rcc.c ****     if (((RCC_ClkInitStruct->ClockType) & RCC_CLOCKTYPE_PCLK2) == RCC_CLOCKTYPE_PCLK2)
 885:Drivers/STM32G4xx_HAL_Driver/Src/stm32g4xx_hal_rcc.c ****     {
 886:Drivers/STM32G4xx_HAL_Driver/Src/stm32g4xx_hal_rcc.c ****       MODIFY_REG(RCC->CFGR, RCC_CFGR_PPRE2, RCC_HCLK_DIV16);
 887:Drivers/STM32G4xx_HAL_Driver/Src/stm32g4xx_hal_rcc.c ****     }
 888:Drivers/STM32G4xx_HAL_Driver/Src/stm32g4xx_hal_rcc.c **** 
 889:Drivers/STM32G4xx_HAL_Driver/Src/stm32g4xx_hal_rcc.c ****     /* Set the new HCLK clock divider */
 890:Drivers/STM32G4xx_HAL_Driver/Src/stm32g4xx_hal_rcc.c ****     assert_param(IS_RCC_HCLK(RCC_ClkInitStruct->AHBCLKDivider));
 891:Drivers/STM32G4xx_HAL_Driver/Src/stm32g4xx_hal_rcc.c ****     MODIFY_REG(RCC->CFGR, RCC_CFGR_HPRE, RCC_ClkInitStruct->AHBCLKDivider);
 892:Drivers/STM32G4xx_HAL_Driver/Src/stm32g4xx_hal_rcc.c ****   }
 893:Drivers/STM32G4xx_HAL_Driver/Src/stm32g4xx_hal_rcc.c ****   else
 894:Drivers/STM32G4xx_HAL_Driver/Src/stm32g4xx_hal_rcc.c ****   {
 895:Drivers/STM32G4xx_HAL_Driver/Src/stm32g4xx_hal_rcc.c ****     /* Is intermediate HCLK prescaler 2 applied internally, complete with HCLK prescaler 1 */
 896:Drivers/STM32G4xx_HAL_Driver/Src/stm32g4xx_hal_rcc.c ****     if(hpre == RCC_SYSCLK_DIV2)
 897:Drivers/STM32G4xx_HAL_Driver/Src/stm32g4xx_hal_rcc.c ****     {
 898:Drivers/STM32G4xx_HAL_Driver/Src/stm32g4xx_hal_rcc.c ****       MODIFY_REG(RCC->CFGR, RCC_CFGR_HPRE, RCC_SYSCLK_DIV1);
 899:Drivers/STM32G4xx_HAL_Driver/Src/stm32g4xx_hal_rcc.c ****     }
 900:Drivers/STM32G4xx_HAL_Driver/Src/stm32g4xx_hal_rcc.c ****   }
 901:Drivers/STM32G4xx_HAL_Driver/Src/stm32g4xx_hal_rcc.c **** 
 902:Drivers/STM32G4xx_HAL_Driver/Src/stm32g4xx_hal_rcc.c ****   /* Decreasing the number of wait states because of lower CPU frequency */
 903:Drivers/STM32G4xx_HAL_Driver/Src/stm32g4xx_hal_rcc.c ****   if (FLatency < __HAL_FLASH_GET_LATENCY())
 904:Drivers/STM32G4xx_HAL_Driver/Src/stm32g4xx_hal_rcc.c ****   {
 905:Drivers/STM32G4xx_HAL_Driver/Src/stm32g4xx_hal_rcc.c ****     /* Program the new number of wait states to the LATENCY bits in the FLASH_ACR register */
 906:Drivers/STM32G4xx_HAL_Driver/Src/stm32g4xx_hal_rcc.c ****     __HAL_FLASH_SET_LATENCY(FLatency);
 907:Drivers/STM32G4xx_HAL_Driver/Src/stm32g4xx_hal_rcc.c **** 
 908:Drivers/STM32G4xx_HAL_Driver/Src/stm32g4xx_hal_rcc.c ****     /* Check that the new number of wait states is taken into account to access the Flash
 909:Drivers/STM32G4xx_HAL_Driver/Src/stm32g4xx_hal_rcc.c ****     memory by polling the FLASH_ACR register */
 910:Drivers/STM32G4xx_HAL_Driver/Src/stm32g4xx_hal_rcc.c ****     tickstart = HAL_GetTick();
 911:Drivers/STM32G4xx_HAL_Driver/Src/stm32g4xx_hal_rcc.c **** 
 912:Drivers/STM32G4xx_HAL_Driver/Src/stm32g4xx_hal_rcc.c ****     while (__HAL_FLASH_GET_LATENCY() != FLatency)
 913:Drivers/STM32G4xx_HAL_Driver/Src/stm32g4xx_hal_rcc.c ****     {
 914:Drivers/STM32G4xx_HAL_Driver/Src/stm32g4xx_hal_rcc.c ****       if ((HAL_GetTick() - tickstart) > CLOCKSWITCH_TIMEOUT_VALUE)
 915:Drivers/STM32G4xx_HAL_Driver/Src/stm32g4xx_hal_rcc.c ****       {
 916:Drivers/STM32G4xx_HAL_Driver/Src/stm32g4xx_hal_rcc.c ****         return HAL_TIMEOUT;
 917:Drivers/STM32G4xx_HAL_Driver/Src/stm32g4xx_hal_rcc.c ****       }
 918:Drivers/STM32G4xx_HAL_Driver/Src/stm32g4xx_hal_rcc.c ****     }
 919:Drivers/STM32G4xx_HAL_Driver/Src/stm32g4xx_hal_rcc.c ****   }
 920:Drivers/STM32G4xx_HAL_Driver/Src/stm32g4xx_hal_rcc.c **** 
 921:Drivers/STM32G4xx_HAL_Driver/Src/stm32g4xx_hal_rcc.c ****   /*-------------------------- PCLK1 Configuration ---------------------------*/
 922:Drivers/STM32G4xx_HAL_Driver/Src/stm32g4xx_hal_rcc.c ****   if (((RCC_ClkInitStruct->ClockType) & RCC_CLOCKTYPE_PCLK1) == RCC_CLOCKTYPE_PCLK1)
 923:Drivers/STM32G4xx_HAL_Driver/Src/stm32g4xx_hal_rcc.c ****   {
 924:Drivers/STM32G4xx_HAL_Driver/Src/stm32g4xx_hal_rcc.c ****     assert_param(IS_RCC_PCLK(RCC_ClkInitStruct->APB1CLKDivider));
 925:Drivers/STM32G4xx_HAL_Driver/Src/stm32g4xx_hal_rcc.c ****     MODIFY_REG(RCC->CFGR, RCC_CFGR_PPRE1, RCC_ClkInitStruct->APB1CLKDivider);
 926:Drivers/STM32G4xx_HAL_Driver/Src/stm32g4xx_hal_rcc.c ****   }
 927:Drivers/STM32G4xx_HAL_Driver/Src/stm32g4xx_hal_rcc.c **** 
 928:Drivers/STM32G4xx_HAL_Driver/Src/stm32g4xx_hal_rcc.c ****   /*-------------------------- PCLK2 Configuration ---------------------------*/
 929:Drivers/STM32G4xx_HAL_Driver/Src/stm32g4xx_hal_rcc.c ****   if(((RCC_ClkInitStruct->ClockType) & RCC_CLOCKTYPE_PCLK2) == RCC_CLOCKTYPE_PCLK2)
 930:Drivers/STM32G4xx_HAL_Driver/Src/stm32g4xx_hal_rcc.c ****   {
 931:Drivers/STM32G4xx_HAL_Driver/Src/stm32g4xx_hal_rcc.c ****     assert_param(IS_RCC_PCLK(RCC_ClkInitStruct->APB2CLKDivider));
 932:Drivers/STM32G4xx_HAL_Driver/Src/stm32g4xx_hal_rcc.c ****     MODIFY_REG(RCC->CFGR, RCC_CFGR_PPRE2, ((RCC_ClkInitStruct->APB2CLKDivider) << 3U));
 933:Drivers/STM32G4xx_HAL_Driver/Src/stm32g4xx_hal_rcc.c ****   }
 934:Drivers/STM32G4xx_HAL_Driver/Src/stm32g4xx_hal_rcc.c **** 
 935:Drivers/STM32G4xx_HAL_Driver/Src/stm32g4xx_hal_rcc.c ****   /* Update the SystemCoreClock global variable */
ARM GAS  /tmp/ccE4sfSH.s 			page 44


 936:Drivers/STM32G4xx_HAL_Driver/Src/stm32g4xx_hal_rcc.c ****   SystemCoreClock = HAL_RCC_GetSysClockFreq() >> (AHBPrescTable[READ_BIT(RCC->CFGR, RCC_CFGR_HPRE) 
 937:Drivers/STM32G4xx_HAL_Driver/Src/stm32g4xx_hal_rcc.c **** 
 938:Drivers/STM32G4xx_HAL_Driver/Src/stm32g4xx_hal_rcc.c ****   /* Configure the source of time base considering new system clocks settings*/
 939:Drivers/STM32G4xx_HAL_Driver/Src/stm32g4xx_hal_rcc.c ****   return HAL_InitTick(uwTickPrio);
 940:Drivers/STM32G4xx_HAL_Driver/Src/stm32g4xx_hal_rcc.c **** }
 941:Drivers/STM32G4xx_HAL_Driver/Src/stm32g4xx_hal_rcc.c **** 
 942:Drivers/STM32G4xx_HAL_Driver/Src/stm32g4xx_hal_rcc.c **** /**
 943:Drivers/STM32G4xx_HAL_Driver/Src/stm32g4xx_hal_rcc.c ****   * @}
 944:Drivers/STM32G4xx_HAL_Driver/Src/stm32g4xx_hal_rcc.c ****   */
 945:Drivers/STM32G4xx_HAL_Driver/Src/stm32g4xx_hal_rcc.c **** 
 946:Drivers/STM32G4xx_HAL_Driver/Src/stm32g4xx_hal_rcc.c **** /** @defgroup RCC_Exported_Functions_Group2 Peripheral Control functions
 947:Drivers/STM32G4xx_HAL_Driver/Src/stm32g4xx_hal_rcc.c ****  *  @brief   RCC clocks control functions
 948:Drivers/STM32G4xx_HAL_Driver/Src/stm32g4xx_hal_rcc.c ****  *
 949:Drivers/STM32G4xx_HAL_Driver/Src/stm32g4xx_hal_rcc.c **** @verbatim
 950:Drivers/STM32G4xx_HAL_Driver/Src/stm32g4xx_hal_rcc.c ****  ===============================================================================
 951:Drivers/STM32G4xx_HAL_Driver/Src/stm32g4xx_hal_rcc.c ****                       ##### Peripheral Control functions #####
 952:Drivers/STM32G4xx_HAL_Driver/Src/stm32g4xx_hal_rcc.c ****  ===============================================================================
 953:Drivers/STM32G4xx_HAL_Driver/Src/stm32g4xx_hal_rcc.c ****     [..]
 954:Drivers/STM32G4xx_HAL_Driver/Src/stm32g4xx_hal_rcc.c ****     This subsection provides a set of functions allowing to:
 955:Drivers/STM32G4xx_HAL_Driver/Src/stm32g4xx_hal_rcc.c **** 
 956:Drivers/STM32G4xx_HAL_Driver/Src/stm32g4xx_hal_rcc.c ****     (+) Output clock to MCO pin.
 957:Drivers/STM32G4xx_HAL_Driver/Src/stm32g4xx_hal_rcc.c ****     (+) Retrieve current clock frequencies.
 958:Drivers/STM32G4xx_HAL_Driver/Src/stm32g4xx_hal_rcc.c ****     (+) Enable the Clock Security System.
 959:Drivers/STM32G4xx_HAL_Driver/Src/stm32g4xx_hal_rcc.c **** 
 960:Drivers/STM32G4xx_HAL_Driver/Src/stm32g4xx_hal_rcc.c **** @endverbatim
 961:Drivers/STM32G4xx_HAL_Driver/Src/stm32g4xx_hal_rcc.c ****   * @{
 962:Drivers/STM32G4xx_HAL_Driver/Src/stm32g4xx_hal_rcc.c ****   */
 963:Drivers/STM32G4xx_HAL_Driver/Src/stm32g4xx_hal_rcc.c **** 
 964:Drivers/STM32G4xx_HAL_Driver/Src/stm32g4xx_hal_rcc.c **** /**
 965:Drivers/STM32G4xx_HAL_Driver/Src/stm32g4xx_hal_rcc.c ****   * @brief  Select the clock source to output on MCO pin(PA8/PG10).
 966:Drivers/STM32G4xx_HAL_Driver/Src/stm32g4xx_hal_rcc.c ****   * @note   PA8/PG10 should be configured in alternate function mode.
 967:Drivers/STM32G4xx_HAL_Driver/Src/stm32g4xx_hal_rcc.c ****   * @note   The default configuration of the GPIOG pin 10 (PG10) is set to reset mode (NRST pin)
 968:Drivers/STM32G4xx_HAL_Driver/Src/stm32g4xx_hal_rcc.c ****   *         and user shall set the NRST_MODE Bit in the FLASH OPTR register to be able to use it 
 969:Drivers/STM32G4xx_HAL_Driver/Src/stm32g4xx_hal_rcc.c ****   *         as an MCO pin.
 970:Drivers/STM32G4xx_HAL_Driver/Src/stm32g4xx_hal_rcc.c ****   *         The @ref HAL_FLASHEx_OBProgram() API can be used to configure the NRST_MODE Bit value.
 971:Drivers/STM32G4xx_HAL_Driver/Src/stm32g4xx_hal_rcc.c ****   * @param  RCC_MCOx  specifies the output direction for the clock source.
 972:Drivers/STM32G4xx_HAL_Driver/Src/stm32g4xx_hal_rcc.c ****   *          For STM32G4xx family this parameter can have only one value:
 973:Drivers/STM32G4xx_HAL_Driver/Src/stm32g4xx_hal_rcc.c ****   *            @arg @ref RCC_MCO_PA8  Clock source to output on MCO1 pin(PA8).
 974:Drivers/STM32G4xx_HAL_Driver/Src/stm32g4xx_hal_rcc.c ****   *            @arg @ref RCC_MCO_PG10  Clock source to output on MCO1 pin(PG10).
 975:Drivers/STM32G4xx_HAL_Driver/Src/stm32g4xx_hal_rcc.c ****   * @param  RCC_MCOSource  specifies the clock source to output.
 976:Drivers/STM32G4xx_HAL_Driver/Src/stm32g4xx_hal_rcc.c ****   *          This parameter can be one of the following values:
 977:Drivers/STM32G4xx_HAL_Driver/Src/stm32g4xx_hal_rcc.c ****   *            @arg @ref RCC_MCO1SOURCE_NOCLOCK  MCO output disabled, no clock on MCO
 978:Drivers/STM32G4xx_HAL_Driver/Src/stm32g4xx_hal_rcc.c ****   *            @arg @ref RCC_MCO1SOURCE_SYSCLK  system  clock selected as MCO source
 979:Drivers/STM32G4xx_HAL_Driver/Src/stm32g4xx_hal_rcc.c ****   *            @arg @ref RCC_MCO1SOURCE_HSI  HSI clock selected as MCO source
 980:Drivers/STM32G4xx_HAL_Driver/Src/stm32g4xx_hal_rcc.c ****   *            @arg @ref RCC_MCO1SOURCE_HSE  HSE clock selected as MCO source
 981:Drivers/STM32G4xx_HAL_Driver/Src/stm32g4xx_hal_rcc.c ****   *            @arg @ref RCC_MCO1SOURCE_PLLCLK  main PLL clock selected as MCO source
 982:Drivers/STM32G4xx_HAL_Driver/Src/stm32g4xx_hal_rcc.c ****   *            @arg @ref RCC_MCO1SOURCE_LSI  LSI clock selected as MCO source
 983:Drivers/STM32G4xx_HAL_Driver/Src/stm32g4xx_hal_rcc.c ****   *            @arg @ref RCC_MCO1SOURCE_LSE  LSE clock selected as MCO source
 984:Drivers/STM32G4xx_HAL_Driver/Src/stm32g4xx_hal_rcc.c ****   *            @arg @ref RCC_MCO1SOURCE_HSI48  HSI48 clock selected as MCO source for devices with 
 985:Drivers/STM32G4xx_HAL_Driver/Src/stm32g4xx_hal_rcc.c ****   * @param  RCC_MCODiv  specifies the MCO prescaler.
 986:Drivers/STM32G4xx_HAL_Driver/Src/stm32g4xx_hal_rcc.c ****   *          This parameter can be one of the following values:
 987:Drivers/STM32G4xx_HAL_Driver/Src/stm32g4xx_hal_rcc.c ****   *            @arg @ref RCC_MCODIV_1  no division applied to MCO clock
 988:Drivers/STM32G4xx_HAL_Driver/Src/stm32g4xx_hal_rcc.c ****   *            @arg @ref RCC_MCODIV_2  division by 2 applied to MCO clock
 989:Drivers/STM32G4xx_HAL_Driver/Src/stm32g4xx_hal_rcc.c ****   *            @arg @ref RCC_MCODIV_4  division by 4 applied to MCO clock
 990:Drivers/STM32G4xx_HAL_Driver/Src/stm32g4xx_hal_rcc.c ****   *            @arg @ref RCC_MCODIV_8  division by 8 applied to MCO clock
 991:Drivers/STM32G4xx_HAL_Driver/Src/stm32g4xx_hal_rcc.c ****   *            @arg @ref RCC_MCODIV_16  division by 16 applied to MCO clock
 992:Drivers/STM32G4xx_HAL_Driver/Src/stm32g4xx_hal_rcc.c ****   * @retval None
ARM GAS  /tmp/ccE4sfSH.s 			page 45


 993:Drivers/STM32G4xx_HAL_Driver/Src/stm32g4xx_hal_rcc.c ****   */
 994:Drivers/STM32G4xx_HAL_Driver/Src/stm32g4xx_hal_rcc.c **** void HAL_RCC_MCOConfig(uint32_t RCC_MCOx, uint32_t RCC_MCOSource, uint32_t RCC_MCODiv)
 995:Drivers/STM32G4xx_HAL_Driver/Src/stm32g4xx_hal_rcc.c **** {
 1265              		.loc 1 995 1 is_stmt 1 view -0
 1266              		.cfi_startproc
 1267              		@ args = 0, pretend = 0, frame = 24
 1268              		@ frame_needed = 0, uses_anonymous_args = 0
 996:Drivers/STM32G4xx_HAL_Driver/Src/stm32g4xx_hal_rcc.c ****   GPIO_InitTypeDef gpio_initstruct;
 1269              		.loc 1 996 3 view .LVU444
 997:Drivers/STM32G4xx_HAL_Driver/Src/stm32g4xx_hal_rcc.c ****   uint32_t mcoindex;
 1270              		.loc 1 997 3 view .LVU445
 998:Drivers/STM32G4xx_HAL_Driver/Src/stm32g4xx_hal_rcc.c ****   uint32_t mco_gpio_index;
 1271              		.loc 1 998 3 view .LVU446
 999:Drivers/STM32G4xx_HAL_Driver/Src/stm32g4xx_hal_rcc.c ****   GPIO_TypeDef * mco_gpio_port;
 1272              		.loc 1 999 3 view .LVU447
1000:Drivers/STM32G4xx_HAL_Driver/Src/stm32g4xx_hal_rcc.c **** 
1001:Drivers/STM32G4xx_HAL_Driver/Src/stm32g4xx_hal_rcc.c ****   /* Check the parameters */
1002:Drivers/STM32G4xx_HAL_Driver/Src/stm32g4xx_hal_rcc.c ****   assert_param(IS_RCC_MCO(RCC_MCOx));
 1273              		.loc 1 1002 3 view .LVU448
1003:Drivers/STM32G4xx_HAL_Driver/Src/stm32g4xx_hal_rcc.c **** 
1004:Drivers/STM32G4xx_HAL_Driver/Src/stm32g4xx_hal_rcc.c ****   /* Common GPIO init parameters */
1005:Drivers/STM32G4xx_HAL_Driver/Src/stm32g4xx_hal_rcc.c ****   gpio_initstruct.Mode      = GPIO_MODE_AF_PP;
 1274              		.loc 1 1005 3 view .LVU449
 995:Drivers/STM32G4xx_HAL_Driver/Src/stm32g4xx_hal_rcc.c ****   GPIO_InitTypeDef gpio_initstruct;
 1275              		.loc 1 995 1 is_stmt 0 view .LVU450
 1276 0000 F0B5     		push	{r4, r5, r6, r7, lr}
 1277              	.LCFI11:
 1278              		.cfi_def_cfa_offset 20
 1279              		.cfi_offset 4, -20
 1280              		.cfi_offset 5, -16
 1281              		.cfi_offset 6, -12
 1282              		.cfi_offset 7, -8
 1283              		.cfi_offset 14, -4
 1284 0002 87B0     		sub	sp, sp, #28
 1285              	.LCFI12:
 1286              		.cfi_def_cfa_offset 48
 1287              		.loc 1 1005 29 view .LVU451
 1288 0004 0223     		movs	r3, #2
 1289 0006 0293     		str	r3, [sp, #8]
1006:Drivers/STM32G4xx_HAL_Driver/Src/stm32g4xx_hal_rcc.c ****   gpio_initstruct.Speed     = GPIO_SPEED_FREQ_VERY_HIGH;
 1290              		.loc 1 1006 3 is_stmt 1 view .LVU452
1007:Drivers/STM32G4xx_HAL_Driver/Src/stm32g4xx_hal_rcc.c ****   gpio_initstruct.Pull      = GPIO_NOPULL;
 1291              		.loc 1 1007 29 is_stmt 0 view .LVU453
 1292 0008 0325     		movs	r5, #3
 1293 000a 0023     		movs	r3, #0
 1294 000c CDE90335 		strd	r3, r5, [sp, #12]
1008:Drivers/STM32G4xx_HAL_Driver/Src/stm32g4xx_hal_rcc.c **** 
1009:Drivers/STM32G4xx_HAL_Driver/Src/stm32g4xx_hal_rcc.c ****   /* Get MCOx selection */
1010:Drivers/STM32G4xx_HAL_Driver/Src/stm32g4xx_hal_rcc.c ****   mcoindex = RCC_MCOx & RCC_MCO_INDEX_MASK;
 1295              		.loc 1 1010 3 is_stmt 1 view .LVU454
 1296              	.LVL113:
1011:Drivers/STM32G4xx_HAL_Driver/Src/stm32g4xx_hal_rcc.c **** 
1012:Drivers/STM32G4xx_HAL_Driver/Src/stm32g4xx_hal_rcc.c ****   /* Get MCOx GPIO Port */
1013:Drivers/STM32G4xx_HAL_Driver/Src/stm32g4xx_hal_rcc.c ****   mco_gpio_port = (GPIO_TypeDef *) RCC_GET_MCO_GPIO_PORT(RCC_MCOx);
 1297              		.loc 1 1013 3 view .LVU455
1014:Drivers/STM32G4xx_HAL_Driver/Src/stm32g4xx_hal_rcc.c **** 
1015:Drivers/STM32G4xx_HAL_Driver/Src/stm32g4xx_hal_rcc.c ****   /* MCOx Clock Enable */
ARM GAS  /tmp/ccE4sfSH.s 			page 46


1016:Drivers/STM32G4xx_HAL_Driver/Src/stm32g4xx_hal_rcc.c ****   mco_gpio_index = RCC_GET_MCO_GPIO_INDEX(RCC_MCOx);
1017:Drivers/STM32G4xx_HAL_Driver/Src/stm32g4xx_hal_rcc.c ****   SET_BIT(RCC->AHB2ENR, (1UL << mco_gpio_index ));
 1298              		.loc 1 1017 3 is_stmt 0 view .LVU456
 1299 0010 0F4F     		ldr	r7, .L148
 995:Drivers/STM32G4xx_HAL_Driver/Src/stm32g4xx_hal_rcc.c ****   GPIO_InitTypeDef gpio_initstruct;
 1300              		.loc 1 995 1 view .LVU457
 1301 0012 0446     		mov	r4, r0
 1302 0014 1646     		mov	r6, r2
1013:Drivers/STM32G4xx_HAL_Driver/Src/stm32g4xx_hal_rcc.c **** 
 1303              		.loc 1 1013 36 view .LVU458
 1304 0016 C0F30340 		ubfx	r0, r0, #16, #4
 1305              	.LVL114:
1016:Drivers/STM32G4xx_HAL_Driver/Src/stm32g4xx_hal_rcc.c ****   SET_BIT(RCC->AHB2ENR, (1UL << mco_gpio_index ));
 1306              		.loc 1 1016 3 is_stmt 1 view .LVU459
 1307              		.loc 1 1017 3 view .LVU460
 1308 001a FA6C     		ldr	r2, [r7, #76]
 1309              	.LVL115:
 1310              		.loc 1 1017 3 is_stmt 0 view .LVU461
 1311 001c 0123     		movs	r3, #1
 1312 001e 8340     		lsls	r3, r3, r0
 1313 0020 1343     		orrs	r3, r3, r2
 1314 0022 FB64     		str	r3, [r7, #76]
1018:Drivers/STM32G4xx_HAL_Driver/Src/stm32g4xx_hal_rcc.c **** 
1019:Drivers/STM32G4xx_HAL_Driver/Src/stm32g4xx_hal_rcc.c ****   /* Configure the MCOx pin in alternate function mode */
1020:Drivers/STM32G4xx_HAL_Driver/Src/stm32g4xx_hal_rcc.c ****   gpio_initstruct.Pin = RCC_GET_MCO_GPIO_PIN(RCC_MCOx);
 1315              		.loc 1 1020 3 is_stmt 1 view .LVU462
1013:Drivers/STM32G4xx_HAL_Driver/Src/stm32g4xx_hal_rcc.c **** 
 1316              		.loc 1 1013 36 is_stmt 0 view .LVU463
 1317 0024 00F59010 		add	r0, r0, #1179648
 1318              	.LVL116:
 1319              		.loc 1 1020 25 view .LVU464
 1320 0028 A3B2     		uxth	r3, r4
 1321              		.loc 1 1020 23 view .LVU465
 1322 002a 0193     		str	r3, [sp, #4]
1021:Drivers/STM32G4xx_HAL_Driver/Src/stm32g4xx_hal_rcc.c ****   gpio_initstruct.Alternate = RCC_GET_MCO_GPIO_AF(RCC_MCOx);
 1323              		.loc 1 1021 3 is_stmt 1 view .LVU466
 995:Drivers/STM32G4xx_HAL_Driver/Src/stm32g4xx_hal_rcc.c ****   GPIO_InitTypeDef gpio_initstruct;
 1324              		.loc 1 995 1 is_stmt 0 view .LVU467
 1325 002c 0D46     		mov	r5, r1
 1326              		.loc 1 1021 31 view .LVU468
 1327 002e C4F30753 		ubfx	r3, r4, #20, #8
1022:Drivers/STM32G4xx_HAL_Driver/Src/stm32g4xx_hal_rcc.c ****   HAL_GPIO_Init(mco_gpio_port, &gpio_initstruct);
 1328              		.loc 1 1022 3 view .LVU469
 1329 0032 8002     		lsls	r0, r0, #10
 1330              	.LVL117:
 1331              		.loc 1 1022 3 view .LVU470
 1332 0034 01A9     		add	r1, sp, #4
 1333              	.LVL118:
1021:Drivers/STM32G4xx_HAL_Driver/Src/stm32g4xx_hal_rcc.c ****   gpio_initstruct.Alternate = RCC_GET_MCO_GPIO_AF(RCC_MCOx);
 1334              		.loc 1 1021 29 view .LVU471
 1335 0036 0593     		str	r3, [sp, #20]
 1336              		.loc 1 1022 3 is_stmt 1 view .LVU472
 1337 0038 FFF7FEFF 		bl	HAL_GPIO_Init
 1338              	.LVL119:
1023:Drivers/STM32G4xx_HAL_Driver/Src/stm32g4xx_hal_rcc.c **** 
1024:Drivers/STM32G4xx_HAL_Driver/Src/stm32g4xx_hal_rcc.c ****    if (mcoindex == RCC_MCO1_INDEX)
 1339              		.loc 1 1024 4 view .LVU473
ARM GAS  /tmp/ccE4sfSH.s 			page 47


 1340              		.loc 1 1024 7 is_stmt 0 view .LVU474
 1341 003c E300     		lsls	r3, r4, #3
 1342 003e 05D4     		bmi	.L145
1025:Drivers/STM32G4xx_HAL_Driver/Src/stm32g4xx_hal_rcc.c ****   {
1026:Drivers/STM32G4xx_HAL_Driver/Src/stm32g4xx_hal_rcc.c ****     assert_param(IS_RCC_MCODIV(RCC_MCODiv));
 1343              		.loc 1 1026 5 is_stmt 1 view .LVU475
1027:Drivers/STM32G4xx_HAL_Driver/Src/stm32g4xx_hal_rcc.c ****     assert_param(IS_RCC_MCO1SOURCE(RCC_MCOSource));
 1344              		.loc 1 1027 5 view .LVU476
1028:Drivers/STM32G4xx_HAL_Driver/Src/stm32g4xx_hal_rcc.c ****     /* Mask MCOSEL[] and MCOPRE[] bits then set MCO clock source and prescaler */
1029:Drivers/STM32G4xx_HAL_Driver/Src/stm32g4xx_hal_rcc.c ****     MODIFY_REG(RCC->CFGR, (RCC_CFGR_MCOSEL | RCC_CFGR_MCOPRE), (RCC_MCOSource | RCC_MCODiv));
 1345              		.loc 1 1029 5 view .LVU477
 1346 0040 BA68     		ldr	r2, [r7, #8]
 1347 0042 22F0FE42 		bic	r2, r2, #2130706432
 1348 0046 1643     		orrs	r6, r6, r2
 1349              	.LVL120:
 1350              		.loc 1 1029 5 is_stmt 0 view .LVU478
 1351 0048 3543     		orrs	r5, r5, r6
 1352              	.LVL121:
 1353              		.loc 1 1029 5 view .LVU479
 1354 004a BD60     		str	r5, [r7, #8]
 1355              	.L145:
1030:Drivers/STM32G4xx_HAL_Driver/Src/stm32g4xx_hal_rcc.c ****   }
1031:Drivers/STM32G4xx_HAL_Driver/Src/stm32g4xx_hal_rcc.c **** }
 1356              		.loc 1 1031 1 view .LVU480
 1357 004c 07B0     		add	sp, sp, #28
 1358              	.LCFI13:
 1359              		.cfi_def_cfa_offset 20
 1360              		@ sp needed
 1361 004e F0BD     		pop	{r4, r5, r6, r7, pc}
 1362              	.LVL122:
 1363              	.L149:
 1364              		.loc 1 1031 1 view .LVU481
 1365              		.align	2
 1366              	.L148:
 1367 0050 00100240 		.word	1073876992
 1368              		.cfi_endproc
 1369              	.LFE135:
 1371              		.section	.text.HAL_RCC_GetSysClockFreq,"ax",%progbits
 1372              		.align	1
 1373              		.p2align 2,,3
 1374              		.global	HAL_RCC_GetSysClockFreq
 1375              		.syntax unified
 1376              		.thumb
 1377              		.thumb_func
 1378              		.fpu fpv4-sp-d16
 1380              	HAL_RCC_GetSysClockFreq:
 1381              	.LFB136:
1032:Drivers/STM32G4xx_HAL_Driver/Src/stm32g4xx_hal_rcc.c **** 
1033:Drivers/STM32G4xx_HAL_Driver/Src/stm32g4xx_hal_rcc.c **** /**
1034:Drivers/STM32G4xx_HAL_Driver/Src/stm32g4xx_hal_rcc.c ****   * @brief  Return the SYSCLK frequency.
1035:Drivers/STM32G4xx_HAL_Driver/Src/stm32g4xx_hal_rcc.c ****   *
1036:Drivers/STM32G4xx_HAL_Driver/Src/stm32g4xx_hal_rcc.c ****   * @note   The system frequency computed by this function is not the real
1037:Drivers/STM32G4xx_HAL_Driver/Src/stm32g4xx_hal_rcc.c ****   *         frequency in the chip. It is calculated based on the predefined
1038:Drivers/STM32G4xx_HAL_Driver/Src/stm32g4xx_hal_rcc.c ****   *         constant and the selected clock source:
1039:Drivers/STM32G4xx_HAL_Driver/Src/stm32g4xx_hal_rcc.c ****   * @note     If SYSCLK source is HSI, function returns values based on HSI_VALUE(*)
1040:Drivers/STM32G4xx_HAL_Driver/Src/stm32g4xx_hal_rcc.c ****   * @note     If SYSCLK source is HSE, function returns values based on HSE_VALUE(**)
1041:Drivers/STM32G4xx_HAL_Driver/Src/stm32g4xx_hal_rcc.c ****   * @note     If SYSCLK source is PLL, function returns values based on HSE_VALUE(**),
ARM GAS  /tmp/ccE4sfSH.s 			page 48


1042:Drivers/STM32G4xx_HAL_Driver/Src/stm32g4xx_hal_rcc.c ****   *           HSI_VALUE(*) Value multiplied/divided by the PLL factors.
1043:Drivers/STM32G4xx_HAL_Driver/Src/stm32g4xx_hal_rcc.c ****   * @note     (*) HSI_VALUE is a constant defined in stm32g4xx_hal_conf.h file (default value
1044:Drivers/STM32G4xx_HAL_Driver/Src/stm32g4xx_hal_rcc.c ****   *               16 MHz) but the real value may vary depending on the variations
1045:Drivers/STM32G4xx_HAL_Driver/Src/stm32g4xx_hal_rcc.c ****   *               in voltage and temperature.
1046:Drivers/STM32G4xx_HAL_Driver/Src/stm32g4xx_hal_rcc.c ****   * @note     (**) HSE_VALUE is a constant defined in stm32g4xx_hal_conf.h file (default value
1047:Drivers/STM32G4xx_HAL_Driver/Src/stm32g4xx_hal_rcc.c ****   *                8 MHz), user has to ensure that HSE_VALUE is same as the real
1048:Drivers/STM32G4xx_HAL_Driver/Src/stm32g4xx_hal_rcc.c ****   *                frequency of the crystal used. Otherwise, this function may
1049:Drivers/STM32G4xx_HAL_Driver/Src/stm32g4xx_hal_rcc.c ****   *                have wrong result.
1050:Drivers/STM32G4xx_HAL_Driver/Src/stm32g4xx_hal_rcc.c ****   *
1051:Drivers/STM32G4xx_HAL_Driver/Src/stm32g4xx_hal_rcc.c ****   * @note   The result of this function could be not correct when using fractional
1052:Drivers/STM32G4xx_HAL_Driver/Src/stm32g4xx_hal_rcc.c ****   *         value for HSE crystal.
1053:Drivers/STM32G4xx_HAL_Driver/Src/stm32g4xx_hal_rcc.c ****   *
1054:Drivers/STM32G4xx_HAL_Driver/Src/stm32g4xx_hal_rcc.c ****   * @note   This function can be used by the user application to compute the
1055:Drivers/STM32G4xx_HAL_Driver/Src/stm32g4xx_hal_rcc.c ****   *         baudrate for the communication peripherals or configure other parameters.
1056:Drivers/STM32G4xx_HAL_Driver/Src/stm32g4xx_hal_rcc.c ****   *
1057:Drivers/STM32G4xx_HAL_Driver/Src/stm32g4xx_hal_rcc.c ****   * @note   Each time SYSCLK changes, this function must be called to update the
1058:Drivers/STM32G4xx_HAL_Driver/Src/stm32g4xx_hal_rcc.c ****   *         right SYSCLK value. Otherwise, any configuration based on this function will be incorre
1059:Drivers/STM32G4xx_HAL_Driver/Src/stm32g4xx_hal_rcc.c ****   *
1060:Drivers/STM32G4xx_HAL_Driver/Src/stm32g4xx_hal_rcc.c ****   *
1061:Drivers/STM32G4xx_HAL_Driver/Src/stm32g4xx_hal_rcc.c ****   * @retval SYSCLK frequency
1062:Drivers/STM32G4xx_HAL_Driver/Src/stm32g4xx_hal_rcc.c ****   */
1063:Drivers/STM32G4xx_HAL_Driver/Src/stm32g4xx_hal_rcc.c **** uint32_t HAL_RCC_GetSysClockFreq(void)
1064:Drivers/STM32G4xx_HAL_Driver/Src/stm32g4xx_hal_rcc.c **** {
 1382              		.loc 1 1064 1 is_stmt 1 view -0
 1383              		.cfi_startproc
 1384              		@ args = 0, pretend = 0, frame = 0
 1385              		@ frame_needed = 0, uses_anonymous_args = 0
 1386              		@ link register save eliminated.
1065:Drivers/STM32G4xx_HAL_Driver/Src/stm32g4xx_hal_rcc.c ****   uint32_t pllvco, pllsource, pllr, pllm;
 1387              		.loc 1 1065 3 view .LVU483
1066:Drivers/STM32G4xx_HAL_Driver/Src/stm32g4xx_hal_rcc.c ****   uint32_t sysclockfreq;
 1388              		.loc 1 1066 3 view .LVU484
1067:Drivers/STM32G4xx_HAL_Driver/Src/stm32g4xx_hal_rcc.c **** 
1068:Drivers/STM32G4xx_HAL_Driver/Src/stm32g4xx_hal_rcc.c ****   if (__HAL_RCC_GET_SYSCLK_SOURCE() == RCC_CFGR_SWS_HSI)
 1389              		.loc 1 1068 3 view .LVU485
 1390              		.loc 1 1068 7 is_stmt 0 view .LVU486
 1391 0000 184B     		ldr	r3, .L158
 1392 0002 9A68     		ldr	r2, [r3, #8]
 1393 0004 02F00C02 		and	r2, r2, #12
 1394              		.loc 1 1068 6 view .LVU487
 1395 0008 042A     		cmp	r2, #4
 1396 000a 27D0     		beq	.L154
1069:Drivers/STM32G4xx_HAL_Driver/Src/stm32g4xx_hal_rcc.c ****   {
1070:Drivers/STM32G4xx_HAL_Driver/Src/stm32g4xx_hal_rcc.c ****     /* HSI used as system clock source */
1071:Drivers/STM32G4xx_HAL_Driver/Src/stm32g4xx_hal_rcc.c ****     sysclockfreq = HSI_VALUE;
1072:Drivers/STM32G4xx_HAL_Driver/Src/stm32g4xx_hal_rcc.c ****   }
1073:Drivers/STM32G4xx_HAL_Driver/Src/stm32g4xx_hal_rcc.c ****   else if (__HAL_RCC_GET_SYSCLK_SOURCE() == RCC_CFGR_SWS_HSE)
 1397              		.loc 1 1073 8 is_stmt 1 view .LVU488
 1398              		.loc 1 1073 12 is_stmt 0 view .LVU489
 1399 000c 9A68     		ldr	r2, [r3, #8]
 1400 000e 02F00C02 		and	r2, r2, #12
 1401              		.loc 1 1073 11 view .LVU490
 1402 0012 082A     		cmp	r2, #8
 1403 0014 24D0     		beq	.L155
1074:Drivers/STM32G4xx_HAL_Driver/Src/stm32g4xx_hal_rcc.c ****   {
1075:Drivers/STM32G4xx_HAL_Driver/Src/stm32g4xx_hal_rcc.c ****     /* HSE used as system clock source */
1076:Drivers/STM32G4xx_HAL_Driver/Src/stm32g4xx_hal_rcc.c ****     sysclockfreq = HSE_VALUE;
ARM GAS  /tmp/ccE4sfSH.s 			page 49


1077:Drivers/STM32G4xx_HAL_Driver/Src/stm32g4xx_hal_rcc.c ****   }
1078:Drivers/STM32G4xx_HAL_Driver/Src/stm32g4xx_hal_rcc.c ****   else if (__HAL_RCC_GET_SYSCLK_SOURCE() == RCC_CFGR_SWS_PLL)
 1404              		.loc 1 1078 8 is_stmt 1 view .LVU491
 1405              		.loc 1 1078 12 is_stmt 0 view .LVU492
 1406 0016 9A68     		ldr	r2, [r3, #8]
 1407 0018 02F00C02 		and	r2, r2, #12
 1408              		.loc 1 1078 11 view .LVU493
 1409 001c 0C2A     		cmp	r2, #12
 1410 001e 01D0     		beq	.L157
1079:Drivers/STM32G4xx_HAL_Driver/Src/stm32g4xx_hal_rcc.c ****   {
1080:Drivers/STM32G4xx_HAL_Driver/Src/stm32g4xx_hal_rcc.c ****     /* PLL used as system clock  source */
1081:Drivers/STM32G4xx_HAL_Driver/Src/stm32g4xx_hal_rcc.c **** 
1082:Drivers/STM32G4xx_HAL_Driver/Src/stm32g4xx_hal_rcc.c ****     /* PLL_VCO = ((HSE_VALUE or HSI_VALUE)/ PLLM) * PLLN
1083:Drivers/STM32G4xx_HAL_Driver/Src/stm32g4xx_hal_rcc.c ****     SYSCLK = PLL_VCO / PLLR
1084:Drivers/STM32G4xx_HAL_Driver/Src/stm32g4xx_hal_rcc.c ****     */
1085:Drivers/STM32G4xx_HAL_Driver/Src/stm32g4xx_hal_rcc.c ****     pllsource = READ_BIT(RCC->PLLCFGR, RCC_PLLCFGR_PLLSRC);
1086:Drivers/STM32G4xx_HAL_Driver/Src/stm32g4xx_hal_rcc.c ****     pllm = (READ_BIT(RCC->PLLCFGR, RCC_PLLCFGR_PLLM) >> RCC_PLLCFGR_PLLM_Pos) + 1U ;
1087:Drivers/STM32G4xx_HAL_Driver/Src/stm32g4xx_hal_rcc.c **** 
1088:Drivers/STM32G4xx_HAL_Driver/Src/stm32g4xx_hal_rcc.c ****     switch (pllsource)
1089:Drivers/STM32G4xx_HAL_Driver/Src/stm32g4xx_hal_rcc.c ****     {
1090:Drivers/STM32G4xx_HAL_Driver/Src/stm32g4xx_hal_rcc.c ****     case RCC_PLLSOURCE_HSE:  /* HSE used as PLL clock source */
1091:Drivers/STM32G4xx_HAL_Driver/Src/stm32g4xx_hal_rcc.c ****       pllvco = (HSE_VALUE / pllm) * (READ_BIT(RCC->PLLCFGR, RCC_PLLCFGR_PLLN) >> RCC_PLLCFGR_PLLN_P
1092:Drivers/STM32G4xx_HAL_Driver/Src/stm32g4xx_hal_rcc.c ****       break;
1093:Drivers/STM32G4xx_HAL_Driver/Src/stm32g4xx_hal_rcc.c **** 
1094:Drivers/STM32G4xx_HAL_Driver/Src/stm32g4xx_hal_rcc.c ****     case RCC_PLLSOURCE_HSI:  /* HSI used as PLL clock source */
1095:Drivers/STM32G4xx_HAL_Driver/Src/stm32g4xx_hal_rcc.c ****     default:
1096:Drivers/STM32G4xx_HAL_Driver/Src/stm32g4xx_hal_rcc.c ****       pllvco = (HSI_VALUE / pllm) * (READ_BIT(RCC->PLLCFGR, RCC_PLLCFGR_PLLN) >> RCC_PLLCFGR_PLLN_P
1097:Drivers/STM32G4xx_HAL_Driver/Src/stm32g4xx_hal_rcc.c ****       break;
1098:Drivers/STM32G4xx_HAL_Driver/Src/stm32g4xx_hal_rcc.c ****     }
1099:Drivers/STM32G4xx_HAL_Driver/Src/stm32g4xx_hal_rcc.c ****     pllr = ((READ_BIT(RCC->PLLCFGR, RCC_PLLCFGR_PLLR) >> RCC_PLLCFGR_PLLR_Pos) + 1U ) * 2U;
1100:Drivers/STM32G4xx_HAL_Driver/Src/stm32g4xx_hal_rcc.c ****     sysclockfreq = pllvco/pllr;
1101:Drivers/STM32G4xx_HAL_Driver/Src/stm32g4xx_hal_rcc.c ****   }
1102:Drivers/STM32G4xx_HAL_Driver/Src/stm32g4xx_hal_rcc.c ****   else
1103:Drivers/STM32G4xx_HAL_Driver/Src/stm32g4xx_hal_rcc.c ****   {
1104:Drivers/STM32G4xx_HAL_Driver/Src/stm32g4xx_hal_rcc.c ****     sysclockfreq = 0U;
 1411              		.loc 1 1104 18 view .LVU494
 1412 0020 0020     		movs	r0, #0
 1413              	.LVL123:
1105:Drivers/STM32G4xx_HAL_Driver/Src/stm32g4xx_hal_rcc.c ****   }
1106:Drivers/STM32G4xx_HAL_Driver/Src/stm32g4xx_hal_rcc.c **** 
1107:Drivers/STM32G4xx_HAL_Driver/Src/stm32g4xx_hal_rcc.c ****   return sysclockfreq;
 1414              		.loc 1 1107 3 is_stmt 1 view .LVU495
1108:Drivers/STM32G4xx_HAL_Driver/Src/stm32g4xx_hal_rcc.c **** }
 1415              		.loc 1 1108 1 is_stmt 0 view .LVU496
 1416 0022 7047     		bx	lr
 1417              	.LVL124:
 1418              	.L157:
 1419              	.LBB13:
 1420              	.LBI13:
1063:Drivers/STM32G4xx_HAL_Driver/Src/stm32g4xx_hal_rcc.c **** {
 1421              		.loc 1 1063 10 is_stmt 1 view .LVU497
 1422              	.LBB14:
1085:Drivers/STM32G4xx_HAL_Driver/Src/stm32g4xx_hal_rcc.c ****     pllm = (READ_BIT(RCC->PLLCFGR, RCC_PLLCFGR_PLLM) >> RCC_PLLCFGR_PLLM_Pos) + 1U ;
 1423              		.loc 1 1085 5 view .LVU498
1085:Drivers/STM32G4xx_HAL_Driver/Src/stm32g4xx_hal_rcc.c ****     pllm = (READ_BIT(RCC->PLLCFGR, RCC_PLLCFGR_PLLM) >> RCC_PLLCFGR_PLLM_Pos) + 1U ;
 1424              		.loc 1 1085 17 is_stmt 0 view .LVU499
 1425 0024 D968     		ldr	r1, [r3, #12]
ARM GAS  /tmp/ccE4sfSH.s 			page 50


 1426              	.LVL125:
1086:Drivers/STM32G4xx_HAL_Driver/Src/stm32g4xx_hal_rcc.c **** 
 1427              		.loc 1 1086 5 is_stmt 1 view .LVU500
1086:Drivers/STM32G4xx_HAL_Driver/Src/stm32g4xx_hal_rcc.c **** 
 1428              		.loc 1 1086 13 is_stmt 0 view .LVU501
 1429 0026 D868     		ldr	r0, [r3, #12]
1085:Drivers/STM32G4xx_HAL_Driver/Src/stm32g4xx_hal_rcc.c ****     pllm = (READ_BIT(RCC->PLLCFGR, RCC_PLLCFGR_PLLM) >> RCC_PLLCFGR_PLLM_Pos) + 1U ;
 1430              		.loc 1 1085 15 view .LVU502
 1431 0028 01F00301 		and	r1, r1, #3
 1432              	.LVL126:
1088:Drivers/STM32G4xx_HAL_Driver/Src/stm32g4xx_hal_rcc.c ****     {
 1433              		.loc 1 1088 5 view .LVU503
 1434 002c 0329     		cmp	r1, #3
1086:Drivers/STM32G4xx_HAL_Driver/Src/stm32g4xx_hal_rcc.c **** 
 1435              		.loc 1 1086 54 view .LVU504
 1436 002e C0F30310 		ubfx	r0, r0, #4, #4
1086:Drivers/STM32G4xx_HAL_Driver/Src/stm32g4xx_hal_rcc.c **** 
 1437              		.loc 1 1086 10 view .LVU505
 1438 0032 00F10102 		add	r2, r0, #1
 1439              	.LVL127:
1088:Drivers/STM32G4xx_HAL_Driver/Src/stm32g4xx_hal_rcc.c ****     {
 1440              		.loc 1 1088 5 is_stmt 1 view .LVU506
1091:Drivers/STM32G4xx_HAL_Driver/Src/stm32g4xx_hal_rcc.c ****       break;
 1441              		.loc 1 1091 7 view .LVU507
1096:Drivers/STM32G4xx_HAL_Driver/Src/stm32g4xx_hal_rcc.c ****       break;
 1442              		.loc 1 1096 7 view .LVU508
1096:Drivers/STM32G4xx_HAL_Driver/Src/stm32g4xx_hal_rcc.c ****       break;
 1443              		.loc 1 1096 38 is_stmt 0 view .LVU509
 1444 0036 D868     		ldr	r0, [r3, #12]
1091:Drivers/STM32G4xx_HAL_Driver/Src/stm32g4xx_hal_rcc.c ****       break;
 1445              		.loc 1 1091 27 view .LVU510
 1446 0038 0CBF     		ite	eq
 1447 003a 0B4B     		ldreq	r3, .L158+4
1096:Drivers/STM32G4xx_HAL_Driver/Src/stm32g4xx_hal_rcc.c ****       break;
 1448              		.loc 1 1096 27 view .LVU511
 1449 003c 0B4B     		ldrne	r3, .L158+8
 1450 003e B3FBF2F2 		udiv	r2, r3, r2
 1451              	.LVL128:
1099:Drivers/STM32G4xx_HAL_Driver/Src/stm32g4xx_hal_rcc.c ****     sysclockfreq = pllvco/pllr;
 1452              		.loc 1 1099 14 view .LVU512
 1453 0042 084B     		ldr	r3, .L158
 1454 0044 DB68     		ldr	r3, [r3, #12]
1099:Drivers/STM32G4xx_HAL_Driver/Src/stm32g4xx_hal_rcc.c ****     sysclockfreq = pllvco/pllr;
 1455              		.loc 1 1099 55 view .LVU513
 1456 0046 C3F34163 		ubfx	r3, r3, #25, #2
1096:Drivers/STM32G4xx_HAL_Driver/Src/stm32g4xx_hal_rcc.c ****       break;
 1457              		.loc 1 1096 79 view .LVU514
 1458 004a C0F30620 		ubfx	r0, r0, #8, #7
1099:Drivers/STM32G4xx_HAL_Driver/Src/stm32g4xx_hal_rcc.c ****     sysclockfreq = pllvco/pllr;
 1459              		.loc 1 1099 80 view .LVU515
 1460 004e 0133     		adds	r3, r3, #1
1096:Drivers/STM32G4xx_HAL_Driver/Src/stm32g4xx_hal_rcc.c ****       break;
 1461              		.loc 1 1096 14 view .LVU516
 1462 0050 02FB00F0 		mul	r0, r2, r0
 1463              	.LVL129:
1097:Drivers/STM32G4xx_HAL_Driver/Src/stm32g4xx_hal_rcc.c ****     }
 1464              		.loc 1 1097 7 is_stmt 1 view .LVU517
ARM GAS  /tmp/ccE4sfSH.s 			page 51


1099:Drivers/STM32G4xx_HAL_Driver/Src/stm32g4xx_hal_rcc.c ****     sysclockfreq = pllvco/pllr;
 1465              		.loc 1 1099 5 view .LVU518
1100:Drivers/STM32G4xx_HAL_Driver/Src/stm32g4xx_hal_rcc.c ****   }
 1466              		.loc 1 1100 5 view .LVU519
1099:Drivers/STM32G4xx_HAL_Driver/Src/stm32g4xx_hal_rcc.c ****     sysclockfreq = pllvco/pllr;
 1467              		.loc 1 1099 10 is_stmt 0 view .LVU520
 1468 0054 5B00     		lsls	r3, r3, #1
1100:Drivers/STM32G4xx_HAL_Driver/Src/stm32g4xx_hal_rcc.c ****   }
 1469              		.loc 1 1100 18 view .LVU521
 1470 0056 B0FBF3F0 		udiv	r0, r0, r3
 1471              	.LVL130:
1107:Drivers/STM32G4xx_HAL_Driver/Src/stm32g4xx_hal_rcc.c **** }
 1472              		.loc 1 1107 3 is_stmt 1 view .LVU522
1107:Drivers/STM32G4xx_HAL_Driver/Src/stm32g4xx_hal_rcc.c **** }
 1473              		.loc 1 1107 3 is_stmt 0 view .LVU523
 1474 005a 7047     		bx	lr
 1475              	.L154:
 1476              	.LBE14:
 1477              	.LBE13:
1071:Drivers/STM32G4xx_HAL_Driver/Src/stm32g4xx_hal_rcc.c ****   }
 1478              		.loc 1 1071 18 view .LVU524
 1479 005c 0348     		ldr	r0, .L158+8
 1480 005e 7047     		bx	lr
 1481              	.L155:
1076:Drivers/STM32G4xx_HAL_Driver/Src/stm32g4xx_hal_rcc.c ****   }
 1482              		.loc 1 1076 18 view .LVU525
 1483 0060 0148     		ldr	r0, .L158+4
 1484 0062 7047     		bx	lr
 1485              	.L159:
 1486              		.align	2
 1487              	.L158:
 1488 0064 00100240 		.word	1073876992
 1489 0068 00127A00 		.word	8000000
 1490 006c 0024F400 		.word	16000000
 1491              		.cfi_endproc
 1492              	.LFE136:
 1494              		.section	.text.HAL_RCC_ClockConfig,"ax",%progbits
 1495              		.align	1
 1496              		.p2align 2,,3
 1497              		.global	HAL_RCC_ClockConfig
 1498              		.syntax unified
 1499              		.thumb
 1500              		.thumb_func
 1501              		.fpu fpv4-sp-d16
 1503              	HAL_RCC_ClockConfig:
 1504              	.LVL131:
 1505              	.LFB134:
 767:Drivers/STM32G4xx_HAL_Driver/Src/stm32g4xx_hal_rcc.c ****   uint32_t tickstart;
 1506              		.loc 1 767 1 is_stmt 1 view -0
 1507              		.cfi_startproc
 1508              		@ args = 0, pretend = 0, frame = 0
 1509              		@ frame_needed = 0, uses_anonymous_args = 0
 768:Drivers/STM32G4xx_HAL_Driver/Src/stm32g4xx_hal_rcc.c ****   uint32_t pllfreq;
 1510              		.loc 1 768 3 view .LVU527
 769:Drivers/STM32G4xx_HAL_Driver/Src/stm32g4xx_hal_rcc.c ****   uint32_t hpre = RCC_SYSCLK_DIV1;
 1511              		.loc 1 769 3 view .LVU528
 770:Drivers/STM32G4xx_HAL_Driver/Src/stm32g4xx_hal_rcc.c **** 
ARM GAS  /tmp/ccE4sfSH.s 			page 52


 1512              		.loc 1 770 3 view .LVU529
 773:Drivers/STM32G4xx_HAL_Driver/Src/stm32g4xx_hal_rcc.c ****   {
 1513              		.loc 1 773 3 view .LVU530
 773:Drivers/STM32G4xx_HAL_Driver/Src/stm32g4xx_hal_rcc.c ****   {
 1514              		.loc 1 773 6 is_stmt 0 view .LVU531
 1515 0000 0028     		cmp	r0, #0
 1516 0002 00F0EE80 		beq	.L223
 787:Drivers/STM32G4xx_HAL_Driver/Src/stm32g4xx_hal_rcc.c ****   {
 1517              		.loc 1 787 18 view .LVU532
 1518 0006 7F4A     		ldr	r2, .L227
 767:Drivers/STM32G4xx_HAL_Driver/Src/stm32g4xx_hal_rcc.c ****   uint32_t tickstart;
 1519              		.loc 1 767 1 view .LVU533
 1520 0008 2DE9F843 		push	{r3, r4, r5, r6, r7, r8, r9, lr}
 1521              	.LCFI14:
 1522              		.cfi_def_cfa_offset 32
 1523              		.cfi_offset 3, -32
 1524              		.cfi_offset 4, -28
 1525              		.cfi_offset 5, -24
 1526              		.cfi_offset 6, -20
 1527              		.cfi_offset 7, -16
 1528              		.cfi_offset 8, -12
 1529              		.cfi_offset 9, -8
 1530              		.cfi_offset 14, -4
 787:Drivers/STM32G4xx_HAL_Driver/Src/stm32g4xx_hal_rcc.c ****   {
 1531              		.loc 1 787 18 view .LVU534
 1532 000c 1368     		ldr	r3, [r2]
 1533 000e 03F00F03 		and	r3, r3, #15
 787:Drivers/STM32G4xx_HAL_Driver/Src/stm32g4xx_hal_rcc.c ****   {
 1534              		.loc 1 787 6 view .LVU535
 1535 0012 8B42     		cmp	r3, r1
 1536 0014 0D46     		mov	r5, r1
 1537 0016 0446     		mov	r4, r0
 779:Drivers/STM32G4xx_HAL_Driver/Src/stm32g4xx_hal_rcc.c ****   assert_param(IS_FLASH_LATENCY(FLatency));
 1538              		.loc 1 779 3 is_stmt 1 view .LVU536
 780:Drivers/STM32G4xx_HAL_Driver/Src/stm32g4xx_hal_rcc.c **** 
 1539              		.loc 1 780 3 view .LVU537
 787:Drivers/STM32G4xx_HAL_Driver/Src/stm32g4xx_hal_rcc.c ****   {
 1540              		.loc 1 787 3 view .LVU538
 787:Drivers/STM32G4xx_HAL_Driver/Src/stm32g4xx_hal_rcc.c ****   {
 1541              		.loc 1 787 6 is_stmt 0 view .LVU539
 1542 0018 0CD2     		bcs	.L167
 790:Drivers/STM32G4xx_HAL_Driver/Src/stm32g4xx_hal_rcc.c **** 
 1543              		.loc 1 790 5 is_stmt 1 view .LVU540
 1544 001a 1368     		ldr	r3, [r2]
 1545 001c 23F00F03 		bic	r3, r3, #15
 1546 0020 0B43     		orrs	r3, r3, r1
 1547 0022 1360     		str	r3, [r2]
 794:Drivers/STM32G4xx_HAL_Driver/Src/stm32g4xx_hal_rcc.c ****     {
 1548              		.loc 1 794 5 view .LVU541
 794:Drivers/STM32G4xx_HAL_Driver/Src/stm32g4xx_hal_rcc.c ****     {
 1549              		.loc 1 794 9 is_stmt 0 view .LVU542
 1550 0024 1368     		ldr	r3, [r2]
 1551 0026 03F00F03 		and	r3, r3, #15
 794:Drivers/STM32G4xx_HAL_Driver/Src/stm32g4xx_hal_rcc.c ****     {
 1552              		.loc 1 794 8 view .LVU543
 1553 002a 8B42     		cmp	r3, r1
 1554 002c 02D0     		beq	.L167
ARM GAS  /tmp/ccE4sfSH.s 			page 53


 1555              	.LVL132:
 1556              	.L166:
 775:Drivers/STM32G4xx_HAL_Driver/Src/stm32g4xx_hal_rcc.c ****   }
 1557              		.loc 1 775 12 view .LVU544
 1558 002e 0120     		movs	r0, #1
 940:Drivers/STM32G4xx_HAL_Driver/Src/stm32g4xx_hal_rcc.c **** 
 1559              		.loc 1 940 1 view .LVU545
 1560 0030 BDE8F883 		pop	{r3, r4, r5, r6, r7, r8, r9, pc}
 1561              	.LVL133:
 1562              	.L167:
 801:Drivers/STM32G4xx_HAL_Driver/Src/stm32g4xx_hal_rcc.c ****   {
 1563              		.loc 1 801 3 is_stmt 1 view .LVU546
 801:Drivers/STM32G4xx_HAL_Driver/Src/stm32g4xx_hal_rcc.c ****   {
 1564              		.loc 1 801 25 is_stmt 0 view .LVU547
 1565 0034 2368     		ldr	r3, [r4]
 801:Drivers/STM32G4xx_HAL_Driver/Src/stm32g4xx_hal_rcc.c ****   {
 1566              		.loc 1 801 5 view .LVU548
 1567 0036 DF07     		lsls	r7, r3, #31
 1568 0038 63D5     		bpl	.L224
 803:Drivers/STM32G4xx_HAL_Driver/Src/stm32g4xx_hal_rcc.c **** 
 1569              		.loc 1 803 5 is_stmt 1 view .LVU549
 806:Drivers/STM32G4xx_HAL_Driver/Src/stm32g4xx_hal_rcc.c ****     {
 1570              		.loc 1 806 5 view .LVU550
 806:Drivers/STM32G4xx_HAL_Driver/Src/stm32g4xx_hal_rcc.c ****     {
 1571              		.loc 1 806 26 is_stmt 0 view .LVU551
 1572 003a 6268     		ldr	r2, [r4, #4]
 806:Drivers/STM32G4xx_HAL_Driver/Src/stm32g4xx_hal_rcc.c ****     {
 1573              		.loc 1 806 8 view .LVU552
 1574 003c 032A     		cmp	r2, #3
 1575 003e 00F09A80 		beq	.L225
 832:Drivers/STM32G4xx_HAL_Driver/Src/stm32g4xx_hal_rcc.c ****       {
 1576              		.loc 1 832 7 is_stmt 1 view .LVU553
 835:Drivers/STM32G4xx_HAL_Driver/Src/stm32g4xx_hal_rcc.c ****         {
 1577              		.loc 1 835 12 is_stmt 0 view .LVU554
 1578 0042 714B     		ldr	r3, .L227+4
 832:Drivers/STM32G4xx_HAL_Driver/Src/stm32g4xx_hal_rcc.c ****       {
 1579              		.loc 1 832 10 view .LVU555
 1580 0044 022A     		cmp	r2, #2
 835:Drivers/STM32G4xx_HAL_Driver/Src/stm32g4xx_hal_rcc.c ****         {
 1581              		.loc 1 835 12 view .LVU556
 1582 0046 1B68     		ldr	r3, [r3]
 832:Drivers/STM32G4xx_HAL_Driver/Src/stm32g4xx_hal_rcc.c ****       {
 1583              		.loc 1 832 10 view .LVU557
 1584 0048 00F09180 		beq	.L226
 844:Drivers/STM32G4xx_HAL_Driver/Src/stm32g4xx_hal_rcc.c ****         {
 1585              		.loc 1 844 9 is_stmt 1 view .LVU558
 844:Drivers/STM32G4xx_HAL_Driver/Src/stm32g4xx_hal_rcc.c ****         {
 1586              		.loc 1 844 11 is_stmt 0 view .LVU559
 1587 004c 5B05     		lsls	r3, r3, #21
 1588 004e EED5     		bpl	.L166
 1589              	.L176:
 850:Drivers/STM32G4xx_HAL_Driver/Src/stm32g4xx_hal_rcc.c **** 
 1590              		.loc 1 850 7 is_stmt 1 view .LVU560
 850:Drivers/STM32G4xx_HAL_Driver/Src/stm32g4xx_hal_rcc.c **** 
 1591              		.loc 1 850 17 is_stmt 0 view .LVU561
 1592 0050 FFF7FEFF 		bl	HAL_RCC_GetSysClockFreq
 1593              	.LVL134:
ARM GAS  /tmp/ccE4sfSH.s 			page 54


 853:Drivers/STM32G4xx_HAL_Driver/Src/stm32g4xx_hal_rcc.c ****       {
 1594              		.loc 1 853 7 is_stmt 1 view .LVU562
 853:Drivers/STM32G4xx_HAL_Driver/Src/stm32g4xx_hal_rcc.c ****       {
 1595              		.loc 1 853 9 is_stmt 0 view .LVU563
 1596 0054 6D4B     		ldr	r3, .L227+8
 1597 0056 9842     		cmp	r0, r3
 1598 0058 00F2C580 		bhi	.L177
 861:Drivers/STM32G4xx_HAL_Driver/Src/stm32g4xx_hal_rcc.c **** 
 1599              		.loc 1 861 5 view .LVU564
 1600 005c 6268     		ldr	r2, [r4, #4]
 770:Drivers/STM32G4xx_HAL_Driver/Src/stm32g4xx_hal_rcc.c **** 
 1601              		.loc 1 770 12 view .LVU565
 1602 005e 4FF00009 		mov	r9, #0
 1603              	.LVL135:
 1604              	.L173:
 861:Drivers/STM32G4xx_HAL_Driver/Src/stm32g4xx_hal_rcc.c **** 
 1605              		.loc 1 861 5 is_stmt 1 view .LVU566
 1606 0062 694E     		ldr	r6, .L227+4
 1607 0064 B368     		ldr	r3, [r6, #8]
 1608 0066 23F00303 		bic	r3, r3, #3
 1609 006a 1A43     		orrs	r2, r2, r3
 1610 006c B260     		str	r2, [r6, #8]
 864:Drivers/STM32G4xx_HAL_Driver/Src/stm32g4xx_hal_rcc.c **** 
 1611              		.loc 1 864 5 view .LVU567
 864:Drivers/STM32G4xx_HAL_Driver/Src/stm32g4xx_hal_rcc.c **** 
 1612              		.loc 1 864 17 is_stmt 0 view .LVU568
 1613 006e FFF7FEFF 		bl	HAL_GetTick
 1614              	.LVL136:
 868:Drivers/STM32G4xx_HAL_Driver/Src/stm32g4xx_hal_rcc.c ****       {
 1615              		.loc 1 868 10 view .LVU569
 1616 0072 41F28838 		movw	r8, #5000
 864:Drivers/STM32G4xx_HAL_Driver/Src/stm32g4xx_hal_rcc.c **** 
 1617              		.loc 1 864 17 view .LVU570
 1618 0076 0746     		mov	r7, r0
 1619              	.LVL137:
 866:Drivers/STM32G4xx_HAL_Driver/Src/stm32g4xx_hal_rcc.c ****     {
 1620              		.loc 1 866 5 is_stmt 1 view .LVU571
 866:Drivers/STM32G4xx_HAL_Driver/Src/stm32g4xx_hal_rcc.c ****     {
 1621              		.loc 1 866 11 is_stmt 0 view .LVU572
 1622 0078 04E0     		b	.L178
 1623              	.LVL138:
 1624              	.L179:
 868:Drivers/STM32G4xx_HAL_Driver/Src/stm32g4xx_hal_rcc.c ****       {
 1625              		.loc 1 868 12 view .LVU573
 1626 007a FFF7FEFF 		bl	HAL_GetTick
 1627              	.LVL139:
 868:Drivers/STM32G4xx_HAL_Driver/Src/stm32g4xx_hal_rcc.c ****       {
 1628              		.loc 1 868 26 view .LVU574
 1629 007e C01B     		subs	r0, r0, r7
 868:Drivers/STM32G4xx_HAL_Driver/Src/stm32g4xx_hal_rcc.c ****       {
 1630              		.loc 1 868 10 view .LVU575
 1631 0080 4045     		cmp	r0, r8
 1632 0082 71D8     		bhi	.L188
 1633              	.L178:
 868:Drivers/STM32G4xx_HAL_Driver/Src/stm32g4xx_hal_rcc.c ****       {
 1634              		.loc 1 868 7 is_stmt 1 view .LVU576
 866:Drivers/STM32G4xx_HAL_Driver/Src/stm32g4xx_hal_rcc.c ****     {
ARM GAS  /tmp/ccE4sfSH.s 			page 55


 1635              		.loc 1 866 11 view .LVU577
 866:Drivers/STM32G4xx_HAL_Driver/Src/stm32g4xx_hal_rcc.c ****     {
 1636              		.loc 1 866 12 is_stmt 0 view .LVU578
 1637 0084 B368     		ldr	r3, [r6, #8]
 866:Drivers/STM32G4xx_HAL_Driver/Src/stm32g4xx_hal_rcc.c ****     {
 1638              		.loc 1 866 78 view .LVU579
 1639 0086 6268     		ldr	r2, [r4, #4]
 866:Drivers/STM32G4xx_HAL_Driver/Src/stm32g4xx_hal_rcc.c ****     {
 1640              		.loc 1 866 12 view .LVU580
 1641 0088 03F00C03 		and	r3, r3, #12
 866:Drivers/STM32G4xx_HAL_Driver/Src/stm32g4xx_hal_rcc.c ****     {
 1642              		.loc 1 866 11 view .LVU581
 1643 008c B3EB820F 		cmp	r3, r2, lsl #2
 1644 0090 F3D1     		bne	.L179
 876:Drivers/STM32G4xx_HAL_Driver/Src/stm32g4xx_hal_rcc.c ****   {
 1645              		.loc 1 876 3 is_stmt 1 view .LVU582
 876:Drivers/STM32G4xx_HAL_Driver/Src/stm32g4xx_hal_rcc.c ****   {
 1646              		.loc 1 876 26 is_stmt 0 view .LVU583
 1647 0092 2368     		ldr	r3, [r4]
 876:Drivers/STM32G4xx_HAL_Driver/Src/stm32g4xx_hal_rcc.c ****   {
 1648              		.loc 1 876 6 view .LVU584
 1649 0094 9F07     		lsls	r7, r3, #30
 1650              	.LVL140:
 876:Drivers/STM32G4xx_HAL_Driver/Src/stm32g4xx_hal_rcc.c ****   {
 1651              		.loc 1 876 6 view .LVU585
 1652 0096 36D4     		bmi	.L168
 896:Drivers/STM32G4xx_HAL_Driver/Src/stm32g4xx_hal_rcc.c ****     {
 1653              		.loc 1 896 5 is_stmt 1 view .LVU586
 896:Drivers/STM32G4xx_HAL_Driver/Src/stm32g4xx_hal_rcc.c ****     {
 1654              		.loc 1 896 7 is_stmt 0 view .LVU587
 1655 0098 B9F1800F 		cmp	r9, #128
 1656 009c 03D1     		bne	.L169
 898:Drivers/STM32G4xx_HAL_Driver/Src/stm32g4xx_hal_rcc.c ****     }
 1657              		.loc 1 898 7 is_stmt 1 view .LVU588
 1658 009e B368     		ldr	r3, [r6, #8]
 1659 00a0 23F0F003 		bic	r3, r3, #240
 1660 00a4 B360     		str	r3, [r6, #8]
 1661              	.LVL141:
 1662              	.L169:
 903:Drivers/STM32G4xx_HAL_Driver/Src/stm32g4xx_hal_rcc.c ****   {
 1663              		.loc 1 903 3 view .LVU589
 903:Drivers/STM32G4xx_HAL_Driver/Src/stm32g4xx_hal_rcc.c ****   {
 1664              		.loc 1 903 18 is_stmt 0 view .LVU590
 1665 00a6 574E     		ldr	r6, .L227
 1666 00a8 3368     		ldr	r3, [r6]
 1667 00aa 03F00F03 		and	r3, r3, #15
 903:Drivers/STM32G4xx_HAL_Driver/Src/stm32g4xx_hal_rcc.c ****   {
 1668              		.loc 1 903 6 view .LVU591
 1669 00ae AB42     		cmp	r3, r5
 1670 00b0 46D8     		bhi	.L184
 1671              	.L190:
 922:Drivers/STM32G4xx_HAL_Driver/Src/stm32g4xx_hal_rcc.c ****   {
 1672              		.loc 1 922 3 is_stmt 1 view .LVU592
 922:Drivers/STM32G4xx_HAL_Driver/Src/stm32g4xx_hal_rcc.c ****   {
 1673              		.loc 1 922 26 is_stmt 0 view .LVU593
 1674 00b2 2368     		ldr	r3, [r4]
 922:Drivers/STM32G4xx_HAL_Driver/Src/stm32g4xx_hal_rcc.c ****   {
ARM GAS  /tmp/ccE4sfSH.s 			page 56


 1675              		.loc 1 922 6 view .LVU594
 1676 00b4 5A07     		lsls	r2, r3, #29
 1677 00b6 06D5     		bpl	.L186
 924:Drivers/STM32G4xx_HAL_Driver/Src/stm32g4xx_hal_rcc.c ****     MODIFY_REG(RCC->CFGR, RCC_CFGR_PPRE1, RCC_ClkInitStruct->APB1CLKDivider);
 1678              		.loc 1 924 5 is_stmt 1 view .LVU595
 925:Drivers/STM32G4xx_HAL_Driver/Src/stm32g4xx_hal_rcc.c ****   }
 1679              		.loc 1 925 5 view .LVU596
 1680 00b8 5349     		ldr	r1, .L227+4
 1681 00ba E068     		ldr	r0, [r4, #12]
 1682 00bc 8A68     		ldr	r2, [r1, #8]
 1683 00be 22F4E062 		bic	r2, r2, #1792
 1684 00c2 0243     		orrs	r2, r2, r0
 1685 00c4 8A60     		str	r2, [r1, #8]
 1686              	.L186:
 929:Drivers/STM32G4xx_HAL_Driver/Src/stm32g4xx_hal_rcc.c ****   {
 1687              		.loc 1 929 3 view .LVU597
 929:Drivers/STM32G4xx_HAL_Driver/Src/stm32g4xx_hal_rcc.c ****   {
 1688              		.loc 1 929 5 is_stmt 0 view .LVU598
 1689 00c6 1B07     		lsls	r3, r3, #28
 1690 00c8 07D5     		bpl	.L191
 931:Drivers/STM32G4xx_HAL_Driver/Src/stm32g4xx_hal_rcc.c ****     MODIFY_REG(RCC->CFGR, RCC_CFGR_PPRE2, ((RCC_ClkInitStruct->APB2CLKDivider) << 3U));
 1691              		.loc 1 931 5 is_stmt 1 view .LVU599
 932:Drivers/STM32G4xx_HAL_Driver/Src/stm32g4xx_hal_rcc.c ****   }
 1692              		.loc 1 932 5 view .LVU600
 1693 00ca 4F4A     		ldr	r2, .L227+4
 1694 00cc 2169     		ldr	r1, [r4, #16]
 1695 00ce 9368     		ldr	r3, [r2, #8]
 1696 00d0 23F46053 		bic	r3, r3, #14336
 1697 00d4 43EAC103 		orr	r3, r3, r1, lsl #3
 1698 00d8 9360     		str	r3, [r2, #8]
 1699              	.L191:
 936:Drivers/STM32G4xx_HAL_Driver/Src/stm32g4xx_hal_rcc.c **** 
 1700              		.loc 1 936 3 view .LVU601
 936:Drivers/STM32G4xx_HAL_Driver/Src/stm32g4xx_hal_rcc.c **** 
 1701              		.loc 1 936 21 is_stmt 0 view .LVU602
 1702 00da FFF7FEFF 		bl	HAL_RCC_GetSysClockFreq
 1703              	.LVL142:
 936:Drivers/STM32G4xx_HAL_Driver/Src/stm32g4xx_hal_rcc.c **** 
 1704              		.loc 1 936 65 view .LVU603
 1705 00de 4A4A     		ldr	r2, .L227+4
 936:Drivers/STM32G4xx_HAL_Driver/Src/stm32g4xx_hal_rcc.c **** 
 1706              		.loc 1 936 64 view .LVU604
 1707 00e0 4B4C     		ldr	r4, .L227+12
 1708              	.LVL143:
 936:Drivers/STM32G4xx_HAL_Driver/Src/stm32g4xx_hal_rcc.c **** 
 1709              		.loc 1 936 65 view .LVU605
 1710 00e2 9268     		ldr	r2, [r2, #8]
 936:Drivers/STM32G4xx_HAL_Driver/Src/stm32g4xx_hal_rcc.c **** 
 1711              		.loc 1 936 19 view .LVU606
 1712 00e4 4B49     		ldr	r1, .L227+16
 936:Drivers/STM32G4xx_HAL_Driver/Src/stm32g4xx_hal_rcc.c **** 
 1713              		.loc 1 936 100 view .LVU607
 1714 00e6 C2F30312 		ubfx	r2, r2, #4, #4
 936:Drivers/STM32G4xx_HAL_Driver/Src/stm32g4xx_hal_rcc.c **** 
 1715              		.loc 1 936 21 view .LVU608
 1716 00ea 0346     		mov	r3, r0
 936:Drivers/STM32G4xx_HAL_Driver/Src/stm32g4xx_hal_rcc.c **** 
ARM GAS  /tmp/ccE4sfSH.s 			page 57


 1717              		.loc 1 936 122 view .LVU609
 1718 00ec A25C     		ldrb	r2, [r4, r2]	@ zero_extendqisi2
 939:Drivers/STM32G4xx_HAL_Driver/Src/stm32g4xx_hal_rcc.c **** }
 1719              		.loc 1 939 10 view .LVU610
 1720 00ee 4A48     		ldr	r0, .L227+20
 936:Drivers/STM32G4xx_HAL_Driver/Src/stm32g4xx_hal_rcc.c **** 
 1721              		.loc 1 936 122 view .LVU611
 1722 00f0 02F01F02 		and	r2, r2, #31
 936:Drivers/STM32G4xx_HAL_Driver/Src/stm32g4xx_hal_rcc.c **** 
 1723              		.loc 1 936 47 view .LVU612
 1724 00f4 D340     		lsrs	r3, r3, r2
 936:Drivers/STM32G4xx_HAL_Driver/Src/stm32g4xx_hal_rcc.c **** 
 1725              		.loc 1 936 19 view .LVU613
 1726 00f6 0B60     		str	r3, [r1]
 939:Drivers/STM32G4xx_HAL_Driver/Src/stm32g4xx_hal_rcc.c **** }
 1727              		.loc 1 939 3 is_stmt 1 view .LVU614
 939:Drivers/STM32G4xx_HAL_Driver/Src/stm32g4xx_hal_rcc.c **** }
 1728              		.loc 1 939 10 is_stmt 0 view .LVU615
 1729 00f8 0068     		ldr	r0, [r0]
 940:Drivers/STM32G4xx_HAL_Driver/Src/stm32g4xx_hal_rcc.c **** 
 1730              		.loc 1 940 1 view .LVU616
 1731 00fa BDE8F843 		pop	{r3, r4, r5, r6, r7, r8, r9, lr}
 1732              	.LCFI15:
 1733              		.cfi_remember_state
 1734              		.cfi_restore 14
 1735              		.cfi_restore 9
 1736              		.cfi_restore 8
 1737              		.cfi_restore 7
 1738              		.cfi_restore 6
 1739              		.cfi_restore 5
 1740              		.cfi_restore 4
 1741              		.cfi_restore 3
 1742              		.cfi_def_cfa_offset 0
 1743              	.LVL144:
 939:Drivers/STM32G4xx_HAL_Driver/Src/stm32g4xx_hal_rcc.c **** }
 1744              		.loc 1 939 10 view .LVU617
 1745 00fe FFF7FEBF 		b	HAL_InitTick
 1746              	.LVL145:
 1747              	.L224:
 1748              	.LCFI16:
 1749              		.cfi_restore_state
 876:Drivers/STM32G4xx_HAL_Driver/Src/stm32g4xx_hal_rcc.c ****   {
 1750              		.loc 1 876 3 is_stmt 1 view .LVU618
 876:Drivers/STM32G4xx_HAL_Driver/Src/stm32g4xx_hal_rcc.c ****   {
 1751              		.loc 1 876 6 is_stmt 0 view .LVU619
 1752 0102 9E07     		lsls	r6, r3, #30
 1753 0104 CFD5     		bpl	.L169
 1754              	.LVL146:
 1755              	.L168:
 880:Drivers/STM32G4xx_HAL_Driver/Src/stm32g4xx_hal_rcc.c ****     {
 1756              		.loc 1 880 5 is_stmt 1 view .LVU620
 880:Drivers/STM32G4xx_HAL_Driver/Src/stm32g4xx_hal_rcc.c ****     {
 1757              		.loc 1 880 8 is_stmt 0 view .LVU621
 1758 0106 5807     		lsls	r0, r3, #29
 1759 0108 04D5     		bpl	.L181
 882:Drivers/STM32G4xx_HAL_Driver/Src/stm32g4xx_hal_rcc.c ****     }
 1760              		.loc 1 882 7 is_stmt 1 view .LVU622
ARM GAS  /tmp/ccE4sfSH.s 			page 58


 1761 010a 3F49     		ldr	r1, .L227+4
 1762 010c 8A68     		ldr	r2, [r1, #8]
 1763 010e 42F4E062 		orr	r2, r2, #1792
 1764 0112 8A60     		str	r2, [r1, #8]
 1765              	.L181:
 884:Drivers/STM32G4xx_HAL_Driver/Src/stm32g4xx_hal_rcc.c ****     {
 1766              		.loc 1 884 5 view .LVU623
 884:Drivers/STM32G4xx_HAL_Driver/Src/stm32g4xx_hal_rcc.c ****     {
 1767              		.loc 1 884 8 is_stmt 0 view .LVU624
 1768 0114 1907     		lsls	r1, r3, #28
 1769 0116 06D5     		bpl	.L182
 886:Drivers/STM32G4xx_HAL_Driver/Src/stm32g4xx_hal_rcc.c ****     }
 1770              		.loc 1 886 7 is_stmt 1 view .LVU625
 1771 0118 3B4A     		ldr	r2, .L227+4
 1772 011a 9368     		ldr	r3, [r2, #8]
 1773 011c 23F47C53 		bic	r3, r3, #16128
 1774 0120 43F4E063 		orr	r3, r3, #1792
 1775 0124 9360     		str	r3, [r2, #8]
 1776              	.L182:
 890:Drivers/STM32G4xx_HAL_Driver/Src/stm32g4xx_hal_rcc.c ****     MODIFY_REG(RCC->CFGR, RCC_CFGR_HPRE, RCC_ClkInitStruct->AHBCLKDivider);
 1777              		.loc 1 890 5 view .LVU626
 891:Drivers/STM32G4xx_HAL_Driver/Src/stm32g4xx_hal_rcc.c ****   }
 1778              		.loc 1 891 5 view .LVU627
 1779 0126 384A     		ldr	r2, .L227+4
 1780 0128 A168     		ldr	r1, [r4, #8]
 1781 012a 9368     		ldr	r3, [r2, #8]
 903:Drivers/STM32G4xx_HAL_Driver/Src/stm32g4xx_hal_rcc.c ****   {
 1782              		.loc 1 903 18 is_stmt 0 view .LVU628
 1783 012c 354E     		ldr	r6, .L227
 891:Drivers/STM32G4xx_HAL_Driver/Src/stm32g4xx_hal_rcc.c ****   }
 1784              		.loc 1 891 5 view .LVU629
 1785 012e 23F0F003 		bic	r3, r3, #240
 1786 0132 0B43     		orrs	r3, r3, r1
 1787 0134 9360     		str	r3, [r2, #8]
 903:Drivers/STM32G4xx_HAL_Driver/Src/stm32g4xx_hal_rcc.c ****   {
 1788              		.loc 1 903 3 is_stmt 1 view .LVU630
 903:Drivers/STM32G4xx_HAL_Driver/Src/stm32g4xx_hal_rcc.c ****   {
 1789              		.loc 1 903 18 is_stmt 0 view .LVU631
 1790 0136 3368     		ldr	r3, [r6]
 1791 0138 03F00F03 		and	r3, r3, #15
 903:Drivers/STM32G4xx_HAL_Driver/Src/stm32g4xx_hal_rcc.c ****   {
 1792              		.loc 1 903 6 view .LVU632
 1793 013c AB42     		cmp	r3, r5
 1794 013e B8D9     		bls	.L190
 1795              	.L184:
 906:Drivers/STM32G4xx_HAL_Driver/Src/stm32g4xx_hal_rcc.c **** 
 1796              		.loc 1 906 5 is_stmt 1 view .LVU633
 1797 0140 3368     		ldr	r3, [r6]
 1798 0142 23F00F03 		bic	r3, r3, #15
 1799 0146 2B43     		orrs	r3, r3, r5
 1800 0148 3360     		str	r3, [r6]
 910:Drivers/STM32G4xx_HAL_Driver/Src/stm32g4xx_hal_rcc.c **** 
 1801              		.loc 1 910 5 view .LVU634
 910:Drivers/STM32G4xx_HAL_Driver/Src/stm32g4xx_hal_rcc.c **** 
 1802              		.loc 1 910 17 is_stmt 0 view .LVU635
 1803 014a FFF7FEFF 		bl	HAL_GetTick
 1804              	.LVL147:
ARM GAS  /tmp/ccE4sfSH.s 			page 59


 914:Drivers/STM32G4xx_HAL_Driver/Src/stm32g4xx_hal_rcc.c ****       {
 1805              		.loc 1 914 10 view .LVU636
 1806 014e 41F28838 		movw	r8, #5000
 910:Drivers/STM32G4xx_HAL_Driver/Src/stm32g4xx_hal_rcc.c **** 
 1807              		.loc 1 910 17 view .LVU637
 1808 0152 0746     		mov	r7, r0
 1809              	.LVL148:
 912:Drivers/STM32G4xx_HAL_Driver/Src/stm32g4xx_hal_rcc.c ****     {
 1810              		.loc 1 912 5 is_stmt 1 view .LVU638
 1811              	.L187:
 914:Drivers/STM32G4xx_HAL_Driver/Src/stm32g4xx_hal_rcc.c ****       {
 1812              		.loc 1 914 7 view .LVU639
 912:Drivers/STM32G4xx_HAL_Driver/Src/stm32g4xx_hal_rcc.c ****     {
 1813              		.loc 1 912 11 view .LVU640
 912:Drivers/STM32G4xx_HAL_Driver/Src/stm32g4xx_hal_rcc.c ****     {
 1814              		.loc 1 912 12 is_stmt 0 view .LVU641
 1815 0154 3368     		ldr	r3, [r6]
 1816 0156 03F00F03 		and	r3, r3, #15
 912:Drivers/STM32G4xx_HAL_Driver/Src/stm32g4xx_hal_rcc.c ****     {
 1817              		.loc 1 912 11 view .LVU642
 1818 015a AB42     		cmp	r3, r5
 1819 015c A9D0     		beq	.L190
 914:Drivers/STM32G4xx_HAL_Driver/Src/stm32g4xx_hal_rcc.c ****       {
 1820              		.loc 1 914 12 view .LVU643
 1821 015e FFF7FEFF 		bl	HAL_GetTick
 1822              	.LVL149:
 914:Drivers/STM32G4xx_HAL_Driver/Src/stm32g4xx_hal_rcc.c ****       {
 1823              		.loc 1 914 26 view .LVU644
 1824 0162 C01B     		subs	r0, r0, r7
 914:Drivers/STM32G4xx_HAL_Driver/Src/stm32g4xx_hal_rcc.c ****       {
 1825              		.loc 1 914 10 view .LVU645
 1826 0164 4045     		cmp	r0, r8
 1827 0166 F5D9     		bls	.L187
 1828              	.L188:
 870:Drivers/STM32G4xx_HAL_Driver/Src/stm32g4xx_hal_rcc.c ****       }
 1829              		.loc 1 870 16 view .LVU646
 1830 0168 0320     		movs	r0, #3
 940:Drivers/STM32G4xx_HAL_Driver/Src/stm32g4xx_hal_rcc.c **** 
 1831              		.loc 1 940 1 view .LVU647
 1832 016a BDE8F883 		pop	{r3, r4, r5, r6, r7, r8, r9, pc}
 1833              	.LVL150:
 1834              	.L226:
 835:Drivers/STM32G4xx_HAL_Driver/Src/stm32g4xx_hal_rcc.c ****         {
 1835              		.loc 1 835 9 is_stmt 1 view .LVU648
 835:Drivers/STM32G4xx_HAL_Driver/Src/stm32g4xx_hal_rcc.c ****         {
 1836              		.loc 1 835 11 is_stmt 0 view .LVU649
 1837 016e 9A03     		lsls	r2, r3, #14
 1838 0170 3FF56EAF 		bmi	.L176
 1839 0174 5BE7     		b	.L166
 1840              	.L225:
 809:Drivers/STM32G4xx_HAL_Driver/Src/stm32g4xx_hal_rcc.c ****       {
 1841              		.loc 1 809 7 is_stmt 1 view .LVU650
 809:Drivers/STM32G4xx_HAL_Driver/Src/stm32g4xx_hal_rcc.c ****       {
 1842              		.loc 1 809 11 is_stmt 0 view .LVU651
 1843 0176 2449     		ldr	r1, .L227+4
 1844              	.LVL151:
 809:Drivers/STM32G4xx_HAL_Driver/Src/stm32g4xx_hal_rcc.c ****       {
ARM GAS  /tmp/ccE4sfSH.s 			page 60


 1845              		.loc 1 809 11 view .LVU652
 1846 0178 0868     		ldr	r0, [r1]
 1847              	.LVL152:
 809:Drivers/STM32G4xx_HAL_Driver/Src/stm32g4xx_hal_rcc.c ****       {
 1848              		.loc 1 809 10 view .LVU653
 1849 017a 8001     		lsls	r0, r0, #6
 1850 017c 7FF557AF 		bpl	.L166
 815:Drivers/STM32G4xx_HAL_Driver/Src/stm32g4xx_hal_rcc.c **** 
 1851              		.loc 1 815 7 is_stmt 1 view .LVU654
 1852              	.LBB17:
 1853              	.LBI17:
1109:Drivers/STM32G4xx_HAL_Driver/Src/stm32g4xx_hal_rcc.c **** 
1110:Drivers/STM32G4xx_HAL_Driver/Src/stm32g4xx_hal_rcc.c **** /**
1111:Drivers/STM32G4xx_HAL_Driver/Src/stm32g4xx_hal_rcc.c ****   * @brief  Return the HCLK frequency.
1112:Drivers/STM32G4xx_HAL_Driver/Src/stm32g4xx_hal_rcc.c ****   * @note   Each time HCLK changes, this function must be called to update the
1113:Drivers/STM32G4xx_HAL_Driver/Src/stm32g4xx_hal_rcc.c ****   *         right HCLK value. Otherwise, any configuration based on this function will be incorrect
1114:Drivers/STM32G4xx_HAL_Driver/Src/stm32g4xx_hal_rcc.c ****   *
1115:Drivers/STM32G4xx_HAL_Driver/Src/stm32g4xx_hal_rcc.c ****   * @note   The SystemCoreClock CMSIS variable is used to store System Clock Frequency.
1116:Drivers/STM32G4xx_HAL_Driver/Src/stm32g4xx_hal_rcc.c ****   * @retval HCLK frequency in Hz
1117:Drivers/STM32G4xx_HAL_Driver/Src/stm32g4xx_hal_rcc.c ****   */
1118:Drivers/STM32G4xx_HAL_Driver/Src/stm32g4xx_hal_rcc.c **** uint32_t HAL_RCC_GetHCLKFreq(void)
1119:Drivers/STM32G4xx_HAL_Driver/Src/stm32g4xx_hal_rcc.c **** {
1120:Drivers/STM32G4xx_HAL_Driver/Src/stm32g4xx_hal_rcc.c ****   return SystemCoreClock;
1121:Drivers/STM32G4xx_HAL_Driver/Src/stm32g4xx_hal_rcc.c **** }
1122:Drivers/STM32G4xx_HAL_Driver/Src/stm32g4xx_hal_rcc.c **** 
1123:Drivers/STM32G4xx_HAL_Driver/Src/stm32g4xx_hal_rcc.c **** /**
1124:Drivers/STM32G4xx_HAL_Driver/Src/stm32g4xx_hal_rcc.c ****   * @brief  Return the PCLK1 frequency.
1125:Drivers/STM32G4xx_HAL_Driver/Src/stm32g4xx_hal_rcc.c ****   * @note   Each time PCLK1 changes, this function must be called to update the
1126:Drivers/STM32G4xx_HAL_Driver/Src/stm32g4xx_hal_rcc.c ****   *         right PCLK1 value. Otherwise, any configuration based on this function will be incorrec
1127:Drivers/STM32G4xx_HAL_Driver/Src/stm32g4xx_hal_rcc.c ****   * @retval PCLK1 frequency in Hz
1128:Drivers/STM32G4xx_HAL_Driver/Src/stm32g4xx_hal_rcc.c ****   */
1129:Drivers/STM32G4xx_HAL_Driver/Src/stm32g4xx_hal_rcc.c **** uint32_t HAL_RCC_GetPCLK1Freq(void)
1130:Drivers/STM32G4xx_HAL_Driver/Src/stm32g4xx_hal_rcc.c **** {
1131:Drivers/STM32G4xx_HAL_Driver/Src/stm32g4xx_hal_rcc.c ****   /* Get HCLK source and Compute PCLK1 frequency ---------------------------*/
1132:Drivers/STM32G4xx_HAL_Driver/Src/stm32g4xx_hal_rcc.c ****   return (HAL_RCC_GetHCLKFreq() >> (APBPrescTable[READ_BIT(RCC->CFGR, RCC_CFGR_PPRE1) >> RCC_CFGR_P
1133:Drivers/STM32G4xx_HAL_Driver/Src/stm32g4xx_hal_rcc.c **** }
1134:Drivers/STM32G4xx_HAL_Driver/Src/stm32g4xx_hal_rcc.c **** 
1135:Drivers/STM32G4xx_HAL_Driver/Src/stm32g4xx_hal_rcc.c **** /**
1136:Drivers/STM32G4xx_HAL_Driver/Src/stm32g4xx_hal_rcc.c ****   * @brief  Return the PCLK2 frequency.
1137:Drivers/STM32G4xx_HAL_Driver/Src/stm32g4xx_hal_rcc.c ****   * @note   Each time PCLK2 changes, this function must be called to update the
1138:Drivers/STM32G4xx_HAL_Driver/Src/stm32g4xx_hal_rcc.c ****   *         right PCLK2 value. Otherwise, any configuration based on this function will be incorrec
1139:Drivers/STM32G4xx_HAL_Driver/Src/stm32g4xx_hal_rcc.c ****   * @retval PCLK2 frequency in Hz
1140:Drivers/STM32G4xx_HAL_Driver/Src/stm32g4xx_hal_rcc.c ****   */
1141:Drivers/STM32G4xx_HAL_Driver/Src/stm32g4xx_hal_rcc.c **** uint32_t HAL_RCC_GetPCLK2Freq(void)
1142:Drivers/STM32G4xx_HAL_Driver/Src/stm32g4xx_hal_rcc.c **** {
1143:Drivers/STM32G4xx_HAL_Driver/Src/stm32g4xx_hal_rcc.c ****   /* Get HCLK source and Compute PCLK2 frequency ---------------------------*/
1144:Drivers/STM32G4xx_HAL_Driver/Src/stm32g4xx_hal_rcc.c ****   return (HAL_RCC_GetHCLKFreq()>> (APBPrescTable[READ_BIT(RCC->CFGR, RCC_CFGR_PPRE2) >> RCC_CFGR_PP
1145:Drivers/STM32G4xx_HAL_Driver/Src/stm32g4xx_hal_rcc.c **** }
1146:Drivers/STM32G4xx_HAL_Driver/Src/stm32g4xx_hal_rcc.c **** 
1147:Drivers/STM32G4xx_HAL_Driver/Src/stm32g4xx_hal_rcc.c **** /**
1148:Drivers/STM32G4xx_HAL_Driver/Src/stm32g4xx_hal_rcc.c ****   * @brief  Configure the RCC_OscInitStruct according to the internal
1149:Drivers/STM32G4xx_HAL_Driver/Src/stm32g4xx_hal_rcc.c ****   *         RCC configuration registers.
1150:Drivers/STM32G4xx_HAL_Driver/Src/stm32g4xx_hal_rcc.c ****   * @param  RCC_OscInitStruct  pointer to an RCC_OscInitTypeDef structure that
1151:Drivers/STM32G4xx_HAL_Driver/Src/stm32g4xx_hal_rcc.c ****   *         will be configured.
1152:Drivers/STM32G4xx_HAL_Driver/Src/stm32g4xx_hal_rcc.c ****   * @retval None
1153:Drivers/STM32G4xx_HAL_Driver/Src/stm32g4xx_hal_rcc.c ****   */
1154:Drivers/STM32G4xx_HAL_Driver/Src/stm32g4xx_hal_rcc.c **** void HAL_RCC_GetOscConfig(RCC_OscInitTypeDef  *RCC_OscInitStruct)
ARM GAS  /tmp/ccE4sfSH.s 			page 61


1155:Drivers/STM32G4xx_HAL_Driver/Src/stm32g4xx_hal_rcc.c **** {
1156:Drivers/STM32G4xx_HAL_Driver/Src/stm32g4xx_hal_rcc.c ****   /* Check the parameters */
1157:Drivers/STM32G4xx_HAL_Driver/Src/stm32g4xx_hal_rcc.c ****   assert_param(RCC_OscInitStruct != (void *)NULL);
1158:Drivers/STM32G4xx_HAL_Driver/Src/stm32g4xx_hal_rcc.c **** 
1159:Drivers/STM32G4xx_HAL_Driver/Src/stm32g4xx_hal_rcc.c ****   /* Set all possible values for the Oscillator type parameter ---------------*/
1160:Drivers/STM32G4xx_HAL_Driver/Src/stm32g4xx_hal_rcc.c ****   RCC_OscInitStruct->OscillatorType = RCC_OSCILLATORTYPE_HSE | RCC_OSCILLATORTYPE_HSI | \
1161:Drivers/STM32G4xx_HAL_Driver/Src/stm32g4xx_hal_rcc.c ****                                       RCC_OSCILLATORTYPE_LSE | RCC_OSCILLATORTYPE_LSI | RCC_OSCILLA
1162:Drivers/STM32G4xx_HAL_Driver/Src/stm32g4xx_hal_rcc.c **** 
1163:Drivers/STM32G4xx_HAL_Driver/Src/stm32g4xx_hal_rcc.c ****   /* Get the HSE configuration -----------------------------------------------*/
1164:Drivers/STM32G4xx_HAL_Driver/Src/stm32g4xx_hal_rcc.c ****   if(READ_BIT(RCC->CR, RCC_CR_HSEBYP) == RCC_CR_HSEBYP)
1165:Drivers/STM32G4xx_HAL_Driver/Src/stm32g4xx_hal_rcc.c ****   {
1166:Drivers/STM32G4xx_HAL_Driver/Src/stm32g4xx_hal_rcc.c ****     RCC_OscInitStruct->HSEState = RCC_HSE_BYPASS;
1167:Drivers/STM32G4xx_HAL_Driver/Src/stm32g4xx_hal_rcc.c ****   }
1168:Drivers/STM32G4xx_HAL_Driver/Src/stm32g4xx_hal_rcc.c ****   else if(READ_BIT(RCC->CR, RCC_CR_HSEON) == RCC_CR_HSEON)
1169:Drivers/STM32G4xx_HAL_Driver/Src/stm32g4xx_hal_rcc.c ****   {
1170:Drivers/STM32G4xx_HAL_Driver/Src/stm32g4xx_hal_rcc.c ****     RCC_OscInitStruct->HSEState = RCC_HSE_ON;
1171:Drivers/STM32G4xx_HAL_Driver/Src/stm32g4xx_hal_rcc.c ****   }
1172:Drivers/STM32G4xx_HAL_Driver/Src/stm32g4xx_hal_rcc.c ****   else
1173:Drivers/STM32G4xx_HAL_Driver/Src/stm32g4xx_hal_rcc.c ****   {
1174:Drivers/STM32G4xx_HAL_Driver/Src/stm32g4xx_hal_rcc.c ****     RCC_OscInitStruct->HSEState = RCC_HSE_OFF;
1175:Drivers/STM32G4xx_HAL_Driver/Src/stm32g4xx_hal_rcc.c ****   }
1176:Drivers/STM32G4xx_HAL_Driver/Src/stm32g4xx_hal_rcc.c **** 
1177:Drivers/STM32G4xx_HAL_Driver/Src/stm32g4xx_hal_rcc.c ****   /* Get the HSI configuration -----------------------------------------------*/
1178:Drivers/STM32G4xx_HAL_Driver/Src/stm32g4xx_hal_rcc.c ****   if(READ_BIT(RCC->CR, RCC_CR_HSION) == RCC_CR_HSION)
1179:Drivers/STM32G4xx_HAL_Driver/Src/stm32g4xx_hal_rcc.c ****   {
1180:Drivers/STM32G4xx_HAL_Driver/Src/stm32g4xx_hal_rcc.c ****     RCC_OscInitStruct->HSIState = RCC_HSI_ON;
1181:Drivers/STM32G4xx_HAL_Driver/Src/stm32g4xx_hal_rcc.c ****   }
1182:Drivers/STM32G4xx_HAL_Driver/Src/stm32g4xx_hal_rcc.c ****   else
1183:Drivers/STM32G4xx_HAL_Driver/Src/stm32g4xx_hal_rcc.c ****   {
1184:Drivers/STM32G4xx_HAL_Driver/Src/stm32g4xx_hal_rcc.c ****     RCC_OscInitStruct->HSIState = RCC_HSI_OFF;
1185:Drivers/STM32G4xx_HAL_Driver/Src/stm32g4xx_hal_rcc.c ****   }
1186:Drivers/STM32G4xx_HAL_Driver/Src/stm32g4xx_hal_rcc.c **** 
1187:Drivers/STM32G4xx_HAL_Driver/Src/stm32g4xx_hal_rcc.c ****   RCC_OscInitStruct->HSICalibrationValue = READ_BIT(RCC->ICSCR, RCC_ICSCR_HSITRIM) >> RCC_ICSCR_HSI
1188:Drivers/STM32G4xx_HAL_Driver/Src/stm32g4xx_hal_rcc.c **** 
1189:Drivers/STM32G4xx_HAL_Driver/Src/stm32g4xx_hal_rcc.c ****   /* Get the LSE configuration -----------------------------------------------*/
1190:Drivers/STM32G4xx_HAL_Driver/Src/stm32g4xx_hal_rcc.c ****   if(READ_BIT(RCC->BDCR, RCC_BDCR_LSEBYP) == RCC_BDCR_LSEBYP)
1191:Drivers/STM32G4xx_HAL_Driver/Src/stm32g4xx_hal_rcc.c ****   {
1192:Drivers/STM32G4xx_HAL_Driver/Src/stm32g4xx_hal_rcc.c ****     RCC_OscInitStruct->LSEState = RCC_LSE_BYPASS;
1193:Drivers/STM32G4xx_HAL_Driver/Src/stm32g4xx_hal_rcc.c ****   }
1194:Drivers/STM32G4xx_HAL_Driver/Src/stm32g4xx_hal_rcc.c ****   else if(READ_BIT(RCC->BDCR, RCC_BDCR_LSEON) == RCC_BDCR_LSEON)
1195:Drivers/STM32G4xx_HAL_Driver/Src/stm32g4xx_hal_rcc.c ****   {
1196:Drivers/STM32G4xx_HAL_Driver/Src/stm32g4xx_hal_rcc.c ****     RCC_OscInitStruct->LSEState = RCC_LSE_ON;
1197:Drivers/STM32G4xx_HAL_Driver/Src/stm32g4xx_hal_rcc.c ****   }
1198:Drivers/STM32G4xx_HAL_Driver/Src/stm32g4xx_hal_rcc.c ****   else
1199:Drivers/STM32G4xx_HAL_Driver/Src/stm32g4xx_hal_rcc.c ****   {
1200:Drivers/STM32G4xx_HAL_Driver/Src/stm32g4xx_hal_rcc.c ****     RCC_OscInitStruct->LSEState = RCC_LSE_OFF;
1201:Drivers/STM32G4xx_HAL_Driver/Src/stm32g4xx_hal_rcc.c ****   }
1202:Drivers/STM32G4xx_HAL_Driver/Src/stm32g4xx_hal_rcc.c **** 
1203:Drivers/STM32G4xx_HAL_Driver/Src/stm32g4xx_hal_rcc.c ****   /* Get the LSI configuration -----------------------------------------------*/
1204:Drivers/STM32G4xx_HAL_Driver/Src/stm32g4xx_hal_rcc.c ****   if(READ_BIT(RCC->CSR, RCC_CSR_LSION) == RCC_CSR_LSION)
1205:Drivers/STM32G4xx_HAL_Driver/Src/stm32g4xx_hal_rcc.c ****   {
1206:Drivers/STM32G4xx_HAL_Driver/Src/stm32g4xx_hal_rcc.c ****     RCC_OscInitStruct->LSIState = RCC_LSI_ON;
1207:Drivers/STM32G4xx_HAL_Driver/Src/stm32g4xx_hal_rcc.c ****   }
1208:Drivers/STM32G4xx_HAL_Driver/Src/stm32g4xx_hal_rcc.c ****   else
1209:Drivers/STM32G4xx_HAL_Driver/Src/stm32g4xx_hal_rcc.c ****   {
1210:Drivers/STM32G4xx_HAL_Driver/Src/stm32g4xx_hal_rcc.c ****     RCC_OscInitStruct->LSIState = RCC_LSI_OFF;
1211:Drivers/STM32G4xx_HAL_Driver/Src/stm32g4xx_hal_rcc.c ****   }
ARM GAS  /tmp/ccE4sfSH.s 			page 62


1212:Drivers/STM32G4xx_HAL_Driver/Src/stm32g4xx_hal_rcc.c **** 
1213:Drivers/STM32G4xx_HAL_Driver/Src/stm32g4xx_hal_rcc.c ****   /* Get the HSI48 configuration ---------------------------------------------*/
1214:Drivers/STM32G4xx_HAL_Driver/Src/stm32g4xx_hal_rcc.c ****   if(READ_BIT(RCC->CRRCR, RCC_CRRCR_HSI48ON) == RCC_CRRCR_HSI48ON)
1215:Drivers/STM32G4xx_HAL_Driver/Src/stm32g4xx_hal_rcc.c ****   {
1216:Drivers/STM32G4xx_HAL_Driver/Src/stm32g4xx_hal_rcc.c ****     RCC_OscInitStruct->HSI48State = RCC_HSI48_ON;
1217:Drivers/STM32G4xx_HAL_Driver/Src/stm32g4xx_hal_rcc.c ****   }
1218:Drivers/STM32G4xx_HAL_Driver/Src/stm32g4xx_hal_rcc.c ****   else
1219:Drivers/STM32G4xx_HAL_Driver/Src/stm32g4xx_hal_rcc.c ****   {
1220:Drivers/STM32G4xx_HAL_Driver/Src/stm32g4xx_hal_rcc.c ****     RCC_OscInitStruct->HSI48State = RCC_HSI48_OFF;
1221:Drivers/STM32G4xx_HAL_Driver/Src/stm32g4xx_hal_rcc.c ****   }
1222:Drivers/STM32G4xx_HAL_Driver/Src/stm32g4xx_hal_rcc.c **** 
1223:Drivers/STM32G4xx_HAL_Driver/Src/stm32g4xx_hal_rcc.c ****   /* Get the PLL configuration -----------------------------------------------*/
1224:Drivers/STM32G4xx_HAL_Driver/Src/stm32g4xx_hal_rcc.c ****   if(READ_BIT(RCC->CR, RCC_CR_PLLON) == RCC_CR_PLLON)
1225:Drivers/STM32G4xx_HAL_Driver/Src/stm32g4xx_hal_rcc.c ****   {
1226:Drivers/STM32G4xx_HAL_Driver/Src/stm32g4xx_hal_rcc.c ****     RCC_OscInitStruct->PLL.PLLState = RCC_PLL_ON;
1227:Drivers/STM32G4xx_HAL_Driver/Src/stm32g4xx_hal_rcc.c ****   }
1228:Drivers/STM32G4xx_HAL_Driver/Src/stm32g4xx_hal_rcc.c ****   else
1229:Drivers/STM32G4xx_HAL_Driver/Src/stm32g4xx_hal_rcc.c ****   {
1230:Drivers/STM32G4xx_HAL_Driver/Src/stm32g4xx_hal_rcc.c ****     RCC_OscInitStruct->PLL.PLLState = RCC_PLL_OFF;
1231:Drivers/STM32G4xx_HAL_Driver/Src/stm32g4xx_hal_rcc.c ****   }
1232:Drivers/STM32G4xx_HAL_Driver/Src/stm32g4xx_hal_rcc.c ****   RCC_OscInitStruct->PLL.PLLSource = READ_BIT(RCC->PLLCFGR, RCC_PLLCFGR_PLLSRC);
1233:Drivers/STM32G4xx_HAL_Driver/Src/stm32g4xx_hal_rcc.c ****   RCC_OscInitStruct->PLL.PLLM = (READ_BIT(RCC->PLLCFGR, RCC_PLLCFGR_PLLM) >> RCC_PLLCFGR_PLLM_Pos) 
1234:Drivers/STM32G4xx_HAL_Driver/Src/stm32g4xx_hal_rcc.c ****   RCC_OscInitStruct->PLL.PLLN = READ_BIT(RCC->PLLCFGR, RCC_PLLCFGR_PLLN) >> RCC_PLLCFGR_PLLN_Pos;
1235:Drivers/STM32G4xx_HAL_Driver/Src/stm32g4xx_hal_rcc.c ****   RCC_OscInitStruct->PLL.PLLQ = (((READ_BIT(RCC->PLLCFGR, RCC_PLLCFGR_PLLQ) >> RCC_PLLCFGR_PLLQ_Pos
1236:Drivers/STM32G4xx_HAL_Driver/Src/stm32g4xx_hal_rcc.c ****   RCC_OscInitStruct->PLL.PLLR = (((READ_BIT(RCC->PLLCFGR, RCC_PLLCFGR_PLLR) >> RCC_PLLCFGR_PLLR_Pos
1237:Drivers/STM32G4xx_HAL_Driver/Src/stm32g4xx_hal_rcc.c ****   RCC_OscInitStruct->PLL.PLLP = READ_BIT(RCC->PLLCFGR, RCC_PLLCFGR_PLLPDIV) >> RCC_PLLCFGR_PLLPDIV_
1238:Drivers/STM32G4xx_HAL_Driver/Src/stm32g4xx_hal_rcc.c **** }
1239:Drivers/STM32G4xx_HAL_Driver/Src/stm32g4xx_hal_rcc.c **** 
1240:Drivers/STM32G4xx_HAL_Driver/Src/stm32g4xx_hal_rcc.c **** /**
1241:Drivers/STM32G4xx_HAL_Driver/Src/stm32g4xx_hal_rcc.c ****   * @brief  Configure the RCC_ClkInitStruct according to the internal
1242:Drivers/STM32G4xx_HAL_Driver/Src/stm32g4xx_hal_rcc.c ****   *         RCC configuration registers.
1243:Drivers/STM32G4xx_HAL_Driver/Src/stm32g4xx_hal_rcc.c ****   * @param  RCC_ClkInitStruct  pointer to an RCC_ClkInitTypeDef structure that
1244:Drivers/STM32G4xx_HAL_Driver/Src/stm32g4xx_hal_rcc.c ****   *         will be configured.
1245:Drivers/STM32G4xx_HAL_Driver/Src/stm32g4xx_hal_rcc.c ****   * @param  pFLatency  Pointer on the Flash Latency.
1246:Drivers/STM32G4xx_HAL_Driver/Src/stm32g4xx_hal_rcc.c ****   * @retval None
1247:Drivers/STM32G4xx_HAL_Driver/Src/stm32g4xx_hal_rcc.c ****   */
1248:Drivers/STM32G4xx_HAL_Driver/Src/stm32g4xx_hal_rcc.c **** void HAL_RCC_GetClockConfig(RCC_ClkInitTypeDef  *RCC_ClkInitStruct, uint32_t *pFLatency)
1249:Drivers/STM32G4xx_HAL_Driver/Src/stm32g4xx_hal_rcc.c **** {
1250:Drivers/STM32G4xx_HAL_Driver/Src/stm32g4xx_hal_rcc.c ****   /* Check the parameters */
1251:Drivers/STM32G4xx_HAL_Driver/Src/stm32g4xx_hal_rcc.c ****   assert_param(RCC_ClkInitStruct != (void  *)NULL);
1252:Drivers/STM32G4xx_HAL_Driver/Src/stm32g4xx_hal_rcc.c ****   assert_param(pFLatency != (void *)NULL);
1253:Drivers/STM32G4xx_HAL_Driver/Src/stm32g4xx_hal_rcc.c **** 
1254:Drivers/STM32G4xx_HAL_Driver/Src/stm32g4xx_hal_rcc.c ****   /* Set all possible values for the Clock type parameter --------------------*/
1255:Drivers/STM32G4xx_HAL_Driver/Src/stm32g4xx_hal_rcc.c ****   RCC_ClkInitStruct->ClockType = RCC_CLOCKTYPE_SYSCLK | RCC_CLOCKTYPE_HCLK | RCC_CLOCKTYPE_PCLK1 | 
1256:Drivers/STM32G4xx_HAL_Driver/Src/stm32g4xx_hal_rcc.c **** 
1257:Drivers/STM32G4xx_HAL_Driver/Src/stm32g4xx_hal_rcc.c ****   /* Get the SYSCLK configuration --------------------------------------------*/
1258:Drivers/STM32G4xx_HAL_Driver/Src/stm32g4xx_hal_rcc.c ****   RCC_ClkInitStruct->SYSCLKSource = READ_BIT(RCC->CFGR, RCC_CFGR_SW);
1259:Drivers/STM32G4xx_HAL_Driver/Src/stm32g4xx_hal_rcc.c **** 
1260:Drivers/STM32G4xx_HAL_Driver/Src/stm32g4xx_hal_rcc.c ****   /* Get the HCLK configuration ----------------------------------------------*/
1261:Drivers/STM32G4xx_HAL_Driver/Src/stm32g4xx_hal_rcc.c ****   RCC_ClkInitStruct->AHBCLKDivider = READ_BIT(RCC->CFGR, RCC_CFGR_HPRE);
1262:Drivers/STM32G4xx_HAL_Driver/Src/stm32g4xx_hal_rcc.c **** 
1263:Drivers/STM32G4xx_HAL_Driver/Src/stm32g4xx_hal_rcc.c ****   /* Get the APB1 configuration ----------------------------------------------*/
1264:Drivers/STM32G4xx_HAL_Driver/Src/stm32g4xx_hal_rcc.c ****   RCC_ClkInitStruct->APB1CLKDivider = READ_BIT(RCC->CFGR, RCC_CFGR_PPRE1);
1265:Drivers/STM32G4xx_HAL_Driver/Src/stm32g4xx_hal_rcc.c **** 
1266:Drivers/STM32G4xx_HAL_Driver/Src/stm32g4xx_hal_rcc.c ****   /* Get the APB2 configuration ----------------------------------------------*/
1267:Drivers/STM32G4xx_HAL_Driver/Src/stm32g4xx_hal_rcc.c ****   RCC_ClkInitStruct->APB2CLKDivider = (READ_BIT(RCC->CFGR, RCC_CFGR_PPRE2) >> 3U);
1268:Drivers/STM32G4xx_HAL_Driver/Src/stm32g4xx_hal_rcc.c **** 
ARM GAS  /tmp/ccE4sfSH.s 			page 63


1269:Drivers/STM32G4xx_HAL_Driver/Src/stm32g4xx_hal_rcc.c ****   /* Get the Flash Wait State (Latency) configuration ------------------------*/
1270:Drivers/STM32G4xx_HAL_Driver/Src/stm32g4xx_hal_rcc.c ****   *pFLatency = __HAL_FLASH_GET_LATENCY();
1271:Drivers/STM32G4xx_HAL_Driver/Src/stm32g4xx_hal_rcc.c **** }
1272:Drivers/STM32G4xx_HAL_Driver/Src/stm32g4xx_hal_rcc.c **** 
1273:Drivers/STM32G4xx_HAL_Driver/Src/stm32g4xx_hal_rcc.c **** /**
1274:Drivers/STM32G4xx_HAL_Driver/Src/stm32g4xx_hal_rcc.c ****   * @brief  Enable the Clock Security System.
1275:Drivers/STM32G4xx_HAL_Driver/Src/stm32g4xx_hal_rcc.c ****   * @note   If a failure is detected on the HSE oscillator clock, this oscillator
1276:Drivers/STM32G4xx_HAL_Driver/Src/stm32g4xx_hal_rcc.c ****   *         is automatically disabled and an interrupt is generated to inform the
1277:Drivers/STM32G4xx_HAL_Driver/Src/stm32g4xx_hal_rcc.c ****   *         software about the failure (Clock Security System Interrupt, CSSI),
1278:Drivers/STM32G4xx_HAL_Driver/Src/stm32g4xx_hal_rcc.c ****   *         allowing the MCU to perform rescue operations. The CSSI is linked to
1279:Drivers/STM32G4xx_HAL_Driver/Src/stm32g4xx_hal_rcc.c ****   *         the Cortex-M4 NMI (Non-Maskable Interrupt) exception vector.
1280:Drivers/STM32G4xx_HAL_Driver/Src/stm32g4xx_hal_rcc.c ****   * @note   The Clock Security System can only be cleared by reset.
1281:Drivers/STM32G4xx_HAL_Driver/Src/stm32g4xx_hal_rcc.c ****   * @retval None
1282:Drivers/STM32G4xx_HAL_Driver/Src/stm32g4xx_hal_rcc.c ****   */
1283:Drivers/STM32G4xx_HAL_Driver/Src/stm32g4xx_hal_rcc.c **** void HAL_RCC_EnableCSS(void)
1284:Drivers/STM32G4xx_HAL_Driver/Src/stm32g4xx_hal_rcc.c **** {
1285:Drivers/STM32G4xx_HAL_Driver/Src/stm32g4xx_hal_rcc.c ****   SET_BIT(RCC->CR, RCC_CR_CSSON) ;
1286:Drivers/STM32G4xx_HAL_Driver/Src/stm32g4xx_hal_rcc.c **** }
1287:Drivers/STM32G4xx_HAL_Driver/Src/stm32g4xx_hal_rcc.c **** 
1288:Drivers/STM32G4xx_HAL_Driver/Src/stm32g4xx_hal_rcc.c **** /**
1289:Drivers/STM32G4xx_HAL_Driver/Src/stm32g4xx_hal_rcc.c ****   * @brief  Enable the LSE Clock Security System.
1290:Drivers/STM32G4xx_HAL_Driver/Src/stm32g4xx_hal_rcc.c ****   * @note   If a failure is detected on the external 32 kHz oscillator,
1291:Drivers/STM32G4xx_HAL_Driver/Src/stm32g4xx_hal_rcc.c ****   *         the LSE clock is no longer supplied to the RTC but no hardware action
1292:Drivers/STM32G4xx_HAL_Driver/Src/stm32g4xx_hal_rcc.c ****   *         is made to the registers. If enabled, an interrupt will be generated
1293:Drivers/STM32G4xx_HAL_Driver/Src/stm32g4xx_hal_rcc.c ****   *         and handle through @ref RCCEx_EXTI_LINE_LSECSS
1294:Drivers/STM32G4xx_HAL_Driver/Src/stm32g4xx_hal_rcc.c ****   * @note   The Clock Security System can only be cleared by reset or after a LSE failure detection
1295:Drivers/STM32G4xx_HAL_Driver/Src/stm32g4xx_hal_rcc.c ****   * @retval None
1296:Drivers/STM32G4xx_HAL_Driver/Src/stm32g4xx_hal_rcc.c ****   */
1297:Drivers/STM32G4xx_HAL_Driver/Src/stm32g4xx_hal_rcc.c **** void HAL_RCC_EnableLSECSS(void)
1298:Drivers/STM32G4xx_HAL_Driver/Src/stm32g4xx_hal_rcc.c **** {
1299:Drivers/STM32G4xx_HAL_Driver/Src/stm32g4xx_hal_rcc.c ****   SET_BIT(RCC->BDCR, RCC_BDCR_LSECSSON) ;
1300:Drivers/STM32G4xx_HAL_Driver/Src/stm32g4xx_hal_rcc.c **** }
1301:Drivers/STM32G4xx_HAL_Driver/Src/stm32g4xx_hal_rcc.c **** 
1302:Drivers/STM32G4xx_HAL_Driver/Src/stm32g4xx_hal_rcc.c **** /**
1303:Drivers/STM32G4xx_HAL_Driver/Src/stm32g4xx_hal_rcc.c ****   * @brief  Disable the LSE Clock Security System.
1304:Drivers/STM32G4xx_HAL_Driver/Src/stm32g4xx_hal_rcc.c ****   * @note   After LSE failure detection, the software must disable LSECSSON
1305:Drivers/STM32G4xx_HAL_Driver/Src/stm32g4xx_hal_rcc.c ****   * @note   The Clock Security System can only be cleared by reset otherwise.
1306:Drivers/STM32G4xx_HAL_Driver/Src/stm32g4xx_hal_rcc.c ****   * @retval None
1307:Drivers/STM32G4xx_HAL_Driver/Src/stm32g4xx_hal_rcc.c ****   */
1308:Drivers/STM32G4xx_HAL_Driver/Src/stm32g4xx_hal_rcc.c **** void HAL_RCC_DisableLSECSS(void)
1309:Drivers/STM32G4xx_HAL_Driver/Src/stm32g4xx_hal_rcc.c **** {
1310:Drivers/STM32G4xx_HAL_Driver/Src/stm32g4xx_hal_rcc.c ****   CLEAR_BIT(RCC->BDCR, RCC_BDCR_LSECSSON) ;
1311:Drivers/STM32G4xx_HAL_Driver/Src/stm32g4xx_hal_rcc.c **** }
1312:Drivers/STM32G4xx_HAL_Driver/Src/stm32g4xx_hal_rcc.c **** 
1313:Drivers/STM32G4xx_HAL_Driver/Src/stm32g4xx_hal_rcc.c **** /**
1314:Drivers/STM32G4xx_HAL_Driver/Src/stm32g4xx_hal_rcc.c ****   * @brief Handle the RCC Clock Security System interrupt request.
1315:Drivers/STM32G4xx_HAL_Driver/Src/stm32g4xx_hal_rcc.c ****   * @note This API should be called under the NMI_Handler().
1316:Drivers/STM32G4xx_HAL_Driver/Src/stm32g4xx_hal_rcc.c ****   * @retval None
1317:Drivers/STM32G4xx_HAL_Driver/Src/stm32g4xx_hal_rcc.c ****   */
1318:Drivers/STM32G4xx_HAL_Driver/Src/stm32g4xx_hal_rcc.c **** void HAL_RCC_NMI_IRQHandler(void)
1319:Drivers/STM32G4xx_HAL_Driver/Src/stm32g4xx_hal_rcc.c **** {
1320:Drivers/STM32G4xx_HAL_Driver/Src/stm32g4xx_hal_rcc.c ****   /* Check RCC CSSF interrupt flag  */
1321:Drivers/STM32G4xx_HAL_Driver/Src/stm32g4xx_hal_rcc.c ****   if(__HAL_RCC_GET_IT(RCC_IT_CSS))
1322:Drivers/STM32G4xx_HAL_Driver/Src/stm32g4xx_hal_rcc.c ****   {
1323:Drivers/STM32G4xx_HAL_Driver/Src/stm32g4xx_hal_rcc.c ****     /* RCC Clock Security System interrupt user callback */
1324:Drivers/STM32G4xx_HAL_Driver/Src/stm32g4xx_hal_rcc.c ****     HAL_RCC_CSSCallback();
1325:Drivers/STM32G4xx_HAL_Driver/Src/stm32g4xx_hal_rcc.c **** 
ARM GAS  /tmp/ccE4sfSH.s 			page 64


1326:Drivers/STM32G4xx_HAL_Driver/Src/stm32g4xx_hal_rcc.c ****     /* Clear RCC CSS pending bit */
1327:Drivers/STM32G4xx_HAL_Driver/Src/stm32g4xx_hal_rcc.c ****     __HAL_RCC_CLEAR_IT(RCC_IT_CSS);
1328:Drivers/STM32G4xx_HAL_Driver/Src/stm32g4xx_hal_rcc.c ****   }
1329:Drivers/STM32G4xx_HAL_Driver/Src/stm32g4xx_hal_rcc.c **** }
1330:Drivers/STM32G4xx_HAL_Driver/Src/stm32g4xx_hal_rcc.c **** 
1331:Drivers/STM32G4xx_HAL_Driver/Src/stm32g4xx_hal_rcc.c **** /**
1332:Drivers/STM32G4xx_HAL_Driver/Src/stm32g4xx_hal_rcc.c ****   * @brief  RCC Clock Security System interrupt callback.
1333:Drivers/STM32G4xx_HAL_Driver/Src/stm32g4xx_hal_rcc.c ****   * @retval none
1334:Drivers/STM32G4xx_HAL_Driver/Src/stm32g4xx_hal_rcc.c ****   */
1335:Drivers/STM32G4xx_HAL_Driver/Src/stm32g4xx_hal_rcc.c **** __weak void HAL_RCC_CSSCallback(void)
1336:Drivers/STM32G4xx_HAL_Driver/Src/stm32g4xx_hal_rcc.c **** {
1337:Drivers/STM32G4xx_HAL_Driver/Src/stm32g4xx_hal_rcc.c ****   /* NOTE : This function should not be modified, when the callback is needed,
1338:Drivers/STM32G4xx_HAL_Driver/Src/stm32g4xx_hal_rcc.c ****             the HAL_RCC_CSSCallback should be implemented in the user file
1339:Drivers/STM32G4xx_HAL_Driver/Src/stm32g4xx_hal_rcc.c ****    */
1340:Drivers/STM32G4xx_HAL_Driver/Src/stm32g4xx_hal_rcc.c **** }
1341:Drivers/STM32G4xx_HAL_Driver/Src/stm32g4xx_hal_rcc.c **** 
1342:Drivers/STM32G4xx_HAL_Driver/Src/stm32g4xx_hal_rcc.c **** /**
1343:Drivers/STM32G4xx_HAL_Driver/Src/stm32g4xx_hal_rcc.c ****   * @}
1344:Drivers/STM32G4xx_HAL_Driver/Src/stm32g4xx_hal_rcc.c ****   */
1345:Drivers/STM32G4xx_HAL_Driver/Src/stm32g4xx_hal_rcc.c **** 
1346:Drivers/STM32G4xx_HAL_Driver/Src/stm32g4xx_hal_rcc.c **** /**
1347:Drivers/STM32G4xx_HAL_Driver/Src/stm32g4xx_hal_rcc.c ****   * @}
1348:Drivers/STM32G4xx_HAL_Driver/Src/stm32g4xx_hal_rcc.c ****   */
1349:Drivers/STM32G4xx_HAL_Driver/Src/stm32g4xx_hal_rcc.c **** 
1350:Drivers/STM32G4xx_HAL_Driver/Src/stm32g4xx_hal_rcc.c **** /* Private function prototypes -----------------------------------------------*/
1351:Drivers/STM32G4xx_HAL_Driver/Src/stm32g4xx_hal_rcc.c **** /** @addtogroup RCC_Private_Functions
1352:Drivers/STM32G4xx_HAL_Driver/Src/stm32g4xx_hal_rcc.c ****   * @{
1353:Drivers/STM32G4xx_HAL_Driver/Src/stm32g4xx_hal_rcc.c ****   */
1354:Drivers/STM32G4xx_HAL_Driver/Src/stm32g4xx_hal_rcc.c **** 
1355:Drivers/STM32G4xx_HAL_Driver/Src/stm32g4xx_hal_rcc.c **** /**
1356:Drivers/STM32G4xx_HAL_Driver/Src/stm32g4xx_hal_rcc.c ****   * @brief  Compute SYSCLK frequency based on PLL SYSCLK source.
1357:Drivers/STM32G4xx_HAL_Driver/Src/stm32g4xx_hal_rcc.c ****   * @retval SYSCLK frequency
1358:Drivers/STM32G4xx_HAL_Driver/Src/stm32g4xx_hal_rcc.c ****   */
1359:Drivers/STM32G4xx_HAL_Driver/Src/stm32g4xx_hal_rcc.c **** static uint32_t RCC_GetSysClockFreqFromPLLSource(void)
 1854              		.loc 1 1359 17 view .LVU655
 1855              	.LBB18:
1360:Drivers/STM32G4xx_HAL_Driver/Src/stm32g4xx_hal_rcc.c **** {
1361:Drivers/STM32G4xx_HAL_Driver/Src/stm32g4xx_hal_rcc.c ****   uint32_t pllvco, pllsource, pllr, pllm;
 1856              		.loc 1 1361 3 view .LVU656
1362:Drivers/STM32G4xx_HAL_Driver/Src/stm32g4xx_hal_rcc.c ****   uint32_t sysclockfreq;
 1857              		.loc 1 1362 3 view .LVU657
1363:Drivers/STM32G4xx_HAL_Driver/Src/stm32g4xx_hal_rcc.c **** 
1364:Drivers/STM32G4xx_HAL_Driver/Src/stm32g4xx_hal_rcc.c ****   /* PLL_VCO = (HSE_VALUE or HSI_VALUE/ PLLM) * PLLN
1365:Drivers/STM32G4xx_HAL_Driver/Src/stm32g4xx_hal_rcc.c ****      SYSCLK = PLL_VCO / PLLR
1366:Drivers/STM32G4xx_HAL_Driver/Src/stm32g4xx_hal_rcc.c ****    */
1367:Drivers/STM32G4xx_HAL_Driver/Src/stm32g4xx_hal_rcc.c ****   pllsource = READ_BIT(RCC->PLLCFGR, RCC_PLLCFGR_PLLSRC);
 1858              		.loc 1 1367 3 view .LVU658
 1859              		.loc 1 1367 15 is_stmt 0 view .LVU659
 1860 0180 CE68     		ldr	r6, [r1, #12]
 1861              	.LVL153:
1368:Drivers/STM32G4xx_HAL_Driver/Src/stm32g4xx_hal_rcc.c ****   pllm = (READ_BIT(RCC->PLLCFGR, RCC_PLLCFGR_PLLM) >> RCC_PLLCFGR_PLLM_Pos) + 1U ;
 1862              		.loc 1 1368 3 is_stmt 1 view .LVU660
 1863              		.loc 1 1368 11 is_stmt 0 view .LVU661
 1864 0182 C868     		ldr	r0, [r1, #12]
1369:Drivers/STM32G4xx_HAL_Driver/Src/stm32g4xx_hal_rcc.c **** 
1370:Drivers/STM32G4xx_HAL_Driver/Src/stm32g4xx_hal_rcc.c ****   switch (pllsource)
1371:Drivers/STM32G4xx_HAL_Driver/Src/stm32g4xx_hal_rcc.c ****   {
ARM GAS  /tmp/ccE4sfSH.s 			page 65


1372:Drivers/STM32G4xx_HAL_Driver/Src/stm32g4xx_hal_rcc.c ****   case RCC_PLLSOURCE_HSE:  /* HSE used as PLL clock source */
1373:Drivers/STM32G4xx_HAL_Driver/Src/stm32g4xx_hal_rcc.c ****     pllvco = (HSE_VALUE / pllm) * (READ_BIT(RCC->PLLCFGR, RCC_PLLCFGR_PLLN) >> RCC_PLLCFGR_PLLN_Pos
1374:Drivers/STM32G4xx_HAL_Driver/Src/stm32g4xx_hal_rcc.c ****     break;
1375:Drivers/STM32G4xx_HAL_Driver/Src/stm32g4xx_hal_rcc.c **** 
1376:Drivers/STM32G4xx_HAL_Driver/Src/stm32g4xx_hal_rcc.c ****   case RCC_PLLSOURCE_HSI:  /* HSI used as PLL clock source */
1377:Drivers/STM32G4xx_HAL_Driver/Src/stm32g4xx_hal_rcc.c ****   default:
1378:Drivers/STM32G4xx_HAL_Driver/Src/stm32g4xx_hal_rcc.c ****     pllvco = (HSI_VALUE / pllm) * (READ_BIT(RCC->PLLCFGR, RCC_PLLCFGR_PLLN) >> RCC_PLLCFGR_PLLN_Pos
 1865              		.loc 1 1378 36 view .LVU662
 1866 0184 C968     		ldr	r1, [r1, #12]
 1867              	.LBE18:
 1868              	.LBE17:
 818:Drivers/STM32G4xx_HAL_Driver/Src/stm32g4xx_hal_rcc.c ****       {
 1869              		.loc 1 818 9 view .LVU663
 1870 0186 214F     		ldr	r7, .L227+8
 1871              	.LBB21:
 1872              	.LBB19:
1367:Drivers/STM32G4xx_HAL_Driver/Src/stm32g4xx_hal_rcc.c ****   pllm = (READ_BIT(RCC->PLLCFGR, RCC_PLLCFGR_PLLM) >> RCC_PLLCFGR_PLLM_Pos) + 1U ;
 1873              		.loc 1 1367 13 view .LVU664
 1874 0188 06F00306 		and	r6, r6, #3
 1875              	.LVL154:
1370:Drivers/STM32G4xx_HAL_Driver/Src/stm32g4xx_hal_rcc.c ****   {
 1876              		.loc 1 1370 3 view .LVU665
 1877 018c 032E     		cmp	r6, #3
1368:Drivers/STM32G4xx_HAL_Driver/Src/stm32g4xx_hal_rcc.c **** 
 1878              		.loc 1 1368 52 view .LVU666
 1879 018e C0F30310 		ubfx	r0, r0, #4, #4
1373:Drivers/STM32G4xx_HAL_Driver/Src/stm32g4xx_hal_rcc.c ****     break;
 1880              		.loc 1 1373 25 view .LVU667
 1881 0192 0CBF     		ite	eq
 1882 0194 214E     		ldreq	r6, .L227+24
 1883              	.LVL155:
 1884              		.loc 1 1378 25 view .LVU668
 1885 0196 224E     		ldrne	r6, .L227+28
1368:Drivers/STM32G4xx_HAL_Driver/Src/stm32g4xx_hal_rcc.c **** 
 1886              		.loc 1 1368 8 view .LVU669
 1887 0198 0130     		adds	r0, r0, #1
 1888              	.LVL156:
1370:Drivers/STM32G4xx_HAL_Driver/Src/stm32g4xx_hal_rcc.c ****   {
 1889              		.loc 1 1370 3 is_stmt 1 view .LVU670
1373:Drivers/STM32G4xx_HAL_Driver/Src/stm32g4xx_hal_rcc.c ****     break;
 1890              		.loc 1 1373 5 view .LVU671
 1891              		.loc 1 1378 5 view .LVU672
 1892              		.loc 1 1378 25 is_stmt 0 view .LVU673
 1893 019a B6FBF0F0 		udiv	r0, r6, r0
 1894              	.LVL157:
1379:Drivers/STM32G4xx_HAL_Driver/Src/stm32g4xx_hal_rcc.c ****     break;
1380:Drivers/STM32G4xx_HAL_Driver/Src/stm32g4xx_hal_rcc.c ****   }
1381:Drivers/STM32G4xx_HAL_Driver/Src/stm32g4xx_hal_rcc.c **** 
1382:Drivers/STM32G4xx_HAL_Driver/Src/stm32g4xx_hal_rcc.c ****   pllr = ((READ_BIT(RCC->PLLCFGR, RCC_PLLCFGR_PLLR) >> RCC_PLLCFGR_PLLR_Pos) + 1U ) * 2U;
 1895              		.loc 1 1382 12 view .LVU674
 1896 019e 1A4E     		ldr	r6, .L227+4
1378:Drivers/STM32G4xx_HAL_Driver/Src/stm32g4xx_hal_rcc.c ****     break;
 1897              		.loc 1 1378 77 view .LVU675
 1898 01a0 C1F30621 		ubfx	r1, r1, #8, #7
1378:Drivers/STM32G4xx_HAL_Driver/Src/stm32g4xx_hal_rcc.c ****     break;
 1899              		.loc 1 1378 12 view .LVU676
 1900 01a4 00FB01F1 		mul	r1, r0, r1
ARM GAS  /tmp/ccE4sfSH.s 			page 66


 1901              	.LVL158:
1379:Drivers/STM32G4xx_HAL_Driver/Src/stm32g4xx_hal_rcc.c ****     break;
 1902              		.loc 1 1379 5 is_stmt 1 view .LVU677
 1903              		.loc 1 1382 3 view .LVU678
 1904              		.loc 1 1382 12 is_stmt 0 view .LVU679
 1905 01a8 F068     		ldr	r0, [r6, #12]
 1906              	.LVL159:
1383:Drivers/STM32G4xx_HAL_Driver/Src/stm32g4xx_hal_rcc.c ****   sysclockfreq = pllvco/pllr;
 1907              		.loc 1 1383 3 is_stmt 1 view .LVU680
1384:Drivers/STM32G4xx_HAL_Driver/Src/stm32g4xx_hal_rcc.c **** 
1385:Drivers/STM32G4xx_HAL_Driver/Src/stm32g4xx_hal_rcc.c ****   return sysclockfreq;
 1908              		.loc 1 1385 3 view .LVU681
 1909              		.loc 1 1385 3 is_stmt 0 view .LVU682
 1910              	.LBE19:
 1911              	.LBE21:
 818:Drivers/STM32G4xx_HAL_Driver/Src/stm32g4xx_hal_rcc.c ****       {
 1912              		.loc 1 818 7 is_stmt 1 view .LVU683
 1913              	.LBB22:
 1914              	.LBB20:
1382:Drivers/STM32G4xx_HAL_Driver/Src/stm32g4xx_hal_rcc.c ****   sysclockfreq = pllvco/pllr;
 1915              		.loc 1 1382 53 is_stmt 0 view .LVU684
 1916 01aa C0F34160 		ubfx	r0, r0, #25, #2
 1917              	.LVL160:
1382:Drivers/STM32G4xx_HAL_Driver/Src/stm32g4xx_hal_rcc.c ****   sysclockfreq = pllvco/pllr;
 1918              		.loc 1 1382 78 view .LVU685
 1919 01ae 0130     		adds	r0, r0, #1
1382:Drivers/STM32G4xx_HAL_Driver/Src/stm32g4xx_hal_rcc.c ****   sysclockfreq = pllvco/pllr;
 1920              		.loc 1 1382 8 view .LVU686
 1921 01b0 4000     		lsls	r0, r0, #1
1383:Drivers/STM32G4xx_HAL_Driver/Src/stm32g4xx_hal_rcc.c **** 
 1922              		.loc 1 1383 16 view .LVU687
 1923 01b2 B1FBF0F1 		udiv	r1, r1, r0
1383:Drivers/STM32G4xx_HAL_Driver/Src/stm32g4xx_hal_rcc.c **** 
 1924              		.loc 1 1383 16 view .LVU688
 1925              	.LBE20:
 1926              	.LBE22:
 818:Drivers/STM32G4xx_HAL_Driver/Src/stm32g4xx_hal_rcc.c ****       {
 1927              		.loc 1 818 9 view .LVU689
 1928 01b6 B942     		cmp	r1, r7
 818:Drivers/STM32G4xx_HAL_Driver/Src/stm32g4xx_hal_rcc.c ****       {
 1929              		.loc 1 818 9 view .LVU690
 1930 01b8 20D9     		bls	.L193
 820:Drivers/STM32G4xx_HAL_Driver/Src/stm32g4xx_hal_rcc.c ****             (((((RCC_ClkInitStruct->ClockType) & RCC_CLOCKTYPE_HCLK) == RCC_CLOCKTYPE_HCLK) &&
 1931              		.loc 1 820 9 is_stmt 1 view .LVU691
 820:Drivers/STM32G4xx_HAL_Driver/Src/stm32g4xx_hal_rcc.c ****             (((((RCC_ClkInitStruct->ClockType) & RCC_CLOCKTYPE_HCLK) == RCC_CLOCKTYPE_HCLK) &&
 1932              		.loc 1 820 15 is_stmt 0 view .LVU692
 1933 01ba B168     		ldr	r1, [r6, #8]
 820:Drivers/STM32G4xx_HAL_Driver/Src/stm32g4xx_hal_rcc.c ****             (((((RCC_ClkInitStruct->ClockType) & RCC_CLOCKTYPE_HCLK) == RCC_CLOCKTYPE_HCLK) &&
 1934              		.loc 1 820 12 view .LVU693
 1935 01bc 11F0F00F 		tst	r1, #240
 1936 01c0 05D0     		beq	.L174
 820:Drivers/STM32G4xx_HAL_Driver/Src/stm32g4xx_hal_rcc.c ****             (((((RCC_ClkInitStruct->ClockType) & RCC_CLOCKTYPE_HCLK) == RCC_CLOCKTYPE_HCLK) &&
 1937              		.loc 1 820 71 discriminator 1 view .LVU694
 1938 01c2 13F00209 		ands	r9, r3, #2
 1939 01c6 3FF44CAF 		beq	.L173
 821:Drivers/STM32G4xx_HAL_Driver/Src/stm32g4xx_hal_rcc.c ****               (RCC_ClkInitStruct->AHBCLKDivider == RCC_SYSCLK_DIV1))))
 1940              		.loc 1 821 93 view .LVU695
ARM GAS  /tmp/ccE4sfSH.s 			page 67


 1941 01ca A368     		ldr	r3, [r4, #8]
 1942 01cc B3B9     		cbnz	r3, .L193
 1943              	.L174:
 824:Drivers/STM32G4xx_HAL_Driver/Src/stm32g4xx_hal_rcc.c ****           hpre = RCC_SYSCLK_DIV2;
 1944              		.loc 1 824 11 is_stmt 1 view .LVU696
 1945 01ce 0E49     		ldr	r1, .L227+4
 1946 01d0 8B68     		ldr	r3, [r1, #8]
 1947 01d2 23F0F003 		bic	r3, r3, #240
 1948 01d6 43F08003 		orr	r3, r3, #128
 1949 01da 8B60     		str	r3, [r1, #8]
 825:Drivers/STM32G4xx_HAL_Driver/Src/stm32g4xx_hal_rcc.c ****         }
 1950              		.loc 1 825 11 view .LVU697
 1951              	.LVL161:
 825:Drivers/STM32G4xx_HAL_Driver/Src/stm32g4xx_hal_rcc.c ****         }
 1952              		.loc 1 825 16 is_stmt 0 view .LVU698
 1953 01dc 4FF08009 		mov	r9, #128
 1954 01e0 3FE7     		b	.L173
 1955              	.LVL162:
 1956              	.L223:
 1957              	.LCFI17:
 1958              		.cfi_def_cfa_offset 0
 1959              		.cfi_restore 3
 1960              		.cfi_restore 4
 1961              		.cfi_restore 5
 1962              		.cfi_restore 6
 1963              		.cfi_restore 7
 1964              		.cfi_restore 8
 1965              		.cfi_restore 9
 1966              		.cfi_restore 14
 775:Drivers/STM32G4xx_HAL_Driver/Src/stm32g4xx_hal_rcc.c ****   }
 1967              		.loc 1 775 12 view .LVU699
 1968 01e2 0120     		movs	r0, #1
 1969              	.LVL163:
 940:Drivers/STM32G4xx_HAL_Driver/Src/stm32g4xx_hal_rcc.c **** 
 1970              		.loc 1 940 1 view .LVU700
 1971 01e4 7047     		bx	lr
 1972              	.LVL164:
 1973              	.L177:
 1974              	.LCFI18:
 1975              		.cfi_def_cfa_offset 32
 1976              		.cfi_offset 3, -32
 1977              		.cfi_offset 4, -28
 1978              		.cfi_offset 5, -24
 1979              		.cfi_offset 6, -20
 1980              		.cfi_offset 7, -16
 1981              		.cfi_offset 8, -12
 1982              		.cfi_offset 9, -8
 1983              		.cfi_offset 14, -4
 855:Drivers/STM32G4xx_HAL_Driver/Src/stm32g4xx_hal_rcc.c ****         hpre = RCC_SYSCLK_DIV2;
 1984              		.loc 1 855 9 is_stmt 1 view .LVU701
 1985 01e6 084A     		ldr	r2, .L227+4
 1986 01e8 9368     		ldr	r3, [r2, #8]
 856:Drivers/STM32G4xx_HAL_Driver/Src/stm32g4xx_hal_rcc.c ****       }
 1987              		.loc 1 856 14 is_stmt 0 view .LVU702
 1988 01ea 4FF08009 		mov	r9, #128
 855:Drivers/STM32G4xx_HAL_Driver/Src/stm32g4xx_hal_rcc.c ****         hpre = RCC_SYSCLK_DIV2;
 1989              		.loc 1 855 9 view .LVU703
ARM GAS  /tmp/ccE4sfSH.s 			page 68


 1990 01ee 23F0F003 		bic	r3, r3, #240
 1991 01f2 43EA0903 		orr	r3, r3, r9
 1992 01f6 9360     		str	r3, [r2, #8]
 856:Drivers/STM32G4xx_HAL_Driver/Src/stm32g4xx_hal_rcc.c ****       }
 1993              		.loc 1 856 9 is_stmt 1 view .LVU704
 1994              	.LVL165:
 861:Drivers/STM32G4xx_HAL_Driver/Src/stm32g4xx_hal_rcc.c **** 
 1995              		.loc 1 861 5 is_stmt 0 view .LVU705
 1996 01f8 6268     		ldr	r2, [r4, #4]
 1997 01fa 32E7     		b	.L173
 1998              	.LVL166:
 1999              	.L193:
 770:Drivers/STM32G4xx_HAL_Driver/Src/stm32g4xx_hal_rcc.c **** 
 2000              		.loc 1 770 12 view .LVU706
 2001 01fc 4FF00009 		mov	r9, #0
 2002 0200 2FE7     		b	.L173
 2003              	.L228:
 2004 0202 00BF     		.align	2
 2005              	.L227:
 2006 0204 00200240 		.word	1073881088
 2007 0208 00100240 		.word	1073876992
 2008 020c 00B4C404 		.word	80000000
 2009 0210 00000000 		.word	AHBPrescTable
 2010 0214 00000000 		.word	SystemCoreClock
 2011 0218 00000000 		.word	uwTickPrio
 2012 021c 00127A00 		.word	8000000
 2013 0220 0024F400 		.word	16000000
 2014              		.cfi_endproc
 2015              	.LFE134:
 2017              		.section	.text.HAL_RCC_GetHCLKFreq,"ax",%progbits
 2018              		.align	1
 2019              		.p2align 2,,3
 2020              		.global	HAL_RCC_GetHCLKFreq
 2021              		.syntax unified
 2022              		.thumb
 2023              		.thumb_func
 2024              		.fpu fpv4-sp-d16
 2026              	HAL_RCC_GetHCLKFreq:
 2027              	.LFB137:
1119:Drivers/STM32G4xx_HAL_Driver/Src/stm32g4xx_hal_rcc.c ****   return SystemCoreClock;
 2028              		.loc 1 1119 1 is_stmt 1 view -0
 2029              		.cfi_startproc
 2030              		@ args = 0, pretend = 0, frame = 0
 2031              		@ frame_needed = 0, uses_anonymous_args = 0
 2032              		@ link register save eliminated.
1120:Drivers/STM32G4xx_HAL_Driver/Src/stm32g4xx_hal_rcc.c **** }
 2033              		.loc 1 1120 3 view .LVU708
1120:Drivers/STM32G4xx_HAL_Driver/Src/stm32g4xx_hal_rcc.c **** }
 2034              		.loc 1 1120 10 is_stmt 0 view .LVU709
 2035 0000 014B     		ldr	r3, .L230
1121:Drivers/STM32G4xx_HAL_Driver/Src/stm32g4xx_hal_rcc.c **** 
 2036              		.loc 1 1121 1 view .LVU710
 2037 0002 1868     		ldr	r0, [r3]
 2038 0004 7047     		bx	lr
 2039              	.L231:
 2040 0006 00BF     		.align	2
 2041              	.L230:
ARM GAS  /tmp/ccE4sfSH.s 			page 69


 2042 0008 00000000 		.word	SystemCoreClock
 2043              		.cfi_endproc
 2044              	.LFE137:
 2046              		.section	.text.HAL_RCC_GetPCLK1Freq,"ax",%progbits
 2047              		.align	1
 2048              		.p2align 2,,3
 2049              		.global	HAL_RCC_GetPCLK1Freq
 2050              		.syntax unified
 2051              		.thumb
 2052              		.thumb_func
 2053              		.fpu fpv4-sp-d16
 2055              	HAL_RCC_GetPCLK1Freq:
 2056              	.LFB138:
1130:Drivers/STM32G4xx_HAL_Driver/Src/stm32g4xx_hal_rcc.c ****   /* Get HCLK source and Compute PCLK1 frequency ---------------------------*/
 2057              		.loc 1 1130 1 is_stmt 1 view -0
 2058              		.cfi_startproc
 2059              		@ args = 0, pretend = 0, frame = 0
 2060              		@ frame_needed = 0, uses_anonymous_args = 0
 2061              		@ link register save eliminated.
1132:Drivers/STM32G4xx_HAL_Driver/Src/stm32g4xx_hal_rcc.c **** }
 2062              		.loc 1 1132 3 view .LVU712
 2063              	.LBB23:
 2064              	.LBI23:
1118:Drivers/STM32G4xx_HAL_Driver/Src/stm32g4xx_hal_rcc.c **** {
 2065              		.loc 1 1118 10 view .LVU713
 2066              	.LBB24:
1120:Drivers/STM32G4xx_HAL_Driver/Src/stm32g4xx_hal_rcc.c **** }
 2067              		.loc 1 1120 3 view .LVU714
 2068              	.LBE24:
 2069              	.LBE23:
1132:Drivers/STM32G4xx_HAL_Driver/Src/stm32g4xx_hal_rcc.c **** }
 2070              		.loc 1 1132 51 is_stmt 0 view .LVU715
 2071 0000 054B     		ldr	r3, .L233
1132:Drivers/STM32G4xx_HAL_Driver/Src/stm32g4xx_hal_rcc.c **** }
 2072              		.loc 1 1132 50 view .LVU716
 2073 0002 064A     		ldr	r2, .L233+4
1132:Drivers/STM32G4xx_HAL_Driver/Src/stm32g4xx_hal_rcc.c **** }
 2074              		.loc 1 1132 51 view .LVU717
 2075 0004 9B68     		ldr	r3, [r3, #8]
 2076              	.LBB26:
 2077              	.LBB25:
1120:Drivers/STM32G4xx_HAL_Driver/Src/stm32g4xx_hal_rcc.c **** }
 2078              		.loc 1 1120 10 view .LVU718
 2079 0006 0649     		ldr	r1, .L233+8
 2080              	.LBE25:
 2081              	.LBE26:
1132:Drivers/STM32G4xx_HAL_Driver/Src/stm32g4xx_hal_rcc.c **** }
 2082              		.loc 1 1132 87 view .LVU719
 2083 0008 C3F30223 		ubfx	r3, r3, #8, #3
1132:Drivers/STM32G4xx_HAL_Driver/Src/stm32g4xx_hal_rcc.c **** }
 2084              		.loc 1 1132 33 view .LVU720
 2085 000c 0868     		ldr	r0, [r1]
1132:Drivers/STM32G4xx_HAL_Driver/Src/stm32g4xx_hal_rcc.c **** }
 2086              		.loc 1 1132 110 view .LVU721
 2087 000e D35C     		ldrb	r3, [r2, r3]	@ zero_extendqisi2
 2088 0010 03F01F03 		and	r3, r3, #31
1133:Drivers/STM32G4xx_HAL_Driver/Src/stm32g4xx_hal_rcc.c **** 
ARM GAS  /tmp/ccE4sfSH.s 			page 70


 2089              		.loc 1 1133 1 view .LVU722
 2090 0014 D840     		lsrs	r0, r0, r3
 2091 0016 7047     		bx	lr
 2092              	.L234:
 2093              		.align	2
 2094              	.L233:
 2095 0018 00100240 		.word	1073876992
 2096 001c 00000000 		.word	APBPrescTable
 2097 0020 00000000 		.word	SystemCoreClock
 2098              		.cfi_endproc
 2099              	.LFE138:
 2101              		.section	.text.HAL_RCC_GetPCLK2Freq,"ax",%progbits
 2102              		.align	1
 2103              		.p2align 2,,3
 2104              		.global	HAL_RCC_GetPCLK2Freq
 2105              		.syntax unified
 2106              		.thumb
 2107              		.thumb_func
 2108              		.fpu fpv4-sp-d16
 2110              	HAL_RCC_GetPCLK2Freq:
 2111              	.LFB139:
1142:Drivers/STM32G4xx_HAL_Driver/Src/stm32g4xx_hal_rcc.c ****   /* Get HCLK source and Compute PCLK2 frequency ---------------------------*/
 2112              		.loc 1 1142 1 is_stmt 1 view -0
 2113              		.cfi_startproc
 2114              		@ args = 0, pretend = 0, frame = 0
 2115              		@ frame_needed = 0, uses_anonymous_args = 0
 2116              		@ link register save eliminated.
1144:Drivers/STM32G4xx_HAL_Driver/Src/stm32g4xx_hal_rcc.c **** }
 2117              		.loc 1 1144 3 view .LVU724
 2118              	.LBB27:
 2119              	.LBI27:
1118:Drivers/STM32G4xx_HAL_Driver/Src/stm32g4xx_hal_rcc.c **** {
 2120              		.loc 1 1118 10 view .LVU725
 2121              	.LBB28:
1120:Drivers/STM32G4xx_HAL_Driver/Src/stm32g4xx_hal_rcc.c **** }
 2122              		.loc 1 1120 3 view .LVU726
 2123              	.LBE28:
 2124              	.LBE27:
1144:Drivers/STM32G4xx_HAL_Driver/Src/stm32g4xx_hal_rcc.c **** }
 2125              		.loc 1 1144 50 is_stmt 0 view .LVU727
 2126 0000 054B     		ldr	r3, .L236
1144:Drivers/STM32G4xx_HAL_Driver/Src/stm32g4xx_hal_rcc.c **** }
 2127              		.loc 1 1144 49 view .LVU728
 2128 0002 064A     		ldr	r2, .L236+4
1144:Drivers/STM32G4xx_HAL_Driver/Src/stm32g4xx_hal_rcc.c **** }
 2129              		.loc 1 1144 50 view .LVU729
 2130 0004 9B68     		ldr	r3, [r3, #8]
 2131              	.LBB30:
 2132              	.LBB29:
1120:Drivers/STM32G4xx_HAL_Driver/Src/stm32g4xx_hal_rcc.c **** }
 2133              		.loc 1 1120 10 view .LVU730
 2134 0006 0649     		ldr	r1, .L236+8
 2135              	.LBE29:
 2136              	.LBE30:
1144:Drivers/STM32G4xx_HAL_Driver/Src/stm32g4xx_hal_rcc.c **** }
 2137              		.loc 1 1144 86 view .LVU731
 2138 0008 C3F3C223 		ubfx	r3, r3, #11, #3
ARM GAS  /tmp/ccE4sfSH.s 			page 71


1144:Drivers/STM32G4xx_HAL_Driver/Src/stm32g4xx_hal_rcc.c **** }
 2139              		.loc 1 1144 32 view .LVU732
 2140 000c 0868     		ldr	r0, [r1]
1144:Drivers/STM32G4xx_HAL_Driver/Src/stm32g4xx_hal_rcc.c **** }
 2141              		.loc 1 1144 109 view .LVU733
 2142 000e D35C     		ldrb	r3, [r2, r3]	@ zero_extendqisi2
 2143 0010 03F01F03 		and	r3, r3, #31
1145:Drivers/STM32G4xx_HAL_Driver/Src/stm32g4xx_hal_rcc.c **** 
 2144              		.loc 1 1145 1 view .LVU734
 2145 0014 D840     		lsrs	r0, r0, r3
 2146 0016 7047     		bx	lr
 2147              	.L237:
 2148              		.align	2
 2149              	.L236:
 2150 0018 00100240 		.word	1073876992
 2151 001c 00000000 		.word	APBPrescTable
 2152 0020 00000000 		.word	SystemCoreClock
 2153              		.cfi_endproc
 2154              	.LFE139:
 2156              		.section	.text.HAL_RCC_GetOscConfig,"ax",%progbits
 2157              		.align	1
 2158              		.p2align 2,,3
 2159              		.global	HAL_RCC_GetOscConfig
 2160              		.syntax unified
 2161              		.thumb
 2162              		.thumb_func
 2163              		.fpu fpv4-sp-d16
 2165              	HAL_RCC_GetOscConfig:
 2166              	.LVL167:
 2167              	.LFB140:
1155:Drivers/STM32G4xx_HAL_Driver/Src/stm32g4xx_hal_rcc.c ****   /* Check the parameters */
 2168              		.loc 1 1155 1 is_stmt 1 view -0
 2169              		.cfi_startproc
 2170              		@ args = 0, pretend = 0, frame = 0
 2171              		@ frame_needed = 0, uses_anonymous_args = 0
 2172              		@ link register save eliminated.
1157:Drivers/STM32G4xx_HAL_Driver/Src/stm32g4xx_hal_rcc.c **** 
 2173              		.loc 1 1157 3 view .LVU736
1160:Drivers/STM32G4xx_HAL_Driver/Src/stm32g4xx_hal_rcc.c ****                                       RCC_OSCILLATORTYPE_LSE | RCC_OSCILLATORTYPE_LSI | RCC_OSCILLA
 2174              		.loc 1 1160 3 view .LVU737
1160:Drivers/STM32G4xx_HAL_Driver/Src/stm32g4xx_hal_rcc.c ****                                       RCC_OSCILLATORTYPE_LSE | RCC_OSCILLATORTYPE_LSI | RCC_OSCILLA
 2175              		.loc 1 1160 37 is_stmt 0 view .LVU738
 2176 0000 2F22     		movs	r2, #47
1164:Drivers/STM32G4xx_HAL_Driver/Src/stm32g4xx_hal_rcc.c ****   {
 2177              		.loc 1 1164 6 view .LVU739
 2178 0002 2B4B     		ldr	r3, .L249
1160:Drivers/STM32G4xx_HAL_Driver/Src/stm32g4xx_hal_rcc.c ****                                       RCC_OSCILLATORTYPE_LSE | RCC_OSCILLATORTYPE_LSI | RCC_OSCILLA
 2179              		.loc 1 1160 37 view .LVU740
 2180 0004 0260     		str	r2, [r0]
1164:Drivers/STM32G4xx_HAL_Driver/Src/stm32g4xx_hal_rcc.c ****   {
 2181              		.loc 1 1164 3 is_stmt 1 view .LVU741
1164:Drivers/STM32G4xx_HAL_Driver/Src/stm32g4xx_hal_rcc.c ****   {
 2182              		.loc 1 1164 6 is_stmt 0 view .LVU742
 2183 0006 1A68     		ldr	r2, [r3]
1164:Drivers/STM32G4xx_HAL_Driver/Src/stm32g4xx_hal_rcc.c ****   {
 2184              		.loc 1 1164 5 view .LVU743
 2185 0008 5103     		lsls	r1, r2, #13
ARM GAS  /tmp/ccE4sfSH.s 			page 72


 2186 000a 40D5     		bpl	.L239
1166:Drivers/STM32G4xx_HAL_Driver/Src/stm32g4xx_hal_rcc.c ****   }
 2187              		.loc 1 1166 5 is_stmt 1 view .LVU744
1166:Drivers/STM32G4xx_HAL_Driver/Src/stm32g4xx_hal_rcc.c ****   }
 2188              		.loc 1 1166 33 is_stmt 0 view .LVU745
 2189 000c 4FF4A023 		mov	r3, #327680
 2190 0010 4360     		str	r3, [r0, #4]
 2191              	.L240:
1178:Drivers/STM32G4xx_HAL_Driver/Src/stm32g4xx_hal_rcc.c ****   {
 2192              		.loc 1 1178 3 is_stmt 1 view .LVU746
1178:Drivers/STM32G4xx_HAL_Driver/Src/stm32g4xx_hal_rcc.c ****   {
 2193              		.loc 1 1178 6 is_stmt 0 view .LVU747
 2194 0012 274B     		ldr	r3, .L249
 2195 0014 1A68     		ldr	r2, [r3]
1180:Drivers/STM32G4xx_HAL_Driver/Src/stm32g4xx_hal_rcc.c ****   }
 2196              		.loc 1 1180 33 view .LVU748
 2197 0016 02F48072 		and	r2, r2, #256
 2198 001a C260     		str	r2, [r0, #12]
1187:Drivers/STM32G4xx_HAL_Driver/Src/stm32g4xx_hal_rcc.c **** 
 2199              		.loc 1 1187 3 is_stmt 1 view .LVU749
1187:Drivers/STM32G4xx_HAL_Driver/Src/stm32g4xx_hal_rcc.c **** 
 2200              		.loc 1 1187 44 is_stmt 0 view .LVU750
 2201 001c 5A68     		ldr	r2, [r3, #4]
1187:Drivers/STM32G4xx_HAL_Driver/Src/stm32g4xx_hal_rcc.c **** 
 2202              		.loc 1 1187 84 view .LVU751
 2203 001e C2F30662 		ubfx	r2, r2, #24, #7
1187:Drivers/STM32G4xx_HAL_Driver/Src/stm32g4xx_hal_rcc.c **** 
 2204              		.loc 1 1187 42 view .LVU752
 2205 0022 0261     		str	r2, [r0, #16]
1190:Drivers/STM32G4xx_HAL_Driver/Src/stm32g4xx_hal_rcc.c ****   {
 2206              		.loc 1 1190 3 is_stmt 1 view .LVU753
1190:Drivers/STM32G4xx_HAL_Driver/Src/stm32g4xx_hal_rcc.c ****   {
 2207              		.loc 1 1190 6 is_stmt 0 view .LVU754
 2208 0024 D3F89020 		ldr	r2, [r3, #144]
1190:Drivers/STM32G4xx_HAL_Driver/Src/stm32g4xx_hal_rcc.c ****   {
 2209              		.loc 1 1190 5 view .LVU755
 2210 0028 5207     		lsls	r2, r2, #29
 2211 002a 38D5     		bpl	.L243
1192:Drivers/STM32G4xx_HAL_Driver/Src/stm32g4xx_hal_rcc.c ****   }
 2212              		.loc 1 1192 5 is_stmt 1 view .LVU756
1192:Drivers/STM32G4xx_HAL_Driver/Src/stm32g4xx_hal_rcc.c ****   }
 2213              		.loc 1 1192 33 is_stmt 0 view .LVU757
 2214 002c 0523     		movs	r3, #5
 2215 002e 8360     		str	r3, [r0, #8]
 2216              	.L244:
1204:Drivers/STM32G4xx_HAL_Driver/Src/stm32g4xx_hal_rcc.c ****   {
 2217              		.loc 1 1204 3 is_stmt 1 view .LVU758
1204:Drivers/STM32G4xx_HAL_Driver/Src/stm32g4xx_hal_rcc.c ****   {
 2218              		.loc 1 1204 6 is_stmt 0 view .LVU759
 2219 0030 1F4B     		ldr	r3, .L249
 2220 0032 D3F89420 		ldr	r2, [r3, #148]
 2221 0036 02F00102 		and	r2, r2, #1
 2222 003a 4261     		str	r2, [r0, #20]
1214:Drivers/STM32G4xx_HAL_Driver/Src/stm32g4xx_hal_rcc.c ****   {
 2223              		.loc 1 1214 3 is_stmt 1 view .LVU760
1214:Drivers/STM32G4xx_HAL_Driver/Src/stm32g4xx_hal_rcc.c ****   {
 2224              		.loc 1 1214 6 is_stmt 0 view .LVU761
ARM GAS  /tmp/ccE4sfSH.s 			page 73


 2225 003c D3F89820 		ldr	r2, [r3, #152]
 2226 0040 02F00102 		and	r2, r2, #1
 2227 0044 8261     		str	r2, [r0, #24]
1224:Drivers/STM32G4xx_HAL_Driver/Src/stm32g4xx_hal_rcc.c ****   {
 2228              		.loc 1 1224 3 is_stmt 1 view .LVU762
1224:Drivers/STM32G4xx_HAL_Driver/Src/stm32g4xx_hal_rcc.c ****   {
 2229              		.loc 1 1224 6 is_stmt 0 view .LVU763
 2230 0046 1A68     		ldr	r2, [r3]
1230:Drivers/STM32G4xx_HAL_Driver/Src/stm32g4xx_hal_rcc.c ****   }
 2231              		.loc 1 1230 37 view .LVU764
 2232 0048 12F0807F 		tst	r2, #16777216
 2233 004c 14BF     		ite	ne
 2234 004e 0222     		movne	r2, #2
 2235 0050 0122     		moveq	r2, #1
 2236 0052 C261     		str	r2, [r0, #28]
1232:Drivers/STM32G4xx_HAL_Driver/Src/stm32g4xx_hal_rcc.c ****   RCC_OscInitStruct->PLL.PLLM = (READ_BIT(RCC->PLLCFGR, RCC_PLLCFGR_PLLM) >> RCC_PLLCFGR_PLLM_Pos) 
 2237              		.loc 1 1232 3 is_stmt 1 view .LVU765
1232:Drivers/STM32G4xx_HAL_Driver/Src/stm32g4xx_hal_rcc.c ****   RCC_OscInitStruct->PLL.PLLM = (READ_BIT(RCC->PLLCFGR, RCC_PLLCFGR_PLLM) >> RCC_PLLCFGR_PLLM_Pos) 
 2238              		.loc 1 1232 38 is_stmt 0 view .LVU766
 2239 0054 DA68     		ldr	r2, [r3, #12]
 2240 0056 02F00302 		and	r2, r2, #3
1232:Drivers/STM32G4xx_HAL_Driver/Src/stm32g4xx_hal_rcc.c ****   RCC_OscInitStruct->PLL.PLLM = (READ_BIT(RCC->PLLCFGR, RCC_PLLCFGR_PLLM) >> RCC_PLLCFGR_PLLM_Pos) 
 2241              		.loc 1 1232 36 view .LVU767
 2242 005a 0262     		str	r2, [r0, #32]
1233:Drivers/STM32G4xx_HAL_Driver/Src/stm32g4xx_hal_rcc.c ****   RCC_OscInitStruct->PLL.PLLN = READ_BIT(RCC->PLLCFGR, RCC_PLLCFGR_PLLN) >> RCC_PLLCFGR_PLLN_Pos;
 2243              		.loc 1 1233 3 is_stmt 1 view .LVU768
1233:Drivers/STM32G4xx_HAL_Driver/Src/stm32g4xx_hal_rcc.c ****   RCC_OscInitStruct->PLL.PLLN = READ_BIT(RCC->PLLCFGR, RCC_PLLCFGR_PLLN) >> RCC_PLLCFGR_PLLN_Pos;
 2244              		.loc 1 1233 34 is_stmt 0 view .LVU769
 2245 005c DA68     		ldr	r2, [r3, #12]
1233:Drivers/STM32G4xx_HAL_Driver/Src/stm32g4xx_hal_rcc.c ****   RCC_OscInitStruct->PLL.PLLN = READ_BIT(RCC->PLLCFGR, RCC_PLLCFGR_PLLN) >> RCC_PLLCFGR_PLLN_Pos;
 2246              		.loc 1 1233 75 view .LVU770
 2247 005e C2F30312 		ubfx	r2, r2, #4, #4
1233:Drivers/STM32G4xx_HAL_Driver/Src/stm32g4xx_hal_rcc.c ****   RCC_OscInitStruct->PLL.PLLN = READ_BIT(RCC->PLLCFGR, RCC_PLLCFGR_PLLN) >> RCC_PLLCFGR_PLLN_Pos;
 2248              		.loc 1 1233 100 view .LVU771
 2249 0062 0132     		adds	r2, r2, #1
1233:Drivers/STM32G4xx_HAL_Driver/Src/stm32g4xx_hal_rcc.c ****   RCC_OscInitStruct->PLL.PLLN = READ_BIT(RCC->PLLCFGR, RCC_PLLCFGR_PLLN) >> RCC_PLLCFGR_PLLN_Pos;
 2250              		.loc 1 1233 31 view .LVU772
 2251 0064 4262     		str	r2, [r0, #36]
1234:Drivers/STM32G4xx_HAL_Driver/Src/stm32g4xx_hal_rcc.c ****   RCC_OscInitStruct->PLL.PLLQ = (((READ_BIT(RCC->PLLCFGR, RCC_PLLCFGR_PLLQ) >> RCC_PLLCFGR_PLLQ_Pos
 2252              		.loc 1 1234 3 is_stmt 1 view .LVU773
1234:Drivers/STM32G4xx_HAL_Driver/Src/stm32g4xx_hal_rcc.c ****   RCC_OscInitStruct->PLL.PLLQ = (((READ_BIT(RCC->PLLCFGR, RCC_PLLCFGR_PLLQ) >> RCC_PLLCFGR_PLLQ_Pos
 2253              		.loc 1 1234 33 is_stmt 0 view .LVU774
 2254 0066 DA68     		ldr	r2, [r3, #12]
1234:Drivers/STM32G4xx_HAL_Driver/Src/stm32g4xx_hal_rcc.c ****   RCC_OscInitStruct->PLL.PLLQ = (((READ_BIT(RCC->PLLCFGR, RCC_PLLCFGR_PLLQ) >> RCC_PLLCFGR_PLLQ_Pos
 2255              		.loc 1 1234 74 view .LVU775
 2256 0068 C2F30622 		ubfx	r2, r2, #8, #7
1234:Drivers/STM32G4xx_HAL_Driver/Src/stm32g4xx_hal_rcc.c ****   RCC_OscInitStruct->PLL.PLLQ = (((READ_BIT(RCC->PLLCFGR, RCC_PLLCFGR_PLLQ) >> RCC_PLLCFGR_PLLQ_Pos
 2257              		.loc 1 1234 31 view .LVU776
 2258 006c 8262     		str	r2, [r0, #40]
1235:Drivers/STM32G4xx_HAL_Driver/Src/stm32g4xx_hal_rcc.c ****   RCC_OscInitStruct->PLL.PLLR = (((READ_BIT(RCC->PLLCFGR, RCC_PLLCFGR_PLLR) >> RCC_PLLCFGR_PLLR_Pos
 2259              		.loc 1 1235 3 is_stmt 1 view .LVU777
1235:Drivers/STM32G4xx_HAL_Driver/Src/stm32g4xx_hal_rcc.c ****   RCC_OscInitStruct->PLL.PLLR = (((READ_BIT(RCC->PLLCFGR, RCC_PLLCFGR_PLLR) >> RCC_PLLCFGR_PLLR_Pos
 2260              		.loc 1 1235 36 is_stmt 0 view .LVU778
 2261 006e DA68     		ldr	r2, [r3, #12]
1235:Drivers/STM32G4xx_HAL_Driver/Src/stm32g4xx_hal_rcc.c ****   RCC_OscInitStruct->PLL.PLLR = (((READ_BIT(RCC->PLLCFGR, RCC_PLLCFGR_PLLR) >> RCC_PLLCFGR_PLLR_Pos
 2262              		.loc 1 1235 77 view .LVU779
 2263 0070 C2F34152 		ubfx	r2, r2, #21, #2
ARM GAS  /tmp/ccE4sfSH.s 			page 74


1235:Drivers/STM32G4xx_HAL_Driver/Src/stm32g4xx_hal_rcc.c ****   RCC_OscInitStruct->PLL.PLLR = (((READ_BIT(RCC->PLLCFGR, RCC_PLLCFGR_PLLR) >> RCC_PLLCFGR_PLLR_Pos
 2264              		.loc 1 1235 102 view .LVU780
 2265 0074 0132     		adds	r2, r2, #1
1235:Drivers/STM32G4xx_HAL_Driver/Src/stm32g4xx_hal_rcc.c ****   RCC_OscInitStruct->PLL.PLLR = (((READ_BIT(RCC->PLLCFGR, RCC_PLLCFGR_PLLR) >> RCC_PLLCFGR_PLLR_Pos
 2266              		.loc 1 1235 108 view .LVU781
 2267 0076 5200     		lsls	r2, r2, #1
1235:Drivers/STM32G4xx_HAL_Driver/Src/stm32g4xx_hal_rcc.c ****   RCC_OscInitStruct->PLL.PLLR = (((READ_BIT(RCC->PLLCFGR, RCC_PLLCFGR_PLLR) >> RCC_PLLCFGR_PLLR_Pos
 2268              		.loc 1 1235 31 view .LVU782
 2269 0078 0263     		str	r2, [r0, #48]
1236:Drivers/STM32G4xx_HAL_Driver/Src/stm32g4xx_hal_rcc.c ****   RCC_OscInitStruct->PLL.PLLP = READ_BIT(RCC->PLLCFGR, RCC_PLLCFGR_PLLPDIV) >> RCC_PLLCFGR_PLLPDIV_
 2270              		.loc 1 1236 3 is_stmt 1 view .LVU783
1236:Drivers/STM32G4xx_HAL_Driver/Src/stm32g4xx_hal_rcc.c ****   RCC_OscInitStruct->PLL.PLLP = READ_BIT(RCC->PLLCFGR, RCC_PLLCFGR_PLLPDIV) >> RCC_PLLCFGR_PLLPDIV_
 2271              		.loc 1 1236 36 is_stmt 0 view .LVU784
 2272 007a DA68     		ldr	r2, [r3, #12]
1236:Drivers/STM32G4xx_HAL_Driver/Src/stm32g4xx_hal_rcc.c ****   RCC_OscInitStruct->PLL.PLLP = READ_BIT(RCC->PLLCFGR, RCC_PLLCFGR_PLLPDIV) >> RCC_PLLCFGR_PLLPDIV_
 2273              		.loc 1 1236 77 view .LVU785
 2274 007c C2F34162 		ubfx	r2, r2, #25, #2
1236:Drivers/STM32G4xx_HAL_Driver/Src/stm32g4xx_hal_rcc.c ****   RCC_OscInitStruct->PLL.PLLP = READ_BIT(RCC->PLLCFGR, RCC_PLLCFGR_PLLPDIV) >> RCC_PLLCFGR_PLLPDIV_
 2275              		.loc 1 1236 102 view .LVU786
 2276 0080 0132     		adds	r2, r2, #1
1236:Drivers/STM32G4xx_HAL_Driver/Src/stm32g4xx_hal_rcc.c ****   RCC_OscInitStruct->PLL.PLLP = READ_BIT(RCC->PLLCFGR, RCC_PLLCFGR_PLLPDIV) >> RCC_PLLCFGR_PLLPDIV_
 2277              		.loc 1 1236 108 view .LVU787
 2278 0082 5200     		lsls	r2, r2, #1
1236:Drivers/STM32G4xx_HAL_Driver/Src/stm32g4xx_hal_rcc.c ****   RCC_OscInitStruct->PLL.PLLP = READ_BIT(RCC->PLLCFGR, RCC_PLLCFGR_PLLPDIV) >> RCC_PLLCFGR_PLLPDIV_
 2279              		.loc 1 1236 31 view .LVU788
 2280 0084 4263     		str	r2, [r0, #52]
1237:Drivers/STM32G4xx_HAL_Driver/Src/stm32g4xx_hal_rcc.c **** }
 2281              		.loc 1 1237 3 is_stmt 1 view .LVU789
1237:Drivers/STM32G4xx_HAL_Driver/Src/stm32g4xx_hal_rcc.c **** }
 2282              		.loc 1 1237 33 is_stmt 0 view .LVU790
 2283 0086 DB68     		ldr	r3, [r3, #12]
1237:Drivers/STM32G4xx_HAL_Driver/Src/stm32g4xx_hal_rcc.c **** }
 2284              		.loc 1 1237 77 view .LVU791
 2285 0088 DB0E     		lsrs	r3, r3, #27
1237:Drivers/STM32G4xx_HAL_Driver/Src/stm32g4xx_hal_rcc.c **** }
 2286              		.loc 1 1237 31 view .LVU792
 2287 008a C362     		str	r3, [r0, #44]
1238:Drivers/STM32G4xx_HAL_Driver/Src/stm32g4xx_hal_rcc.c **** 
 2288              		.loc 1 1238 1 view .LVU793
 2289 008c 7047     		bx	lr
 2290              	.L239:
1168:Drivers/STM32G4xx_HAL_Driver/Src/stm32g4xx_hal_rcc.c ****   {
 2291              		.loc 1 1168 8 is_stmt 1 view .LVU794
1168:Drivers/STM32G4xx_HAL_Driver/Src/stm32g4xx_hal_rcc.c ****   {
 2292              		.loc 1 1168 11 is_stmt 0 view .LVU795
 2293 008e 1B68     		ldr	r3, [r3]
1168:Drivers/STM32G4xx_HAL_Driver/Src/stm32g4xx_hal_rcc.c ****   {
 2294              		.loc 1 1168 10 view .LVU796
 2295 0090 13F48033 		ands	r3, r3, #65536
1170:Drivers/STM32G4xx_HAL_Driver/Src/stm32g4xx_hal_rcc.c ****   }
 2296              		.loc 1 1170 5 is_stmt 1 view .LVU797
1170:Drivers/STM32G4xx_HAL_Driver/Src/stm32g4xx_hal_rcc.c ****   }
 2297              		.loc 1 1170 33 is_stmt 0 view .LVU798
 2298 0094 18BF     		it	ne
 2299 0096 4FF48033 		movne	r3, #65536
1174:Drivers/STM32G4xx_HAL_Driver/Src/stm32g4xx_hal_rcc.c ****   }
 2300              		.loc 1 1174 5 is_stmt 1 view .LVU799
ARM GAS  /tmp/ccE4sfSH.s 			page 75


1174:Drivers/STM32G4xx_HAL_Driver/Src/stm32g4xx_hal_rcc.c ****   }
 2301              		.loc 1 1174 33 is_stmt 0 view .LVU800
 2302 009a 4360     		str	r3, [r0, #4]
 2303 009c B9E7     		b	.L240
 2304              	.L243:
1194:Drivers/STM32G4xx_HAL_Driver/Src/stm32g4xx_hal_rcc.c ****   {
 2305              		.loc 1 1194 8 is_stmt 1 view .LVU801
1194:Drivers/STM32G4xx_HAL_Driver/Src/stm32g4xx_hal_rcc.c ****   {
 2306              		.loc 1 1194 11 is_stmt 0 view .LVU802
 2307 009e D3F89030 		ldr	r3, [r3, #144]
1194:Drivers/STM32G4xx_HAL_Driver/Src/stm32g4xx_hal_rcc.c ****   {
 2308              		.loc 1 1194 10 view .LVU803
 2309 00a2 13F00103 		ands	r3, r3, #1
1196:Drivers/STM32G4xx_HAL_Driver/Src/stm32g4xx_hal_rcc.c ****   }
 2310              		.loc 1 1196 5 is_stmt 1 view .LVU804
1196:Drivers/STM32G4xx_HAL_Driver/Src/stm32g4xx_hal_rcc.c ****   }
 2311              		.loc 1 1196 33 is_stmt 0 view .LVU805
 2312 00a6 18BF     		it	ne
 2313 00a8 0123     		movne	r3, #1
1200:Drivers/STM32G4xx_HAL_Driver/Src/stm32g4xx_hal_rcc.c ****   }
 2314              		.loc 1 1200 5 is_stmt 1 view .LVU806
1200:Drivers/STM32G4xx_HAL_Driver/Src/stm32g4xx_hal_rcc.c ****   }
 2315              		.loc 1 1200 33 is_stmt 0 view .LVU807
 2316 00aa 8360     		str	r3, [r0, #8]
 2317 00ac C0E7     		b	.L244
 2318              	.L250:
 2319 00ae 00BF     		.align	2
 2320              	.L249:
 2321 00b0 00100240 		.word	1073876992
 2322              		.cfi_endproc
 2323              	.LFE140:
 2325              		.section	.text.HAL_RCC_GetClockConfig,"ax",%progbits
 2326              		.align	1
 2327              		.p2align 2,,3
 2328              		.global	HAL_RCC_GetClockConfig
 2329              		.syntax unified
 2330              		.thumb
 2331              		.thumb_func
 2332              		.fpu fpv4-sp-d16
 2334              	HAL_RCC_GetClockConfig:
 2335              	.LVL168:
 2336              	.LFB141:
1249:Drivers/STM32G4xx_HAL_Driver/Src/stm32g4xx_hal_rcc.c ****   /* Check the parameters */
 2337              		.loc 1 1249 1 is_stmt 1 view -0
 2338              		.cfi_startproc
 2339              		@ args = 0, pretend = 0, frame = 0
 2340              		@ frame_needed = 0, uses_anonymous_args = 0
 2341              		@ link register save eliminated.
1251:Drivers/STM32G4xx_HAL_Driver/Src/stm32g4xx_hal_rcc.c ****   assert_param(pFLatency != (void *)NULL);
 2342              		.loc 1 1251 3 view .LVU809
1252:Drivers/STM32G4xx_HAL_Driver/Src/stm32g4xx_hal_rcc.c **** 
 2343              		.loc 1 1252 3 view .LVU810
1255:Drivers/STM32G4xx_HAL_Driver/Src/stm32g4xx_hal_rcc.c **** 
 2344              		.loc 1 1255 3 view .LVU811
1258:Drivers/STM32G4xx_HAL_Driver/Src/stm32g4xx_hal_rcc.c **** 
 2345              		.loc 1 1258 37 is_stmt 0 view .LVU812
 2346 0000 0E4B     		ldr	r3, .L253
ARM GAS  /tmp/ccE4sfSH.s 			page 76


1255:Drivers/STM32G4xx_HAL_Driver/Src/stm32g4xx_hal_rcc.c **** 
 2347              		.loc 1 1255 32 view .LVU813
 2348 0002 0F22     		movs	r2, #15
 2349 0004 0260     		str	r2, [r0]
1258:Drivers/STM32G4xx_HAL_Driver/Src/stm32g4xx_hal_rcc.c **** 
 2350              		.loc 1 1258 3 is_stmt 1 view .LVU814
1258:Drivers/STM32G4xx_HAL_Driver/Src/stm32g4xx_hal_rcc.c **** 
 2351              		.loc 1 1258 37 is_stmt 0 view .LVU815
 2352 0006 9A68     		ldr	r2, [r3, #8]
 2353 0008 02F00302 		and	r2, r2, #3
1258:Drivers/STM32G4xx_HAL_Driver/Src/stm32g4xx_hal_rcc.c **** 
 2354              		.loc 1 1258 35 view .LVU816
 2355 000c 4260     		str	r2, [r0, #4]
1261:Drivers/STM32G4xx_HAL_Driver/Src/stm32g4xx_hal_rcc.c **** 
 2356              		.loc 1 1261 3 is_stmt 1 view .LVU817
1261:Drivers/STM32G4xx_HAL_Driver/Src/stm32g4xx_hal_rcc.c **** 
 2357              		.loc 1 1261 38 is_stmt 0 view .LVU818
 2358 000e 9A68     		ldr	r2, [r3, #8]
 2359 0010 02F0F002 		and	r2, r2, #240
1261:Drivers/STM32G4xx_HAL_Driver/Src/stm32g4xx_hal_rcc.c **** 
 2360              		.loc 1 1261 36 view .LVU819
 2361 0014 8260     		str	r2, [r0, #8]
1264:Drivers/STM32G4xx_HAL_Driver/Src/stm32g4xx_hal_rcc.c **** 
 2362              		.loc 1 1264 3 is_stmt 1 view .LVU820
1264:Drivers/STM32G4xx_HAL_Driver/Src/stm32g4xx_hal_rcc.c **** 
 2363              		.loc 1 1264 39 is_stmt 0 view .LVU821
 2364 0016 9A68     		ldr	r2, [r3, #8]
 2365 0018 02F4E062 		and	r2, r2, #1792
1264:Drivers/STM32G4xx_HAL_Driver/Src/stm32g4xx_hal_rcc.c **** 
 2366              		.loc 1 1264 37 view .LVU822
 2367 001c C260     		str	r2, [r0, #12]
1267:Drivers/STM32G4xx_HAL_Driver/Src/stm32g4xx_hal_rcc.c **** 
 2368              		.loc 1 1267 3 is_stmt 1 view .LVU823
1267:Drivers/STM32G4xx_HAL_Driver/Src/stm32g4xx_hal_rcc.c **** 
 2369              		.loc 1 1267 40 is_stmt 0 view .LVU824
 2370 001e 9B68     		ldr	r3, [r3, #8]
1267:Drivers/STM32G4xx_HAL_Driver/Src/stm32g4xx_hal_rcc.c **** 
 2371              		.loc 1 1267 76 view .LVU825
 2372 0020 DB08     		lsrs	r3, r3, #3
1249:Drivers/STM32G4xx_HAL_Driver/Src/stm32g4xx_hal_rcc.c ****   /* Check the parameters */
 2373              		.loc 1 1249 1 view .LVU826
 2374 0022 10B4     		push	{r4}
 2375              	.LCFI19:
 2376              		.cfi_def_cfa_offset 4
 2377              		.cfi_offset 4, -4
1267:Drivers/STM32G4xx_HAL_Driver/Src/stm32g4xx_hal_rcc.c **** 
 2378              		.loc 1 1267 76 view .LVU827
 2379 0024 03F4E063 		and	r3, r3, #1792
1270:Drivers/STM32G4xx_HAL_Driver/Src/stm32g4xx_hal_rcc.c **** }
 2380              		.loc 1 1270 16 view .LVU828
 2381 0028 054C     		ldr	r4, .L253+4
1267:Drivers/STM32G4xx_HAL_Driver/Src/stm32g4xx_hal_rcc.c **** 
 2382              		.loc 1 1267 37 view .LVU829
 2383 002a 0361     		str	r3, [r0, #16]
1270:Drivers/STM32G4xx_HAL_Driver/Src/stm32g4xx_hal_rcc.c **** }
 2384              		.loc 1 1270 3 is_stmt 1 view .LVU830
1270:Drivers/STM32G4xx_HAL_Driver/Src/stm32g4xx_hal_rcc.c **** }
ARM GAS  /tmp/ccE4sfSH.s 			page 77


 2385              		.loc 1 1270 16 is_stmt 0 view .LVU831
 2386 002c 2368     		ldr	r3, [r4]
1271:Drivers/STM32G4xx_HAL_Driver/Src/stm32g4xx_hal_rcc.c **** 
 2387              		.loc 1 1271 1 view .LVU832
 2388 002e 5DF8044B 		ldr	r4, [sp], #4
 2389              	.LCFI20:
 2390              		.cfi_restore 4
 2391              		.cfi_def_cfa_offset 0
1270:Drivers/STM32G4xx_HAL_Driver/Src/stm32g4xx_hal_rcc.c **** }
 2392              		.loc 1 1270 16 view .LVU833
 2393 0032 03F00F03 		and	r3, r3, #15
1270:Drivers/STM32G4xx_HAL_Driver/Src/stm32g4xx_hal_rcc.c **** }
 2394              		.loc 1 1270 14 view .LVU834
 2395 0036 0B60     		str	r3, [r1]
1271:Drivers/STM32G4xx_HAL_Driver/Src/stm32g4xx_hal_rcc.c **** 
 2396              		.loc 1 1271 1 view .LVU835
 2397 0038 7047     		bx	lr
 2398              	.L254:
 2399 003a 00BF     		.align	2
 2400              	.L253:
 2401 003c 00100240 		.word	1073876992
 2402 0040 00200240 		.word	1073881088
 2403              		.cfi_endproc
 2404              	.LFE141:
 2406              		.section	.text.HAL_RCC_EnableCSS,"ax",%progbits
 2407              		.align	1
 2408              		.p2align 2,,3
 2409              		.global	HAL_RCC_EnableCSS
 2410              		.syntax unified
 2411              		.thumb
 2412              		.thumb_func
 2413              		.fpu fpv4-sp-d16
 2415              	HAL_RCC_EnableCSS:
 2416              	.LFB142:
1284:Drivers/STM32G4xx_HAL_Driver/Src/stm32g4xx_hal_rcc.c ****   SET_BIT(RCC->CR, RCC_CR_CSSON) ;
 2417              		.loc 1 1284 1 is_stmt 1 view -0
 2418              		.cfi_startproc
 2419              		@ args = 0, pretend = 0, frame = 0
 2420              		@ frame_needed = 0, uses_anonymous_args = 0
 2421              		@ link register save eliminated.
1285:Drivers/STM32G4xx_HAL_Driver/Src/stm32g4xx_hal_rcc.c **** }
 2422              		.loc 1 1285 3 view .LVU837
 2423 0000 024A     		ldr	r2, .L256
 2424 0002 1368     		ldr	r3, [r2]
 2425 0004 43F40023 		orr	r3, r3, #524288
 2426 0008 1360     		str	r3, [r2]
1286:Drivers/STM32G4xx_HAL_Driver/Src/stm32g4xx_hal_rcc.c **** 
 2427              		.loc 1 1286 1 is_stmt 0 view .LVU838
 2428 000a 7047     		bx	lr
 2429              	.L257:
 2430              		.align	2
 2431              	.L256:
 2432 000c 00100240 		.word	1073876992
 2433              		.cfi_endproc
 2434              	.LFE142:
 2436              		.section	.text.HAL_RCC_EnableLSECSS,"ax",%progbits
 2437              		.align	1
ARM GAS  /tmp/ccE4sfSH.s 			page 78


 2438              		.p2align 2,,3
 2439              		.global	HAL_RCC_EnableLSECSS
 2440              		.syntax unified
 2441              		.thumb
 2442              		.thumb_func
 2443              		.fpu fpv4-sp-d16
 2445              	HAL_RCC_EnableLSECSS:
 2446              	.LFB143:
1298:Drivers/STM32G4xx_HAL_Driver/Src/stm32g4xx_hal_rcc.c ****   SET_BIT(RCC->BDCR, RCC_BDCR_LSECSSON) ;
 2447              		.loc 1 1298 1 is_stmt 1 view -0
 2448              		.cfi_startproc
 2449              		@ args = 0, pretend = 0, frame = 0
 2450              		@ frame_needed = 0, uses_anonymous_args = 0
 2451              		@ link register save eliminated.
1299:Drivers/STM32G4xx_HAL_Driver/Src/stm32g4xx_hal_rcc.c **** }
 2452              		.loc 1 1299 3 view .LVU840
 2453 0000 034A     		ldr	r2, .L259
 2454 0002 D2F89030 		ldr	r3, [r2, #144]
 2455 0006 43F02003 		orr	r3, r3, #32
 2456 000a C2F89030 		str	r3, [r2, #144]
1300:Drivers/STM32G4xx_HAL_Driver/Src/stm32g4xx_hal_rcc.c **** 
 2457              		.loc 1 1300 1 is_stmt 0 view .LVU841
 2458 000e 7047     		bx	lr
 2459              	.L260:
 2460              		.align	2
 2461              	.L259:
 2462 0010 00100240 		.word	1073876992
 2463              		.cfi_endproc
 2464              	.LFE143:
 2466              		.section	.text.HAL_RCC_DisableLSECSS,"ax",%progbits
 2467              		.align	1
 2468              		.p2align 2,,3
 2469              		.global	HAL_RCC_DisableLSECSS
 2470              		.syntax unified
 2471              		.thumb
 2472              		.thumb_func
 2473              		.fpu fpv4-sp-d16
 2475              	HAL_RCC_DisableLSECSS:
 2476              	.LFB144:
1309:Drivers/STM32G4xx_HAL_Driver/Src/stm32g4xx_hal_rcc.c ****   CLEAR_BIT(RCC->BDCR, RCC_BDCR_LSECSSON) ;
 2477              		.loc 1 1309 1 is_stmt 1 view -0
 2478              		.cfi_startproc
 2479              		@ args = 0, pretend = 0, frame = 0
 2480              		@ frame_needed = 0, uses_anonymous_args = 0
 2481              		@ link register save eliminated.
1310:Drivers/STM32G4xx_HAL_Driver/Src/stm32g4xx_hal_rcc.c **** }
 2482              		.loc 1 1310 3 view .LVU843
 2483 0000 034A     		ldr	r2, .L262
 2484 0002 D2F89030 		ldr	r3, [r2, #144]
 2485 0006 23F02003 		bic	r3, r3, #32
 2486 000a C2F89030 		str	r3, [r2, #144]
1311:Drivers/STM32G4xx_HAL_Driver/Src/stm32g4xx_hal_rcc.c **** 
 2487              		.loc 1 1311 1 is_stmt 0 view .LVU844
 2488 000e 7047     		bx	lr
 2489              	.L263:
 2490              		.align	2
 2491              	.L262:
ARM GAS  /tmp/ccE4sfSH.s 			page 79


 2492 0010 00100240 		.word	1073876992
 2493              		.cfi_endproc
 2494              	.LFE144:
 2496              		.section	.text.HAL_RCC_CSSCallback,"ax",%progbits
 2497              		.align	1
 2498              		.p2align 2,,3
 2499              		.weak	HAL_RCC_CSSCallback
 2500              		.syntax unified
 2501              		.thumb
 2502              		.thumb_func
 2503              		.fpu fpv4-sp-d16
 2505              	HAL_RCC_CSSCallback:
 2506              	.LFB146:
1336:Drivers/STM32G4xx_HAL_Driver/Src/stm32g4xx_hal_rcc.c ****   /* NOTE : This function should not be modified, when the callback is needed,
 2507              		.loc 1 1336 1 is_stmt 1 view -0
 2508              		.cfi_startproc
 2509              		@ args = 0, pretend = 0, frame = 0
 2510              		@ frame_needed = 0, uses_anonymous_args = 0
 2511              		@ link register save eliminated.
1340:Drivers/STM32G4xx_HAL_Driver/Src/stm32g4xx_hal_rcc.c **** 
 2512              		.loc 1 1340 1 view .LVU846
 2513 0000 7047     		bx	lr
 2514              		.cfi_endproc
 2515              	.LFE146:
 2517 0002 00BF     		.section	.text.HAL_RCC_NMI_IRQHandler,"ax",%progbits
 2518              		.align	1
 2519              		.p2align 2,,3
 2520              		.global	HAL_RCC_NMI_IRQHandler
 2521              		.syntax unified
 2522              		.thumb
 2523              		.thumb_func
 2524              		.fpu fpv4-sp-d16
 2526              	HAL_RCC_NMI_IRQHandler:
 2527              	.LFB145:
1319:Drivers/STM32G4xx_HAL_Driver/Src/stm32g4xx_hal_rcc.c ****   /* Check RCC CSSF interrupt flag  */
 2528              		.loc 1 1319 1 view -0
 2529              		.cfi_startproc
 2530              		@ args = 0, pretend = 0, frame = 0
 2531              		@ frame_needed = 0, uses_anonymous_args = 0
1321:Drivers/STM32G4xx_HAL_Driver/Src/stm32g4xx_hal_rcc.c ****   {
 2532              		.loc 1 1321 3 view .LVU848
1319:Drivers/STM32G4xx_HAL_Driver/Src/stm32g4xx_hal_rcc.c ****   /* Check RCC CSSF interrupt flag  */
 2533              		.loc 1 1319 1 is_stmt 0 view .LVU849
 2534 0000 10B5     		push	{r4, lr}
 2535              	.LCFI21:
 2536              		.cfi_def_cfa_offset 8
 2537              		.cfi_offset 4, -8
 2538              		.cfi_offset 14, -4
1321:Drivers/STM32G4xx_HAL_Driver/Src/stm32g4xx_hal_rcc.c ****   {
 2539              		.loc 1 1321 6 view .LVU850
 2540 0002 054C     		ldr	r4, .L272
 2541 0004 E369     		ldr	r3, [r4, #28]
1321:Drivers/STM32G4xx_HAL_Driver/Src/stm32g4xx_hal_rcc.c ****   {
 2542              		.loc 1 1321 5 view .LVU851
 2543 0006 DB05     		lsls	r3, r3, #23
 2544 0008 00D4     		bmi	.L271
1329:Drivers/STM32G4xx_HAL_Driver/Src/stm32g4xx_hal_rcc.c **** 
ARM GAS  /tmp/ccE4sfSH.s 			page 80


 2545              		.loc 1 1329 1 view .LVU852
 2546 000a 10BD     		pop	{r4, pc}
 2547              	.L271:
1324:Drivers/STM32G4xx_HAL_Driver/Src/stm32g4xx_hal_rcc.c **** 
 2548              		.loc 1 1324 5 is_stmt 1 view .LVU853
 2549 000c FFF7FEFF 		bl	HAL_RCC_CSSCallback
 2550              	.LVL169:
1327:Drivers/STM32G4xx_HAL_Driver/Src/stm32g4xx_hal_rcc.c ****   }
 2551              		.loc 1 1327 5 view .LVU854
 2552 0010 4FF48073 		mov	r3, #256
 2553 0014 2362     		str	r3, [r4, #32]
1329:Drivers/STM32G4xx_HAL_Driver/Src/stm32g4xx_hal_rcc.c **** 
 2554              		.loc 1 1329 1 is_stmt 0 view .LVU855
 2555 0016 10BD     		pop	{r4, pc}
 2556              	.L273:
 2557              		.align	2
 2558              	.L272:
 2559 0018 00100240 		.word	1073876992
 2560              		.cfi_endproc
 2561              	.LFE145:
 2563              		.text
 2564              	.Letext0:
 2565              		.file 2 "/usr/share/gcc-arm-none-eabi-10-2020-q4-major/arm-none-eabi/include/machine/_default_type
 2566              		.file 3 "/usr/share/gcc-arm-none-eabi-10-2020-q4-major/arm-none-eabi/include/sys/_stdint.h"
 2567              		.file 4 "Drivers/CMSIS/Device/ST/STM32G4xx/Include/system_stm32g4xx.h"
 2568              		.file 5 "Drivers/CMSIS/Device/ST/STM32G4xx/Include/stm32g431xx.h"
 2569              		.file 6 "Drivers/CMSIS/Device/ST/STM32G4xx/Include/stm32g4xx.h"
 2570              		.file 7 "Drivers/STM32G4xx_HAL_Driver/Inc/stm32g4xx_hal_def.h"
 2571              		.file 8 "Drivers/STM32G4xx_HAL_Driver/Inc/stm32g4xx_hal_rcc.h"
 2572              		.file 9 "Drivers/STM32G4xx_HAL_Driver/Inc/stm32g4xx_hal_gpio.h"
 2573              		.file 10 "Drivers/STM32G4xx_HAL_Driver/Inc/stm32g4xx_hal.h"
ARM GAS  /tmp/ccE4sfSH.s 			page 81


DEFINED SYMBOLS
                            *ABS*:0000000000000000 stm32g4xx_hal_rcc.c
     /tmp/ccE4sfSH.s:18     .text.HAL_RCC_DeInit:0000000000000000 $t
     /tmp/ccE4sfSH.s:27     .text.HAL_RCC_DeInit:0000000000000000 HAL_RCC_DeInit
     /tmp/ccE4sfSH.s:210    .text.HAL_RCC_DeInit:00000000000000b0 $d
     /tmp/ccE4sfSH.s:218    .text.HAL_RCC_OscConfig:0000000000000000 $t
     /tmp/ccE4sfSH.s:226    .text.HAL_RCC_OscConfig:0000000000000000 HAL_RCC_OscConfig
     /tmp/ccE4sfSH.s:865    .text.HAL_RCC_OscConfig:00000000000002d4 $d
     /tmp/ccE4sfSH.s:874    .text.HAL_RCC_OscConfig:00000000000002e4 $t
     /tmp/ccE4sfSH.s:1248   .text.HAL_RCC_OscConfig:0000000000000490 $d
     /tmp/ccE4sfSH.s:1254   .text.HAL_RCC_MCOConfig:0000000000000000 $t
     /tmp/ccE4sfSH.s:1262   .text.HAL_RCC_MCOConfig:0000000000000000 HAL_RCC_MCOConfig
     /tmp/ccE4sfSH.s:1367   .text.HAL_RCC_MCOConfig:0000000000000050 $d
     /tmp/ccE4sfSH.s:1372   .text.HAL_RCC_GetSysClockFreq:0000000000000000 $t
     /tmp/ccE4sfSH.s:1380   .text.HAL_RCC_GetSysClockFreq:0000000000000000 HAL_RCC_GetSysClockFreq
     /tmp/ccE4sfSH.s:1488   .text.HAL_RCC_GetSysClockFreq:0000000000000064 $d
     /tmp/ccE4sfSH.s:1495   .text.HAL_RCC_ClockConfig:0000000000000000 $t
     /tmp/ccE4sfSH.s:1503   .text.HAL_RCC_ClockConfig:0000000000000000 HAL_RCC_ClockConfig
     /tmp/ccE4sfSH.s:2006   .text.HAL_RCC_ClockConfig:0000000000000204 $d
     /tmp/ccE4sfSH.s:2018   .text.HAL_RCC_GetHCLKFreq:0000000000000000 $t
     /tmp/ccE4sfSH.s:2026   .text.HAL_RCC_GetHCLKFreq:0000000000000000 HAL_RCC_GetHCLKFreq
     /tmp/ccE4sfSH.s:2042   .text.HAL_RCC_GetHCLKFreq:0000000000000008 $d
     /tmp/ccE4sfSH.s:2047   .text.HAL_RCC_GetPCLK1Freq:0000000000000000 $t
     /tmp/ccE4sfSH.s:2055   .text.HAL_RCC_GetPCLK1Freq:0000000000000000 HAL_RCC_GetPCLK1Freq
     /tmp/ccE4sfSH.s:2095   .text.HAL_RCC_GetPCLK1Freq:0000000000000018 $d
     /tmp/ccE4sfSH.s:2102   .text.HAL_RCC_GetPCLK2Freq:0000000000000000 $t
     /tmp/ccE4sfSH.s:2110   .text.HAL_RCC_GetPCLK2Freq:0000000000000000 HAL_RCC_GetPCLK2Freq
     /tmp/ccE4sfSH.s:2150   .text.HAL_RCC_GetPCLK2Freq:0000000000000018 $d
     /tmp/ccE4sfSH.s:2157   .text.HAL_RCC_GetOscConfig:0000000000000000 $t
     /tmp/ccE4sfSH.s:2165   .text.HAL_RCC_GetOscConfig:0000000000000000 HAL_RCC_GetOscConfig
     /tmp/ccE4sfSH.s:2321   .text.HAL_RCC_GetOscConfig:00000000000000b0 $d
     /tmp/ccE4sfSH.s:2326   .text.HAL_RCC_GetClockConfig:0000000000000000 $t
     /tmp/ccE4sfSH.s:2334   .text.HAL_RCC_GetClockConfig:0000000000000000 HAL_RCC_GetClockConfig
     /tmp/ccE4sfSH.s:2401   .text.HAL_RCC_GetClockConfig:000000000000003c $d
     /tmp/ccE4sfSH.s:2407   .text.HAL_RCC_EnableCSS:0000000000000000 $t
     /tmp/ccE4sfSH.s:2415   .text.HAL_RCC_EnableCSS:0000000000000000 HAL_RCC_EnableCSS
     /tmp/ccE4sfSH.s:2432   .text.HAL_RCC_EnableCSS:000000000000000c $d
     /tmp/ccE4sfSH.s:2437   .text.HAL_RCC_EnableLSECSS:0000000000000000 $t
     /tmp/ccE4sfSH.s:2445   .text.HAL_RCC_EnableLSECSS:0000000000000000 HAL_RCC_EnableLSECSS
     /tmp/ccE4sfSH.s:2462   .text.HAL_RCC_EnableLSECSS:0000000000000010 $d
     /tmp/ccE4sfSH.s:2467   .text.HAL_RCC_DisableLSECSS:0000000000000000 $t
     /tmp/ccE4sfSH.s:2475   .text.HAL_RCC_DisableLSECSS:0000000000000000 HAL_RCC_DisableLSECSS
     /tmp/ccE4sfSH.s:2492   .text.HAL_RCC_DisableLSECSS:0000000000000010 $d
     /tmp/ccE4sfSH.s:2497   .text.HAL_RCC_CSSCallback:0000000000000000 $t
     /tmp/ccE4sfSH.s:2505   .text.HAL_RCC_CSSCallback:0000000000000000 HAL_RCC_CSSCallback
     /tmp/ccE4sfSH.s:2518   .text.HAL_RCC_NMI_IRQHandler:0000000000000000 $t
     /tmp/ccE4sfSH.s:2526   .text.HAL_RCC_NMI_IRQHandler:0000000000000000 HAL_RCC_NMI_IRQHandler
     /tmp/ccE4sfSH.s:2559   .text.HAL_RCC_NMI_IRQHandler:0000000000000018 $d

UNDEFINED SYMBOLS
HAL_GetTick
HAL_InitTick
uwTickPrio
SystemCoreClock
HAL_GPIO_Init
AHBPrescTable
APBPrescTable
ARM GAS  /tmp/ccE4sfSH.s 			page 82


