ARM GAS  /tmp/ccNNILil.s 			page 1


   1              		.cpu cortex-m4
   2              		.eabi_attribute 27, 1
   3              		.eabi_attribute 28, 1
   4              		.eabi_attribute 20, 1
   5              		.eabi_attribute 21, 1
   6              		.eabi_attribute 23, 3
   7              		.eabi_attribute 24, 1
   8              		.eabi_attribute 25, 1
   9              		.eabi_attribute 26, 1
  10              		.eabi_attribute 30, 1
  11              		.eabi_attribute 34, 1
  12              		.eabi_attribute 18, 2
  13              		.file	"sto_pll_speed_pos_fdbk.c"
  14              		.text
  15              	.Ltext0:
  16              		.cfi_sections	.debug_frame
  17              		.section	.text.STO_PLL_Return,"ax",%progbits
  18              		.align	1
  19              		.weak	STO_PLL_Return
  20              		.arch armv7e-m
  21              		.syntax unified
  22              		.thumb
  23              		.thumb_func
  24              		.fpu fpv4-sp-d16
  26              	STO_PLL_Return:
  27              	.LVL0:
  28              	.LFB1449:
  29              		.file 1 "MCSDK_v6.3.2-Full/MotorControl/MCSDK/MCLib/Any/Src/sto_pll_speed_pos_fdbk.c"
   1:MCSDK_v6.3.2-Full/MotorControl/MCSDK/MCLib/Any/Src/sto_pll_speed_pos_fdbk.c **** /**
   2:MCSDK_v6.3.2-Full/MotorControl/MCSDK/MCLib/Any/Src/sto_pll_speed_pos_fdbk.c ****   ******************************************************************************
   3:MCSDK_v6.3.2-Full/MotorControl/MCSDK/MCLib/Any/Src/sto_pll_speed_pos_fdbk.c ****   * @file    sto_pll_speed_pos_fdbk.c
   4:MCSDK_v6.3.2-Full/MotorControl/MCSDK/MCLib/Any/Src/sto_pll_speed_pos_fdbk.c ****   * @author  Motor Control SDK Team, ST Microelectronics
   5:MCSDK_v6.3.2-Full/MotorControl/MCSDK/MCLib/Any/Src/sto_pll_speed_pos_fdbk.c ****   * @brief   This file provides firmware functions that implement the features
   6:MCSDK_v6.3.2-Full/MotorControl/MCSDK/MCLib/Any/Src/sto_pll_speed_pos_fdbk.c ****   *          of the State Observer + PLL Speed & Position Feedback component of the
   7:MCSDK_v6.3.2-Full/MotorControl/MCSDK/MCLib/Any/Src/sto_pll_speed_pos_fdbk.c ****   *          Motor Control SDK.
   8:MCSDK_v6.3.2-Full/MotorControl/MCSDK/MCLib/Any/Src/sto_pll_speed_pos_fdbk.c ****   *
   9:MCSDK_v6.3.2-Full/MotorControl/MCSDK/MCLib/Any/Src/sto_pll_speed_pos_fdbk.c ****   ******************************************************************************
  10:MCSDK_v6.3.2-Full/MotorControl/MCSDK/MCLib/Any/Src/sto_pll_speed_pos_fdbk.c ****   * @attention
  11:MCSDK_v6.3.2-Full/MotorControl/MCSDK/MCLib/Any/Src/sto_pll_speed_pos_fdbk.c ****   *
  12:MCSDK_v6.3.2-Full/MotorControl/MCSDK/MCLib/Any/Src/sto_pll_speed_pos_fdbk.c ****   * <h2><center>&copy; Copyright (c) 2024 STMicroelectronics.
  13:MCSDK_v6.3.2-Full/MotorControl/MCSDK/MCLib/Any/Src/sto_pll_speed_pos_fdbk.c ****   * All rights reserved.</center></h2>
  14:MCSDK_v6.3.2-Full/MotorControl/MCSDK/MCLib/Any/Src/sto_pll_speed_pos_fdbk.c ****   *
  15:MCSDK_v6.3.2-Full/MotorControl/MCSDK/MCLib/Any/Src/sto_pll_speed_pos_fdbk.c ****   * This software component is licensed by ST under Ultimate Liberty license
  16:MCSDK_v6.3.2-Full/MotorControl/MCSDK/MCLib/Any/Src/sto_pll_speed_pos_fdbk.c ****   * SLA0044, the "License"; You may not use this file except in compliance with
  17:MCSDK_v6.3.2-Full/MotorControl/MCSDK/MCLib/Any/Src/sto_pll_speed_pos_fdbk.c ****   * the License. You may obtain a copy of the License at:
  18:MCSDK_v6.3.2-Full/MotorControl/MCSDK/MCLib/Any/Src/sto_pll_speed_pos_fdbk.c ****   *                             www.st.com/SLA0044
  19:MCSDK_v6.3.2-Full/MotorControl/MCSDK/MCLib/Any/Src/sto_pll_speed_pos_fdbk.c ****   *
  20:MCSDK_v6.3.2-Full/MotorControl/MCSDK/MCLib/Any/Src/sto_pll_speed_pos_fdbk.c ****   ******************************************************************************
  21:MCSDK_v6.3.2-Full/MotorControl/MCSDK/MCLib/Any/Src/sto_pll_speed_pos_fdbk.c ****   * @ingroup SpeednPosFdbk_STO_PLL
  22:MCSDK_v6.3.2-Full/MotorControl/MCSDK/MCLib/Any/Src/sto_pll_speed_pos_fdbk.c ****   */
  23:MCSDK_v6.3.2-Full/MotorControl/MCSDK/MCLib/Any/Src/sto_pll_speed_pos_fdbk.c **** 
  24:MCSDK_v6.3.2-Full/MotorControl/MCSDK/MCLib/Any/Src/sto_pll_speed_pos_fdbk.c **** /* Includes ------------------------------------------------------------------*/
  25:MCSDK_v6.3.2-Full/MotorControl/MCSDK/MCLib/Any/Src/sto_pll_speed_pos_fdbk.c **** #include "sto_pll_speed_pos_fdbk.h"
  26:MCSDK_v6.3.2-Full/MotorControl/MCSDK/MCLib/Any/Src/sto_pll_speed_pos_fdbk.c **** #include "mc_math.h"
  27:MCSDK_v6.3.2-Full/MotorControl/MCSDK/MCLib/Any/Src/sto_pll_speed_pos_fdbk.c **** 
  28:MCSDK_v6.3.2-Full/MotorControl/MCSDK/MCLib/Any/Src/sto_pll_speed_pos_fdbk.c **** 
  29:MCSDK_v6.3.2-Full/MotorControl/MCSDK/MCLib/Any/Src/sto_pll_speed_pos_fdbk.c **** 
ARM GAS  /tmp/ccNNILil.s 			page 2


  30:MCSDK_v6.3.2-Full/MotorControl/MCSDK/MCLib/Any/Src/sto_pll_speed_pos_fdbk.c **** /** @addtogroup MCSDK
  31:MCSDK_v6.3.2-Full/MotorControl/MCSDK/MCLib/Any/Src/sto_pll_speed_pos_fdbk.c ****   * @{
  32:MCSDK_v6.3.2-Full/MotorControl/MCSDK/MCLib/Any/Src/sto_pll_speed_pos_fdbk.c ****   */
  33:MCSDK_v6.3.2-Full/MotorControl/MCSDK/MCLib/Any/Src/sto_pll_speed_pos_fdbk.c **** 
  34:MCSDK_v6.3.2-Full/MotorControl/MCSDK/MCLib/Any/Src/sto_pll_speed_pos_fdbk.c **** /** @addtogroup SpeednPosFdbk
  35:MCSDK_v6.3.2-Full/MotorControl/MCSDK/MCLib/Any/Src/sto_pll_speed_pos_fdbk.c ****   * @{
  36:MCSDK_v6.3.2-Full/MotorControl/MCSDK/MCLib/Any/Src/sto_pll_speed_pos_fdbk.c ****   */
  37:MCSDK_v6.3.2-Full/MotorControl/MCSDK/MCLib/Any/Src/sto_pll_speed_pos_fdbk.c **** 
  38:MCSDK_v6.3.2-Full/MotorControl/MCSDK/MCLib/Any/Src/sto_pll_speed_pos_fdbk.c **** /**
  39:MCSDK_v6.3.2-Full/MotorControl/MCSDK/MCLib/Any/Src/sto_pll_speed_pos_fdbk.c ****   * @defgroup SpeednPosFdbk_STO_PLL State Observer PLL Speed & Position Feedback.
  40:MCSDK_v6.3.2-Full/MotorControl/MCSDK/MCLib/Any/Src/sto_pll_speed_pos_fdbk.c ****   * @brief State Observer with PLL Speed & Position Feedback component of MCSDK.
  41:MCSDK_v6.3.2-Full/MotorControl/MCSDK/MCLib/Any/Src/sto_pll_speed_pos_fdbk.c ****   *
  42:MCSDK_v6.3.2-Full/MotorControl/MCSDK/MCLib/Any/Src/sto_pll_speed_pos_fdbk.c ****   * This component uses a State Observer coupled with a software PLL to provide an estimation of
  43:MCSDK_v6.3.2-Full/MotorControl/MCSDK/MCLib/Any/Src/sto_pll_speed_pos_fdbk.c ****   * the speed and the position of the rotor of the motor.
  44:MCSDK_v6.3.2-Full/MotorControl/MCSDK/MCLib/Any/Src/sto_pll_speed_pos_fdbk.c ****   *
  45:MCSDK_v6.3.2-Full/MotorControl/MCSDK/MCLib/Any/Src/sto_pll_speed_pos_fdbk.c ****   * See the [Speed & position feedback sensorless chapter of the User Manual](speed_pos_sensorless_
  46:MCSDK_v6.3.2-Full/MotorControl/MCSDK/MCLib/Any/Src/sto_pll_speed_pos_fdbk.c ****   * @{
  47:MCSDK_v6.3.2-Full/MotorControl/MCSDK/MCLib/Any/Src/sto_pll_speed_pos_fdbk.c ****   */
  48:MCSDK_v6.3.2-Full/MotorControl/MCSDK/MCLib/Any/Src/sto_pll_speed_pos_fdbk.c **** 
  49:MCSDK_v6.3.2-Full/MotorControl/MCSDK/MCLib/Any/Src/sto_pll_speed_pos_fdbk.c **** /* Private defines -----------------------------------------------------------*/
  50:MCSDK_v6.3.2-Full/MotorControl/MCSDK/MCLib/Any/Src/sto_pll_speed_pos_fdbk.c **** #define C6_COMP_CONST1  ((int32_t)1043038)
  51:MCSDK_v6.3.2-Full/MotorControl/MCSDK/MCLib/Any/Src/sto_pll_speed_pos_fdbk.c **** #define C6_COMP_CONST2  ((int32_t)10430)
  52:MCSDK_v6.3.2-Full/MotorControl/MCSDK/MCLib/Any/Src/sto_pll_speed_pos_fdbk.c **** 
  53:MCSDK_v6.3.2-Full/MotorControl/MCSDK/MCLib/Any/Src/sto_pll_speed_pos_fdbk.c **** /* Private function prototypes -----------------------------------------------*/
  54:MCSDK_v6.3.2-Full/MotorControl/MCSDK/MCLib/Any/Src/sto_pll_speed_pos_fdbk.c **** static void STO_Store_Rotor_Speed(STO_PLL_Handle_t *pHandle, int16_t hRotor_Speed);
  55:MCSDK_v6.3.2-Full/MotorControl/MCSDK/MCLib/Any/Src/sto_pll_speed_pos_fdbk.c **** static int16_t STO_ExecutePLL(STO_PLL_Handle_t *pHandle, int16_t hBemf_alfa_est, int16_t hBemf_beta
  56:MCSDK_v6.3.2-Full/MotorControl/MCSDK/MCLib/Any/Src/sto_pll_speed_pos_fdbk.c **** static inline void STO_InitSpeedBuffer(STO_PLL_Handle_t *pHandle);
  57:MCSDK_v6.3.2-Full/MotorControl/MCSDK/MCLib/Any/Src/sto_pll_speed_pos_fdbk.c **** 
  58:MCSDK_v6.3.2-Full/MotorControl/MCSDK/MCLib/Any/Src/sto_pll_speed_pos_fdbk.c **** 
  59:MCSDK_v6.3.2-Full/MotorControl/MCSDK/MCLib/Any/Src/sto_pll_speed_pos_fdbk.c **** /**
  60:MCSDK_v6.3.2-Full/MotorControl/MCSDK/MCLib/Any/Src/sto_pll_speed_pos_fdbk.c ****   * @brief  Initializes the @p pHandle of STate Observer (STO) PLL component.
  61:MCSDK_v6.3.2-Full/MotorControl/MCSDK/MCLib/Any/Src/sto_pll_speed_pos_fdbk.c ****   *
  62:MCSDK_v6.3.2-Full/MotorControl/MCSDK/MCLib/Any/Src/sto_pll_speed_pos_fdbk.c ****   */
  63:MCSDK_v6.3.2-Full/MotorControl/MCSDK/MCLib/Any/Src/sto_pll_speed_pos_fdbk.c **** __weak void STO_PLL_Init(STO_PLL_Handle_t *pHandle)
  64:MCSDK_v6.3.2-Full/MotorControl/MCSDK/MCLib/Any/Src/sto_pll_speed_pos_fdbk.c **** {
  65:MCSDK_v6.3.2-Full/MotorControl/MCSDK/MCLib/Any/Src/sto_pll_speed_pos_fdbk.c **** #ifdef NULL_PTR_CHECK_STO_PLL_SPD_POS_FDB
  66:MCSDK_v6.3.2-Full/MotorControl/MCSDK/MCLib/Any/Src/sto_pll_speed_pos_fdbk.c ****   if (MC_NULL == pHandle)
  67:MCSDK_v6.3.2-Full/MotorControl/MCSDK/MCLib/Any/Src/sto_pll_speed_pos_fdbk.c ****   {
  68:MCSDK_v6.3.2-Full/MotorControl/MCSDK/MCLib/Any/Src/sto_pll_speed_pos_fdbk.c ****     /* Nothing to do */
  69:MCSDK_v6.3.2-Full/MotorControl/MCSDK/MCLib/Any/Src/sto_pll_speed_pos_fdbk.c ****   }
  70:MCSDK_v6.3.2-Full/MotorControl/MCSDK/MCLib/Any/Src/sto_pll_speed_pos_fdbk.c ****   else
  71:MCSDK_v6.3.2-Full/MotorControl/MCSDK/MCLib/Any/Src/sto_pll_speed_pos_fdbk.c ****   {
  72:MCSDK_v6.3.2-Full/MotorControl/MCSDK/MCLib/Any/Src/sto_pll_speed_pos_fdbk.c **** #endif
  73:MCSDK_v6.3.2-Full/MotorControl/MCSDK/MCLib/Any/Src/sto_pll_speed_pos_fdbk.c ****     int16_t htempk;
  74:MCSDK_v6.3.2-Full/MotorControl/MCSDK/MCLib/Any/Src/sto_pll_speed_pos_fdbk.c ****     int32_t wAux;
  75:MCSDK_v6.3.2-Full/MotorControl/MCSDK/MCLib/Any/Src/sto_pll_speed_pos_fdbk.c **** 
  76:MCSDK_v6.3.2-Full/MotorControl/MCSDK/MCLib/Any/Src/sto_pll_speed_pos_fdbk.c ****     pHandle->ConsistencyCounter = pHandle->StartUpConsistThreshold;
  77:MCSDK_v6.3.2-Full/MotorControl/MCSDK/MCLib/Any/Src/sto_pll_speed_pos_fdbk.c ****     pHandle->EnableDualCheck = true;
  78:MCSDK_v6.3.2-Full/MotorControl/MCSDK/MCLib/Any/Src/sto_pll_speed_pos_fdbk.c **** 
  79:MCSDK_v6.3.2-Full/MotorControl/MCSDK/MCLib/Any/Src/sto_pll_speed_pos_fdbk.c ****     wAux = ((int32_t)1);
  80:MCSDK_v6.3.2-Full/MotorControl/MCSDK/MCLib/Any/Src/sto_pll_speed_pos_fdbk.c ****     pHandle->F3POW2 = 0U;
  81:MCSDK_v6.3.2-Full/MotorControl/MCSDK/MCLib/Any/Src/sto_pll_speed_pos_fdbk.c **** 
  82:MCSDK_v6.3.2-Full/MotorControl/MCSDK/MCLib/Any/Src/sto_pll_speed_pos_fdbk.c ****     htempk = (int16_t)(C6_COMP_CONST1 / pHandle->hF2);
  83:MCSDK_v6.3.2-Full/MotorControl/MCSDK/MCLib/Any/Src/sto_pll_speed_pos_fdbk.c **** 
  84:MCSDK_v6.3.2-Full/MotorControl/MCSDK/MCLib/Any/Src/sto_pll_speed_pos_fdbk.c ****     while (htempk != 0)
  85:MCSDK_v6.3.2-Full/MotorControl/MCSDK/MCLib/Any/Src/sto_pll_speed_pos_fdbk.c ****     {
  86:MCSDK_v6.3.2-Full/MotorControl/MCSDK/MCLib/Any/Src/sto_pll_speed_pos_fdbk.c ****       htempk /= ((int16_t)2);
ARM GAS  /tmp/ccNNILil.s 			page 3


  87:MCSDK_v6.3.2-Full/MotorControl/MCSDK/MCLib/Any/Src/sto_pll_speed_pos_fdbk.c ****       wAux *= ((int32_t)2);
  88:MCSDK_v6.3.2-Full/MotorControl/MCSDK/MCLib/Any/Src/sto_pll_speed_pos_fdbk.c ****       pHandle->F3POW2++;
  89:MCSDK_v6.3.2-Full/MotorControl/MCSDK/MCLib/Any/Src/sto_pll_speed_pos_fdbk.c ****     }
  90:MCSDK_v6.3.2-Full/MotorControl/MCSDK/MCLib/Any/Src/sto_pll_speed_pos_fdbk.c **** 
  91:MCSDK_v6.3.2-Full/MotorControl/MCSDK/MCLib/Any/Src/sto_pll_speed_pos_fdbk.c ****     pHandle->hF3 = (int16_t)wAux;
  92:MCSDK_v6.3.2-Full/MotorControl/MCSDK/MCLib/Any/Src/sto_pll_speed_pos_fdbk.c ****     wAux = ((int32_t)(pHandle->hF2)) * pHandle->hF3;
  93:MCSDK_v6.3.2-Full/MotorControl/MCSDK/MCLib/Any/Src/sto_pll_speed_pos_fdbk.c ****     pHandle->hC6 = (int16_t)(wAux / C6_COMP_CONST2);
  94:MCSDK_v6.3.2-Full/MotorControl/MCSDK/MCLib/Any/Src/sto_pll_speed_pos_fdbk.c **** 
  95:MCSDK_v6.3.2-Full/MotorControl/MCSDK/MCLib/Any/Src/sto_pll_speed_pos_fdbk.c ****     STO_PLL_Clear(pHandle);
  96:MCSDK_v6.3.2-Full/MotorControl/MCSDK/MCLib/Any/Src/sto_pll_speed_pos_fdbk.c **** 
  97:MCSDK_v6.3.2-Full/MotorControl/MCSDK/MCLib/Any/Src/sto_pll_speed_pos_fdbk.c ****     PID_HandleInit(&pHandle->PIRegulator);
  98:MCSDK_v6.3.2-Full/MotorControl/MCSDK/MCLib/Any/Src/sto_pll_speed_pos_fdbk.c **** 
  99:MCSDK_v6.3.2-Full/MotorControl/MCSDK/MCLib/Any/Src/sto_pll_speed_pos_fdbk.c ****     /* Acceleration measurement set to zero */
 100:MCSDK_v6.3.2-Full/MotorControl/MCSDK/MCLib/Any/Src/sto_pll_speed_pos_fdbk.c ****     pHandle->_Super.hMecAccelUnitP = 0;
 101:MCSDK_v6.3.2-Full/MotorControl/MCSDK/MCLib/Any/Src/sto_pll_speed_pos_fdbk.c **** #ifdef NULL_PTR_CHECK_STO_PLL_SPD_POS_FDB
 102:MCSDK_v6.3.2-Full/MotorControl/MCSDK/MCLib/Any/Src/sto_pll_speed_pos_fdbk.c ****   }
 103:MCSDK_v6.3.2-Full/MotorControl/MCSDK/MCLib/Any/Src/sto_pll_speed_pos_fdbk.c **** #endif
 104:MCSDK_v6.3.2-Full/MotorControl/MCSDK/MCLib/Any/Src/sto_pll_speed_pos_fdbk.c ****   return;
 105:MCSDK_v6.3.2-Full/MotorControl/MCSDK/MCLib/Any/Src/sto_pll_speed_pos_fdbk.c **** }
 106:MCSDK_v6.3.2-Full/MotorControl/MCSDK/MCLib/Any/Src/sto_pll_speed_pos_fdbk.c **** 
 107:MCSDK_v6.3.2-Full/MotorControl/MCSDK/MCLib/Any/Src/sto_pll_speed_pos_fdbk.c **** /**
 108:MCSDK_v6.3.2-Full/MotorControl/MCSDK/MCLib/Any/Src/sto_pll_speed_pos_fdbk.c ****   * @brief  Necessary empty return to implement fictitious IRQ_Handler.
 109:MCSDK_v6.3.2-Full/MotorControl/MCSDK/MCLib/Any/Src/sto_pll_speed_pos_fdbk.c ****   * 
 110:MCSDK_v6.3.2-Full/MotorControl/MCSDK/MCLib/Any/Src/sto_pll_speed_pos_fdbk.c ****   * @param  pHandle: Handler of the current instance of the STO component.
 111:MCSDK_v6.3.2-Full/MotorControl/MCSDK/MCLib/Any/Src/sto_pll_speed_pos_fdbk.c ****   * @param  uint8_t: Fictitious interrupt flag.
 112:MCSDK_v6.3.2-Full/MotorControl/MCSDK/MCLib/Any/Src/sto_pll_speed_pos_fdbk.c ****   */
 113:MCSDK_v6.3.2-Full/MotorControl/MCSDK/MCLib/Any/Src/sto_pll_speed_pos_fdbk.c **** //cstat !MISRAC2012-Rule-8.13 !RED-func-no-effect
 114:MCSDK_v6.3.2-Full/MotorControl/MCSDK/MCLib/Any/Src/sto_pll_speed_pos_fdbk.c **** __weak void STO_PLL_Return(STO_PLL_Handle_t *pHandle, uint8_t flag)
 115:MCSDK_v6.3.2-Full/MotorControl/MCSDK/MCLib/Any/Src/sto_pll_speed_pos_fdbk.c **** {
  30              		.loc 1 115 1 view -0
  31              		.cfi_startproc
  32              		@ args = 0, pretend = 0, frame = 0
  33              		@ frame_needed = 0, uses_anonymous_args = 0
  34              		@ link register save eliminated.
 116:MCSDK_v6.3.2-Full/MotorControl/MCSDK/MCLib/Any/Src/sto_pll_speed_pos_fdbk.c **** #ifdef NULL_PTR_CHECK_STO_PLL_SPD_POS_FDB
 117:MCSDK_v6.3.2-Full/MotorControl/MCSDK/MCLib/Any/Src/sto_pll_speed_pos_fdbk.c ****   if ((MC_NULL == (void *)pHandle) || ((uint8_t)0 == flag))
 118:MCSDK_v6.3.2-Full/MotorControl/MCSDK/MCLib/Any/Src/sto_pll_speed_pos_fdbk.c ****   {
 119:MCSDK_v6.3.2-Full/MotorControl/MCSDK/MCLib/Any/Src/sto_pll_speed_pos_fdbk.c ****     /* Nothing to do */
 120:MCSDK_v6.3.2-Full/MotorControl/MCSDK/MCLib/Any/Src/sto_pll_speed_pos_fdbk.c ****   }
 121:MCSDK_v6.3.2-Full/MotorControl/MCSDK/MCLib/Any/Src/sto_pll_speed_pos_fdbk.c ****   else
 122:MCSDK_v6.3.2-Full/MotorControl/MCSDK/MCLib/Any/Src/sto_pll_speed_pos_fdbk.c ****   {
 123:MCSDK_v6.3.2-Full/MotorControl/MCSDK/MCLib/Any/Src/sto_pll_speed_pos_fdbk.c ****     /* Nothing to do */
 124:MCSDK_v6.3.2-Full/MotorControl/MCSDK/MCLib/Any/Src/sto_pll_speed_pos_fdbk.c ****   }
 125:MCSDK_v6.3.2-Full/MotorControl/MCSDK/MCLib/Any/Src/sto_pll_speed_pos_fdbk.c **** #endif
 126:MCSDK_v6.3.2-Full/MotorControl/MCSDK/MCLib/Any/Src/sto_pll_speed_pos_fdbk.c ****   return;
  35              		.loc 1 126 3 view .LVU1
 127:MCSDK_v6.3.2-Full/MotorControl/MCSDK/MCLib/Any/Src/sto_pll_speed_pos_fdbk.c **** }
  36              		.loc 1 127 1 is_stmt 0 view .LVU2
  37 0000 7047     		bx	lr
  38              		.cfi_endproc
  39              	.LFE1449:
  41              		.section	.text.STO_PLL_CalcElAngle,"ax",%progbits
  42              		.align	1
  43              		.weak	STO_PLL_CalcElAngle
  44              		.syntax unified
  45              		.thumb
  46              		.thumb_func
ARM GAS  /tmp/ccNNILil.s 			page 4


  47              		.fpu fpv4-sp-d16
  49              	STO_PLL_CalcElAngle:
  50              	.LVL1:
  51              	.LFB1450:
 128:MCSDK_v6.3.2-Full/MotorControl/MCSDK/MCLib/Any/Src/sto_pll_speed_pos_fdbk.c **** 
 129:MCSDK_v6.3.2-Full/MotorControl/MCSDK/MCLib/Any/Src/sto_pll_speed_pos_fdbk.c **** #if defined (CCMRAM)
 130:MCSDK_v6.3.2-Full/MotorControl/MCSDK/MCLib/Any/Src/sto_pll_speed_pos_fdbk.c **** #if defined (__ICCARM__)
 131:MCSDK_v6.3.2-Full/MotorControl/MCSDK/MCLib/Any/Src/sto_pll_speed_pos_fdbk.c **** #pragma location = ".ccmram"
 132:MCSDK_v6.3.2-Full/MotorControl/MCSDK/MCLib/Any/Src/sto_pll_speed_pos_fdbk.c **** #elif defined (__CC_ARM) || defined(__GNUC__)
 133:MCSDK_v6.3.2-Full/MotorControl/MCSDK/MCLib/Any/Src/sto_pll_speed_pos_fdbk.c **** __attribute__((section(".ccmram")))
 134:MCSDK_v6.3.2-Full/MotorControl/MCSDK/MCLib/Any/Src/sto_pll_speed_pos_fdbk.c **** #endif
 135:MCSDK_v6.3.2-Full/MotorControl/MCSDK/MCLib/Any/Src/sto_pll_speed_pos_fdbk.c **** #endif
 136:MCSDK_v6.3.2-Full/MotorControl/MCSDK/MCLib/Any/Src/sto_pll_speed_pos_fdbk.c **** /**
 137:MCSDK_v6.3.2-Full/MotorControl/MCSDK/MCLib/Any/Src/sto_pll_speed_pos_fdbk.c ****   * @brief  Calculates the estimated electrical angle.
 138:MCSDK_v6.3.2-Full/MotorControl/MCSDK/MCLib/Any/Src/sto_pll_speed_pos_fdbk.c ****   * 
 139:MCSDK_v6.3.2-Full/MotorControl/MCSDK/MCLib/Any/Src/sto_pll_speed_pos_fdbk.c ****   * Executes Luenberger state observer equations and calls
 140:MCSDK_v6.3.2-Full/MotorControl/MCSDK/MCLib/Any/Src/sto_pll_speed_pos_fdbk.c ****   * PLL to compute a new speed estimation and
 141:MCSDK_v6.3.2-Full/MotorControl/MCSDK/MCLib/Any/Src/sto_pll_speed_pos_fdbk.c ****   * update the estimated electrical angle.
 142:MCSDK_v6.3.2-Full/MotorControl/MCSDK/MCLib/Any/Src/sto_pll_speed_pos_fdbk.c ****   * 
 143:MCSDK_v6.3.2-Full/MotorControl/MCSDK/MCLib/Any/Src/sto_pll_speed_pos_fdbk.c ****   * @param  pHandle: Handler of the current instance of the STO component.
 144:MCSDK_v6.3.2-Full/MotorControl/MCSDK/MCLib/Any/Src/sto_pll_speed_pos_fdbk.c ****   * @param  pInput: Pointer to the observer inputs structure.
 145:MCSDK_v6.3.2-Full/MotorControl/MCSDK/MCLib/Any/Src/sto_pll_speed_pos_fdbk.c ****   * @retval int16_t Rotor electrical angle (s16Degrees).
 146:MCSDK_v6.3.2-Full/MotorControl/MCSDK/MCLib/Any/Src/sto_pll_speed_pos_fdbk.c ****   */
 147:MCSDK_v6.3.2-Full/MotorControl/MCSDK/MCLib/Any/Src/sto_pll_speed_pos_fdbk.c **** //cstat !MISRAC2012-Rule-8.13
 148:MCSDK_v6.3.2-Full/MotorControl/MCSDK/MCLib/Any/Src/sto_pll_speed_pos_fdbk.c **** __weak int16_t STO_PLL_CalcElAngle(STO_PLL_Handle_t *pHandle, Observer_Inputs_t *pInputs)
 149:MCSDK_v6.3.2-Full/MotorControl/MCSDK/MCLib/Any/Src/sto_pll_speed_pos_fdbk.c **** {
  52              		.loc 1 149 1 is_stmt 1 view -0
  53              		.cfi_startproc
  54              		@ args = 0, pretend = 0, frame = 40
  55              		@ frame_needed = 0, uses_anonymous_args = 0
 150:MCSDK_v6.3.2-Full/MotorControl/MCSDK/MCLib/Any/Src/sto_pll_speed_pos_fdbk.c ****   int16_t retValue;
  56              		.loc 1 150 3 view .LVU4
 151:MCSDK_v6.3.2-Full/MotorControl/MCSDK/MCLib/Any/Src/sto_pll_speed_pos_fdbk.c **** 
 152:MCSDK_v6.3.2-Full/MotorControl/MCSDK/MCLib/Any/Src/sto_pll_speed_pos_fdbk.c ****   if ((MC_NULL == pHandle) || (MC_NULL == pInputs))
  57              		.loc 1 152 3 view .LVU5
  58              		.loc 1 152 6 is_stmt 0 view .LVU6
  59 0000 0028     		cmp	r0, #0
  60 0002 00F0E880 		beq	.L15
 149:MCSDK_v6.3.2-Full/MotorControl/MCSDK/MCLib/Any/Src/sto_pll_speed_pos_fdbk.c ****   int16_t retValue;
  61              		.loc 1 149 1 discriminator 1 view .LVU7
  62 0006 2DE9F04F 		push	{r4, r5, r6, r7, r8, r9, r10, fp, lr}
  63              	.LCFI0:
  64              		.cfi_def_cfa_offset 36
  65              		.cfi_offset 4, -36
  66              		.cfi_offset 5, -32
  67              		.cfi_offset 6, -28
  68              		.cfi_offset 7, -24
  69              		.cfi_offset 8, -20
  70              		.cfi_offset 9, -16
  71              		.cfi_offset 10, -12
  72              		.cfi_offset 11, -8
  73              		.cfi_offset 14, -4
  74 000a 8BB0     		sub	sp, sp, #44
  75              	.LCFI1:
  76              		.cfi_def_cfa_offset 80
  77 000c 0446     		mov	r4, r0
  78              		.loc 1 152 28 discriminator 1 view .LVU8
ARM GAS  /tmp/ccNNILil.s 			page 5


  79 000e 0029     		cmp	r1, #0
  80 0010 00F0E380 		beq	.L16
  81              	.LBB12:
 153:MCSDK_v6.3.2-Full/MotorControl/MCSDK/MCLib/Any/Src/sto_pll_speed_pos_fdbk.c ****   {
 154:MCSDK_v6.3.2-Full/MotorControl/MCSDK/MCLib/Any/Src/sto_pll_speed_pos_fdbk.c ****     retValue = 0;
 155:MCSDK_v6.3.2-Full/MotorControl/MCSDK/MCLib/Any/Src/sto_pll_speed_pos_fdbk.c ****   }
 156:MCSDK_v6.3.2-Full/MotorControl/MCSDK/MCLib/Any/Src/sto_pll_speed_pos_fdbk.c ****   else
 157:MCSDK_v6.3.2-Full/MotorControl/MCSDK/MCLib/Any/Src/sto_pll_speed_pos_fdbk.c ****   {
 158:MCSDK_v6.3.2-Full/MotorControl/MCSDK/MCLib/Any/Src/sto_pll_speed_pos_fdbk.c ****     int32_t wAux;
  82              		.loc 1 158 5 is_stmt 1 view .LVU9
 159:MCSDK_v6.3.2-Full/MotorControl/MCSDK/MCLib/Any/Src/sto_pll_speed_pos_fdbk.c ****     int32_t wDirection;
  83              		.loc 1 159 5 view .LVU10
 160:MCSDK_v6.3.2-Full/MotorControl/MCSDK/MCLib/Any/Src/sto_pll_speed_pos_fdbk.c ****     int32_t wIalfa_est_Next;
  84              		.loc 1 160 5 view .LVU11
 161:MCSDK_v6.3.2-Full/MotorControl/MCSDK/MCLib/Any/Src/sto_pll_speed_pos_fdbk.c ****     int32_t wIbeta_est_Next;
  85              		.loc 1 161 5 view .LVU12
 162:MCSDK_v6.3.2-Full/MotorControl/MCSDK/MCLib/Any/Src/sto_pll_speed_pos_fdbk.c ****     int32_t wBemf_alfa_est_Next;
  86              		.loc 1 162 5 view .LVU13
 163:MCSDK_v6.3.2-Full/MotorControl/MCSDK/MCLib/Any/Src/sto_pll_speed_pos_fdbk.c ****     int32_t wBemf_beta_est_Next;
  87              		.loc 1 163 5 view .LVU14
 164:MCSDK_v6.3.2-Full/MotorControl/MCSDK/MCLib/Any/Src/sto_pll_speed_pos_fdbk.c ****     int16_t hAux;
  88              		.loc 1 164 5 view .LVU15
 165:MCSDK_v6.3.2-Full/MotorControl/MCSDK/MCLib/Any/Src/sto_pll_speed_pos_fdbk.c ****     int16_t hAux_Alfa;
  89              		.loc 1 165 5 view .LVU16
 166:MCSDK_v6.3.2-Full/MotorControl/MCSDK/MCLib/Any/Src/sto_pll_speed_pos_fdbk.c ****     int16_t hAux_Beta;
  90              		.loc 1 166 5 view .LVU17
 167:MCSDK_v6.3.2-Full/MotorControl/MCSDK/MCLib/Any/Src/sto_pll_speed_pos_fdbk.c ****     int16_t hIalfa_err;
  91              		.loc 1 167 5 view .LVU18
 168:MCSDK_v6.3.2-Full/MotorControl/MCSDK/MCLib/Any/Src/sto_pll_speed_pos_fdbk.c ****     int16_t hIbeta_err;
  92              		.loc 1 168 5 view .LVU19
 169:MCSDK_v6.3.2-Full/MotorControl/MCSDK/MCLib/Any/Src/sto_pll_speed_pos_fdbk.c ****     int16_t hRotor_Speed;
  93              		.loc 1 169 5 view .LVU20
 170:MCSDK_v6.3.2-Full/MotorControl/MCSDK/MCLib/Any/Src/sto_pll_speed_pos_fdbk.c ****     int16_t hValfa;
  94              		.loc 1 170 5 view .LVU21
 171:MCSDK_v6.3.2-Full/MotorControl/MCSDK/MCLib/Any/Src/sto_pll_speed_pos_fdbk.c ****     int16_t hVbeta;
  95              		.loc 1 171 5 view .LVU22
 172:MCSDK_v6.3.2-Full/MotorControl/MCSDK/MCLib/Any/Src/sto_pll_speed_pos_fdbk.c **** 
 173:MCSDK_v6.3.2-Full/MotorControl/MCSDK/MCLib/Any/Src/sto_pll_speed_pos_fdbk.c ****     if (pHandle->wBemf_alfa_est > (((int32_t)pHandle->hF2) * INT16_MAX))
  96              		.loc 1 173 5 view .LVU23
  97              		.loc 1 173 16 is_stmt 0 view .LVU24
  98 0014 806E     		ldr	r0, [r0, #104]
  99              	.LVL2:
 100              		.loc 1 173 37 view .LVU25
 101 0016 B4F92E30 		ldrsh	r3, [r4, #46]
 102              		.loc 1 173 60 view .LVU26
 103 001a C3EBC332 		rsb	r2, r3, r3, lsl #15
 104              		.loc 1 173 8 view .LVU27
 105 001e 9042     		cmp	r0, r2
 106 0020 40F3C180 		ble	.L4
 174:MCSDK_v6.3.2-Full/MotorControl/MCSDK/MCLib/Any/Src/sto_pll_speed_pos_fdbk.c ****     {
 175:MCSDK_v6.3.2-Full/MotorControl/MCSDK/MCLib/Any/Src/sto_pll_speed_pos_fdbk.c ****       pHandle->wBemf_alfa_est = INT16_MAX * ((int32_t)pHandle->hF2);
 107              		.loc 1 175 7 is_stmt 1 view .LVU28
 108              		.loc 1 175 31 is_stmt 0 view .LVU29
 109 0024 A266     		str	r2, [r4, #104]
 110              	.L5:
 176:MCSDK_v6.3.2-Full/MotorControl/MCSDK/MCLib/Any/Src/sto_pll_speed_pos_fdbk.c ****     }
 177:MCSDK_v6.3.2-Full/MotorControl/MCSDK/MCLib/Any/Src/sto_pll_speed_pos_fdbk.c ****     else if (pHandle->wBemf_alfa_est <= (-INT16_MAX * ((int32_t)pHandle->hF2)))
ARM GAS  /tmp/ccNNILil.s 			page 6


 178:MCSDK_v6.3.2-Full/MotorControl/MCSDK/MCLib/Any/Src/sto_pll_speed_pos_fdbk.c ****     {
 179:MCSDK_v6.3.2-Full/MotorControl/MCSDK/MCLib/Any/Src/sto_pll_speed_pos_fdbk.c ****       pHandle->wBemf_alfa_est = -INT16_MAX * ((int32_t)pHandle->hF2);
 180:MCSDK_v6.3.2-Full/MotorControl/MCSDK/MCLib/Any/Src/sto_pll_speed_pos_fdbk.c ****     }
 181:MCSDK_v6.3.2-Full/MotorControl/MCSDK/MCLib/Any/Src/sto_pll_speed_pos_fdbk.c ****     else
 182:MCSDK_v6.3.2-Full/MotorControl/MCSDK/MCLib/Any/Src/sto_pll_speed_pos_fdbk.c ****     {
 183:MCSDK_v6.3.2-Full/MotorControl/MCSDK/MCLib/Any/Src/sto_pll_speed_pos_fdbk.c ****       /* Nothing to do */
 184:MCSDK_v6.3.2-Full/MotorControl/MCSDK/MCLib/Any/Src/sto_pll_speed_pos_fdbk.c ****     }
 111              		.loc 1 184 5 is_stmt 1 view .LVU30
 185:MCSDK_v6.3.2-Full/MotorControl/MCSDK/MCLib/Any/Src/sto_pll_speed_pos_fdbk.c **** #ifndef FULL_MISRA_C_COMPLIANCY_STO_PLL
 186:MCSDK_v6.3.2-Full/MotorControl/MCSDK/MCLib/Any/Src/sto_pll_speed_pos_fdbk.c ****     //cstat !MISRAC2012-Rule-1.3_n !ATH-shift-neg !MISRAC2012-Rule-10.1_R6
 187:MCSDK_v6.3.2-Full/MotorControl/MCSDK/MCLib/Any/Src/sto_pll_speed_pos_fdbk.c ****       hAux_Alfa = (int16_t)(pHandle->wBemf_alfa_est >> pHandle->F2LOG);
 112              		.loc 1 187 7 view .LVU31
 113              		.loc 1 187 36 is_stmt 0 view .LVU32
 114 0026 A06E     		ldr	r0, [r4, #104]
 115              		.loc 1 187 63 view .LVU33
 116 0028 B4F81E51 		ldrh	r5, [r4, #286]
 117              		.loc 1 187 53 view .LVU34
 118 002c 40FA05F6 		asr	r6, r0, r5
 119 0030 0296     		str	r6, [sp, #8]
 120              		.loc 1 187 17 view .LVU35
 121 0032 37B2     		sxth	r7, r6
 122              	.LVL3:
 188:MCSDK_v6.3.2-Full/MotorControl/MCSDK/MCLib/Any/Src/sto_pll_speed_pos_fdbk.c **** #else
 189:MCSDK_v6.3.2-Full/MotorControl/MCSDK/MCLib/Any/Src/sto_pll_speed_pos_fdbk.c ****       hAux_Alfa = (int16_t)(pHandle->wBemf_alfa_est / pHandle->hF2);
 190:MCSDK_v6.3.2-Full/MotorControl/MCSDK/MCLib/Any/Src/sto_pll_speed_pos_fdbk.c **** #endif
 191:MCSDK_v6.3.2-Full/MotorControl/MCSDK/MCLib/Any/Src/sto_pll_speed_pos_fdbk.c **** 
 192:MCSDK_v6.3.2-Full/MotorControl/MCSDK/MCLib/Any/Src/sto_pll_speed_pos_fdbk.c ****     if (pHandle->wBemf_beta_est > (INT16_MAX * ((int32_t)pHandle->hF2)))
 123              		.loc 1 192 5 is_stmt 1 view .LVU36
 124              		.loc 1 192 16 is_stmt 0 view .LVU37
 125 0034 E66E     		ldr	r6, [r4, #108]
 126              		.loc 1 192 8 view .LVU38
 127 0036 B242     		cmp	r2, r6
 128 0038 80F2BB80 		bge	.L6
 193:MCSDK_v6.3.2-Full/MotorControl/MCSDK/MCLib/Any/Src/sto_pll_speed_pos_fdbk.c ****     {
 194:MCSDK_v6.3.2-Full/MotorControl/MCSDK/MCLib/Any/Src/sto_pll_speed_pos_fdbk.c ****       pHandle->wBemf_beta_est = INT16_MAX * ((int32_t)pHandle->hF2);
 129              		.loc 1 194 7 is_stmt 1 view .LVU39
 130              		.loc 1 194 31 is_stmt 0 view .LVU40
 131 003c E266     		str	r2, [r4, #108]
 132              	.L7:
 195:MCSDK_v6.3.2-Full/MotorControl/MCSDK/MCLib/Any/Src/sto_pll_speed_pos_fdbk.c ****     }
 196:MCSDK_v6.3.2-Full/MotorControl/MCSDK/MCLib/Any/Src/sto_pll_speed_pos_fdbk.c ****     else if (pHandle->wBemf_beta_est <= (-INT16_MAX * ((int32_t)pHandle->hF2)))
 197:MCSDK_v6.3.2-Full/MotorControl/MCSDK/MCLib/Any/Src/sto_pll_speed_pos_fdbk.c ****     {
 198:MCSDK_v6.3.2-Full/MotorControl/MCSDK/MCLib/Any/Src/sto_pll_speed_pos_fdbk.c ****       pHandle->wBemf_beta_est = (-INT16_MAX * ((int32_t)pHandle->hF2));
 199:MCSDK_v6.3.2-Full/MotorControl/MCSDK/MCLib/Any/Src/sto_pll_speed_pos_fdbk.c ****     }
 200:MCSDK_v6.3.2-Full/MotorControl/MCSDK/MCLib/Any/Src/sto_pll_speed_pos_fdbk.c ****     else
 201:MCSDK_v6.3.2-Full/MotorControl/MCSDK/MCLib/Any/Src/sto_pll_speed_pos_fdbk.c ****     {
 202:MCSDK_v6.3.2-Full/MotorControl/MCSDK/MCLib/Any/Src/sto_pll_speed_pos_fdbk.c ****       /* Nothing to do */
 203:MCSDK_v6.3.2-Full/MotorControl/MCSDK/MCLib/Any/Src/sto_pll_speed_pos_fdbk.c ****     }
 133              		.loc 1 203 5 is_stmt 1 view .LVU41
 204:MCSDK_v6.3.2-Full/MotorControl/MCSDK/MCLib/Any/Src/sto_pll_speed_pos_fdbk.c **** #ifndef FULL_MISRA_C_COMPLIANCY_STO_PLL
 205:MCSDK_v6.3.2-Full/MotorControl/MCSDK/MCLib/Any/Src/sto_pll_speed_pos_fdbk.c ****     //cstat !MISRAC2012-Rule-1.3_n !ATH-shift-neg !MISRAC2012-Rule-10.1_R6
 206:MCSDK_v6.3.2-Full/MotorControl/MCSDK/MCLib/Any/Src/sto_pll_speed_pos_fdbk.c ****     hAux_Beta = (int16_t)(pHandle->wBemf_beta_est >> pHandle->F2LOG);
 134              		.loc 1 206 5 view .LVU42
 135              		.loc 1 206 34 is_stmt 0 view .LVU43
 136 003e E36E     		ldr	r3, [r4, #108]
 137 0040 0393     		str	r3, [sp, #12]
 138              		.loc 1 206 51 view .LVU44
ARM GAS  /tmp/ccNNILil.s 			page 7


 139 0042 2B41     		asrs	r3, r3, r5
 140 0044 0493     		str	r3, [sp, #16]
 141              		.loc 1 206 15 view .LVU45
 142 0046 0FFA83FE 		sxth	lr, r3
 143              	.LVL4:
 207:MCSDK_v6.3.2-Full/MotorControl/MCSDK/MCLib/Any/Src/sto_pll_speed_pos_fdbk.c **** #else
 208:MCSDK_v6.3.2-Full/MotorControl/MCSDK/MCLib/Any/Src/sto_pll_speed_pos_fdbk.c ****     hAux_Beta = (int16_t)(pHandle->wBemf_beta_est / pHandle->hF2);
 209:MCSDK_v6.3.2-Full/MotorControl/MCSDK/MCLib/Any/Src/sto_pll_speed_pos_fdbk.c **** #endif
 210:MCSDK_v6.3.2-Full/MotorControl/MCSDK/MCLib/Any/Src/sto_pll_speed_pos_fdbk.c **** 
 211:MCSDK_v6.3.2-Full/MotorControl/MCSDK/MCLib/Any/Src/sto_pll_speed_pos_fdbk.c ****     if (pHandle->Ialfa_est > (INT16_MAX * ((int32_t)pHandle->hF1)))
 144              		.loc 1 211 5 is_stmt 1 view .LVU46
 145              		.loc 1 211 16 is_stmt 0 view .LVU47
 146 004a 256E     		ldr	r5, [r4, #96]
 147              		.loc 1 211 44 view .LVU48
 148 004c B4F92C30 		ldrsh	r3, [r4, #44]
 149              		.loc 1 211 41 view .LVU49
 150 0050 C3EBC332 		rsb	r2, r3, r3, lsl #15
 151              		.loc 1 211 8 view .LVU50
 152 0054 9542     		cmp	r5, r2
 153 0056 40F3B280 		ble	.L8
 212:MCSDK_v6.3.2-Full/MotorControl/MCSDK/MCLib/Any/Src/sto_pll_speed_pos_fdbk.c ****     {
 213:MCSDK_v6.3.2-Full/MotorControl/MCSDK/MCLib/Any/Src/sto_pll_speed_pos_fdbk.c ****       pHandle->Ialfa_est = INT16_MAX * ((int32_t)pHandle->hF1);
 154              		.loc 1 213 7 is_stmt 1 view .LVU51
 155              		.loc 1 213 26 is_stmt 0 view .LVU52
 156 005a 2266     		str	r2, [r4, #96]
 157              	.L9:
 214:MCSDK_v6.3.2-Full/MotorControl/MCSDK/MCLib/Any/Src/sto_pll_speed_pos_fdbk.c ****     }
 215:MCSDK_v6.3.2-Full/MotorControl/MCSDK/MCLib/Any/Src/sto_pll_speed_pos_fdbk.c ****     else if (pHandle->Ialfa_est <= (-INT16_MAX * ((int32_t)pHandle->hF1)))
 216:MCSDK_v6.3.2-Full/MotorControl/MCSDK/MCLib/Any/Src/sto_pll_speed_pos_fdbk.c ****     {
 217:MCSDK_v6.3.2-Full/MotorControl/MCSDK/MCLib/Any/Src/sto_pll_speed_pos_fdbk.c ****       pHandle->Ialfa_est = -INT16_MAX * ((int32_t)pHandle->hF1);
 218:MCSDK_v6.3.2-Full/MotorControl/MCSDK/MCLib/Any/Src/sto_pll_speed_pos_fdbk.c ****     }
 219:MCSDK_v6.3.2-Full/MotorControl/MCSDK/MCLib/Any/Src/sto_pll_speed_pos_fdbk.c ****     else
 220:MCSDK_v6.3.2-Full/MotorControl/MCSDK/MCLib/Any/Src/sto_pll_speed_pos_fdbk.c ****     {
 221:MCSDK_v6.3.2-Full/MotorControl/MCSDK/MCLib/Any/Src/sto_pll_speed_pos_fdbk.c ****       /* Nothing to do */
 222:MCSDK_v6.3.2-Full/MotorControl/MCSDK/MCLib/Any/Src/sto_pll_speed_pos_fdbk.c ****     }
 158              		.loc 1 222 5 is_stmt 1 view .LVU53
 223:MCSDK_v6.3.2-Full/MotorControl/MCSDK/MCLib/Any/Src/sto_pll_speed_pos_fdbk.c **** 
 224:MCSDK_v6.3.2-Full/MotorControl/MCSDK/MCLib/Any/Src/sto_pll_speed_pos_fdbk.c ****     if (pHandle->Ibeta_est > (INT16_MAX * ((int32_t)pHandle->hF1)))
 159              		.loc 1 224 5 view .LVU54
 160              		.loc 1 224 16 is_stmt 0 view .LVU55
 161 005c 656E     		ldr	r5, [r4, #100]
 162              		.loc 1 224 8 view .LVU56
 163 005e AA42     		cmp	r2, r5
 164 0060 80F2B380 		bge	.L10
 225:MCSDK_v6.3.2-Full/MotorControl/MCSDK/MCLib/Any/Src/sto_pll_speed_pos_fdbk.c ****     {
 226:MCSDK_v6.3.2-Full/MotorControl/MCSDK/MCLib/Any/Src/sto_pll_speed_pos_fdbk.c ****       pHandle->Ibeta_est = INT16_MAX * ((int32_t)pHandle->hF1);
 165              		.loc 1 226 7 is_stmt 1 view .LVU57
 166              		.loc 1 226 26 is_stmt 0 view .LVU58
 167 0064 6266     		str	r2, [r4, #100]
 168              	.L11:
 227:MCSDK_v6.3.2-Full/MotorControl/MCSDK/MCLib/Any/Src/sto_pll_speed_pos_fdbk.c ****     }
 228:MCSDK_v6.3.2-Full/MotorControl/MCSDK/MCLib/Any/Src/sto_pll_speed_pos_fdbk.c ****     else if (pHandle->Ibeta_est <= (-INT16_MAX * ((int32_t)pHandle->hF1)))
 229:MCSDK_v6.3.2-Full/MotorControl/MCSDK/MCLib/Any/Src/sto_pll_speed_pos_fdbk.c ****     {
 230:MCSDK_v6.3.2-Full/MotorControl/MCSDK/MCLib/Any/Src/sto_pll_speed_pos_fdbk.c ****       pHandle->Ibeta_est = -INT16_MAX * ((int32_t)pHandle->hF1);
 231:MCSDK_v6.3.2-Full/MotorControl/MCSDK/MCLib/Any/Src/sto_pll_speed_pos_fdbk.c ****     }
 232:MCSDK_v6.3.2-Full/MotorControl/MCSDK/MCLib/Any/Src/sto_pll_speed_pos_fdbk.c ****     else
 233:MCSDK_v6.3.2-Full/MotorControl/MCSDK/MCLib/Any/Src/sto_pll_speed_pos_fdbk.c ****     {
ARM GAS  /tmp/ccNNILil.s 			page 8


 234:MCSDK_v6.3.2-Full/MotorControl/MCSDK/MCLib/Any/Src/sto_pll_speed_pos_fdbk.c ****       /* Nothing to do */
 235:MCSDK_v6.3.2-Full/MotorControl/MCSDK/MCLib/Any/Src/sto_pll_speed_pos_fdbk.c ****     }
 169              		.loc 1 235 5 is_stmt 1 view .LVU59
 236:MCSDK_v6.3.2-Full/MotorControl/MCSDK/MCLib/Any/Src/sto_pll_speed_pos_fdbk.c **** 
 237:MCSDK_v6.3.2-Full/MotorControl/MCSDK/MCLib/Any/Src/sto_pll_speed_pos_fdbk.c **** #ifndef FULL_MISRA_C_COMPLIANCY_STO_PLL
 238:MCSDK_v6.3.2-Full/MotorControl/MCSDK/MCLib/Any/Src/sto_pll_speed_pos_fdbk.c ****     //cstat !MISRAC2012-Rule-1.3_n !ATH-shift-neg !MISRAC2012-Rule-10.1_R6
 239:MCSDK_v6.3.2-Full/MotorControl/MCSDK/MCLib/Any/Src/sto_pll_speed_pos_fdbk.c ****     hIalfa_err = (int16_t)(pHandle->Ialfa_est >> pHandle->F1LOG);
 170              		.loc 1 239 5 view .LVU60
 171              		.loc 1 239 35 is_stmt 0 view .LVU61
 172 0066 226E     		ldr	r2, [r4, #96]
 173              		.loc 1 239 57 view .LVU62
 174 0068 B4F81C31 		ldrh	r3, [r4, #284]
 175              		.loc 1 239 47 view .LVU63
 176 006c 42FA03F6 		asr	r6, r2, r3
 177              	.LVL5:
 240:MCSDK_v6.3.2-Full/MotorControl/MCSDK/MCLib/Any/Src/sto_pll_speed_pos_fdbk.c **** #else
 241:MCSDK_v6.3.2-Full/MotorControl/MCSDK/MCLib/Any/Src/sto_pll_speed_pos_fdbk.c ****     hIalfa_err = (int16_t)(pHandle->Ialfa_est / pHandle->hF1);
 242:MCSDK_v6.3.2-Full/MotorControl/MCSDK/MCLib/Any/Src/sto_pll_speed_pos_fdbk.c **** #endif
 243:MCSDK_v6.3.2-Full/MotorControl/MCSDK/MCLib/Any/Src/sto_pll_speed_pos_fdbk.c **** 
 244:MCSDK_v6.3.2-Full/MotorControl/MCSDK/MCLib/Any/Src/sto_pll_speed_pos_fdbk.c ****     hIalfa_err = hIalfa_err - pInputs->Ialfa_beta.alpha;
 178              		.loc 1 244 5 is_stmt 1 view .LVU64
 245:MCSDK_v6.3.2-Full/MotorControl/MCSDK/MCLib/Any/Src/sto_pll_speed_pos_fdbk.c **** 
 246:MCSDK_v6.3.2-Full/MotorControl/MCSDK/MCLib/Any/Src/sto_pll_speed_pos_fdbk.c **** #ifndef FULL_MISRA_C_COMPLIANCY_STO_PLL
 247:MCSDK_v6.3.2-Full/MotorControl/MCSDK/MCLib/Any/Src/sto_pll_speed_pos_fdbk.c ****     //cstat !MISRAC2012-Rule-1.3_n !ATH-shift-neg !MISRAC2012-Rule-10.1_R6
 248:MCSDK_v6.3.2-Full/MotorControl/MCSDK/MCLib/Any/Src/sto_pll_speed_pos_fdbk.c ****     hIbeta_err = (int16_t)(pHandle->Ibeta_est >> pHandle->F1LOG);
 179              		.loc 1 248 5 view .LVU65
 180              		.loc 1 248 47 is_stmt 0 view .LVU66
 181 0070 656E     		ldr	r5, [r4, #100]
 182 0072 45FA03F3 		asr	r3, r5, r3
 183 0076 0193     		str	r3, [sp, #4]
 184              	.LVL6:
 249:MCSDK_v6.3.2-Full/MotorControl/MCSDK/MCLib/Any/Src/sto_pll_speed_pos_fdbk.c **** #else
 250:MCSDK_v6.3.2-Full/MotorControl/MCSDK/MCLib/Any/Src/sto_pll_speed_pos_fdbk.c ****     hIbeta_err = (int16_t)(pHandle->Ibeta_est / pHandle->hF1);
 251:MCSDK_v6.3.2-Full/MotorControl/MCSDK/MCLib/Any/Src/sto_pll_speed_pos_fdbk.c **** #endif
 252:MCSDK_v6.3.2-Full/MotorControl/MCSDK/MCLib/Any/Src/sto_pll_speed_pos_fdbk.c **** 
 253:MCSDK_v6.3.2-Full/MotorControl/MCSDK/MCLib/Any/Src/sto_pll_speed_pos_fdbk.c ****     hIbeta_err = hIbeta_err - pInputs->Ialfa_beta.beta;
 185              		.loc 1 253 5 is_stmt 1 view .LVU67
 254:MCSDK_v6.3.2-Full/MotorControl/MCSDK/MCLib/Any/Src/sto_pll_speed_pos_fdbk.c **** 
 255:MCSDK_v6.3.2-Full/MotorControl/MCSDK/MCLib/Any/Src/sto_pll_speed_pos_fdbk.c ****     wAux = ((int32_t)pInputs->Vbus) * pInputs->Valfa_beta.alpha;
 186              		.loc 1 255 5 view .LVU68
 187              		.loc 1 255 13 is_stmt 0 view .LVU69
 188 0078 0B89     		ldrh	r3, [r1, #8]
 189 007a 1D46     		mov	r5, r3
 190              	.LVL7:
 256:MCSDK_v6.3.2-Full/MotorControl/MCSDK/MCLib/Any/Src/sto_pll_speed_pos_fdbk.c **** #ifndef FULL_MISRA_C_COMPLIANCY_STO_PLL
 257:MCSDK_v6.3.2-Full/MotorControl/MCSDK/MCLib/Any/Src/sto_pll_speed_pos_fdbk.c ****     hValfa = (int16_t)(wAux >> 16); //cstat !MISRAC2012-Rule-1.3_n !ATH-shift-neg !MISRAC2012-Rule-
 191              		.loc 1 257 5 is_stmt 1 view .LVU70
 258:MCSDK_v6.3.2-Full/MotorControl/MCSDK/MCLib/Any/Src/sto_pll_speed_pos_fdbk.c **** #else
 259:MCSDK_v6.3.2-Full/MotorControl/MCSDK/MCLib/Any/Src/sto_pll_speed_pos_fdbk.c ****     hValfa = (int16_t)(wAux / 65536);
 260:MCSDK_v6.3.2-Full/MotorControl/MCSDK/MCLib/Any/Src/sto_pll_speed_pos_fdbk.c **** #endif
 261:MCSDK_v6.3.2-Full/MotorControl/MCSDK/MCLib/Any/Src/sto_pll_speed_pos_fdbk.c **** 
 262:MCSDK_v6.3.2-Full/MotorControl/MCSDK/MCLib/Any/Src/sto_pll_speed_pos_fdbk.c ****     wAux = ((int32_t)pInputs->Vbus) * pInputs->Valfa_beta.beta;
 192              		.loc 1 262 5 view .LVU71
 263:MCSDK_v6.3.2-Full/MotorControl/MCSDK/MCLib/Any/Src/sto_pll_speed_pos_fdbk.c **** 
 264:MCSDK_v6.3.2-Full/MotorControl/MCSDK/MCLib/Any/Src/sto_pll_speed_pos_fdbk.c **** #ifndef FULL_MISRA_C_COMPLIANCY_STO_PLL
 265:MCSDK_v6.3.2-Full/MotorControl/MCSDK/MCLib/Any/Src/sto_pll_speed_pos_fdbk.c ****     hVbeta = ( int16_t ) ( wAux >> 16 ); //cstat !MISRAC2012-Rule-1.3_n !ATH-shift-neg !MISRAC2012-
 193              		.loc 1 265 5 view .LVU72
ARM GAS  /tmp/ccNNILil.s 			page 9


 266:MCSDK_v6.3.2-Full/MotorControl/MCSDK/MCLib/Any/Src/sto_pll_speed_pos_fdbk.c **** #else
 267:MCSDK_v6.3.2-Full/MotorControl/MCSDK/MCLib/Any/Src/sto_pll_speed_pos_fdbk.c ****     hVbeta = (int16_t)(wAux / 65536);
 268:MCSDK_v6.3.2-Full/MotorControl/MCSDK/MCLib/Any/Src/sto_pll_speed_pos_fdbk.c **** #endif
 269:MCSDK_v6.3.2-Full/MotorControl/MCSDK/MCLib/Any/Src/sto_pll_speed_pos_fdbk.c **** 
 270:MCSDK_v6.3.2-Full/MotorControl/MCSDK/MCLib/Any/Src/sto_pll_speed_pos_fdbk.c ****     /* alfa axes observer */
 271:MCSDK_v6.3.2-Full/MotorControl/MCSDK/MCLib/Any/Src/sto_pll_speed_pos_fdbk.c **** #ifndef FULL_MISRA_C_COMPLIANCY_STO_PLL
 272:MCSDK_v6.3.2-Full/MotorControl/MCSDK/MCLib/Any/Src/sto_pll_speed_pos_fdbk.c ****     //cstat !MISRAC2012-Rule-1.3_n !ATH-shift-neg !MISRAC2012-Rule-10.1_R6
 273:MCSDK_v6.3.2-Full/MotorControl/MCSDK/MCLib/Any/Src/sto_pll_speed_pos_fdbk.c ****     hAux = (int16_t)(pHandle->Ialfa_est >> pHandle->F1LOG);
 194              		.loc 1 273 5 view .LVU73
 274:MCSDK_v6.3.2-Full/MotorControl/MCSDK/MCLib/Any/Src/sto_pll_speed_pos_fdbk.c **** #else
 275:MCSDK_v6.3.2-Full/MotorControl/MCSDK/MCLib/Any/Src/sto_pll_speed_pos_fdbk.c ****     hAux = (int16_t)(pHandle->Ialfa_est / pHandle->hF1);
 276:MCSDK_v6.3.2-Full/MotorControl/MCSDK/MCLib/Any/Src/sto_pll_speed_pos_fdbk.c **** #endif
 277:MCSDK_v6.3.2-Full/MotorControl/MCSDK/MCLib/Any/Src/sto_pll_speed_pos_fdbk.c **** 
 278:MCSDK_v6.3.2-Full/MotorControl/MCSDK/MCLib/Any/Src/sto_pll_speed_pos_fdbk.c ****     wAux = ((int32_t)pHandle->hC1) * hAux;
 195              		.loc 1 278 5 view .LVU74
 196              		.loc 1 278 13 is_stmt 0 view .LVU75
 197 007c B4F92030 		ldrsh	r3, [r4, #32]
 198              	.LVL8:
 279:MCSDK_v6.3.2-Full/MotorControl/MCSDK/MCLib/Any/Src/sto_pll_speed_pos_fdbk.c ****     wIalfa_est_Next = pHandle->Ialfa_est - wAux;
 199              		.loc 1 279 5 is_stmt 1 view .LVU76
 278:MCSDK_v6.3.2-Full/MotorControl/MCSDK/MCLib/Any/Src/sto_pll_speed_pos_fdbk.c ****     wIalfa_est_Next = pHandle->Ialfa_est - wAux;
 200              		.loc 1 278 36 is_stmt 0 view .LVU77
 201 0080 0FFA86FC 		sxth	ip, r6
 202              		.loc 1 279 21 view .LVU78
 203 0084 03FB1C28 		mls	r8, r3, ip, r2
 204              	.LVL9:
 280:MCSDK_v6.3.2-Full/MotorControl/MCSDK/MCLib/Any/Src/sto_pll_speed_pos_fdbk.c **** 
 281:MCSDK_v6.3.2-Full/MotorControl/MCSDK/MCLib/Any/Src/sto_pll_speed_pos_fdbk.c ****     wAux = ((int32_t)pHandle->hC2) * hIalfa_err;
 205              		.loc 1 281 5 is_stmt 1 view .LVU79
 206              		.loc 1 281 13 is_stmt 0 view .LVU80
 207 0088 B4F92220 		ldrsh	r2, [r4, #34]
 244:MCSDK_v6.3.2-Full/MotorControl/MCSDK/MCLib/Any/Src/sto_pll_speed_pos_fdbk.c **** 
 208              		.loc 1 244 29 view .LVU81
 209 008c B1F804C0 		ldrh	ip, [r1, #4]
 210 0090 A6EB0C06 		sub	r6, r6, ip
 211              	.LVL10:
 212              		.loc 1 281 36 view .LVU82
 213 0094 36B2     		sxth	r6, r6
 214              	.LVL11:
 282:MCSDK_v6.3.2-Full/MotorControl/MCSDK/MCLib/Any/Src/sto_pll_speed_pos_fdbk.c ****     wIalfa_est_Next += wAux;
 215              		.loc 1 282 5 is_stmt 1 view .LVU83
 216              		.loc 1 282 21 is_stmt 0 view .LVU84
 217 0096 0692     		str	r2, [sp, #24]
 218 0098 06FB028C 		mla	ip, r6, r2, r8
 219              	.LVL12:
 283:MCSDK_v6.3.2-Full/MotorControl/MCSDK/MCLib/Any/Src/sto_pll_speed_pos_fdbk.c **** 
 284:MCSDK_v6.3.2-Full/MotorControl/MCSDK/MCLib/Any/Src/sto_pll_speed_pos_fdbk.c ****     wAux = ((int32_t)pHandle->hC5) * hValfa;
 220              		.loc 1 284 5 is_stmt 1 view .LVU85
 221              		.loc 1 284 13 is_stmt 0 view .LVU86
 222 009c B4F928B0 		ldrsh	fp, [r4, #40]
 255:MCSDK_v6.3.2-Full/MotorControl/MCSDK/MCLib/Any/Src/sto_pll_speed_pos_fdbk.c **** #ifndef FULL_MISRA_C_COMPLIANCY_STO_PLL
 223              		.loc 1 255 58 view .LVU87
 224 00a0 B1F90020 		ldrsh	r2, [r1]
 225              	.LVL13:
 255:MCSDK_v6.3.2-Full/MotorControl/MCSDK/MCLib/Any/Src/sto_pll_speed_pos_fdbk.c **** #ifndef FULL_MISRA_C_COMPLIANCY_STO_PLL
 226              		.loc 1 255 10 view .LVU88
 227 00a4 0595     		str	r5, [sp, #20]
ARM GAS  /tmp/ccNNILil.s 			page 10


 228 00a6 05FB02F2 		mul	r2, r5, r2
 229              		.loc 1 284 36 view .LVU89
 230 00aa 1214     		asrs	r2, r2, #16
 231              	.LVL14:
 285:MCSDK_v6.3.2-Full/MotorControl/MCSDK/MCLib/Any/Src/sto_pll_speed_pos_fdbk.c ****     wIalfa_est_Next += wAux;
 232              		.loc 1 285 5 is_stmt 1 view .LVU90
 233              		.loc 1 285 21 is_stmt 0 view .LVU91
 234 00ac 02FB0BC2 		mla	r2, r2, fp, ip
 235              	.LVL15:
 286:MCSDK_v6.3.2-Full/MotorControl/MCSDK/MCLib/Any/Src/sto_pll_speed_pos_fdbk.c **** 
 287:MCSDK_v6.3.2-Full/MotorControl/MCSDK/MCLib/Any/Src/sto_pll_speed_pos_fdbk.c ****     wAux = ((int32_t)pHandle->hC3) * hAux_Alfa;
 236              		.loc 1 287 5 is_stmt 1 view .LVU92
 237              		.loc 1 287 13 is_stmt 0 view .LVU93
 238 00b0 B4F924A0 		ldrsh	r10, [r4, #36]
 239              	.LVL16:
 288:MCSDK_v6.3.2-Full/MotorControl/MCSDK/MCLib/Any/Src/sto_pll_speed_pos_fdbk.c ****     wIalfa_est_Next -= wAux;
 240              		.loc 1 288 5 is_stmt 1 view .LVU94
 241              		.loc 1 288 21 is_stmt 0 view .LVU95
 242 00b4 07FB1A22 		mls	r2, r7, r10, r2
 243              	.LVL17:
 244              		.loc 1 288 21 view .LVU96
 245 00b8 0792     		str	r2, [sp, #28]
 246              	.LVL18:
 289:MCSDK_v6.3.2-Full/MotorControl/MCSDK/MCLib/Any/Src/sto_pll_speed_pos_fdbk.c **** 
 290:MCSDK_v6.3.2-Full/MotorControl/MCSDK/MCLib/Any/Src/sto_pll_speed_pos_fdbk.c ****     wAux = ((int32_t)pHandle->hC4) * hIalfa_err;
 247              		.loc 1 290 5 is_stmt 1 view .LVU97
 248              		.loc 1 290 13 is_stmt 0 view .LVU98
 249 00ba B4F92690 		ldrsh	r9, [r4, #38]
 250              	.LVL19:
 291:MCSDK_v6.3.2-Full/MotorControl/MCSDK/MCLib/Any/Src/sto_pll_speed_pos_fdbk.c ****     wBemf_alfa_est_Next = pHandle->wBemf_alfa_est + wAux;
 251              		.loc 1 291 5 is_stmt 1 view .LVU99
 252              		.loc 1 291 25 is_stmt 0 view .LVU100
 253 00be 09FB0606 		mla	r6, r9, r6, r0
 254              	.LVL20:
 292:MCSDK_v6.3.2-Full/MotorControl/MCSDK/MCLib/Any/Src/sto_pll_speed_pos_fdbk.c **** 
 293:MCSDK_v6.3.2-Full/MotorControl/MCSDK/MCLib/Any/Src/sto_pll_speed_pos_fdbk.c **** #ifndef FULL_MISRA_C_COMPLIANCY_STO_PLL
 294:MCSDK_v6.3.2-Full/MotorControl/MCSDK/MCLib/Any/Src/sto_pll_speed_pos_fdbk.c ****     wAux = (int32_t)hAux_Beta >> pHandle->F3POW2; //cstat !MISRAC2012-Rule-1.3_n !ATH-shift-neg !MI
 255              		.loc 1 294 5 is_stmt 1 view .LVU101
 256              		.loc 1 294 41 is_stmt 0 view .LVU102
 257 00c2 B4F832C0 		ldrh	ip, [r4, #50]
 258              		.loc 1 294 10 view .LVU103
 259 00c6 4EFA0CF2 		asr	r2, lr, ip
 260              	.LVL21:
 295:MCSDK_v6.3.2-Full/MotorControl/MCSDK/MCLib/Any/Src/sto_pll_speed_pos_fdbk.c **** #else
 296:MCSDK_v6.3.2-Full/MotorControl/MCSDK/MCLib/Any/Src/sto_pll_speed_pos_fdbk.c ****     wAux = ((int32_t)hAux_Beta) / pHandle->hF3;
 297:MCSDK_v6.3.2-Full/MotorControl/MCSDK/MCLib/Any/Src/sto_pll_speed_pos_fdbk.c **** #endif
 298:MCSDK_v6.3.2-Full/MotorControl/MCSDK/MCLib/Any/Src/sto_pll_speed_pos_fdbk.c **** 
 299:MCSDK_v6.3.2-Full/MotorControl/MCSDK/MCLib/Any/Src/sto_pll_speed_pos_fdbk.c ****     wAux = wAux * pHandle->hC6;
 261              		.loc 1 299 5 is_stmt 1 view .LVU104
 262              		.loc 1 299 26 is_stmt 0 view .LVU105
 263 00ca B4F92A00 		ldrsh	r0, [r4, #42]
 264              		.loc 1 299 10 view .LVU106
 265 00ce 00FB02F2 		mul	r2, r0, r2
 266              	.LVL22:
 300:MCSDK_v6.3.2-Full/MotorControl/MCSDK/MCLib/Any/Src/sto_pll_speed_pos_fdbk.c ****     wAux = pHandle->_Super.hElSpeedDpp * wAux;
 267              		.loc 1 300 5 is_stmt 1 view .LVU107
 268              		.loc 1 300 27 is_stmt 0 view .LVU108
ARM GAS  /tmp/ccNNILil.s 			page 11


 269 00d2 B4F90E80 		ldrsh	r8, [r4, #14]
 270              	.LVL23:
 301:MCSDK_v6.3.2-Full/MotorControl/MCSDK/MCLib/Any/Src/sto_pll_speed_pos_fdbk.c ****     wBemf_alfa_est_Next += wAux;
 271              		.loc 1 301 5 is_stmt 1 view .LVU109
 272              		.loc 1 301 25 is_stmt 0 view .LVU110
 273 00d6 02FB0866 		mla	r6, r2, r8, r6
 274              	.LVL24:
 302:MCSDK_v6.3.2-Full/MotorControl/MCSDK/MCLib/Any/Src/sto_pll_speed_pos_fdbk.c **** 
 303:MCSDK_v6.3.2-Full/MotorControl/MCSDK/MCLib/Any/Src/sto_pll_speed_pos_fdbk.c ****     /* beta axes observer */
 304:MCSDK_v6.3.2-Full/MotorControl/MCSDK/MCLib/Any/Src/sto_pll_speed_pos_fdbk.c **** #ifndef FULL_MISRA_C_COMPLIANCY_STO_PLL
 305:MCSDK_v6.3.2-Full/MotorControl/MCSDK/MCLib/Any/Src/sto_pll_speed_pos_fdbk.c ****     //cstat !MISRAC2012-Rule-1.3_n !ATH-shift-neg !MISRAC2012-Rule-10.1_R6
 306:MCSDK_v6.3.2-Full/MotorControl/MCSDK/MCLib/Any/Src/sto_pll_speed_pos_fdbk.c ****     hAux = (int16_t)(pHandle->Ibeta_est >> pHandle->F1LOG);
 275              		.loc 1 306 5 is_stmt 1 view .LVU111
 307:MCSDK_v6.3.2-Full/MotorControl/MCSDK/MCLib/Any/Src/sto_pll_speed_pos_fdbk.c **** #else
 308:MCSDK_v6.3.2-Full/MotorControl/MCSDK/MCLib/Any/Src/sto_pll_speed_pos_fdbk.c ****     hAux = (int16_t)(pHandle->Ibeta_est / pHandle->hF1);
 309:MCSDK_v6.3.2-Full/MotorControl/MCSDK/MCLib/Any/Src/sto_pll_speed_pos_fdbk.c **** #endif
 310:MCSDK_v6.3.2-Full/MotorControl/MCSDK/MCLib/Any/Src/sto_pll_speed_pos_fdbk.c **** 
 311:MCSDK_v6.3.2-Full/MotorControl/MCSDK/MCLib/Any/Src/sto_pll_speed_pos_fdbk.c ****     wAux = ((int32_t)pHandle->hC1) * hAux;
 276              		.loc 1 311 5 view .LVU112
 312:MCSDK_v6.3.2-Full/MotorControl/MCSDK/MCLib/Any/Src/sto_pll_speed_pos_fdbk.c ****     wIbeta_est_Next = pHandle->Ibeta_est - wAux;
 277              		.loc 1 312 5 view .LVU113
 311:MCSDK_v6.3.2-Full/MotorControl/MCSDK/MCLib/Any/Src/sto_pll_speed_pos_fdbk.c ****     wIbeta_est_Next = pHandle->Ibeta_est - wAux;
 278              		.loc 1 311 36 is_stmt 0 view .LVU114
 279 00da BDF90420 		ldrsh	r2, [sp, #4]
 280              		.loc 1 312 21 view .LVU115
 281 00de 656E     		ldr	r5, [r4, #100]
 282              	.LVL25:
 283              		.loc 1 312 21 view .LVU116
 284 00e0 03FB1253 		mls	r3, r3, r2, r5
 285              	.LVL26:
 313:MCSDK_v6.3.2-Full/MotorControl/MCSDK/MCLib/Any/Src/sto_pll_speed_pos_fdbk.c **** 
 314:MCSDK_v6.3.2-Full/MotorControl/MCSDK/MCLib/Any/Src/sto_pll_speed_pos_fdbk.c ****     wAux = ((int32_t)pHandle->hC2) * hIbeta_err;
 286              		.loc 1 314 5 is_stmt 1 view .LVU117
 253:MCSDK_v6.3.2-Full/MotorControl/MCSDK/MCLib/Any/Src/sto_pll_speed_pos_fdbk.c **** 
 287              		.loc 1 253 29 is_stmt 0 view .LVU118
 288 00e4 CA88     		ldrh	r2, [r1, #6]
 289 00e6 019D     		ldr	r5, [sp, #4]
 290 00e8 AA1A     		subs	r2, r5, r2
 291              		.loc 1 314 36 view .LVU119
 292 00ea 12B2     		sxth	r2, r2
 293              	.LVL27:
 315:MCSDK_v6.3.2-Full/MotorControl/MCSDK/MCLib/Any/Src/sto_pll_speed_pos_fdbk.c ****     wIbeta_est_Next += wAux;
 294              		.loc 1 315 5 is_stmt 1 view .LVU120
 295              		.loc 1 315 21 is_stmt 0 view .LVU121
 296 00ec 069D     		ldr	r5, [sp, #24]
 297 00ee 02FB0535 		mla	r5, r2, r5, r3
 298              	.LVL28:
 316:MCSDK_v6.3.2-Full/MotorControl/MCSDK/MCLib/Any/Src/sto_pll_speed_pos_fdbk.c **** 
 317:MCSDK_v6.3.2-Full/MotorControl/MCSDK/MCLib/Any/Src/sto_pll_speed_pos_fdbk.c ****     wAux = ((int32_t)pHandle->hC5) * hVbeta;
 299              		.loc 1 317 5 is_stmt 1 view .LVU122
 262:MCSDK_v6.3.2-Full/MotorControl/MCSDK/MCLib/Any/Src/sto_pll_speed_pos_fdbk.c **** 
 300              		.loc 1 262 58 is_stmt 0 view .LVU123
 301 00f2 B1F90230 		ldrsh	r3, [r1, #2]
 262:MCSDK_v6.3.2-Full/MotorControl/MCSDK/MCLib/Any/Src/sto_pll_speed_pos_fdbk.c **** 
 302              		.loc 1 262 10 view .LVU124
 303 00f6 0599     		ldr	r1, [sp, #20]
 304              	.LVL29:
ARM GAS  /tmp/ccNNILil.s 			page 12


 262:MCSDK_v6.3.2-Full/MotorControl/MCSDK/MCLib/Any/Src/sto_pll_speed_pos_fdbk.c **** 
 305              		.loc 1 262 10 view .LVU125
 306 00f8 01FB03F3 		mul	r3, r1, r3
 307              	.LVL30:
 308              		.loc 1 317 36 view .LVU126
 309 00fc 1B14     		asrs	r3, r3, #16
 310              	.LVL31:
 318:MCSDK_v6.3.2-Full/MotorControl/MCSDK/MCLib/Any/Src/sto_pll_speed_pos_fdbk.c ****     wIbeta_est_Next += wAux;
 311              		.loc 1 318 5 is_stmt 1 view .LVU127
 312              		.loc 1 318 21 is_stmt 0 view .LVU128
 313 00fe 03FB0B55 		mla	r5, r3, fp, r5
 314              	.LVL32:
 319:MCSDK_v6.3.2-Full/MotorControl/MCSDK/MCLib/Any/Src/sto_pll_speed_pos_fdbk.c **** 
 320:MCSDK_v6.3.2-Full/MotorControl/MCSDK/MCLib/Any/Src/sto_pll_speed_pos_fdbk.c ****     wAux = ((int32_t)pHandle->hC3) * hAux_Beta;
 315              		.loc 1 320 5 is_stmt 1 view .LVU129
 321:MCSDK_v6.3.2-Full/MotorControl/MCSDK/MCLib/Any/Src/sto_pll_speed_pos_fdbk.c ****     wIbeta_est_Next -= wAux;
 316              		.loc 1 321 5 view .LVU130
 317              		.loc 1 321 21 is_stmt 0 view .LVU131
 318 0102 0EFB1A55 		mls	r5, lr, r10, r5
 319              	.LVL33:
 322:MCSDK_v6.3.2-Full/MotorControl/MCSDK/MCLib/Any/Src/sto_pll_speed_pos_fdbk.c **** 
 323:MCSDK_v6.3.2-Full/MotorControl/MCSDK/MCLib/Any/Src/sto_pll_speed_pos_fdbk.c ****     wAux = ((int32_t)pHandle->hC4) * hIbeta_err;
 320              		.loc 1 323 5 is_stmt 1 view .LVU132
 324:MCSDK_v6.3.2-Full/MotorControl/MCSDK/MCLib/Any/Src/sto_pll_speed_pos_fdbk.c ****     wBemf_beta_est_Next = pHandle->wBemf_beta_est + wAux;
 321              		.loc 1 324 5 view .LVU133
 322              		.loc 1 324 25 is_stmt 0 view .LVU134
 323 0106 039B     		ldr	r3, [sp, #12]
 324 0108 02FB0939 		mla	r9, r2, r9, r3
 325              	.LVL34:
 325:MCSDK_v6.3.2-Full/MotorControl/MCSDK/MCLib/Any/Src/sto_pll_speed_pos_fdbk.c **** 
 326:MCSDK_v6.3.2-Full/MotorControl/MCSDK/MCLib/Any/Src/sto_pll_speed_pos_fdbk.c **** #ifndef FULL_MISRA_C_COMPLIANCY_STO_PLL
 327:MCSDK_v6.3.2-Full/MotorControl/MCSDK/MCLib/Any/Src/sto_pll_speed_pos_fdbk.c ****     wAux = (int32_t)hAux_Alfa >> pHandle->F3POW2; //cstat !MISRAC2012-Rule-1.3_n !ATH-shift-neg !MI
 326              		.loc 1 327 5 is_stmt 1 view .LVU135
 327              		.loc 1 327 10 is_stmt 0 view .LVU136
 328 010c 47FA0CFC 		asr	ip, r7, ip
 329              	.LVL35:
 328:MCSDK_v6.3.2-Full/MotorControl/MCSDK/MCLib/Any/Src/sto_pll_speed_pos_fdbk.c **** #else
 329:MCSDK_v6.3.2-Full/MotorControl/MCSDK/MCLib/Any/Src/sto_pll_speed_pos_fdbk.c ****     wAux = ((int32_t)hAux_Alfa) / pHandle->hF3;
 330:MCSDK_v6.3.2-Full/MotorControl/MCSDK/MCLib/Any/Src/sto_pll_speed_pos_fdbk.c **** #endif
 331:MCSDK_v6.3.2-Full/MotorControl/MCSDK/MCLib/Any/Src/sto_pll_speed_pos_fdbk.c **** 
 332:MCSDK_v6.3.2-Full/MotorControl/MCSDK/MCLib/Any/Src/sto_pll_speed_pos_fdbk.c ****     wAux = wAux * pHandle->hC6;
 330              		.loc 1 332 5 is_stmt 1 view .LVU137
 331              		.loc 1 332 10 is_stmt 0 view .LVU138
 332 0110 0CFB00F0 		mul	r0, ip, r0
 333              	.LVL36:
 333:MCSDK_v6.3.2-Full/MotorControl/MCSDK/MCLib/Any/Src/sto_pll_speed_pos_fdbk.c ****     wAux = pHandle->_Super.hElSpeedDpp * wAux;
 334              		.loc 1 333 5 is_stmt 1 view .LVU139
 334:MCSDK_v6.3.2-Full/MotorControl/MCSDK/MCLib/Any/Src/sto_pll_speed_pos_fdbk.c ****     wBemf_beta_est_Next -= wAux;
 335              		.loc 1 334 5 view .LVU140
 336              		.loc 1 334 25 is_stmt 0 view .LVU141
 337 0114 00FB1899 		mls	r9, r0, r8, r9
 338              	.LVL37:
 335:MCSDK_v6.3.2-Full/MotorControl/MCSDK/MCLib/Any/Src/sto_pll_speed_pos_fdbk.c **** 
 336:MCSDK_v6.3.2-Full/MotorControl/MCSDK/MCLib/Any/Src/sto_pll_speed_pos_fdbk.c ****     /* Calls the PLL blockset */
 337:MCSDK_v6.3.2-Full/MotorControl/MCSDK/MCLib/Any/Src/sto_pll_speed_pos_fdbk.c ****     pHandle->hBemf_alfa_est = hAux_Alfa;
 339              		.loc 1 337 5 is_stmt 1 view .LVU142
 340              		.loc 1 337 29 is_stmt 0 view .LVU143
ARM GAS  /tmp/ccNNILil.s 			page 13


 341 0118 A4F87070 		strh	r7, [r4, #112]	@ movhi
 342              	.LVL38:
 338:MCSDK_v6.3.2-Full/MotorControl/MCSDK/MCLib/Any/Src/sto_pll_speed_pos_fdbk.c ****     pHandle->hBemf_beta_est = hAux_Beta;
 343              		.loc 1 338 5 is_stmt 1 view .LVU144
 344              		.loc 1 338 29 is_stmt 0 view .LVU145
 345 011c A4F872E0 		strh	lr, [r4, #114]	@ movhi
 339:MCSDK_v6.3.2-Full/MotorControl/MCSDK/MCLib/Any/Src/sto_pll_speed_pos_fdbk.c **** 
 340:MCSDK_v6.3.2-Full/MotorControl/MCSDK/MCLib/Any/Src/sto_pll_speed_pos_fdbk.c ****     if (0 == pHandle->hForcedDirection)
 346              		.loc 1 340 5 is_stmt 1 view .LVU146
 347              		.loc 1 340 21 is_stmt 0 view .LVU147
 348 0120 94F92471 		ldrsb	r7, [r4, #292]
 349              	.LVL39:
 350              		.loc 1 340 8 view .LVU148
 351 0124 2FB9     		cbnz	r7, .L13
 341:MCSDK_v6.3.2-Full/MotorControl/MCSDK/MCLib/Any/Src/sto_pll_speed_pos_fdbk.c ****     {
 342:MCSDK_v6.3.2-Full/MotorControl/MCSDK/MCLib/Any/Src/sto_pll_speed_pos_fdbk.c ****       /* We are in auxiliary mode, then rely on the speed detected */
 343:MCSDK_v6.3.2-Full/MotorControl/MCSDK/MCLib/Any/Src/sto_pll_speed_pos_fdbk.c ****       if(pHandle->_Super.hElSpeedDpp >= 0)
 352              		.loc 1 343 7 is_stmt 1 view .LVU149
 344:MCSDK_v6.3.2-Full/MotorControl/MCSDK/MCLib/Any/Src/sto_pll_speed_pos_fdbk.c ****       {
 345:MCSDK_v6.3.2-Full/MotorControl/MCSDK/MCLib/Any/Src/sto_pll_speed_pos_fdbk.c ****         wDirection = 1;
 346:MCSDK_v6.3.2-Full/MotorControl/MCSDK/MCLib/Any/Src/sto_pll_speed_pos_fdbk.c ****       }
 347:MCSDK_v6.3.2-Full/MotorControl/MCSDK/MCLib/Any/Src/sto_pll_speed_pos_fdbk.c ****       else
 348:MCSDK_v6.3.2-Full/MotorControl/MCSDK/MCLib/Any/Src/sto_pll_speed_pos_fdbk.c ****       {
 349:MCSDK_v6.3.2-Full/MotorControl/MCSDK/MCLib/Any/Src/sto_pll_speed_pos_fdbk.c ****         wDirection = -1;
 353              		.loc 1 349 20 is_stmt 0 view .LVU150
 354 0126 B8F1000F 		cmp	r8, #0
 355 012a ACBF     		ite	ge
 356 012c 0127     		movge	r7, #1
 357 012e 4FF0FF37 		movlt	r7, #-1
 358              	.L13:
 359              	.LVL40:
 350:MCSDK_v6.3.2-Full/MotorControl/MCSDK/MCLib/Any/Src/sto_pll_speed_pos_fdbk.c ****       }
 351:MCSDK_v6.3.2-Full/MotorControl/MCSDK/MCLib/Any/Src/sto_pll_speed_pos_fdbk.c ****     }
 352:MCSDK_v6.3.2-Full/MotorControl/MCSDK/MCLib/Any/Src/sto_pll_speed_pos_fdbk.c ****     else
 353:MCSDK_v6.3.2-Full/MotorControl/MCSDK/MCLib/Any/Src/sto_pll_speed_pos_fdbk.c ****     {
 354:MCSDK_v6.3.2-Full/MotorControl/MCSDK/MCLib/Any/Src/sto_pll_speed_pos_fdbk.c ****       /* We are in main sensor mode, use a forced direction */
 355:MCSDK_v6.3.2-Full/MotorControl/MCSDK/MCLib/Any/Src/sto_pll_speed_pos_fdbk.c ****       wDirection = pHandle->hForcedDirection;
 356:MCSDK_v6.3.2-Full/MotorControl/MCSDK/MCLib/Any/Src/sto_pll_speed_pos_fdbk.c ****     }
 357:MCSDK_v6.3.2-Full/MotorControl/MCSDK/MCLib/Any/Src/sto_pll_speed_pos_fdbk.c **** 
 358:MCSDK_v6.3.2-Full/MotorControl/MCSDK/MCLib/Any/Src/sto_pll_speed_pos_fdbk.c ****     hAux_Alfa = (int16_t)(hAux_Alfa * wDirection);
 360              		.loc 1 358 5 is_stmt 1 view .LVU151
 361              		.loc 1 358 17 is_stmt 0 view .LVU152
 362 0132 BFB2     		uxth	r7, r7
 363              	.LVL41:
 359:MCSDK_v6.3.2-Full/MotorControl/MCSDK/MCLib/Any/Src/sto_pll_speed_pos_fdbk.c ****     hAux_Beta = (int16_t)(hAux_Beta * wDirection);
 364              		.loc 1 359 5 is_stmt 1 view .LVU153
 360:MCSDK_v6.3.2-Full/MotorControl/MCSDK/MCLib/Any/Src/sto_pll_speed_pos_fdbk.c **** 
 361:MCSDK_v6.3.2-Full/MotorControl/MCSDK/MCLib/Any/Src/sto_pll_speed_pos_fdbk.c ****     hRotor_Speed = STO_ExecutePLL(pHandle, hAux_Alfa, -hAux_Beta);
 365              		.loc 1 361 5 view .LVU154
 366              	.LBB13:
 367              	.LBI13:
 362:MCSDK_v6.3.2-Full/MotorControl/MCSDK/MCLib/Any/Src/sto_pll_speed_pos_fdbk.c ****     pHandle->_Super.InstantaneousElSpeedDpp = hRotor_Speed;
 363:MCSDK_v6.3.2-Full/MotorControl/MCSDK/MCLib/Any/Src/sto_pll_speed_pos_fdbk.c **** 
 364:MCSDK_v6.3.2-Full/MotorControl/MCSDK/MCLib/Any/Src/sto_pll_speed_pos_fdbk.c ****     STO_Store_Rotor_Speed(pHandle, hRotor_Speed);
 365:MCSDK_v6.3.2-Full/MotorControl/MCSDK/MCLib/Any/Src/sto_pll_speed_pos_fdbk.c **** 
 366:MCSDK_v6.3.2-Full/MotorControl/MCSDK/MCLib/Any/Src/sto_pll_speed_pos_fdbk.c ****     pHandle->_Super.hElAngle += hRotor_Speed;
 367:MCSDK_v6.3.2-Full/MotorControl/MCSDK/MCLib/Any/Src/sto_pll_speed_pos_fdbk.c **** 
ARM GAS  /tmp/ccNNILil.s 			page 14


 368:MCSDK_v6.3.2-Full/MotorControl/MCSDK/MCLib/Any/Src/sto_pll_speed_pos_fdbk.c ****     /* Storing previous values of currents and bemfs */
 369:MCSDK_v6.3.2-Full/MotorControl/MCSDK/MCLib/Any/Src/sto_pll_speed_pos_fdbk.c ****     pHandle->Ialfa_est = wIalfa_est_Next;
 370:MCSDK_v6.3.2-Full/MotorControl/MCSDK/MCLib/Any/Src/sto_pll_speed_pos_fdbk.c ****     pHandle->wBemf_alfa_est = wBemf_alfa_est_Next;
 371:MCSDK_v6.3.2-Full/MotorControl/MCSDK/MCLib/Any/Src/sto_pll_speed_pos_fdbk.c **** 
 372:MCSDK_v6.3.2-Full/MotorControl/MCSDK/MCLib/Any/Src/sto_pll_speed_pos_fdbk.c ****     pHandle->Ibeta_est = wIbeta_est_Next;
 373:MCSDK_v6.3.2-Full/MotorControl/MCSDK/MCLib/Any/Src/sto_pll_speed_pos_fdbk.c ****     pHandle->wBemf_beta_est = wBemf_beta_est_Next;
 374:MCSDK_v6.3.2-Full/MotorControl/MCSDK/MCLib/Any/Src/sto_pll_speed_pos_fdbk.c ****     retValue = pHandle->_Super.hElAngle;
 375:MCSDK_v6.3.2-Full/MotorControl/MCSDK/MCLib/Any/Src/sto_pll_speed_pos_fdbk.c ****   }
 376:MCSDK_v6.3.2-Full/MotorControl/MCSDK/MCLib/Any/Src/sto_pll_speed_pos_fdbk.c ****   return (retValue);
 377:MCSDK_v6.3.2-Full/MotorControl/MCSDK/MCLib/Any/Src/sto_pll_speed_pos_fdbk.c **** }
 378:MCSDK_v6.3.2-Full/MotorControl/MCSDK/MCLib/Any/Src/sto_pll_speed_pos_fdbk.c **** 
 379:MCSDK_v6.3.2-Full/MotorControl/MCSDK/MCLib/Any/Src/sto_pll_speed_pos_fdbk.c **** /**
 380:MCSDK_v6.3.2-Full/MotorControl/MCSDK/MCLib/Any/Src/sto_pll_speed_pos_fdbk.c ****   * @brief  Computes and returns the average mechanical speed.
 381:MCSDK_v6.3.2-Full/MotorControl/MCSDK/MCLib/Any/Src/sto_pll_speed_pos_fdbk.c ****   * 
 382:MCSDK_v6.3.2-Full/MotorControl/MCSDK/MCLib/Any/Src/sto_pll_speed_pos_fdbk.c ****   * This method must be called - at least - with the same periodicity
 383:MCSDK_v6.3.2-Full/MotorControl/MCSDK/MCLib/Any/Src/sto_pll_speed_pos_fdbk.c ****   * on which speed control is executed. It computes and returns - through
 384:MCSDK_v6.3.2-Full/MotorControl/MCSDK/MCLib/Any/Src/sto_pll_speed_pos_fdbk.c ****   * parameter hMecSpeedUnit - the rotor average mechanical speed,
 385:MCSDK_v6.3.2-Full/MotorControl/MCSDK/MCLib/Any/Src/sto_pll_speed_pos_fdbk.c ****   * expressed in #SPEED_UNIT. Average is computed considering a FIFO depth
 386:MCSDK_v6.3.2-Full/MotorControl/MCSDK/MCLib/Any/Src/sto_pll_speed_pos_fdbk.c ****   * equal to bSpeedBufferSizeUnit. Moreover it also computes and returns
 387:MCSDK_v6.3.2-Full/MotorControl/MCSDK/MCLib/Any/Src/sto_pll_speed_pos_fdbk.c ****   * the reliability state of the sensor.
 388:MCSDK_v6.3.2-Full/MotorControl/MCSDK/MCLib/Any/Src/sto_pll_speed_pos_fdbk.c ****   * 
 389:MCSDK_v6.3.2-Full/MotorControl/MCSDK/MCLib/Any/Src/sto_pll_speed_pos_fdbk.c ****   * @param  pHandle: Handler of the current instance of the STO component.
 390:MCSDK_v6.3.2-Full/MotorControl/MCSDK/MCLib/Any/Src/sto_pll_speed_pos_fdbk.c ****   * @param  pMecSpeedUnit: Pointer to int16_t, used to return the rotor average
 391:MCSDK_v6.3.2-Full/MotorControl/MCSDK/MCLib/Any/Src/sto_pll_speed_pos_fdbk.c ****   *         mechanical speed (expressed in #SPEED_UNIT).
 392:MCSDK_v6.3.2-Full/MotorControl/MCSDK/MCLib/Any/Src/sto_pll_speed_pos_fdbk.c ****   * @retval True if the sensor information is reliable, false otherwise.
 393:MCSDK_v6.3.2-Full/MotorControl/MCSDK/MCLib/Any/Src/sto_pll_speed_pos_fdbk.c ****   */
 394:MCSDK_v6.3.2-Full/MotorControl/MCSDK/MCLib/Any/Src/sto_pll_speed_pos_fdbk.c **** 
 395:MCSDK_v6.3.2-Full/MotorControl/MCSDK/MCLib/Any/Src/sto_pll_speed_pos_fdbk.c **** __weak bool STO_PLL_CalcAvrgMecSpeedUnit(STO_PLL_Handle_t *pHandle, int16_t *pMecSpeedUnit)
 396:MCSDK_v6.3.2-Full/MotorControl/MCSDK/MCLib/Any/Src/sto_pll_speed_pos_fdbk.c **** {
 397:MCSDK_v6.3.2-Full/MotorControl/MCSDK/MCLib/Any/Src/sto_pll_speed_pos_fdbk.c ****   bool bAux;
 398:MCSDK_v6.3.2-Full/MotorControl/MCSDK/MCLib/Any/Src/sto_pll_speed_pos_fdbk.c **** #ifdef NULL_PTR_CHECK_STO_PLL_SPD_POS_FDB
 399:MCSDK_v6.3.2-Full/MotorControl/MCSDK/MCLib/Any/Src/sto_pll_speed_pos_fdbk.c ****   if ((MC_NULL == pHandle) || (MC_NULL == pMecSpeedUnit))
 400:MCSDK_v6.3.2-Full/MotorControl/MCSDK/MCLib/Any/Src/sto_pll_speed_pos_fdbk.c ****   {
 401:MCSDK_v6.3.2-Full/MotorControl/MCSDK/MCLib/Any/Src/sto_pll_speed_pos_fdbk.c ****     bAux = false;
 402:MCSDK_v6.3.2-Full/MotorControl/MCSDK/MCLib/Any/Src/sto_pll_speed_pos_fdbk.c ****   }
 403:MCSDK_v6.3.2-Full/MotorControl/MCSDK/MCLib/Any/Src/sto_pll_speed_pos_fdbk.c ****   else
 404:MCSDK_v6.3.2-Full/MotorControl/MCSDK/MCLib/Any/Src/sto_pll_speed_pos_fdbk.c ****   {
 405:MCSDK_v6.3.2-Full/MotorControl/MCSDK/MCLib/Any/Src/sto_pll_speed_pos_fdbk.c **** #endif
 406:MCSDK_v6.3.2-Full/MotorControl/MCSDK/MCLib/Any/Src/sto_pll_speed_pos_fdbk.c ****     int32_t wAvrSpeed_dpp = (int32_t)0;
 407:MCSDK_v6.3.2-Full/MotorControl/MCSDK/MCLib/Any/Src/sto_pll_speed_pos_fdbk.c ****     int32_t wError;
 408:MCSDK_v6.3.2-Full/MotorControl/MCSDK/MCLib/Any/Src/sto_pll_speed_pos_fdbk.c ****     int32_t wAux;
 409:MCSDK_v6.3.2-Full/MotorControl/MCSDK/MCLib/Any/Src/sto_pll_speed_pos_fdbk.c ****     int32_t wAvrSquareSpeed;
 410:MCSDK_v6.3.2-Full/MotorControl/MCSDK/MCLib/Any/Src/sto_pll_speed_pos_fdbk.c ****     int32_t wAvrQuadraticError = 0;
 411:MCSDK_v6.3.2-Full/MotorControl/MCSDK/MCLib/Any/Src/sto_pll_speed_pos_fdbk.c ****     int32_t wObsBemf, wEstBemf;
 412:MCSDK_v6.3.2-Full/MotorControl/MCSDK/MCLib/Any/Src/sto_pll_speed_pos_fdbk.c ****     int32_t wObsBemfSq = 0;
 413:MCSDK_v6.3.2-Full/MotorControl/MCSDK/MCLib/Any/Src/sto_pll_speed_pos_fdbk.c ****     int32_t wEstBemfSq = 0;
 414:MCSDK_v6.3.2-Full/MotorControl/MCSDK/MCLib/Any/Src/sto_pll_speed_pos_fdbk.c ****     int32_t wEstBemfSqLo;
 415:MCSDK_v6.3.2-Full/MotorControl/MCSDK/MCLib/Any/Src/sto_pll_speed_pos_fdbk.c ****     bool bIs_Speed_Reliable = false;
 416:MCSDK_v6.3.2-Full/MotorControl/MCSDK/MCLib/Any/Src/sto_pll_speed_pos_fdbk.c ****     bool bIs_Bemf_Consistent = false;
 417:MCSDK_v6.3.2-Full/MotorControl/MCSDK/MCLib/Any/Src/sto_pll_speed_pos_fdbk.c ****     uint8_t i, bSpeedBufferSizeUnit = pHandle->SpeedBufferSizeUnit;
 418:MCSDK_v6.3.2-Full/MotorControl/MCSDK/MCLib/Any/Src/sto_pll_speed_pos_fdbk.c **** 
 419:MCSDK_v6.3.2-Full/MotorControl/MCSDK/MCLib/Any/Src/sto_pll_speed_pos_fdbk.c ****     for (i = 0U; i < bSpeedBufferSizeUnit; i++)
 420:MCSDK_v6.3.2-Full/MotorControl/MCSDK/MCLib/Any/Src/sto_pll_speed_pos_fdbk.c ****     {
 421:MCSDK_v6.3.2-Full/MotorControl/MCSDK/MCLib/Any/Src/sto_pll_speed_pos_fdbk.c ****       wAvrSpeed_dpp += (int32_t)(pHandle->Speed_Buffer[i]);
 422:MCSDK_v6.3.2-Full/MotorControl/MCSDK/MCLib/Any/Src/sto_pll_speed_pos_fdbk.c ****     }
 423:MCSDK_v6.3.2-Full/MotorControl/MCSDK/MCLib/Any/Src/sto_pll_speed_pos_fdbk.c **** 
 424:MCSDK_v6.3.2-Full/MotorControl/MCSDK/MCLib/Any/Src/sto_pll_speed_pos_fdbk.c ****     if (0U == bSpeedBufferSizeUnit)
ARM GAS  /tmp/ccNNILil.s 			page 15


 425:MCSDK_v6.3.2-Full/MotorControl/MCSDK/MCLib/Any/Src/sto_pll_speed_pos_fdbk.c ****     {
 426:MCSDK_v6.3.2-Full/MotorControl/MCSDK/MCLib/Any/Src/sto_pll_speed_pos_fdbk.c ****       /* Nothing to do */
 427:MCSDK_v6.3.2-Full/MotorControl/MCSDK/MCLib/Any/Src/sto_pll_speed_pos_fdbk.c ****     }
 428:MCSDK_v6.3.2-Full/MotorControl/MCSDK/MCLib/Any/Src/sto_pll_speed_pos_fdbk.c ****     else
 429:MCSDK_v6.3.2-Full/MotorControl/MCSDK/MCLib/Any/Src/sto_pll_speed_pos_fdbk.c ****     {
 430:MCSDK_v6.3.2-Full/MotorControl/MCSDK/MCLib/Any/Src/sto_pll_speed_pos_fdbk.c ****       wAvrSpeed_dpp = wAvrSpeed_dpp / ((int16_t)bSpeedBufferSizeUnit);
 431:MCSDK_v6.3.2-Full/MotorControl/MCSDK/MCLib/Any/Src/sto_pll_speed_pos_fdbk.c ****     }
 432:MCSDK_v6.3.2-Full/MotorControl/MCSDK/MCLib/Any/Src/sto_pll_speed_pos_fdbk.c **** 
 433:MCSDK_v6.3.2-Full/MotorControl/MCSDK/MCLib/Any/Src/sto_pll_speed_pos_fdbk.c ****     for (i = 0U; i < bSpeedBufferSizeUnit; i++)
 434:MCSDK_v6.3.2-Full/MotorControl/MCSDK/MCLib/Any/Src/sto_pll_speed_pos_fdbk.c ****     {
 435:MCSDK_v6.3.2-Full/MotorControl/MCSDK/MCLib/Any/Src/sto_pll_speed_pos_fdbk.c ****       wError = ((int32_t)pHandle->Speed_Buffer[i]) - wAvrSpeed_dpp;
 436:MCSDK_v6.3.2-Full/MotorControl/MCSDK/MCLib/Any/Src/sto_pll_speed_pos_fdbk.c ****       wError = (wError * wError);
 437:MCSDK_v6.3.2-Full/MotorControl/MCSDK/MCLib/Any/Src/sto_pll_speed_pos_fdbk.c ****       wAvrQuadraticError += wError;
 438:MCSDK_v6.3.2-Full/MotorControl/MCSDK/MCLib/Any/Src/sto_pll_speed_pos_fdbk.c ****     }
 439:MCSDK_v6.3.2-Full/MotorControl/MCSDK/MCLib/Any/Src/sto_pll_speed_pos_fdbk.c **** 
 440:MCSDK_v6.3.2-Full/MotorControl/MCSDK/MCLib/Any/Src/sto_pll_speed_pos_fdbk.c ****     /* It computes the measurement variance */
 441:MCSDK_v6.3.2-Full/MotorControl/MCSDK/MCLib/Any/Src/sto_pll_speed_pos_fdbk.c ****     wAvrQuadraticError = wAvrQuadraticError / ((int16_t)bSpeedBufferSizeUnit);
 442:MCSDK_v6.3.2-Full/MotorControl/MCSDK/MCLib/Any/Src/sto_pll_speed_pos_fdbk.c **** 
 443:MCSDK_v6.3.2-Full/MotorControl/MCSDK/MCLib/Any/Src/sto_pll_speed_pos_fdbk.c ****     /* The maximum variance acceptable is here calculated as a function of average speed */
 444:MCSDK_v6.3.2-Full/MotorControl/MCSDK/MCLib/Any/Src/sto_pll_speed_pos_fdbk.c ****     wAvrSquareSpeed = wAvrSpeed_dpp * wAvrSpeed_dpp;
 445:MCSDK_v6.3.2-Full/MotorControl/MCSDK/MCLib/Any/Src/sto_pll_speed_pos_fdbk.c ****     int64_t lAvrSquareSpeed = (int64_t)(wAvrSquareSpeed) * (int64_t)pHandle->VariancePercentage;
 446:MCSDK_v6.3.2-Full/MotorControl/MCSDK/MCLib/Any/Src/sto_pll_speed_pos_fdbk.c ****     wAvrSquareSpeed = (int32_t)(lAvrSquareSpeed / (int64_t)128);
 447:MCSDK_v6.3.2-Full/MotorControl/MCSDK/MCLib/Any/Src/sto_pll_speed_pos_fdbk.c ****     
 448:MCSDK_v6.3.2-Full/MotorControl/MCSDK/MCLib/Any/Src/sto_pll_speed_pos_fdbk.c ****     if (wAvrQuadraticError < wAvrSquareSpeed)
 449:MCSDK_v6.3.2-Full/MotorControl/MCSDK/MCLib/Any/Src/sto_pll_speed_pos_fdbk.c ****     {
 450:MCSDK_v6.3.2-Full/MotorControl/MCSDK/MCLib/Any/Src/sto_pll_speed_pos_fdbk.c ****       bIs_Speed_Reliable = true;
 451:MCSDK_v6.3.2-Full/MotorControl/MCSDK/MCLib/Any/Src/sto_pll_speed_pos_fdbk.c ****     }
 452:MCSDK_v6.3.2-Full/MotorControl/MCSDK/MCLib/Any/Src/sto_pll_speed_pos_fdbk.c **** 
 453:MCSDK_v6.3.2-Full/MotorControl/MCSDK/MCLib/Any/Src/sto_pll_speed_pos_fdbk.c ****     /* Computation of Mechanical speed Unit */
 454:MCSDK_v6.3.2-Full/MotorControl/MCSDK/MCLib/Any/Src/sto_pll_speed_pos_fdbk.c ****     wAux = wAvrSpeed_dpp * ((int32_t)pHandle->_Super.hMeasurementFrequency);
 455:MCSDK_v6.3.2-Full/MotorControl/MCSDK/MCLib/Any/Src/sto_pll_speed_pos_fdbk.c ****     wAux = wAux * ((int32_t)pHandle->_Super.SpeedUnit);
 456:MCSDK_v6.3.2-Full/MotorControl/MCSDK/MCLib/Any/Src/sto_pll_speed_pos_fdbk.c ****     wAux = wAux / ((int32_t)pHandle->_Super.DPPConvFactor);
 457:MCSDK_v6.3.2-Full/MotorControl/MCSDK/MCLib/Any/Src/sto_pll_speed_pos_fdbk.c ****     wAux = wAux / ((int16_t)pHandle->_Super.bElToMecRatio);
 458:MCSDK_v6.3.2-Full/MotorControl/MCSDK/MCLib/Any/Src/sto_pll_speed_pos_fdbk.c **** 
 459:MCSDK_v6.3.2-Full/MotorControl/MCSDK/MCLib/Any/Src/sto_pll_speed_pos_fdbk.c ****     *pMecSpeedUnit = (int16_t)wAux;
 460:MCSDK_v6.3.2-Full/MotorControl/MCSDK/MCLib/Any/Src/sto_pll_speed_pos_fdbk.c ****     pHandle->_Super.hAvrMecSpeedUnit = (int16_t)wAux;
 461:MCSDK_v6.3.2-Full/MotorControl/MCSDK/MCLib/Any/Src/sto_pll_speed_pos_fdbk.c **** 
 462:MCSDK_v6.3.2-Full/MotorControl/MCSDK/MCLib/Any/Src/sto_pll_speed_pos_fdbk.c ****     pHandle->IsSpeedReliable = bIs_Speed_Reliable;
 463:MCSDK_v6.3.2-Full/MotorControl/MCSDK/MCLib/Any/Src/sto_pll_speed_pos_fdbk.c **** 
 464:MCSDK_v6.3.2-Full/MotorControl/MCSDK/MCLib/Any/Src/sto_pll_speed_pos_fdbk.c ****     /* Bemf Consistency Check algorithm */
 465:MCSDK_v6.3.2-Full/MotorControl/MCSDK/MCLib/Any/Src/sto_pll_speed_pos_fdbk.c ****     if (true == pHandle->EnableDualCheck) /* Do algorithm if it's enabled */
 466:MCSDK_v6.3.2-Full/MotorControl/MCSDK/MCLib/Any/Src/sto_pll_speed_pos_fdbk.c ****     {
 467:MCSDK_v6.3.2-Full/MotorControl/MCSDK/MCLib/Any/Src/sto_pll_speed_pos_fdbk.c ****       /* wAux abs value */
 468:MCSDK_v6.3.2-Full/MotorControl/MCSDK/MCLib/Any/Src/sto_pll_speed_pos_fdbk.c ****       //cstat !MISRAC2012-Rule-14.3_b !RED-func-no-effect !RED-cmp-never !RED-cond-never
 469:MCSDK_v6.3.2-Full/MotorControl/MCSDK/MCLib/Any/Src/sto_pll_speed_pos_fdbk.c ****       wAux = ((wAux < 0) ? (-wAux) : (wAux));
 470:MCSDK_v6.3.2-Full/MotorControl/MCSDK/MCLib/Any/Src/sto_pll_speed_pos_fdbk.c ****       if (wAux < (int32_t)(pHandle->MaxAppPositiveMecSpeedUnit))
 471:MCSDK_v6.3.2-Full/MotorControl/MCSDK/MCLib/Any/Src/sto_pll_speed_pos_fdbk.c ****       {
 472:MCSDK_v6.3.2-Full/MotorControl/MCSDK/MCLib/Any/Src/sto_pll_speed_pos_fdbk.c ****         /* Computation of Observed back-emf */
 473:MCSDK_v6.3.2-Full/MotorControl/MCSDK/MCLib/Any/Src/sto_pll_speed_pos_fdbk.c ****         wObsBemf = (int32_t)pHandle->hBemf_alfa_est;
 474:MCSDK_v6.3.2-Full/MotorControl/MCSDK/MCLib/Any/Src/sto_pll_speed_pos_fdbk.c ****         wObsBemfSq = wObsBemf * wObsBemf;
 475:MCSDK_v6.3.2-Full/MotorControl/MCSDK/MCLib/Any/Src/sto_pll_speed_pos_fdbk.c ****         wObsBemf = (int32_t)pHandle->hBemf_beta_est;
 476:MCSDK_v6.3.2-Full/MotorControl/MCSDK/MCLib/Any/Src/sto_pll_speed_pos_fdbk.c ****         wObsBemfSq += wObsBemf * wObsBemf;
 477:MCSDK_v6.3.2-Full/MotorControl/MCSDK/MCLib/Any/Src/sto_pll_speed_pos_fdbk.c **** 
 478:MCSDK_v6.3.2-Full/MotorControl/MCSDK/MCLib/Any/Src/sto_pll_speed_pos_fdbk.c ****         /* Computation of Estimated back-emf */
 479:MCSDK_v6.3.2-Full/MotorControl/MCSDK/MCLib/Any/Src/sto_pll_speed_pos_fdbk.c ****         wEstBemf = (wAux * 32767) / ((int16_t)pHandle->_Super.hMaxReliableMecSpeedUnit);
 480:MCSDK_v6.3.2-Full/MotorControl/MCSDK/MCLib/Any/Src/sto_pll_speed_pos_fdbk.c ****         wEstBemfSq = (wEstBemf * ((int32_t)pHandle->BemfConsistencyGain)) / 64;
 481:MCSDK_v6.3.2-Full/MotorControl/MCSDK/MCLib/Any/Src/sto_pll_speed_pos_fdbk.c ****         wEstBemfSq *= wEstBemf;
ARM GAS  /tmp/ccNNILil.s 			page 16


 482:MCSDK_v6.3.2-Full/MotorControl/MCSDK/MCLib/Any/Src/sto_pll_speed_pos_fdbk.c **** 
 483:MCSDK_v6.3.2-Full/MotorControl/MCSDK/MCLib/Any/Src/sto_pll_speed_pos_fdbk.c ****         /* Computation of threshold */
 484:MCSDK_v6.3.2-Full/MotorControl/MCSDK/MCLib/Any/Src/sto_pll_speed_pos_fdbk.c ****         wEstBemfSqLo = wEstBemfSq - ((wEstBemfSq / 64) * ((int32_t)pHandle->BemfConsistencyCheck));
 485:MCSDK_v6.3.2-Full/MotorControl/MCSDK/MCLib/Any/Src/sto_pll_speed_pos_fdbk.c **** 
 486:MCSDK_v6.3.2-Full/MotorControl/MCSDK/MCLib/Any/Src/sto_pll_speed_pos_fdbk.c ****         /* Check */
 487:MCSDK_v6.3.2-Full/MotorControl/MCSDK/MCLib/Any/Src/sto_pll_speed_pos_fdbk.c ****         if (wObsBemfSq > wEstBemfSqLo)
 488:MCSDK_v6.3.2-Full/MotorControl/MCSDK/MCLib/Any/Src/sto_pll_speed_pos_fdbk.c ****         {
 489:MCSDK_v6.3.2-Full/MotorControl/MCSDK/MCLib/Any/Src/sto_pll_speed_pos_fdbk.c ****           bIs_Bemf_Consistent = true;
 490:MCSDK_v6.3.2-Full/MotorControl/MCSDK/MCLib/Any/Src/sto_pll_speed_pos_fdbk.c ****         }
 491:MCSDK_v6.3.2-Full/MotorControl/MCSDK/MCLib/Any/Src/sto_pll_speed_pos_fdbk.c ****         else
 492:MCSDK_v6.3.2-Full/MotorControl/MCSDK/MCLib/Any/Src/sto_pll_speed_pos_fdbk.c ****         {
 493:MCSDK_v6.3.2-Full/MotorControl/MCSDK/MCLib/Any/Src/sto_pll_speed_pos_fdbk.c ****           /* Nothing to do */
 494:MCSDK_v6.3.2-Full/MotorControl/MCSDK/MCLib/Any/Src/sto_pll_speed_pos_fdbk.c ****         }
 495:MCSDK_v6.3.2-Full/MotorControl/MCSDK/MCLib/Any/Src/sto_pll_speed_pos_fdbk.c ****       }
 496:MCSDK_v6.3.2-Full/MotorControl/MCSDK/MCLib/Any/Src/sto_pll_speed_pos_fdbk.c **** 
 497:MCSDK_v6.3.2-Full/MotorControl/MCSDK/MCLib/Any/Src/sto_pll_speed_pos_fdbk.c ****       pHandle->IsBemfConsistent = bIs_Bemf_Consistent;
 498:MCSDK_v6.3.2-Full/MotorControl/MCSDK/MCLib/Any/Src/sto_pll_speed_pos_fdbk.c ****       pHandle->Obs_Bemf_Level = wObsBemfSq;
 499:MCSDK_v6.3.2-Full/MotorControl/MCSDK/MCLib/Any/Src/sto_pll_speed_pos_fdbk.c ****       pHandle->Est_Bemf_Level = wEstBemfSq;
 500:MCSDK_v6.3.2-Full/MotorControl/MCSDK/MCLib/Any/Src/sto_pll_speed_pos_fdbk.c ****     }
 501:MCSDK_v6.3.2-Full/MotorControl/MCSDK/MCLib/Any/Src/sto_pll_speed_pos_fdbk.c ****     else
 502:MCSDK_v6.3.2-Full/MotorControl/MCSDK/MCLib/Any/Src/sto_pll_speed_pos_fdbk.c ****     {
 503:MCSDK_v6.3.2-Full/MotorControl/MCSDK/MCLib/Any/Src/sto_pll_speed_pos_fdbk.c ****       bIs_Bemf_Consistent = true;
 504:MCSDK_v6.3.2-Full/MotorControl/MCSDK/MCLib/Any/Src/sto_pll_speed_pos_fdbk.c ****     }
 505:MCSDK_v6.3.2-Full/MotorControl/MCSDK/MCLib/Any/Src/sto_pll_speed_pos_fdbk.c **** 
 506:MCSDK_v6.3.2-Full/MotorControl/MCSDK/MCLib/Any/Src/sto_pll_speed_pos_fdbk.c ****     /* Decision making */
 507:MCSDK_v6.3.2-Full/MotorControl/MCSDK/MCLib/Any/Src/sto_pll_speed_pos_fdbk.c ****     if (false == pHandle->IsAlgorithmConverged)
 508:MCSDK_v6.3.2-Full/MotorControl/MCSDK/MCLib/Any/Src/sto_pll_speed_pos_fdbk.c ****     {
 509:MCSDK_v6.3.2-Full/MotorControl/MCSDK/MCLib/Any/Src/sto_pll_speed_pos_fdbk.c ****       bAux = SPD_IsMecSpeedReliable (&pHandle->_Super, pMecSpeedUnit);
 510:MCSDK_v6.3.2-Full/MotorControl/MCSDK/MCLib/Any/Src/sto_pll_speed_pos_fdbk.c ****     }
 511:MCSDK_v6.3.2-Full/MotorControl/MCSDK/MCLib/Any/Src/sto_pll_speed_pos_fdbk.c ****     else
 512:MCSDK_v6.3.2-Full/MotorControl/MCSDK/MCLib/Any/Src/sto_pll_speed_pos_fdbk.c ****     {
 513:MCSDK_v6.3.2-Full/MotorControl/MCSDK/MCLib/Any/Src/sto_pll_speed_pos_fdbk.c ****       if ((false == pHandle->IsSpeedReliable) || (false == bIs_Bemf_Consistent))
 514:MCSDK_v6.3.2-Full/MotorControl/MCSDK/MCLib/Any/Src/sto_pll_speed_pos_fdbk.c ****       {
 515:MCSDK_v6.3.2-Full/MotorControl/MCSDK/MCLib/Any/Src/sto_pll_speed_pos_fdbk.c ****         pHandle->ReliabilityCounter++;
 516:MCSDK_v6.3.2-Full/MotorControl/MCSDK/MCLib/Any/Src/sto_pll_speed_pos_fdbk.c ****         if (pHandle->ReliabilityCounter >= pHandle->_Super.bMaximumSpeedErrorsNumber)
 517:MCSDK_v6.3.2-Full/MotorControl/MCSDK/MCLib/Any/Src/sto_pll_speed_pos_fdbk.c ****         {
 518:MCSDK_v6.3.2-Full/MotorControl/MCSDK/MCLib/Any/Src/sto_pll_speed_pos_fdbk.c ****           pHandle->ReliabilityCounter = 0U;
 519:MCSDK_v6.3.2-Full/MotorControl/MCSDK/MCLib/Any/Src/sto_pll_speed_pos_fdbk.c ****           pHandle->_Super.bSpeedErrorNumber = pHandle->_Super.bMaximumSpeedErrorsNumber;
 520:MCSDK_v6.3.2-Full/MotorControl/MCSDK/MCLib/Any/Src/sto_pll_speed_pos_fdbk.c ****           bAux = false;
 521:MCSDK_v6.3.2-Full/MotorControl/MCSDK/MCLib/Any/Src/sto_pll_speed_pos_fdbk.c ****         }
 522:MCSDK_v6.3.2-Full/MotorControl/MCSDK/MCLib/Any/Src/sto_pll_speed_pos_fdbk.c ****         else
 523:MCSDK_v6.3.2-Full/MotorControl/MCSDK/MCLib/Any/Src/sto_pll_speed_pos_fdbk.c ****         {
 524:MCSDK_v6.3.2-Full/MotorControl/MCSDK/MCLib/Any/Src/sto_pll_speed_pos_fdbk.c ****           bAux = SPD_IsMecSpeedReliable (&pHandle->_Super, pMecSpeedUnit);
 525:MCSDK_v6.3.2-Full/MotorControl/MCSDK/MCLib/Any/Src/sto_pll_speed_pos_fdbk.c ****         }
 526:MCSDK_v6.3.2-Full/MotorControl/MCSDK/MCLib/Any/Src/sto_pll_speed_pos_fdbk.c ****       }
 527:MCSDK_v6.3.2-Full/MotorControl/MCSDK/MCLib/Any/Src/sto_pll_speed_pos_fdbk.c ****       else
 528:MCSDK_v6.3.2-Full/MotorControl/MCSDK/MCLib/Any/Src/sto_pll_speed_pos_fdbk.c ****       {
 529:MCSDK_v6.3.2-Full/MotorControl/MCSDK/MCLib/Any/Src/sto_pll_speed_pos_fdbk.c ****         pHandle->ReliabilityCounter = 0U;
 530:MCSDK_v6.3.2-Full/MotorControl/MCSDK/MCLib/Any/Src/sto_pll_speed_pos_fdbk.c ****         bAux = SPD_IsMecSpeedReliable (&pHandle->_Super, pMecSpeedUnit);
 531:MCSDK_v6.3.2-Full/MotorControl/MCSDK/MCLib/Any/Src/sto_pll_speed_pos_fdbk.c ****       }
 532:MCSDK_v6.3.2-Full/MotorControl/MCSDK/MCLib/Any/Src/sto_pll_speed_pos_fdbk.c ****     }
 533:MCSDK_v6.3.2-Full/MotorControl/MCSDK/MCLib/Any/Src/sto_pll_speed_pos_fdbk.c **** #ifdef NULL_PTR_CHECK_STO_PLL_SPD_POS_FDB
 534:MCSDK_v6.3.2-Full/MotorControl/MCSDK/MCLib/Any/Src/sto_pll_speed_pos_fdbk.c ****   }
 535:MCSDK_v6.3.2-Full/MotorControl/MCSDK/MCLib/Any/Src/sto_pll_speed_pos_fdbk.c **** #endif
 536:MCSDK_v6.3.2-Full/MotorControl/MCSDK/MCLib/Any/Src/sto_pll_speed_pos_fdbk.c ****   return (bAux);
 537:MCSDK_v6.3.2-Full/MotorControl/MCSDK/MCLib/Any/Src/sto_pll_speed_pos_fdbk.c **** }
 538:MCSDK_v6.3.2-Full/MotorControl/MCSDK/MCLib/Any/Src/sto_pll_speed_pos_fdbk.c **** 
ARM GAS  /tmp/ccNNILil.s 			page 17


 539:MCSDK_v6.3.2-Full/MotorControl/MCSDK/MCLib/Any/Src/sto_pll_speed_pos_fdbk.c **** #if defined (CCMRAM)
 540:MCSDK_v6.3.2-Full/MotorControl/MCSDK/MCLib/Any/Src/sto_pll_speed_pos_fdbk.c **** #if defined (__ICCARM__)
 541:MCSDK_v6.3.2-Full/MotorControl/MCSDK/MCLib/Any/Src/sto_pll_speed_pos_fdbk.c **** #pragma location = ".ccmram"
 542:MCSDK_v6.3.2-Full/MotorControl/MCSDK/MCLib/Any/Src/sto_pll_speed_pos_fdbk.c **** #elif defined (__CC_ARM) || defined(__GNUC__)
 543:MCSDK_v6.3.2-Full/MotorControl/MCSDK/MCLib/Any/Src/sto_pll_speed_pos_fdbk.c **** __attribute__( ( section ( ".ccmram" ) ) )
 544:MCSDK_v6.3.2-Full/MotorControl/MCSDK/MCLib/Any/Src/sto_pll_speed_pos_fdbk.c **** #endif
 545:MCSDK_v6.3.2-Full/MotorControl/MCSDK/MCLib/Any/Src/sto_pll_speed_pos_fdbk.c **** #endif
 546:MCSDK_v6.3.2-Full/MotorControl/MCSDK/MCLib/Any/Src/sto_pll_speed_pos_fdbk.c **** /**
 547:MCSDK_v6.3.2-Full/MotorControl/MCSDK/MCLib/Any/Src/sto_pll_speed_pos_fdbk.c ****   * @brief  Computes and updates the average electrical speed.
 548:MCSDK_v6.3.2-Full/MotorControl/MCSDK/MCLib/Any/Src/sto_pll_speed_pos_fdbk.c ****   * 
 549:MCSDK_v6.3.2-Full/MotorControl/MCSDK/MCLib/Any/Src/sto_pll_speed_pos_fdbk.c ****   * This method must be called - at least - with the same periodicity
 550:MCSDK_v6.3.2-Full/MotorControl/MCSDK/MCLib/Any/Src/sto_pll_speed_pos_fdbk.c ****   * on which speed control is executed. It computes and update component
 551:MCSDK_v6.3.2-Full/MotorControl/MCSDK/MCLib/Any/Src/sto_pll_speed_pos_fdbk.c ****   * variable hElSpeedDpp that is estimated average electrical speed
 552:MCSDK_v6.3.2-Full/MotorControl/MCSDK/MCLib/Any/Src/sto_pll_speed_pos_fdbk.c ****   * expressed in dpp used for instance in observer equations.
 553:MCSDK_v6.3.2-Full/MotorControl/MCSDK/MCLib/Any/Src/sto_pll_speed_pos_fdbk.c ****   * Average is computed considering a FIFO depth equal to
 554:MCSDK_v6.3.2-Full/MotorControl/MCSDK/MCLib/Any/Src/sto_pll_speed_pos_fdbk.c ****   * bSpeedBufferSizedpp.
 555:MCSDK_v6.3.2-Full/MotorControl/MCSDK/MCLib/Any/Src/sto_pll_speed_pos_fdbk.c ****   * 
 556:MCSDK_v6.3.2-Full/MotorControl/MCSDK/MCLib/Any/Src/sto_pll_speed_pos_fdbk.c ****   * @param  pHandle: Handler of the current instance of the STO component.
 557:MCSDK_v6.3.2-Full/MotorControl/MCSDK/MCLib/Any/Src/sto_pll_speed_pos_fdbk.c ****   */
 558:MCSDK_v6.3.2-Full/MotorControl/MCSDK/MCLib/Any/Src/sto_pll_speed_pos_fdbk.c **** __weak void STO_PLL_CalcAvrgElSpeedDpp(STO_PLL_Handle_t *pHandle)
 559:MCSDK_v6.3.2-Full/MotorControl/MCSDK/MCLib/Any/Src/sto_pll_speed_pos_fdbk.c **** {
 560:MCSDK_v6.3.2-Full/MotorControl/MCSDK/MCLib/Any/Src/sto_pll_speed_pos_fdbk.c **** #ifdef NULL_PTR_CHECK_STO_PLL_SPD_POS_FDB
 561:MCSDK_v6.3.2-Full/MotorControl/MCSDK/MCLib/Any/Src/sto_pll_speed_pos_fdbk.c ****   if (MC_NULL == pHandle)
 562:MCSDK_v6.3.2-Full/MotorControl/MCSDK/MCLib/Any/Src/sto_pll_speed_pos_fdbk.c ****   {
 563:MCSDK_v6.3.2-Full/MotorControl/MCSDK/MCLib/Any/Src/sto_pll_speed_pos_fdbk.c ****     /* Nothing to do */
 564:MCSDK_v6.3.2-Full/MotorControl/MCSDK/MCLib/Any/Src/sto_pll_speed_pos_fdbk.c ****   }
 565:MCSDK_v6.3.2-Full/MotorControl/MCSDK/MCLib/Any/Src/sto_pll_speed_pos_fdbk.c ****   else
 566:MCSDK_v6.3.2-Full/MotorControl/MCSDK/MCLib/Any/Src/sto_pll_speed_pos_fdbk.c ****   {
 567:MCSDK_v6.3.2-Full/MotorControl/MCSDK/MCLib/Any/Src/sto_pll_speed_pos_fdbk.c **** #endif
 568:MCSDK_v6.3.2-Full/MotorControl/MCSDK/MCLib/Any/Src/sto_pll_speed_pos_fdbk.c ****     int32_t wSum = pHandle->DppBufferSum;
 569:MCSDK_v6.3.2-Full/MotorControl/MCSDK/MCLib/Any/Src/sto_pll_speed_pos_fdbk.c ****     int32_t wAvrSpeed_dpp;
 570:MCSDK_v6.3.2-Full/MotorControl/MCSDK/MCLib/Any/Src/sto_pll_speed_pos_fdbk.c ****     int16_t hSpeedBufferSizedpp = (int16_t)pHandle->SpeedBufferSizeDpp;
 571:MCSDK_v6.3.2-Full/MotorControl/MCSDK/MCLib/Any/Src/sto_pll_speed_pos_fdbk.c ****     int16_t hSpeedBufferSizeUnit = (int16_t)pHandle->SpeedBufferSizeUnit;
 572:MCSDK_v6.3.2-Full/MotorControl/MCSDK/MCLib/Any/Src/sto_pll_speed_pos_fdbk.c ****     int16_t hBufferSizeDiff;
 573:MCSDK_v6.3.2-Full/MotorControl/MCSDK/MCLib/Any/Src/sto_pll_speed_pos_fdbk.c ****     int16_t hIndexNew = (int16_t)pHandle->Speed_Buffer_Index;
 574:MCSDK_v6.3.2-Full/MotorControl/MCSDK/MCLib/Any/Src/sto_pll_speed_pos_fdbk.c ****     int16_t hIndexOld;
 575:MCSDK_v6.3.2-Full/MotorControl/MCSDK/MCLib/Any/Src/sto_pll_speed_pos_fdbk.c ****     int16_t hIndexOldTemp;
 576:MCSDK_v6.3.2-Full/MotorControl/MCSDK/MCLib/Any/Src/sto_pll_speed_pos_fdbk.c **** 
 577:MCSDK_v6.3.2-Full/MotorControl/MCSDK/MCLib/Any/Src/sto_pll_speed_pos_fdbk.c ****     hBufferSizeDiff = hSpeedBufferSizeUnit - hSpeedBufferSizedpp;
 578:MCSDK_v6.3.2-Full/MotorControl/MCSDK/MCLib/Any/Src/sto_pll_speed_pos_fdbk.c **** 
 579:MCSDK_v6.3.2-Full/MotorControl/MCSDK/MCLib/Any/Src/sto_pll_speed_pos_fdbk.c ****     if (0 == hBufferSizeDiff)
 580:MCSDK_v6.3.2-Full/MotorControl/MCSDK/MCLib/Any/Src/sto_pll_speed_pos_fdbk.c ****     {
 581:MCSDK_v6.3.2-Full/MotorControl/MCSDK/MCLib/Any/Src/sto_pll_speed_pos_fdbk.c ****       wSum = wSum + pHandle->Speed_Buffer[hIndexNew] - pHandle->SpeedBufferOldestEl;
 582:MCSDK_v6.3.2-Full/MotorControl/MCSDK/MCLib/Any/Src/sto_pll_speed_pos_fdbk.c ****     }
 583:MCSDK_v6.3.2-Full/MotorControl/MCSDK/MCLib/Any/Src/sto_pll_speed_pos_fdbk.c ****     else
 584:MCSDK_v6.3.2-Full/MotorControl/MCSDK/MCLib/Any/Src/sto_pll_speed_pos_fdbk.c ****     {
 585:MCSDK_v6.3.2-Full/MotorControl/MCSDK/MCLib/Any/Src/sto_pll_speed_pos_fdbk.c ****       hIndexOldTemp = hIndexNew + hBufferSizeDiff;
 586:MCSDK_v6.3.2-Full/MotorControl/MCSDK/MCLib/Any/Src/sto_pll_speed_pos_fdbk.c **** 
 587:MCSDK_v6.3.2-Full/MotorControl/MCSDK/MCLib/Any/Src/sto_pll_speed_pos_fdbk.c ****       if (hIndexOldTemp >= hSpeedBufferSizeUnit)
 588:MCSDK_v6.3.2-Full/MotorControl/MCSDK/MCLib/Any/Src/sto_pll_speed_pos_fdbk.c ****       {
 589:MCSDK_v6.3.2-Full/MotorControl/MCSDK/MCLib/Any/Src/sto_pll_speed_pos_fdbk.c ****         hIndexOld = hIndexOldTemp - hSpeedBufferSizeUnit;
 590:MCSDK_v6.3.2-Full/MotorControl/MCSDK/MCLib/Any/Src/sto_pll_speed_pos_fdbk.c ****       }
 591:MCSDK_v6.3.2-Full/MotorControl/MCSDK/MCLib/Any/Src/sto_pll_speed_pos_fdbk.c ****       else
 592:MCSDK_v6.3.2-Full/MotorControl/MCSDK/MCLib/Any/Src/sto_pll_speed_pos_fdbk.c ****       {
 593:MCSDK_v6.3.2-Full/MotorControl/MCSDK/MCLib/Any/Src/sto_pll_speed_pos_fdbk.c ****         hIndexOld = hIndexOldTemp;
 594:MCSDK_v6.3.2-Full/MotorControl/MCSDK/MCLib/Any/Src/sto_pll_speed_pos_fdbk.c ****       }
 595:MCSDK_v6.3.2-Full/MotorControl/MCSDK/MCLib/Any/Src/sto_pll_speed_pos_fdbk.c **** 
ARM GAS  /tmp/ccNNILil.s 			page 18


 596:MCSDK_v6.3.2-Full/MotorControl/MCSDK/MCLib/Any/Src/sto_pll_speed_pos_fdbk.c ****       wSum = wSum + pHandle->Speed_Buffer[hIndexNew] - pHandle->Speed_Buffer[hIndexOld];
 597:MCSDK_v6.3.2-Full/MotorControl/MCSDK/MCLib/Any/Src/sto_pll_speed_pos_fdbk.c ****     }
 598:MCSDK_v6.3.2-Full/MotorControl/MCSDK/MCLib/Any/Src/sto_pll_speed_pos_fdbk.c **** 
 599:MCSDK_v6.3.2-Full/MotorControl/MCSDK/MCLib/Any/Src/sto_pll_speed_pos_fdbk.c **** #ifndef FULL_MISRA_C_COMPLIANCY_STO_PLL
 600:MCSDK_v6.3.2-Full/MotorControl/MCSDK/MCLib/Any/Src/sto_pll_speed_pos_fdbk.c ****   //cstat !MISRAC2012-Rule-1.3_n !ATH-shift-neg !MISRAC2012-Rule-10.1_R6
 601:MCSDK_v6.3.2-Full/MotorControl/MCSDK/MCLib/Any/Src/sto_pll_speed_pos_fdbk.c ****   wAvrSpeed_dpp = wSum >> pHandle->SpeedBufferSizeDppLOG;
 602:MCSDK_v6.3.2-Full/MotorControl/MCSDK/MCLib/Any/Src/sto_pll_speed_pos_fdbk.c **** #else
 603:MCSDK_v6.3.2-Full/MotorControl/MCSDK/MCLib/Any/Src/sto_pll_speed_pos_fdbk.c ****   if ((int16_t )0 == hSpeedBufferSizedpp)
 604:MCSDK_v6.3.2-Full/MotorControl/MCSDK/MCLib/Any/Src/sto_pll_speed_pos_fdbk.c ****   {
 605:MCSDK_v6.3.2-Full/MotorControl/MCSDK/MCLib/Any/Src/sto_pll_speed_pos_fdbk.c ****     /* Nothing to do */
 606:MCSDK_v6.3.2-Full/MotorControl/MCSDK/MCLib/Any/Src/sto_pll_speed_pos_fdbk.c ****     wAvrSpeed_dpp = wSum;
 607:MCSDK_v6.3.2-Full/MotorControl/MCSDK/MCLib/Any/Src/sto_pll_speed_pos_fdbk.c ****   }
 608:MCSDK_v6.3.2-Full/MotorControl/MCSDK/MCLib/Any/Src/sto_pll_speed_pos_fdbk.c ****   else
 609:MCSDK_v6.3.2-Full/MotorControl/MCSDK/MCLib/Any/Src/sto_pll_speed_pos_fdbk.c ****   {
 610:MCSDK_v6.3.2-Full/MotorControl/MCSDK/MCLib/Any/Src/sto_pll_speed_pos_fdbk.c ****     wAvrSpeed_dpp = wSum / hSpeedBufferSizedpp;
 611:MCSDK_v6.3.2-Full/MotorControl/MCSDK/MCLib/Any/Src/sto_pll_speed_pos_fdbk.c ****   }
 612:MCSDK_v6.3.2-Full/MotorControl/MCSDK/MCLib/Any/Src/sto_pll_speed_pos_fdbk.c **** #endif
 613:MCSDK_v6.3.2-Full/MotorControl/MCSDK/MCLib/Any/Src/sto_pll_speed_pos_fdbk.c ****     pHandle->_Super.hElSpeedDpp = (int16_t)wAvrSpeed_dpp;
 614:MCSDK_v6.3.2-Full/MotorControl/MCSDK/MCLib/Any/Src/sto_pll_speed_pos_fdbk.c ****     pHandle->DppBufferSum = wSum;
 615:MCSDK_v6.3.2-Full/MotorControl/MCSDK/MCLib/Any/Src/sto_pll_speed_pos_fdbk.c **** #ifdef NULL_PTR_CHECK_STO_PLL_SPD_POS_FDB
 616:MCSDK_v6.3.2-Full/MotorControl/MCSDK/MCLib/Any/Src/sto_pll_speed_pos_fdbk.c ****   }
 617:MCSDK_v6.3.2-Full/MotorControl/MCSDK/MCLib/Any/Src/sto_pll_speed_pos_fdbk.c **** #endif
 618:MCSDK_v6.3.2-Full/MotorControl/MCSDK/MCLib/Any/Src/sto_pll_speed_pos_fdbk.c **** }
 619:MCSDK_v6.3.2-Full/MotorControl/MCSDK/MCLib/Any/Src/sto_pll_speed_pos_fdbk.c **** 
 620:MCSDK_v6.3.2-Full/MotorControl/MCSDK/MCLib/Any/Src/sto_pll_speed_pos_fdbk.c **** /**
 621:MCSDK_v6.3.2-Full/MotorControl/MCSDK/MCLib/Any/Src/sto_pll_speed_pos_fdbk.c ****   * @brief  Clears state observer component by re-initializing private variables in @p pHandle.
 622:MCSDK_v6.3.2-Full/MotorControl/MCSDK/MCLib/Any/Src/sto_pll_speed_pos_fdbk.c ****   * 
 623:MCSDK_v6.3.2-Full/MotorControl/MCSDK/MCLib/Any/Src/sto_pll_speed_pos_fdbk.c ****   */
 624:MCSDK_v6.3.2-Full/MotorControl/MCSDK/MCLib/Any/Src/sto_pll_speed_pos_fdbk.c **** __weak void STO_PLL_Clear(STO_PLL_Handle_t *pHandle)
 625:MCSDK_v6.3.2-Full/MotorControl/MCSDK/MCLib/Any/Src/sto_pll_speed_pos_fdbk.c **** {
 626:MCSDK_v6.3.2-Full/MotorControl/MCSDK/MCLib/Any/Src/sto_pll_speed_pos_fdbk.c **** #ifdef NULL_PTR_CHECK_STO_PLL_SPD_POS_FDB
 627:MCSDK_v6.3.2-Full/MotorControl/MCSDK/MCLib/Any/Src/sto_pll_speed_pos_fdbk.c ****   if (MC_NULL == pHandle)
 628:MCSDK_v6.3.2-Full/MotorControl/MCSDK/MCLib/Any/Src/sto_pll_speed_pos_fdbk.c ****   {
 629:MCSDK_v6.3.2-Full/MotorControl/MCSDK/MCLib/Any/Src/sto_pll_speed_pos_fdbk.c ****     /* Nothing to do */
 630:MCSDK_v6.3.2-Full/MotorControl/MCSDK/MCLib/Any/Src/sto_pll_speed_pos_fdbk.c ****   }
 631:MCSDK_v6.3.2-Full/MotorControl/MCSDK/MCLib/Any/Src/sto_pll_speed_pos_fdbk.c ****   else
 632:MCSDK_v6.3.2-Full/MotorControl/MCSDK/MCLib/Any/Src/sto_pll_speed_pos_fdbk.c ****   {
 633:MCSDK_v6.3.2-Full/MotorControl/MCSDK/MCLib/Any/Src/sto_pll_speed_pos_fdbk.c **** #endif
 634:MCSDK_v6.3.2-Full/MotorControl/MCSDK/MCLib/Any/Src/sto_pll_speed_pos_fdbk.c ****     pHandle->Ialfa_est = (int32_t)0;
 635:MCSDK_v6.3.2-Full/MotorControl/MCSDK/MCLib/Any/Src/sto_pll_speed_pos_fdbk.c ****     pHandle->Ibeta_est = (int32_t)0;
 636:MCSDK_v6.3.2-Full/MotorControl/MCSDK/MCLib/Any/Src/sto_pll_speed_pos_fdbk.c ****     pHandle->wBemf_alfa_est = (int32_t)0;
 637:MCSDK_v6.3.2-Full/MotorControl/MCSDK/MCLib/Any/Src/sto_pll_speed_pos_fdbk.c ****     pHandle->wBemf_beta_est = (int32_t)0;
 638:MCSDK_v6.3.2-Full/MotorControl/MCSDK/MCLib/Any/Src/sto_pll_speed_pos_fdbk.c ****     pHandle->_Super.hElAngle = (int16_t)0;
 639:MCSDK_v6.3.2-Full/MotorControl/MCSDK/MCLib/Any/Src/sto_pll_speed_pos_fdbk.c ****     pHandle->_Super.hElSpeedDpp = (int16_t)0;
 640:MCSDK_v6.3.2-Full/MotorControl/MCSDK/MCLib/Any/Src/sto_pll_speed_pos_fdbk.c ****     pHandle->ConsistencyCounter = 0u;
 641:MCSDK_v6.3.2-Full/MotorControl/MCSDK/MCLib/Any/Src/sto_pll_speed_pos_fdbk.c ****     pHandle->ReliabilityCounter = 0u;
 642:MCSDK_v6.3.2-Full/MotorControl/MCSDK/MCLib/Any/Src/sto_pll_speed_pos_fdbk.c ****     pHandle->IsAlgorithmConverged = false;
 643:MCSDK_v6.3.2-Full/MotorControl/MCSDK/MCLib/Any/Src/sto_pll_speed_pos_fdbk.c ****     pHandle->IsBemfConsistent = false;
 644:MCSDK_v6.3.2-Full/MotorControl/MCSDK/MCLib/Any/Src/sto_pll_speed_pos_fdbk.c ****     pHandle->Obs_Bemf_Level = (int32_t)0;
 645:MCSDK_v6.3.2-Full/MotorControl/MCSDK/MCLib/Any/Src/sto_pll_speed_pos_fdbk.c ****     pHandle->Est_Bemf_Level = (int32_t)0;
 646:MCSDK_v6.3.2-Full/MotorControl/MCSDK/MCLib/Any/Src/sto_pll_speed_pos_fdbk.c ****     pHandle->DppBufferSum = (int32_t)0;
 647:MCSDK_v6.3.2-Full/MotorControl/MCSDK/MCLib/Any/Src/sto_pll_speed_pos_fdbk.c ****     pHandle->ForceConvergency = false;
 648:MCSDK_v6.3.2-Full/MotorControl/MCSDK/MCLib/Any/Src/sto_pll_speed_pos_fdbk.c ****     pHandle->ForceConvergency2 = false;
 649:MCSDK_v6.3.2-Full/MotorControl/MCSDK/MCLib/Any/Src/sto_pll_speed_pos_fdbk.c **** 
 650:MCSDK_v6.3.2-Full/MotorControl/MCSDK/MCLib/Any/Src/sto_pll_speed_pos_fdbk.c ****     STO_InitSpeedBuffer(pHandle);
 651:MCSDK_v6.3.2-Full/MotorControl/MCSDK/MCLib/Any/Src/sto_pll_speed_pos_fdbk.c ****     PID_SetIntegralTerm(& pHandle->PIRegulator, (int32_t)0);
 652:MCSDK_v6.3.2-Full/MotorControl/MCSDK/MCLib/Any/Src/sto_pll_speed_pos_fdbk.c **** #ifdef NULL_PTR_CHECK_STO_PLL_SPD_POS_FDB
ARM GAS  /tmp/ccNNILil.s 			page 19


 653:MCSDK_v6.3.2-Full/MotorControl/MCSDK/MCLib/Any/Src/sto_pll_speed_pos_fdbk.c ****   }
 654:MCSDK_v6.3.2-Full/MotorControl/MCSDK/MCLib/Any/Src/sto_pll_speed_pos_fdbk.c **** #endif
 655:MCSDK_v6.3.2-Full/MotorControl/MCSDK/MCLib/Any/Src/sto_pll_speed_pos_fdbk.c **** }
 656:MCSDK_v6.3.2-Full/MotorControl/MCSDK/MCLib/Any/Src/sto_pll_speed_pos_fdbk.c **** 
 657:MCSDK_v6.3.2-Full/MotorControl/MCSDK/MCLib/Any/Src/sto_pll_speed_pos_fdbk.c **** /**
 658:MCSDK_v6.3.2-Full/MotorControl/MCSDK/MCLib/Any/Src/sto_pll_speed_pos_fdbk.c ****   * @brief  Stores in @p pHandle the latest calculated value of @p hRotor_Speed.
 659:MCSDK_v6.3.2-Full/MotorControl/MCSDK/MCLib/Any/Src/sto_pll_speed_pos_fdbk.c ****   * 
 660:MCSDK_v6.3.2-Full/MotorControl/MCSDK/MCLib/Any/Src/sto_pll_speed_pos_fdbk.c ****   */
 661:MCSDK_v6.3.2-Full/MotorControl/MCSDK/MCLib/Any/Src/sto_pll_speed_pos_fdbk.c **** inline static void STO_Store_Rotor_Speed(STO_PLL_Handle_t *pHandle, int16_t hRotor_Speed)
 662:MCSDK_v6.3.2-Full/MotorControl/MCSDK/MCLib/Any/Src/sto_pll_speed_pos_fdbk.c **** {
 663:MCSDK_v6.3.2-Full/MotorControl/MCSDK/MCLib/Any/Src/sto_pll_speed_pos_fdbk.c ****   uint8_t bBuffer_index = pHandle->Speed_Buffer_Index;
 664:MCSDK_v6.3.2-Full/MotorControl/MCSDK/MCLib/Any/Src/sto_pll_speed_pos_fdbk.c **** 
 665:MCSDK_v6.3.2-Full/MotorControl/MCSDK/MCLib/Any/Src/sto_pll_speed_pos_fdbk.c ****   bBuffer_index++;
 666:MCSDK_v6.3.2-Full/MotorControl/MCSDK/MCLib/Any/Src/sto_pll_speed_pos_fdbk.c ****   if (bBuffer_index == pHandle->SpeedBufferSizeUnit)
 667:MCSDK_v6.3.2-Full/MotorControl/MCSDK/MCLib/Any/Src/sto_pll_speed_pos_fdbk.c ****   {
 668:MCSDK_v6.3.2-Full/MotorControl/MCSDK/MCLib/Any/Src/sto_pll_speed_pos_fdbk.c ****     bBuffer_index = 0U;
 669:MCSDK_v6.3.2-Full/MotorControl/MCSDK/MCLib/Any/Src/sto_pll_speed_pos_fdbk.c ****   }
 670:MCSDK_v6.3.2-Full/MotorControl/MCSDK/MCLib/Any/Src/sto_pll_speed_pos_fdbk.c ****   else
 671:MCSDK_v6.3.2-Full/MotorControl/MCSDK/MCLib/Any/Src/sto_pll_speed_pos_fdbk.c ****   {
 672:MCSDK_v6.3.2-Full/MotorControl/MCSDK/MCLib/Any/Src/sto_pll_speed_pos_fdbk.c ****     /* Nothing to do */
 673:MCSDK_v6.3.2-Full/MotorControl/MCSDK/MCLib/Any/Src/sto_pll_speed_pos_fdbk.c ****   }
 674:MCSDK_v6.3.2-Full/MotorControl/MCSDK/MCLib/Any/Src/sto_pll_speed_pos_fdbk.c **** 
 675:MCSDK_v6.3.2-Full/MotorControl/MCSDK/MCLib/Any/Src/sto_pll_speed_pos_fdbk.c ****   pHandle->SpeedBufferOldestEl = pHandle->Speed_Buffer[bBuffer_index];
 676:MCSDK_v6.3.2-Full/MotorControl/MCSDK/MCLib/Any/Src/sto_pll_speed_pos_fdbk.c ****   pHandle->Speed_Buffer[bBuffer_index] = hRotor_Speed;
 677:MCSDK_v6.3.2-Full/MotorControl/MCSDK/MCLib/Any/Src/sto_pll_speed_pos_fdbk.c ****   pHandle->Speed_Buffer_Index = bBuffer_index;
 678:MCSDK_v6.3.2-Full/MotorControl/MCSDK/MCLib/Any/Src/sto_pll_speed_pos_fdbk.c **** }
 679:MCSDK_v6.3.2-Full/MotorControl/MCSDK/MCLib/Any/Src/sto_pll_speed_pos_fdbk.c **** 
 680:MCSDK_v6.3.2-Full/MotorControl/MCSDK/MCLib/Any/Src/sto_pll_speed_pos_fdbk.c **** /**
 681:MCSDK_v6.3.2-Full/MotorControl/MCSDK/MCLib/Any/Src/sto_pll_speed_pos_fdbk.c ****   * @brief  Executes PLL algorithm for rotor position extraction from B-emf alpha and beta.
 682:MCSDK_v6.3.2-Full/MotorControl/MCSDK/MCLib/Any/Src/sto_pll_speed_pos_fdbk.c ****   * 
 683:MCSDK_v6.3.2-Full/MotorControl/MCSDK/MCLib/Any/Src/sto_pll_speed_pos_fdbk.c ****   * @param  pHandle: Handler of the current instance of the STO component.
 684:MCSDK_v6.3.2-Full/MotorControl/MCSDK/MCLib/Any/Src/sto_pll_speed_pos_fdbk.c ****   * @param  hBemf_alfa_est: Estimated Bemf alpha on the stator reference frame.
 685:MCSDK_v6.3.2-Full/MotorControl/MCSDK/MCLib/Any/Src/sto_pll_speed_pos_fdbk.c ****   * @param  hBemf_beta_est: Estimated Bemf beta on the stator reference frame.
 686:MCSDK_v6.3.2-Full/MotorControl/MCSDK/MCLib/Any/Src/sto_pll_speed_pos_fdbk.c ****   * @retval 
 687:MCSDK_v6.3.2-Full/MotorControl/MCSDK/MCLib/Any/Src/sto_pll_speed_pos_fdbk.c ****   */
 688:MCSDK_v6.3.2-Full/MotorControl/MCSDK/MCLib/Any/Src/sto_pll_speed_pos_fdbk.c **** inline static int16_t STO_ExecutePLL(STO_PLL_Handle_t *pHandle, int16_t hBemf_alfa_est, int16_t hBe
 368              		.loc 1 688 23 view .LVU155
 369              	.LBB14:
 689:MCSDK_v6.3.2-Full/MotorControl/MCSDK/MCLib/Any/Src/sto_pll_speed_pos_fdbk.c **** {
 690:MCSDK_v6.3.2-Full/MotorControl/MCSDK/MCLib/Any/Src/sto_pll_speed_pos_fdbk.c ****   int32_t wAlfa_Sin_tmp;
 370              		.loc 1 690 3 view .LVU156
 691:MCSDK_v6.3.2-Full/MotorControl/MCSDK/MCLib/Any/Src/sto_pll_speed_pos_fdbk.c ****   int32_t wBeta_Cos_tmp;
 371              		.loc 1 691 3 view .LVU157
 692:MCSDK_v6.3.2-Full/MotorControl/MCSDK/MCLib/Any/Src/sto_pll_speed_pos_fdbk.c ****   int16_t hAux1;
 372              		.loc 1 692 3 view .LVU158
 693:MCSDK_v6.3.2-Full/MotorControl/MCSDK/MCLib/Any/Src/sto_pll_speed_pos_fdbk.c ****   int16_t hAux2;
 373              		.loc 1 693 3 view .LVU159
 694:MCSDK_v6.3.2-Full/MotorControl/MCSDK/MCLib/Any/Src/sto_pll_speed_pos_fdbk.c ****   int16_t hOutput;
 374              		.loc 1 694 3 view .LVU160
 695:MCSDK_v6.3.2-Full/MotorControl/MCSDK/MCLib/Any/Src/sto_pll_speed_pos_fdbk.c ****   Trig_Components Local_Components;
 375              		.loc 1 695 3 view .LVU161
 696:MCSDK_v6.3.2-Full/MotorControl/MCSDK/MCLib/Any/Src/sto_pll_speed_pos_fdbk.c **** 
 697:MCSDK_v6.3.2-Full/MotorControl/MCSDK/MCLib/Any/Src/sto_pll_speed_pos_fdbk.c ****   Local_Components = MCM_Trig_Functions(pHandle->_Super.hElAngle);
 376              		.loc 1 697 3 view .LVU162
 377              		.loc 1 697 22 is_stmt 0 view .LVU163
 378 0134 B4F90400 		ldrsh	r0, [r4, #4]
 379              	.LVL42:
ARM GAS  /tmp/ccNNILil.s 			page 20


 380              		.loc 1 697 22 view .LVU164
 381 0138 FFF7FEFF 		bl	MCM_Trig_Functions
 382              	.LVL43:
 698:MCSDK_v6.3.2-Full/MotorControl/MCSDK/MCLib/Any/Src/sto_pll_speed_pos_fdbk.c **** 
 699:MCSDK_v6.3.2-Full/MotorControl/MCSDK/MCLib/Any/Src/sto_pll_speed_pos_fdbk.c ****   /* Alfa & Beta BEMF multiplied by Cos & Sin */
 700:MCSDK_v6.3.2-Full/MotorControl/MCSDK/MCLib/Any/Src/sto_pll_speed_pos_fdbk.c ****   wAlfa_Sin_tmp = ((int32_t )hBemf_alfa_est) * ((int32_t )Local_Components.hSin);
 383              		.loc 1 700 3 is_stmt 1 view .LVU165
 701:MCSDK_v6.3.2-Full/MotorControl/MCSDK/MCLib/Any/Src/sto_pll_speed_pos_fdbk.c ****   wBeta_Cos_tmp = ((int32_t )hBemf_beta_est) * ((int32_t )Local_Components.hCos);
 384              		.loc 1 701 3 view .LVU166
 702:MCSDK_v6.3.2-Full/MotorControl/MCSDK/MCLib/Any/Src/sto_pll_speed_pos_fdbk.c **** 
 703:MCSDK_v6.3.2-Full/MotorControl/MCSDK/MCLib/Any/Src/sto_pll_speed_pos_fdbk.c **** #ifndef FULL_MISRA_C_COMPLIANCY_STO_PLL
 704:MCSDK_v6.3.2-Full/MotorControl/MCSDK/MCLib/Any/Src/sto_pll_speed_pos_fdbk.c ****   hAux1 = (int16_t)(wBeta_Cos_tmp >> 15); //cstat !MISRAC2012-Rule-1.3_n !ATH-shift-neg !MISRAC2012
 385              		.loc 1 704 3 view .LVU167
 705:MCSDK_v6.3.2-Full/MotorControl/MCSDK/MCLib/Any/Src/sto_pll_speed_pos_fdbk.c **** #else
 706:MCSDK_v6.3.2-Full/MotorControl/MCSDK/MCLib/Any/Src/sto_pll_speed_pos_fdbk.c ****   hAux1 = (int16_t)(wBeta_Cos_tmp / 32768);
 707:MCSDK_v6.3.2-Full/MotorControl/MCSDK/MCLib/Any/Src/sto_pll_speed_pos_fdbk.c **** #endif
 708:MCSDK_v6.3.2-Full/MotorControl/MCSDK/MCLib/Any/Src/sto_pll_speed_pos_fdbk.c **** 
 709:MCSDK_v6.3.2-Full/MotorControl/MCSDK/MCLib/Any/Src/sto_pll_speed_pos_fdbk.c **** #ifndef FULL_MISRA_C_COMPLIANCY_STO_PLL
 710:MCSDK_v6.3.2-Full/MotorControl/MCSDK/MCLib/Any/Src/sto_pll_speed_pos_fdbk.c ****   hAux2 = (int16_t)(wAlfa_Sin_tmp >> 15); //cstat !MISRAC2012-Rule-1.3_n !ATH-shift-neg !MISRAC2012
 386              		.loc 1 710 3 view .LVU168
 711:MCSDK_v6.3.2-Full/MotorControl/MCSDK/MCLib/Any/Src/sto_pll_speed_pos_fdbk.c **** #else
 712:MCSDK_v6.3.2-Full/MotorControl/MCSDK/MCLib/Any/Src/sto_pll_speed_pos_fdbk.c ****   hAux2 = (int16_t)(wAlfa_Sin_tmp / 32768);
 713:MCSDK_v6.3.2-Full/MotorControl/MCSDK/MCLib/Any/Src/sto_pll_speed_pos_fdbk.c **** #endif
 714:MCSDK_v6.3.2-Full/MotorControl/MCSDK/MCLib/Any/Src/sto_pll_speed_pos_fdbk.c **** 
 715:MCSDK_v6.3.2-Full/MotorControl/MCSDK/MCLib/Any/Src/sto_pll_speed_pos_fdbk.c ****   /* Speed PI regulator */
 716:MCSDK_v6.3.2-Full/MotorControl/MCSDK/MCLib/Any/Src/sto_pll_speed_pos_fdbk.c ****   hOutput = PI_Controller(& pHandle->PIRegulator, (int32_t)(hAux1 ) - hAux2);
 387              		.loc 1 716 3 view .LVU169
 388              	.LBE14:
 389              	.LBE13:
 359:MCSDK_v6.3.2-Full/MotorControl/MCSDK/MCLib/Any/Src/sto_pll_speed_pos_fdbk.c **** 
 390              		.loc 1 359 17 is_stmt 0 view .LVU170
 391 013c 049B     		ldr	r3, [sp, #16]
 392 013e 13FB07F3 		smulbb	r3, r3, r7
 361:MCSDK_v6.3.2-Full/MotorControl/MCSDK/MCLib/Any/Src/sto_pll_speed_pos_fdbk.c ****     pHandle->_Super.InstantaneousElSpeedDpp = hRotor_Speed;
 393              		.loc 1 361 20 view .LVU171
 394 0142 5B42     		rsbs	r3, r3, #0
 395              	.LBB17:
 396              	.LBB15:
 701:MCSDK_v6.3.2-Full/MotorControl/MCSDK/MCLib/Any/Src/sto_pll_speed_pos_fdbk.c **** 
 397              		.loc 1 701 17 view .LVU172
 398 0144 10FB03F3 		smulbb	r3, r0, r3
 399              		.loc 1 716 51 view .LVU173
 400 0148 43F3CF33 		sbfx	r3, r3, #15, #16
 401              	.LBE15:
 402              	.LBE17:
 358:MCSDK_v6.3.2-Full/MotorControl/MCSDK/MCLib/Any/Src/sto_pll_speed_pos_fdbk.c ****     hAux_Beta = (int16_t)(hAux_Beta * wDirection);
 403              		.loc 1 358 17 view .LVU174
 404 014c 029A     		ldr	r2, [sp, #8]
 405 014e 12FB07F1 		smulbb	r1, r2, r7
 406              	.LBB18:
 407              	.LBB16:
 700:MCSDK_v6.3.2-Full/MotorControl/MCSDK/MCLib/Any/Src/sto_pll_speed_pos_fdbk.c ****   wBeta_Cos_tmp = ((int32_t )hBemf_beta_est) * ((int32_t )Local_Components.hCos);
 408              		.loc 1 700 17 view .LVU175
 409 0152 10FB21F0 		smultb	r0, r0, r1
 410              		.loc 1 716 13 view .LVU176
 411 0156 40F3CF31 		sbfx	r1, r0, #15, #16
 412 015a 591A     		subs	r1, r3, r1
ARM GAS  /tmp/ccNNILil.s 			page 21


 413 015c 04F13400 		add	r0, r4, #52
 414 0160 FFF7FEFF 		bl	PI_Controller
 415              	.LVL44:
 717:MCSDK_v6.3.2-Full/MotorControl/MCSDK/MCLib/Any/Src/sto_pll_speed_pos_fdbk.c ****   return (hOutput);
 416              		.loc 1 717 3 is_stmt 1 view .LVU177
 417              		.loc 1 717 3 is_stmt 0 view .LVU178
 418              	.LBE16:
 419              	.LBE18:
 362:MCSDK_v6.3.2-Full/MotorControl/MCSDK/MCLib/Any/Src/sto_pll_speed_pos_fdbk.c **** 
 420              		.loc 1 362 5 is_stmt 1 view .LVU179
 362:MCSDK_v6.3.2-Full/MotorControl/MCSDK/MCLib/Any/Src/sto_pll_speed_pos_fdbk.c **** 
 421              		.loc 1 362 45 is_stmt 0 view .LVU180
 422 0164 2082     		strh	r0, [r4, #16]	@ movhi
 364:MCSDK_v6.3.2-Full/MotorControl/MCSDK/MCLib/Any/Src/sto_pll_speed_pos_fdbk.c **** 
 423              		.loc 1 364 5 is_stmt 1 view .LVU181
 424              	.LVL45:
 425              	.LBB19:
 426              	.LBI19:
 661:MCSDK_v6.3.2-Full/MotorControl/MCSDK/MCLib/Any/Src/sto_pll_speed_pos_fdbk.c **** {
 427              		.loc 1 661 20 view .LVU182
 428              	.LBB20:
 663:MCSDK_v6.3.2-Full/MotorControl/MCSDK/MCLib/Any/Src/sto_pll_speed_pos_fdbk.c **** 
 429              		.loc 1 663 3 view .LVU183
 663:MCSDK_v6.3.2-Full/MotorControl/MCSDK/MCLib/Any/Src/sto_pll_speed_pos_fdbk.c **** 
 430              		.loc 1 663 11 is_stmt 0 view .LVU184
 431 0166 94F8F430 		ldrb	r3, [r4, #244]	@ zero_extendqisi2
 432              	.LVL46:
 665:MCSDK_v6.3.2-Full/MotorControl/MCSDK/MCLib/Any/Src/sto_pll_speed_pos_fdbk.c ****   if (bBuffer_index == pHandle->SpeedBufferSizeUnit)
 433              		.loc 1 665 3 is_stmt 1 view .LVU185
 665:MCSDK_v6.3.2-Full/MotorControl/MCSDK/MCLib/Any/Src/sto_pll_speed_pos_fdbk.c ****   if (bBuffer_index == pHandle->SpeedBufferSizeUnit)
 434              		.loc 1 665 16 is_stmt 0 view .LVU186
 435 016a 0133     		adds	r3, r3, #1
 436              	.LVL47:
 665:MCSDK_v6.3.2-Full/MotorControl/MCSDK/MCLib/Any/Src/sto_pll_speed_pos_fdbk.c ****   if (bBuffer_index == pHandle->SpeedBufferSizeUnit)
 437              		.loc 1 665 16 view .LVU187
 438 016c DBB2     		uxtb	r3, r3
 439              	.LVL48:
 666:MCSDK_v6.3.2-Full/MotorControl/MCSDK/MCLib/Any/Src/sto_pll_speed_pos_fdbk.c ****   {
 440              		.loc 1 666 3 is_stmt 1 view .LVU188
 666:MCSDK_v6.3.2-Full/MotorControl/MCSDK/MCLib/Any/Src/sto_pll_speed_pos_fdbk.c ****   {
 441              		.loc 1 666 6 is_stmt 0 view .LVU189
 442 016e 94F80E21 		ldrb	r2, [r4, #270]	@ zero_extendqisi2
 668:MCSDK_v6.3.2-Full/MotorControl/MCSDK/MCLib/Any/Src/sto_pll_speed_pos_fdbk.c ****   }
 443              		.loc 1 668 19 view .LVU190
 444 0172 9A42     		cmp	r2, r3
 445 0174 08BF     		it	eq
 446 0176 0023     		moveq	r3, #0
 447              	.LVL49:
 673:MCSDK_v6.3.2-Full/MotorControl/MCSDK/MCLib/Any/Src/sto_pll_speed_pos_fdbk.c **** 
 448              		.loc 1 673 3 is_stmt 1 view .LVU191
 675:MCSDK_v6.3.2-Full/MotorControl/MCSDK/MCLib/Any/Src/sto_pll_speed_pos_fdbk.c ****   pHandle->Speed_Buffer[bBuffer_index] = hRotor_Speed;
 449              		.loc 1 675 3 view .LVU192
 450 0178 04EB4302 		add	r2, r4, r3, lsl #1
 675:MCSDK_v6.3.2-Full/MotorControl/MCSDK/MCLib/Any/Src/sto_pll_speed_pos_fdbk.c ****   pHandle->Speed_Buffer[bBuffer_index] = hRotor_Speed;
 451              		.loc 1 675 55 is_stmt 0 view .LVU193
 452 017c B2F97410 		ldrsh	r1, [r2, #116]
 675:MCSDK_v6.3.2-Full/MotorControl/MCSDK/MCLib/Any/Src/sto_pll_speed_pos_fdbk.c ****   pHandle->Speed_Buffer[bBuffer_index] = hRotor_Speed;
ARM GAS  /tmp/ccNNILil.s 			page 22


 453              		.loc 1 675 32 view .LVU194
 454 0180 A4F80C11 		strh	r1, [r4, #268]	@ movhi
 676:MCSDK_v6.3.2-Full/MotorControl/MCSDK/MCLib/Any/Src/sto_pll_speed_pos_fdbk.c ****   pHandle->Speed_Buffer_Index = bBuffer_index;
 455              		.loc 1 676 3 is_stmt 1 view .LVU195
 676:MCSDK_v6.3.2-Full/MotorControl/MCSDK/MCLib/Any/Src/sto_pll_speed_pos_fdbk.c ****   pHandle->Speed_Buffer_Index = bBuffer_index;
 456              		.loc 1 676 40 is_stmt 0 view .LVU196
 457 0184 A2F87400 		strh	r0, [r2, #116]	@ movhi
 677:MCSDK_v6.3.2-Full/MotorControl/MCSDK/MCLib/Any/Src/sto_pll_speed_pos_fdbk.c **** }
 458              		.loc 1 677 3 is_stmt 1 view .LVU197
 677:MCSDK_v6.3.2-Full/MotorControl/MCSDK/MCLib/Any/Src/sto_pll_speed_pos_fdbk.c **** }
 459              		.loc 1 677 31 is_stmt 0 view .LVU198
 460 0188 84F8F430 		strb	r3, [r4, #244]
 461              	.LVL50:
 677:MCSDK_v6.3.2-Full/MotorControl/MCSDK/MCLib/Any/Src/sto_pll_speed_pos_fdbk.c **** }
 462              		.loc 1 677 31 view .LVU199
 463              	.LBE20:
 464              	.LBE19:
 366:MCSDK_v6.3.2-Full/MotorControl/MCSDK/MCLib/Any/Src/sto_pll_speed_pos_fdbk.c **** 
 465              		.loc 1 366 5 is_stmt 1 view .LVU200
 366:MCSDK_v6.3.2-Full/MotorControl/MCSDK/MCLib/Any/Src/sto_pll_speed_pos_fdbk.c **** 
 466              		.loc 1 366 30 is_stmt 0 view .LVU201
 467 018c A388     		ldrh	r3, [r4, #4]
 468 018e 1844     		add	r0, r0, r3
 469              	.LVL51:
 366:MCSDK_v6.3.2-Full/MotorControl/MCSDK/MCLib/Any/Src/sto_pll_speed_pos_fdbk.c **** 
 470              		.loc 1 366 30 view .LVU202
 471 0190 00B2     		sxth	r0, r0
 472 0192 A080     		strh	r0, [r4, #4]	@ movhi
 369:MCSDK_v6.3.2-Full/MotorControl/MCSDK/MCLib/Any/Src/sto_pll_speed_pos_fdbk.c ****     pHandle->wBemf_alfa_est = wBemf_alfa_est_Next;
 473              		.loc 1 369 5 is_stmt 1 view .LVU203
 369:MCSDK_v6.3.2-Full/MotorControl/MCSDK/MCLib/Any/Src/sto_pll_speed_pos_fdbk.c ****     pHandle->wBemf_alfa_est = wBemf_alfa_est_Next;
 474              		.loc 1 369 24 is_stmt 0 view .LVU204
 475 0194 079B     		ldr	r3, [sp, #28]
 476 0196 2366     		str	r3, [r4, #96]
 370:MCSDK_v6.3.2-Full/MotorControl/MCSDK/MCLib/Any/Src/sto_pll_speed_pos_fdbk.c **** 
 477              		.loc 1 370 5 is_stmt 1 view .LVU205
 370:MCSDK_v6.3.2-Full/MotorControl/MCSDK/MCLib/Any/Src/sto_pll_speed_pos_fdbk.c **** 
 478              		.loc 1 370 29 is_stmt 0 view .LVU206
 479 0198 A666     		str	r6, [r4, #104]
 372:MCSDK_v6.3.2-Full/MotorControl/MCSDK/MCLib/Any/Src/sto_pll_speed_pos_fdbk.c ****     pHandle->wBemf_beta_est = wBemf_beta_est_Next;
 480              		.loc 1 372 5 is_stmt 1 view .LVU207
 372:MCSDK_v6.3.2-Full/MotorControl/MCSDK/MCLib/Any/Src/sto_pll_speed_pos_fdbk.c ****     pHandle->wBemf_beta_est = wBemf_beta_est_Next;
 481              		.loc 1 372 24 is_stmt 0 view .LVU208
 482 019a 6566     		str	r5, [r4, #100]
 373:MCSDK_v6.3.2-Full/MotorControl/MCSDK/MCLib/Any/Src/sto_pll_speed_pos_fdbk.c ****     retValue = pHandle->_Super.hElAngle;
 483              		.loc 1 373 5 is_stmt 1 view .LVU209
 373:MCSDK_v6.3.2-Full/MotorControl/MCSDK/MCLib/Any/Src/sto_pll_speed_pos_fdbk.c ****     retValue = pHandle->_Super.hElAngle;
 484              		.loc 1 373 29 is_stmt 0 view .LVU210
 485 019c C4F86C90 		str	r9, [r4, #108]
 374:MCSDK_v6.3.2-Full/MotorControl/MCSDK/MCLib/Any/Src/sto_pll_speed_pos_fdbk.c ****   }
 486              		.loc 1 374 5 is_stmt 1 view .LVU211
 487              	.LVL52:
 488              	.L3:
 374:MCSDK_v6.3.2-Full/MotorControl/MCSDK/MCLib/Any/Src/sto_pll_speed_pos_fdbk.c ****   }
 489              		.loc 1 374 5 is_stmt 0 view .LVU212
 490              	.LBE12:
 376:MCSDK_v6.3.2-Full/MotorControl/MCSDK/MCLib/Any/Src/sto_pll_speed_pos_fdbk.c **** }
ARM GAS  /tmp/ccNNILil.s 			page 23


 491              		.loc 1 376 3 is_stmt 1 view .LVU213
 377:MCSDK_v6.3.2-Full/MotorControl/MCSDK/MCLib/Any/Src/sto_pll_speed_pos_fdbk.c **** 
 492              		.loc 1 377 1 is_stmt 0 view .LVU214
 493 01a0 0BB0     		add	sp, sp, #44
 494              	.LCFI2:
 495              		.cfi_remember_state
 496              		.cfi_def_cfa_offset 36
 497              		@ sp needed
 498 01a2 BDE8F08F 		pop	{r4, r5, r6, r7, r8, r9, r10, fp, pc}
 499              	.LVL53:
 500              	.L4:
 501              	.LCFI3:
 502              		.cfi_restore_state
 503              	.LBB21:
 177:MCSDK_v6.3.2-Full/MotorControl/MCSDK/MCLib/Any/Src/sto_pll_speed_pos_fdbk.c ****     {
 504              		.loc 1 177 10 is_stmt 1 view .LVU215
 177:MCSDK_v6.3.2-Full/MotorControl/MCSDK/MCLib/Any/Src/sto_pll_speed_pos_fdbk.c ****     {
 505              		.loc 1 177 53 is_stmt 0 view .LVU216
 506 01a6 A3EBC335 		sub	r5, r3, r3, lsl #15
 177:MCSDK_v6.3.2-Full/MotorControl/MCSDK/MCLib/Any/Src/sto_pll_speed_pos_fdbk.c ****     {
 507              		.loc 1 177 13 view .LVU217
 508 01aa A842     		cmp	r0, r5
 179:MCSDK_v6.3.2-Full/MotorControl/MCSDK/MCLib/Any/Src/sto_pll_speed_pos_fdbk.c ****     }
 509              		.loc 1 179 7 is_stmt 1 view .LVU218
 179:MCSDK_v6.3.2-Full/MotorControl/MCSDK/MCLib/Any/Src/sto_pll_speed_pos_fdbk.c ****     }
 510              		.loc 1 179 31 is_stmt 0 view .LVU219
 511 01ac D8BF     		it	le
 512 01ae A566     		strle	r5, [r4, #104]
 513 01b0 39E7     		b	.L5
 514              	.LVL54:
 515              	.L6:
 196:MCSDK_v6.3.2-Full/MotorControl/MCSDK/MCLib/Any/Src/sto_pll_speed_pos_fdbk.c ****     {
 516              		.loc 1 196 10 is_stmt 1 view .LVU220
 196:MCSDK_v6.3.2-Full/MotorControl/MCSDK/MCLib/Any/Src/sto_pll_speed_pos_fdbk.c ****     {
 517              		.loc 1 196 53 is_stmt 0 view .LVU221
 518 01b2 A3EBC333 		sub	r3, r3, r3, lsl #15
 196:MCSDK_v6.3.2-Full/MotorControl/MCSDK/MCLib/Any/Src/sto_pll_speed_pos_fdbk.c ****     {
 519              		.loc 1 196 13 view .LVU222
 520 01b6 9E42     		cmp	r6, r3
 198:MCSDK_v6.3.2-Full/MotorControl/MCSDK/MCLib/Any/Src/sto_pll_speed_pos_fdbk.c ****     }
 521              		.loc 1 198 7 is_stmt 1 view .LVU223
 198:MCSDK_v6.3.2-Full/MotorControl/MCSDK/MCLib/Any/Src/sto_pll_speed_pos_fdbk.c ****     }
 522              		.loc 1 198 31 is_stmt 0 view .LVU224
 523 01b8 D8BF     		it	le
 524 01ba E366     		strle	r3, [r4, #108]
 525 01bc 3FE7     		b	.L7
 526              	.LVL55:
 527              	.L8:
 215:MCSDK_v6.3.2-Full/MotorControl/MCSDK/MCLib/Any/Src/sto_pll_speed_pos_fdbk.c ****     {
 528              		.loc 1 215 10 is_stmt 1 view .LVU225
 215:MCSDK_v6.3.2-Full/MotorControl/MCSDK/MCLib/Any/Src/sto_pll_speed_pos_fdbk.c ****     {
 529              		.loc 1 215 48 is_stmt 0 view .LVU226
 530 01be A3EBC336 		sub	r6, r3, r3, lsl #15
 215:MCSDK_v6.3.2-Full/MotorControl/MCSDK/MCLib/Any/Src/sto_pll_speed_pos_fdbk.c ****     {
 531              		.loc 1 215 13 view .LVU227
 532 01c2 B542     		cmp	r5, r6
 217:MCSDK_v6.3.2-Full/MotorControl/MCSDK/MCLib/Any/Src/sto_pll_speed_pos_fdbk.c ****     }
ARM GAS  /tmp/ccNNILil.s 			page 24


 533              		.loc 1 217 7 is_stmt 1 view .LVU228
 217:MCSDK_v6.3.2-Full/MotorControl/MCSDK/MCLib/Any/Src/sto_pll_speed_pos_fdbk.c ****     }
 534              		.loc 1 217 26 is_stmt 0 view .LVU229
 535 01c4 D8BF     		it	le
 536 01c6 2666     		strle	r6, [r4, #96]
 537 01c8 48E7     		b	.L9
 538              	.L10:
 228:MCSDK_v6.3.2-Full/MotorControl/MCSDK/MCLib/Any/Src/sto_pll_speed_pos_fdbk.c ****     {
 539              		.loc 1 228 10 is_stmt 1 view .LVU230
 228:MCSDK_v6.3.2-Full/MotorControl/MCSDK/MCLib/Any/Src/sto_pll_speed_pos_fdbk.c ****     {
 540              		.loc 1 228 48 is_stmt 0 view .LVU231
 541 01ca A3EBC333 		sub	r3, r3, r3, lsl #15
 228:MCSDK_v6.3.2-Full/MotorControl/MCSDK/MCLib/Any/Src/sto_pll_speed_pos_fdbk.c ****     {
 542              		.loc 1 228 13 view .LVU232
 543 01ce 9D42     		cmp	r5, r3
 230:MCSDK_v6.3.2-Full/MotorControl/MCSDK/MCLib/Any/Src/sto_pll_speed_pos_fdbk.c ****     }
 544              		.loc 1 230 7 is_stmt 1 view .LVU233
 230:MCSDK_v6.3.2-Full/MotorControl/MCSDK/MCLib/Any/Src/sto_pll_speed_pos_fdbk.c ****     }
 545              		.loc 1 230 26 is_stmt 0 view .LVU234
 546 01d0 D8BF     		it	le
 547 01d2 6366     		strle	r3, [r4, #100]
 548 01d4 47E7     		b	.L11
 549              	.LVL56:
 550              	.L15:
 551              	.LCFI4:
 552              		.cfi_def_cfa_offset 0
 553              		.cfi_restore 4
 554              		.cfi_restore 5
 555              		.cfi_restore 6
 556              		.cfi_restore 7
 557              		.cfi_restore 8
 558              		.cfi_restore 9
 559              		.cfi_restore 10
 560              		.cfi_restore 11
 561              		.cfi_restore 14
 230:MCSDK_v6.3.2-Full/MotorControl/MCSDK/MCLib/Any/Src/sto_pll_speed_pos_fdbk.c ****     }
 562              		.loc 1 230 26 view .LVU235
 563              	.LBE21:
 154:MCSDK_v6.3.2-Full/MotorControl/MCSDK/MCLib/Any/Src/sto_pll_speed_pos_fdbk.c ****   }
 564              		.loc 1 154 14 view .LVU236
 565 01d6 0020     		movs	r0, #0
 566              	.LVL57:
 376:MCSDK_v6.3.2-Full/MotorControl/MCSDK/MCLib/Any/Src/sto_pll_speed_pos_fdbk.c **** }
 567              		.loc 1 376 3 is_stmt 1 view .LVU237
 377:MCSDK_v6.3.2-Full/MotorControl/MCSDK/MCLib/Any/Src/sto_pll_speed_pos_fdbk.c **** 
 568              		.loc 1 377 1 is_stmt 0 view .LVU238
 569 01d8 7047     		bx	lr
 570              	.LVL58:
 571              	.L16:
 572              	.LCFI5:
 573              		.cfi_def_cfa_offset 80
 574              		.cfi_offset 4, -36
 575              		.cfi_offset 5, -32
 576              		.cfi_offset 6, -28
 577              		.cfi_offset 7, -24
 578              		.cfi_offset 8, -20
 579              		.cfi_offset 9, -16
ARM GAS  /tmp/ccNNILil.s 			page 25


 580              		.cfi_offset 10, -12
 581              		.cfi_offset 11, -8
 582              		.cfi_offset 14, -4
 154:MCSDK_v6.3.2-Full/MotorControl/MCSDK/MCLib/Any/Src/sto_pll_speed_pos_fdbk.c ****   }
 583              		.loc 1 154 14 view .LVU239
 584 01da 0020     		movs	r0, #0
 585              	.LVL59:
 154:MCSDK_v6.3.2-Full/MotorControl/MCSDK/MCLib/Any/Src/sto_pll_speed_pos_fdbk.c ****   }
 586              		.loc 1 154 14 view .LVU240
 587 01dc E0E7     		b	.L3
 588              		.cfi_endproc
 589              	.LFE1450:
 591              		.section	.text.STO_PLL_CalcAvrgMecSpeedUnit,"ax",%progbits
 592              		.align	1
 593              		.weak	STO_PLL_CalcAvrgMecSpeedUnit
 594              		.syntax unified
 595              		.thumb
 596              		.thumb_func
 597              		.fpu fpv4-sp-d16
 599              	STO_PLL_CalcAvrgMecSpeedUnit:
 600              	.LVL60:
 601              	.LFB1451:
 396:MCSDK_v6.3.2-Full/MotorControl/MCSDK/MCLib/Any/Src/sto_pll_speed_pos_fdbk.c ****   bool bAux;
 602              		.loc 1 396 1 is_stmt 1 view -0
 603              		.cfi_startproc
 604              		@ args = 0, pretend = 0, frame = 0
 605              		@ frame_needed = 0, uses_anonymous_args = 0
 396:MCSDK_v6.3.2-Full/MotorControl/MCSDK/MCLib/Any/Src/sto_pll_speed_pos_fdbk.c ****   bool bAux;
 606              		.loc 1 396 1 is_stmt 0 view .LVU242
 607 0000 38B5     		push	{r3, r4, r5, lr}
 608              	.LCFI6:
 609              		.cfi_def_cfa_offset 16
 610              		.cfi_offset 3, -16
 611              		.cfi_offset 4, -12
 612              		.cfi_offset 5, -8
 613              		.cfi_offset 14, -4
 397:MCSDK_v6.3.2-Full/MotorControl/MCSDK/MCLib/Any/Src/sto_pll_speed_pos_fdbk.c **** #ifdef NULL_PTR_CHECK_STO_PLL_SPD_POS_FDB
 614              		.loc 1 397 3 is_stmt 1 view .LVU243
 406:MCSDK_v6.3.2-Full/MotorControl/MCSDK/MCLib/Any/Src/sto_pll_speed_pos_fdbk.c ****     int32_t wError;
 615              		.loc 1 406 5 view .LVU244
 616              	.LVL61:
 407:MCSDK_v6.3.2-Full/MotorControl/MCSDK/MCLib/Any/Src/sto_pll_speed_pos_fdbk.c ****     int32_t wAux;
 617              		.loc 1 407 5 view .LVU245
 408:MCSDK_v6.3.2-Full/MotorControl/MCSDK/MCLib/Any/Src/sto_pll_speed_pos_fdbk.c ****     int32_t wAvrSquareSpeed;
 618              		.loc 1 408 5 view .LVU246
 409:MCSDK_v6.3.2-Full/MotorControl/MCSDK/MCLib/Any/Src/sto_pll_speed_pos_fdbk.c ****     int32_t wAvrQuadraticError = 0;
 619              		.loc 1 409 5 view .LVU247
 410:MCSDK_v6.3.2-Full/MotorControl/MCSDK/MCLib/Any/Src/sto_pll_speed_pos_fdbk.c ****     int32_t wObsBemf, wEstBemf;
 620              		.loc 1 410 5 view .LVU248
 411:MCSDK_v6.3.2-Full/MotorControl/MCSDK/MCLib/Any/Src/sto_pll_speed_pos_fdbk.c ****     int32_t wObsBemfSq = 0;
 621              		.loc 1 411 5 view .LVU249
 412:MCSDK_v6.3.2-Full/MotorControl/MCSDK/MCLib/Any/Src/sto_pll_speed_pos_fdbk.c ****     int32_t wEstBemfSq = 0;
 622              		.loc 1 412 5 view .LVU250
 413:MCSDK_v6.3.2-Full/MotorControl/MCSDK/MCLib/Any/Src/sto_pll_speed_pos_fdbk.c ****     int32_t wEstBemfSqLo;
 623              		.loc 1 413 5 view .LVU251
 414:MCSDK_v6.3.2-Full/MotorControl/MCSDK/MCLib/Any/Src/sto_pll_speed_pos_fdbk.c ****     bool bIs_Speed_Reliable = false;
 624              		.loc 1 414 5 view .LVU252
ARM GAS  /tmp/ccNNILil.s 			page 26


 415:MCSDK_v6.3.2-Full/MotorControl/MCSDK/MCLib/Any/Src/sto_pll_speed_pos_fdbk.c ****     bool bIs_Bemf_Consistent = false;
 625              		.loc 1 415 5 view .LVU253
 416:MCSDK_v6.3.2-Full/MotorControl/MCSDK/MCLib/Any/Src/sto_pll_speed_pos_fdbk.c ****     uint8_t i, bSpeedBufferSizeUnit = pHandle->SpeedBufferSizeUnit;
 626              		.loc 1 416 5 view .LVU254
 417:MCSDK_v6.3.2-Full/MotorControl/MCSDK/MCLib/Any/Src/sto_pll_speed_pos_fdbk.c **** 
 627              		.loc 1 417 5 view .LVU255
 417:MCSDK_v6.3.2-Full/MotorControl/MCSDK/MCLib/Any/Src/sto_pll_speed_pos_fdbk.c **** 
 628              		.loc 1 417 16 is_stmt 0 view .LVU256
 629 0002 90F80E51 		ldrb	r5, [r0, #270]	@ zero_extendqisi2
 630              	.LVL62:
 419:MCSDK_v6.3.2-Full/MotorControl/MCSDK/MCLib/Any/Src/sto_pll_speed_pos_fdbk.c ****     {
 631              		.loc 1 419 5 is_stmt 1 view .LVU257
 419:MCSDK_v6.3.2-Full/MotorControl/MCSDK/MCLib/Any/Src/sto_pll_speed_pos_fdbk.c ****     {
 632              		.loc 1 419 18 view .LVU258
 419:MCSDK_v6.3.2-Full/MotorControl/MCSDK/MCLib/Any/Src/sto_pll_speed_pos_fdbk.c ****     {
 633              		.loc 1 419 5 is_stmt 0 view .LVU259
 634 0006 002D     		cmp	r5, #0
 635 0008 00F09180 		beq	.L37
 636 000c 00F17202 		add	r2, r0, #114
 637 0010 05F1FF3E 		add	lr, r5, #-1
 638 0014 5FFA8EF3 		uxtb	r3, lr
 639 0018 00F1740E 		add	lr, r0, #116
 640 001c 0EEB430E 		add	lr, lr, r3, lsl #1
 641 0020 1346     		mov	r3, r2
 406:MCSDK_v6.3.2-Full/MotorControl/MCSDK/MCLib/Any/Src/sto_pll_speed_pos_fdbk.c ****     int32_t wError;
 642              		.loc 1 406 13 view .LVU260
 643 0022 4FF0000C 		mov	ip, #0
 644              	.LVL63:
 645              	.L24:
 421:MCSDK_v6.3.2-Full/MotorControl/MCSDK/MCLib/Any/Src/sto_pll_speed_pos_fdbk.c ****     }
 646              		.loc 1 421 7 is_stmt 1 discriminator 3 view .LVU261
 421:MCSDK_v6.3.2-Full/MotorControl/MCSDK/MCLib/Any/Src/sto_pll_speed_pos_fdbk.c ****     }
 647              		.loc 1 421 24 is_stmt 0 discriminator 3 view .LVU262
 648 0026 33F9024F 		ldrsh	r4, [r3, #2]!
 421:MCSDK_v6.3.2-Full/MotorControl/MCSDK/MCLib/Any/Src/sto_pll_speed_pos_fdbk.c ****     }
 649              		.loc 1 421 21 discriminator 3 view .LVU263
 650 002a A444     		add	ip, ip, r4
 651              	.LVL64:
 419:MCSDK_v6.3.2-Full/MotorControl/MCSDK/MCLib/Any/Src/sto_pll_speed_pos_fdbk.c ****     {
 652              		.loc 1 419 44 is_stmt 1 discriminator 3 view .LVU264
 419:MCSDK_v6.3.2-Full/MotorControl/MCSDK/MCLib/Any/Src/sto_pll_speed_pos_fdbk.c ****     {
 653              		.loc 1 419 18 discriminator 3 view .LVU265
 419:MCSDK_v6.3.2-Full/MotorControl/MCSDK/MCLib/Any/Src/sto_pll_speed_pos_fdbk.c ****     {
 654              		.loc 1 419 5 is_stmt 0 discriminator 3 view .LVU266
 655 002c 7345     		cmp	r3, lr
 656 002e FAD1     		bne	.L24
 424:MCSDK_v6.3.2-Full/MotorControl/MCSDK/MCLib/Any/Src/sto_pll_speed_pos_fdbk.c ****     {
 657              		.loc 1 424 5 is_stmt 1 view .LVU267
 430:MCSDK_v6.3.2-Full/MotorControl/MCSDK/MCLib/Any/Src/sto_pll_speed_pos_fdbk.c ****     }
 658              		.loc 1 430 7 view .LVU268
 430:MCSDK_v6.3.2-Full/MotorControl/MCSDK/MCLib/Any/Src/sto_pll_speed_pos_fdbk.c ****     }
 659              		.loc 1 430 21 is_stmt 0 view .LVU269
 660 0030 9CFBF5F4 		sdiv	r4, ip, r5
 661              	.LVL65:
 433:MCSDK_v6.3.2-Full/MotorControl/MCSDK/MCLib/Any/Src/sto_pll_speed_pos_fdbk.c ****     {
 662              		.loc 1 433 5 is_stmt 1 view .LVU270
 433:MCSDK_v6.3.2-Full/MotorControl/MCSDK/MCLib/Any/Src/sto_pll_speed_pos_fdbk.c ****     {
ARM GAS  /tmp/ccNNILil.s 			page 27


 663              		.loc 1 433 18 view .LVU271
 430:MCSDK_v6.3.2-Full/MotorControl/MCSDK/MCLib/Any/Src/sto_pll_speed_pos_fdbk.c ****     }
 664              		.loc 1 430 21 is_stmt 0 view .LVU272
 665 0034 4FF0000C 		mov	ip, #0
 666              	.LVL66:
 667              	.L26:
 435:MCSDK_v6.3.2-Full/MotorControl/MCSDK/MCLib/Any/Src/sto_pll_speed_pos_fdbk.c ****       wError = (wError * wError);
 668              		.loc 1 435 7 is_stmt 1 discriminator 3 view .LVU273
 435:MCSDK_v6.3.2-Full/MotorControl/MCSDK/MCLib/Any/Src/sto_pll_speed_pos_fdbk.c ****       wError = (wError * wError);
 669              		.loc 1 435 17 is_stmt 0 discriminator 3 view .LVU274
 670 0038 32F9023F 		ldrsh	r3, [r2, #2]!
 435:MCSDK_v6.3.2-Full/MotorControl/MCSDK/MCLib/Any/Src/sto_pll_speed_pos_fdbk.c ****       wError = (wError * wError);
 671              		.loc 1 435 14 discriminator 3 view .LVU275
 672 003c 1B1B     		subs	r3, r3, r4
 673              	.LVL67:
 436:MCSDK_v6.3.2-Full/MotorControl/MCSDK/MCLib/Any/Src/sto_pll_speed_pos_fdbk.c ****       wAvrQuadraticError += wError;
 674              		.loc 1 436 7 is_stmt 1 discriminator 3 view .LVU276
 437:MCSDK_v6.3.2-Full/MotorControl/MCSDK/MCLib/Any/Src/sto_pll_speed_pos_fdbk.c ****     }
 675              		.loc 1 437 7 discriminator 3 view .LVU277
 437:MCSDK_v6.3.2-Full/MotorControl/MCSDK/MCLib/Any/Src/sto_pll_speed_pos_fdbk.c ****     }
 676              		.loc 1 437 26 is_stmt 0 discriminator 3 view .LVU278
 677 003e 03FB03CC 		mla	ip, r3, r3, ip
 678              	.LVL68:
 433:MCSDK_v6.3.2-Full/MotorControl/MCSDK/MCLib/Any/Src/sto_pll_speed_pos_fdbk.c ****     {
 679              		.loc 1 433 44 is_stmt 1 discriminator 3 view .LVU279
 433:MCSDK_v6.3.2-Full/MotorControl/MCSDK/MCLib/Any/Src/sto_pll_speed_pos_fdbk.c ****     {
 680              		.loc 1 433 18 discriminator 3 view .LVU280
 433:MCSDK_v6.3.2-Full/MotorControl/MCSDK/MCLib/Any/Src/sto_pll_speed_pos_fdbk.c ****     {
 681              		.loc 1 433 5 is_stmt 0 discriminator 3 view .LVU281
 682 0042 7245     		cmp	r2, lr
 683 0044 F8D1     		bne	.L26
 684              	.LVL69:
 685              	.L23:
 441:MCSDK_v6.3.2-Full/MotorControl/MCSDK/MCLib/Any/Src/sto_pll_speed_pos_fdbk.c **** 
 686              		.loc 1 441 5 is_stmt 1 view .LVU282
 441:MCSDK_v6.3.2-Full/MotorControl/MCSDK/MCLib/Any/Src/sto_pll_speed_pos_fdbk.c **** 
 687              		.loc 1 441 24 is_stmt 0 view .LVU283
 688 0046 9CFBF5FC 		sdiv	ip, ip, r5
 689              	.LVL70:
 444:MCSDK_v6.3.2-Full/MotorControl/MCSDK/MCLib/Any/Src/sto_pll_speed_pos_fdbk.c ****     int64_t lAvrSquareSpeed = (int64_t)(wAvrSquareSpeed) * (int64_t)pHandle->VariancePercentage;
 690              		.loc 1 444 5 is_stmt 1 view .LVU284
 445:MCSDK_v6.3.2-Full/MotorControl/MCSDK/MCLib/Any/Src/sto_pll_speed_pos_fdbk.c ****     wAvrSquareSpeed = (int32_t)(lAvrSquareSpeed / (int64_t)128);
 691              		.loc 1 445 5 view .LVU285
 446:MCSDK_v6.3.2-Full/MotorControl/MCSDK/MCLib/Any/Src/sto_pll_speed_pos_fdbk.c ****     
 692              		.loc 1 446 5 view .LVU286
 444:MCSDK_v6.3.2-Full/MotorControl/MCSDK/MCLib/Any/Src/sto_pll_speed_pos_fdbk.c ****     int64_t lAvrSquareSpeed = (int64_t)(wAvrSquareSpeed) * (int64_t)pHandle->VariancePercentage;
 693              		.loc 1 444 21 is_stmt 0 view .LVU287
 694 004a 04FB04F3 		mul	r3, r4, r4
 695              	.LVL71:
 445:MCSDK_v6.3.2-Full/MotorControl/MCSDK/MCLib/Any/Src/sto_pll_speed_pos_fdbk.c ****     wAvrSquareSpeed = (int32_t)(lAvrSquareSpeed / (int64_t)128);
 696              		.loc 1 445 31 view .LVU288
 697 004e 4FEAE37E 		asr	lr, r3, #31
 445:MCSDK_v6.3.2-Full/MotorControl/MCSDK/MCLib/Any/Src/sto_pll_speed_pos_fdbk.c ****     wAvrSquareSpeed = (int32_t)(lAvrSquareSpeed / (int64_t)128);
 698              		.loc 1 445 60 view .LVU289
 699 0052 B0F81051 		ldrh	r5, [r0, #272]
 700              	.LVL72:
 445:MCSDK_v6.3.2-Full/MotorControl/MCSDK/MCLib/Any/Src/sto_pll_speed_pos_fdbk.c ****     wAvrSquareSpeed = (int32_t)(lAvrSquareSpeed / (int64_t)128);
ARM GAS  /tmp/ccNNILil.s 			page 28


 701              		.loc 1 445 13 view .LVU290
 702 0056 A3FB0532 		umull	r3, r2, r3, r5
 703              	.LVL73:
 445:MCSDK_v6.3.2-Full/MotorControl/MCSDK/MCLib/Any/Src/sto_pll_speed_pos_fdbk.c ****     wAvrSquareSpeed = (int32_t)(lAvrSquareSpeed / (int64_t)128);
 704              		.loc 1 445 13 view .LVU291
 705 005a 05FB0E22 		mla	r2, r5, lr, r2
 446:MCSDK_v6.3.2-Full/MotorControl/MCSDK/MCLib/Any/Src/sto_pll_speed_pos_fdbk.c ****     
 706              		.loc 1 446 49 view .LVU292
 707 005e 1546     		mov	r5, r2
 708 0060 002A     		cmp	r2, #0
 709 0062 67DB     		blt	.L45
 710              	.L27:
 711 0064 DB09     		lsrs	r3, r3, #7
 712 0066 43EA4563 		orr	r3, r3, r5, lsl #25
 446:MCSDK_v6.3.2-Full/MotorControl/MCSDK/MCLib/Any/Src/sto_pll_speed_pos_fdbk.c ****     
 713              		.loc 1 446 21 view .LVU293
 714 006a 9E46     		mov	lr, r3
 715              	.LVL74:
 448:MCSDK_v6.3.2-Full/MotorControl/MCSDK/MCLib/Any/Src/sto_pll_speed_pos_fdbk.c ****     {
 716              		.loc 1 448 5 is_stmt 1 view .LVU294
 454:MCSDK_v6.3.2-Full/MotorControl/MCSDK/MCLib/Any/Src/sto_pll_speed_pos_fdbk.c ****     wAux = wAux * ((int32_t)pHandle->_Super.SpeedUnit);
 717              		.loc 1 454 5 view .LVU295
 454:MCSDK_v6.3.2-Full/MotorControl/MCSDK/MCLib/Any/Src/sto_pll_speed_pos_fdbk.c ****     wAux = wAux * ((int32_t)pHandle->_Super.SpeedUnit);
 718              		.loc 1 454 29 is_stmt 0 view .LVU296
 719 006c 428B     		ldrh	r2, [r0, #26]
 454:MCSDK_v6.3.2-Full/MotorControl/MCSDK/MCLib/Any/Src/sto_pll_speed_pos_fdbk.c ****     wAux = wAux * ((int32_t)pHandle->_Super.SpeedUnit);
 720              		.loc 1 454 10 view .LVU297
 721 006e 02FB04F4 		mul	r4, r2, r4
 722              	.LVL75:
 455:MCSDK_v6.3.2-Full/MotorControl/MCSDK/MCLib/Any/Src/sto_pll_speed_pos_fdbk.c ****     wAux = wAux / ((int32_t)pHandle->_Super.DPPConvFactor);
 723              		.loc 1 455 5 is_stmt 1 view .LVU298
 455:MCSDK_v6.3.2-Full/MotorControl/MCSDK/MCLib/Any/Src/sto_pll_speed_pos_fdbk.c ****     wAux = wAux / ((int32_t)pHandle->_Super.DPPConvFactor);
 724              		.loc 1 455 20 is_stmt 0 view .LVU299
 725 0072 8278     		ldrb	r2, [r0, #2]	@ zero_extendqisi2
 455:MCSDK_v6.3.2-Full/MotorControl/MCSDK/MCLib/Any/Src/sto_pll_speed_pos_fdbk.c ****     wAux = wAux / ((int32_t)pHandle->_Super.DPPConvFactor);
 726              		.loc 1 455 10 view .LVU300
 727 0074 04FB02F2 		mul	r2, r4, r2
 728              	.LVL76:
 456:MCSDK_v6.3.2-Full/MotorControl/MCSDK/MCLib/Any/Src/sto_pll_speed_pos_fdbk.c ****     wAux = wAux / ((int16_t)pHandle->_Super.bElToMecRatio);
 729              		.loc 1 456 5 is_stmt 1 view .LVU301
 456:MCSDK_v6.3.2-Full/MotorControl/MCSDK/MCLib/Any/Src/sto_pll_speed_pos_fdbk.c ****     wAux = wAux / ((int16_t)pHandle->_Super.bElToMecRatio);
 730              		.loc 1 456 10 is_stmt 0 view .LVU302
 731 0078 C469     		ldr	r4, [r0, #28]
 732 007a 92FBF4F2 		sdiv	r2, r2, r4
 733              	.LVL77:
 457:MCSDK_v6.3.2-Full/MotorControl/MCSDK/MCLib/Any/Src/sto_pll_speed_pos_fdbk.c **** 
 734              		.loc 1 457 5 is_stmt 1 view .LVU303
 457:MCSDK_v6.3.2-Full/MotorControl/MCSDK/MCLib/Any/Src/sto_pll_speed_pos_fdbk.c **** 
 735              		.loc 1 457 20 is_stmt 0 view .LVU304
 736 007e 4478     		ldrb	r4, [r0, #1]	@ zero_extendqisi2
 457:MCSDK_v6.3.2-Full/MotorControl/MCSDK/MCLib/Any/Src/sto_pll_speed_pos_fdbk.c **** 
 737              		.loc 1 457 10 view .LVU305
 738 0080 92FBF4F2 		sdiv	r2, r2, r4
 739              	.LVL78:
 459:MCSDK_v6.3.2-Full/MotorControl/MCSDK/MCLib/Any/Src/sto_pll_speed_pos_fdbk.c ****     pHandle->_Super.hAvrMecSpeedUnit = (int16_t)wAux;
 740              		.loc 1 459 5 is_stmt 1 view .LVU306
 459:MCSDK_v6.3.2-Full/MotorControl/MCSDK/MCLib/Any/Src/sto_pll_speed_pos_fdbk.c ****     pHandle->_Super.hAvrMecSpeedUnit = (int16_t)wAux;
ARM GAS  /tmp/ccNNILil.s 			page 29


 741              		.loc 1 459 22 is_stmt 0 view .LVU307
 742 0084 14B2     		sxth	r4, r2
 459:MCSDK_v6.3.2-Full/MotorControl/MCSDK/MCLib/Any/Src/sto_pll_speed_pos_fdbk.c ****     pHandle->_Super.hAvrMecSpeedUnit = (int16_t)wAux;
 743              		.loc 1 459 20 view .LVU308
 744 0086 0C80     		strh	r4, [r1]	@ movhi
 745              	.LVL79:
 460:MCSDK_v6.3.2-Full/MotorControl/MCSDK/MCLib/Any/Src/sto_pll_speed_pos_fdbk.c **** 
 746              		.loc 1 460 5 is_stmt 1 view .LVU309
 460:MCSDK_v6.3.2-Full/MotorControl/MCSDK/MCLib/Any/Src/sto_pll_speed_pos_fdbk.c **** 
 747              		.loc 1 460 38 is_stmt 0 view .LVU310
 748 0088 8481     		strh	r4, [r0, #12]	@ movhi
 462:MCSDK_v6.3.2-Full/MotorControl/MCSDK/MCLib/Any/Src/sto_pll_speed_pos_fdbk.c **** 
 749              		.loc 1 462 5 is_stmt 1 view .LVU311
 448:MCSDK_v6.3.2-Full/MotorControl/MCSDK/MCLib/Any/Src/sto_pll_speed_pos_fdbk.c ****     {
 750              		.loc 1 448 8 is_stmt 0 view .LVU312
 751 008a 9C45     		cmp	ip, r3
 752 008c ACBF     		ite	ge
 753 008e 0023     		movge	r3, #0
 754              	.LVL80:
 448:MCSDK_v6.3.2-Full/MotorControl/MCSDK/MCLib/Any/Src/sto_pll_speed_pos_fdbk.c ****     {
 755              		.loc 1 448 8 view .LVU313
 756 0090 0123     		movlt	r3, #1
 757 0092 80F8F530 		strb	r3, [r0, #245]
 465:MCSDK_v6.3.2-Full/MotorControl/MCSDK/MCLib/Any/Src/sto_pll_speed_pos_fdbk.c ****     {
 758              		.loc 1 465 5 is_stmt 1 view .LVU314
 465:MCSDK_v6.3.2-Full/MotorControl/MCSDK/MCLib/Any/Src/sto_pll_speed_pos_fdbk.c ****     {
 759              		.loc 1 465 8 is_stmt 0 view .LVU315
 760 0096 90F80431 		ldrb	r3, [r0, #260]	@ zero_extendqisi2
 761 009a 002B     		cmp	r3, #0
 762 009c 52D0     		beq	.L38
 469:MCSDK_v6.3.2-Full/MotorControl/MCSDK/MCLib/Any/Src/sto_pll_speed_pos_fdbk.c ****       if (wAux < (int32_t)(pHandle->MaxAppPositiveMecSpeedUnit))
 763              		.loc 1 469 7 is_stmt 1 view .LVU316
 469:MCSDK_v6.3.2-Full/MotorControl/MCSDK/MCLib/Any/Src/sto_pll_speed_pos_fdbk.c ****       if (wAux < (int32_t)(pHandle->MaxAppPositiveMecSpeedUnit))
 764              		.loc 1 469 12 is_stmt 0 view .LVU317
 765 009e 002A     		cmp	r2, #0
 766 00a0 B8BF     		it	lt
 767 00a2 5242     		rsblt	r2, r2, #0
 768              	.LVL81:
 470:MCSDK_v6.3.2-Full/MotorControl/MCSDK/MCLib/Any/Src/sto_pll_speed_pos_fdbk.c ****       {
 769              		.loc 1 470 7 is_stmt 1 view .LVU318
 470:MCSDK_v6.3.2-Full/MotorControl/MCSDK/MCLib/Any/Src/sto_pll_speed_pos_fdbk.c ****       {
 770              		.loc 1 470 18 is_stmt 0 view .LVU319
 771 00a4 B0F81A31 		ldrh	r3, [r0, #282]
 470:MCSDK_v6.3.2-Full/MotorControl/MCSDK/MCLib/Any/Src/sto_pll_speed_pos_fdbk.c ****       {
 772              		.loc 1 470 10 view .LVU320
 773 00a8 9342     		cmp	r3, r2
 774 00aa 47DD     		ble	.L39
 473:MCSDK_v6.3.2-Full/MotorControl/MCSDK/MCLib/Any/Src/sto_pll_speed_pos_fdbk.c ****         wObsBemfSq = wObsBemf * wObsBemf;
 775              		.loc 1 473 9 is_stmt 1 view .LVU321
 473:MCSDK_v6.3.2-Full/MotorControl/MCSDK/MCLib/Any/Src/sto_pll_speed_pos_fdbk.c ****         wObsBemfSq = wObsBemf * wObsBemf;
 776              		.loc 1 473 18 is_stmt 0 view .LVU322
 777 00ac B0F97040 		ldrsh	r4, [r0, #112]
 778              	.LVL82:
 474:MCSDK_v6.3.2-Full/MotorControl/MCSDK/MCLib/Any/Src/sto_pll_speed_pos_fdbk.c ****         wObsBemf = (int32_t)pHandle->hBemf_beta_est;
 779              		.loc 1 474 9 is_stmt 1 view .LVU323
 475:MCSDK_v6.3.2-Full/MotorControl/MCSDK/MCLib/Any/Src/sto_pll_speed_pos_fdbk.c ****         wObsBemfSq += wObsBemf * wObsBemf;
 780              		.loc 1 475 9 view .LVU324
ARM GAS  /tmp/ccNNILil.s 			page 30


 475:MCSDK_v6.3.2-Full/MotorControl/MCSDK/MCLib/Any/Src/sto_pll_speed_pos_fdbk.c ****         wObsBemfSq += wObsBemf * wObsBemf;
 781              		.loc 1 475 18 is_stmt 0 view .LVU325
 782 00b0 B0F97230 		ldrsh	r3, [r0, #114]
 783              	.LVL83:
 476:MCSDK_v6.3.2-Full/MotorControl/MCSDK/MCLib/Any/Src/sto_pll_speed_pos_fdbk.c **** 
 784              		.loc 1 476 9 is_stmt 1 view .LVU326
 476:MCSDK_v6.3.2-Full/MotorControl/MCSDK/MCLib/Any/Src/sto_pll_speed_pos_fdbk.c **** 
 785              		.loc 1 476 32 is_stmt 0 view .LVU327
 786 00b4 03FB03F3 		mul	r3, r3, r3
 787              	.LVL84:
 476:MCSDK_v6.3.2-Full/MotorControl/MCSDK/MCLib/Any/Src/sto_pll_speed_pos_fdbk.c **** 
 788              		.loc 1 476 20 view .LVU328
 789 00b8 04FB0434 		mla	r4, r4, r4, r3
 790              	.LVL85:
 479:MCSDK_v6.3.2-Full/MotorControl/MCSDK/MCLib/Any/Src/sto_pll_speed_pos_fdbk.c ****         wEstBemfSq = (wEstBemf * ((int32_t)pHandle->BemfConsistencyGain)) / 64;
 791              		.loc 1 479 9 is_stmt 1 view .LVU329
 479:MCSDK_v6.3.2-Full/MotorControl/MCSDK/MCLib/Any/Src/sto_pll_speed_pos_fdbk.c ****         wEstBemfSq = (wEstBemf * ((int32_t)pHandle->BemfConsistencyGain)) / 64;
 792              		.loc 1 479 26 is_stmt 0 view .LVU330
 793 00bc C2EBC232 		rsb	r2, r2, r2, lsl #15
 794              	.LVL86:
 479:MCSDK_v6.3.2-Full/MotorControl/MCSDK/MCLib/Any/Src/sto_pll_speed_pos_fdbk.c ****         wEstBemfSq = (wEstBemf * ((int32_t)pHandle->BemfConsistencyGain)) / 64;
 795              		.loc 1 479 38 view .LVU331
 796 00c0 B0F91430 		ldrsh	r3, [r0, #20]
 479:MCSDK_v6.3.2-Full/MotorControl/MCSDK/MCLib/Any/Src/sto_pll_speed_pos_fdbk.c ****         wEstBemfSq = (wEstBemf * ((int32_t)pHandle->BemfConsistencyGain)) / 64;
 797              		.loc 1 479 18 view .LVU332
 798 00c4 92FBF3F3 		sdiv	r3, r2, r3
 799              	.LVL87:
 480:MCSDK_v6.3.2-Full/MotorControl/MCSDK/MCLib/Any/Src/sto_pll_speed_pos_fdbk.c ****         wEstBemfSq *= wEstBemf;
 800              		.loc 1 480 9 is_stmt 1 view .LVU333
 480:MCSDK_v6.3.2-Full/MotorControl/MCSDK/MCLib/Any/Src/sto_pll_speed_pos_fdbk.c ****         wEstBemfSq *= wEstBemf;
 801              		.loc 1 480 35 is_stmt 0 view .LVU334
 802 00c8 90F81821 		ldrb	r2, [r0, #280]	@ zero_extendqisi2
 480:MCSDK_v6.3.2-Full/MotorControl/MCSDK/MCLib/Any/Src/sto_pll_speed_pos_fdbk.c ****         wEstBemfSq *= wEstBemf;
 803              		.loc 1 480 32 view .LVU335
 804 00cc 03FB02F2 		mul	r2, r3, r2
 480:MCSDK_v6.3.2-Full/MotorControl/MCSDK/MCLib/Any/Src/sto_pll_speed_pos_fdbk.c ****         wEstBemfSq *= wEstBemf;
 805              		.loc 1 480 20 view .LVU336
 806 00d0 002A     		cmp	r2, #0
 807 00d2 B8BF     		it	lt
 808 00d4 3F32     		addlt	r2, r2, #63
 809 00d6 9211     		asrs	r2, r2, #6
 810              	.LVL88:
 481:MCSDK_v6.3.2-Full/MotorControl/MCSDK/MCLib/Any/Src/sto_pll_speed_pos_fdbk.c **** 
 811              		.loc 1 481 9 is_stmt 1 view .LVU337
 481:MCSDK_v6.3.2-Full/MotorControl/MCSDK/MCLib/Any/Src/sto_pll_speed_pos_fdbk.c **** 
 812              		.loc 1 481 20 is_stmt 0 view .LVU338
 813 00d8 02FB03F3 		mul	r3, r2, r3
 814              	.LVL89:
 484:MCSDK_v6.3.2-Full/MotorControl/MCSDK/MCLib/Any/Src/sto_pll_speed_pos_fdbk.c **** 
 815              		.loc 1 484 9 is_stmt 1 view .LVU339
 487:MCSDK_v6.3.2-Full/MotorControl/MCSDK/MCLib/Any/Src/sto_pll_speed_pos_fdbk.c ****         {
 816              		.loc 1 487 9 view .LVU340
 484:MCSDK_v6.3.2-Full/MotorControl/MCSDK/MCLib/Any/Src/sto_pll_speed_pos_fdbk.c **** 
 817              		.loc 1 484 50 is_stmt 0 view .LVU341
 818 00dc 1A46     		mov	r2, r3
 819 00de 002B     		cmp	r3, #0
 820 00e0 B8BF     		it	lt
ARM GAS  /tmp/ccNNILil.s 			page 31


 821 00e2 03F13F02 		addlt	r2, r3, #63
 822 00e6 9211     		asrs	r2, r2, #6
 484:MCSDK_v6.3.2-Full/MotorControl/MCSDK/MCLib/Any/Src/sto_pll_speed_pos_fdbk.c **** 
 823              		.loc 1 484 59 view .LVU342
 824 00e8 90F81751 		ldrb	r5, [r0, #279]	@ zero_extendqisi2
 484:MCSDK_v6.3.2-Full/MotorControl/MCSDK/MCLib/Any/Src/sto_pll_speed_pos_fdbk.c **** 
 825              		.loc 1 484 22 view .LVU343
 826 00ec 05FB1232 		mls	r2, r5, r2, r3
 487:MCSDK_v6.3.2-Full/MotorControl/MCSDK/MCLib/Any/Src/sto_pll_speed_pos_fdbk.c ****         {
 827              		.loc 1 487 12 view .LVU344
 828 00f0 9442     		cmp	r4, r2
 829 00f2 D4BF     		ite	le
 830 00f4 0022     		movle	r2, #0
 831 00f6 0122     		movgt	r2, #1
 832              	.LVL90:
 833              	.L29:
 494:MCSDK_v6.3.2-Full/MotorControl/MCSDK/MCLib/Any/Src/sto_pll_speed_pos_fdbk.c ****       }
 834              		.loc 1 494 9 is_stmt 1 view .LVU345
 497:MCSDK_v6.3.2-Full/MotorControl/MCSDK/MCLib/Any/Src/sto_pll_speed_pos_fdbk.c ****       pHandle->Obs_Bemf_Level = wObsBemfSq;
 835              		.loc 1 497 7 view .LVU346
 497:MCSDK_v6.3.2-Full/MotorControl/MCSDK/MCLib/Any/Src/sto_pll_speed_pos_fdbk.c ****       pHandle->Obs_Bemf_Level = wObsBemfSq;
 836              		.loc 1 497 33 is_stmt 0 view .LVU347
 837 00f8 80F8F920 		strb	r2, [r0, #249]
 498:MCSDK_v6.3.2-Full/MotorControl/MCSDK/MCLib/Any/Src/sto_pll_speed_pos_fdbk.c ****       pHandle->Est_Bemf_Level = wEstBemfSq;
 838              		.loc 1 498 7 is_stmt 1 view .LVU348
 498:MCSDK_v6.3.2-Full/MotorControl/MCSDK/MCLib/Any/Src/sto_pll_speed_pos_fdbk.c ****       pHandle->Est_Bemf_Level = wEstBemfSq;
 839              		.loc 1 498 31 is_stmt 0 view .LVU349
 840 00fc C0F8FC40 		str	r4, [r0, #252]
 499:MCSDK_v6.3.2-Full/MotorControl/MCSDK/MCLib/Any/Src/sto_pll_speed_pos_fdbk.c ****     }
 841              		.loc 1 499 7 is_stmt 1 view .LVU350
 499:MCSDK_v6.3.2-Full/MotorControl/MCSDK/MCLib/Any/Src/sto_pll_speed_pos_fdbk.c ****     }
 842              		.loc 1 499 31 is_stmt 0 view .LVU351
 843 0100 C0F80031 		str	r3, [r0, #256]
 844              	.LVL91:
 845              	.L28:
 507:MCSDK_v6.3.2-Full/MotorControl/MCSDK/MCLib/Any/Src/sto_pll_speed_pos_fdbk.c ****     {
 846              		.loc 1 507 5 is_stmt 1 view .LVU352
 507:MCSDK_v6.3.2-Full/MotorControl/MCSDK/MCLib/Any/Src/sto_pll_speed_pos_fdbk.c ****     {
 847              		.loc 1 507 8 is_stmt 0 view .LVU353
 848 0104 90F8F830 		ldrb	r3, [r0, #248]	@ zero_extendqisi2
 849 0108 F3B1     		cbz	r3, .L46
 513:MCSDK_v6.3.2-Full/MotorControl/MCSDK/MCLib/Any/Src/sto_pll_speed_pos_fdbk.c ****       {
 850              		.loc 1 513 7 is_stmt 1 view .LVU354
 513:MCSDK_v6.3.2-Full/MotorControl/MCSDK/MCLib/Any/Src/sto_pll_speed_pos_fdbk.c ****       {
 851              		.loc 1 513 10 is_stmt 0 view .LVU355
 852 010a F445     		cmp	ip, lr
 853 010c 00DA     		bge	.L34
 513:MCSDK_v6.3.2-Full/MotorControl/MCSDK/MCLib/Any/Src/sto_pll_speed_pos_fdbk.c ****       {
 854              		.loc 1 513 47 discriminator 1 view .LVU356
 855 010e 0ABB     		cbnz	r2, .L35
 856              	.L34:
 515:MCSDK_v6.3.2-Full/MotorControl/MCSDK/MCLib/Any/Src/sto_pll_speed_pos_fdbk.c ****         if (pHandle->ReliabilityCounter >= pHandle->_Super.bMaximumSpeedErrorsNumber)
 857              		.loc 1 515 9 is_stmt 1 view .LVU357
 515:MCSDK_v6.3.2-Full/MotorControl/MCSDK/MCLib/Any/Src/sto_pll_speed_pos_fdbk.c ****         if (pHandle->ReliabilityCounter >= pHandle->_Super.bMaximumSpeedErrorsNumber)
 858              		.loc 1 515 36 is_stmt 0 view .LVU358
 859 0110 90F8F730 		ldrb	r3, [r0, #247]	@ zero_extendqisi2
 860 0114 0133     		adds	r3, r3, #1
ARM GAS  /tmp/ccNNILil.s 			page 32


 861 0116 DBB2     		uxtb	r3, r3
 862 0118 80F8F730 		strb	r3, [r0, #247]
 516:MCSDK_v6.3.2-Full/MotorControl/MCSDK/MCLib/Any/Src/sto_pll_speed_pos_fdbk.c ****         {
 863              		.loc 1 516 9 is_stmt 1 view .LVU359
 516:MCSDK_v6.3.2-Full/MotorControl/MCSDK/MCLib/Any/Src/sto_pll_speed_pos_fdbk.c ****         {
 864              		.loc 1 516 59 is_stmt 0 view .LVU360
 865 011c C278     		ldrb	r2, [r0, #3]	@ zero_extendqisi2
 866              	.LVL92:
 516:MCSDK_v6.3.2-Full/MotorControl/MCSDK/MCLib/Any/Src/sto_pll_speed_pos_fdbk.c ****         {
 867              		.loc 1 516 12 view .LVU361
 868 011e 9342     		cmp	r3, r2
 869 0120 15D3     		bcc	.L36
 518:MCSDK_v6.3.2-Full/MotorControl/MCSDK/MCLib/Any/Src/sto_pll_speed_pos_fdbk.c ****           pHandle->_Super.bSpeedErrorNumber = pHandle->_Super.bMaximumSpeedErrorsNumber;
 870              		.loc 1 518 11 is_stmt 1 view .LVU362
 518:MCSDK_v6.3.2-Full/MotorControl/MCSDK/MCLib/Any/Src/sto_pll_speed_pos_fdbk.c ****           pHandle->_Super.bSpeedErrorNumber = pHandle->_Super.bMaximumSpeedErrorsNumber;
 871              		.loc 1 518 39 is_stmt 0 view .LVU363
 872 0122 0023     		movs	r3, #0
 873 0124 80F8F730 		strb	r3, [r0, #247]
 519:MCSDK_v6.3.2-Full/MotorControl/MCSDK/MCLib/Any/Src/sto_pll_speed_pos_fdbk.c ****           bAux = false;
 874              		.loc 1 519 11 is_stmt 1 view .LVU364
 519:MCSDK_v6.3.2-Full/MotorControl/MCSDK/MCLib/Any/Src/sto_pll_speed_pos_fdbk.c ****           bAux = false;
 875              		.loc 1 519 45 is_stmt 0 view .LVU365
 876 0128 0270     		strb	r2, [r0]
 520:MCSDK_v6.3.2-Full/MotorControl/MCSDK/MCLib/Any/Src/sto_pll_speed_pos_fdbk.c ****         }
 877              		.loc 1 520 11 is_stmt 1 view .LVU366
 878              	.LVL93:
 520:MCSDK_v6.3.2-Full/MotorControl/MCSDK/MCLib/Any/Src/sto_pll_speed_pos_fdbk.c ****         }
 879              		.loc 1 520 16 is_stmt 0 view .LVU367
 880 012a 1846     		mov	r0, r3
 881              	.LVL94:
 882              	.L43:
 537:MCSDK_v6.3.2-Full/MotorControl/MCSDK/MCLib/Any/Src/sto_pll_speed_pos_fdbk.c **** 
 883              		.loc 1 537 1 view .LVU368
 884 012c 38BD     		pop	{r3, r4, r5, pc}
 885              	.LVL95:
 886              	.L37:
 406:MCSDK_v6.3.2-Full/MotorControl/MCSDK/MCLib/Any/Src/sto_pll_speed_pos_fdbk.c ****     int32_t wError;
 887              		.loc 1 406 13 view .LVU369
 888 012e 0024     		movs	r4, #0
 410:MCSDK_v6.3.2-Full/MotorControl/MCSDK/MCLib/Any/Src/sto_pll_speed_pos_fdbk.c ****     int32_t wObsBemf, wEstBemf;
 889              		.loc 1 410 13 view .LVU370
 890 0130 A446     		mov	ip, r4
 891 0132 88E7     		b	.L23
 892              	.LVL96:
 893              	.L45:
 446:MCSDK_v6.3.2-Full/MotorControl/MCSDK/MCLib/Any/Src/sto_pll_speed_pos_fdbk.c ****     
 894              		.loc 1 446 49 view .LVU371
 895 0134 7F33     		adds	r3, r3, #127
 896 0136 42F10005 		adc	r5, r2, #0
 897 013a 93E7     		b	.L27
 898              	.LVL97:
 899              	.L39:
 416:MCSDK_v6.3.2-Full/MotorControl/MCSDK/MCLib/Any/Src/sto_pll_speed_pos_fdbk.c ****     uint8_t i, bSpeedBufferSizeUnit = pHandle->SpeedBufferSizeUnit;
 900              		.loc 1 416 10 view .LVU372
 901 013c 0022     		movs	r2, #0
 902              	.LVL98:
 413:MCSDK_v6.3.2-Full/MotorControl/MCSDK/MCLib/Any/Src/sto_pll_speed_pos_fdbk.c ****     int32_t wEstBemfSqLo;
ARM GAS  /tmp/ccNNILil.s 			page 33


 903              		.loc 1 413 13 view .LVU373
 904 013e 1346     		mov	r3, r2
 412:MCSDK_v6.3.2-Full/MotorControl/MCSDK/MCLib/Any/Src/sto_pll_speed_pos_fdbk.c ****     int32_t wEstBemfSq = 0;
 905              		.loc 1 412 13 view .LVU374
 906 0140 1446     		mov	r4, r2
 907 0142 D9E7     		b	.L29
 908              	.LVL99:
 909              	.L38:
 503:MCSDK_v6.3.2-Full/MotorControl/MCSDK/MCLib/Any/Src/sto_pll_speed_pos_fdbk.c ****     }
 910              		.loc 1 503 27 view .LVU375
 911 0144 0122     		movs	r2, #1
 912              	.LVL100:
 503:MCSDK_v6.3.2-Full/MotorControl/MCSDK/MCLib/Any/Src/sto_pll_speed_pos_fdbk.c ****     }
 913              		.loc 1 503 27 view .LVU376
 914 0146 DDE7     		b	.L28
 915              	.LVL101:
 916              	.L46:
 509:MCSDK_v6.3.2-Full/MotorControl/MCSDK/MCLib/Any/Src/sto_pll_speed_pos_fdbk.c ****     }
 917              		.loc 1 509 7 is_stmt 1 view .LVU377
 509:MCSDK_v6.3.2-Full/MotorControl/MCSDK/MCLib/Any/Src/sto_pll_speed_pos_fdbk.c ****     }
 918              		.loc 1 509 14 is_stmt 0 view .LVU378
 919 0148 FFF7FEFF 		bl	SPD_IsMecSpeedReliable
 920              	.LVL102:
 509:MCSDK_v6.3.2-Full/MotorControl/MCSDK/MCLib/Any/Src/sto_pll_speed_pos_fdbk.c ****     }
 921              		.loc 1 509 14 view .LVU379
 922 014c EEE7     		b	.L43
 923              	.LVL103:
 924              	.L36:
 524:MCSDK_v6.3.2-Full/MotorControl/MCSDK/MCLib/Any/Src/sto_pll_speed_pos_fdbk.c ****         }
 925              		.loc 1 524 11 is_stmt 1 view .LVU380
 524:MCSDK_v6.3.2-Full/MotorControl/MCSDK/MCLib/Any/Src/sto_pll_speed_pos_fdbk.c ****         }
 926              		.loc 1 524 18 is_stmt 0 view .LVU381
 927 014e FFF7FEFF 		bl	SPD_IsMecSpeedReliable
 928              	.LVL104:
 524:MCSDK_v6.3.2-Full/MotorControl/MCSDK/MCLib/Any/Src/sto_pll_speed_pos_fdbk.c ****         }
 929              		.loc 1 524 18 view .LVU382
 930 0152 EBE7     		b	.L43
 931              	.LVL105:
 932              	.L35:
 529:MCSDK_v6.3.2-Full/MotorControl/MCSDK/MCLib/Any/Src/sto_pll_speed_pos_fdbk.c ****         bAux = SPD_IsMecSpeedReliable (&pHandle->_Super, pMecSpeedUnit);
 933              		.loc 1 529 9 is_stmt 1 view .LVU383
 529:MCSDK_v6.3.2-Full/MotorControl/MCSDK/MCLib/Any/Src/sto_pll_speed_pos_fdbk.c ****         bAux = SPD_IsMecSpeedReliable (&pHandle->_Super, pMecSpeedUnit);
 934              		.loc 1 529 37 is_stmt 0 view .LVU384
 935 0154 0023     		movs	r3, #0
 936 0156 80F8F730 		strb	r3, [r0, #247]
 530:MCSDK_v6.3.2-Full/MotorControl/MCSDK/MCLib/Any/Src/sto_pll_speed_pos_fdbk.c ****       }
 937              		.loc 1 530 9 is_stmt 1 view .LVU385
 530:MCSDK_v6.3.2-Full/MotorControl/MCSDK/MCLib/Any/Src/sto_pll_speed_pos_fdbk.c ****       }
 938              		.loc 1 530 16 is_stmt 0 view .LVU386
 939 015a FFF7FEFF 		bl	SPD_IsMecSpeedReliable
 940              	.LVL106:
 536:MCSDK_v6.3.2-Full/MotorControl/MCSDK/MCLib/Any/Src/sto_pll_speed_pos_fdbk.c **** }
 941              		.loc 1 536 3 is_stmt 1 view .LVU387
 536:MCSDK_v6.3.2-Full/MotorControl/MCSDK/MCLib/Any/Src/sto_pll_speed_pos_fdbk.c **** }
 942              		.loc 1 536 10 is_stmt 0 view .LVU388
 943 015e E5E7     		b	.L43
 944              		.cfi_endproc
ARM GAS  /tmp/ccNNILil.s 			page 34


 945              	.LFE1451:
 947              		.section	.text.STO_PLL_CalcAvrgElSpeedDpp,"ax",%progbits
 948              		.align	1
 949              		.weak	STO_PLL_CalcAvrgElSpeedDpp
 950              		.syntax unified
 951              		.thumb
 952              		.thumb_func
 953              		.fpu fpv4-sp-d16
 955              	STO_PLL_CalcAvrgElSpeedDpp:
 956              	.LVL107:
 957              	.LFB1452:
 559:MCSDK_v6.3.2-Full/MotorControl/MCSDK/MCLib/Any/Src/sto_pll_speed_pos_fdbk.c **** #ifdef NULL_PTR_CHECK_STO_PLL_SPD_POS_FDB
 958              		.loc 1 559 1 is_stmt 1 view -0
 959              		.cfi_startproc
 960              		@ args = 0, pretend = 0, frame = 0
 961              		@ frame_needed = 0, uses_anonymous_args = 0
 559:MCSDK_v6.3.2-Full/MotorControl/MCSDK/MCLib/Any/Src/sto_pll_speed_pos_fdbk.c **** #ifdef NULL_PTR_CHECK_STO_PLL_SPD_POS_FDB
 962              		.loc 1 559 1 is_stmt 0 view .LVU390
 963 0000 10B5     		push	{r4, lr}
 964              	.LCFI7:
 965              		.cfi_def_cfa_offset 8
 966              		.cfi_offset 4, -8
 967              		.cfi_offset 14, -4
 568:MCSDK_v6.3.2-Full/MotorControl/MCSDK/MCLib/Any/Src/sto_pll_speed_pos_fdbk.c ****     int32_t wAvrSpeed_dpp;
 968              		.loc 1 568 5 is_stmt 1 view .LVU391
 568:MCSDK_v6.3.2-Full/MotorControl/MCSDK/MCLib/Any/Src/sto_pll_speed_pos_fdbk.c ****     int32_t wAvrSpeed_dpp;
 969              		.loc 1 568 13 is_stmt 0 view .LVU392
 970 0002 D0F80841 		ldr	r4, [r0, #264]
 971              	.LVL108:
 569:MCSDK_v6.3.2-Full/MotorControl/MCSDK/MCLib/Any/Src/sto_pll_speed_pos_fdbk.c ****     int16_t hSpeedBufferSizedpp = (int16_t)pHandle->SpeedBufferSizeDpp;
 972              		.loc 1 569 5 is_stmt 1 view .LVU393
 570:MCSDK_v6.3.2-Full/MotorControl/MCSDK/MCLib/Any/Src/sto_pll_speed_pos_fdbk.c ****     int16_t hSpeedBufferSizeUnit = (int16_t)pHandle->SpeedBufferSizeUnit;
 973              		.loc 1 570 5 view .LVU394
 571:MCSDK_v6.3.2-Full/MotorControl/MCSDK/MCLib/Any/Src/sto_pll_speed_pos_fdbk.c ****     int16_t hBufferSizeDiff;
 974              		.loc 1 571 5 view .LVU395
 571:MCSDK_v6.3.2-Full/MotorControl/MCSDK/MCLib/Any/Src/sto_pll_speed_pos_fdbk.c ****     int16_t hBufferSizeDiff;
 975              		.loc 1 571 52 is_stmt 0 view .LVU396
 976 0006 90F80EC1 		ldrb	ip, [r0, #270]	@ zero_extendqisi2
 977              	.LVL109:
 572:MCSDK_v6.3.2-Full/MotorControl/MCSDK/MCLib/Any/Src/sto_pll_speed_pos_fdbk.c ****     int16_t hIndexNew = (int16_t)pHandle->Speed_Buffer_Index;
 978              		.loc 1 572 5 is_stmt 1 view .LVU397
 573:MCSDK_v6.3.2-Full/MotorControl/MCSDK/MCLib/Any/Src/sto_pll_speed_pos_fdbk.c ****     int16_t hIndexOld;
 979              		.loc 1 573 5 view .LVU398
 573:MCSDK_v6.3.2-Full/MotorControl/MCSDK/MCLib/Any/Src/sto_pll_speed_pos_fdbk.c ****     int16_t hIndexOld;
 980              		.loc 1 573 41 is_stmt 0 view .LVU399
 981 000a 90F8F410 		ldrb	r1, [r0, #244]	@ zero_extendqisi2
 982              	.LVL110:
 574:MCSDK_v6.3.2-Full/MotorControl/MCSDK/MCLib/Any/Src/sto_pll_speed_pos_fdbk.c ****     int16_t hIndexOldTemp;
 983              		.loc 1 574 5 is_stmt 1 view .LVU400
 575:MCSDK_v6.3.2-Full/MotorControl/MCSDK/MCLib/Any/Src/sto_pll_speed_pos_fdbk.c **** 
 984              		.loc 1 575 5 view .LVU401
 577:MCSDK_v6.3.2-Full/MotorControl/MCSDK/MCLib/Any/Src/sto_pll_speed_pos_fdbk.c **** 
 985              		.loc 1 577 5 view .LVU402
 577:MCSDK_v6.3.2-Full/MotorControl/MCSDK/MCLib/Any/Src/sto_pll_speed_pos_fdbk.c **** 
 986              		.loc 1 577 44 is_stmt 0 view .LVU403
 987 000e 90F80F31 		ldrb	r3, [r0, #271]	@ zero_extendqisi2
 988 0012 ACEB0303 		sub	r3, ip, r3
ARM GAS  /tmp/ccNNILil.s 			page 35


 989 0016 9BB2     		uxth	r3, r3
 990              	.LVL111:
 579:MCSDK_v6.3.2-Full/MotorControl/MCSDK/MCLib/Any/Src/sto_pll_speed_pos_fdbk.c ****     {
 991              		.loc 1 579 5 is_stmt 1 view .LVU404
 579:MCSDK_v6.3.2-Full/MotorControl/MCSDK/MCLib/Any/Src/sto_pll_speed_pos_fdbk.c ****     {
 992              		.loc 1 579 8 is_stmt 0 view .LVU405
 993 0018 7BB9     		cbnz	r3, .L48
 581:MCSDK_v6.3.2-Full/MotorControl/MCSDK/MCLib/Any/Src/sto_pll_speed_pos_fdbk.c ****     }
 994              		.loc 1 581 7 is_stmt 1 view .LVU406
 581:MCSDK_v6.3.2-Full/MotorControl/MCSDK/MCLib/Any/Src/sto_pll_speed_pos_fdbk.c ****     }
 995              		.loc 1 581 42 is_stmt 0 view .LVU407
 996 001a 00EB4101 		add	r1, r0, r1, lsl #1
 997              	.LVL112:
 581:MCSDK_v6.3.2-Full/MotorControl/MCSDK/MCLib/Any/Src/sto_pll_speed_pos_fdbk.c ****     }
 998              		.loc 1 581 42 view .LVU408
 999 001e B1F97430 		ldrsh	r3, [r1, #116]
 1000              	.LVL113:
 581:MCSDK_v6.3.2-Full/MotorControl/MCSDK/MCLib/Any/Src/sto_pll_speed_pos_fdbk.c ****     }
 1001              		.loc 1 581 19 view .LVU409
 1002 0022 2344     		add	r3, r3, r4
 581:MCSDK_v6.3.2-Full/MotorControl/MCSDK/MCLib/Any/Src/sto_pll_speed_pos_fdbk.c ****     }
 1003              		.loc 1 581 63 view .LVU410
 1004 0024 B0F90C21 		ldrsh	r2, [r0, #268]
 581:MCSDK_v6.3.2-Full/MotorControl/MCSDK/MCLib/Any/Src/sto_pll_speed_pos_fdbk.c ****     }
 1005              		.loc 1 581 12 view .LVU411
 1006 0028 9B1A     		subs	r3, r3, r2
 1007              	.LVL114:
 1008              	.L49:
 601:MCSDK_v6.3.2-Full/MotorControl/MCSDK/MCLib/Any/Src/sto_pll_speed_pos_fdbk.c **** #else
 1009              		.loc 1 601 3 is_stmt 1 view .LVU412
 613:MCSDK_v6.3.2-Full/MotorControl/MCSDK/MCLib/Any/Src/sto_pll_speed_pos_fdbk.c ****     pHandle->DppBufferSum = wSum;
 1010              		.loc 1 613 5 view .LVU413
 601:MCSDK_v6.3.2-Full/MotorControl/MCSDK/MCLib/Any/Src/sto_pll_speed_pos_fdbk.c **** #else
 1011              		.loc 1 601 34 is_stmt 0 view .LVU414
 1012 002a B0F82021 		ldrh	r2, [r0, #288]
 601:MCSDK_v6.3.2-Full/MotorControl/MCSDK/MCLib/Any/Src/sto_pll_speed_pos_fdbk.c **** #else
 1013              		.loc 1 601 17 view .LVU415
 1014 002e 43FA02F2 		asr	r2, r3, r2
 1015              	.LVL115:
 613:MCSDK_v6.3.2-Full/MotorControl/MCSDK/MCLib/Any/Src/sto_pll_speed_pos_fdbk.c ****     pHandle->DppBufferSum = wSum;
 1016              		.loc 1 613 35 view .LVU416
 1017 0032 C281     		strh	r2, [r0, #14]	@ movhi
 614:MCSDK_v6.3.2-Full/MotorControl/MCSDK/MCLib/Any/Src/sto_pll_speed_pos_fdbk.c **** #ifdef NULL_PTR_CHECK_STO_PLL_SPD_POS_FDB
 1018              		.loc 1 614 5 is_stmt 1 view .LVU417
 614:MCSDK_v6.3.2-Full/MotorControl/MCSDK/MCLib/Any/Src/sto_pll_speed_pos_fdbk.c **** #ifdef NULL_PTR_CHECK_STO_PLL_SPD_POS_FDB
 1019              		.loc 1 614 27 is_stmt 0 view .LVU418
 1020 0034 C0F80831 		str	r3, [r0, #264]
 618:MCSDK_v6.3.2-Full/MotorControl/MCSDK/MCLib/Any/Src/sto_pll_speed_pos_fdbk.c **** 
 1021              		.loc 1 618 1 view .LVU419
 1022 0038 10BD     		pop	{r4, pc}
 1023              	.LVL116:
 1024              	.L48:
 618:MCSDK_v6.3.2-Full/MotorControl/MCSDK/MCLib/Any/Src/sto_pll_speed_pos_fdbk.c **** 
 1025              		.loc 1 618 1 view .LVU420
 1026 003a 1FFA8CFE 		uxth	lr, ip
 585:MCSDK_v6.3.2-Full/MotorControl/MCSDK/MCLib/Any/Src/sto_pll_speed_pos_fdbk.c **** 
 1027              		.loc 1 585 7 is_stmt 1 view .LVU421
ARM GAS  /tmp/ccNNILil.s 			page 36


 585:MCSDK_v6.3.2-Full/MotorControl/MCSDK/MCLib/Any/Src/sto_pll_speed_pos_fdbk.c **** 
 1028              		.loc 1 585 33 is_stmt 0 view .LVU422
 1029 003e 0B44     		add	r3, r3, r1
 1030              	.LVL117:
 585:MCSDK_v6.3.2-Full/MotorControl/MCSDK/MCLib/Any/Src/sto_pll_speed_pos_fdbk.c **** 
 1031              		.loc 1 585 33 view .LVU423
 1032 0040 9AB2     		uxth	r2, r3
 585:MCSDK_v6.3.2-Full/MotorControl/MCSDK/MCLib/Any/Src/sto_pll_speed_pos_fdbk.c **** 
 1033              		.loc 1 585 21 view .LVU424
 1034 0042 1BB2     		sxth	r3, r3
 1035              	.LVL118:
 587:MCSDK_v6.3.2-Full/MotorControl/MCSDK/MCLib/Any/Src/sto_pll_speed_pos_fdbk.c ****       {
 1036              		.loc 1 587 7 is_stmt 1 view .LVU425
 587:MCSDK_v6.3.2-Full/MotorControl/MCSDK/MCLib/Any/Src/sto_pll_speed_pos_fdbk.c ****       {
 1037              		.loc 1 587 10 is_stmt 0 view .LVU426
 1038 0044 0FFA8CFC 		sxth	ip, ip
 1039              	.LVL119:
 587:MCSDK_v6.3.2-Full/MotorControl/MCSDK/MCLib/Any/Src/sto_pll_speed_pos_fdbk.c ****       {
 1040              		.loc 1 587 10 view .LVU427
 1041 0048 9C45     		cmp	ip, r3
 589:MCSDK_v6.3.2-Full/MotorControl/MCSDK/MCLib/Any/Src/sto_pll_speed_pos_fdbk.c ****       }
 1042              		.loc 1 589 9 is_stmt 1 view .LVU428
 589:MCSDK_v6.3.2-Full/MotorControl/MCSDK/MCLib/Any/Src/sto_pll_speed_pos_fdbk.c ****       }
 1043              		.loc 1 589 35 is_stmt 0 view .LVU429
 1044 004a DCBF     		itt	le
 1045 004c A2EB0E03 		suble	r3, r2, lr
 1046              	.LVL120:
 589:MCSDK_v6.3.2-Full/MotorControl/MCSDK/MCLib/Any/Src/sto_pll_speed_pos_fdbk.c ****       }
 1047              		.loc 1 589 19 view .LVU430
 1048 0050 1BB2     		sxthle	r3, r3
 1049              	.LVL121:
 596:MCSDK_v6.3.2-Full/MotorControl/MCSDK/MCLib/Any/Src/sto_pll_speed_pos_fdbk.c ****     }
 1050              		.loc 1 596 7 is_stmt 1 view .LVU431
 596:MCSDK_v6.3.2-Full/MotorControl/MCSDK/MCLib/Any/Src/sto_pll_speed_pos_fdbk.c ****     }
 1051              		.loc 1 596 42 is_stmt 0 view .LVU432
 1052 0052 00EB4101 		add	r1, r0, r1, lsl #1
 1053              	.LVL122:
 596:MCSDK_v6.3.2-Full/MotorControl/MCSDK/MCLib/Any/Src/sto_pll_speed_pos_fdbk.c ****     }
 1054              		.loc 1 596 42 view .LVU433
 1055 0056 B1F97420 		ldrsh	r2, [r1, #116]
 1056              	.LVL123:
 596:MCSDK_v6.3.2-Full/MotorControl/MCSDK/MCLib/Any/Src/sto_pll_speed_pos_fdbk.c ****     }
 1057              		.loc 1 596 19 view .LVU434
 1058 005a 2244     		add	r2, r2, r4
 596:MCSDK_v6.3.2-Full/MotorControl/MCSDK/MCLib/Any/Src/sto_pll_speed_pos_fdbk.c ****     }
 1059              		.loc 1 596 77 view .LVU435
 1060 005c 00EB4303 		add	r3, r0, r3, lsl #1
 1061              	.LVL124:
 596:MCSDK_v6.3.2-Full/MotorControl/MCSDK/MCLib/Any/Src/sto_pll_speed_pos_fdbk.c ****     }
 1062              		.loc 1 596 77 view .LVU436
 1063 0060 B3F97430 		ldrsh	r3, [r3, #116]
 596:MCSDK_v6.3.2-Full/MotorControl/MCSDK/MCLib/Any/Src/sto_pll_speed_pos_fdbk.c ****     }
 1064              		.loc 1 596 12 view .LVU437
 1065 0064 D31A     		subs	r3, r2, r3
 1066              	.LVL125:
 596:MCSDK_v6.3.2-Full/MotorControl/MCSDK/MCLib/Any/Src/sto_pll_speed_pos_fdbk.c ****     }
 1067              		.loc 1 596 12 view .LVU438
ARM GAS  /tmp/ccNNILil.s 			page 37


 1068 0066 E0E7     		b	.L49
 1069              		.cfi_endproc
 1070              	.LFE1452:
 1072              		.section	.text.STO_PLL_Clear,"ax",%progbits
 1073              		.align	1
 1074              		.weak	STO_PLL_Clear
 1075              		.syntax unified
 1076              		.thumb
 1077              		.thumb_func
 1078              		.fpu fpv4-sp-d16
 1080              	STO_PLL_Clear:
 1081              	.LVL126:
 1082              	.LFB1453:
 625:MCSDK_v6.3.2-Full/MotorControl/MCSDK/MCLib/Any/Src/sto_pll_speed_pos_fdbk.c **** #ifdef NULL_PTR_CHECK_STO_PLL_SPD_POS_FDB
 1083              		.loc 1 625 1 is_stmt 1 view -0
 1084              		.cfi_startproc
 1085              		@ args = 0, pretend = 0, frame = 0
 1086              		@ frame_needed = 0, uses_anonymous_args = 0
 625:MCSDK_v6.3.2-Full/MotorControl/MCSDK/MCLib/Any/Src/sto_pll_speed_pos_fdbk.c **** #ifdef NULL_PTR_CHECK_STO_PLL_SPD_POS_FDB
 1087              		.loc 1 625 1 is_stmt 0 view .LVU440
 1088 0000 08B5     		push	{r3, lr}
 1089              	.LCFI8:
 1090              		.cfi_def_cfa_offset 8
 1091              		.cfi_offset 3, -8
 1092              		.cfi_offset 14, -4
 634:MCSDK_v6.3.2-Full/MotorControl/MCSDK/MCLib/Any/Src/sto_pll_speed_pos_fdbk.c ****     pHandle->Ibeta_est = (int32_t)0;
 1093              		.loc 1 634 5 is_stmt 1 view .LVU441
 634:MCSDK_v6.3.2-Full/MotorControl/MCSDK/MCLib/Any/Src/sto_pll_speed_pos_fdbk.c ****     pHandle->Ibeta_est = (int32_t)0;
 1094              		.loc 1 634 24 is_stmt 0 view .LVU442
 1095 0002 0023     		movs	r3, #0
 1096 0004 0366     		str	r3, [r0, #96]
 635:MCSDK_v6.3.2-Full/MotorControl/MCSDK/MCLib/Any/Src/sto_pll_speed_pos_fdbk.c ****     pHandle->wBemf_alfa_est = (int32_t)0;
 1097              		.loc 1 635 5 is_stmt 1 view .LVU443
 635:MCSDK_v6.3.2-Full/MotorControl/MCSDK/MCLib/Any/Src/sto_pll_speed_pos_fdbk.c ****     pHandle->wBemf_alfa_est = (int32_t)0;
 1098              		.loc 1 635 24 is_stmt 0 view .LVU444
 1099 0006 4366     		str	r3, [r0, #100]
 636:MCSDK_v6.3.2-Full/MotorControl/MCSDK/MCLib/Any/Src/sto_pll_speed_pos_fdbk.c ****     pHandle->wBemf_beta_est = (int32_t)0;
 1100              		.loc 1 636 5 is_stmt 1 view .LVU445
 636:MCSDK_v6.3.2-Full/MotorControl/MCSDK/MCLib/Any/Src/sto_pll_speed_pos_fdbk.c ****     pHandle->wBemf_beta_est = (int32_t)0;
 1101              		.loc 1 636 29 is_stmt 0 view .LVU446
 1102 0008 8366     		str	r3, [r0, #104]
 637:MCSDK_v6.3.2-Full/MotorControl/MCSDK/MCLib/Any/Src/sto_pll_speed_pos_fdbk.c ****     pHandle->_Super.hElAngle = (int16_t)0;
 1103              		.loc 1 637 5 is_stmt 1 view .LVU447
 637:MCSDK_v6.3.2-Full/MotorControl/MCSDK/MCLib/Any/Src/sto_pll_speed_pos_fdbk.c ****     pHandle->_Super.hElAngle = (int16_t)0;
 1104              		.loc 1 637 29 is_stmt 0 view .LVU448
 1105 000a C366     		str	r3, [r0, #108]
 638:MCSDK_v6.3.2-Full/MotorControl/MCSDK/MCLib/Any/Src/sto_pll_speed_pos_fdbk.c ****     pHandle->_Super.hElSpeedDpp = (int16_t)0;
 1106              		.loc 1 638 5 is_stmt 1 view .LVU449
 638:MCSDK_v6.3.2-Full/MotorControl/MCSDK/MCLib/Any/Src/sto_pll_speed_pos_fdbk.c ****     pHandle->_Super.hElSpeedDpp = (int16_t)0;
 1107              		.loc 1 638 30 is_stmt 0 view .LVU450
 1108 000c 8380     		strh	r3, [r0, #4]	@ movhi
 639:MCSDK_v6.3.2-Full/MotorControl/MCSDK/MCLib/Any/Src/sto_pll_speed_pos_fdbk.c ****     pHandle->ConsistencyCounter = 0u;
 1109              		.loc 1 639 5 is_stmt 1 view .LVU451
 639:MCSDK_v6.3.2-Full/MotorControl/MCSDK/MCLib/Any/Src/sto_pll_speed_pos_fdbk.c ****     pHandle->ConsistencyCounter = 0u;
 1110              		.loc 1 639 33 is_stmt 0 view .LVU452
 1111 000e C381     		strh	r3, [r0, #14]	@ movhi
 640:MCSDK_v6.3.2-Full/MotorControl/MCSDK/MCLib/Any/Src/sto_pll_speed_pos_fdbk.c ****     pHandle->ReliabilityCounter = 0u;
ARM GAS  /tmp/ccNNILil.s 			page 38


 1112              		.loc 1 640 5 is_stmt 1 view .LVU453
 640:MCSDK_v6.3.2-Full/MotorControl/MCSDK/MCLib/Any/Src/sto_pll_speed_pos_fdbk.c ****     pHandle->ReliabilityCounter = 0u;
 1113              		.loc 1 640 33 is_stmt 0 view .LVU454
 1114 0010 80F8F630 		strb	r3, [r0, #246]
 641:MCSDK_v6.3.2-Full/MotorControl/MCSDK/MCLib/Any/Src/sto_pll_speed_pos_fdbk.c ****     pHandle->IsAlgorithmConverged = false;
 1115              		.loc 1 641 5 is_stmt 1 view .LVU455
 641:MCSDK_v6.3.2-Full/MotorControl/MCSDK/MCLib/Any/Src/sto_pll_speed_pos_fdbk.c ****     pHandle->IsAlgorithmConverged = false;
 1116              		.loc 1 641 33 is_stmt 0 view .LVU456
 1117 0014 80F8F730 		strb	r3, [r0, #247]
 642:MCSDK_v6.3.2-Full/MotorControl/MCSDK/MCLib/Any/Src/sto_pll_speed_pos_fdbk.c ****     pHandle->IsBemfConsistent = false;
 1118              		.loc 1 642 5 is_stmt 1 view .LVU457
 642:MCSDK_v6.3.2-Full/MotorControl/MCSDK/MCLib/Any/Src/sto_pll_speed_pos_fdbk.c ****     pHandle->IsBemfConsistent = false;
 1119              		.loc 1 642 35 is_stmt 0 view .LVU458
 1120 0018 80F8F830 		strb	r3, [r0, #248]
 643:MCSDK_v6.3.2-Full/MotorControl/MCSDK/MCLib/Any/Src/sto_pll_speed_pos_fdbk.c ****     pHandle->Obs_Bemf_Level = (int32_t)0;
 1121              		.loc 1 643 5 is_stmt 1 view .LVU459
 643:MCSDK_v6.3.2-Full/MotorControl/MCSDK/MCLib/Any/Src/sto_pll_speed_pos_fdbk.c ****     pHandle->Obs_Bemf_Level = (int32_t)0;
 1122              		.loc 1 643 31 is_stmt 0 view .LVU460
 1123 001c 80F8F930 		strb	r3, [r0, #249]
 644:MCSDK_v6.3.2-Full/MotorControl/MCSDK/MCLib/Any/Src/sto_pll_speed_pos_fdbk.c ****     pHandle->Est_Bemf_Level = (int32_t)0;
 1124              		.loc 1 644 5 is_stmt 1 view .LVU461
 644:MCSDK_v6.3.2-Full/MotorControl/MCSDK/MCLib/Any/Src/sto_pll_speed_pos_fdbk.c ****     pHandle->Est_Bemf_Level = (int32_t)0;
 1125              		.loc 1 644 29 is_stmt 0 view .LVU462
 1126 0020 C0F8FC30 		str	r3, [r0, #252]
 645:MCSDK_v6.3.2-Full/MotorControl/MCSDK/MCLib/Any/Src/sto_pll_speed_pos_fdbk.c ****     pHandle->DppBufferSum = (int32_t)0;
 1127              		.loc 1 645 5 is_stmt 1 view .LVU463
 645:MCSDK_v6.3.2-Full/MotorControl/MCSDK/MCLib/Any/Src/sto_pll_speed_pos_fdbk.c ****     pHandle->DppBufferSum = (int32_t)0;
 1128              		.loc 1 645 29 is_stmt 0 view .LVU464
 1129 0024 C0F80031 		str	r3, [r0, #256]
 646:MCSDK_v6.3.2-Full/MotorControl/MCSDK/MCLib/Any/Src/sto_pll_speed_pos_fdbk.c ****     pHandle->ForceConvergency = false;
 1130              		.loc 1 646 5 is_stmt 1 view .LVU465
 646:MCSDK_v6.3.2-Full/MotorControl/MCSDK/MCLib/Any/Src/sto_pll_speed_pos_fdbk.c ****     pHandle->ForceConvergency = false;
 1131              		.loc 1 646 27 is_stmt 0 view .LVU466
 1132 0028 C0F80831 		str	r3, [r0, #264]
 647:MCSDK_v6.3.2-Full/MotorControl/MCSDK/MCLib/Any/Src/sto_pll_speed_pos_fdbk.c ****     pHandle->ForceConvergency2 = false;
 1133              		.loc 1 647 5 is_stmt 1 view .LVU467
 647:MCSDK_v6.3.2-Full/MotorControl/MCSDK/MCLib/Any/Src/sto_pll_speed_pos_fdbk.c ****     pHandle->ForceConvergency2 = false;
 1134              		.loc 1 647 31 is_stmt 0 view .LVU468
 1135 002c 80F82231 		strb	r3, [r0, #290]
 648:MCSDK_v6.3.2-Full/MotorControl/MCSDK/MCLib/Any/Src/sto_pll_speed_pos_fdbk.c **** 
 1136              		.loc 1 648 5 is_stmt 1 view .LVU469
 648:MCSDK_v6.3.2-Full/MotorControl/MCSDK/MCLib/Any/Src/sto_pll_speed_pos_fdbk.c **** 
 1137              		.loc 1 648 32 is_stmt 0 view .LVU470
 1138 0030 80F82331 		strb	r3, [r0, #291]
 650:MCSDK_v6.3.2-Full/MotorControl/MCSDK/MCLib/Any/Src/sto_pll_speed_pos_fdbk.c ****     PID_SetIntegralTerm(& pHandle->PIRegulator, (int32_t)0);
 1139              		.loc 1 650 5 is_stmt 1 view .LVU471
 1140              	.LVL127:
 1141              	.LBB22:
 1142              	.LBI22:
 718:MCSDK_v6.3.2-Full/MotorControl/MCSDK/MCLib/Any/Src/sto_pll_speed_pos_fdbk.c **** }
 719:MCSDK_v6.3.2-Full/MotorControl/MCSDK/MCLib/Any/Src/sto_pll_speed_pos_fdbk.c **** 
 720:MCSDK_v6.3.2-Full/MotorControl/MCSDK/MCLib/Any/Src/sto_pll_speed_pos_fdbk.c **** /**
 721:MCSDK_v6.3.2-Full/MotorControl/MCSDK/MCLib/Any/Src/sto_pll_speed_pos_fdbk.c ****   * @brief  Clears the estimated speed buffer in @p pHandle.
 722:MCSDK_v6.3.2-Full/MotorControl/MCSDK/MCLib/Any/Src/sto_pll_speed_pos_fdbk.c ****   *
 723:MCSDK_v6.3.2-Full/MotorControl/MCSDK/MCLib/Any/Src/sto_pll_speed_pos_fdbk.c ****   */
 724:MCSDK_v6.3.2-Full/MotorControl/MCSDK/MCLib/Any/Src/sto_pll_speed_pos_fdbk.c **** static inline void STO_InitSpeedBuffer(STO_PLL_Handle_t * pHandle)
 1143              		.loc 1 724 20 view .LVU472
ARM GAS  /tmp/ccNNILil.s 			page 39


 1144              	.LBB23:
 725:MCSDK_v6.3.2-Full/MotorControl/MCSDK/MCLib/Any/Src/sto_pll_speed_pos_fdbk.c **** {
 726:MCSDK_v6.3.2-Full/MotorControl/MCSDK/MCLib/Any/Src/sto_pll_speed_pos_fdbk.c ****   uint8_t b_i;
 1145              		.loc 1 726 3 view .LVU473
 727:MCSDK_v6.3.2-Full/MotorControl/MCSDK/MCLib/Any/Src/sto_pll_speed_pos_fdbk.c ****   uint8_t bSpeedBufferSize = pHandle->SpeedBufferSizeUnit;
 1146              		.loc 1 727 3 view .LVU474
 1147              		.loc 1 727 11 is_stmt 0 view .LVU475
 1148 0034 90F80E21 		ldrb	r2, [r0, #270]	@ zero_extendqisi2
 1149              	.LVL128:
 728:MCSDK_v6.3.2-Full/MotorControl/MCSDK/MCLib/Any/Src/sto_pll_speed_pos_fdbk.c **** 
 729:MCSDK_v6.3.2-Full/MotorControl/MCSDK/MCLib/Any/Src/sto_pll_speed_pos_fdbk.c ****   /* Init speed buffer */
 730:MCSDK_v6.3.2-Full/MotorControl/MCSDK/MCLib/Any/Src/sto_pll_speed_pos_fdbk.c ****   for (b_i = 0U; b_i < bSpeedBufferSize; b_i++)
 1150              		.loc 1 730 3 is_stmt 1 view .LVU476
 1151              		.loc 1 730 18 view .LVU477
 1152              		.loc 1 730 3 is_stmt 0 view .LVU478
 1153 0038 62B1     		cbz	r2, .L53
 1154 003a 00F17203 		add	r3, r0, #114
 1155 003e 013A     		subs	r2, r2, #1
 1156              	.LVL129:
 1157              		.loc 1 730 3 view .LVU479
 1158 0040 D1B2     		uxtb	r1, r2
 1159 0042 00F17402 		add	r2, r0, #116
 1160              	.LVL130:
 1161              		.loc 1 730 3 view .LVU480
 1162 0046 02EB4102 		add	r2, r2, r1, lsl #1
 731:MCSDK_v6.3.2-Full/MotorControl/MCSDK/MCLib/Any/Src/sto_pll_speed_pos_fdbk.c ****   {
 732:MCSDK_v6.3.2-Full/MotorControl/MCSDK/MCLib/Any/Src/sto_pll_speed_pos_fdbk.c ****     pHandle->Speed_Buffer[b_i] = (int16_t)0;
 1163              		.loc 1 732 32 view .LVU481
 1164 004a 0021     		movs	r1, #0
 1165              	.LVL131:
 1166              	.L54:
 1167              		.loc 1 732 5 is_stmt 1 view .LVU482
 1168              		.loc 1 732 32 is_stmt 0 view .LVU483
 1169 004c 23F8021F 		strh	r1, [r3, #2]!	@ movhi
 730:MCSDK_v6.3.2-Full/MotorControl/MCSDK/MCLib/Any/Src/sto_pll_speed_pos_fdbk.c ****   {
 1170              		.loc 1 730 42 is_stmt 1 view .LVU484
 730:MCSDK_v6.3.2-Full/MotorControl/MCSDK/MCLib/Any/Src/sto_pll_speed_pos_fdbk.c ****   {
 1171              		.loc 1 730 18 view .LVU485
 730:MCSDK_v6.3.2-Full/MotorControl/MCSDK/MCLib/Any/Src/sto_pll_speed_pos_fdbk.c ****   {
 1172              		.loc 1 730 3 is_stmt 0 view .LVU486
 1173 0050 9342     		cmp	r3, r2
 1174 0052 FBD1     		bne	.L54
 1175              	.L53:
 733:MCSDK_v6.3.2-Full/MotorControl/MCSDK/MCLib/Any/Src/sto_pll_speed_pos_fdbk.c ****   }
 734:MCSDK_v6.3.2-Full/MotorControl/MCSDK/MCLib/Any/Src/sto_pll_speed_pos_fdbk.c ****   pHandle->Speed_Buffer_Index = 0U;
 1176              		.loc 1 734 3 is_stmt 1 view .LVU487
 1177              		.loc 1 734 31 is_stmt 0 view .LVU488
 1178 0054 0021     		movs	r1, #0
 1179 0056 80F8F410 		strb	r1, [r0, #244]
 735:MCSDK_v6.3.2-Full/MotorControl/MCSDK/MCLib/Any/Src/sto_pll_speed_pos_fdbk.c ****   pHandle->SpeedBufferOldestEl = (int16_t)0;
 1180              		.loc 1 735 3 is_stmt 1 view .LVU489
 1181              		.loc 1 735 32 is_stmt 0 view .LVU490
 1182 005a A0F80C11 		strh	r1, [r0, #268]	@ movhi
 1183              	.LVL132:
 1184              		.loc 1 735 32 view .LVU491
 1185              	.LBE23:
 1186              	.LBE22:
ARM GAS  /tmp/ccNNILil.s 			page 40


 651:MCSDK_v6.3.2-Full/MotorControl/MCSDK/MCLib/Any/Src/sto_pll_speed_pos_fdbk.c **** #ifdef NULL_PTR_CHECK_STO_PLL_SPD_POS_FDB
 1187              		.loc 1 651 5 is_stmt 1 view .LVU492
 1188 005e 3430     		adds	r0, r0, #52
 1189              	.LVL133:
 651:MCSDK_v6.3.2-Full/MotorControl/MCSDK/MCLib/Any/Src/sto_pll_speed_pos_fdbk.c **** #ifdef NULL_PTR_CHECK_STO_PLL_SPD_POS_FDB
 1190              		.loc 1 651 5 is_stmt 0 view .LVU493
 1191 0060 FFF7FEFF 		bl	PID_SetIntegralTerm
 1192              	.LVL134:
 655:MCSDK_v6.3.2-Full/MotorControl/MCSDK/MCLib/Any/Src/sto_pll_speed_pos_fdbk.c **** 
 1193              		.loc 1 655 1 view .LVU494
 1194 0064 08BD     		pop	{r3, pc}
 1195              		.cfi_endproc
 1196              	.LFE1453:
 1198              		.section	.text.STO_PLL_Init,"ax",%progbits
 1199              		.align	1
 1200              		.weak	STO_PLL_Init
 1201              		.syntax unified
 1202              		.thumb
 1203              		.thumb_func
 1204              		.fpu fpv4-sp-d16
 1206              	STO_PLL_Init:
 1207              	.LVL135:
 1208              	.LFB1448:
  64:MCSDK_v6.3.2-Full/MotorControl/MCSDK/MCLib/Any/Src/sto_pll_speed_pos_fdbk.c **** #ifdef NULL_PTR_CHECK_STO_PLL_SPD_POS_FDB
 1209              		.loc 1 64 1 is_stmt 1 view -0
 1210              		.cfi_startproc
 1211              		@ args = 0, pretend = 0, frame = 0
 1212              		@ frame_needed = 0, uses_anonymous_args = 0
  64:MCSDK_v6.3.2-Full/MotorControl/MCSDK/MCLib/Any/Src/sto_pll_speed_pos_fdbk.c **** #ifdef NULL_PTR_CHECK_STO_PLL_SPD_POS_FDB
 1213              		.loc 1 64 1 is_stmt 0 view .LVU496
 1214 0000 10B5     		push	{r4, lr}
 1215              	.LCFI9:
 1216              		.cfi_def_cfa_offset 8
 1217              		.cfi_offset 4, -8
 1218              		.cfi_offset 14, -4
 1219 0002 0446     		mov	r4, r0
  73:MCSDK_v6.3.2-Full/MotorControl/MCSDK/MCLib/Any/Src/sto_pll_speed_pos_fdbk.c ****     int32_t wAux;
 1220              		.loc 1 73 5 is_stmt 1 view .LVU497
  74:MCSDK_v6.3.2-Full/MotorControl/MCSDK/MCLib/Any/Src/sto_pll_speed_pos_fdbk.c **** 
 1221              		.loc 1 74 5 view .LVU498
  76:MCSDK_v6.3.2-Full/MotorControl/MCSDK/MCLib/Any/Src/sto_pll_speed_pos_fdbk.c ****     pHandle->EnableDualCheck = true;
 1222              		.loc 1 76 5 view .LVU499
  76:MCSDK_v6.3.2-Full/MotorControl/MCSDK/MCLib/Any/Src/sto_pll_speed_pos_fdbk.c ****     pHandle->EnableDualCheck = true;
 1223              		.loc 1 76 33 is_stmt 0 view .LVU500
 1224 0004 90F81631 		ldrb	r3, [r0, #278]	@ zero_extendqisi2
 1225 0008 80F8F630 		strb	r3, [r0, #246]
  77:MCSDK_v6.3.2-Full/MotorControl/MCSDK/MCLib/Any/Src/sto_pll_speed_pos_fdbk.c **** 
 1226              		.loc 1 77 5 is_stmt 1 view .LVU501
  77:MCSDK_v6.3.2-Full/MotorControl/MCSDK/MCLib/Any/Src/sto_pll_speed_pos_fdbk.c **** 
 1227              		.loc 1 77 30 is_stmt 0 view .LVU502
 1228 000c 0123     		movs	r3, #1
 1229 000e 80F80431 		strb	r3, [r0, #260]
  79:MCSDK_v6.3.2-Full/MotorControl/MCSDK/MCLib/Any/Src/sto_pll_speed_pos_fdbk.c ****     pHandle->F3POW2 = 0U;
 1230              		.loc 1 79 5 is_stmt 1 view .LVU503
 1231              	.LVL136:
  80:MCSDK_v6.3.2-Full/MotorControl/MCSDK/MCLib/Any/Src/sto_pll_speed_pos_fdbk.c **** 
 1232              		.loc 1 80 5 view .LVU504
ARM GAS  /tmp/ccNNILil.s 			page 41


  80:MCSDK_v6.3.2-Full/MotorControl/MCSDK/MCLib/Any/Src/sto_pll_speed_pos_fdbk.c **** 
 1233              		.loc 1 80 21 is_stmt 0 view .LVU505
 1234 0012 0023     		movs	r3, #0
 1235 0014 4386     		strh	r3, [r0, #50]	@ movhi
  82:MCSDK_v6.3.2-Full/MotorControl/MCSDK/MCLib/Any/Src/sto_pll_speed_pos_fdbk.c **** 
 1236              		.loc 1 82 5 is_stmt 1 view .LVU506
  82:MCSDK_v6.3.2-Full/MotorControl/MCSDK/MCLib/Any/Src/sto_pll_speed_pos_fdbk.c **** 
 1237              		.loc 1 82 48 is_stmt 0 view .LVU507
 1238 0016 B0F92EC0 		ldrsh	ip, [r0, #46]
  82:MCSDK_v6.3.2-Full/MotorControl/MCSDK/MCLib/Any/Src/sto_pll_speed_pos_fdbk.c **** 
 1239              		.loc 1 82 39 view .LVU508
 1240 001a 134B     		ldr	r3, .L63
 1241 001c 93FBFCF3 		sdiv	r3, r3, ip
  82:MCSDK_v6.3.2-Full/MotorControl/MCSDK/MCLib/Any/Src/sto_pll_speed_pos_fdbk.c **** 
 1242              		.loc 1 82 12 view .LVU509
 1243 0020 1BB2     		sxth	r3, r3
 1244              	.LVL137:
  84:MCSDK_v6.3.2-Full/MotorControl/MCSDK/MCLib/Any/Src/sto_pll_speed_pos_fdbk.c ****     {
 1245              		.loc 1 84 5 is_stmt 1 view .LVU510
  84:MCSDK_v6.3.2-Full/MotorControl/MCSDK/MCLib/Any/Src/sto_pll_speed_pos_fdbk.c ****     {
 1246              		.loc 1 84 11 view .LVU511
 1247 0022 FBB1     		cbz	r3, .L60
 1248 0024 0122     		movs	r2, #1
  79:MCSDK_v6.3.2-Full/MotorControl/MCSDK/MCLib/Any/Src/sto_pll_speed_pos_fdbk.c ****     pHandle->F3POW2 = 0U;
 1249              		.loc 1 79 10 is_stmt 0 view .LVU512
 1250 0026 1146     		mov	r1, r2
 1251              	.LVL138:
 1252              	.L59:
  86:MCSDK_v6.3.2-Full/MotorControl/MCSDK/MCLib/Any/Src/sto_pll_speed_pos_fdbk.c ****       wAux *= ((int32_t)2);
 1253              		.loc 1 86 7 is_stmt 1 view .LVU513
  86:MCSDK_v6.3.2-Full/MotorControl/MCSDK/MCLib/Any/Src/sto_pll_speed_pos_fdbk.c ****       wAux *= ((int32_t)2);
 1254              		.loc 1 86 14 is_stmt 0 view .LVU514
 1255 0028 03EBD373 		add	r3, r3, r3, lsr #31
 1256              	.LVL139:
  87:MCSDK_v6.3.2-Full/MotorControl/MCSDK/MCLib/Any/Src/sto_pll_speed_pos_fdbk.c ****       pHandle->F3POW2++;
 1257              		.loc 1 87 7 is_stmt 1 view .LVU515
  87:MCSDK_v6.3.2-Full/MotorControl/MCSDK/MCLib/Any/Src/sto_pll_speed_pos_fdbk.c ****       pHandle->F3POW2++;
 1258              		.loc 1 87 12 is_stmt 0 view .LVU516
 1259 002c 4900     		lsls	r1, r1, #1
 1260              	.LVL140:
  88:MCSDK_v6.3.2-Full/MotorControl/MCSDK/MCLib/Any/Src/sto_pll_speed_pos_fdbk.c ****     }
 1261              		.loc 1 88 7 is_stmt 1 view .LVU517
  84:MCSDK_v6.3.2-Full/MotorControl/MCSDK/MCLib/Any/Src/sto_pll_speed_pos_fdbk.c ****     {
 1262              		.loc 1 84 11 view .LVU518
 1263 002e 1046     		mov	r0, r2
 1264 0030 0132     		adds	r2, r2, #1
 1265 0032 92B2     		uxth	r2, r2
 1266 0034 5B10     		asrs	r3, r3, #1
 1267              	.LVL141:
  84:MCSDK_v6.3.2-Full/MotorControl/MCSDK/MCLib/Any/Src/sto_pll_speed_pos_fdbk.c ****     {
 1268              		.loc 1 84 11 is_stmt 0 view .LVU519
 1269 0036 F7D1     		bne	.L59
 1270 0038 6086     		strh	r0, [r4, #50]	@ movhi
 1271              	.LVL142:
 1272              	.L58:
  91:MCSDK_v6.3.2-Full/MotorControl/MCSDK/MCLib/Any/Src/sto_pll_speed_pos_fdbk.c ****     wAux = ((int32_t)(pHandle->hF2)) * pHandle->hF3;
 1273              		.loc 1 91 5 is_stmt 1 view .LVU520
ARM GAS  /tmp/ccNNILil.s 			page 42


  91:MCSDK_v6.3.2-Full/MotorControl/MCSDK/MCLib/Any/Src/sto_pll_speed_pos_fdbk.c ****     wAux = ((int32_t)(pHandle->hF2)) * pHandle->hF3;
 1274              		.loc 1 91 20 is_stmt 0 view .LVU521
 1275 003a 09B2     		sxth	r1, r1
  91:MCSDK_v6.3.2-Full/MotorControl/MCSDK/MCLib/Any/Src/sto_pll_speed_pos_fdbk.c ****     wAux = ((int32_t)(pHandle->hF2)) * pHandle->hF3;
 1276              		.loc 1 91 18 view .LVU522
 1277 003c 2186     		strh	r1, [r4, #48]	@ movhi
  92:MCSDK_v6.3.2-Full/MotorControl/MCSDK/MCLib/Any/Src/sto_pll_speed_pos_fdbk.c ****     pHandle->hC6 = (int16_t)(wAux / C6_COMP_CONST2);
 1278              		.loc 1 92 5 is_stmt 1 view .LVU523
 1279              	.LVL143:
  93:MCSDK_v6.3.2-Full/MotorControl/MCSDK/MCLib/Any/Src/sto_pll_speed_pos_fdbk.c **** 
 1280              		.loc 1 93 5 view .LVU524
  92:MCSDK_v6.3.2-Full/MotorControl/MCSDK/MCLib/Any/Src/sto_pll_speed_pos_fdbk.c ****     pHandle->hC6 = (int16_t)(wAux / C6_COMP_CONST2);
 1281              		.loc 1 92 10 is_stmt 0 view .LVU525
 1282 003e 0CFB01F1 		mul	r1, ip, r1
 1283              	.LVL144:
  93:MCSDK_v6.3.2-Full/MotorControl/MCSDK/MCLib/Any/Src/sto_pll_speed_pos_fdbk.c **** 
 1284              		.loc 1 93 35 view .LVU526
 1285 0042 0A4B     		ldr	r3, .L63+4
 1286 0044 83FB0123 		smull	r2, r3, r3, r1
 1287 0048 C917     		asrs	r1, r1, #31
 1288 004a C1EB2321 		rsb	r1, r1, r3, asr #8
  93:MCSDK_v6.3.2-Full/MotorControl/MCSDK/MCLib/Any/Src/sto_pll_speed_pos_fdbk.c **** 
 1289              		.loc 1 93 20 view .LVU527
 1290 004e 6185     		strh	r1, [r4, #42]	@ movhi
  95:MCSDK_v6.3.2-Full/MotorControl/MCSDK/MCLib/Any/Src/sto_pll_speed_pos_fdbk.c **** 
 1291              		.loc 1 95 5 is_stmt 1 view .LVU528
 1292 0050 2046     		mov	r0, r4
 1293 0052 FFF7FEFF 		bl	STO_PLL_Clear
 1294              	.LVL145:
  97:MCSDK_v6.3.2-Full/MotorControl/MCSDK/MCLib/Any/Src/sto_pll_speed_pos_fdbk.c **** 
 1295              		.loc 1 97 5 view .LVU529
 1296 0056 04F13400 		add	r0, r4, #52
 1297 005a FFF7FEFF 		bl	PID_HandleInit
 1298              	.LVL146:
 100:MCSDK_v6.3.2-Full/MotorControl/MCSDK/MCLib/Any/Src/sto_pll_speed_pos_fdbk.c **** #ifdef NULL_PTR_CHECK_STO_PLL_SPD_POS_FDB
 1299              		.loc 1 100 5 view .LVU530
 100:MCSDK_v6.3.2-Full/MotorControl/MCSDK/MCLib/Any/Src/sto_pll_speed_pos_fdbk.c **** #ifdef NULL_PTR_CHECK_STO_PLL_SPD_POS_FDB
 1300              		.loc 1 100 36 is_stmt 0 view .LVU531
 1301 005e 0023     		movs	r3, #0
 1302 0060 6382     		strh	r3, [r4, #18]	@ movhi
 104:MCSDK_v6.3.2-Full/MotorControl/MCSDK/MCLib/Any/Src/sto_pll_speed_pos_fdbk.c **** }
 1303              		.loc 1 104 3 is_stmt 1 view .LVU532
 105:MCSDK_v6.3.2-Full/MotorControl/MCSDK/MCLib/Any/Src/sto_pll_speed_pos_fdbk.c **** 
 1304              		.loc 1 105 1 is_stmt 0 view .LVU533
 1305 0062 10BD     		pop	{r4, pc}
 1306              	.LVL147:
 1307              	.L60:
  79:MCSDK_v6.3.2-Full/MotorControl/MCSDK/MCLib/Any/Src/sto_pll_speed_pos_fdbk.c ****     pHandle->F3POW2 = 0U;
 1308              		.loc 1 79 10 view .LVU534
 1309 0064 0121     		movs	r1, #1
 1310 0066 E8E7     		b	.L58
 1311              	.L64:
 1312              		.align	2
 1313              	.L63:
 1314 0068 5EEA0F00 		.word	1043038
 1315 006c C58D4806 		.word	105418181
 1316              		.cfi_endproc
ARM GAS  /tmp/ccNNILil.s 			page 43


 1317              	.LFE1448:
 1319              		.section	.text.STO_PLL_IsObserverConverged,"ax",%progbits
 1320              		.align	1
 1321              		.weak	STO_PLL_IsObserverConverged
 1322              		.syntax unified
 1323              		.thumb
 1324              		.thumb_func
 1325              		.fpu fpv4-sp-d16
 1327              	STO_PLL_IsObserverConverged:
 1328              	.LVL148:
 1329              	.LFB1457:
 736:MCSDK_v6.3.2-Full/MotorControl/MCSDK/MCLib/Any/Src/sto_pll_speed_pos_fdbk.c **** }
 737:MCSDK_v6.3.2-Full/MotorControl/MCSDK/MCLib/Any/Src/sto_pll_speed_pos_fdbk.c **** 
 738:MCSDK_v6.3.2-Full/MotorControl/MCSDK/MCLib/Any/Src/sto_pll_speed_pos_fdbk.c **** /**
 739:MCSDK_v6.3.2-Full/MotorControl/MCSDK/MCLib/Any/Src/sto_pll_speed_pos_fdbk.c ****   * @brief  Checks if the state observer algorithm converged.
 740:MCSDK_v6.3.2-Full/MotorControl/MCSDK/MCLib/Any/Src/sto_pll_speed_pos_fdbk.c ****   * 
 741:MCSDK_v6.3.2-Full/MotorControl/MCSDK/MCLib/Any/Src/sto_pll_speed_pos_fdbk.c ****   * Internally performs a set of checks necessary to state whether
 742:MCSDK_v6.3.2-Full/MotorControl/MCSDK/MCLib/Any/Src/sto_pll_speed_pos_fdbk.c ****   * the state observer algorithm converged. To be periodically called
 743:MCSDK_v6.3.2-Full/MotorControl/MCSDK/MCLib/Any/Src/sto_pll_speed_pos_fdbk.c ****   * during motor open-loop ramp-up (e.g. at the same frequency of
 744:MCSDK_v6.3.2-Full/MotorControl/MCSDK/MCLib/Any/Src/sto_pll_speed_pos_fdbk.c ****   * SPD_CalcElAngle), it returns true if the estimated angle and speed
 745:MCSDK_v6.3.2-Full/MotorControl/MCSDK/MCLib/Any/Src/sto_pll_speed_pos_fdbk.c ****   * can be considered reliable, false otherwise.
 746:MCSDK_v6.3.2-Full/MotorControl/MCSDK/MCLib/Any/Src/sto_pll_speed_pos_fdbk.c ****   * 
 747:MCSDK_v6.3.2-Full/MotorControl/MCSDK/MCLib/Any/Src/sto_pll_speed_pos_fdbk.c ****   * @param  pHandle: Handler of the current instance of the STO component.
 748:MCSDK_v6.3.2-Full/MotorControl/MCSDK/MCLib/Any/Src/sto_pll_speed_pos_fdbk.c ****   * @param  hForcedMecSpeedUnit: Mechanical speed in 0.1Hz unit as forced by VSS.
 749:MCSDK_v6.3.2-Full/MotorControl/MCSDK/MCLib/Any/Src/sto_pll_speed_pos_fdbk.c ****   * @retval bool True if the estimated angle and speed are reliables, false otherwise.
 750:MCSDK_v6.3.2-Full/MotorControl/MCSDK/MCLib/Any/Src/sto_pll_speed_pos_fdbk.c ****   */
 751:MCSDK_v6.3.2-Full/MotorControl/MCSDK/MCLib/Any/Src/sto_pll_speed_pos_fdbk.c **** __weak bool STO_PLL_IsObserverConverged(STO_PLL_Handle_t *pHandle, int16_t *phForcedMecSpeedUnit)
 752:MCSDK_v6.3.2-Full/MotorControl/MCSDK/MCLib/Any/Src/sto_pll_speed_pos_fdbk.c **** {
 1330              		.loc 1 752 1 is_stmt 1 view -0
 1331              		.cfi_startproc
 1332              		@ args = 0, pretend = 0, frame = 0
 1333              		@ frame_needed = 0, uses_anonymous_args = 0
 1334              		.loc 1 752 1 is_stmt 0 view .LVU536
 1335 0000 0346     		mov	r3, r0
 753:MCSDK_v6.3.2-Full/MotorControl/MCSDK/MCLib/Any/Src/sto_pll_speed_pos_fdbk.c ****   bool bAux = false;
 1336              		.loc 1 753 3 is_stmt 1 view .LVU537
 1337              	.LVL149:
 754:MCSDK_v6.3.2-Full/MotorControl/MCSDK/MCLib/Any/Src/sto_pll_speed_pos_fdbk.c **** #ifdef NULL_PTR_CHECK_STO_PLL_SPD_POS_FDB
 755:MCSDK_v6.3.2-Full/MotorControl/MCSDK/MCLib/Any/Src/sto_pll_speed_pos_fdbk.c ****   if ((MC_NULL == pHandle) || (MC_NULL == phForcedMecSpeedUnit))
 756:MCSDK_v6.3.2-Full/MotorControl/MCSDK/MCLib/Any/Src/sto_pll_speed_pos_fdbk.c ****   {
 757:MCSDK_v6.3.2-Full/MotorControl/MCSDK/MCLib/Any/Src/sto_pll_speed_pos_fdbk.c ****     /* Nothing to do */
 758:MCSDK_v6.3.2-Full/MotorControl/MCSDK/MCLib/Any/Src/sto_pll_speed_pos_fdbk.c ****   }
 759:MCSDK_v6.3.2-Full/MotorControl/MCSDK/MCLib/Any/Src/sto_pll_speed_pos_fdbk.c ****   else
 760:MCSDK_v6.3.2-Full/MotorControl/MCSDK/MCLib/Any/Src/sto_pll_speed_pos_fdbk.c ****   {
 761:MCSDK_v6.3.2-Full/MotorControl/MCSDK/MCLib/Any/Src/sto_pll_speed_pos_fdbk.c **** #endif
 762:MCSDK_v6.3.2-Full/MotorControl/MCSDK/MCLib/Any/Src/sto_pll_speed_pos_fdbk.c ****     int32_t wAux;
 1338              		.loc 1 762 5 view .LVU538
 763:MCSDK_v6.3.2-Full/MotorControl/MCSDK/MCLib/Any/Src/sto_pll_speed_pos_fdbk.c ****     int32_t wtemp;
 1339              		.loc 1 763 5 view .LVU539
 764:MCSDK_v6.3.2-Full/MotorControl/MCSDK/MCLib/Any/Src/sto_pll_speed_pos_fdbk.c ****     int16_t hEstimatedSpeedUnit;
 1340              		.loc 1 764 5 view .LVU540
 765:MCSDK_v6.3.2-Full/MotorControl/MCSDK/MCLib/Any/Src/sto_pll_speed_pos_fdbk.c ****     int16_t hUpperThreshold;
 1341              		.loc 1 765 5 view .LVU541
 766:MCSDK_v6.3.2-Full/MotorControl/MCSDK/MCLib/Any/Src/sto_pll_speed_pos_fdbk.c ****     int16_t hLowerThreshold;
 1342              		.loc 1 766 5 view .LVU542
 767:MCSDK_v6.3.2-Full/MotorControl/MCSDK/MCLib/Any/Src/sto_pll_speed_pos_fdbk.c **** 
 768:MCSDK_v6.3.2-Full/MotorControl/MCSDK/MCLib/Any/Src/sto_pll_speed_pos_fdbk.c ****     if (true == pHandle->ForceConvergency2)
ARM GAS  /tmp/ccNNILil.s 			page 44


 1343              		.loc 1 768 5 view .LVU543
 1344              		.loc 1 768 8 is_stmt 0 view .LVU544
 1345 0002 90F82321 		ldrb	r2, [r0, #291]	@ zero_extendqisi2
 1346 0006 12B1     		cbz	r2, .L66
 769:MCSDK_v6.3.2-Full/MotorControl/MCSDK/MCLib/Any/Src/sto_pll_speed_pos_fdbk.c ****     {
 770:MCSDK_v6.3.2-Full/MotorControl/MCSDK/MCLib/Any/Src/sto_pll_speed_pos_fdbk.c ****       *phForcedMecSpeedUnit = pHandle->_Super.hAvrMecSpeedUnit;
 1347              		.loc 1 770 7 is_stmt 1 view .LVU545
 1348              		.loc 1 770 46 is_stmt 0 view .LVU546
 1349 0008 B0F90C20 		ldrsh	r2, [r0, #12]
 1350              		.loc 1 770 29 view .LVU547
 1351 000c 0A80     		strh	r2, [r1]	@ movhi
 1352              	.L66:
 771:MCSDK_v6.3.2-Full/MotorControl/MCSDK/MCLib/Any/Src/sto_pll_speed_pos_fdbk.c ****     }
 772:MCSDK_v6.3.2-Full/MotorControl/MCSDK/MCLib/Any/Src/sto_pll_speed_pos_fdbk.c ****     else
 773:MCSDK_v6.3.2-Full/MotorControl/MCSDK/MCLib/Any/Src/sto_pll_speed_pos_fdbk.c ****     {
 774:MCSDK_v6.3.2-Full/MotorControl/MCSDK/MCLib/Any/Src/sto_pll_speed_pos_fdbk.c ****       /* Nothing to do */
 775:MCSDK_v6.3.2-Full/MotorControl/MCSDK/MCLib/Any/Src/sto_pll_speed_pos_fdbk.c ****     }
 1353              		.loc 1 775 5 is_stmt 1 view .LVU548
 776:MCSDK_v6.3.2-Full/MotorControl/MCSDK/MCLib/Any/Src/sto_pll_speed_pos_fdbk.c **** 
 777:MCSDK_v6.3.2-Full/MotorControl/MCSDK/MCLib/Any/Src/sto_pll_speed_pos_fdbk.c ****     if (true == pHandle->ForceConvergency)
 1354              		.loc 1 777 5 view .LVU549
 1355              		.loc 1 777 24 is_stmt 0 view .LVU550
 1356 000e 93F82201 		ldrb	r0, [r3, #290]	@ zero_extendqisi2
 1357              	.LVL150:
 1358              		.loc 1 777 8 view .LVU551
 1359 0012 28B1     		cbz	r0, .L67
 778:MCSDK_v6.3.2-Full/MotorControl/MCSDK/MCLib/Any/Src/sto_pll_speed_pos_fdbk.c ****     {
 779:MCSDK_v6.3.2-Full/MotorControl/MCSDK/MCLib/Any/Src/sto_pll_speed_pos_fdbk.c ****       bAux = true;
 1360              		.loc 1 779 7 is_stmt 1 view .LVU552
 1361              	.LVL151:
 780:MCSDK_v6.3.2-Full/MotorControl/MCSDK/MCLib/Any/Src/sto_pll_speed_pos_fdbk.c ****       pHandle->IsAlgorithmConverged = true;
 1362              		.loc 1 780 7 view .LVU553
 1363              		.loc 1 780 37 is_stmt 0 view .LVU554
 1364 0014 0122     		movs	r2, #1
 1365 0016 83F8F820 		strb	r2, [r3, #248]
 781:MCSDK_v6.3.2-Full/MotorControl/MCSDK/MCLib/Any/Src/sto_pll_speed_pos_fdbk.c ****       pHandle->_Super.bSpeedErrorNumber = 0U;
 1366              		.loc 1 781 7 is_stmt 1 view .LVU555
 1367              		.loc 1 781 41 is_stmt 0 view .LVU556
 1368 001a 0022     		movs	r2, #0
 1369 001c 1A70     		strb	r2, [r3]
 1370              	.LVL152:
 782:MCSDK_v6.3.2-Full/MotorControl/MCSDK/MCLib/Any/Src/sto_pll_speed_pos_fdbk.c ****     }
 783:MCSDK_v6.3.2-Full/MotorControl/MCSDK/MCLib/Any/Src/sto_pll_speed_pos_fdbk.c ****     else
 784:MCSDK_v6.3.2-Full/MotorControl/MCSDK/MCLib/Any/Src/sto_pll_speed_pos_fdbk.c ****     {
 785:MCSDK_v6.3.2-Full/MotorControl/MCSDK/MCLib/Any/Src/sto_pll_speed_pos_fdbk.c ****       hEstimatedSpeedUnit = pHandle->_Super.hAvrMecSpeedUnit;
 786:MCSDK_v6.3.2-Full/MotorControl/MCSDK/MCLib/Any/Src/sto_pll_speed_pos_fdbk.c **** 
 787:MCSDK_v6.3.2-Full/MotorControl/MCSDK/MCLib/Any/Src/sto_pll_speed_pos_fdbk.c ****       wtemp = ((int32_t)hEstimatedSpeedUnit) * ((int32_t)*phForcedMecSpeedUnit);
 788:MCSDK_v6.3.2-Full/MotorControl/MCSDK/MCLib/Any/Src/sto_pll_speed_pos_fdbk.c **** 
 789:MCSDK_v6.3.2-Full/MotorControl/MCSDK/MCLib/Any/Src/sto_pll_speed_pos_fdbk.c ****       if (wtemp > 0)
 790:MCSDK_v6.3.2-Full/MotorControl/MCSDK/MCLib/Any/Src/sto_pll_speed_pos_fdbk.c ****       {
 791:MCSDK_v6.3.2-Full/MotorControl/MCSDK/MCLib/Any/Src/sto_pll_speed_pos_fdbk.c ****         if (hEstimatedSpeedUnit < 0)
 792:MCSDK_v6.3.2-Full/MotorControl/MCSDK/MCLib/Any/Src/sto_pll_speed_pos_fdbk.c ****         {
 793:MCSDK_v6.3.2-Full/MotorControl/MCSDK/MCLib/Any/Src/sto_pll_speed_pos_fdbk.c ****           hEstimatedSpeedUnit = -hEstimatedSpeedUnit;
 794:MCSDK_v6.3.2-Full/MotorControl/MCSDK/MCLib/Any/Src/sto_pll_speed_pos_fdbk.c ****         }
 795:MCSDK_v6.3.2-Full/MotorControl/MCSDK/MCLib/Any/Src/sto_pll_speed_pos_fdbk.c **** 
 796:MCSDK_v6.3.2-Full/MotorControl/MCSDK/MCLib/Any/Src/sto_pll_speed_pos_fdbk.c ****         if (*phForcedMecSpeedUnit < 0)
 797:MCSDK_v6.3.2-Full/MotorControl/MCSDK/MCLib/Any/Src/sto_pll_speed_pos_fdbk.c ****         {
ARM GAS  /tmp/ccNNILil.s 			page 45


 798:MCSDK_v6.3.2-Full/MotorControl/MCSDK/MCLib/Any/Src/sto_pll_speed_pos_fdbk.c ****           *phForcedMecSpeedUnit = -*phForcedMecSpeedUnit;
 799:MCSDK_v6.3.2-Full/MotorControl/MCSDK/MCLib/Any/Src/sto_pll_speed_pos_fdbk.c ****         }
 800:MCSDK_v6.3.2-Full/MotorControl/MCSDK/MCLib/Any/Src/sto_pll_speed_pos_fdbk.c ****         wAux = ((int32_t)*phForcedMecSpeedUnit) * ((int16_t)pHandle->SpeedValidationBand_H);
 801:MCSDK_v6.3.2-Full/MotorControl/MCSDK/MCLib/Any/Src/sto_pll_speed_pos_fdbk.c ****         hUpperThreshold = (int16_t)(wAux / ((int32_t)16));
 802:MCSDK_v6.3.2-Full/MotorControl/MCSDK/MCLib/Any/Src/sto_pll_speed_pos_fdbk.c **** 
 803:MCSDK_v6.3.2-Full/MotorControl/MCSDK/MCLib/Any/Src/sto_pll_speed_pos_fdbk.c ****         wAux = ((int32_t)*phForcedMecSpeedUnit) * ((int16_t)pHandle->SpeedValidationBand_L);
 804:MCSDK_v6.3.2-Full/MotorControl/MCSDK/MCLib/Any/Src/sto_pll_speed_pos_fdbk.c ****         hLowerThreshold = (int16_t)(wAux / ((int32_t)16));
 805:MCSDK_v6.3.2-Full/MotorControl/MCSDK/MCLib/Any/Src/sto_pll_speed_pos_fdbk.c **** 
 806:MCSDK_v6.3.2-Full/MotorControl/MCSDK/MCLib/Any/Src/sto_pll_speed_pos_fdbk.c ****         /* If the variance of the estimated speed is low enough... */
 807:MCSDK_v6.3.2-Full/MotorControl/MCSDK/MCLib/Any/Src/sto_pll_speed_pos_fdbk.c ****         if (true == pHandle->IsSpeedReliable)
 808:MCSDK_v6.3.2-Full/MotorControl/MCSDK/MCLib/Any/Src/sto_pll_speed_pos_fdbk.c ****         {
 809:MCSDK_v6.3.2-Full/MotorControl/MCSDK/MCLib/Any/Src/sto_pll_speed_pos_fdbk.c ****           if ((uint16_t)hEstimatedSpeedUnit > pHandle->MinStartUpValidSpeed)
 810:MCSDK_v6.3.2-Full/MotorControl/MCSDK/MCLib/Any/Src/sto_pll_speed_pos_fdbk.c ****           {
 811:MCSDK_v6.3.2-Full/MotorControl/MCSDK/MCLib/Any/Src/sto_pll_speed_pos_fdbk.c ****             /* ...and the estimated value is quite close to the expected value... */
 812:MCSDK_v6.3.2-Full/MotorControl/MCSDK/MCLib/Any/Src/sto_pll_speed_pos_fdbk.c ****             if (hEstimatedSpeedUnit >= hLowerThreshold)
 813:MCSDK_v6.3.2-Full/MotorControl/MCSDK/MCLib/Any/Src/sto_pll_speed_pos_fdbk.c ****             {
 814:MCSDK_v6.3.2-Full/MotorControl/MCSDK/MCLib/Any/Src/sto_pll_speed_pos_fdbk.c ****               if (hEstimatedSpeedUnit <= hUpperThreshold)
 815:MCSDK_v6.3.2-Full/MotorControl/MCSDK/MCLib/Any/Src/sto_pll_speed_pos_fdbk.c ****               {
 816:MCSDK_v6.3.2-Full/MotorControl/MCSDK/MCLib/Any/Src/sto_pll_speed_pos_fdbk.c ****                 pHandle->ConsistencyCounter++;
 817:MCSDK_v6.3.2-Full/MotorControl/MCSDK/MCLib/Any/Src/sto_pll_speed_pos_fdbk.c **** 
 818:MCSDK_v6.3.2-Full/MotorControl/MCSDK/MCLib/Any/Src/sto_pll_speed_pos_fdbk.c ****                 /* ...for hConsistencyThreshold consecutive times... */
 819:MCSDK_v6.3.2-Full/MotorControl/MCSDK/MCLib/Any/Src/sto_pll_speed_pos_fdbk.c ****                 if (pHandle->ConsistencyCounter >= pHandle->StartUpConsistThreshold)
 820:MCSDK_v6.3.2-Full/MotorControl/MCSDK/MCLib/Any/Src/sto_pll_speed_pos_fdbk.c ****                 {
 821:MCSDK_v6.3.2-Full/MotorControl/MCSDK/MCLib/Any/Src/sto_pll_speed_pos_fdbk.c **** 
 822:MCSDK_v6.3.2-Full/MotorControl/MCSDK/MCLib/Any/Src/sto_pll_speed_pos_fdbk.c ****                   /* The algorithm converged */
 823:MCSDK_v6.3.2-Full/MotorControl/MCSDK/MCLib/Any/Src/sto_pll_speed_pos_fdbk.c ****                   bAux = true;
 824:MCSDK_v6.3.2-Full/MotorControl/MCSDK/MCLib/Any/Src/sto_pll_speed_pos_fdbk.c ****                   pHandle->IsAlgorithmConverged = true;
 825:MCSDK_v6.3.2-Full/MotorControl/MCSDK/MCLib/Any/Src/sto_pll_speed_pos_fdbk.c ****                   pHandle->_Super.bSpeedErrorNumber = 0U;
 826:MCSDK_v6.3.2-Full/MotorControl/MCSDK/MCLib/Any/Src/sto_pll_speed_pos_fdbk.c ****                 }
 827:MCSDK_v6.3.2-Full/MotorControl/MCSDK/MCLib/Any/Src/sto_pll_speed_pos_fdbk.c ****               }
 828:MCSDK_v6.3.2-Full/MotorControl/MCSDK/MCLib/Any/Src/sto_pll_speed_pos_fdbk.c ****               else
 829:MCSDK_v6.3.2-Full/MotorControl/MCSDK/MCLib/Any/Src/sto_pll_speed_pos_fdbk.c ****               {
 830:MCSDK_v6.3.2-Full/MotorControl/MCSDK/MCLib/Any/Src/sto_pll_speed_pos_fdbk.c ****                 pHandle->ConsistencyCounter = 0U;
 831:MCSDK_v6.3.2-Full/MotorControl/MCSDK/MCLib/Any/Src/sto_pll_speed_pos_fdbk.c ****               }
 832:MCSDK_v6.3.2-Full/MotorControl/MCSDK/MCLib/Any/Src/sto_pll_speed_pos_fdbk.c ****             }
 833:MCSDK_v6.3.2-Full/MotorControl/MCSDK/MCLib/Any/Src/sto_pll_speed_pos_fdbk.c ****             else
 834:MCSDK_v6.3.2-Full/MotorControl/MCSDK/MCLib/Any/Src/sto_pll_speed_pos_fdbk.c ****             {
 835:MCSDK_v6.3.2-Full/MotorControl/MCSDK/MCLib/Any/Src/sto_pll_speed_pos_fdbk.c ****               pHandle->ConsistencyCounter = 0U;
 836:MCSDK_v6.3.2-Full/MotorControl/MCSDK/MCLib/Any/Src/sto_pll_speed_pos_fdbk.c ****             }
 837:MCSDK_v6.3.2-Full/MotorControl/MCSDK/MCLib/Any/Src/sto_pll_speed_pos_fdbk.c ****           }
 838:MCSDK_v6.3.2-Full/MotorControl/MCSDK/MCLib/Any/Src/sto_pll_speed_pos_fdbk.c ****           else
 839:MCSDK_v6.3.2-Full/MotorControl/MCSDK/MCLib/Any/Src/sto_pll_speed_pos_fdbk.c ****           {
 840:MCSDK_v6.3.2-Full/MotorControl/MCSDK/MCLib/Any/Src/sto_pll_speed_pos_fdbk.c ****             pHandle->ConsistencyCounter = 0U;
 841:MCSDK_v6.3.2-Full/MotorControl/MCSDK/MCLib/Any/Src/sto_pll_speed_pos_fdbk.c ****           }
 842:MCSDK_v6.3.2-Full/MotorControl/MCSDK/MCLib/Any/Src/sto_pll_speed_pos_fdbk.c ****         }
 843:MCSDK_v6.3.2-Full/MotorControl/MCSDK/MCLib/Any/Src/sto_pll_speed_pos_fdbk.c ****         else
 844:MCSDK_v6.3.2-Full/MotorControl/MCSDK/MCLib/Any/Src/sto_pll_speed_pos_fdbk.c ****         {
 845:MCSDK_v6.3.2-Full/MotorControl/MCSDK/MCLib/Any/Src/sto_pll_speed_pos_fdbk.c ****           pHandle->ConsistencyCounter = 0U;
 846:MCSDK_v6.3.2-Full/MotorControl/MCSDK/MCLib/Any/Src/sto_pll_speed_pos_fdbk.c ****         }
 847:MCSDK_v6.3.2-Full/MotorControl/MCSDK/MCLib/Any/Src/sto_pll_speed_pos_fdbk.c ****       }
 848:MCSDK_v6.3.2-Full/MotorControl/MCSDK/MCLib/Any/Src/sto_pll_speed_pos_fdbk.c ****       else
 849:MCSDK_v6.3.2-Full/MotorControl/MCSDK/MCLib/Any/Src/sto_pll_speed_pos_fdbk.c ****       {
 850:MCSDK_v6.3.2-Full/MotorControl/MCSDK/MCLib/Any/Src/sto_pll_speed_pos_fdbk.c ****         /* Nothing to do */
 851:MCSDK_v6.3.2-Full/MotorControl/MCSDK/MCLib/Any/Src/sto_pll_speed_pos_fdbk.c ****       }
 1371              		.loc 1 851 7 is_stmt 1 view .LVU557
 852:MCSDK_v6.3.2-Full/MotorControl/MCSDK/MCLib/Any/Src/sto_pll_speed_pos_fdbk.c ****     }
 853:MCSDK_v6.3.2-Full/MotorControl/MCSDK/MCLib/Any/Src/sto_pll_speed_pos_fdbk.c **** #ifdef NULL_PTR_CHECK_STO_PLL_SPD_POS_FDB
ARM GAS  /tmp/ccNNILil.s 			page 46


 854:MCSDK_v6.3.2-Full/MotorControl/MCSDK/MCLib/Any/Src/sto_pll_speed_pos_fdbk.c ****   }
 855:MCSDK_v6.3.2-Full/MotorControl/MCSDK/MCLib/Any/Src/sto_pll_speed_pos_fdbk.c **** #endif
 856:MCSDK_v6.3.2-Full/MotorControl/MCSDK/MCLib/Any/Src/sto_pll_speed_pos_fdbk.c ****   return (bAux);
 1372              		.loc 1 856 3 view .LVU558
 857:MCSDK_v6.3.2-Full/MotorControl/MCSDK/MCLib/Any/Src/sto_pll_speed_pos_fdbk.c **** }
 1373              		.loc 1 857 1 is_stmt 0 view .LVU559
 1374 001e 7047     		bx	lr
 1375              	.LVL153:
 1376              	.L67:
 752:MCSDK_v6.3.2-Full/MotorControl/MCSDK/MCLib/Any/Src/sto_pll_speed_pos_fdbk.c ****   bool bAux = false;
 1377              		.loc 1 752 1 view .LVU560
 1378 0020 10B5     		push	{r4, lr}
 1379              	.LCFI10:
 1380              		.cfi_def_cfa_offset 8
 1381              		.cfi_offset 4, -8
 1382              		.cfi_offset 14, -4
 785:MCSDK_v6.3.2-Full/MotorControl/MCSDK/MCLib/Any/Src/sto_pll_speed_pos_fdbk.c **** 
 1383              		.loc 1 785 7 is_stmt 1 view .LVU561
 785:MCSDK_v6.3.2-Full/MotorControl/MCSDK/MCLib/Any/Src/sto_pll_speed_pos_fdbk.c **** 
 1384              		.loc 1 785 27 is_stmt 0 view .LVU562
 1385 0022 B3F90C20 		ldrsh	r2, [r3, #12]
 1386              	.LVL154:
 787:MCSDK_v6.3.2-Full/MotorControl/MCSDK/MCLib/Any/Src/sto_pll_speed_pos_fdbk.c **** 
 1387              		.loc 1 787 7 is_stmt 1 view .LVU563
 787:MCSDK_v6.3.2-Full/MotorControl/MCSDK/MCLib/Any/Src/sto_pll_speed_pos_fdbk.c **** 
 1388              		.loc 1 787 58 is_stmt 0 view .LVU564
 1389 0026 B1F900C0 		ldrsh	ip, [r1]
 1390              	.LVL155:
 789:MCSDK_v6.3.2-Full/MotorControl/MCSDK/MCLib/Any/Src/sto_pll_speed_pos_fdbk.c ****       {
 1391              		.loc 1 789 7 is_stmt 1 view .LVU565
 787:MCSDK_v6.3.2-Full/MotorControl/MCSDK/MCLib/Any/Src/sto_pll_speed_pos_fdbk.c **** 
 1392              		.loc 1 787 13 is_stmt 0 view .LVU566
 1393 002a 0CFB02FE 		mul	lr, ip, r2
 789:MCSDK_v6.3.2-Full/MotorControl/MCSDK/MCLib/Any/Src/sto_pll_speed_pos_fdbk.c ****       {
 1394              		.loc 1 789 10 view .LVU567
 1395 002e BEF1000F 		cmp	lr, #0
 1396 0032 4CDD     		ble	.L68
 791:MCSDK_v6.3.2-Full/MotorControl/MCSDK/MCLib/Any/Src/sto_pll_speed_pos_fdbk.c ****         {
 1397              		.loc 1 791 9 is_stmt 1 view .LVU568
 791:MCSDK_v6.3.2-Full/MotorControl/MCSDK/MCLib/Any/Src/sto_pll_speed_pos_fdbk.c ****         {
 1398              		.loc 1 791 12 is_stmt 0 view .LVU569
 1399 0034 002A     		cmp	r2, #0
 793:MCSDK_v6.3.2-Full/MotorControl/MCSDK/MCLib/Any/Src/sto_pll_speed_pos_fdbk.c ****         }
 1400              		.loc 1 793 11 is_stmt 1 view .LVU570
 793:MCSDK_v6.3.2-Full/MotorControl/MCSDK/MCLib/Any/Src/sto_pll_speed_pos_fdbk.c ****         }
 1401              		.loc 1 793 31 is_stmt 0 view .LVU571
 1402 0036 BCBF     		itt	lt
 1403 0038 5242     		rsblt	r2, r2, #0
 1404              	.LVL156:
 793:MCSDK_v6.3.2-Full/MotorControl/MCSDK/MCLib/Any/Src/sto_pll_speed_pos_fdbk.c ****         }
 1405              		.loc 1 793 31 view .LVU572
 1406 003a 12B2     		sxthlt	r2, r2
 1407              	.LVL157:
 796:MCSDK_v6.3.2-Full/MotorControl/MCSDK/MCLib/Any/Src/sto_pll_speed_pos_fdbk.c ****         {
 1408              		.loc 1 796 9 is_stmt 1 view .LVU573
 796:MCSDK_v6.3.2-Full/MotorControl/MCSDK/MCLib/Any/Src/sto_pll_speed_pos_fdbk.c ****         {
 1409              		.loc 1 796 12 is_stmt 0 view .LVU574
ARM GAS  /tmp/ccNNILil.s 			page 47


 1410 003c BCF1000F 		cmp	ip, #0
 798:MCSDK_v6.3.2-Full/MotorControl/MCSDK/MCLib/Any/Src/sto_pll_speed_pos_fdbk.c ****         }
 1411              		.loc 1 798 11 is_stmt 1 view .LVU575
 798:MCSDK_v6.3.2-Full/MotorControl/MCSDK/MCLib/Any/Src/sto_pll_speed_pos_fdbk.c ****         }
 1412              		.loc 1 798 33 is_stmt 0 view .LVU576
 1413 0040 BCBF     		itt	lt
 1414 0042 CCF1000C 		rsblt	ip, ip, #0
 1415              	.LVL158:
 798:MCSDK_v6.3.2-Full/MotorControl/MCSDK/MCLib/Any/Src/sto_pll_speed_pos_fdbk.c ****         }
 1416              		.loc 1 798 33 view .LVU577
 1417 0046 A1F800C0 		strhlt	ip, [r1]	@ movhi
 1418              	.LVL159:
 800:MCSDK_v6.3.2-Full/MotorControl/MCSDK/MCLib/Any/Src/sto_pll_speed_pos_fdbk.c ****         hUpperThreshold = (int16_t)(wAux / ((int32_t)16));
 1419              		.loc 1 800 9 is_stmt 1 view .LVU578
 801:MCSDK_v6.3.2-Full/MotorControl/MCSDK/MCLib/Any/Src/sto_pll_speed_pos_fdbk.c **** 
 1420              		.loc 1 801 9 view .LVU579
 803:MCSDK_v6.3.2-Full/MotorControl/MCSDK/MCLib/Any/Src/sto_pll_speed_pos_fdbk.c ****         hLowerThreshold = (int16_t)(wAux / ((int32_t)16));
 1421              		.loc 1 803 9 view .LVU580
 804:MCSDK_v6.3.2-Full/MotorControl/MCSDK/MCLib/Any/Src/sto_pll_speed_pos_fdbk.c **** 
 1422              		.loc 1 804 9 view .LVU581
 807:MCSDK_v6.3.2-Full/MotorControl/MCSDK/MCLib/Any/Src/sto_pll_speed_pos_fdbk.c ****         {
 1423              		.loc 1 807 9 view .LVU582
 807:MCSDK_v6.3.2-Full/MotorControl/MCSDK/MCLib/Any/Src/sto_pll_speed_pos_fdbk.c ****         {
 1424              		.loc 1 807 28 is_stmt 0 view .LVU583
 1425 004a 93F8F540 		ldrb	r4, [r3, #245]	@ zero_extendqisi2
 807:MCSDK_v6.3.2-Full/MotorControl/MCSDK/MCLib/Any/Src/sto_pll_speed_pos_fdbk.c ****         {
 1426              		.loc 1 807 12 view .LVU584
 1427 004e D4B3     		cbz	r4, .L71
 809:MCSDK_v6.3.2-Full/MotorControl/MCSDK/MCLib/Any/Src/sto_pll_speed_pos_fdbk.c ****           {
 1428              		.loc 1 809 11 is_stmt 1 view .LVU585
 809:MCSDK_v6.3.2-Full/MotorControl/MCSDK/MCLib/Any/Src/sto_pll_speed_pos_fdbk.c ****           {
 1429              		.loc 1 809 14 is_stmt 0 view .LVU586
 1430 0050 B3F814E1 		ldrh	lr, [r3, #276]
 1431 0054 1FFA82FC 		uxth	ip, r2
 1432 0058 E645     		cmp	lr, ip
 1433 005a 30D2     		bcs	.L72
 800:MCSDK_v6.3.2-Full/MotorControl/MCSDK/MCLib/Any/Src/sto_pll_speed_pos_fdbk.c ****         hUpperThreshold = (int16_t)(wAux / ((int32_t)16));
 1434              		.loc 1 800 17 view .LVU587
 1435 005c B1F900C0 		ldrsh	ip, [r1]
 812:MCSDK_v6.3.2-Full/MotorControl/MCSDK/MCLib/Any/Src/sto_pll_speed_pos_fdbk.c ****             {
 1436              		.loc 1 812 13 is_stmt 1 view .LVU588
 803:MCSDK_v6.3.2-Full/MotorControl/MCSDK/MCLib/Any/Src/sto_pll_speed_pos_fdbk.c ****         hLowerThreshold = (int16_t)(wAux / ((int32_t)16));
 1437              		.loc 1 803 52 is_stmt 0 view .LVU589
 1438 0060 93F81311 		ldrb	r1, [r3, #275]	@ zero_extendqisi2
 1439              	.LVL160:
 803:MCSDK_v6.3.2-Full/MotorControl/MCSDK/MCLib/Any/Src/sto_pll_speed_pos_fdbk.c ****         hLowerThreshold = (int16_t)(wAux / ((int32_t)16));
 1440              		.loc 1 803 14 view .LVU590
 1441 0064 0CFB01F1 		mul	r1, ip, r1
 804:MCSDK_v6.3.2-Full/MotorControl/MCSDK/MCLib/Any/Src/sto_pll_speed_pos_fdbk.c **** 
 1442              		.loc 1 804 42 view .LVU591
 1443 0068 0029     		cmp	r1, #0
 1444 006a B8BF     		it	lt
 1445 006c 0F31     		addlt	r1, r1, #15
 812:MCSDK_v6.3.2-Full/MotorControl/MCSDK/MCLib/Any/Src/sto_pll_speed_pos_fdbk.c ****             {
 1446              		.loc 1 812 16 view .LVU592
 1447 006e 41F30F11 		sbfx	r1, r1, #4, #16
 1448 0072 8A42     		cmp	r2, r1
ARM GAS  /tmp/ccNNILil.s 			page 48


 1449 0074 1FDB     		blt	.L73
 814:MCSDK_v6.3.2-Full/MotorControl/MCSDK/MCLib/Any/Src/sto_pll_speed_pos_fdbk.c ****               {
 1450              		.loc 1 814 15 is_stmt 1 view .LVU593
 800:MCSDK_v6.3.2-Full/MotorControl/MCSDK/MCLib/Any/Src/sto_pll_speed_pos_fdbk.c ****         hUpperThreshold = (int16_t)(wAux / ((int32_t)16));
 1451              		.loc 1 800 52 is_stmt 0 view .LVU594
 1452 0076 93F81211 		ldrb	r1, [r3, #274]	@ zero_extendqisi2
 800:MCSDK_v6.3.2-Full/MotorControl/MCSDK/MCLib/Any/Src/sto_pll_speed_pos_fdbk.c ****         hUpperThreshold = (int16_t)(wAux / ((int32_t)16));
 1453              		.loc 1 800 14 view .LVU595
 1454 007a 0CFB01F1 		mul	r1, ip, r1
 801:MCSDK_v6.3.2-Full/MotorControl/MCSDK/MCLib/Any/Src/sto_pll_speed_pos_fdbk.c **** 
 1455              		.loc 1 801 42 view .LVU596
 1456 007e 0029     		cmp	r1, #0
 1457 0080 B8BF     		it	lt
 1458 0082 0F31     		addlt	r1, r1, #15
 814:MCSDK_v6.3.2-Full/MotorControl/MCSDK/MCLib/Any/Src/sto_pll_speed_pos_fdbk.c ****               {
 1459              		.loc 1 814 18 view .LVU597
 1460 0084 41F30F11 		sbfx	r1, r1, #4, #16
 1461 0088 8A42     		cmp	r2, r1
 1462 008a 10DC     		bgt	.L75
 816:MCSDK_v6.3.2-Full/MotorControl/MCSDK/MCLib/Any/Src/sto_pll_speed_pos_fdbk.c **** 
 1463              		.loc 1 816 17 is_stmt 1 view .LVU598
 816:MCSDK_v6.3.2-Full/MotorControl/MCSDK/MCLib/Any/Src/sto_pll_speed_pos_fdbk.c **** 
 1464              		.loc 1 816 44 is_stmt 0 view .LVU599
 1465 008c 93F8F620 		ldrb	r2, [r3, #246]	@ zero_extendqisi2
 1466              	.LVL161:
 816:MCSDK_v6.3.2-Full/MotorControl/MCSDK/MCLib/Any/Src/sto_pll_speed_pos_fdbk.c **** 
 1467              		.loc 1 816 44 view .LVU600
 1468 0090 0132     		adds	r2, r2, #1
 1469 0092 D2B2     		uxtb	r2, r2
 1470 0094 83F8F620 		strb	r2, [r3, #246]
 819:MCSDK_v6.3.2-Full/MotorControl/MCSDK/MCLib/Any/Src/sto_pll_speed_pos_fdbk.c ****                 {
 1471              		.loc 1 819 17 is_stmt 1 view .LVU601
 819:MCSDK_v6.3.2-Full/MotorControl/MCSDK/MCLib/Any/Src/sto_pll_speed_pos_fdbk.c ****                 {
 1472              		.loc 1 819 20 is_stmt 0 view .LVU602
 1473 0098 93F81611 		ldrb	r1, [r3, #278]	@ zero_extendqisi2
 1474 009c 9142     		cmp	r1, r2
 1475 009e 16D8     		bhi	.L68
 823:MCSDK_v6.3.2-Full/MotorControl/MCSDK/MCLib/Any/Src/sto_pll_speed_pos_fdbk.c ****                   pHandle->IsAlgorithmConverged = true;
 1476              		.loc 1 823 19 is_stmt 1 view .LVU603
 1477              	.LVL162:
 824:MCSDK_v6.3.2-Full/MotorControl/MCSDK/MCLib/Any/Src/sto_pll_speed_pos_fdbk.c ****                   pHandle->_Super.bSpeedErrorNumber = 0U;
 1478              		.loc 1 824 19 view .LVU604
 824:MCSDK_v6.3.2-Full/MotorControl/MCSDK/MCLib/Any/Src/sto_pll_speed_pos_fdbk.c ****                   pHandle->_Super.bSpeedErrorNumber = 0U;
 1479              		.loc 1 824 49 is_stmt 0 view .LVU605
 1480 00a0 0122     		movs	r2, #1
 1481 00a2 83F8F820 		strb	r2, [r3, #248]
 825:MCSDK_v6.3.2-Full/MotorControl/MCSDK/MCLib/Any/Src/sto_pll_speed_pos_fdbk.c ****                 }
 1482              		.loc 1 825 19 is_stmt 1 view .LVU606
 825:MCSDK_v6.3.2-Full/MotorControl/MCSDK/MCLib/Any/Src/sto_pll_speed_pos_fdbk.c ****                 }
 1483              		.loc 1 825 53 is_stmt 0 view .LVU607
 1484 00a6 0022     		movs	r2, #0
 1485 00a8 1A70     		strb	r2, [r3]
 823:MCSDK_v6.3.2-Full/MotorControl/MCSDK/MCLib/Any/Src/sto_pll_speed_pos_fdbk.c ****                   pHandle->IsAlgorithmConverged = true;
 1486              		.loc 1 823 24 view .LVU608
 1487 00aa 2046     		mov	r0, r4
 1488 00ac 0FE0     		b	.L68
 1489              	.LVL163:
ARM GAS  /tmp/ccNNILil.s 			page 49


 1490              	.L75:
 830:MCSDK_v6.3.2-Full/MotorControl/MCSDK/MCLib/Any/Src/sto_pll_speed_pos_fdbk.c ****               }
 1491              		.loc 1 830 17 is_stmt 1 view .LVU609
 830:MCSDK_v6.3.2-Full/MotorControl/MCSDK/MCLib/Any/Src/sto_pll_speed_pos_fdbk.c ****               }
 1492              		.loc 1 830 45 is_stmt 0 view .LVU610
 1493 00ae 0022     		movs	r2, #0
 1494              	.LVL164:
 830:MCSDK_v6.3.2-Full/MotorControl/MCSDK/MCLib/Any/Src/sto_pll_speed_pos_fdbk.c ****               }
 1495              		.loc 1 830 45 view .LVU611
 1496 00b0 83F8F620 		strb	r2, [r3, #246]
 830:MCSDK_v6.3.2-Full/MotorControl/MCSDK/MCLib/Any/Src/sto_pll_speed_pos_fdbk.c ****               }
 1497              		.loc 1 830 45 view .LVU612
 1498 00b4 0BE0     		b	.L68
 1499              	.LVL165:
 1500              	.L73:
 835:MCSDK_v6.3.2-Full/MotorControl/MCSDK/MCLib/Any/Src/sto_pll_speed_pos_fdbk.c ****             }
 1501              		.loc 1 835 15 is_stmt 1 view .LVU613
 835:MCSDK_v6.3.2-Full/MotorControl/MCSDK/MCLib/Any/Src/sto_pll_speed_pos_fdbk.c ****             }
 1502              		.loc 1 835 43 is_stmt 0 view .LVU614
 1503 00b6 0022     		movs	r2, #0
 1504              	.LVL166:
 835:MCSDK_v6.3.2-Full/MotorControl/MCSDK/MCLib/Any/Src/sto_pll_speed_pos_fdbk.c ****             }
 1505              		.loc 1 835 43 view .LVU615
 1506 00b8 83F8F620 		strb	r2, [r3, #246]
 835:MCSDK_v6.3.2-Full/MotorControl/MCSDK/MCLib/Any/Src/sto_pll_speed_pos_fdbk.c ****             }
 1507              		.loc 1 835 43 view .LVU616
 1508 00bc 07E0     		b	.L68
 1509              	.LVL167:
 1510              	.L72:
 840:MCSDK_v6.3.2-Full/MotorControl/MCSDK/MCLib/Any/Src/sto_pll_speed_pos_fdbk.c ****           }
 1511              		.loc 1 840 13 is_stmt 1 view .LVU617
 840:MCSDK_v6.3.2-Full/MotorControl/MCSDK/MCLib/Any/Src/sto_pll_speed_pos_fdbk.c ****           }
 1512              		.loc 1 840 41 is_stmt 0 view .LVU618
 1513 00be 0022     		movs	r2, #0
 1514              	.LVL168:
 840:MCSDK_v6.3.2-Full/MotorControl/MCSDK/MCLib/Any/Src/sto_pll_speed_pos_fdbk.c ****           }
 1515              		.loc 1 840 41 view .LVU619
 1516 00c0 83F8F620 		strb	r2, [r3, #246]
 1517              	.LVL169:
 840:MCSDK_v6.3.2-Full/MotorControl/MCSDK/MCLib/Any/Src/sto_pll_speed_pos_fdbk.c ****           }
 1518              		.loc 1 840 41 view .LVU620
 1519 00c4 03E0     		b	.L68
 1520              	.LVL170:
 1521              	.L71:
 845:MCSDK_v6.3.2-Full/MotorControl/MCSDK/MCLib/Any/Src/sto_pll_speed_pos_fdbk.c ****         }
 1522              		.loc 1 845 11 is_stmt 1 view .LVU621
 845:MCSDK_v6.3.2-Full/MotorControl/MCSDK/MCLib/Any/Src/sto_pll_speed_pos_fdbk.c ****         }
 1523              		.loc 1 845 39 is_stmt 0 view .LVU622
 1524 00c6 0022     		movs	r2, #0
 1525              	.LVL171:
 845:MCSDK_v6.3.2-Full/MotorControl/MCSDK/MCLib/Any/Src/sto_pll_speed_pos_fdbk.c ****         }
 1526              		.loc 1 845 39 view .LVU623
 1527 00c8 83F8F620 		strb	r2, [r3, #246]
 1528              	.LVL172:
 753:MCSDK_v6.3.2-Full/MotorControl/MCSDK/MCLib/Any/Src/sto_pll_speed_pos_fdbk.c **** #ifdef NULL_PTR_CHECK_STO_PLL_SPD_POS_FDB
 1529              		.loc 1 753 8 view .LVU624
 1530 00cc 2046     		mov	r0, r4
ARM GAS  /tmp/ccNNILil.s 			page 50


 1531              	.LVL173:
 1532              	.L68:
 851:MCSDK_v6.3.2-Full/MotorControl/MCSDK/MCLib/Any/Src/sto_pll_speed_pos_fdbk.c ****     }
 1533              		.loc 1 851 7 is_stmt 1 view .LVU625
 856:MCSDK_v6.3.2-Full/MotorControl/MCSDK/MCLib/Any/Src/sto_pll_speed_pos_fdbk.c **** }
 1534              		.loc 1 856 3 view .LVU626
 1535              		.loc 1 857 1 is_stmt 0 view .LVU627
 1536 00ce 10BD     		pop	{r4, pc}
 1537              		.cfi_endproc
 1538              	.LFE1457:
 1540              		.section	.text.STO_PLL_GetEstimatedBemf,"ax",%progbits
 1541              		.align	1
 1542              		.weak	STO_PLL_GetEstimatedBemf
 1543              		.syntax unified
 1544              		.thumb
 1545              		.thumb_func
 1546              		.fpu fpv4-sp-d16
 1548              	STO_PLL_GetEstimatedBemf:
 1549              	.LVL174:
 1550              	.LFB1458:
 858:MCSDK_v6.3.2-Full/MotorControl/MCSDK/MCLib/Any/Src/sto_pll_speed_pos_fdbk.c **** 
 859:MCSDK_v6.3.2-Full/MotorControl/MCSDK/MCLib/Any/Src/sto_pll_speed_pos_fdbk.c **** /**
 860:MCSDK_v6.3.2-Full/MotorControl/MCSDK/MCLib/Any/Src/sto_pll_speed_pos_fdbk.c ****   * @brief  Exports estimated Bemf alpha-beta from @p pHandle.
 861:MCSDK_v6.3.2-Full/MotorControl/MCSDK/MCLib/Any/Src/sto_pll_speed_pos_fdbk.c ****   * 
 862:MCSDK_v6.3.2-Full/MotorControl/MCSDK/MCLib/Any/Src/sto_pll_speed_pos_fdbk.c ****   * @retval alphabeta_t Bemf alpha-beta.
 863:MCSDK_v6.3.2-Full/MotorControl/MCSDK/MCLib/Any/Src/sto_pll_speed_pos_fdbk.c ****   */
 864:MCSDK_v6.3.2-Full/MotorControl/MCSDK/MCLib/Any/Src/sto_pll_speed_pos_fdbk.c **** __weak alphabeta_t STO_PLL_GetEstimatedBemf(STO_PLL_Handle_t *pHandle)
 865:MCSDK_v6.3.2-Full/MotorControl/MCSDK/MCLib/Any/Src/sto_pll_speed_pos_fdbk.c **** {
 1551              		.loc 1 865 1 is_stmt 1 view -0
 1552              		.cfi_startproc
 1553              		@ args = 0, pretend = 0, frame = 8
 1554              		@ frame_needed = 0, uses_anonymous_args = 0
 1555              		@ link register save eliminated.
 1556              		.loc 1 865 1 is_stmt 0 view .LVU629
 1557 0000 82B0     		sub	sp, sp, #8
 1558              	.LCFI11:
 1559              		.cfi_def_cfa_offset 8
 1560 0002 0346     		mov	r3, r0
 866:MCSDK_v6.3.2-Full/MotorControl/MCSDK/MCLib/Any/Src/sto_pll_speed_pos_fdbk.c ****   alphabeta_t vaux;
 1561              		.loc 1 866 3 is_stmt 1 view .LVU630
 867:MCSDK_v6.3.2-Full/MotorControl/MCSDK/MCLib/Any/Src/sto_pll_speed_pos_fdbk.c **** #ifdef NULL_PTR_CHECK_STO_PLL_SPD_POS_FDB
 868:MCSDK_v6.3.2-Full/MotorControl/MCSDK/MCLib/Any/Src/sto_pll_speed_pos_fdbk.c ****   if (MC_NULL == pHandle)
 869:MCSDK_v6.3.2-Full/MotorControl/MCSDK/MCLib/Any/Src/sto_pll_speed_pos_fdbk.c ****   {
 870:MCSDK_v6.3.2-Full/MotorControl/MCSDK/MCLib/Any/Src/sto_pll_speed_pos_fdbk.c ****     vaux.alpha = 0;
 871:MCSDK_v6.3.2-Full/MotorControl/MCSDK/MCLib/Any/Src/sto_pll_speed_pos_fdbk.c ****     vaux.beta = 0;
 872:MCSDK_v6.3.2-Full/MotorControl/MCSDK/MCLib/Any/Src/sto_pll_speed_pos_fdbk.c ****   }
 873:MCSDK_v6.3.2-Full/MotorControl/MCSDK/MCLib/Any/Src/sto_pll_speed_pos_fdbk.c ****   else
 874:MCSDK_v6.3.2-Full/MotorControl/MCSDK/MCLib/Any/Src/sto_pll_speed_pos_fdbk.c ****   {
 875:MCSDK_v6.3.2-Full/MotorControl/MCSDK/MCLib/Any/Src/sto_pll_speed_pos_fdbk.c **** #endif
 876:MCSDK_v6.3.2-Full/MotorControl/MCSDK/MCLib/Any/Src/sto_pll_speed_pos_fdbk.c ****     vaux.alpha = pHandle->hBemf_alfa_est;
 1562              		.loc 1 876 5 view .LVU631
 1563              	.LVL175:
 877:MCSDK_v6.3.2-Full/MotorControl/MCSDK/MCLib/Any/Src/sto_pll_speed_pos_fdbk.c ****     vaux.beta = pHandle->hBemf_beta_est;
 1564              		.loc 1 877 5 view .LVU632
 1565              		.loc 1 877 24 is_stmt 0 view .LVU633
 1566 0004 B0F97220 		ldrsh	r2, [r0, #114]
 1567              	.LVL176:
ARM GAS  /tmp/ccNNILil.s 			page 51


 878:MCSDK_v6.3.2-Full/MotorControl/MCSDK/MCLib/Any/Src/sto_pll_speed_pos_fdbk.c **** #ifdef NULL_PTR_CHECK_STO_PLL_SPD_POS_FDB
 879:MCSDK_v6.3.2-Full/MotorControl/MCSDK/MCLib/Any/Src/sto_pll_speed_pos_fdbk.c ****   }
 880:MCSDK_v6.3.2-Full/MotorControl/MCSDK/MCLib/Any/Src/sto_pll_speed_pos_fdbk.c **** #endif
 881:MCSDK_v6.3.2-Full/MotorControl/MCSDK/MCLib/Any/Src/sto_pll_speed_pos_fdbk.c ****   return (vaux);
 1568              		.loc 1 881 3 is_stmt 1 view .LVU634
 1569              		.loc 1 881 10 is_stmt 0 view .LVU635
 1570 0008 0020     		movs	r0, #0
 1571              	.LVL177:
 1572              		.loc 1 881 10 view .LVU636
 1573 000a B3F87030 		ldrh	r3, [r3, #112]
 1574              	.LVL178:
 1575              		.loc 1 881 10 view .LVU637
 1576 000e 63F30F00 		bfi	r0, r3, #0, #16
 1577 0012 93B2     		uxth	r3, r2
 1578 0014 63F31F40 		bfi	r0, r3, #16, #16
 882:MCSDK_v6.3.2-Full/MotorControl/MCSDK/MCLib/Any/Src/sto_pll_speed_pos_fdbk.c **** }
 1579              		.loc 1 882 1 view .LVU638
 1580 0018 02B0     		add	sp, sp, #8
 1581              	.LCFI12:
 1582              		.cfi_def_cfa_offset 0
 1583              		@ sp needed
 1584 001a 7047     		bx	lr
 1585              		.cfi_endproc
 1586              	.LFE1458:
 1588              		.section	.text.STO_PLL_GetEstimatedCurrent,"ax",%progbits
 1589              		.align	1
 1590              		.weak	STO_PLL_GetEstimatedCurrent
 1591              		.syntax unified
 1592              		.thumb
 1593              		.thumb_func
 1594              		.fpu fpv4-sp-d16
 1596              	STO_PLL_GetEstimatedCurrent:
 1597              	.LVL179:
 1598              	.LFB1459:
 883:MCSDK_v6.3.2-Full/MotorControl/MCSDK/MCLib/Any/Src/sto_pll_speed_pos_fdbk.c **** 
 884:MCSDK_v6.3.2-Full/MotorControl/MCSDK/MCLib/Any/Src/sto_pll_speed_pos_fdbk.c **** 
 885:MCSDK_v6.3.2-Full/MotorControl/MCSDK/MCLib/Any/Src/sto_pll_speed_pos_fdbk.c **** /**
 886:MCSDK_v6.3.2-Full/MotorControl/MCSDK/MCLib/Any/Src/sto_pll_speed_pos_fdbk.c ****   * @brief  Exports from @p pHandle the stator current alpha-beta as estimated by state observer.
 887:MCSDK_v6.3.2-Full/MotorControl/MCSDK/MCLib/Any/Src/sto_pll_speed_pos_fdbk.c ****   * 
 888:MCSDK_v6.3.2-Full/MotorControl/MCSDK/MCLib/Any/Src/sto_pll_speed_pos_fdbk.c ****   * @retval alphabeta_t State observer estimated stator current Ialpha-beta.
 889:MCSDK_v6.3.2-Full/MotorControl/MCSDK/MCLib/Any/Src/sto_pll_speed_pos_fdbk.c ****   */
 890:MCSDK_v6.3.2-Full/MotorControl/MCSDK/MCLib/Any/Src/sto_pll_speed_pos_fdbk.c **** __weak alphabeta_t STO_PLL_GetEstimatedCurrent(STO_PLL_Handle_t *pHandle)
 891:MCSDK_v6.3.2-Full/MotorControl/MCSDK/MCLib/Any/Src/sto_pll_speed_pos_fdbk.c **** {
 1599              		.loc 1 891 1 is_stmt 1 view -0
 1600              		.cfi_startproc
 1601              		@ args = 0, pretend = 0, frame = 8
 1602              		@ frame_needed = 0, uses_anonymous_args = 0
 1603              		@ link register save eliminated.
 1604              		.loc 1 891 1 is_stmt 0 view .LVU640
 1605 0000 82B0     		sub	sp, sp, #8
 1606              	.LCFI13:
 1607              		.cfi_def_cfa_offset 8
 892:MCSDK_v6.3.2-Full/MotorControl/MCSDK/MCLib/Any/Src/sto_pll_speed_pos_fdbk.c ****   alphabeta_t iaux;
 1608              		.loc 1 892 3 is_stmt 1 view .LVU641
 893:MCSDK_v6.3.2-Full/MotorControl/MCSDK/MCLib/Any/Src/sto_pll_speed_pos_fdbk.c **** #ifdef NULL_PTR_CHECK_STO_PLL_SPD_POS_FDB
 894:MCSDK_v6.3.2-Full/MotorControl/MCSDK/MCLib/Any/Src/sto_pll_speed_pos_fdbk.c ****   if (MC_NULL == pHandle)
 895:MCSDK_v6.3.2-Full/MotorControl/MCSDK/MCLib/Any/Src/sto_pll_speed_pos_fdbk.c ****   {
ARM GAS  /tmp/ccNNILil.s 			page 52


 896:MCSDK_v6.3.2-Full/MotorControl/MCSDK/MCLib/Any/Src/sto_pll_speed_pos_fdbk.c ****     iaux.alpha = 0;
 897:MCSDK_v6.3.2-Full/MotorControl/MCSDK/MCLib/Any/Src/sto_pll_speed_pos_fdbk.c ****     iaux.beta = 0;
 898:MCSDK_v6.3.2-Full/MotorControl/MCSDK/MCLib/Any/Src/sto_pll_speed_pos_fdbk.c ****   }
 899:MCSDK_v6.3.2-Full/MotorControl/MCSDK/MCLib/Any/Src/sto_pll_speed_pos_fdbk.c ****   else
 900:MCSDK_v6.3.2-Full/MotorControl/MCSDK/MCLib/Any/Src/sto_pll_speed_pos_fdbk.c ****   {
 901:MCSDK_v6.3.2-Full/MotorControl/MCSDK/MCLib/Any/Src/sto_pll_speed_pos_fdbk.c **** #endif
 902:MCSDK_v6.3.2-Full/MotorControl/MCSDK/MCLib/Any/Src/sto_pll_speed_pos_fdbk.c **** #ifndef FULL_MISRA_C_COMPLIANCY_STO_PLL
 903:MCSDK_v6.3.2-Full/MotorControl/MCSDK/MCLib/Any/Src/sto_pll_speed_pos_fdbk.c ****   //cstat !MISRAC2012-Rule-1.3_n !ATH-shift-neg !MISRAC2012-Rule-10.1_R6
 904:MCSDK_v6.3.2-Full/MotorControl/MCSDK/MCLib/Any/Src/sto_pll_speed_pos_fdbk.c ****   iaux.alpha = (int16_t)(pHandle->Ialfa_est >> pHandle->F1LOG);
 1609              		.loc 1 904 3 view .LVU642
 1610              		.loc 1 904 55 is_stmt 0 view .LVU643
 1611 0002 B0F81C11 		ldrh	r1, [r0, #284]
 1612              	.LVL180:
 905:MCSDK_v6.3.2-Full/MotorControl/MCSDK/MCLib/Any/Src/sto_pll_speed_pos_fdbk.c **** #else
 906:MCSDK_v6.3.2-Full/MotorControl/MCSDK/MCLib/Any/Src/sto_pll_speed_pos_fdbk.c ****   iaux.alpha = (int16_t)(pHandle->Ialfa_est / pHandle->hF1);
 907:MCSDK_v6.3.2-Full/MotorControl/MCSDK/MCLib/Any/Src/sto_pll_speed_pos_fdbk.c **** #endif
 908:MCSDK_v6.3.2-Full/MotorControl/MCSDK/MCLib/Any/Src/sto_pll_speed_pos_fdbk.c **** 
 909:MCSDK_v6.3.2-Full/MotorControl/MCSDK/MCLib/Any/Src/sto_pll_speed_pos_fdbk.c **** #ifndef FULL_MISRA_C_COMPLIANCY_STO_PLL
 910:MCSDK_v6.3.2-Full/MotorControl/MCSDK/MCLib/Any/Src/sto_pll_speed_pos_fdbk.c ****   //cstat !MISRAC2012-Rule-1.3_n !ATH-shift-neg !MISRAC2012-Rule-10.1_R6
 911:MCSDK_v6.3.2-Full/MotorControl/MCSDK/MCLib/Any/Src/sto_pll_speed_pos_fdbk.c ****   iaux.beta = (int16_t)(pHandle->Ibeta_est >> pHandle->F1LOG);
 1613              		.loc 1 911 3 is_stmt 1 view .LVU644
 1614              		.loc 1 911 44 is_stmt 0 view .LVU645
 1615 0006 436E     		ldr	r3, [r0, #100]
 1616              	.LVL181:
 912:MCSDK_v6.3.2-Full/MotorControl/MCSDK/MCLib/Any/Src/sto_pll_speed_pos_fdbk.c **** #else
 913:MCSDK_v6.3.2-Full/MotorControl/MCSDK/MCLib/Any/Src/sto_pll_speed_pos_fdbk.c ****   iaux.beta = (int16_t)(pHandle->Ibeta_est / pHandle->hF1);
 914:MCSDK_v6.3.2-Full/MotorControl/MCSDK/MCLib/Any/Src/sto_pll_speed_pos_fdbk.c **** #endif
 915:MCSDK_v6.3.2-Full/MotorControl/MCSDK/MCLib/Any/Src/sto_pll_speed_pos_fdbk.c **** #ifdef NULL_PTR_CHECK_STO_PLL_SPD_POS_FDB
 916:MCSDK_v6.3.2-Full/MotorControl/MCSDK/MCLib/Any/Src/sto_pll_speed_pos_fdbk.c ****   }
 917:MCSDK_v6.3.2-Full/MotorControl/MCSDK/MCLib/Any/Src/sto_pll_speed_pos_fdbk.c **** #endif
 918:MCSDK_v6.3.2-Full/MotorControl/MCSDK/MCLib/Any/Src/sto_pll_speed_pos_fdbk.c ****   return (iaux);
 1617              		.loc 1 918 3 is_stmt 1 view .LVU646
 904:MCSDK_v6.3.2-Full/MotorControl/MCSDK/MCLib/Any/Src/sto_pll_speed_pos_fdbk.c **** #else
 1618              		.loc 1 904 45 is_stmt 0 view .LVU647
 1619 0008 026E     		ldr	r2, [r0, #96]
 904:MCSDK_v6.3.2-Full/MotorControl/MCSDK/MCLib/Any/Src/sto_pll_speed_pos_fdbk.c **** #else
 1620              		.loc 1 904 16 view .LVU648
 1621 000a 0A41     		asrs	r2, r2, r1
 1622              		.loc 1 918 10 view .LVU649
 1623 000c 0B41     		asrs	r3, r3, r1
 1624              	.LVL182:
 1625              		.loc 1 918 10 view .LVU650
 1626 000e 0020     		movs	r0, #0
 1627              	.LVL183:
 1628              		.loc 1 918 10 view .LVU651
 1629 0010 92B2     		uxth	r2, r2
 1630 0012 62F30F00 		bfi	r0, r2, #0, #16
 1631 0016 9BB2     		uxth	r3, r3
 1632 0018 63F31F40 		bfi	r0, r3, #16, #16
 919:MCSDK_v6.3.2-Full/MotorControl/MCSDK/MCLib/Any/Src/sto_pll_speed_pos_fdbk.c **** }
 1633              		.loc 1 919 1 view .LVU652
 1634 001c 02B0     		add	sp, sp, #8
 1635              	.LCFI14:
 1636              		.cfi_def_cfa_offset 0
 1637              		@ sp needed
 1638 001e 7047     		bx	lr
 1639              		.cfi_endproc
ARM GAS  /tmp/ccNNILil.s 			page 53


 1640              	.LFE1459:
 1642              		.section	.text.STO_PLL_GetObserverGains,"ax",%progbits
 1643              		.align	1
 1644              		.weak	STO_PLL_GetObserverGains
 1645              		.syntax unified
 1646              		.thumb
 1647              		.thumb_func
 1648              		.fpu fpv4-sp-d16
 1650              	STO_PLL_GetObserverGains:
 1651              	.LVL184:
 1652              	.LFB1460:
 920:MCSDK_v6.3.2-Full/MotorControl/MCSDK/MCLib/Any/Src/sto_pll_speed_pos_fdbk.c **** 
 921:MCSDK_v6.3.2-Full/MotorControl/MCSDK/MCLib/Any/Src/sto_pll_speed_pos_fdbk.c **** /**
 922:MCSDK_v6.3.2-Full/MotorControl/MCSDK/MCLib/Any/Src/sto_pll_speed_pos_fdbk.c ****   * @brief  Exports current observer gains from @p pHandle and to parameters @p phC2 and @p phC4.
 923:MCSDK_v6.3.2-Full/MotorControl/MCSDK/MCLib/Any/Src/sto_pll_speed_pos_fdbk.c ****   * 
 924:MCSDK_v6.3.2-Full/MotorControl/MCSDK/MCLib/Any/Src/sto_pll_speed_pos_fdbk.c ****   */
 925:MCSDK_v6.3.2-Full/MotorControl/MCSDK/MCLib/Any/Src/sto_pll_speed_pos_fdbk.c **** __weak void STO_PLL_GetObserverGains(STO_PLL_Handle_t *pHandle, int16_t *phC2, int16_t *phC4)
 926:MCSDK_v6.3.2-Full/MotorControl/MCSDK/MCLib/Any/Src/sto_pll_speed_pos_fdbk.c **** {
 1653              		.loc 1 926 1 is_stmt 1 view -0
 1654              		.cfi_startproc
 1655              		@ args = 0, pretend = 0, frame = 0
 1656              		@ frame_needed = 0, uses_anonymous_args = 0
 1657              		@ link register save eliminated.
 927:MCSDK_v6.3.2-Full/MotorControl/MCSDK/MCLib/Any/Src/sto_pll_speed_pos_fdbk.c **** #ifdef NULL_PTR_CHECK_STO_PLL_SPD_POS_FDB
 928:MCSDK_v6.3.2-Full/MotorControl/MCSDK/MCLib/Any/Src/sto_pll_speed_pos_fdbk.c ****   if ((MC_NULL == pHandle) || (MC_NULL == phC2) || (MC_NULL == phC4))
 929:MCSDK_v6.3.2-Full/MotorControl/MCSDK/MCLib/Any/Src/sto_pll_speed_pos_fdbk.c ****   {
 930:MCSDK_v6.3.2-Full/MotorControl/MCSDK/MCLib/Any/Src/sto_pll_speed_pos_fdbk.c ****     /* Nothing to do */
 931:MCSDK_v6.3.2-Full/MotorControl/MCSDK/MCLib/Any/Src/sto_pll_speed_pos_fdbk.c ****   }
 932:MCSDK_v6.3.2-Full/MotorControl/MCSDK/MCLib/Any/Src/sto_pll_speed_pos_fdbk.c ****   else
 933:MCSDK_v6.3.2-Full/MotorControl/MCSDK/MCLib/Any/Src/sto_pll_speed_pos_fdbk.c ****   {
 934:MCSDK_v6.3.2-Full/MotorControl/MCSDK/MCLib/Any/Src/sto_pll_speed_pos_fdbk.c **** #endif
 935:MCSDK_v6.3.2-Full/MotorControl/MCSDK/MCLib/Any/Src/sto_pll_speed_pos_fdbk.c ****     *phC2 = pHandle->hC2;
 1658              		.loc 1 935 5 view .LVU654
 1659              		.loc 1 935 20 is_stmt 0 view .LVU655
 1660 0000 B0F92230 		ldrsh	r3, [r0, #34]
 1661              		.loc 1 935 11 view .LVU656
 1662 0004 0B80     		strh	r3, [r1]	@ movhi
 936:MCSDK_v6.3.2-Full/MotorControl/MCSDK/MCLib/Any/Src/sto_pll_speed_pos_fdbk.c ****     *phC4 = pHandle->hC4;
 1663              		.loc 1 936 5 is_stmt 1 view .LVU657
 1664              		.loc 1 936 20 is_stmt 0 view .LVU658
 1665 0006 B0F92630 		ldrsh	r3, [r0, #38]
 1666              		.loc 1 936 11 view .LVU659
 1667 000a 1380     		strh	r3, [r2]	@ movhi
 937:MCSDK_v6.3.2-Full/MotorControl/MCSDK/MCLib/Any/Src/sto_pll_speed_pos_fdbk.c **** #ifdef NULL_PTR_CHECK_STO_PLL_SPD_POS_FDB
 938:MCSDK_v6.3.2-Full/MotorControl/MCSDK/MCLib/Any/Src/sto_pll_speed_pos_fdbk.c ****   }
 939:MCSDK_v6.3.2-Full/MotorControl/MCSDK/MCLib/Any/Src/sto_pll_speed_pos_fdbk.c **** #endif
 940:MCSDK_v6.3.2-Full/MotorControl/MCSDK/MCLib/Any/Src/sto_pll_speed_pos_fdbk.c **** }
 1668              		.loc 1 940 1 view .LVU660
 1669 000c 7047     		bx	lr
 1670              		.cfi_endproc
 1671              	.LFE1460:
 1673              		.section	.text.STO_PLL_SetObserverGains,"ax",%progbits
 1674              		.align	1
 1675              		.weak	STO_PLL_SetObserverGains
 1676              		.syntax unified
 1677              		.thumb
 1678              		.thumb_func
ARM GAS  /tmp/ccNNILil.s 			page 54


 1679              		.fpu fpv4-sp-d16
 1681              	STO_PLL_SetObserverGains:
 1682              	.LVL185:
 1683              	.LFB1461:
 941:MCSDK_v6.3.2-Full/MotorControl/MCSDK/MCLib/Any/Src/sto_pll_speed_pos_fdbk.c **** 
 942:MCSDK_v6.3.2-Full/MotorControl/MCSDK/MCLib/Any/Src/sto_pll_speed_pos_fdbk.c **** /**
 943:MCSDK_v6.3.2-Full/MotorControl/MCSDK/MCLib/Any/Src/sto_pll_speed_pos_fdbk.c ****   * @brief  Stores in @p pHandle the new values @p hhC1 and @p hhC2 for observer gains.
 944:MCSDK_v6.3.2-Full/MotorControl/MCSDK/MCLib/Any/Src/sto_pll_speed_pos_fdbk.c ****   * 
 945:MCSDK_v6.3.2-Full/MotorControl/MCSDK/MCLib/Any/Src/sto_pll_speed_pos_fdbk.c ****   */
 946:MCSDK_v6.3.2-Full/MotorControl/MCSDK/MCLib/Any/Src/sto_pll_speed_pos_fdbk.c **** __weak void STO_PLL_SetObserverGains(STO_PLL_Handle_t *pHandle, int16_t hhC1, int16_t hhC2)
 947:MCSDK_v6.3.2-Full/MotorControl/MCSDK/MCLib/Any/Src/sto_pll_speed_pos_fdbk.c **** {
 1684              		.loc 1 947 1 is_stmt 1 view -0
 1685              		.cfi_startproc
 1686              		@ args = 0, pretend = 0, frame = 0
 1687              		@ frame_needed = 0, uses_anonymous_args = 0
 1688              		@ link register save eliminated.
 948:MCSDK_v6.3.2-Full/MotorControl/MCSDK/MCLib/Any/Src/sto_pll_speed_pos_fdbk.c **** #ifdef NULL_PTR_CHECK_STO_PLL_SPD_POS_FDB
 949:MCSDK_v6.3.2-Full/MotorControl/MCSDK/MCLib/Any/Src/sto_pll_speed_pos_fdbk.c ****   if (MC_NULL == pHandle)
 950:MCSDK_v6.3.2-Full/MotorControl/MCSDK/MCLib/Any/Src/sto_pll_speed_pos_fdbk.c ****   {
 951:MCSDK_v6.3.2-Full/MotorControl/MCSDK/MCLib/Any/Src/sto_pll_speed_pos_fdbk.c ****     /* Nothing to do */
 952:MCSDK_v6.3.2-Full/MotorControl/MCSDK/MCLib/Any/Src/sto_pll_speed_pos_fdbk.c ****   }
 953:MCSDK_v6.3.2-Full/MotorControl/MCSDK/MCLib/Any/Src/sto_pll_speed_pos_fdbk.c ****   else
 954:MCSDK_v6.3.2-Full/MotorControl/MCSDK/MCLib/Any/Src/sto_pll_speed_pos_fdbk.c ****   {
 955:MCSDK_v6.3.2-Full/MotorControl/MCSDK/MCLib/Any/Src/sto_pll_speed_pos_fdbk.c **** #endif
 956:MCSDK_v6.3.2-Full/MotorControl/MCSDK/MCLib/Any/Src/sto_pll_speed_pos_fdbk.c ****     pHandle->hC2 = hhC1;
 1689              		.loc 1 956 5 view .LVU662
 1690              		.loc 1 956 18 is_stmt 0 view .LVU663
 1691 0000 4184     		strh	r1, [r0, #34]	@ movhi
 957:MCSDK_v6.3.2-Full/MotorControl/MCSDK/MCLib/Any/Src/sto_pll_speed_pos_fdbk.c ****     pHandle->hC4 = hhC2;
 1692              		.loc 1 957 5 is_stmt 1 view .LVU664
 1693              		.loc 1 957 18 is_stmt 0 view .LVU665
 1694 0002 C284     		strh	r2, [r0, #38]	@ movhi
 958:MCSDK_v6.3.2-Full/MotorControl/MCSDK/MCLib/Any/Src/sto_pll_speed_pos_fdbk.c **** #ifdef NULL_PTR_CHECK_STO_PLL_SPD_POS_FDB
 959:MCSDK_v6.3.2-Full/MotorControl/MCSDK/MCLib/Any/Src/sto_pll_speed_pos_fdbk.c ****   }
 960:MCSDK_v6.3.2-Full/MotorControl/MCSDK/MCLib/Any/Src/sto_pll_speed_pos_fdbk.c **** #endif
 961:MCSDK_v6.3.2-Full/MotorControl/MCSDK/MCLib/Any/Src/sto_pll_speed_pos_fdbk.c **** }
 1695              		.loc 1 961 1 view .LVU666
 1696 0004 7047     		bx	lr
 1697              		.cfi_endproc
 1698              	.LFE1461:
 1700              		.section	.text.STO_GetPLLGains,"ax",%progbits
 1701              		.align	1
 1702              		.weak	STO_GetPLLGains
 1703              		.syntax unified
 1704              		.thumb
 1705              		.thumb_func
 1706              		.fpu fpv4-sp-d16
 1708              	STO_GetPLLGains:
 1709              	.LVL186:
 1710              	.LFB1462:
 962:MCSDK_v6.3.2-Full/MotorControl/MCSDK/MCLib/Any/Src/sto_pll_speed_pos_fdbk.c **** 
 963:MCSDK_v6.3.2-Full/MotorControl/MCSDK/MCLib/Any/Src/sto_pll_speed_pos_fdbk.c **** /**
 964:MCSDK_v6.3.2-Full/MotorControl/MCSDK/MCLib/Any/Src/sto_pll_speed_pos_fdbk.c ****   * @brief  Exports current PLL gains from @p pHandle to @p pPgain and @p pIgain.
 965:MCSDK_v6.3.2-Full/MotorControl/MCSDK/MCLib/Any/Src/sto_pll_speed_pos_fdbk.c ****   * 
 966:MCSDK_v6.3.2-Full/MotorControl/MCSDK/MCLib/Any/Src/sto_pll_speed_pos_fdbk.c ****   */
 967:MCSDK_v6.3.2-Full/MotorControl/MCSDK/MCLib/Any/Src/sto_pll_speed_pos_fdbk.c **** __weak void STO_GetPLLGains(STO_PLL_Handle_t *pHandle, int16_t *pPgain, int16_t *pIgain)
 968:MCSDK_v6.3.2-Full/MotorControl/MCSDK/MCLib/Any/Src/sto_pll_speed_pos_fdbk.c **** {
ARM GAS  /tmp/ccNNILil.s 			page 55


 1711              		.loc 1 968 1 is_stmt 1 view -0
 1712              		.cfi_startproc
 1713              		@ args = 0, pretend = 0, frame = 0
 1714              		@ frame_needed = 0, uses_anonymous_args = 0
 1715              		.loc 1 968 1 is_stmt 0 view .LVU668
 1716 0000 70B5     		push	{r4, r5, r6, lr}
 1717              	.LCFI15:
 1718              		.cfi_def_cfa_offset 16
 1719              		.cfi_offset 4, -16
 1720              		.cfi_offset 5, -12
 1721              		.cfi_offset 6, -8
 1722              		.cfi_offset 14, -4
 1723 0002 0E46     		mov	r6, r1
 1724 0004 1546     		mov	r5, r2
 969:MCSDK_v6.3.2-Full/MotorControl/MCSDK/MCLib/Any/Src/sto_pll_speed_pos_fdbk.c **** #ifdef NULL_PTR_CHECK_STO_PLL_SPD_POS_FDB
 970:MCSDK_v6.3.2-Full/MotorControl/MCSDK/MCLib/Any/Src/sto_pll_speed_pos_fdbk.c ****   if ((MC_NULL == pHandle) || (MC_NULL == pPgain) || (MC_NULL == pIgain))
 971:MCSDK_v6.3.2-Full/MotorControl/MCSDK/MCLib/Any/Src/sto_pll_speed_pos_fdbk.c ****   {
 972:MCSDK_v6.3.2-Full/MotorControl/MCSDK/MCLib/Any/Src/sto_pll_speed_pos_fdbk.c ****     /* Nothing to do */
 973:MCSDK_v6.3.2-Full/MotorControl/MCSDK/MCLib/Any/Src/sto_pll_speed_pos_fdbk.c ****   }
 974:MCSDK_v6.3.2-Full/MotorControl/MCSDK/MCLib/Any/Src/sto_pll_speed_pos_fdbk.c ****   else
 975:MCSDK_v6.3.2-Full/MotorControl/MCSDK/MCLib/Any/Src/sto_pll_speed_pos_fdbk.c ****   {
 976:MCSDK_v6.3.2-Full/MotorControl/MCSDK/MCLib/Any/Src/sto_pll_speed_pos_fdbk.c **** #endif
 977:MCSDK_v6.3.2-Full/MotorControl/MCSDK/MCLib/Any/Src/sto_pll_speed_pos_fdbk.c ****     *pPgain = PID_GetKP(& pHandle->PIRegulator);
 1725              		.loc 1 977 5 is_stmt 1 view .LVU669
 1726              		.loc 1 977 15 is_stmt 0 view .LVU670
 1727 0006 00F13404 		add	r4, r0, #52
 1728 000a 2046     		mov	r0, r4
 1729              	.LVL187:
 1730              		.loc 1 977 15 view .LVU671
 1731 000c FFF7FEFF 		bl	PID_GetKP
 1732              	.LVL188:
 1733              		.loc 1 977 13 view .LVU672
 1734 0010 3080     		strh	r0, [r6]	@ movhi
 978:MCSDK_v6.3.2-Full/MotorControl/MCSDK/MCLib/Any/Src/sto_pll_speed_pos_fdbk.c ****     *pIgain = PID_GetKI(& pHandle->PIRegulator);
 1735              		.loc 1 978 5 is_stmt 1 view .LVU673
 1736              		.loc 1 978 15 is_stmt 0 view .LVU674
 1737 0012 2046     		mov	r0, r4
 1738 0014 FFF7FEFF 		bl	PID_GetKI
 1739              	.LVL189:
 1740              		.loc 1 978 13 view .LVU675
 1741 0018 2880     		strh	r0, [r5]	@ movhi
 979:MCSDK_v6.3.2-Full/MotorControl/MCSDK/MCLib/Any/Src/sto_pll_speed_pos_fdbk.c **** #ifdef NULL_PTR_CHECK_STO_PLL_SPD_POS_FDB
 980:MCSDK_v6.3.2-Full/MotorControl/MCSDK/MCLib/Any/Src/sto_pll_speed_pos_fdbk.c ****   }
 981:MCSDK_v6.3.2-Full/MotorControl/MCSDK/MCLib/Any/Src/sto_pll_speed_pos_fdbk.c **** #endif
 982:MCSDK_v6.3.2-Full/MotorControl/MCSDK/MCLib/Any/Src/sto_pll_speed_pos_fdbk.c **** }
 1742              		.loc 1 982 1 view .LVU676
 1743 001a 70BD     		pop	{r4, r5, r6, pc}
 1744              		.loc 1 982 1 view .LVU677
 1745              		.cfi_endproc
 1746              	.LFE1462:
 1748              		.section	.text.STO_PLL_SetMecAngle,"ax",%progbits
 1749              		.align	1
 1750              		.weak	STO_PLL_SetMecAngle
 1751              		.syntax unified
 1752              		.thumb
 1753              		.thumb_func
 1754              		.fpu fpv4-sp-d16
ARM GAS  /tmp/ccNNILil.s 			page 56


 1756              	STO_PLL_SetMecAngle:
 1757              	.LVL190:
 1758              	.LFB1463:
 983:MCSDK_v6.3.2-Full/MotorControl/MCSDK/MCLib/Any/Src/sto_pll_speed_pos_fdbk.c **** 
 984:MCSDK_v6.3.2-Full/MotorControl/MCSDK/MCLib/Any/Src/sto_pll_speed_pos_fdbk.c **** /**
 985:MCSDK_v6.3.2-Full/MotorControl/MCSDK/MCLib/Any/Src/sto_pll_speed_pos_fdbk.c ****   * @brief  Empty function. Could be declared to set instantaneous information on rotor mechanical 
 986:MCSDK_v6.3.2-Full/MotorControl/MCSDK/MCLib/Any/Src/sto_pll_speed_pos_fdbk.c ****   * 
 987:MCSDK_v6.3.2-Full/MotorControl/MCSDK/MCLib/Any/Src/sto_pll_speed_pos_fdbk.c ****   * Note: Mechanical angle management is not implemented in this
 988:MCSDK_v6.3.2-Full/MotorControl/MCSDK/MCLib/Any/Src/sto_pll_speed_pos_fdbk.c ****   * version of State observer sensor class.
 989:MCSDK_v6.3.2-Full/MotorControl/MCSDK/MCLib/Any/Src/sto_pll_speed_pos_fdbk.c ****   * 
 990:MCSDK_v6.3.2-Full/MotorControl/MCSDK/MCLib/Any/Src/sto_pll_speed_pos_fdbk.c ****   * @param  pHandle: Handler of the current instance of the STO component.
 991:MCSDK_v6.3.2-Full/MotorControl/MCSDK/MCLib/Any/Src/sto_pll_speed_pos_fdbk.c ****   * @param  hMecAngle: Instantaneous measure of rotor mechanical angle.
 992:MCSDK_v6.3.2-Full/MotorControl/MCSDK/MCLib/Any/Src/sto_pll_speed_pos_fdbk.c ****   */
 993:MCSDK_v6.3.2-Full/MotorControl/MCSDK/MCLib/Any/Src/sto_pll_speed_pos_fdbk.c **** //cstat !MISRAC2012-Rule-8.13 !RED-func-no-effect
 994:MCSDK_v6.3.2-Full/MotorControl/MCSDK/MCLib/Any/Src/sto_pll_speed_pos_fdbk.c **** __weak void STO_PLL_SetMecAngle(STO_PLL_Handle_t *pHandle, int16_t hMecAngle)
 995:MCSDK_v6.3.2-Full/MotorControl/MCSDK/MCLib/Any/Src/sto_pll_speed_pos_fdbk.c **** {
 1759              		.loc 1 995 1 is_stmt 1 view -0
 1760              		.cfi_startproc
 1761              		@ args = 0, pretend = 0, frame = 0
 1762              		@ frame_needed = 0, uses_anonymous_args = 0
 1763              		@ link register save eliminated.
 996:MCSDK_v6.3.2-Full/MotorControl/MCSDK/MCLib/Any/Src/sto_pll_speed_pos_fdbk.c **** #ifdef NULL_PTR_CHECK_STO_PLL_SPD_POS_FDB
 997:MCSDK_v6.3.2-Full/MotorControl/MCSDK/MCLib/Any/Src/sto_pll_speed_pos_fdbk.c ****   if ((MC_NULL == (void *)pHandle) || ((int16_t)0 == hMecAngle))
 998:MCSDK_v6.3.2-Full/MotorControl/MCSDK/MCLib/Any/Src/sto_pll_speed_pos_fdbk.c ****   {
 999:MCSDK_v6.3.2-Full/MotorControl/MCSDK/MCLib/Any/Src/sto_pll_speed_pos_fdbk.c ****     /* Nothing to do */
1000:MCSDK_v6.3.2-Full/MotorControl/MCSDK/MCLib/Any/Src/sto_pll_speed_pos_fdbk.c ****   }
1001:MCSDK_v6.3.2-Full/MotorControl/MCSDK/MCLib/Any/Src/sto_pll_speed_pos_fdbk.c ****   else
1002:MCSDK_v6.3.2-Full/MotorControl/MCSDK/MCLib/Any/Src/sto_pll_speed_pos_fdbk.c ****   {
1003:MCSDK_v6.3.2-Full/MotorControl/MCSDK/MCLib/Any/Src/sto_pll_speed_pos_fdbk.c ****     /* nothing to do */
1004:MCSDK_v6.3.2-Full/MotorControl/MCSDK/MCLib/Any/Src/sto_pll_speed_pos_fdbk.c ****   }
1005:MCSDK_v6.3.2-Full/MotorControl/MCSDK/MCLib/Any/Src/sto_pll_speed_pos_fdbk.c **** #endif
1006:MCSDK_v6.3.2-Full/MotorControl/MCSDK/MCLib/Any/Src/sto_pll_speed_pos_fdbk.c **** }
 1764              		.loc 1 1006 1 view .LVU679
 1765 0000 7047     		bx	lr
 1766              		.cfi_endproc
 1767              	.LFE1463:
 1769              		.section	.text.STO_OTF_ResetPLL,"ax",%progbits
 1770              		.align	1
 1771              		.weak	STO_OTF_ResetPLL
 1772              		.syntax unified
 1773              		.thumb
 1774              		.thumb_func
 1775              		.fpu fpv4-sp-d16
 1777              	STO_OTF_ResetPLL:
 1778              	.LVL191:
 1779              	.LFB1464:
1007:MCSDK_v6.3.2-Full/MotorControl/MCSDK/MCLib/Any/Src/sto_pll_speed_pos_fdbk.c **** 
1008:MCSDK_v6.3.2-Full/MotorControl/MCSDK/MCLib/Any/Src/sto_pll_speed_pos_fdbk.c **** /**
1009:MCSDK_v6.3.2-Full/MotorControl/MCSDK/MCLib/Any/Src/sto_pll_speed_pos_fdbk.c ****   * @brief  Resets the PLL integral term during on-the-fly startup.
1010:MCSDK_v6.3.2-Full/MotorControl/MCSDK/MCLib/Any/Src/sto_pll_speed_pos_fdbk.c ****   * 
1011:MCSDK_v6.3.2-Full/MotorControl/MCSDK/MCLib/Any/Src/sto_pll_speed_pos_fdbk.c ****   * @param  pHandle: Handler of the current instance of the STO component.
1012:MCSDK_v6.3.2-Full/MotorControl/MCSDK/MCLib/Any/Src/sto_pll_speed_pos_fdbk.c ****   */
1013:MCSDK_v6.3.2-Full/MotorControl/MCSDK/MCLib/Any/Src/sto_pll_speed_pos_fdbk.c **** __weak void STO_OTF_ResetPLL(STO_Handle_t * pHandle)
1014:MCSDK_v6.3.2-Full/MotorControl/MCSDK/MCLib/Any/Src/sto_pll_speed_pos_fdbk.c **** {
 1780              		.loc 1 1014 1 view -0
 1781              		.cfi_startproc
 1782              		@ args = 0, pretend = 0, frame = 0
ARM GAS  /tmp/ccNNILil.s 			page 57


 1783              		@ frame_needed = 0, uses_anonymous_args = 0
 1784              		.loc 1 1014 1 is_stmt 0 view .LVU681
 1785 0000 08B5     		push	{r3, lr}
 1786              	.LCFI16:
 1787              		.cfi_def_cfa_offset 8
 1788              		.cfi_offset 3, -8
 1789              		.cfi_offset 14, -4
1015:MCSDK_v6.3.2-Full/MotorControl/MCSDK/MCLib/Any/Src/sto_pll_speed_pos_fdbk.c **** #ifdef NULL_PTR_CHECK_STO_PLL_SPD_POS_FDB
1016:MCSDK_v6.3.2-Full/MotorControl/MCSDK/MCLib/Any/Src/sto_pll_speed_pos_fdbk.c ****   if (MC_NULL == pHandle)
1017:MCSDK_v6.3.2-Full/MotorControl/MCSDK/MCLib/Any/Src/sto_pll_speed_pos_fdbk.c ****   {
1018:MCSDK_v6.3.2-Full/MotorControl/MCSDK/MCLib/Any/Src/sto_pll_speed_pos_fdbk.c ****     /* Nothing to do */
1019:MCSDK_v6.3.2-Full/MotorControl/MCSDK/MCLib/Any/Src/sto_pll_speed_pos_fdbk.c ****   }
1020:MCSDK_v6.3.2-Full/MotorControl/MCSDK/MCLib/Any/Src/sto_pll_speed_pos_fdbk.c ****   else
1021:MCSDK_v6.3.2-Full/MotorControl/MCSDK/MCLib/Any/Src/sto_pll_speed_pos_fdbk.c ****   {
1022:MCSDK_v6.3.2-Full/MotorControl/MCSDK/MCLib/Any/Src/sto_pll_speed_pos_fdbk.c **** #endif
1023:MCSDK_v6.3.2-Full/MotorControl/MCSDK/MCLib/Any/Src/sto_pll_speed_pos_fdbk.c ****     STO_PLL_Handle_t *pHdl = (STO_PLL_Handle_t *)pHandle->_Super; //cstat !MISRAC2012-Rule-11.3
 1790              		.loc 1 1023 5 is_stmt 1 view .LVU682
 1791              	.LVL192:
1024:MCSDK_v6.3.2-Full/MotorControl/MCSDK/MCLib/Any/Src/sto_pll_speed_pos_fdbk.c ****     PID_SetIntegralTerm(&pHdl->PIRegulator, (int32_t)0);
 1792              		.loc 1 1024 5 view .LVU683
 1793 0002 0068     		ldr	r0, [r0]
 1794              	.LVL193:
 1795              		.loc 1 1024 5 is_stmt 0 view .LVU684
 1796 0004 0021     		movs	r1, #0
 1797 0006 3430     		adds	r0, r0, #52
 1798              	.LVL194:
 1799              		.loc 1 1024 5 view .LVU685
 1800 0008 FFF7FEFF 		bl	PID_SetIntegralTerm
 1801              	.LVL195:
1025:MCSDK_v6.3.2-Full/MotorControl/MCSDK/MCLib/Any/Src/sto_pll_speed_pos_fdbk.c **** #ifdef NULL_PTR_CHECK_STO_PLL_SPD_POS_FDB
1026:MCSDK_v6.3.2-Full/MotorControl/MCSDK/MCLib/Any/Src/sto_pll_speed_pos_fdbk.c ****   }
1027:MCSDK_v6.3.2-Full/MotorControl/MCSDK/MCLib/Any/Src/sto_pll_speed_pos_fdbk.c **** #endif
1028:MCSDK_v6.3.2-Full/MotorControl/MCSDK/MCLib/Any/Src/sto_pll_speed_pos_fdbk.c **** }
 1802              		.loc 1 1028 1 view .LVU686
 1803 000c 08BD     		pop	{r3, pc}
 1804              		.cfi_endproc
 1805              	.LFE1464:
 1807              		.section	.text.STO_PLL_BemfConsistencyCheckSwitch,"ax",%progbits
 1808              		.align	1
 1809              		.weak	STO_PLL_BemfConsistencyCheckSwitch
 1810              		.syntax unified
 1811              		.thumb
 1812              		.thumb_func
 1813              		.fpu fpv4-sp-d16
 1815              	STO_PLL_BemfConsistencyCheckSwitch:
 1816              	.LVL196:
 1817              	.LFB1465:
1029:MCSDK_v6.3.2-Full/MotorControl/MCSDK/MCLib/Any/Src/sto_pll_speed_pos_fdbk.c **** 
1030:MCSDK_v6.3.2-Full/MotorControl/MCSDK/MCLib/Any/Src/sto_pll_speed_pos_fdbk.c **** /**
1031:MCSDK_v6.3.2-Full/MotorControl/MCSDK/MCLib/Any/Src/sto_pll_speed_pos_fdbk.c ****   * @brief  Enables/Disables additional reliability check based on observed Bemf.
1032:MCSDK_v6.3.2-Full/MotorControl/MCSDK/MCLib/Any/Src/sto_pll_speed_pos_fdbk.c ****   * 
1033:MCSDK_v6.3.2-Full/MotorControl/MCSDK/MCLib/Any/Src/sto_pll_speed_pos_fdbk.c ****   * @param  pHandle: Handler of the current instance of the STO component.
1034:MCSDK_v6.3.2-Full/MotorControl/MCSDK/MCLib/Any/Src/sto_pll_speed_pos_fdbk.c ****   * @param  bSel Enable/Disable check.
1035:MCSDK_v6.3.2-Full/MotorControl/MCSDK/MCLib/Any/Src/sto_pll_speed_pos_fdbk.c ****   */
1036:MCSDK_v6.3.2-Full/MotorControl/MCSDK/MCLib/Any/Src/sto_pll_speed_pos_fdbk.c **** __weak void STO_PLL_BemfConsistencyCheckSwitch(STO_PLL_Handle_t *pHandle, bool bSel)
1037:MCSDK_v6.3.2-Full/MotorControl/MCSDK/MCLib/Any/Src/sto_pll_speed_pos_fdbk.c **** {
 1818              		.loc 1 1037 1 is_stmt 1 view -0
ARM GAS  /tmp/ccNNILil.s 			page 58


 1819              		.cfi_startproc
 1820              		@ args = 0, pretend = 0, frame = 0
 1821              		@ frame_needed = 0, uses_anonymous_args = 0
 1822              		@ link register save eliminated.
1038:MCSDK_v6.3.2-Full/MotorControl/MCSDK/MCLib/Any/Src/sto_pll_speed_pos_fdbk.c **** #ifdef NULL_PTR_CHECK_STO_PLL_SPD_POS_FDB
1039:MCSDK_v6.3.2-Full/MotorControl/MCSDK/MCLib/Any/Src/sto_pll_speed_pos_fdbk.c ****   if (MC_NULL == pHandle)
1040:MCSDK_v6.3.2-Full/MotorControl/MCSDK/MCLib/Any/Src/sto_pll_speed_pos_fdbk.c ****   {
1041:MCSDK_v6.3.2-Full/MotorControl/MCSDK/MCLib/Any/Src/sto_pll_speed_pos_fdbk.c ****     /* Nothing to do */
1042:MCSDK_v6.3.2-Full/MotorControl/MCSDK/MCLib/Any/Src/sto_pll_speed_pos_fdbk.c ****   }
1043:MCSDK_v6.3.2-Full/MotorControl/MCSDK/MCLib/Any/Src/sto_pll_speed_pos_fdbk.c ****   else
1044:MCSDK_v6.3.2-Full/MotorControl/MCSDK/MCLib/Any/Src/sto_pll_speed_pos_fdbk.c ****   {
1045:MCSDK_v6.3.2-Full/MotorControl/MCSDK/MCLib/Any/Src/sto_pll_speed_pos_fdbk.c **** #endif
1046:MCSDK_v6.3.2-Full/MotorControl/MCSDK/MCLib/Any/Src/sto_pll_speed_pos_fdbk.c ****     pHandle->EnableDualCheck = bSel;
 1823              		.loc 1 1046 5 view .LVU688
 1824              		.loc 1 1046 30 is_stmt 0 view .LVU689
 1825 0000 80F80411 		strb	r1, [r0, #260]
1047:MCSDK_v6.3.2-Full/MotorControl/MCSDK/MCLib/Any/Src/sto_pll_speed_pos_fdbk.c **** #ifdef NULL_PTR_CHECK_STO_PLL_SPD_POS_FDB
1048:MCSDK_v6.3.2-Full/MotorControl/MCSDK/MCLib/Any/Src/sto_pll_speed_pos_fdbk.c ****   }
1049:MCSDK_v6.3.2-Full/MotorControl/MCSDK/MCLib/Any/Src/sto_pll_speed_pos_fdbk.c **** #endif
1050:MCSDK_v6.3.2-Full/MotorControl/MCSDK/MCLib/Any/Src/sto_pll_speed_pos_fdbk.c **** }
 1826              		.loc 1 1050 1 view .LVU690
 1827 0004 7047     		bx	lr
 1828              		.cfi_endproc
 1829              	.LFE1465:
 1831              		.section	.text.STO_PLL_IsBemfConsistent,"ax",%progbits
 1832              		.align	1
 1833              		.weak	STO_PLL_IsBemfConsistent
 1834              		.syntax unified
 1835              		.thumb
 1836              		.thumb_func
 1837              		.fpu fpv4-sp-d16
 1839              	STO_PLL_IsBemfConsistent:
 1840              	.LVL197:
 1841              	.LFB1466:
1051:MCSDK_v6.3.2-Full/MotorControl/MCSDK/MCLib/Any/Src/sto_pll_speed_pos_fdbk.c **** 
1052:MCSDK_v6.3.2-Full/MotorControl/MCSDK/MCLib/Any/Src/sto_pll_speed_pos_fdbk.c **** /**
1053:MCSDK_v6.3.2-Full/MotorControl/MCSDK/MCLib/Any/Src/sto_pll_speed_pos_fdbk.c ****   * @brief  Checks if the Bemf is consistent.
1054:MCSDK_v6.3.2-Full/MotorControl/MCSDK/MCLib/Any/Src/sto_pll_speed_pos_fdbk.c ****   * 
1055:MCSDK_v6.3.2-Full/MotorControl/MCSDK/MCLib/Any/Src/sto_pll_speed_pos_fdbk.c ****   * @param  pHandle: Handler of the current instance of the STO component.
1056:MCSDK_v6.3.2-Full/MotorControl/MCSDK/MCLib/Any/Src/sto_pll_speed_pos_fdbk.c ****   * @retval bool True when observed Bemfs are consistent with expectation, false otherwise.
1057:MCSDK_v6.3.2-Full/MotorControl/MCSDK/MCLib/Any/Src/sto_pll_speed_pos_fdbk.c ****   */
1058:MCSDK_v6.3.2-Full/MotorControl/MCSDK/MCLib/Any/Src/sto_pll_speed_pos_fdbk.c **** __weak bool STO_PLL_IsBemfConsistent(STO_PLL_Handle_t *pHandle)
1059:MCSDK_v6.3.2-Full/MotorControl/MCSDK/MCLib/Any/Src/sto_pll_speed_pos_fdbk.c **** {
 1842              		.loc 1 1059 1 is_stmt 1 view -0
 1843              		.cfi_startproc
 1844              		@ args = 0, pretend = 0, frame = 0
 1845              		@ frame_needed = 0, uses_anonymous_args = 0
 1846              		@ link register save eliminated.
1060:MCSDK_v6.3.2-Full/MotorControl/MCSDK/MCLib/Any/Src/sto_pll_speed_pos_fdbk.c **** #ifdef NULL_PTR_CHECK_STO_PLL_SPD_POS_FDB
1061:MCSDK_v6.3.2-Full/MotorControl/MCSDK/MCLib/Any/Src/sto_pll_speed_pos_fdbk.c ****   return ((MC_NULL == pHandle) ? false : pHandle->IsBemfConsistent);
1062:MCSDK_v6.3.2-Full/MotorControl/MCSDK/MCLib/Any/Src/sto_pll_speed_pos_fdbk.c **** #else
1063:MCSDK_v6.3.2-Full/MotorControl/MCSDK/MCLib/Any/Src/sto_pll_speed_pos_fdbk.c ****   return (pHandle->IsBemfConsistent);
 1847              		.loc 1 1063 3 view .LVU692
1064:MCSDK_v6.3.2-Full/MotorControl/MCSDK/MCLib/Any/Src/sto_pll_speed_pos_fdbk.c **** #endif
1065:MCSDK_v6.3.2-Full/MotorControl/MCSDK/MCLib/Any/Src/sto_pll_speed_pos_fdbk.c **** }
 1848              		.loc 1 1065 1 is_stmt 0 view .LVU693
 1849 0000 90F8F900 		ldrb	r0, [r0, #249]	@ zero_extendqisi2
ARM GAS  /tmp/ccNNILil.s 			page 59


 1850              	.LVL198:
 1851              		.loc 1 1065 1 view .LVU694
 1852 0004 7047     		bx	lr
 1853              		.cfi_endproc
 1854              	.LFE1466:
 1856              		.section	.text.STO_PLL_IsVarianceTight,"ax",%progbits
 1857              		.align	1
 1858              		.weak	STO_PLL_IsVarianceTight
 1859              		.syntax unified
 1860              		.thumb
 1861              		.thumb_func
 1862              		.fpu fpv4-sp-d16
 1864              	STO_PLL_IsVarianceTight:
 1865              	.LVL199:
 1866              	.LFB1467:
1066:MCSDK_v6.3.2-Full/MotorControl/MCSDK/MCLib/Any/Src/sto_pll_speed_pos_fdbk.c **** 
1067:MCSDK_v6.3.2-Full/MotorControl/MCSDK/MCLib/Any/Src/sto_pll_speed_pos_fdbk.c **** /**
1068:MCSDK_v6.3.2-Full/MotorControl/MCSDK/MCLib/Any/Src/sto_pll_speed_pos_fdbk.c ****   * @brief  Checks the value of the variance.
1069:MCSDK_v6.3.2-Full/MotorControl/MCSDK/MCLib/Any/Src/sto_pll_speed_pos_fdbk.c ****   * 
1070:MCSDK_v6.3.2-Full/MotorControl/MCSDK/MCLib/Any/Src/sto_pll_speed_pos_fdbk.c ****   * @param  pHandle: Handler of the current instance of the STO component.
1071:MCSDK_v6.3.2-Full/MotorControl/MCSDK/MCLib/Any/Src/sto_pll_speed_pos_fdbk.c ****   * @retval bool True if the speed measurement variance is lower than threshold VariancePercentage,
1072:MCSDK_v6.3.2-Full/MotorControl/MCSDK/MCLib/Any/Src/sto_pll_speed_pos_fdbk.c ****   */
1073:MCSDK_v6.3.2-Full/MotorControl/MCSDK/MCLib/Any/Src/sto_pll_speed_pos_fdbk.c **** __weak bool STO_PLL_IsVarianceTight(const STO_Handle_t *pHandle)
1074:MCSDK_v6.3.2-Full/MotorControl/MCSDK/MCLib/Any/Src/sto_pll_speed_pos_fdbk.c **** {
 1867              		.loc 1 1074 1 is_stmt 1 view -0
 1868              		.cfi_startproc
 1869              		@ args = 0, pretend = 0, frame = 0
 1870              		@ frame_needed = 0, uses_anonymous_args = 0
 1871              		@ link register save eliminated.
1075:MCSDK_v6.3.2-Full/MotorControl/MCSDK/MCLib/Any/Src/sto_pll_speed_pos_fdbk.c ****   bool tempStatus;
 1872              		.loc 1 1075 3 view .LVU696
