ARM GAS  /tmp/ccaxKBZ0.s 			page 1


   1              		.cpu cortex-m4
   2              		.eabi_attribute 27, 1
   3              		.eabi_attribute 28, 1
   4              		.eabi_attribute 20, 1
   5              		.eabi_attribute 21, 1
   6              		.eabi_attribute 23, 3
   7              		.eabi_attribute 24, 1
   8              		.eabi_attribute 25, 1
   9              		.eabi_attribute 26, 1
  10              		.eabi_attribute 30, 2
  11              		.eabi_attribute 34, 1
  12              		.eabi_attribute 18, 4
  13              		.file	"sto_pll_speed_pos_fdbk.c"
  14              		.text
  15              	.Ltext0:
  16              		.cfi_sections	.debug_frame
  17              		.section	.text.STO_PLL_Return,"ax",%progbits
  18              		.align	1
  19              		.p2align 2,,3
  20              		.weak	STO_PLL_Return
  21              		.arch armv7e-m
  22              		.syntax unified
  23              		.thumb
  24              		.thumb_func
  25              		.fpu fpv4-sp-d16
  27              	STO_PLL_Return:
  28              	.LVL0:
  29              	.LFB1449:
  30              		.file 1 "MCSDK_v6.3.2-Full/MotorControl/MCSDK/MCLib/Any/Src/sto_pll_speed_pos_fdbk.c"
   1:MCSDK_v6.3.2-Full/MotorControl/MCSDK/MCLib/Any/Src/sto_pll_speed_pos_fdbk.c **** /**
   2:MCSDK_v6.3.2-Full/MotorControl/MCSDK/MCLib/Any/Src/sto_pll_speed_pos_fdbk.c ****   ******************************************************************************
   3:MCSDK_v6.3.2-Full/MotorControl/MCSDK/MCLib/Any/Src/sto_pll_speed_pos_fdbk.c ****   * @file    sto_pll_speed_pos_fdbk.c
   4:MCSDK_v6.3.2-Full/MotorControl/MCSDK/MCLib/Any/Src/sto_pll_speed_pos_fdbk.c ****   * @author  Motor Control SDK Team, ST Microelectronics
   5:MCSDK_v6.3.2-Full/MotorControl/MCSDK/MCLib/Any/Src/sto_pll_speed_pos_fdbk.c ****   * @brief   This file provides firmware functions that implement the features
   6:MCSDK_v6.3.2-Full/MotorControl/MCSDK/MCLib/Any/Src/sto_pll_speed_pos_fdbk.c ****   *          of the State Observer + PLL Speed & Position Feedback component of the
   7:MCSDK_v6.3.2-Full/MotorControl/MCSDK/MCLib/Any/Src/sto_pll_speed_pos_fdbk.c ****   *          Motor Control SDK.
   8:MCSDK_v6.3.2-Full/MotorControl/MCSDK/MCLib/Any/Src/sto_pll_speed_pos_fdbk.c ****   *
   9:MCSDK_v6.3.2-Full/MotorControl/MCSDK/MCLib/Any/Src/sto_pll_speed_pos_fdbk.c ****   ******************************************************************************
  10:MCSDK_v6.3.2-Full/MotorControl/MCSDK/MCLib/Any/Src/sto_pll_speed_pos_fdbk.c ****   * @attention
  11:MCSDK_v6.3.2-Full/MotorControl/MCSDK/MCLib/Any/Src/sto_pll_speed_pos_fdbk.c ****   *
  12:MCSDK_v6.3.2-Full/MotorControl/MCSDK/MCLib/Any/Src/sto_pll_speed_pos_fdbk.c ****   * <h2><center>&copy; Copyright (c) 2024 STMicroelectronics.
  13:MCSDK_v6.3.2-Full/MotorControl/MCSDK/MCLib/Any/Src/sto_pll_speed_pos_fdbk.c ****   * All rights reserved.</center></h2>
  14:MCSDK_v6.3.2-Full/MotorControl/MCSDK/MCLib/Any/Src/sto_pll_speed_pos_fdbk.c ****   *
  15:MCSDK_v6.3.2-Full/MotorControl/MCSDK/MCLib/Any/Src/sto_pll_speed_pos_fdbk.c ****   * This software component is licensed by ST under Ultimate Liberty license
  16:MCSDK_v6.3.2-Full/MotorControl/MCSDK/MCLib/Any/Src/sto_pll_speed_pos_fdbk.c ****   * SLA0044, the "License"; You may not use this file except in compliance with
  17:MCSDK_v6.3.2-Full/MotorControl/MCSDK/MCLib/Any/Src/sto_pll_speed_pos_fdbk.c ****   * the License. You may obtain a copy of the License at:
  18:MCSDK_v6.3.2-Full/MotorControl/MCSDK/MCLib/Any/Src/sto_pll_speed_pos_fdbk.c ****   *                             www.st.com/SLA0044
  19:MCSDK_v6.3.2-Full/MotorControl/MCSDK/MCLib/Any/Src/sto_pll_speed_pos_fdbk.c ****   *
  20:MCSDK_v6.3.2-Full/MotorControl/MCSDK/MCLib/Any/Src/sto_pll_speed_pos_fdbk.c ****   ******************************************************************************
  21:MCSDK_v6.3.2-Full/MotorControl/MCSDK/MCLib/Any/Src/sto_pll_speed_pos_fdbk.c ****   * @ingroup SpeednPosFdbk_STO_PLL
  22:MCSDK_v6.3.2-Full/MotorControl/MCSDK/MCLib/Any/Src/sto_pll_speed_pos_fdbk.c ****   */
  23:MCSDK_v6.3.2-Full/MotorControl/MCSDK/MCLib/Any/Src/sto_pll_speed_pos_fdbk.c **** 
  24:MCSDK_v6.3.2-Full/MotorControl/MCSDK/MCLib/Any/Src/sto_pll_speed_pos_fdbk.c **** /* Includes ------------------------------------------------------------------*/
  25:MCSDK_v6.3.2-Full/MotorControl/MCSDK/MCLib/Any/Src/sto_pll_speed_pos_fdbk.c **** #include "sto_pll_speed_pos_fdbk.h"
  26:MCSDK_v6.3.2-Full/MotorControl/MCSDK/MCLib/Any/Src/sto_pll_speed_pos_fdbk.c **** #include "mc_math.h"
  27:MCSDK_v6.3.2-Full/MotorControl/MCSDK/MCLib/Any/Src/sto_pll_speed_pos_fdbk.c **** 
  28:MCSDK_v6.3.2-Full/MotorControl/MCSDK/MCLib/Any/Src/sto_pll_speed_pos_fdbk.c **** 
ARM GAS  /tmp/ccaxKBZ0.s 			page 2


  29:MCSDK_v6.3.2-Full/MotorControl/MCSDK/MCLib/Any/Src/sto_pll_speed_pos_fdbk.c **** 
  30:MCSDK_v6.3.2-Full/MotorControl/MCSDK/MCLib/Any/Src/sto_pll_speed_pos_fdbk.c **** /** @addtogroup MCSDK
  31:MCSDK_v6.3.2-Full/MotorControl/MCSDK/MCLib/Any/Src/sto_pll_speed_pos_fdbk.c ****   * @{
  32:MCSDK_v6.3.2-Full/MotorControl/MCSDK/MCLib/Any/Src/sto_pll_speed_pos_fdbk.c ****   */
  33:MCSDK_v6.3.2-Full/MotorControl/MCSDK/MCLib/Any/Src/sto_pll_speed_pos_fdbk.c **** 
  34:MCSDK_v6.3.2-Full/MotorControl/MCSDK/MCLib/Any/Src/sto_pll_speed_pos_fdbk.c **** /** @addtogroup SpeednPosFdbk
  35:MCSDK_v6.3.2-Full/MotorControl/MCSDK/MCLib/Any/Src/sto_pll_speed_pos_fdbk.c ****   * @{
  36:MCSDK_v6.3.2-Full/MotorControl/MCSDK/MCLib/Any/Src/sto_pll_speed_pos_fdbk.c ****   */
  37:MCSDK_v6.3.2-Full/MotorControl/MCSDK/MCLib/Any/Src/sto_pll_speed_pos_fdbk.c **** 
  38:MCSDK_v6.3.2-Full/MotorControl/MCSDK/MCLib/Any/Src/sto_pll_speed_pos_fdbk.c **** /**
  39:MCSDK_v6.3.2-Full/MotorControl/MCSDK/MCLib/Any/Src/sto_pll_speed_pos_fdbk.c ****   * @defgroup SpeednPosFdbk_STO_PLL State Observer PLL Speed & Position Feedback.
  40:MCSDK_v6.3.2-Full/MotorControl/MCSDK/MCLib/Any/Src/sto_pll_speed_pos_fdbk.c ****   * @brief State Observer with PLL Speed & Position Feedback component of MCSDK.
  41:MCSDK_v6.3.2-Full/MotorControl/MCSDK/MCLib/Any/Src/sto_pll_speed_pos_fdbk.c ****   *
  42:MCSDK_v6.3.2-Full/MotorControl/MCSDK/MCLib/Any/Src/sto_pll_speed_pos_fdbk.c ****   * This component uses a State Observer coupled with a software PLL to provide an estimation of
  43:MCSDK_v6.3.2-Full/MotorControl/MCSDK/MCLib/Any/Src/sto_pll_speed_pos_fdbk.c ****   * the speed and the position of the rotor of the motor.
  44:MCSDK_v6.3.2-Full/MotorControl/MCSDK/MCLib/Any/Src/sto_pll_speed_pos_fdbk.c ****   *
  45:MCSDK_v6.3.2-Full/MotorControl/MCSDK/MCLib/Any/Src/sto_pll_speed_pos_fdbk.c ****   * See the [Speed & position feedback sensorless chapter of the User Manual](speed_pos_sensorless_
  46:MCSDK_v6.3.2-Full/MotorControl/MCSDK/MCLib/Any/Src/sto_pll_speed_pos_fdbk.c ****   * @{
  47:MCSDK_v6.3.2-Full/MotorControl/MCSDK/MCLib/Any/Src/sto_pll_speed_pos_fdbk.c ****   */
  48:MCSDK_v6.3.2-Full/MotorControl/MCSDK/MCLib/Any/Src/sto_pll_speed_pos_fdbk.c **** 
  49:MCSDK_v6.3.2-Full/MotorControl/MCSDK/MCLib/Any/Src/sto_pll_speed_pos_fdbk.c **** /* Private defines -----------------------------------------------------------*/
  50:MCSDK_v6.3.2-Full/MotorControl/MCSDK/MCLib/Any/Src/sto_pll_speed_pos_fdbk.c **** #define C6_COMP_CONST1  ((int32_t)1043038)
  51:MCSDK_v6.3.2-Full/MotorControl/MCSDK/MCLib/Any/Src/sto_pll_speed_pos_fdbk.c **** #define C6_COMP_CONST2  ((int32_t)10430)
  52:MCSDK_v6.3.2-Full/MotorControl/MCSDK/MCLib/Any/Src/sto_pll_speed_pos_fdbk.c **** 
  53:MCSDK_v6.3.2-Full/MotorControl/MCSDK/MCLib/Any/Src/sto_pll_speed_pos_fdbk.c **** /* Private function prototypes -----------------------------------------------*/
  54:MCSDK_v6.3.2-Full/MotorControl/MCSDK/MCLib/Any/Src/sto_pll_speed_pos_fdbk.c **** static void STO_Store_Rotor_Speed(STO_PLL_Handle_t *pHandle, int16_t hRotor_Speed);
  55:MCSDK_v6.3.2-Full/MotorControl/MCSDK/MCLib/Any/Src/sto_pll_speed_pos_fdbk.c **** static int16_t STO_ExecutePLL(STO_PLL_Handle_t *pHandle, int16_t hBemf_alfa_est, int16_t hBemf_beta
  56:MCSDK_v6.3.2-Full/MotorControl/MCSDK/MCLib/Any/Src/sto_pll_speed_pos_fdbk.c **** static inline void STO_InitSpeedBuffer(STO_PLL_Handle_t *pHandle);
  57:MCSDK_v6.3.2-Full/MotorControl/MCSDK/MCLib/Any/Src/sto_pll_speed_pos_fdbk.c **** 
  58:MCSDK_v6.3.2-Full/MotorControl/MCSDK/MCLib/Any/Src/sto_pll_speed_pos_fdbk.c **** 
  59:MCSDK_v6.3.2-Full/MotorControl/MCSDK/MCLib/Any/Src/sto_pll_speed_pos_fdbk.c **** /**
  60:MCSDK_v6.3.2-Full/MotorControl/MCSDK/MCLib/Any/Src/sto_pll_speed_pos_fdbk.c ****   * @brief  Initializes the @p pHandle of STate Observer (STO) PLL component.
  61:MCSDK_v6.3.2-Full/MotorControl/MCSDK/MCLib/Any/Src/sto_pll_speed_pos_fdbk.c ****   *
  62:MCSDK_v6.3.2-Full/MotorControl/MCSDK/MCLib/Any/Src/sto_pll_speed_pos_fdbk.c ****   */
  63:MCSDK_v6.3.2-Full/MotorControl/MCSDK/MCLib/Any/Src/sto_pll_speed_pos_fdbk.c **** __weak void STO_PLL_Init(STO_PLL_Handle_t *pHandle)
  64:MCSDK_v6.3.2-Full/MotorControl/MCSDK/MCLib/Any/Src/sto_pll_speed_pos_fdbk.c **** {
  65:MCSDK_v6.3.2-Full/MotorControl/MCSDK/MCLib/Any/Src/sto_pll_speed_pos_fdbk.c **** #ifdef NULL_PTR_CHECK_STO_PLL_SPD_POS_FDB
  66:MCSDK_v6.3.2-Full/MotorControl/MCSDK/MCLib/Any/Src/sto_pll_speed_pos_fdbk.c ****   if (MC_NULL == pHandle)
  67:MCSDK_v6.3.2-Full/MotorControl/MCSDK/MCLib/Any/Src/sto_pll_speed_pos_fdbk.c ****   {
  68:MCSDK_v6.3.2-Full/MotorControl/MCSDK/MCLib/Any/Src/sto_pll_speed_pos_fdbk.c ****     /* Nothing to do */
  69:MCSDK_v6.3.2-Full/MotorControl/MCSDK/MCLib/Any/Src/sto_pll_speed_pos_fdbk.c ****   }
  70:MCSDK_v6.3.2-Full/MotorControl/MCSDK/MCLib/Any/Src/sto_pll_speed_pos_fdbk.c ****   else
  71:MCSDK_v6.3.2-Full/MotorControl/MCSDK/MCLib/Any/Src/sto_pll_speed_pos_fdbk.c ****   {
  72:MCSDK_v6.3.2-Full/MotorControl/MCSDK/MCLib/Any/Src/sto_pll_speed_pos_fdbk.c **** #endif
  73:MCSDK_v6.3.2-Full/MotorControl/MCSDK/MCLib/Any/Src/sto_pll_speed_pos_fdbk.c ****     int16_t htempk;
  74:MCSDK_v6.3.2-Full/MotorControl/MCSDK/MCLib/Any/Src/sto_pll_speed_pos_fdbk.c ****     int32_t wAux;
  75:MCSDK_v6.3.2-Full/MotorControl/MCSDK/MCLib/Any/Src/sto_pll_speed_pos_fdbk.c **** 
  76:MCSDK_v6.3.2-Full/MotorControl/MCSDK/MCLib/Any/Src/sto_pll_speed_pos_fdbk.c ****     pHandle->ConsistencyCounter = pHandle->StartUpConsistThreshold;
  77:MCSDK_v6.3.2-Full/MotorControl/MCSDK/MCLib/Any/Src/sto_pll_speed_pos_fdbk.c ****     pHandle->EnableDualCheck = true;
  78:MCSDK_v6.3.2-Full/MotorControl/MCSDK/MCLib/Any/Src/sto_pll_speed_pos_fdbk.c **** 
  79:MCSDK_v6.3.2-Full/MotorControl/MCSDK/MCLib/Any/Src/sto_pll_speed_pos_fdbk.c ****     wAux = ((int32_t)1);
  80:MCSDK_v6.3.2-Full/MotorControl/MCSDK/MCLib/Any/Src/sto_pll_speed_pos_fdbk.c ****     pHandle->F3POW2 = 0U;
  81:MCSDK_v6.3.2-Full/MotorControl/MCSDK/MCLib/Any/Src/sto_pll_speed_pos_fdbk.c **** 
  82:MCSDK_v6.3.2-Full/MotorControl/MCSDK/MCLib/Any/Src/sto_pll_speed_pos_fdbk.c ****     htempk = (int16_t)(C6_COMP_CONST1 / pHandle->hF2);
  83:MCSDK_v6.3.2-Full/MotorControl/MCSDK/MCLib/Any/Src/sto_pll_speed_pos_fdbk.c **** 
  84:MCSDK_v6.3.2-Full/MotorControl/MCSDK/MCLib/Any/Src/sto_pll_speed_pos_fdbk.c ****     while (htempk != 0)
  85:MCSDK_v6.3.2-Full/MotorControl/MCSDK/MCLib/Any/Src/sto_pll_speed_pos_fdbk.c ****     {
ARM GAS  /tmp/ccaxKBZ0.s 			page 3


  86:MCSDK_v6.3.2-Full/MotorControl/MCSDK/MCLib/Any/Src/sto_pll_speed_pos_fdbk.c ****       htempk /= ((int16_t)2);
  87:MCSDK_v6.3.2-Full/MotorControl/MCSDK/MCLib/Any/Src/sto_pll_speed_pos_fdbk.c ****       wAux *= ((int32_t)2);
  88:MCSDK_v6.3.2-Full/MotorControl/MCSDK/MCLib/Any/Src/sto_pll_speed_pos_fdbk.c ****       pHandle->F3POW2++;
  89:MCSDK_v6.3.2-Full/MotorControl/MCSDK/MCLib/Any/Src/sto_pll_speed_pos_fdbk.c ****     }
  90:MCSDK_v6.3.2-Full/MotorControl/MCSDK/MCLib/Any/Src/sto_pll_speed_pos_fdbk.c **** 
  91:MCSDK_v6.3.2-Full/MotorControl/MCSDK/MCLib/Any/Src/sto_pll_speed_pos_fdbk.c ****     pHandle->hF3 = (int16_t)wAux;
  92:MCSDK_v6.3.2-Full/MotorControl/MCSDK/MCLib/Any/Src/sto_pll_speed_pos_fdbk.c ****     wAux = ((int32_t)(pHandle->hF2)) * pHandle->hF3;
  93:MCSDK_v6.3.2-Full/MotorControl/MCSDK/MCLib/Any/Src/sto_pll_speed_pos_fdbk.c ****     pHandle->hC6 = (int16_t)(wAux / C6_COMP_CONST2);
  94:MCSDK_v6.3.2-Full/MotorControl/MCSDK/MCLib/Any/Src/sto_pll_speed_pos_fdbk.c **** 
  95:MCSDK_v6.3.2-Full/MotorControl/MCSDK/MCLib/Any/Src/sto_pll_speed_pos_fdbk.c ****     STO_PLL_Clear(pHandle);
  96:MCSDK_v6.3.2-Full/MotorControl/MCSDK/MCLib/Any/Src/sto_pll_speed_pos_fdbk.c **** 
  97:MCSDK_v6.3.2-Full/MotorControl/MCSDK/MCLib/Any/Src/sto_pll_speed_pos_fdbk.c ****     PID_HandleInit(&pHandle->PIRegulator);
  98:MCSDK_v6.3.2-Full/MotorControl/MCSDK/MCLib/Any/Src/sto_pll_speed_pos_fdbk.c **** 
  99:MCSDK_v6.3.2-Full/MotorControl/MCSDK/MCLib/Any/Src/sto_pll_speed_pos_fdbk.c ****     /* Acceleration measurement set to zero */
 100:MCSDK_v6.3.2-Full/MotorControl/MCSDK/MCLib/Any/Src/sto_pll_speed_pos_fdbk.c ****     pHandle->_Super.hMecAccelUnitP = 0;
 101:MCSDK_v6.3.2-Full/MotorControl/MCSDK/MCLib/Any/Src/sto_pll_speed_pos_fdbk.c **** #ifdef NULL_PTR_CHECK_STO_PLL_SPD_POS_FDB
 102:MCSDK_v6.3.2-Full/MotorControl/MCSDK/MCLib/Any/Src/sto_pll_speed_pos_fdbk.c ****   }
 103:MCSDK_v6.3.2-Full/MotorControl/MCSDK/MCLib/Any/Src/sto_pll_speed_pos_fdbk.c **** #endif
 104:MCSDK_v6.3.2-Full/MotorControl/MCSDK/MCLib/Any/Src/sto_pll_speed_pos_fdbk.c ****   return;
 105:MCSDK_v6.3.2-Full/MotorControl/MCSDK/MCLib/Any/Src/sto_pll_speed_pos_fdbk.c **** }
 106:MCSDK_v6.3.2-Full/MotorControl/MCSDK/MCLib/Any/Src/sto_pll_speed_pos_fdbk.c **** 
 107:MCSDK_v6.3.2-Full/MotorControl/MCSDK/MCLib/Any/Src/sto_pll_speed_pos_fdbk.c **** /**
 108:MCSDK_v6.3.2-Full/MotorControl/MCSDK/MCLib/Any/Src/sto_pll_speed_pos_fdbk.c ****   * @brief  Necessary empty return to implement fictitious IRQ_Handler.
 109:MCSDK_v6.3.2-Full/MotorControl/MCSDK/MCLib/Any/Src/sto_pll_speed_pos_fdbk.c ****   * 
 110:MCSDK_v6.3.2-Full/MotorControl/MCSDK/MCLib/Any/Src/sto_pll_speed_pos_fdbk.c ****   * @param  pHandle: Handler of the current instance of the STO component.
 111:MCSDK_v6.3.2-Full/MotorControl/MCSDK/MCLib/Any/Src/sto_pll_speed_pos_fdbk.c ****   * @param  uint8_t: Fictitious interrupt flag.
 112:MCSDK_v6.3.2-Full/MotorControl/MCSDK/MCLib/Any/Src/sto_pll_speed_pos_fdbk.c ****   */
 113:MCSDK_v6.3.2-Full/MotorControl/MCSDK/MCLib/Any/Src/sto_pll_speed_pos_fdbk.c **** //cstat !MISRAC2012-Rule-8.13 !RED-func-no-effect
 114:MCSDK_v6.3.2-Full/MotorControl/MCSDK/MCLib/Any/Src/sto_pll_speed_pos_fdbk.c **** __weak void STO_PLL_Return(STO_PLL_Handle_t *pHandle, uint8_t flag)
 115:MCSDK_v6.3.2-Full/MotorControl/MCSDK/MCLib/Any/Src/sto_pll_speed_pos_fdbk.c **** {
  31              		.loc 1 115 1 view -0
  32              		.cfi_startproc
  33              		@ args = 0, pretend = 0, frame = 0
  34              		@ frame_needed = 0, uses_anonymous_args = 0
  35              		@ link register save eliminated.
 116:MCSDK_v6.3.2-Full/MotorControl/MCSDK/MCLib/Any/Src/sto_pll_speed_pos_fdbk.c **** #ifdef NULL_PTR_CHECK_STO_PLL_SPD_POS_FDB
 117:MCSDK_v6.3.2-Full/MotorControl/MCSDK/MCLib/Any/Src/sto_pll_speed_pos_fdbk.c ****   if ((MC_NULL == (void *)pHandle) || ((uint8_t)0 == flag))
 118:MCSDK_v6.3.2-Full/MotorControl/MCSDK/MCLib/Any/Src/sto_pll_speed_pos_fdbk.c ****   {
 119:MCSDK_v6.3.2-Full/MotorControl/MCSDK/MCLib/Any/Src/sto_pll_speed_pos_fdbk.c ****     /* Nothing to do */
 120:MCSDK_v6.3.2-Full/MotorControl/MCSDK/MCLib/Any/Src/sto_pll_speed_pos_fdbk.c ****   }
 121:MCSDK_v6.3.2-Full/MotorControl/MCSDK/MCLib/Any/Src/sto_pll_speed_pos_fdbk.c ****   else
 122:MCSDK_v6.3.2-Full/MotorControl/MCSDK/MCLib/Any/Src/sto_pll_speed_pos_fdbk.c ****   {
 123:MCSDK_v6.3.2-Full/MotorControl/MCSDK/MCLib/Any/Src/sto_pll_speed_pos_fdbk.c ****     /* Nothing to do */
 124:MCSDK_v6.3.2-Full/MotorControl/MCSDK/MCLib/Any/Src/sto_pll_speed_pos_fdbk.c ****   }
 125:MCSDK_v6.3.2-Full/MotorControl/MCSDK/MCLib/Any/Src/sto_pll_speed_pos_fdbk.c **** #endif
 126:MCSDK_v6.3.2-Full/MotorControl/MCSDK/MCLib/Any/Src/sto_pll_speed_pos_fdbk.c ****   return;
  36              		.loc 1 126 3 view .LVU1
 127:MCSDK_v6.3.2-Full/MotorControl/MCSDK/MCLib/Any/Src/sto_pll_speed_pos_fdbk.c **** }
  37              		.loc 1 127 1 is_stmt 0 view .LVU2
  38 0000 7047     		bx	lr
  39              		.cfi_endproc
  40              	.LFE1449:
  42 0002 00BF     		.section	.text.STO_PLL_CalcElAngle,"ax",%progbits
  43              		.align	1
  44              		.p2align 2,,3
  45              		.weak	STO_PLL_CalcElAngle
  46              		.syntax unified
ARM GAS  /tmp/ccaxKBZ0.s 			page 4


  47              		.thumb
  48              		.thumb_func
  49              		.fpu fpv4-sp-d16
  51              	STO_PLL_CalcElAngle:
  52              	.LVL1:
  53              	.LFB1450:
 128:MCSDK_v6.3.2-Full/MotorControl/MCSDK/MCLib/Any/Src/sto_pll_speed_pos_fdbk.c **** 
 129:MCSDK_v6.3.2-Full/MotorControl/MCSDK/MCLib/Any/Src/sto_pll_speed_pos_fdbk.c **** #if defined (CCMRAM)
 130:MCSDK_v6.3.2-Full/MotorControl/MCSDK/MCLib/Any/Src/sto_pll_speed_pos_fdbk.c **** #if defined (__ICCARM__)
 131:MCSDK_v6.3.2-Full/MotorControl/MCSDK/MCLib/Any/Src/sto_pll_speed_pos_fdbk.c **** #pragma location = ".ccmram"
 132:MCSDK_v6.3.2-Full/MotorControl/MCSDK/MCLib/Any/Src/sto_pll_speed_pos_fdbk.c **** #elif defined (__CC_ARM) || defined(__GNUC__)
 133:MCSDK_v6.3.2-Full/MotorControl/MCSDK/MCLib/Any/Src/sto_pll_speed_pos_fdbk.c **** __attribute__((section(".ccmram")))
 134:MCSDK_v6.3.2-Full/MotorControl/MCSDK/MCLib/Any/Src/sto_pll_speed_pos_fdbk.c **** #endif
 135:MCSDK_v6.3.2-Full/MotorControl/MCSDK/MCLib/Any/Src/sto_pll_speed_pos_fdbk.c **** #endif
 136:MCSDK_v6.3.2-Full/MotorControl/MCSDK/MCLib/Any/Src/sto_pll_speed_pos_fdbk.c **** /**
 137:MCSDK_v6.3.2-Full/MotorControl/MCSDK/MCLib/Any/Src/sto_pll_speed_pos_fdbk.c ****   * @brief  Calculates the estimated electrical angle.
 138:MCSDK_v6.3.2-Full/MotorControl/MCSDK/MCLib/Any/Src/sto_pll_speed_pos_fdbk.c ****   * 
 139:MCSDK_v6.3.2-Full/MotorControl/MCSDK/MCLib/Any/Src/sto_pll_speed_pos_fdbk.c ****   * Executes Luenberger state observer equations and calls
 140:MCSDK_v6.3.2-Full/MotorControl/MCSDK/MCLib/Any/Src/sto_pll_speed_pos_fdbk.c ****   * PLL to compute a new speed estimation and
 141:MCSDK_v6.3.2-Full/MotorControl/MCSDK/MCLib/Any/Src/sto_pll_speed_pos_fdbk.c ****   * update the estimated electrical angle.
 142:MCSDK_v6.3.2-Full/MotorControl/MCSDK/MCLib/Any/Src/sto_pll_speed_pos_fdbk.c ****   * 
 143:MCSDK_v6.3.2-Full/MotorControl/MCSDK/MCLib/Any/Src/sto_pll_speed_pos_fdbk.c ****   * @param  pHandle: Handler of the current instance of the STO component.
 144:MCSDK_v6.3.2-Full/MotorControl/MCSDK/MCLib/Any/Src/sto_pll_speed_pos_fdbk.c ****   * @param  pInput: Pointer to the observer inputs structure.
 145:MCSDK_v6.3.2-Full/MotorControl/MCSDK/MCLib/Any/Src/sto_pll_speed_pos_fdbk.c ****   * @retval int16_t Rotor electrical angle (s16Degrees).
 146:MCSDK_v6.3.2-Full/MotorControl/MCSDK/MCLib/Any/Src/sto_pll_speed_pos_fdbk.c ****   */
 147:MCSDK_v6.3.2-Full/MotorControl/MCSDK/MCLib/Any/Src/sto_pll_speed_pos_fdbk.c **** //cstat !MISRAC2012-Rule-8.13
 148:MCSDK_v6.3.2-Full/MotorControl/MCSDK/MCLib/Any/Src/sto_pll_speed_pos_fdbk.c **** __weak int16_t STO_PLL_CalcElAngle(STO_PLL_Handle_t *pHandle, Observer_Inputs_t *pInputs)
 149:MCSDK_v6.3.2-Full/MotorControl/MCSDK/MCLib/Any/Src/sto_pll_speed_pos_fdbk.c **** {
  54              		.loc 1 149 1 is_stmt 1 view -0
  55              		.cfi_startproc
  56              		@ args = 0, pretend = 0, frame = 24
  57              		@ frame_needed = 0, uses_anonymous_args = 0
 150:MCSDK_v6.3.2-Full/MotorControl/MCSDK/MCLib/Any/Src/sto_pll_speed_pos_fdbk.c ****   int16_t retValue;
  58              		.loc 1 150 3 view .LVU4
 151:MCSDK_v6.3.2-Full/MotorControl/MCSDK/MCLib/Any/Src/sto_pll_speed_pos_fdbk.c **** 
 152:MCSDK_v6.3.2-Full/MotorControl/MCSDK/MCLib/Any/Src/sto_pll_speed_pos_fdbk.c ****   if ((MC_NULL == pHandle) || (MC_NULL == pInputs))
  59              		.loc 1 152 3 view .LVU5
 149:MCSDK_v6.3.2-Full/MotorControl/MCSDK/MCLib/Any/Src/sto_pll_speed_pos_fdbk.c ****   int16_t retValue;
  60              		.loc 1 149 1 is_stmt 0 view .LVU6
  61 0000 2DE9F04F 		push	{r4, r5, r6, r7, r8, r9, r10, fp, lr}
  62              	.LCFI0:
  63              		.cfi_def_cfa_offset 36
  64              		.cfi_offset 4, -36
  65              		.cfi_offset 5, -32
  66              		.cfi_offset 6, -28
  67              		.cfi_offset 7, -24
  68              		.cfi_offset 8, -20
  69              		.cfi_offset 9, -16
  70              		.cfi_offset 10, -12
  71              		.cfi_offset 11, -8
  72              		.cfi_offset 14, -4
  73              		.loc 1 152 6 view .LVU7
  74 0004 0446     		mov	r4, r0
 149:MCSDK_v6.3.2-Full/MotorControl/MCSDK/MCLib/Any/Src/sto_pll_speed_pos_fdbk.c ****   int16_t retValue;
  75              		.loc 1 149 1 view .LVU8
  76 0006 87B0     		sub	sp, sp, #28
  77              	.LCFI1:
ARM GAS  /tmp/ccaxKBZ0.s 			page 5


  78              		.cfi_def_cfa_offset 64
  79              		.loc 1 152 6 view .LVU9
  80 0008 0028     		cmp	r0, #0
  81 000a 00F0CC80 		beq	.L4
  82              		.loc 1 152 28 discriminator 1 view .LVU10
  83 000e 0029     		cmp	r1, #0
  84 0010 00F0CC80 		beq	.L17
  85              	.LBB12:
 153:MCSDK_v6.3.2-Full/MotorControl/MCSDK/MCLib/Any/Src/sto_pll_speed_pos_fdbk.c ****   {
 154:MCSDK_v6.3.2-Full/MotorControl/MCSDK/MCLib/Any/Src/sto_pll_speed_pos_fdbk.c ****     retValue = 0;
 155:MCSDK_v6.3.2-Full/MotorControl/MCSDK/MCLib/Any/Src/sto_pll_speed_pos_fdbk.c ****   }
 156:MCSDK_v6.3.2-Full/MotorControl/MCSDK/MCLib/Any/Src/sto_pll_speed_pos_fdbk.c ****   else
 157:MCSDK_v6.3.2-Full/MotorControl/MCSDK/MCLib/Any/Src/sto_pll_speed_pos_fdbk.c ****   {
 158:MCSDK_v6.3.2-Full/MotorControl/MCSDK/MCLib/Any/Src/sto_pll_speed_pos_fdbk.c ****     int32_t wAux;
  86              		.loc 1 158 5 is_stmt 1 view .LVU11
 159:MCSDK_v6.3.2-Full/MotorControl/MCSDK/MCLib/Any/Src/sto_pll_speed_pos_fdbk.c ****     int32_t wDirection;
  87              		.loc 1 159 5 view .LVU12
 160:MCSDK_v6.3.2-Full/MotorControl/MCSDK/MCLib/Any/Src/sto_pll_speed_pos_fdbk.c ****     int32_t wIalfa_est_Next;
  88              		.loc 1 160 5 view .LVU13
 161:MCSDK_v6.3.2-Full/MotorControl/MCSDK/MCLib/Any/Src/sto_pll_speed_pos_fdbk.c ****     int32_t wIbeta_est_Next;
  89              		.loc 1 161 5 view .LVU14
 162:MCSDK_v6.3.2-Full/MotorControl/MCSDK/MCLib/Any/Src/sto_pll_speed_pos_fdbk.c ****     int32_t wBemf_alfa_est_Next;
  90              		.loc 1 162 5 view .LVU15
 163:MCSDK_v6.3.2-Full/MotorControl/MCSDK/MCLib/Any/Src/sto_pll_speed_pos_fdbk.c ****     int32_t wBemf_beta_est_Next;
  91              		.loc 1 163 5 view .LVU16
 164:MCSDK_v6.3.2-Full/MotorControl/MCSDK/MCLib/Any/Src/sto_pll_speed_pos_fdbk.c ****     int16_t hAux;
  92              		.loc 1 164 5 view .LVU17
 165:MCSDK_v6.3.2-Full/MotorControl/MCSDK/MCLib/Any/Src/sto_pll_speed_pos_fdbk.c ****     int16_t hAux_Alfa;
  93              		.loc 1 165 5 view .LVU18
 166:MCSDK_v6.3.2-Full/MotorControl/MCSDK/MCLib/Any/Src/sto_pll_speed_pos_fdbk.c ****     int16_t hAux_Beta;
  94              		.loc 1 166 5 view .LVU19
 167:MCSDK_v6.3.2-Full/MotorControl/MCSDK/MCLib/Any/Src/sto_pll_speed_pos_fdbk.c ****     int16_t hIalfa_err;
  95              		.loc 1 167 5 view .LVU20
 168:MCSDK_v6.3.2-Full/MotorControl/MCSDK/MCLib/Any/Src/sto_pll_speed_pos_fdbk.c ****     int16_t hIbeta_err;
  96              		.loc 1 168 5 view .LVU21
 169:MCSDK_v6.3.2-Full/MotorControl/MCSDK/MCLib/Any/Src/sto_pll_speed_pos_fdbk.c ****     int16_t hRotor_Speed;
  97              		.loc 1 169 5 view .LVU22
 170:MCSDK_v6.3.2-Full/MotorControl/MCSDK/MCLib/Any/Src/sto_pll_speed_pos_fdbk.c ****     int16_t hValfa;
  98              		.loc 1 170 5 view .LVU23
 171:MCSDK_v6.3.2-Full/MotorControl/MCSDK/MCLib/Any/Src/sto_pll_speed_pos_fdbk.c ****     int16_t hVbeta;
  99              		.loc 1 171 5 view .LVU24
 172:MCSDK_v6.3.2-Full/MotorControl/MCSDK/MCLib/Any/Src/sto_pll_speed_pos_fdbk.c **** 
 173:MCSDK_v6.3.2-Full/MotorControl/MCSDK/MCLib/Any/Src/sto_pll_speed_pos_fdbk.c ****     if (pHandle->wBemf_alfa_est > (((int32_t)pHandle->hF2) * INT16_MAX))
 100              		.loc 1 173 5 view .LVU25
 101              		.loc 1 173 53 is_stmt 0 view .LVU26
 102 0014 B0F92E30 		ldrsh	r3, [r0, #46]
 103              		.loc 1 173 16 view .LVU27
 104 0018 876E     		ldr	r7, [r0, #104]
 105              		.loc 1 173 60 view .LVU28
 106 001a C3EBC332 		rsb	r2, r3, r3, lsl #15
 107              		.loc 1 173 8 view .LVU29
 108 001e 9742     		cmp	r7, r2
 109              		.loc 1 173 60 view .LVU30
 110 0020 4FEAC330 		lsl	r0, r3, #15
 111              	.LVL2:
 112              		.loc 1 173 8 view .LVU31
 113 0024 40F3DD80 		ble	.L5
ARM GAS  /tmp/ccaxKBZ0.s 			page 6


 174:MCSDK_v6.3.2-Full/MotorControl/MCSDK/MCLib/Any/Src/sto_pll_speed_pos_fdbk.c ****     {
 175:MCSDK_v6.3.2-Full/MotorControl/MCSDK/MCLib/Any/Src/sto_pll_speed_pos_fdbk.c ****       pHandle->wBemf_alfa_est = INT16_MAX * ((int32_t)pHandle->hF2);
 114              		.loc 1 175 7 is_stmt 1 view .LVU32
 115              		.loc 1 175 31 is_stmt 0 view .LVU33
 116 0028 A266     		str	r2, [r4, #104]
 117 002a 1746     		mov	r7, r2
 118              	.L6:
 176:MCSDK_v6.3.2-Full/MotorControl/MCSDK/MCLib/Any/Src/sto_pll_speed_pos_fdbk.c ****     }
 177:MCSDK_v6.3.2-Full/MotorControl/MCSDK/MCLib/Any/Src/sto_pll_speed_pos_fdbk.c ****     else if (pHandle->wBemf_alfa_est <= (-INT16_MAX * ((int32_t)pHandle->hF2)))
 178:MCSDK_v6.3.2-Full/MotorControl/MCSDK/MCLib/Any/Src/sto_pll_speed_pos_fdbk.c ****     {
 179:MCSDK_v6.3.2-Full/MotorControl/MCSDK/MCLib/Any/Src/sto_pll_speed_pos_fdbk.c ****       pHandle->wBemf_alfa_est = -INT16_MAX * ((int32_t)pHandle->hF2);
 180:MCSDK_v6.3.2-Full/MotorControl/MCSDK/MCLib/Any/Src/sto_pll_speed_pos_fdbk.c ****     }
 181:MCSDK_v6.3.2-Full/MotorControl/MCSDK/MCLib/Any/Src/sto_pll_speed_pos_fdbk.c ****     else
 182:MCSDK_v6.3.2-Full/MotorControl/MCSDK/MCLib/Any/Src/sto_pll_speed_pos_fdbk.c ****     {
 183:MCSDK_v6.3.2-Full/MotorControl/MCSDK/MCLib/Any/Src/sto_pll_speed_pos_fdbk.c ****       /* Nothing to do */
 184:MCSDK_v6.3.2-Full/MotorControl/MCSDK/MCLib/Any/Src/sto_pll_speed_pos_fdbk.c ****     }
 119              		.loc 1 184 5 is_stmt 1 view .LVU34
 185:MCSDK_v6.3.2-Full/MotorControl/MCSDK/MCLib/Any/Src/sto_pll_speed_pos_fdbk.c **** #ifndef FULL_MISRA_C_COMPLIANCY_STO_PLL
 186:MCSDK_v6.3.2-Full/MotorControl/MCSDK/MCLib/Any/Src/sto_pll_speed_pos_fdbk.c ****     //cstat !MISRAC2012-Rule-1.3_n !ATH-shift-neg !MISRAC2012-Rule-10.1_R6
 187:MCSDK_v6.3.2-Full/MotorControl/MCSDK/MCLib/Any/Src/sto_pll_speed_pos_fdbk.c ****       hAux_Alfa = (int16_t)(pHandle->wBemf_alfa_est >> pHandle->F2LOG);
 120              		.loc 1 187 7 view .LVU35
 121              		.loc 1 187 63 is_stmt 0 view .LVU36
 122 002c B4F81E51 		ldrh	r5, [r4, #286]
 188:MCSDK_v6.3.2-Full/MotorControl/MCSDK/MCLib/Any/Src/sto_pll_speed_pos_fdbk.c **** #else
 189:MCSDK_v6.3.2-Full/MotorControl/MCSDK/MCLib/Any/Src/sto_pll_speed_pos_fdbk.c ****       hAux_Alfa = (int16_t)(pHandle->wBemf_alfa_est / pHandle->hF2);
 190:MCSDK_v6.3.2-Full/MotorControl/MCSDK/MCLib/Any/Src/sto_pll_speed_pos_fdbk.c **** #endif
 191:MCSDK_v6.3.2-Full/MotorControl/MCSDK/MCLib/Any/Src/sto_pll_speed_pos_fdbk.c **** 
 192:MCSDK_v6.3.2-Full/MotorControl/MCSDK/MCLib/Any/Src/sto_pll_speed_pos_fdbk.c ****     if (pHandle->wBemf_beta_est > (INT16_MAX * ((int32_t)pHandle->hF2)))
 123              		.loc 1 192 16 view .LVU37
 124 0030 E66E     		ldr	r6, [r4, #108]
 125 0032 0196     		str	r6, [sp, #4]
 187:MCSDK_v6.3.2-Full/MotorControl/MCSDK/MCLib/Any/Src/sto_pll_speed_pos_fdbk.c **** #else
 126              		.loc 1 187 53 view .LVU38
 127 0034 47FA05F6 		asr	r6, r7, r5
 128 0038 0296     		str	r6, [sp, #8]
 187:MCSDK_v6.3.2-Full/MotorControl/MCSDK/MCLib/Any/Src/sto_pll_speed_pos_fdbk.c **** #else
 129              		.loc 1 187 17 view .LVU39
 130 003a 0FFA86FE 		sxth	lr, r6
 131              	.LVL3:
 132              		.loc 1 192 5 is_stmt 1 view .LVU40
 133              		.loc 1 192 8 is_stmt 0 view .LVU41
 134 003e 019E     		ldr	r6, [sp, #4]
 135 0040 B242     		cmp	r2, r6
 136 0042 80F2C880 		bge	.L7
 193:MCSDK_v6.3.2-Full/MotorControl/MCSDK/MCLib/Any/Src/sto_pll_speed_pos_fdbk.c ****     {
 194:MCSDK_v6.3.2-Full/MotorControl/MCSDK/MCLib/Any/Src/sto_pll_speed_pos_fdbk.c ****       pHandle->wBemf_beta_est = INT16_MAX * ((int32_t)pHandle->hF2);
 137              		.loc 1 194 7 is_stmt 1 view .LVU42
 138              		.loc 1 194 31 is_stmt 0 view .LVU43
 139 0046 E266     		str	r2, [r4, #108]
 140 0048 0192     		str	r2, [sp, #4]
 141              	.L8:
 195:MCSDK_v6.3.2-Full/MotorControl/MCSDK/MCLib/Any/Src/sto_pll_speed_pos_fdbk.c ****     }
 196:MCSDK_v6.3.2-Full/MotorControl/MCSDK/MCLib/Any/Src/sto_pll_speed_pos_fdbk.c ****     else if (pHandle->wBemf_beta_est <= (-INT16_MAX * ((int32_t)pHandle->hF2)))
 197:MCSDK_v6.3.2-Full/MotorControl/MCSDK/MCLib/Any/Src/sto_pll_speed_pos_fdbk.c ****     {
 198:MCSDK_v6.3.2-Full/MotorControl/MCSDK/MCLib/Any/Src/sto_pll_speed_pos_fdbk.c ****       pHandle->wBemf_beta_est = (-INT16_MAX * ((int32_t)pHandle->hF2));
 199:MCSDK_v6.3.2-Full/MotorControl/MCSDK/MCLib/Any/Src/sto_pll_speed_pos_fdbk.c ****     }
 200:MCSDK_v6.3.2-Full/MotorControl/MCSDK/MCLib/Any/Src/sto_pll_speed_pos_fdbk.c ****     else
ARM GAS  /tmp/ccaxKBZ0.s 			page 7


 201:MCSDK_v6.3.2-Full/MotorControl/MCSDK/MCLib/Any/Src/sto_pll_speed_pos_fdbk.c ****     {
 202:MCSDK_v6.3.2-Full/MotorControl/MCSDK/MCLib/Any/Src/sto_pll_speed_pos_fdbk.c ****       /* Nothing to do */
 203:MCSDK_v6.3.2-Full/MotorControl/MCSDK/MCLib/Any/Src/sto_pll_speed_pos_fdbk.c ****     }
 142              		.loc 1 203 5 is_stmt 1 view .LVU44
 204:MCSDK_v6.3.2-Full/MotorControl/MCSDK/MCLib/Any/Src/sto_pll_speed_pos_fdbk.c **** #ifndef FULL_MISRA_C_COMPLIANCY_STO_PLL
 205:MCSDK_v6.3.2-Full/MotorControl/MCSDK/MCLib/Any/Src/sto_pll_speed_pos_fdbk.c ****     //cstat !MISRAC2012-Rule-1.3_n !ATH-shift-neg !MISRAC2012-Rule-10.1_R6
 206:MCSDK_v6.3.2-Full/MotorControl/MCSDK/MCLib/Any/Src/sto_pll_speed_pos_fdbk.c ****     hAux_Beta = (int16_t)(pHandle->wBemf_beta_est >> pHandle->F2LOG);
 143              		.loc 1 206 5 view .LVU45
 144              		.loc 1 206 51 is_stmt 0 view .LVU46
 145 004a 019B     		ldr	r3, [sp, #4]
 207:MCSDK_v6.3.2-Full/MotorControl/MCSDK/MCLib/Any/Src/sto_pll_speed_pos_fdbk.c **** #else
 208:MCSDK_v6.3.2-Full/MotorControl/MCSDK/MCLib/Any/Src/sto_pll_speed_pos_fdbk.c ****     hAux_Beta = (int16_t)(pHandle->wBemf_beta_est / pHandle->hF2);
 209:MCSDK_v6.3.2-Full/MotorControl/MCSDK/MCLib/Any/Src/sto_pll_speed_pos_fdbk.c **** #endif
 210:MCSDK_v6.3.2-Full/MotorControl/MCSDK/MCLib/Any/Src/sto_pll_speed_pos_fdbk.c **** 
 211:MCSDK_v6.3.2-Full/MotorControl/MCSDK/MCLib/Any/Src/sto_pll_speed_pos_fdbk.c ****     if (pHandle->Ialfa_est > (INT16_MAX * ((int32_t)pHandle->hF1)))
 146              		.loc 1 211 16 view .LVU47
 147 004c D4F86090 		ldr	r9, [r4, #96]
 206:MCSDK_v6.3.2-Full/MotorControl/MCSDK/MCLib/Any/Src/sto_pll_speed_pos_fdbk.c **** #else
 148              		.loc 1 206 51 view .LVU48
 149 0050 43FA05F5 		asr	r5, r3, r5
 150              		.loc 1 211 60 view .LVU49
 151 0054 B4F92C30 		ldrsh	r3, [r4, #44]
 152              		.loc 1 211 41 view .LVU50
 153 0058 C3EBC332 		rsb	r2, r3, r3, lsl #15
 154              		.loc 1 211 8 view .LVU51
 155 005c 9145     		cmp	r9, r2
 206:MCSDK_v6.3.2-Full/MotorControl/MCSDK/MCLib/Any/Src/sto_pll_speed_pos_fdbk.c **** #else
 156              		.loc 1 206 15 view .LVU52
 157 005e 0FFA85FC 		sxth	ip, r5
 158              	.LVL4:
 159              		.loc 1 211 5 is_stmt 1 view .LVU53
 160              		.loc 1 211 41 is_stmt 0 view .LVU54
 161 0062 4FEAC330 		lsl	r0, r3, #15
 162              		.loc 1 211 8 view .LVU55
 163 0066 40F3AE80 		ble	.L9
 212:MCSDK_v6.3.2-Full/MotorControl/MCSDK/MCLib/Any/Src/sto_pll_speed_pos_fdbk.c ****     {
 213:MCSDK_v6.3.2-Full/MotorControl/MCSDK/MCLib/Any/Src/sto_pll_speed_pos_fdbk.c ****       pHandle->Ialfa_est = INT16_MAX * ((int32_t)pHandle->hF1);
 164              		.loc 1 213 7 is_stmt 1 view .LVU56
 165              		.loc 1 213 26 is_stmt 0 view .LVU57
 166 006a 2266     		str	r2, [r4, #96]
 167 006c 9146     		mov	r9, r2
 168              	.L10:
 214:MCSDK_v6.3.2-Full/MotorControl/MCSDK/MCLib/Any/Src/sto_pll_speed_pos_fdbk.c ****     }
 215:MCSDK_v6.3.2-Full/MotorControl/MCSDK/MCLib/Any/Src/sto_pll_speed_pos_fdbk.c ****     else if (pHandle->Ialfa_est <= (-INT16_MAX * ((int32_t)pHandle->hF1)))
 216:MCSDK_v6.3.2-Full/MotorControl/MCSDK/MCLib/Any/Src/sto_pll_speed_pos_fdbk.c ****     {
 217:MCSDK_v6.3.2-Full/MotorControl/MCSDK/MCLib/Any/Src/sto_pll_speed_pos_fdbk.c ****       pHandle->Ialfa_est = -INT16_MAX * ((int32_t)pHandle->hF1);
 218:MCSDK_v6.3.2-Full/MotorControl/MCSDK/MCLib/Any/Src/sto_pll_speed_pos_fdbk.c ****     }
 219:MCSDK_v6.3.2-Full/MotorControl/MCSDK/MCLib/Any/Src/sto_pll_speed_pos_fdbk.c ****     else
 220:MCSDK_v6.3.2-Full/MotorControl/MCSDK/MCLib/Any/Src/sto_pll_speed_pos_fdbk.c ****     {
 221:MCSDK_v6.3.2-Full/MotorControl/MCSDK/MCLib/Any/Src/sto_pll_speed_pos_fdbk.c ****       /* Nothing to do */
 222:MCSDK_v6.3.2-Full/MotorControl/MCSDK/MCLib/Any/Src/sto_pll_speed_pos_fdbk.c ****     }
 169              		.loc 1 222 5 is_stmt 1 view .LVU58
 223:MCSDK_v6.3.2-Full/MotorControl/MCSDK/MCLib/Any/Src/sto_pll_speed_pos_fdbk.c **** 
 224:MCSDK_v6.3.2-Full/MotorControl/MCSDK/MCLib/Any/Src/sto_pll_speed_pos_fdbk.c ****     if (pHandle->Ibeta_est > (INT16_MAX * ((int32_t)pHandle->hF1)))
 170              		.loc 1 224 5 view .LVU59
 171              		.loc 1 224 16 is_stmt 0 view .LVU60
 172 006e D4F86480 		ldr	r8, [r4, #100]
ARM GAS  /tmp/ccaxKBZ0.s 			page 8


 173              		.loc 1 224 8 view .LVU61
 174 0072 4245     		cmp	r2, r8
 175 0074 80F2A180 		bge	.L11
 225:MCSDK_v6.3.2-Full/MotorControl/MCSDK/MCLib/Any/Src/sto_pll_speed_pos_fdbk.c ****     {
 226:MCSDK_v6.3.2-Full/MotorControl/MCSDK/MCLib/Any/Src/sto_pll_speed_pos_fdbk.c ****       pHandle->Ibeta_est = INT16_MAX * ((int32_t)pHandle->hF1);
 176              		.loc 1 226 7 is_stmt 1 view .LVU62
 177              		.loc 1 226 26 is_stmt 0 view .LVU63
 178 0078 6266     		str	r2, [r4, #100]
 179 007a 9046     		mov	r8, r2
 180              	.L12:
 227:MCSDK_v6.3.2-Full/MotorControl/MCSDK/MCLib/Any/Src/sto_pll_speed_pos_fdbk.c ****     }
 228:MCSDK_v6.3.2-Full/MotorControl/MCSDK/MCLib/Any/Src/sto_pll_speed_pos_fdbk.c ****     else if (pHandle->Ibeta_est <= (-INT16_MAX * ((int32_t)pHandle->hF1)))
 229:MCSDK_v6.3.2-Full/MotorControl/MCSDK/MCLib/Any/Src/sto_pll_speed_pos_fdbk.c ****     {
 230:MCSDK_v6.3.2-Full/MotorControl/MCSDK/MCLib/Any/Src/sto_pll_speed_pos_fdbk.c ****       pHandle->Ibeta_est = -INT16_MAX * ((int32_t)pHandle->hF1);
 231:MCSDK_v6.3.2-Full/MotorControl/MCSDK/MCLib/Any/Src/sto_pll_speed_pos_fdbk.c ****     }
 232:MCSDK_v6.3.2-Full/MotorControl/MCSDK/MCLib/Any/Src/sto_pll_speed_pos_fdbk.c ****     else
 233:MCSDK_v6.3.2-Full/MotorControl/MCSDK/MCLib/Any/Src/sto_pll_speed_pos_fdbk.c ****     {
 234:MCSDK_v6.3.2-Full/MotorControl/MCSDK/MCLib/Any/Src/sto_pll_speed_pos_fdbk.c ****       /* Nothing to do */
 235:MCSDK_v6.3.2-Full/MotorControl/MCSDK/MCLib/Any/Src/sto_pll_speed_pos_fdbk.c ****     }
 181              		.loc 1 235 5 is_stmt 1 view .LVU64
 236:MCSDK_v6.3.2-Full/MotorControl/MCSDK/MCLib/Any/Src/sto_pll_speed_pos_fdbk.c **** 
 237:MCSDK_v6.3.2-Full/MotorControl/MCSDK/MCLib/Any/Src/sto_pll_speed_pos_fdbk.c **** #ifndef FULL_MISRA_C_COMPLIANCY_STO_PLL
 238:MCSDK_v6.3.2-Full/MotorControl/MCSDK/MCLib/Any/Src/sto_pll_speed_pos_fdbk.c ****     //cstat !MISRAC2012-Rule-1.3_n !ATH-shift-neg !MISRAC2012-Rule-10.1_R6
 239:MCSDK_v6.3.2-Full/MotorControl/MCSDK/MCLib/Any/Src/sto_pll_speed_pos_fdbk.c ****     hIalfa_err = (int16_t)(pHandle->Ialfa_est >> pHandle->F1LOG);
 182              		.loc 1 239 5 view .LVU65
 240:MCSDK_v6.3.2-Full/MotorControl/MCSDK/MCLib/Any/Src/sto_pll_speed_pos_fdbk.c **** #else
 241:MCSDK_v6.3.2-Full/MotorControl/MCSDK/MCLib/Any/Src/sto_pll_speed_pos_fdbk.c ****     hIalfa_err = (int16_t)(pHandle->Ialfa_est / pHandle->hF1);
 242:MCSDK_v6.3.2-Full/MotorControl/MCSDK/MCLib/Any/Src/sto_pll_speed_pos_fdbk.c **** #endif
 243:MCSDK_v6.3.2-Full/MotorControl/MCSDK/MCLib/Any/Src/sto_pll_speed_pos_fdbk.c **** 
 244:MCSDK_v6.3.2-Full/MotorControl/MCSDK/MCLib/Any/Src/sto_pll_speed_pos_fdbk.c ****     hIalfa_err = hIalfa_err - pInputs->Ialfa_beta.alpha;
 183              		.loc 1 244 29 is_stmt 0 view .LVU66
 184 007c 8B88     		ldrh	r3, [r1, #4]
 245:MCSDK_v6.3.2-Full/MotorControl/MCSDK/MCLib/Any/Src/sto_pll_speed_pos_fdbk.c **** 
 246:MCSDK_v6.3.2-Full/MotorControl/MCSDK/MCLib/Any/Src/sto_pll_speed_pos_fdbk.c **** #ifndef FULL_MISRA_C_COMPLIANCY_STO_PLL
 247:MCSDK_v6.3.2-Full/MotorControl/MCSDK/MCLib/Any/Src/sto_pll_speed_pos_fdbk.c ****     //cstat !MISRAC2012-Rule-1.3_n !ATH-shift-neg !MISRAC2012-Rule-10.1_R6
 248:MCSDK_v6.3.2-Full/MotorControl/MCSDK/MCLib/Any/Src/sto_pll_speed_pos_fdbk.c ****     hIbeta_err = (int16_t)(pHandle->Ibeta_est >> pHandle->F1LOG);
 249:MCSDK_v6.3.2-Full/MotorControl/MCSDK/MCLib/Any/Src/sto_pll_speed_pos_fdbk.c **** #else
 250:MCSDK_v6.3.2-Full/MotorControl/MCSDK/MCLib/Any/Src/sto_pll_speed_pos_fdbk.c ****     hIbeta_err = (int16_t)(pHandle->Ibeta_est / pHandle->hF1);
 251:MCSDK_v6.3.2-Full/MotorControl/MCSDK/MCLib/Any/Src/sto_pll_speed_pos_fdbk.c **** #endif
 252:MCSDK_v6.3.2-Full/MotorControl/MCSDK/MCLib/Any/Src/sto_pll_speed_pos_fdbk.c **** 
 253:MCSDK_v6.3.2-Full/MotorControl/MCSDK/MCLib/Any/Src/sto_pll_speed_pos_fdbk.c ****     hIbeta_err = hIbeta_err - pInputs->Ialfa_beta.beta;
 254:MCSDK_v6.3.2-Full/MotorControl/MCSDK/MCLib/Any/Src/sto_pll_speed_pos_fdbk.c **** 
 255:MCSDK_v6.3.2-Full/MotorControl/MCSDK/MCLib/Any/Src/sto_pll_speed_pos_fdbk.c ****     wAux = ((int32_t)pInputs->Vbus) * pInputs->Valfa_beta.alpha;
 185              		.loc 1 255 13 view .LVU67
 186 007e 0889     		ldrh	r0, [r1, #8]
 244:MCSDK_v6.3.2-Full/MotorControl/MCSDK/MCLib/Any/Src/sto_pll_speed_pos_fdbk.c **** 
 187              		.loc 1 244 29 view .LVU68
 188 0080 ADF80C30 		strh	r3, [sp, #12]	@ movhi
 189              		.loc 1 255 58 view .LVU69
 190 0084 B1F90030 		ldrsh	r3, [r1]
 253:MCSDK_v6.3.2-Full/MotorControl/MCSDK/MCLib/Any/Src/sto_pll_speed_pos_fdbk.c **** 
 191              		.loc 1 253 29 view .LVU70
 192 0088 B1F806A0 		ldrh	r10, [r1, #6]
 239:MCSDK_v6.3.2-Full/MotorControl/MCSDK/MCLib/Any/Src/sto_pll_speed_pos_fdbk.c **** #else
 193              		.loc 1 239 57 view .LVU71
 194 008c B4F81C21 		ldrh	r2, [r4, #284]
 256:MCSDK_v6.3.2-Full/MotorControl/MCSDK/MCLib/Any/Src/sto_pll_speed_pos_fdbk.c **** #ifndef FULL_MISRA_C_COMPLIANCY_STO_PLL
ARM GAS  /tmp/ccaxKBZ0.s 			page 9


 257:MCSDK_v6.3.2-Full/MotorControl/MCSDK/MCLib/Any/Src/sto_pll_speed_pos_fdbk.c ****     hValfa = (int16_t)(wAux >> 16); //cstat !MISRAC2012-Rule-1.3_n !ATH-shift-neg !MISRAC2012-Rule-
 258:MCSDK_v6.3.2-Full/MotorControl/MCSDK/MCLib/Any/Src/sto_pll_speed_pos_fdbk.c **** #else
 259:MCSDK_v6.3.2-Full/MotorControl/MCSDK/MCLib/Any/Src/sto_pll_speed_pos_fdbk.c ****     hValfa = (int16_t)(wAux / 65536);
 260:MCSDK_v6.3.2-Full/MotorControl/MCSDK/MCLib/Any/Src/sto_pll_speed_pos_fdbk.c **** #endif
 261:MCSDK_v6.3.2-Full/MotorControl/MCSDK/MCLib/Any/Src/sto_pll_speed_pos_fdbk.c **** 
 262:MCSDK_v6.3.2-Full/MotorControl/MCSDK/MCLib/Any/Src/sto_pll_speed_pos_fdbk.c ****     wAux = ((int32_t)pInputs->Vbus) * pInputs->Valfa_beta.beta;
 195              		.loc 1 262 58 view .LVU72
 196 0090 B1F90210 		ldrsh	r1, [r1, #2]
 197              	.LVL5:
 263:MCSDK_v6.3.2-Full/MotorControl/MCSDK/MCLib/Any/Src/sto_pll_speed_pos_fdbk.c **** 
 264:MCSDK_v6.3.2-Full/MotorControl/MCSDK/MCLib/Any/Src/sto_pll_speed_pos_fdbk.c **** #ifndef FULL_MISRA_C_COMPLIANCY_STO_PLL
 265:MCSDK_v6.3.2-Full/MotorControl/MCSDK/MCLib/Any/Src/sto_pll_speed_pos_fdbk.c ****     hVbeta = ( int16_t ) ( wAux >> 16 ); //cstat !MISRAC2012-Rule-1.3_n !ATH-shift-neg !MISRAC2012-
 266:MCSDK_v6.3.2-Full/MotorControl/MCSDK/MCLib/Any/Src/sto_pll_speed_pos_fdbk.c **** #else
 267:MCSDK_v6.3.2-Full/MotorControl/MCSDK/MCLib/Any/Src/sto_pll_speed_pos_fdbk.c ****     hVbeta = (int16_t)(wAux / 65536);
 268:MCSDK_v6.3.2-Full/MotorControl/MCSDK/MCLib/Any/Src/sto_pll_speed_pos_fdbk.c **** #endif
 269:MCSDK_v6.3.2-Full/MotorControl/MCSDK/MCLib/Any/Src/sto_pll_speed_pos_fdbk.c **** 
 270:MCSDK_v6.3.2-Full/MotorControl/MCSDK/MCLib/Any/Src/sto_pll_speed_pos_fdbk.c ****     /* alfa axes observer */
 271:MCSDK_v6.3.2-Full/MotorControl/MCSDK/MCLib/Any/Src/sto_pll_speed_pos_fdbk.c **** #ifndef FULL_MISRA_C_COMPLIANCY_STO_PLL
 272:MCSDK_v6.3.2-Full/MotorControl/MCSDK/MCLib/Any/Src/sto_pll_speed_pos_fdbk.c ****     //cstat !MISRAC2012-Rule-1.3_n !ATH-shift-neg !MISRAC2012-Rule-10.1_R6
 273:MCSDK_v6.3.2-Full/MotorControl/MCSDK/MCLib/Any/Src/sto_pll_speed_pos_fdbk.c ****     hAux = (int16_t)(pHandle->Ialfa_est >> pHandle->F1LOG);
 274:MCSDK_v6.3.2-Full/MotorControl/MCSDK/MCLib/Any/Src/sto_pll_speed_pos_fdbk.c **** #else
 275:MCSDK_v6.3.2-Full/MotorControl/MCSDK/MCLib/Any/Src/sto_pll_speed_pos_fdbk.c ****     hAux = (int16_t)(pHandle->Ialfa_est / pHandle->hF1);
 276:MCSDK_v6.3.2-Full/MotorControl/MCSDK/MCLib/Any/Src/sto_pll_speed_pos_fdbk.c **** #endif
 277:MCSDK_v6.3.2-Full/MotorControl/MCSDK/MCLib/Any/Src/sto_pll_speed_pos_fdbk.c **** 
 278:MCSDK_v6.3.2-Full/MotorControl/MCSDK/MCLib/Any/Src/sto_pll_speed_pos_fdbk.c ****     wAux = ((int32_t)pHandle->hC1) * hAux;
 198              		.loc 1 278 29 view .LVU73
 199 0094 B4F920B0 		ldrsh	fp, [r4, #32]
 279:MCSDK_v6.3.2-Full/MotorControl/MCSDK/MCLib/Any/Src/sto_pll_speed_pos_fdbk.c ****     wIalfa_est_Next = pHandle->Ialfa_est - wAux;
 280:MCSDK_v6.3.2-Full/MotorControl/MCSDK/MCLib/Any/Src/sto_pll_speed_pos_fdbk.c **** 
 281:MCSDK_v6.3.2-Full/MotorControl/MCSDK/MCLib/Any/Src/sto_pll_speed_pos_fdbk.c ****     wAux = ((int32_t)pHandle->hC2) * hIalfa_err;
 282:MCSDK_v6.3.2-Full/MotorControl/MCSDK/MCLib/Any/Src/sto_pll_speed_pos_fdbk.c ****     wIalfa_est_Next += wAux;
 283:MCSDK_v6.3.2-Full/MotorControl/MCSDK/MCLib/Any/Src/sto_pll_speed_pos_fdbk.c **** 
 284:MCSDK_v6.3.2-Full/MotorControl/MCSDK/MCLib/Any/Src/sto_pll_speed_pos_fdbk.c ****     wAux = ((int32_t)pHandle->hC5) * hValfa;
 285:MCSDK_v6.3.2-Full/MotorControl/MCSDK/MCLib/Any/Src/sto_pll_speed_pos_fdbk.c ****     wIalfa_est_Next += wAux;
 286:MCSDK_v6.3.2-Full/MotorControl/MCSDK/MCLib/Any/Src/sto_pll_speed_pos_fdbk.c **** 
 287:MCSDK_v6.3.2-Full/MotorControl/MCSDK/MCLib/Any/Src/sto_pll_speed_pos_fdbk.c ****     wAux = ((int32_t)pHandle->hC3) * hAux_Alfa;
 288:MCSDK_v6.3.2-Full/MotorControl/MCSDK/MCLib/Any/Src/sto_pll_speed_pos_fdbk.c ****     wIalfa_est_Next -= wAux;
 289:MCSDK_v6.3.2-Full/MotorControl/MCSDK/MCLib/Any/Src/sto_pll_speed_pos_fdbk.c **** 
 290:MCSDK_v6.3.2-Full/MotorControl/MCSDK/MCLib/Any/Src/sto_pll_speed_pos_fdbk.c ****     wAux = ((int32_t)pHandle->hC4) * hIalfa_err;
 291:MCSDK_v6.3.2-Full/MotorControl/MCSDK/MCLib/Any/Src/sto_pll_speed_pos_fdbk.c ****     wBemf_alfa_est_Next = pHandle->wBemf_alfa_est + wAux;
 292:MCSDK_v6.3.2-Full/MotorControl/MCSDK/MCLib/Any/Src/sto_pll_speed_pos_fdbk.c **** 
 293:MCSDK_v6.3.2-Full/MotorControl/MCSDK/MCLib/Any/Src/sto_pll_speed_pos_fdbk.c **** #ifndef FULL_MISRA_C_COMPLIANCY_STO_PLL
 294:MCSDK_v6.3.2-Full/MotorControl/MCSDK/MCLib/Any/Src/sto_pll_speed_pos_fdbk.c ****     wAux = (int32_t)hAux_Beta >> pHandle->F3POW2; //cstat !MISRAC2012-Rule-1.3_n !ATH-shift-neg !MI
 295:MCSDK_v6.3.2-Full/MotorControl/MCSDK/MCLib/Any/Src/sto_pll_speed_pos_fdbk.c **** #else
 296:MCSDK_v6.3.2-Full/MotorControl/MCSDK/MCLib/Any/Src/sto_pll_speed_pos_fdbk.c ****     wAux = ((int32_t)hAux_Beta) / pHandle->hF3;
 297:MCSDK_v6.3.2-Full/MotorControl/MCSDK/MCLib/Any/Src/sto_pll_speed_pos_fdbk.c **** #endif
 298:MCSDK_v6.3.2-Full/MotorControl/MCSDK/MCLib/Any/Src/sto_pll_speed_pos_fdbk.c **** 
 299:MCSDK_v6.3.2-Full/MotorControl/MCSDK/MCLib/Any/Src/sto_pll_speed_pos_fdbk.c ****     wAux = wAux * pHandle->hC6;
 300:MCSDK_v6.3.2-Full/MotorControl/MCSDK/MCLib/Any/Src/sto_pll_speed_pos_fdbk.c ****     wAux = pHandle->_Super.hElSpeedDpp * wAux;
 301:MCSDK_v6.3.2-Full/MotorControl/MCSDK/MCLib/Any/Src/sto_pll_speed_pos_fdbk.c ****     wBemf_alfa_est_Next += wAux;
 302:MCSDK_v6.3.2-Full/MotorControl/MCSDK/MCLib/Any/Src/sto_pll_speed_pos_fdbk.c **** 
 303:MCSDK_v6.3.2-Full/MotorControl/MCSDK/MCLib/Any/Src/sto_pll_speed_pos_fdbk.c ****     /* beta axes observer */
 304:MCSDK_v6.3.2-Full/MotorControl/MCSDK/MCLib/Any/Src/sto_pll_speed_pos_fdbk.c **** #ifndef FULL_MISRA_C_COMPLIANCY_STO_PLL
 305:MCSDK_v6.3.2-Full/MotorControl/MCSDK/MCLib/Any/Src/sto_pll_speed_pos_fdbk.c ****     //cstat !MISRAC2012-Rule-1.3_n !ATH-shift-neg !MISRAC2012-Rule-10.1_R6
 306:MCSDK_v6.3.2-Full/MotorControl/MCSDK/MCLib/Any/Src/sto_pll_speed_pos_fdbk.c ****     hAux = (int16_t)(pHandle->Ibeta_est >> pHandle->F1LOG);
 307:MCSDK_v6.3.2-Full/MotorControl/MCSDK/MCLib/Any/Src/sto_pll_speed_pos_fdbk.c **** #else
 308:MCSDK_v6.3.2-Full/MotorControl/MCSDK/MCLib/Any/Src/sto_pll_speed_pos_fdbk.c ****     hAux = (int16_t)(pHandle->Ibeta_est / pHandle->hF1);
ARM GAS  /tmp/ccaxKBZ0.s 			page 10


 309:MCSDK_v6.3.2-Full/MotorControl/MCSDK/MCLib/Any/Src/sto_pll_speed_pos_fdbk.c **** #endif
 310:MCSDK_v6.3.2-Full/MotorControl/MCSDK/MCLib/Any/Src/sto_pll_speed_pos_fdbk.c **** 
 311:MCSDK_v6.3.2-Full/MotorControl/MCSDK/MCLib/Any/Src/sto_pll_speed_pos_fdbk.c ****     wAux = ((int32_t)pHandle->hC1) * hAux;
 312:MCSDK_v6.3.2-Full/MotorControl/MCSDK/MCLib/Any/Src/sto_pll_speed_pos_fdbk.c ****     wIbeta_est_Next = pHandle->Ibeta_est - wAux;
 313:MCSDK_v6.3.2-Full/MotorControl/MCSDK/MCLib/Any/Src/sto_pll_speed_pos_fdbk.c **** 
 314:MCSDK_v6.3.2-Full/MotorControl/MCSDK/MCLib/Any/Src/sto_pll_speed_pos_fdbk.c ****     wAux = ((int32_t)pHandle->hC2) * hIbeta_err;
 315:MCSDK_v6.3.2-Full/MotorControl/MCSDK/MCLib/Any/Src/sto_pll_speed_pos_fdbk.c ****     wIbeta_est_Next += wAux;
 316:MCSDK_v6.3.2-Full/MotorControl/MCSDK/MCLib/Any/Src/sto_pll_speed_pos_fdbk.c **** 
 317:MCSDK_v6.3.2-Full/MotorControl/MCSDK/MCLib/Any/Src/sto_pll_speed_pos_fdbk.c ****     wAux = ((int32_t)pHandle->hC5) * hVbeta;
 318:MCSDK_v6.3.2-Full/MotorControl/MCSDK/MCLib/Any/Src/sto_pll_speed_pos_fdbk.c ****     wIbeta_est_Next += wAux;
 319:MCSDK_v6.3.2-Full/MotorControl/MCSDK/MCLib/Any/Src/sto_pll_speed_pos_fdbk.c **** 
 320:MCSDK_v6.3.2-Full/MotorControl/MCSDK/MCLib/Any/Src/sto_pll_speed_pos_fdbk.c ****     wAux = ((int32_t)pHandle->hC3) * hAux_Beta;
 321:MCSDK_v6.3.2-Full/MotorControl/MCSDK/MCLib/Any/Src/sto_pll_speed_pos_fdbk.c ****     wIbeta_est_Next -= wAux;
 322:MCSDK_v6.3.2-Full/MotorControl/MCSDK/MCLib/Any/Src/sto_pll_speed_pos_fdbk.c **** 
 323:MCSDK_v6.3.2-Full/MotorControl/MCSDK/MCLib/Any/Src/sto_pll_speed_pos_fdbk.c ****     wAux = ((int32_t)pHandle->hC4) * hIbeta_err;
 324:MCSDK_v6.3.2-Full/MotorControl/MCSDK/MCLib/Any/Src/sto_pll_speed_pos_fdbk.c ****     wBemf_beta_est_Next = pHandle->wBemf_beta_est + wAux;
 325:MCSDK_v6.3.2-Full/MotorControl/MCSDK/MCLib/Any/Src/sto_pll_speed_pos_fdbk.c **** 
 326:MCSDK_v6.3.2-Full/MotorControl/MCSDK/MCLib/Any/Src/sto_pll_speed_pos_fdbk.c **** #ifndef FULL_MISRA_C_COMPLIANCY_STO_PLL
 327:MCSDK_v6.3.2-Full/MotorControl/MCSDK/MCLib/Any/Src/sto_pll_speed_pos_fdbk.c ****     wAux = (int32_t)hAux_Alfa >> pHandle->F3POW2; //cstat !MISRAC2012-Rule-1.3_n !ATH-shift-neg !MI
 328:MCSDK_v6.3.2-Full/MotorControl/MCSDK/MCLib/Any/Src/sto_pll_speed_pos_fdbk.c **** #else
 329:MCSDK_v6.3.2-Full/MotorControl/MCSDK/MCLib/Any/Src/sto_pll_speed_pos_fdbk.c ****     wAux = ((int32_t)hAux_Alfa) / pHandle->hF3;
 330:MCSDK_v6.3.2-Full/MotorControl/MCSDK/MCLib/Any/Src/sto_pll_speed_pos_fdbk.c **** #endif
 331:MCSDK_v6.3.2-Full/MotorControl/MCSDK/MCLib/Any/Src/sto_pll_speed_pos_fdbk.c **** 
 332:MCSDK_v6.3.2-Full/MotorControl/MCSDK/MCLib/Any/Src/sto_pll_speed_pos_fdbk.c ****     wAux = wAux * pHandle->hC6;
 333:MCSDK_v6.3.2-Full/MotorControl/MCSDK/MCLib/Any/Src/sto_pll_speed_pos_fdbk.c ****     wAux = pHandle->_Super.hElSpeedDpp * wAux;
 334:MCSDK_v6.3.2-Full/MotorControl/MCSDK/MCLib/Any/Src/sto_pll_speed_pos_fdbk.c ****     wBemf_beta_est_Next -= wAux;
 335:MCSDK_v6.3.2-Full/MotorControl/MCSDK/MCLib/Any/Src/sto_pll_speed_pos_fdbk.c **** 
 336:MCSDK_v6.3.2-Full/MotorControl/MCSDK/MCLib/Any/Src/sto_pll_speed_pos_fdbk.c ****     /* Calls the PLL blockset */
 337:MCSDK_v6.3.2-Full/MotorControl/MCSDK/MCLib/Any/Src/sto_pll_speed_pos_fdbk.c ****     pHandle->hBemf_alfa_est = hAux_Alfa;
 338:MCSDK_v6.3.2-Full/MotorControl/MCSDK/MCLib/Any/Src/sto_pll_speed_pos_fdbk.c ****     pHandle->hBemf_beta_est = hAux_Beta;
 200              		.loc 1 338 29 view .LVU74
 201 0098 A4F872C0 		strh	ip, [r4, #114]	@ movhi
 255:MCSDK_v6.3.2-Full/MotorControl/MCSDK/MCLib/Any/Src/sto_pll_speed_pos_fdbk.c **** #ifndef FULL_MISRA_C_COMPLIANCY_STO_PLL
 202              		.loc 1 255 10 view .LVU75
 203 009c 00FB03F3 		mul	r3, r0, r3
 257:MCSDK_v6.3.2-Full/MotorControl/MCSDK/MCLib/Any/Src/sto_pll_speed_pos_fdbk.c **** #else
 204              		.loc 1 257 29 view .LVU76
 205 00a0 1E14     		asrs	r6, r3, #16
 262:MCSDK_v6.3.2-Full/MotorControl/MCSDK/MCLib/Any/Src/sto_pll_speed_pos_fdbk.c **** 
 206              		.loc 1 262 10 view .LVU77
 207 00a2 01FB00F0 		mul	r0, r1, r0
 239:MCSDK_v6.3.2-Full/MotorControl/MCSDK/MCLib/Any/Src/sto_pll_speed_pos_fdbk.c **** #else
 208              		.loc 1 239 47 view .LVU78
 209 00a6 49FA02F3 		asr	r3, r9, r2
 210              	.LVL6:
 244:MCSDK_v6.3.2-Full/MotorControl/MCSDK/MCLib/Any/Src/sto_pll_speed_pos_fdbk.c **** 
 211              		.loc 1 244 5 is_stmt 1 view .LVU79
 244:MCSDK_v6.3.2-Full/MotorControl/MCSDK/MCLib/Any/Src/sto_pll_speed_pos_fdbk.c **** 
 212              		.loc 1 244 29 is_stmt 0 view .LVU80
 213 00aa 0399     		ldr	r1, [sp, #12]
 337:MCSDK_v6.3.2-Full/MotorControl/MCSDK/MCLib/Any/Src/sto_pll_speed_pos_fdbk.c ****     pHandle->hBemf_beta_est = hAux_Beta;
 214              		.loc 1 337 29 view .LVU81
 215 00ac A4F870E0 		strh	lr, [r4, #112]	@ movhi
 248:MCSDK_v6.3.2-Full/MotorControl/MCSDK/MCLib/Any/Src/sto_pll_speed_pos_fdbk.c **** #else
 216              		.loc 1 248 47 view .LVU82
 217 00b0 48FA02F2 		asr	r2, r8, r2
 253:MCSDK_v6.3.2-Full/MotorControl/MCSDK/MCLib/Any/Src/sto_pll_speed_pos_fdbk.c **** 
ARM GAS  /tmp/ccaxKBZ0.s 			page 11


 218              		.loc 1 253 29 view .LVU83
 219 00b4 A2EB0A0A 		sub	r10, r2, r10
 311:MCSDK_v6.3.2-Full/MotorControl/MCSDK/MCLib/Any/Src/sto_pll_speed_pos_fdbk.c ****     wIbeta_est_Next = pHandle->Ibeta_est - wAux;
 220              		.loc 1 311 10 view .LVU84
 221 00b8 12FB0BF2 		smulbb	r2, r2, fp
 312:MCSDK_v6.3.2-Full/MotorControl/MCSDK/MCLib/Any/Src/sto_pll_speed_pos_fdbk.c **** 
 222              		.loc 1 312 21 view .LVU85
 223 00bc A8EB0202 		sub	r2, r8, r2
 244:MCSDK_v6.3.2-Full/MotorControl/MCSDK/MCLib/Any/Src/sto_pll_speed_pos_fdbk.c **** 
 224              		.loc 1 244 29 view .LVU86
 225 00c0 591A     		subs	r1, r3, r1
 281:MCSDK_v6.3.2-Full/MotorControl/MCSDK/MCLib/Any/Src/sto_pll_speed_pos_fdbk.c ****     wIalfa_est_Next += wAux;
 226              		.loc 1 281 29 view .LVU87
 227 00c2 B4F92280 		ldrsh	r8, [r4, #34]
 278:MCSDK_v6.3.2-Full/MotorControl/MCSDK/MCLib/Any/Src/sto_pll_speed_pos_fdbk.c ****     wIalfa_est_Next = pHandle->Ialfa_est - wAux;
 228              		.loc 1 278 10 view .LVU88
 229 00c6 13FB0BF3 		smulbb	r3, r3, fp
 230              	.LVL7:
 279:MCSDK_v6.3.2-Full/MotorControl/MCSDK/MCLib/Any/Src/sto_pll_speed_pos_fdbk.c **** 
 231              		.loc 1 279 21 view .LVU89
 232 00ca A9EB0303 		sub	r3, r9, r3
 284:MCSDK_v6.3.2-Full/MotorControl/MCSDK/MCLib/Any/Src/sto_pll_speed_pos_fdbk.c ****     wIalfa_est_Next += wAux;
 233              		.loc 1 284 13 view .LVU90
 234 00ce B4F928B0 		ldrsh	fp, [r4, #40]
 299:MCSDK_v6.3.2-Full/MotorControl/MCSDK/MCLib/Any/Src/sto_pll_speed_pos_fdbk.c ****     wAux = pHandle->_Super.hElSpeedDpp * wAux;
 235              		.loc 1 299 26 view .LVU91
 236 00d2 B4F92A90 		ldrsh	r9, [r4, #42]
 237              	.LVL8:
 244:MCSDK_v6.3.2-Full/MotorControl/MCSDK/MCLib/Any/Src/sto_pll_speed_pos_fdbk.c **** 
 238              		.loc 1 244 16 view .LVU92
 239 00d6 09B2     		sxth	r1, r1
 240              	.LVL9:
 248:MCSDK_v6.3.2-Full/MotorControl/MCSDK/MCLib/Any/Src/sto_pll_speed_pos_fdbk.c **** #else
 241              		.loc 1 248 5 is_stmt 1 view .LVU93
 253:MCSDK_v6.3.2-Full/MotorControl/MCSDK/MCLib/Any/Src/sto_pll_speed_pos_fdbk.c **** 
 242              		.loc 1 253 5 view .LVU94
 253:MCSDK_v6.3.2-Full/MotorControl/MCSDK/MCLib/Any/Src/sto_pll_speed_pos_fdbk.c **** 
 243              		.loc 1 253 16 is_stmt 0 view .LVU95
 244 00d8 0FFA8AFA 		sxth	r10, r10
 245              	.LVL10:
 255:MCSDK_v6.3.2-Full/MotorControl/MCSDK/MCLib/Any/Src/sto_pll_speed_pos_fdbk.c **** #ifndef FULL_MISRA_C_COMPLIANCY_STO_PLL
 246              		.loc 1 255 5 is_stmt 1 view .LVU96
 257:MCSDK_v6.3.2-Full/MotorControl/MCSDK/MCLib/Any/Src/sto_pll_speed_pos_fdbk.c **** #else
 247              		.loc 1 257 5 view .LVU97
 262:MCSDK_v6.3.2-Full/MotorControl/MCSDK/MCLib/Any/Src/sto_pll_speed_pos_fdbk.c **** 
 248              		.loc 1 262 5 view .LVU98
 265:MCSDK_v6.3.2-Full/MotorControl/MCSDK/MCLib/Any/Src/sto_pll_speed_pos_fdbk.c **** #else
 249              		.loc 1 265 5 view .LVU99
 282:MCSDK_v6.3.2-Full/MotorControl/MCSDK/MCLib/Any/Src/sto_pll_speed_pos_fdbk.c **** 
 250              		.loc 1 282 21 is_stmt 0 view .LVU100
 251 00dc 08FB0133 		mla	r3, r8, r1, r3
 265:MCSDK_v6.3.2-Full/MotorControl/MCSDK/MCLib/Any/Src/sto_pll_speed_pos_fdbk.c **** #else
 252              		.loc 1 265 33 view .LVU101
 253 00e0 0014     		asrs	r0, r0, #16
 254              	.LVL11:
 273:MCSDK_v6.3.2-Full/MotorControl/MCSDK/MCLib/Any/Src/sto_pll_speed_pos_fdbk.c **** #else
 255              		.loc 1 273 5 is_stmt 1 view .LVU102
ARM GAS  /tmp/ccaxKBZ0.s 			page 12


 278:MCSDK_v6.3.2-Full/MotorControl/MCSDK/MCLib/Any/Src/sto_pll_speed_pos_fdbk.c ****     wIalfa_est_Next = pHandle->Ialfa_est - wAux;
 256              		.loc 1 278 5 view .LVU103
 279:MCSDK_v6.3.2-Full/MotorControl/MCSDK/MCLib/Any/Src/sto_pll_speed_pos_fdbk.c **** 
 257              		.loc 1 279 5 view .LVU104
 281:MCSDK_v6.3.2-Full/MotorControl/MCSDK/MCLib/Any/Src/sto_pll_speed_pos_fdbk.c ****     wIalfa_est_Next += wAux;
 258              		.loc 1 281 5 view .LVU105
 282:MCSDK_v6.3.2-Full/MotorControl/MCSDK/MCLib/Any/Src/sto_pll_speed_pos_fdbk.c **** 
 259              		.loc 1 282 5 view .LVU106
 284:MCSDK_v6.3.2-Full/MotorControl/MCSDK/MCLib/Any/Src/sto_pll_speed_pos_fdbk.c ****     wIalfa_est_Next += wAux;
 260              		.loc 1 284 5 view .LVU107
 285:MCSDK_v6.3.2-Full/MotorControl/MCSDK/MCLib/Any/Src/sto_pll_speed_pos_fdbk.c **** 
 261              		.loc 1 285 5 view .LVU108
 315:MCSDK_v6.3.2-Full/MotorControl/MCSDK/MCLib/Any/Src/sto_pll_speed_pos_fdbk.c **** 
 262              		.loc 1 315 21 is_stmt 0 view .LVU109
 263 00e2 08FB0A28 		mla	r8, r8, r10, r2
 285:MCSDK_v6.3.2-Full/MotorControl/MCSDK/MCLib/Any/Src/sto_pll_speed_pos_fdbk.c **** 
 264              		.loc 1 285 21 view .LVU110
 265 00e6 0BFB0633 		mla	r3, fp, r6, r3
 266              	.LVL12:
 287:MCSDK_v6.3.2-Full/MotorControl/MCSDK/MCLib/Any/Src/sto_pll_speed_pos_fdbk.c ****     wIalfa_est_Next -= wAux;
 267              		.loc 1 287 5 is_stmt 1 view .LVU111
 318:MCSDK_v6.3.2-Full/MotorControl/MCSDK/MCLib/Any/Src/sto_pll_speed_pos_fdbk.c **** 
 268              		.loc 1 318 21 is_stmt 0 view .LVU112
 269 00ea 0BFB0088 		mla	r8, fp, r0, r8
 324:MCSDK_v6.3.2-Full/MotorControl/MCSDK/MCLib/Any/Src/sto_pll_speed_pos_fdbk.c **** 
 270              		.loc 1 324 25 view .LVU113
 271 00ee 019E     		ldr	r6, [sp, #4]
 272              	.LVL13:
 290:MCSDK_v6.3.2-Full/MotorControl/MCSDK/MCLib/Any/Src/sto_pll_speed_pos_fdbk.c ****     wBemf_alfa_est_Next = pHandle->wBemf_alfa_est + wAux;
 273              		.loc 1 290 29 view .LVU114
 274 00f0 B4F92600 		ldrsh	r0, [r4, #38]
 275              	.LVL14:
 294:MCSDK_v6.3.2-Full/MotorControl/MCSDK/MCLib/Any/Src/sto_pll_speed_pos_fdbk.c **** #else
 276              		.loc 1 294 41 view .LVU115
 277 00f4 628E     		ldrh	r2, [r4, #50]
 324:MCSDK_v6.3.2-Full/MotorControl/MCSDK/MCLib/Any/Src/sto_pll_speed_pos_fdbk.c **** 
 278              		.loc 1 324 25 view .LVU116
 279 00f6 00FB0A6A 		mla	r10, r0, r10, r6
 280              	.LVL15:
 287:MCSDK_v6.3.2-Full/MotorControl/MCSDK/MCLib/Any/Src/sto_pll_speed_pos_fdbk.c ****     wIalfa_est_Next -= wAux;
 281              		.loc 1 287 29 view .LVU117
 282 00fa B4F92460 		ldrsh	r6, [r4, #36]
 291:MCSDK_v6.3.2-Full/MotorControl/MCSDK/MCLib/Any/Src/sto_pll_speed_pos_fdbk.c **** 
 283              		.loc 1 291 25 view .LVU118
 284 00fe 01FB0071 		mla	r1, r1, r0, r7
 285              	.LVL16:
 288:MCSDK_v6.3.2-Full/MotorControl/MCSDK/MCLib/Any/Src/sto_pll_speed_pos_fdbk.c **** 
 286              		.loc 1 288 5 is_stmt 1 view .LVU119
 288:MCSDK_v6.3.2-Full/MotorControl/MCSDK/MCLib/Any/Src/sto_pll_speed_pos_fdbk.c **** 
 287              		.loc 1 288 21 is_stmt 0 view .LVU120
 288 0102 06FB1E37 		mls	r7, r6, lr, r3
 289              	.LVL17:
 290:MCSDK_v6.3.2-Full/MotorControl/MCSDK/MCLib/Any/Src/sto_pll_speed_pos_fdbk.c ****     wBemf_alfa_est_Next = pHandle->wBemf_alfa_est + wAux;
 290              		.loc 1 290 5 is_stmt 1 view .LVU121
 291:MCSDK_v6.3.2-Full/MotorControl/MCSDK/MCLib/Any/Src/sto_pll_speed_pos_fdbk.c **** 
 291              		.loc 1 291 5 view .LVU122
 294:MCSDK_v6.3.2-Full/MotorControl/MCSDK/MCLib/Any/Src/sto_pll_speed_pos_fdbk.c **** #else
ARM GAS  /tmp/ccaxKBZ0.s 			page 13


 292              		.loc 1 294 5 view .LVU123
 339:MCSDK_v6.3.2-Full/MotorControl/MCSDK/MCLib/Any/Src/sto_pll_speed_pos_fdbk.c **** 
 340:MCSDK_v6.3.2-Full/MotorControl/MCSDK/MCLib/Any/Src/sto_pll_speed_pos_fdbk.c ****     if (0 == pHandle->hForcedDirection)
 293              		.loc 1 340 21 is_stmt 0 view .LVU124
 294 0106 94F92401 		ldrsb	r0, [r4, #292]
 300:MCSDK_v6.3.2-Full/MotorControl/MCSDK/MCLib/Any/Src/sto_pll_speed_pos_fdbk.c ****     wBemf_alfa_est_Next += wAux;
 295              		.loc 1 300 27 view .LVU125
 296 010a B4F90E30 		ldrsh	r3, [r4, #14]
 321:MCSDK_v6.3.2-Full/MotorControl/MCSDK/MCLib/Any/Src/sto_pll_speed_pos_fdbk.c **** 
 297              		.loc 1 321 21 view .LVU126
 298 010e 06FB1C86 		mls	r6, r6, ip, r8
 294:MCSDK_v6.3.2-Full/MotorControl/MCSDK/MCLib/Any/Src/sto_pll_speed_pos_fdbk.c **** #else
 299              		.loc 1 294 10 view .LVU127
 300 0112 4CFA02FC 		asr	ip, ip, r2
 301              	.LVL18:
 299:MCSDK_v6.3.2-Full/MotorControl/MCSDK/MCLib/Any/Src/sto_pll_speed_pos_fdbk.c ****     wAux = pHandle->_Super.hElSpeedDpp * wAux;
 302              		.loc 1 299 5 is_stmt 1 view .LVU128
 327:MCSDK_v6.3.2-Full/MotorControl/MCSDK/MCLib/Any/Src/sto_pll_speed_pos_fdbk.c **** #else
 303              		.loc 1 327 10 is_stmt 0 view .LVU129
 304 0116 4EFA02F2 		asr	r2, lr, r2
 299:MCSDK_v6.3.2-Full/MotorControl/MCSDK/MCLib/Any/Src/sto_pll_speed_pos_fdbk.c ****     wAux = pHandle->_Super.hElSpeedDpp * wAux;
 305              		.loc 1 299 10 view .LVU130
 306 011a 0CFB09FC 		mul	ip, ip, r9
 307              	.LVL19:
 300:MCSDK_v6.3.2-Full/MotorControl/MCSDK/MCLib/Any/Src/sto_pll_speed_pos_fdbk.c ****     wBemf_alfa_est_Next += wAux;
 308              		.loc 1 300 5 is_stmt 1 view .LVU131
 301:MCSDK_v6.3.2-Full/MotorControl/MCSDK/MCLib/Any/Src/sto_pll_speed_pos_fdbk.c **** 
 309              		.loc 1 301 5 view .LVU132
 332:MCSDK_v6.3.2-Full/MotorControl/MCSDK/MCLib/Any/Src/sto_pll_speed_pos_fdbk.c ****     wAux = pHandle->_Super.hElSpeedDpp * wAux;
 310              		.loc 1 332 10 is_stmt 0 view .LVU133
 311 011e 02FB09F2 		mul	r2, r2, r9
 301:MCSDK_v6.3.2-Full/MotorControl/MCSDK/MCLib/Any/Src/sto_pll_speed_pos_fdbk.c **** 
 312              		.loc 1 301 25 view .LVU134
 313 0122 0CFB0318 		mla	r8, ip, r3, r1
 314              	.LVL20:
 306:MCSDK_v6.3.2-Full/MotorControl/MCSDK/MCLib/Any/Src/sto_pll_speed_pos_fdbk.c **** #else
 315              		.loc 1 306 5 is_stmt 1 view .LVU135
 311:MCSDK_v6.3.2-Full/MotorControl/MCSDK/MCLib/Any/Src/sto_pll_speed_pos_fdbk.c ****     wIbeta_est_Next = pHandle->Ibeta_est - wAux;
 316              		.loc 1 311 5 view .LVU136
 312:MCSDK_v6.3.2-Full/MotorControl/MCSDK/MCLib/Any/Src/sto_pll_speed_pos_fdbk.c **** 
 317              		.loc 1 312 5 view .LVU137
 314:MCSDK_v6.3.2-Full/MotorControl/MCSDK/MCLib/Any/Src/sto_pll_speed_pos_fdbk.c ****     wIbeta_est_Next += wAux;
 318              		.loc 1 314 5 view .LVU138
 315:MCSDK_v6.3.2-Full/MotorControl/MCSDK/MCLib/Any/Src/sto_pll_speed_pos_fdbk.c **** 
 319              		.loc 1 315 5 view .LVU139
 317:MCSDK_v6.3.2-Full/MotorControl/MCSDK/MCLib/Any/Src/sto_pll_speed_pos_fdbk.c ****     wIbeta_est_Next += wAux;
 320              		.loc 1 317 5 view .LVU140
 318:MCSDK_v6.3.2-Full/MotorControl/MCSDK/MCLib/Any/Src/sto_pll_speed_pos_fdbk.c **** 
 321              		.loc 1 318 5 view .LVU141
 320:MCSDK_v6.3.2-Full/MotorControl/MCSDK/MCLib/Any/Src/sto_pll_speed_pos_fdbk.c ****     wIbeta_est_Next -= wAux;
 322              		.loc 1 320 5 view .LVU142
 321:MCSDK_v6.3.2-Full/MotorControl/MCSDK/MCLib/Any/Src/sto_pll_speed_pos_fdbk.c **** 
 323              		.loc 1 321 5 view .LVU143
 323:MCSDK_v6.3.2-Full/MotorControl/MCSDK/MCLib/Any/Src/sto_pll_speed_pos_fdbk.c ****     wBemf_beta_est_Next = pHandle->wBemf_beta_est + wAux;
 324              		.loc 1 323 5 view .LVU144
 324:MCSDK_v6.3.2-Full/MotorControl/MCSDK/MCLib/Any/Src/sto_pll_speed_pos_fdbk.c **** 
 325              		.loc 1 324 5 view .LVU145
ARM GAS  /tmp/ccaxKBZ0.s 			page 14


 327:MCSDK_v6.3.2-Full/MotorControl/MCSDK/MCLib/Any/Src/sto_pll_speed_pos_fdbk.c **** #else
 326              		.loc 1 327 5 view .LVU146
 332:MCSDK_v6.3.2-Full/MotorControl/MCSDK/MCLib/Any/Src/sto_pll_speed_pos_fdbk.c ****     wAux = pHandle->_Super.hElSpeedDpp * wAux;
 327              		.loc 1 332 5 view .LVU147
 333:MCSDK_v6.3.2-Full/MotorControl/MCSDK/MCLib/Any/Src/sto_pll_speed_pos_fdbk.c ****     wBemf_beta_est_Next -= wAux;
 328              		.loc 1 333 5 view .LVU148
 334:MCSDK_v6.3.2-Full/MotorControl/MCSDK/MCLib/Any/Src/sto_pll_speed_pos_fdbk.c **** 
 329              		.loc 1 334 5 view .LVU149
 334:MCSDK_v6.3.2-Full/MotorControl/MCSDK/MCLib/Any/Src/sto_pll_speed_pos_fdbk.c **** 
 330              		.loc 1 334 25 is_stmt 0 view .LVU150
 331 0126 02FB13AA 		mls	r10, r2, r3, r10
 332              	.LVL21:
 337:MCSDK_v6.3.2-Full/MotorControl/MCSDK/MCLib/Any/Src/sto_pll_speed_pos_fdbk.c ****     pHandle->hBemf_beta_est = hAux_Beta;
 333              		.loc 1 337 5 is_stmt 1 view .LVU151
 338:MCSDK_v6.3.2-Full/MotorControl/MCSDK/MCLib/Any/Src/sto_pll_speed_pos_fdbk.c **** 
 334              		.loc 1 338 5 view .LVU152
 335              		.loc 1 340 5 view .LVU153
 336              		.loc 1 340 8 is_stmt 0 view .LVU154
 337 012a 0028     		cmp	r0, #0
 338 012c 42D1     		bne	.L13
 341:MCSDK_v6.3.2-Full/MotorControl/MCSDK/MCLib/Any/Src/sto_pll_speed_pos_fdbk.c ****     {
 342:MCSDK_v6.3.2-Full/MotorControl/MCSDK/MCLib/Any/Src/sto_pll_speed_pos_fdbk.c ****       /* We are in auxiliary mode, then rely on the speed detected */
 343:MCSDK_v6.3.2-Full/MotorControl/MCSDK/MCLib/Any/Src/sto_pll_speed_pos_fdbk.c ****       if(pHandle->_Super.hElSpeedDpp >= 0)
 339              		.loc 1 343 7 is_stmt 1 view .LVU155
 340              		.loc 1 343 9 is_stmt 0 view .LVU156
 341 012e 002B     		cmp	r3, #0
 342 0130 4FF6FF79 		movw	r9, #65535
 343 0134 A8BF     		it	ge
 344 0136 4FF00109 		movge	r9, #1
 345              	.L14:
 344:MCSDK_v6.3.2-Full/MotorControl/MCSDK/MCLib/Any/Src/sto_pll_speed_pos_fdbk.c ****       {
 345:MCSDK_v6.3.2-Full/MotorControl/MCSDK/MCLib/Any/Src/sto_pll_speed_pos_fdbk.c ****         wDirection = 1;
 346:MCSDK_v6.3.2-Full/MotorControl/MCSDK/MCLib/Any/Src/sto_pll_speed_pos_fdbk.c ****       }
 347:MCSDK_v6.3.2-Full/MotorControl/MCSDK/MCLib/Any/Src/sto_pll_speed_pos_fdbk.c ****       else
 348:MCSDK_v6.3.2-Full/MotorControl/MCSDK/MCLib/Any/Src/sto_pll_speed_pos_fdbk.c ****       {
 349:MCSDK_v6.3.2-Full/MotorControl/MCSDK/MCLib/Any/Src/sto_pll_speed_pos_fdbk.c ****         wDirection = -1;
 350:MCSDK_v6.3.2-Full/MotorControl/MCSDK/MCLib/Any/Src/sto_pll_speed_pos_fdbk.c ****       }
 351:MCSDK_v6.3.2-Full/MotorControl/MCSDK/MCLib/Any/Src/sto_pll_speed_pos_fdbk.c ****     }
 352:MCSDK_v6.3.2-Full/MotorControl/MCSDK/MCLib/Any/Src/sto_pll_speed_pos_fdbk.c ****     else
 353:MCSDK_v6.3.2-Full/MotorControl/MCSDK/MCLib/Any/Src/sto_pll_speed_pos_fdbk.c ****     {
 354:MCSDK_v6.3.2-Full/MotorControl/MCSDK/MCLib/Any/Src/sto_pll_speed_pos_fdbk.c ****       /* We are in main sensor mode, use a forced direction */
 355:MCSDK_v6.3.2-Full/MotorControl/MCSDK/MCLib/Any/Src/sto_pll_speed_pos_fdbk.c ****       wDirection = pHandle->hForcedDirection;
 356:MCSDK_v6.3.2-Full/MotorControl/MCSDK/MCLib/Any/Src/sto_pll_speed_pos_fdbk.c ****     }
 357:MCSDK_v6.3.2-Full/MotorControl/MCSDK/MCLib/Any/Src/sto_pll_speed_pos_fdbk.c **** 
 358:MCSDK_v6.3.2-Full/MotorControl/MCSDK/MCLib/Any/Src/sto_pll_speed_pos_fdbk.c ****     hAux_Alfa = (int16_t)(hAux_Alfa * wDirection);
 346              		.loc 1 358 5 is_stmt 1 view .LVU157
 347              	.LVL22:
 359:MCSDK_v6.3.2-Full/MotorControl/MCSDK/MCLib/Any/Src/sto_pll_speed_pos_fdbk.c ****     hAux_Beta = (int16_t)(hAux_Beta * wDirection);
 348              		.loc 1 359 5 view .LVU158
 360:MCSDK_v6.3.2-Full/MotorControl/MCSDK/MCLib/Any/Src/sto_pll_speed_pos_fdbk.c **** 
 361:MCSDK_v6.3.2-Full/MotorControl/MCSDK/MCLib/Any/Src/sto_pll_speed_pos_fdbk.c ****     hRotor_Speed = STO_ExecutePLL(pHandle, hAux_Alfa, -hAux_Beta);
 349              		.loc 1 361 5 view .LVU159
 350              	.LBB13:
 351              	.LBI13:
 362:MCSDK_v6.3.2-Full/MotorControl/MCSDK/MCLib/Any/Src/sto_pll_speed_pos_fdbk.c ****     pHandle->_Super.InstantaneousElSpeedDpp = hRotor_Speed;
 363:MCSDK_v6.3.2-Full/MotorControl/MCSDK/MCLib/Any/Src/sto_pll_speed_pos_fdbk.c **** 
 364:MCSDK_v6.3.2-Full/MotorControl/MCSDK/MCLib/Any/Src/sto_pll_speed_pos_fdbk.c ****     STO_Store_Rotor_Speed(pHandle, hRotor_Speed);
ARM GAS  /tmp/ccaxKBZ0.s 			page 15


 365:MCSDK_v6.3.2-Full/MotorControl/MCSDK/MCLib/Any/Src/sto_pll_speed_pos_fdbk.c **** 
 366:MCSDK_v6.3.2-Full/MotorControl/MCSDK/MCLib/Any/Src/sto_pll_speed_pos_fdbk.c ****     pHandle->_Super.hElAngle += hRotor_Speed;
 367:MCSDK_v6.3.2-Full/MotorControl/MCSDK/MCLib/Any/Src/sto_pll_speed_pos_fdbk.c **** 
 368:MCSDK_v6.3.2-Full/MotorControl/MCSDK/MCLib/Any/Src/sto_pll_speed_pos_fdbk.c ****     /* Storing previous values of currents and bemfs */
 369:MCSDK_v6.3.2-Full/MotorControl/MCSDK/MCLib/Any/Src/sto_pll_speed_pos_fdbk.c ****     pHandle->Ialfa_est = wIalfa_est_Next;
 370:MCSDK_v6.3.2-Full/MotorControl/MCSDK/MCLib/Any/Src/sto_pll_speed_pos_fdbk.c ****     pHandle->wBemf_alfa_est = wBemf_alfa_est_Next;
 371:MCSDK_v6.3.2-Full/MotorControl/MCSDK/MCLib/Any/Src/sto_pll_speed_pos_fdbk.c **** 
 372:MCSDK_v6.3.2-Full/MotorControl/MCSDK/MCLib/Any/Src/sto_pll_speed_pos_fdbk.c ****     pHandle->Ibeta_est = wIbeta_est_Next;
 373:MCSDK_v6.3.2-Full/MotorControl/MCSDK/MCLib/Any/Src/sto_pll_speed_pos_fdbk.c ****     pHandle->wBemf_beta_est = wBemf_beta_est_Next;
 374:MCSDK_v6.3.2-Full/MotorControl/MCSDK/MCLib/Any/Src/sto_pll_speed_pos_fdbk.c ****     retValue = pHandle->_Super.hElAngle;
 375:MCSDK_v6.3.2-Full/MotorControl/MCSDK/MCLib/Any/Src/sto_pll_speed_pos_fdbk.c ****   }
 376:MCSDK_v6.3.2-Full/MotorControl/MCSDK/MCLib/Any/Src/sto_pll_speed_pos_fdbk.c ****   return (retValue);
 377:MCSDK_v6.3.2-Full/MotorControl/MCSDK/MCLib/Any/Src/sto_pll_speed_pos_fdbk.c **** }
 378:MCSDK_v6.3.2-Full/MotorControl/MCSDK/MCLib/Any/Src/sto_pll_speed_pos_fdbk.c **** 
 379:MCSDK_v6.3.2-Full/MotorControl/MCSDK/MCLib/Any/Src/sto_pll_speed_pos_fdbk.c **** /**
 380:MCSDK_v6.3.2-Full/MotorControl/MCSDK/MCLib/Any/Src/sto_pll_speed_pos_fdbk.c ****   * @brief  Computes and returns the average mechanical speed.
 381:MCSDK_v6.3.2-Full/MotorControl/MCSDK/MCLib/Any/Src/sto_pll_speed_pos_fdbk.c ****   * 
 382:MCSDK_v6.3.2-Full/MotorControl/MCSDK/MCLib/Any/Src/sto_pll_speed_pos_fdbk.c ****   * This method must be called - at least - with the same periodicity
 383:MCSDK_v6.3.2-Full/MotorControl/MCSDK/MCLib/Any/Src/sto_pll_speed_pos_fdbk.c ****   * on which speed control is executed. It computes and returns - through
 384:MCSDK_v6.3.2-Full/MotorControl/MCSDK/MCLib/Any/Src/sto_pll_speed_pos_fdbk.c ****   * parameter hMecSpeedUnit - the rotor average mechanical speed,
 385:MCSDK_v6.3.2-Full/MotorControl/MCSDK/MCLib/Any/Src/sto_pll_speed_pos_fdbk.c ****   * expressed in #SPEED_UNIT. Average is computed considering a FIFO depth
 386:MCSDK_v6.3.2-Full/MotorControl/MCSDK/MCLib/Any/Src/sto_pll_speed_pos_fdbk.c ****   * equal to bSpeedBufferSizeUnit. Moreover it also computes and returns
 387:MCSDK_v6.3.2-Full/MotorControl/MCSDK/MCLib/Any/Src/sto_pll_speed_pos_fdbk.c ****   * the reliability state of the sensor.
 388:MCSDK_v6.3.2-Full/MotorControl/MCSDK/MCLib/Any/Src/sto_pll_speed_pos_fdbk.c ****   * 
 389:MCSDK_v6.3.2-Full/MotorControl/MCSDK/MCLib/Any/Src/sto_pll_speed_pos_fdbk.c ****   * @param  pHandle: Handler of the current instance of the STO component.
 390:MCSDK_v6.3.2-Full/MotorControl/MCSDK/MCLib/Any/Src/sto_pll_speed_pos_fdbk.c ****   * @param  pMecSpeedUnit: Pointer to int16_t, used to return the rotor average
 391:MCSDK_v6.3.2-Full/MotorControl/MCSDK/MCLib/Any/Src/sto_pll_speed_pos_fdbk.c ****   *         mechanical speed (expressed in #SPEED_UNIT).
 392:MCSDK_v6.3.2-Full/MotorControl/MCSDK/MCLib/Any/Src/sto_pll_speed_pos_fdbk.c ****   * @retval True if the sensor information is reliable, false otherwise.
 393:MCSDK_v6.3.2-Full/MotorControl/MCSDK/MCLib/Any/Src/sto_pll_speed_pos_fdbk.c ****   */
 394:MCSDK_v6.3.2-Full/MotorControl/MCSDK/MCLib/Any/Src/sto_pll_speed_pos_fdbk.c **** 
 395:MCSDK_v6.3.2-Full/MotorControl/MCSDK/MCLib/Any/Src/sto_pll_speed_pos_fdbk.c **** __weak bool STO_PLL_CalcAvrgMecSpeedUnit(STO_PLL_Handle_t *pHandle, int16_t *pMecSpeedUnit)
 396:MCSDK_v6.3.2-Full/MotorControl/MCSDK/MCLib/Any/Src/sto_pll_speed_pos_fdbk.c **** {
 397:MCSDK_v6.3.2-Full/MotorControl/MCSDK/MCLib/Any/Src/sto_pll_speed_pos_fdbk.c ****   bool bAux;
 398:MCSDK_v6.3.2-Full/MotorControl/MCSDK/MCLib/Any/Src/sto_pll_speed_pos_fdbk.c **** #ifdef NULL_PTR_CHECK_STO_PLL_SPD_POS_FDB
 399:MCSDK_v6.3.2-Full/MotorControl/MCSDK/MCLib/Any/Src/sto_pll_speed_pos_fdbk.c ****   if ((MC_NULL == pHandle) || (MC_NULL == pMecSpeedUnit))
 400:MCSDK_v6.3.2-Full/MotorControl/MCSDK/MCLib/Any/Src/sto_pll_speed_pos_fdbk.c ****   {
 401:MCSDK_v6.3.2-Full/MotorControl/MCSDK/MCLib/Any/Src/sto_pll_speed_pos_fdbk.c ****     bAux = false;
 402:MCSDK_v6.3.2-Full/MotorControl/MCSDK/MCLib/Any/Src/sto_pll_speed_pos_fdbk.c ****   }
 403:MCSDK_v6.3.2-Full/MotorControl/MCSDK/MCLib/Any/Src/sto_pll_speed_pos_fdbk.c ****   else
 404:MCSDK_v6.3.2-Full/MotorControl/MCSDK/MCLib/Any/Src/sto_pll_speed_pos_fdbk.c ****   {
 405:MCSDK_v6.3.2-Full/MotorControl/MCSDK/MCLib/Any/Src/sto_pll_speed_pos_fdbk.c **** #endif
 406:MCSDK_v6.3.2-Full/MotorControl/MCSDK/MCLib/Any/Src/sto_pll_speed_pos_fdbk.c ****     int32_t wAvrSpeed_dpp = (int32_t)0;
 407:MCSDK_v6.3.2-Full/MotorControl/MCSDK/MCLib/Any/Src/sto_pll_speed_pos_fdbk.c ****     int32_t wError;
 408:MCSDK_v6.3.2-Full/MotorControl/MCSDK/MCLib/Any/Src/sto_pll_speed_pos_fdbk.c ****     int32_t wAux;
 409:MCSDK_v6.3.2-Full/MotorControl/MCSDK/MCLib/Any/Src/sto_pll_speed_pos_fdbk.c ****     int32_t wAvrSquareSpeed;
 410:MCSDK_v6.3.2-Full/MotorControl/MCSDK/MCLib/Any/Src/sto_pll_speed_pos_fdbk.c ****     int32_t wAvrQuadraticError = 0;
 411:MCSDK_v6.3.2-Full/MotorControl/MCSDK/MCLib/Any/Src/sto_pll_speed_pos_fdbk.c ****     int32_t wObsBemf, wEstBemf;
 412:MCSDK_v6.3.2-Full/MotorControl/MCSDK/MCLib/Any/Src/sto_pll_speed_pos_fdbk.c ****     int32_t wObsBemfSq = 0;
 413:MCSDK_v6.3.2-Full/MotorControl/MCSDK/MCLib/Any/Src/sto_pll_speed_pos_fdbk.c ****     int32_t wEstBemfSq = 0;
 414:MCSDK_v6.3.2-Full/MotorControl/MCSDK/MCLib/Any/Src/sto_pll_speed_pos_fdbk.c ****     int32_t wEstBemfSqLo;
 415:MCSDK_v6.3.2-Full/MotorControl/MCSDK/MCLib/Any/Src/sto_pll_speed_pos_fdbk.c ****     bool bIs_Speed_Reliable = false;
 416:MCSDK_v6.3.2-Full/MotorControl/MCSDK/MCLib/Any/Src/sto_pll_speed_pos_fdbk.c ****     bool bIs_Bemf_Consistent = false;
 417:MCSDK_v6.3.2-Full/MotorControl/MCSDK/MCLib/Any/Src/sto_pll_speed_pos_fdbk.c ****     uint8_t i, bSpeedBufferSizeUnit = pHandle->SpeedBufferSizeUnit;
 418:MCSDK_v6.3.2-Full/MotorControl/MCSDK/MCLib/Any/Src/sto_pll_speed_pos_fdbk.c **** 
 419:MCSDK_v6.3.2-Full/MotorControl/MCSDK/MCLib/Any/Src/sto_pll_speed_pos_fdbk.c ****     for (i = 0U; i < bSpeedBufferSizeUnit; i++)
 420:MCSDK_v6.3.2-Full/MotorControl/MCSDK/MCLib/Any/Src/sto_pll_speed_pos_fdbk.c ****     {
 421:MCSDK_v6.3.2-Full/MotorControl/MCSDK/MCLib/Any/Src/sto_pll_speed_pos_fdbk.c ****       wAvrSpeed_dpp += (int32_t)(pHandle->Speed_Buffer[i]);
ARM GAS  /tmp/ccaxKBZ0.s 			page 16


 422:MCSDK_v6.3.2-Full/MotorControl/MCSDK/MCLib/Any/Src/sto_pll_speed_pos_fdbk.c ****     }
 423:MCSDK_v6.3.2-Full/MotorControl/MCSDK/MCLib/Any/Src/sto_pll_speed_pos_fdbk.c **** 
 424:MCSDK_v6.3.2-Full/MotorControl/MCSDK/MCLib/Any/Src/sto_pll_speed_pos_fdbk.c ****     if (0U == bSpeedBufferSizeUnit)
 425:MCSDK_v6.3.2-Full/MotorControl/MCSDK/MCLib/Any/Src/sto_pll_speed_pos_fdbk.c ****     {
 426:MCSDK_v6.3.2-Full/MotorControl/MCSDK/MCLib/Any/Src/sto_pll_speed_pos_fdbk.c ****       /* Nothing to do */
 427:MCSDK_v6.3.2-Full/MotorControl/MCSDK/MCLib/Any/Src/sto_pll_speed_pos_fdbk.c ****     }
 428:MCSDK_v6.3.2-Full/MotorControl/MCSDK/MCLib/Any/Src/sto_pll_speed_pos_fdbk.c ****     else
 429:MCSDK_v6.3.2-Full/MotorControl/MCSDK/MCLib/Any/Src/sto_pll_speed_pos_fdbk.c ****     {
 430:MCSDK_v6.3.2-Full/MotorControl/MCSDK/MCLib/Any/Src/sto_pll_speed_pos_fdbk.c ****       wAvrSpeed_dpp = wAvrSpeed_dpp / ((int16_t)bSpeedBufferSizeUnit);
 431:MCSDK_v6.3.2-Full/MotorControl/MCSDK/MCLib/Any/Src/sto_pll_speed_pos_fdbk.c ****     }
 432:MCSDK_v6.3.2-Full/MotorControl/MCSDK/MCLib/Any/Src/sto_pll_speed_pos_fdbk.c **** 
 433:MCSDK_v6.3.2-Full/MotorControl/MCSDK/MCLib/Any/Src/sto_pll_speed_pos_fdbk.c ****     for (i = 0U; i < bSpeedBufferSizeUnit; i++)
 434:MCSDK_v6.3.2-Full/MotorControl/MCSDK/MCLib/Any/Src/sto_pll_speed_pos_fdbk.c ****     {
 435:MCSDK_v6.3.2-Full/MotorControl/MCSDK/MCLib/Any/Src/sto_pll_speed_pos_fdbk.c ****       wError = ((int32_t)pHandle->Speed_Buffer[i]) - wAvrSpeed_dpp;
 436:MCSDK_v6.3.2-Full/MotorControl/MCSDK/MCLib/Any/Src/sto_pll_speed_pos_fdbk.c ****       wError = (wError * wError);
 437:MCSDK_v6.3.2-Full/MotorControl/MCSDK/MCLib/Any/Src/sto_pll_speed_pos_fdbk.c ****       wAvrQuadraticError += wError;
 438:MCSDK_v6.3.2-Full/MotorControl/MCSDK/MCLib/Any/Src/sto_pll_speed_pos_fdbk.c ****     }
 439:MCSDK_v6.3.2-Full/MotorControl/MCSDK/MCLib/Any/Src/sto_pll_speed_pos_fdbk.c **** 
 440:MCSDK_v6.3.2-Full/MotorControl/MCSDK/MCLib/Any/Src/sto_pll_speed_pos_fdbk.c ****     /* It computes the measurement variance */
 441:MCSDK_v6.3.2-Full/MotorControl/MCSDK/MCLib/Any/Src/sto_pll_speed_pos_fdbk.c ****     wAvrQuadraticError = wAvrQuadraticError / ((int16_t)bSpeedBufferSizeUnit);
 442:MCSDK_v6.3.2-Full/MotorControl/MCSDK/MCLib/Any/Src/sto_pll_speed_pos_fdbk.c **** 
 443:MCSDK_v6.3.2-Full/MotorControl/MCSDK/MCLib/Any/Src/sto_pll_speed_pos_fdbk.c ****     /* The maximum variance acceptable is here calculated as a function of average speed */
 444:MCSDK_v6.3.2-Full/MotorControl/MCSDK/MCLib/Any/Src/sto_pll_speed_pos_fdbk.c ****     wAvrSquareSpeed = wAvrSpeed_dpp * wAvrSpeed_dpp;
 445:MCSDK_v6.3.2-Full/MotorControl/MCSDK/MCLib/Any/Src/sto_pll_speed_pos_fdbk.c ****     int64_t lAvrSquareSpeed = (int64_t)(wAvrSquareSpeed) * (int64_t)pHandle->VariancePercentage;
 446:MCSDK_v6.3.2-Full/MotorControl/MCSDK/MCLib/Any/Src/sto_pll_speed_pos_fdbk.c ****     wAvrSquareSpeed = (int32_t)(lAvrSquareSpeed / (int64_t)128);
 447:MCSDK_v6.3.2-Full/MotorControl/MCSDK/MCLib/Any/Src/sto_pll_speed_pos_fdbk.c ****     
 448:MCSDK_v6.3.2-Full/MotorControl/MCSDK/MCLib/Any/Src/sto_pll_speed_pos_fdbk.c ****     if (wAvrQuadraticError < wAvrSquareSpeed)
 449:MCSDK_v6.3.2-Full/MotorControl/MCSDK/MCLib/Any/Src/sto_pll_speed_pos_fdbk.c ****     {
 450:MCSDK_v6.3.2-Full/MotorControl/MCSDK/MCLib/Any/Src/sto_pll_speed_pos_fdbk.c ****       bIs_Speed_Reliable = true;
 451:MCSDK_v6.3.2-Full/MotorControl/MCSDK/MCLib/Any/Src/sto_pll_speed_pos_fdbk.c ****     }
 452:MCSDK_v6.3.2-Full/MotorControl/MCSDK/MCLib/Any/Src/sto_pll_speed_pos_fdbk.c **** 
 453:MCSDK_v6.3.2-Full/MotorControl/MCSDK/MCLib/Any/Src/sto_pll_speed_pos_fdbk.c ****     /* Computation of Mechanical speed Unit */
 454:MCSDK_v6.3.2-Full/MotorControl/MCSDK/MCLib/Any/Src/sto_pll_speed_pos_fdbk.c ****     wAux = wAvrSpeed_dpp * ((int32_t)pHandle->_Super.hMeasurementFrequency);
 455:MCSDK_v6.3.2-Full/MotorControl/MCSDK/MCLib/Any/Src/sto_pll_speed_pos_fdbk.c ****     wAux = wAux * ((int32_t)pHandle->_Super.SpeedUnit);
 456:MCSDK_v6.3.2-Full/MotorControl/MCSDK/MCLib/Any/Src/sto_pll_speed_pos_fdbk.c ****     wAux = wAux / ((int32_t)pHandle->_Super.DPPConvFactor);
 457:MCSDK_v6.3.2-Full/MotorControl/MCSDK/MCLib/Any/Src/sto_pll_speed_pos_fdbk.c ****     wAux = wAux / ((int16_t)pHandle->_Super.bElToMecRatio);
 458:MCSDK_v6.3.2-Full/MotorControl/MCSDK/MCLib/Any/Src/sto_pll_speed_pos_fdbk.c **** 
 459:MCSDK_v6.3.2-Full/MotorControl/MCSDK/MCLib/Any/Src/sto_pll_speed_pos_fdbk.c ****     *pMecSpeedUnit = (int16_t)wAux;
 460:MCSDK_v6.3.2-Full/MotorControl/MCSDK/MCLib/Any/Src/sto_pll_speed_pos_fdbk.c ****     pHandle->_Super.hAvrMecSpeedUnit = (int16_t)wAux;
 461:MCSDK_v6.3.2-Full/MotorControl/MCSDK/MCLib/Any/Src/sto_pll_speed_pos_fdbk.c **** 
 462:MCSDK_v6.3.2-Full/MotorControl/MCSDK/MCLib/Any/Src/sto_pll_speed_pos_fdbk.c ****     pHandle->IsSpeedReliable = bIs_Speed_Reliable;
 463:MCSDK_v6.3.2-Full/MotorControl/MCSDK/MCLib/Any/Src/sto_pll_speed_pos_fdbk.c **** 
 464:MCSDK_v6.3.2-Full/MotorControl/MCSDK/MCLib/Any/Src/sto_pll_speed_pos_fdbk.c ****     /* Bemf Consistency Check algorithm */
 465:MCSDK_v6.3.2-Full/MotorControl/MCSDK/MCLib/Any/Src/sto_pll_speed_pos_fdbk.c ****     if (true == pHandle->EnableDualCheck) /* Do algorithm if it's enabled */
 466:MCSDK_v6.3.2-Full/MotorControl/MCSDK/MCLib/Any/Src/sto_pll_speed_pos_fdbk.c ****     {
 467:MCSDK_v6.3.2-Full/MotorControl/MCSDK/MCLib/Any/Src/sto_pll_speed_pos_fdbk.c ****       /* wAux abs value */
 468:MCSDK_v6.3.2-Full/MotorControl/MCSDK/MCLib/Any/Src/sto_pll_speed_pos_fdbk.c ****       //cstat !MISRAC2012-Rule-14.3_b !RED-func-no-effect !RED-cmp-never !RED-cond-never
 469:MCSDK_v6.3.2-Full/MotorControl/MCSDK/MCLib/Any/Src/sto_pll_speed_pos_fdbk.c ****       wAux = ((wAux < 0) ? (-wAux) : (wAux));
 470:MCSDK_v6.3.2-Full/MotorControl/MCSDK/MCLib/Any/Src/sto_pll_speed_pos_fdbk.c ****       if (wAux < (int32_t)(pHandle->MaxAppPositiveMecSpeedUnit))
 471:MCSDK_v6.3.2-Full/MotorControl/MCSDK/MCLib/Any/Src/sto_pll_speed_pos_fdbk.c ****       {
 472:MCSDK_v6.3.2-Full/MotorControl/MCSDK/MCLib/Any/Src/sto_pll_speed_pos_fdbk.c ****         /* Computation of Observed back-emf */
 473:MCSDK_v6.3.2-Full/MotorControl/MCSDK/MCLib/Any/Src/sto_pll_speed_pos_fdbk.c ****         wObsBemf = (int32_t)pHandle->hBemf_alfa_est;
 474:MCSDK_v6.3.2-Full/MotorControl/MCSDK/MCLib/Any/Src/sto_pll_speed_pos_fdbk.c ****         wObsBemfSq = wObsBemf * wObsBemf;
 475:MCSDK_v6.3.2-Full/MotorControl/MCSDK/MCLib/Any/Src/sto_pll_speed_pos_fdbk.c ****         wObsBemf = (int32_t)pHandle->hBemf_beta_est;
 476:MCSDK_v6.3.2-Full/MotorControl/MCSDK/MCLib/Any/Src/sto_pll_speed_pos_fdbk.c ****         wObsBemfSq += wObsBemf * wObsBemf;
 477:MCSDK_v6.3.2-Full/MotorControl/MCSDK/MCLib/Any/Src/sto_pll_speed_pos_fdbk.c **** 
 478:MCSDK_v6.3.2-Full/MotorControl/MCSDK/MCLib/Any/Src/sto_pll_speed_pos_fdbk.c ****         /* Computation of Estimated back-emf */
ARM GAS  /tmp/ccaxKBZ0.s 			page 17


 479:MCSDK_v6.3.2-Full/MotorControl/MCSDK/MCLib/Any/Src/sto_pll_speed_pos_fdbk.c ****         wEstBemf = (wAux * 32767) / ((int16_t)pHandle->_Super.hMaxReliableMecSpeedUnit);
 480:MCSDK_v6.3.2-Full/MotorControl/MCSDK/MCLib/Any/Src/sto_pll_speed_pos_fdbk.c ****         wEstBemfSq = (wEstBemf * ((int32_t)pHandle->BemfConsistencyGain)) / 64;
 481:MCSDK_v6.3.2-Full/MotorControl/MCSDK/MCLib/Any/Src/sto_pll_speed_pos_fdbk.c ****         wEstBemfSq *= wEstBemf;
 482:MCSDK_v6.3.2-Full/MotorControl/MCSDK/MCLib/Any/Src/sto_pll_speed_pos_fdbk.c **** 
 483:MCSDK_v6.3.2-Full/MotorControl/MCSDK/MCLib/Any/Src/sto_pll_speed_pos_fdbk.c ****         /* Computation of threshold */
 484:MCSDK_v6.3.2-Full/MotorControl/MCSDK/MCLib/Any/Src/sto_pll_speed_pos_fdbk.c ****         wEstBemfSqLo = wEstBemfSq - ((wEstBemfSq / 64) * ((int32_t)pHandle->BemfConsistencyCheck));
 485:MCSDK_v6.3.2-Full/MotorControl/MCSDK/MCLib/Any/Src/sto_pll_speed_pos_fdbk.c **** 
 486:MCSDK_v6.3.2-Full/MotorControl/MCSDK/MCLib/Any/Src/sto_pll_speed_pos_fdbk.c ****         /* Check */
 487:MCSDK_v6.3.2-Full/MotorControl/MCSDK/MCLib/Any/Src/sto_pll_speed_pos_fdbk.c ****         if (wObsBemfSq > wEstBemfSqLo)
 488:MCSDK_v6.3.2-Full/MotorControl/MCSDK/MCLib/Any/Src/sto_pll_speed_pos_fdbk.c ****         {
 489:MCSDK_v6.3.2-Full/MotorControl/MCSDK/MCLib/Any/Src/sto_pll_speed_pos_fdbk.c ****           bIs_Bemf_Consistent = true;
 490:MCSDK_v6.3.2-Full/MotorControl/MCSDK/MCLib/Any/Src/sto_pll_speed_pos_fdbk.c ****         }
 491:MCSDK_v6.3.2-Full/MotorControl/MCSDK/MCLib/Any/Src/sto_pll_speed_pos_fdbk.c ****         else
 492:MCSDK_v6.3.2-Full/MotorControl/MCSDK/MCLib/Any/Src/sto_pll_speed_pos_fdbk.c ****         {
 493:MCSDK_v6.3.2-Full/MotorControl/MCSDK/MCLib/Any/Src/sto_pll_speed_pos_fdbk.c ****           /* Nothing to do */
 494:MCSDK_v6.3.2-Full/MotorControl/MCSDK/MCLib/Any/Src/sto_pll_speed_pos_fdbk.c ****         }
 495:MCSDK_v6.3.2-Full/MotorControl/MCSDK/MCLib/Any/Src/sto_pll_speed_pos_fdbk.c ****       }
 496:MCSDK_v6.3.2-Full/MotorControl/MCSDK/MCLib/Any/Src/sto_pll_speed_pos_fdbk.c **** 
 497:MCSDK_v6.3.2-Full/MotorControl/MCSDK/MCLib/Any/Src/sto_pll_speed_pos_fdbk.c ****       pHandle->IsBemfConsistent = bIs_Bemf_Consistent;
 498:MCSDK_v6.3.2-Full/MotorControl/MCSDK/MCLib/Any/Src/sto_pll_speed_pos_fdbk.c ****       pHandle->Obs_Bemf_Level = wObsBemfSq;
 499:MCSDK_v6.3.2-Full/MotorControl/MCSDK/MCLib/Any/Src/sto_pll_speed_pos_fdbk.c ****       pHandle->Est_Bemf_Level = wEstBemfSq;
 500:MCSDK_v6.3.2-Full/MotorControl/MCSDK/MCLib/Any/Src/sto_pll_speed_pos_fdbk.c ****     }
 501:MCSDK_v6.3.2-Full/MotorControl/MCSDK/MCLib/Any/Src/sto_pll_speed_pos_fdbk.c ****     else
 502:MCSDK_v6.3.2-Full/MotorControl/MCSDK/MCLib/Any/Src/sto_pll_speed_pos_fdbk.c ****     {
 503:MCSDK_v6.3.2-Full/MotorControl/MCSDK/MCLib/Any/Src/sto_pll_speed_pos_fdbk.c ****       bIs_Bemf_Consistent = true;
 504:MCSDK_v6.3.2-Full/MotorControl/MCSDK/MCLib/Any/Src/sto_pll_speed_pos_fdbk.c ****     }
 505:MCSDK_v6.3.2-Full/MotorControl/MCSDK/MCLib/Any/Src/sto_pll_speed_pos_fdbk.c **** 
 506:MCSDK_v6.3.2-Full/MotorControl/MCSDK/MCLib/Any/Src/sto_pll_speed_pos_fdbk.c ****     /* Decision making */
 507:MCSDK_v6.3.2-Full/MotorControl/MCSDK/MCLib/Any/Src/sto_pll_speed_pos_fdbk.c ****     if (false == pHandle->IsAlgorithmConverged)
 508:MCSDK_v6.3.2-Full/MotorControl/MCSDK/MCLib/Any/Src/sto_pll_speed_pos_fdbk.c ****     {
 509:MCSDK_v6.3.2-Full/MotorControl/MCSDK/MCLib/Any/Src/sto_pll_speed_pos_fdbk.c ****       bAux = SPD_IsMecSpeedReliable (&pHandle->_Super, pMecSpeedUnit);
 510:MCSDK_v6.3.2-Full/MotorControl/MCSDK/MCLib/Any/Src/sto_pll_speed_pos_fdbk.c ****     }
 511:MCSDK_v6.3.2-Full/MotorControl/MCSDK/MCLib/Any/Src/sto_pll_speed_pos_fdbk.c ****     else
 512:MCSDK_v6.3.2-Full/MotorControl/MCSDK/MCLib/Any/Src/sto_pll_speed_pos_fdbk.c ****     {
 513:MCSDK_v6.3.2-Full/MotorControl/MCSDK/MCLib/Any/Src/sto_pll_speed_pos_fdbk.c ****       if ((false == pHandle->IsSpeedReliable) || (false == bIs_Bemf_Consistent))
 514:MCSDK_v6.3.2-Full/MotorControl/MCSDK/MCLib/Any/Src/sto_pll_speed_pos_fdbk.c ****       {
 515:MCSDK_v6.3.2-Full/MotorControl/MCSDK/MCLib/Any/Src/sto_pll_speed_pos_fdbk.c ****         pHandle->ReliabilityCounter++;
 516:MCSDK_v6.3.2-Full/MotorControl/MCSDK/MCLib/Any/Src/sto_pll_speed_pos_fdbk.c ****         if (pHandle->ReliabilityCounter >= pHandle->_Super.bMaximumSpeedErrorsNumber)
 517:MCSDK_v6.3.2-Full/MotorControl/MCSDK/MCLib/Any/Src/sto_pll_speed_pos_fdbk.c ****         {
 518:MCSDK_v6.3.2-Full/MotorControl/MCSDK/MCLib/Any/Src/sto_pll_speed_pos_fdbk.c ****           pHandle->ReliabilityCounter = 0U;
 519:MCSDK_v6.3.2-Full/MotorControl/MCSDK/MCLib/Any/Src/sto_pll_speed_pos_fdbk.c ****           pHandle->_Super.bSpeedErrorNumber = pHandle->_Super.bMaximumSpeedErrorsNumber;
 520:MCSDK_v6.3.2-Full/MotorControl/MCSDK/MCLib/Any/Src/sto_pll_speed_pos_fdbk.c ****           bAux = false;
 521:MCSDK_v6.3.2-Full/MotorControl/MCSDK/MCLib/Any/Src/sto_pll_speed_pos_fdbk.c ****         }
 522:MCSDK_v6.3.2-Full/MotorControl/MCSDK/MCLib/Any/Src/sto_pll_speed_pos_fdbk.c ****         else
 523:MCSDK_v6.3.2-Full/MotorControl/MCSDK/MCLib/Any/Src/sto_pll_speed_pos_fdbk.c ****         {
 524:MCSDK_v6.3.2-Full/MotorControl/MCSDK/MCLib/Any/Src/sto_pll_speed_pos_fdbk.c ****           bAux = SPD_IsMecSpeedReliable (&pHandle->_Super, pMecSpeedUnit);
 525:MCSDK_v6.3.2-Full/MotorControl/MCSDK/MCLib/Any/Src/sto_pll_speed_pos_fdbk.c ****         }
 526:MCSDK_v6.3.2-Full/MotorControl/MCSDK/MCLib/Any/Src/sto_pll_speed_pos_fdbk.c ****       }
 527:MCSDK_v6.3.2-Full/MotorControl/MCSDK/MCLib/Any/Src/sto_pll_speed_pos_fdbk.c ****       else
 528:MCSDK_v6.3.2-Full/MotorControl/MCSDK/MCLib/Any/Src/sto_pll_speed_pos_fdbk.c ****       {
 529:MCSDK_v6.3.2-Full/MotorControl/MCSDK/MCLib/Any/Src/sto_pll_speed_pos_fdbk.c ****         pHandle->ReliabilityCounter = 0U;
 530:MCSDK_v6.3.2-Full/MotorControl/MCSDK/MCLib/Any/Src/sto_pll_speed_pos_fdbk.c ****         bAux = SPD_IsMecSpeedReliable (&pHandle->_Super, pMecSpeedUnit);
 531:MCSDK_v6.3.2-Full/MotorControl/MCSDK/MCLib/Any/Src/sto_pll_speed_pos_fdbk.c ****       }
 532:MCSDK_v6.3.2-Full/MotorControl/MCSDK/MCLib/Any/Src/sto_pll_speed_pos_fdbk.c ****     }
 533:MCSDK_v6.3.2-Full/MotorControl/MCSDK/MCLib/Any/Src/sto_pll_speed_pos_fdbk.c **** #ifdef NULL_PTR_CHECK_STO_PLL_SPD_POS_FDB
 534:MCSDK_v6.3.2-Full/MotorControl/MCSDK/MCLib/Any/Src/sto_pll_speed_pos_fdbk.c ****   }
 535:MCSDK_v6.3.2-Full/MotorControl/MCSDK/MCLib/Any/Src/sto_pll_speed_pos_fdbk.c **** #endif
ARM GAS  /tmp/ccaxKBZ0.s 			page 18


 536:MCSDK_v6.3.2-Full/MotorControl/MCSDK/MCLib/Any/Src/sto_pll_speed_pos_fdbk.c ****   return (bAux);
 537:MCSDK_v6.3.2-Full/MotorControl/MCSDK/MCLib/Any/Src/sto_pll_speed_pos_fdbk.c **** }
 538:MCSDK_v6.3.2-Full/MotorControl/MCSDK/MCLib/Any/Src/sto_pll_speed_pos_fdbk.c **** 
 539:MCSDK_v6.3.2-Full/MotorControl/MCSDK/MCLib/Any/Src/sto_pll_speed_pos_fdbk.c **** #if defined (CCMRAM)
 540:MCSDK_v6.3.2-Full/MotorControl/MCSDK/MCLib/Any/Src/sto_pll_speed_pos_fdbk.c **** #if defined (__ICCARM__)
 541:MCSDK_v6.3.2-Full/MotorControl/MCSDK/MCLib/Any/Src/sto_pll_speed_pos_fdbk.c **** #pragma location = ".ccmram"
 542:MCSDK_v6.3.2-Full/MotorControl/MCSDK/MCLib/Any/Src/sto_pll_speed_pos_fdbk.c **** #elif defined (__CC_ARM) || defined(__GNUC__)
 543:MCSDK_v6.3.2-Full/MotorControl/MCSDK/MCLib/Any/Src/sto_pll_speed_pos_fdbk.c **** __attribute__( ( section ( ".ccmram" ) ) )
 544:MCSDK_v6.3.2-Full/MotorControl/MCSDK/MCLib/Any/Src/sto_pll_speed_pos_fdbk.c **** #endif
 545:MCSDK_v6.3.2-Full/MotorControl/MCSDK/MCLib/Any/Src/sto_pll_speed_pos_fdbk.c **** #endif
 546:MCSDK_v6.3.2-Full/MotorControl/MCSDK/MCLib/Any/Src/sto_pll_speed_pos_fdbk.c **** /**
 547:MCSDK_v6.3.2-Full/MotorControl/MCSDK/MCLib/Any/Src/sto_pll_speed_pos_fdbk.c ****   * @brief  Computes and updates the average electrical speed.
 548:MCSDK_v6.3.2-Full/MotorControl/MCSDK/MCLib/Any/Src/sto_pll_speed_pos_fdbk.c ****   * 
 549:MCSDK_v6.3.2-Full/MotorControl/MCSDK/MCLib/Any/Src/sto_pll_speed_pos_fdbk.c ****   * This method must be called - at least - with the same periodicity
 550:MCSDK_v6.3.2-Full/MotorControl/MCSDK/MCLib/Any/Src/sto_pll_speed_pos_fdbk.c ****   * on which speed control is executed. It computes and update component
 551:MCSDK_v6.3.2-Full/MotorControl/MCSDK/MCLib/Any/Src/sto_pll_speed_pos_fdbk.c ****   * variable hElSpeedDpp that is estimated average electrical speed
 552:MCSDK_v6.3.2-Full/MotorControl/MCSDK/MCLib/Any/Src/sto_pll_speed_pos_fdbk.c ****   * expressed in dpp used for instance in observer equations.
 553:MCSDK_v6.3.2-Full/MotorControl/MCSDK/MCLib/Any/Src/sto_pll_speed_pos_fdbk.c ****   * Average is computed considering a FIFO depth equal to
 554:MCSDK_v6.3.2-Full/MotorControl/MCSDK/MCLib/Any/Src/sto_pll_speed_pos_fdbk.c ****   * bSpeedBufferSizedpp.
 555:MCSDK_v6.3.2-Full/MotorControl/MCSDK/MCLib/Any/Src/sto_pll_speed_pos_fdbk.c ****   * 
 556:MCSDK_v6.3.2-Full/MotorControl/MCSDK/MCLib/Any/Src/sto_pll_speed_pos_fdbk.c ****   * @param  pHandle: Handler of the current instance of the STO component.
 557:MCSDK_v6.3.2-Full/MotorControl/MCSDK/MCLib/Any/Src/sto_pll_speed_pos_fdbk.c ****   */
 558:MCSDK_v6.3.2-Full/MotorControl/MCSDK/MCLib/Any/Src/sto_pll_speed_pos_fdbk.c **** __weak void STO_PLL_CalcAvrgElSpeedDpp(STO_PLL_Handle_t *pHandle)
 559:MCSDK_v6.3.2-Full/MotorControl/MCSDK/MCLib/Any/Src/sto_pll_speed_pos_fdbk.c **** {
 560:MCSDK_v6.3.2-Full/MotorControl/MCSDK/MCLib/Any/Src/sto_pll_speed_pos_fdbk.c **** #ifdef NULL_PTR_CHECK_STO_PLL_SPD_POS_FDB
 561:MCSDK_v6.3.2-Full/MotorControl/MCSDK/MCLib/Any/Src/sto_pll_speed_pos_fdbk.c ****   if (MC_NULL == pHandle)
 562:MCSDK_v6.3.2-Full/MotorControl/MCSDK/MCLib/Any/Src/sto_pll_speed_pos_fdbk.c ****   {
 563:MCSDK_v6.3.2-Full/MotorControl/MCSDK/MCLib/Any/Src/sto_pll_speed_pos_fdbk.c ****     /* Nothing to do */
 564:MCSDK_v6.3.2-Full/MotorControl/MCSDK/MCLib/Any/Src/sto_pll_speed_pos_fdbk.c ****   }
 565:MCSDK_v6.3.2-Full/MotorControl/MCSDK/MCLib/Any/Src/sto_pll_speed_pos_fdbk.c ****   else
 566:MCSDK_v6.3.2-Full/MotorControl/MCSDK/MCLib/Any/Src/sto_pll_speed_pos_fdbk.c ****   {
 567:MCSDK_v6.3.2-Full/MotorControl/MCSDK/MCLib/Any/Src/sto_pll_speed_pos_fdbk.c **** #endif
 568:MCSDK_v6.3.2-Full/MotorControl/MCSDK/MCLib/Any/Src/sto_pll_speed_pos_fdbk.c ****     int32_t wSum = pHandle->DppBufferSum;
 569:MCSDK_v6.3.2-Full/MotorControl/MCSDK/MCLib/Any/Src/sto_pll_speed_pos_fdbk.c ****     int32_t wAvrSpeed_dpp;
 570:MCSDK_v6.3.2-Full/MotorControl/MCSDK/MCLib/Any/Src/sto_pll_speed_pos_fdbk.c ****     int16_t hSpeedBufferSizedpp = (int16_t)pHandle->SpeedBufferSizeDpp;
 571:MCSDK_v6.3.2-Full/MotorControl/MCSDK/MCLib/Any/Src/sto_pll_speed_pos_fdbk.c ****     int16_t hSpeedBufferSizeUnit = (int16_t)pHandle->SpeedBufferSizeUnit;
 572:MCSDK_v6.3.2-Full/MotorControl/MCSDK/MCLib/Any/Src/sto_pll_speed_pos_fdbk.c ****     int16_t hBufferSizeDiff;
 573:MCSDK_v6.3.2-Full/MotorControl/MCSDK/MCLib/Any/Src/sto_pll_speed_pos_fdbk.c ****     int16_t hIndexNew = (int16_t)pHandle->Speed_Buffer_Index;
 574:MCSDK_v6.3.2-Full/MotorControl/MCSDK/MCLib/Any/Src/sto_pll_speed_pos_fdbk.c ****     int16_t hIndexOld;
 575:MCSDK_v6.3.2-Full/MotorControl/MCSDK/MCLib/Any/Src/sto_pll_speed_pos_fdbk.c ****     int16_t hIndexOldTemp;
 576:MCSDK_v6.3.2-Full/MotorControl/MCSDK/MCLib/Any/Src/sto_pll_speed_pos_fdbk.c **** 
 577:MCSDK_v6.3.2-Full/MotorControl/MCSDK/MCLib/Any/Src/sto_pll_speed_pos_fdbk.c ****     hBufferSizeDiff = hSpeedBufferSizeUnit - hSpeedBufferSizedpp;
 578:MCSDK_v6.3.2-Full/MotorControl/MCSDK/MCLib/Any/Src/sto_pll_speed_pos_fdbk.c **** 
 579:MCSDK_v6.3.2-Full/MotorControl/MCSDK/MCLib/Any/Src/sto_pll_speed_pos_fdbk.c ****     if (0 == hBufferSizeDiff)
 580:MCSDK_v6.3.2-Full/MotorControl/MCSDK/MCLib/Any/Src/sto_pll_speed_pos_fdbk.c ****     {
 581:MCSDK_v6.3.2-Full/MotorControl/MCSDK/MCLib/Any/Src/sto_pll_speed_pos_fdbk.c ****       wSum = wSum + pHandle->Speed_Buffer[hIndexNew] - pHandle->SpeedBufferOldestEl;
 582:MCSDK_v6.3.2-Full/MotorControl/MCSDK/MCLib/Any/Src/sto_pll_speed_pos_fdbk.c ****     }
 583:MCSDK_v6.3.2-Full/MotorControl/MCSDK/MCLib/Any/Src/sto_pll_speed_pos_fdbk.c ****     else
 584:MCSDK_v6.3.2-Full/MotorControl/MCSDK/MCLib/Any/Src/sto_pll_speed_pos_fdbk.c ****     {
 585:MCSDK_v6.3.2-Full/MotorControl/MCSDK/MCLib/Any/Src/sto_pll_speed_pos_fdbk.c ****       hIndexOldTemp = hIndexNew + hBufferSizeDiff;
 586:MCSDK_v6.3.2-Full/MotorControl/MCSDK/MCLib/Any/Src/sto_pll_speed_pos_fdbk.c **** 
 587:MCSDK_v6.3.2-Full/MotorControl/MCSDK/MCLib/Any/Src/sto_pll_speed_pos_fdbk.c ****       if (hIndexOldTemp >= hSpeedBufferSizeUnit)
 588:MCSDK_v6.3.2-Full/MotorControl/MCSDK/MCLib/Any/Src/sto_pll_speed_pos_fdbk.c ****       {
 589:MCSDK_v6.3.2-Full/MotorControl/MCSDK/MCLib/Any/Src/sto_pll_speed_pos_fdbk.c ****         hIndexOld = hIndexOldTemp - hSpeedBufferSizeUnit;
 590:MCSDK_v6.3.2-Full/MotorControl/MCSDK/MCLib/Any/Src/sto_pll_speed_pos_fdbk.c ****       }
 591:MCSDK_v6.3.2-Full/MotorControl/MCSDK/MCLib/Any/Src/sto_pll_speed_pos_fdbk.c ****       else
 592:MCSDK_v6.3.2-Full/MotorControl/MCSDK/MCLib/Any/Src/sto_pll_speed_pos_fdbk.c ****       {
ARM GAS  /tmp/ccaxKBZ0.s 			page 19


 593:MCSDK_v6.3.2-Full/MotorControl/MCSDK/MCLib/Any/Src/sto_pll_speed_pos_fdbk.c ****         hIndexOld = hIndexOldTemp;
 594:MCSDK_v6.3.2-Full/MotorControl/MCSDK/MCLib/Any/Src/sto_pll_speed_pos_fdbk.c ****       }
 595:MCSDK_v6.3.2-Full/MotorControl/MCSDK/MCLib/Any/Src/sto_pll_speed_pos_fdbk.c **** 
 596:MCSDK_v6.3.2-Full/MotorControl/MCSDK/MCLib/Any/Src/sto_pll_speed_pos_fdbk.c ****       wSum = wSum + pHandle->Speed_Buffer[hIndexNew] - pHandle->Speed_Buffer[hIndexOld];
 597:MCSDK_v6.3.2-Full/MotorControl/MCSDK/MCLib/Any/Src/sto_pll_speed_pos_fdbk.c ****     }
 598:MCSDK_v6.3.2-Full/MotorControl/MCSDK/MCLib/Any/Src/sto_pll_speed_pos_fdbk.c **** 
 599:MCSDK_v6.3.2-Full/MotorControl/MCSDK/MCLib/Any/Src/sto_pll_speed_pos_fdbk.c **** #ifndef FULL_MISRA_C_COMPLIANCY_STO_PLL
 600:MCSDK_v6.3.2-Full/MotorControl/MCSDK/MCLib/Any/Src/sto_pll_speed_pos_fdbk.c ****   //cstat !MISRAC2012-Rule-1.3_n !ATH-shift-neg !MISRAC2012-Rule-10.1_R6
 601:MCSDK_v6.3.2-Full/MotorControl/MCSDK/MCLib/Any/Src/sto_pll_speed_pos_fdbk.c ****   wAvrSpeed_dpp = wSum >> pHandle->SpeedBufferSizeDppLOG;
 602:MCSDK_v6.3.2-Full/MotorControl/MCSDK/MCLib/Any/Src/sto_pll_speed_pos_fdbk.c **** #else
 603:MCSDK_v6.3.2-Full/MotorControl/MCSDK/MCLib/Any/Src/sto_pll_speed_pos_fdbk.c ****   if ((int16_t )0 == hSpeedBufferSizedpp)
 604:MCSDK_v6.3.2-Full/MotorControl/MCSDK/MCLib/Any/Src/sto_pll_speed_pos_fdbk.c ****   {
 605:MCSDK_v6.3.2-Full/MotorControl/MCSDK/MCLib/Any/Src/sto_pll_speed_pos_fdbk.c ****     /* Nothing to do */
 606:MCSDK_v6.3.2-Full/MotorControl/MCSDK/MCLib/Any/Src/sto_pll_speed_pos_fdbk.c ****     wAvrSpeed_dpp = wSum;
 607:MCSDK_v6.3.2-Full/MotorControl/MCSDK/MCLib/Any/Src/sto_pll_speed_pos_fdbk.c ****   }
 608:MCSDK_v6.3.2-Full/MotorControl/MCSDK/MCLib/Any/Src/sto_pll_speed_pos_fdbk.c ****   else
 609:MCSDK_v6.3.2-Full/MotorControl/MCSDK/MCLib/Any/Src/sto_pll_speed_pos_fdbk.c ****   {
 610:MCSDK_v6.3.2-Full/MotorControl/MCSDK/MCLib/Any/Src/sto_pll_speed_pos_fdbk.c ****     wAvrSpeed_dpp = wSum / hSpeedBufferSizedpp;
 611:MCSDK_v6.3.2-Full/MotorControl/MCSDK/MCLib/Any/Src/sto_pll_speed_pos_fdbk.c ****   }
 612:MCSDK_v6.3.2-Full/MotorControl/MCSDK/MCLib/Any/Src/sto_pll_speed_pos_fdbk.c **** #endif
 613:MCSDK_v6.3.2-Full/MotorControl/MCSDK/MCLib/Any/Src/sto_pll_speed_pos_fdbk.c ****     pHandle->_Super.hElSpeedDpp = (int16_t)wAvrSpeed_dpp;
 614:MCSDK_v6.3.2-Full/MotorControl/MCSDK/MCLib/Any/Src/sto_pll_speed_pos_fdbk.c ****     pHandle->DppBufferSum = wSum;
 615:MCSDK_v6.3.2-Full/MotorControl/MCSDK/MCLib/Any/Src/sto_pll_speed_pos_fdbk.c **** #ifdef NULL_PTR_CHECK_STO_PLL_SPD_POS_FDB
 616:MCSDK_v6.3.2-Full/MotorControl/MCSDK/MCLib/Any/Src/sto_pll_speed_pos_fdbk.c ****   }
 617:MCSDK_v6.3.2-Full/MotorControl/MCSDK/MCLib/Any/Src/sto_pll_speed_pos_fdbk.c **** #endif
 618:MCSDK_v6.3.2-Full/MotorControl/MCSDK/MCLib/Any/Src/sto_pll_speed_pos_fdbk.c **** }
 619:MCSDK_v6.3.2-Full/MotorControl/MCSDK/MCLib/Any/Src/sto_pll_speed_pos_fdbk.c **** 
 620:MCSDK_v6.3.2-Full/MotorControl/MCSDK/MCLib/Any/Src/sto_pll_speed_pos_fdbk.c **** /**
 621:MCSDK_v6.3.2-Full/MotorControl/MCSDK/MCLib/Any/Src/sto_pll_speed_pos_fdbk.c ****   * @brief  Clears state observer component by re-initializing private variables in @p pHandle.
 622:MCSDK_v6.3.2-Full/MotorControl/MCSDK/MCLib/Any/Src/sto_pll_speed_pos_fdbk.c ****   * 
 623:MCSDK_v6.3.2-Full/MotorControl/MCSDK/MCLib/Any/Src/sto_pll_speed_pos_fdbk.c ****   */
 624:MCSDK_v6.3.2-Full/MotorControl/MCSDK/MCLib/Any/Src/sto_pll_speed_pos_fdbk.c **** __weak void STO_PLL_Clear(STO_PLL_Handle_t *pHandle)
 625:MCSDK_v6.3.2-Full/MotorControl/MCSDK/MCLib/Any/Src/sto_pll_speed_pos_fdbk.c **** {
 626:MCSDK_v6.3.2-Full/MotorControl/MCSDK/MCLib/Any/Src/sto_pll_speed_pos_fdbk.c **** #ifdef NULL_PTR_CHECK_STO_PLL_SPD_POS_FDB
 627:MCSDK_v6.3.2-Full/MotorControl/MCSDK/MCLib/Any/Src/sto_pll_speed_pos_fdbk.c ****   if (MC_NULL == pHandle)
 628:MCSDK_v6.3.2-Full/MotorControl/MCSDK/MCLib/Any/Src/sto_pll_speed_pos_fdbk.c ****   {
 629:MCSDK_v6.3.2-Full/MotorControl/MCSDK/MCLib/Any/Src/sto_pll_speed_pos_fdbk.c ****     /* Nothing to do */
 630:MCSDK_v6.3.2-Full/MotorControl/MCSDK/MCLib/Any/Src/sto_pll_speed_pos_fdbk.c ****   }
 631:MCSDK_v6.3.2-Full/MotorControl/MCSDK/MCLib/Any/Src/sto_pll_speed_pos_fdbk.c ****   else
 632:MCSDK_v6.3.2-Full/MotorControl/MCSDK/MCLib/Any/Src/sto_pll_speed_pos_fdbk.c ****   {
 633:MCSDK_v6.3.2-Full/MotorControl/MCSDK/MCLib/Any/Src/sto_pll_speed_pos_fdbk.c **** #endif
 634:MCSDK_v6.3.2-Full/MotorControl/MCSDK/MCLib/Any/Src/sto_pll_speed_pos_fdbk.c ****     pHandle->Ialfa_est = (int32_t)0;
 635:MCSDK_v6.3.2-Full/MotorControl/MCSDK/MCLib/Any/Src/sto_pll_speed_pos_fdbk.c ****     pHandle->Ibeta_est = (int32_t)0;
 636:MCSDK_v6.3.2-Full/MotorControl/MCSDK/MCLib/Any/Src/sto_pll_speed_pos_fdbk.c ****     pHandle->wBemf_alfa_est = (int32_t)0;
 637:MCSDK_v6.3.2-Full/MotorControl/MCSDK/MCLib/Any/Src/sto_pll_speed_pos_fdbk.c ****     pHandle->wBemf_beta_est = (int32_t)0;
 638:MCSDK_v6.3.2-Full/MotorControl/MCSDK/MCLib/Any/Src/sto_pll_speed_pos_fdbk.c ****     pHandle->_Super.hElAngle = (int16_t)0;
 639:MCSDK_v6.3.2-Full/MotorControl/MCSDK/MCLib/Any/Src/sto_pll_speed_pos_fdbk.c ****     pHandle->_Super.hElSpeedDpp = (int16_t)0;
 640:MCSDK_v6.3.2-Full/MotorControl/MCSDK/MCLib/Any/Src/sto_pll_speed_pos_fdbk.c ****     pHandle->ConsistencyCounter = 0u;
 641:MCSDK_v6.3.2-Full/MotorControl/MCSDK/MCLib/Any/Src/sto_pll_speed_pos_fdbk.c ****     pHandle->ReliabilityCounter = 0u;
 642:MCSDK_v6.3.2-Full/MotorControl/MCSDK/MCLib/Any/Src/sto_pll_speed_pos_fdbk.c ****     pHandle->IsAlgorithmConverged = false;
 643:MCSDK_v6.3.2-Full/MotorControl/MCSDK/MCLib/Any/Src/sto_pll_speed_pos_fdbk.c ****     pHandle->IsBemfConsistent = false;
 644:MCSDK_v6.3.2-Full/MotorControl/MCSDK/MCLib/Any/Src/sto_pll_speed_pos_fdbk.c ****     pHandle->Obs_Bemf_Level = (int32_t)0;
 645:MCSDK_v6.3.2-Full/MotorControl/MCSDK/MCLib/Any/Src/sto_pll_speed_pos_fdbk.c ****     pHandle->Est_Bemf_Level = (int32_t)0;
 646:MCSDK_v6.3.2-Full/MotorControl/MCSDK/MCLib/Any/Src/sto_pll_speed_pos_fdbk.c ****     pHandle->DppBufferSum = (int32_t)0;
 647:MCSDK_v6.3.2-Full/MotorControl/MCSDK/MCLib/Any/Src/sto_pll_speed_pos_fdbk.c ****     pHandle->ForceConvergency = false;
 648:MCSDK_v6.3.2-Full/MotorControl/MCSDK/MCLib/Any/Src/sto_pll_speed_pos_fdbk.c ****     pHandle->ForceConvergency2 = false;
 649:MCSDK_v6.3.2-Full/MotorControl/MCSDK/MCLib/Any/Src/sto_pll_speed_pos_fdbk.c **** 
ARM GAS  /tmp/ccaxKBZ0.s 			page 20


 650:MCSDK_v6.3.2-Full/MotorControl/MCSDK/MCLib/Any/Src/sto_pll_speed_pos_fdbk.c ****     STO_InitSpeedBuffer(pHandle);
 651:MCSDK_v6.3.2-Full/MotorControl/MCSDK/MCLib/Any/Src/sto_pll_speed_pos_fdbk.c ****     PID_SetIntegralTerm(& pHandle->PIRegulator, (int32_t)0);
 652:MCSDK_v6.3.2-Full/MotorControl/MCSDK/MCLib/Any/Src/sto_pll_speed_pos_fdbk.c **** #ifdef NULL_PTR_CHECK_STO_PLL_SPD_POS_FDB
 653:MCSDK_v6.3.2-Full/MotorControl/MCSDK/MCLib/Any/Src/sto_pll_speed_pos_fdbk.c ****   }
 654:MCSDK_v6.3.2-Full/MotorControl/MCSDK/MCLib/Any/Src/sto_pll_speed_pos_fdbk.c **** #endif
 655:MCSDK_v6.3.2-Full/MotorControl/MCSDK/MCLib/Any/Src/sto_pll_speed_pos_fdbk.c **** }
 656:MCSDK_v6.3.2-Full/MotorControl/MCSDK/MCLib/Any/Src/sto_pll_speed_pos_fdbk.c **** 
 657:MCSDK_v6.3.2-Full/MotorControl/MCSDK/MCLib/Any/Src/sto_pll_speed_pos_fdbk.c **** /**
 658:MCSDK_v6.3.2-Full/MotorControl/MCSDK/MCLib/Any/Src/sto_pll_speed_pos_fdbk.c ****   * @brief  Stores in @p pHandle the latest calculated value of @p hRotor_Speed.
 659:MCSDK_v6.3.2-Full/MotorControl/MCSDK/MCLib/Any/Src/sto_pll_speed_pos_fdbk.c ****   * 
 660:MCSDK_v6.3.2-Full/MotorControl/MCSDK/MCLib/Any/Src/sto_pll_speed_pos_fdbk.c ****   */
 661:MCSDK_v6.3.2-Full/MotorControl/MCSDK/MCLib/Any/Src/sto_pll_speed_pos_fdbk.c **** inline static void STO_Store_Rotor_Speed(STO_PLL_Handle_t *pHandle, int16_t hRotor_Speed)
 662:MCSDK_v6.3.2-Full/MotorControl/MCSDK/MCLib/Any/Src/sto_pll_speed_pos_fdbk.c **** {
 663:MCSDK_v6.3.2-Full/MotorControl/MCSDK/MCLib/Any/Src/sto_pll_speed_pos_fdbk.c ****   uint8_t bBuffer_index = pHandle->Speed_Buffer_Index;
 664:MCSDK_v6.3.2-Full/MotorControl/MCSDK/MCLib/Any/Src/sto_pll_speed_pos_fdbk.c **** 
 665:MCSDK_v6.3.2-Full/MotorControl/MCSDK/MCLib/Any/Src/sto_pll_speed_pos_fdbk.c ****   bBuffer_index++;
 666:MCSDK_v6.3.2-Full/MotorControl/MCSDK/MCLib/Any/Src/sto_pll_speed_pos_fdbk.c ****   if (bBuffer_index == pHandle->SpeedBufferSizeUnit)
 667:MCSDK_v6.3.2-Full/MotorControl/MCSDK/MCLib/Any/Src/sto_pll_speed_pos_fdbk.c ****   {
 668:MCSDK_v6.3.2-Full/MotorControl/MCSDK/MCLib/Any/Src/sto_pll_speed_pos_fdbk.c ****     bBuffer_index = 0U;
 669:MCSDK_v6.3.2-Full/MotorControl/MCSDK/MCLib/Any/Src/sto_pll_speed_pos_fdbk.c ****   }
 670:MCSDK_v6.3.2-Full/MotorControl/MCSDK/MCLib/Any/Src/sto_pll_speed_pos_fdbk.c ****   else
 671:MCSDK_v6.3.2-Full/MotorControl/MCSDK/MCLib/Any/Src/sto_pll_speed_pos_fdbk.c ****   {
 672:MCSDK_v6.3.2-Full/MotorControl/MCSDK/MCLib/Any/Src/sto_pll_speed_pos_fdbk.c ****     /* Nothing to do */
 673:MCSDK_v6.3.2-Full/MotorControl/MCSDK/MCLib/Any/Src/sto_pll_speed_pos_fdbk.c ****   }
 674:MCSDK_v6.3.2-Full/MotorControl/MCSDK/MCLib/Any/Src/sto_pll_speed_pos_fdbk.c **** 
 675:MCSDK_v6.3.2-Full/MotorControl/MCSDK/MCLib/Any/Src/sto_pll_speed_pos_fdbk.c ****   pHandle->SpeedBufferOldestEl = pHandle->Speed_Buffer[bBuffer_index];
 676:MCSDK_v6.3.2-Full/MotorControl/MCSDK/MCLib/Any/Src/sto_pll_speed_pos_fdbk.c ****   pHandle->Speed_Buffer[bBuffer_index] = hRotor_Speed;
 677:MCSDK_v6.3.2-Full/MotorControl/MCSDK/MCLib/Any/Src/sto_pll_speed_pos_fdbk.c ****   pHandle->Speed_Buffer_Index = bBuffer_index;
 678:MCSDK_v6.3.2-Full/MotorControl/MCSDK/MCLib/Any/Src/sto_pll_speed_pos_fdbk.c **** }
 679:MCSDK_v6.3.2-Full/MotorControl/MCSDK/MCLib/Any/Src/sto_pll_speed_pos_fdbk.c **** 
 680:MCSDK_v6.3.2-Full/MotorControl/MCSDK/MCLib/Any/Src/sto_pll_speed_pos_fdbk.c **** /**
 681:MCSDK_v6.3.2-Full/MotorControl/MCSDK/MCLib/Any/Src/sto_pll_speed_pos_fdbk.c ****   * @brief  Executes PLL algorithm for rotor position extraction from B-emf alpha and beta.
 682:MCSDK_v6.3.2-Full/MotorControl/MCSDK/MCLib/Any/Src/sto_pll_speed_pos_fdbk.c ****   * 
 683:MCSDK_v6.3.2-Full/MotorControl/MCSDK/MCLib/Any/Src/sto_pll_speed_pos_fdbk.c ****   * @param  pHandle: Handler of the current instance of the STO component.
 684:MCSDK_v6.3.2-Full/MotorControl/MCSDK/MCLib/Any/Src/sto_pll_speed_pos_fdbk.c ****   * @param  hBemf_alfa_est: Estimated Bemf alpha on the stator reference frame.
 685:MCSDK_v6.3.2-Full/MotorControl/MCSDK/MCLib/Any/Src/sto_pll_speed_pos_fdbk.c ****   * @param  hBemf_beta_est: Estimated Bemf beta on the stator reference frame.
 686:MCSDK_v6.3.2-Full/MotorControl/MCSDK/MCLib/Any/Src/sto_pll_speed_pos_fdbk.c ****   * @retval 
 687:MCSDK_v6.3.2-Full/MotorControl/MCSDK/MCLib/Any/Src/sto_pll_speed_pos_fdbk.c ****   */
 688:MCSDK_v6.3.2-Full/MotorControl/MCSDK/MCLib/Any/Src/sto_pll_speed_pos_fdbk.c **** inline static int16_t STO_ExecutePLL(STO_PLL_Handle_t *pHandle, int16_t hBemf_alfa_est, int16_t hBe
 352              		.loc 1 688 23 view .LVU160
 353              	.LBB14:
 689:MCSDK_v6.3.2-Full/MotorControl/MCSDK/MCLib/Any/Src/sto_pll_speed_pos_fdbk.c **** {
 690:MCSDK_v6.3.2-Full/MotorControl/MCSDK/MCLib/Any/Src/sto_pll_speed_pos_fdbk.c ****   int32_t wAlfa_Sin_tmp;
 354              		.loc 1 690 3 view .LVU161
 691:MCSDK_v6.3.2-Full/MotorControl/MCSDK/MCLib/Any/Src/sto_pll_speed_pos_fdbk.c ****   int32_t wBeta_Cos_tmp;
 355              		.loc 1 691 3 view .LVU162
 692:MCSDK_v6.3.2-Full/MotorControl/MCSDK/MCLib/Any/Src/sto_pll_speed_pos_fdbk.c ****   int16_t hAux1;
 356              		.loc 1 692 3 view .LVU163
 693:MCSDK_v6.3.2-Full/MotorControl/MCSDK/MCLib/Any/Src/sto_pll_speed_pos_fdbk.c ****   int16_t hAux2;
 357              		.loc 1 693 3 view .LVU164
 694:MCSDK_v6.3.2-Full/MotorControl/MCSDK/MCLib/Any/Src/sto_pll_speed_pos_fdbk.c ****   int16_t hOutput;
 358              		.loc 1 694 3 view .LVU165
 695:MCSDK_v6.3.2-Full/MotorControl/MCSDK/MCLib/Any/Src/sto_pll_speed_pos_fdbk.c ****   Trig_Components Local_Components;
 359              		.loc 1 695 3 view .LVU166
 696:MCSDK_v6.3.2-Full/MotorControl/MCSDK/MCLib/Any/Src/sto_pll_speed_pos_fdbk.c **** 
 697:MCSDK_v6.3.2-Full/MotorControl/MCSDK/MCLib/Any/Src/sto_pll_speed_pos_fdbk.c ****   Local_Components = MCM_Trig_Functions(pHandle->_Super.hElAngle);
 360              		.loc 1 697 3 view .LVU167
ARM GAS  /tmp/ccaxKBZ0.s 			page 21


 361              		.loc 1 697 22 is_stmt 0 view .LVU168
 362 013a B4F90400 		ldrsh	r0, [r4, #4]
 363 013e FFF7FEFF 		bl	MCM_Trig_Functions
 364              	.LVL23:
 698:MCSDK_v6.3.2-Full/MotorControl/MCSDK/MCLib/Any/Src/sto_pll_speed_pos_fdbk.c **** 
 699:MCSDK_v6.3.2-Full/MotorControl/MCSDK/MCLib/Any/Src/sto_pll_speed_pos_fdbk.c ****   /* Alfa & Beta BEMF multiplied by Cos & Sin */
 700:MCSDK_v6.3.2-Full/MotorControl/MCSDK/MCLib/Any/Src/sto_pll_speed_pos_fdbk.c ****   wAlfa_Sin_tmp = ((int32_t )hBemf_alfa_est) * ((int32_t )Local_Components.hSin);
 365              		.loc 1 700 3 is_stmt 1 view .LVU169
 701:MCSDK_v6.3.2-Full/MotorControl/MCSDK/MCLib/Any/Src/sto_pll_speed_pos_fdbk.c ****   wBeta_Cos_tmp = ((int32_t )hBemf_beta_est) * ((int32_t )Local_Components.hCos);
 366              		.loc 1 701 3 view .LVU170
 702:MCSDK_v6.3.2-Full/MotorControl/MCSDK/MCLib/Any/Src/sto_pll_speed_pos_fdbk.c **** 
 703:MCSDK_v6.3.2-Full/MotorControl/MCSDK/MCLib/Any/Src/sto_pll_speed_pos_fdbk.c **** #ifndef FULL_MISRA_C_COMPLIANCY_STO_PLL
 704:MCSDK_v6.3.2-Full/MotorControl/MCSDK/MCLib/Any/Src/sto_pll_speed_pos_fdbk.c ****   hAux1 = (int16_t)(wBeta_Cos_tmp >> 15); //cstat !MISRAC2012-Rule-1.3_n !ATH-shift-neg !MISRAC2012
 367              		.loc 1 704 3 view .LVU171
 705:MCSDK_v6.3.2-Full/MotorControl/MCSDK/MCLib/Any/Src/sto_pll_speed_pos_fdbk.c **** #else
 706:MCSDK_v6.3.2-Full/MotorControl/MCSDK/MCLib/Any/Src/sto_pll_speed_pos_fdbk.c ****   hAux1 = (int16_t)(wBeta_Cos_tmp / 32768);
 707:MCSDK_v6.3.2-Full/MotorControl/MCSDK/MCLib/Any/Src/sto_pll_speed_pos_fdbk.c **** #endif
 708:MCSDK_v6.3.2-Full/MotorControl/MCSDK/MCLib/Any/Src/sto_pll_speed_pos_fdbk.c **** 
 709:MCSDK_v6.3.2-Full/MotorControl/MCSDK/MCLib/Any/Src/sto_pll_speed_pos_fdbk.c **** #ifndef FULL_MISRA_C_COMPLIANCY_STO_PLL
 710:MCSDK_v6.3.2-Full/MotorControl/MCSDK/MCLib/Any/Src/sto_pll_speed_pos_fdbk.c ****   hAux2 = (int16_t)(wAlfa_Sin_tmp >> 15); //cstat !MISRAC2012-Rule-1.3_n !ATH-shift-neg !MISRAC2012
 368              		.loc 1 710 3 view .LVU172
 711:MCSDK_v6.3.2-Full/MotorControl/MCSDK/MCLib/Any/Src/sto_pll_speed_pos_fdbk.c **** #else
 712:MCSDK_v6.3.2-Full/MotorControl/MCSDK/MCLib/Any/Src/sto_pll_speed_pos_fdbk.c ****   hAux2 = (int16_t)(wAlfa_Sin_tmp / 32768);
 713:MCSDK_v6.3.2-Full/MotorControl/MCSDK/MCLib/Any/Src/sto_pll_speed_pos_fdbk.c **** #endif
 714:MCSDK_v6.3.2-Full/MotorControl/MCSDK/MCLib/Any/Src/sto_pll_speed_pos_fdbk.c **** 
 715:MCSDK_v6.3.2-Full/MotorControl/MCSDK/MCLib/Any/Src/sto_pll_speed_pos_fdbk.c ****   /* Speed PI regulator */
 716:MCSDK_v6.3.2-Full/MotorControl/MCSDK/MCLib/Any/Src/sto_pll_speed_pos_fdbk.c ****   hOutput = PI_Controller(& pHandle->PIRegulator, (int32_t)(hAux1 ) - hAux2);
 369              		.loc 1 716 3 view .LVU173
 370              	.LBE14:
 371              	.LBE13:
 358:MCSDK_v6.3.2-Full/MotorControl/MCSDK/MCLib/Any/Src/sto_pll_speed_pos_fdbk.c ****     hAux_Beta = (int16_t)(hAux_Beta * wDirection);
 372              		.loc 1 358 17 is_stmt 0 view .LVU174
 373 0142 029B     		ldr	r3, [sp, #8]
 359:MCSDK_v6.3.2-Full/MotorControl/MCSDK/MCLib/Any/Src/sto_pll_speed_pos_fdbk.c **** 
 374              		.loc 1 359 17 view .LVU175
 375 0144 15FB09F5 		smulbb	r5, r5, r9
 376              	.LVL24:
 358:MCSDK_v6.3.2-Full/MotorControl/MCSDK/MCLib/Any/Src/sto_pll_speed_pos_fdbk.c ****     hAux_Beta = (int16_t)(hAux_Beta * wDirection);
 377              		.loc 1 358 17 view .LVU176
 378 0148 13FB09F1 		smulbb	r1, r3, r9
 361:MCSDK_v6.3.2-Full/MotorControl/MCSDK/MCLib/Any/Src/sto_pll_speed_pos_fdbk.c ****     pHandle->_Super.InstantaneousElSpeedDpp = hRotor_Speed;
 379              		.loc 1 361 20 view .LVU177
 380 014c 6D42     		rsbs	r5, r5, #0
 381              	.LBB16:
 382              	.LBB15:
 701:MCSDK_v6.3.2-Full/MotorControl/MCSDK/MCLib/Any/Src/sto_pll_speed_pos_fdbk.c **** 
 383              		.loc 1 701 17 view .LVU178
 384 014e 10FB05F5 		smulbb	r5, r0, r5
 700:MCSDK_v6.3.2-Full/MotorControl/MCSDK/MCLib/Any/Src/sto_pll_speed_pos_fdbk.c ****   wBeta_Cos_tmp = ((int32_t )hBemf_beta_est) * ((int32_t )Local_Components.hCos);
 385              		.loc 1 700 17 view .LVU179
 386 0152 10FB21F0 		smultb	r0, r0, r1
 387              		.loc 1 716 13 view .LVU180
 388 0156 40F3CF31 		sbfx	r1, r0, #15, #16
 389              		.loc 1 716 51 view .LVU181
 390 015a 45F3CF35 		sbfx	r5, r5, #15, #16
 391              		.loc 1 716 13 view .LVU182
 392 015e 691A     		subs	r1, r5, r1
ARM GAS  /tmp/ccaxKBZ0.s 			page 22


 393 0160 04F13400 		add	r0, r4, #52
 394 0164 FFF7FEFF 		bl	PI_Controller
 395              	.LVL25:
 717:MCSDK_v6.3.2-Full/MotorControl/MCSDK/MCLib/Any/Src/sto_pll_speed_pos_fdbk.c ****   return (hOutput);
 396              		.loc 1 717 3 is_stmt 1 view .LVU183
 397              		.loc 1 717 3 is_stmt 0 view .LVU184
 398              	.LBE15:
 399              	.LBE16:
 362:MCSDK_v6.3.2-Full/MotorControl/MCSDK/MCLib/Any/Src/sto_pll_speed_pos_fdbk.c **** 
 400              		.loc 1 362 5 is_stmt 1 view .LVU185
 401              	.LBB17:
 402              	.LBB18:
 663:MCSDK_v6.3.2-Full/MotorControl/MCSDK/MCLib/Any/Src/sto_pll_speed_pos_fdbk.c **** 
 403              		.loc 1 663 11 is_stmt 0 view .LVU186
 404 0168 94F8F430 		ldrb	r3, [r4, #244]	@ zero_extendqisi2
 666:MCSDK_v6.3.2-Full/MotorControl/MCSDK/MCLib/Any/Src/sto_pll_speed_pos_fdbk.c ****   {
 405              		.loc 1 666 6 view .LVU187
 406 016c 94F80E21 		ldrb	r2, [r4, #270]	@ zero_extendqisi2
 407              	.LBE18:
 408              	.LBE17:
 362:MCSDK_v6.3.2-Full/MotorControl/MCSDK/MCLib/Any/Src/sto_pll_speed_pos_fdbk.c **** 
 409              		.loc 1 362 45 view .LVU188
 410 0170 2082     		strh	r0, [r4, #16]	@ movhi
 364:MCSDK_v6.3.2-Full/MotorControl/MCSDK/MCLib/Any/Src/sto_pll_speed_pos_fdbk.c **** 
 411              		.loc 1 364 5 is_stmt 1 view .LVU189
 412              	.LVL26:
 413              	.LBB21:
 414              	.LBI17:
 661:MCSDK_v6.3.2-Full/MotorControl/MCSDK/MCLib/Any/Src/sto_pll_speed_pos_fdbk.c **** {
 415              		.loc 1 661 20 view .LVU190
 416              	.LBB19:
 663:MCSDK_v6.3.2-Full/MotorControl/MCSDK/MCLib/Any/Src/sto_pll_speed_pos_fdbk.c **** 
 417              		.loc 1 663 3 view .LVU191
 665:MCSDK_v6.3.2-Full/MotorControl/MCSDK/MCLib/Any/Src/sto_pll_speed_pos_fdbk.c ****   if (bBuffer_index == pHandle->SpeedBufferSizeUnit)
 418              		.loc 1 665 3 view .LVU192
 665:MCSDK_v6.3.2-Full/MotorControl/MCSDK/MCLib/Any/Src/sto_pll_speed_pos_fdbk.c ****   if (bBuffer_index == pHandle->SpeedBufferSizeUnit)
 419              		.loc 1 665 16 is_stmt 0 view .LVU193
 420 0172 0133     		adds	r3, r3, #1
 421              	.LVL27:
 665:MCSDK_v6.3.2-Full/MotorControl/MCSDK/MCLib/Any/Src/sto_pll_speed_pos_fdbk.c ****   if (bBuffer_index == pHandle->SpeedBufferSizeUnit)
 422              		.loc 1 665 16 view .LVU194
 423 0174 DBB2     		uxtb	r3, r3
 424              	.LVL28:
 666:MCSDK_v6.3.2-Full/MotorControl/MCSDK/MCLib/Any/Src/sto_pll_speed_pos_fdbk.c ****   {
 425              		.loc 1 666 3 is_stmt 1 view .LVU195
 666:MCSDK_v6.3.2-Full/MotorControl/MCSDK/MCLib/Any/Src/sto_pll_speed_pos_fdbk.c ****   {
 426              		.loc 1 666 6 is_stmt 0 view .LVU196
 427 0176 9A42     		cmp	r2, r3
 428 0178 0ABF     		itet	eq
 429 017a 0022     		moveq	r2, #0
 675:MCSDK_v6.3.2-Full/MotorControl/MCSDK/MCLib/Any/Src/sto_pll_speed_pos_fdbk.c ****   pHandle->Speed_Buffer[bBuffer_index] = hRotor_Speed;
 430              		.loc 1 675 55 view .LVU197
 431 017c 1A46     		movne	r2, r3
 668:MCSDK_v6.3.2-Full/MotorControl/MCSDK/MCLib/Any/Src/sto_pll_speed_pos_fdbk.c ****   }
 432              		.loc 1 668 19 view .LVU198
 433 017e 1346     		moveq	r3, r2
 434              	.LVL29:
ARM GAS  /tmp/ccaxKBZ0.s 			page 23


 673:MCSDK_v6.3.2-Full/MotorControl/MCSDK/MCLib/Any/Src/sto_pll_speed_pos_fdbk.c **** 
 435              		.loc 1 673 3 is_stmt 1 view .LVU199
 675:MCSDK_v6.3.2-Full/MotorControl/MCSDK/MCLib/Any/Src/sto_pll_speed_pos_fdbk.c ****   pHandle->Speed_Buffer[bBuffer_index] = hRotor_Speed;
 436              		.loc 1 675 3 view .LVU200
 437 0180 04EB4202 		add	r2, r4, r2, lsl #1
 675:MCSDK_v6.3.2-Full/MotorControl/MCSDK/MCLib/Any/Src/sto_pll_speed_pos_fdbk.c ****   pHandle->Speed_Buffer[bBuffer_index] = hRotor_Speed;
 438              		.loc 1 675 55 is_stmt 0 view .LVU201
 439 0184 B2F97410 		ldrsh	r1, [r2, #116]
 675:MCSDK_v6.3.2-Full/MotorControl/MCSDK/MCLib/Any/Src/sto_pll_speed_pos_fdbk.c ****   pHandle->Speed_Buffer[bBuffer_index] = hRotor_Speed;
 440              		.loc 1 675 32 view .LVU202
 441 0188 A4F80C11 		strh	r1, [r4, #268]	@ movhi
 676:MCSDK_v6.3.2-Full/MotorControl/MCSDK/MCLib/Any/Src/sto_pll_speed_pos_fdbk.c ****   pHandle->Speed_Buffer_Index = bBuffer_index;
 442              		.loc 1 676 3 is_stmt 1 view .LVU203
 676:MCSDK_v6.3.2-Full/MotorControl/MCSDK/MCLib/Any/Src/sto_pll_speed_pos_fdbk.c ****   pHandle->Speed_Buffer_Index = bBuffer_index;
 443              		.loc 1 676 40 is_stmt 0 view .LVU204
 444 018c A2F87400 		strh	r0, [r2, #116]	@ movhi
 677:MCSDK_v6.3.2-Full/MotorControl/MCSDK/MCLib/Any/Src/sto_pll_speed_pos_fdbk.c **** }
 445              		.loc 1 677 3 is_stmt 1 view .LVU205
 446              	.LBE19:
 447              	.LBE21:
 366:MCSDK_v6.3.2-Full/MotorControl/MCSDK/MCLib/Any/Src/sto_pll_speed_pos_fdbk.c **** 
 448              		.loc 1 366 30 is_stmt 0 view .LVU206
 449 0190 A188     		ldrh	r1, [r4, #4]
 450              	.LBB22:
 451              	.LBB20:
 677:MCSDK_v6.3.2-Full/MotorControl/MCSDK/MCLib/Any/Src/sto_pll_speed_pos_fdbk.c **** }
 452              		.loc 1 677 31 view .LVU207
 453 0192 84F8F430 		strb	r3, [r4, #244]
 454              	.LVL30:
 677:MCSDK_v6.3.2-Full/MotorControl/MCSDK/MCLib/Any/Src/sto_pll_speed_pos_fdbk.c **** }
 455              		.loc 1 677 31 view .LVU208
 456              	.LBE20:
 457              	.LBE22:
 366:MCSDK_v6.3.2-Full/MotorControl/MCSDK/MCLib/Any/Src/sto_pll_speed_pos_fdbk.c **** 
 458              		.loc 1 366 5 is_stmt 1 view .LVU209
 366:MCSDK_v6.3.2-Full/MotorControl/MCSDK/MCLib/Any/Src/sto_pll_speed_pos_fdbk.c **** 
 459              		.loc 1 366 30 is_stmt 0 view .LVU210
 460 0196 0844     		add	r0, r0, r1
 461              	.LVL31:
 372:MCSDK_v6.3.2-Full/MotorControl/MCSDK/MCLib/Any/Src/sto_pll_speed_pos_fdbk.c ****     pHandle->wBemf_beta_est = wBemf_beta_est_Next;
 462              		.loc 1 372 24 view .LVU211
 463 0198 C4E91968 		strd	r6, r8, [r4, #100]
 366:MCSDK_v6.3.2-Full/MotorControl/MCSDK/MCLib/Any/Src/sto_pll_speed_pos_fdbk.c **** 
 464              		.loc 1 366 30 view .LVU212
 465 019c 00B2     		sxth	r0, r0
 369:MCSDK_v6.3.2-Full/MotorControl/MCSDK/MCLib/Any/Src/sto_pll_speed_pos_fdbk.c ****     pHandle->wBemf_alfa_est = wBemf_alfa_est_Next;
 466              		.loc 1 369 24 view .LVU213
 467 019e 2766     		str	r7, [r4, #96]
 373:MCSDK_v6.3.2-Full/MotorControl/MCSDK/MCLib/Any/Src/sto_pll_speed_pos_fdbk.c ****     retValue = pHandle->_Super.hElAngle;
 468              		.loc 1 373 29 view .LVU214
 469 01a0 C4F86CA0 		str	r10, [r4, #108]
 366:MCSDK_v6.3.2-Full/MotorControl/MCSDK/MCLib/Any/Src/sto_pll_speed_pos_fdbk.c **** 
 470              		.loc 1 366 30 view .LVU215
 471 01a4 A080     		strh	r0, [r4, #4]	@ movhi
 369:MCSDK_v6.3.2-Full/MotorControl/MCSDK/MCLib/Any/Src/sto_pll_speed_pos_fdbk.c ****     pHandle->wBemf_alfa_est = wBemf_alfa_est_Next;
 472              		.loc 1 369 5 is_stmt 1 view .LVU216
 370:MCSDK_v6.3.2-Full/MotorControl/MCSDK/MCLib/Any/Src/sto_pll_speed_pos_fdbk.c **** 
ARM GAS  /tmp/ccaxKBZ0.s 			page 24


 473              		.loc 1 370 5 view .LVU217
 372:MCSDK_v6.3.2-Full/MotorControl/MCSDK/MCLib/Any/Src/sto_pll_speed_pos_fdbk.c ****     pHandle->wBemf_beta_est = wBemf_beta_est_Next;
 474              		.loc 1 372 5 view .LVU218
 373:MCSDK_v6.3.2-Full/MotorControl/MCSDK/MCLib/Any/Src/sto_pll_speed_pos_fdbk.c ****     retValue = pHandle->_Super.hElAngle;
 475              		.loc 1 373 5 view .LVU219
 374:MCSDK_v6.3.2-Full/MotorControl/MCSDK/MCLib/Any/Src/sto_pll_speed_pos_fdbk.c ****   }
 476              		.loc 1 374 5 view .LVU220
 477              	.LVL32:
 478              	.L4:
 374:MCSDK_v6.3.2-Full/MotorControl/MCSDK/MCLib/Any/Src/sto_pll_speed_pos_fdbk.c ****   }
 479              		.loc 1 374 5 is_stmt 0 view .LVU221
 480              	.LBE12:
 376:MCSDK_v6.3.2-Full/MotorControl/MCSDK/MCLib/Any/Src/sto_pll_speed_pos_fdbk.c **** }
 481              		.loc 1 376 3 is_stmt 1 view .LVU222
 377:MCSDK_v6.3.2-Full/MotorControl/MCSDK/MCLib/Any/Src/sto_pll_speed_pos_fdbk.c **** 
 482              		.loc 1 377 1 is_stmt 0 view .LVU223
 483 01a6 07B0     		add	sp, sp, #28
 484              	.LCFI2:
 485              		.cfi_remember_state
 486              		.cfi_def_cfa_offset 36
 487              		@ sp needed
 488 01a8 BDE8F08F 		pop	{r4, r5, r6, r7, r8, r9, r10, fp, pc}
 489              	.LVL33:
 490              	.L17:
 491              	.LCFI3:
 492              		.cfi_restore_state
 154:MCSDK_v6.3.2-Full/MotorControl/MCSDK/MCLib/Any/Src/sto_pll_speed_pos_fdbk.c ****   }
 493              		.loc 1 154 14 view .LVU224
 494 01ac 0846     		mov	r0, r1
 495              	.LVL34:
 376:MCSDK_v6.3.2-Full/MotorControl/MCSDK/MCLib/Any/Src/sto_pll_speed_pos_fdbk.c **** }
 496              		.loc 1 376 3 is_stmt 1 view .LVU225
 377:MCSDK_v6.3.2-Full/MotorControl/MCSDK/MCLib/Any/Src/sto_pll_speed_pos_fdbk.c **** 
 497              		.loc 1 377 1 is_stmt 0 view .LVU226
 498 01ae 07B0     		add	sp, sp, #28
 499              	.LCFI4:
 500              		.cfi_remember_state
 501              		.cfi_def_cfa_offset 36
 502              		@ sp needed
 503 01b0 BDE8F08F 		pop	{r4, r5, r6, r7, r8, r9, r10, fp, pc}
 504              	.LVL35:
 505              	.L13:
 506              	.LCFI5:
 507              		.cfi_restore_state
 508              	.LBB23:
 355:MCSDK_v6.3.2-Full/MotorControl/MCSDK/MCLib/Any/Src/sto_pll_speed_pos_fdbk.c ****     }
 509              		.loc 1 355 7 is_stmt 1 view .LVU227
 358:MCSDK_v6.3.2-Full/MotorControl/MCSDK/MCLib/Any/Src/sto_pll_speed_pos_fdbk.c ****     hAux_Beta = (int16_t)(hAux_Beta * wDirection);
 510              		.loc 1 358 17 is_stmt 0 view .LVU228
 511 01b4 1FFA80F9 		uxth	r9, r0
 512 01b8 BFE7     		b	.L14
 513              	.LVL36:
 514              	.L11:
 228:MCSDK_v6.3.2-Full/MotorControl/MCSDK/MCLib/Any/Src/sto_pll_speed_pos_fdbk.c ****     {
 515              		.loc 1 228 10 is_stmt 1 view .LVU229
 228:MCSDK_v6.3.2-Full/MotorControl/MCSDK/MCLib/Any/Src/sto_pll_speed_pos_fdbk.c ****     {
 516              		.loc 1 228 48 is_stmt 0 view .LVU230
ARM GAS  /tmp/ccaxKBZ0.s 			page 25


 517 01ba 1B1A     		subs	r3, r3, r0
 228:MCSDK_v6.3.2-Full/MotorControl/MCSDK/MCLib/Any/Src/sto_pll_speed_pos_fdbk.c ****     {
 518              		.loc 1 228 13 view .LVU231
 519 01bc 9845     		cmp	r8, r3
 230:MCSDK_v6.3.2-Full/MotorControl/MCSDK/MCLib/Any/Src/sto_pll_speed_pos_fdbk.c ****     }
 520              		.loc 1 230 7 is_stmt 1 view .LVU232
 230:MCSDK_v6.3.2-Full/MotorControl/MCSDK/MCLib/Any/Src/sto_pll_speed_pos_fdbk.c ****     }
 521              		.loc 1 230 26 is_stmt 0 view .LVU233
 522 01be DCBF     		itt	le
 523 01c0 6366     		strle	r3, [r4, #100]
 524 01c2 9846     		movle	r8, r3
 525 01c4 5AE7     		b	.L12
 526              	.L9:
 215:MCSDK_v6.3.2-Full/MotorControl/MCSDK/MCLib/Any/Src/sto_pll_speed_pos_fdbk.c ****     {
 527              		.loc 1 215 10 is_stmt 1 view .LVU234
 215:MCSDK_v6.3.2-Full/MotorControl/MCSDK/MCLib/Any/Src/sto_pll_speed_pos_fdbk.c ****     {
 528              		.loc 1 215 48 is_stmt 0 view .LVU235
 529 01c6 A3EB0008 		sub	r8, r3, r0
 215:MCSDK_v6.3.2-Full/MotorControl/MCSDK/MCLib/Any/Src/sto_pll_speed_pos_fdbk.c ****     {
 530              		.loc 1 215 13 view .LVU236
 531 01ca C145     		cmp	r9, r8
 217:MCSDK_v6.3.2-Full/MotorControl/MCSDK/MCLib/Any/Src/sto_pll_speed_pos_fdbk.c ****     }
 532              		.loc 1 217 7 is_stmt 1 view .LVU237
 217:MCSDK_v6.3.2-Full/MotorControl/MCSDK/MCLib/Any/Src/sto_pll_speed_pos_fdbk.c ****     }
 533              		.loc 1 217 26 is_stmt 0 view .LVU238
 534 01cc DCBF     		itt	le
 535 01ce C4F86080 		strle	r8, [r4, #96]
 536 01d2 C146     		movle	r9, r8
 537 01d4 4BE7     		b	.L10
 538              	.LVL37:
 539              	.L7:
 196:MCSDK_v6.3.2-Full/MotorControl/MCSDK/MCLib/Any/Src/sto_pll_speed_pos_fdbk.c ****     {
 540              		.loc 1 196 10 is_stmt 1 view .LVU239
 196:MCSDK_v6.3.2-Full/MotorControl/MCSDK/MCLib/Any/Src/sto_pll_speed_pos_fdbk.c ****     {
 541              		.loc 1 196 53 is_stmt 0 view .LVU240
 542 01d6 1B1A     		subs	r3, r3, r0
 196:MCSDK_v6.3.2-Full/MotorControl/MCSDK/MCLib/Any/Src/sto_pll_speed_pos_fdbk.c ****     {
 543              		.loc 1 196 13 view .LVU241
 544 01d8 9E42     		cmp	r6, r3
 198:MCSDK_v6.3.2-Full/MotorControl/MCSDK/MCLib/Any/Src/sto_pll_speed_pos_fdbk.c ****     }
 545              		.loc 1 198 7 is_stmt 1 view .LVU242
 198:MCSDK_v6.3.2-Full/MotorControl/MCSDK/MCLib/Any/Src/sto_pll_speed_pos_fdbk.c ****     }
 546              		.loc 1 198 31 is_stmt 0 view .LVU243
 547 01da DCBF     		itt	le
 548 01dc E366     		strle	r3, [r4, #108]
 549 01de 0193     		strle	r3, [sp, #4]
 550 01e0 33E7     		b	.L8
 551              	.LVL38:
 552              	.L5:
 177:MCSDK_v6.3.2-Full/MotorControl/MCSDK/MCLib/Any/Src/sto_pll_speed_pos_fdbk.c ****     {
 553              		.loc 1 177 10 is_stmt 1 view .LVU244
 177:MCSDK_v6.3.2-Full/MotorControl/MCSDK/MCLib/Any/Src/sto_pll_speed_pos_fdbk.c ****     {
 554              		.loc 1 177 53 is_stmt 0 view .LVU245
 555 01e2 1D1A     		subs	r5, r3, r0
 177:MCSDK_v6.3.2-Full/MotorControl/MCSDK/MCLib/Any/Src/sto_pll_speed_pos_fdbk.c ****     {
 556              		.loc 1 177 13 view .LVU246
 557 01e4 AF42     		cmp	r7, r5
ARM GAS  /tmp/ccaxKBZ0.s 			page 26


 179:MCSDK_v6.3.2-Full/MotorControl/MCSDK/MCLib/Any/Src/sto_pll_speed_pos_fdbk.c ****     }
 558              		.loc 1 179 7 is_stmt 1 view .LVU247
 179:MCSDK_v6.3.2-Full/MotorControl/MCSDK/MCLib/Any/Src/sto_pll_speed_pos_fdbk.c ****     }
 559              		.loc 1 179 31 is_stmt 0 view .LVU248
 560 01e6 DCBF     		itt	le
 561 01e8 A566     		strle	r5, [r4, #104]
 562 01ea 2F46     		movle	r7, r5
 563 01ec 1EE7     		b	.L6
 564              	.LBE23:
 565              		.cfi_endproc
 566              	.LFE1450:
 568 01ee 00BF     		.section	.text.STO_PLL_CalcAvrgMecSpeedUnit,"ax",%progbits
 569              		.align	1
 570              		.p2align 2,,3
 571              		.weak	STO_PLL_CalcAvrgMecSpeedUnit
 572              		.syntax unified
 573              		.thumb
 574              		.thumb_func
 575              		.fpu fpv4-sp-d16
 577              	STO_PLL_CalcAvrgMecSpeedUnit:
 578              	.LVL39:
 579              	.LFB1451:
 396:MCSDK_v6.3.2-Full/MotorControl/MCSDK/MCLib/Any/Src/sto_pll_speed_pos_fdbk.c ****   bool bAux;
 580              		.loc 1 396 1 is_stmt 1 view -0
 581              		.cfi_startproc
 582              		@ args = 0, pretend = 0, frame = 0
 583              		@ frame_needed = 0, uses_anonymous_args = 0
 397:MCSDK_v6.3.2-Full/MotorControl/MCSDK/MCLib/Any/Src/sto_pll_speed_pos_fdbk.c **** #ifdef NULL_PTR_CHECK_STO_PLL_SPD_POS_FDB
 584              		.loc 1 397 3 view .LVU250
 406:MCSDK_v6.3.2-Full/MotorControl/MCSDK/MCLib/Any/Src/sto_pll_speed_pos_fdbk.c ****     int32_t wError;
 585              		.loc 1 406 5 view .LVU251
 407:MCSDK_v6.3.2-Full/MotorControl/MCSDK/MCLib/Any/Src/sto_pll_speed_pos_fdbk.c ****     int32_t wAux;
 586              		.loc 1 407 5 view .LVU252
 408:MCSDK_v6.3.2-Full/MotorControl/MCSDK/MCLib/Any/Src/sto_pll_speed_pos_fdbk.c ****     int32_t wAvrSquareSpeed;
 587              		.loc 1 408 5 view .LVU253
 409:MCSDK_v6.3.2-Full/MotorControl/MCSDK/MCLib/Any/Src/sto_pll_speed_pos_fdbk.c ****     int32_t wAvrQuadraticError = 0;
 588              		.loc 1 409 5 view .LVU254
 410:MCSDK_v6.3.2-Full/MotorControl/MCSDK/MCLib/Any/Src/sto_pll_speed_pos_fdbk.c ****     int32_t wObsBemf, wEstBemf;
 589              		.loc 1 410 5 view .LVU255
 411:MCSDK_v6.3.2-Full/MotorControl/MCSDK/MCLib/Any/Src/sto_pll_speed_pos_fdbk.c ****     int32_t wObsBemfSq = 0;
 590              		.loc 1 411 5 view .LVU256
 412:MCSDK_v6.3.2-Full/MotorControl/MCSDK/MCLib/Any/Src/sto_pll_speed_pos_fdbk.c ****     int32_t wEstBemfSq = 0;
 591              		.loc 1 412 5 view .LVU257
 413:MCSDK_v6.3.2-Full/MotorControl/MCSDK/MCLib/Any/Src/sto_pll_speed_pos_fdbk.c ****     int32_t wEstBemfSqLo;
 592              		.loc 1 413 5 view .LVU258
 414:MCSDK_v6.3.2-Full/MotorControl/MCSDK/MCLib/Any/Src/sto_pll_speed_pos_fdbk.c ****     bool bIs_Speed_Reliable = false;
 593              		.loc 1 414 5 view .LVU259
 415:MCSDK_v6.3.2-Full/MotorControl/MCSDK/MCLib/Any/Src/sto_pll_speed_pos_fdbk.c ****     bool bIs_Bemf_Consistent = false;
 594              		.loc 1 415 5 view .LVU260
 416:MCSDK_v6.3.2-Full/MotorControl/MCSDK/MCLib/Any/Src/sto_pll_speed_pos_fdbk.c ****     uint8_t i, bSpeedBufferSizeUnit = pHandle->SpeedBufferSizeUnit;
 595              		.loc 1 416 5 view .LVU261
 417:MCSDK_v6.3.2-Full/MotorControl/MCSDK/MCLib/Any/Src/sto_pll_speed_pos_fdbk.c **** 
 596              		.loc 1 417 5 view .LVU262
 396:MCSDK_v6.3.2-Full/MotorControl/MCSDK/MCLib/Any/Src/sto_pll_speed_pos_fdbk.c ****   bool bAux;
 597              		.loc 1 396 1 is_stmt 0 view .LVU263
 598 0000 70B5     		push	{r4, r5, r6, lr}
 599              	.LCFI6:
ARM GAS  /tmp/ccaxKBZ0.s 			page 27


 600              		.cfi_def_cfa_offset 16
 601              		.cfi_offset 4, -16
 602              		.cfi_offset 5, -12
 603              		.cfi_offset 6, -8
 604              		.cfi_offset 14, -4
 417:MCSDK_v6.3.2-Full/MotorControl/MCSDK/MCLib/Any/Src/sto_pll_speed_pos_fdbk.c **** 
 605              		.loc 1 417 16 view .LVU264
 606 0002 90F80E51 		ldrb	r5, [r0, #270]	@ zero_extendqisi2
 607              	.LVL40:
 419:MCSDK_v6.3.2-Full/MotorControl/MCSDK/MCLib/Any/Src/sto_pll_speed_pos_fdbk.c ****     {
 608              		.loc 1 419 5 is_stmt 1 view .LVU265
 419:MCSDK_v6.3.2-Full/MotorControl/MCSDK/MCLib/Any/Src/sto_pll_speed_pos_fdbk.c ****     {
 609              		.loc 1 419 18 view .LVU266
 419:MCSDK_v6.3.2-Full/MotorControl/MCSDK/MCLib/Any/Src/sto_pll_speed_pos_fdbk.c ****     {
 610              		.loc 1 419 5 is_stmt 0 view .LVU267
 611 0006 002D     		cmp	r5, #0
 612 0008 00F09C80 		beq	.L37
 613 000c 05F1FF3C 		add	ip, r5, #-1
 614 0010 5FFA8CF3 		uxtb	r3, ip
 615 0014 00F17204 		add	r4, r0, #114
 616 0018 00F1740C 		add	ip, r0, #116
 617 001c 0CEB430C 		add	ip, ip, r3, lsl #1
 406:MCSDK_v6.3.2-Full/MotorControl/MCSDK/MCLib/Any/Src/sto_pll_speed_pos_fdbk.c ****     int32_t wError;
 618              		.loc 1 406 13 view .LVU268
 619 0020 0022     		movs	r2, #0
 419:MCSDK_v6.3.2-Full/MotorControl/MCSDK/MCLib/Any/Src/sto_pll_speed_pos_fdbk.c ****     {
 620              		.loc 1 419 5 view .LVU269
 621 0022 2346     		mov	r3, r4
 622              	.LVL41:
 623              	.L23:
 421:MCSDK_v6.3.2-Full/MotorControl/MCSDK/MCLib/Any/Src/sto_pll_speed_pos_fdbk.c ****     }
 624              		.loc 1 421 7 is_stmt 1 discriminator 3 view .LVU270
 421:MCSDK_v6.3.2-Full/MotorControl/MCSDK/MCLib/Any/Src/sto_pll_speed_pos_fdbk.c ****     }
 625              		.loc 1 421 24 is_stmt 0 discriminator 3 view .LVU271
 626 0024 33F902EF 		ldrsh	lr, [r3, #2]!
 419:MCSDK_v6.3.2-Full/MotorControl/MCSDK/MCLib/Any/Src/sto_pll_speed_pos_fdbk.c ****     {
 627              		.loc 1 419 5 discriminator 3 view .LVU272
 628 0028 9C45     		cmp	ip, r3
 421:MCSDK_v6.3.2-Full/MotorControl/MCSDK/MCLib/Any/Src/sto_pll_speed_pos_fdbk.c ****     }
 629              		.loc 1 421 21 discriminator 3 view .LVU273
 630 002a 7244     		add	r2, r2, lr
 631              	.LVL42:
 419:MCSDK_v6.3.2-Full/MotorControl/MCSDK/MCLib/Any/Src/sto_pll_speed_pos_fdbk.c ****     {
 632              		.loc 1 419 44 is_stmt 1 discriminator 3 view .LVU274
 419:MCSDK_v6.3.2-Full/MotorControl/MCSDK/MCLib/Any/Src/sto_pll_speed_pos_fdbk.c ****     {
 633              		.loc 1 419 18 discriminator 3 view .LVU275
 419:MCSDK_v6.3.2-Full/MotorControl/MCSDK/MCLib/Any/Src/sto_pll_speed_pos_fdbk.c ****     {
 634              		.loc 1 419 5 is_stmt 0 discriminator 3 view .LVU276
 635 002c FAD1     		bne	.L23
 424:MCSDK_v6.3.2-Full/MotorControl/MCSDK/MCLib/Any/Src/sto_pll_speed_pos_fdbk.c ****     {
 636              		.loc 1 424 5 is_stmt 1 view .LVU277
 430:MCSDK_v6.3.2-Full/MotorControl/MCSDK/MCLib/Any/Src/sto_pll_speed_pos_fdbk.c ****     }
 637              		.loc 1 430 7 view .LVU278
 430:MCSDK_v6.3.2-Full/MotorControl/MCSDK/MCLib/Any/Src/sto_pll_speed_pos_fdbk.c ****     }
 638              		.loc 1 430 21 is_stmt 0 view .LVU279
 639 002e 92FBF5FE 		sdiv	lr, r2, r5
 640              	.LVL43:
ARM GAS  /tmp/ccaxKBZ0.s 			page 28


 433:MCSDK_v6.3.2-Full/MotorControl/MCSDK/MCLib/Any/Src/sto_pll_speed_pos_fdbk.c ****     {
 641              		.loc 1 433 5 is_stmt 1 view .LVU280
 433:MCSDK_v6.3.2-Full/MotorControl/MCSDK/MCLib/Any/Src/sto_pll_speed_pos_fdbk.c ****     {
 642              		.loc 1 433 18 view .LVU281
 430:MCSDK_v6.3.2-Full/MotorControl/MCSDK/MCLib/Any/Src/sto_pll_speed_pos_fdbk.c ****     }
 643              		.loc 1 430 21 is_stmt 0 view .LVU282
 644 0032 0022     		movs	r2, #0
 645              	.LVL44:
 646              	.L25:
 435:MCSDK_v6.3.2-Full/MotorControl/MCSDK/MCLib/Any/Src/sto_pll_speed_pos_fdbk.c ****       wError = (wError * wError);
 647              		.loc 1 435 7 is_stmt 1 discriminator 3 view .LVU283
 435:MCSDK_v6.3.2-Full/MotorControl/MCSDK/MCLib/Any/Src/sto_pll_speed_pos_fdbk.c ****       wError = (wError * wError);
 648              		.loc 1 435 17 is_stmt 0 discriminator 3 view .LVU284
 649 0034 34F9023F 		ldrsh	r3, [r4, #2]!
 435:MCSDK_v6.3.2-Full/MotorControl/MCSDK/MCLib/Any/Src/sto_pll_speed_pos_fdbk.c ****       wError = (wError * wError);
 650              		.loc 1 435 14 discriminator 3 view .LVU285
 651 0038 A3EB0E03 		sub	r3, r3, lr
 652              	.LVL45:
 436:MCSDK_v6.3.2-Full/MotorControl/MCSDK/MCLib/Any/Src/sto_pll_speed_pos_fdbk.c ****       wAvrQuadraticError += wError;
 653              		.loc 1 436 7 is_stmt 1 discriminator 3 view .LVU286
 437:MCSDK_v6.3.2-Full/MotorControl/MCSDK/MCLib/Any/Src/sto_pll_speed_pos_fdbk.c ****     }
 654              		.loc 1 437 7 discriminator 3 view .LVU287
 433:MCSDK_v6.3.2-Full/MotorControl/MCSDK/MCLib/Any/Src/sto_pll_speed_pos_fdbk.c ****     {
 655              		.loc 1 433 5 is_stmt 0 discriminator 3 view .LVU288
 656 003c 6445     		cmp	r4, ip
 437:MCSDK_v6.3.2-Full/MotorControl/MCSDK/MCLib/Any/Src/sto_pll_speed_pos_fdbk.c ****     }
 657              		.loc 1 437 26 discriminator 3 view .LVU289
 658 003e 03FB0322 		mla	r2, r3, r3, r2
 659              	.LVL46:
 433:MCSDK_v6.3.2-Full/MotorControl/MCSDK/MCLib/Any/Src/sto_pll_speed_pos_fdbk.c ****     {
 660              		.loc 1 433 44 is_stmt 1 discriminator 3 view .LVU290
 433:MCSDK_v6.3.2-Full/MotorControl/MCSDK/MCLib/Any/Src/sto_pll_speed_pos_fdbk.c ****     {
 661              		.loc 1 433 18 discriminator 3 view .LVU291
 433:MCSDK_v6.3.2-Full/MotorControl/MCSDK/MCLib/Any/Src/sto_pll_speed_pos_fdbk.c ****     {
 662              		.loc 1 433 5 is_stmt 0 discriminator 3 view .LVU292
 663 0042 F7D1     		bne	.L25
 441:MCSDK_v6.3.2-Full/MotorControl/MCSDK/MCLib/Any/Src/sto_pll_speed_pos_fdbk.c **** 
 664              		.loc 1 441 24 view .LVU293
 665 0044 B2FBF5F2 		udiv	r2, r2, r5
 666              	.LVL47:
 444:MCSDK_v6.3.2-Full/MotorControl/MCSDK/MCLib/Any/Src/sto_pll_speed_pos_fdbk.c ****     int64_t lAvrSquareSpeed = (int64_t)(wAvrSquareSpeed) * (int64_t)pHandle->VariancePercentage;
 667              		.loc 1 444 21 view .LVU294
 668 0048 0EFB0EF4 		mul	r4, lr, lr
 445:MCSDK_v6.3.2-Full/MotorControl/MCSDK/MCLib/Any/Src/sto_pll_speed_pos_fdbk.c ****     wAvrSquareSpeed = (int32_t)(lAvrSquareSpeed / (int64_t)128);
 669              		.loc 1 445 31 view .LVU295
 670 004c E617     		asrs	r6, r4, #31
 671              	.LVL48:
 672              	.L22:
 441:MCSDK_v6.3.2-Full/MotorControl/MCSDK/MCLib/Any/Src/sto_pll_speed_pos_fdbk.c **** 
 673              		.loc 1 441 5 is_stmt 1 view .LVU296
 444:MCSDK_v6.3.2-Full/MotorControl/MCSDK/MCLib/Any/Src/sto_pll_speed_pos_fdbk.c ****     int64_t lAvrSquareSpeed = (int64_t)(wAvrSquareSpeed) * (int64_t)pHandle->VariancePercentage;
 674              		.loc 1 444 5 view .LVU297
 445:MCSDK_v6.3.2-Full/MotorControl/MCSDK/MCLib/Any/Src/sto_pll_speed_pos_fdbk.c ****     wAvrSquareSpeed = (int32_t)(lAvrSquareSpeed / (int64_t)128);
 675              		.loc 1 445 5 view .LVU298
 446:MCSDK_v6.3.2-Full/MotorControl/MCSDK/MCLib/Any/Src/sto_pll_speed_pos_fdbk.c ****     
 676              		.loc 1 446 5 view .LVU299
 445:MCSDK_v6.3.2-Full/MotorControl/MCSDK/MCLib/Any/Src/sto_pll_speed_pos_fdbk.c ****     wAvrSquareSpeed = (int32_t)(lAvrSquareSpeed / (int64_t)128);
ARM GAS  /tmp/ccaxKBZ0.s 			page 29


 677              		.loc 1 445 60 is_stmt 0 view .LVU300
 678 004e B0F81051 		ldrh	r5, [r0, #272]
 454:MCSDK_v6.3.2-Full/MotorControl/MCSDK/MCLib/Any/Src/sto_pll_speed_pos_fdbk.c ****     wAux = wAux * ((int32_t)pHandle->_Super.SpeedUnit);
 679              		.loc 1 454 29 view .LVU301
 680 0052 438B     		ldrh	r3, [r0, #26]
 454:MCSDK_v6.3.2-Full/MotorControl/MCSDK/MCLib/Any/Src/sto_pll_speed_pos_fdbk.c ****     wAux = wAux * ((int32_t)pHandle->_Super.SpeedUnit);
 681              		.loc 1 454 10 view .LVU302
 682 0054 0EFB03FE 		mul	lr, lr, r3
 683              	.LVL49:
 445:MCSDK_v6.3.2-Full/MotorControl/MCSDK/MCLib/Any/Src/sto_pll_speed_pos_fdbk.c ****     wAvrSquareSpeed = (int32_t)(lAvrSquareSpeed / (int64_t)128);
 684              		.loc 1 445 13 view .LVU303
 685 0058 A5FB0443 		umull	r4, r3, r5, r4
 686              	.LVL50:
 445:MCSDK_v6.3.2-Full/MotorControl/MCSDK/MCLib/Any/Src/sto_pll_speed_pos_fdbk.c ****     wAvrSquareSpeed = (int32_t)(lAvrSquareSpeed / (int64_t)128);
 687              		.loc 1 445 13 view .LVU304
 688 005c 05FB0633 		mla	r3, r5, r6, r3
 446:MCSDK_v6.3.2-Full/MotorControl/MCSDK/MCLib/Any/Src/sto_pll_speed_pos_fdbk.c ****     
 689              		.loc 1 446 49 view .LVU305
 690 0060 E409     		lsrs	r4, r4, #7
 691 0062 44EA4364 		orr	r4, r4, r3, lsl #25
 692              	.LVL51:
 448:MCSDK_v6.3.2-Full/MotorControl/MCSDK/MCLib/Any/Src/sto_pll_speed_pos_fdbk.c ****     {
 693              		.loc 1 448 5 is_stmt 1 view .LVU306
 454:MCSDK_v6.3.2-Full/MotorControl/MCSDK/MCLib/Any/Src/sto_pll_speed_pos_fdbk.c ****     wAux = wAux * ((int32_t)pHandle->_Super.SpeedUnit);
 694              		.loc 1 454 5 view .LVU307
 455:MCSDK_v6.3.2-Full/MotorControl/MCSDK/MCLib/Any/Src/sto_pll_speed_pos_fdbk.c ****     wAux = wAux / ((int32_t)pHandle->_Super.DPPConvFactor);
 695              		.loc 1 455 5 view .LVU308
 455:MCSDK_v6.3.2-Full/MotorControl/MCSDK/MCLib/Any/Src/sto_pll_speed_pos_fdbk.c ****     wAux = wAux / ((int32_t)pHandle->_Super.DPPConvFactor);
 696              		.loc 1 455 20 is_stmt 0 view .LVU309
 697 0066 8378     		ldrb	r3, [r0, #2]	@ zero_extendqisi2
 465:MCSDK_v6.3.2-Full/MotorControl/MCSDK/MCLib/Any/Src/sto_pll_speed_pos_fdbk.c ****     {
 698              		.loc 1 465 8 view .LVU310
 699 0068 90F80461 		ldrb	r6, [r0, #260]	@ zero_extendqisi2
 456:MCSDK_v6.3.2-Full/MotorControl/MCSDK/MCLib/Any/Src/sto_pll_speed_pos_fdbk.c ****     wAux = wAux / ((int16_t)pHandle->_Super.bElToMecRatio);
 700              		.loc 1 456 10 view .LVU311
 701 006c C569     		ldr	r5, [r0, #28]
 448:MCSDK_v6.3.2-Full/MotorControl/MCSDK/MCLib/Any/Src/sto_pll_speed_pos_fdbk.c ****     {
 702              		.loc 1 448 8 view .LVU312
 703 006e 9442     		cmp	r4, r2
 455:MCSDK_v6.3.2-Full/MotorControl/MCSDK/MCLib/Any/Src/sto_pll_speed_pos_fdbk.c ****     wAux = wAux / ((int32_t)pHandle->_Super.DPPConvFactor);
 704              		.loc 1 455 10 view .LVU313
 705 0070 0EFB03F3 		mul	r3, lr, r3
 706              	.LVL52:
 456:MCSDK_v6.3.2-Full/MotorControl/MCSDK/MCLib/Any/Src/sto_pll_speed_pos_fdbk.c ****     wAux = wAux / ((int16_t)pHandle->_Super.bElToMecRatio);
 707              		.loc 1 456 5 is_stmt 1 view .LVU314
 448:MCSDK_v6.3.2-Full/MotorControl/MCSDK/MCLib/Any/Src/sto_pll_speed_pos_fdbk.c ****     {
 708              		.loc 1 448 8 is_stmt 0 view .LVU315
 709 0074 D8BF     		it	le
 710 0076 4FF0000C 		movle	ip, #0
 456:MCSDK_v6.3.2-Full/MotorControl/MCSDK/MCLib/Any/Src/sto_pll_speed_pos_fdbk.c ****     wAux = wAux / ((int16_t)pHandle->_Super.bElToMecRatio);
 711              		.loc 1 456 10 view .LVU316
 712 007a 93FBF5F3 		sdiv	r3, r3, r5
 713              	.LVL53:
 457:MCSDK_v6.3.2-Full/MotorControl/MCSDK/MCLib/Any/Src/sto_pll_speed_pos_fdbk.c **** 
 714              		.loc 1 457 5 is_stmt 1 view .LVU317
 448:MCSDK_v6.3.2-Full/MotorControl/MCSDK/MCLib/Any/Src/sto_pll_speed_pos_fdbk.c ****     {
 715              		.loc 1 448 8 is_stmt 0 view .LVU318
ARM GAS  /tmp/ccaxKBZ0.s 			page 30


 716 007e C8BF     		it	gt
 717 0080 4FF0010C 		movgt	ip, #1
 457:MCSDK_v6.3.2-Full/MotorControl/MCSDK/MCLib/Any/Src/sto_pll_speed_pos_fdbk.c **** 
 718              		.loc 1 457 20 view .LVU319
 719 0084 4578     		ldrb	r5, [r0, #1]	@ zero_extendqisi2
 457:MCSDK_v6.3.2-Full/MotorControl/MCSDK/MCLib/Any/Src/sto_pll_speed_pos_fdbk.c **** 
 720              		.loc 1 457 10 view .LVU320
 721 0086 93FBF5F3 		sdiv	r3, r3, r5
 722              	.LVL54:
 459:MCSDK_v6.3.2-Full/MotorControl/MCSDK/MCLib/Any/Src/sto_pll_speed_pos_fdbk.c ****     pHandle->_Super.hAvrMecSpeedUnit = (int16_t)wAux;
 723              		.loc 1 459 5 is_stmt 1 view .LVU321
 459:MCSDK_v6.3.2-Full/MotorControl/MCSDK/MCLib/Any/Src/sto_pll_speed_pos_fdbk.c ****     pHandle->_Super.hAvrMecSpeedUnit = (int16_t)wAux;
 724              		.loc 1 459 22 is_stmt 0 view .LVU322
 725 008a 1DB2     		sxth	r5, r3
 459:MCSDK_v6.3.2-Full/MotorControl/MCSDK/MCLib/Any/Src/sto_pll_speed_pos_fdbk.c ****     pHandle->_Super.hAvrMecSpeedUnit = (int16_t)wAux;
 726              		.loc 1 459 20 view .LVU323
 727 008c 0D80     		strh	r5, [r1]	@ movhi
 728              	.LVL55:
 460:MCSDK_v6.3.2-Full/MotorControl/MCSDK/MCLib/Any/Src/sto_pll_speed_pos_fdbk.c **** 
 729              		.loc 1 460 5 is_stmt 1 view .LVU324
 460:MCSDK_v6.3.2-Full/MotorControl/MCSDK/MCLib/Any/Src/sto_pll_speed_pos_fdbk.c **** 
 730              		.loc 1 460 38 is_stmt 0 view .LVU325
 731 008e 8581     		strh	r5, [r0, #12]	@ movhi
 462:MCSDK_v6.3.2-Full/MotorControl/MCSDK/MCLib/Any/Src/sto_pll_speed_pos_fdbk.c **** 
 732              		.loc 1 462 5 is_stmt 1 view .LVU326
 448:MCSDK_v6.3.2-Full/MotorControl/MCSDK/MCLib/Any/Src/sto_pll_speed_pos_fdbk.c ****     {
 733              		.loc 1 448 8 is_stmt 0 view .LVU327
 734 0090 80F8F5C0 		strb	ip, [r0, #245]
 465:MCSDK_v6.3.2-Full/MotorControl/MCSDK/MCLib/Any/Src/sto_pll_speed_pos_fdbk.c ****     {
 735              		.loc 1 465 5 is_stmt 1 view .LVU328
 465:MCSDK_v6.3.2-Full/MotorControl/MCSDK/MCLib/Any/Src/sto_pll_speed_pos_fdbk.c ****     {
 736              		.loc 1 465 8 is_stmt 0 view .LVU329
 737 0094 9EB9     		cbnz	r6, .L26
 738              	.LVL56:
 507:MCSDK_v6.3.2-Full/MotorControl/MCSDK/MCLib/Any/Src/sto_pll_speed_pos_fdbk.c ****     {
 739              		.loc 1 507 5 is_stmt 1 view .LVU330
 507:MCSDK_v6.3.2-Full/MotorControl/MCSDK/MCLib/Any/Src/sto_pll_speed_pos_fdbk.c ****     {
 740              		.loc 1 507 8 is_stmt 0 view .LVU331
 741 0096 90F8F830 		ldrb	r3, [r0, #248]	@ zero_extendqisi2
 742              	.LVL57:
 507:MCSDK_v6.3.2-Full/MotorControl/MCSDK/MCLib/Any/Src/sto_pll_speed_pos_fdbk.c ****     {
 743              		.loc 1 507 8 view .LVU332
 744 009a 43B3     		cbz	r3, .L48
 513:MCSDK_v6.3.2-Full/MotorControl/MCSDK/MCLib/Any/Src/sto_pll_speed_pos_fdbk.c ****       {
 745              		.loc 1 513 7 is_stmt 1 view .LVU333
 513:MCSDK_v6.3.2-Full/MotorControl/MCSDK/MCLib/Any/Src/sto_pll_speed_pos_fdbk.c ****       {
 746              		.loc 1 513 10 is_stmt 0 view .LVU334
 747 009c 9442     		cmp	r4, r2
 748 009e 23DC     		bgt	.L28
 749              	.LVL58:
 750              	.L35:
 515:MCSDK_v6.3.2-Full/MotorControl/MCSDK/MCLib/Any/Src/sto_pll_speed_pos_fdbk.c ****         if (pHandle->ReliabilityCounter >= pHandle->_Super.bMaximumSpeedErrorsNumber)
 751              		.loc 1 515 9 is_stmt 1 view .LVU335
 515:MCSDK_v6.3.2-Full/MotorControl/MCSDK/MCLib/Any/Src/sto_pll_speed_pos_fdbk.c ****         if (pHandle->ReliabilityCounter >= pHandle->_Super.bMaximumSpeedErrorsNumber)
 752              		.loc 1 515 36 is_stmt 0 view .LVU336
 753 00a0 90F8F730 		ldrb	r3, [r0, #247]	@ zero_extendqisi2
 516:MCSDK_v6.3.2-Full/MotorControl/MCSDK/MCLib/Any/Src/sto_pll_speed_pos_fdbk.c ****         {
ARM GAS  /tmp/ccaxKBZ0.s 			page 31


 754              		.loc 1 516 59 view .LVU337
 755 00a4 C278     		ldrb	r2, [r0, #3]	@ zero_extendqisi2
 756              	.LVL59:
 515:MCSDK_v6.3.2-Full/MotorControl/MCSDK/MCLib/Any/Src/sto_pll_speed_pos_fdbk.c ****         if (pHandle->ReliabilityCounter >= pHandle->_Super.bMaximumSpeedErrorsNumber)
 757              		.loc 1 515 36 view .LVU338
 758 00a6 0133     		adds	r3, r3, #1
 759 00a8 DBB2     		uxtb	r3, r3
 516:MCSDK_v6.3.2-Full/MotorControl/MCSDK/MCLib/Any/Src/sto_pll_speed_pos_fdbk.c ****         {
 760              		.loc 1 516 12 view .LVU339
 761 00aa 9342     		cmp	r3, r2
 515:MCSDK_v6.3.2-Full/MotorControl/MCSDK/MCLib/Any/Src/sto_pll_speed_pos_fdbk.c ****         if (pHandle->ReliabilityCounter >= pHandle->_Super.bMaximumSpeedErrorsNumber)
 762              		.loc 1 515 36 view .LVU340
 763 00ac 80F8F730 		strb	r3, [r0, #247]
 516:MCSDK_v6.3.2-Full/MotorControl/MCSDK/MCLib/Any/Src/sto_pll_speed_pos_fdbk.c ****         {
 764              		.loc 1 516 9 is_stmt 1 view .LVU341
 516:MCSDK_v6.3.2-Full/MotorControl/MCSDK/MCLib/Any/Src/sto_pll_speed_pos_fdbk.c ****         {
 765              		.loc 1 516 12 is_stmt 0 view .LVU342
 766 00b0 1DD3     		bcc	.L48
 518:MCSDK_v6.3.2-Full/MotorControl/MCSDK/MCLib/Any/Src/sto_pll_speed_pos_fdbk.c ****           pHandle->_Super.bSpeedErrorNumber = pHandle->_Super.bMaximumSpeedErrorsNumber;
 767              		.loc 1 518 11 is_stmt 1 view .LVU343
 518:MCSDK_v6.3.2-Full/MotorControl/MCSDK/MCLib/Any/Src/sto_pll_speed_pos_fdbk.c ****           pHandle->_Super.bSpeedErrorNumber = pHandle->_Super.bMaximumSpeedErrorsNumber;
 768              		.loc 1 518 39 is_stmt 0 view .LVU344
 769 00b2 0023     		movs	r3, #0
 770 00b4 80F8F730 		strb	r3, [r0, #247]
 519:MCSDK_v6.3.2-Full/MotorControl/MCSDK/MCLib/Any/Src/sto_pll_speed_pos_fdbk.c ****           bAux = false;
 771              		.loc 1 519 11 is_stmt 1 view .LVU345
 519:MCSDK_v6.3.2-Full/MotorControl/MCSDK/MCLib/Any/Src/sto_pll_speed_pos_fdbk.c ****           bAux = false;
 772              		.loc 1 519 45 is_stmt 0 view .LVU346
 773 00b8 0270     		strb	r2, [r0]
 520:MCSDK_v6.3.2-Full/MotorControl/MCSDK/MCLib/Any/Src/sto_pll_speed_pos_fdbk.c ****         }
 774              		.loc 1 520 11 is_stmt 1 view .LVU347
 775              	.LVL60:
 536:MCSDK_v6.3.2-Full/MotorControl/MCSDK/MCLib/Any/Src/sto_pll_speed_pos_fdbk.c **** }
 776              		.loc 1 536 3 view .LVU348
 537:MCSDK_v6.3.2-Full/MotorControl/MCSDK/MCLib/Any/Src/sto_pll_speed_pos_fdbk.c **** 
 777              		.loc 1 537 1 is_stmt 0 view .LVU349
 778 00ba 1846     		mov	r0, r3
 779              	.LVL61:
 537:MCSDK_v6.3.2-Full/MotorControl/MCSDK/MCLib/Any/Src/sto_pll_speed_pos_fdbk.c **** 
 780              		.loc 1 537 1 view .LVU350
 781 00bc 70BD     		pop	{r4, r5, r6, pc}
 782              	.LVL62:
 783              	.L26:
 469:MCSDK_v6.3.2-Full/MotorControl/MCSDK/MCLib/Any/Src/sto_pll_speed_pos_fdbk.c ****       if (wAux < (int32_t)(pHandle->MaxAppPositiveMecSpeedUnit))
 784              		.loc 1 469 7 is_stmt 1 view .LVU351
 469:MCSDK_v6.3.2-Full/MotorControl/MCSDK/MCLib/Any/Src/sto_pll_speed_pos_fdbk.c ****       if (wAux < (int32_t)(pHandle->MaxAppPositiveMecSpeedUnit))
 785              		.loc 1 469 12 is_stmt 0 view .LVU352
 786 00be 002B     		cmp	r3, #0
 470:MCSDK_v6.3.2-Full/MotorControl/MCSDK/MCLib/Any/Src/sto_pll_speed_pos_fdbk.c ****       {
 787              		.loc 1 470 18 view .LVU353
 788 00c0 B0F81A51 		ldrh	r5, [r0, #282]
 469:MCSDK_v6.3.2-Full/MotorControl/MCSDK/MCLib/Any/Src/sto_pll_speed_pos_fdbk.c ****       if (wAux < (int32_t)(pHandle->MaxAppPositiveMecSpeedUnit))
 789              		.loc 1 469 12 view .LVU354
 790 00c4 B8BF     		it	lt
 791 00c6 5B42     		rsblt	r3, r3, #0
 792              	.LVL63:
 470:MCSDK_v6.3.2-Full/MotorControl/MCSDK/MCLib/Any/Src/sto_pll_speed_pos_fdbk.c ****       {
ARM GAS  /tmp/ccaxKBZ0.s 			page 32


 793              		.loc 1 470 7 is_stmt 1 view .LVU355
 470:MCSDK_v6.3.2-Full/MotorControl/MCSDK/MCLib/Any/Src/sto_pll_speed_pos_fdbk.c ****       {
 794              		.loc 1 470 10 is_stmt 0 view .LVU356
 795 00c8 9D42     		cmp	r5, r3
 796 00ca 14DC     		bgt	.L49
 416:MCSDK_v6.3.2-Full/MotorControl/MCSDK/MCLib/Any/Src/sto_pll_speed_pos_fdbk.c ****     uint8_t i, bSpeedBufferSizeUnit = pHandle->SpeedBufferSizeUnit;
 797              		.loc 1 416 10 view .LVU357
 798 00cc 0025     		movs	r5, #0
 413:MCSDK_v6.3.2-Full/MotorControl/MCSDK/MCLib/Any/Src/sto_pll_speed_pos_fdbk.c ****     int32_t wEstBemfSqLo;
 799              		.loc 1 413 13 view .LVU358
 800 00ce 2B46     		mov	r3, r5
 801              	.LVL64:
 412:MCSDK_v6.3.2-Full/MotorControl/MCSDK/MCLib/Any/Src/sto_pll_speed_pos_fdbk.c ****     int32_t wEstBemfSq = 0;
 802              		.loc 1 412 13 view .LVU359
 803 00d0 2E46     		mov	r6, r5
 804              	.LVL65:
 805              	.L31:
 494:MCSDK_v6.3.2-Full/MotorControl/MCSDK/MCLib/Any/Src/sto_pll_speed_pos_fdbk.c ****       }
 806              		.loc 1 494 9 is_stmt 1 view .LVU360
 497:MCSDK_v6.3.2-Full/MotorControl/MCSDK/MCLib/Any/Src/sto_pll_speed_pos_fdbk.c ****       pHandle->Obs_Bemf_Level = wObsBemfSq;
 807              		.loc 1 497 7 view .LVU361
 499:MCSDK_v6.3.2-Full/MotorControl/MCSDK/MCLib/Any/Src/sto_pll_speed_pos_fdbk.c ****     }
 808              		.loc 1 499 31 is_stmt 0 view .LVU362
 809 00d2 C0E93F63 		strd	r6, r3, [r0, #252]
 507:MCSDK_v6.3.2-Full/MotorControl/MCSDK/MCLib/Any/Src/sto_pll_speed_pos_fdbk.c ****     {
 810              		.loc 1 507 8 view .LVU363
 811 00d6 90F8F830 		ldrb	r3, [r0, #248]	@ zero_extendqisi2
 812              	.LVL66:
 497:MCSDK_v6.3.2-Full/MotorControl/MCSDK/MCLib/Any/Src/sto_pll_speed_pos_fdbk.c ****       pHandle->Obs_Bemf_Level = wObsBemfSq;
 813              		.loc 1 497 33 view .LVU364
 814 00da 80F8F950 		strb	r5, [r0, #249]
 498:MCSDK_v6.3.2-Full/MotorControl/MCSDK/MCLib/Any/Src/sto_pll_speed_pos_fdbk.c ****       pHandle->Est_Bemf_Level = wEstBemfSq;
 815              		.loc 1 498 7 is_stmt 1 view .LVU365
 499:MCSDK_v6.3.2-Full/MotorControl/MCSDK/MCLib/Any/Src/sto_pll_speed_pos_fdbk.c ****     }
 816              		.loc 1 499 7 view .LVU366
 507:MCSDK_v6.3.2-Full/MotorControl/MCSDK/MCLib/Any/Src/sto_pll_speed_pos_fdbk.c ****     {
 817              		.loc 1 507 5 view .LVU367
 507:MCSDK_v6.3.2-Full/MotorControl/MCSDK/MCLib/Any/Src/sto_pll_speed_pos_fdbk.c ****     {
 818              		.loc 1 507 8 is_stmt 0 view .LVU368
 819 00de 33B1     		cbz	r3, .L48
 513:MCSDK_v6.3.2-Full/MotorControl/MCSDK/MCLib/Any/Src/sto_pll_speed_pos_fdbk.c ****       {
 820              		.loc 1 513 7 is_stmt 1 view .LVU369
 513:MCSDK_v6.3.2-Full/MotorControl/MCSDK/MCLib/Any/Src/sto_pll_speed_pos_fdbk.c ****       {
 821              		.loc 1 513 10 is_stmt 0 view .LVU370
 822 00e0 9442     		cmp	r4, r2
 823 00e2 DDDD     		ble	.L35
 513:MCSDK_v6.3.2-Full/MotorControl/MCSDK/MCLib/Any/Src/sto_pll_speed_pos_fdbk.c ****       {
 824              		.loc 1 513 47 discriminator 1 view .LVU371
 825 00e4 002D     		cmp	r5, #0
 826 00e6 DBD0     		beq	.L35
 827              	.LVL67:
 828              	.L28:
 529:MCSDK_v6.3.2-Full/MotorControl/MCSDK/MCLib/Any/Src/sto_pll_speed_pos_fdbk.c ****         bAux = SPD_IsMecSpeedReliable (&pHandle->_Super, pMecSpeedUnit);
 829              		.loc 1 529 9 is_stmt 1 view .LVU372
 529:MCSDK_v6.3.2-Full/MotorControl/MCSDK/MCLib/Any/Src/sto_pll_speed_pos_fdbk.c ****         bAux = SPD_IsMecSpeedReliable (&pHandle->_Super, pMecSpeedUnit);
 830              		.loc 1 529 37 is_stmt 0 view .LVU373
 831 00e8 0023     		movs	r3, #0
ARM GAS  /tmp/ccaxKBZ0.s 			page 33


 832 00ea 80F8F730 		strb	r3, [r0, #247]
 833              	.LVL68:
 834              	.L48:
 530:MCSDK_v6.3.2-Full/MotorControl/MCSDK/MCLib/Any/Src/sto_pll_speed_pos_fdbk.c ****       }
 835              		.loc 1 530 9 is_stmt 1 view .LVU374
 537:MCSDK_v6.3.2-Full/MotorControl/MCSDK/MCLib/Any/Src/sto_pll_speed_pos_fdbk.c **** 
 836              		.loc 1 537 1 is_stmt 0 view .LVU375
 837 00ee BDE87040 		pop	{r4, r5, r6, lr}
 838              	.LCFI7:
 839              		.cfi_remember_state
 840              		.cfi_restore 14
 841              		.cfi_restore 6
 842              		.cfi_restore 5
 843              		.cfi_restore 4
 844              		.cfi_def_cfa_offset 0
 845              	.LVL69:
 530:MCSDK_v6.3.2-Full/MotorControl/MCSDK/MCLib/Any/Src/sto_pll_speed_pos_fdbk.c ****       }
 846              		.loc 1 530 16 view .LVU376
 847 00f2 FFF7FEBF 		b	SPD_IsMecSpeedReliable
 848              	.LVL70:
 849              	.L49:
 850              	.LCFI8:
 851              		.cfi_restore_state
 473:MCSDK_v6.3.2-Full/MotorControl/MCSDK/MCLib/Any/Src/sto_pll_speed_pos_fdbk.c ****         wObsBemfSq = wObsBemf * wObsBemf;
 852              		.loc 1 473 9 is_stmt 1 view .LVU377
 473:MCSDK_v6.3.2-Full/MotorControl/MCSDK/MCLib/Any/Src/sto_pll_speed_pos_fdbk.c ****         wObsBemfSq = wObsBemf * wObsBemf;
 853              		.loc 1 473 36 is_stmt 0 view .LVU378
 854 00f6 B0F97060 		ldrsh	r6, [r0, #112]
 855              	.LVL71:
 474:MCSDK_v6.3.2-Full/MotorControl/MCSDK/MCLib/Any/Src/sto_pll_speed_pos_fdbk.c ****         wObsBemf = (int32_t)pHandle->hBemf_beta_est;
 856              		.loc 1 474 9 is_stmt 1 view .LVU379
 475:MCSDK_v6.3.2-Full/MotorControl/MCSDK/MCLib/Any/Src/sto_pll_speed_pos_fdbk.c ****         wObsBemfSq += wObsBemf * wObsBemf;
 857              		.loc 1 475 36 is_stmt 0 view .LVU380
 858 00fa B0F972C0 		ldrsh	ip, [r0, #114]
 480:MCSDK_v6.3.2-Full/MotorControl/MCSDK/MCLib/Any/Src/sto_pll_speed_pos_fdbk.c ****         wEstBemfSq *= wEstBemf;
 859              		.loc 1 480 35 view .LVU381
 860 00fe 90F81851 		ldrb	r5, [r0, #280]	@ zero_extendqisi2
 474:MCSDK_v6.3.2-Full/MotorControl/MCSDK/MCLib/Any/Src/sto_pll_speed_pos_fdbk.c ****         wObsBemf = (int32_t)pHandle->hBemf_beta_est;
 861              		.loc 1 474 20 view .LVU382
 862 0102 06FB06F6 		mul	r6, r6, r6
 863              	.LVL72:
 475:MCSDK_v6.3.2-Full/MotorControl/MCSDK/MCLib/Any/Src/sto_pll_speed_pos_fdbk.c ****         wObsBemfSq += wObsBemf * wObsBemf;
 864              		.loc 1 475 9 is_stmt 1 view .LVU383
 476:MCSDK_v6.3.2-Full/MotorControl/MCSDK/MCLib/Any/Src/sto_pll_speed_pos_fdbk.c **** 
 865              		.loc 1 476 9 view .LVU384
 476:MCSDK_v6.3.2-Full/MotorControl/MCSDK/MCLib/Any/Src/sto_pll_speed_pos_fdbk.c **** 
 866              		.loc 1 476 20 is_stmt 0 view .LVU385
 867 0106 0CFB0C66 		mla	r6, ip, ip, r6
 868              	.LVL73:
 479:MCSDK_v6.3.2-Full/MotorControl/MCSDK/MCLib/Any/Src/sto_pll_speed_pos_fdbk.c ****         wEstBemfSq = (wEstBemf * ((int32_t)pHandle->BemfConsistencyGain)) / 64;
 869              		.loc 1 479 9 is_stmt 1 view .LVU386
 479:MCSDK_v6.3.2-Full/MotorControl/MCSDK/MCLib/Any/Src/sto_pll_speed_pos_fdbk.c ****         wEstBemfSq = (wEstBemf * ((int32_t)pHandle->BemfConsistencyGain)) / 64;
 870              		.loc 1 479 26 is_stmt 0 view .LVU387
 871 010a C3EBC333 		rsb	r3, r3, r3, lsl #15
 872              	.LVL74:
 479:MCSDK_v6.3.2-Full/MotorControl/MCSDK/MCLib/Any/Src/sto_pll_speed_pos_fdbk.c ****         wEstBemfSq = (wEstBemf * ((int32_t)pHandle->BemfConsistencyGain)) / 64;
 873              		.loc 1 479 38 view .LVU388
ARM GAS  /tmp/ccaxKBZ0.s 			page 34


 874 010e B0F914C0 		ldrsh	ip, [r0, #20]
 875              	.LVL75:
 479:MCSDK_v6.3.2-Full/MotorControl/MCSDK/MCLib/Any/Src/sto_pll_speed_pos_fdbk.c ****         wEstBemfSq = (wEstBemf * ((int32_t)pHandle->BemfConsistencyGain)) / 64;
 876              		.loc 1 479 18 view .LVU389
 877 0112 93FBFCF3 		sdiv	r3, r3, ip
 878              	.LVL76:
 480:MCSDK_v6.3.2-Full/MotorControl/MCSDK/MCLib/Any/Src/sto_pll_speed_pos_fdbk.c ****         wEstBemfSq *= wEstBemf;
 879              		.loc 1 480 9 is_stmt 1 view .LVU390
 480:MCSDK_v6.3.2-Full/MotorControl/MCSDK/MCLib/Any/Src/sto_pll_speed_pos_fdbk.c ****         wEstBemfSq *= wEstBemf;
 880              		.loc 1 480 32 is_stmt 0 view .LVU391
 881 0116 03FB05F5 		mul	r5, r3, r5
 480:MCSDK_v6.3.2-Full/MotorControl/MCSDK/MCLib/Any/Src/sto_pll_speed_pos_fdbk.c ****         wEstBemfSq *= wEstBemf;
 882              		.loc 1 480 20 view .LVU392
 883 011a 002D     		cmp	r5, #0
 884 011c B8BF     		it	lt
 885 011e 3F35     		addlt	r5, r5, #63
 886 0120 AD11     		asrs	r5, r5, #6
 887              	.LVL77:
 481:MCSDK_v6.3.2-Full/MotorControl/MCSDK/MCLib/Any/Src/sto_pll_speed_pos_fdbk.c **** 
 888              		.loc 1 481 9 is_stmt 1 view .LVU393
 481:MCSDK_v6.3.2-Full/MotorControl/MCSDK/MCLib/Any/Src/sto_pll_speed_pos_fdbk.c **** 
 889              		.loc 1 481 20 is_stmt 0 view .LVU394
 890 0122 05FB03F3 		mul	r3, r5, r3
 891              	.LVL78:
 484:MCSDK_v6.3.2-Full/MotorControl/MCSDK/MCLib/Any/Src/sto_pll_speed_pos_fdbk.c **** 
 892              		.loc 1 484 9 is_stmt 1 view .LVU395
 487:MCSDK_v6.3.2-Full/MotorControl/MCSDK/MCLib/Any/Src/sto_pll_speed_pos_fdbk.c ****         {
 893              		.loc 1 487 9 view .LVU396
 484:MCSDK_v6.3.2-Full/MotorControl/MCSDK/MCLib/Any/Src/sto_pll_speed_pos_fdbk.c **** 
 894              		.loc 1 484 50 is_stmt 0 view .LVU397
 895 0126 002B     		cmp	r3, #0
 896 0128 1D46     		mov	r5, r3
 484:MCSDK_v6.3.2-Full/MotorControl/MCSDK/MCLib/Any/Src/sto_pll_speed_pos_fdbk.c **** 
 897              		.loc 1 484 59 view .LVU398
 898 012a 90F817C1 		ldrb	ip, [r0, #279]	@ zero_extendqisi2
 484:MCSDK_v6.3.2-Full/MotorControl/MCSDK/MCLib/Any/Src/sto_pll_speed_pos_fdbk.c **** 
 899              		.loc 1 484 50 view .LVU399
 900 012e B8BF     		it	lt
 901 0130 03F13F05 		addlt	r5, r3, #63
 902 0134 AD11     		asrs	r5, r5, #6
 484:MCSDK_v6.3.2-Full/MotorControl/MCSDK/MCLib/Any/Src/sto_pll_speed_pos_fdbk.c **** 
 903              		.loc 1 484 22 view .LVU400
 904 0136 0CFB1535 		mls	r5, ip, r5, r3
 487:MCSDK_v6.3.2-Full/MotorControl/MCSDK/MCLib/Any/Src/sto_pll_speed_pos_fdbk.c ****         {
 905              		.loc 1 487 12 view .LVU401
 906 013a AE42     		cmp	r6, r5
 907 013c D4BF     		ite	le
 908 013e 0025     		movle	r5, #0
 909 0140 0125     		movgt	r5, #1
 910 0142 C6E7     		b	.L31
 911              	.LVL79:
 912              	.L37:
 419:MCSDK_v6.3.2-Full/MotorControl/MCSDK/MCLib/Any/Src/sto_pll_speed_pos_fdbk.c ****     {
 913              		.loc 1 419 5 view .LVU402
 914 0144 2A46     		mov	r2, r5
 915 0146 2C46     		mov	r4, r5
 916 0148 2E46     		mov	r6, r5
ARM GAS  /tmp/ccaxKBZ0.s 			page 35


 406:MCSDK_v6.3.2-Full/MotorControl/MCSDK/MCLib/Any/Src/sto_pll_speed_pos_fdbk.c ****     int32_t wError;
 917              		.loc 1 406 13 view .LVU403
 918 014a AE46     		mov	lr, r5
 919 014c 7FE7     		b	.L22
 920              		.cfi_endproc
 921              	.LFE1451:
 923 014e 00BF     		.section	.text.STO_PLL_CalcAvrgElSpeedDpp,"ax",%progbits
 924              		.align	1
 925              		.p2align 2,,3
 926              		.weak	STO_PLL_CalcAvrgElSpeedDpp
 927              		.syntax unified
 928              		.thumb
 929              		.thumb_func
 930              		.fpu fpv4-sp-d16
 932              	STO_PLL_CalcAvrgElSpeedDpp:
 933              	.LVL80:
 934              	.LFB1452:
 559:MCSDK_v6.3.2-Full/MotorControl/MCSDK/MCLib/Any/Src/sto_pll_speed_pos_fdbk.c **** #ifdef NULL_PTR_CHECK_STO_PLL_SPD_POS_FDB
 935              		.loc 1 559 1 is_stmt 1 view -0
 936              		.cfi_startproc
 937              		@ args = 0, pretend = 0, frame = 0
 938              		@ frame_needed = 0, uses_anonymous_args = 0
 568:MCSDK_v6.3.2-Full/MotorControl/MCSDK/MCLib/Any/Src/sto_pll_speed_pos_fdbk.c ****     int32_t wAvrSpeed_dpp;
 939              		.loc 1 568 5 view .LVU405
 571:MCSDK_v6.3.2-Full/MotorControl/MCSDK/MCLib/Any/Src/sto_pll_speed_pos_fdbk.c ****     int16_t hBufferSizeDiff;
 940              		.loc 1 571 52 is_stmt 0 view .LVU406
 941 0000 90F80E11 		ldrb	r1, [r0, #270]	@ zero_extendqisi2
 577:MCSDK_v6.3.2-Full/MotorControl/MCSDK/MCLib/Any/Src/sto_pll_speed_pos_fdbk.c **** 
 942              		.loc 1 577 44 view .LVU407
 943 0004 90F80F31 		ldrb	r3, [r0, #271]	@ zero_extendqisi2
 573:MCSDK_v6.3.2-Full/MotorControl/MCSDK/MCLib/Any/Src/sto_pll_speed_pos_fdbk.c ****     int16_t hIndexOld;
 944              		.loc 1 573 41 view .LVU408
 945 0008 90F8F420 		ldrb	r2, [r0, #244]	@ zero_extendqisi2
 577:MCSDK_v6.3.2-Full/MotorControl/MCSDK/MCLib/Any/Src/sto_pll_speed_pos_fdbk.c **** 
 946              		.loc 1 577 44 view .LVU409
 947 000c CB1A     		subs	r3, r1, r3
 948 000e 9BB2     		uxth	r3, r3
 559:MCSDK_v6.3.2-Full/MotorControl/MCSDK/MCLib/Any/Src/sto_pll_speed_pos_fdbk.c **** #ifdef NULL_PTR_CHECK_STO_PLL_SPD_POS_FDB
 949              		.loc 1 559 1 view .LVU410
 950 0010 10B5     		push	{r4, lr}
 951              	.LCFI9:
 952              		.cfi_def_cfa_offset 8
 953              		.cfi_offset 4, -8
 954              		.cfi_offset 14, -4
 568:MCSDK_v6.3.2-Full/MotorControl/MCSDK/MCLib/Any/Src/sto_pll_speed_pos_fdbk.c ****     int32_t wAvrSpeed_dpp;
 955              		.loc 1 568 13 view .LVU411
 956 0012 D0F80841 		ldr	r4, [r0, #264]
 957              	.LVL81:
 569:MCSDK_v6.3.2-Full/MotorControl/MCSDK/MCLib/Any/Src/sto_pll_speed_pos_fdbk.c ****     int16_t hSpeedBufferSizedpp = (int16_t)pHandle->SpeedBufferSizeDpp;
 958              		.loc 1 569 5 is_stmt 1 view .LVU412
 570:MCSDK_v6.3.2-Full/MotorControl/MCSDK/MCLib/Any/Src/sto_pll_speed_pos_fdbk.c ****     int16_t hSpeedBufferSizeUnit = (int16_t)pHandle->SpeedBufferSizeUnit;
 959              		.loc 1 570 5 view .LVU413
 571:MCSDK_v6.3.2-Full/MotorControl/MCSDK/MCLib/Any/Src/sto_pll_speed_pos_fdbk.c ****     int16_t hBufferSizeDiff;
 960              		.loc 1 571 5 view .LVU414
 572:MCSDK_v6.3.2-Full/MotorControl/MCSDK/MCLib/Any/Src/sto_pll_speed_pos_fdbk.c ****     int16_t hIndexNew = (int16_t)pHandle->Speed_Buffer_Index;
 961              		.loc 1 572 5 view .LVU415
 573:MCSDK_v6.3.2-Full/MotorControl/MCSDK/MCLib/Any/Src/sto_pll_speed_pos_fdbk.c ****     int16_t hIndexOld;
ARM GAS  /tmp/ccaxKBZ0.s 			page 36


 962              		.loc 1 573 5 view .LVU416
 574:MCSDK_v6.3.2-Full/MotorControl/MCSDK/MCLib/Any/Src/sto_pll_speed_pos_fdbk.c ****     int16_t hIndexOldTemp;
 963              		.loc 1 574 5 view .LVU417
 575:MCSDK_v6.3.2-Full/MotorControl/MCSDK/MCLib/Any/Src/sto_pll_speed_pos_fdbk.c **** 
 964              		.loc 1 575 5 view .LVU418
 577:MCSDK_v6.3.2-Full/MotorControl/MCSDK/MCLib/Any/Src/sto_pll_speed_pos_fdbk.c **** 
 965              		.loc 1 577 5 view .LVU419
 579:MCSDK_v6.3.2-Full/MotorControl/MCSDK/MCLib/Any/Src/sto_pll_speed_pos_fdbk.c ****     {
 966              		.loc 1 579 5 view .LVU420
 579:MCSDK_v6.3.2-Full/MotorControl/MCSDK/MCLib/Any/Src/sto_pll_speed_pos_fdbk.c ****     {
 967              		.loc 1 579 8 is_stmt 0 view .LVU421
 968 0016 73B9     		cbnz	r3, .L51
 581:MCSDK_v6.3.2-Full/MotorControl/MCSDK/MCLib/Any/Src/sto_pll_speed_pos_fdbk.c ****     }
 969              		.loc 1 581 7 is_stmt 1 view .LVU422
 581:MCSDK_v6.3.2-Full/MotorControl/MCSDK/MCLib/Any/Src/sto_pll_speed_pos_fdbk.c ****     }
 970              		.loc 1 581 42 is_stmt 0 view .LVU423
 971 0018 00EB4202 		add	r2, r0, r2, lsl #1
 972              	.LVL82:
 581:MCSDK_v6.3.2-Full/MotorControl/MCSDK/MCLib/Any/Src/sto_pll_speed_pos_fdbk.c ****     }
 973              		.loc 1 581 63 view .LVU424
 974 001c B0F90C11 		ldrsh	r1, [r0, #268]
 975              	.LVL83:
 581:MCSDK_v6.3.2-Full/MotorControl/MCSDK/MCLib/Any/Src/sto_pll_speed_pos_fdbk.c ****     }
 976              		.loc 1 581 42 view .LVU425
 977 0020 B2F97430 		ldrsh	r3, [r2, #116]
 978              	.LVL84:
 581:MCSDK_v6.3.2-Full/MotorControl/MCSDK/MCLib/Any/Src/sto_pll_speed_pos_fdbk.c ****     }
 979              		.loc 1 581 19 view .LVU426
 980 0024 2344     		add	r3, r3, r4
 581:MCSDK_v6.3.2-Full/MotorControl/MCSDK/MCLib/Any/Src/sto_pll_speed_pos_fdbk.c ****     }
 981              		.loc 1 581 12 view .LVU427
 982 0026 5B1A     		subs	r3, r3, r1
 983              	.LVL85:
 984              	.L52:
 601:MCSDK_v6.3.2-Full/MotorControl/MCSDK/MCLib/Any/Src/sto_pll_speed_pos_fdbk.c **** #else
 985              		.loc 1 601 3 is_stmt 1 view .LVU428
 613:MCSDK_v6.3.2-Full/MotorControl/MCSDK/MCLib/Any/Src/sto_pll_speed_pos_fdbk.c ****     pHandle->DppBufferSum = wSum;
 986              		.loc 1 613 5 view .LVU429
 601:MCSDK_v6.3.2-Full/MotorControl/MCSDK/MCLib/Any/Src/sto_pll_speed_pos_fdbk.c **** #else
 987              		.loc 1 601 34 is_stmt 0 view .LVU430
 988 0028 B0F82021 		ldrh	r2, [r0, #288]
 614:MCSDK_v6.3.2-Full/MotorControl/MCSDK/MCLib/Any/Src/sto_pll_speed_pos_fdbk.c **** #ifdef NULL_PTR_CHECK_STO_PLL_SPD_POS_FDB
 989              		.loc 1 614 27 view .LVU431
 990 002c C0F80831 		str	r3, [r0, #264]
 601:MCSDK_v6.3.2-Full/MotorControl/MCSDK/MCLib/Any/Src/sto_pll_speed_pos_fdbk.c **** #else
 991              		.loc 1 601 17 view .LVU432
 992 0030 1341     		asrs	r3, r3, r2
 993              	.LVL86:
 613:MCSDK_v6.3.2-Full/MotorControl/MCSDK/MCLib/Any/Src/sto_pll_speed_pos_fdbk.c ****     pHandle->DppBufferSum = wSum;
 994              		.loc 1 613 35 view .LVU433
 995 0032 C381     		strh	r3, [r0, #14]	@ movhi
 614:MCSDK_v6.3.2-Full/MotorControl/MCSDK/MCLib/Any/Src/sto_pll_speed_pos_fdbk.c **** #ifdef NULL_PTR_CHECK_STO_PLL_SPD_POS_FDB
 996              		.loc 1 614 5 is_stmt 1 view .LVU434
 618:MCSDK_v6.3.2-Full/MotorControl/MCSDK/MCLib/Any/Src/sto_pll_speed_pos_fdbk.c **** 
 997              		.loc 1 618 1 is_stmt 0 view .LVU435
 998 0034 10BD     		pop	{r4, pc}
 999              	.LVL87:
ARM GAS  /tmp/ccaxKBZ0.s 			page 37


 1000              	.L51:
 585:MCSDK_v6.3.2-Full/MotorControl/MCSDK/MCLib/Any/Src/sto_pll_speed_pos_fdbk.c **** 
 1001              		.loc 1 585 7 is_stmt 1 view .LVU436
 585:MCSDK_v6.3.2-Full/MotorControl/MCSDK/MCLib/Any/Src/sto_pll_speed_pos_fdbk.c **** 
 1002              		.loc 1 585 33 is_stmt 0 view .LVU437
 1003 0036 1344     		add	r3, r3, r2
 1004              	.LVL88:
 585:MCSDK_v6.3.2-Full/MotorControl/MCSDK/MCLib/Any/Src/sto_pll_speed_pos_fdbk.c **** 
 1005              		.loc 1 585 21 view .LVU438
 1006 0038 0FFA83FC 		sxth	ip, r3
 1007              	.LVL89:
 587:MCSDK_v6.3.2-Full/MotorControl/MCSDK/MCLib/Any/Src/sto_pll_speed_pos_fdbk.c ****       {
 1008              		.loc 1 587 7 is_stmt 1 view .LVU439
 587:MCSDK_v6.3.2-Full/MotorControl/MCSDK/MCLib/Any/Src/sto_pll_speed_pos_fdbk.c ****       {
 1009              		.loc 1 587 10 is_stmt 0 view .LVU440
 1010 003c 6145     		cmp	r1, ip
 585:MCSDK_v6.3.2-Full/MotorControl/MCSDK/MCLib/Any/Src/sto_pll_speed_pos_fdbk.c **** 
 1011              		.loc 1 585 33 view .LVU441
 1012 003e 9BB2     		uxth	r3, r3
 587:MCSDK_v6.3.2-Full/MotorControl/MCSDK/MCLib/Any/Src/sto_pll_speed_pos_fdbk.c ****       {
 1013              		.loc 1 587 10 view .LVU442
 1014 0040 05DC     		bgt	.L53
 1015 0042 1FFA81FE 		uxth	lr, r1
 589:MCSDK_v6.3.2-Full/MotorControl/MCSDK/MCLib/Any/Src/sto_pll_speed_pos_fdbk.c ****       }
 1016              		.loc 1 589 9 is_stmt 1 view .LVU443
 589:MCSDK_v6.3.2-Full/MotorControl/MCSDK/MCLib/Any/Src/sto_pll_speed_pos_fdbk.c ****       }
 1017              		.loc 1 589 35 is_stmt 0 view .LVU444
 1018 0046 A3EB0E03 		sub	r3, r3, lr
 589:MCSDK_v6.3.2-Full/MotorControl/MCSDK/MCLib/Any/Src/sto_pll_speed_pos_fdbk.c ****       }
 1019              		.loc 1 589 19 view .LVU445
 1020 004a 0FFA83FC 		sxth	ip, r3
 1021              	.LVL90:
 1022              	.L53:
 596:MCSDK_v6.3.2-Full/MotorControl/MCSDK/MCLib/Any/Src/sto_pll_speed_pos_fdbk.c ****     }
 1023              		.loc 1 596 7 is_stmt 1 view .LVU446
 596:MCSDK_v6.3.2-Full/MotorControl/MCSDK/MCLib/Any/Src/sto_pll_speed_pos_fdbk.c ****     }
 1024              		.loc 1 596 42 is_stmt 0 view .LVU447
 1025 004e 00EB4202 		add	r2, r0, r2, lsl #1
 1026              	.LVL91:
 596:MCSDK_v6.3.2-Full/MotorControl/MCSDK/MCLib/Any/Src/sto_pll_speed_pos_fdbk.c ****     }
 1027              		.loc 1 596 77 view .LVU448
 1028 0052 00EB4C0C 		add	ip, r0, ip, lsl #1
 1029              	.LVL92:
 596:MCSDK_v6.3.2-Full/MotorControl/MCSDK/MCLib/Any/Src/sto_pll_speed_pos_fdbk.c ****     }
 1030              		.loc 1 596 42 view .LVU449
 1031 0056 B2F97430 		ldrsh	r3, [r2, #116]
 596:MCSDK_v6.3.2-Full/MotorControl/MCSDK/MCLib/Any/Src/sto_pll_speed_pos_fdbk.c ****     }
 1032              		.loc 1 596 77 view .LVU450
 1033 005a BCF97420 		ldrsh	r2, [ip, #116]
 596:MCSDK_v6.3.2-Full/MotorControl/MCSDK/MCLib/Any/Src/sto_pll_speed_pos_fdbk.c ****     }
 1034              		.loc 1 596 19 view .LVU451
 1035 005e 2344     		add	r3, r3, r4
 596:MCSDK_v6.3.2-Full/MotorControl/MCSDK/MCLib/Any/Src/sto_pll_speed_pos_fdbk.c ****     }
 1036              		.loc 1 596 12 view .LVU452
 1037 0060 9B1A     		subs	r3, r3, r2
 1038              	.LVL93:
 596:MCSDK_v6.3.2-Full/MotorControl/MCSDK/MCLib/Any/Src/sto_pll_speed_pos_fdbk.c ****     }
ARM GAS  /tmp/ccaxKBZ0.s 			page 38


 1039              		.loc 1 596 12 view .LVU453
 1040 0062 E1E7     		b	.L52
 1041              		.cfi_endproc
 1042              	.LFE1452:
 1044              		.section	.text.STO_PLL_Clear,"ax",%progbits
 1045              		.align	1
 1046              		.p2align 2,,3
 1047              		.weak	STO_PLL_Clear
 1048              		.syntax unified
 1049              		.thumb
 1050              		.thumb_func
 1051              		.fpu fpv4-sp-d16
 1053              	STO_PLL_Clear:
 1054              	.LVL94:
 1055              	.LFB1453:
 625:MCSDK_v6.3.2-Full/MotorControl/MCSDK/MCLib/Any/Src/sto_pll_speed_pos_fdbk.c **** #ifdef NULL_PTR_CHECK_STO_PLL_SPD_POS_FDB
 1056              		.loc 1 625 1 is_stmt 1 view -0
 1057              		.cfi_startproc
 1058              		@ args = 0, pretend = 0, frame = 0
 1059              		@ frame_needed = 0, uses_anonymous_args = 0
 634:MCSDK_v6.3.2-Full/MotorControl/MCSDK/MCLib/Any/Src/sto_pll_speed_pos_fdbk.c ****     pHandle->Ibeta_est = (int32_t)0;
 1060              		.loc 1 634 5 view .LVU455
 625:MCSDK_v6.3.2-Full/MotorControl/MCSDK/MCLib/Any/Src/sto_pll_speed_pos_fdbk.c **** #ifdef NULL_PTR_CHECK_STO_PLL_SPD_POS_FDB
 1061              		.loc 1 625 1 is_stmt 0 view .LVU456
 1062 0000 10B5     		push	{r4, lr}
 1063              	.LCFI10:
 1064              		.cfi_def_cfa_offset 8
 1065              		.cfi_offset 4, -8
 1066              		.cfi_offset 14, -4
 1067              	.LBB24:
 1068              	.LBB25:
 718:MCSDK_v6.3.2-Full/MotorControl/MCSDK/MCLib/Any/Src/sto_pll_speed_pos_fdbk.c **** }
 719:MCSDK_v6.3.2-Full/MotorControl/MCSDK/MCLib/Any/Src/sto_pll_speed_pos_fdbk.c **** 
 720:MCSDK_v6.3.2-Full/MotorControl/MCSDK/MCLib/Any/Src/sto_pll_speed_pos_fdbk.c **** /**
 721:MCSDK_v6.3.2-Full/MotorControl/MCSDK/MCLib/Any/Src/sto_pll_speed_pos_fdbk.c ****   * @brief  Clears the estimated speed buffer in @p pHandle.
 722:MCSDK_v6.3.2-Full/MotorControl/MCSDK/MCLib/Any/Src/sto_pll_speed_pos_fdbk.c ****   *
 723:MCSDK_v6.3.2-Full/MotorControl/MCSDK/MCLib/Any/Src/sto_pll_speed_pos_fdbk.c ****   */
 724:MCSDK_v6.3.2-Full/MotorControl/MCSDK/MCLib/Any/Src/sto_pll_speed_pos_fdbk.c **** static inline void STO_InitSpeedBuffer(STO_PLL_Handle_t * pHandle)
 725:MCSDK_v6.3.2-Full/MotorControl/MCSDK/MCLib/Any/Src/sto_pll_speed_pos_fdbk.c **** {
 726:MCSDK_v6.3.2-Full/MotorControl/MCSDK/MCLib/Any/Src/sto_pll_speed_pos_fdbk.c ****   uint8_t b_i;
 727:MCSDK_v6.3.2-Full/MotorControl/MCSDK/MCLib/Any/Src/sto_pll_speed_pos_fdbk.c ****   uint8_t bSpeedBufferSize = pHandle->SpeedBufferSizeUnit;
 1069              		.loc 1 727 11 view .LVU457
 1070 0002 90F80E21 		ldrb	r2, [r0, #270]	@ zero_extendqisi2
 1071              	.LBE25:
 1072              	.LBE24:
 634:MCSDK_v6.3.2-Full/MotorControl/MCSDK/MCLib/Any/Src/sto_pll_speed_pos_fdbk.c ****     pHandle->Ibeta_est = (int32_t)0;
 1073              		.loc 1 634 24 view .LVU458
 1074 0006 0021     		movs	r1, #0
 635:MCSDK_v6.3.2-Full/MotorControl/MCSDK/MCLib/Any/Src/sto_pll_speed_pos_fdbk.c ****     pHandle->wBemf_alfa_est = (int32_t)0;
 1075              		.loc 1 635 24 view .LVU459
 1076 0008 C0E91811 		strd	r1, r1, [r0, #96]
 636:MCSDK_v6.3.2-Full/MotorControl/MCSDK/MCLib/Any/Src/sto_pll_speed_pos_fdbk.c ****     pHandle->wBemf_beta_est = (int32_t)0;
 1077              		.loc 1 636 5 is_stmt 1 view .LVU460
 637:MCSDK_v6.3.2-Full/MotorControl/MCSDK/MCLib/Any/Src/sto_pll_speed_pos_fdbk.c ****     pHandle->_Super.hElAngle = (int16_t)0;
 1078              		.loc 1 637 29 is_stmt 0 view .LVU461
 1079 000c C0E91A11 		strd	r1, r1, [r0, #104]
 638:MCSDK_v6.3.2-Full/MotorControl/MCSDK/MCLib/Any/Src/sto_pll_speed_pos_fdbk.c ****     pHandle->_Super.hElSpeedDpp = (int16_t)0;
ARM GAS  /tmp/ccaxKBZ0.s 			page 39


 1080              		.loc 1 638 5 is_stmt 1 view .LVU462
 645:MCSDK_v6.3.2-Full/MotorControl/MCSDK/MCLib/Any/Src/sto_pll_speed_pos_fdbk.c ****     pHandle->DppBufferSum = (int32_t)0;
 1081              		.loc 1 645 29 is_stmt 0 view .LVU463
 1082 0010 C0E93F11 		strd	r1, r1, [r0, #252]
 625:MCSDK_v6.3.2-Full/MotorControl/MCSDK/MCLib/Any/Src/sto_pll_speed_pos_fdbk.c **** #ifdef NULL_PTR_CHECK_STO_PLL_SPD_POS_FDB
 1083              		.loc 1 625 1 view .LVU464
 1084 0014 0446     		mov	r4, r0
 638:MCSDK_v6.3.2-Full/MotorControl/MCSDK/MCLib/Any/Src/sto_pll_speed_pos_fdbk.c ****     pHandle->_Super.hElSpeedDpp = (int16_t)0;
 1085              		.loc 1 638 30 view .LVU465
 1086 0016 8180     		strh	r1, [r0, #4]	@ movhi
 639:MCSDK_v6.3.2-Full/MotorControl/MCSDK/MCLib/Any/Src/sto_pll_speed_pos_fdbk.c ****     pHandle->ConsistencyCounter = 0u;
 1087              		.loc 1 639 5 is_stmt 1 view .LVU466
 639:MCSDK_v6.3.2-Full/MotorControl/MCSDK/MCLib/Any/Src/sto_pll_speed_pos_fdbk.c ****     pHandle->ConsistencyCounter = 0u;
 1088              		.loc 1 639 33 is_stmt 0 view .LVU467
 1089 0018 C181     		strh	r1, [r0, #14]	@ movhi
 640:MCSDK_v6.3.2-Full/MotorControl/MCSDK/MCLib/Any/Src/sto_pll_speed_pos_fdbk.c ****     pHandle->ReliabilityCounter = 0u;
 1090              		.loc 1 640 5 is_stmt 1 view .LVU468
 641:MCSDK_v6.3.2-Full/MotorControl/MCSDK/MCLib/Any/Src/sto_pll_speed_pos_fdbk.c ****     pHandle->IsAlgorithmConverged = false;
 1091              		.loc 1 641 5 view .LVU469
 640:MCSDK_v6.3.2-Full/MotorControl/MCSDK/MCLib/Any/Src/sto_pll_speed_pos_fdbk.c ****     pHandle->ReliabilityCounter = 0u;
 1092              		.loc 1 640 33 is_stmt 0 view .LVU470
 1093 001a A0F8F610 		strh	r1, [r0, #246]	@ movhi
 642:MCSDK_v6.3.2-Full/MotorControl/MCSDK/MCLib/Any/Src/sto_pll_speed_pos_fdbk.c ****     pHandle->IsBemfConsistent = false;
 1094              		.loc 1 642 5 is_stmt 1 view .LVU471
 643:MCSDK_v6.3.2-Full/MotorControl/MCSDK/MCLib/Any/Src/sto_pll_speed_pos_fdbk.c ****     pHandle->Obs_Bemf_Level = (int32_t)0;
 1095              		.loc 1 643 5 view .LVU472
 642:MCSDK_v6.3.2-Full/MotorControl/MCSDK/MCLib/Any/Src/sto_pll_speed_pos_fdbk.c ****     pHandle->IsBemfConsistent = false;
 1096              		.loc 1 642 35 is_stmt 0 view .LVU473
 1097 001e A0F8F810 		strh	r1, [r0, #248]	@ movhi
 644:MCSDK_v6.3.2-Full/MotorControl/MCSDK/MCLib/Any/Src/sto_pll_speed_pos_fdbk.c ****     pHandle->Est_Bemf_Level = (int32_t)0;
 1098              		.loc 1 644 5 is_stmt 1 view .LVU474
 646:MCSDK_v6.3.2-Full/MotorControl/MCSDK/MCLib/Any/Src/sto_pll_speed_pos_fdbk.c ****     pHandle->ForceConvergency = false;
 1099              		.loc 1 646 5 view .LVU475
 646:MCSDK_v6.3.2-Full/MotorControl/MCSDK/MCLib/Any/Src/sto_pll_speed_pos_fdbk.c ****     pHandle->ForceConvergency = false;
 1100              		.loc 1 646 27 is_stmt 0 view .LVU476
 1101 0022 C0F80811 		str	r1, [r0, #264]
 647:MCSDK_v6.3.2-Full/MotorControl/MCSDK/MCLib/Any/Src/sto_pll_speed_pos_fdbk.c ****     pHandle->ForceConvergency2 = false;
 1102              		.loc 1 647 5 is_stmt 1 view .LVU477
 648:MCSDK_v6.3.2-Full/MotorControl/MCSDK/MCLib/Any/Src/sto_pll_speed_pos_fdbk.c **** 
 1103              		.loc 1 648 5 view .LVU478
 647:MCSDK_v6.3.2-Full/MotorControl/MCSDK/MCLib/Any/Src/sto_pll_speed_pos_fdbk.c ****     pHandle->ForceConvergency2 = false;
 1104              		.loc 1 647 31 is_stmt 0 view .LVU479
 1105 0026 A0F82211 		strh	r1, [r0, #290]	@ movhi
 650:MCSDK_v6.3.2-Full/MotorControl/MCSDK/MCLib/Any/Src/sto_pll_speed_pos_fdbk.c ****     PID_SetIntegralTerm(& pHandle->PIRegulator, (int32_t)0);
 1106              		.loc 1 650 5 is_stmt 1 view .LVU480
 1107              	.LVL95:
 1108              	.LBB27:
 1109              	.LBI24:
 724:MCSDK_v6.3.2-Full/MotorControl/MCSDK/MCLib/Any/Src/sto_pll_speed_pos_fdbk.c **** {
 1110              		.loc 1 724 20 view .LVU481
 1111              	.LBB26:
 726:MCSDK_v6.3.2-Full/MotorControl/MCSDK/MCLib/Any/Src/sto_pll_speed_pos_fdbk.c ****   uint8_t bSpeedBufferSize = pHandle->SpeedBufferSizeUnit;
 1112              		.loc 1 726 3 view .LVU482
 1113              		.loc 1 727 3 view .LVU483
 728:MCSDK_v6.3.2-Full/MotorControl/MCSDK/MCLib/Any/Src/sto_pll_speed_pos_fdbk.c **** 
 729:MCSDK_v6.3.2-Full/MotorControl/MCSDK/MCLib/Any/Src/sto_pll_speed_pos_fdbk.c ****   /* Init speed buffer */
 730:MCSDK_v6.3.2-Full/MotorControl/MCSDK/MCLib/Any/Src/sto_pll_speed_pos_fdbk.c ****   for (b_i = 0U; b_i < bSpeedBufferSize; b_i++)
ARM GAS  /tmp/ccaxKBZ0.s 			page 40


 1114              		.loc 1 730 3 view .LVU484
 1115              		.loc 1 730 18 view .LVU485
 1116              		.loc 1 730 3 is_stmt 0 view .LVU486
 1117 002a 1AB1     		cbz	r2, .L56
 731:MCSDK_v6.3.2-Full/MotorControl/MCSDK/MCLib/Any/Src/sto_pll_speed_pos_fdbk.c ****   {
 732:MCSDK_v6.3.2-Full/MotorControl/MCSDK/MCLib/Any/Src/sto_pll_speed_pos_fdbk.c ****     pHandle->Speed_Buffer[b_i] = (int16_t)0;
 1118              		.loc 1 732 32 view .LVU487
 1119 002c 5200     		lsls	r2, r2, #1
 1120              	.LVL96:
 1121              		.loc 1 732 32 view .LVU488
 1122 002e 7430     		adds	r0, r0, #116
 1123              	.LVL97:
 1124              		.loc 1 732 32 view .LVU489
 1125 0030 FFF7FEFF 		bl	memset
 1126              	.LVL98:
 1127              	.L56:
 733:MCSDK_v6.3.2-Full/MotorControl/MCSDK/MCLib/Any/Src/sto_pll_speed_pos_fdbk.c ****   }
 734:MCSDK_v6.3.2-Full/MotorControl/MCSDK/MCLib/Any/Src/sto_pll_speed_pos_fdbk.c ****   pHandle->Speed_Buffer_Index = 0U;
 1128              		.loc 1 734 3 is_stmt 1 view .LVU490
 1129              		.loc 1 734 31 is_stmt 0 view .LVU491
 1130 0034 0021     		movs	r1, #0
 1131 0036 84F8F410 		strb	r1, [r4, #244]
 735:MCSDK_v6.3.2-Full/MotorControl/MCSDK/MCLib/Any/Src/sto_pll_speed_pos_fdbk.c ****   pHandle->SpeedBufferOldestEl = (int16_t)0;
 1132              		.loc 1 735 3 is_stmt 1 view .LVU492
 1133              		.loc 1 735 32 is_stmt 0 view .LVU493
 1134 003a A4F80C11 		strh	r1, [r4, #268]	@ movhi
 1135              	.LVL99:
 1136              		.loc 1 735 32 view .LVU494
 1137              	.LBE26:
 1138              	.LBE27:
 651:MCSDK_v6.3.2-Full/MotorControl/MCSDK/MCLib/Any/Src/sto_pll_speed_pos_fdbk.c **** #ifdef NULL_PTR_CHECK_STO_PLL_SPD_POS_FDB
 1139              		.loc 1 651 5 is_stmt 1 view .LVU495
 1140 003e 04F13400 		add	r0, r4, #52
 655:MCSDK_v6.3.2-Full/MotorControl/MCSDK/MCLib/Any/Src/sto_pll_speed_pos_fdbk.c **** 
 1141              		.loc 1 655 1 is_stmt 0 view .LVU496
 1142 0042 BDE81040 		pop	{r4, lr}
 1143              	.LCFI11:
 1144              		.cfi_restore 14
 1145              		.cfi_restore 4
 1146              		.cfi_def_cfa_offset 0
 1147              	.LVL100:
 651:MCSDK_v6.3.2-Full/MotorControl/MCSDK/MCLib/Any/Src/sto_pll_speed_pos_fdbk.c **** #ifdef NULL_PTR_CHECK_STO_PLL_SPD_POS_FDB
 1148              		.loc 1 651 5 view .LVU497
 1149 0046 FFF7FEBF 		b	PID_SetIntegralTerm
 1150              	.LVL101:
 651:MCSDK_v6.3.2-Full/MotorControl/MCSDK/MCLib/Any/Src/sto_pll_speed_pos_fdbk.c **** #ifdef NULL_PTR_CHECK_STO_PLL_SPD_POS_FDB
 1151              		.loc 1 651 5 view .LVU498
 1152              		.cfi_endproc
 1153              	.LFE1453:
 1155 004a 00BF     		.section	.text.STO_PLL_Init,"ax",%progbits
 1156              		.align	1
 1157              		.p2align 2,,3
 1158              		.weak	STO_PLL_Init
 1159              		.syntax unified
 1160              		.thumb
 1161              		.thumb_func
 1162              		.fpu fpv4-sp-d16
ARM GAS  /tmp/ccaxKBZ0.s 			page 41


 1164              	STO_PLL_Init:
 1165              	.LVL102:
 1166              	.LFB1448:
  64:MCSDK_v6.3.2-Full/MotorControl/MCSDK/MCLib/Any/Src/sto_pll_speed_pos_fdbk.c **** #ifdef NULL_PTR_CHECK_STO_PLL_SPD_POS_FDB
 1167              		.loc 1 64 1 is_stmt 1 view -0
 1168              		.cfi_startproc
 1169              		@ args = 0, pretend = 0, frame = 0
 1170              		@ frame_needed = 0, uses_anonymous_args = 0
  73:MCSDK_v6.3.2-Full/MotorControl/MCSDK/MCLib/Any/Src/sto_pll_speed_pos_fdbk.c ****     int32_t wAux;
 1171              		.loc 1 73 5 view .LVU500
  74:MCSDK_v6.3.2-Full/MotorControl/MCSDK/MCLib/Any/Src/sto_pll_speed_pos_fdbk.c **** 
 1172              		.loc 1 74 5 view .LVU501
  76:MCSDK_v6.3.2-Full/MotorControl/MCSDK/MCLib/Any/Src/sto_pll_speed_pos_fdbk.c ****     pHandle->EnableDualCheck = true;
 1173              		.loc 1 76 5 view .LVU502
  64:MCSDK_v6.3.2-Full/MotorControl/MCSDK/MCLib/Any/Src/sto_pll_speed_pos_fdbk.c **** #ifdef NULL_PTR_CHECK_STO_PLL_SPD_POS_FDB
 1174              		.loc 1 64 1 is_stmt 0 view .LVU503
 1175 0000 10B5     		push	{r4, lr}
 1176              	.LCFI12:
 1177              		.cfi_def_cfa_offset 8
 1178              		.cfi_offset 4, -8
 1179              		.cfi_offset 14, -4
  76:MCSDK_v6.3.2-Full/MotorControl/MCSDK/MCLib/Any/Src/sto_pll_speed_pos_fdbk.c ****     pHandle->EnableDualCheck = true;
 1180              		.loc 1 76 33 view .LVU504
 1181 0002 90F81611 		ldrb	r1, [r0, #278]	@ zero_extendqisi2
  82:MCSDK_v6.3.2-Full/MotorControl/MCSDK/MCLib/Any/Src/sto_pll_speed_pos_fdbk.c **** 
 1182              		.loc 1 82 39 view .LVU505
 1183 0006 194B     		ldr	r3, .L68
  82:MCSDK_v6.3.2-Full/MotorControl/MCSDK/MCLib/Any/Src/sto_pll_speed_pos_fdbk.c **** 
 1184              		.loc 1 82 48 view .LVU506
 1185 0008 B0F92EE0 		ldrsh	lr, [r0, #46]
  76:MCSDK_v6.3.2-Full/MotorControl/MCSDK/MCLib/Any/Src/sto_pll_speed_pos_fdbk.c ****     pHandle->EnableDualCheck = true;
 1186              		.loc 1 76 33 view .LVU507
 1187 000c 80F8F610 		strb	r1, [r0, #246]
  77:MCSDK_v6.3.2-Full/MotorControl/MCSDK/MCLib/Any/Src/sto_pll_speed_pos_fdbk.c **** 
 1188              		.loc 1 77 5 is_stmt 1 view .LVU508
  77:MCSDK_v6.3.2-Full/MotorControl/MCSDK/MCLib/Any/Src/sto_pll_speed_pos_fdbk.c **** 
 1189              		.loc 1 77 30 is_stmt 0 view .LVU509
 1190 0010 0122     		movs	r2, #1
  80:MCSDK_v6.3.2-Full/MotorControl/MCSDK/MCLib/Any/Src/sto_pll_speed_pos_fdbk.c **** 
 1191              		.loc 1 80 21 view .LVU510
 1192 0012 0021     		movs	r1, #0
  82:MCSDK_v6.3.2-Full/MotorControl/MCSDK/MCLib/Any/Src/sto_pll_speed_pos_fdbk.c **** 
 1193              		.loc 1 82 39 view .LVU511
 1194 0014 93FBFEF3 		sdiv	r3, r3, lr
  82:MCSDK_v6.3.2-Full/MotorControl/MCSDK/MCLib/Any/Src/sto_pll_speed_pos_fdbk.c **** 
 1195              		.loc 1 82 12 view .LVU512
 1196 0018 1BB2     		sxth	r3, r3
  64:MCSDK_v6.3.2-Full/MotorControl/MCSDK/MCLib/Any/Src/sto_pll_speed_pos_fdbk.c **** #ifdef NULL_PTR_CHECK_STO_PLL_SPD_POS_FDB
 1197              		.loc 1 64 1 view .LVU513
 1198 001a 0446     		mov	r4, r0
  77:MCSDK_v6.3.2-Full/MotorControl/MCSDK/MCLib/Any/Src/sto_pll_speed_pos_fdbk.c **** 
 1199              		.loc 1 77 30 view .LVU514
 1200 001c 80F80421 		strb	r2, [r0, #260]
  79:MCSDK_v6.3.2-Full/MotorControl/MCSDK/MCLib/Any/Src/sto_pll_speed_pos_fdbk.c ****     pHandle->F3POW2 = 0U;
 1201              		.loc 1 79 5 is_stmt 1 view .LVU515
 1202              	.LVL103:
  80:MCSDK_v6.3.2-Full/MotorControl/MCSDK/MCLib/Any/Src/sto_pll_speed_pos_fdbk.c **** 
ARM GAS  /tmp/ccaxKBZ0.s 			page 42


 1203              		.loc 1 80 5 view .LVU516
  80:MCSDK_v6.3.2-Full/MotorControl/MCSDK/MCLib/Any/Src/sto_pll_speed_pos_fdbk.c **** 
 1204              		.loc 1 80 21 is_stmt 0 view .LVU517
 1205 0020 4186     		strh	r1, [r0, #50]	@ movhi
  82:MCSDK_v6.3.2-Full/MotorControl/MCSDK/MCLib/Any/Src/sto_pll_speed_pos_fdbk.c **** 
 1206              		.loc 1 82 5 is_stmt 1 view .LVU518
 1207              	.LVL104:
  84:MCSDK_v6.3.2-Full/MotorControl/MCSDK/MCLib/Any/Src/sto_pll_speed_pos_fdbk.c ****     {
 1208              		.loc 1 84 5 view .LVU519
  84:MCSDK_v6.3.2-Full/MotorControl/MCSDK/MCLib/Any/Src/sto_pll_speed_pos_fdbk.c ****     {
 1209              		.loc 1 84 11 view .LVU520
 1210 0022 0BB3     		cbz	r3, .L66
  79:MCSDK_v6.3.2-Full/MotorControl/MCSDK/MCLib/Any/Src/sto_pll_speed_pos_fdbk.c ****     pHandle->F3POW2 = 0U;
 1211              		.loc 1 79 10 is_stmt 0 view .LVU521
 1212 0024 1146     		mov	r1, r2
 1213              	.LVL105:
 1214              	.L63:
  86:MCSDK_v6.3.2-Full/MotorControl/MCSDK/MCLib/Any/Src/sto_pll_speed_pos_fdbk.c ****       wAux *= ((int32_t)2);
 1215              		.loc 1 86 7 is_stmt 1 view .LVU522
  86:MCSDK_v6.3.2-Full/MotorControl/MCSDK/MCLib/Any/Src/sto_pll_speed_pos_fdbk.c ****       wAux *= ((int32_t)2);
 1216              		.loc 1 86 14 is_stmt 0 view .LVU523
 1217 0026 03EBD373 		add	r3, r3, r3, lsr #31
 1218              	.LVL106:
  87:MCSDK_v6.3.2-Full/MotorControl/MCSDK/MCLib/Any/Src/sto_pll_speed_pos_fdbk.c ****       pHandle->F3POW2++;
 1219              		.loc 1 87 7 is_stmt 1 view .LVU524
  84:MCSDK_v6.3.2-Full/MotorControl/MCSDK/MCLib/Any/Src/sto_pll_speed_pos_fdbk.c ****     {
 1220              		.loc 1 84 11 is_stmt 0 view .LVU525
 1221 002a 02F1010C 		add	ip, r2, #1
 1222 002e 5B10     		asrs	r3, r3, #1
 1223              	.LVL107:
  84:MCSDK_v6.3.2-Full/MotorControl/MCSDK/MCLib/Any/Src/sto_pll_speed_pos_fdbk.c ****     {
 1224              		.loc 1 84 11 view .LVU526
 1225 0030 1046     		mov	r0, r2
  87:MCSDK_v6.3.2-Full/MotorControl/MCSDK/MCLib/Any/Src/sto_pll_speed_pos_fdbk.c ****       pHandle->F3POW2++;
 1226              		.loc 1 87 12 view .LVU527
 1227 0032 4FEA4101 		lsl	r1, r1, #1
 1228              	.LVL108:
  88:MCSDK_v6.3.2-Full/MotorControl/MCSDK/MCLib/Any/Src/sto_pll_speed_pos_fdbk.c ****     }
 1229              		.loc 1 88 7 is_stmt 1 view .LVU528
  84:MCSDK_v6.3.2-Full/MotorControl/MCSDK/MCLib/Any/Src/sto_pll_speed_pos_fdbk.c ****     {
 1230              		.loc 1 84 11 view .LVU529
 1231 0036 1FFA8CF2 		uxth	r2, ip
 1232 003a F4D1     		bne	.L63
  91:MCSDK_v6.3.2-Full/MotorControl/MCSDK/MCLib/Any/Src/sto_pll_speed_pos_fdbk.c ****     wAux = ((int32_t)(pHandle->hF2)) * pHandle->hF3;
 1233              		.loc 1 91 20 is_stmt 0 view .LVU530
 1234 003c 0AB2     		sxth	r2, r1
 1235 003e 6086     		strh	r0, [r4, #50]	@ movhi
  92:MCSDK_v6.3.2-Full/MotorControl/MCSDK/MCLib/Any/Src/sto_pll_speed_pos_fdbk.c ****     pHandle->hC6 = (int16_t)(wAux / C6_COMP_CONST2);
 1236              		.loc 1 92 10 view .LVU531
 1237 0040 0EFB02F1 		mul	r1, lr, r2
 1238              	.LVL109:
 1239              	.L62:
  91:MCSDK_v6.3.2-Full/MotorControl/MCSDK/MCLib/Any/Src/sto_pll_speed_pos_fdbk.c ****     wAux = ((int32_t)(pHandle->hF2)) * pHandle->hF3;
 1240              		.loc 1 91 5 is_stmt 1 view .LVU532
  93:MCSDK_v6.3.2-Full/MotorControl/MCSDK/MCLib/Any/Src/sto_pll_speed_pos_fdbk.c **** 
 1241              		.loc 1 93 35 is_stmt 0 view .LVU533
 1242 0044 0A48     		ldr	r0, .L68+4
ARM GAS  /tmp/ccaxKBZ0.s 			page 43


  91:MCSDK_v6.3.2-Full/MotorControl/MCSDK/MCLib/Any/Src/sto_pll_speed_pos_fdbk.c ****     wAux = ((int32_t)(pHandle->hF2)) * pHandle->hF3;
 1243              		.loc 1 91 18 view .LVU534
 1244 0046 2286     		strh	r2, [r4, #48]	@ movhi
  93:MCSDK_v6.3.2-Full/MotorControl/MCSDK/MCLib/Any/Src/sto_pll_speed_pos_fdbk.c **** 
 1245              		.loc 1 93 35 view .LVU535
 1246 0048 CB17     		asrs	r3, r1, #31
  92:MCSDK_v6.3.2-Full/MotorControl/MCSDK/MCLib/Any/Src/sto_pll_speed_pos_fdbk.c ****     pHandle->hC6 = (int16_t)(wAux / C6_COMP_CONST2);
 1247              		.loc 1 92 5 is_stmt 1 view .LVU536
  93:MCSDK_v6.3.2-Full/MotorControl/MCSDK/MCLib/Any/Src/sto_pll_speed_pos_fdbk.c **** 
 1248              		.loc 1 93 5 view .LVU537
  93:MCSDK_v6.3.2-Full/MotorControl/MCSDK/MCLib/Any/Src/sto_pll_speed_pos_fdbk.c **** 
 1249              		.loc 1 93 35 is_stmt 0 view .LVU538
 1250 004a 80FB0101 		smull	r0, r1, r0, r1
  93:MCSDK_v6.3.2-Full/MotorControl/MCSDK/MCLib/Any/Src/sto_pll_speed_pos_fdbk.c **** 
 1251              		.loc 1 93 35 view .LVU539
 1252 004e C3EB2121 		rsb	r1, r3, r1, asr #8
  95:MCSDK_v6.3.2-Full/MotorControl/MCSDK/MCLib/Any/Src/sto_pll_speed_pos_fdbk.c **** 
 1253              		.loc 1 95 5 view .LVU540
 1254 0052 2046     		mov	r0, r4
  93:MCSDK_v6.3.2-Full/MotorControl/MCSDK/MCLib/Any/Src/sto_pll_speed_pos_fdbk.c **** 
 1255              		.loc 1 93 20 view .LVU541
 1256 0054 6185     		strh	r1, [r4, #42]	@ movhi
  95:MCSDK_v6.3.2-Full/MotorControl/MCSDK/MCLib/Any/Src/sto_pll_speed_pos_fdbk.c **** 
 1257              		.loc 1 95 5 is_stmt 1 view .LVU542
 1258 0056 FFF7FEFF 		bl	STO_PLL_Clear
 1259              	.LVL110:
  97:MCSDK_v6.3.2-Full/MotorControl/MCSDK/MCLib/Any/Src/sto_pll_speed_pos_fdbk.c **** 
 1260              		.loc 1 97 5 view .LVU543
 1261 005a 04F13400 		add	r0, r4, #52
 1262 005e FFF7FEFF 		bl	PID_HandleInit
 1263              	.LVL111:
 100:MCSDK_v6.3.2-Full/MotorControl/MCSDK/MCLib/Any/Src/sto_pll_speed_pos_fdbk.c **** #ifdef NULL_PTR_CHECK_STO_PLL_SPD_POS_FDB
 1264              		.loc 1 100 5 view .LVU544
 100:MCSDK_v6.3.2-Full/MotorControl/MCSDK/MCLib/Any/Src/sto_pll_speed_pos_fdbk.c **** #ifdef NULL_PTR_CHECK_STO_PLL_SPD_POS_FDB
 1265              		.loc 1 100 36 is_stmt 0 view .LVU545
 1266 0062 0023     		movs	r3, #0
 1267 0064 6382     		strh	r3, [r4, #18]	@ movhi
 104:MCSDK_v6.3.2-Full/MotorControl/MCSDK/MCLib/Any/Src/sto_pll_speed_pos_fdbk.c **** }
 1268              		.loc 1 104 3 is_stmt 1 view .LVU546
 105:MCSDK_v6.3.2-Full/MotorControl/MCSDK/MCLib/Any/Src/sto_pll_speed_pos_fdbk.c **** 
 1269              		.loc 1 105 1 is_stmt 0 view .LVU547
 1270 0066 10BD     		pop	{r4, pc}
 1271              	.LVL112:
 1272              	.L66:
 105:MCSDK_v6.3.2-Full/MotorControl/MCSDK/MCLib/Any/Src/sto_pll_speed_pos_fdbk.c **** 
 1273              		.loc 1 105 1 view .LVU548
 1274 0068 7146     		mov	r1, lr
 1275 006a EBE7     		b	.L62
 1276              	.L69:
 1277              		.align	2
 1278              	.L68:
 1279 006c 5EEA0F00 		.word	1043038
 1280 0070 C58D4806 		.word	105418181
 1281              		.cfi_endproc
 1282              	.LFE1448:
 1284              		.section	.text.STO_PLL_IsObserverConverged,"ax",%progbits
 1285              		.align	1
ARM GAS  /tmp/ccaxKBZ0.s 			page 44


 1286              		.p2align 2,,3
 1287              		.weak	STO_PLL_IsObserverConverged
 1288              		.syntax unified
 1289              		.thumb
 1290              		.thumb_func
 1291              		.fpu fpv4-sp-d16
 1293              	STO_PLL_IsObserverConverged:
 1294              	.LVL113:
 1295              	.LFB1457:
 736:MCSDK_v6.3.2-Full/MotorControl/MCSDK/MCLib/Any/Src/sto_pll_speed_pos_fdbk.c **** }
 737:MCSDK_v6.3.2-Full/MotorControl/MCSDK/MCLib/Any/Src/sto_pll_speed_pos_fdbk.c **** 
 738:MCSDK_v6.3.2-Full/MotorControl/MCSDK/MCLib/Any/Src/sto_pll_speed_pos_fdbk.c **** /**
 739:MCSDK_v6.3.2-Full/MotorControl/MCSDK/MCLib/Any/Src/sto_pll_speed_pos_fdbk.c ****   * @brief  Checks if the state observer algorithm converged.
 740:MCSDK_v6.3.2-Full/MotorControl/MCSDK/MCLib/Any/Src/sto_pll_speed_pos_fdbk.c ****   * 
 741:MCSDK_v6.3.2-Full/MotorControl/MCSDK/MCLib/Any/Src/sto_pll_speed_pos_fdbk.c ****   * Internally performs a set of checks necessary to state whether
 742:MCSDK_v6.3.2-Full/MotorControl/MCSDK/MCLib/Any/Src/sto_pll_speed_pos_fdbk.c ****   * the state observer algorithm converged. To be periodically called
 743:MCSDK_v6.3.2-Full/MotorControl/MCSDK/MCLib/Any/Src/sto_pll_speed_pos_fdbk.c ****   * during motor open-loop ramp-up (e.g. at the same frequency of
 744:MCSDK_v6.3.2-Full/MotorControl/MCSDK/MCLib/Any/Src/sto_pll_speed_pos_fdbk.c ****   * SPD_CalcElAngle), it returns true if the estimated angle and speed
 745:MCSDK_v6.3.2-Full/MotorControl/MCSDK/MCLib/Any/Src/sto_pll_speed_pos_fdbk.c ****   * can be considered reliable, false otherwise.
 746:MCSDK_v6.3.2-Full/MotorControl/MCSDK/MCLib/Any/Src/sto_pll_speed_pos_fdbk.c ****   * 
 747:MCSDK_v6.3.2-Full/MotorControl/MCSDK/MCLib/Any/Src/sto_pll_speed_pos_fdbk.c ****   * @param  pHandle: Handler of the current instance of the STO component.
 748:MCSDK_v6.3.2-Full/MotorControl/MCSDK/MCLib/Any/Src/sto_pll_speed_pos_fdbk.c ****   * @param  hForcedMecSpeedUnit: Mechanical speed in 0.1Hz unit as forced by VSS.
 749:MCSDK_v6.3.2-Full/MotorControl/MCSDK/MCLib/Any/Src/sto_pll_speed_pos_fdbk.c ****   * @retval bool True if the estimated angle and speed are reliables, false otherwise.
 750:MCSDK_v6.3.2-Full/MotorControl/MCSDK/MCLib/Any/Src/sto_pll_speed_pos_fdbk.c ****   */
 751:MCSDK_v6.3.2-Full/MotorControl/MCSDK/MCLib/Any/Src/sto_pll_speed_pos_fdbk.c **** __weak bool STO_PLL_IsObserverConverged(STO_PLL_Handle_t *pHandle, int16_t *phForcedMecSpeedUnit)
 752:MCSDK_v6.3.2-Full/MotorControl/MCSDK/MCLib/Any/Src/sto_pll_speed_pos_fdbk.c **** {
 1296              		.loc 1 752 1 is_stmt 1 view -0
 1297              		.cfi_startproc
 1298              		@ args = 0, pretend = 0, frame = 0
 1299              		@ frame_needed = 0, uses_anonymous_args = 0
 753:MCSDK_v6.3.2-Full/MotorControl/MCSDK/MCLib/Any/Src/sto_pll_speed_pos_fdbk.c ****   bool bAux = false;
 1300              		.loc 1 753 3 view .LVU550
 754:MCSDK_v6.3.2-Full/MotorControl/MCSDK/MCLib/Any/Src/sto_pll_speed_pos_fdbk.c **** #ifdef NULL_PTR_CHECK_STO_PLL_SPD_POS_FDB
 755:MCSDK_v6.3.2-Full/MotorControl/MCSDK/MCLib/Any/Src/sto_pll_speed_pos_fdbk.c ****   if ((MC_NULL == pHandle) || (MC_NULL == phForcedMecSpeedUnit))
 756:MCSDK_v6.3.2-Full/MotorControl/MCSDK/MCLib/Any/Src/sto_pll_speed_pos_fdbk.c ****   {
 757:MCSDK_v6.3.2-Full/MotorControl/MCSDK/MCLib/Any/Src/sto_pll_speed_pos_fdbk.c ****     /* Nothing to do */
 758:MCSDK_v6.3.2-Full/MotorControl/MCSDK/MCLib/Any/Src/sto_pll_speed_pos_fdbk.c ****   }
 759:MCSDK_v6.3.2-Full/MotorControl/MCSDK/MCLib/Any/Src/sto_pll_speed_pos_fdbk.c ****   else
 760:MCSDK_v6.3.2-Full/MotorControl/MCSDK/MCLib/Any/Src/sto_pll_speed_pos_fdbk.c ****   {
 761:MCSDK_v6.3.2-Full/MotorControl/MCSDK/MCLib/Any/Src/sto_pll_speed_pos_fdbk.c **** #endif
 762:MCSDK_v6.3.2-Full/MotorControl/MCSDK/MCLib/Any/Src/sto_pll_speed_pos_fdbk.c ****     int32_t wAux;
 1301              		.loc 1 762 5 view .LVU551
 763:MCSDK_v6.3.2-Full/MotorControl/MCSDK/MCLib/Any/Src/sto_pll_speed_pos_fdbk.c ****     int32_t wtemp;
 1302              		.loc 1 763 5 view .LVU552
 764:MCSDK_v6.3.2-Full/MotorControl/MCSDK/MCLib/Any/Src/sto_pll_speed_pos_fdbk.c ****     int16_t hEstimatedSpeedUnit;
 1303              		.loc 1 764 5 view .LVU553
 765:MCSDK_v6.3.2-Full/MotorControl/MCSDK/MCLib/Any/Src/sto_pll_speed_pos_fdbk.c ****     int16_t hUpperThreshold;
 1304              		.loc 1 765 5 view .LVU554
 766:MCSDK_v6.3.2-Full/MotorControl/MCSDK/MCLib/Any/Src/sto_pll_speed_pos_fdbk.c ****     int16_t hLowerThreshold;
 1305              		.loc 1 766 5 view .LVU555
 767:MCSDK_v6.3.2-Full/MotorControl/MCSDK/MCLib/Any/Src/sto_pll_speed_pos_fdbk.c **** 
 768:MCSDK_v6.3.2-Full/MotorControl/MCSDK/MCLib/Any/Src/sto_pll_speed_pos_fdbk.c ****     if (true == pHandle->ForceConvergency2)
 1306              		.loc 1 768 5 view .LVU556
 1307              		.loc 1 768 8 is_stmt 0 view .LVU557
 1308 0000 90F82331 		ldrb	r3, [r0, #291]	@ zero_extendqisi2
 1309 0004 13B1     		cbz	r3, .L71
 769:MCSDK_v6.3.2-Full/MotorControl/MCSDK/MCLib/Any/Src/sto_pll_speed_pos_fdbk.c ****     {
ARM GAS  /tmp/ccaxKBZ0.s 			page 45


 770:MCSDK_v6.3.2-Full/MotorControl/MCSDK/MCLib/Any/Src/sto_pll_speed_pos_fdbk.c ****       *phForcedMecSpeedUnit = pHandle->_Super.hAvrMecSpeedUnit;
 1310              		.loc 1 770 7 is_stmt 1 view .LVU558
 1311              		.loc 1 770 46 is_stmt 0 view .LVU559
 1312 0006 B0F90C30 		ldrsh	r3, [r0, #12]
 1313              		.loc 1 770 29 view .LVU560
 1314 000a 0B80     		strh	r3, [r1]	@ movhi
 1315              	.L71:
 771:MCSDK_v6.3.2-Full/MotorControl/MCSDK/MCLib/Any/Src/sto_pll_speed_pos_fdbk.c ****     }
 772:MCSDK_v6.3.2-Full/MotorControl/MCSDK/MCLib/Any/Src/sto_pll_speed_pos_fdbk.c ****     else
 773:MCSDK_v6.3.2-Full/MotorControl/MCSDK/MCLib/Any/Src/sto_pll_speed_pos_fdbk.c ****     {
 774:MCSDK_v6.3.2-Full/MotorControl/MCSDK/MCLib/Any/Src/sto_pll_speed_pos_fdbk.c ****       /* Nothing to do */
 775:MCSDK_v6.3.2-Full/MotorControl/MCSDK/MCLib/Any/Src/sto_pll_speed_pos_fdbk.c ****     }
 1316              		.loc 1 775 5 is_stmt 1 view .LVU561
 776:MCSDK_v6.3.2-Full/MotorControl/MCSDK/MCLib/Any/Src/sto_pll_speed_pos_fdbk.c **** 
 777:MCSDK_v6.3.2-Full/MotorControl/MCSDK/MCLib/Any/Src/sto_pll_speed_pos_fdbk.c ****     if (true == pHandle->ForceConvergency)
 1317              		.loc 1 777 5 view .LVU562
 1318              		.loc 1 777 24 is_stmt 0 view .LVU563
 1319 000c 90F82231 		ldrb	r3, [r0, #290]	@ zero_extendqisi2
 1320              		.loc 1 777 8 view .LVU564
 1321 0010 33B1     		cbz	r3, .L72
 778:MCSDK_v6.3.2-Full/MotorControl/MCSDK/MCLib/Any/Src/sto_pll_speed_pos_fdbk.c ****     {
 779:MCSDK_v6.3.2-Full/MotorControl/MCSDK/MCLib/Any/Src/sto_pll_speed_pos_fdbk.c ****       bAux = true;
 1322              		.loc 1 779 7 is_stmt 1 view .LVU565
 1323              	.LVL114:
 780:MCSDK_v6.3.2-Full/MotorControl/MCSDK/MCLib/Any/Src/sto_pll_speed_pos_fdbk.c ****       pHandle->IsAlgorithmConverged = true;
 1324              		.loc 1 780 7 view .LVU566
 1325              		.loc 1 780 37 is_stmt 0 view .LVU567
 1326 0012 0123     		movs	r3, #1
 781:MCSDK_v6.3.2-Full/MotorControl/MCSDK/MCLib/Any/Src/sto_pll_speed_pos_fdbk.c ****       pHandle->_Super.bSpeedErrorNumber = 0U;
 1327              		.loc 1 781 41 view .LVU568
 1328 0014 0022     		movs	r2, #0
 780:MCSDK_v6.3.2-Full/MotorControl/MCSDK/MCLib/Any/Src/sto_pll_speed_pos_fdbk.c ****       pHandle->IsAlgorithmConverged = true;
 1329              		.loc 1 780 37 view .LVU569
 1330 0016 80F8F830 		strb	r3, [r0, #248]
 1331              		.loc 1 781 7 is_stmt 1 view .LVU570
 1332              		.loc 1 781 41 is_stmt 0 view .LVU571
 1333 001a 0270     		strb	r2, [r0]
 1334              	.LVL115:
 782:MCSDK_v6.3.2-Full/MotorControl/MCSDK/MCLib/Any/Src/sto_pll_speed_pos_fdbk.c ****     }
 783:MCSDK_v6.3.2-Full/MotorControl/MCSDK/MCLib/Any/Src/sto_pll_speed_pos_fdbk.c ****     else
 784:MCSDK_v6.3.2-Full/MotorControl/MCSDK/MCLib/Any/Src/sto_pll_speed_pos_fdbk.c ****     {
 785:MCSDK_v6.3.2-Full/MotorControl/MCSDK/MCLib/Any/Src/sto_pll_speed_pos_fdbk.c ****       hEstimatedSpeedUnit = pHandle->_Super.hAvrMecSpeedUnit;
 786:MCSDK_v6.3.2-Full/MotorControl/MCSDK/MCLib/Any/Src/sto_pll_speed_pos_fdbk.c **** 
 787:MCSDK_v6.3.2-Full/MotorControl/MCSDK/MCLib/Any/Src/sto_pll_speed_pos_fdbk.c ****       wtemp = ((int32_t)hEstimatedSpeedUnit) * ((int32_t)*phForcedMecSpeedUnit);
 788:MCSDK_v6.3.2-Full/MotorControl/MCSDK/MCLib/Any/Src/sto_pll_speed_pos_fdbk.c **** 
 789:MCSDK_v6.3.2-Full/MotorControl/MCSDK/MCLib/Any/Src/sto_pll_speed_pos_fdbk.c ****       if (wtemp > 0)
 790:MCSDK_v6.3.2-Full/MotorControl/MCSDK/MCLib/Any/Src/sto_pll_speed_pos_fdbk.c ****       {
 791:MCSDK_v6.3.2-Full/MotorControl/MCSDK/MCLib/Any/Src/sto_pll_speed_pos_fdbk.c ****         if (hEstimatedSpeedUnit < 0)
 792:MCSDK_v6.3.2-Full/MotorControl/MCSDK/MCLib/Any/Src/sto_pll_speed_pos_fdbk.c ****         {
 793:MCSDK_v6.3.2-Full/MotorControl/MCSDK/MCLib/Any/Src/sto_pll_speed_pos_fdbk.c ****           hEstimatedSpeedUnit = -hEstimatedSpeedUnit;
 794:MCSDK_v6.3.2-Full/MotorControl/MCSDK/MCLib/Any/Src/sto_pll_speed_pos_fdbk.c ****         }
 795:MCSDK_v6.3.2-Full/MotorControl/MCSDK/MCLib/Any/Src/sto_pll_speed_pos_fdbk.c **** 
 796:MCSDK_v6.3.2-Full/MotorControl/MCSDK/MCLib/Any/Src/sto_pll_speed_pos_fdbk.c ****         if (*phForcedMecSpeedUnit < 0)
 797:MCSDK_v6.3.2-Full/MotorControl/MCSDK/MCLib/Any/Src/sto_pll_speed_pos_fdbk.c ****         {
 798:MCSDK_v6.3.2-Full/MotorControl/MCSDK/MCLib/Any/Src/sto_pll_speed_pos_fdbk.c ****           *phForcedMecSpeedUnit = -*phForcedMecSpeedUnit;
 799:MCSDK_v6.3.2-Full/MotorControl/MCSDK/MCLib/Any/Src/sto_pll_speed_pos_fdbk.c ****         }
 800:MCSDK_v6.3.2-Full/MotorControl/MCSDK/MCLib/Any/Src/sto_pll_speed_pos_fdbk.c ****         wAux = ((int32_t)*phForcedMecSpeedUnit) * ((int16_t)pHandle->SpeedValidationBand_H);
ARM GAS  /tmp/ccaxKBZ0.s 			page 46


 801:MCSDK_v6.3.2-Full/MotorControl/MCSDK/MCLib/Any/Src/sto_pll_speed_pos_fdbk.c ****         hUpperThreshold = (int16_t)(wAux / ((int32_t)16));
 802:MCSDK_v6.3.2-Full/MotorControl/MCSDK/MCLib/Any/Src/sto_pll_speed_pos_fdbk.c **** 
 803:MCSDK_v6.3.2-Full/MotorControl/MCSDK/MCLib/Any/Src/sto_pll_speed_pos_fdbk.c ****         wAux = ((int32_t)*phForcedMecSpeedUnit) * ((int16_t)pHandle->SpeedValidationBand_L);
 804:MCSDK_v6.3.2-Full/MotorControl/MCSDK/MCLib/Any/Src/sto_pll_speed_pos_fdbk.c ****         hLowerThreshold = (int16_t)(wAux / ((int32_t)16));
 805:MCSDK_v6.3.2-Full/MotorControl/MCSDK/MCLib/Any/Src/sto_pll_speed_pos_fdbk.c **** 
 806:MCSDK_v6.3.2-Full/MotorControl/MCSDK/MCLib/Any/Src/sto_pll_speed_pos_fdbk.c ****         /* If the variance of the estimated speed is low enough... */
 807:MCSDK_v6.3.2-Full/MotorControl/MCSDK/MCLib/Any/Src/sto_pll_speed_pos_fdbk.c ****         if (true == pHandle->IsSpeedReliable)
 808:MCSDK_v6.3.2-Full/MotorControl/MCSDK/MCLib/Any/Src/sto_pll_speed_pos_fdbk.c ****         {
 809:MCSDK_v6.3.2-Full/MotorControl/MCSDK/MCLib/Any/Src/sto_pll_speed_pos_fdbk.c ****           if ((uint16_t)hEstimatedSpeedUnit > pHandle->MinStartUpValidSpeed)
 810:MCSDK_v6.3.2-Full/MotorControl/MCSDK/MCLib/Any/Src/sto_pll_speed_pos_fdbk.c ****           {
 811:MCSDK_v6.3.2-Full/MotorControl/MCSDK/MCLib/Any/Src/sto_pll_speed_pos_fdbk.c ****             /* ...and the estimated value is quite close to the expected value... */
 812:MCSDK_v6.3.2-Full/MotorControl/MCSDK/MCLib/Any/Src/sto_pll_speed_pos_fdbk.c ****             if (hEstimatedSpeedUnit >= hLowerThreshold)
 813:MCSDK_v6.3.2-Full/MotorControl/MCSDK/MCLib/Any/Src/sto_pll_speed_pos_fdbk.c ****             {
 814:MCSDK_v6.3.2-Full/MotorControl/MCSDK/MCLib/Any/Src/sto_pll_speed_pos_fdbk.c ****               if (hEstimatedSpeedUnit <= hUpperThreshold)
 815:MCSDK_v6.3.2-Full/MotorControl/MCSDK/MCLib/Any/Src/sto_pll_speed_pos_fdbk.c ****               {
 816:MCSDK_v6.3.2-Full/MotorControl/MCSDK/MCLib/Any/Src/sto_pll_speed_pos_fdbk.c ****                 pHandle->ConsistencyCounter++;
 817:MCSDK_v6.3.2-Full/MotorControl/MCSDK/MCLib/Any/Src/sto_pll_speed_pos_fdbk.c **** 
 818:MCSDK_v6.3.2-Full/MotorControl/MCSDK/MCLib/Any/Src/sto_pll_speed_pos_fdbk.c ****                 /* ...for hConsistencyThreshold consecutive times... */
 819:MCSDK_v6.3.2-Full/MotorControl/MCSDK/MCLib/Any/Src/sto_pll_speed_pos_fdbk.c ****                 if (pHandle->ConsistencyCounter >= pHandle->StartUpConsistThreshold)
 820:MCSDK_v6.3.2-Full/MotorControl/MCSDK/MCLib/Any/Src/sto_pll_speed_pos_fdbk.c ****                 {
 821:MCSDK_v6.3.2-Full/MotorControl/MCSDK/MCLib/Any/Src/sto_pll_speed_pos_fdbk.c **** 
 822:MCSDK_v6.3.2-Full/MotorControl/MCSDK/MCLib/Any/Src/sto_pll_speed_pos_fdbk.c ****                   /* The algorithm converged */
 823:MCSDK_v6.3.2-Full/MotorControl/MCSDK/MCLib/Any/Src/sto_pll_speed_pos_fdbk.c ****                   bAux = true;
 824:MCSDK_v6.3.2-Full/MotorControl/MCSDK/MCLib/Any/Src/sto_pll_speed_pos_fdbk.c ****                   pHandle->IsAlgorithmConverged = true;
 825:MCSDK_v6.3.2-Full/MotorControl/MCSDK/MCLib/Any/Src/sto_pll_speed_pos_fdbk.c ****                   pHandle->_Super.bSpeedErrorNumber = 0U;
 826:MCSDK_v6.3.2-Full/MotorControl/MCSDK/MCLib/Any/Src/sto_pll_speed_pos_fdbk.c ****                 }
 827:MCSDK_v6.3.2-Full/MotorControl/MCSDK/MCLib/Any/Src/sto_pll_speed_pos_fdbk.c ****               }
 828:MCSDK_v6.3.2-Full/MotorControl/MCSDK/MCLib/Any/Src/sto_pll_speed_pos_fdbk.c ****               else
 829:MCSDK_v6.3.2-Full/MotorControl/MCSDK/MCLib/Any/Src/sto_pll_speed_pos_fdbk.c ****               {
 830:MCSDK_v6.3.2-Full/MotorControl/MCSDK/MCLib/Any/Src/sto_pll_speed_pos_fdbk.c ****                 pHandle->ConsistencyCounter = 0U;
 831:MCSDK_v6.3.2-Full/MotorControl/MCSDK/MCLib/Any/Src/sto_pll_speed_pos_fdbk.c ****               }
 832:MCSDK_v6.3.2-Full/MotorControl/MCSDK/MCLib/Any/Src/sto_pll_speed_pos_fdbk.c ****             }
 833:MCSDK_v6.3.2-Full/MotorControl/MCSDK/MCLib/Any/Src/sto_pll_speed_pos_fdbk.c ****             else
 834:MCSDK_v6.3.2-Full/MotorControl/MCSDK/MCLib/Any/Src/sto_pll_speed_pos_fdbk.c ****             {
 835:MCSDK_v6.3.2-Full/MotorControl/MCSDK/MCLib/Any/Src/sto_pll_speed_pos_fdbk.c ****               pHandle->ConsistencyCounter = 0U;
 836:MCSDK_v6.3.2-Full/MotorControl/MCSDK/MCLib/Any/Src/sto_pll_speed_pos_fdbk.c ****             }
 837:MCSDK_v6.3.2-Full/MotorControl/MCSDK/MCLib/Any/Src/sto_pll_speed_pos_fdbk.c ****           }
 838:MCSDK_v6.3.2-Full/MotorControl/MCSDK/MCLib/Any/Src/sto_pll_speed_pos_fdbk.c ****           else
 839:MCSDK_v6.3.2-Full/MotorControl/MCSDK/MCLib/Any/Src/sto_pll_speed_pos_fdbk.c ****           {
 840:MCSDK_v6.3.2-Full/MotorControl/MCSDK/MCLib/Any/Src/sto_pll_speed_pos_fdbk.c ****             pHandle->ConsistencyCounter = 0U;
 841:MCSDK_v6.3.2-Full/MotorControl/MCSDK/MCLib/Any/Src/sto_pll_speed_pos_fdbk.c ****           }
 842:MCSDK_v6.3.2-Full/MotorControl/MCSDK/MCLib/Any/Src/sto_pll_speed_pos_fdbk.c ****         }
 843:MCSDK_v6.3.2-Full/MotorControl/MCSDK/MCLib/Any/Src/sto_pll_speed_pos_fdbk.c ****         else
 844:MCSDK_v6.3.2-Full/MotorControl/MCSDK/MCLib/Any/Src/sto_pll_speed_pos_fdbk.c ****         {
 845:MCSDK_v6.3.2-Full/MotorControl/MCSDK/MCLib/Any/Src/sto_pll_speed_pos_fdbk.c ****           pHandle->ConsistencyCounter = 0U;
 846:MCSDK_v6.3.2-Full/MotorControl/MCSDK/MCLib/Any/Src/sto_pll_speed_pos_fdbk.c ****         }
 847:MCSDK_v6.3.2-Full/MotorControl/MCSDK/MCLib/Any/Src/sto_pll_speed_pos_fdbk.c ****       }
 848:MCSDK_v6.3.2-Full/MotorControl/MCSDK/MCLib/Any/Src/sto_pll_speed_pos_fdbk.c ****       else
 849:MCSDK_v6.3.2-Full/MotorControl/MCSDK/MCLib/Any/Src/sto_pll_speed_pos_fdbk.c ****       {
 850:MCSDK_v6.3.2-Full/MotorControl/MCSDK/MCLib/Any/Src/sto_pll_speed_pos_fdbk.c ****         /* Nothing to do */
 851:MCSDK_v6.3.2-Full/MotorControl/MCSDK/MCLib/Any/Src/sto_pll_speed_pos_fdbk.c ****       }
 1335              		.loc 1 851 7 is_stmt 1 view .LVU572
 852:MCSDK_v6.3.2-Full/MotorControl/MCSDK/MCLib/Any/Src/sto_pll_speed_pos_fdbk.c ****     }
 853:MCSDK_v6.3.2-Full/MotorControl/MCSDK/MCLib/Any/Src/sto_pll_speed_pos_fdbk.c **** #ifdef NULL_PTR_CHECK_STO_PLL_SPD_POS_FDB
 854:MCSDK_v6.3.2-Full/MotorControl/MCSDK/MCLib/Any/Src/sto_pll_speed_pos_fdbk.c ****   }
 855:MCSDK_v6.3.2-Full/MotorControl/MCSDK/MCLib/Any/Src/sto_pll_speed_pos_fdbk.c **** #endif
 856:MCSDK_v6.3.2-Full/MotorControl/MCSDK/MCLib/Any/Src/sto_pll_speed_pos_fdbk.c ****   return (bAux);
ARM GAS  /tmp/ccaxKBZ0.s 			page 47


 1336              		.loc 1 856 3 view .LVU573
 857:MCSDK_v6.3.2-Full/MotorControl/MCSDK/MCLib/Any/Src/sto_pll_speed_pos_fdbk.c **** }
 1337              		.loc 1 857 1 is_stmt 0 view .LVU574
 1338 001c 1846     		mov	r0, r3
 1339              	.LVL116:
 1340              		.loc 1 857 1 view .LVU575
 1341 001e 7047     		bx	lr
 1342              	.LVL117:
 1343              	.L72:
 785:MCSDK_v6.3.2-Full/MotorControl/MCSDK/MCLib/Any/Src/sto_pll_speed_pos_fdbk.c **** 
 1344              		.loc 1 785 7 is_stmt 1 view .LVU576
 787:MCSDK_v6.3.2-Full/MotorControl/MCSDK/MCLib/Any/Src/sto_pll_speed_pos_fdbk.c **** 
 1345              		.loc 1 787 58 is_stmt 0 view .LVU577
 1346 0020 B1F90020 		ldrsh	r2, [r1]
 785:MCSDK_v6.3.2-Full/MotorControl/MCSDK/MCLib/Any/Src/sto_pll_speed_pos_fdbk.c **** 
 1347              		.loc 1 785 27 view .LVU578
 1348 0024 B0F90CC0 		ldrsh	ip, [r0, #12]
 1349              	.LVL118:
 787:MCSDK_v6.3.2-Full/MotorControl/MCSDK/MCLib/Any/Src/sto_pll_speed_pos_fdbk.c **** 
 1350              		.loc 1 787 7 is_stmt 1 view .LVU579
 752:MCSDK_v6.3.2-Full/MotorControl/MCSDK/MCLib/Any/Src/sto_pll_speed_pos_fdbk.c ****   bool bAux = false;
 1351              		.loc 1 752 1 is_stmt 0 view .LVU580
 1352 0028 10B5     		push	{r4, lr}
 1353              	.LCFI13:
 1354              		.cfi_def_cfa_offset 8
 1355              		.cfi_offset 4, -8
 1356              		.cfi_offset 14, -4
 787:MCSDK_v6.3.2-Full/MotorControl/MCSDK/MCLib/Any/Src/sto_pll_speed_pos_fdbk.c **** 
 1357              		.loc 1 787 13 view .LVU581
 1358 002a 0CFB02FE 		mul	lr, ip, r2
 789:MCSDK_v6.3.2-Full/MotorControl/MCSDK/MCLib/Any/Src/sto_pll_speed_pos_fdbk.c ****       {
 1359              		.loc 1 789 10 view .LVU582
 1360 002e BEF1000F 		cmp	lr, #0
 787:MCSDK_v6.3.2-Full/MotorControl/MCSDK/MCLib/Any/Src/sto_pll_speed_pos_fdbk.c **** 
 1361              		.loc 1 787 49 view .LVU583
 1362 0032 1446     		mov	r4, r2
 1363              	.LVL119:
 789:MCSDK_v6.3.2-Full/MotorControl/MCSDK/MCLib/Any/Src/sto_pll_speed_pos_fdbk.c ****       {
 1364              		.loc 1 789 7 is_stmt 1 view .LVU584
 789:MCSDK_v6.3.2-Full/MotorControl/MCSDK/MCLib/Any/Src/sto_pll_speed_pos_fdbk.c ****       {
 1365              		.loc 1 789 10 is_stmt 0 view .LVU585
 1366 0034 3BDD     		ble	.L73
 791:MCSDK_v6.3.2-Full/MotorControl/MCSDK/MCLib/Any/Src/sto_pll_speed_pos_fdbk.c ****         {
 1367              		.loc 1 791 9 is_stmt 1 view .LVU586
 793:MCSDK_v6.3.2-Full/MotorControl/MCSDK/MCLib/Any/Src/sto_pll_speed_pos_fdbk.c ****         }
 1368              		.loc 1 793 11 view .LVU587
 791:MCSDK_v6.3.2-Full/MotorControl/MCSDK/MCLib/Any/Src/sto_pll_speed_pos_fdbk.c ****         {
 1369              		.loc 1 791 12 is_stmt 0 view .LVU588
 1370 0036 BCF1000F 		cmp	ip, #0
 793:MCSDK_v6.3.2-Full/MotorControl/MCSDK/MCLib/Any/Src/sto_pll_speed_pos_fdbk.c ****         }
 1371              		.loc 1 793 31 view .LVU589
 1372 003a BCBF     		itt	lt
 1373 003c CCF1000C 		rsblt	ip, ip, #0
 1374              	.LVL120:
 793:MCSDK_v6.3.2-Full/MotorControl/MCSDK/MCLib/Any/Src/sto_pll_speed_pos_fdbk.c ****         }
 1375              		.loc 1 793 31 view .LVU590
 1376 0040 0FFA8CFC 		sxthlt	ip, ip
ARM GAS  /tmp/ccaxKBZ0.s 			page 48


 1377              	.LVL121:
 796:MCSDK_v6.3.2-Full/MotorControl/MCSDK/MCLib/Any/Src/sto_pll_speed_pos_fdbk.c ****         {
 1378              		.loc 1 796 9 is_stmt 1 view .LVU591
 796:MCSDK_v6.3.2-Full/MotorControl/MCSDK/MCLib/Any/Src/sto_pll_speed_pos_fdbk.c ****         {
 1379              		.loc 1 796 12 is_stmt 0 view .LVU592
 1380 0044 002A     		cmp	r2, #0
 1381 0046 34DB     		blt	.L91
 800:MCSDK_v6.3.2-Full/MotorControl/MCSDK/MCLib/Any/Src/sto_pll_speed_pos_fdbk.c ****         hUpperThreshold = (int16_t)(wAux / ((int32_t)16));
 1382              		.loc 1 800 9 is_stmt 1 view .LVU593
 1383              	.LVL122:
 801:MCSDK_v6.3.2-Full/MotorControl/MCSDK/MCLib/Any/Src/sto_pll_speed_pos_fdbk.c **** 
 1384              		.loc 1 801 9 view .LVU594
 803:MCSDK_v6.3.2-Full/MotorControl/MCSDK/MCLib/Any/Src/sto_pll_speed_pos_fdbk.c ****         hLowerThreshold = (int16_t)(wAux / ((int32_t)16));
 1385              		.loc 1 803 9 view .LVU595
 804:MCSDK_v6.3.2-Full/MotorControl/MCSDK/MCLib/Any/Src/sto_pll_speed_pos_fdbk.c **** 
 1386              		.loc 1 804 9 view .LVU596
 807:MCSDK_v6.3.2-Full/MotorControl/MCSDK/MCLib/Any/Src/sto_pll_speed_pos_fdbk.c ****         {
 1387              		.loc 1 807 9 view .LVU597
 807:MCSDK_v6.3.2-Full/MotorControl/MCSDK/MCLib/Any/Src/sto_pll_speed_pos_fdbk.c ****         {
 1388              		.loc 1 807 12 is_stmt 0 view .LVU598
 1389 0048 90F8F520 		ldrb	r2, [r0, #245]	@ zero_extendqisi2
 1390              	.LVL123:
 807:MCSDK_v6.3.2-Full/MotorControl/MCSDK/MCLib/Any/Src/sto_pll_speed_pos_fdbk.c ****         {
 1391              		.loc 1 807 12 view .LVU599
 1392 004c 62B3     		cbz	r2, .L77
 1393              	.LVL124:
 1394              	.L92:
 809:MCSDK_v6.3.2-Full/MotorControl/MCSDK/MCLib/Any/Src/sto_pll_speed_pos_fdbk.c ****           {
 1395              		.loc 1 809 11 is_stmt 1 view .LVU600
 809:MCSDK_v6.3.2-Full/MotorControl/MCSDK/MCLib/Any/Src/sto_pll_speed_pos_fdbk.c ****           {
 1396              		.loc 1 809 14 is_stmt 0 view .LVU601
 1397 004e B0F81411 		ldrh	r1, [r0, #276]
 1398              	.LVL125:
 809:MCSDK_v6.3.2-Full/MotorControl/MCSDK/MCLib/Any/Src/sto_pll_speed_pos_fdbk.c ****           {
 1399              		.loc 1 809 14 view .LVU602
 1400 0052 1FFA8CF2 		uxth	r2, ip
 1401 0056 9142     		cmp	r1, r2
 1402 0058 26D2     		bcs	.L77
 812:MCSDK_v6.3.2-Full/MotorControl/MCSDK/MCLib/Any/Src/sto_pll_speed_pos_fdbk.c ****             {
 1403              		.loc 1 812 13 is_stmt 1 view .LVU603
 803:MCSDK_v6.3.2-Full/MotorControl/MCSDK/MCLib/Any/Src/sto_pll_speed_pos_fdbk.c ****         hLowerThreshold = (int16_t)(wAux / ((int32_t)16));
 1404              		.loc 1 803 52 is_stmt 0 view .LVU604
 1405 005a 90F81321 		ldrb	r2, [r0, #275]	@ zero_extendqisi2
 803:MCSDK_v6.3.2-Full/MotorControl/MCSDK/MCLib/Any/Src/sto_pll_speed_pos_fdbk.c ****         hLowerThreshold = (int16_t)(wAux / ((int32_t)16));
 1406              		.loc 1 803 14 view .LVU605
 1407 005e 04FB02F2 		mul	r2, r4, r2
 804:MCSDK_v6.3.2-Full/MotorControl/MCSDK/MCLib/Any/Src/sto_pll_speed_pos_fdbk.c **** 
 1408              		.loc 1 804 42 view .LVU606
 1409 0062 002A     		cmp	r2, #0
 1410 0064 B8BF     		it	lt
 1411 0066 0F32     		addlt	r2, r2, #15
 812:MCSDK_v6.3.2-Full/MotorControl/MCSDK/MCLib/Any/Src/sto_pll_speed_pos_fdbk.c ****             {
 1412              		.loc 1 812 16 view .LVU607
 1413 0068 42F30F12 		sbfx	r2, r2, #4, #16
 1414 006c 9445     		cmp	ip, r2
 1415 006e 1BDB     		blt	.L77
 814:MCSDK_v6.3.2-Full/MotorControl/MCSDK/MCLib/Any/Src/sto_pll_speed_pos_fdbk.c ****               {
ARM GAS  /tmp/ccaxKBZ0.s 			page 49


 1416              		.loc 1 814 15 is_stmt 1 view .LVU608
 800:MCSDK_v6.3.2-Full/MotorControl/MCSDK/MCLib/Any/Src/sto_pll_speed_pos_fdbk.c ****         hUpperThreshold = (int16_t)(wAux / ((int32_t)16));
 1417              		.loc 1 800 52 is_stmt 0 view .LVU609
 1418 0070 90F81221 		ldrb	r2, [r0, #274]	@ zero_extendqisi2
 800:MCSDK_v6.3.2-Full/MotorControl/MCSDK/MCLib/Any/Src/sto_pll_speed_pos_fdbk.c ****         hUpperThreshold = (int16_t)(wAux / ((int32_t)16));
 1419              		.loc 1 800 14 view .LVU610
 1420 0074 04FB02F2 		mul	r2, r4, r2
 801:MCSDK_v6.3.2-Full/MotorControl/MCSDK/MCLib/Any/Src/sto_pll_speed_pos_fdbk.c **** 
 1421              		.loc 1 801 42 view .LVU611
 1422 0078 002A     		cmp	r2, #0
 1423 007a B8BF     		it	lt
 1424 007c 0F32     		addlt	r2, r2, #15
 814:MCSDK_v6.3.2-Full/MotorControl/MCSDK/MCLib/Any/Src/sto_pll_speed_pos_fdbk.c ****               {
 1425              		.loc 1 814 18 view .LVU612
 1426 007e 42F30F12 		sbfx	r2, r2, #4, #16
 1427 0082 9445     		cmp	ip, r2
 1428 0084 10DC     		bgt	.L77
 816:MCSDK_v6.3.2-Full/MotorControl/MCSDK/MCLib/Any/Src/sto_pll_speed_pos_fdbk.c **** 
 1429              		.loc 1 816 17 is_stmt 1 view .LVU613
 816:MCSDK_v6.3.2-Full/MotorControl/MCSDK/MCLib/Any/Src/sto_pll_speed_pos_fdbk.c **** 
 1430              		.loc 1 816 44 is_stmt 0 view .LVU614
 1431 0086 90F8F620 		ldrb	r2, [r0, #246]	@ zero_extendqisi2
 819:MCSDK_v6.3.2-Full/MotorControl/MCSDK/MCLib/Any/Src/sto_pll_speed_pos_fdbk.c ****                 {
 1432              		.loc 1 819 20 view .LVU615
 1433 008a 90F81611 		ldrb	r1, [r0, #278]	@ zero_extendqisi2
 816:MCSDK_v6.3.2-Full/MotorControl/MCSDK/MCLib/Any/Src/sto_pll_speed_pos_fdbk.c **** 
 1434              		.loc 1 816 44 view .LVU616
 1435 008e 0132     		adds	r2, r2, #1
 1436 0090 D2B2     		uxtb	r2, r2
 819:MCSDK_v6.3.2-Full/MotorControl/MCSDK/MCLib/Any/Src/sto_pll_speed_pos_fdbk.c ****                 {
 1437              		.loc 1 819 20 view .LVU617
 1438 0092 9142     		cmp	r1, r2
 816:MCSDK_v6.3.2-Full/MotorControl/MCSDK/MCLib/Any/Src/sto_pll_speed_pos_fdbk.c **** 
 1439              		.loc 1 816 44 view .LVU618
 1440 0094 80F8F620 		strb	r2, [r0, #246]
 819:MCSDK_v6.3.2-Full/MotorControl/MCSDK/MCLib/Any/Src/sto_pll_speed_pos_fdbk.c ****                 {
 1441              		.loc 1 819 17 is_stmt 1 view .LVU619
 819:MCSDK_v6.3.2-Full/MotorControl/MCSDK/MCLib/Any/Src/sto_pll_speed_pos_fdbk.c ****                 {
 1442              		.loc 1 819 20 is_stmt 0 view .LVU620
 1443 0098 09D8     		bhi	.L73
 779:MCSDK_v6.3.2-Full/MotorControl/MCSDK/MCLib/Any/Src/sto_pll_speed_pos_fdbk.c ****       pHandle->IsAlgorithmConverged = true;
 1444              		.loc 1 779 7 is_stmt 1 view .LVU621
 1445              	.LVL126:
 780:MCSDK_v6.3.2-Full/MotorControl/MCSDK/MCLib/Any/Src/sto_pll_speed_pos_fdbk.c ****       pHandle->_Super.bSpeedErrorNumber = 0U;
 1446              		.loc 1 780 7 view .LVU622
 781:MCSDK_v6.3.2-Full/MotorControl/MCSDK/MCLib/Any/Src/sto_pll_speed_pos_fdbk.c ****     }
 1447              		.loc 1 781 41 is_stmt 0 view .LVU623
 1448 009a 0022     		movs	r2, #0
 780:MCSDK_v6.3.2-Full/MotorControl/MCSDK/MCLib/Any/Src/sto_pll_speed_pos_fdbk.c ****       pHandle->_Super.bSpeedErrorNumber = 0U;
 1449              		.loc 1 780 37 view .LVU624
 1450 009c 0123     		movs	r3, #1
 781:MCSDK_v6.3.2-Full/MotorControl/MCSDK/MCLib/Any/Src/sto_pll_speed_pos_fdbk.c ****     }
 1451              		.loc 1 781 41 view .LVU625
 1452 009e 0270     		strb	r2, [r0]
 780:MCSDK_v6.3.2-Full/MotorControl/MCSDK/MCLib/Any/Src/sto_pll_speed_pos_fdbk.c ****       pHandle->_Super.bSpeedErrorNumber = 0U;
 1453              		.loc 1 780 37 view .LVU626
 1454 00a0 80F8F830 		strb	r3, [r0, #248]
ARM GAS  /tmp/ccaxKBZ0.s 			page 50


 781:MCSDK_v6.3.2-Full/MotorControl/MCSDK/MCLib/Any/Src/sto_pll_speed_pos_fdbk.c ****     }
 1455              		.loc 1 781 7 is_stmt 1 view .LVU627
 1456              	.LVL127:
 851:MCSDK_v6.3.2-Full/MotorControl/MCSDK/MCLib/Any/Src/sto_pll_speed_pos_fdbk.c ****     }
 1457              		.loc 1 851 7 view .LVU628
 856:MCSDK_v6.3.2-Full/MotorControl/MCSDK/MCLib/Any/Src/sto_pll_speed_pos_fdbk.c **** }
 1458              		.loc 1 856 3 view .LVU629
 1459              		.loc 1 857 1 is_stmt 0 view .LVU630
 1460 00a4 1846     		mov	r0, r3
 1461              	.LVL128:
 1462              		.loc 1 857 1 view .LVU631
 1463 00a6 10BD     		pop	{r4, pc}
 1464              	.LVL129:
 1465              	.L77:
 830:MCSDK_v6.3.2-Full/MotorControl/MCSDK/MCLib/Any/Src/sto_pll_speed_pos_fdbk.c ****               }
 1466              		.loc 1 830 17 is_stmt 1 view .LVU632
 830:MCSDK_v6.3.2-Full/MotorControl/MCSDK/MCLib/Any/Src/sto_pll_speed_pos_fdbk.c ****               }
 1467              		.loc 1 830 45 is_stmt 0 view .LVU633
 1468 00a8 0022     		movs	r2, #0
 1469 00aa 80F8F620 		strb	r2, [r0, #246]
 1470              	.L73:
 1471              	.LVL130:
 851:MCSDK_v6.3.2-Full/MotorControl/MCSDK/MCLib/Any/Src/sto_pll_speed_pos_fdbk.c ****     }
 1472              		.loc 1 851 7 is_stmt 1 view .LVU634
 856:MCSDK_v6.3.2-Full/MotorControl/MCSDK/MCLib/Any/Src/sto_pll_speed_pos_fdbk.c **** }
 1473              		.loc 1 856 3 view .LVU635
 1474              		.loc 1 857 1 is_stmt 0 view .LVU636
 1475 00ae 1846     		mov	r0, r3
 1476              	.LVL131:
 1477              		.loc 1 857 1 view .LVU637
 1478 00b0 10BD     		pop	{r4, pc}
 1479              	.LVL132:
 1480              	.L91:
 798:MCSDK_v6.3.2-Full/MotorControl/MCSDK/MCLib/Any/Src/sto_pll_speed_pos_fdbk.c ****         }
 1481              		.loc 1 798 11 is_stmt 1 view .LVU638
 798:MCSDK_v6.3.2-Full/MotorControl/MCSDK/MCLib/Any/Src/sto_pll_speed_pos_fdbk.c ****         }
 1482              		.loc 1 798 33 is_stmt 0 view .LVU639
 1483 00b2 5242     		rsbs	r2, r2, #0
 1484              	.LVL133:
 798:MCSDK_v6.3.2-Full/MotorControl/MCSDK/MCLib/Any/Src/sto_pll_speed_pos_fdbk.c ****         }
 1485              		.loc 1 798 33 view .LVU640
 1486 00b4 12B2     		sxth	r2, r2
 1487 00b6 0A80     		strh	r2, [r1]	@ movhi
 1488              	.LVL134:
 800:MCSDK_v6.3.2-Full/MotorControl/MCSDK/MCLib/Any/Src/sto_pll_speed_pos_fdbk.c ****         hUpperThreshold = (int16_t)(wAux / ((int32_t)16));
 1489              		.loc 1 800 17 view .LVU641
 1490 00b8 1446     		mov	r4, r2
 800:MCSDK_v6.3.2-Full/MotorControl/MCSDK/MCLib/Any/Src/sto_pll_speed_pos_fdbk.c ****         hUpperThreshold = (int16_t)(wAux / ((int32_t)16));
 1491              		.loc 1 800 9 is_stmt 1 view .LVU642
 1492              	.LVL135:
 801:MCSDK_v6.3.2-Full/MotorControl/MCSDK/MCLib/Any/Src/sto_pll_speed_pos_fdbk.c **** 
 1493              		.loc 1 801 9 view .LVU643
 803:MCSDK_v6.3.2-Full/MotorControl/MCSDK/MCLib/Any/Src/sto_pll_speed_pos_fdbk.c ****         hLowerThreshold = (int16_t)(wAux / ((int32_t)16));
 1494              		.loc 1 803 9 view .LVU644
 804:MCSDK_v6.3.2-Full/MotorControl/MCSDK/MCLib/Any/Src/sto_pll_speed_pos_fdbk.c **** 
 1495              		.loc 1 804 9 view .LVU645
 807:MCSDK_v6.3.2-Full/MotorControl/MCSDK/MCLib/Any/Src/sto_pll_speed_pos_fdbk.c ****         {
ARM GAS  /tmp/ccaxKBZ0.s 			page 51


 1496              		.loc 1 807 9 view .LVU646
 807:MCSDK_v6.3.2-Full/MotorControl/MCSDK/MCLib/Any/Src/sto_pll_speed_pos_fdbk.c ****         {
 1497              		.loc 1 807 12 is_stmt 0 view .LVU647
 1498 00ba 90F8F520 		ldrb	r2, [r0, #245]	@ zero_extendqisi2
 1499              	.LVL136:
 807:MCSDK_v6.3.2-Full/MotorControl/MCSDK/MCLib/Any/Src/sto_pll_speed_pos_fdbk.c ****         {
 1500              		.loc 1 807 12 view .LVU648
 1501 00be 002A     		cmp	r2, #0
 1502 00c0 F2D0     		beq	.L77
 1503 00c2 C4E7     		b	.L92
 1504              		.cfi_endproc
 1505              	.LFE1457:
 1507              		.section	.text.STO_PLL_GetEstimatedBemf,"ax",%progbits
 1508              		.align	1
 1509              		.p2align 2,,3
 1510              		.weak	STO_PLL_GetEstimatedBemf
 1511              		.syntax unified
 1512              		.thumb
 1513              		.thumb_func
 1514              		.fpu fpv4-sp-d16
 1516              	STO_PLL_GetEstimatedBemf:
 1517              	.LVL137:
 1518              	.LFB1458:
 858:MCSDK_v6.3.2-Full/MotorControl/MCSDK/MCLib/Any/Src/sto_pll_speed_pos_fdbk.c **** 
 859:MCSDK_v6.3.2-Full/MotorControl/MCSDK/MCLib/Any/Src/sto_pll_speed_pos_fdbk.c **** /**
 860:MCSDK_v6.3.2-Full/MotorControl/MCSDK/MCLib/Any/Src/sto_pll_speed_pos_fdbk.c ****   * @brief  Exports estimated Bemf alpha-beta from @p pHandle.
 861:MCSDK_v6.3.2-Full/MotorControl/MCSDK/MCLib/Any/Src/sto_pll_speed_pos_fdbk.c ****   * 
 862:MCSDK_v6.3.2-Full/MotorControl/MCSDK/MCLib/Any/Src/sto_pll_speed_pos_fdbk.c ****   * @retval alphabeta_t Bemf alpha-beta.
 863:MCSDK_v6.3.2-Full/MotorControl/MCSDK/MCLib/Any/Src/sto_pll_speed_pos_fdbk.c ****   */
 864:MCSDK_v6.3.2-Full/MotorControl/MCSDK/MCLib/Any/Src/sto_pll_speed_pos_fdbk.c **** __weak alphabeta_t STO_PLL_GetEstimatedBemf(STO_PLL_Handle_t *pHandle)
 865:MCSDK_v6.3.2-Full/MotorControl/MCSDK/MCLib/Any/Src/sto_pll_speed_pos_fdbk.c **** {
 1519              		.loc 1 865 1 is_stmt 1 view -0
 1520              		.cfi_startproc
 1521              		@ args = 0, pretend = 0, frame = 8
 1522              		@ frame_needed = 0, uses_anonymous_args = 0
 1523              		@ link register save eliminated.
 866:MCSDK_v6.3.2-Full/MotorControl/MCSDK/MCLib/Any/Src/sto_pll_speed_pos_fdbk.c ****   alphabeta_t vaux;
 1524              		.loc 1 866 3 view .LVU650
 867:MCSDK_v6.3.2-Full/MotorControl/MCSDK/MCLib/Any/Src/sto_pll_speed_pos_fdbk.c **** #ifdef NULL_PTR_CHECK_STO_PLL_SPD_POS_FDB
 868:MCSDK_v6.3.2-Full/MotorControl/MCSDK/MCLib/Any/Src/sto_pll_speed_pos_fdbk.c ****   if (MC_NULL == pHandle)
 869:MCSDK_v6.3.2-Full/MotorControl/MCSDK/MCLib/Any/Src/sto_pll_speed_pos_fdbk.c ****   {
 870:MCSDK_v6.3.2-Full/MotorControl/MCSDK/MCLib/Any/Src/sto_pll_speed_pos_fdbk.c ****     vaux.alpha = 0;
 871:MCSDK_v6.3.2-Full/MotorControl/MCSDK/MCLib/Any/Src/sto_pll_speed_pos_fdbk.c ****     vaux.beta = 0;
 872:MCSDK_v6.3.2-Full/MotorControl/MCSDK/MCLib/Any/Src/sto_pll_speed_pos_fdbk.c ****   }
 873:MCSDK_v6.3.2-Full/MotorControl/MCSDK/MCLib/Any/Src/sto_pll_speed_pos_fdbk.c ****   else
 874:MCSDK_v6.3.2-Full/MotorControl/MCSDK/MCLib/Any/Src/sto_pll_speed_pos_fdbk.c ****   {
 875:MCSDK_v6.3.2-Full/MotorControl/MCSDK/MCLib/Any/Src/sto_pll_speed_pos_fdbk.c **** #endif
 876:MCSDK_v6.3.2-Full/MotorControl/MCSDK/MCLib/Any/Src/sto_pll_speed_pos_fdbk.c ****     vaux.alpha = pHandle->hBemf_alfa_est;
 1525              		.loc 1 876 5 view .LVU651
 877:MCSDK_v6.3.2-Full/MotorControl/MCSDK/MCLib/Any/Src/sto_pll_speed_pos_fdbk.c ****     vaux.beta = pHandle->hBemf_beta_est;
 1526              		.loc 1 877 5 view .LVU652
 878:MCSDK_v6.3.2-Full/MotorControl/MCSDK/MCLib/Any/Src/sto_pll_speed_pos_fdbk.c **** #ifdef NULL_PTR_CHECK_STO_PLL_SPD_POS_FDB
 879:MCSDK_v6.3.2-Full/MotorControl/MCSDK/MCLib/Any/Src/sto_pll_speed_pos_fdbk.c ****   }
 880:MCSDK_v6.3.2-Full/MotorControl/MCSDK/MCLib/Any/Src/sto_pll_speed_pos_fdbk.c **** #endif
 881:MCSDK_v6.3.2-Full/MotorControl/MCSDK/MCLib/Any/Src/sto_pll_speed_pos_fdbk.c ****   return (vaux);
 1527              		.loc 1 881 3 view .LVU653
 1528              		.loc 1 881 10 is_stmt 0 view .LVU654
ARM GAS  /tmp/ccaxKBZ0.s 			page 52


 1529 0000 036F     		ldr	r3, [r0, #112]
 1530 0002 0022     		movs	r2, #0
 1531 0004 99B2     		uxth	r1, r3
 1532 0006 61F30F02 		bfi	r2, r1, #0, #16
 1533 000a 1B0C     		lsrs	r3, r3, #16
 1534 000c 63F31F42 		bfi	r2, r3, #16, #16
 865:MCSDK_v6.3.2-Full/MotorControl/MCSDK/MCLib/Any/Src/sto_pll_speed_pos_fdbk.c ****   alphabeta_t vaux;
 1535              		.loc 1 865 1 view .LVU655
 1536 0010 82B0     		sub	sp, sp, #8
 1537              	.LCFI14:
 1538              		.cfi_def_cfa_offset 8
 882:MCSDK_v6.3.2-Full/MotorControl/MCSDK/MCLib/Any/Src/sto_pll_speed_pos_fdbk.c **** }
 1539              		.loc 1 882 1 view .LVU656
 1540 0012 1046     		mov	r0, r2
 1541              	.LVL138:
 1542              		.loc 1 882 1 view .LVU657
 1543 0014 02B0     		add	sp, sp, #8
 1544              	.LCFI15:
 1545              		.cfi_def_cfa_offset 0
 1546              		@ sp needed
 1547 0016 7047     		bx	lr
 1548              		.cfi_endproc
 1549              	.LFE1458:
 1551              		.section	.text.STO_PLL_GetEstimatedCurrent,"ax",%progbits
 1552              		.align	1
 1553              		.p2align 2,,3
 1554              		.weak	STO_PLL_GetEstimatedCurrent
 1555              		.syntax unified
 1556              		.thumb
 1557              		.thumb_func
 1558              		.fpu fpv4-sp-d16
 1560              	STO_PLL_GetEstimatedCurrent:
 1561              	.LVL139:
 1562              	.LFB1459:
 883:MCSDK_v6.3.2-Full/MotorControl/MCSDK/MCLib/Any/Src/sto_pll_speed_pos_fdbk.c **** 
 884:MCSDK_v6.3.2-Full/MotorControl/MCSDK/MCLib/Any/Src/sto_pll_speed_pos_fdbk.c **** 
 885:MCSDK_v6.3.2-Full/MotorControl/MCSDK/MCLib/Any/Src/sto_pll_speed_pos_fdbk.c **** /**
 886:MCSDK_v6.3.2-Full/MotorControl/MCSDK/MCLib/Any/Src/sto_pll_speed_pos_fdbk.c ****   * @brief  Exports from @p pHandle the stator current alpha-beta as estimated by state observer.
 887:MCSDK_v6.3.2-Full/MotorControl/MCSDK/MCLib/Any/Src/sto_pll_speed_pos_fdbk.c ****   * 
 888:MCSDK_v6.3.2-Full/MotorControl/MCSDK/MCLib/Any/Src/sto_pll_speed_pos_fdbk.c ****   * @retval alphabeta_t State observer estimated stator current Ialpha-beta.
 889:MCSDK_v6.3.2-Full/MotorControl/MCSDK/MCLib/Any/Src/sto_pll_speed_pos_fdbk.c ****   */
 890:MCSDK_v6.3.2-Full/MotorControl/MCSDK/MCLib/Any/Src/sto_pll_speed_pos_fdbk.c **** __weak alphabeta_t STO_PLL_GetEstimatedCurrent(STO_PLL_Handle_t *pHandle)
 891:MCSDK_v6.3.2-Full/MotorControl/MCSDK/MCLib/Any/Src/sto_pll_speed_pos_fdbk.c **** {
 1563              		.loc 1 891 1 is_stmt 1 view -0
 1564              		.cfi_startproc
 1565              		@ args = 0, pretend = 0, frame = 8
 1566              		@ frame_needed = 0, uses_anonymous_args = 0
 1567              		@ link register save eliminated.
 892:MCSDK_v6.3.2-Full/MotorControl/MCSDK/MCLib/Any/Src/sto_pll_speed_pos_fdbk.c ****   alphabeta_t iaux;
 1568              		.loc 1 892 3 view .LVU659
 893:MCSDK_v6.3.2-Full/MotorControl/MCSDK/MCLib/Any/Src/sto_pll_speed_pos_fdbk.c **** #ifdef NULL_PTR_CHECK_STO_PLL_SPD_POS_FDB
 894:MCSDK_v6.3.2-Full/MotorControl/MCSDK/MCLib/Any/Src/sto_pll_speed_pos_fdbk.c ****   if (MC_NULL == pHandle)
 895:MCSDK_v6.3.2-Full/MotorControl/MCSDK/MCLib/Any/Src/sto_pll_speed_pos_fdbk.c ****   {
 896:MCSDK_v6.3.2-Full/MotorControl/MCSDK/MCLib/Any/Src/sto_pll_speed_pos_fdbk.c ****     iaux.alpha = 0;
 897:MCSDK_v6.3.2-Full/MotorControl/MCSDK/MCLib/Any/Src/sto_pll_speed_pos_fdbk.c ****     iaux.beta = 0;
 898:MCSDK_v6.3.2-Full/MotorControl/MCSDK/MCLib/Any/Src/sto_pll_speed_pos_fdbk.c ****   }
 899:MCSDK_v6.3.2-Full/MotorControl/MCSDK/MCLib/Any/Src/sto_pll_speed_pos_fdbk.c ****   else
ARM GAS  /tmp/ccaxKBZ0.s 			page 53


 900:MCSDK_v6.3.2-Full/MotorControl/MCSDK/MCLib/Any/Src/sto_pll_speed_pos_fdbk.c ****   {
 901:MCSDK_v6.3.2-Full/MotorControl/MCSDK/MCLib/Any/Src/sto_pll_speed_pos_fdbk.c **** #endif
 902:MCSDK_v6.3.2-Full/MotorControl/MCSDK/MCLib/Any/Src/sto_pll_speed_pos_fdbk.c **** #ifndef FULL_MISRA_C_COMPLIANCY_STO_PLL
 903:MCSDK_v6.3.2-Full/MotorControl/MCSDK/MCLib/Any/Src/sto_pll_speed_pos_fdbk.c ****   //cstat !MISRAC2012-Rule-1.3_n !ATH-shift-neg !MISRAC2012-Rule-10.1_R6
 904:MCSDK_v6.3.2-Full/MotorControl/MCSDK/MCLib/Any/Src/sto_pll_speed_pos_fdbk.c ****   iaux.alpha = (int16_t)(pHandle->Ialfa_est >> pHandle->F1LOG);
 1569              		.loc 1 904 3 view .LVU660
 905:MCSDK_v6.3.2-Full/MotorControl/MCSDK/MCLib/Any/Src/sto_pll_speed_pos_fdbk.c **** #else
 906:MCSDK_v6.3.2-Full/MotorControl/MCSDK/MCLib/Any/Src/sto_pll_speed_pos_fdbk.c ****   iaux.alpha = (int16_t)(pHandle->Ialfa_est / pHandle->hF1);
 907:MCSDK_v6.3.2-Full/MotorControl/MCSDK/MCLib/Any/Src/sto_pll_speed_pos_fdbk.c **** #endif
 908:MCSDK_v6.3.2-Full/MotorControl/MCSDK/MCLib/Any/Src/sto_pll_speed_pos_fdbk.c **** 
 909:MCSDK_v6.3.2-Full/MotorControl/MCSDK/MCLib/Any/Src/sto_pll_speed_pos_fdbk.c **** #ifndef FULL_MISRA_C_COMPLIANCY_STO_PLL
 910:MCSDK_v6.3.2-Full/MotorControl/MCSDK/MCLib/Any/Src/sto_pll_speed_pos_fdbk.c ****   //cstat !MISRAC2012-Rule-1.3_n !ATH-shift-neg !MISRAC2012-Rule-10.1_R6
 911:MCSDK_v6.3.2-Full/MotorControl/MCSDK/MCLib/Any/Src/sto_pll_speed_pos_fdbk.c ****   iaux.beta = (int16_t)(pHandle->Ibeta_est >> pHandle->F1LOG);
 1570              		.loc 1 911 44 is_stmt 0 view .LVU661
 1571 0000 D0E91823 		ldrd	r2, r3, [r0, #96]
 904:MCSDK_v6.3.2-Full/MotorControl/MCSDK/MCLib/Any/Src/sto_pll_speed_pos_fdbk.c **** #else
 1572              		.loc 1 904 55 view .LVU662
 1573 0004 B0F81CC1 		ldrh	ip, [r0, #284]
 1574              	.LVL140:
 1575              		.loc 1 911 3 is_stmt 1 view .LVU663
 912:MCSDK_v6.3.2-Full/MotorControl/MCSDK/MCLib/Any/Src/sto_pll_speed_pos_fdbk.c **** #else
 913:MCSDK_v6.3.2-Full/MotorControl/MCSDK/MCLib/Any/Src/sto_pll_speed_pos_fdbk.c ****   iaux.beta = (int16_t)(pHandle->Ibeta_est / pHandle->hF1);
 914:MCSDK_v6.3.2-Full/MotorControl/MCSDK/MCLib/Any/Src/sto_pll_speed_pos_fdbk.c **** #endif
 915:MCSDK_v6.3.2-Full/MotorControl/MCSDK/MCLib/Any/Src/sto_pll_speed_pos_fdbk.c **** #ifdef NULL_PTR_CHECK_STO_PLL_SPD_POS_FDB
 916:MCSDK_v6.3.2-Full/MotorControl/MCSDK/MCLib/Any/Src/sto_pll_speed_pos_fdbk.c ****   }
 917:MCSDK_v6.3.2-Full/MotorControl/MCSDK/MCLib/Any/Src/sto_pll_speed_pos_fdbk.c **** #endif
 918:MCSDK_v6.3.2-Full/MotorControl/MCSDK/MCLib/Any/Src/sto_pll_speed_pos_fdbk.c ****   return (iaux);
 1576              		.loc 1 918 3 view .LVU664
 904:MCSDK_v6.3.2-Full/MotorControl/MCSDK/MCLib/Any/Src/sto_pll_speed_pos_fdbk.c **** #else
 1577              		.loc 1 904 16 is_stmt 0 view .LVU665
 1578 0008 42FA0CF2 		asr	r2, r2, ip
 1579              	.LVL141:
 1580              		.loc 1 918 10 view .LVU666
 1581 000c 43FA0CF3 		asr	r3, r3, ip
 1582              	.LVL142:
 1583              		.loc 1 918 10 view .LVU667
 1584 0010 92B2     		uxth	r2, r2
 1585 0012 0021     		movs	r1, #0
 1586 0014 62F30F01 		bfi	r1, r2, #0, #16
 1587 0018 9BB2     		uxth	r3, r3
 1588 001a 63F31F41 		bfi	r1, r3, #16, #16
 891:MCSDK_v6.3.2-Full/MotorControl/MCSDK/MCLib/Any/Src/sto_pll_speed_pos_fdbk.c ****   alphabeta_t iaux;
 1589              		.loc 1 891 1 view .LVU668
 1590 001e 82B0     		sub	sp, sp, #8
 1591              	.LCFI16:
 1592              		.cfi_def_cfa_offset 8
 919:MCSDK_v6.3.2-Full/MotorControl/MCSDK/MCLib/Any/Src/sto_pll_speed_pos_fdbk.c **** }
 1593              		.loc 1 919 1 view .LVU669
 1594 0020 0846     		mov	r0, r1
 1595              	.LVL143:
 1596              		.loc 1 919 1 view .LVU670
 1597 0022 02B0     		add	sp, sp, #8
 1598              	.LCFI17:
 1599              		.cfi_def_cfa_offset 0
 1600              		@ sp needed
 1601 0024 7047     		bx	lr
 1602              		.cfi_endproc
ARM GAS  /tmp/ccaxKBZ0.s 			page 54


 1603              	.LFE1459:
 1605 0026 00BF     		.section	.text.STO_PLL_GetObserverGains,"ax",%progbits
 1606              		.align	1
 1607              		.p2align 2,,3
 1608              		.weak	STO_PLL_GetObserverGains
 1609              		.syntax unified
 1610              		.thumb
 1611              		.thumb_func
 1612              		.fpu fpv4-sp-d16
 1614              	STO_PLL_GetObserverGains:
 1615              	.LVL144:
 1616              	.LFB1460:
 920:MCSDK_v6.3.2-Full/MotorControl/MCSDK/MCLib/Any/Src/sto_pll_speed_pos_fdbk.c **** 
 921:MCSDK_v6.3.2-Full/MotorControl/MCSDK/MCLib/Any/Src/sto_pll_speed_pos_fdbk.c **** /**
 922:MCSDK_v6.3.2-Full/MotorControl/MCSDK/MCLib/Any/Src/sto_pll_speed_pos_fdbk.c ****   * @brief  Exports current observer gains from @p pHandle and to parameters @p phC2 and @p phC4.
 923:MCSDK_v6.3.2-Full/MotorControl/MCSDK/MCLib/Any/Src/sto_pll_speed_pos_fdbk.c ****   * 
 924:MCSDK_v6.3.2-Full/MotorControl/MCSDK/MCLib/Any/Src/sto_pll_speed_pos_fdbk.c ****   */
 925:MCSDK_v6.3.2-Full/MotorControl/MCSDK/MCLib/Any/Src/sto_pll_speed_pos_fdbk.c **** __weak void STO_PLL_GetObserverGains(STO_PLL_Handle_t *pHandle, int16_t *phC2, int16_t *phC4)
 926:MCSDK_v6.3.2-Full/MotorControl/MCSDK/MCLib/Any/Src/sto_pll_speed_pos_fdbk.c **** {
 1617              		.loc 1 926 1 is_stmt 1 view -0
 1618              		.cfi_startproc
 1619              		@ args = 0, pretend = 0, frame = 0
 1620              		@ frame_needed = 0, uses_anonymous_args = 0
 1621              		@ link register save eliminated.
 927:MCSDK_v6.3.2-Full/MotorControl/MCSDK/MCLib/Any/Src/sto_pll_speed_pos_fdbk.c **** #ifdef NULL_PTR_CHECK_STO_PLL_SPD_POS_FDB
 928:MCSDK_v6.3.2-Full/MotorControl/MCSDK/MCLib/Any/Src/sto_pll_speed_pos_fdbk.c ****   if ((MC_NULL == pHandle) || (MC_NULL == phC2) || (MC_NULL == phC4))
 929:MCSDK_v6.3.2-Full/MotorControl/MCSDK/MCLib/Any/Src/sto_pll_speed_pos_fdbk.c ****   {
 930:MCSDK_v6.3.2-Full/MotorControl/MCSDK/MCLib/Any/Src/sto_pll_speed_pos_fdbk.c ****     /* Nothing to do */
 931:MCSDK_v6.3.2-Full/MotorControl/MCSDK/MCLib/Any/Src/sto_pll_speed_pos_fdbk.c ****   }
 932:MCSDK_v6.3.2-Full/MotorControl/MCSDK/MCLib/Any/Src/sto_pll_speed_pos_fdbk.c ****   else
 933:MCSDK_v6.3.2-Full/MotorControl/MCSDK/MCLib/Any/Src/sto_pll_speed_pos_fdbk.c ****   {
 934:MCSDK_v6.3.2-Full/MotorControl/MCSDK/MCLib/Any/Src/sto_pll_speed_pos_fdbk.c **** #endif
 935:MCSDK_v6.3.2-Full/MotorControl/MCSDK/MCLib/Any/Src/sto_pll_speed_pos_fdbk.c ****     *phC2 = pHandle->hC2;
 1622              		.loc 1 935 5 view .LVU672
 1623              		.loc 1 935 20 is_stmt 0 view .LVU673
 1624 0000 B0F92230 		ldrsh	r3, [r0, #34]
 1625              		.loc 1 935 11 view .LVU674
 1626 0004 0B80     		strh	r3, [r1]	@ movhi
 936:MCSDK_v6.3.2-Full/MotorControl/MCSDK/MCLib/Any/Src/sto_pll_speed_pos_fdbk.c ****     *phC4 = pHandle->hC4;
 1627              		.loc 1 936 5 is_stmt 1 view .LVU675
 1628              		.loc 1 936 20 is_stmt 0 view .LVU676
 1629 0006 B0F92630 		ldrsh	r3, [r0, #38]
 1630              		.loc 1 936 11 view .LVU677
 1631 000a 1380     		strh	r3, [r2]	@ movhi
 937:MCSDK_v6.3.2-Full/MotorControl/MCSDK/MCLib/Any/Src/sto_pll_speed_pos_fdbk.c **** #ifdef NULL_PTR_CHECK_STO_PLL_SPD_POS_FDB
 938:MCSDK_v6.3.2-Full/MotorControl/MCSDK/MCLib/Any/Src/sto_pll_speed_pos_fdbk.c ****   }
 939:MCSDK_v6.3.2-Full/MotorControl/MCSDK/MCLib/Any/Src/sto_pll_speed_pos_fdbk.c **** #endif
 940:MCSDK_v6.3.2-Full/MotorControl/MCSDK/MCLib/Any/Src/sto_pll_speed_pos_fdbk.c **** }
 1632              		.loc 1 940 1 view .LVU678
 1633 000c 7047     		bx	lr
 1634              		.cfi_endproc
 1635              	.LFE1460:
 1637 000e 00BF     		.section	.text.STO_PLL_SetObserverGains,"ax",%progbits
 1638              		.align	1
 1639              		.p2align 2,,3
 1640              		.weak	STO_PLL_SetObserverGains
 1641              		.syntax unified
ARM GAS  /tmp/ccaxKBZ0.s 			page 55


 1642              		.thumb
 1643              		.thumb_func
 1644              		.fpu fpv4-sp-d16
 1646              	STO_PLL_SetObserverGains:
 1647              	.LVL145:
 1648              	.LFB1461:
 941:MCSDK_v6.3.2-Full/MotorControl/MCSDK/MCLib/Any/Src/sto_pll_speed_pos_fdbk.c **** 
 942:MCSDK_v6.3.2-Full/MotorControl/MCSDK/MCLib/Any/Src/sto_pll_speed_pos_fdbk.c **** /**
 943:MCSDK_v6.3.2-Full/MotorControl/MCSDK/MCLib/Any/Src/sto_pll_speed_pos_fdbk.c ****   * @brief  Stores in @p pHandle the new values @p hhC1 and @p hhC2 for observer gains.
 944:MCSDK_v6.3.2-Full/MotorControl/MCSDK/MCLib/Any/Src/sto_pll_speed_pos_fdbk.c ****   * 
 945:MCSDK_v6.3.2-Full/MotorControl/MCSDK/MCLib/Any/Src/sto_pll_speed_pos_fdbk.c ****   */
 946:MCSDK_v6.3.2-Full/MotorControl/MCSDK/MCLib/Any/Src/sto_pll_speed_pos_fdbk.c **** __weak void STO_PLL_SetObserverGains(STO_PLL_Handle_t *pHandle, int16_t hhC1, int16_t hhC2)
 947:MCSDK_v6.3.2-Full/MotorControl/MCSDK/MCLib/Any/Src/sto_pll_speed_pos_fdbk.c **** {
 1649              		.loc 1 947 1 is_stmt 1 view -0
 1650              		.cfi_startproc
 1651              		@ args = 0, pretend = 0, frame = 0
 1652              		@ frame_needed = 0, uses_anonymous_args = 0
 1653              		@ link register save eliminated.
 948:MCSDK_v6.3.2-Full/MotorControl/MCSDK/MCLib/Any/Src/sto_pll_speed_pos_fdbk.c **** #ifdef NULL_PTR_CHECK_STO_PLL_SPD_POS_FDB
 949:MCSDK_v6.3.2-Full/MotorControl/MCSDK/MCLib/Any/Src/sto_pll_speed_pos_fdbk.c ****   if (MC_NULL == pHandle)
 950:MCSDK_v6.3.2-Full/MotorControl/MCSDK/MCLib/Any/Src/sto_pll_speed_pos_fdbk.c ****   {
 951:MCSDK_v6.3.2-Full/MotorControl/MCSDK/MCLib/Any/Src/sto_pll_speed_pos_fdbk.c ****     /* Nothing to do */
 952:MCSDK_v6.3.2-Full/MotorControl/MCSDK/MCLib/Any/Src/sto_pll_speed_pos_fdbk.c ****   }
 953:MCSDK_v6.3.2-Full/MotorControl/MCSDK/MCLib/Any/Src/sto_pll_speed_pos_fdbk.c ****   else
 954:MCSDK_v6.3.2-Full/MotorControl/MCSDK/MCLib/Any/Src/sto_pll_speed_pos_fdbk.c ****   {
 955:MCSDK_v6.3.2-Full/MotorControl/MCSDK/MCLib/Any/Src/sto_pll_speed_pos_fdbk.c **** #endif
 956:MCSDK_v6.3.2-Full/MotorControl/MCSDK/MCLib/Any/Src/sto_pll_speed_pos_fdbk.c ****     pHandle->hC2 = hhC1;
 1654              		.loc 1 956 5 view .LVU680
 1655              		.loc 1 956 18 is_stmt 0 view .LVU681
 1656 0000 4184     		strh	r1, [r0, #34]	@ movhi
 957:MCSDK_v6.3.2-Full/MotorControl/MCSDK/MCLib/Any/Src/sto_pll_speed_pos_fdbk.c ****     pHandle->hC4 = hhC2;
 1657              		.loc 1 957 5 is_stmt 1 view .LVU682
 1658              		.loc 1 957 18 is_stmt 0 view .LVU683
 1659 0002 C284     		strh	r2, [r0, #38]	@ movhi
 958:MCSDK_v6.3.2-Full/MotorControl/MCSDK/MCLib/Any/Src/sto_pll_speed_pos_fdbk.c **** #ifdef NULL_PTR_CHECK_STO_PLL_SPD_POS_FDB
 959:MCSDK_v6.3.2-Full/MotorControl/MCSDK/MCLib/Any/Src/sto_pll_speed_pos_fdbk.c ****   }
 960:MCSDK_v6.3.2-Full/MotorControl/MCSDK/MCLib/Any/Src/sto_pll_speed_pos_fdbk.c **** #endif
 961:MCSDK_v6.3.2-Full/MotorControl/MCSDK/MCLib/Any/Src/sto_pll_speed_pos_fdbk.c **** }
 1660              		.loc 1 961 1 view .LVU684
 1661 0004 7047     		bx	lr
 1662              		.cfi_endproc
 1663              	.LFE1461:
 1665 0006 00BF     		.section	.text.STO_GetPLLGains,"ax",%progbits
 1666              		.align	1
 1667              		.p2align 2,,3
 1668              		.weak	STO_GetPLLGains
 1669              		.syntax unified
 1670              		.thumb
 1671              		.thumb_func
 1672              		.fpu fpv4-sp-d16
 1674              	STO_GetPLLGains:
 1675              	.LVL146:
 1676              	.LFB1462:
 962:MCSDK_v6.3.2-Full/MotorControl/MCSDK/MCLib/Any/Src/sto_pll_speed_pos_fdbk.c **** 
 963:MCSDK_v6.3.2-Full/MotorControl/MCSDK/MCLib/Any/Src/sto_pll_speed_pos_fdbk.c **** /**
 964:MCSDK_v6.3.2-Full/MotorControl/MCSDK/MCLib/Any/Src/sto_pll_speed_pos_fdbk.c ****   * @brief  Exports current PLL gains from @p pHandle to @p pPgain and @p pIgain.
 965:MCSDK_v6.3.2-Full/MotorControl/MCSDK/MCLib/Any/Src/sto_pll_speed_pos_fdbk.c ****   * 
ARM GAS  /tmp/ccaxKBZ0.s 			page 56


 966:MCSDK_v6.3.2-Full/MotorControl/MCSDK/MCLib/Any/Src/sto_pll_speed_pos_fdbk.c ****   */
 967:MCSDK_v6.3.2-Full/MotorControl/MCSDK/MCLib/Any/Src/sto_pll_speed_pos_fdbk.c **** __weak void STO_GetPLLGains(STO_PLL_Handle_t *pHandle, int16_t *pPgain, int16_t *pIgain)
 968:MCSDK_v6.3.2-Full/MotorControl/MCSDK/MCLib/Any/Src/sto_pll_speed_pos_fdbk.c **** {
 1677              		.loc 1 968 1 is_stmt 1 view -0
 1678              		.cfi_startproc
 1679              		@ args = 0, pretend = 0, frame = 0
 1680              		@ frame_needed = 0, uses_anonymous_args = 0
 969:MCSDK_v6.3.2-Full/MotorControl/MCSDK/MCLib/Any/Src/sto_pll_speed_pos_fdbk.c **** #ifdef NULL_PTR_CHECK_STO_PLL_SPD_POS_FDB
 970:MCSDK_v6.3.2-Full/MotorControl/MCSDK/MCLib/Any/Src/sto_pll_speed_pos_fdbk.c ****   if ((MC_NULL == pHandle) || (MC_NULL == pPgain) || (MC_NULL == pIgain))
 971:MCSDK_v6.3.2-Full/MotorControl/MCSDK/MCLib/Any/Src/sto_pll_speed_pos_fdbk.c ****   {
 972:MCSDK_v6.3.2-Full/MotorControl/MCSDK/MCLib/Any/Src/sto_pll_speed_pos_fdbk.c ****     /* Nothing to do */
 973:MCSDK_v6.3.2-Full/MotorControl/MCSDK/MCLib/Any/Src/sto_pll_speed_pos_fdbk.c ****   }
 974:MCSDK_v6.3.2-Full/MotorControl/MCSDK/MCLib/Any/Src/sto_pll_speed_pos_fdbk.c ****   else
 975:MCSDK_v6.3.2-Full/MotorControl/MCSDK/MCLib/Any/Src/sto_pll_speed_pos_fdbk.c ****   {
 976:MCSDK_v6.3.2-Full/MotorControl/MCSDK/MCLib/Any/Src/sto_pll_speed_pos_fdbk.c **** #endif
 977:MCSDK_v6.3.2-Full/MotorControl/MCSDK/MCLib/Any/Src/sto_pll_speed_pos_fdbk.c ****     *pPgain = PID_GetKP(& pHandle->PIRegulator);
 1681              		.loc 1 977 5 view .LVU686
 968:MCSDK_v6.3.2-Full/MotorControl/MCSDK/MCLib/Any/Src/sto_pll_speed_pos_fdbk.c **** #ifdef NULL_PTR_CHECK_STO_PLL_SPD_POS_FDB
 1682              		.loc 1 968 1 is_stmt 0 view .LVU687
 1683 0000 70B5     		push	{r4, r5, r6, lr}
 1684              	.LCFI18:
 1685              		.cfi_def_cfa_offset 16
 1686              		.cfi_offset 4, -16
 1687              		.cfi_offset 5, -12
 1688              		.cfi_offset 6, -8
 1689              		.cfi_offset 14, -4
 1690              		.loc 1 977 15 view .LVU688
 1691 0002 00F13404 		add	r4, r0, #52
 1692 0006 2046     		mov	r0, r4
 1693              	.LVL147:
 968:MCSDK_v6.3.2-Full/MotorControl/MCSDK/MCLib/Any/Src/sto_pll_speed_pos_fdbk.c **** #ifdef NULL_PTR_CHECK_STO_PLL_SPD_POS_FDB
 1694              		.loc 1 968 1 view .LVU689
 1695 0008 0E46     		mov	r6, r1
 1696 000a 1546     		mov	r5, r2
 1697              		.loc 1 977 15 view .LVU690
 1698 000c FFF7FEFF 		bl	PID_GetKP
 1699              	.LVL148:
 1700              		.loc 1 977 13 view .LVU691
 1701 0010 3080     		strh	r0, [r6]	@ movhi
 978:MCSDK_v6.3.2-Full/MotorControl/MCSDK/MCLib/Any/Src/sto_pll_speed_pos_fdbk.c ****     *pIgain = PID_GetKI(& pHandle->PIRegulator);
 1702              		.loc 1 978 5 is_stmt 1 view .LVU692
 1703              		.loc 1 978 15 is_stmt 0 view .LVU693
 1704 0012 2046     		mov	r0, r4
 1705 0014 FFF7FEFF 		bl	PID_GetKI
 1706              	.LVL149:
 1707              		.loc 1 978 13 view .LVU694
 1708 0018 2880     		strh	r0, [r5]	@ movhi
 979:MCSDK_v6.3.2-Full/MotorControl/MCSDK/MCLib/Any/Src/sto_pll_speed_pos_fdbk.c **** #ifdef NULL_PTR_CHECK_STO_PLL_SPD_POS_FDB
 980:MCSDK_v6.3.2-Full/MotorControl/MCSDK/MCLib/Any/Src/sto_pll_speed_pos_fdbk.c ****   }
 981:MCSDK_v6.3.2-Full/MotorControl/MCSDK/MCLib/Any/Src/sto_pll_speed_pos_fdbk.c **** #endif
 982:MCSDK_v6.3.2-Full/MotorControl/MCSDK/MCLib/Any/Src/sto_pll_speed_pos_fdbk.c **** }
 1709              		.loc 1 982 1 view .LVU695
 1710 001a 70BD     		pop	{r4, r5, r6, pc}
 1711              		.loc 1 982 1 view .LVU696
 1712              		.cfi_endproc
 1713              	.LFE1462:
 1715              		.section	.text.STO_PLL_SetMecAngle,"ax",%progbits
ARM GAS  /tmp/ccaxKBZ0.s 			page 57


 1716              		.align	1
 1717              		.p2align 2,,3
 1718              		.weak	STO_PLL_SetMecAngle
 1719              		.syntax unified
 1720              		.thumb
 1721              		.thumb_func
 1722              		.fpu fpv4-sp-d16
 1724              	STO_PLL_SetMecAngle:
 1725              	.LVL150:
 1726              	.LFB1463:
 983:MCSDK_v6.3.2-Full/MotorControl/MCSDK/MCLib/Any/Src/sto_pll_speed_pos_fdbk.c **** 
 984:MCSDK_v6.3.2-Full/MotorControl/MCSDK/MCLib/Any/Src/sto_pll_speed_pos_fdbk.c **** /**
 985:MCSDK_v6.3.2-Full/MotorControl/MCSDK/MCLib/Any/Src/sto_pll_speed_pos_fdbk.c ****   * @brief  Empty function. Could be declared to set instantaneous information on rotor mechanical 
 986:MCSDK_v6.3.2-Full/MotorControl/MCSDK/MCLib/Any/Src/sto_pll_speed_pos_fdbk.c ****   * 
 987:MCSDK_v6.3.2-Full/MotorControl/MCSDK/MCLib/Any/Src/sto_pll_speed_pos_fdbk.c ****   * Note: Mechanical angle management is not implemented in this
 988:MCSDK_v6.3.2-Full/MotorControl/MCSDK/MCLib/Any/Src/sto_pll_speed_pos_fdbk.c ****   * version of State observer sensor class.
 989:MCSDK_v6.3.2-Full/MotorControl/MCSDK/MCLib/Any/Src/sto_pll_speed_pos_fdbk.c ****   * 
 990:MCSDK_v6.3.2-Full/MotorControl/MCSDK/MCLib/Any/Src/sto_pll_speed_pos_fdbk.c ****   * @param  pHandle: Handler of the current instance of the STO component.
 991:MCSDK_v6.3.2-Full/MotorControl/MCSDK/MCLib/Any/Src/sto_pll_speed_pos_fdbk.c ****   * @param  hMecAngle: Instantaneous measure of rotor mechanical angle.
 992:MCSDK_v6.3.2-Full/MotorControl/MCSDK/MCLib/Any/Src/sto_pll_speed_pos_fdbk.c ****   */
 993:MCSDK_v6.3.2-Full/MotorControl/MCSDK/MCLib/Any/Src/sto_pll_speed_pos_fdbk.c **** //cstat !MISRAC2012-Rule-8.13 !RED-func-no-effect
 994:MCSDK_v6.3.2-Full/MotorControl/MCSDK/MCLib/Any/Src/sto_pll_speed_pos_fdbk.c **** __weak void STO_PLL_SetMecAngle(STO_PLL_Handle_t *pHandle, int16_t hMecAngle)
 995:MCSDK_v6.3.2-Full/MotorControl/MCSDK/MCLib/Any/Src/sto_pll_speed_pos_fdbk.c **** {
 1727              		.loc 1 995 1 is_stmt 1 view -0
 1728              		.cfi_startproc
 1729              		@ args = 0, pretend = 0, frame = 0
 1730              		@ frame_needed = 0, uses_anonymous_args = 0
 1731              		@ link register save eliminated.
 996:MCSDK_v6.3.2-Full/MotorControl/MCSDK/MCLib/Any/Src/sto_pll_speed_pos_fdbk.c **** #ifdef NULL_PTR_CHECK_STO_PLL_SPD_POS_FDB
 997:MCSDK_v6.3.2-Full/MotorControl/MCSDK/MCLib/Any/Src/sto_pll_speed_pos_fdbk.c ****   if ((MC_NULL == (void *)pHandle) || ((int16_t)0 == hMecAngle))
 998:MCSDK_v6.3.2-Full/MotorControl/MCSDK/MCLib/Any/Src/sto_pll_speed_pos_fdbk.c ****   {
 999:MCSDK_v6.3.2-Full/MotorControl/MCSDK/MCLib/Any/Src/sto_pll_speed_pos_fdbk.c ****     /* Nothing to do */
1000:MCSDK_v6.3.2-Full/MotorControl/MCSDK/MCLib/Any/Src/sto_pll_speed_pos_fdbk.c ****   }
1001:MCSDK_v6.3.2-Full/MotorControl/MCSDK/MCLib/Any/Src/sto_pll_speed_pos_fdbk.c ****   else
1002:MCSDK_v6.3.2-Full/MotorControl/MCSDK/MCLib/Any/Src/sto_pll_speed_pos_fdbk.c ****   {
1003:MCSDK_v6.3.2-Full/MotorControl/MCSDK/MCLib/Any/Src/sto_pll_speed_pos_fdbk.c ****     /* nothing to do */
1004:MCSDK_v6.3.2-Full/MotorControl/MCSDK/MCLib/Any/Src/sto_pll_speed_pos_fdbk.c ****   }
1005:MCSDK_v6.3.2-Full/MotorControl/MCSDK/MCLib/Any/Src/sto_pll_speed_pos_fdbk.c **** #endif
1006:MCSDK_v6.3.2-Full/MotorControl/MCSDK/MCLib/Any/Src/sto_pll_speed_pos_fdbk.c **** }
 1732              		.loc 1 1006 1 view .LVU698
 1733 0000 7047     		bx	lr
 1734              		.cfi_endproc
 1735              	.LFE1463:
 1737 0002 00BF     		.section	.text.STO_OTF_ResetPLL,"ax",%progbits
 1738              		.align	1
 1739              		.p2align 2,,3
 1740              		.weak	STO_OTF_ResetPLL
 1741              		.syntax unified
 1742              		.thumb
 1743              		.thumb_func
 1744              		.fpu fpv4-sp-d16
 1746              	STO_OTF_ResetPLL:
 1747              	.LVL151:
 1748              	.LFB1464:
1007:MCSDK_v6.3.2-Full/MotorControl/MCSDK/MCLib/Any/Src/sto_pll_speed_pos_fdbk.c **** 
1008:MCSDK_v6.3.2-Full/MotorControl/MCSDK/MCLib/Any/Src/sto_pll_speed_pos_fdbk.c **** /**
1009:MCSDK_v6.3.2-Full/MotorControl/MCSDK/MCLib/Any/Src/sto_pll_speed_pos_fdbk.c ****   * @brief  Resets the PLL integral term during on-the-fly startup.
ARM GAS  /tmp/ccaxKBZ0.s 			page 58


1010:MCSDK_v6.3.2-Full/MotorControl/MCSDK/MCLib/Any/Src/sto_pll_speed_pos_fdbk.c ****   * 
1011:MCSDK_v6.3.2-Full/MotorControl/MCSDK/MCLib/Any/Src/sto_pll_speed_pos_fdbk.c ****   * @param  pHandle: Handler of the current instance of the STO component.
1012:MCSDK_v6.3.2-Full/MotorControl/MCSDK/MCLib/Any/Src/sto_pll_speed_pos_fdbk.c ****   */
1013:MCSDK_v6.3.2-Full/MotorControl/MCSDK/MCLib/Any/Src/sto_pll_speed_pos_fdbk.c **** __weak void STO_OTF_ResetPLL(STO_Handle_t * pHandle)
1014:MCSDK_v6.3.2-Full/MotorControl/MCSDK/MCLib/Any/Src/sto_pll_speed_pos_fdbk.c **** {
 1749              		.loc 1 1014 1 view -0
 1750              		.cfi_startproc
 1751              		@ args = 0, pretend = 0, frame = 0
 1752              		@ frame_needed = 0, uses_anonymous_args = 0
 1753              		@ link register save eliminated.
1015:MCSDK_v6.3.2-Full/MotorControl/MCSDK/MCLib/Any/Src/sto_pll_speed_pos_fdbk.c **** #ifdef NULL_PTR_CHECK_STO_PLL_SPD_POS_FDB
1016:MCSDK_v6.3.2-Full/MotorControl/MCSDK/MCLib/Any/Src/sto_pll_speed_pos_fdbk.c ****   if (MC_NULL == pHandle)
1017:MCSDK_v6.3.2-Full/MotorControl/MCSDK/MCLib/Any/Src/sto_pll_speed_pos_fdbk.c ****   {
1018:MCSDK_v6.3.2-Full/MotorControl/MCSDK/MCLib/Any/Src/sto_pll_speed_pos_fdbk.c ****     /* Nothing to do */
1019:MCSDK_v6.3.2-Full/MotorControl/MCSDK/MCLib/Any/Src/sto_pll_speed_pos_fdbk.c ****   }
1020:MCSDK_v6.3.2-Full/MotorControl/MCSDK/MCLib/Any/Src/sto_pll_speed_pos_fdbk.c ****   else
1021:MCSDK_v6.3.2-Full/MotorControl/MCSDK/MCLib/Any/Src/sto_pll_speed_pos_fdbk.c ****   {
1022:MCSDK_v6.3.2-Full/MotorControl/MCSDK/MCLib/Any/Src/sto_pll_speed_pos_fdbk.c **** #endif
1023:MCSDK_v6.3.2-Full/MotorControl/MCSDK/MCLib/Any/Src/sto_pll_speed_pos_fdbk.c ****     STO_PLL_Handle_t *pHdl = (STO_PLL_Handle_t *)pHandle->_Super; //cstat !MISRAC2012-Rule-11.3
 1754              		.loc 1 1023 5 view .LVU700
1024:MCSDK_v6.3.2-Full/MotorControl/MCSDK/MCLib/Any/Src/sto_pll_speed_pos_fdbk.c ****     PID_SetIntegralTerm(&pHdl->PIRegulator, (int32_t)0);
 1755              		.loc 1 1024 5 view .LVU701
 1756 0000 0068     		ldr	r0, [r0]
 1757              	.LVL152:
 1758              		.loc 1 1024 5 is_stmt 0 view .LVU702
 1759 0002 0021     		movs	r1, #0
 1760 0004 3430     		adds	r0, r0, #52
 1761              	.LVL153:
 1762              		.loc 1 1024 5 view .LVU703
 1763 0006 FFF7FEBF 		b	PID_SetIntegralTerm
 1764              	.LVL154:
 1765              		.loc 1 1024 5 view .LVU704
 1766              		.cfi_endproc
 1767              	.LFE1464:
 1769 000a 00BF     		.section	.text.STO_PLL_BemfConsistencyCheckSwitch,"ax",%progbits
 1770              		.align	1
 1771              		.p2align 2,,3
 1772              		.weak	STO_PLL_BemfConsistencyCheckSwitch
 1773              		.syntax unified
 1774              		.thumb
 1775              		.thumb_func
 1776              		.fpu fpv4-sp-d16
 1778              	STO_PLL_BemfConsistencyCheckSwitch:
 1779              	.LVL155:
 1780              	.LFB1465:
1025:MCSDK_v6.3.2-Full/MotorControl/MCSDK/MCLib/Any/Src/sto_pll_speed_pos_fdbk.c **** #ifdef NULL_PTR_CHECK_STO_PLL_SPD_POS_FDB
1026:MCSDK_v6.3.2-Full/MotorControl/MCSDK/MCLib/Any/Src/sto_pll_speed_pos_fdbk.c ****   }
1027:MCSDK_v6.3.2-Full/MotorControl/MCSDK/MCLib/Any/Src/sto_pll_speed_pos_fdbk.c **** #endif
1028:MCSDK_v6.3.2-Full/MotorControl/MCSDK/MCLib/Any/Src/sto_pll_speed_pos_fdbk.c **** }
1029:MCSDK_v6.3.2-Full/MotorControl/MCSDK/MCLib/Any/Src/sto_pll_speed_pos_fdbk.c **** 
1030:MCSDK_v6.3.2-Full/MotorControl/MCSDK/MCLib/Any/Src/sto_pll_speed_pos_fdbk.c **** /**
1031:MCSDK_v6.3.2-Full/MotorControl/MCSDK/MCLib/Any/Src/sto_pll_speed_pos_fdbk.c ****   * @brief  Enables/Disables additional reliability check based on observed Bemf.
1032:MCSDK_v6.3.2-Full/MotorControl/MCSDK/MCLib/Any/Src/sto_pll_speed_pos_fdbk.c ****   * 
1033:MCSDK_v6.3.2-Full/MotorControl/MCSDK/MCLib/Any/Src/sto_pll_speed_pos_fdbk.c ****   * @param  pHandle: Handler of the current instance of the STO component.
1034:MCSDK_v6.3.2-Full/MotorControl/MCSDK/MCLib/Any/Src/sto_pll_speed_pos_fdbk.c ****   * @param  bSel Enable/Disable check.
1035:MCSDK_v6.3.2-Full/MotorControl/MCSDK/MCLib/Any/Src/sto_pll_speed_pos_fdbk.c ****   */
1036:MCSDK_v6.3.2-Full/MotorControl/MCSDK/MCLib/Any/Src/sto_pll_speed_pos_fdbk.c **** __weak void STO_PLL_BemfConsistencyCheckSwitch(STO_PLL_Handle_t *pHandle, bool bSel)
ARM GAS  /tmp/ccaxKBZ0.s 			page 59


1037:MCSDK_v6.3.2-Full/MotorControl/MCSDK/MCLib/Any/Src/sto_pll_speed_pos_fdbk.c **** {
 1781              		.loc 1 1037 1 is_stmt 1 view -0
 1782              		.cfi_startproc
 1783              		@ args = 0, pretend = 0, frame = 0
 1784              		@ frame_needed = 0, uses_anonymous_args = 0
 1785              		@ link register save eliminated.
1038:MCSDK_v6.3.2-Full/MotorControl/MCSDK/MCLib/Any/Src/sto_pll_speed_pos_fdbk.c **** #ifdef NULL_PTR_CHECK_STO_PLL_SPD_POS_FDB
1039:MCSDK_v6.3.2-Full/MotorControl/MCSDK/MCLib/Any/Src/sto_pll_speed_pos_fdbk.c ****   if (MC_NULL == pHandle)
1040:MCSDK_v6.3.2-Full/MotorControl/MCSDK/MCLib/Any/Src/sto_pll_speed_pos_fdbk.c ****   {
1041:MCSDK_v6.3.2-Full/MotorControl/MCSDK/MCLib/Any/Src/sto_pll_speed_pos_fdbk.c ****     /* Nothing to do */
1042:MCSDK_v6.3.2-Full/MotorControl/MCSDK/MCLib/Any/Src/sto_pll_speed_pos_fdbk.c ****   }
1043:MCSDK_v6.3.2-Full/MotorControl/MCSDK/MCLib/Any/Src/sto_pll_speed_pos_fdbk.c ****   else
1044:MCSDK_v6.3.2-Full/MotorControl/MCSDK/MCLib/Any/Src/sto_pll_speed_pos_fdbk.c ****   {
1045:MCSDK_v6.3.2-Full/MotorControl/MCSDK/MCLib/Any/Src/sto_pll_speed_pos_fdbk.c **** #endif
1046:MCSDK_v6.3.2-Full/MotorControl/MCSDK/MCLib/Any/Src/sto_pll_speed_pos_fdbk.c ****     pHandle->EnableDualCheck = bSel;
 1786              		.loc 1 1046 5 view .LVU706
 1787              		.loc 1 1046 30 is_stmt 0 view .LVU707
 1788 0000 80F80411 		strb	r1, [r0, #260]
1047:MCSDK_v6.3.2-Full/MotorControl/MCSDK/MCLib/Any/Src/sto_pll_speed_pos_fdbk.c **** #ifdef NULL_PTR_CHECK_STO_PLL_SPD_POS_FDB
1048:MCSDK_v6.3.2-Full/MotorControl/MCSDK/MCLib/Any/Src/sto_pll_speed_pos_fdbk.c ****   }
1049:MCSDK_v6.3.2-Full/MotorControl/MCSDK/MCLib/Any/Src/sto_pll_speed_pos_fdbk.c **** #endif
1050:MCSDK_v6.3.2-Full/MotorControl/MCSDK/MCLib/Any/Src/sto_pll_speed_pos_fdbk.c **** }
 1789              		.loc 1 1050 1 view .LVU708
 1790 0004 7047     		bx	lr
 1791              		.cfi_endproc
 1792              	.LFE1465:
 1794 0006 00BF     		.section	.text.STO_PLL_IsBemfConsistent,"ax",%progbits
 1795              		.align	1
 1796              		.p2align 2,,3
 1797              		.weak	STO_PLL_IsBemfConsistent
 1798              		.syntax unified
 1799              		.thumb
 1800              		.thumb_func
 1801              		.fpu fpv4-sp-d16
 1803              	STO_PLL_IsBemfConsistent:
 1804              	.LVL156:
 1805              	.LFB1466:
1051:MCSDK_v6.3.2-Full/MotorControl/MCSDK/MCLib/Any/Src/sto_pll_speed_pos_fdbk.c **** 
1052:MCSDK_v6.3.2-Full/MotorControl/MCSDK/MCLib/Any/Src/sto_pll_speed_pos_fdbk.c **** /**
1053:MCSDK_v6.3.2-Full/MotorControl/MCSDK/MCLib/Any/Src/sto_pll_speed_pos_fdbk.c ****   * @brief  Checks if the Bemf is consistent.
1054:MCSDK_v6.3.2-Full/MotorControl/MCSDK/MCLib/Any/Src/sto_pll_speed_pos_fdbk.c ****   * 
1055:MCSDK_v6.3.2-Full/MotorControl/MCSDK/MCLib/Any/Src/sto_pll_speed_pos_fdbk.c ****   * @param  pHandle: Handler of the current instance of the STO component.
1056:MCSDK_v6.3.2-Full/MotorControl/MCSDK/MCLib/Any/Src/sto_pll_speed_pos_fdbk.c ****   * @retval bool True when observed Bemfs are consistent with expectation, false otherwise.
1057:MCSDK_v6.3.2-Full/MotorControl/MCSDK/MCLib/Any/Src/sto_pll_speed_pos_fdbk.c ****   */
1058:MCSDK_v6.3.2-Full/MotorControl/MCSDK/MCLib/Any/Src/sto_pll_speed_pos_fdbk.c **** __weak bool STO_PLL_IsBemfConsistent(STO_PLL_Handle_t *pHandle)
1059:MCSDK_v6.3.2-Full/MotorControl/MCSDK/MCLib/Any/Src/sto_pll_speed_pos_fdbk.c **** {
 1806              		.loc 1 1059 1 is_stmt 1 view -0
 1807              		.cfi_startproc
 1808              		@ args = 0, pretend = 0, frame = 0
 1809              		@ frame_needed = 0, uses_anonymous_args = 0
 1810              		@ link register save eliminated.
1060:MCSDK_v6.3.2-Full/MotorControl/MCSDK/MCLib/Any/Src/sto_pll_speed_pos_fdbk.c **** #ifdef NULL_PTR_CHECK_STO_PLL_SPD_POS_FDB
1061:MCSDK_v6.3.2-Full/MotorControl/MCSDK/MCLib/Any/Src/sto_pll_speed_pos_fdbk.c ****   return ((MC_NULL == pHandle) ? false : pHandle->IsBemfConsistent);
1062:MCSDK_v6.3.2-Full/MotorControl/MCSDK/MCLib/Any/Src/sto_pll_speed_pos_fdbk.c **** #else
1063:MCSDK_v6.3.2-Full/MotorControl/MCSDK/MCLib/Any/Src/sto_pll_speed_pos_fdbk.c ****   return (pHandle->IsBemfConsistent);
 1811              		.loc 1 1063 3 view .LVU710
1064:MCSDK_v6.3.2-Full/MotorControl/MCSDK/MCLib/Any/Src/sto_pll_speed_pos_fdbk.c **** #endif
ARM GAS  /tmp/ccaxKBZ0.s 			page 60


1065:MCSDK_v6.3.2-Full/MotorControl/MCSDK/MCLib/Any/Src/sto_pll_speed_pos_fdbk.c **** }
 1812              		.loc 1 1065 1 is_stmt 0 view .LVU711
 1813 0000 90F8F900 		ldrb	r0, [r0, #249]	@ zero_extendqisi2
 1814              	.LVL157:
 1815              		.loc 1 1065 1 view .LVU712
 1816 0004 7047     		bx	lr
 1817              		.cfi_endproc
 1818              	.LFE1466:
 1820 0006 00BF     		.section	.text.STO_PLL_IsVarianceTight,"ax",%progbits
 1821              		.align	1
 1822              		.p2align 2,,3
 1823              		.weak	STO_PLL_IsVarianceTight
 1824              		.syntax unified
 1825              		.thumb
 1826              		.thumb_func
 1827              		.fpu fpv4-sp-d16
 1829              	STO_PLL_IsVarianceTight:
 1830              	.LVL158:
 1831              	.LFB1467:
1066:MCSDK_v6.3.2-Full/MotorControl/MCSDK/MCLib/Any/Src/sto_pll_speed_pos_fdbk.c **** 
1067:MCSDK_v6.3.2-Full/MotorControl/MCSDK/MCLib/Any/Src/sto_pll_speed_pos_fdbk.c **** /**
1068:MCSDK_v6.3.2-Full/MotorControl/MCSDK/MCLib/Any/Src/sto_pll_speed_pos_fdbk.c ****   * @brief  Checks the value of the variance.
1069:MCSDK_v6.3.2-Full/MotorControl/MCSDK/MCLib/Any/Src/sto_pll_speed_pos_fdbk.c ****   * 
1070:MCSDK_v6.3.2-Full/MotorControl/MCSDK/MCLib/Any/Src/sto_pll_speed_pos_fdbk.c ****   * @param  pHandle: Handler of the current instance of the STO component.
1071:MCSDK_v6.3.2-Full/MotorControl/MCSDK/MCLib/Any/Src/sto_pll_speed_pos_fdbk.c ****   * @retval bool True if the speed measurement variance is lower than threshold VariancePercentage,
1072:MCSDK_v6.3.2-Full/MotorControl/MCSDK/MCLib/Any/Src/sto_pll_speed_pos_fdbk.c ****   */
1073:MCSDK_v6.3.2-Full/MotorControl/MCSDK/MCLib/Any/Src/sto_pll_speed_pos_fdbk.c **** __weak bool STO_PLL_IsVarianceTight(const STO_Handle_t *pHandle)
1074:MCSDK_v6.3.2-Full/MotorControl/MCSDK/MCLib/Any/Src/sto_pll_speed_pos_fdbk.c **** {
 1832              		.loc 1 1074 1 is_stmt 1 view -0
 1833              		.cfi_startproc
 1834              		@ args = 0, pretend = 0, frame = 0
 1835              		@ frame_needed = 0, uses_anonymous_args = 0
 1836              		@ link register save eliminated.
1075:MCSDK_v6.3.2-Full/MotorControl/MCSDK/MCLib/Any/Src/sto_pll_speed_pos_fdbk.c ****   bool tempStatus;
 1837              		.loc 1 1075 3 view .LVU714
1076:MCSDK_v6.3.2-Full/MotorControl/MCSDK/MCLib/Any/Src/sto_pll_speed_pos_fdbk.c **** #ifdef NULL_PTR_CHECK_STO_PLL_SPD_POS_FDB
1077:MCSDK_v6.3.2-Full/MotorControl/MCSDK/MCLib/Any/Src/sto_pll_speed_pos_fdbk.c ****   if (MC_NULL == pHandle)
1078:MCSDK_v6.3.2-Full/MotorControl/MCSDK/MCLib/Any/Src/sto_pll_speed_pos_fdbk.c ****   {
1079:MCSDK_v6.3.2-Full/MotorControl/MCSDK/MCLib/Any/Src/sto_pll_speed_pos_fdbk.c ****     tempStatus = false;
1080:MCSDK_v6.3.2-Full/MotorControl/MCSDK/MCLib/Any/Src/sto_pll_speed_pos_fdbk.c ****   }
1081:MCSDK_v6.3.2-Full/MotorControl/MCSDK/MCLib/Any/Src/sto_pll_speed_pos_fdbk.c ****   else
1082:MCSDK_v6.3.2-Full/MotorControl/MCSDK/MCLib/Any/Src/sto_pll_speed_pos_fdbk.c ****   {
1083:MCSDK_v6.3.2-Full/MotorControl/MCSDK/MCLib/Any/Src/sto_pll_speed_pos_fdbk.c **** #endif
1084:MCSDK_v6.3.2-Full/MotorControl/MCSDK/MCLib/Any/Src/sto_pll_speed_pos_fdbk.c ****     const STO_PLL_Handle_t *pHdl = (STO_PLL_Handle_t *)pHandle->_Super; //cstat !MISRAC2012-Rule-11
 1838              		.loc 1 1084 5 view .LVU715
1085:MCSDK_v6.3.2-Full/MotorControl/MCSDK/MCLib/Any/Src/sto_pll_speed_pos_fdbk.c ****     tempStatus = pHdl->IsSpeedReliable;
 1839              		.loc 1 1085 5 view .LVU716
1086:MCSDK_v6.3.2-Full/MotorControl/MCSDK/MCLib/Any/Src/sto_pll_speed_pos_fdbk.c **** #ifdef NULL_PTR_CHECK_STO_PLL_SPD_POS_FDB
1087:MCSDK_v6.3.2-Full/MotorControl/MCSDK/MCLib/Any/Src/sto_pll_speed_pos_fdbk.c ****   }
1088:MCSDK_v6.3.2-Full/MotorControl/MCSDK/MCLib/Any/Src/sto_pll_speed_pos_fdbk.c **** #endif
1089:MCSDK_v6.3.2-Full/MotorControl/MCSDK/MCLib/Any/Src/sto_pll_speed_pos_fdbk.c ****   return (tempStatus);
 1840              		.loc 1 1089 3 view .LVU717
1085:MCSDK_v6.3.2-Full/MotorControl/MCSDK/MCLib/Any/Src/sto_pll_speed_pos_fdbk.c ****     tempStatus = pHdl->IsSpeedReliable;
 1841              		.loc 1 1085 16 is_stmt 0 view .LVU718
 1842 0000 0368     		ldr	r3, [r0]
1090:MCSDK_v6.3.2-Full/MotorControl/MCSDK/MCLib/Any/Src/sto_pll_speed_pos_fdbk.c **** }
 1843              		.loc 1 1090 1 view .LVU719
ARM GAS  /tmp/ccaxKBZ0.s 			page 61


 1844 0002 93F8F500 		ldrb	r0, [r3, #245]	@ zero_extendqisi2
 1845              	.LVL159:
 1846              		.loc 1 1090 1 view .LVU720
 1847 0006 7047     		bx	lr
 1848              		.cfi_endproc
 1849              	.LFE1467:
 1851              		.section	.text.STO_PLL_ForceConvergency1,"ax",%progbits
 1852              		.align	1
 1853              		.p2align 2,,3
 1854              		.weak	STO_PLL_ForceConvergency1
 1855              		.syntax unified
 1856              		.thumb
 1857              		.thumb_func
 1858              		.fpu fpv4-sp-d16
 1860              	STO_PLL_ForceConvergency1:
 1861              	.LVL160:
 1862              	.LFB1468:
1091:MCSDK_v6.3.2-Full/MotorControl/MCSDK/MCLib/Any/Src/sto_pll_speed_pos_fdbk.c **** 
1092:MCSDK_v6.3.2-Full/MotorControl/MCSDK/MCLib/Any/Src/sto_pll_speed_pos_fdbk.c **** /**
1093:MCSDK_v6.3.2-Full/MotorControl/MCSDK/MCLib/Any/Src/sto_pll_speed_pos_fdbk.c ****   * @brief  Forces the state-observer to declare convergency.
1094:MCSDK_v6.3.2-Full/MotorControl/MCSDK/MCLib/Any/Src/sto_pll_speed_pos_fdbk.c ****   * 
1095:MCSDK_v6.3.2-Full/MotorControl/MCSDK/MCLib/Any/Src/sto_pll_speed_pos_fdbk.c ****   * @param  pHandle: Handler of the current instance of the STO component.
1096:MCSDK_v6.3.2-Full/MotorControl/MCSDK/MCLib/Any/Src/sto_pll_speed_pos_fdbk.c ****   */
1097:MCSDK_v6.3.2-Full/MotorControl/MCSDK/MCLib/Any/Src/sto_pll_speed_pos_fdbk.c **** __weak void STO_PLL_ForceConvergency1(STO_Handle_t *pHandle)
1098:MCSDK_v6.3.2-Full/MotorControl/MCSDK/MCLib/Any/Src/sto_pll_speed_pos_fdbk.c **** {
 1863              		.loc 1 1098 1 is_stmt 1 view -0
 1864              		.cfi_startproc
 1865              		@ args = 0, pretend = 0, frame = 0
 1866              		@ frame_needed = 0, uses_anonymous_args = 0
 1867              		@ link register save eliminated.
1099:MCSDK_v6.3.2-Full/MotorControl/MCSDK/MCLib/Any/Src/sto_pll_speed_pos_fdbk.c **** #ifdef NULL_PTR_CHECK_STO_PLL_SPD_POS_FDB
1100:MCSDK_v6.3.2-Full/MotorControl/MCSDK/MCLib/Any/Src/sto_pll_speed_pos_fdbk.c ****   if (MC_NULL == pHandle)
1101:MCSDK_v6.3.2-Full/MotorControl/MCSDK/MCLib/Any/Src/sto_pll_speed_pos_fdbk.c ****   {
1102:MCSDK_v6.3.2-Full/MotorControl/MCSDK/MCLib/Any/Src/sto_pll_speed_pos_fdbk.c ****     /* Nothing to do */
1103:MCSDK_v6.3.2-Full/MotorControl/MCSDK/MCLib/Any/Src/sto_pll_speed_pos_fdbk.c ****   }
1104:MCSDK_v6.3.2-Full/MotorControl/MCSDK/MCLib/Any/Src/sto_pll_speed_pos_fdbk.c ****   else
1105:MCSDK_v6.3.2-Full/MotorControl/MCSDK/MCLib/Any/Src/sto_pll_speed_pos_fdbk.c ****   {
1106:MCSDK_v6.3.2-Full/MotorControl/MCSDK/MCLib/Any/Src/sto_pll_speed_pos_fdbk.c **** #endif
1107:MCSDK_v6.3.2-Full/MotorControl/MCSDK/MCLib/Any/Src/sto_pll_speed_pos_fdbk.c ****     STO_PLL_Handle_t *pHdl = (STO_PLL_Handle_t *)pHandle->_Super; //cstat !MISRAC2012-Rule-11.3
 1868              		.loc 1 1107 5 view .LVU722
1108:MCSDK_v6.3.2-Full/MotorControl/MCSDK/MCLib/Any/Src/sto_pll_speed_pos_fdbk.c ****     pHdl->ForceConvergency = true;
 1869              		.loc 1 1108 5 view .LVU723
 1870              		.loc 1 1108 28 is_stmt 0 view .LVU724
 1871 0000 0368     		ldr	r3, [r0]
 1872 0002 0122     		movs	r2, #1
 1873 0004 83F82221 		strb	r2, [r3, #290]
1109:MCSDK_v6.3.2-Full/MotorControl/MCSDK/MCLib/Any/Src/sto_pll_speed_pos_fdbk.c **** #ifdef NULL_PTR_CHECK_STO_PLL_SPD_POS_FDB
1110:MCSDK_v6.3.2-Full/MotorControl/MCSDK/MCLib/Any/Src/sto_pll_speed_pos_fdbk.c ****   }
1111:MCSDK_v6.3.2-Full/MotorControl/MCSDK/MCLib/Any/Src/sto_pll_speed_pos_fdbk.c **** #endif
1112:MCSDK_v6.3.2-Full/MotorControl/MCSDK/MCLib/Any/Src/sto_pll_speed_pos_fdbk.c **** }
 1874              		.loc 1 1112 1 view .LVU725
 1875 0008 7047     		bx	lr
 1876              		.cfi_endproc
 1877              	.LFE1468:
 1879 000a 00BF     		.section	.text.STO_PLL_ForceConvergency2,"ax",%progbits
 1880              		.align	1
 1881              		.p2align 2,,3
ARM GAS  /tmp/ccaxKBZ0.s 			page 62


 1882              		.weak	STO_PLL_ForceConvergency2
 1883              		.syntax unified
 1884              		.thumb
 1885              		.thumb_func
 1886              		.fpu fpv4-sp-d16
 1888              	STO_PLL_ForceConvergency2:
 1889              	.LVL161:
 1890              	.LFB1469:
1113:MCSDK_v6.3.2-Full/MotorControl/MCSDK/MCLib/Any/Src/sto_pll_speed_pos_fdbk.c **** 
1114:MCSDK_v6.3.2-Full/MotorControl/MCSDK/MCLib/Any/Src/sto_pll_speed_pos_fdbk.c **** /**
1115:MCSDK_v6.3.2-Full/MotorControl/MCSDK/MCLib/Any/Src/sto_pll_speed_pos_fdbk.c ****   * @brief  Forces the state-observer to declare convergency.
1116:MCSDK_v6.3.2-Full/MotorControl/MCSDK/MCLib/Any/Src/sto_pll_speed_pos_fdbk.c ****   * 
1117:MCSDK_v6.3.2-Full/MotorControl/MCSDK/MCLib/Any/Src/sto_pll_speed_pos_fdbk.c ****   * @param  pHandle: Handler of the current instance of the STO component.
1118:MCSDK_v6.3.2-Full/MotorControl/MCSDK/MCLib/Any/Src/sto_pll_speed_pos_fdbk.c ****   */
1119:MCSDK_v6.3.2-Full/MotorControl/MCSDK/MCLib/Any/Src/sto_pll_speed_pos_fdbk.c **** __weak void STO_PLL_ForceConvergency2(STO_Handle_t *pHandle)
1120:MCSDK_v6.3.2-Full/MotorControl/MCSDK/MCLib/Any/Src/sto_pll_speed_pos_fdbk.c **** {
 1891              		.loc 1 1120 1 is_stmt 1 view -0
 1892              		.cfi_startproc
 1893              		@ args = 0, pretend = 0, frame = 0
 1894              		@ frame_needed = 0, uses_anonymous_args = 0
 1895              		@ link register save eliminated.
1121:MCSDK_v6.3.2-Full/MotorControl/MCSDK/MCLib/Any/Src/sto_pll_speed_pos_fdbk.c **** #ifdef NULL_PTR_CHECK_STO_PLL_SPD_POS_FDB
1122:MCSDK_v6.3.2-Full/MotorControl/MCSDK/MCLib/Any/Src/sto_pll_speed_pos_fdbk.c ****   if (MC_NULL == pHandle)
1123:MCSDK_v6.3.2-Full/MotorControl/MCSDK/MCLib/Any/Src/sto_pll_speed_pos_fdbk.c ****   {
1124:MCSDK_v6.3.2-Full/MotorControl/MCSDK/MCLib/Any/Src/sto_pll_speed_pos_fdbk.c ****     /* Nothing to do */
1125:MCSDK_v6.3.2-Full/MotorControl/MCSDK/MCLib/Any/Src/sto_pll_speed_pos_fdbk.c ****   }
1126:MCSDK_v6.3.2-Full/MotorControl/MCSDK/MCLib/Any/Src/sto_pll_speed_pos_fdbk.c ****   else
1127:MCSDK_v6.3.2-Full/MotorControl/MCSDK/MCLib/Any/Src/sto_pll_speed_pos_fdbk.c ****   {
1128:MCSDK_v6.3.2-Full/MotorControl/MCSDK/MCLib/Any/Src/sto_pll_speed_pos_fdbk.c **** #endif
1129:MCSDK_v6.3.2-Full/MotorControl/MCSDK/MCLib/Any/Src/sto_pll_speed_pos_fdbk.c ****     STO_PLL_Handle_t *pHdl = (STO_PLL_Handle_t *)pHandle->_Super; //cstat !MISRAC2012-Rule-11.3
 1896              		.loc 1 1129 5 view .LVU727
1130:MCSDK_v6.3.2-Full/MotorControl/MCSDK/MCLib/Any/Src/sto_pll_speed_pos_fdbk.c ****     pHdl->ForceConvergency2 = true;
 1897              		.loc 1 1130 5 view .LVU728
 1898              		.loc 1 1130 29 is_stmt 0 view .LVU729
 1899 0000 0368     		ldr	r3, [r0]
 1900 0002 0122     		movs	r2, #1
 1901 0004 83F82321 		strb	r2, [r3, #291]
1131:MCSDK_v6.3.2-Full/MotorControl/MCSDK/MCLib/Any/Src/sto_pll_speed_pos_fdbk.c **** #ifdef NULL_PTR_CHECK_STO_PLL_SPD_POS_FDB
1132:MCSDK_v6.3.2-Full/MotorControl/MCSDK/MCLib/Any/Src/sto_pll_speed_pos_fdbk.c ****   }
1133:MCSDK_v6.3.2-Full/MotorControl/MCSDK/MCLib/Any/Src/sto_pll_speed_pos_fdbk.c **** #endif
1134:MCSDK_v6.3.2-Full/MotorControl/MCSDK/MCLib/Any/Src/sto_pll_speed_pos_fdbk.c **** }
 1902              		.loc 1 1134 1 view .LVU730
 1903 0008 7047     		bx	lr
 1904              		.cfi_endproc
 1905              	.LFE1469:
 1907 000a 00BF     		.section	.text.STO_SetDirection,"ax",%progbits
 1908              		.align	1
 1909              		.p2align 2,,3
 1910              		.weak	STO_SetDirection
 1911              		.syntax unified
 1912              		.thumb
 1913              		.thumb_func
 1914              		.fpu fpv4-sp-d16
 1916              	STO_SetDirection:
 1917              	.LVL162:
 1918              	.LFB1470:
1135:MCSDK_v6.3.2-Full/MotorControl/MCSDK/MCLib/Any/Src/sto_pll_speed_pos_fdbk.c **** 
ARM GAS  /tmp/ccaxKBZ0.s 			page 63


1136:MCSDK_v6.3.2-Full/MotorControl/MCSDK/MCLib/Any/Src/sto_pll_speed_pos_fdbk.c **** /**
1137:MCSDK_v6.3.2-Full/MotorControl/MCSDK/MCLib/Any/Src/sto_pll_speed_pos_fdbk.c ****   * @brief  Sets the rotation @p direction in @p pHandle.
1138:MCSDK_v6.3.2-Full/MotorControl/MCSDK/MCLib/Any/Src/sto_pll_speed_pos_fdbk.c ****   */
1139:MCSDK_v6.3.2-Full/MotorControl/MCSDK/MCLib/Any/Src/sto_pll_speed_pos_fdbk.c **** __weak void STO_SetDirection(STO_PLL_Handle_t *pHandle, int8_t direction)
1140:MCSDK_v6.3.2-Full/MotorControl/MCSDK/MCLib/Any/Src/sto_pll_speed_pos_fdbk.c **** {
 1919              		.loc 1 1140 1 is_stmt 1 view -0
 1920              		.cfi_startproc
 1921              		@ args = 0, pretend = 0, frame = 0
 1922              		@ frame_needed = 0, uses_anonymous_args = 0
 1923              		@ link register save eliminated.
1141:MCSDK_v6.3.2-Full/MotorControl/MCSDK/MCLib/Any/Src/sto_pll_speed_pos_fdbk.c **** #ifdef NULL_PTR_CHECK_STO_PLL_SPD_POS_FDB
1142:MCSDK_v6.3.2-Full/MotorControl/MCSDK/MCLib/Any/Src/sto_pll_speed_pos_fdbk.c ****   if (MC_NULL == pHandle)
1143:MCSDK_v6.3.2-Full/MotorControl/MCSDK/MCLib/Any/Src/sto_pll_speed_pos_fdbk.c ****   {
1144:MCSDK_v6.3.2-Full/MotorControl/MCSDK/MCLib/Any/Src/sto_pll_speed_pos_fdbk.c ****     /* Nothing to do */
1145:MCSDK_v6.3.2-Full/MotorControl/MCSDK/MCLib/Any/Src/sto_pll_speed_pos_fdbk.c ****   }
1146:MCSDK_v6.3.2-Full/MotorControl/MCSDK/MCLib/Any/Src/sto_pll_speed_pos_fdbk.c ****   else
1147:MCSDK_v6.3.2-Full/MotorControl/MCSDK/MCLib/Any/Src/sto_pll_speed_pos_fdbk.c ****   {
1148:MCSDK_v6.3.2-Full/MotorControl/MCSDK/MCLib/Any/Src/sto_pll_speed_pos_fdbk.c **** #endif
1149:MCSDK_v6.3.2-Full/MotorControl/MCSDK/MCLib/Any/Src/sto_pll_speed_pos_fdbk.c ****     pHandle->hForcedDirection = direction;
 1924              		.loc 1 1149 5 view .LVU732
 1925              		.loc 1 1149 31 is_stmt 0 view .LVU733
 1926 0000 80F82411 		strb	r1, [r0, #292]
1150:MCSDK_v6.3.2-Full/MotorControl/MCSDK/MCLib/Any/Src/sto_pll_speed_pos_fdbk.c **** #ifdef NULL_PTR_CHECK_STO_PLL_SPD_POS_FDB
1151:MCSDK_v6.3.2-Full/MotorControl/MCSDK/MCLib/Any/Src/sto_pll_speed_pos_fdbk.c ****   }
1152:MCSDK_v6.3.2-Full/MotorControl/MCSDK/MCLib/Any/Src/sto_pll_speed_pos_fdbk.c **** #endif
1153:MCSDK_v6.3.2-Full/MotorControl/MCSDK/MCLib/Any/Src/sto_pll_speed_pos_fdbk.c **** }
 1927              		.loc 1 1153 1 view .LVU734
 1928 0004 7047     		bx	lr
 1929              		.cfi_endproc
 1930              	.LFE1470:
 1932 0006 00BF     		.text
 1933              	.Letext0:
 1934              		.file 2 "/usr/share/gcc-arm-none-eabi-10-2020-q4-major/arm-none-eabi/include/machine/_default_type
 1935              		.file 3 "/usr/share/gcc-arm-none-eabi-10-2020-q4-major/arm-none-eabi/include/sys/_stdint.h"
 1936              		.file 4 "Drivers/STM32G4xx_HAL_Driver/Inc/stm32g4xx_ll_tim.h"
 1937              		.file 5 "Drivers/STM32G4xx_HAL_Driver/Inc/stm32g4xx_ll_usart.h"
 1938              		.file 6 "Drivers/STM32G4xx_HAL_Driver/Inc/stm32g4xx_ll_dma.h"
 1939              		.file 7 "Inc/mc_type.h"
 1940              		.file 8 "MCSDK_v6.3.2-Full/MotorControl/MCSDK/MCLib/Any/Inc/speed_pos_fdbk.h"
 1941              		.file 9 "MCSDK_v6.3.2-Full/MotorControl/MCSDK/MCLib/Any/Inc/sto_speed_pos_fdbk.h"
 1942              		.file 10 "MCSDK_v6.3.2-Full/MotorControl/MCSDK/MCLib/Any/Inc/pid_regulator.h"
 1943              		.file 11 "MCSDK_v6.3.2-Full/MotorControl/MCSDK/MCLib/Any/Inc/sto_pll_speed_pos_fdbk.h"
 1944              		.file 12 "Inc/mc_math.h"
 1945              		.file 13 "<built-in>"
ARM GAS  /tmp/ccaxKBZ0.s 			page 64


DEFINED SYMBOLS
                            *ABS*:0000000000000000 sto_pll_speed_pos_fdbk.c
     /tmp/ccaxKBZ0.s:18     .text.STO_PLL_Return:0000000000000000 $t
     /tmp/ccaxKBZ0.s:27     .text.STO_PLL_Return:0000000000000000 STO_PLL_Return
     /tmp/ccaxKBZ0.s:43     .text.STO_PLL_CalcElAngle:0000000000000000 $t
     /tmp/ccaxKBZ0.s:51     .text.STO_PLL_CalcElAngle:0000000000000000 STO_PLL_CalcElAngle
     /tmp/ccaxKBZ0.s:569    .text.STO_PLL_CalcAvrgMecSpeedUnit:0000000000000000 $t
     /tmp/ccaxKBZ0.s:577    .text.STO_PLL_CalcAvrgMecSpeedUnit:0000000000000000 STO_PLL_CalcAvrgMecSpeedUnit
     /tmp/ccaxKBZ0.s:924    .text.STO_PLL_CalcAvrgElSpeedDpp:0000000000000000 $t
     /tmp/ccaxKBZ0.s:932    .text.STO_PLL_CalcAvrgElSpeedDpp:0000000000000000 STO_PLL_CalcAvrgElSpeedDpp
     /tmp/ccaxKBZ0.s:1045   .text.STO_PLL_Clear:0000000000000000 $t
     /tmp/ccaxKBZ0.s:1053   .text.STO_PLL_Clear:0000000000000000 STO_PLL_Clear
     /tmp/ccaxKBZ0.s:1156   .text.STO_PLL_Init:0000000000000000 $t
     /tmp/ccaxKBZ0.s:1164   .text.STO_PLL_Init:0000000000000000 STO_PLL_Init
     /tmp/ccaxKBZ0.s:1279   .text.STO_PLL_Init:000000000000006c $d
     /tmp/ccaxKBZ0.s:1285   .text.STO_PLL_IsObserverConverged:0000000000000000 $t
     /tmp/ccaxKBZ0.s:1293   .text.STO_PLL_IsObserverConverged:0000000000000000 STO_PLL_IsObserverConverged
     /tmp/ccaxKBZ0.s:1508   .text.STO_PLL_GetEstimatedBemf:0000000000000000 $t
     /tmp/ccaxKBZ0.s:1516   .text.STO_PLL_GetEstimatedBemf:0000000000000000 STO_PLL_GetEstimatedBemf
     /tmp/ccaxKBZ0.s:1552   .text.STO_PLL_GetEstimatedCurrent:0000000000000000 $t
     /tmp/ccaxKBZ0.s:1560   .text.STO_PLL_GetEstimatedCurrent:0000000000000000 STO_PLL_GetEstimatedCurrent
     /tmp/ccaxKBZ0.s:1606   .text.STO_PLL_GetObserverGains:0000000000000000 $t
     /tmp/ccaxKBZ0.s:1614   .text.STO_PLL_GetObserverGains:0000000000000000 STO_PLL_GetObserverGains
     /tmp/ccaxKBZ0.s:1638   .text.STO_PLL_SetObserverGains:0000000000000000 $t
     /tmp/ccaxKBZ0.s:1646   .text.STO_PLL_SetObserverGains:0000000000000000 STO_PLL_SetObserverGains
     /tmp/ccaxKBZ0.s:1666   .text.STO_GetPLLGains:0000000000000000 $t
     /tmp/ccaxKBZ0.s:1674   .text.STO_GetPLLGains:0000000000000000 STO_GetPLLGains
     /tmp/ccaxKBZ0.s:1716   .text.STO_PLL_SetMecAngle:0000000000000000 $t
     /tmp/ccaxKBZ0.s:1724   .text.STO_PLL_SetMecAngle:0000000000000000 STO_PLL_SetMecAngle
     /tmp/ccaxKBZ0.s:1738   .text.STO_OTF_ResetPLL:0000000000000000 $t
     /tmp/ccaxKBZ0.s:1746   .text.STO_OTF_ResetPLL:0000000000000000 STO_OTF_ResetPLL
     /tmp/ccaxKBZ0.s:1770   .text.STO_PLL_BemfConsistencyCheckSwitch:0000000000000000 $t
     /tmp/ccaxKBZ0.s:1778   .text.STO_PLL_BemfConsistencyCheckSwitch:0000000000000000 STO_PLL_BemfConsistencyCheckSwitch
     /tmp/ccaxKBZ0.s:1795   .text.STO_PLL_IsBemfConsistent:0000000000000000 $t
     /tmp/ccaxKBZ0.s:1803   .text.STO_PLL_IsBemfConsistent:0000000000000000 STO_PLL_IsBemfConsistent
     /tmp/ccaxKBZ0.s:1821   .text.STO_PLL_IsVarianceTight:0000000000000000 $t
     /tmp/ccaxKBZ0.s:1829   .text.STO_PLL_IsVarianceTight:0000000000000000 STO_PLL_IsVarianceTight
     /tmp/ccaxKBZ0.s:1852   .text.STO_PLL_ForceConvergency1:0000000000000000 $t
     /tmp/ccaxKBZ0.s:1860   .text.STO_PLL_ForceConvergency1:0000000000000000 STO_PLL_ForceConvergency1
     /tmp/ccaxKBZ0.s:1880   .text.STO_PLL_ForceConvergency2:0000000000000000 $t
     /tmp/ccaxKBZ0.s:1888   .text.STO_PLL_ForceConvergency2:0000000000000000 STO_PLL_ForceConvergency2
     /tmp/ccaxKBZ0.s:1908   .text.STO_SetDirection:0000000000000000 $t
     /tmp/ccaxKBZ0.s:1916   .text.STO_SetDirection:0000000000000000 STO_SetDirection

UNDEFINED SYMBOLS
MCM_Trig_Functions
PI_Controller
SPD_IsMecSpeedReliable
memset
PID_SetIntegralTerm
PID_HandleInit
PID_GetKP
PID_GetKI
