ARM GAS  /tmp/ccxvYI1S.s 			page 1


   1              		.cpu cortex-m4
   2              		.eabi_attribute 27, 1
   3              		.eabi_attribute 28, 1
   4              		.eabi_attribute 20, 1
   5              		.eabi_attribute 21, 1
   6              		.eabi_attribute 23, 3
   7              		.eabi_attribute 24, 1
   8              		.eabi_attribute 25, 1
   9              		.eabi_attribute 26, 1
  10              		.eabi_attribute 30, 2
  11              		.eabi_attribute 34, 1
  12              		.eabi_attribute 18, 2
  13              		.file	"syscalls.c"
  14              		.text
  15              	.Ltext0:
  16              		.cfi_sections	.debug_frame
  17              		.section	.text.initialise_monitor_handles,"ax",%progbits
  18              		.align	1
  19              		.p2align 2,,3
  20              		.global	initialise_monitor_handles
  21              		.arch armv7e-m
  22              		.syntax unified
  23              		.thumb
  24              		.thumb_func
  25              		.fpu fpv4-sp-d16
  27              	initialise_monitor_handles:
  28              	.LFB25:
  29              		.file 1 "Src/syscalls.c"
   1:Src/syscalls.c **** /**
   2:Src/syscalls.c ****  ******************************************************************************
   3:Src/syscalls.c ****  * @file      syscalls.c
   4:Src/syscalls.c ****  * @author    Auto-generated by STM32CubeMX
   5:Src/syscalls.c ****  * @brief     Minimal System calls file
   6:Src/syscalls.c ****  *
   7:Src/syscalls.c ****  *            For more information about which c-functions
   8:Src/syscalls.c ****  *            need which of these lowlevel functions
   9:Src/syscalls.c ****  *            please consult the Newlib libc-manual
  10:Src/syscalls.c ****  ******************************************************************************
  11:Src/syscalls.c ****  * @attention
  12:Src/syscalls.c ****  *
  13:Src/syscalls.c ****  * Copyright (c) 2020-2024 STMicroelectronics.
  14:Src/syscalls.c ****  * All rights reserved.
  15:Src/syscalls.c ****  *
  16:Src/syscalls.c ****  * This software is licensed under terms that can be found in the LICENSE file
  17:Src/syscalls.c ****  * in the root directory of this software component.
  18:Src/syscalls.c ****  * If no LICENSE file comes with this software, it is provided AS-IS.
  19:Src/syscalls.c ****  *
  20:Src/syscalls.c ****  ******************************************************************************
  21:Src/syscalls.c ****  */
  22:Src/syscalls.c **** 
  23:Src/syscalls.c **** /* Includes */
  24:Src/syscalls.c **** #include <sys/stat.h>
  25:Src/syscalls.c **** #include <stdlib.h>
  26:Src/syscalls.c **** #include <errno.h>
  27:Src/syscalls.c **** #include <stdio.h>
  28:Src/syscalls.c **** #include <signal.h>
  29:Src/syscalls.c **** #include <time.h>
ARM GAS  /tmp/ccxvYI1S.s 			page 2


  30:Src/syscalls.c **** #include <sys/time.h>
  31:Src/syscalls.c **** #include <sys/times.h>
  32:Src/syscalls.c **** 
  33:Src/syscalls.c **** 
  34:Src/syscalls.c **** /* Variables */
  35:Src/syscalls.c **** extern int __io_putchar(int ch) __attribute__((weak));
  36:Src/syscalls.c **** extern int __io_getchar(void) __attribute__((weak));
  37:Src/syscalls.c **** 
  38:Src/syscalls.c **** 
  39:Src/syscalls.c **** char *__env[1] = { 0 };
  40:Src/syscalls.c **** char **environ = __env;
  41:Src/syscalls.c **** 
  42:Src/syscalls.c **** 
  43:Src/syscalls.c **** /* Functions */
  44:Src/syscalls.c **** void initialise_monitor_handles()
  45:Src/syscalls.c **** {
  30              		.loc 1 45 1 view -0
  31              		.cfi_startproc
  32              		@ args = 0, pretend = 0, frame = 0
  33              		@ frame_needed = 0, uses_anonymous_args = 0
  34              		@ link register save eliminated.
  46:Src/syscalls.c **** }
  35              		.loc 1 46 1 view .LVU1
  36 0000 7047     		bx	lr
  37              		.cfi_endproc
  38              	.LFE25:
  40 0002 00BF     		.section	.text._getpid,"ax",%progbits
  41              		.align	1
  42              		.p2align 2,,3
  43              		.global	_getpid
  44              		.syntax unified
  45              		.thumb
  46              		.thumb_func
  47              		.fpu fpv4-sp-d16
  49              	_getpid:
  50              	.LFB26:
  47:Src/syscalls.c **** 
  48:Src/syscalls.c **** int _getpid(void)
  49:Src/syscalls.c **** {
  51              		.loc 1 49 1 view -0
  52              		.cfi_startproc
  53              		@ args = 0, pretend = 0, frame = 0
  54              		@ frame_needed = 0, uses_anonymous_args = 0
  55              		@ link register save eliminated.
  50:Src/syscalls.c ****   return 1;
  56              		.loc 1 50 3 view .LVU3
  51:Src/syscalls.c **** }
  57              		.loc 1 51 1 is_stmt 0 view .LVU4
  58 0000 0120     		movs	r0, #1
  59 0002 7047     		bx	lr
  60              		.cfi_endproc
  61              	.LFE26:
  63              		.section	.text._kill,"ax",%progbits
  64              		.align	1
  65              		.p2align 2,,3
  66              		.global	_kill
  67              		.syntax unified
ARM GAS  /tmp/ccxvYI1S.s 			page 3


  68              		.thumb
  69              		.thumb_func
  70              		.fpu fpv4-sp-d16
  72              	_kill:
  73              	.LVL0:
  74              	.LFB27:
  52:Src/syscalls.c **** 
  53:Src/syscalls.c **** int _kill(int pid, int sig)
  54:Src/syscalls.c **** {
  75              		.loc 1 54 1 is_stmt 1 view -0
  76              		.cfi_startproc
  77              		@ args = 0, pretend = 0, frame = 0
  78              		@ frame_needed = 0, uses_anonymous_args = 0
  55:Src/syscalls.c ****   (void)pid;
  79              		.loc 1 55 3 view .LVU6
  56:Src/syscalls.c ****   (void)sig;
  80              		.loc 1 56 3 view .LVU7
  57:Src/syscalls.c ****   errno = EINVAL;
  81              		.loc 1 57 3 view .LVU8
  54:Src/syscalls.c ****   (void)pid;
  82              		.loc 1 54 1 is_stmt 0 view .LVU9
  83 0000 08B5     		push	{r3, lr}
  84              	.LCFI0:
  85              		.cfi_def_cfa_offset 8
  86              		.cfi_offset 3, -8
  87              		.cfi_offset 14, -4
  88              		.loc 1 57 3 view .LVU10
  89 0002 FFF7FEFF 		bl	__errno
  90              	.LVL1:
  91              		.loc 1 57 9 view .LVU11
  92 0006 1623     		movs	r3, #22
  93 0008 0360     		str	r3, [r0]
  58:Src/syscalls.c ****   return -1;
  94              		.loc 1 58 3 is_stmt 1 view .LVU12
  59:Src/syscalls.c **** }
  95              		.loc 1 59 1 is_stmt 0 view .LVU13
  96 000a 4FF0FF30 		mov	r0, #-1
  97 000e 08BD     		pop	{r3, pc}
  98              		.cfi_endproc
  99              	.LFE27:
 101              		.section	.text._exit,"ax",%progbits
 102              		.align	1
 103              		.p2align 2,,3
 104              		.global	_exit
 105              		.syntax unified
 106              		.thumb
 107              		.thumb_func
 108              		.fpu fpv4-sp-d16
 110              	_exit:
 111              	.LVL2:
 112              	.LFB28:
  60:Src/syscalls.c **** 
  61:Src/syscalls.c **** void _exit (int status)
  62:Src/syscalls.c **** {
 113              		.loc 1 62 1 is_stmt 1 view -0
 114              		.cfi_startproc
 115              		@ Volatile: function does not return.
ARM GAS  /tmp/ccxvYI1S.s 			page 4


 116              		@ args = 0, pretend = 0, frame = 0
 117              		@ frame_needed = 0, uses_anonymous_args = 0
  63:Src/syscalls.c ****   _kill(status, -1);
 118              		.loc 1 63 3 view .LVU15
 119              	.LBB4:
 120              	.LBI4:
  53:Src/syscalls.c **** {
 121              		.loc 1 53 5 view .LVU16
 122              	.LBB5:
  55:Src/syscalls.c ****   (void)sig;
 123              		.loc 1 55 3 view .LVU17
  56:Src/syscalls.c ****   errno = EINVAL;
 124              		.loc 1 56 3 view .LVU18
  57:Src/syscalls.c ****   return -1;
 125              		.loc 1 57 3 view .LVU19
 126              	.LBE5:
 127              	.LBE4:
  62:Src/syscalls.c ****   _kill(status, -1);
 128              		.loc 1 62 1 is_stmt 0 view .LVU20
 129 0000 08B5     		push	{r3, lr}
 130              	.LCFI1:
 131              		.cfi_def_cfa_offset 8
 132              		.cfi_offset 3, -8
 133              		.cfi_offset 14, -4
 134              	.LBB7:
 135              	.LBB6:
  57:Src/syscalls.c ****   return -1;
 136              		.loc 1 57 3 view .LVU21
 137 0002 FFF7FEFF 		bl	__errno
 138              	.LVL3:
  57:Src/syscalls.c ****   return -1;
 139              		.loc 1 57 9 view .LVU22
 140 0006 1623     		movs	r3, #22
 141 0008 0360     		str	r3, [r0]
  58:Src/syscalls.c **** }
 142              		.loc 1 58 3 is_stmt 1 view .LVU23
 143              	.LVL4:
 144              	.L7:
  58:Src/syscalls.c **** }
 145              		.loc 1 58 3 is_stmt 0 view .LVU24
 146              	.LBE6:
 147              	.LBE7:
  64:Src/syscalls.c ****   while (1) {}    /* Make sure we hang here */
 148              		.loc 1 64 3 is_stmt 1 discriminator 1 view .LVU25
 149              		.loc 1 64 14 discriminator 1 view .LVU26
 150              		.loc 1 64 9 discriminator 1 view .LVU27
 151              		.loc 1 64 3 discriminator 1 view .LVU28
 152              		.loc 1 64 14 discriminator 1 view .LVU29
 153              		.loc 1 64 9 discriminator 1 view .LVU30
 154 000a FEE7     		b	.L7
 155              		.cfi_endproc
 156              	.LFE28:
 158              		.section	.text._read,"ax",%progbits
 159              		.align	1
 160              		.p2align 2,,3
 161              		.weak	_read
 162              		.syntax unified
ARM GAS  /tmp/ccxvYI1S.s 			page 5


 163              		.thumb
 164              		.thumb_func
 165              		.fpu fpv4-sp-d16
 167              	_read:
 168              	.LVL5:
 169              	.LFB29:
  65:Src/syscalls.c **** }
  66:Src/syscalls.c **** 
  67:Src/syscalls.c **** __attribute__((weak)) int _read(int file, char *ptr, int len)
  68:Src/syscalls.c **** {
 170              		.loc 1 68 1 view -0
 171              		.cfi_startproc
 172              		@ args = 0, pretend = 0, frame = 0
 173              		@ frame_needed = 0, uses_anonymous_args = 0
  69:Src/syscalls.c ****   (void)file;
 174              		.loc 1 69 3 view .LVU32
  70:Src/syscalls.c ****   int DataIdx;
 175              		.loc 1 70 3 view .LVU33
  71:Src/syscalls.c **** 
  72:Src/syscalls.c ****   for (DataIdx = 0; DataIdx < len; DataIdx++)
 176              		.loc 1 72 3 view .LVU34
 177              		.loc 1 72 21 view .LVU35
  68:Src/syscalls.c ****   (void)file;
 178              		.loc 1 68 1 is_stmt 0 view .LVU36
 179 0000 70B5     		push	{r4, r5, r6, lr}
 180              	.LCFI2:
 181              		.cfi_def_cfa_offset 16
 182              		.cfi_offset 4, -16
 183              		.cfi_offset 5, -12
 184              		.cfi_offset 6, -8
 185              		.cfi_offset 14, -4
 186              		.loc 1 72 3 view .LVU37
 187 0002 161E     		subs	r6, r2, #0
 188 0004 07DD     		ble	.L10
 189 0006 0C46     		mov	r4, r1
 190 0008 8D19     		adds	r5, r1, r6
 191              	.LVL6:
 192              	.L11:
  73:Src/syscalls.c ****   {
  74:Src/syscalls.c ****     *ptr++ = __io_getchar();
 193              		.loc 1 74 5 is_stmt 1 discriminator 3 view .LVU38
 194              		.loc 1 74 14 is_stmt 0 discriminator 3 view .LVU39
 195 000a FFF7FEFF 		bl	__io_getchar
 196              	.LVL7:
 197              		.loc 1 74 12 discriminator 3 view .LVU40
 198 000e 04F8010B 		strb	r0, [r4], #1
 199              	.LVL8:
  72:Src/syscalls.c ****   {
 200              		.loc 1 72 36 is_stmt 1 discriminator 3 view .LVU41
  72:Src/syscalls.c ****   {
 201              		.loc 1 72 21 discriminator 3 view .LVU42
  72:Src/syscalls.c ****   {
 202              		.loc 1 72 3 is_stmt 0 discriminator 3 view .LVU43
 203 0012 A542     		cmp	r5, r4
 204 0014 F9D1     		bne	.L11
 205              	.LVL9:
 206              	.L10:
ARM GAS  /tmp/ccxvYI1S.s 			page 6


  75:Src/syscalls.c ****   }
  76:Src/syscalls.c **** 
  77:Src/syscalls.c ****   return len;
 207              		.loc 1 77 3 is_stmt 1 view .LVU44
  78:Src/syscalls.c **** }
 208              		.loc 1 78 1 is_stmt 0 view .LVU45
 209 0016 3046     		mov	r0, r6
 210 0018 70BD     		pop	{r4, r5, r6, pc}
 211              		.loc 1 78 1 view .LVU46
 212              		.cfi_endproc
 213              	.LFE29:
 215 001a 00BF     		.section	.text._write,"ax",%progbits
 216              		.align	1
 217              		.p2align 2,,3
 218              		.weak	_write
 219              		.syntax unified
 220              		.thumb
 221              		.thumb_func
 222              		.fpu fpv4-sp-d16
 224              	_write:
 225              	.LVL10:
 226              	.LFB30:
  79:Src/syscalls.c **** 
  80:Src/syscalls.c **** __attribute__((weak)) int _write(int file, char *ptr, int len)
  81:Src/syscalls.c **** {
 227              		.loc 1 81 1 is_stmt 1 view -0
 228              		.cfi_startproc
 229              		@ args = 0, pretend = 0, frame = 0
 230              		@ frame_needed = 0, uses_anonymous_args = 0
  82:Src/syscalls.c ****   (void)file;
 231              		.loc 1 82 3 view .LVU48
  83:Src/syscalls.c ****   int DataIdx;
 232              		.loc 1 83 3 view .LVU49
  84:Src/syscalls.c **** 
  85:Src/syscalls.c ****   for (DataIdx = 0; DataIdx < len; DataIdx++)
 233              		.loc 1 85 3 view .LVU50
 234              		.loc 1 85 21 view .LVU51
  81:Src/syscalls.c ****   (void)file;
 235              		.loc 1 81 1 is_stmt 0 view .LVU52
 236 0000 70B5     		push	{r4, r5, r6, lr}
 237              	.LCFI3:
 238              		.cfi_def_cfa_offset 16
 239              		.cfi_offset 4, -16
 240              		.cfi_offset 5, -12
 241              		.cfi_offset 6, -8
 242              		.cfi_offset 14, -4
 243              		.loc 1 85 3 view .LVU53
 244 0002 161E     		subs	r6, r2, #0
 245 0004 07DD     		ble	.L15
 246 0006 0C46     		mov	r4, r1
 247 0008 8D19     		adds	r5, r1, r6
 248              	.LVL11:
 249              	.L16:
  86:Src/syscalls.c ****   {
  87:Src/syscalls.c ****     __io_putchar(*ptr++);
 250              		.loc 1 87 5 is_stmt 1 discriminator 3 view .LVU54
 251              		.loc 1 87 5 is_stmt 0 discriminator 3 view .LVU55
ARM GAS  /tmp/ccxvYI1S.s 			page 7


 252 000a 14F8010B 		ldrb	r0, [r4], #1	@ zero_extendqisi2
 253              	.LVL12:
 254              		.loc 1 87 5 discriminator 3 view .LVU56
 255 000e FFF7FEFF 		bl	__io_putchar
 256              	.LVL13:
  85:Src/syscalls.c ****   {
 257              		.loc 1 85 36 is_stmt 1 discriminator 3 view .LVU57
  85:Src/syscalls.c ****   {
 258              		.loc 1 85 21 discriminator 3 view .LVU58
  85:Src/syscalls.c ****   {
 259              		.loc 1 85 3 is_stmt 0 discriminator 3 view .LVU59
 260 0012 AC42     		cmp	r4, r5
 261 0014 F9D1     		bne	.L16
 262              	.LVL14:
 263              	.L15:
  88:Src/syscalls.c ****   }
  89:Src/syscalls.c ****   return len;
 264              		.loc 1 89 3 is_stmt 1 view .LVU60
  90:Src/syscalls.c **** }
 265              		.loc 1 90 1 is_stmt 0 view .LVU61
 266 0016 3046     		mov	r0, r6
 267 0018 70BD     		pop	{r4, r5, r6, pc}
 268              		.loc 1 90 1 view .LVU62
 269              		.cfi_endproc
 270              	.LFE30:
 272 001a 00BF     		.section	.text._close,"ax",%progbits
 273              		.align	1
 274              		.p2align 2,,3
 275              		.global	_close
 276              		.syntax unified
 277              		.thumb
 278              		.thumb_func
 279              		.fpu fpv4-sp-d16
 281              	_close:
 282              	.LVL15:
 283              	.LFB31:
  91:Src/syscalls.c **** 
  92:Src/syscalls.c **** int _close(int file)
  93:Src/syscalls.c **** {
 284              		.loc 1 93 1 is_stmt 1 view -0
 285              		.cfi_startproc
 286              		@ args = 0, pretend = 0, frame = 0
 287              		@ frame_needed = 0, uses_anonymous_args = 0
 288              		@ link register save eliminated.
  94:Src/syscalls.c ****   (void)file;
 289              		.loc 1 94 3 view .LVU64
  95:Src/syscalls.c ****   return -1;
 290              		.loc 1 95 3 view .LVU65
  96:Src/syscalls.c **** }
 291              		.loc 1 96 1 is_stmt 0 view .LVU66
 292 0000 4FF0FF30 		mov	r0, #-1
 293              	.LVL16:
 294              		.loc 1 96 1 view .LVU67
 295 0004 7047     		bx	lr
 296              		.cfi_endproc
 297              	.LFE31:
 299 0006 00BF     		.section	.text._fstat,"ax",%progbits
ARM GAS  /tmp/ccxvYI1S.s 			page 8


 300              		.align	1
 301              		.p2align 2,,3
 302              		.global	_fstat
 303              		.syntax unified
 304              		.thumb
 305              		.thumb_func
 306              		.fpu fpv4-sp-d16
 308              	_fstat:
 309              	.LVL17:
 310              	.LFB32:
  97:Src/syscalls.c **** 
  98:Src/syscalls.c **** 
  99:Src/syscalls.c **** int _fstat(int file, struct stat *st)
 100:Src/syscalls.c **** {
 311              		.loc 1 100 1 is_stmt 1 view -0
 312              		.cfi_startproc
 313              		@ args = 0, pretend = 0, frame = 0
 314              		@ frame_needed = 0, uses_anonymous_args = 0
 315              		@ link register save eliminated.
 101:Src/syscalls.c ****   (void)file;
 316              		.loc 1 101 3 view .LVU69
 102:Src/syscalls.c ****   st->st_mode = S_IFCHR;
 317              		.loc 1 102 3 view .LVU70
 318              		.loc 1 102 15 is_stmt 0 view .LVU71
 319 0000 4FF40053 		mov	r3, #8192
 320 0004 4B60     		str	r3, [r1, #4]
 103:Src/syscalls.c ****   return 0;
 321              		.loc 1 103 3 is_stmt 1 view .LVU72
 104:Src/syscalls.c **** }
 322              		.loc 1 104 1 is_stmt 0 view .LVU73
 323 0006 0020     		movs	r0, #0
 324              	.LVL18:
 325              		.loc 1 104 1 view .LVU74
 326 0008 7047     		bx	lr
 327              		.cfi_endproc
 328              	.LFE32:
 330 000a 00BF     		.section	.text._isatty,"ax",%progbits
 331              		.align	1
 332              		.p2align 2,,3
 333              		.global	_isatty
 334              		.syntax unified
 335              		.thumb
 336              		.thumb_func
 337              		.fpu fpv4-sp-d16
 339              	_isatty:
 340              	.LVL19:
 341              	.LFB33:
 105:Src/syscalls.c **** 
 106:Src/syscalls.c **** int _isatty(int file)
 107:Src/syscalls.c **** {
 342              		.loc 1 107 1 is_stmt 1 view -0
 343              		.cfi_startproc
 344              		@ args = 0, pretend = 0, frame = 0
 345              		@ frame_needed = 0, uses_anonymous_args = 0
 346              		@ link register save eliminated.
 108:Src/syscalls.c ****   (void)file;
 347              		.loc 1 108 3 view .LVU76
ARM GAS  /tmp/ccxvYI1S.s 			page 9


 109:Src/syscalls.c ****   return 1;
 348              		.loc 1 109 3 view .LVU77
 110:Src/syscalls.c **** }
 349              		.loc 1 110 1 is_stmt 0 view .LVU78
 350 0000 0120     		movs	r0, #1
 351              	.LVL20:
 352              		.loc 1 110 1 view .LVU79
 353 0002 7047     		bx	lr
 354              		.cfi_endproc
 355              	.LFE33:
 357              		.section	.text._lseek,"ax",%progbits
 358              		.align	1
 359              		.p2align 2,,3
 360              		.global	_lseek
 361              		.syntax unified
 362              		.thumb
 363              		.thumb_func
 364              		.fpu fpv4-sp-d16
 366              	_lseek:
 367              	.LVL21:
 368              	.LFB34:
 111:Src/syscalls.c **** 
 112:Src/syscalls.c **** int _lseek(int file, int ptr, int dir)
 113:Src/syscalls.c **** {
 369              		.loc 1 113 1 is_stmt 1 view -0
 370              		.cfi_startproc
 371              		@ args = 0, pretend = 0, frame = 0
 372              		@ frame_needed = 0, uses_anonymous_args = 0
 373              		@ link register save eliminated.
 114:Src/syscalls.c ****   (void)file;
 374              		.loc 1 114 3 view .LVU81
 115:Src/syscalls.c ****   (void)ptr;
 375              		.loc 1 115 3 view .LVU82
 116:Src/syscalls.c ****   (void)dir;
 376              		.loc 1 116 3 view .LVU83
 117:Src/syscalls.c ****   return 0;
 377              		.loc 1 117 3 view .LVU84
 118:Src/syscalls.c **** }
 378              		.loc 1 118 1 is_stmt 0 view .LVU85
 379 0000 0020     		movs	r0, #0
 380              	.LVL22:
 381              		.loc 1 118 1 view .LVU86
 382 0002 7047     		bx	lr
 383              		.cfi_endproc
 384              	.LFE34:
 386              		.section	.text._open,"ax",%progbits
 387              		.align	1
 388              		.p2align 2,,3
 389              		.global	_open
 390              		.syntax unified
 391              		.thumb
 392              		.thumb_func
 393              		.fpu fpv4-sp-d16
 395              	_open:
 396              	.LVL23:
 397              	.LFB35:
 119:Src/syscalls.c **** 
ARM GAS  /tmp/ccxvYI1S.s 			page 10


 120:Src/syscalls.c **** int _open(char *path, int flags, ...)
 121:Src/syscalls.c **** {
 398              		.loc 1 121 1 is_stmt 1 view -0
 399              		.cfi_startproc
 400              		@ args = 4, pretend = 12, frame = 0
 401              		@ frame_needed = 0, uses_anonymous_args = 1
 402              		@ link register save eliminated.
 122:Src/syscalls.c ****   (void)path;
 403              		.loc 1 122 3 view .LVU88
 123:Src/syscalls.c ****   (void)flags;
 404              		.loc 1 123 3 view .LVU89
 124:Src/syscalls.c ****   /* Pretend like we always fail */
 125:Src/syscalls.c ****   return -1;
 405              		.loc 1 125 3 view .LVU90
 121:Src/syscalls.c ****   (void)path;
 406              		.loc 1 121 1 is_stmt 0 view .LVU91
 407 0000 0EB4     		push	{r1, r2, r3}
 408              	.LCFI4:
 409              		.cfi_def_cfa_offset 12
 410              		.cfi_offset 1, -12
 411              		.cfi_offset 2, -8
 412              		.cfi_offset 3, -4
 126:Src/syscalls.c **** }
 413              		.loc 1 126 1 view .LVU92
 414 0002 4FF0FF30 		mov	r0, #-1
 415              	.LVL24:
 416              		.loc 1 126 1 view .LVU93
 417 0006 03B0     		add	sp, sp, #12
 418              	.LCFI5:
 419              		.cfi_restore 3
 420              		.cfi_restore 2
 421              		.cfi_restore 1
 422              		.cfi_def_cfa_offset 0
 423 0008 7047     		bx	lr
 424              		.cfi_endproc
 425              	.LFE35:
 427 000a 00BF     		.section	.text._wait,"ax",%progbits
 428              		.align	1
 429              		.p2align 2,,3
 430              		.global	_wait
 431              		.syntax unified
 432              		.thumb
 433              		.thumb_func
 434              		.fpu fpv4-sp-d16
 436              	_wait:
 437              	.LVL25:
 438              	.LFB36:
 127:Src/syscalls.c **** 
 128:Src/syscalls.c **** int _wait(int *status)
 129:Src/syscalls.c **** {
 439              		.loc 1 129 1 is_stmt 1 view -0
 440              		.cfi_startproc
 441              		@ args = 0, pretend = 0, frame = 0
 442              		@ frame_needed = 0, uses_anonymous_args = 0
 130:Src/syscalls.c ****   (void)status;
 443              		.loc 1 130 3 view .LVU95
 131:Src/syscalls.c ****   errno = ECHILD;
ARM GAS  /tmp/ccxvYI1S.s 			page 11


 444              		.loc 1 131 3 view .LVU96
 129:Src/syscalls.c ****   (void)status;
 445              		.loc 1 129 1 is_stmt 0 view .LVU97
 446 0000 08B5     		push	{r3, lr}
 447              	.LCFI6:
 448              		.cfi_def_cfa_offset 8
 449              		.cfi_offset 3, -8
 450              		.cfi_offset 14, -4
 451              		.loc 1 131 3 view .LVU98
 452 0002 FFF7FEFF 		bl	__errno
 453              	.LVL26:
 454              		.loc 1 131 9 view .LVU99
 455 0006 0A23     		movs	r3, #10
 456 0008 0360     		str	r3, [r0]
 132:Src/syscalls.c ****   return -1;
 457              		.loc 1 132 3 is_stmt 1 view .LVU100
 133:Src/syscalls.c **** }
 458              		.loc 1 133 1 is_stmt 0 view .LVU101
 459 000a 4FF0FF30 		mov	r0, #-1
 460 000e 08BD     		pop	{r3, pc}
 461              		.cfi_endproc
 462              	.LFE36:
 464              		.section	.text._unlink,"ax",%progbits
 465              		.align	1
 466              		.p2align 2,,3
 467              		.global	_unlink
 468              		.syntax unified
 469              		.thumb
 470              		.thumb_func
 471              		.fpu fpv4-sp-d16
 473              	_unlink:
 474              	.LVL27:
 475              	.LFB37:
 134:Src/syscalls.c **** 
 135:Src/syscalls.c **** int _unlink(char *name)
 136:Src/syscalls.c **** {
 476              		.loc 1 136 1 is_stmt 1 view -0
 477              		.cfi_startproc
 478              		@ args = 0, pretend = 0, frame = 0
 479              		@ frame_needed = 0, uses_anonymous_args = 0
 137:Src/syscalls.c ****   (void)name;
 480              		.loc 1 137 3 view .LVU103
 138:Src/syscalls.c ****   errno = ENOENT;
 481              		.loc 1 138 3 view .LVU104
 136:Src/syscalls.c ****   (void)name;
 482              		.loc 1 136 1 is_stmt 0 view .LVU105
 483 0000 08B5     		push	{r3, lr}
 484              	.LCFI7:
 485              		.cfi_def_cfa_offset 8
 486              		.cfi_offset 3, -8
 487              		.cfi_offset 14, -4
 488              		.loc 1 138 3 view .LVU106
 489 0002 FFF7FEFF 		bl	__errno
 490              	.LVL28:
 491              		.loc 1 138 9 view .LVU107
 492 0006 0223     		movs	r3, #2
 493 0008 0360     		str	r3, [r0]
ARM GAS  /tmp/ccxvYI1S.s 			page 12


 139:Src/syscalls.c ****   return -1;
 494              		.loc 1 139 3 is_stmt 1 view .LVU108
 140:Src/syscalls.c **** }
 495              		.loc 1 140 1 is_stmt 0 view .LVU109
 496 000a 4FF0FF30 		mov	r0, #-1
 497 000e 08BD     		pop	{r3, pc}
 498              		.cfi_endproc
 499              	.LFE37:
 501              		.section	.text._times,"ax",%progbits
 502              		.align	1
 503              		.p2align 2,,3
 504              		.global	_times
 505              		.syntax unified
 506              		.thumb
 507              		.thumb_func
 508              		.fpu fpv4-sp-d16
 510              	_times:
 511              	.LVL29:
 512              	.LFB38:
 141:Src/syscalls.c **** 
 142:Src/syscalls.c **** int _times(struct tms *buf)
 143:Src/syscalls.c **** {
 513              		.loc 1 143 1 is_stmt 1 view -0
 514              		.cfi_startproc
 515              		@ args = 0, pretend = 0, frame = 0
 516              		@ frame_needed = 0, uses_anonymous_args = 0
 517              		@ link register save eliminated.
 144:Src/syscalls.c ****   (void)buf;
 518              		.loc 1 144 3 view .LVU111
 145:Src/syscalls.c ****   return -1;
 519              		.loc 1 145 3 view .LVU112
 146:Src/syscalls.c **** }
 520              		.loc 1 146 1 is_stmt 0 view .LVU113
 521 0000 4FF0FF30 		mov	r0, #-1
 522              	.LVL30:
 523              		.loc 1 146 1 view .LVU114
 524 0004 7047     		bx	lr
 525              		.cfi_endproc
 526              	.LFE38:
 528 0006 00BF     		.section	.text._stat,"ax",%progbits
 529              		.align	1
 530              		.p2align 2,,3
 531              		.global	_stat
 532              		.syntax unified
 533              		.thumb
 534              		.thumb_func
 535              		.fpu fpv4-sp-d16
 537              	_stat:
 538              	.LVL31:
 539              	.LFB39:
 147:Src/syscalls.c **** 
 148:Src/syscalls.c **** int _stat(char *file, struct stat *st)
 149:Src/syscalls.c **** {
 540              		.loc 1 149 1 is_stmt 1 view -0
 541              		.cfi_startproc
 542              		@ args = 0, pretend = 0, frame = 0
 543              		@ frame_needed = 0, uses_anonymous_args = 0
ARM GAS  /tmp/ccxvYI1S.s 			page 13


 544              		@ link register save eliminated.
 150:Src/syscalls.c ****   (void)file;
 545              		.loc 1 150 3 view .LVU116
 151:Src/syscalls.c ****   st->st_mode = S_IFCHR;
 546              		.loc 1 151 3 view .LVU117
 547              		.loc 1 151 15 is_stmt 0 view .LVU118
 548 0000 4FF40053 		mov	r3, #8192
 549 0004 4B60     		str	r3, [r1, #4]
 152:Src/syscalls.c ****   return 0;
 550              		.loc 1 152 3 is_stmt 1 view .LVU119
 153:Src/syscalls.c **** }
 551              		.loc 1 153 1 is_stmt 0 view .LVU120
 552 0006 0020     		movs	r0, #0
 553              	.LVL32:
 554              		.loc 1 153 1 view .LVU121
 555 0008 7047     		bx	lr
 556              		.cfi_endproc
 557              	.LFE39:
 559 000a 00BF     		.section	.text._link,"ax",%progbits
 560              		.align	1
 561              		.p2align 2,,3
 562              		.global	_link
 563              		.syntax unified
 564              		.thumb
 565              		.thumb_func
 566              		.fpu fpv4-sp-d16
 568              	_link:
 569              	.LVL33:
 570              	.LFB40:
 154:Src/syscalls.c **** 
 155:Src/syscalls.c **** int _link(char *old, char *new)
 156:Src/syscalls.c **** {
 571              		.loc 1 156 1 is_stmt 1 view -0
 572              		.cfi_startproc
 573              		@ args = 0, pretend = 0, frame = 0
 574              		@ frame_needed = 0, uses_anonymous_args = 0
 157:Src/syscalls.c ****   (void)old;
 575              		.loc 1 157 3 view .LVU123
 158:Src/syscalls.c ****   (void)new;
 576              		.loc 1 158 3 view .LVU124
 159:Src/syscalls.c ****   errno = EMLINK;
 577              		.loc 1 159 3 view .LVU125
 156:Src/syscalls.c ****   (void)old;
 578              		.loc 1 156 1 is_stmt 0 view .LVU126
 579 0000 08B5     		push	{r3, lr}
 580              	.LCFI8:
 581              		.cfi_def_cfa_offset 8
 582              		.cfi_offset 3, -8
 583              		.cfi_offset 14, -4
 584              		.loc 1 159 3 view .LVU127
 585 0002 FFF7FEFF 		bl	__errno
 586              	.LVL34:
 587              		.loc 1 159 9 view .LVU128
 588 0006 1F23     		movs	r3, #31
 589 0008 0360     		str	r3, [r0]
 160:Src/syscalls.c ****   return -1;
 590              		.loc 1 160 3 is_stmt 1 view .LVU129
ARM GAS  /tmp/ccxvYI1S.s 			page 14


 161:Src/syscalls.c **** }
 591              		.loc 1 161 1 is_stmt 0 view .LVU130
 592 000a 4FF0FF30 		mov	r0, #-1
 593 000e 08BD     		pop	{r3, pc}
 594              		.cfi_endproc
 595              	.LFE40:
 597              		.section	.text._fork,"ax",%progbits
 598              		.align	1
 599              		.p2align 2,,3
 600              		.global	_fork
 601              		.syntax unified
 602              		.thumb
 603              		.thumb_func
 604              		.fpu fpv4-sp-d16
 606              	_fork:
 607              	.LFB41:
 162:Src/syscalls.c **** 
 163:Src/syscalls.c **** int _fork(void)
 164:Src/syscalls.c **** {
 608              		.loc 1 164 1 is_stmt 1 view -0
 609              		.cfi_startproc
 610              		@ args = 0, pretend = 0, frame = 0
 611              		@ frame_needed = 0, uses_anonymous_args = 0
 165:Src/syscalls.c ****   errno = EAGAIN;
 612              		.loc 1 165 3 view .LVU132
 164:Src/syscalls.c ****   errno = EAGAIN;
 613              		.loc 1 164 1 is_stmt 0 view .LVU133
 614 0000 08B5     		push	{r3, lr}
 615              	.LCFI9:
 616              		.cfi_def_cfa_offset 8
 617              		.cfi_offset 3, -8
 618              		.cfi_offset 14, -4
 619              		.loc 1 165 3 view .LVU134
 620 0002 FFF7FEFF 		bl	__errno
 621              	.LVL35:
 622              		.loc 1 165 9 view .LVU135
 623 0006 0B23     		movs	r3, #11
 624 0008 0360     		str	r3, [r0]
 166:Src/syscalls.c ****   return -1;
 625              		.loc 1 166 3 is_stmt 1 view .LVU136
 167:Src/syscalls.c **** }
 626              		.loc 1 167 1 is_stmt 0 view .LVU137
 627 000a 4FF0FF30 		mov	r0, #-1
 628 000e 08BD     		pop	{r3, pc}
 629              		.cfi_endproc
 630              	.LFE41:
 632              		.section	.text._execve,"ax",%progbits
 633              		.align	1
 634              		.p2align 2,,3
 635              		.global	_execve
 636              		.syntax unified
 637              		.thumb
 638              		.thumb_func
 639              		.fpu fpv4-sp-d16
 641              	_execve:
 642              	.LVL36:
 643              	.LFB42:
ARM GAS  /tmp/ccxvYI1S.s 			page 15


 168:Src/syscalls.c **** 
 169:Src/syscalls.c **** int _execve(char *name, char **argv, char **env)
 170:Src/syscalls.c **** {
 644              		.loc 1 170 1 is_stmt 1 view -0
 645              		.cfi_startproc
 646              		@ args = 0, pretend = 0, frame = 0
 647              		@ frame_needed = 0, uses_anonymous_args = 0
 171:Src/syscalls.c ****   (void)name;
 648              		.loc 1 171 3 view .LVU139
 172:Src/syscalls.c ****   (void)argv;
 649              		.loc 1 172 3 view .LVU140
 173:Src/syscalls.c ****   (void)env;
 650              		.loc 1 173 3 view .LVU141
 174:Src/syscalls.c ****   errno = ENOMEM;
 651              		.loc 1 174 3 view .LVU142
 170:Src/syscalls.c ****   (void)name;
 652              		.loc 1 170 1 is_stmt 0 view .LVU143
 653 0000 08B5     		push	{r3, lr}
 654              	.LCFI10:
 655              		.cfi_def_cfa_offset 8
 656              		.cfi_offset 3, -8
 657              		.cfi_offset 14, -4
 658              		.loc 1 174 3 view .LVU144
 659 0002 FFF7FEFF 		bl	__errno
 660              	.LVL37:
 661              		.loc 1 174 9 view .LVU145
 662 0006 0C23     		movs	r3, #12
 663 0008 0360     		str	r3, [r0]
 175:Src/syscalls.c ****   return -1;
 664              		.loc 1 175 3 is_stmt 1 view .LVU146
 176:Src/syscalls.c **** }
 665              		.loc 1 176 1 is_stmt 0 view .LVU147
 666 000a 4FF0FF30 		mov	r0, #-1
 667 000e 08BD     		pop	{r3, pc}
 668              		.cfi_endproc
 669              	.LFE42:
 671              		.global	environ
 672              		.global	__env
 673              		.section	.bss.__env,"aw",%nobits
 674              		.align	2
 677              	__env:
 678 0000 00000000 		.space	4
 679              		.section	.data.environ,"aw"
 680              		.align	2
 683              	environ:
 684 0000 00000000 		.word	__env
 685              		.weak	__io_putchar
 686              		.weak	__io_getchar
 687              		.text
 688              	.Letext0:
 689              		.file 2 "/usr/share/gcc-arm-none-eabi-10-2020-q4-major/arm-none-eabi/include/machine/_default_type
 690              		.file 3 "/usr/share/gcc-arm-none-eabi-10-2020-q4-major/arm-none-eabi/include/sys/_types.h"
 691              		.file 4 "/usr/share/gcc-arm-none-eabi-10-2020-q4-major/arm-none-eabi/include/sys/_timeval.h"
 692              		.file 5 "/usr/share/gcc-arm-none-eabi-10-2020-q4-major/arm-none-eabi/include/sys/_timespec.h"
 693              		.file 6 "/usr/share/gcc-arm-none-eabi-10-2020-q4-major/arm-none-eabi/include/sys/types.h"
 694              		.file 7 "/usr/share/gcc-arm-none-eabi-10-2020-q4-major/arm-none-eabi/include/sys/stat.h"
 695              		.file 8 "/usr/share/gcc-arm-none-eabi-10-2020-q4-major/arm-none-eabi/include/sys/times.h"
ARM GAS  /tmp/ccxvYI1S.s 			page 16


 696              		.file 9 "/usr/share/gcc-arm-none-eabi-10-2020-q4-major/arm-none-eabi/include/sys/errno.h"
ARM GAS  /tmp/ccxvYI1S.s 			page 17

