ARM GAS  /tmp/ccBip7Dy.s 			page 1


   1              		.cpu cortex-m4
   2              		.eabi_attribute 27, 1
   3              		.eabi_attribute 28, 1
   4              		.eabi_attribute 20, 1
   5              		.eabi_attribute 21, 1
   6              		.eabi_attribute 23, 3
   7              		.eabi_attribute 24, 1
   8              		.eabi_attribute 25, 1
   9              		.eabi_attribute 26, 1
  10              		.eabi_attribute 30, 1
  11              		.eabi_attribute 34, 1
  12              		.eabi_attribute 18, 2
  13              		.file	"utils.cpp"
  14              		.text
  15              	.Ltext0:
  16              		.cfi_sections	.debug_frame
  17              		.section	.text.calcCRC,"ax",%progbits
  18              		.align	1
  19              		.global	calcCRC
  20              		.arch armv7e-m
  21              		.syntax unified
  22              		.thumb
  23              		.thumb_func
  24              		.fpu fpv4-sp-d16
  26              	calcCRC:
  27              	.LVL0:
  28              	.LFB2995:
  29              		.file 1 "Src/utils.cpp"
   1:Src/utils.cpp **** 
   2:Src/utils.cpp **** #include <cmsis_os.h>
   3:Src/utils.cpp **** #include <float.h>
   4:Src/utils.cpp **** #include <math.h>
   5:Src/utils.cpp **** #include "stm32g4xx_hal.h"
   6:Src/utils.cpp **** #include "stm32g4xx_ll_cordic.h"
   7:Src/utils.cpp **** #include <utils.hpp>
   8:Src/utils.cpp **** #include "main.h"
   9:Src/utils.cpp **** // poly = x
  10:Src/utils.cpp **** const uint8_t crcTable[256] = {
  11:Src/utils.cpp ****     0x00, 0x97, 0xB9, 0x2E, 0xE5, 0x72, 0x5C, 0xCB, 0x5D, 0xCA, 0xE4, 0x73, 0xB8, 0x2F, 0x01, 0x96,
  12:Src/utils.cpp ****     0x5F, 0xC8, 0xE6, 0x71, 0xE7, 0x70, 0x5E, 0xC9, 0x02, 0x95, 0xBB, 0x2C, 0xE3, 0x74, 0x5A, 0xCD,
  13:Src/utils.cpp ****     0x29, 0x07, 0x90, 0x5B, 0xCC, 0xE2, 0x75, 0x59, 0xCE, 0xE0, 0x77, 0xBC, 0x2B, 0x05, 0x92, 0x04,
  14:Src/utils.cpp ****     0x58, 0xCF, 0x51, 0xC6, 0xE8, 0x7F, 0xB4, 0x23, 0x0D, 0x9A, 0x0C, 0x9B, 0xB5, 0x22, 0xE9, 0x7E,
  15:Src/utils.cpp ****     0xC5, 0x0E, 0x99, 0xB7, 0x20, 0xB6, 0x21, 0x0F, 0x98, 0x53, 0xC4, 0xEA, 0x7D, 0xB2, 0x25, 0x0B,
  16:Src/utils.cpp ****     0xEF, 0x78, 0x56, 0xC1, 0x0A, 0x9D, 0xB3, 0x24, 0x08, 0x9F, 0xB1, 0x26, 0xED, 0x7A, 0x54, 0xC3,
  17:Src/utils.cpp ****     0x27, 0x09, 0x9E, 0xA2, 0x35, 0x1B, 0x8C, 0x47, 0xD0, 0xFE, 0x69, 0xFF, 0x68, 0x46, 0xD1, 0x1A,
  18:Src/utils.cpp ****     0xA1, 0x36, 0xFD, 0x6A, 0x44, 0xD3, 0x45, 0xD2, 0xFC, 0x6B, 0xA0, 0x37, 0x19, 0x8E, 0x41, 0xD6,
  19:Src/utils.cpp ****     0x8A, 0x1C, 0x8B, 0xA5, 0x32, 0xF9, 0x6E, 0x40, 0xD7, 0xFB, 0x6C, 0x42, 0xD5, 0x1E, 0x89, 0xA7,
  20:Src/utils.cpp ****     0x43, 0xD4, 0xFA, 0x6D, 0xF3, 0x64, 0x4A, 0xDD, 0x16, 0x81, 0xAF, 0x38, 0xAE, 0x39, 0x17, 0x80,
  21:Src/utils.cpp ****     0xDE, 0xF0, 0x67, 0xAC, 0x3B, 0x15, 0x82, 0x14, 0x83, 0xAD, 0x3A, 0xF1, 0x66, 0x48, 0xDF, 0x10,
  22:Src/utils.cpp ****     0x4C, 0xDB, 0x4D, 0xDA, 0xF4, 0x63, 0xA8, 0x3F, 0x11, 0x86, 0xAA, 0x3D, 0x13, 0x84, 0x4F, 0xD8,
  23:Src/utils.cpp ****     0xD9, 0x12, 0x85, 0xAB, 0x3C};
  24:Src/utils.cpp **** 
  25:Src/utils.cpp **** uint8_t calcCRC(uint8_t* buffer, uint8_t length) {
  30              		.loc 1 25 50 view -0
  31              		.cfi_startproc
  32              		@ args = 0, pretend = 0, frame = 0
  33              		@ frame_needed = 0, uses_anonymous_args = 0
ARM GAS  /tmp/ccBip7Dy.s 			page 2


  34              		@ link register save eliminated.
  26:Src/utils.cpp ****     uint8_t temp = *buffer++;
  35              		.loc 1 26 5 view .LVU1
  36              		.loc 1 26 27 is_stmt 0 view .LVU2
  37 0000 0246     		mov	r2, r0
  38              	.LVL1:
  39              		.loc 1 26 27 view .LVU3
  40 0002 12F8013B 		ldrb	r3, [r2], #1	@ zero_extendqisi2
  41              	.LVL2:
  27:Src/utils.cpp ****     while (--length) {
  42              		.loc 1 27 5 is_stmt 1 view .LVU4
  43              		.loc 1 27 12 view .LVU5
  44              		.loc 1 27 12 is_stmt 0 view .LVU6
  45 0006 0129     		cmp	r1, #1
  46 0008 10D0     		beq	.L6
  25:Src/utils.cpp ****     uint8_t temp = *buffer++;
  47              		.loc 1 25 50 view .LVU7
  48 000a 10B4     		push	{r4}
  49              	.LCFI0:
  50              		.cfi_def_cfa_offset 4
  51              		.cfi_offset 4, -4
  52 000c 0239     		subs	r1, r1, #2
  53              	.LVL3:
  25:Src/utils.cpp ****     uint8_t temp = *buffer++;
  54              		.loc 1 25 50 view .LVU8
  55 000e C9B2     		uxtb	r1, r1
  56              	.LVL4:
  25:Src/utils.cpp ****     uint8_t temp = *buffer++;
  57              		.loc 1 25 50 view .LVU9
  58 0010 0231     		adds	r1, r1, #2
  59 0012 0844     		add	r0, r0, r1
  28:Src/utils.cpp ****         temp = *buffer++ ^ crcTable[temp];
  60              		.loc 1 28 41 view .LVU10
  61 0014 074C     		ldr	r4, .L9
  62              	.L3:
  63              		.loc 1 28 9 is_stmt 1 view .LVU11
  64              	.LVL5:
  65              		.loc 1 28 41 is_stmt 0 view .LVU12
  66 0016 E35C     		ldrb	r3, [r4, r3]	@ zero_extendqisi2
  67              	.LVL6:
  68              		.loc 1 28 14 view .LVU13
  69 0018 12F8011B 		ldrb	r1, [r2], #1	@ zero_extendqisi2
  70              	.LVL7:
  71              		.loc 1 28 14 view .LVU14
  72 001c 4B40     		eors	r3, r3, r1
  73              	.LVL8:
  27:Src/utils.cpp ****     while (--length) {
  74              		.loc 1 27 5 is_stmt 1 view .LVU15
  27:Src/utils.cpp ****     while (--length) {
  75              		.loc 1 27 12 view .LVU16
  27:Src/utils.cpp ****     while (--length) {
  76              		.loc 1 27 12 is_stmt 0 view .LVU17
  77 001e 8242     		cmp	r2, r0
  78 0020 F9D1     		bne	.L3
  29:Src/utils.cpp ****     }
  30:Src/utils.cpp **** 
  31:Src/utils.cpp ****     return crcTable[temp];
ARM GAS  /tmp/ccBip7Dy.s 			page 3


  79              		.loc 1 31 5 is_stmt 1 view .LVU18
  32:Src/utils.cpp **** }
  80              		.loc 1 32 1 is_stmt 0 view .LVU19
  81 0022 044A     		ldr	r2, .L9
  82              	.LVL9:
  83              		.loc 1 32 1 view .LVU20
  84 0024 D05C     		ldrb	r0, [r2, r3]	@ zero_extendqisi2
  85 0026 5DF8044B 		ldr	r4, [sp], #4
  86              	.LCFI1:
  87              		.cfi_restore 4
  88              		.cfi_def_cfa_offset 0
  89 002a 7047     		bx	lr
  90              	.LVL10:
  91              	.L6:
  31:Src/utils.cpp **** }
  92              		.loc 1 31 5 is_stmt 1 view .LVU21
  93              		.loc 1 32 1 is_stmt 0 view .LVU22
  94 002c 014A     		ldr	r2, .L9
  95              	.LVL11:
  96              		.loc 1 32 1 view .LVU23
  97 002e D05C     		ldrb	r0, [r2, r3]	@ zero_extendqisi2
  98              	.LVL12:
  99              		.loc 1 32 1 view .LVU24
 100 0030 7047     		bx	lr
 101              	.L10:
 102 0032 00BF     		.align	2
 103              	.L9:
 104 0034 00000000 		.word	.LANCHOR0
 105              		.cfi_endproc
 106              	.LFE2995:
 108              		.section	.text.SVM,"ax",%progbits
 109              		.align	1
 110              		.global	SVM
 111              		.syntax unified
 112              		.thumb
 113              		.thumb_func
 114              		.fpu fpv4-sp-d16
 116              	SVM:
 117              	.LVL13:
 118              	.LFB2996:
  33:Src/utils.cpp **** 
  34:Src/utils.cpp **** int SVM(float alpha, float beta, float* tA, float* tB, float* tC) {
 119              		.loc 1 34 67 is_stmt 1 view -0
 120              		.cfi_startproc
 121              		@ args = 0, pretend = 0, frame = 0
 122              		@ frame_needed = 0, uses_anonymous_args = 0
 123              		@ link register save eliminated.
  35:Src/utils.cpp ****     int Sextant;
 124              		.loc 1 35 5 view .LVU26
  36:Src/utils.cpp **** 
  37:Src/utils.cpp ****     if (beta >= 0.0f) {
 125              		.loc 1 37 5 view .LVU27
 126 0000 F5EEC00A 		vcmpe.f32	s1, #0
 127 0004 F1EE10FA 		vmrs	APSR_nzcv, FPSCR
 128 0008 4FDB     		blt	.L45
  38:Src/utils.cpp ****         if (alpha >= 0.0f) {
 129              		.loc 1 38 9 view .LVU28
ARM GAS  /tmp/ccBip7Dy.s 			page 4


 130 000a B5EEC00A 		vcmpe.f32	s0, #0
 131 000e F1EE10FA 		vmrs	APSR_nzcv, FPSCR
 132 0012 24DB     		blt	.L46
  39:Src/utils.cpp ****             // quadrant I
  40:Src/utils.cpp ****             if (one_by_sqrt3 * beta > alpha)
 133              		.loc 1 40 13 view .LVU29
 134              		.loc 1 40 30 is_stmt 0 view .LVU30
 135 0014 DFED887A 		vldr.32	s15, .L54
 136 0018 60EEA77A 		vmul.f32	s15, s1, s15
 137              		.loc 1 40 13 view .LVU31
 138 001c F4EEC07A 		vcmpe.f32	s15, s0
 139 0020 F1EE10FA 		vmrs	APSR_nzcv, FPSCR
 140 0024 00F39380 		bgt	.L16
  41:Src/utils.cpp ****                 Sextant = 2;  // sextant v2-v3
  42:Src/utils.cpp ****             else
  43:Src/utils.cpp ****                 Sextant = 1;  // sextant v1-v2
 141              		.loc 1 43 17 is_stmt 1 view .LVU32
 142              	.LVL14:
  44:Src/utils.cpp **** 
  45:Src/utils.cpp ****         } else {
  46:Src/utils.cpp ****             // quadrant II
  47:Src/utils.cpp ****             if (-one_by_sqrt3 * beta > alpha)
  48:Src/utils.cpp ****                 Sextant = 3;  // sextant v3-v4
  49:Src/utils.cpp ****             else
  50:Src/utils.cpp ****                 Sextant = 2;  // sextant v2-v3
  51:Src/utils.cpp ****         }
  52:Src/utils.cpp ****     } else {
  53:Src/utils.cpp ****         if (alpha >= 0.0f) {
  54:Src/utils.cpp ****             // quadrant IV
  55:Src/utils.cpp ****             if (-one_by_sqrt3 * beta > alpha)
  56:Src/utils.cpp ****                 Sextant = 5;  // sextant v5-v6
  57:Src/utils.cpp ****             else
  58:Src/utils.cpp ****                 Sextant = 6;  // sextant v6-v1
  59:Src/utils.cpp ****         } else {
  60:Src/utils.cpp ****             // quadrant III
  61:Src/utils.cpp ****             if (one_by_sqrt3 * beta > alpha)
  62:Src/utils.cpp ****                 Sextant = 4;  // sextant v4-v5
  63:Src/utils.cpp ****             else
  64:Src/utils.cpp ****                 Sextant = 5;  // sextant v5-v6
  65:Src/utils.cpp ****         }
  66:Src/utils.cpp ****     }
  67:Src/utils.cpp **** 
  68:Src/utils.cpp ****     switch (Sextant) {
 143              		.loc 1 68 5 view .LVU33
 144              	.LBB22:
  69:Src/utils.cpp ****         // sextant v1-v2
  70:Src/utils.cpp ****         case 1: {
 145              		.loc 1 70 9 view .LVU34
 146              		.loc 1 70 17 view .LVU35
 147              	.LBB23:
  71:Src/utils.cpp ****             // Vector on-times
  72:Src/utils.cpp ****             float t1 = alpha - one_by_sqrt3 * beta;
 148              		.loc 1 72 13 view .LVU36
 149              		.loc 1 72 19 is_stmt 0 view .LVU37
 150 0028 30EE670A 		vsub.f32	s0, s0, s15
 151              	.LVL15:
  73:Src/utils.cpp ****             float t2 = two_by_sqrt3 * beta;
ARM GAS  /tmp/ccBip7Dy.s 			page 5


 152              		.loc 1 73 13 is_stmt 1 view .LVU38
 153              		.loc 1 73 19 is_stmt 0 view .LVU39
 154 002c DFED837A 		vldr.32	s15, .L54+4
 155 0030 60EEA70A 		vmul.f32	s1, s1, s15
 156              	.LVL16:
  74:Src/utils.cpp **** 
  75:Src/utils.cpp ****             // PWM timings
  76:Src/utils.cpp ****             *tC = (1.0f - t1 - t2) * 0.5f;
 157              		.loc 1 76 13 is_stmt 1 view .LVU40
 158              		.loc 1 76 25 is_stmt 0 view .LVU41
 159 0034 F7EE007A 		vmov.f32	s15, #1.0e+0
 160 0038 77EEC07A 		vsub.f32	s15, s15, s0
 161              		.loc 1 76 30 view .LVU42
 162 003c 77EEE07A 		vsub.f32	s15, s15, s1
 163              		.loc 1 76 36 view .LVU43
 164 0040 B6EE007A 		vmov.f32	s14, #5.0e-1
 165 0044 67EE877A 		vmul.f32	s15, s15, s14
 166              		.loc 1 76 17 view .LVU44
 167 0048 C2ED007A 		vstr.32	s15, [r2]
  77:Src/utils.cpp ****             *tB = *tC + t2;
 168              		.loc 1 77 13 is_stmt 1 view .LVU45
 169              		.loc 1 77 23 is_stmt 0 view .LVU46
 170 004c 77EEA00A 		vadd.f32	s1, s15, s1
 171              	.LVL17:
 172              		.loc 1 77 17 view .LVU47
 173 0050 C1ED000A 		vstr.32	s1, [r1]
  78:Src/utils.cpp ****             *tA = *tB + t1;
 174              		.loc 1 78 13 is_stmt 1 view .LVU48
 175              		.loc 1 78 23 is_stmt 0 view .LVU49
 176 0054 70EE800A 		vadd.f32	s1, s1, s0
 177              		.loc 1 78 17 view .LVU50
 178 0058 C0ED000A 		vstr.32	s1, [r0]
 179              	.LBE23:
  79:Src/utils.cpp ****         } break;
 180              		.loc 1 79 11 is_stmt 1 view .LVU51
 181 005c 93E0     		b	.L17
 182              	.LVL18:
 183              	.L46:
 184              		.loc 1 79 11 is_stmt 0 view .LVU52
 185              	.LBE22:
  47:Src/utils.cpp ****                 Sextant = 3;  // sextant v3-v4
 186              		.loc 1 47 13 is_stmt 1 view .LVU53
  47:Src/utils.cpp ****                 Sextant = 3;  // sextant v3-v4
 187              		.loc 1 47 31 is_stmt 0 view .LVU54
 188 005e DFED787A 		vldr.32	s15, .L54+8
 189 0062 60EEA77A 		vmul.f32	s15, s1, s15
  47:Src/utils.cpp ****                 Sextant = 3;  // sextant v3-v4
 190              		.loc 1 47 13 view .LVU55
 191 0066 F4EEC07A 		vcmpe.f32	s15, s0
 192 006a F1EE10FA 		vmrs	APSR_nzcv, FPSCR
 193 006e 6EDD     		ble	.L16
 194              	.LVL19:
  68:Src/utils.cpp ****         // sextant v1-v2
 195              		.loc 1 68 5 is_stmt 1 view .LVU56
 196              	.LBB29:
  80:Src/utils.cpp **** 
  81:Src/utils.cpp ****         // sextant v2-v3
ARM GAS  /tmp/ccBip7Dy.s 			page 6


  82:Src/utils.cpp ****         case 2: {
  83:Src/utils.cpp ****             // Vector on-times
  84:Src/utils.cpp ****             float t2 = alpha + one_by_sqrt3 * beta;
  85:Src/utils.cpp ****             float t3 = -alpha + one_by_sqrt3 * beta;
  86:Src/utils.cpp **** 
  87:Src/utils.cpp ****             // PWM timings
  88:Src/utils.cpp ****             *tC = (1.0f - t2 - t3) * 0.5f;
  89:Src/utils.cpp ****             *tA = *tC + t2;
  90:Src/utils.cpp ****             *tB = *tA + t3;
  91:Src/utils.cpp ****         } break;
  92:Src/utils.cpp **** 
  93:Src/utils.cpp ****         // sextant v3-v4
  94:Src/utils.cpp ****         case 3: {
 197              		.loc 1 94 9 view .LVU57
 198              		.loc 1 94 17 view .LVU58
 199              	.LBB24:
  95:Src/utils.cpp ****             // Vector on-times
  96:Src/utils.cpp ****             float t3 = two_by_sqrt3 * beta;
 200              		.loc 1 96 13 view .LVU59
 201              		.loc 1 96 19 is_stmt 0 view .LVU60
 202 0070 DFED727A 		vldr.32	s15, .L54+4
 203 0074 60EEA77A 		vmul.f32	s15, s1, s15
 204              	.LVL20:
  97:Src/utils.cpp ****             float t4 = -alpha - one_by_sqrt3 * beta;
 205              		.loc 1 97 13 is_stmt 1 view .LVU61
 206              		.loc 1 97 19 is_stmt 0 view .LVU62
 207 0078 9FED6F7A 		vldr.32	s14, .L54
 208 007c 10EEC70A 		vnmla.f32	s0, s1, s14
 209              	.LVL21:
  98:Src/utils.cpp **** 
  99:Src/utils.cpp ****             // PWM timings
 100:Src/utils.cpp ****             *tA = (1.0f - t3 - t4) * 0.5f;
 210              		.loc 1 100 13 is_stmt 1 view .LVU63
 211              		.loc 1 100 25 is_stmt 0 view .LVU64
 212 0080 F7EE000A 		vmov.f32	s1, #1.0e+0
 213              	.LVL22:
 214              		.loc 1 100 25 view .LVU65
 215 0084 70EEE70A 		vsub.f32	s1, s1, s15
 216              		.loc 1 100 30 view .LVU66
 217 0088 70EEC00A 		vsub.f32	s1, s1, s0
 218              		.loc 1 100 36 view .LVU67
 219 008c B6EE007A 		vmov.f32	s14, #5.0e-1
 220 0090 60EE870A 		vmul.f32	s1, s1, s14
 221              		.loc 1 100 17 view .LVU68
 222 0094 C0ED000A 		vstr.32	s1, [r0]
 101:Src/utils.cpp ****             *tC = *tA + t4;
 223              		.loc 1 101 13 is_stmt 1 view .LVU69
 224              		.loc 1 101 23 is_stmt 0 view .LVU70
 225 0098 30EE800A 		vadd.f32	s0, s1, s0
 226              	.LVL23:
 227              		.loc 1 101 17 view .LVU71
 228 009c 82ED000A 		vstr.32	s0, [r2]
 102:Src/utils.cpp ****             *tB = *tC + t3;
 229              		.loc 1 102 13 is_stmt 1 view .LVU72
 230              		.loc 1 102 23 is_stmt 0 view .LVU73
 231 00a0 30EE270A 		vadd.f32	s0, s0, s15
 232              		.loc 1 102 17 view .LVU74
ARM GAS  /tmp/ccBip7Dy.s 			page 7


 233 00a4 81ED000A 		vstr.32	s0, [r1]
 234              	.LBE24:
 103:Src/utils.cpp ****         } break;
 235              		.loc 1 103 11 is_stmt 1 view .LVU75
 236 00a8 6DE0     		b	.L17
 237              	.LVL24:
 238              	.L45:
 239              		.loc 1 103 11 is_stmt 0 view .LVU76
 240              	.LBE29:
  53:Src/utils.cpp ****             // quadrant IV
 241              		.loc 1 53 9 is_stmt 1 view .LVU77
 242 00aa B5EEC00A 		vcmpe.f32	s0, #0
 243 00ae F1EE10FA 		vmrs	APSR_nzcv, FPSCR
 244 00b2 28DB     		blt	.L47
  55:Src/utils.cpp ****                 Sextant = 5;  // sextant v5-v6
 245              		.loc 1 55 13 view .LVU78
  55:Src/utils.cpp ****                 Sextant = 5;  // sextant v5-v6
 246              		.loc 1 55 31 is_stmt 0 view .LVU79
 247 00b4 DFED627A 		vldr.32	s15, .L54+8
 248 00b8 60EEA77A 		vmul.f32	s15, s1, s15
  55:Src/utils.cpp ****                 Sextant = 5;  // sextant v5-v6
 249              		.loc 1 55 13 view .LVU80
 250 00bc F4EEC07A 		vcmpe.f32	s15, s0
 251 00c0 F1EE10FA 		vmrs	APSR_nzcv, FPSCR
 252 00c4 00F38980 		bgt	.L21
  58:Src/utils.cpp ****         } else {
 253              		.loc 1 58 17 is_stmt 1 view .LVU81
 254              	.LVL25:
  68:Src/utils.cpp ****         // sextant v1-v2
 255              		.loc 1 68 5 view .LVU82
 256              	.LBB30:
 104:Src/utils.cpp **** 
 105:Src/utils.cpp ****         // sextant v4-v5
 106:Src/utils.cpp ****         case 4: {
 107:Src/utils.cpp ****             // Vector on-times
 108:Src/utils.cpp ****             float t4 = -alpha + one_by_sqrt3 * beta;
 109:Src/utils.cpp ****             float t5 = -two_by_sqrt3 * beta;
 110:Src/utils.cpp **** 
 111:Src/utils.cpp ****             // PWM timings
 112:Src/utils.cpp ****             *tA = (1.0f - t4 - t5) * 0.5f;
 113:Src/utils.cpp ****             *tB = *tA + t4;
 114:Src/utils.cpp ****             *tC = *tB + t5;
 115:Src/utils.cpp ****         } break;
 116:Src/utils.cpp **** 
 117:Src/utils.cpp ****         // sextant v5-v6
 118:Src/utils.cpp ****         case 5: {
 119:Src/utils.cpp ****             // Vector on-times
 120:Src/utils.cpp ****             float t5 = -alpha - one_by_sqrt3 * beta;
 121:Src/utils.cpp ****             float t6 = alpha - one_by_sqrt3 * beta;
 122:Src/utils.cpp **** 
 123:Src/utils.cpp ****             // PWM timings
 124:Src/utils.cpp ****             *tB = (1.0f - t5 - t6) * 0.5f;
 125:Src/utils.cpp ****             *tA = *tB + t6;
 126:Src/utils.cpp ****             *tC = *tA + t5;
 127:Src/utils.cpp ****         } break;
 128:Src/utils.cpp **** 
 129:Src/utils.cpp ****         // sextant v6-v1
ARM GAS  /tmp/ccBip7Dy.s 			page 8


 130:Src/utils.cpp ****         case 6: {
 257              		.loc 1 130 9 view .LVU83
 258              		.loc 1 130 17 view .LVU84
 259              	.LBB25:
 131:Src/utils.cpp ****             // Vector on-times
 132:Src/utils.cpp ****             float t6 = -two_by_sqrt3 * beta;
 260              		.loc 1 132 13 view .LVU85
 261              		.loc 1 132 19 is_stmt 0 view .LVU86
 262 00c8 DFED5E7A 		vldr.32	s15, .L54+12
 263 00cc 20EEA77A 		vmul.f32	s14, s1, s15
 264              	.LVL26:
 133:Src/utils.cpp ****             float t1 = alpha + one_by_sqrt3 * beta;
 265              		.loc 1 133 13 is_stmt 1 view .LVU87
 266              		.loc 1 133 45 is_stmt 0 view .LVU88
 267 00d0 DFED597A 		vldr.32	s15, .L54
 268 00d4 60EEA77A 		vmul.f32	s15, s1, s15
 269              		.loc 1 133 19 view .LVU89
 270 00d8 77EE800A 		vadd.f32	s1, s15, s0
 271              	.LVL27:
 134:Src/utils.cpp **** 
 135:Src/utils.cpp ****             // PWM timings
 136:Src/utils.cpp ****             *tB = (1.0f - t6 - t1) * 0.5f;
 272              		.loc 1 136 13 is_stmt 1 view .LVU90
 273              		.loc 1 136 25 is_stmt 0 view .LVU91
 274 00dc F7EE007A 		vmov.f32	s15, #1.0e+0
 275 00e0 77EEC77A 		vsub.f32	s15, s15, s14
 276              		.loc 1 136 30 view .LVU92
 277 00e4 77EEE07A 		vsub.f32	s15, s15, s1
 278              		.loc 1 136 36 view .LVU93
 279 00e8 F6EE006A 		vmov.f32	s13, #5.0e-1
 280 00ec 67EEA67A 		vmul.f32	s15, s15, s13
 281              		.loc 1 136 17 view .LVU94
 282 00f0 C1ED007A 		vstr.32	s15, [r1]
 137:Src/utils.cpp ****             *tC = *tB + t6;
 283              		.loc 1 137 13 is_stmt 1 view .LVU95
 284              		.loc 1 137 23 is_stmt 0 view .LVU96
 285 00f4 77EE877A 		vadd.f32	s15, s15, s14
 286              		.loc 1 137 17 view .LVU97
 287 00f8 C2ED007A 		vstr.32	s15, [r2]
 138:Src/utils.cpp ****             *tA = *tC + t1;
 288              		.loc 1 138 13 is_stmt 1 view .LVU98
 289              		.loc 1 138 23 is_stmt 0 view .LVU99
 290 00fc 77EEA00A 		vadd.f32	s1, s15, s1
 291              	.LVL28:
 292              		.loc 1 138 17 view .LVU100
 293 0100 C0ED000A 		vstr.32	s1, [r0]
 294              	.LBE25:
 139:Src/utils.cpp ****         } break;
 295              		.loc 1 139 11 is_stmt 1 view .LVU101
 296 0104 3FE0     		b	.L17
 297              	.LVL29:
 298              	.L47:
 299              		.loc 1 139 11 is_stmt 0 view .LVU102
 300              	.LBE30:
  61:Src/utils.cpp ****                 Sextant = 4;  // sextant v4-v5
 301              		.loc 1 61 13 is_stmt 1 view .LVU103
  61:Src/utils.cpp ****                 Sextant = 4;  // sextant v4-v5
ARM GAS  /tmp/ccBip7Dy.s 			page 9


 302              		.loc 1 61 30 is_stmt 0 view .LVU104
 303 0106 DFED4C7A 		vldr.32	s15, .L54
 304 010a 60EEA77A 		vmul.f32	s15, s1, s15
  61:Src/utils.cpp ****                 Sextant = 4;  // sextant v4-v5
 305              		.loc 1 61 13 view .LVU105
 306 010e F4EEC07A 		vcmpe.f32	s15, s0
 307 0112 F1EE10FA 		vmrs	APSR_nzcv, FPSCR
 308 0116 60DD     		ble	.L21
 309              	.LVL30:
  68:Src/utils.cpp ****         // sextant v1-v2
 310              		.loc 1 68 5 is_stmt 1 view .LVU106
 311              	.LBB31:
 106:Src/utils.cpp ****             // Vector on-times
 312              		.loc 1 106 9 view .LVU107
 106:Src/utils.cpp ****             // Vector on-times
 313              		.loc 1 106 17 view .LVU108
 314              	.LBB26:
 108:Src/utils.cpp ****             float t5 = -two_by_sqrt3 * beta;
 315              		.loc 1 108 13 view .LVU109
 108:Src/utils.cpp ****             float t5 = -two_by_sqrt3 * beta;
 316              		.loc 1 108 19 is_stmt 0 view .LVU110
 317 0118 77EEC07A 		vsub.f32	s15, s15, s0
 318              	.LVL31:
 109:Src/utils.cpp **** 
 319              		.loc 1 109 13 is_stmt 1 view .LVU111
 109:Src/utils.cpp **** 
 320              		.loc 1 109 19 is_stmt 0 view .LVU112
 321 011c 9FED497A 		vldr.32	s14, .L54+12
 322 0120 60EE870A 		vmul.f32	s1, s1, s14
 323              	.LVL32:
 112:Src/utils.cpp ****             *tB = *tA + t4;
 324              		.loc 1 112 13 is_stmt 1 view .LVU113
 112:Src/utils.cpp ****             *tB = *tA + t4;
 325              		.loc 1 112 25 is_stmt 0 view .LVU114
 326 0124 B7EE000A 		vmov.f32	s0, #1.0e+0
 327              	.LVL33:
 112:Src/utils.cpp ****             *tB = *tA + t4;
 328              		.loc 1 112 25 view .LVU115
 329 0128 30EE670A 		vsub.f32	s0, s0, s15
 112:Src/utils.cpp ****             *tB = *tA + t4;
 330              		.loc 1 112 30 view .LVU116
 331 012c 30EE600A 		vsub.f32	s0, s0, s1
 112:Src/utils.cpp ****             *tB = *tA + t4;
 332              		.loc 1 112 36 view .LVU117
 333 0130 B6EE007A 		vmov.f32	s14, #5.0e-1
 334 0134 20EE070A 		vmul.f32	s0, s0, s14
 112:Src/utils.cpp ****             *tB = *tA + t4;
 335              		.loc 1 112 17 view .LVU118
 336 0138 80ED000A 		vstr.32	s0, [r0]
 113:Src/utils.cpp ****             *tC = *tB + t5;
 337              		.loc 1 113 13 is_stmt 1 view .LVU119
 113:Src/utils.cpp ****             *tC = *tB + t5;
 338              		.loc 1 113 23 is_stmt 0 view .LVU120
 339 013c 30EE270A 		vadd.f32	s0, s0, s15
 113:Src/utils.cpp ****             *tC = *tB + t5;
 340              		.loc 1 113 17 view .LVU121
 341 0140 81ED000A 		vstr.32	s0, [r1]
ARM GAS  /tmp/ccBip7Dy.s 			page 10


 114:Src/utils.cpp ****         } break;
 342              		.loc 1 114 13 is_stmt 1 view .LVU122
 114:Src/utils.cpp ****         } break;
 343              		.loc 1 114 23 is_stmt 0 view .LVU123
 344 0144 70EE200A 		vadd.f32	s1, s0, s1
 345              	.LVL34:
 114:Src/utils.cpp ****         } break;
 346              		.loc 1 114 17 view .LVU124
 347 0148 C2ED000A 		vstr.32	s1, [r2]
 348              	.LBE26:
 115:Src/utils.cpp **** 
 349              		.loc 1 115 11 is_stmt 1 view .LVU125
 350 014c 1BE0     		b	.L17
 351              	.LVL35:
 352              	.L16:
  82:Src/utils.cpp ****             // Vector on-times
 353              		.loc 1 82 9 view .LVU126
  82:Src/utils.cpp ****             // Vector on-times
 354              		.loc 1 82 17 view .LVU127
 355              	.LBB27:
  84:Src/utils.cpp ****             float t3 = -alpha + one_by_sqrt3 * beta;
 356              		.loc 1 84 13 view .LVU128
  84:Src/utils.cpp ****             float t3 = -alpha + one_by_sqrt3 * beta;
 357              		.loc 1 84 45 is_stmt 0 view .LVU129
 358 014e DFED3A7A 		vldr.32	s15, .L54
 359 0152 60EEA70A 		vmul.f32	s1, s1, s15
 360              	.LVL36:
  84:Src/utils.cpp ****             float t3 = -alpha + one_by_sqrt3 * beta;
 361              		.loc 1 84 19 view .LVU130
 362 0156 30EE807A 		vadd.f32	s14, s1, s0
 363              	.LVL37:
  85:Src/utils.cpp **** 
 364              		.loc 1 85 13 is_stmt 1 view .LVU131
  85:Src/utils.cpp **** 
 365              		.loc 1 85 19 is_stmt 0 view .LVU132
 366 015a 70EEC00A 		vsub.f32	s1, s1, s0
 367              	.LVL38:
  88:Src/utils.cpp ****             *tA = *tC + t2;
 368              		.loc 1 88 13 is_stmt 1 view .LVU133
  88:Src/utils.cpp ****             *tA = *tC + t2;
 369              		.loc 1 88 25 is_stmt 0 view .LVU134
 370 015e F7EE007A 		vmov.f32	s15, #1.0e+0
 371 0162 77EEC77A 		vsub.f32	s15, s15, s14
  88:Src/utils.cpp ****             *tA = *tC + t2;
 372              		.loc 1 88 30 view .LVU135
 373 0166 77EEE07A 		vsub.f32	s15, s15, s1
  88:Src/utils.cpp ****             *tA = *tC + t2;
 374              		.loc 1 88 36 view .LVU136
 375 016a F6EE006A 		vmov.f32	s13, #5.0e-1
 376 016e 67EEA67A 		vmul.f32	s15, s15, s13
  88:Src/utils.cpp ****             *tA = *tC + t2;
 377              		.loc 1 88 17 view .LVU137
 378 0172 C2ED007A 		vstr.32	s15, [r2]
  89:Src/utils.cpp ****             *tB = *tA + t3;
 379              		.loc 1 89 13 is_stmt 1 view .LVU138
  89:Src/utils.cpp ****             *tB = *tA + t3;
 380              		.loc 1 89 23 is_stmt 0 view .LVU139
ARM GAS  /tmp/ccBip7Dy.s 			page 11


 381 0176 77EE877A 		vadd.f32	s15, s15, s14
  89:Src/utils.cpp ****             *tB = *tA + t3;
 382              		.loc 1 89 17 view .LVU140
 383 017a C0ED007A 		vstr.32	s15, [r0]
  90:Src/utils.cpp ****         } break;
 384              		.loc 1 90 13 is_stmt 1 view .LVU141
  90:Src/utils.cpp ****         } break;
 385              		.loc 1 90 23 is_stmt 0 view .LVU142
 386 017e 77EEA00A 		vadd.f32	s1, s15, s1
 387              	.LVL39:
  90:Src/utils.cpp ****         } break;
 388              		.loc 1 90 17 view .LVU143
 389 0182 C1ED000A 		vstr.32	s1, [r1]
 390              	.LBE27:
  91:Src/utils.cpp **** 
 391              		.loc 1 91 11 is_stmt 1 view .LVU144
 392              	.LVL40:
 393              	.L17:
  91:Src/utils.cpp **** 
 394              		.loc 1 91 11 is_stmt 0 view .LVU145
 395              	.LBE31:
 140:Src/utils.cpp ****     }
 141:Src/utils.cpp **** 
 142:Src/utils.cpp ****     // if any of the results becomes NaN, result_valid will evaluate to false
 143:Src/utils.cpp ****     int result_valid =
 396              		.loc 1 143 5 is_stmt 1 view .LVU146
 144:Src/utils.cpp ****         *tA >= 0.0f && *tA <= 1.0f && *tB >= 0.0f && *tB <= 1.0f && *tC >= 0.0f && *tC <= 1.0f;
 397              		.loc 1 144 9 is_stmt 0 view .LVU147
 398 0186 D0ED007A 		vldr.32	s15, [r0]
 399              		.loc 1 144 81 view .LVU148
 400 018a F5EEC07A 		vcmpe.f32	s15, #0
 401 018e F1EE10FA 		vmrs	APSR_nzcv, FPSCR
 402 0192 41DB     		blt	.L49
 403              		.loc 1 144 21 discriminator 1 view .LVU149
 404 0194 B7EE007A 		vmov.f32	s14, #1.0e+0
 405 0198 F4EEC77A 		vcmpe.f32	s15, s14
 406 019c F1EE10FA 		vmrs	APSR_nzcv, FPSCR
 407 01a0 3DD8     		bhi	.L50
 408              		.loc 1 144 39 discriminator 3 view .LVU150
 409 01a2 D1ED007A 		vldr.32	s15, [r1]
 410              		.loc 1 144 36 discriminator 3 view .LVU151
 411 01a6 F5EEC07A 		vcmpe.f32	s15, #0
 412 01aa F1EE10FA 		vmrs	APSR_nzcv, FPSCR
 413 01ae 39DB     		blt	.L51
 414              		.loc 1 144 51 discriminator 5 view .LVU152
 415 01b0 F4EEC77A 		vcmpe.f32	s15, s14
 416 01b4 F1EE10FA 		vmrs	APSR_nzcv, FPSCR
 417 01b8 37D8     		bhi	.L52
 418              		.loc 1 144 69 discriminator 7 view .LVU153
 419 01ba D2ED007A 		vldr.32	s15, [r2]
 420              		.loc 1 144 66 discriminator 7 view .LVU154
 421 01be F5EEC07A 		vcmpe.f32	s15, #0
 422 01c2 F1EE10FA 		vmrs	APSR_nzcv, FPSCR
 423 01c6 33DB     		blt	.L53
 424              		.loc 1 144 81 discriminator 9 view .LVU155
 425 01c8 F4EEC77A 		vcmpe.f32	s15, s14
 426 01cc F1EE10FA 		vmrs	APSR_nzcv, FPSCR
ARM GAS  /tmp/ccBip7Dy.s 			page 12


 427 01d0 8CBF     		ite	hi
 428 01d2 4FF0FF30 		movhi	r0, #-1
 429              	.LVL41:
 430              		.loc 1 144 81 discriminator 9 view .LVU156
 431 01d6 0020     		movls	r0, #0
 432 01d8 7047     		bx	lr
 433              	.LVL42:
 434              	.L21:
 435              	.LBB32:
 118:Src/utils.cpp ****             // Vector on-times
 436              		.loc 1 118 9 is_stmt 1 view .LVU157
 118:Src/utils.cpp ****             // Vector on-times
 437              		.loc 1 118 17 view .LVU158
 438              	.LBB28:
 120:Src/utils.cpp ****             float t6 = alpha - one_by_sqrt3 * beta;
 439              		.loc 1 120 13 view .LVU159
 120:Src/utils.cpp ****             float t6 = alpha - one_by_sqrt3 * beta;
 440              		.loc 1 120 46 is_stmt 0 view .LVU160
 441 01da DFED177A 		vldr.32	s15, .L54
 442 01de 60EEA77A 		vmul.f32	s15, s1, s15
 120:Src/utils.cpp ****             float t6 = alpha - one_by_sqrt3 * beta;
 443              		.loc 1 120 24 view .LVU161
 444 01e2 F1EE400A 		vneg.f32	s1, s0
 445              	.LVL43:
 120:Src/utils.cpp ****             float t6 = alpha - one_by_sqrt3 * beta;
 446              		.loc 1 120 19 view .LVU162
 447 01e6 30EEE77A 		vsub.f32	s14, s1, s15
 448              	.LVL44:
 121:Src/utils.cpp **** 
 449              		.loc 1 121 13 is_stmt 1 view .LVU163
 121:Src/utils.cpp **** 
 450              		.loc 1 121 19 is_stmt 0 view .LVU164
 451 01ea 70EE670A 		vsub.f32	s1, s0, s15
 452              	.LVL45:
 124:Src/utils.cpp ****             *tA = *tB + t6;
 453              		.loc 1 124 13 is_stmt 1 view .LVU165
 124:Src/utils.cpp ****             *tA = *tB + t6;
 454              		.loc 1 124 25 is_stmt 0 view .LVU166
 455 01ee F7EE007A 		vmov.f32	s15, #1.0e+0
 456 01f2 77EEC77A 		vsub.f32	s15, s15, s14
 124:Src/utils.cpp ****             *tA = *tB + t6;
 457              		.loc 1 124 30 view .LVU167
 458 01f6 77EEE07A 		vsub.f32	s15, s15, s1
 124:Src/utils.cpp ****             *tA = *tB + t6;
 459              		.loc 1 124 36 view .LVU168
 460 01fa B6EE000A 		vmov.f32	s0, #5.0e-1
 461              	.LVL46:
 124:Src/utils.cpp ****             *tA = *tB + t6;
 462              		.loc 1 124 36 view .LVU169
 463 01fe 67EE807A 		vmul.f32	s15, s15, s0
 124:Src/utils.cpp ****             *tA = *tB + t6;
 464              		.loc 1 124 17 view .LVU170
 465 0202 C1ED007A 		vstr.32	s15, [r1]
 125:Src/utils.cpp ****             *tC = *tA + t5;
 466              		.loc 1 125 13 is_stmt 1 view .LVU171
 125:Src/utils.cpp ****             *tC = *tA + t5;
 467              		.loc 1 125 23 is_stmt 0 view .LVU172
ARM GAS  /tmp/ccBip7Dy.s 			page 13


 468 0206 77EEA00A 		vadd.f32	s1, s15, s1
 469              	.LVL47:
 125:Src/utils.cpp ****             *tC = *tA + t5;
 470              		.loc 1 125 17 view .LVU173
 471 020a C0ED000A 		vstr.32	s1, [r0]
 126:Src/utils.cpp ****         } break;
 472              		.loc 1 126 13 is_stmt 1 view .LVU174
 126:Src/utils.cpp ****         } break;
 473              		.loc 1 126 23 is_stmt 0 view .LVU175
 474 020e 70EE870A 		vadd.f32	s1, s1, s14
 126:Src/utils.cpp ****         } break;
 475              		.loc 1 126 17 view .LVU176
 476 0212 C2ED000A 		vstr.32	s1, [r2]
 477              	.LBE28:
 127:Src/utils.cpp **** 
 478              		.loc 1 127 11 is_stmt 1 view .LVU177
 479 0216 B6E7     		b	.L17
 480              	.LVL48:
 481              	.L49:
 127:Src/utils.cpp **** 
 482              		.loc 1 127 11 is_stmt 0 view .LVU178
 483              	.LBE32:
 145:Src/utils.cpp ****     return result_valid ? 0 : -1;
 484              		.loc 1 145 25 view .LVU179
 485 0218 4FF0FF30 		mov	r0, #-1
 486              	.LVL49:
 487              		.loc 1 145 25 view .LVU180
 488 021c 7047     		bx	lr
 489              	.LVL50:
 490              	.L50:
 491              		.loc 1 145 25 view .LVU181
 492 021e 4FF0FF30 		mov	r0, #-1
 493              	.LVL51:
 494              		.loc 1 145 25 view .LVU182
 495 0222 7047     		bx	lr
 496              	.LVL52:
 497              	.L51:
 498              		.loc 1 145 25 view .LVU183
 499 0224 4FF0FF30 		mov	r0, #-1
 500              	.LVL53:
 501              		.loc 1 145 25 view .LVU184
 502 0228 7047     		bx	lr
 503              	.LVL54:
 504              	.L52:
 505              		.loc 1 145 25 view .LVU185
 506 022a 4FF0FF30 		mov	r0, #-1
 507              	.LVL55:
 508              		.loc 1 145 25 view .LVU186
 509 022e 7047     		bx	lr
 510              	.LVL56:
 511              	.L53:
 512              		.loc 1 145 25 view .LVU187
 513 0230 4FF0FF30 		mov	r0, #-1
 514              	.LVL57:
 146:Src/utils.cpp **** }
 515              		.loc 1 146 1 view .LVU188
 516 0234 7047     		bx	lr
ARM GAS  /tmp/ccBip7Dy.s 			page 14


 517              	.L55:
 518 0236 00BF     		.align	2
 519              	.L54:
 520 0238 3ACD133F 		.word	1058262330
 521 023c 3ACD933F 		.word	1066650938
 522 0240 3ACD13BF 		.word	-1089221318
 523 0244 3ACD93BF 		.word	-1080832710
 524              		.cfi_endproc
 525              	.LFE2996:
 527              		.section	.text.fast_atan2,"ax",%progbits
 528              		.align	1
 529              		.global	fast_atan2
 530              		.syntax unified
 531              		.thumb
 532              		.thumb_func
 533              		.fpu fpv4-sp-d16
 535              	fast_atan2:
 536              	.LVL58:
 537              	.LFB2997:
 147:Src/utils.cpp **** 
 148:Src/utils.cpp **** 
 149:Src/utils.cpp **** // based on https://math.stackexchange.com/a/1105038/81278
 150:Src/utils.cpp **** float fast_atan2(float y, float x) {
 538              		.loc 1 150 36 is_stmt 1 view -0
 539              		.cfi_startproc
 540              		@ args = 0, pretend = 0, frame = 0
 541              		@ frame_needed = 0, uses_anonymous_args = 0
 542              		@ link register save eliminated.
 543              		.loc 1 150 36 is_stmt 0 view .LVU190
 544 0000 F0EE406A 		vmov.f32	s13, s0
 151:Src/utils.cpp ****     // a := min (|x|, |y|) / max (|x|, |y|)
 152:Src/utils.cpp ****     float abs_y = fabsf(y);
 545              		.loc 1 152 5 is_stmt 1 view .LVU191
 546              		.loc 1 152 11 is_stmt 0 view .LVU192
 547 0004 B0EEC07A 		vabs.f32	s14, s0
 548              	.LVL59:
 153:Src/utils.cpp ****     float abs_x = fabsf(x);
 549              		.loc 1 153 5 is_stmt 1 view .LVU193
 550              		.loc 1 153 11 is_stmt 0 view .LVU194
 551 0008 B0EEE06A 		vabs.f32	s12, s1
 552              	.LVL60:
 154:Src/utils.cpp ****     // inject FLT_MIN in denominator to avoid division by zero
 155:Src/utils.cpp ****     float a = MACRO_MIN(abs_x, abs_y) / (MACRO_MAX(abs_x, abs_y) + FLT_MIN);
 553              		.loc 1 155 5 is_stmt 1 view .LVU195
 554              		.loc 1 155 15 is_stmt 0 view .LVU196
 555 000c B4EEC67A 		vcmpe.f32	s14, s12
 556 0010 F1EE10FA 		vmrs	APSR_nzcv, FPSCR
 557 0014 54DC     		bgt	.L57
 558              		.loc 1 155 42 discriminator 4 view .LVU197
 559 0016 54BF     		ite	pl
 560 0018 F0EE477A 		vmovpl.f32	s15, s14
 561 001c F0EE467A 		vmovmi.f32	s15, s12
 562              		.loc 1 155 66 discriminator 4 view .LVU198
 563 0020 DFED385A 		vldr.32	s11, .L73
 564 0024 77EEA57A 		vadd.f32	s15, s15, s11
 565              		.loc 1 155 11 discriminator 4 view .LVU199
 566 0028 87EE270A 		vdiv.f32	s0, s14, s15
ARM GAS  /tmp/ccBip7Dy.s 			page 15


 567              	.LVL61:
 156:Src/utils.cpp ****     // s := a * a
 157:Src/utils.cpp ****     float s = a * a;
 568              		.loc 1 157 5 is_stmt 1 discriminator 4 view .LVU200
 569              		.loc 1 157 11 is_stmt 0 discriminator 4 view .LVU201
 570 002c 60EE005A 		vmul.f32	s11, s0, s0
 571              	.LVL62:
 158:Src/utils.cpp ****     // r := ((-0.0464964749 * s + 0.15931422) * s - 0.327622764) * s * a + a
 159:Src/utils.cpp ****     float r = ((-0.0464964749f * s + 0.15931422f) * s - 0.327622764f) * s * a + a;
 572              		.loc 1 159 5 is_stmt 1 discriminator 4 view .LVU202
 573              		.loc 1 159 32 is_stmt 0 discriminator 4 view .LVU203
 574 0030 DFED357A 		vldr.32	s15, .L73+4
 575 0034 65EEA77A 		vmul.f32	s15, s11, s15
 576              		.loc 1 159 36 discriminator 4 view .LVU204
 577 0038 9FED345A 		vldr.32	s10, .L73+8
 578 003c 77EE857A 		vadd.f32	s15, s15, s10
 579              		.loc 1 159 51 discriminator 4 view .LVU205
 580 0040 67EEA57A 		vmul.f32	s15, s15, s11
 581              		.loc 1 159 55 discriminator 4 view .LVU206
 582 0044 9FED325A 		vldr.32	s10, .L73+12
 583 0048 77EEC57A 		vsub.f32	s15, s15, s10
 584              		.loc 1 159 71 discriminator 4 view .LVU207
 585 004c 67EEA57A 		vmul.f32	s15, s15, s11
 586              		.loc 1 159 75 discriminator 4 view .LVU208
 587 0050 67EE807A 		vmul.f32	s15, s15, s0
 588              		.loc 1 159 11 discriminator 4 view .LVU209
 589 0054 37EE800A 		vadd.f32	s0, s15, s0
 590              	.LVL63:
 160:Src/utils.cpp ****     // if |y| > |x| then r := 1.57079637 - r
 161:Src/utils.cpp ****     if (abs_y > abs_x)
 591              		.loc 1 161 5 is_stmt 1 discriminator 4 view .LVU210
 592 0058 23DD     		ble	.L60
 593 005a 1EE0     		b	.L66
 594              	.LVL64:
 595              	.L72:
 162:Src/utils.cpp ****         r = 1.57079637f - r;
 163:Src/utils.cpp ****     // if x < 0 then r := 3.14159274 - r
 164:Src/utils.cpp ****     if (x < 0.0f)
 165:Src/utils.cpp ****         r = 3.14159274f - r;
 166:Src/utils.cpp ****     // if y < 0 then r := -r
 167:Src/utils.cpp ****     if (y < 0.0f)
 168:Src/utils.cpp ****         r = -r;
 596              		.loc 1 168 9 view .LVU211
 597              		.loc 1 168 11 is_stmt 0 view .LVU212
 598 005c B1EE400A 		vneg.f32	s0, s0
 599              	.LVL65:
 169:Src/utils.cpp **** 
 170:Src/utils.cpp ****     return r;
 600              		.loc 1 170 5 is_stmt 1 view .LVU213
 601              		.loc 1 170 12 is_stmt 0 view .LVU214
 602 0060 7047     		bx	lr
 603              	.LVL66:
 604              	.L67:
 155:Src/utils.cpp ****     // s := a * a
 605              		.loc 1 155 66 view .LVU215
 606 0062 DFED287A 		vldr.32	s15, .L73
 607 0066 76EE277A 		vadd.f32	s15, s12, s15
ARM GAS  /tmp/ccBip7Dy.s 			page 16


 155:Src/utils.cpp ****     // s := a * a
 608              		.loc 1 155 11 view .LVU216
 609 006a 86EE270A 		vdiv.f32	s0, s12, s15
 610              	.LVL67:
 157:Src/utils.cpp ****     // r := ((-0.0464964749 * s + 0.15931422) * s - 0.327622764) * s * a + a
 611              		.loc 1 157 5 is_stmt 1 view .LVU217
 157:Src/utils.cpp ****     // r := ((-0.0464964749 * s + 0.15931422) * s - 0.327622764) * s * a + a
 612              		.loc 1 157 11 is_stmt 0 view .LVU218
 613 006e 20EE007A 		vmul.f32	s14, s0, s0
 614              	.LVL68:
 159:Src/utils.cpp ****     // if |y| > |x| then r := 1.57079637 - r
 615              		.loc 1 159 5 is_stmt 1 view .LVU219
 159:Src/utils.cpp ****     // if |y| > |x| then r := 1.57079637 - r
 616              		.loc 1 159 32 is_stmt 0 view .LVU220
 617 0072 DFED257A 		vldr.32	s15, .L73+4
 618 0076 67EE277A 		vmul.f32	s15, s14, s15
 159:Src/utils.cpp ****     // if |y| > |x| then r := 1.57079637 - r
 619              		.loc 1 159 36 view .LVU221
 620 007a 9FED246A 		vldr.32	s12, .L73+8
 621              	.LVL69:
 159:Src/utils.cpp ****     // if |y| > |x| then r := 1.57079637 - r
 622              		.loc 1 159 36 view .LVU222
 623 007e 77EE867A 		vadd.f32	s15, s15, s12
 159:Src/utils.cpp ****     // if |y| > |x| then r := 1.57079637 - r
 624              		.loc 1 159 51 view .LVU223
 625 0082 67EE877A 		vmul.f32	s15, s15, s14
 159:Src/utils.cpp ****     // if |y| > |x| then r := 1.57079637 - r
 626              		.loc 1 159 55 view .LVU224
 627 0086 9FED226A 		vldr.32	s12, .L73+12
 628 008a 77EEC67A 		vsub.f32	s15, s15, s12
 159:Src/utils.cpp ****     // if |y| > |x| then r := 1.57079637 - r
 629              		.loc 1 159 71 view .LVU225
 630 008e 67EE877A 		vmul.f32	s15, s15, s14
 159:Src/utils.cpp ****     // if |y| > |x| then r := 1.57079637 - r
 631              		.loc 1 159 75 view .LVU226
 632 0092 67EE807A 		vmul.f32	s15, s15, s0
 159:Src/utils.cpp ****     // if |y| > |x| then r := 1.57079637 - r
 633              		.loc 1 159 11 view .LVU227
 634 0096 37EE800A 		vadd.f32	s0, s15, s0
 635              	.LVL70:
 161:Src/utils.cpp ****         r = 1.57079637f - r;
 636              		.loc 1 161 5 is_stmt 1 view .LVU228
 637              	.L66:
 162:Src/utils.cpp ****     // if x < 0 then r := 3.14159274 - r
 638              		.loc 1 162 9 view .LVU229
 162:Src/utils.cpp ****     // if x < 0 then r := 3.14159274 - r
 639              		.loc 1 162 11 is_stmt 0 view .LVU230
 640 009a DFED1E7A 		vldr.32	s15, .L73+16
 641 009e 37EEC00A 		vsub.f32	s0, s15, s0
 642              	.LVL71:
 643              	.L60:
 164:Src/utils.cpp ****         r = 3.14159274f - r;
 644              		.loc 1 164 5 is_stmt 1 view .LVU231
 645 00a2 F5EEC00A 		vcmpe.f32	s1, #0
 646 00a6 F1EE10FA 		vmrs	APSR_nzcv, FPSCR
 165:Src/utils.cpp ****     // if y < 0 then r := -r
 647              		.loc 1 165 9 view .LVU232
ARM GAS  /tmp/ccBip7Dy.s 			page 17


 165:Src/utils.cpp ****     // if y < 0 then r := -r
 648              		.loc 1 165 11 is_stmt 0 view .LVU233
 649 00aa 44BF     		itt	mi
 650 00ac DFED1A7A 		vldrmi.32	s15, .L73+20
 651 00b0 37EEC00A 		vsubmi.f32	s0, s15, s0
 652              	.LVL72:
 167:Src/utils.cpp ****         r = -r;
 653              		.loc 1 167 5 is_stmt 1 view .LVU234
 654 00b4 F5EEC06A 		vcmpe.f32	s13, #0
 655 00b8 F1EE10FA 		vmrs	APSR_nzcv, FPSCR
 656 00bc CED4     		bmi	.L72
 171:Src/utils.cpp **** }
 657              		.loc 1 171 1 is_stmt 0 view .LVU235
 658 00be 7047     		bx	lr
 659              	.LVL73:
 660              	.L57:
 155:Src/utils.cpp ****     // s := a * a
 661              		.loc 1 155 42 view .LVU236
 662 00c0 B4EEC67A 		vcmpe.f32	s14, s12
 663 00c4 F1EE10FA 		vmrs	APSR_nzcv, FPSCR
 664 00c8 CBD4     		bmi	.L67
 155:Src/utils.cpp ****     // s := a * a
 665              		.loc 1 155 66 view .LVU237
 666 00ca DFED0E7A 		vldr.32	s15, .L73
 667 00ce 37EE277A 		vadd.f32	s14, s14, s15
 668              	.LVL74:
 155:Src/utils.cpp ****     // s := a * a
 669              		.loc 1 155 11 view .LVU238
 670 00d2 86EE070A 		vdiv.f32	s0, s12, s14
 671              	.LVL75:
 157:Src/utils.cpp ****     // r := ((-0.0464964749 * s + 0.15931422) * s - 0.327622764) * s * a + a
 672              		.loc 1 157 5 is_stmt 1 view .LVU239
 157:Src/utils.cpp ****     // r := ((-0.0464964749 * s + 0.15931422) * s - 0.327622764) * s * a + a
 673              		.loc 1 157 11 is_stmt 0 view .LVU240
 674 00d6 20EE007A 		vmul.f32	s14, s0, s0
 675              	.LVL76:
 159:Src/utils.cpp ****     // if |y| > |x| then r := 1.57079637 - r
 676              		.loc 1 159 5 is_stmt 1 view .LVU241
 159:Src/utils.cpp ****     // if |y| > |x| then r := 1.57079637 - r
 677              		.loc 1 159 32 is_stmt 0 view .LVU242
 678 00da DFED0B7A 		vldr.32	s15, .L73+4
 679 00de 67EE277A 		vmul.f32	s15, s14, s15
 159:Src/utils.cpp ****     // if |y| > |x| then r := 1.57079637 - r
 680              		.loc 1 159 36 view .LVU243
 681 00e2 9FED0A6A 		vldr.32	s12, .L73+8
 682              	.LVL77:
 159:Src/utils.cpp ****     // if |y| > |x| then r := 1.57079637 - r
 683              		.loc 1 159 36 view .LVU244
 684 00e6 77EE867A 		vadd.f32	s15, s15, s12
 159:Src/utils.cpp ****     // if |y| > |x| then r := 1.57079637 - r
 685              		.loc 1 159 51 view .LVU245
 686 00ea 67EE877A 		vmul.f32	s15, s15, s14
 159:Src/utils.cpp ****     // if |y| > |x| then r := 1.57079637 - r
 687              		.loc 1 159 55 view .LVU246
 688 00ee 9FED086A 		vldr.32	s12, .L73+12
 689 00f2 77EEC67A 		vsub.f32	s15, s15, s12
 159:Src/utils.cpp ****     // if |y| > |x| then r := 1.57079637 - r
ARM GAS  /tmp/ccBip7Dy.s 			page 18


 690              		.loc 1 159 71 view .LVU247
 691 00f6 67EE877A 		vmul.f32	s15, s15, s14
 159:Src/utils.cpp ****     // if |y| > |x| then r := 1.57079637 - r
 692              		.loc 1 159 75 view .LVU248
 693 00fa 67EE807A 		vmul.f32	s15, s15, s0
 159:Src/utils.cpp ****     // if |y| > |x| then r := 1.57079637 - r
 694              		.loc 1 159 11 view .LVU249
 695 00fe 37EE800A 		vadd.f32	s0, s15, s0
 696              	.LVL78:
 161:Src/utils.cpp ****         r = 1.57079637f - r;
 697              		.loc 1 161 5 is_stmt 1 view .LVU250
 698 0102 CAE7     		b	.L66
 699              	.L74:
 700              		.align	2
 701              	.L73:
 702 0104 00008000 		.word	8388608
 703 0108 16733EBD 		.word	-1119980778
 704 010c 4423233E 		.word	1042490180
 705 0110 2CBEA73E 		.word	1051180588
 706 0114 DB0FC93F 		.word	1070141403
 707 0118 DB0F4940 		.word	1078530011
 708              		.cfi_endproc
 709              	.LFE2997:
 711              		.section	.text.horner_fma,"ax",%progbits
 712              		.align	1
 713              		.global	horner_fma
 714              		.syntax unified
 715              		.thumb
 716              		.thumb_func
 717              		.fpu fpv4-sp-d16
 719              	horner_fma:
 720              	.LVL79:
 721              	.LFB2998:
 172:Src/utils.cpp **** 
 173:Src/utils.cpp **** // Evaluate polynomials using Fused Multiply Add intrisic instruction.
 174:Src/utils.cpp **** // coeffs[0] is highest order, as per numpy.polyfit
 175:Src/utils.cpp **** // p(x) = coeffs[0] * x^deg + ... + coeffs[deg], for some degree "deg"
 176:Src/utils.cpp **** float horner_fma(float x, const float* coeffs, size_t count) {
 722              		.loc 1 176 62 view -0
 723              		.cfi_startproc
 724              		@ args = 0, pretend = 0, frame = 0
 725              		@ frame_needed = 0, uses_anonymous_args = 0
 726              		@ link register save eliminated.
 727              		.loc 1 176 62 is_stmt 0 view .LVU252
 728 0000 B0EE407A 		vmov.f32	s14, s0
 177:Src/utils.cpp ****     float result = 0.0f;
 729              		.loc 1 177 5 is_stmt 1 view .LVU253
 730              	.LVL80:
 178:Src/utils.cpp ****     for (size_t idx = 0; idx < count; ++idx)
 731              		.loc 1 178 5 view .LVU254
 732              	.LBB33:
 733              		.loc 1 178 30 view .LVU255
 734 0004 69B1     		cbz	r1, .L78
 735 0006 0346     		mov	r3, r0
 736 0008 00EB8100 		add	r0, r0, r1, lsl #2
 737              	.LVL81:
 738              		.loc 1 178 30 is_stmt 0 view .LVU256
ARM GAS  /tmp/ccBip7Dy.s 			page 19


 739              	.LBE33:
 177:Src/utils.cpp ****     float result = 0.0f;
 740              		.loc 1 177 11 view .LVU257
 741 000c 9FED060A 		vldr.32	s0, .L80
 742              	.LVL82:
 743              	.L77:
 744              	.LBB34:
 179:Src/utils.cpp ****         result = fmaf(result, x, coeffs[idx]);
 745              		.loc 1 179 9 is_stmt 1 discriminator 2 view .LVU258
 746              		.loc 1 179 22 is_stmt 0 discriminator 2 view .LVU259
 747 0010 F3EC017A 		vldmia.32	r3!, {s15}
 748 0014 E0EE077A 		vfma.f32	s15, s0, s14
 749 0018 B0EE670A 		vmov.f32	s0, s15
 750              	.LVL83:
 178:Src/utils.cpp ****     for (size_t idx = 0; idx < count; ++idx)
 751              		.loc 1 178 5 is_stmt 1 discriminator 2 view .LVU260
 178:Src/utils.cpp ****     for (size_t idx = 0; idx < count; ++idx)
 752              		.loc 1 178 30 discriminator 2 view .LVU261
 753 001c 8342     		cmp	r3, r0
 754 001e F7D1     		bne	.L77
 755 0020 7047     		bx	lr
 756              	.LVL84:
 757              	.L78:
 178:Src/utils.cpp ****     for (size_t idx = 0; idx < count; ++idx)
 758              		.loc 1 178 30 is_stmt 0 discriminator 2 view .LVU262
 759              	.LBE34:
 177:Src/utils.cpp ****     float result = 0.0f;
 760              		.loc 1 177 11 view .LVU263
 761 0022 9FED010A 		vldr.32	s0, .L80
 762              	.LVL85:
 180:Src/utils.cpp ****     return result;
 763              		.loc 1 180 5 is_stmt 1 view .LVU264
 181:Src/utils.cpp **** }
 764              		.loc 1 181 1 is_stmt 0 view .LVU265
 765 0026 7047     		bx	lr
 766              	.L81:
 767              		.align	2
 768              	.L80:
 769 0028 00000000 		.word	0
 770              		.cfi_endproc
 771              	.LFE2998:
 773              		.section	.text.mod,"ax",%progbits
 774              		.align	1
 775              		.global	mod
 776              		.syntax unified
 777              		.thumb
 778              		.thumb_func
 779              		.fpu fpv4-sp-d16
 781              	mod:
 782              	.LVL86:
 783              	.LFB2999:
 182:Src/utils.cpp **** 
 183:Src/utils.cpp **** // Modulo (as opposed to remainder), per https://stackoverflow.com/a/19288271
 184:Src/utils.cpp **** int mod(int dividend, int divisor) {
 784              		.loc 1 184 36 is_stmt 1 view -0
 785              		.cfi_startproc
 786              		@ args = 0, pretend = 0, frame = 0
ARM GAS  /tmp/ccBip7Dy.s 			page 20


 787              		@ frame_needed = 0, uses_anonymous_args = 0
 788              		@ link register save eliminated.
 185:Src/utils.cpp ****     int r = dividend % divisor;
 789              		.loc 1 185 5 view .LVU267
 790              		.loc 1 185 9 is_stmt 0 view .LVU268
 791 0000 90FBF1F3 		sdiv	r3, r0, r1
 792 0004 03FB1100 		mls	r0, r3, r1, r0
 793              	.LVL87:
 186:Src/utils.cpp ****     return (r < 0) ? (r + divisor) : r;
 794              		.loc 1 186 5 is_stmt 1 view .LVU269
 795              		.loc 1 186 20 is_stmt 0 view .LVU270
 796 0008 0028     		cmp	r0, #0
 797 000a B8BF     		it	lt
 798 000c 4018     		addlt	r0, r0, r1
 799              	.LVL88:
 187:Src/utils.cpp **** }
 800              		.loc 1 187 1 view .LVU271
 801 000e 7047     		bx	lr
 802              		.cfi_endproc
 803              	.LFE2999:
 805              		.global	__aeabi_uldivmod
 806              		.section	.text.deadline_to_timeout,"ax",%progbits
 807              		.align	1
 808              		.global	deadline_to_timeout
 809              		.syntax unified
 810              		.thumb
 811              		.thumb_func
 812              		.fpu fpv4-sp-d16
 814              	deadline_to_timeout:
 815              	.LVL89:
 816              	.LFB3000:
 188:Src/utils.cpp **** 
 189:Src/utils.cpp **** // @brief: Returns how much time is left until the deadline is reached.
 190:Src/utils.cpp **** // If the deadline has already passed, the return value is 0 (except if
 191:Src/utils.cpp **** // the deadline is very far in the past)
 192:Src/utils.cpp **** uint32_t deadline_to_timeout(uint32_t deadline_ms) {
 817              		.loc 1 192 52 is_stmt 1 view -0
 818              		.cfi_startproc
 819              		@ args = 0, pretend = 0, frame = 0
 820              		@ frame_needed = 0, uses_anonymous_args = 0
 821              		.loc 1 192 52 is_stmt 0 view .LVU273
 822 0000 10B5     		push	{r4, lr}
 823              	.LCFI2:
 824              		.cfi_def_cfa_offset 8
 825              		.cfi_offset 4, -8
 826              		.cfi_offset 14, -4
 827 0002 0446     		mov	r4, r0
 193:Src/utils.cpp ****     uint32_t now_ms = (uint32_t)((1000ull * (uint64_t)osKernelSysTick()) / osKernelSysTickFrequency
 828              		.loc 1 193 5 is_stmt 1 view .LVU274
 829              		.loc 1 193 70 is_stmt 0 view .LVU275
 830 0004 FFF7FEFF 		bl	osKernelSysTick
 831              	.LVL90:
 194:Src/utils.cpp ****     uint32_t timeout_ms = deadline_ms - now_ms;
 832              		.loc 1 194 5 is_stmt 1 view .LVU276
 195:Src/utils.cpp ****     return (timeout_ms & 0x80000000) ? 0 : timeout_ms;
 833              		.loc 1 195 5 view .LVU277
 193:Src/utils.cpp ****     uint32_t now_ms = (uint32_t)((1000ull * (uint64_t)osKernelSysTick()) / osKernelSysTickFrequency
ARM GAS  /tmp/ccBip7Dy.s 			page 21


 834              		.loc 1 193 43 is_stmt 0 view .LVU278
 835 0008 C30E     		lsrs	r3, r0, #27
 836 000a 4101     		lsls	r1, r0, #5
 837 000c 091A     		subs	r1, r1, r0
 838 000e 63F10003 		sbc	r3, r3, #0
 839 0012 9B00     		lsls	r3, r3, #2
 840 0014 43EA9173 		orr	r3, r3, r1, lsr #30
 841 0018 8900     		lsls	r1, r1, #2
 842 001a 0918     		adds	r1, r1, r0
 843 001c 43F10003 		adc	r3, r3, #0
 844 0020 4FEAC30C 		lsl	ip, r3, #3
 193:Src/utils.cpp ****     uint32_t now_ms = (uint32_t)((1000ull * (uint64_t)osKernelSysTick()) / osKernelSysTickFrequency
 845              		.loc 1 193 74 view .LVU279
 846 0024 4FF47A72 		mov	r2, #1000
 847 0028 0023     		movs	r3, #0
 848 002a C800     		lsls	r0, r1, #3
 849              	.LVL91:
 193:Src/utils.cpp ****     uint32_t now_ms = (uint32_t)((1000ull * (uint64_t)osKernelSysTick()) / osKernelSysTickFrequency
 850              		.loc 1 193 74 view .LVU280
 851 002c 4CEA5171 		orr	r1, ip, r1, lsr #29
 852 0030 FFF7FEFF 		bl	__aeabi_uldivmod
 853              	.LVL92:
 194:Src/utils.cpp ****     uint32_t timeout_ms = deadline_ms - now_ms;
 854              		.loc 1 194 14 view .LVU281
 855 0034 201A     		subs	r0, r4, r0
 196:Src/utils.cpp **** }
 856              		.loc 1 196 1 view .LVU282
 857 0036 20EAE070 		bic	r0, r0, r0, asr #31
 858 003a 10BD     		pop	{r4, pc}
 859              		.loc 1 196 1 view .LVU283
 860              		.cfi_endproc
 861              	.LFE3000:
 863              		.section	.text.timeout_to_deadline,"ax",%progbits
 864              		.align	1
 865              		.global	timeout_to_deadline
 866              		.syntax unified
 867              		.thumb
 868              		.thumb_func
 869              		.fpu fpv4-sp-d16
 871              	timeout_to_deadline:
 872              	.LVL93:
 873              	.LFB3001:
 197:Src/utils.cpp **** 
 198:Src/utils.cpp **** // @brief: Converts a timeout to a deadline based on the current time.
 199:Src/utils.cpp **** uint32_t timeout_to_deadline(uint32_t timeout_ms) {
 874              		.loc 1 199 51 is_stmt 1 view -0
 875              		.cfi_startproc
 876              		@ args = 0, pretend = 0, frame = 0
 877              		@ frame_needed = 0, uses_anonymous_args = 0
 878              		.loc 1 199 51 is_stmt 0 view .LVU285
 879 0000 10B5     		push	{r4, lr}
 880              	.LCFI3:
 881              		.cfi_def_cfa_offset 8
 882              		.cfi_offset 4, -8
 883              		.cfi_offset 14, -4
 884 0002 0446     		mov	r4, r0
 200:Src/utils.cpp ****     uint32_t now_ms = (uint32_t)((1000ull * (uint64_t)osKernelSysTick()) / osKernelSysTickFrequency
ARM GAS  /tmp/ccBip7Dy.s 			page 22


 885              		.loc 1 200 5 is_stmt 1 view .LVU286
 886              		.loc 1 200 70 is_stmt 0 view .LVU287
 887 0004 FFF7FEFF 		bl	osKernelSysTick
 888              	.LVL94:
 201:Src/utils.cpp ****     return now_ms + timeout_ms;
 889              		.loc 1 201 5 is_stmt 1 view .LVU288
 200:Src/utils.cpp ****     uint32_t now_ms = (uint32_t)((1000ull * (uint64_t)osKernelSysTick()) / osKernelSysTickFrequency
 890              		.loc 1 200 43 is_stmt 0 view .LVU289
 891 0008 C30E     		lsrs	r3, r0, #27
 892 000a 4101     		lsls	r1, r0, #5
 893 000c 091A     		subs	r1, r1, r0
 894 000e 63F10003 		sbc	r3, r3, #0
 895 0012 9B00     		lsls	r3, r3, #2
 896 0014 43EA9173 		orr	r3, r3, r1, lsr #30
 897 0018 8900     		lsls	r1, r1, #2
 898 001a 0918     		adds	r1, r1, r0
 899 001c 43F10003 		adc	r3, r3, #0
 900 0020 4FEAC30C 		lsl	ip, r3, #3
 200:Src/utils.cpp ****     uint32_t now_ms = (uint32_t)((1000ull * (uint64_t)osKernelSysTick()) / osKernelSysTickFrequency
 901              		.loc 1 200 74 view .LVU290
 902 0024 4FF47A72 		mov	r2, #1000
 903 0028 0023     		movs	r3, #0
 904 002a C800     		lsls	r0, r1, #3
 905              	.LVL95:
 200:Src/utils.cpp ****     uint32_t now_ms = (uint32_t)((1000ull * (uint64_t)osKernelSysTick()) / osKernelSysTickFrequency
 906              		.loc 1 200 74 view .LVU291
 907 002c 4CEA5171 		orr	r1, ip, r1, lsr #29
 908 0030 FFF7FEFF 		bl	__aeabi_uldivmod
 909              	.LVL96:
 202:Src/utils.cpp **** }
 910              		.loc 1 202 1 view .LVU292
 911 0034 2044     		add	r0, r0, r4
 912 0036 10BD     		pop	{r4, pc}
 913              		.loc 1 202 1 view .LVU293
 914              		.cfi_endproc
 915              	.LFE3001:
 917              		.section	.text.is_in_the_future,"ax",%progbits
 918              		.align	1
 919              		.global	is_in_the_future
 920              		.syntax unified
 921              		.thumb
 922              		.thumb_func
 923              		.fpu fpv4-sp-d16
 925              	is_in_the_future:
 926              	.LVL97:
 927              	.LFB3002:
 203:Src/utils.cpp **** 
 204:Src/utils.cpp **** // @brief: Returns a non-zero value if the specified system time (in ms)
 205:Src/utils.cpp **** // is in the future or 0 otherwise.
 206:Src/utils.cpp **** // If the time lies far in the past this may falsely return a non-zero value.
 207:Src/utils.cpp **** int is_in_the_future(uint32_t time_ms) {
 928              		.loc 1 207 40 is_stmt 1 view -0
 929              		.cfi_startproc
 930              		@ args = 0, pretend = 0, frame = 0
 931              		@ frame_needed = 0, uses_anonymous_args = 0
 932              		.loc 1 207 40 is_stmt 0 view .LVU295
 933 0000 08B5     		push	{r3, lr}
ARM GAS  /tmp/ccBip7Dy.s 			page 23


 934              	.LCFI4:
 935              		.cfi_def_cfa_offset 8
 936              		.cfi_offset 3, -8
 937              		.cfi_offset 14, -4
 208:Src/utils.cpp ****     return deadline_to_timeout(time_ms);
 938              		.loc 1 208 5 is_stmt 1 view .LVU296
 939              		.loc 1 208 31 is_stmt 0 view .LVU297
 940 0002 FFF7FEFF 		bl	deadline_to_timeout
 941              	.LVL98:
 209:Src/utils.cpp **** }
 942              		.loc 1 209 1 view .LVU298
 943 0006 08BD     		pop	{r3, pc}
 944              		.cfi_endproc
 945              	.LFE3002:
 947              		.section	.text.micros,"ax",%progbits
 948              		.align	1
 949              		.global	micros
 950              		.syntax unified
 951              		.thumb
 952              		.thumb_func
 953              		.fpu fpv4-sp-d16
 955              	micros:
 956              	.LFB3003:
 210:Src/utils.cpp **** 
 211:Src/utils.cpp **** // @brief: Returns number of microseconds since system startup
 212:Src/utils.cpp **** uint32_t micros(void) {
 957              		.loc 1 212 23 is_stmt 1 view -0
 958              		.cfi_startproc
 959              		@ args = 0, pretend = 0, frame = 0
 960              		@ frame_needed = 0, uses_anonymous_args = 0
 961 0000 70B5     		push	{r4, r5, r6, lr}
 962              	.LCFI5:
 963              		.cfi_def_cfa_offset 16
 964              		.cfi_offset 4, -16
 965              		.cfi_offset 5, -12
 966              		.cfi_offset 6, -8
 967              		.cfi_offset 14, -4
 213:Src/utils.cpp ****     register uint32_t ms, cycle_cnt;
 214:Src/utils.cpp ****     do {
 215:Src/utils.cpp ****         ms = HAL_GetTick();
 216:Src/utils.cpp ****         cycle_cnt = TIM_TIME_BASE->CNT;
 968              		.loc 1 216 19 is_stmt 0 view .LVU300
 969 0002 074E     		ldr	r6, .L94
 970              	.L91:
 213:Src/utils.cpp ****     register uint32_t ms, cycle_cnt;
 971              		.loc 1 213 5 is_stmt 1 view .LVU301
 214:Src/utils.cpp ****         ms = HAL_GetTick();
 972              		.loc 1 214 5 view .LVU302
 215:Src/utils.cpp ****         cycle_cnt = TIM_TIME_BASE->CNT;
 973              		.loc 1 215 9 view .LVU303
 215:Src/utils.cpp ****         cycle_cnt = TIM_TIME_BASE->CNT;
 974              		.loc 1 215 25 is_stmt 0 view .LVU304
 975 0004 FFF7FEFF 		bl	HAL_GetTick
 976              	.LVL99:
 977 0008 0446     		mov	r4, r0
 978              	.LVL100:
 979              		.loc 1 216 9 is_stmt 1 view .LVU305
ARM GAS  /tmp/ccBip7Dy.s 			page 24


 980              		.loc 1 216 19 is_stmt 0 view .LVU306
 981 000a 756A     		ldr	r5, [r6, #36]
 982              	.LVL101:
 217:Src/utils.cpp ****     } while (ms != HAL_GetTick());
 983              		.loc 1 217 17 is_stmt 1 view .LVU307
 984              		.loc 1 217 31 is_stmt 0 view .LVU308
 985 000c FFF7FEFF 		bl	HAL_GetTick
 986              	.LVL102:
 987              		.loc 1 217 17 view .LVU309
 988 0010 A042     		cmp	r0, r4
 989 0012 F7D1     		bne	.L91
 218:Src/utils.cpp **** 
 219:Src/utils.cpp ****     return (ms * 1000) + cycle_cnt;
 990              		.loc 1 219 5 is_stmt 1 view .LVU310
 220:Src/utils.cpp **** }
 991              		.loc 1 220 1 is_stmt 0 view .LVU311
 992 0014 4FF47A70 		mov	r0, #1000
 993 0018 00FB0450 		mla	r0, r0, r4, r5
 994 001c 70BD     		pop	{r4, r5, r6, pc}
 995              	.LVL103:
 996              	.L95:
 997              		.loc 1 220 1 view .LVU312
 998 001e 00BF     		.align	2
 999              	.L94:
 1000 0020 00440140 		.word	1073824768
 1001              		.cfi_endproc
 1002              	.LFE3003:
 1004              		.section	.text.delay_us,"ax",%progbits
 1005              		.align	1
 1006              		.global	delay_us
 1007              		.syntax unified
 1008              		.thumb
 1009              		.thumb_func
 1010              		.fpu fpv4-sp-d16
 1012              	delay_us:
 1013              	.LVL104:
 1014              	.LFB3004:
 221:Src/utils.cpp **** 
 222:Src/utils.cpp **** // @brief: Busy wait delay for given amount of microseconds (us)
 223:Src/utils.cpp **** void delay_us(uint32_t us) {
 1015              		.loc 1 223 28 is_stmt 1 view -0
 1016              		.cfi_startproc
 1017              		@ args = 0, pretend = 0, frame = 0
 1018              		@ frame_needed = 0, uses_anonymous_args = 0
 1019              		.loc 1 223 28 is_stmt 0 view .LVU314
 1020 0000 38B5     		push	{r3, r4, r5, lr}
 1021              	.LCFI6:
 1022              		.cfi_def_cfa_offset 16
 1023              		.cfi_offset 3, -16
 1024              		.cfi_offset 4, -12
 1025              		.cfi_offset 5, -8
 1026              		.cfi_offset 14, -4
 1027 0002 0546     		mov	r5, r0
 224:Src/utils.cpp ****     uint32_t start = micros();
 1028              		.loc 1 224 5 is_stmt 1 view .LVU315
 1029              		.loc 1 224 28 is_stmt 0 view .LVU316
 1030 0004 FFF7FEFF 		bl	micros
ARM GAS  /tmp/ccBip7Dy.s 			page 25


 1031              	.LVL105:
 1032              		.loc 1 224 28 view .LVU317
 1033 0008 0446     		mov	r4, r0
 1034              	.LVL106:
 1035              		.loc 1 224 28 view .LVU318
 1036 000a 00E0     		b	.L98
 1037              	.LVL107:
 1038              	.L100:
 225:Src/utils.cpp ****     while (micros() - start < (uint32_t)us) {
 226:Src/utils.cpp ****         __ASM("nop");
 1039              		.loc 1 226 9 is_stmt 1 view .LVU319
 1040              		.syntax unified
 1041              	@ 226 "Src/utils.cpp" 1
 1042 000c 00BF     		nop
 1043              	@ 0 "" 2
 1044              		.thumb
 1045              		.syntax unified
 1046              	.L98:
 225:Src/utils.cpp ****     while (micros() - start < (uint32_t)us) {
 1047              		.loc 1 225 5 view .LVU320
 225:Src/utils.cpp ****     while (micros() - start < (uint32_t)us) {
 1048              		.loc 1 225 29 view .LVU321
 225:Src/utils.cpp ****     while (micros() - start < (uint32_t)us) {
 1049              		.loc 1 225 18 is_stmt 0 view .LVU322
 1050 000e FFF7FEFF 		bl	micros
 1051              	.LVL108:
 225:Src/utils.cpp ****     while (micros() - start < (uint32_t)us) {
 1052              		.loc 1 225 21 view .LVU323
 1053 0012 001B     		subs	r0, r0, r4
 225:Src/utils.cpp ****     while (micros() - start < (uint32_t)us) {
 1054              		.loc 1 225 29 view .LVU324
 1055 0014 A842     		cmp	r0, r5
 1056 0016 F9D3     		bcc	.L100
 227:Src/utils.cpp ****     }
 228:Src/utils.cpp **** }
 1057              		.loc 1 228 1 view .LVU325
 1058 0018 38BD     		pop	{r3, r4, r5, pc}
 1059              		.loc 1 228 1 view .LVU326
 1060              		.cfi_endproc
 1061              	.LFE3004:
 1063              		.section	.text.fsgn,"ax",%progbits
 1064              		.align	1
 1065              		.global	fsgn
 1066              		.syntax unified
 1067              		.thumb
 1068              		.thumb_func
 1069              		.fpu fpv4-sp-d16
 1071              	fsgn:
 1072              	.LVL109:
 1073              	.LFB3005:
 229:Src/utils.cpp **** 
 230:Src/utils.cpp **** int32_t fsgn(float num) {
 1074              		.loc 1 230 25 is_stmt 1 view -0
 1075              		.cfi_startproc
 1076              		@ args = 0, pretend = 0, frame = 0
 1077              		@ frame_needed = 0, uses_anonymous_args = 0
 1078              		@ link register save eliminated.
ARM GAS  /tmp/ccBip7Dy.s 			page 26


 231:Src/utils.cpp ****     if (num > 0.0f) {
 1079              		.loc 1 231 5 view .LVU328
 1080 0000 B5EEC00A 		vcmpe.f32	s0, #0
 1081 0004 F1EE10FA 		vmrs	APSR_nzcv, FPSCR
 1082 0008 04DC     		bgt	.L103
 232:Src/utils.cpp ****         return 1;
 233:Src/utils.cpp ****     } else if (num < 0.0f) {
 1083              		.loc 1 233 12 view .LVU329
 1084 000a 4CBF     		ite	mi
 1085 000c 4FF0FF30 		movmi	r0, #-1
 1086 0010 0020     		movpl	r0, #0
 1087 0012 7047     		bx	lr
 1088              	.L103:
 232:Src/utils.cpp ****         return 1;
 1089              		.loc 1 232 16 is_stmt 0 view .LVU330
 1090 0014 0120     		movs	r0, #1
 234:Src/utils.cpp ****         return -1;
 235:Src/utils.cpp ****     } else {
 236:Src/utils.cpp ****         return 0;
 237:Src/utils.cpp ****     }
 238:Src/utils.cpp **** }
 1091              		.loc 1 238 1 view .LVU331
 1092 0016 7047     		bx	lr
 1093              		.cfi_endproc
 1094              	.LFE3005:
 1096              		.section	.text.saturation,"ax",%progbits
 1097              		.align	1
 1098              		.global	saturation
 1099              		.syntax unified
 1100              		.thumb
 1101              		.thumb_func
 1102              		.fpu fpv4-sp-d16
 1104              	saturation:
 1105              	.LVL110:
 1106              	.LFB3006:
 239:Src/utils.cpp **** 
 240:Src/utils.cpp **** int32_t saturation(int32_t num, int32_t min, int32_t max) 
 241:Src/utils.cpp **** {
 1107              		.loc 1 241 1 is_stmt 1 view -0
 1108              		.cfi_startproc
 1109              		@ args = 0, pretend = 0, frame = 0
 1110              		@ frame_needed = 0, uses_anonymous_args = 0
 1111              		@ link register save eliminated.
 242:Src/utils.cpp ****     if (num > max) {
 1112              		.loc 1 242 5 view .LVU333
 1113 0000 9042     		cmp	r0, r2
 1114 0002 03DC     		bgt	.L106
 243:Src/utils.cpp ****         return max;
 244:Src/utils.cpp ****     } else if (num < min) {
 1115              		.loc 1 244 12 view .LVU334
 1116 0004 8842     		cmp	r0, r1
 1117 0006 B8BF     		it	lt
 1118 0008 0846     		movlt	r0, r1
 1119              	.LVL111:
 1120              		.loc 1 244 12 is_stmt 0 view .LVU335
 1121 000a 7047     		bx	lr
 1122              	.LVL112:
ARM GAS  /tmp/ccBip7Dy.s 			page 27


 1123              	.L106:
 243:Src/utils.cpp ****         return max;
 1124              		.loc 1 243 16 view .LVU336
 1125 000c 1046     		mov	r0, r2
 1126              	.LVL113:
 245:Src/utils.cpp ****         return min;
 246:Src/utils.cpp ****     } else {
 247:Src/utils.cpp ****         return num;
 248:Src/utils.cpp ****     }
 249:Src/utils.cpp **** }
 1127              		.loc 1 249 1 view .LVU337
 1128 000e 7047     		bx	lr
 1129              		.cfi_endproc
 1130              	.LFE3006:
 1132              		.section	.text.initNotchFilter,"ax",%progbits
 1133              		.align	1
 1134              		.global	initNotchFilter
 1135              		.syntax unified
 1136              		.thumb
 1137              		.thumb_func
 1138              		.fpu fpv4-sp-d16
 1140              	initNotchFilter:
 1141              	.LVL114:
 1142              	.LFB3007:
 250:Src/utils.cpp **** 
 251:Src/utils.cpp **** 
 252:Src/utils.cpp **** void initNotchFilter(NotchFilter* filter, float frequency, float sampleRate, float bandwidth) {
 1143              		.loc 1 252 95 is_stmt 1 view -0
 1144              		.cfi_startproc
 1145              		@ args = 0, pretend = 0, frame = 0
 1146              		@ frame_needed = 0, uses_anonymous_args = 0
 1147              		.loc 1 252 95 is_stmt 0 view .LVU339
 1148 0000 10B5     		push	{r4, lr}
 1149              	.LCFI7:
 1150              		.cfi_def_cfa_offset 8
 1151              		.cfi_offset 4, -8
 1152              		.cfi_offset 14, -4
 1153 0002 2DED048B 		vpush.64	{d8, d9}
 1154              	.LCFI8:
 1155              		.cfi_def_cfa_offset 24
 1156              		.cfi_offset 80, -24
 1157              		.cfi_offset 81, -20
 1158              		.cfi_offset 82, -16
 1159              		.cfi_offset 83, -12
 1160 0006 0446     		mov	r4, r0
 1161 0008 B0EE418A 		vmov.f32	s16, s2
 253:Src/utils.cpp ****     float w0 = 2 * M_PI * frequency / sampleRate;
 1162              		.loc 1 253 5 is_stmt 1 view .LVU340
 1163              		.loc 1 253 25 is_stmt 0 view .LVU341
 1164 000c DFED177A 		vldr.32	s15, .L109
 1165 0010 20EE270A 		vmul.f32	s0, s0, s15
 1166              	.LVL115:
 1167              		.loc 1 253 11 view .LVU342
 1168 0014 C0EE208A 		vdiv.f32	s17, s0, s1
 1169              	.LVL116:
 254:Src/utils.cpp ****     filter->w0 = w0;
 1170              		.loc 1 254 5 is_stmt 1 view .LVU343
ARM GAS  /tmp/ccBip7Dy.s 			page 28


 1171              		.loc 1 254 16 is_stmt 0 view .LVU344
 1172 0018 C0ED008A 		vstr.32	s17, [r0]
 255:Src/utils.cpp ****     filter->r = 1 - bandwidth / 2;
 1173              		.loc 1 255 5 is_stmt 1 view .LVU345
 1174              		.loc 1 255 31 is_stmt 0 view .LVU346
 1175 001c F6EE007A 		vmov.f32	s15, #5.0e-1
 1176 0020 61EE277A 		vmul.f32	s15, s2, s15
 1177              		.loc 1 255 19 view .LVU347
 1178 0024 B7EE009A 		vmov.f32	s18, #1.0e+0
 1179 0028 79EE677A 		vsub.f32	s15, s18, s15
 1180              		.loc 1 255 15 view .LVU348
 1181 002c C0ED017A 		vstr.32	s15, [r0, #4]
 256:Src/utils.cpp ****     filter->r = our_arm_sin_f32(w0) / (2*bandwidth);
 1182              		.loc 1 256 5 is_stmt 1 view .LVU349
 1183              		.loc 1 256 32 is_stmt 0 view .LVU350
 1184 0030 B0EE680A 		vmov.f32	s0, s17
 1185 0034 FFF7FEFF 		bl	our_arm_sin_f32
 1186              	.LVL117:
 1187              		.loc 1 256 41 view .LVU351
 1188 0038 38EE088A 		vadd.f32	s16, s16, s16
 1189              	.LVL118:
 1190              		.loc 1 256 37 view .LVU352
 1191 003c C0EE087A 		vdiv.f32	s15, s0, s16
 1192              		.loc 1 256 15 view .LVU353
 1193 0040 C4ED017A 		vstr.32	s15, [r4, #4]
 257:Src/utils.cpp ****     float cosw0 = our_arm_cos_f32(w0);
 1194              		.loc 1 257 5 is_stmt 1 view .LVU354
 1195              		.loc 1 257 34 is_stmt 0 view .LVU355
 1196 0044 B0EE680A 		vmov.f32	s0, s17
 1197 0048 FFF7FEFF 		bl	our_arm_cos_f32
 1198              	.LVL119:
 258:Src/utils.cpp **** 
 259:Src/utils.cpp ****     (void)cosw0;
 1199              		.loc 1 259 5 is_stmt 1 view .LVU356
 260:Src/utils.cpp ****     // filter->b1 = -2 * cosw0;
 261:Src/utils.cpp ****     // filter->b2 = 1;
 262:Src/utils.cpp ****     // filter->a1 = -2 * filter->r * cosw0;
 263:Src/utils.cpp ****     // filter->a2 = filter->r * filter->r;
 264:Src/utils.cpp ****     // filter->a2 = 1.0f - 2*filter->r ;
 265:Src/utils.cpp ****     filter->b1 = -1.9996150f;//-1.99975573206256f;
 1200              		.loc 1 265 5 view .LVU357
 1201              		.loc 1 265 16 is_stmt 0 view .LVU358
 1202 004c 084B     		ldr	r3, .L109+4
 1203 004e 2361     		str	r3, [r4, #16]	@ float
 266:Src/utils.cpp ****     filter->b2 = 1.0f;
 1204              		.loc 1 266 5 is_stmt 1 view .LVU359
 1205              		.loc 1 266 16 is_stmt 0 view .LVU360
 1206 0050 84ED059A 		vstr.32	s18, [r4, #20]
 267:Src/utils.cpp ****     filter->a1 = -1.9686884f;
 1207              		.loc 1 267 5 is_stmt 1 view .LVU361
 1208              		.loc 1 267 16 is_stmt 0 view .LVU362
 1209 0054 074B     		ldr	r3, .L109+8
 1210 0056 A360     		str	r3, [r4, #8]	@ float
 268:Src/utils.cpp ****     filter->a2 = 0.9690674f;
 1211              		.loc 1 268 5 is_stmt 1 view .LVU363
 1212              		.loc 1 268 16 is_stmt 0 view .LVU364
 1213 0058 074B     		ldr	r3, .L109+12
ARM GAS  /tmp/ccBip7Dy.s 			page 29


 1214 005a E360     		str	r3, [r4, #12]	@ float
 269:Src/utils.cpp **** 
 270:Src/utils.cpp ****     filter->x1 = filter->x2 = filter->y1 = filter->y2 = 0;
 1215              		.loc 1 270 5 is_stmt 1 view .LVU365
 1216              		.loc 1 270 55 is_stmt 0 view .LVU366
 1217 005c 0023     		movs	r3, #0
 1218 005e 6362     		str	r3, [r4, #36]	@ float
 1219              		.loc 1 270 42 view .LVU367
 1220 0060 2362     		str	r3, [r4, #32]	@ float
 1221              		.loc 1 270 29 view .LVU368
 1222 0062 E361     		str	r3, [r4, #28]	@ float
 1223              		.loc 1 270 16 view .LVU369
 1224 0064 A361     		str	r3, [r4, #24]	@ float
 271:Src/utils.cpp **** }
 1225              		.loc 1 271 1 view .LVU370
 1226 0066 BDEC048B 		vldm	sp!, {d8-d9}
 1227              	.LCFI9:
 1228              		.cfi_restore 82
 1229              		.cfi_restore 83
 1230              		.cfi_restore 80
 1231              		.cfi_restore 81
 1232              		.cfi_def_cfa_offset 8
 1233 006a 10BD     		pop	{r4, pc}
 1234              	.LVL120:
 1235              	.L110:
 1236              		.loc 1 271 1 view .LVU371
 1237              		.align	2
 1238              	.L109:
 1239 006c DB0FC940 		.word	1086918619
 1240 0070 62F3FFBF 		.word	-1073745054
 1241 0074 FBFDFBBF 		.word	-1074004485
 1242 0078 CD14783F 		.word	1064834253
 1243              		.cfi_endproc
 1244              	.LFE3007:
 1246              		.section	.text.applyNotchFilter,"ax",%progbits
 1247              		.align	1
 1248              		.global	applyNotchFilter
 1249              		.syntax unified
 1250              		.thumb
 1251              		.thumb_func
 1252              		.fpu fpv4-sp-d16
 1254              	applyNotchFilter:
 1255              	.LVL121:
 1256              	.LFB3008:
 272:Src/utils.cpp **** 
 273:Src/utils.cpp **** float applyNotchFilter(NotchFilter* filter, float input) {
 1257              		.loc 1 273 58 is_stmt 1 view -0
 1258              		.cfi_startproc
 1259              		@ args = 0, pretend = 0, frame = 0
 1260              		@ frame_needed = 0, uses_anonymous_args = 0
 1261              		@ link register save eliminated.
 1262              		.loc 1 273 58 is_stmt 0 view .LVU373
 1263 0000 B0EE407A 		vmov.f32	s14, s0
 274:Src/utils.cpp ****     float output = input + filter->b1 * filter->x1 + filter->b2 * filter->x2
 1264              		.loc 1 274 5 is_stmt 1 view .LVU374
 1265              		.loc 1 274 49 is_stmt 0 view .LVU375
 1266 0004 90ED066A 		vldr.32	s12, [r0, #24]
ARM GAS  /tmp/ccBip7Dy.s 			page 30


 275:Src/utils.cpp ****                    - filter->a1 * filter->y1 - filter->a2 * filter->y2;
 1267              		.loc 1 275 43 view .LVU376
 1268 0008 D0ED086A 		vldr.32	s13, [r0, #32]
 274:Src/utils.cpp ****     float output = input + filter->b1 * filter->x1 + filter->b2 * filter->x2
 1269              		.loc 1 274 39 view .LVU377
 1270 000c D0ED047A 		vldr.32	s15, [r0, #16]
 1271 0010 66EE277A 		vmul.f32	s15, s12, s15
 274:Src/utils.cpp ****     float output = input + filter->b1 * filter->x1 + filter->b2 * filter->x2
 1272              		.loc 1 274 26 view .LVU378
 1273 0014 77EE807A 		vadd.f32	s15, s15, s0
 274:Src/utils.cpp ****     float output = input + filter->b1 * filter->x1 + filter->b2 * filter->x2
 1274              		.loc 1 274 65 view .LVU379
 1275 0018 90ED050A 		vldr.32	s0, [r0, #20]
 1276              	.LVL122:
 274:Src/utils.cpp ****     float output = input + filter->b1 * filter->x1 + filter->b2 * filter->x2
 1277              		.loc 1 274 65 view .LVU380
 1278 001c D0ED075A 		vldr.32	s11, [r0, #28]
 1279 0020 20EE250A 		vmul.f32	s0, s0, s11
 274:Src/utils.cpp ****     float output = input + filter->b1 * filter->x1 + filter->b2 * filter->x2
 1280              		.loc 1 274 52 view .LVU381
 1281 0024 77EE807A 		vadd.f32	s15, s15, s0
 1282              		.loc 1 275 33 view .LVU382
 1283 0028 90ED020A 		vldr.32	s0, [r0, #8]
 1284 002c 26EE800A 		vmul.f32	s0, s13, s0
 1285              		.loc 1 275 20 view .LVU383
 1286 0030 77EEC07A 		vsub.f32	s15, s15, s0
 1287              		.loc 1 275 59 view .LVU384
 1288 0034 90ED030A 		vldr.32	s0, [r0, #12]
 1289 0038 D0ED095A 		vldr.32	s11, [r0, #36]
 1290 003c 20EE250A 		vmul.f32	s0, s0, s11
 274:Src/utils.cpp ****     float output = input + filter->b1 * filter->x1 + filter->b2 * filter->x2
 1291              		.loc 1 274 11 view .LVU385
 1292 0040 37EEC00A 		vsub.f32	s0, s15, s0
 1293              	.LVL123:
 276:Src/utils.cpp ****     
 277:Src/utils.cpp ****     filter->x2 = filter->x1;
 1294              		.loc 1 277 5 is_stmt 1 view .LVU386
 1295              		.loc 1 277 16 is_stmt 0 view .LVU387
 1296 0044 80ED076A 		vstr.32	s12, [r0, #28]
 278:Src/utils.cpp ****     filter->x1 = input;
 1297              		.loc 1 278 5 is_stmt 1 view .LVU388
 1298              		.loc 1 278 16 is_stmt 0 view .LVU389
 1299 0048 80ED067A 		vstr.32	s14, [r0, #24]
 279:Src/utils.cpp ****     filter->y2 = filter->y1;
 1300              		.loc 1 279 5 is_stmt 1 view .LVU390
 1301              		.loc 1 279 16 is_stmt 0 view .LVU391
 1302 004c C0ED096A 		vstr.32	s13, [r0, #36]
 280:Src/utils.cpp ****     filter->y1 = output;
 1303              		.loc 1 280 5 is_stmt 1 view .LVU392
 1304              		.loc 1 280 16 is_stmt 0 view .LVU393
 1305 0050 80ED080A 		vstr.32	s0, [r0, #32]
 281:Src/utils.cpp ****     
 282:Src/utils.cpp ****     return output;
 1306              		.loc 1 282 5 is_stmt 1 view .LVU394
 283:Src/utils.cpp **** }
 1307              		.loc 1 283 1 is_stmt 0 view .LVU395
 1308 0054 7047     		bx	lr
ARM GAS  /tmp/ccBip7Dy.s 			page 31


 1309              		.cfi_endproc
 1310              	.LFE3008:
 1312              		.section	.text.test_svm,"ax",%progbits
 1313              		.align	1
 1314              		.global	test_svm
 1315              		.syntax unified
 1316              		.thumb
 1317              		.thumb_func
 1318              		.fpu fpv4-sp-d16
 1320              	test_svm:
 1321              	.LVL124:
 1322              	.LFB3009:
 284:Src/utils.cpp **** 
 285:Src/utils.cpp **** constexpr float INV_2_POW_31 = 1.0f / 2147483648.0f;  // 1/2^31
 286:Src/utils.cpp **** 
 287:Src/utils.cpp **** 
 288:Src/utils.cpp **** void test_svm(float mod_q, float mod_d, float* theta, float *ta, float *tb, float *tc) 
 289:Src/utils.cpp **** {
 1323              		.loc 1 289 1 is_stmt 1 view -0
 1324              		.cfi_startproc
 1325              		@ args = 0, pretend = 0, frame = 0
 1326              		@ frame_needed = 0, uses_anonymous_args = 0
 1327              		.loc 1 289 1 is_stmt 0 view .LVU397
 1328 0000 70B5     		push	{r4, r5, r6, lr}
 1329              	.LCFI10:
 1330              		.cfi_def_cfa_offset 16
 1331              		.cfi_offset 4, -16
 1332              		.cfi_offset 5, -12
 1333              		.cfi_offset 6, -8
 1334              		.cfi_offset 14, -4
 1335 0002 2DED028B 		vpush.64	{d8}
 1336              	.LCFI11:
 1337              		.cfi_def_cfa_offset 24
 1338              		.cfi_offset 80, -24
 1339              		.cfi_offset 81, -20
 1340 0006 0546     		mov	r5, r0
 1341 0008 0846     		mov	r0, r1
 1342              	.LVL125:
 1343              		.loc 1 289 1 view .LVU398
 1344 000a 1146     		mov	r1, r2
 1345              	.LVL126:
 290:Src/utils.cpp ****     // Convert theta to Q1.31 format
 291:Src/utils.cpp ****     int32_t angle = (int32_t)(*theta * 2147483648.0f / M_PI);
 1346              		.loc 1 291 5 is_stmt 1 view .LVU399
 1347              		.loc 1 291 38 is_stmt 0 view .LVU400
 1348 000c 95ED007A 		vldr.32	s14, [r5]
 1349 0010 DFED257A 		vldr.32	s15, .L117
 1350 0014 27EE277A 		vmul.f32	s14, s14, s15
 1351              		.loc 1 291 54 view .LVU401
 1352 0018 9FED248A 		vldr.32	s16, .L117+4
 1353 001c C7EE087A 		vdiv.f32	s15, s14, s16
 1354              		.loc 1 291 13 view .LVU402
 1355 0020 FDEEE77A 		vcvt.s32.f32	s15, s15
 1356              	.LVL127:
 292:Src/utils.cpp ****     
 293:Src/utils.cpp ****     // Configure CORDIC for sine/cosine calculation
 294:Src/utils.cpp ****     LL_CORDIC_Config(CORDIC, 
ARM GAS  /tmp/ccBip7Dy.s 			page 32


 1357              		.loc 1 294 5 is_stmt 1 view .LVU403
 1358              	.LBB49:
 1359              	.LBI49:
 1360              		.file 2 "Drivers/STM32G4xx_HAL_Driver/Inc/stm32g4xx_ll_cordic.h"
   1:Drivers/STM32G4xx_HAL_Driver/Inc/stm32g4xx_ll_cordic.h **** /**
   2:Drivers/STM32G4xx_HAL_Driver/Inc/stm32g4xx_ll_cordic.h ****   ******************************************************************************
   3:Drivers/STM32G4xx_HAL_Driver/Inc/stm32g4xx_ll_cordic.h ****   * @file    stm32g4xx_ll_cordic.h
   4:Drivers/STM32G4xx_HAL_Driver/Inc/stm32g4xx_ll_cordic.h ****   * @author  MCD Application Team
   5:Drivers/STM32G4xx_HAL_Driver/Inc/stm32g4xx_ll_cordic.h ****   * @brief   Header file of CORDIC LL module.
   6:Drivers/STM32G4xx_HAL_Driver/Inc/stm32g4xx_ll_cordic.h ****   ******************************************************************************
   7:Drivers/STM32G4xx_HAL_Driver/Inc/stm32g4xx_ll_cordic.h ****   * @attention
   8:Drivers/STM32G4xx_HAL_Driver/Inc/stm32g4xx_ll_cordic.h ****   *
   9:Drivers/STM32G4xx_HAL_Driver/Inc/stm32g4xx_ll_cordic.h ****   * Copyright (c) 2019 STMicroelectronics.
  10:Drivers/STM32G4xx_HAL_Driver/Inc/stm32g4xx_ll_cordic.h ****   * All rights reserved.
  11:Drivers/STM32G4xx_HAL_Driver/Inc/stm32g4xx_ll_cordic.h ****   *
  12:Drivers/STM32G4xx_HAL_Driver/Inc/stm32g4xx_ll_cordic.h ****   * This software is licensed under terms that can be found in the LICENSE file
  13:Drivers/STM32G4xx_HAL_Driver/Inc/stm32g4xx_ll_cordic.h ****   * in the root directory of this software component.
  14:Drivers/STM32G4xx_HAL_Driver/Inc/stm32g4xx_ll_cordic.h ****   * If no LICENSE file comes with this software, it is provided AS-IS.
  15:Drivers/STM32G4xx_HAL_Driver/Inc/stm32g4xx_ll_cordic.h ****   *
  16:Drivers/STM32G4xx_HAL_Driver/Inc/stm32g4xx_ll_cordic.h ****   ******************************************************************************
  17:Drivers/STM32G4xx_HAL_Driver/Inc/stm32g4xx_ll_cordic.h ****   */
  18:Drivers/STM32G4xx_HAL_Driver/Inc/stm32g4xx_ll_cordic.h **** 
  19:Drivers/STM32G4xx_HAL_Driver/Inc/stm32g4xx_ll_cordic.h **** /* Define to prevent recursive inclusion -------------------------------------*/
  20:Drivers/STM32G4xx_HAL_Driver/Inc/stm32g4xx_ll_cordic.h **** #ifndef STM32G4xx_LL_CORDIC_H
  21:Drivers/STM32G4xx_HAL_Driver/Inc/stm32g4xx_ll_cordic.h **** #define STM32G4xx_LL_CORDIC_H
  22:Drivers/STM32G4xx_HAL_Driver/Inc/stm32g4xx_ll_cordic.h **** 
  23:Drivers/STM32G4xx_HAL_Driver/Inc/stm32g4xx_ll_cordic.h **** #ifdef __cplusplus
  24:Drivers/STM32G4xx_HAL_Driver/Inc/stm32g4xx_ll_cordic.h **** extern "C" {
  25:Drivers/STM32G4xx_HAL_Driver/Inc/stm32g4xx_ll_cordic.h **** #endif
  26:Drivers/STM32G4xx_HAL_Driver/Inc/stm32g4xx_ll_cordic.h **** 
  27:Drivers/STM32G4xx_HAL_Driver/Inc/stm32g4xx_ll_cordic.h **** /* Includes ------------------------------------------------------------------*/
  28:Drivers/STM32G4xx_HAL_Driver/Inc/stm32g4xx_ll_cordic.h **** #include "stm32g4xx.h"
  29:Drivers/STM32G4xx_HAL_Driver/Inc/stm32g4xx_ll_cordic.h **** 
  30:Drivers/STM32G4xx_HAL_Driver/Inc/stm32g4xx_ll_cordic.h **** /** @addtogroup STM32G4xx_LL_Driver
  31:Drivers/STM32G4xx_HAL_Driver/Inc/stm32g4xx_ll_cordic.h ****   * @{
  32:Drivers/STM32G4xx_HAL_Driver/Inc/stm32g4xx_ll_cordic.h ****   */
  33:Drivers/STM32G4xx_HAL_Driver/Inc/stm32g4xx_ll_cordic.h **** 
  34:Drivers/STM32G4xx_HAL_Driver/Inc/stm32g4xx_ll_cordic.h **** #if defined(CORDIC)
  35:Drivers/STM32G4xx_HAL_Driver/Inc/stm32g4xx_ll_cordic.h **** 
  36:Drivers/STM32G4xx_HAL_Driver/Inc/stm32g4xx_ll_cordic.h **** /** @defgroup CORDIC_LL CORDIC
  37:Drivers/STM32G4xx_HAL_Driver/Inc/stm32g4xx_ll_cordic.h ****   * @{
  38:Drivers/STM32G4xx_HAL_Driver/Inc/stm32g4xx_ll_cordic.h ****   */
  39:Drivers/STM32G4xx_HAL_Driver/Inc/stm32g4xx_ll_cordic.h **** 
  40:Drivers/STM32G4xx_HAL_Driver/Inc/stm32g4xx_ll_cordic.h **** /* Private variables ---------------------------------------------------------*/
  41:Drivers/STM32G4xx_HAL_Driver/Inc/stm32g4xx_ll_cordic.h **** 
  42:Drivers/STM32G4xx_HAL_Driver/Inc/stm32g4xx_ll_cordic.h **** /* Private constants ---------------------------------------------------------*/
  43:Drivers/STM32G4xx_HAL_Driver/Inc/stm32g4xx_ll_cordic.h **** 
  44:Drivers/STM32G4xx_HAL_Driver/Inc/stm32g4xx_ll_cordic.h **** /* Private macros ------------------------------------------------------------*/
  45:Drivers/STM32G4xx_HAL_Driver/Inc/stm32g4xx_ll_cordic.h **** 
  46:Drivers/STM32G4xx_HAL_Driver/Inc/stm32g4xx_ll_cordic.h **** /* Exported types ------------------------------------------------------------*/
  47:Drivers/STM32G4xx_HAL_Driver/Inc/stm32g4xx_ll_cordic.h **** 
  48:Drivers/STM32G4xx_HAL_Driver/Inc/stm32g4xx_ll_cordic.h **** /* Exported constants --------------------------------------------------------*/
  49:Drivers/STM32G4xx_HAL_Driver/Inc/stm32g4xx_ll_cordic.h **** /** @defgroup CORDIC_LL_Exported_Constants CORDIC Exported Constants
  50:Drivers/STM32G4xx_HAL_Driver/Inc/stm32g4xx_ll_cordic.h ****   * @{
  51:Drivers/STM32G4xx_HAL_Driver/Inc/stm32g4xx_ll_cordic.h ****   */
  52:Drivers/STM32G4xx_HAL_Driver/Inc/stm32g4xx_ll_cordic.h **** 
  53:Drivers/STM32G4xx_HAL_Driver/Inc/stm32g4xx_ll_cordic.h **** /** @defgroup CORDIC_LL_EC_GET_FLAG Get Flags Defines
ARM GAS  /tmp/ccBip7Dy.s 			page 33


  54:Drivers/STM32G4xx_HAL_Driver/Inc/stm32g4xx_ll_cordic.h ****   * @brief    Flags defines which can be used with LL_CORDIC_ReadReg function.
  55:Drivers/STM32G4xx_HAL_Driver/Inc/stm32g4xx_ll_cordic.h ****   * @{
  56:Drivers/STM32G4xx_HAL_Driver/Inc/stm32g4xx_ll_cordic.h ****   */
  57:Drivers/STM32G4xx_HAL_Driver/Inc/stm32g4xx_ll_cordic.h **** #define LL_CORDIC_FLAG_RRDY                CORDIC_CSR_RRDY
  58:Drivers/STM32G4xx_HAL_Driver/Inc/stm32g4xx_ll_cordic.h **** /**
  59:Drivers/STM32G4xx_HAL_Driver/Inc/stm32g4xx_ll_cordic.h ****   * @}
  60:Drivers/STM32G4xx_HAL_Driver/Inc/stm32g4xx_ll_cordic.h ****   */
  61:Drivers/STM32G4xx_HAL_Driver/Inc/stm32g4xx_ll_cordic.h **** 
  62:Drivers/STM32G4xx_HAL_Driver/Inc/stm32g4xx_ll_cordic.h **** /** @defgroup CORDIC_LL_EC_IT IT Defines
  63:Drivers/STM32G4xx_HAL_Driver/Inc/stm32g4xx_ll_cordic.h ****   * @brief    IT defines which can be used with LL_CORDIC_ReadReg and LL_CORDIC_WriteReg functions.
  64:Drivers/STM32G4xx_HAL_Driver/Inc/stm32g4xx_ll_cordic.h ****   * @{
  65:Drivers/STM32G4xx_HAL_Driver/Inc/stm32g4xx_ll_cordic.h ****   */
  66:Drivers/STM32G4xx_HAL_Driver/Inc/stm32g4xx_ll_cordic.h **** #define LL_CORDIC_IT_IEN                   CORDIC_CSR_IEN            /*!< Result Ready interrupt en
  67:Drivers/STM32G4xx_HAL_Driver/Inc/stm32g4xx_ll_cordic.h **** /**
  68:Drivers/STM32G4xx_HAL_Driver/Inc/stm32g4xx_ll_cordic.h ****   * @}
  69:Drivers/STM32G4xx_HAL_Driver/Inc/stm32g4xx_ll_cordic.h ****   */
  70:Drivers/STM32G4xx_HAL_Driver/Inc/stm32g4xx_ll_cordic.h **** 
  71:Drivers/STM32G4xx_HAL_Driver/Inc/stm32g4xx_ll_cordic.h **** /** @defgroup CORDIC_LL_EC_FUNCTION FUNCTION
  72:Drivers/STM32G4xx_HAL_Driver/Inc/stm32g4xx_ll_cordic.h ****   * @{
  73:Drivers/STM32G4xx_HAL_Driver/Inc/stm32g4xx_ll_cordic.h ****   */
  74:Drivers/STM32G4xx_HAL_Driver/Inc/stm32g4xx_ll_cordic.h **** #define LL_CORDIC_FUNCTION_COSINE          (0x00000000U)                                           
  75:Drivers/STM32G4xx_HAL_Driver/Inc/stm32g4xx_ll_cordic.h **** #define LL_CORDIC_FUNCTION_SINE            ((uint32_t)(CORDIC_CSR_FUNC_0))                         
  76:Drivers/STM32G4xx_HAL_Driver/Inc/stm32g4xx_ll_cordic.h **** #define LL_CORDIC_FUNCTION_PHASE           ((uint32_t)(CORDIC_CSR_FUNC_1))                         
  77:Drivers/STM32G4xx_HAL_Driver/Inc/stm32g4xx_ll_cordic.h **** #define LL_CORDIC_FUNCTION_MODULUS         ((uint32_t)(CORDIC_CSR_FUNC_1 | CORDIC_CSR_FUNC_0))     
  78:Drivers/STM32G4xx_HAL_Driver/Inc/stm32g4xx_ll_cordic.h **** #define LL_CORDIC_FUNCTION_ARCTANGENT      ((uint32_t)(CORDIC_CSR_FUNC_2))                         
  79:Drivers/STM32G4xx_HAL_Driver/Inc/stm32g4xx_ll_cordic.h **** #define LL_CORDIC_FUNCTION_HCOSINE         ((uint32_t)(CORDIC_CSR_FUNC_2 | CORDIC_CSR_FUNC_0))     
  80:Drivers/STM32G4xx_HAL_Driver/Inc/stm32g4xx_ll_cordic.h **** #define LL_CORDIC_FUNCTION_HSINE           ((uint32_t)(CORDIC_CSR_FUNC_2 | CORDIC_CSR_FUNC_1))     
  81:Drivers/STM32G4xx_HAL_Driver/Inc/stm32g4xx_ll_cordic.h **** #define LL_CORDIC_FUNCTION_HARCTANGENT     ((uint32_t)(CORDIC_CSR_FUNC_2 | CORDIC_CSR_FUNC_1 | CORD
  82:Drivers/STM32G4xx_HAL_Driver/Inc/stm32g4xx_ll_cordic.h **** #define LL_CORDIC_FUNCTION_NATURALLOG      ((uint32_t)(CORDIC_CSR_FUNC_3))                         
  83:Drivers/STM32G4xx_HAL_Driver/Inc/stm32g4xx_ll_cordic.h **** #define LL_CORDIC_FUNCTION_SQUAREROOT      ((uint32_t)(CORDIC_CSR_FUNC_3 | CORDIC_CSR_FUNC_0))     
  84:Drivers/STM32G4xx_HAL_Driver/Inc/stm32g4xx_ll_cordic.h **** /**
  85:Drivers/STM32G4xx_HAL_Driver/Inc/stm32g4xx_ll_cordic.h ****   * @}
  86:Drivers/STM32G4xx_HAL_Driver/Inc/stm32g4xx_ll_cordic.h ****   */
  87:Drivers/STM32G4xx_HAL_Driver/Inc/stm32g4xx_ll_cordic.h **** 
  88:Drivers/STM32G4xx_HAL_Driver/Inc/stm32g4xx_ll_cordic.h **** /** @defgroup CORDIC_LL_EC_PRECISION PRECISION
  89:Drivers/STM32G4xx_HAL_Driver/Inc/stm32g4xx_ll_cordic.h ****   * @{
  90:Drivers/STM32G4xx_HAL_Driver/Inc/stm32g4xx_ll_cordic.h ****   */
  91:Drivers/STM32G4xx_HAL_Driver/Inc/stm32g4xx_ll_cordic.h **** #define LL_CORDIC_PRECISION_1CYCLE         ((uint32_t)(CORDIC_CSR_PRECISION_0))
  92:Drivers/STM32G4xx_HAL_Driver/Inc/stm32g4xx_ll_cordic.h **** #define LL_CORDIC_PRECISION_2CYCLES        ((uint32_t)(CORDIC_CSR_PRECISION_1))
  93:Drivers/STM32G4xx_HAL_Driver/Inc/stm32g4xx_ll_cordic.h **** #define LL_CORDIC_PRECISION_3CYCLES        ((uint32_t)(CORDIC_CSR_PRECISION_1 | CORDIC_CSR_PRECISIO
  94:Drivers/STM32G4xx_HAL_Driver/Inc/stm32g4xx_ll_cordic.h **** #define LL_CORDIC_PRECISION_4CYCLES        ((uint32_t)(CORDIC_CSR_PRECISION_2))
  95:Drivers/STM32G4xx_HAL_Driver/Inc/stm32g4xx_ll_cordic.h **** #define LL_CORDIC_PRECISION_5CYCLES        ((uint32_t)(CORDIC_CSR_PRECISION_2 | CORDIC_CSR_PRECISIO
  96:Drivers/STM32G4xx_HAL_Driver/Inc/stm32g4xx_ll_cordic.h **** #define LL_CORDIC_PRECISION_6CYCLES        ((uint32_t)(CORDIC_CSR_PRECISION_2 | CORDIC_CSR_PRECISIO
  97:Drivers/STM32G4xx_HAL_Driver/Inc/stm32g4xx_ll_cordic.h **** #define LL_CORDIC_PRECISION_7CYCLES        ((uint32_t)(CORDIC_CSR_PRECISION_2\
  98:Drivers/STM32G4xx_HAL_Driver/Inc/stm32g4xx_ll_cordic.h ****                                                        | CORDIC_CSR_PRECISION_1 | CORDIC_CSR_PRECIS
  99:Drivers/STM32G4xx_HAL_Driver/Inc/stm32g4xx_ll_cordic.h **** #define LL_CORDIC_PRECISION_8CYCLES        ((uint32_t)(CORDIC_CSR_PRECISION_3))
 100:Drivers/STM32G4xx_HAL_Driver/Inc/stm32g4xx_ll_cordic.h **** #define LL_CORDIC_PRECISION_9CYCLES        ((uint32_t)(CORDIC_CSR_PRECISION_3 | CORDIC_CSR_PRECISIO
 101:Drivers/STM32G4xx_HAL_Driver/Inc/stm32g4xx_ll_cordic.h **** #define LL_CORDIC_PRECISION_10CYCLES       ((uint32_t)(CORDIC_CSR_PRECISION_3 | CORDIC_CSR_PRECISIO
 102:Drivers/STM32G4xx_HAL_Driver/Inc/stm32g4xx_ll_cordic.h **** #define LL_CORDIC_PRECISION_11CYCLES       ((uint32_t)(CORDIC_CSR_PRECISION_3\
 103:Drivers/STM32G4xx_HAL_Driver/Inc/stm32g4xx_ll_cordic.h ****                                                        | CORDIC_CSR_PRECISION_1 | CORDIC_CSR_PRECIS
 104:Drivers/STM32G4xx_HAL_Driver/Inc/stm32g4xx_ll_cordic.h **** #define LL_CORDIC_PRECISION_12CYCLES       ((uint32_t)(CORDIC_CSR_PRECISION_3 | CORDIC_CSR_PRECISIO
 105:Drivers/STM32G4xx_HAL_Driver/Inc/stm32g4xx_ll_cordic.h **** #define LL_CORDIC_PRECISION_13CYCLES       ((uint32_t)(CORDIC_CSR_PRECISION_3\
 106:Drivers/STM32G4xx_HAL_Driver/Inc/stm32g4xx_ll_cordic.h ****                                                        | CORDIC_CSR_PRECISION_2 | CORDIC_CSR_PRECIS
 107:Drivers/STM32G4xx_HAL_Driver/Inc/stm32g4xx_ll_cordic.h **** #define LL_CORDIC_PRECISION_14CYCLES       ((uint32_t)(CORDIC_CSR_PRECISION_3\
 108:Drivers/STM32G4xx_HAL_Driver/Inc/stm32g4xx_ll_cordic.h ****                                                        | CORDIC_CSR_PRECISION_2 | CORDIC_CSR_PRECIS
 109:Drivers/STM32G4xx_HAL_Driver/Inc/stm32g4xx_ll_cordic.h **** #define LL_CORDIC_PRECISION_15CYCLES       ((uint32_t)(CORDIC_CSR_PRECISION_3\
 110:Drivers/STM32G4xx_HAL_Driver/Inc/stm32g4xx_ll_cordic.h ****                                                        | CORDIC_CSR_PRECISION_2 | CORDIC_CSR_PRECIS
ARM GAS  /tmp/ccBip7Dy.s 			page 34


 111:Drivers/STM32G4xx_HAL_Driver/Inc/stm32g4xx_ll_cordic.h ****                                                        | CORDIC_CSR_PRECISION_0))
 112:Drivers/STM32G4xx_HAL_Driver/Inc/stm32g4xx_ll_cordic.h **** /**
 113:Drivers/STM32G4xx_HAL_Driver/Inc/stm32g4xx_ll_cordic.h ****   * @}
 114:Drivers/STM32G4xx_HAL_Driver/Inc/stm32g4xx_ll_cordic.h ****   */
 115:Drivers/STM32G4xx_HAL_Driver/Inc/stm32g4xx_ll_cordic.h **** 
 116:Drivers/STM32G4xx_HAL_Driver/Inc/stm32g4xx_ll_cordic.h **** /** @defgroup CORDIC_LL_EC_SCALE SCALE
 117:Drivers/STM32G4xx_HAL_Driver/Inc/stm32g4xx_ll_cordic.h ****   * @{
 118:Drivers/STM32G4xx_HAL_Driver/Inc/stm32g4xx_ll_cordic.h ****   */
 119:Drivers/STM32G4xx_HAL_Driver/Inc/stm32g4xx_ll_cordic.h **** #define LL_CORDIC_SCALE_0                  (0x00000000U)
 120:Drivers/STM32G4xx_HAL_Driver/Inc/stm32g4xx_ll_cordic.h **** #define LL_CORDIC_SCALE_1                  ((uint32_t)(CORDIC_CSR_SCALE_0))
 121:Drivers/STM32G4xx_HAL_Driver/Inc/stm32g4xx_ll_cordic.h **** #define LL_CORDIC_SCALE_2                  ((uint32_t)(CORDIC_CSR_SCALE_1))
 122:Drivers/STM32G4xx_HAL_Driver/Inc/stm32g4xx_ll_cordic.h **** #define LL_CORDIC_SCALE_3                  ((uint32_t)(CORDIC_CSR_SCALE_1 | CORDIC_CSR_SCALE_0))
 123:Drivers/STM32G4xx_HAL_Driver/Inc/stm32g4xx_ll_cordic.h **** #define LL_CORDIC_SCALE_4                  ((uint32_t)(CORDIC_CSR_SCALE_2))
 124:Drivers/STM32G4xx_HAL_Driver/Inc/stm32g4xx_ll_cordic.h **** #define LL_CORDIC_SCALE_5                  ((uint32_t)(CORDIC_CSR_SCALE_2 | CORDIC_CSR_SCALE_0))
 125:Drivers/STM32G4xx_HAL_Driver/Inc/stm32g4xx_ll_cordic.h **** #define LL_CORDIC_SCALE_6                  ((uint32_t)(CORDIC_CSR_SCALE_2 | CORDIC_CSR_SCALE_1))
 126:Drivers/STM32G4xx_HAL_Driver/Inc/stm32g4xx_ll_cordic.h **** #define LL_CORDIC_SCALE_7                  ((uint32_t)(CORDIC_CSR_SCALE_2 | CORDIC_CSR_SCALE_1 | CO
 127:Drivers/STM32G4xx_HAL_Driver/Inc/stm32g4xx_ll_cordic.h **** /**
 128:Drivers/STM32G4xx_HAL_Driver/Inc/stm32g4xx_ll_cordic.h ****   * @}
 129:Drivers/STM32G4xx_HAL_Driver/Inc/stm32g4xx_ll_cordic.h ****   */
 130:Drivers/STM32G4xx_HAL_Driver/Inc/stm32g4xx_ll_cordic.h **** 
 131:Drivers/STM32G4xx_HAL_Driver/Inc/stm32g4xx_ll_cordic.h **** /** @defgroup CORDIC_LL_EC_NBWRITE NBWRITE
 132:Drivers/STM32G4xx_HAL_Driver/Inc/stm32g4xx_ll_cordic.h ****   * @{
 133:Drivers/STM32G4xx_HAL_Driver/Inc/stm32g4xx_ll_cordic.h ****   */
 134:Drivers/STM32G4xx_HAL_Driver/Inc/stm32g4xx_ll_cordic.h **** #define LL_CORDIC_NBWRITE_1                (0x00000000U)             /*!< One 32-bits write contain
 135:Drivers/STM32G4xx_HAL_Driver/Inc/stm32g4xx_ll_cordic.h ****                                                                           32-bit data input (Q1.31 
 136:Drivers/STM32G4xx_HAL_Driver/Inc/stm32g4xx_ll_cordic.h ****                                                                           16-bit data input (Q1.15 
 137:Drivers/STM32G4xx_HAL_Driver/Inc/stm32g4xx_ll_cordic.h ****                                                                           in one 32 bits Data */
 138:Drivers/STM32G4xx_HAL_Driver/Inc/stm32g4xx_ll_cordic.h **** #define LL_CORDIC_NBWRITE_2                CORDIC_CSR_NARGS          /*!< Two 32-bit write containi
 139:Drivers/STM32G4xx_HAL_Driver/Inc/stm32g4xx_ll_cordic.h ****                                                                           (Q1.31 format) */
 140:Drivers/STM32G4xx_HAL_Driver/Inc/stm32g4xx_ll_cordic.h **** /**
 141:Drivers/STM32G4xx_HAL_Driver/Inc/stm32g4xx_ll_cordic.h ****   * @}
 142:Drivers/STM32G4xx_HAL_Driver/Inc/stm32g4xx_ll_cordic.h ****   */
 143:Drivers/STM32G4xx_HAL_Driver/Inc/stm32g4xx_ll_cordic.h **** 
 144:Drivers/STM32G4xx_HAL_Driver/Inc/stm32g4xx_ll_cordic.h **** /** @defgroup CORDIC_LL_EC_NBREAD NBREAD
 145:Drivers/STM32G4xx_HAL_Driver/Inc/stm32g4xx_ll_cordic.h ****   * @{
 146:Drivers/STM32G4xx_HAL_Driver/Inc/stm32g4xx_ll_cordic.h ****   */
 147:Drivers/STM32G4xx_HAL_Driver/Inc/stm32g4xx_ll_cordic.h **** #define LL_CORDIC_NBREAD_1                 (0x00000000U)             /*!< One 32-bits read containi
 148:Drivers/STM32G4xx_HAL_Driver/Inc/stm32g4xx_ll_cordic.h ****                                                                           32-bit data output (Q1.31
 149:Drivers/STM32G4xx_HAL_Driver/Inc/stm32g4xx_ll_cordic.h ****                                                                           16-bit data output (Q1.15
 150:Drivers/STM32G4xx_HAL_Driver/Inc/stm32g4xx_ll_cordic.h ****                                                                           in one 32 bits Data */
 151:Drivers/STM32G4xx_HAL_Driver/Inc/stm32g4xx_ll_cordic.h **** #define LL_CORDIC_NBREAD_2                 CORDIC_CSR_NRES           /*!< Two 32-bit Data containin
 152:Drivers/STM32G4xx_HAL_Driver/Inc/stm32g4xx_ll_cordic.h ****                                                                           (Q1.31 format) */
 153:Drivers/STM32G4xx_HAL_Driver/Inc/stm32g4xx_ll_cordic.h **** /**
 154:Drivers/STM32G4xx_HAL_Driver/Inc/stm32g4xx_ll_cordic.h ****   * @}
 155:Drivers/STM32G4xx_HAL_Driver/Inc/stm32g4xx_ll_cordic.h ****   */
 156:Drivers/STM32G4xx_HAL_Driver/Inc/stm32g4xx_ll_cordic.h **** 
 157:Drivers/STM32G4xx_HAL_Driver/Inc/stm32g4xx_ll_cordic.h **** /** @defgroup CORDIC_LL_EC_INSIZE INSIZE
 158:Drivers/STM32G4xx_HAL_Driver/Inc/stm32g4xx_ll_cordic.h ****   * @{
 159:Drivers/STM32G4xx_HAL_Driver/Inc/stm32g4xx_ll_cordic.h ****   */
 160:Drivers/STM32G4xx_HAL_Driver/Inc/stm32g4xx_ll_cordic.h **** #define LL_CORDIC_INSIZE_32BITS            (0x00000000U)             /*!< 32 bits input data size (
 161:Drivers/STM32G4xx_HAL_Driver/Inc/stm32g4xx_ll_cordic.h **** #define LL_CORDIC_INSIZE_16BITS            CORDIC_CSR_ARGSIZE        /*!< 16 bits input data size (
 162:Drivers/STM32G4xx_HAL_Driver/Inc/stm32g4xx_ll_cordic.h **** /**
 163:Drivers/STM32G4xx_HAL_Driver/Inc/stm32g4xx_ll_cordic.h ****   * @}
 164:Drivers/STM32G4xx_HAL_Driver/Inc/stm32g4xx_ll_cordic.h ****   */
 165:Drivers/STM32G4xx_HAL_Driver/Inc/stm32g4xx_ll_cordic.h **** 
 166:Drivers/STM32G4xx_HAL_Driver/Inc/stm32g4xx_ll_cordic.h **** /** @defgroup CORDIC_LL_EC_OUTSIZE OUTSIZE
 167:Drivers/STM32G4xx_HAL_Driver/Inc/stm32g4xx_ll_cordic.h ****   * @{
ARM GAS  /tmp/ccBip7Dy.s 			page 35


 168:Drivers/STM32G4xx_HAL_Driver/Inc/stm32g4xx_ll_cordic.h ****   */
 169:Drivers/STM32G4xx_HAL_Driver/Inc/stm32g4xx_ll_cordic.h **** #define LL_CORDIC_OUTSIZE_32BITS           (0x00000000U)             /*!< 32 bits output data size 
 170:Drivers/STM32G4xx_HAL_Driver/Inc/stm32g4xx_ll_cordic.h **** #define LL_CORDIC_OUTSIZE_16BITS           CORDIC_CSR_RESSIZE        /*!< 16 bits output data size 
 171:Drivers/STM32G4xx_HAL_Driver/Inc/stm32g4xx_ll_cordic.h **** /**
 172:Drivers/STM32G4xx_HAL_Driver/Inc/stm32g4xx_ll_cordic.h ****   * @}
 173:Drivers/STM32G4xx_HAL_Driver/Inc/stm32g4xx_ll_cordic.h ****   */
 174:Drivers/STM32G4xx_HAL_Driver/Inc/stm32g4xx_ll_cordic.h **** 
 175:Drivers/STM32G4xx_HAL_Driver/Inc/stm32g4xx_ll_cordic.h **** /** @defgroup CORDIC_LL_EC_DMA_REG_DATA DMA register data
 176:Drivers/STM32G4xx_HAL_Driver/Inc/stm32g4xx_ll_cordic.h ****   * @{
 177:Drivers/STM32G4xx_HAL_Driver/Inc/stm32g4xx_ll_cordic.h ****   */
 178:Drivers/STM32G4xx_HAL_Driver/Inc/stm32g4xx_ll_cordic.h **** #define LL_CORDIC_DMA_REG_DATA_IN          (0x00000000U)             /*!< Get address of input data
 179:Drivers/STM32G4xx_HAL_Driver/Inc/stm32g4xx_ll_cordic.h **** #define LL_CORDIC_DMA_REG_DATA_OUT         (0x00000001U)             /*!< Get address of output dat
 180:Drivers/STM32G4xx_HAL_Driver/Inc/stm32g4xx_ll_cordic.h **** /**
 181:Drivers/STM32G4xx_HAL_Driver/Inc/stm32g4xx_ll_cordic.h ****   * @}
 182:Drivers/STM32G4xx_HAL_Driver/Inc/stm32g4xx_ll_cordic.h ****   */
 183:Drivers/STM32G4xx_HAL_Driver/Inc/stm32g4xx_ll_cordic.h **** 
 184:Drivers/STM32G4xx_HAL_Driver/Inc/stm32g4xx_ll_cordic.h **** /**
 185:Drivers/STM32G4xx_HAL_Driver/Inc/stm32g4xx_ll_cordic.h ****   * @}
 186:Drivers/STM32G4xx_HAL_Driver/Inc/stm32g4xx_ll_cordic.h ****   */
 187:Drivers/STM32G4xx_HAL_Driver/Inc/stm32g4xx_ll_cordic.h **** 
 188:Drivers/STM32G4xx_HAL_Driver/Inc/stm32g4xx_ll_cordic.h **** /* Exported macro ------------------------------------------------------------*/
 189:Drivers/STM32G4xx_HAL_Driver/Inc/stm32g4xx_ll_cordic.h **** /** @defgroup CORDIC_LL_Exported_Macros CORDIC Exported Macros
 190:Drivers/STM32G4xx_HAL_Driver/Inc/stm32g4xx_ll_cordic.h ****   * @{
 191:Drivers/STM32G4xx_HAL_Driver/Inc/stm32g4xx_ll_cordic.h ****   */
 192:Drivers/STM32G4xx_HAL_Driver/Inc/stm32g4xx_ll_cordic.h **** 
 193:Drivers/STM32G4xx_HAL_Driver/Inc/stm32g4xx_ll_cordic.h **** /** @defgroup CORDIC_LL_EM_WRITE_READ Common Write and read registers Macros
 194:Drivers/STM32G4xx_HAL_Driver/Inc/stm32g4xx_ll_cordic.h ****   * @{
 195:Drivers/STM32G4xx_HAL_Driver/Inc/stm32g4xx_ll_cordic.h ****   */
 196:Drivers/STM32G4xx_HAL_Driver/Inc/stm32g4xx_ll_cordic.h **** 
 197:Drivers/STM32G4xx_HAL_Driver/Inc/stm32g4xx_ll_cordic.h **** /**
 198:Drivers/STM32G4xx_HAL_Driver/Inc/stm32g4xx_ll_cordic.h ****   * @brief  Write a value in CORDIC register.
 199:Drivers/STM32G4xx_HAL_Driver/Inc/stm32g4xx_ll_cordic.h ****   * @param  __INSTANCE__ CORDIC Instance
 200:Drivers/STM32G4xx_HAL_Driver/Inc/stm32g4xx_ll_cordic.h ****   * @param  __REG__ Register to be written
 201:Drivers/STM32G4xx_HAL_Driver/Inc/stm32g4xx_ll_cordic.h ****   * @param  __VALUE__ Value to be written in the register
 202:Drivers/STM32G4xx_HAL_Driver/Inc/stm32g4xx_ll_cordic.h ****   * @retval None
 203:Drivers/STM32G4xx_HAL_Driver/Inc/stm32g4xx_ll_cordic.h ****   */
 204:Drivers/STM32G4xx_HAL_Driver/Inc/stm32g4xx_ll_cordic.h **** #define LL_CORDIC_WriteReg(__INSTANCE__, __REG__, __VALUE__) WRITE_REG(__INSTANCE__->__REG__, (__VA
 205:Drivers/STM32G4xx_HAL_Driver/Inc/stm32g4xx_ll_cordic.h **** 
 206:Drivers/STM32G4xx_HAL_Driver/Inc/stm32g4xx_ll_cordic.h **** /**
 207:Drivers/STM32G4xx_HAL_Driver/Inc/stm32g4xx_ll_cordic.h ****   * @brief  Read a value in CORDIC register.
 208:Drivers/STM32G4xx_HAL_Driver/Inc/stm32g4xx_ll_cordic.h ****   * @param  __INSTANCE__ CORDIC Instance
 209:Drivers/STM32G4xx_HAL_Driver/Inc/stm32g4xx_ll_cordic.h ****   * @param  __REG__ Register to be read
 210:Drivers/STM32G4xx_HAL_Driver/Inc/stm32g4xx_ll_cordic.h ****   * @retval Register value
 211:Drivers/STM32G4xx_HAL_Driver/Inc/stm32g4xx_ll_cordic.h ****   */
 212:Drivers/STM32G4xx_HAL_Driver/Inc/stm32g4xx_ll_cordic.h **** #define LL_CORDIC_ReadReg(__INSTANCE__, __REG__) READ_REG(__INSTANCE__->__REG__)
 213:Drivers/STM32G4xx_HAL_Driver/Inc/stm32g4xx_ll_cordic.h **** /**
 214:Drivers/STM32G4xx_HAL_Driver/Inc/stm32g4xx_ll_cordic.h ****   * @}
 215:Drivers/STM32G4xx_HAL_Driver/Inc/stm32g4xx_ll_cordic.h ****   */
 216:Drivers/STM32G4xx_HAL_Driver/Inc/stm32g4xx_ll_cordic.h **** 
 217:Drivers/STM32G4xx_HAL_Driver/Inc/stm32g4xx_ll_cordic.h **** /**
 218:Drivers/STM32G4xx_HAL_Driver/Inc/stm32g4xx_ll_cordic.h ****   * @}
 219:Drivers/STM32G4xx_HAL_Driver/Inc/stm32g4xx_ll_cordic.h ****   */
 220:Drivers/STM32G4xx_HAL_Driver/Inc/stm32g4xx_ll_cordic.h **** 
 221:Drivers/STM32G4xx_HAL_Driver/Inc/stm32g4xx_ll_cordic.h **** 
 222:Drivers/STM32G4xx_HAL_Driver/Inc/stm32g4xx_ll_cordic.h **** /* Exported functions --------------------------------------------------------*/
 223:Drivers/STM32G4xx_HAL_Driver/Inc/stm32g4xx_ll_cordic.h **** 
 224:Drivers/STM32G4xx_HAL_Driver/Inc/stm32g4xx_ll_cordic.h **** /** @defgroup CORDIC_LL_Exported_Functions CORDIC Exported Functions
ARM GAS  /tmp/ccBip7Dy.s 			page 36


 225:Drivers/STM32G4xx_HAL_Driver/Inc/stm32g4xx_ll_cordic.h ****   * @{
 226:Drivers/STM32G4xx_HAL_Driver/Inc/stm32g4xx_ll_cordic.h ****   */
 227:Drivers/STM32G4xx_HAL_Driver/Inc/stm32g4xx_ll_cordic.h **** 
 228:Drivers/STM32G4xx_HAL_Driver/Inc/stm32g4xx_ll_cordic.h **** /** @defgroup CORDIC_LL_EF_Configuration CORDIC Configuration functions
 229:Drivers/STM32G4xx_HAL_Driver/Inc/stm32g4xx_ll_cordic.h ****   * @{
 230:Drivers/STM32G4xx_HAL_Driver/Inc/stm32g4xx_ll_cordic.h ****   */
 231:Drivers/STM32G4xx_HAL_Driver/Inc/stm32g4xx_ll_cordic.h **** 
 232:Drivers/STM32G4xx_HAL_Driver/Inc/stm32g4xx_ll_cordic.h **** /**
 233:Drivers/STM32G4xx_HAL_Driver/Inc/stm32g4xx_ll_cordic.h ****   * @brief  Configure the CORDIC processing.
 234:Drivers/STM32G4xx_HAL_Driver/Inc/stm32g4xx_ll_cordic.h ****   * @note   This function set all parameters of CORDIC processing.
 235:Drivers/STM32G4xx_HAL_Driver/Inc/stm32g4xx_ll_cordic.h ****   *         These parameters can also be set individually using
 236:Drivers/STM32G4xx_HAL_Driver/Inc/stm32g4xx_ll_cordic.h ****   *         dedicated functions:
 237:Drivers/STM32G4xx_HAL_Driver/Inc/stm32g4xx_ll_cordic.h ****   *         - @ref LL_CORDIC_SetFunction()
 238:Drivers/STM32G4xx_HAL_Driver/Inc/stm32g4xx_ll_cordic.h ****   *         - @ref LL_CORDIC_SetPrecision()
 239:Drivers/STM32G4xx_HAL_Driver/Inc/stm32g4xx_ll_cordic.h ****   *         - @ref LL_CORDIC_SetScale()
 240:Drivers/STM32G4xx_HAL_Driver/Inc/stm32g4xx_ll_cordic.h ****   *         - @ref LL_CORDIC_SetNbWrite()
 241:Drivers/STM32G4xx_HAL_Driver/Inc/stm32g4xx_ll_cordic.h ****   *         - @ref LL_CORDIC_SetNbRead()
 242:Drivers/STM32G4xx_HAL_Driver/Inc/stm32g4xx_ll_cordic.h ****   *         - @ref LL_CORDIC_SetInSize()
 243:Drivers/STM32G4xx_HAL_Driver/Inc/stm32g4xx_ll_cordic.h ****   *         - @ref LL_CORDIC_SetOutSize()
 244:Drivers/STM32G4xx_HAL_Driver/Inc/stm32g4xx_ll_cordic.h ****   * @rmtoll CSR          FUNC          LL_CORDIC_Config\n
 245:Drivers/STM32G4xx_HAL_Driver/Inc/stm32g4xx_ll_cordic.h ****   *         CSR          PRECISION     LL_CORDIC_Config\n
 246:Drivers/STM32G4xx_HAL_Driver/Inc/stm32g4xx_ll_cordic.h ****   *         CSR          SCALE         LL_CORDIC_Config\n
 247:Drivers/STM32G4xx_HAL_Driver/Inc/stm32g4xx_ll_cordic.h ****   *         CSR          NARGS         LL_CORDIC_Config\n
 248:Drivers/STM32G4xx_HAL_Driver/Inc/stm32g4xx_ll_cordic.h ****   *         CSR          NRES          LL_CORDIC_Config\n
 249:Drivers/STM32G4xx_HAL_Driver/Inc/stm32g4xx_ll_cordic.h ****   *         CSR          ARGSIZE       LL_CORDIC_Config\n
 250:Drivers/STM32G4xx_HAL_Driver/Inc/stm32g4xx_ll_cordic.h ****   *         CSR          RESIZE        LL_CORDIC_Config
 251:Drivers/STM32G4xx_HAL_Driver/Inc/stm32g4xx_ll_cordic.h ****   * @param  CORDICx CORDIC instance
 252:Drivers/STM32G4xx_HAL_Driver/Inc/stm32g4xx_ll_cordic.h ****   * @param  Function parameter can be one of the following values:
 253:Drivers/STM32G4xx_HAL_Driver/Inc/stm32g4xx_ll_cordic.h ****   *         @arg @ref LL_CORDIC_FUNCTION_COSINE
 254:Drivers/STM32G4xx_HAL_Driver/Inc/stm32g4xx_ll_cordic.h ****   *         @arg @ref LL_CORDIC_FUNCTION_SINE
 255:Drivers/STM32G4xx_HAL_Driver/Inc/stm32g4xx_ll_cordic.h ****   *         @arg @ref LL_CORDIC_FUNCTION_PHASE
 256:Drivers/STM32G4xx_HAL_Driver/Inc/stm32g4xx_ll_cordic.h ****   *         @arg @ref LL_CORDIC_FUNCTION_MODULUS
 257:Drivers/STM32G4xx_HAL_Driver/Inc/stm32g4xx_ll_cordic.h ****   *         @arg @ref LL_CORDIC_FUNCTION_ARCTANGENT
 258:Drivers/STM32G4xx_HAL_Driver/Inc/stm32g4xx_ll_cordic.h ****   *         @arg @ref LL_CORDIC_FUNCTION_HCOSINE
 259:Drivers/STM32G4xx_HAL_Driver/Inc/stm32g4xx_ll_cordic.h ****   *         @arg @ref LL_CORDIC_FUNCTION_HSINE
 260:Drivers/STM32G4xx_HAL_Driver/Inc/stm32g4xx_ll_cordic.h ****   *         @arg @ref LL_CORDIC_FUNCTION_HARCTANGENT
 261:Drivers/STM32G4xx_HAL_Driver/Inc/stm32g4xx_ll_cordic.h ****   *         @arg @ref LL_CORDIC_FUNCTION_NATURALLOG
 262:Drivers/STM32G4xx_HAL_Driver/Inc/stm32g4xx_ll_cordic.h ****   *         @arg @ref LL_CORDIC_FUNCTION_SQUAREROOT
 263:Drivers/STM32G4xx_HAL_Driver/Inc/stm32g4xx_ll_cordic.h ****   * @param  Precision parameter can be one of the following values:
 264:Drivers/STM32G4xx_HAL_Driver/Inc/stm32g4xx_ll_cordic.h ****   *         @arg @ref LL_CORDIC_PRECISION_1CYCLE
 265:Drivers/STM32G4xx_HAL_Driver/Inc/stm32g4xx_ll_cordic.h ****   *         @arg @ref LL_CORDIC_PRECISION_2CYCLES
 266:Drivers/STM32G4xx_HAL_Driver/Inc/stm32g4xx_ll_cordic.h ****   *         @arg @ref LL_CORDIC_PRECISION_3CYCLES
 267:Drivers/STM32G4xx_HAL_Driver/Inc/stm32g4xx_ll_cordic.h ****   *         @arg @ref LL_CORDIC_PRECISION_4CYCLES
 268:Drivers/STM32G4xx_HAL_Driver/Inc/stm32g4xx_ll_cordic.h ****   *         @arg @ref LL_CORDIC_PRECISION_5CYCLES
 269:Drivers/STM32G4xx_HAL_Driver/Inc/stm32g4xx_ll_cordic.h ****   *         @arg @ref LL_CORDIC_PRECISION_6CYCLES
 270:Drivers/STM32G4xx_HAL_Driver/Inc/stm32g4xx_ll_cordic.h ****   *         @arg @ref LL_CORDIC_PRECISION_7CYCLES
 271:Drivers/STM32G4xx_HAL_Driver/Inc/stm32g4xx_ll_cordic.h ****   *         @arg @ref LL_CORDIC_PRECISION_8CYCLES
 272:Drivers/STM32G4xx_HAL_Driver/Inc/stm32g4xx_ll_cordic.h ****   *         @arg @ref LL_CORDIC_PRECISION_9CYCLES
 273:Drivers/STM32G4xx_HAL_Driver/Inc/stm32g4xx_ll_cordic.h ****   *         @arg @ref LL_CORDIC_PRECISION_10CYCLES
 274:Drivers/STM32G4xx_HAL_Driver/Inc/stm32g4xx_ll_cordic.h ****   *         @arg @ref LL_CORDIC_PRECISION_11CYCLES
 275:Drivers/STM32G4xx_HAL_Driver/Inc/stm32g4xx_ll_cordic.h ****   *         @arg @ref LL_CORDIC_PRECISION_12CYCLES
 276:Drivers/STM32G4xx_HAL_Driver/Inc/stm32g4xx_ll_cordic.h ****   *         @arg @ref LL_CORDIC_PRECISION_13CYCLES
 277:Drivers/STM32G4xx_HAL_Driver/Inc/stm32g4xx_ll_cordic.h ****   *         @arg @ref LL_CORDIC_PRECISION_14CYCLES
 278:Drivers/STM32G4xx_HAL_Driver/Inc/stm32g4xx_ll_cordic.h ****   *         @arg @ref LL_CORDIC_PRECISION_15CYCLES
 279:Drivers/STM32G4xx_HAL_Driver/Inc/stm32g4xx_ll_cordic.h ****   * @param  Scale parameter can be one of the following values:
 280:Drivers/STM32G4xx_HAL_Driver/Inc/stm32g4xx_ll_cordic.h ****   *         @arg @ref LL_CORDIC_SCALE_0
 281:Drivers/STM32G4xx_HAL_Driver/Inc/stm32g4xx_ll_cordic.h ****   *         @arg @ref LL_CORDIC_SCALE_1
ARM GAS  /tmp/ccBip7Dy.s 			page 37


 282:Drivers/STM32G4xx_HAL_Driver/Inc/stm32g4xx_ll_cordic.h ****   *         @arg @ref LL_CORDIC_SCALE_2
 283:Drivers/STM32G4xx_HAL_Driver/Inc/stm32g4xx_ll_cordic.h ****   *         @arg @ref LL_CORDIC_SCALE_3
 284:Drivers/STM32G4xx_HAL_Driver/Inc/stm32g4xx_ll_cordic.h ****   *         @arg @ref LL_CORDIC_SCALE_4
 285:Drivers/STM32G4xx_HAL_Driver/Inc/stm32g4xx_ll_cordic.h ****   *         @arg @ref LL_CORDIC_SCALE_5
 286:Drivers/STM32G4xx_HAL_Driver/Inc/stm32g4xx_ll_cordic.h ****   *         @arg @ref LL_CORDIC_SCALE_6
 287:Drivers/STM32G4xx_HAL_Driver/Inc/stm32g4xx_ll_cordic.h ****   *         @arg @ref LL_CORDIC_SCALE_7
 288:Drivers/STM32G4xx_HAL_Driver/Inc/stm32g4xx_ll_cordic.h ****   * @param  NbWrite parameter can be one of the following values:
 289:Drivers/STM32G4xx_HAL_Driver/Inc/stm32g4xx_ll_cordic.h ****   *         @arg @ref LL_CORDIC_NBWRITE_1
 290:Drivers/STM32G4xx_HAL_Driver/Inc/stm32g4xx_ll_cordic.h ****   *         @arg @ref LL_CORDIC_NBWRITE_2
 291:Drivers/STM32G4xx_HAL_Driver/Inc/stm32g4xx_ll_cordic.h ****   * @param  NbRead parameter can be one of the following values:
 292:Drivers/STM32G4xx_HAL_Driver/Inc/stm32g4xx_ll_cordic.h ****   *         @arg @ref LL_CORDIC_NBREAD_1
 293:Drivers/STM32G4xx_HAL_Driver/Inc/stm32g4xx_ll_cordic.h ****   *         @arg @ref LL_CORDIC_NBREAD_2
 294:Drivers/STM32G4xx_HAL_Driver/Inc/stm32g4xx_ll_cordic.h ****   * @param  InSize parameter can be one of the following values:
 295:Drivers/STM32G4xx_HAL_Driver/Inc/stm32g4xx_ll_cordic.h ****   *         @arg @ref LL_CORDIC_INSIZE_32BITS
 296:Drivers/STM32G4xx_HAL_Driver/Inc/stm32g4xx_ll_cordic.h ****   *         @arg @ref LL_CORDIC_INSIZE_16BITS
 297:Drivers/STM32G4xx_HAL_Driver/Inc/stm32g4xx_ll_cordic.h ****   * @param  OutSize parameter can be one of the following values:
 298:Drivers/STM32G4xx_HAL_Driver/Inc/stm32g4xx_ll_cordic.h ****   *         @arg @ref LL_CORDIC_OUTSIZE_32BITS
 299:Drivers/STM32G4xx_HAL_Driver/Inc/stm32g4xx_ll_cordic.h ****   *         @arg @ref LL_CORDIC_OUTSIZE_16BITS
 300:Drivers/STM32G4xx_HAL_Driver/Inc/stm32g4xx_ll_cordic.h ****   * @retval None
 301:Drivers/STM32G4xx_HAL_Driver/Inc/stm32g4xx_ll_cordic.h ****   */
 302:Drivers/STM32G4xx_HAL_Driver/Inc/stm32g4xx_ll_cordic.h **** __STATIC_INLINE void LL_CORDIC_Config(CORDIC_TypeDef *CORDICx, uint32_t Function, uint32_t Precisio
 1361              		.loc 2 302 22 view .LVU404
 1362              	.LBB50:
 303:Drivers/STM32G4xx_HAL_Driver/Inc/stm32g4xx_ll_cordic.h ****                                       uint32_t NbWrite, uint32_t NbRead, uint32_t InSize, uint32_t 
 304:Drivers/STM32G4xx_HAL_Driver/Inc/stm32g4xx_ll_cordic.h **** {
 305:Drivers/STM32G4xx_HAL_Driver/Inc/stm32g4xx_ll_cordic.h ****   MODIFY_REG(CORDICx->CSR,
 1363              		.loc 2 305 3 view .LVU405
 1364 0024 224E     		ldr	r6, .L117+8
 1365 0026 3268     		ldr	r2, [r6]
 1366              	.LVL128:
 1367              		.loc 2 305 3 is_stmt 0 view .LVU406
 1368 0028 224C     		ldr	r4, .L117+12
 1369 002a 1440     		ands	r4, r4, r2
 1370 002c 44F40024 		orr	r4, r4, #524288
 1371 0030 44F06004 		orr	r4, r4, #96
 1372 0034 3460     		str	r4, [r6]
 1373              	.LVL129:
 1374              		.loc 2 305 3 view .LVU407
 1375              	.LBE50:
 1376              	.LBE49:
 295:Src/utils.cpp ****                      LL_CORDIC_FUNCTION_COSINE,
 296:Src/utils.cpp ****                      LL_CORDIC_PRECISION_6CYCLES,
 297:Src/utils.cpp ****                      LL_CORDIC_SCALE_0,
 298:Src/utils.cpp ****                      LL_CORDIC_NBWRITE_1,
 299:Src/utils.cpp ****                      LL_CORDIC_NBREAD_2,
 300:Src/utils.cpp ****                      LL_CORDIC_INSIZE_32BITS,
 301:Src/utils.cpp ****                      LL_CORDIC_OUTSIZE_32BITS);
 302:Src/utils.cpp ****     
 303:Src/utils.cpp ****     // Write input data
 304:Src/utils.cpp ****     LL_CORDIC_WriteData(CORDIC, angle);
 1377              		.loc 1 304 5 is_stmt 1 view .LVU408
 1378              	.LBB51:
 1379              	.LBI51:
 306:Drivers/STM32G4xx_HAL_Driver/Inc/stm32g4xx_ll_cordic.h ****              CORDIC_CSR_FUNC | CORDIC_CSR_PRECISION | CORDIC_CSR_SCALE |
 307:Drivers/STM32G4xx_HAL_Driver/Inc/stm32g4xx_ll_cordic.h ****              CORDIC_CSR_NARGS | CORDIC_CSR_NRES | CORDIC_CSR_ARGSIZE | CORDIC_CSR_RESSIZE,
 308:Drivers/STM32G4xx_HAL_Driver/Inc/stm32g4xx_ll_cordic.h ****              Function | Precision | Scale |
 309:Drivers/STM32G4xx_HAL_Driver/Inc/stm32g4xx_ll_cordic.h ****              NbWrite | NbRead | InSize | OutSize);
ARM GAS  /tmp/ccBip7Dy.s 			page 38


 310:Drivers/STM32G4xx_HAL_Driver/Inc/stm32g4xx_ll_cordic.h **** }
 311:Drivers/STM32G4xx_HAL_Driver/Inc/stm32g4xx_ll_cordic.h **** 
 312:Drivers/STM32G4xx_HAL_Driver/Inc/stm32g4xx_ll_cordic.h **** /**
 313:Drivers/STM32G4xx_HAL_Driver/Inc/stm32g4xx_ll_cordic.h ****   * @brief  Configure function.
 314:Drivers/STM32G4xx_HAL_Driver/Inc/stm32g4xx_ll_cordic.h ****   * @rmtoll CSR          FUNC          LL_CORDIC_SetFunction
 315:Drivers/STM32G4xx_HAL_Driver/Inc/stm32g4xx_ll_cordic.h ****   * @param  CORDICx CORDIC Instance
 316:Drivers/STM32G4xx_HAL_Driver/Inc/stm32g4xx_ll_cordic.h ****   * @param  Function parameter can be one of the following values:
 317:Drivers/STM32G4xx_HAL_Driver/Inc/stm32g4xx_ll_cordic.h ****   *         @arg @ref LL_CORDIC_FUNCTION_COSINE
 318:Drivers/STM32G4xx_HAL_Driver/Inc/stm32g4xx_ll_cordic.h ****   *         @arg @ref LL_CORDIC_FUNCTION_SINE
 319:Drivers/STM32G4xx_HAL_Driver/Inc/stm32g4xx_ll_cordic.h ****   *         @arg @ref LL_CORDIC_FUNCTION_PHASE
 320:Drivers/STM32G4xx_HAL_Driver/Inc/stm32g4xx_ll_cordic.h ****   *         @arg @ref LL_CORDIC_FUNCTION_MODULUS
 321:Drivers/STM32G4xx_HAL_Driver/Inc/stm32g4xx_ll_cordic.h ****   *         @arg @ref LL_CORDIC_FUNCTION_ARCTANGENT
 322:Drivers/STM32G4xx_HAL_Driver/Inc/stm32g4xx_ll_cordic.h ****   *         @arg @ref LL_CORDIC_FUNCTION_HCOSINE
 323:Drivers/STM32G4xx_HAL_Driver/Inc/stm32g4xx_ll_cordic.h ****   *         @arg @ref LL_CORDIC_FUNCTION_HSINE
 324:Drivers/STM32G4xx_HAL_Driver/Inc/stm32g4xx_ll_cordic.h ****   *         @arg @ref LL_CORDIC_FUNCTION_HARCTANGENT
 325:Drivers/STM32G4xx_HAL_Driver/Inc/stm32g4xx_ll_cordic.h ****   *         @arg @ref LL_CORDIC_FUNCTION_NATURALLOG
 326:Drivers/STM32G4xx_HAL_Driver/Inc/stm32g4xx_ll_cordic.h ****   *         @arg @ref LL_CORDIC_FUNCTION_SQUAREROOT
 327:Drivers/STM32G4xx_HAL_Driver/Inc/stm32g4xx_ll_cordic.h ****   * @retval None
 328:Drivers/STM32G4xx_HAL_Driver/Inc/stm32g4xx_ll_cordic.h ****   */
 329:Drivers/STM32G4xx_HAL_Driver/Inc/stm32g4xx_ll_cordic.h **** __STATIC_INLINE void LL_CORDIC_SetFunction(CORDIC_TypeDef *CORDICx, uint32_t Function)
 330:Drivers/STM32G4xx_HAL_Driver/Inc/stm32g4xx_ll_cordic.h **** {
 331:Drivers/STM32G4xx_HAL_Driver/Inc/stm32g4xx_ll_cordic.h ****   MODIFY_REG(CORDICx->CSR, CORDIC_CSR_FUNC, Function);
 332:Drivers/STM32G4xx_HAL_Driver/Inc/stm32g4xx_ll_cordic.h **** }
 333:Drivers/STM32G4xx_HAL_Driver/Inc/stm32g4xx_ll_cordic.h **** 
 334:Drivers/STM32G4xx_HAL_Driver/Inc/stm32g4xx_ll_cordic.h **** /**
 335:Drivers/STM32G4xx_HAL_Driver/Inc/stm32g4xx_ll_cordic.h ****   * @brief  Return function.
 336:Drivers/STM32G4xx_HAL_Driver/Inc/stm32g4xx_ll_cordic.h ****   * @rmtoll CSR          FUNC          LL_CORDIC_GetFunction
 337:Drivers/STM32G4xx_HAL_Driver/Inc/stm32g4xx_ll_cordic.h ****   * @param  CORDICx CORDIC Instance
 338:Drivers/STM32G4xx_HAL_Driver/Inc/stm32g4xx_ll_cordic.h ****   * @retval Returned value can be one of the following values:
 339:Drivers/STM32G4xx_HAL_Driver/Inc/stm32g4xx_ll_cordic.h ****   *         @arg @ref LL_CORDIC_FUNCTION_COSINE
 340:Drivers/STM32G4xx_HAL_Driver/Inc/stm32g4xx_ll_cordic.h ****   *         @arg @ref LL_CORDIC_FUNCTION_SINE
 341:Drivers/STM32G4xx_HAL_Driver/Inc/stm32g4xx_ll_cordic.h ****   *         @arg @ref LL_CORDIC_FUNCTION_PHASE
 342:Drivers/STM32G4xx_HAL_Driver/Inc/stm32g4xx_ll_cordic.h ****   *         @arg @ref LL_CORDIC_FUNCTION_MODULUS
 343:Drivers/STM32G4xx_HAL_Driver/Inc/stm32g4xx_ll_cordic.h ****   *         @arg @ref LL_CORDIC_FUNCTION_ARCTANGENT
 344:Drivers/STM32G4xx_HAL_Driver/Inc/stm32g4xx_ll_cordic.h ****   *         @arg @ref LL_CORDIC_FUNCTION_HCOSINE
 345:Drivers/STM32G4xx_HAL_Driver/Inc/stm32g4xx_ll_cordic.h ****   *         @arg @ref LL_CORDIC_FUNCTION_HSINE
 346:Drivers/STM32G4xx_HAL_Driver/Inc/stm32g4xx_ll_cordic.h ****   *         @arg @ref LL_CORDIC_FUNCTION_HARCTANGENT
 347:Drivers/STM32G4xx_HAL_Driver/Inc/stm32g4xx_ll_cordic.h ****   *         @arg @ref LL_CORDIC_FUNCTION_NATURALLOG
 348:Drivers/STM32G4xx_HAL_Driver/Inc/stm32g4xx_ll_cordic.h ****   *         @arg @ref LL_CORDIC_FUNCTION_SQUAREROOT
 349:Drivers/STM32G4xx_HAL_Driver/Inc/stm32g4xx_ll_cordic.h ****   */
 350:Drivers/STM32G4xx_HAL_Driver/Inc/stm32g4xx_ll_cordic.h **** __STATIC_INLINE uint32_t LL_CORDIC_GetFunction(const CORDIC_TypeDef *CORDICx)
 351:Drivers/STM32G4xx_HAL_Driver/Inc/stm32g4xx_ll_cordic.h **** {
 352:Drivers/STM32G4xx_HAL_Driver/Inc/stm32g4xx_ll_cordic.h ****   return (uint32_t)(READ_BIT(CORDICx->CSR, CORDIC_CSR_FUNC));
 353:Drivers/STM32G4xx_HAL_Driver/Inc/stm32g4xx_ll_cordic.h **** }
 354:Drivers/STM32G4xx_HAL_Driver/Inc/stm32g4xx_ll_cordic.h **** 
 355:Drivers/STM32G4xx_HAL_Driver/Inc/stm32g4xx_ll_cordic.h **** /**
 356:Drivers/STM32G4xx_HAL_Driver/Inc/stm32g4xx_ll_cordic.h ****   * @brief  Configure precision in cycles number.
 357:Drivers/STM32G4xx_HAL_Driver/Inc/stm32g4xx_ll_cordic.h ****   * @rmtoll CSR          PRECISION     LL_CORDIC_SetPrecision
 358:Drivers/STM32G4xx_HAL_Driver/Inc/stm32g4xx_ll_cordic.h ****   * @param  CORDICx CORDIC Instance
 359:Drivers/STM32G4xx_HAL_Driver/Inc/stm32g4xx_ll_cordic.h ****   * @param  Precision parameter can be one of the following values:
 360:Drivers/STM32G4xx_HAL_Driver/Inc/stm32g4xx_ll_cordic.h ****   *         @arg @ref LL_CORDIC_PRECISION_1CYCLE
 361:Drivers/STM32G4xx_HAL_Driver/Inc/stm32g4xx_ll_cordic.h ****   *         @arg @ref LL_CORDIC_PRECISION_2CYCLES
 362:Drivers/STM32G4xx_HAL_Driver/Inc/stm32g4xx_ll_cordic.h ****   *         @arg @ref LL_CORDIC_PRECISION_3CYCLES
 363:Drivers/STM32G4xx_HAL_Driver/Inc/stm32g4xx_ll_cordic.h ****   *         @arg @ref LL_CORDIC_PRECISION_4CYCLES
 364:Drivers/STM32G4xx_HAL_Driver/Inc/stm32g4xx_ll_cordic.h ****   *         @arg @ref LL_CORDIC_PRECISION_5CYCLES
 365:Drivers/STM32G4xx_HAL_Driver/Inc/stm32g4xx_ll_cordic.h ****   *         @arg @ref LL_CORDIC_PRECISION_6CYCLES
 366:Drivers/STM32G4xx_HAL_Driver/Inc/stm32g4xx_ll_cordic.h ****   *         @arg @ref LL_CORDIC_PRECISION_7CYCLES
ARM GAS  /tmp/ccBip7Dy.s 			page 39


 367:Drivers/STM32G4xx_HAL_Driver/Inc/stm32g4xx_ll_cordic.h ****   *         @arg @ref LL_CORDIC_PRECISION_8CYCLES
 368:Drivers/STM32G4xx_HAL_Driver/Inc/stm32g4xx_ll_cordic.h ****   *         @arg @ref LL_CORDIC_PRECISION_9CYCLES
 369:Drivers/STM32G4xx_HAL_Driver/Inc/stm32g4xx_ll_cordic.h ****   *         @arg @ref LL_CORDIC_PRECISION_10CYCLES
 370:Drivers/STM32G4xx_HAL_Driver/Inc/stm32g4xx_ll_cordic.h ****   *         @arg @ref LL_CORDIC_PRECISION_11CYCLES
 371:Drivers/STM32G4xx_HAL_Driver/Inc/stm32g4xx_ll_cordic.h ****   *         @arg @ref LL_CORDIC_PRECISION_12CYCLES
 372:Drivers/STM32G4xx_HAL_Driver/Inc/stm32g4xx_ll_cordic.h ****   *         @arg @ref LL_CORDIC_PRECISION_13CYCLES
 373:Drivers/STM32G4xx_HAL_Driver/Inc/stm32g4xx_ll_cordic.h ****   *         @arg @ref LL_CORDIC_PRECISION_14CYCLES
 374:Drivers/STM32G4xx_HAL_Driver/Inc/stm32g4xx_ll_cordic.h ****   *         @arg @ref LL_CORDIC_PRECISION_15CYCLES
 375:Drivers/STM32G4xx_HAL_Driver/Inc/stm32g4xx_ll_cordic.h ****   * @retval None
 376:Drivers/STM32G4xx_HAL_Driver/Inc/stm32g4xx_ll_cordic.h ****   */
 377:Drivers/STM32G4xx_HAL_Driver/Inc/stm32g4xx_ll_cordic.h **** __STATIC_INLINE void LL_CORDIC_SetPrecision(CORDIC_TypeDef *CORDICx, uint32_t Precision)
 378:Drivers/STM32G4xx_HAL_Driver/Inc/stm32g4xx_ll_cordic.h **** {
 379:Drivers/STM32G4xx_HAL_Driver/Inc/stm32g4xx_ll_cordic.h ****   MODIFY_REG(CORDICx->CSR, CORDIC_CSR_PRECISION, Precision);
 380:Drivers/STM32G4xx_HAL_Driver/Inc/stm32g4xx_ll_cordic.h **** }
 381:Drivers/STM32G4xx_HAL_Driver/Inc/stm32g4xx_ll_cordic.h **** 
 382:Drivers/STM32G4xx_HAL_Driver/Inc/stm32g4xx_ll_cordic.h **** /**
 383:Drivers/STM32G4xx_HAL_Driver/Inc/stm32g4xx_ll_cordic.h ****   * @brief  Return precision in cycles number.
 384:Drivers/STM32G4xx_HAL_Driver/Inc/stm32g4xx_ll_cordic.h ****   * @rmtoll CSR          PRECISION     LL_CORDIC_GetPrecision
 385:Drivers/STM32G4xx_HAL_Driver/Inc/stm32g4xx_ll_cordic.h ****   * @param  CORDICx CORDIC Instance
 386:Drivers/STM32G4xx_HAL_Driver/Inc/stm32g4xx_ll_cordic.h ****   * @retval Returned value can be one of the following values:
 387:Drivers/STM32G4xx_HAL_Driver/Inc/stm32g4xx_ll_cordic.h ****   *         @arg @ref LL_CORDIC_PRECISION_1CYCLE
 388:Drivers/STM32G4xx_HAL_Driver/Inc/stm32g4xx_ll_cordic.h ****   *         @arg @ref LL_CORDIC_PRECISION_2CYCLES
 389:Drivers/STM32G4xx_HAL_Driver/Inc/stm32g4xx_ll_cordic.h ****   *         @arg @ref LL_CORDIC_PRECISION_3CYCLES
 390:Drivers/STM32G4xx_HAL_Driver/Inc/stm32g4xx_ll_cordic.h ****   *         @arg @ref LL_CORDIC_PRECISION_4CYCLES
 391:Drivers/STM32G4xx_HAL_Driver/Inc/stm32g4xx_ll_cordic.h ****   *         @arg @ref LL_CORDIC_PRECISION_5CYCLES
 392:Drivers/STM32G4xx_HAL_Driver/Inc/stm32g4xx_ll_cordic.h ****   *         @arg @ref LL_CORDIC_PRECISION_6CYCLES
 393:Drivers/STM32G4xx_HAL_Driver/Inc/stm32g4xx_ll_cordic.h ****   *         @arg @ref LL_CORDIC_PRECISION_7CYCLES
 394:Drivers/STM32G4xx_HAL_Driver/Inc/stm32g4xx_ll_cordic.h ****   *         @arg @ref LL_CORDIC_PRECISION_8CYCLES
 395:Drivers/STM32G4xx_HAL_Driver/Inc/stm32g4xx_ll_cordic.h ****   *         @arg @ref LL_CORDIC_PRECISION_9CYCLES
 396:Drivers/STM32G4xx_HAL_Driver/Inc/stm32g4xx_ll_cordic.h ****   *         @arg @ref LL_CORDIC_PRECISION_10CYCLES
 397:Drivers/STM32G4xx_HAL_Driver/Inc/stm32g4xx_ll_cordic.h ****   *         @arg @ref LL_CORDIC_PRECISION_11CYCLES
 398:Drivers/STM32G4xx_HAL_Driver/Inc/stm32g4xx_ll_cordic.h ****   *         @arg @ref LL_CORDIC_PRECISION_12CYCLES
 399:Drivers/STM32G4xx_HAL_Driver/Inc/stm32g4xx_ll_cordic.h ****   *         @arg @ref LL_CORDIC_PRECISION_13CYCLES
 400:Drivers/STM32G4xx_HAL_Driver/Inc/stm32g4xx_ll_cordic.h ****   *         @arg @ref LL_CORDIC_PRECISION_14CYCLES
 401:Drivers/STM32G4xx_HAL_Driver/Inc/stm32g4xx_ll_cordic.h ****   *         @arg @ref LL_CORDIC_PRECISION_15CYCLES
 402:Drivers/STM32G4xx_HAL_Driver/Inc/stm32g4xx_ll_cordic.h ****   */
 403:Drivers/STM32G4xx_HAL_Driver/Inc/stm32g4xx_ll_cordic.h **** __STATIC_INLINE uint32_t LL_CORDIC_GetPrecision(const CORDIC_TypeDef *CORDICx)
 404:Drivers/STM32G4xx_HAL_Driver/Inc/stm32g4xx_ll_cordic.h **** {
 405:Drivers/STM32G4xx_HAL_Driver/Inc/stm32g4xx_ll_cordic.h ****   return (uint32_t)(READ_BIT(CORDICx->CSR, CORDIC_CSR_PRECISION));
 406:Drivers/STM32G4xx_HAL_Driver/Inc/stm32g4xx_ll_cordic.h **** }
 407:Drivers/STM32G4xx_HAL_Driver/Inc/stm32g4xx_ll_cordic.h **** 
 408:Drivers/STM32G4xx_HAL_Driver/Inc/stm32g4xx_ll_cordic.h **** /**
 409:Drivers/STM32G4xx_HAL_Driver/Inc/stm32g4xx_ll_cordic.h ****   * @brief  Configure scaling factor.
 410:Drivers/STM32G4xx_HAL_Driver/Inc/stm32g4xx_ll_cordic.h ****   * @rmtoll CSR          SCALE         LL_CORDIC_SetScale
 411:Drivers/STM32G4xx_HAL_Driver/Inc/stm32g4xx_ll_cordic.h ****   * @param  CORDICx CORDIC Instance
 412:Drivers/STM32G4xx_HAL_Driver/Inc/stm32g4xx_ll_cordic.h ****   * @param  Scale parameter can be one of the following values:
 413:Drivers/STM32G4xx_HAL_Driver/Inc/stm32g4xx_ll_cordic.h ****   *         @arg @ref LL_CORDIC_SCALE_0
 414:Drivers/STM32G4xx_HAL_Driver/Inc/stm32g4xx_ll_cordic.h ****   *         @arg @ref LL_CORDIC_SCALE_1
 415:Drivers/STM32G4xx_HAL_Driver/Inc/stm32g4xx_ll_cordic.h ****   *         @arg @ref LL_CORDIC_SCALE_2
 416:Drivers/STM32G4xx_HAL_Driver/Inc/stm32g4xx_ll_cordic.h ****   *         @arg @ref LL_CORDIC_SCALE_3
 417:Drivers/STM32G4xx_HAL_Driver/Inc/stm32g4xx_ll_cordic.h ****   *         @arg @ref LL_CORDIC_SCALE_4
 418:Drivers/STM32G4xx_HAL_Driver/Inc/stm32g4xx_ll_cordic.h ****   *         @arg @ref LL_CORDIC_SCALE_5
 419:Drivers/STM32G4xx_HAL_Driver/Inc/stm32g4xx_ll_cordic.h ****   *         @arg @ref LL_CORDIC_SCALE_6
 420:Drivers/STM32G4xx_HAL_Driver/Inc/stm32g4xx_ll_cordic.h ****   *         @arg @ref LL_CORDIC_SCALE_7
 421:Drivers/STM32G4xx_HAL_Driver/Inc/stm32g4xx_ll_cordic.h ****   * @retval None
 422:Drivers/STM32G4xx_HAL_Driver/Inc/stm32g4xx_ll_cordic.h ****   */
 423:Drivers/STM32G4xx_HAL_Driver/Inc/stm32g4xx_ll_cordic.h **** __STATIC_INLINE void LL_CORDIC_SetScale(CORDIC_TypeDef *CORDICx, uint32_t Scale)
ARM GAS  /tmp/ccBip7Dy.s 			page 40


 424:Drivers/STM32G4xx_HAL_Driver/Inc/stm32g4xx_ll_cordic.h **** {
 425:Drivers/STM32G4xx_HAL_Driver/Inc/stm32g4xx_ll_cordic.h ****   MODIFY_REG(CORDICx->CSR, CORDIC_CSR_SCALE, Scale);
 426:Drivers/STM32G4xx_HAL_Driver/Inc/stm32g4xx_ll_cordic.h **** }
 427:Drivers/STM32G4xx_HAL_Driver/Inc/stm32g4xx_ll_cordic.h **** 
 428:Drivers/STM32G4xx_HAL_Driver/Inc/stm32g4xx_ll_cordic.h **** /**
 429:Drivers/STM32G4xx_HAL_Driver/Inc/stm32g4xx_ll_cordic.h ****   * @brief  Return scaling factor.
 430:Drivers/STM32G4xx_HAL_Driver/Inc/stm32g4xx_ll_cordic.h ****   * @rmtoll CSR          SCALE         LL_CORDIC_GetScale
 431:Drivers/STM32G4xx_HAL_Driver/Inc/stm32g4xx_ll_cordic.h ****   * @param  CORDICx CORDIC Instance
 432:Drivers/STM32G4xx_HAL_Driver/Inc/stm32g4xx_ll_cordic.h ****   * @retval Returned value can be one of the following values:
 433:Drivers/STM32G4xx_HAL_Driver/Inc/stm32g4xx_ll_cordic.h ****   *         @arg @ref LL_CORDIC_SCALE_0
 434:Drivers/STM32G4xx_HAL_Driver/Inc/stm32g4xx_ll_cordic.h ****   *         @arg @ref LL_CORDIC_SCALE_1
 435:Drivers/STM32G4xx_HAL_Driver/Inc/stm32g4xx_ll_cordic.h ****   *         @arg @ref LL_CORDIC_SCALE_2
 436:Drivers/STM32G4xx_HAL_Driver/Inc/stm32g4xx_ll_cordic.h ****   *         @arg @ref LL_CORDIC_SCALE_3
 437:Drivers/STM32G4xx_HAL_Driver/Inc/stm32g4xx_ll_cordic.h ****   *         @arg @ref LL_CORDIC_SCALE_4
 438:Drivers/STM32G4xx_HAL_Driver/Inc/stm32g4xx_ll_cordic.h ****   *         @arg @ref LL_CORDIC_SCALE_5
 439:Drivers/STM32G4xx_HAL_Driver/Inc/stm32g4xx_ll_cordic.h ****   *         @arg @ref LL_CORDIC_SCALE_6
 440:Drivers/STM32G4xx_HAL_Driver/Inc/stm32g4xx_ll_cordic.h ****   *         @arg @ref LL_CORDIC_SCALE_7
 441:Drivers/STM32G4xx_HAL_Driver/Inc/stm32g4xx_ll_cordic.h ****   */
 442:Drivers/STM32G4xx_HAL_Driver/Inc/stm32g4xx_ll_cordic.h **** __STATIC_INLINE uint32_t LL_CORDIC_GetScale(const CORDIC_TypeDef *CORDICx)
 443:Drivers/STM32G4xx_HAL_Driver/Inc/stm32g4xx_ll_cordic.h **** {
 444:Drivers/STM32G4xx_HAL_Driver/Inc/stm32g4xx_ll_cordic.h ****   return (uint32_t)(READ_BIT(CORDICx->CSR, CORDIC_CSR_SCALE));
 445:Drivers/STM32G4xx_HAL_Driver/Inc/stm32g4xx_ll_cordic.h **** }
 446:Drivers/STM32G4xx_HAL_Driver/Inc/stm32g4xx_ll_cordic.h **** 
 447:Drivers/STM32G4xx_HAL_Driver/Inc/stm32g4xx_ll_cordic.h **** /**
 448:Drivers/STM32G4xx_HAL_Driver/Inc/stm32g4xx_ll_cordic.h ****   * @brief  Configure number of 32-bit write expected for one calculation.
 449:Drivers/STM32G4xx_HAL_Driver/Inc/stm32g4xx_ll_cordic.h ****   * @rmtoll CSR          NARGS         LL_CORDIC_SetNbWrite
 450:Drivers/STM32G4xx_HAL_Driver/Inc/stm32g4xx_ll_cordic.h ****   * @param  CORDICx CORDIC Instance
 451:Drivers/STM32G4xx_HAL_Driver/Inc/stm32g4xx_ll_cordic.h ****   * @param  NbWrite parameter can be one of the following values:
 452:Drivers/STM32G4xx_HAL_Driver/Inc/stm32g4xx_ll_cordic.h ****   *         @arg @ref LL_CORDIC_NBWRITE_1
 453:Drivers/STM32G4xx_HAL_Driver/Inc/stm32g4xx_ll_cordic.h ****   *         @arg @ref LL_CORDIC_NBWRITE_2
 454:Drivers/STM32G4xx_HAL_Driver/Inc/stm32g4xx_ll_cordic.h ****   * @retval None
 455:Drivers/STM32G4xx_HAL_Driver/Inc/stm32g4xx_ll_cordic.h ****   */
 456:Drivers/STM32G4xx_HAL_Driver/Inc/stm32g4xx_ll_cordic.h **** __STATIC_INLINE void LL_CORDIC_SetNbWrite(CORDIC_TypeDef *CORDICx, uint32_t NbWrite)
 457:Drivers/STM32G4xx_HAL_Driver/Inc/stm32g4xx_ll_cordic.h **** {
 458:Drivers/STM32G4xx_HAL_Driver/Inc/stm32g4xx_ll_cordic.h ****   MODIFY_REG(CORDICx->CSR, CORDIC_CSR_NARGS, NbWrite);
 459:Drivers/STM32G4xx_HAL_Driver/Inc/stm32g4xx_ll_cordic.h **** }
 460:Drivers/STM32G4xx_HAL_Driver/Inc/stm32g4xx_ll_cordic.h **** 
 461:Drivers/STM32G4xx_HAL_Driver/Inc/stm32g4xx_ll_cordic.h **** /**
 462:Drivers/STM32G4xx_HAL_Driver/Inc/stm32g4xx_ll_cordic.h ****   * @brief  Return number of 32-bit write expected for one calculation.
 463:Drivers/STM32G4xx_HAL_Driver/Inc/stm32g4xx_ll_cordic.h ****   * @rmtoll CSR          NARGS         LL_CORDIC_GetNbWrite
 464:Drivers/STM32G4xx_HAL_Driver/Inc/stm32g4xx_ll_cordic.h ****   * @param  CORDICx CORDIC Instance
 465:Drivers/STM32G4xx_HAL_Driver/Inc/stm32g4xx_ll_cordic.h ****   * @retval Returned value can be one of the following values:
 466:Drivers/STM32G4xx_HAL_Driver/Inc/stm32g4xx_ll_cordic.h ****   *         @arg @ref LL_CORDIC_NBWRITE_1
 467:Drivers/STM32G4xx_HAL_Driver/Inc/stm32g4xx_ll_cordic.h ****   *         @arg @ref LL_CORDIC_NBWRITE_2
 468:Drivers/STM32G4xx_HAL_Driver/Inc/stm32g4xx_ll_cordic.h ****   */
 469:Drivers/STM32G4xx_HAL_Driver/Inc/stm32g4xx_ll_cordic.h **** __STATIC_INLINE uint32_t LL_CORDIC_GetNbWrite(const CORDIC_TypeDef *CORDICx)
 470:Drivers/STM32G4xx_HAL_Driver/Inc/stm32g4xx_ll_cordic.h **** {
 471:Drivers/STM32G4xx_HAL_Driver/Inc/stm32g4xx_ll_cordic.h ****   return (uint32_t)(READ_BIT(CORDICx->CSR, CORDIC_CSR_NARGS));
 472:Drivers/STM32G4xx_HAL_Driver/Inc/stm32g4xx_ll_cordic.h **** }
 473:Drivers/STM32G4xx_HAL_Driver/Inc/stm32g4xx_ll_cordic.h **** 
 474:Drivers/STM32G4xx_HAL_Driver/Inc/stm32g4xx_ll_cordic.h **** /**
 475:Drivers/STM32G4xx_HAL_Driver/Inc/stm32g4xx_ll_cordic.h ****   * @brief  Configure number of 32-bit read expected after one calculation.
 476:Drivers/STM32G4xx_HAL_Driver/Inc/stm32g4xx_ll_cordic.h ****   * @rmtoll CSR          NRES          LL_CORDIC_SetNbRead
 477:Drivers/STM32G4xx_HAL_Driver/Inc/stm32g4xx_ll_cordic.h ****   * @param  CORDICx CORDIC Instance
 478:Drivers/STM32G4xx_HAL_Driver/Inc/stm32g4xx_ll_cordic.h ****   * @param  NbRead parameter can be one of the following values:
 479:Drivers/STM32G4xx_HAL_Driver/Inc/stm32g4xx_ll_cordic.h ****   *         @arg @ref LL_CORDIC_NBREAD_1
 480:Drivers/STM32G4xx_HAL_Driver/Inc/stm32g4xx_ll_cordic.h ****   *         @arg @ref LL_CORDIC_NBREAD_2
ARM GAS  /tmp/ccBip7Dy.s 			page 41


 481:Drivers/STM32G4xx_HAL_Driver/Inc/stm32g4xx_ll_cordic.h ****   * @retval None
 482:Drivers/STM32G4xx_HAL_Driver/Inc/stm32g4xx_ll_cordic.h ****   */
 483:Drivers/STM32G4xx_HAL_Driver/Inc/stm32g4xx_ll_cordic.h **** __STATIC_INLINE void LL_CORDIC_SetNbRead(CORDIC_TypeDef *CORDICx, uint32_t NbRead)
 484:Drivers/STM32G4xx_HAL_Driver/Inc/stm32g4xx_ll_cordic.h **** {
 485:Drivers/STM32G4xx_HAL_Driver/Inc/stm32g4xx_ll_cordic.h ****   MODIFY_REG(CORDICx->CSR, CORDIC_CSR_NRES, NbRead);
 486:Drivers/STM32G4xx_HAL_Driver/Inc/stm32g4xx_ll_cordic.h **** }
 487:Drivers/STM32G4xx_HAL_Driver/Inc/stm32g4xx_ll_cordic.h **** 
 488:Drivers/STM32G4xx_HAL_Driver/Inc/stm32g4xx_ll_cordic.h **** /**
 489:Drivers/STM32G4xx_HAL_Driver/Inc/stm32g4xx_ll_cordic.h ****   * @brief  Return number of 32-bit read expected after one calculation.
 490:Drivers/STM32G4xx_HAL_Driver/Inc/stm32g4xx_ll_cordic.h ****   * @rmtoll CSR          NRES          LL_CORDIC_GetNbRead
 491:Drivers/STM32G4xx_HAL_Driver/Inc/stm32g4xx_ll_cordic.h ****   * @param  CORDICx CORDIC Instance
 492:Drivers/STM32G4xx_HAL_Driver/Inc/stm32g4xx_ll_cordic.h ****   * @retval Returned value can be one of the following values:
 493:Drivers/STM32G4xx_HAL_Driver/Inc/stm32g4xx_ll_cordic.h ****   *         @arg @ref LL_CORDIC_NBREAD_1
 494:Drivers/STM32G4xx_HAL_Driver/Inc/stm32g4xx_ll_cordic.h ****   *         @arg @ref LL_CORDIC_NBREAD_2
 495:Drivers/STM32G4xx_HAL_Driver/Inc/stm32g4xx_ll_cordic.h ****   */
 496:Drivers/STM32G4xx_HAL_Driver/Inc/stm32g4xx_ll_cordic.h **** __STATIC_INLINE uint32_t LL_CORDIC_GetNbRead(const CORDIC_TypeDef *CORDICx)
 497:Drivers/STM32G4xx_HAL_Driver/Inc/stm32g4xx_ll_cordic.h **** {
 498:Drivers/STM32G4xx_HAL_Driver/Inc/stm32g4xx_ll_cordic.h ****   return (uint32_t)(READ_BIT(CORDICx->CSR, CORDIC_CSR_NRES));
 499:Drivers/STM32G4xx_HAL_Driver/Inc/stm32g4xx_ll_cordic.h **** }
 500:Drivers/STM32G4xx_HAL_Driver/Inc/stm32g4xx_ll_cordic.h **** 
 501:Drivers/STM32G4xx_HAL_Driver/Inc/stm32g4xx_ll_cordic.h **** /**
 502:Drivers/STM32G4xx_HAL_Driver/Inc/stm32g4xx_ll_cordic.h ****   * @brief  Configure width of input data.
 503:Drivers/STM32G4xx_HAL_Driver/Inc/stm32g4xx_ll_cordic.h ****   * @rmtoll CSR          ARGSIZE       LL_CORDIC_SetInSize
 504:Drivers/STM32G4xx_HAL_Driver/Inc/stm32g4xx_ll_cordic.h ****   * @param  CORDICx CORDIC Instance
 505:Drivers/STM32G4xx_HAL_Driver/Inc/stm32g4xx_ll_cordic.h ****   * @param  InSize parameter can be one of the following values:
 506:Drivers/STM32G4xx_HAL_Driver/Inc/stm32g4xx_ll_cordic.h ****   *         @arg @ref LL_CORDIC_INSIZE_32BITS
 507:Drivers/STM32G4xx_HAL_Driver/Inc/stm32g4xx_ll_cordic.h ****   *         @arg @ref LL_CORDIC_INSIZE_16BITS
 508:Drivers/STM32G4xx_HAL_Driver/Inc/stm32g4xx_ll_cordic.h ****   * @retval None
 509:Drivers/STM32G4xx_HAL_Driver/Inc/stm32g4xx_ll_cordic.h ****   */
 510:Drivers/STM32G4xx_HAL_Driver/Inc/stm32g4xx_ll_cordic.h **** __STATIC_INLINE void LL_CORDIC_SetInSize(CORDIC_TypeDef *CORDICx, uint32_t InSize)
 511:Drivers/STM32G4xx_HAL_Driver/Inc/stm32g4xx_ll_cordic.h **** {
 512:Drivers/STM32G4xx_HAL_Driver/Inc/stm32g4xx_ll_cordic.h ****   MODIFY_REG(CORDICx->CSR, CORDIC_CSR_ARGSIZE, InSize);
 513:Drivers/STM32G4xx_HAL_Driver/Inc/stm32g4xx_ll_cordic.h **** }
 514:Drivers/STM32G4xx_HAL_Driver/Inc/stm32g4xx_ll_cordic.h **** 
 515:Drivers/STM32G4xx_HAL_Driver/Inc/stm32g4xx_ll_cordic.h **** /**
 516:Drivers/STM32G4xx_HAL_Driver/Inc/stm32g4xx_ll_cordic.h ****   * @brief  Return width of input data.
 517:Drivers/STM32G4xx_HAL_Driver/Inc/stm32g4xx_ll_cordic.h ****   * @rmtoll CSR          ARGSIZE       LL_CORDIC_GetInSize
 518:Drivers/STM32G4xx_HAL_Driver/Inc/stm32g4xx_ll_cordic.h ****   * @param  CORDICx CORDIC Instance
 519:Drivers/STM32G4xx_HAL_Driver/Inc/stm32g4xx_ll_cordic.h ****   * @retval Returned value can be one of the following values:
 520:Drivers/STM32G4xx_HAL_Driver/Inc/stm32g4xx_ll_cordic.h ****   *         @arg @ref LL_CORDIC_INSIZE_32BITS
 521:Drivers/STM32G4xx_HAL_Driver/Inc/stm32g4xx_ll_cordic.h ****   *         @arg @ref LL_CORDIC_INSIZE_16BITS
 522:Drivers/STM32G4xx_HAL_Driver/Inc/stm32g4xx_ll_cordic.h ****   */
 523:Drivers/STM32G4xx_HAL_Driver/Inc/stm32g4xx_ll_cordic.h **** __STATIC_INLINE uint32_t LL_CORDIC_GetInSize(const CORDIC_TypeDef *CORDICx)
 524:Drivers/STM32G4xx_HAL_Driver/Inc/stm32g4xx_ll_cordic.h **** {
 525:Drivers/STM32G4xx_HAL_Driver/Inc/stm32g4xx_ll_cordic.h ****   return (uint32_t)(READ_BIT(CORDICx->CSR, CORDIC_CSR_ARGSIZE));
 526:Drivers/STM32G4xx_HAL_Driver/Inc/stm32g4xx_ll_cordic.h **** }
 527:Drivers/STM32G4xx_HAL_Driver/Inc/stm32g4xx_ll_cordic.h **** 
 528:Drivers/STM32G4xx_HAL_Driver/Inc/stm32g4xx_ll_cordic.h **** /**
 529:Drivers/STM32G4xx_HAL_Driver/Inc/stm32g4xx_ll_cordic.h ****   * @brief  Configure width of output data.
 530:Drivers/STM32G4xx_HAL_Driver/Inc/stm32g4xx_ll_cordic.h ****   * @rmtoll CSR          RESIZE       LL_CORDIC_SetOutSize
 531:Drivers/STM32G4xx_HAL_Driver/Inc/stm32g4xx_ll_cordic.h ****   * @param  CORDICx CORDIC Instance
 532:Drivers/STM32G4xx_HAL_Driver/Inc/stm32g4xx_ll_cordic.h ****   * @param  OutSize parameter can be one of the following values:
 533:Drivers/STM32G4xx_HAL_Driver/Inc/stm32g4xx_ll_cordic.h ****   *         @arg @ref LL_CORDIC_OUTSIZE_32BITS
 534:Drivers/STM32G4xx_HAL_Driver/Inc/stm32g4xx_ll_cordic.h ****   *         @arg @ref LL_CORDIC_OUTSIZE_16BITS
 535:Drivers/STM32G4xx_HAL_Driver/Inc/stm32g4xx_ll_cordic.h ****   * @retval None
 536:Drivers/STM32G4xx_HAL_Driver/Inc/stm32g4xx_ll_cordic.h ****   */
 537:Drivers/STM32G4xx_HAL_Driver/Inc/stm32g4xx_ll_cordic.h **** __STATIC_INLINE void LL_CORDIC_SetOutSize(CORDIC_TypeDef *CORDICx, uint32_t OutSize)
ARM GAS  /tmp/ccBip7Dy.s 			page 42


 538:Drivers/STM32G4xx_HAL_Driver/Inc/stm32g4xx_ll_cordic.h **** {
 539:Drivers/STM32G4xx_HAL_Driver/Inc/stm32g4xx_ll_cordic.h ****   MODIFY_REG(CORDICx->CSR, CORDIC_CSR_RESSIZE, OutSize);
 540:Drivers/STM32G4xx_HAL_Driver/Inc/stm32g4xx_ll_cordic.h **** }
 541:Drivers/STM32G4xx_HAL_Driver/Inc/stm32g4xx_ll_cordic.h **** 
 542:Drivers/STM32G4xx_HAL_Driver/Inc/stm32g4xx_ll_cordic.h **** /**
 543:Drivers/STM32G4xx_HAL_Driver/Inc/stm32g4xx_ll_cordic.h ****   * @brief  Return width of output data.
 544:Drivers/STM32G4xx_HAL_Driver/Inc/stm32g4xx_ll_cordic.h ****   * @rmtoll CSR          RESIZE       LL_CORDIC_GetOutSize
 545:Drivers/STM32G4xx_HAL_Driver/Inc/stm32g4xx_ll_cordic.h ****   * @param  CORDICx CORDIC Instance
 546:Drivers/STM32G4xx_HAL_Driver/Inc/stm32g4xx_ll_cordic.h ****   * @retval Returned value can be one of the following values:
 547:Drivers/STM32G4xx_HAL_Driver/Inc/stm32g4xx_ll_cordic.h ****   *         @arg @ref LL_CORDIC_OUTSIZE_32BITS
 548:Drivers/STM32G4xx_HAL_Driver/Inc/stm32g4xx_ll_cordic.h ****   *         @arg @ref LL_CORDIC_OUTSIZE_16BITS
 549:Drivers/STM32G4xx_HAL_Driver/Inc/stm32g4xx_ll_cordic.h ****   */
 550:Drivers/STM32G4xx_HAL_Driver/Inc/stm32g4xx_ll_cordic.h **** __STATIC_INLINE uint32_t LL_CORDIC_GetOutSize(const CORDIC_TypeDef *CORDICx)
 551:Drivers/STM32G4xx_HAL_Driver/Inc/stm32g4xx_ll_cordic.h **** {
 552:Drivers/STM32G4xx_HAL_Driver/Inc/stm32g4xx_ll_cordic.h ****   return (uint32_t)(READ_BIT(CORDICx->CSR, CORDIC_CSR_RESSIZE));
 553:Drivers/STM32G4xx_HAL_Driver/Inc/stm32g4xx_ll_cordic.h **** }
 554:Drivers/STM32G4xx_HAL_Driver/Inc/stm32g4xx_ll_cordic.h **** 
 555:Drivers/STM32G4xx_HAL_Driver/Inc/stm32g4xx_ll_cordic.h **** /**
 556:Drivers/STM32G4xx_HAL_Driver/Inc/stm32g4xx_ll_cordic.h ****   * @}
 557:Drivers/STM32G4xx_HAL_Driver/Inc/stm32g4xx_ll_cordic.h ****   */
 558:Drivers/STM32G4xx_HAL_Driver/Inc/stm32g4xx_ll_cordic.h **** 
 559:Drivers/STM32G4xx_HAL_Driver/Inc/stm32g4xx_ll_cordic.h **** /** @defgroup CORDIC_LL_EF_IT_Management IT_Management
 560:Drivers/STM32G4xx_HAL_Driver/Inc/stm32g4xx_ll_cordic.h ****   * @{
 561:Drivers/STM32G4xx_HAL_Driver/Inc/stm32g4xx_ll_cordic.h ****   */
 562:Drivers/STM32G4xx_HAL_Driver/Inc/stm32g4xx_ll_cordic.h **** 
 563:Drivers/STM32G4xx_HAL_Driver/Inc/stm32g4xx_ll_cordic.h **** /**
 564:Drivers/STM32G4xx_HAL_Driver/Inc/stm32g4xx_ll_cordic.h ****   * @brief  Enable CORDIC result ready interrupt
 565:Drivers/STM32G4xx_HAL_Driver/Inc/stm32g4xx_ll_cordic.h ****   * @rmtoll CSR          IEN           LL_CORDIC_EnableIT
 566:Drivers/STM32G4xx_HAL_Driver/Inc/stm32g4xx_ll_cordic.h ****   * @param  CORDICx CORDIC Instance
 567:Drivers/STM32G4xx_HAL_Driver/Inc/stm32g4xx_ll_cordic.h ****   * @retval None
 568:Drivers/STM32G4xx_HAL_Driver/Inc/stm32g4xx_ll_cordic.h ****   */
 569:Drivers/STM32G4xx_HAL_Driver/Inc/stm32g4xx_ll_cordic.h **** __STATIC_INLINE void LL_CORDIC_EnableIT(CORDIC_TypeDef *CORDICx)
 570:Drivers/STM32G4xx_HAL_Driver/Inc/stm32g4xx_ll_cordic.h **** {
 571:Drivers/STM32G4xx_HAL_Driver/Inc/stm32g4xx_ll_cordic.h ****   SET_BIT(CORDICx->CSR, CORDIC_CSR_IEN);
 572:Drivers/STM32G4xx_HAL_Driver/Inc/stm32g4xx_ll_cordic.h **** }
 573:Drivers/STM32G4xx_HAL_Driver/Inc/stm32g4xx_ll_cordic.h **** 
 574:Drivers/STM32G4xx_HAL_Driver/Inc/stm32g4xx_ll_cordic.h **** /**
 575:Drivers/STM32G4xx_HAL_Driver/Inc/stm32g4xx_ll_cordic.h ****   * @brief  Disable CORDIC result ready interrupt
 576:Drivers/STM32G4xx_HAL_Driver/Inc/stm32g4xx_ll_cordic.h ****   * @rmtoll CSR          IEN           LL_CORDIC_DisableIT
 577:Drivers/STM32G4xx_HAL_Driver/Inc/stm32g4xx_ll_cordic.h ****   * @param  CORDICx CORDIC Instance
 578:Drivers/STM32G4xx_HAL_Driver/Inc/stm32g4xx_ll_cordic.h ****   * @retval None
 579:Drivers/STM32G4xx_HAL_Driver/Inc/stm32g4xx_ll_cordic.h ****   */
 580:Drivers/STM32G4xx_HAL_Driver/Inc/stm32g4xx_ll_cordic.h **** __STATIC_INLINE void LL_CORDIC_DisableIT(CORDIC_TypeDef *CORDICx)
 581:Drivers/STM32G4xx_HAL_Driver/Inc/stm32g4xx_ll_cordic.h **** {
 582:Drivers/STM32G4xx_HAL_Driver/Inc/stm32g4xx_ll_cordic.h ****   CLEAR_BIT(CORDICx->CSR, CORDIC_CSR_IEN);
 583:Drivers/STM32G4xx_HAL_Driver/Inc/stm32g4xx_ll_cordic.h **** }
 584:Drivers/STM32G4xx_HAL_Driver/Inc/stm32g4xx_ll_cordic.h **** 
 585:Drivers/STM32G4xx_HAL_Driver/Inc/stm32g4xx_ll_cordic.h **** /**
 586:Drivers/STM32G4xx_HAL_Driver/Inc/stm32g4xx_ll_cordic.h ****   * @brief  Check CORDIC result ready interrupt state.
 587:Drivers/STM32G4xx_HAL_Driver/Inc/stm32g4xx_ll_cordic.h ****   * @rmtoll CSR          IEN           LL_CORDIC_IsEnabledIT
 588:Drivers/STM32G4xx_HAL_Driver/Inc/stm32g4xx_ll_cordic.h ****   * @param  CORDICx CORDIC Instance
 589:Drivers/STM32G4xx_HAL_Driver/Inc/stm32g4xx_ll_cordic.h ****   * @retval State of bit (1 or 0).
 590:Drivers/STM32G4xx_HAL_Driver/Inc/stm32g4xx_ll_cordic.h ****   */
 591:Drivers/STM32G4xx_HAL_Driver/Inc/stm32g4xx_ll_cordic.h **** __STATIC_INLINE uint32_t LL_CORDIC_IsEnabledIT(const CORDIC_TypeDef *CORDICx)
 592:Drivers/STM32G4xx_HAL_Driver/Inc/stm32g4xx_ll_cordic.h **** {
 593:Drivers/STM32G4xx_HAL_Driver/Inc/stm32g4xx_ll_cordic.h ****   return ((READ_BIT(CORDICx->CSR, CORDIC_CSR_IEN) == (CORDIC_CSR_IEN)) ? 1U : 0U);
 594:Drivers/STM32G4xx_HAL_Driver/Inc/stm32g4xx_ll_cordic.h **** }
ARM GAS  /tmp/ccBip7Dy.s 			page 43


 595:Drivers/STM32G4xx_HAL_Driver/Inc/stm32g4xx_ll_cordic.h **** 
 596:Drivers/STM32G4xx_HAL_Driver/Inc/stm32g4xx_ll_cordic.h **** /**
 597:Drivers/STM32G4xx_HAL_Driver/Inc/stm32g4xx_ll_cordic.h ****   * @}
 598:Drivers/STM32G4xx_HAL_Driver/Inc/stm32g4xx_ll_cordic.h ****   */
 599:Drivers/STM32G4xx_HAL_Driver/Inc/stm32g4xx_ll_cordic.h **** 
 600:Drivers/STM32G4xx_HAL_Driver/Inc/stm32g4xx_ll_cordic.h **** /** @defgroup CORDIC_LL_EF_DMA_Management DMA_Management
 601:Drivers/STM32G4xx_HAL_Driver/Inc/stm32g4xx_ll_cordic.h ****   * @{
 602:Drivers/STM32G4xx_HAL_Driver/Inc/stm32g4xx_ll_cordic.h ****   */
 603:Drivers/STM32G4xx_HAL_Driver/Inc/stm32g4xx_ll_cordic.h **** 
 604:Drivers/STM32G4xx_HAL_Driver/Inc/stm32g4xx_ll_cordic.h **** /**
 605:Drivers/STM32G4xx_HAL_Driver/Inc/stm32g4xx_ll_cordic.h ****   * @brief  Enable CORDIC DMA read channel request.
 606:Drivers/STM32G4xx_HAL_Driver/Inc/stm32g4xx_ll_cordic.h ****   * @rmtoll CSR          DMAREN        LL_CORDIC_EnableDMAReq_RD
 607:Drivers/STM32G4xx_HAL_Driver/Inc/stm32g4xx_ll_cordic.h ****   * @param  CORDICx CORDIC Instance
 608:Drivers/STM32G4xx_HAL_Driver/Inc/stm32g4xx_ll_cordic.h ****   * @retval None
 609:Drivers/STM32G4xx_HAL_Driver/Inc/stm32g4xx_ll_cordic.h ****   */
 610:Drivers/STM32G4xx_HAL_Driver/Inc/stm32g4xx_ll_cordic.h **** __STATIC_INLINE void LL_CORDIC_EnableDMAReq_RD(CORDIC_TypeDef *CORDICx)
 611:Drivers/STM32G4xx_HAL_Driver/Inc/stm32g4xx_ll_cordic.h **** {
 612:Drivers/STM32G4xx_HAL_Driver/Inc/stm32g4xx_ll_cordic.h ****   SET_BIT(CORDICx->CSR, CORDIC_CSR_DMAREN);
 613:Drivers/STM32G4xx_HAL_Driver/Inc/stm32g4xx_ll_cordic.h **** }
 614:Drivers/STM32G4xx_HAL_Driver/Inc/stm32g4xx_ll_cordic.h **** 
 615:Drivers/STM32G4xx_HAL_Driver/Inc/stm32g4xx_ll_cordic.h **** /**
 616:Drivers/STM32G4xx_HAL_Driver/Inc/stm32g4xx_ll_cordic.h ****   * @brief  Disable CORDIC DMA read channel request.
 617:Drivers/STM32G4xx_HAL_Driver/Inc/stm32g4xx_ll_cordic.h ****   * @rmtoll CSR          DMAREN        LL_CORDIC_DisableDMAReq_RD
 618:Drivers/STM32G4xx_HAL_Driver/Inc/stm32g4xx_ll_cordic.h ****   * @param  CORDICx CORDIC Instance
 619:Drivers/STM32G4xx_HAL_Driver/Inc/stm32g4xx_ll_cordic.h ****   * @retval None
 620:Drivers/STM32G4xx_HAL_Driver/Inc/stm32g4xx_ll_cordic.h ****   */
 621:Drivers/STM32G4xx_HAL_Driver/Inc/stm32g4xx_ll_cordic.h **** __STATIC_INLINE void LL_CORDIC_DisableDMAReq_RD(CORDIC_TypeDef *CORDICx)
 622:Drivers/STM32G4xx_HAL_Driver/Inc/stm32g4xx_ll_cordic.h **** {
 623:Drivers/STM32G4xx_HAL_Driver/Inc/stm32g4xx_ll_cordic.h ****   CLEAR_BIT(CORDICx->CSR, CORDIC_CSR_DMAREN);
 624:Drivers/STM32G4xx_HAL_Driver/Inc/stm32g4xx_ll_cordic.h **** }
 625:Drivers/STM32G4xx_HAL_Driver/Inc/stm32g4xx_ll_cordic.h **** 
 626:Drivers/STM32G4xx_HAL_Driver/Inc/stm32g4xx_ll_cordic.h **** /**
 627:Drivers/STM32G4xx_HAL_Driver/Inc/stm32g4xx_ll_cordic.h ****   * @brief  Check CORDIC DMA read channel request state.
 628:Drivers/STM32G4xx_HAL_Driver/Inc/stm32g4xx_ll_cordic.h ****   * @rmtoll CSR          DMAREN        LL_CORDIC_IsEnabledDMAReq_RD
 629:Drivers/STM32G4xx_HAL_Driver/Inc/stm32g4xx_ll_cordic.h ****   * @param  CORDICx CORDIC Instance
 630:Drivers/STM32G4xx_HAL_Driver/Inc/stm32g4xx_ll_cordic.h ****   * @retval State of bit (1 or 0).
 631:Drivers/STM32G4xx_HAL_Driver/Inc/stm32g4xx_ll_cordic.h ****   */
 632:Drivers/STM32G4xx_HAL_Driver/Inc/stm32g4xx_ll_cordic.h **** __STATIC_INLINE uint32_t LL_CORDIC_IsEnabledDMAReq_RD(const CORDIC_TypeDef *CORDICx)
 633:Drivers/STM32G4xx_HAL_Driver/Inc/stm32g4xx_ll_cordic.h **** {
 634:Drivers/STM32G4xx_HAL_Driver/Inc/stm32g4xx_ll_cordic.h ****   return ((READ_BIT(CORDICx->CSR, CORDIC_CSR_DMAREN) == (CORDIC_CSR_DMAREN)) ? 1U : 0U);
 635:Drivers/STM32G4xx_HAL_Driver/Inc/stm32g4xx_ll_cordic.h **** }
 636:Drivers/STM32G4xx_HAL_Driver/Inc/stm32g4xx_ll_cordic.h **** 
 637:Drivers/STM32G4xx_HAL_Driver/Inc/stm32g4xx_ll_cordic.h **** /**
 638:Drivers/STM32G4xx_HAL_Driver/Inc/stm32g4xx_ll_cordic.h ****   * @brief  Enable CORDIC DMA write channel request.
 639:Drivers/STM32G4xx_HAL_Driver/Inc/stm32g4xx_ll_cordic.h ****   * @rmtoll CSR          DMAWEN        LL_CORDIC_EnableDMAReq_WR
 640:Drivers/STM32G4xx_HAL_Driver/Inc/stm32g4xx_ll_cordic.h ****   * @param  CORDICx CORDIC Instance
 641:Drivers/STM32G4xx_HAL_Driver/Inc/stm32g4xx_ll_cordic.h ****   * @retval None
 642:Drivers/STM32G4xx_HAL_Driver/Inc/stm32g4xx_ll_cordic.h ****   */
 643:Drivers/STM32G4xx_HAL_Driver/Inc/stm32g4xx_ll_cordic.h **** __STATIC_INLINE void LL_CORDIC_EnableDMAReq_WR(CORDIC_TypeDef *CORDICx)
 644:Drivers/STM32G4xx_HAL_Driver/Inc/stm32g4xx_ll_cordic.h **** {
 645:Drivers/STM32G4xx_HAL_Driver/Inc/stm32g4xx_ll_cordic.h ****   SET_BIT(CORDICx->CSR, CORDIC_CSR_DMAWEN);
 646:Drivers/STM32G4xx_HAL_Driver/Inc/stm32g4xx_ll_cordic.h **** }
 647:Drivers/STM32G4xx_HAL_Driver/Inc/stm32g4xx_ll_cordic.h **** 
 648:Drivers/STM32G4xx_HAL_Driver/Inc/stm32g4xx_ll_cordic.h **** /**
 649:Drivers/STM32G4xx_HAL_Driver/Inc/stm32g4xx_ll_cordic.h ****   * @brief  Disable CORDIC DMA write channel request.
 650:Drivers/STM32G4xx_HAL_Driver/Inc/stm32g4xx_ll_cordic.h ****   * @rmtoll CSR          DMAWEN        LL_CORDIC_DisableDMAReq_WR
 651:Drivers/STM32G4xx_HAL_Driver/Inc/stm32g4xx_ll_cordic.h ****   * @param  CORDICx CORDIC Instance
ARM GAS  /tmp/ccBip7Dy.s 			page 44


 652:Drivers/STM32G4xx_HAL_Driver/Inc/stm32g4xx_ll_cordic.h ****   * @retval None
 653:Drivers/STM32G4xx_HAL_Driver/Inc/stm32g4xx_ll_cordic.h ****   */
 654:Drivers/STM32G4xx_HAL_Driver/Inc/stm32g4xx_ll_cordic.h **** __STATIC_INLINE void LL_CORDIC_DisableDMAReq_WR(CORDIC_TypeDef *CORDICx)
 655:Drivers/STM32G4xx_HAL_Driver/Inc/stm32g4xx_ll_cordic.h **** {
 656:Drivers/STM32G4xx_HAL_Driver/Inc/stm32g4xx_ll_cordic.h ****   CLEAR_BIT(CORDICx->CSR, CORDIC_CSR_DMAWEN);
 657:Drivers/STM32G4xx_HAL_Driver/Inc/stm32g4xx_ll_cordic.h **** }
 658:Drivers/STM32G4xx_HAL_Driver/Inc/stm32g4xx_ll_cordic.h **** 
 659:Drivers/STM32G4xx_HAL_Driver/Inc/stm32g4xx_ll_cordic.h **** /**
 660:Drivers/STM32G4xx_HAL_Driver/Inc/stm32g4xx_ll_cordic.h ****   * @brief  Check CORDIC DMA write channel request state.
 661:Drivers/STM32G4xx_HAL_Driver/Inc/stm32g4xx_ll_cordic.h ****   * @rmtoll CSR          DMAWEN        LL_CORDIC_IsEnabledDMAReq_WR
 662:Drivers/STM32G4xx_HAL_Driver/Inc/stm32g4xx_ll_cordic.h ****   * @param  CORDICx CORDIC Instance
 663:Drivers/STM32G4xx_HAL_Driver/Inc/stm32g4xx_ll_cordic.h ****   * @retval State of bit (1 or 0).
 664:Drivers/STM32G4xx_HAL_Driver/Inc/stm32g4xx_ll_cordic.h ****   */
 665:Drivers/STM32G4xx_HAL_Driver/Inc/stm32g4xx_ll_cordic.h **** __STATIC_INLINE uint32_t LL_CORDIC_IsEnabledDMAReq_WR(const CORDIC_TypeDef *CORDICx)
 666:Drivers/STM32G4xx_HAL_Driver/Inc/stm32g4xx_ll_cordic.h **** {
 667:Drivers/STM32G4xx_HAL_Driver/Inc/stm32g4xx_ll_cordic.h ****   return ((READ_BIT(CORDICx->CSR, CORDIC_CSR_DMAWEN) == (CORDIC_CSR_DMAWEN)) ? 1U : 0U);
 668:Drivers/STM32G4xx_HAL_Driver/Inc/stm32g4xx_ll_cordic.h **** }
 669:Drivers/STM32G4xx_HAL_Driver/Inc/stm32g4xx_ll_cordic.h **** 
 670:Drivers/STM32G4xx_HAL_Driver/Inc/stm32g4xx_ll_cordic.h **** /**
 671:Drivers/STM32G4xx_HAL_Driver/Inc/stm32g4xx_ll_cordic.h ****   * @brief  Get the CORDIC data register address used for DMA transfer.
 672:Drivers/STM32G4xx_HAL_Driver/Inc/stm32g4xx_ll_cordic.h ****   * @rmtoll RDATA        RES           LL_CORDIC_DMA_GetRegAddr\n
 673:Drivers/STM32G4xx_HAL_Driver/Inc/stm32g4xx_ll_cordic.h ****   * @rmtoll WDATA        ARG           LL_CORDIC_DMA_GetRegAddr
 674:Drivers/STM32G4xx_HAL_Driver/Inc/stm32g4xx_ll_cordic.h ****   * @param  CORDICx CORDIC Instance
 675:Drivers/STM32G4xx_HAL_Driver/Inc/stm32g4xx_ll_cordic.h ****   * @param  Direction parameter can be one of the following values:
 676:Drivers/STM32G4xx_HAL_Driver/Inc/stm32g4xx_ll_cordic.h ****   *         @arg @ref LL_CORDIC_DMA_REG_DATA_IN
 677:Drivers/STM32G4xx_HAL_Driver/Inc/stm32g4xx_ll_cordic.h ****   *         @arg @ref LL_CORDIC_DMA_REG_DATA_OUT
 678:Drivers/STM32G4xx_HAL_Driver/Inc/stm32g4xx_ll_cordic.h ****   * @retval Address of data register
 679:Drivers/STM32G4xx_HAL_Driver/Inc/stm32g4xx_ll_cordic.h ****   */
 680:Drivers/STM32G4xx_HAL_Driver/Inc/stm32g4xx_ll_cordic.h **** __STATIC_INLINE uint32_t LL_CORDIC_DMA_GetRegAddr(const CORDIC_TypeDef *CORDICx, uint32_t Direction
 681:Drivers/STM32G4xx_HAL_Driver/Inc/stm32g4xx_ll_cordic.h **** {
 682:Drivers/STM32G4xx_HAL_Driver/Inc/stm32g4xx_ll_cordic.h ****   uint32_t data_reg_addr;
 683:Drivers/STM32G4xx_HAL_Driver/Inc/stm32g4xx_ll_cordic.h **** 
 684:Drivers/STM32G4xx_HAL_Driver/Inc/stm32g4xx_ll_cordic.h ****   if (Direction == LL_CORDIC_DMA_REG_DATA_OUT)
 685:Drivers/STM32G4xx_HAL_Driver/Inc/stm32g4xx_ll_cordic.h ****   {
 686:Drivers/STM32G4xx_HAL_Driver/Inc/stm32g4xx_ll_cordic.h ****     /* return address of RDATA register */
 687:Drivers/STM32G4xx_HAL_Driver/Inc/stm32g4xx_ll_cordic.h ****     data_reg_addr = (uint32_t) &(CORDICx->RDATA);
 688:Drivers/STM32G4xx_HAL_Driver/Inc/stm32g4xx_ll_cordic.h ****   }
 689:Drivers/STM32G4xx_HAL_Driver/Inc/stm32g4xx_ll_cordic.h ****   else
 690:Drivers/STM32G4xx_HAL_Driver/Inc/stm32g4xx_ll_cordic.h ****   {
 691:Drivers/STM32G4xx_HAL_Driver/Inc/stm32g4xx_ll_cordic.h ****     /* return address of WDATA register */
 692:Drivers/STM32G4xx_HAL_Driver/Inc/stm32g4xx_ll_cordic.h ****     data_reg_addr = (uint32_t) &(CORDICx->WDATA);
 693:Drivers/STM32G4xx_HAL_Driver/Inc/stm32g4xx_ll_cordic.h ****   }
 694:Drivers/STM32G4xx_HAL_Driver/Inc/stm32g4xx_ll_cordic.h **** 
 695:Drivers/STM32G4xx_HAL_Driver/Inc/stm32g4xx_ll_cordic.h ****   return data_reg_addr;
 696:Drivers/STM32G4xx_HAL_Driver/Inc/stm32g4xx_ll_cordic.h **** }
 697:Drivers/STM32G4xx_HAL_Driver/Inc/stm32g4xx_ll_cordic.h **** 
 698:Drivers/STM32G4xx_HAL_Driver/Inc/stm32g4xx_ll_cordic.h **** /**
 699:Drivers/STM32G4xx_HAL_Driver/Inc/stm32g4xx_ll_cordic.h ****   * @}
 700:Drivers/STM32G4xx_HAL_Driver/Inc/stm32g4xx_ll_cordic.h ****   */
 701:Drivers/STM32G4xx_HAL_Driver/Inc/stm32g4xx_ll_cordic.h **** 
 702:Drivers/STM32G4xx_HAL_Driver/Inc/stm32g4xx_ll_cordic.h **** /** @defgroup CORDIC_LL_EF_FLAG_Management FLAG_Management
 703:Drivers/STM32G4xx_HAL_Driver/Inc/stm32g4xx_ll_cordic.h ****   * @{
 704:Drivers/STM32G4xx_HAL_Driver/Inc/stm32g4xx_ll_cordic.h ****   */
 705:Drivers/STM32G4xx_HAL_Driver/Inc/stm32g4xx_ll_cordic.h **** 
 706:Drivers/STM32G4xx_HAL_Driver/Inc/stm32g4xx_ll_cordic.h **** /**
 707:Drivers/STM32G4xx_HAL_Driver/Inc/stm32g4xx_ll_cordic.h ****   * @brief  Check CORDIC result ready flag state.
 708:Drivers/STM32G4xx_HAL_Driver/Inc/stm32g4xx_ll_cordic.h ****   * @rmtoll CSR          RRDY          LL_CORDIC_IsActiveFlag_RRDY
ARM GAS  /tmp/ccBip7Dy.s 			page 45


 709:Drivers/STM32G4xx_HAL_Driver/Inc/stm32g4xx_ll_cordic.h ****   * @param  CORDICx CORDIC Instance
 710:Drivers/STM32G4xx_HAL_Driver/Inc/stm32g4xx_ll_cordic.h ****   * @retval State of bit (1 or 0).
 711:Drivers/STM32G4xx_HAL_Driver/Inc/stm32g4xx_ll_cordic.h ****   */
 712:Drivers/STM32G4xx_HAL_Driver/Inc/stm32g4xx_ll_cordic.h **** __STATIC_INLINE uint32_t LL_CORDIC_IsActiveFlag_RRDY(const CORDIC_TypeDef *CORDICx)
 713:Drivers/STM32G4xx_HAL_Driver/Inc/stm32g4xx_ll_cordic.h **** {
 714:Drivers/STM32G4xx_HAL_Driver/Inc/stm32g4xx_ll_cordic.h ****   return ((READ_BIT(CORDICx->CSR, CORDIC_CSR_RRDY) == (CORDIC_CSR_RRDY)) ? 1U : 0U);
 715:Drivers/STM32G4xx_HAL_Driver/Inc/stm32g4xx_ll_cordic.h **** }
 716:Drivers/STM32G4xx_HAL_Driver/Inc/stm32g4xx_ll_cordic.h **** 
 717:Drivers/STM32G4xx_HAL_Driver/Inc/stm32g4xx_ll_cordic.h **** /**
 718:Drivers/STM32G4xx_HAL_Driver/Inc/stm32g4xx_ll_cordic.h ****   * @}
 719:Drivers/STM32G4xx_HAL_Driver/Inc/stm32g4xx_ll_cordic.h ****   */
 720:Drivers/STM32G4xx_HAL_Driver/Inc/stm32g4xx_ll_cordic.h **** 
 721:Drivers/STM32G4xx_HAL_Driver/Inc/stm32g4xx_ll_cordic.h **** /** @defgroup CORDIC_LL_EF_Data_Management Data_Management
 722:Drivers/STM32G4xx_HAL_Driver/Inc/stm32g4xx_ll_cordic.h ****   * @{
 723:Drivers/STM32G4xx_HAL_Driver/Inc/stm32g4xx_ll_cordic.h ****   */
 724:Drivers/STM32G4xx_HAL_Driver/Inc/stm32g4xx_ll_cordic.h **** 
 725:Drivers/STM32G4xx_HAL_Driver/Inc/stm32g4xx_ll_cordic.h **** /**
 726:Drivers/STM32G4xx_HAL_Driver/Inc/stm32g4xx_ll_cordic.h ****   * @brief  Write 32-bit input data for the CORDIC processing.
 727:Drivers/STM32G4xx_HAL_Driver/Inc/stm32g4xx_ll_cordic.h ****   * @rmtoll WDATA        ARG           LL_CORDIC_WriteData
 728:Drivers/STM32G4xx_HAL_Driver/Inc/stm32g4xx_ll_cordic.h ****   * @param  CORDICx CORDIC Instance
 729:Drivers/STM32G4xx_HAL_Driver/Inc/stm32g4xx_ll_cordic.h ****   * @param  InData 0 .. 0xFFFFFFFF : 32-bit value to be provided as input data for CORDIC processin
 730:Drivers/STM32G4xx_HAL_Driver/Inc/stm32g4xx_ll_cordic.h ****   * @retval None
 731:Drivers/STM32G4xx_HAL_Driver/Inc/stm32g4xx_ll_cordic.h ****   */
 732:Drivers/STM32G4xx_HAL_Driver/Inc/stm32g4xx_ll_cordic.h **** __STATIC_INLINE void LL_CORDIC_WriteData(CORDIC_TypeDef *CORDICx, uint32_t InData)
 1380              		.loc 2 732 22 view .LVU409
 1381              	.LBB52:
 733:Drivers/STM32G4xx_HAL_Driver/Inc/stm32g4xx_ll_cordic.h **** {
 734:Drivers/STM32G4xx_HAL_Driver/Inc/stm32g4xx_ll_cordic.h ****   WRITE_REG(CORDICx->WDATA, InData);
 1382              		.loc 2 734 3 view .LVU410
 1383 0036 C6ED017A 		vstr.32	s15, [r6, #4]	@ int
 1384              	.LVL130:
 1385              		.loc 2 734 3 is_stmt 0 view .LVU411
 1386              	.LBE52:
 1387              	.LBE51:
 305:Src/utils.cpp ****     
 306:Src/utils.cpp ****     // Read results in Q1.31 format
 307:Src/utils.cpp ****     int32_t cos_theta = LL_CORDIC_ReadData(CORDIC);  // cosine
 1388              		.loc 1 307 5 is_stmt 1 view .LVU412
 1389              	.LBB53:
 1390              	.LBI53:
 735:Drivers/STM32G4xx_HAL_Driver/Inc/stm32g4xx_ll_cordic.h **** }
 736:Drivers/STM32G4xx_HAL_Driver/Inc/stm32g4xx_ll_cordic.h **** 
 737:Drivers/STM32G4xx_HAL_Driver/Inc/stm32g4xx_ll_cordic.h **** /**
 738:Drivers/STM32G4xx_HAL_Driver/Inc/stm32g4xx_ll_cordic.h ****   * @brief  Return 32-bit output data of CORDIC processing.
 739:Drivers/STM32G4xx_HAL_Driver/Inc/stm32g4xx_ll_cordic.h ****   * @rmtoll RDATA        RES           LL_CORDIC_ReadData
 740:Drivers/STM32G4xx_HAL_Driver/Inc/stm32g4xx_ll_cordic.h ****   * @param  CORDICx CORDIC Instance
 741:Drivers/STM32G4xx_HAL_Driver/Inc/stm32g4xx_ll_cordic.h ****   * @retval 32-bit output data of CORDIC processing.
 742:Drivers/STM32G4xx_HAL_Driver/Inc/stm32g4xx_ll_cordic.h ****   */
 743:Drivers/STM32G4xx_HAL_Driver/Inc/stm32g4xx_ll_cordic.h **** __STATIC_INLINE uint32_t LL_CORDIC_ReadData(const CORDIC_TypeDef *CORDICx)
 1391              		.loc 2 743 26 view .LVU413
 1392              	.LBB54:
 744:Drivers/STM32G4xx_HAL_Driver/Inc/stm32g4xx_ll_cordic.h **** {
 745:Drivers/STM32G4xx_HAL_Driver/Inc/stm32g4xx_ll_cordic.h ****   return (uint32_t)(READ_REG(CORDICx->RDATA));
 1393              		.loc 2 745 3 view .LVU414
 1394              		.loc 2 745 45 is_stmt 0 view .LVU415
 1395 003a D6ED026A 		vldr.32	s13, [r6, #8]	@ int
 1396              	.LVL131:
ARM GAS  /tmp/ccBip7Dy.s 			page 46


 1397              		.loc 2 745 45 view .LVU416
 1398              	.LBE54:
 1399              	.LBE53:
 308:Src/utils.cpp ****     int32_t sin_theta = LL_CORDIC_ReadData(CORDIC);  // sine
 1400              		.loc 1 308 5 is_stmt 1 view .LVU417
 1401              	.LBB55:
 1402              	.LBI55:
 743:Drivers/STM32G4xx_HAL_Driver/Inc/stm32g4xx_ll_cordic.h **** {
 1403              		.loc 2 743 26 view .LVU418
 1404              	.LBB56:
 1405              		.loc 2 745 3 view .LVU419
 1406              		.loc 2 745 45 is_stmt 0 view .LVU420
 1407 003e 96ED027A 		vldr.32	s14, [r6, #8]	@ int
 1408              	.LVL132:
 1409              		.loc 2 745 45 view .LVU421
 1410              	.LBE56:
 1411              	.LBE55:
 309:Src/utils.cpp ****     
 310:Src/utils.cpp ****     // Convert Q1.31 to float
 311:Src/utils.cpp ****     float c_p = (float)cos_theta * INV_2_POW_31;
 1412              		.loc 1 311 5 is_stmt 1 view .LVU422
 1413              		.loc 1 311 17 is_stmt 0 view .LVU423
 1414 0042 F8EEE66A 		vcvt.f32.s32	s13, s13
 1415              	.LVL133:
 1416              		.loc 1 311 11 view .LVU424
 1417 0046 9FED1C6A 		vldr.32	s12, .L117+16
 1418 004a 66EE866A 		vmul.f32	s13, s13, s12
 1419              	.LVL134:
 312:Src/utils.cpp ****     float s_p = (float)sin_theta * INV_2_POW_31;
 1420              		.loc 1 312 5 is_stmt 1 view .LVU425
 1421              		.loc 1 312 17 is_stmt 0 view .LVU426
 1422 004e B8EEC77A 		vcvt.f32.s32	s14, s14
 1423              	.LVL135:
 1424              		.loc 1 312 11 view .LVU427
 1425 0052 67EE067A 		vmul.f32	s15, s14, s12
 1426              	.LVL136:
 313:Src/utils.cpp ****     
 314:Src/utils.cpp ****     // Inverse Park transform
 315:Src/utils.cpp ****     float mod_alpha = c_p * mod_d - s_p * mod_q;    //  = d*cos() - q*sin()
 1427              		.loc 1 315 5 is_stmt 1 view .LVU428
 316:Src/utils.cpp ****     float mod_beta  = c_p * mod_q + s_p * mod_d;    //  = q*cos() + d*sin()
 1428              		.loc 1 316 5 view .LVU429
 317:Src/utils.cpp ****     
 318:Src/utils.cpp ****     // Calculate PWM duty cycles
 319:Src/utils.cpp ****     SVM(mod_alpha, mod_beta, ta, tb, tc);
 1429              		.loc 1 319 5 view .LVU430
 316:Src/utils.cpp ****     float mod_beta  = c_p * mod_q + s_p * mod_d;    //  = q*cos() + d*sin()
 1430              		.loc 1 316 27 is_stmt 0 view .LVU431
 1431 0056 26EE806A 		vmul.f32	s12, s13, s0
 316:Src/utils.cpp ****     float mod_beta  = c_p * mod_q + s_p * mod_d;    //  = q*cos() + d*sin()
 1432              		.loc 1 316 41 view .LVU432
 1433 005a 27EEA07A 		vmul.f32	s14, s15, s1
 315:Src/utils.cpp ****     float mod_beta  = c_p * mod_q + s_p * mod_d;    //  = q*cos() + d*sin()
 1434              		.loc 1 315 27 view .LVU433
 1435 005e 66EEA06A 		vmul.f32	s13, s13, s1
 1436              	.LVL137:
 315:Src/utils.cpp ****     float mod_beta  = c_p * mod_q + s_p * mod_d;    //  = q*cos() + d*sin()
ARM GAS  /tmp/ccBip7Dy.s 			page 47


 1437              		.loc 1 315 41 view .LVU434
 1438 0062 27EE800A 		vmul.f32	s0, s15, s0
 1439              	.LVL138:
 1440              		.loc 1 319 8 view .LVU435
 1441 0066 1A46     		mov	r2, r3
 1442 0068 76EE070A 		vadd.f32	s1, s12, s14
 1443              	.LVL139:
 1444              		.loc 1 319 8 view .LVU436
 1445 006c 36EEC00A 		vsub.f32	s0, s13, s0
 1446              	.LVL140:
 1447              		.loc 1 319 8 view .LVU437
 1448 0070 FFF7FEFF 		bl	SVM
 1449              	.LVL141:
 320:Src/utils.cpp ****     
 321:Src/utils.cpp ****     // Wrap angle to [-, ]
 322:Src/utils.cpp ****     *theta = wrap_pm_pi(*theta);
 1450              		.loc 1 322 5 is_stmt 1 view .LVU438
 1451              	.LBB57:
 1452              	.LBI57:
 1453              		.file 3 "Inc/utils.hpp"
   1:Inc/utils.hpp **** 
   2:Inc/utils.hpp **** #ifndef __UTILS_H
   3:Inc/utils.hpp **** #define __UTILS_H
   4:Inc/utils.hpp **** 
   5:Inc/utils.hpp **** #include <stdint.h>
   6:Inc/utils.hpp **** #include <math.h>
   7:Inc/utils.hpp **** 
   8:Inc/utils.hpp **** /**
   9:Inc/utils.hpp ****  * @brief Flash size register address
  10:Inc/utils.hpp ****  */
  11:Inc/utils.hpp **** #define ID_FLASH_ADDRESS (0x1FFF7A22)
  12:Inc/utils.hpp **** 
  13:Inc/utils.hpp **** /**
  14:Inc/utils.hpp ****  * @brief Device ID register address
  15:Inc/utils.hpp ****  */
  16:Inc/utils.hpp **** #define ID_DBGMCU_IDCODE (0xE0042000)
  17:Inc/utils.hpp **** 
  18:Inc/utils.hpp **** /**
  19:Inc/utils.hpp ****  * "Returns" the device signature
  20:Inc/utils.hpp ****  *
  21:Inc/utils.hpp ****  * Possible returns:
  22:Inc/utils.hpp ****  *    - 0x0413: STM32F405xx/07xx and STM32F415xx/17xx)
  23:Inc/utils.hpp ****  *    - 0x0419: STM32F42xxx and STM32F43xxx
  24:Inc/utils.hpp ****  *    - 0x0423: STM32F401xB/C
  25:Inc/utils.hpp ****  *    - 0x0433: STM32F401xD/E
  26:Inc/utils.hpp ****  *    - 0x0431: STM32F411xC/E
  27:Inc/utils.hpp ****  *
  28:Inc/utils.hpp ****  * Returned data is in 16-bit mode, but only bits 11:0 are valid, bits 15:12 are always 0.
  29:Inc/utils.hpp ****  * Defined as macro
  30:Inc/utils.hpp ****  */
  31:Inc/utils.hpp **** #define STM_ID_GetSignature() ((*(uint16_t *)(ID_DBGMCU_IDCODE)) & 0x0FFF)
  32:Inc/utils.hpp **** 
  33:Inc/utils.hpp **** /**
  34:Inc/utils.hpp ****  * "Returns" the device revision
  35:Inc/utils.hpp ****  *
  36:Inc/utils.hpp ****  * Revisions possible:
  37:Inc/utils.hpp ****  *    - 0x1000: Revision A
ARM GAS  /tmp/ccBip7Dy.s 			page 48


  38:Inc/utils.hpp ****  *    - 0x1001: Revision Z
  39:Inc/utils.hpp ****  *    - 0x1003: Revision Y
  40:Inc/utils.hpp ****  *    - 0x1007: Revision 1
  41:Inc/utils.hpp ****  *    - 0x2001: Revision 3
  42:Inc/utils.hpp ****  *
  43:Inc/utils.hpp ****  * Returned data is in 16-bit mode.
  44:Inc/utils.hpp ****  */
  45:Inc/utils.hpp **** #define STM_ID_GetRevision() (*(uint16_t *)(ID_DBGMCU_IDCODE + 2))
  46:Inc/utils.hpp **** 
  47:Inc/utils.hpp **** /**
  48:Inc/utils.hpp **** * "Returns" the Flash size
  49:Inc/utils.hpp **** *
  50:Inc/utils.hpp **** * Returned data is in 16-bit mode, returned value is flash size in kB (kilo bytes).
  51:Inc/utils.hpp **** */
  52:Inc/utils.hpp **** #define STM_ID_GetFlashSize() (*(uint16_t *)(ID_FLASH_ADDRESS))
  53:Inc/utils.hpp **** 
  54:Inc/utils.hpp **** #ifdef M_PI
  55:Inc/utils.hpp **** #undef M_PI
  56:Inc/utils.hpp **** #endif
  57:Inc/utils.hpp **** #define M_PI (3.14159265358979323846f)
  58:Inc/utils.hpp **** 
  59:Inc/utils.hpp **** #define MACRO_MAX(x, y) (((x) > (y)) ? (x) : (y))
  60:Inc/utils.hpp **** #define MACRO_MIN(x, y) (((x) < (y)) ? (x) : (y))
  61:Inc/utils.hpp **** 
  62:Inc/utils.hpp **** #define SQ(x) ((x) * (x))
  63:Inc/utils.hpp **** 
  64:Inc/utils.hpp **** #ifdef __cplusplus
  65:Inc/utils.hpp **** 
  66:Inc/utils.hpp **** #include <array>
  67:Inc/utils.hpp **** 
  68:Inc/utils.hpp **** /**
  69:Inc/utils.hpp ****  * @brief Small helper to make array with known size
  70:Inc/utils.hpp ****  * in contrast to initializer lists the number of arguments
  71:Inc/utils.hpp ****  * has to match exactly. Whereas initializer lists allow
  72:Inc/utils.hpp ****  * less arguments.
  73:Inc/utils.hpp ****  */
  74:Inc/utils.hpp **** template<class T, class... Tail>
  75:Inc/utils.hpp **** std::array<T, 1 + sizeof...(Tail)> make_array(T head, Tail... tail)
  76:Inc/utils.hpp **** {
  77:Inc/utils.hpp ****     return std::array<T, 1 + sizeof...(Tail)>({ head, tail ... });
  78:Inc/utils.hpp **** }
  79:Inc/utils.hpp **** 
  80:Inc/utils.hpp **** extern "C" {
  81:Inc/utils.hpp **** #endif
  82:Inc/utils.hpp **** 
  83:Inc/utils.hpp **** static const float one_by_sqrt3 = 0.57735026919f;
  84:Inc/utils.hpp **** static const float two_by_sqrt3 = 1.15470053838f;
  85:Inc/utils.hpp **** static const float sqrt3_by_2 = 0.86602540378f;
  86:Inc/utils.hpp **** 
  87:Inc/utils.hpp **** // like fmodf, but always positive
  88:Inc/utils.hpp **** static inline float fmodf_pos(float x, float y) {
  89:Inc/utils.hpp ****     float out = fmodf(x, y);
  90:Inc/utils.hpp ****     if (out < 0.0f)
  91:Inc/utils.hpp ****         out += y;
  92:Inc/utils.hpp ****     return out;
  93:Inc/utils.hpp **** }
  94:Inc/utils.hpp **** 
ARM GAS  /tmp/ccBip7Dy.s 			page 49


  95:Inc/utils.hpp **** /**
  96:Inc/utils.hpp ****  * @brief Similar to modulo operator, except that the output range is centered
  97:Inc/utils.hpp ****  * around zero.
  98:Inc/utils.hpp ****  * The returned value is always in the range [-pm_range, pm_range).
  99:Inc/utils.hpp ****  */
 100:Inc/utils.hpp **** static inline float wrap_pm(float x, float pm_range) {
 101:Inc/utils.hpp ****     return fmodf_pos(x + pm_range, 2.0f * pm_range) - pm_range;
 102:Inc/utils.hpp **** }
 103:Inc/utils.hpp **** 
 104:Inc/utils.hpp **** static inline float wrap_pm_pi(float theta) {
 1454              		.loc 3 104 21 view .LVU439
 1455              	.LBE57:
 105:Inc/utils.hpp ****     return wrap_pm(theta, M_PI);
 1456              		.loc 3 105 5 view .LVU440
 1457              	.LBB64:
 1458              	.LBB58:
 1459              	.LBI58:
 100:Inc/utils.hpp ****     return fmodf_pos(x + pm_range, 2.0f * pm_range) - pm_range;
 1460              		.loc 3 100 21 view .LVU441
 1461              	.LBB59:
 101:Inc/utils.hpp **** }
 1462              		.loc 3 101 5 view .LVU442
 1463              	.LBB60:
 1464              	.LBI60:
  88:Inc/utils.hpp ****     float out = fmodf(x, y);
 1465              		.loc 3 88 21 view .LVU443
 1466              	.LBB61:
  89:Inc/utils.hpp ****     if (out < 0.0f)
 1467              		.loc 3 89 5 view .LVU444
 1468              	.LBE61:
 1469              	.LBE60:
 101:Inc/utils.hpp **** }
 1470              		.loc 3 101 21 is_stmt 0 view .LVU445
 1471 0074 95ED000A 		vldr.32	s0, [r5]
 1472              	.LBB63:
 1473              	.LBB62:
  89:Inc/utils.hpp ****     if (out < 0.0f)
 1474              		.loc 3 89 22 view .LVU446
 1475 0078 DFED100A 		vldr.32	s1, .L117+20
 1476 007c 30EE080A 		vadd.f32	s0, s0, s16
 1477              	.LVL142:
  89:Inc/utils.hpp ****     if (out < 0.0f)
 1478              		.loc 3 89 22 view .LVU447
 1479 0080 FFF7FEFF 		bl	fmodf
 1480              	.LVL143:
  90:Inc/utils.hpp ****         out += y;
 1481              		.loc 3 90 5 is_stmt 1 view .LVU448
 1482 0084 B5EEC00A 		vcmpe.f32	s0, #0
 1483 0088 F1EE10FA 		vmrs	APSR_nzcv, FPSCR
  91:Inc/utils.hpp ****     return out;
 1484              		.loc 3 91 9 view .LVU449
  91:Inc/utils.hpp ****     return out;
 1485              		.loc 3 91 13 is_stmt 0 view .LVU450
 1486 008c 44BF     		itt	mi
 1487 008e DFED0B7A 		vldrmi.32	s15, .L117+20
 1488 0092 30EE270A 		vaddmi.f32	s0, s0, s15
 1489              	.LVL144:
ARM GAS  /tmp/ccBip7Dy.s 			page 50


  92:Inc/utils.hpp **** }
 1490              		.loc 3 92 5 is_stmt 1 view .LVU451
  92:Inc/utils.hpp **** }
 1491              		.loc 3 92 5 is_stmt 0 view .LVU452
 1492              	.LBE62:
 1493              	.LBE63:
 101:Inc/utils.hpp **** }
 1494              		.loc 3 101 55 view .LVU453
 1495 0096 DFED057A 		vldr.32	s15, .L117+4
 1496 009a 30EE670A 		vsub.f32	s0, s0, s15
 1497              	.LBE59:
 1498              	.LBE58:
 1499              	.LBE64:
 1500              		.loc 1 322 12 view .LVU454
 1501 009e 85ED000A 		vstr.32	s0, [r5]
 323:Src/utils.cpp **** }
 1502              		.loc 1 323 1 view .LVU455
 1503 00a2 BDEC028B 		vldm	sp!, {d8}
 1504              	.LCFI12:
 1505              		.cfi_restore 80
 1506              		.cfi_restore 81
 1507              		.cfi_def_cfa_offset 16
 1508 00a6 70BD     		pop	{r4, r5, r6, pc}
 1509              	.LVL145:
 1510              	.L118:
 1511              		.loc 1 323 1 view .LVU456
 1512              		.align	2
 1513              	.L117:
 1514 00a8 0000004F 		.word	1325400064
 1515 00ac DB0F4940 		.word	1078530011
 1516 00b0 000C0240 		.word	1073875968
 1517 00b4 00F887FF 		.word	-7866368
 1518 00b8 00000030 		.word	805306368
 1519 00bc DB0FC940 		.word	1086918619
 1520              		.cfi_endproc
 1521              	.LFE3009:
 1523              		.section	.text.clark_park,"ax",%progbits
 1524              		.align	1
 1525              		.global	clark_park
 1526              		.syntax unified
 1527              		.thumb
 1528              		.thumb_func
 1529              		.fpu fpv4-sp-d16
 1531              	clark_park:
 1532              	.LVL146:
 1533              	.LFB3010:
 324:Src/utils.cpp **** 
 325:Src/utils.cpp **** #include "stm32g4xx_ll_cordic.h"
 326:Src/utils.cpp **** 
 327:Src/utils.cpp **** void clark_park(float *iq, float *id, float theta, float ia, float ib)
 328:Src/utils.cpp **** {
 1534              		.loc 1 328 1 is_stmt 1 view -0
 1535              		.cfi_startproc
 1536              		@ args = 0, pretend = 0, frame = 0
 1537              		@ frame_needed = 0, uses_anonymous_args = 0
 1538              		@ link register save eliminated.
 1539              		.loc 1 328 1 is_stmt 0 view .LVU458
ARM GAS  /tmp/ccBip7Dy.s 			page 51


 1540 0000 10B4     		push	{r4}
 1541              	.LCFI13:
 1542              		.cfi_def_cfa_offset 4
 1543              		.cfi_offset 4, -4
 329:Src/utils.cpp ****     // Convert theta to Q1.31 format
 330:Src/utils.cpp ****     int32_t angle = (int32_t)(theta * 2147483648.0f / M_PI);  // 2^31 = 2147483648
 1544              		.loc 1 330 5 is_stmt 1 view .LVU459
 1545              	.LVL147:
 331:Src/utils.cpp ****     
 332:Src/utils.cpp ****     // Configure CORDIC for sine/cosine calculation
 333:Src/utils.cpp ****     LL_CORDIC_Config(CORDIC, 
 1546              		.loc 1 333 5 view .LVU460
 1547              	.LBB65:
 1548              	.LBI65:
 302:Drivers/STM32G4xx_HAL_Driver/Inc/stm32g4xx_ll_cordic.h ****                                       uint32_t NbWrite, uint32_t NbRead, uint32_t InSize, uint32_t 
 1549              		.loc 2 302 22 view .LVU461
 1550              	.LBB66:
 305:Drivers/STM32G4xx_HAL_Driver/Inc/stm32g4xx_ll_cordic.h ****              CORDIC_CSR_FUNC | CORDIC_CSR_PRECISION | CORDIC_CSR_SCALE |
 1551              		.loc 2 305 3 view .LVU462
 1552 0002 1F4A     		ldr	r2, .L121
 1553 0004 1468     		ldr	r4, [r2]
 1554 0006 1F4B     		ldr	r3, .L121+4
 1555 0008 2340     		ands	r3, r3, r4
 1556 000a 43F40023 		orr	r3, r3, #524288
 1557 000e 43F06003 		orr	r3, r3, #96
 1558 0012 1360     		str	r3, [r2]
 1559              	.LVL148:
 305:Drivers/STM32G4xx_HAL_Driver/Inc/stm32g4xx_ll_cordic.h ****              CORDIC_CSR_FUNC | CORDIC_CSR_PRECISION | CORDIC_CSR_SCALE |
 1560              		.loc 2 305 3 is_stmt 0 view .LVU463
 1561              	.LBE66:
 1562              	.LBE65:
 334:Src/utils.cpp ****                      LL_CORDIC_FUNCTION_COSINE,        // Function
 335:Src/utils.cpp ****                      LL_CORDIC_PRECISION_6CYCLES,      // Precision
 336:Src/utils.cpp ****                      LL_CORDIC_SCALE_0,               // Scale
 337:Src/utils.cpp ****                      LL_CORDIC_NBWRITE_1,             // Input size
 338:Src/utils.cpp ****                      LL_CORDIC_NBREAD_2,              // Output size
 339:Src/utils.cpp ****                      LL_CORDIC_INSIZE_32BITS,         // Input width
 340:Src/utils.cpp ****                      LL_CORDIC_OUTSIZE_32BITS);       // Output width
 341:Src/utils.cpp ****     
 342:Src/utils.cpp ****     // Write input data
 343:Src/utils.cpp ****     LL_CORDIC_WriteData(CORDIC, angle);
 1563              		.loc 1 343 5 is_stmt 1 view .LVU464
 330:Src/utils.cpp ****     
 1564              		.loc 1 330 37 is_stmt 0 view .LVU465
 1565 0014 DFED1C7A 		vldr.32	s15, .L121+8
 1566 0018 20EE270A 		vmul.f32	s0, s0, s15
 1567              	.LVL149:
 330:Src/utils.cpp ****     
 1568              		.loc 1 330 53 view .LVU466
 1569 001c 9FED1B7A 		vldr.32	s14, .L121+12
 1570 0020 C0EE077A 		vdiv.f32	s15, s0, s14
 330:Src/utils.cpp ****     
 1571              		.loc 1 330 13 view .LVU467
 1572 0024 FDEEE77A 		vcvt.s32.f32	s15, s15
 1573              	.LVL150:
 1574              	.LBB67:
 1575              	.LBI67:
ARM GAS  /tmp/ccBip7Dy.s 			page 52


 732:Drivers/STM32G4xx_HAL_Driver/Inc/stm32g4xx_ll_cordic.h **** {
 1576              		.loc 2 732 22 is_stmt 1 view .LVU468
 1577              	.LBB68:
 734:Drivers/STM32G4xx_HAL_Driver/Inc/stm32g4xx_ll_cordic.h **** }
 1578              		.loc 2 734 3 view .LVU469
 1579 0028 C2ED017A 		vstr.32	s15, [r2, #4]	@ int
 1580              	.LVL151:
 734:Drivers/STM32G4xx_HAL_Driver/Inc/stm32g4xx_ll_cordic.h **** }
 1581              		.loc 2 734 3 is_stmt 0 view .LVU470
 1582              	.LBE68:
 1583              	.LBE67:
 344:Src/utils.cpp ****     
 345:Src/utils.cpp ****     // Read results in Q1.31 format
 346:Src/utils.cpp ****     int32_t cos_theta = LL_CORDIC_ReadData(CORDIC);  // cosine
 1584              		.loc 1 346 5 is_stmt 1 view .LVU471
 1585              	.LBB69:
 1586              	.LBI69:
 743:Drivers/STM32G4xx_HAL_Driver/Inc/stm32g4xx_ll_cordic.h **** {
 1587              		.loc 2 743 26 view .LVU472
 1588              	.LBB70:
 1589              		.loc 2 745 3 view .LVU473
 1590              		.loc 2 745 45 is_stmt 0 view .LVU474
 1591 002c D2ED027A 		vldr.32	s15, [r2, #8]	@ int
 1592              	.LVL152:
 1593              		.loc 2 745 45 view .LVU475
 1594              	.LBE70:
 1595              	.LBE69:
 347:Src/utils.cpp ****     int32_t sin_theta = LL_CORDIC_ReadData(CORDIC);  // sine
 1596              		.loc 1 347 5 is_stmt 1 view .LVU476
 1597              	.LBB71:
 1598              	.LBI71:
 743:Drivers/STM32G4xx_HAL_Driver/Inc/stm32g4xx_ll_cordic.h **** {
 1599              		.loc 2 743 26 view .LVU477
 1600              	.LBB72:
 1601              		.loc 2 745 3 view .LVU478
 1602              		.loc 2 745 45 is_stmt 0 view .LVU479
 1603 0030 92ED027A 		vldr.32	s14, [r2, #8]	@ int
 1604              	.LVL153:
 1605              		.loc 2 745 45 view .LVU480
 1606              	.LBE72:
 1607              	.LBE71:
 348:Src/utils.cpp ****     
 349:Src/utils.cpp ****     // Convert Q1.31 to float
 350:Src/utils.cpp ****     float c_p = (float)cos_theta * INV_2_POW_31;
 1608              		.loc 1 350 5 is_stmt 1 view .LVU481
 1609              		.loc 1 350 17 is_stmt 0 view .LVU482
 1610 0034 F8EEE77A 		vcvt.f32.s32	s15, s15
 1611              	.LVL154:
 1612              		.loc 1 350 11 view .LVU483
 1613 0038 DFED156A 		vldr.32	s13, .L121+16
 1614 003c 67EEA67A 		vmul.f32	s15, s15, s13
 1615              	.LVL155:
 351:Src/utils.cpp ****     float s_p = (float)sin_theta * INV_2_POW_31;
 1616              		.loc 1 351 5 is_stmt 1 view .LVU484
 1617              		.loc 1 351 17 is_stmt 0 view .LVU485
 1618 0040 B8EEC77A 		vcvt.f32.s32	s14, s14
 1619              	.LVL156:
ARM GAS  /tmp/ccBip7Dy.s 			page 53


 1620              		.loc 1 351 11 view .LVU486
 1621 0044 27EE267A 		vmul.f32	s14, s14, s13
 1622              	.LVL157:
 352:Src/utils.cpp ****     
 353:Src/utils.cpp ****     // Clarke transform (abc -> )
 354:Src/utils.cpp ****     float i_alpha = ia;
 1623              		.loc 1 354 5 is_stmt 1 view .LVU487
 355:Src/utils.cpp ****     float i_beta = (ia + 2.0f * ib) * one_by_sqrt3;
 1624              		.loc 1 355 5 view .LVU488
 1625              		.loc 1 355 31 is_stmt 0 view .LVU489
 1626 0048 31EE011A 		vadd.f32	s2, s2, s2
 1627              	.LVL158:
 1628              		.loc 1 355 24 view .LVU490
 1629 004c 31EE201A 		vadd.f32	s2, s2, s1
 1630              		.loc 1 355 11 view .LVU491
 1631 0050 DFED106A 		vldr.32	s13, .L121+20
 1632 0054 21EE261A 		vmul.f32	s2, s2, s13
 1633              	.LVL159:
 356:Src/utils.cpp ****     
 357:Src/utils.cpp ****     // Park transform ( -> dq)
 358:Src/utils.cpp ****     *id = i_alpha * c_p + i_beta * s_p;
 1634              		.loc 1 358 5 is_stmt 1 view .LVU492
 1635              		.loc 1 358 19 is_stmt 0 view .LVU493
 1636 0058 67EEA06A 		vmul.f32	s13, s15, s1
 1637              		.loc 1 358 34 view .LVU494
 1638 005c 27EE016A 		vmul.f32	s12, s14, s2
 1639              		.loc 1 358 25 view .LVU495
 1640 0060 76EE866A 		vadd.f32	s13, s13, s12
 1641              		.loc 1 358 9 view .LVU496
 1642 0064 C1ED006A 		vstr.32	s13, [r1]
 359:Src/utils.cpp ****     *iq = -i_alpha * s_p + i_beta * c_p;
 1643              		.loc 1 359 5 is_stmt 1 view .LVU497
 1644              		.loc 1 359 20 is_stmt 0 view .LVU498
 1645 0068 60EEC70A 		vnmul.f32	s1, s1, s14
 1646              	.LVL160:
 1647              		.loc 1 359 35 view .LVU499
 1648 006c 27EE811A 		vmul.f32	s2, s15, s2
 1649              	.LVL161:
 1650              		.loc 1 359 26 view .LVU500
 1651 0070 70EE810A 		vadd.f32	s1, s1, s2
 1652              		.loc 1 359 9 view .LVU501
 1653 0074 C0ED000A 		vstr.32	s1, [r0]
 360:Src/utils.cpp **** }...
 1654              		.loc 1 360 1 view .LVU502
 1655 0078 5DF8044B 		ldr	r4, [sp], #4
 1656              	.LCFI14:
 1657              		.cfi_restore 4
 1658              		.cfi_def_cfa_offset 0
 1659 007c 7047     		bx	lr
 1660              	.L122:
 1661 007e 00BF     		.align	2
 1662              	.L121:
 1663 0080 000C0240 		.word	1073875968
 1664 0084 00F887FF 		.word	-7866368
 1665 0088 0000004F 		.word	1325400064
 1666 008c DB0F4940 		.word	1078530011
 1667 0090 00000030 		.word	805306368
ARM GAS  /tmp/ccBip7Dy.s 			page 54


 1668 0094 3ACD133F 		.word	1058262330
 1669              		.cfi_endproc
 1670              	.LFE3010:
 1672              		.section	.rodata._ZL8crcTable,"a"
 1673              		.align	2
 1674              		.set	.LANCHOR0,. + 0
 1677              	_ZL8crcTable:
 1678 0000 0097B92E 		.ascii	"\000\227\271.\345r\\\313]\312\344s\270/\001\226\272"
 1678      E5725CCB 
 1678      5DCAE473 
 1678      B82F0196 
 1678      BA
 1679 0011 2D03945F 		.ascii	"-\003\224_\310\346q\347p^\311\002\225\273,\343tZ\315"
 1679      C8E671E7 
 1679      705EC902 
 1679      95BB2CE3 
 1679      745ACD
 1680 0024 0691BF28 		.ascii	"\006\221\277(\276)\007\220[\314\342uY\316\340w\274+"
 1680      BE290790 
 1680      5BCCE275 
 1680      59CEE077 
 1680      BC2B
 1681 0036 05920493 		.ascii	"\005\222\004\223\275*\341vX\317Q\306\350\177\264#\015"
 1681      BD2AE176 
 1681      58CF51C6 
 1681      E87FB423 
 1681      0D
 1682 0047 9A0C9BB5 		.ascii	"\232\014\233\265\"\351~P\307\353|R\305\016\231\267 "
 1682      22E97E50 
 1682      C7EB7C52 
 1682      C50E99B7 
 1682      20
 1683 0058 B6210F98 		.ascii	"\266!\017\230S\304\352}\262%\013\234W\300\356y\357x"
 1683      53C4EA7D 
 1683      B2250B9C 
 1683      57C0EE79 
 1683      EF78
 1684 006a 56C10A9D 		.ascii	"V\301\012\235\263$\010\237\261&\355zT\303U\302\354{"
 1684      B324089F 
 1684      B126ED7A 
 1684      54C355C2 
 1684      EC7B
 1685 007c B027099E 		.ascii	"\260'\011\236\2425\033\214G\320\376i\377hF\321\032\215"
 1685      A2351B8C 
 1685      47D0FE69 
 1685      FF6846D1 
 1685      1A8D
 1686 008e A334188F 		.ascii	"\2434\030\217\2416\375jD\323E\322\374k\2407\031\216"
 1686      A136FD6A 
 1686      44D345D2 
 1686      FC6BA037 
 1686      198E
 1687 00a0 41D6F86F 		.ascii	"A\326\370o\2443\035\212\034\213\2452\371n@\327\373l"
 1687      A4331D8A 
 1687      1C8BA532 
 1687      F96E40D7 
 1687      FB6C
ARM GAS  /tmp/ccBip7Dy.s 			page 55


 1688 00b2 42D51E89 		.ascii	"B\325\036\211\2470\2461\037\210C\324\372m\363dJ\335"
 1688      A730A631 
 1688      1F8843D4 
 1688      FA6DF364 
 1688      4ADD
 1689 00c4 1681AF38 		.ascii	"\026\201\2578\2569\027\200K\334\362eI\336\360g\254;"
 1689      AE391780 
 1689      4BDCF265 
 1689      49DEF067 
 1689      AC3B
 1690 00d6 15821483 		.ascii	"\025\202\024\203\255:\361fH\337\020\207\251>\365bL\333"
 1690      AD3AF166 
 1690      48DF1087 
 1690      A93EF562 
 1690      4CDB
 1691 00e8 4DDAF463 		.ascii	"M\332\364c\250?\021\206\252=\023\204O\330\366a\367`"
 1691      A83F1186 
 1691      AA3D1384 
 1691      4FD8F661 
 1691      F760
 1692 00fa 4ED91285 		.ascii	"N\331\022\205\253<"
 1692      AB3C
 1693              		.text
 1694              	.Letext0:
 1695              		.file 4 "/usr/share/gcc-arm-none-eabi-10-2020-q4-major/lib/gcc/arm-none-eabi/10.2.1/include/stddef
 1696              		.file 5 "/usr/share/gcc-arm-none-eabi-10-2020-q4-major/arm-none-eabi/include/machine/_default_type
 1697              		.file 6 "/usr/share/gcc-arm-none-eabi-10-2020-q4-major/arm-none-eabi/include/sys/_stdint.h"
 1698              		.file 7 "Middlewares/Third_Party/FreeRTOS/Source/portable/GCC/ARM_CM4F/portmacro.h"
 1699              		.file 8 "/usr/share/gcc-arm-none-eabi-10-2020-q4-major/arm-none-eabi/include/c++/10.2.1/cmath"
 1700              		.file 9 "/usr/share/gcc-arm-none-eabi-10-2020-q4-major/arm-none-eabi/include/c++/10.2.1/type_trait
 1701              		.file 10 "/usr/share/gcc-arm-none-eabi-10-2020-q4-major/arm-none-eabi/include/c++/10.2.1/debug/deb
 1702              		.file 11 "/usr/share/gcc-arm-none-eabi-10-2020-q4-major/arm-none-eabi/include/c++/10.2.1/bits/std_
 1703              		.file 12 "/usr/share/gcc-arm-none-eabi-10-2020-q4-major/arm-none-eabi/include/c++/10.2.1/tr1/speci
 1704              		.file 13 "/usr/share/gcc-arm-none-eabi-10-2020-q4-major/arm-none-eabi/include/c++/10.2.1/arm-none-
 1705              		.file 14 "/usr/share/gcc-arm-none-eabi-10-2020-q4-major/arm-none-eabi/include/c++/10.2.1/bits/pred
 1706              		.file 15 "/usr/share/gcc-arm-none-eabi-10-2020-q4-major/arm-none-eabi/include/math.h"
 1707              		.file 16 "/usr/share/gcc-arm-none-eabi-10-2020-q4-major/arm-none-eabi/include/c++/10.2.1/math.h"
 1708              		.file 17 "Drivers/CMSIS/Device/ST/STM32G4xx/Include/stm32g431xx.h"
 1709              		.file 18 "Drivers/STM32G4xx_HAL_Driver/Inc/stm32g4xx_ll_tim.h"
 1710              		.file 19 "Drivers/STM32G4xx_HAL_Driver/Inc/stm32g4xx_ll_usart.h"
 1711              		.file 20 "Drivers/STM32G4xx_HAL_Driver/Inc/stm32g4xx_ll_dma.h"
 1712              		.file 21 "Drivers/STM32G4xx_HAL_Driver/Inc/stm32g4xx_hal.h"
 1713              		.file 22 "Middlewares/Third_Party/FreeRTOS/Source/CMSIS_RTOS/cmsis_os.h"
 1714              		.file 23 "<built-in>"
 1715              		.file 24 "/usr/share/gcc-arm-none-eabi-10-2020-q4-major/arm-none-eabi/include/c++/10.2.1/bits/cpp_
ARM GAS  /tmp/ccBip7Dy.s 			page 56


DEFINED SYMBOLS
                            *ABS*:0000000000000000 utils.cpp
     /tmp/ccBip7Dy.s:18     .text.calcCRC:0000000000000000 $t
     /tmp/ccBip7Dy.s:26     .text.calcCRC:0000000000000000 calcCRC
     /tmp/ccBip7Dy.s:104    .text.calcCRC:0000000000000034 $d
     /tmp/ccBip7Dy.s:109    .text.SVM:0000000000000000 $t
     /tmp/ccBip7Dy.s:116    .text.SVM:0000000000000000 SVM
     /tmp/ccBip7Dy.s:520    .text.SVM:0000000000000238 $d
     /tmp/ccBip7Dy.s:528    .text.fast_atan2:0000000000000000 $t
     /tmp/ccBip7Dy.s:535    .text.fast_atan2:0000000000000000 fast_atan2
     /tmp/ccBip7Dy.s:702    .text.fast_atan2:0000000000000104 $d
     /tmp/ccBip7Dy.s:712    .text.horner_fma:0000000000000000 $t
     /tmp/ccBip7Dy.s:719    .text.horner_fma:0000000000000000 horner_fma
     /tmp/ccBip7Dy.s:769    .text.horner_fma:0000000000000028 $d
     /tmp/ccBip7Dy.s:774    .text.mod:0000000000000000 $t
     /tmp/ccBip7Dy.s:781    .text.mod:0000000000000000 mod
     /tmp/ccBip7Dy.s:807    .text.deadline_to_timeout:0000000000000000 $t
     /tmp/ccBip7Dy.s:814    .text.deadline_to_timeout:0000000000000000 deadline_to_timeout
     /tmp/ccBip7Dy.s:864    .text.timeout_to_deadline:0000000000000000 $t
     /tmp/ccBip7Dy.s:871    .text.timeout_to_deadline:0000000000000000 timeout_to_deadline
     /tmp/ccBip7Dy.s:918    .text.is_in_the_future:0000000000000000 $t
     /tmp/ccBip7Dy.s:925    .text.is_in_the_future:0000000000000000 is_in_the_future
     /tmp/ccBip7Dy.s:948    .text.micros:0000000000000000 $t
     /tmp/ccBip7Dy.s:955    .text.micros:0000000000000000 micros
     /tmp/ccBip7Dy.s:1000   .text.micros:0000000000000020 $d
     /tmp/ccBip7Dy.s:1005   .text.delay_us:0000000000000000 $t
     /tmp/ccBip7Dy.s:1012   .text.delay_us:0000000000000000 delay_us
     /tmp/ccBip7Dy.s:1064   .text.fsgn:0000000000000000 $t
     /tmp/ccBip7Dy.s:1071   .text.fsgn:0000000000000000 fsgn
     /tmp/ccBip7Dy.s:1097   .text.saturation:0000000000000000 $t
     /tmp/ccBip7Dy.s:1104   .text.saturation:0000000000000000 saturation
     /tmp/ccBip7Dy.s:1133   .text.initNotchFilter:0000000000000000 $t
     /tmp/ccBip7Dy.s:1140   .text.initNotchFilter:0000000000000000 initNotchFilter
     /tmp/ccBip7Dy.s:1239   .text.initNotchFilter:000000000000006c $d
     /tmp/ccBip7Dy.s:1247   .text.applyNotchFilter:0000000000000000 $t
     /tmp/ccBip7Dy.s:1254   .text.applyNotchFilter:0000000000000000 applyNotchFilter
     /tmp/ccBip7Dy.s:1313   .text.test_svm:0000000000000000 $t
     /tmp/ccBip7Dy.s:1320   .text.test_svm:0000000000000000 test_svm
     /tmp/ccBip7Dy.s:1514   .text.test_svm:00000000000000a8 $d
     /tmp/ccBip7Dy.s:1524   .text.clark_park:0000000000000000 $t
     /tmp/ccBip7Dy.s:1531   .text.clark_park:0000000000000000 clark_park
     /tmp/ccBip7Dy.s:1663   .text.clark_park:0000000000000080 $d
     /tmp/ccBip7Dy.s:1673   .rodata._ZL8crcTable:0000000000000000 $d
     /tmp/ccBip7Dy.s:1677   .rodata._ZL8crcTable:0000000000000000 _ZL8crcTable

UNDEFINED SYMBOLS
__aeabi_uldivmod
osKernelSysTick
HAL_GetTick
our_arm_sin_f32
our_arm_cos_f32
fmodf
