	.cpu cortex-m4
	.eabi_attribute 27, 1
	.eabi_attribute 28, 1
	.eabi_attribute 20, 1
	.eabi_attribute 21, 1
	.eabi_attribute 23, 3
	.eabi_attribute 24, 1
	.eabi_attribute 25, 1
	.eabi_attribute 26, 1
	.eabi_attribute 30, 2
	.eabi_attribute 34, 1
	.eabi_attribute 18, 4
	.file	"aspep.c"
	.text
.Ltext0:
	.cfi_sections	.debug_frame
	.section	.text.ASPEP_start,"ax",%progbits
	.align	1
	.p2align 2,,3
	.global	ASPEP_start
	.arch armv7e-m
	.syntax unified
	.thumb
	.thumb_func
	.fpu fpv4-sp-d16
	.type	ASPEP_start, %function
ASPEP_start:
.LVL0:
.LFB1439:
	.file 1 "Src/aspep.c"
	.loc 1 181 1 view -0
	.cfi_startproc
	@ args = 0, pretend = 0, frame = 0
	@ frame_needed = 0, uses_anonymous_args = 0
	.loc 1 190 5 view .LVU1
	.loc 1 181 1 is_stmt 0 view .LVU2
	push	{r4, r5, r6, lr}
.LCFI0:
	.cfi_def_cfa_offset 16
	.cfi_offset 4, -16
	.cfi_offset 5, -12
	.cfi_offset 6, -8
	.cfi_offset 14, -4
	.loc 1 181 1 view .LVU3
	mov	r4, r0
	.loc 1 190 5 view .LVU4
	ldr	r0, [r0, #20]
.LVL1:
	.loc 1 190 5 view .LVU5
	ldr	r3, [r4, #76]
	blx	r3
.LVL2:
	.loc 1 191 5 is_stmt 1 view .LVU6
	.loc 1 192 5 view .LVU7
	.loc 1 191 26 is_stmt 0 view .LVU8
	movs	r3, #0
	.loc 1 195 5 view .LVU9
	ldr	r5, [r4, #84]
	.loc 1 191 26 view .LVU10
	strh	r3, [r4, #100]	@ movhi
	.loc 1 193 5 is_stmt 1 view .LVU11
	.loc 1 193 30 is_stmt 0 view .LVU12
	strb	r3, [r4, #96]
	.loc 1 195 5 is_stmt 1 view .LVU13
	ldr	r0, [r4, #20]
	add	r1, r4, #28
	mov	r3, r5
	movs	r2, #4
	.loc 1 199 1 is_stmt 0 view .LVU14
	pop	{r4, r5, r6, lr}
.LCFI1:
	.cfi_restore 14
	.cfi_restore 6
	.cfi_restore 5
	.cfi_restore 4
	.cfi_def_cfa_offset 0
.LVL3:
	.loc 1 195 5 view .LVU15
	bx	r3	@ indirect register sibling call
.LVL4:
	.loc 1 195 5 view .LVU16
	.cfi_endproc
.LFE1439:
	.size	ASPEP_start, .-ASPEP_start
	.section	.text.ASPEP_sendBeacon,"ax",%progbits
	.align	1
	.p2align 2,,3
	.global	ASPEP_sendBeacon
	.syntax unified
	.thumb
	.thumb_func
	.fpu fpv4-sp-d16
	.type	ASPEP_sendBeacon, %function
ASPEP_sendBeacon:
.LVL5:
.LFB1440:
	.loc 1 208 1 is_stmt 1 view -0
	.cfi_startproc
	@ args = 0, pretend = 0, frame = 0
	@ frame_needed = 0, uses_anonymous_args = 0
	@ link register save eliminated.
	.loc 1 217 5 view .LVU18
	.loc 1 208 1 is_stmt 0 view .LVU19
	push	{r4}
.LCFI2:
	.cfi_def_cfa_offset 4
	.cfi_offset 4, -4
	.loc 1 220 18 view .LVU20
	ldrb	r3, [r1]	@ zero_extendqisi2
	.loc 1 219 18 view .LVU21
	ldrb	r2, [r1, #4]	@ zero_extendqisi2
	.loc 1 222 18 view .LVU22
	ldrb	ip, [r1, #2]	@ zero_extendqisi2
.LBB40:
.LBB41:
.LBB42:
.LBB43:
	.loc 1 126 7 view .LVU23
	ldr	r4, .L9
.LBE43:
.LBE42:
.LBE41:
.LBE40:
	.loc 1 220 52 view .LVU24
	lsls	r3, r3, #7
	.loc 1 223 14 view .LVU25
	orr	r3, r3, r2, lsl #4
	.loc 1 221 18 view .LVU26
	ldrb	r2, [r1, #1]	@ zero_extendqisi2
	.loc 1 223 14 view .LVU27
	orr	r3, r3, r2, lsl #8
	.loc 1 223 18 view .LVU28
	ldrb	r2, [r1, #3]	@ zero_extendqisi2
	.loc 1 223 14 view .LVU29
	orr	r3, r3, ip, lsl #14
	orr	r3, r3, r2, lsl #21
.LBB62:
.LBB58:
.LBB46:
.LBB44:
	.loc 1 126 26 view .LVU30
	uxtb	r2, r3
	orr	r2, r2, #5
	.loc 1 124 10 view .LVU31
	bic	r1, r3, #-268435456
.LVL6:
	.loc 1 127 26 view .LVU32
	ldrb	r2, [r4, r2]	@ zero_extendqisi2
.LVL7:
	.loc 1 127 26 view .LVU33
.LBE44:
.LBE46:
.LBE58:
.LBE62:
	.loc 1 218 5 is_stmt 1 view .LVU34
	.loc 1 225 5 view .LVU35
.LBB63:
.LBI40:
	.loc 1 479 9 view .LVU36
.LBB59:
	.loc 1 481 3 view .LVU37
	.loc 1 491 5 view .LVU38
.LBB47:
.LBI42:
	.loc 1 118 13 view .LVU39
.LBB45:
	.loc 1 120 3 view .LVU40
	.loc 1 121 3 view .LVU41
	.loc 1 124 3 view .LVU42
	.loc 1 126 3 view .LVU43
	.loc 1 127 3 view .LVU44
	.loc 1 127 26 is_stmt 0 view .LVU45
	eor	r2, r2, r1, lsr #8
	uxtb	r2, r2
.LVL8:
	.loc 1 128 3 is_stmt 1 view .LVU46
	.loc 1 128 26 is_stmt 0 view .LVU47
	ldrb	r2, [r4, r2]	@ zero_extendqisi2
.LVL9:
	.loc 1 128 26 view .LVU48
	eor	r2, r2, r1, lsr #16
	uxtb	r2, r2
.LVL10:
	.loc 1 129 3 is_stmt 1 view .LVU49
	.loc 1 129 26 is_stmt 0 view .LVU50
	ldrb	r2, [r4, r2]	@ zero_extendqisi2
.LVL11:
	.loc 1 129 7 view .LVU51
	ldr	r4, .L9+4
.LVL12:
	.loc 1 129 26 view .LVU52
	eor	r2, r2, r1, lsr #24
.LVL13:
	.loc 1 140 3 is_stmt 1 view .LVU53
	.loc 1 140 17 is_stmt 0 view .LVU54
	ldrb	r2, [r4, r2]	@ zero_extendqisi2
.LVL14:
	.loc 1 140 14 view .LVU55
	orr	r3, r3, r2, lsl #28
.LVL15:
	.loc 1 140 14 view .LVU56
	orr	r3, r3, #5
	str	r3, [r0, #32]
.LVL16:
	.loc 1 140 14 view .LVU57
.LBE45:
.LBE47:
	.loc 1 492 5 is_stmt 1 view .LVU58
.LBB48:
.LBI48:
	.file 2 "Drivers/CMSIS/Include/cmsis_gcc.h"
	.loc 2 207 27 view .LVU59
.LBB49:
	.loc 2 209 3 view .LVU60
	.syntax unified
@ 209 "Drivers/CMSIS/Include/cmsis_gcc.h" 1
	cpsid i
@ 0 "" 2
	.thumb
	.syntax unified
.LBE49:
.LBE48:
	.loc 1 493 5 view .LVU61
	.loc 1 493 8 is_stmt 0 view .LVU62
	ldr	r3, [r0, #72]
	cbz	r3, .L8
	.loc 1 520 7 is_stmt 1 view .LVU63
.LBB50:
.LBI50:
	.loc 2 196 27 view .LVU64
.LBB51:
	.loc 2 198 3 view .LVU65
	.syntax unified
@ 198 "Drivers/CMSIS/Include/cmsis_gcc.h" 1
	cpsie i
@ 0 "" 2
	.thumb
	.syntax unified
.LBE51:
.LBE50:
	.loc 1 522 7 view .LVU66
	.loc 1 548 12 view .LVU67
	.loc 1 560 12 view .LVU68
	.loc 1 562 9 view .LVU69
	.loc 1 562 12 is_stmt 0 view .LVU70
	ldrb	r3, [r0, #36]	@ zero_extendqisi2
	cbnz	r3, .L4
	.loc 1 568 11 is_stmt 1 view .LVU71
	.loc 1 568 37 is_stmt 0 view .LVU72
	movs	r3, #2
	strb	r3, [r0, #36]
.LVL17:
	.loc 1 574 7 is_stmt 1 view .LVU73
	.loc 1 579 3 view .LVU74
.L4:
	.loc 1 579 3 is_stmt 0 view .LVU75
.LBE59:
.LBE63:
	.loc 1 229 1 view .LVU76
	ldr	r4, [sp], #4
.LCFI3:
	.cfi_remember_state
	.cfi_restore 4
	.cfi_def_cfa_offset 0
	bx	lr
.LVL18:
.L8:
.LCFI4:
	.cfi_restore_state
	.loc 1 225 53 view .LVU77
	add	r1, r0, #32
.LVL19:
.LBB64:
.LBB60:
.LBB52:
.LBI52:
	.loc 1 479 9 is_stmt 1 view .LVU78
.LBB53:
	.loc 1 495 7 view .LVU79
	.loc 1 504 12 view .LVU80
	.loc 1 511 9 view .LVU81
	.loc 1 511 35 is_stmt 0 view .LVU82
	movs	r3, #3
	strb	r3, [r0, #36]
	.loc 1 512 9 is_stmt 1 view .LVU83
	.loc 1 512 29 is_stmt 0 view .LVU84
	str	r1, [r0, #72]
	.loc 1 515 7 is_stmt 1 view .LVU85
.LBB54:
.LBI54:
	.loc 2 196 27 view .LVU86
.LBB55:
	.loc 2 198 3 view .LVU87
	.syntax unified
@ 198 "Drivers/CMSIS/Include/cmsis_gcc.h" 1
	cpsie i
@ 0 "" 2
	.thumb
	.syntax unified
.LBE55:
.LBE54:
	.loc 1 516 7 view .LVU88
	movs	r2, #4
	ldr	r3, [r0, #88]
.LBE53:
.LBE52:
.LBE60:
.LBE64:
	.loc 1 229 1 is_stmt 0 view .LVU89
	ldr	r4, [sp], #4
.LCFI5:
	.cfi_restore 4
	.cfi_def_cfa_offset 0
.LBB65:
.LBB61:
.LBB57:
.LBB56:
	.loc 1 516 7 view .LVU90
	ldr	r0, [r0, #20]
.LVL20:
	.loc 1 516 7 view .LVU91
	bx	r3	@ indirect register sibling call
.LVL21:
.L10:
	.loc 1 516 7 view .LVU92
	.align	2
.L9:
	.word	.LANCHOR0
	.word	.LANCHOR1
.LBE56:
.LBE57:
.LBE61:
.LBE65:
	.cfi_endproc
.LFE1440:
	.size	ASPEP_sendBeacon, .-ASPEP_sendBeacon
	.section	.text.ASPEP_sendPing,"ax",%progbits
	.align	1
	.p2align 2,,3
	.global	ASPEP_sendPing
	.syntax unified
	.thumb
	.thumb_func
	.fpu fpv4-sp-d16
	.type	ASPEP_sendPing, %function
ASPEP_sendPing:
.LVL22:
.LFB1442:
	.loc 1 252 1 is_stmt 1 view -0
	.cfi_startproc
	@ args = 0, pretend = 0, frame = 0
	@ frame_needed = 0, uses_anonymous_args = 0
	.loc 1 261 5 view .LVU94
	.loc 1 262 5 view .LVU95
	.loc 1 263 5 view .LVU96
	.loc 1 264 5 view .LVU97
	.loc 1 252 1 is_stmt 0 view .LVU98
	push	{r4, r5, lr}
.LCFI6:
	.cfi_def_cfa_offset 12
	.cfi_offset 4, -12
	.cfi_offset 5, -8
	.cfi_offset 14, -4
	.loc 1 265 22 view .LVU99
	lsl	ip, r1, #5
	.loc 1 262 13 view .LVU100
	ldrb	lr, [r0, #96]	@ zero_extendqisi2
	.loc 1 263 13 view .LVU101
	ldrb	r4, [r0, #99]	@ zero_extendqisi2
.LBB82:
.LBB83:
.LBB84:
.LBB85:
	.loc 1 129 7 view .LVU102
	ldr	r5, .L16
.LBE85:
.LBE84:
.LBE83:
.LBE82:
	.loc 1 269 20 view .LVU103
	orr	ip, ip, r1, lsl #4
	.loc 1 266 33 view .LVU104
	and	lr, lr, #1
	.loc 1 269 20 view .LVU105
	orr	ip, ip, r2, lsl #12
	orr	r3, ip, lr, lsl #6
	orr	r3, r3, lr, lsl #7
	.loc 1 268 33 view .LVU106
	and	r4, r4, #15
	.loc 1 269 20 view .LVU107
	orr	r3, r3, r4, lsl #8
.LBB104:
.LBB100:
.LBB88:
.LBB86:
	.loc 1 126 26 view .LVU108
	uxtb	r2, r3
.LVL23:
	.loc 1 126 7 view .LVU109
	ldr	r4, .L16+4
	.loc 1 126 26 view .LVU110
	orr	r2, r2, #6
.LBE86:
.LBE88:
.LBE100:
.LBE104:
	.loc 1 269 20 view .LVU111
	orr	r1, r3, #6
.LVL24:
	.loc 1 270 5 is_stmt 1 view .LVU112
.LBB105:
.LBI82:
	.loc 1 479 9 view .LVU113
.LBB101:
	.loc 1 481 3 view .LVU114
	.loc 1 491 5 view .LVU115
.LBB89:
.LBI84:
	.loc 1 118 13 view .LVU116
.LBB87:
	.loc 1 120 3 view .LVU117
	.loc 1 121 3 view .LVU118
	.loc 1 124 3 view .LVU119
	.loc 1 126 3 view .LVU120
	.loc 1 127 3 view .LVU121
	.loc 1 127 26 is_stmt 0 view .LVU122
	ldrb	r2, [r4, r2]	@ zero_extendqisi2
	eor	r2, r2, r3, lsr #8
	uxtb	r2, r2
.LVL25:
	.loc 1 128 3 is_stmt 1 view .LVU123
	.loc 1 128 26 is_stmt 0 view .LVU124
	ldrb	r2, [r4, r2]	@ zero_extendqisi2
.LVL26:
	.loc 1 128 26 view .LVU125
	eor	r2, r2, r3, lsr #16
	uxtb	r2, r2
.LVL27:
	.loc 1 129 3 is_stmt 1 view .LVU126
	.loc 1 129 26 is_stmt 0 view .LVU127
	ldrb	r2, [r4, r2]	@ zero_extendqisi2
.LVL28:
	.loc 1 129 26 view .LVU128
	eor	r3, r2, r3, lsr #24
.LVL29:
	.loc 1 140 3 is_stmt 1 view .LVU129
	.loc 1 140 17 is_stmt 0 view .LVU130
	ldrb	r3, [r5, r3]	@ zero_extendqisi2
.LVL30:
	.loc 1 140 14 view .LVU131
	orr	r3, r1, r3, lsl #28
	str	r3, [r0, #32]
.LVL31:
	.loc 1 140 14 view .LVU132
.LBE87:
.LBE89:
	.loc 1 492 5 is_stmt 1 view .LVU133
.LBB90:
.LBI90:
	.loc 2 207 27 view .LVU134
.LBB91:
	.loc 2 209 3 view .LVU135
	.syntax unified
@ 209 "Drivers/CMSIS/Include/cmsis_gcc.h" 1
	cpsid i
@ 0 "" 2
	.thumb
	.syntax unified
.LBE91:
.LBE90:
	.loc 1 493 5 view .LVU136
	.loc 1 493 8 is_stmt 0 view .LVU137
	ldr	r3, [r0, #72]
	cbz	r3, .L15
	.loc 1 520 7 is_stmt 1 view .LVU138
.LBB92:
.LBI92:
	.loc 2 196 27 view .LVU139
.LBB93:
	.loc 2 198 3 view .LVU140
	.syntax unified
@ 198 "Drivers/CMSIS/Include/cmsis_gcc.h" 1
	cpsie i
@ 0 "" 2
	.thumb
	.syntax unified
.LBE93:
.LBE92:
	.loc 1 522 7 view .LVU141
	.loc 1 548 12 view .LVU142
	.loc 1 560 12 view .LVU143
	.loc 1 562 9 view .LVU144
	.loc 1 562 12 is_stmt 0 view .LVU145
	ldrb	r3, [r0, #36]	@ zero_extendqisi2
	cbnz	r3, .L11
	.loc 1 568 11 is_stmt 1 view .LVU146
	.loc 1 568 37 is_stmt 0 view .LVU147
	movs	r3, #2
	strb	r3, [r0, #36]
.LVL32:
	.loc 1 574 7 is_stmt 1 view .LVU148
	.loc 1 579 3 view .LVU149
.L11:
	.loc 1 579 3 is_stmt 0 view .LVU150
.LBE101:
.LBE105:
	.loc 1 274 1 view .LVU151
	pop	{r4, r5, pc}
.LVL33:
.L15:
	.loc 1 270 53 view .LVU152
	add	r1, r0, #32
.LVL34:
.LBB106:
.LBB102:
.LBB94:
.LBI94:
	.loc 1 479 9 is_stmt 1 view .LVU153
.LBB95:
	.loc 1 495 7 view .LVU154
	.loc 1 504 12 view .LVU155
	.loc 1 511 9 view .LVU156
	.loc 1 511 35 is_stmt 0 view .LVU157
	movs	r3, #3
	strb	r3, [r0, #36]
	.loc 1 512 9 is_stmt 1 view .LVU158
	.loc 1 512 29 is_stmt 0 view .LVU159
	str	r1, [r0, #72]
	.loc 1 515 7 is_stmt 1 view .LVU160
.LBB96:
.LBI96:
	.loc 2 196 27 view .LVU161
.LBB97:
	.loc 2 198 3 view .LVU162
	.syntax unified
@ 198 "Drivers/CMSIS/Include/cmsis_gcc.h" 1
	cpsie i
@ 0 "" 2
	.thumb
	.syntax unified
.LBE97:
.LBE96:
	.loc 1 516 7 view .LVU163
	movs	r2, #4
	ldr	r3, [r0, #88]
	ldr	r0, [r0, #20]
.LVL35:
	.loc 1 516 7 is_stmt 0 view .LVU164
.LBE95:
.LBE94:
.LBE102:
.LBE106:
	.loc 1 274 1 view .LVU165
	pop	{r4, r5, lr}
.LCFI7:
	.cfi_restore 14
	.cfi_restore 5
	.cfi_restore 4
	.cfi_def_cfa_offset 0
.LBB107:
.LBB103:
.LBB99:
.LBB98:
	.loc 1 516 7 view .LVU166
	bx	r3	@ indirect register sibling call
.LVL36:
.L17:
	.loc 1 516 7 view .LVU167
	.align	2
.L16:
	.word	.LANCHOR1
	.word	.LANCHOR0
.LBE98:
.LBE99:
.LBE103:
.LBE107:
	.cfi_endproc
.LFE1442:
	.size	ASPEP_sendPing, .-ASPEP_sendPing
	.section	.text.ASPEP_getBuffer,"ax",%progbits
	.align	1
	.p2align 2,,3
	.global	ASPEP_getBuffer
	.syntax unified
	.thumb
	.thumb_func
	.fpu fpv4-sp-d16
	.type	ASPEP_getBuffer, %function
ASPEP_getBuffer:
.LVL37:
.LFB1443:
	.loc 1 286 1 is_stmt 1 view -0
	.cfi_startproc
	@ args = 0, pretend = 0, frame = 0
	@ frame_needed = 0, uses_anonymous_args = 0
	@ link register save eliminated.
	.loc 1 287 3 view .LVU169
	.loc 1 296 5 view .LVU170
	.loc 1 298 8 is_stmt 0 view .LVU171
	cmp	r2, #10
	.loc 1 286 1 view .LVU172
	push	{r4}
.LCFI8:
	.cfi_def_cfa_offset 4
	.cfi_offset 4, -4
	.loc 1 286 1 view .LVU173
	mov	r3, r0
.LVL38:
	.loc 1 298 5 is_stmt 1 view .LVU174
	.loc 1 298 8 is_stmt 0 view .LVU175
	beq	.L27
	.loc 1 312 7 is_stmt 1 view .LVU176
	.loc 1 312 10 is_stmt 0 view .LVU177
	ldrb	r2, [r0, #54]	@ zero_extendqisi2
.LVL39:
	.loc 1 312 10 view .LVU178
	cmp	r2, #1
	bls	.L21
	.loc 1 312 53 discriminator 1 view .LVU179
	ldrb	r2, [r0, #62]	@ zero_extendqisi2
	cmp	r2, #1
	bls	.L28
.L24:
	.loc 1 307 16 view .LVU180
	movs	r0, #0
.LVL40:
	.loc 1 339 9 is_stmt 1 view .LVU181
	.loc 1 345 3 view .LVU182
	.loc 1 346 1 is_stmt 0 view .LVU183
	ldr	r4, [sp], #4
.LCFI9:
	.cfi_remember_state
	.cfi_restore 4
	.cfi_def_cfa_offset 0
	bx	lr
.LVL41:
.L27:
.LCFI10:
	.cfi_restore_state
	.loc 1 300 7 is_stmt 1 view .LVU184
	.loc 1 300 10 is_stmt 0 view .LVU185
	ldrb	r2, [r0, #46]	@ zero_extendqisi2
.LVL42:
	.loc 1 300 10 view .LVU186
	cmp	r2, #1
	bhi	.L24
	.loc 1 302 9 is_stmt 1 view .LVU187
	.loc 1 302 19 is_stmt 0 view .LVU188
	ldr	r2, [r0, #40]
	.loc 1 303 35 view .LVU189
	movs	r4, #1
	.loc 1 302 19 view .LVU190
	adds	r2, r2, #4
	.loc 1 302 17 view .LVU191
	str	r2, [r1]
	.loc 1 303 9 is_stmt 1 view .LVU192
	.loc 1 303 35 is_stmt 0 view .LVU193
	strb	r4, [r3, #46]
	.loc 1 287 8 view .LVU194
	mov	r0, r4
.LVL43:
	.loc 1 339 9 is_stmt 1 view .LVU195
	.loc 1 345 3 view .LVU196
	.loc 1 346 1 is_stmt 0 view .LVU197
	ldr	r4, [sp], #4
.LCFI11:
	.cfi_remember_state
	.cfi_restore 4
	.cfi_def_cfa_offset 0
	bx	lr
.LVL44:
.L28:
.LCFI12:
	.cfi_restore_state
	.loc 1 318 9 is_stmt 1 view .LVU198
	.loc 1 327 14 view .LVU199
	.loc 1 329 11 view .LVU200
	.loc 1 331 21 is_stmt 0 view .LVU201
	ldr	r2, [r0, #56]
	.loc 1 329 39 view .LVU202
	movs	r0, #1
.LVL45:
	.loc 1 330 45 view .LVU203
	add	r4, r3, #56
	.loc 1 329 39 view .LVU204
	strb	r0, [r3, #62]
	.loc 1 330 11 is_stmt 1 view .LVU205
	.loc 1 331 21 is_stmt 0 view .LVU206
	adds	r2, r2, #4
	.loc 1 330 43 view .LVU207
	str	r4, [r3, #64]
	.loc 1 331 11 is_stmt 1 view .LVU208
	.loc 1 346 1 is_stmt 0 view .LVU209
	ldr	r4, [sp], #4
.LCFI13:
	.cfi_remember_state
	.cfi_restore 4
	.cfi_def_cfa_offset 0
	.loc 1 331 19 view .LVU210
	str	r2, [r1]
.LVL46:
	.loc 1 339 9 is_stmt 1 view .LVU211
	.loc 1 345 3 view .LVU212
	.loc 1 346 1 is_stmt 0 view .LVU213
	bx	lr
.LVL47:
.L21:
.LCFI14:
	.cfi_restore_state
	.loc 1 318 9 is_stmt 1 view .LVU214
	.loc 1 320 11 view .LVU215
	.loc 1 322 21 is_stmt 0 view .LVU216
	ldr	r2, [r0, #48]
	.loc 1 320 39 view .LVU217
	movs	r0, #1
.LVL48:
	.loc 1 321 45 view .LVU218
	add	r4, r3, #48
	.loc 1 320 39 view .LVU219
	strb	r0, [r3, #54]
	.loc 1 321 11 is_stmt 1 view .LVU220
	.loc 1 322 21 is_stmt 0 view .LVU221
	adds	r2, r2, #4
	.loc 1 321 43 view .LVU222
	str	r4, [r3, #64]
	.loc 1 322 11 is_stmt 1 view .LVU223
	.loc 1 346 1 is_stmt 0 view .LVU224
	ldr	r4, [sp], #4
.LCFI15:
	.cfi_restore 4
	.cfi_def_cfa_offset 0
	.loc 1 322 19 view .LVU225
	str	r2, [r1]
.LVL49:
	.loc 1 339 9 is_stmt 1 view .LVU226
	.loc 1 345 3 view .LVU227
	.loc 1 346 1 is_stmt 0 view .LVU228
	bx	lr
	.cfi_endproc
.LFE1443:
	.size	ASPEP_getBuffer, .-ASPEP_getBuffer
	.section	.text.ASPEP_sendPacket,"ax",%progbits
	.align	1
	.p2align 2,,3
	.global	ASPEP_sendPacket
	.syntax unified
	.thumb
	.thumb_func
	.fpu fpv4-sp-d16
	.type	ASPEP_sendPacket, %function
ASPEP_sendPacket:
.LVL50:
.LFB1445:
	.loc 1 405 1 is_stmt 1 view -0
	.cfi_startproc
	@ args = 0, pretend = 0, frame = 0
	@ frame_needed = 0, uses_anonymous_args = 0
	.loc 1 406 3 view .LVU230
	.loc 1 415 5 view .LVU231
	.loc 1 416 5 view .LVU232
	.loc 1 417 5 view .LVU233
	.loc 1 418 5 view .LVU234
	.loc 1 420 5 view .LVU235
	.loc 1 405 1 is_stmt 0 view .LVU236
	push	{r4, r5, r6, lr}
.LCFI16:
	.cfi_def_cfa_offset 16
	.cfi_offset 4, -16
	.cfi_offset 5, -12
	.cfi_offset 6, -8
	.cfi_offset 14, -4
	.loc 1 423 8 view .LVU237
	ldrb	r4, [r0, #100]	@ zero_extendqisi2
.LVL51:
	.loc 1 421 5 is_stmt 1 view .LVU238
	.loc 1 423 5 view .LVU239
	.loc 1 423 8 is_stmt 0 view .LVU240
	cmp	r4, #2
	beq	.L48
	.loc 1 457 14 view .LVU241
	movs	r1, #2
.LVL52:
.L30:
	.loc 1 462 3 is_stmt 1 view .LVU242
	.loc 1 463 1 is_stmt 0 view .LVU243
	mov	r0, r1
	pop	{r4, r5, r6, pc}
.LVL53:
.L48:
	.loc 1 427 7 is_stmt 1 view .LVU244
	.loc 1 428 7 view .LVU245
	.loc 1 429 7 view .LVU246
	.loc 1 430 7 view .LVU247
	.loc 1 431 7 view .LVU248
	.loc 1 430 17 is_stmt 0 view .LVU249
	orr	r4, r3, r2, lsl #4
	.loc 1 431 15 view .LVU250
	str	r4, [r1, #-4]
	.loc 1 432 7 is_stmt 1 view .LVU251
	.loc 1 432 10 is_stmt 0 view .LVU252
	ldrb	r4, [r0, #108]	@ zero_extendqisi2
	cmp	r4, #1
	bne	.L31
	.loc 1 435 9 is_stmt 1 view .LVU253
	.loc 1 436 9 view .LVU254
	.loc 1 435 34 is_stmt 0 view .LVU255
	movw	r4, #65226
	strh	r4, [r1, r2]	@ unaligned
	.loc 1 437 9 is_stmt 1 view .LVU256
	.loc 1 437 26 is_stmt 0 view .LVU257
	adds	r2, r2, #2
.LVL54:
	.loc 1 437 26 view .LVU258
	uxth	r2, r2
.LVL55:
.L31:
	.loc 1 439 7 is_stmt 1 view .LVU259
	.loc 1 439 10 is_stmt 0 view .LVU260
	cmp	r3, #10
	bne	.L32
	.loc 1 441 9 is_stmt 1 view .LVU261
	.loc 1 441 12 is_stmt 0 view .LVU262
	ldrb	r4, [r0, #16]	@ zero_extendqisi2
	cbz	r4, .L42
	.loc 1 443 11 is_stmt 1 view .LVU263
	.loc 1 443 43 is_stmt 0 view .LVU264
	movs	r4, #0
	strb	r4, [r0, #16]
	.loc 1 450 7 is_stmt 1 view .LVU265
.L32:
.LBB124:
.LBB125:
.LBB126:
.LBB127:
	.loc 1 121 12 is_stmt 0 view .LVU266
	ldr	r4, [r1, #-4]
	.loc 1 126 7 view .LVU267
	ldr	r5, .L55
	.loc 1 126 26 view .LVU268
	uxtb	r6, r4
	.loc 1 127 26 view .LVU269
	ubfx	lr, r4, #8, #8
	ldrb	r6, [r5, r6]	@ zero_extendqisi2
	eor	lr, lr, r6
.LBE127:
.LBE126:
.LBE125:
.LBE124:
	.loc 1 452 18 view .LVU270
	adds	r2, r2, #4
.LVL56:
.LBB149:
.LBB144:
.LBB131:
.LBB128:
	.loc 1 128 26 view .LVU271
	ldrb	r6, [r5, lr]	@ zero_extendqisi2
	ubfx	lr, r4, #16, #8
	eor	lr, lr, r6
.LBE128:
.LBE131:
.LBE144:
.LBE149:
	.loc 1 429 13 view .LVU272
	sub	ip, r1, #4
.LVL57:
	.loc 1 452 9 is_stmt 1 view .LVU273
.LBB150:
.LBB145:
.LBB132:
.LBB129:
	.loc 1 129 26 is_stmt 0 view .LVU274
	ldrb	lr, [r5, lr]	@ zero_extendqisi2
	.loc 1 129 46 view .LVU275
	ubfx	r5, r4, #24, #4
	.loc 1 129 26 view .LVU276
	eor	lr, lr, r5
	.loc 1 129 7 view .LVU277
	ldr	r5, .L55+4
	.loc 1 140 17 view .LVU278
	ldrb	r5, [r5, lr]	@ zero_extendqisi2
	.loc 1 140 14 view .LVU279
	orr	r4, r4, r5, lsl #28
.LBE129:
.LBE132:
.LBE145:
.LBE150:
	.loc 1 452 18 view .LVU280
	uxth	r2, r2
.LVL58:
.LBB151:
.LBI124:
	.loc 1 479 9 is_stmt 1 view .LVU281
.LBB146:
	.loc 1 481 3 view .LVU282
	.loc 1 491 5 view .LVU283
.LBB133:
.LBI126:
	.loc 1 118 13 view .LVU284
.LBB130:
	.loc 1 120 3 view .LVU285
	.loc 1 121 3 view .LVU286
	.loc 1 124 3 view .LVU287
	.loc 1 126 3 view .LVU288
	.loc 1 127 3 view .LVU289
	.loc 1 128 3 view .LVU290
	.loc 1 129 3 view .LVU291
	.loc 1 140 3 view .LVU292
	.loc 1 140 14 is_stmt 0 view .LVU293
	str	r4, [r1, #-4]
.LVL59:
	.loc 1 140 14 view .LVU294
.LBE130:
.LBE133:
	.loc 1 492 5 is_stmt 1 view .LVU295
.LBB134:
.LBI134:
	.loc 2 207 27 view .LVU296
.LBB135:
	.loc 2 209 3 view .LVU297
	.syntax unified
@ 209 "Drivers/CMSIS/Include/cmsis_gcc.h" 1
	cpsid i
@ 0 "" 2
	.thumb
	.syntax unified
.LBE135:
.LBE134:
	.loc 1 493 5 view .LVU298
	.loc 1 493 8 is_stmt 0 view .LVU299
	ldr	r1, [r0, #72]
.LVL60:
	.loc 1 493 8 view .LVU300
	cbz	r1, .L49
	.loc 1 520 7 is_stmt 1 view .LVU301
.LBB136:
.LBI136:
	.loc 2 196 27 view .LVU302
.LBB137:
	.loc 2 198 3 view .LVU303
	.syntax unified
@ 198 "Drivers/CMSIS/Include/cmsis_gcc.h" 1
	cpsie i
@ 0 "" 2
	.thumb
	.syntax unified
.LBE137:
.LBE136:
	.loc 1 522 7 view .LVU304
	.loc 1 522 10 is_stmt 0 view .LVU305
	cmp	r3, #9
	beq	.L50
	.loc 1 548 12 is_stmt 1 view .LVU306
	.loc 1 548 15 is_stmt 0 view .LVU307
	cmp	r3, #10
	beq	.L51
	.loc 1 560 12 is_stmt 1 view .LVU308
	.loc 1 560 14 is_stmt 0 view .LVU309
	cmp	r3, #0
	bne	.L45
	.loc 1 562 9 is_stmt 1 view .LVU310
	.loc 1 562 32 is_stmt 0 view .LVU311
	ldrb	r1, [r0, #36]	@ zero_extendqisi2
	.loc 1 562 12 view .LVU312
	cbnz	r1, .L46
	.loc 1 568 11 is_stmt 1 view .LVU313
	.loc 1 568 37 is_stmt 0 view .LVU314
	movs	r3, #2
.LVL61:
	.loc 1 568 37 view .LVU315
	strb	r3, [r0, #36]
	b	.L30
.LVL62:
.L42:
	.loc 1 568 37 view .LVU316
.LBE146:
.LBE151:
	.loc 1 447 18 view .LVU317
	movs	r1, #1
.LVL63:
	.loc 1 462 3 is_stmt 1 view .LVU318
	.loc 1 463 1 is_stmt 0 view .LVU319
	mov	r0, r1
.LVL64:
	.loc 1 463 1 view .LVU320
	pop	{r4, r5, r6, pc}
.LVL65:
.L50:
.LBB152:
.LBB147:
	.loc 1 525 9 is_stmt 1 view .LVU321
	.loc 1 525 43 is_stmt 0 view .LVU322
	ldr	r3, [r0, #64]
.LVL66:
	.loc 1 533 12 view .LVU323
	ldr	r4, [r0, #68]
	.loc 1 525 12 view .LVU324
	ldr	r1, [r3]
	.loc 1 527 18 view .LVU325
	cmp	ip, r1
	ite	ne
	movne	r1, #3
	moveq	r1, #0
.LVL67:
	.loc 1 532 9 is_stmt 1 view .LVU326
	.loc 1 533 9 view .LVU327
	.loc 1 533 12 is_stmt 0 view .LVU328
	cbz	r4, .L52
.L39:
	.loc 1 541 9 is_stmt 1 view .LVU329
	.loc 1 542 9 view .LVU330
	.loc 1 542 48 is_stmt 0 view .LVU331
	movs	r0, #2
.LVL68:
	.loc 1 542 48 view .LVU332
	strb	r0, [r3, #6]
	.loc 1 543 9 is_stmt 1 view .LVU333
	.loc 1 543 49 is_stmt 0 view .LVU334
	strh	r2, [r3, #4]	@ movhi
	b	.L30
.LVL69:
.L49:
.LBB138:
.LBI138:
	.loc 1 479 9 is_stmt 1 view .LVU335
.LBB139:
	.loc 1 495 7 view .LVU336
	.loc 1 495 10 is_stmt 0 view .LVU337
	cmp	r3, #9
	beq	.L53
	.loc 1 504 12 is_stmt 1 view .LVU338
	.loc 1 504 15 is_stmt 0 view .LVU339
	cmp	r3, #10
	.loc 1 506 9 is_stmt 1 view .LVU340
	.loc 1 506 35 is_stmt 0 view .LVU341
	mov	r1, #3
	.loc 1 507 39 view .LVU342
	itete	eq
	addeq	r3, r0, #40
.LVL70:
	.loc 1 512 39 view .LVU343
	addne	r3, r0, #32
	.loc 1 506 35 view .LVU344
	strbeq	r1, [r0, #46]
	.loc 1 511 9 is_stmt 1 view .LVU345
	.loc 1 511 35 is_stmt 0 view .LVU346
	strbne	r1, [r0, #36]
	.loc 1 512 9 is_stmt 1 view .LVU347
	.loc 1 512 29 is_stmt 0 view .LVU348
	str	r3, [r0, #72]
.L35:
	.loc 1 515 7 is_stmt 1 view .LVU349
.LBB140:
.LBI140:
	.loc 2 196 27 view .LVU350
.LBB141:
	.loc 2 198 3 view .LVU351
	.syntax unified
@ 198 "Drivers/CMSIS/Include/cmsis_gcc.h" 1
	cpsie i
@ 0 "" 2
	.thumb
	.syntax unified
.LBE141:
.LBE140:
	.loc 1 516 7 view .LVU352
	ldr	r3, [r0, #88]
	ldr	r0, [r0, #20]
.LVL71:
	.loc 1 516 7 is_stmt 0 view .LVU353
	mov	r1, ip
	blx	r3
.LVL72:
	.loc 1 574 7 is_stmt 1 view .LVU354
	.loc 1 579 3 view .LVU355
	.loc 1 516 7 is_stmt 0 view .LVU356
	movs	r1, #0
.LVL73:
	.loc 1 516 7 view .LVU357
.LBE139:
.LBE138:
.LBE147:
.LBE152:
	.loc 1 462 3 is_stmt 1 view .LVU358
	.loc 1 463 1 is_stmt 0 view .LVU359
	mov	r0, r1
	pop	{r4, r5, r6, pc}
.LVL74:
.L51:
.LBB153:
.LBB148:
	.loc 1 550 9 is_stmt 1 view .LVU360
	.loc 1 550 12 is_stmt 0 view .LVU361
	ldrb	r3, [r0, #46]	@ zero_extendqisi2
.LVL75:
	.loc 1 550 12 view .LVU362
	cmp	r3, #1
	beq	.L54
.L46:
	.loc 1 552 18 view .LVU363
	movs	r1, #3
	b	.L30
.LVL76:
.L45:
	.loc 1 481 11 view .LVU364
	movs	r1, #0
	b	.L30
.LVL77:
.L54:
	.loc 1 556 11 is_stmt 1 view .LVU365
	.loc 1 556 37 is_stmt 0 view .LVU366
	movs	r3, #2
	strb	r3, [r0, #46]
	.loc 1 557 11 is_stmt 1 view .LVU367
	.loc 1 557 38 is_stmt 0 view .LVU368
	strh	r2, [r0, #44]	@ movhi
	.loc 1 481 11 view .LVU369
	movs	r1, #0
	b	.L30
.LVL78:
.L53:
.LBB143:
.LBB142:
	.loc 1 498 9 is_stmt 1 view .LVU370
	.loc 1 498 16 is_stmt 0 view .LVU371
	ldr	r3, [r0, #64]
.LVL79:
	.loc 1 498 48 view .LVU372
	movs	r1, #3
	strb	r1, [r3, #6]
	.loc 1 499 9 is_stmt 1 view .LVU373
	.loc 1 499 29 is_stmt 0 view .LVU374
	str	r3, [r0, #72]
	b	.L35
.LVL80:
.L52:
	.loc 1 499 29 view .LVU375
.LBE142:
.LBE143:
	.loc 1 536 11 is_stmt 1 view .LVU376
	.loc 1 536 36 is_stmt 0 view .LVU377
	str	r3, [r0, #68]
	b	.L39
.L56:
	.align	2
.L55:
	.word	.LANCHOR0
	.word	.LANCHOR1
.LBE148:
.LBE153:
	.cfi_endproc
.LFE1445:
	.size	ASPEP_sendPacket, .-ASPEP_sendPacket
	.section	.text.ASPEP_HWDataTransmittedIT,"ax",%progbits
	.align	1
	.p2align 2,,3
	.global	ASPEP_HWDataTransmittedIT
	.syntax unified
	.thumb
	.thumb_func
	.fpu fpv4-sp-d16
	.type	ASPEP_HWDataTransmittedIT, %function
ASPEP_HWDataTransmittedIT:
.LVL81:
.LFB1447:
	.loc 1 591 1 is_stmt 1 view -0
	.cfi_startproc
	@ args = 0, pretend = 0, frame = 0
	@ frame_needed = 0, uses_anonymous_args = 0
	.loc 1 601 5 view .LVU379
	.loc 1 591 1 is_stmt 0 view .LVU380
	push	{r4, lr}
.LCFI17:
	.cfi_def_cfa_offset 8
	.cfi_offset 4, -8
	.cfi_offset 14, -4
	.loc 1 601 28 view .LVU381
	ldrb	r3, [r0, #36]	@ zero_extendqisi2
	.loc 1 601 8 view .LVU382
	cmp	r3, #3
	.loc 1 591 1 view .LVU383
	mov	r4, r0
	.loc 1 601 8 view .LVU384
	beq	.L73
.LBB154:
	.loc 1 607 7 is_stmt 1 view .LVU385
.LVL82:
	.loc 1 608 7 view .LVU386
	.loc 1 608 23 is_stmt 0 view .LVU387
	ldr	r2, [r0, #72]
	movs	r1, #0
	strb	r1, [r2, #6]
.LVL83:
	.loc 1 608 23 view .LVU388
.LBE154:
	.loc 1 610 5 is_stmt 1 view .LVU389
	.loc 1 610 8 is_stmt 0 view .LVU390
	ldrb	r2, [r0, #46]	@ zero_extendqisi2
.LVL84:
	.loc 1 610 8 view .LVU391
	cmp	r2, #2
	beq	.L61
	.loc 1 617 10 is_stmt 1 view .LVU392
	.loc 1 617 13 is_stmt 0 view .LVU393
	cmp	r3, #2
	bne	.L59
	.loc 1 619 7 is_stmt 1 view .LVU394
	.loc 1 619 38 is_stmt 0 view .LVU395
	add	r1, r0, #32
	.loc 1 620 7 view .LVU396
	ldr	r3, [r0, #88]
	.loc 1 619 27 view .LVU397
	str	r1, [r0, #72]
	.loc 1 620 7 is_stmt 1 view .LVU398
	movs	r2, #4
	ldr	r0, [r0, #20]
.LVL85:
	.loc 1 620 7 is_stmt 0 view .LVU399
	blx	r3
.LVL86:
	.loc 1 621 7 is_stmt 1 view .LVU400
	.loc 1 621 33 is_stmt 0 view .LVU401
	movs	r3, #3
	strb	r3, [r4, #36]
	.loc 1 656 1 view .LVU402
	pop	{r4, pc}
.LVL87:
.L73:
	.loc 1 603 7 is_stmt 1 view .LVU403
	.loc 1 610 8 is_stmt 0 view .LVU404
	ldrb	r3, [r0, #46]	@ zero_extendqisi2
	.loc 1 603 33 view .LVU405
	movs	r2, #0
	.loc 1 610 8 view .LVU406
	cmp	r3, #2
	.loc 1 603 33 view .LVU407
	strb	r2, [r0, #36]
	.loc 1 610 5 is_stmt 1 view .LVU408
	.loc 1 610 8 is_stmt 0 view .LVU409
	bne	.L59
.L61:
	.loc 1 612 7 is_stmt 1 view .LVU410
	.loc 1 612 37 is_stmt 0 view .LVU411
	add	r0, r4, #40
.LVL88:
	.loc 1 613 7 view .LVU412
	ldr	r3, [r4, #88]
	.loc 1 612 27 view .LVU413
	str	r0, [r4, #72]
	.loc 1 613 7 is_stmt 1 view .LVU414
	ldrh	r2, [r4, #44]
	ldr	r1, [r4, #40]
	ldr	r0, [r4, #20]
	blx	r3
.LVL89:
	.loc 1 614 7 view .LVU415
	.loc 1 614 33 is_stmt 0 view .LVU416
	movs	r3, #3
	strb	r3, [r4, #46]
	.loc 1 656 1 view .LVU417
	pop	{r4, pc}
.LVL90:
.L59:
	.loc 1 625 7 is_stmt 1 view .LVU418
.LBB155:
.LBI155:
	.loc 2 207 27 view .LVU419
.LBB156:
	.loc 2 209 3 view .LVU420
	.syntax unified
@ 209 "Drivers/CMSIS/Include/cmsis_gcc.h" 1
	cpsid i
@ 0 "" 2
	.thumb
	.syntax unified
.LBE156:
.LBE155:
	.loc 1 626 7 view .LVU421
	.loc 1 626 18 is_stmt 0 view .LVU422
	ldr	r3, [r4, #68]
	.loc 1 626 10 view .LVU423
	cbz	r3, .L62
	.loc 1 628 9 is_stmt 1 view .LVU424
	.loc 1 629 41 is_stmt 0 view .LVU425
	movs	r2, #3
	.loc 1 628 29 view .LVU426
	str	r3, [r4, #72]
	.loc 1 629 9 is_stmt 1 view .LVU427
	.loc 1 629 41 is_stmt 0 view .LVU428
	strb	r2, [r3, #6]
	.loc 1 633 9 is_stmt 1 view .LVU429
	ldr	r1, [r3]
	ldrh	r2, [r3, #4]
	ldr	r0, [r4, #20]
.LVL91:
	.loc 1 633 9 is_stmt 0 view .LVU430
	ldr	r3, [r4, #88]
	blx	r3
.LVL92:
	.loc 1 635 9 is_stmt 1 view .LVU431
	.loc 1 635 12 is_stmt 0 view .LVU432
	ldrb	r3, [r4, #54]	@ zero_extendqisi2
	cmp	r3, #2
	beq	.L63
	.loc 1 635 54 discriminator 1 view .LVU433
	ldrb	r3, [r4, #62]	@ zero_extendqisi2
	cmp	r3, #2
	beq	.L63
	.loc 1 644 11 is_stmt 1 view .LVU434
	.loc 1 644 36 is_stmt 0 view .LVU435
	movs	r3, #0
	str	r3, [r4, #68]
.L65:
	.loc 1 651 7 is_stmt 1 view .LVU436
.LBB157:
.LBI157:
	.loc 2 196 27 view .LVU437
.LBB158:
	.loc 2 198 3 view .LVU438
	.syntax unified
@ 198 "Drivers/CMSIS/Include/cmsis_gcc.h" 1
	cpsie i
@ 0 "" 2
	.thumb
	.syntax unified
.LBE158:
.LBE157:
	.loc 1 656 1 is_stmt 0 view .LVU439
	pop	{r4, pc}
.LVL93:
.L63:
.LBB159:
	.loc 1 638 11 is_stmt 1 view .LVU440
	.loc 1 640 11 view .LVU441
	.loc 1 638 20 is_stmt 0 view .LVU442
	ldr	r2, [r4, #68]
	.loc 1 638 72 view .LVU443
	lsls	r3, r4, #1
	.loc 1 638 60 view .LVU444
	adds	r3, r3, #104
	.loc 1 638 20 view .LVU445
	subs	r3, r3, r2
	.loc 1 640 36 view .LVU446
	str	r3, [r4, #68]
.LVL94:
	.loc 1 640 36 view .LVU447
.LBE159:
	.loc 1 636 9 view .LVU448
	b	.L65
.LVL95:
.L62:
	.loc 1 649 9 is_stmt 1 view .LVU449
	.loc 1 649 29 is_stmt 0 view .LVU450
	str	r3, [r4, #72]
	b	.L65
	.cfi_endproc
.LFE1447:
	.size	ASPEP_HWDataTransmittedIT, .-ASPEP_HWDataTransmittedIT
	.section	.text.ASPEP_RXframeProcess,"ax",%progbits
	.align	1
	.p2align 2,,3
	.global	ASPEP_RXframeProcess
	.syntax unified
	.thumb
	.thumb_func
	.fpu fpv4-sp-d16
	.type	ASPEP_RXframeProcess, %function
ASPEP_RXframeProcess:
.LVL96:
.LFB1448:
	.loc 1 669 1 is_stmt 1 view -0
	.cfi_startproc
	@ args = 0, pretend = 0, frame = 0
	@ frame_needed = 0, uses_anonymous_args = 0
	.loc 1 670 3 view .LVU452
	.loc 1 679 5 view .LVU453
	.loc 1 669 1 is_stmt 0 view .LVU454
	push	{r3, r4, r5, r6, r7, r8, r9, lr}
.LCFI18:
	.cfi_def_cfa_offset 32
	.cfi_offset 3, -32
	.cfi_offset 4, -28
	.cfi_offset 5, -24
	.cfi_offset 6, -20
	.cfi_offset 7, -16
	.cfi_offset 8, -12
	.cfi_offset 9, -8
	.cfi_offset 14, -4
	.loc 1 686 8 view .LVU455
	ldrb	r3, [r0, #97]	@ zero_extendqisi2
	.loc 1 680 14 view .LVU456
	ldr	r2, [r0, #28]
	.loc 1 685 19 view .LVU457
	movs	r5, #0
	.loc 1 669 1 view .LVU458
	mov	r4, r0
.LVL97:
	.loc 1 680 5 is_stmt 1 view .LVU459
	.loc 1 681 5 view .LVU460
	.loc 1 685 5 view .LVU461
	.loc 1 685 19 is_stmt 0 view .LVU462
	strh	r5, [r1]	@ movhi
	.loc 1 686 5 is_stmt 1 view .LVU463
	.loc 1 686 8 is_stmt 0 view .LVU464
	cbz	r3, .L75
	.loc 1 688 7 is_stmt 1 view .LVU465
	.loc 1 689 22 is_stmt 0 view .LVU466
	ldrb	r6, [r0, #100]	@ zero_extendqisi2
	.loc 1 688 35 view .LVU467
	strb	r5, [r0, #97]
	.loc 1 689 7 is_stmt 1 view .LVU468
	cmp	r6, #1
	beq	.L76
	cmp	r6, #2
	beq	.L77
	cmp	r6, #0
	beq	.L102
.LVL98:
.L78:
	.loc 1 801 7 view .LVU469
	ldr	r3, [r4, #84]
	ldr	r0, [r4, #20]
	movs	r2, #4
	add	r1, r4, #28
	blx	r3
.LVL99:
.L74:
	.loc 1 824 1 is_stmt 0 view .LVU470
	mov	r0, r5
	pop	{r3, r4, r5, r6, r7, r8, r9, pc}
.LVL100:
.L75:
	.loc 1 803 10 is_stmt 1 view .LVU471
	.loc 1 803 21 is_stmt 0 view .LVU472
	ldrb	r5, [r0, #98]	@ zero_extendqisi2
	.loc 1 803 13 view .LVU473
	cmp	r5, #0
	beq	.L74
	.loc 1 805 7 is_stmt 1 view .LVU474
.LVL101:
.LBB184:
.LBI184:
	.loc 1 237 13 view .LVU475
.LBB185:
	.loc 1 239 3 view .LVU476
	.loc 1 240 3 view .LVU477
	.loc 1 240 63 is_stmt 0 view .LVU478
	lsls	r3, r5, #16
	.loc 1 240 61 view .LVU479
	orr	r5, r3, r5, lsl #8
.LVL102:
.LBB186:
.LBB187:
.LBB188:
.LBB189:
	.loc 1 127 26 view .LVU480
	ubfx	r3, r5, #8, #8
	.loc 1 127 7 view .LVU481
	ldr	r1, .L111
.LVL103:
	.loc 1 129 7 view .LVU482
	ldr	r0, .L111+4
.LVL104:
	.loc 1 127 26 view .LVU483
	eor	r3, r3, #9
	.loc 1 128 26 view .LVU484
	ldrb	r2, [r1, r3]	@ zero_extendqisi2
.LVL105:
	.loc 1 128 26 view .LVU485
.LBE189:
.LBE188:
.LBE187:
.LBE186:
	.loc 1 240 61 view .LVU486
	orr	r3, r5, #15
	.loc 1 241 3 is_stmt 1 view .LVU487
.LVL106:
.LBB202:
.LBI186:
	.loc 1 479 9 view .LVU488
.LBB200:
	.loc 1 481 3 view .LVU489
	.loc 1 491 5 view .LVU490
.LBB191:
.LBI188:
	.loc 1 118 13 view .LVU491
.LBB190:
	.loc 1 120 3 view .LVU492
	.loc 1 121 3 view .LVU493
	.loc 1 124 3 view .LVU494
	.loc 1 126 3 view .LVU495
	.loc 1 127 3 view .LVU496
	.loc 1 128 3 view .LVU497
	.loc 1 128 26 is_stmt 0 view .LVU498
	eor	r5, r2, r5, lsr #16
.LVL107:
	.loc 1 129 3 is_stmt 1 view .LVU499
	.loc 1 129 26 is_stmt 0 view .LVU500
	ldrb	r2, [r1, r5]	@ zero_extendqisi2
.LVL108:
	.loc 1 140 3 is_stmt 1 view .LVU501
	.loc 1 140 17 is_stmt 0 view .LVU502
	ldrb	r2, [r0, r2]	@ zero_extendqisi2
.LVL109:
	.loc 1 140 14 view .LVU503
	orr	r3, r3, r2, lsl #28
.LVL110:
	.loc 1 140 14 view .LVU504
	str	r3, [r4, #32]
.LVL111:
	.loc 1 140 14 view .LVU505
.LBE190:
.LBE191:
	.loc 1 492 5 is_stmt 1 view .LVU506
.LBB192:
.LBI192:
	.loc 2 207 27 view .LVU507
.LBB193:
	.loc 2 209 3 view .LVU508
	.syntax unified
@ 209 "Drivers/CMSIS/Include/cmsis_gcc.h" 1
	cpsid i
@ 0 "" 2
	.thumb
	.syntax unified
.LBE193:
.LBE192:
	.loc 1 493 5 view .LVU509
	.loc 1 493 8 is_stmt 0 view .LVU510
	ldr	r3, [r4, #72]
	cmp	r3, #0
	beq	.L103
	.loc 1 520 7 is_stmt 1 view .LVU511
.LBB194:
.LBI194:
	.loc 2 196 27 view .LVU512
.LBB195:
	.loc 2 198 3 view .LVU513
	.syntax unified
@ 198 "Drivers/CMSIS/Include/cmsis_gcc.h" 1
	cpsie i
@ 0 "" 2
	.thumb
	.syntax unified
.LBE195:
.LBE194:
	.loc 1 522 7 view .LVU514
	.loc 1 548 12 view .LVU515
	.loc 1 560 12 view .LVU516
	.loc 1 562 9 view .LVU517
	.loc 1 562 12 is_stmt 0 view .LVU518
	ldrb	r3, [r4, #36]	@ zero_extendqisi2
	cbnz	r3, .L90
	.loc 1 568 11 is_stmt 1 view .LVU519
	.loc 1 568 37 is_stmt 0 view .LVU520
	movs	r3, #2
	strb	r3, [r4, #36]
.LVL112:
.L90:
	.loc 1 574 7 is_stmt 1 view .LVU521
	.loc 1 579 3 view .LVU522
	.loc 1 579 3 is_stmt 0 view .LVU523
.LBE200:
.LBE202:
.LBE185:
.LBE184:
	.loc 1 807 7 is_stmt 1 view .LVU524
	.loc 1 807 30 is_stmt 0 view .LVU525
	movs	r5, #0
	.loc 1 814 7 view .LVU526
	ldr	r0, [r4, #20]
	ldr	r3, [r4, #80]
	.loc 1 807 30 view .LVU527
	strb	r5, [r4, #98]
	.loc 1 814 7 is_stmt 1 view .LVU528
	blx	r3
.LVL113:
	.loc 1 824 1 is_stmt 0 view .LVU529
	mov	r0, r5
	pop	{r3, r4, r5, r6, r7, r8, r9, pc}
.LVL114:
.L102:
	.loc 1 693 11 is_stmt 1 view .LVU530
	.loc 1 693 32 is_stmt 0 view .LVU531
	ldr	r3, [r0, #104]
	.loc 1 693 14 view .LVU532
	cmp	r3, #5
	beq	.L104
	.loc 1 710 16 is_stmt 1 view .LVU533
	.loc 1 710 19 is_stmt 0 view .LVU534
	cmp	r3, #6
	beq	.L105
	.loc 1 670 12 view .LVU535
	mov	r5, r6
	b	.L78
.L77:
	.loc 1 754 11 is_stmt 1 view .LVU536
	.loc 1 754 32 is_stmt 0 view .LVU537
	ldr	r3, [r0, #104]
	.loc 1 754 14 view .LVU538
	cmp	r3, #5
	beq	.L106
	.loc 1 766 16 is_stmt 1 view .LVU539
	.loc 1 766 19 is_stmt 0 view .LVU540
	cmp	r3, #6
	beq	.L107
	.loc 1 771 16 is_stmt 1 view .LVU541
	.loc 1 771 19 is_stmt 0 view .LVU542
	cmp	r3, #9
	bne	.L78
	.loc 1 777 15 is_stmt 1 view .LVU543
	.loc 1 777 39 is_stmt 0 view .LVU544
	ldrb	r3, [r0, #96]	@ zero_extendqisi2
	.loc 1 779 38 view .LVU545
	ldrh	r2, [r0, #92]
.LVL115:
	.loc 1 780 22 view .LVU546
	ldr	r5, [r4, #24]
	.loc 1 777 39 view .LVU547
	adds	r3, r3, #1
	.loc 1 778 47 view .LVU548
	movs	r0, #1
.LVL116:
	.loc 1 777 39 view .LVU549
	strb	r3, [r4, #96]
	.loc 1 778 15 is_stmt 1 view .LVU550
	.loc 1 778 47 is_stmt 0 view .LVU551
	strb	r0, [r4, #16]
	.loc 1 779 15 is_stmt 1 view .LVU552
	.loc 1 779 29 is_stmt 0 view .LVU553
	strh	r2, [r1]	@ movhi
	.loc 1 780 15 is_stmt 1 view .LVU554
.LVL117:
	.loc 1 780 15 is_stmt 0 view .LVU555
	b	.L78
.LVL118:
.L76:
	.loc 1 725 11 is_stmt 1 view .LVU556
	.loc 1 725 32 is_stmt 0 view .LVU557
	ldr	r3, [r0, #104]
	.loc 1 725 14 view .LVU558
	cmp	r3, #5
	beq	.L108
	.loc 1 738 16 is_stmt 1 view .LVU559
	.loc 1 738 19 is_stmt 0 view .LVU560
	cmp	r3, #6
	bne	.L78
	.loc 1 741 13 is_stmt 1 view .LVU561
.LVL119:
	.loc 1 742 13 view .LVU562
	ubfx	r2, r2, #12, #16
.LVL120:
	.loc 1 742 13 is_stmt 0 view .LVU563
	mov	r1, r6
.LVL121:
	.loc 1 742 13 view .LVU564
	bl	ASPEP_sendPing
.LVL122:
	.loc 1 743 13 is_stmt 1 view .LVU565
	.loc 1 743 34 is_stmt 0 view .LVU566
	movs	r3, #2
	strb	r3, [r4, #100]
	b	.L78
.LVL123:
.L103:
.LBB205:
.LBB204:
	.loc 1 241 51 view .LVU567
	add	r1, r4, #32
.LVL124:
.LBB203:
.LBB201:
.LBB196:
.LBI196:
	.loc 1 479 9 is_stmt 1 view .LVU568
.LBB197:
	.loc 1 495 7 view .LVU569
	.loc 1 504 12 view .LVU570
	.loc 1 511 9 view .LVU571
	.loc 1 511 35 is_stmt 0 view .LVU572
	movs	r3, #3
	strb	r3, [r4, #36]
	.loc 1 512 9 is_stmt 1 view .LVU573
	.loc 1 512 29 is_stmt 0 view .LVU574
	str	r1, [r4, #72]
	.loc 1 515 7 is_stmt 1 view .LVU575
.LBB198:
.LBI198:
	.loc 2 196 27 view .LVU576
.LBB199:
	.loc 2 198 3 view .LVU577
	.syntax unified
@ 198 "Drivers/CMSIS/Include/cmsis_gcc.h" 1
	cpsie i
@ 0 "" 2
	.thumb
	.syntax unified
.LBE199:
.LBE198:
	.loc 1 516 7 view .LVU578
	movs	r2, #4
	ldr	r3, [r4, #88]
	ldr	r0, [r4, #20]
	blx	r3
.LVL125:
	.loc 1 574 7 view .LVU579
	.loc 1 579 3 view .LVU580
	.loc 1 579 3 is_stmt 0 view .LVU581
	b	.L90
.LVL126:
.L108:
	.loc 1 579 3 view .LVU582
.LBE197:
.LBE196:
.LBE201:
.LBE203:
.LBE204:
.LBE205:
	.loc 1 727 13 is_stmt 1 view .LVU583
.LBB206:
.LBI206:
	.loc 1 355 6 view .LVU584
.LBB207:
	.loc 1 357 3 view .LVU585
	.loc 1 359 3 view .LVU586
	.loc 1 360 3 view .LVU587
	.loc 1 361 3 view .LVU588
	.loc 1 362 3 view .LVU589
	.loc 1 362 31 is_stmt 0 view .LVU590
	ldrb	r3, [r0, #28]	@ zero_extendqisi2
	.loc 1 363 56 view .LVU591
	ldrb	r0, [r0, #29]	@ zero_extendqisi2
.LVL127:
	.loc 1 368 38 view .LVU592
	ldrb	r1, [r4, #109]	@ zero_extendqisi2
.LVL128:
	.loc 1 367 36 view .LVU593
	ldrb	r5, [r4, #108]	@ zero_extendqisi2
	.loc 1 369 39 view .LVU594
	ldrb	r6, [r4, #110]	@ zero_extendqisi2
	.loc 1 370 39 view .LVU595
	ldrb	r7, [r4, #111]	@ zero_extendqisi2
	.loc 1 363 56 view .LVU596
	and	r0, r0, #63
	.loc 1 362 31 view .LVU597
	lsrs	r3, r3, #7
.LVL129:
	.loc 1 363 3 is_stmt 1 view .LVU598
	.loc 1 364 3 view .LVU599
	.loc 1 368 38 is_stmt 0 view .LVU600
	cmp	r1, r0
	.loc 1 364 36 view .LVU601
	ubfx	ip, r2, #14, #7
.LVL130:
	.loc 1 365 3 is_stmt 1 view .LVU602
	.loc 1 368 38 is_stmt 0 view .LVU603
	it	cs
	movcs	r1, r0
	.loc 1 367 36 view .LVU604
	cmp	r3, r5
	mov	r8, r3
	.loc 1 365 36 view .LVU605
	ubfx	lr, r2, #21, #7
.LVL131:
	.loc 1 367 3 is_stmt 1 view .LVU606
	.loc 1 367 36 is_stmt 0 view .LVU607
	it	cs
	movcs	r8, r5
	.loc 1 369 39 view .LVU608
	cmp	ip, r6
	.loc 1 367 34 view .LVU609
	strb	r8, [r4, #108]
	.loc 1 368 3 is_stmt 1 view .LVU610
	.loc 1 369 3 view .LVU611
	.loc 1 369 39 is_stmt 0 view .LVU612
	mov	r8, ip
	it	cs
	movcs	r8, r6
	.loc 1 370 39 view .LVU613
	cmp	lr, r7
	.loc 1 369 37 view .LVU614
	strb	r8, [r4, #110]
	.loc 1 370 3 is_stmt 1 view .LVU615
	.loc 1 370 39 is_stmt 0 view .LVU616
	mov	r8, lr
	it	cs
	movcs	r8, r7
	.loc 1 372 6 view .LVU617
	cmp	r3, r5
	.loc 1 368 36 view .LVU618
	strb	r1, [r4, #109]
	.loc 1 370 37 view .LVU619
	strb	r8, [r4, #111]
	.loc 1 372 3 is_stmt 1 view .LVU620
	.loc 1 372 6 is_stmt 0 view .LVU621
	bls	.L109
.LVL132:
.L84:
	.loc 1 384 5 is_stmt 1 view .LVU622
	.loc 1 391 3 view .LVU623
	.loc 1 391 3 is_stmt 0 view .LVU624
.LBE207:
.LBE206:
	.loc 1 729 15 is_stmt 1 view .LVU625
	.loc 1 729 36 is_stmt 0 view .LVU626
	movs	r3, #0
	strb	r3, [r4, #100]
.LVL133:
.L101:
	.loc 1 764 13 is_stmt 1 view .LVU627
	add	r1, r4, #108
	mov	r0, r4
	bl	ASPEP_sendBeacon
.LVL134:
	.loc 1 670 12 is_stmt 0 view .LVU628
	movs	r5, #0
	b	.L78
.LVL135:
.L106:
	.loc 1 756 13 is_stmt 1 view .LVU629
.LBB209:
.LBI209:
	.loc 1 355 6 view .LVU630
.LBB210:
	.loc 1 357 3 view .LVU631
	.loc 1 359 3 view .LVU632
	.loc 1 360 3 view .LVU633
	.loc 1 361 3 view .LVU634
	.loc 1 362 3 view .LVU635
	.loc 1 362 31 is_stmt 0 view .LVU636
	ldrb	r3, [r0, #28]	@ zero_extendqisi2
	.loc 1 363 56 view .LVU637
	ldrb	r0, [r0, #29]	@ zero_extendqisi2
.LVL136:
	.loc 1 368 38 view .LVU638
	ldrb	r1, [r4, #109]	@ zero_extendqisi2
.LVL137:
	.loc 1 367 36 view .LVU639
	ldrb	r6, [r4, #108]	@ zero_extendqisi2
	.loc 1 369 39 view .LVU640
	ldrb	ip, [r4, #110]	@ zero_extendqisi2
	.loc 1 370 39 view .LVU641
	ldrb	r7, [r4, #111]	@ zero_extendqisi2
	.loc 1 363 56 view .LVU642
	and	r0, r0, #63
	.loc 1 362 31 view .LVU643
	lsrs	r3, r3, #7
.LVL138:
	.loc 1 363 3 is_stmt 1 view .LVU644
	.loc 1 364 3 view .LVU645
	.loc 1 368 38 is_stmt 0 view .LVU646
	cmp	r1, r0
	it	cs
	movcs	r1, r0
	.loc 1 364 36 view .LVU647
	ubfx	lr, r2, #14, #7
.LVL139:
	.loc 1 365 3 is_stmt 1 view .LVU648
	.loc 1 367 36 is_stmt 0 view .LVU649
	cmp	r3, r6
	mov	r9, r3
	.loc 1 365 36 view .LVU650
	ubfx	r8, r2, #21, #7
.LVL140:
	.loc 1 367 3 is_stmt 1 view .LVU651
	.loc 1 367 36 is_stmt 0 view .LVU652
	it	cs
	movcs	r9, r6
	.loc 1 369 39 view .LVU653
	cmp	lr, ip
	.loc 1 367 34 view .LVU654
	strb	r9, [r4, #108]
	.loc 1 368 3 is_stmt 1 view .LVU655
	.loc 1 369 3 view .LVU656
	.loc 1 369 39 is_stmt 0 view .LVU657
	mov	r9, lr
	it	cs
	movcs	r9, ip
	.loc 1 370 39 view .LVU658
	cmp	r8, r7
	.loc 1 369 37 view .LVU659
	strb	r9, [r4, #110]
	.loc 1 370 3 is_stmt 1 view .LVU660
	.loc 1 370 39 is_stmt 0 view .LVU661
	mov	r9, r8
	it	cs
	movcs	r9, r7
	.loc 1 372 6 view .LVU662
	cmp	r3, r6
	.loc 1 368 36 view .LVU663
	strb	r1, [r4, #109]
	.loc 1 370 37 view .LVU664
	strb	r9, [r4, #111]
	.loc 1 372 3 is_stmt 1 view .LVU665
	.loc 1 372 6 is_stmt 0 view .LVU666
	bls	.L110
.LVL141:
.L86:
	.loc 1 372 6 view .LVU667
	strb	r5, [r4, #100]
	b	.L101
.LVL142:
.L104:
	.loc 1 372 6 view .LVU668
.LBE210:
.LBE209:
	.loc 1 695 13 is_stmt 1 view .LVU669
.LBB213:
.LBI213:
	.loc 1 355 6 view .LVU670
.LBB214:
	.loc 1 357 3 view .LVU671
	.loc 1 359 3 view .LVU672
	.loc 1 360 3 view .LVU673
	.loc 1 361 3 view .LVU674
	.loc 1 362 3 view .LVU675
	.loc 1 363 56 is_stmt 0 view .LVU676
	ldrb	r5, [r4, #29]	@ zero_extendqisi2
	.loc 1 362 31 view .LVU677
	ldrb	r0, [r0, #28]	@ zero_extendqisi2
.LVL143:
	.loc 1 368 38 view .LVU678
	ldrb	r3, [r4, #109]	@ zero_extendqisi2
	.loc 1 367 36 view .LVU679
	ldrb	ip, [r4, #108]	@ zero_extendqisi2
	.loc 1 369 39 view .LVU680
	ldrb	lr, [r4, #110]	@ zero_extendqisi2
	.loc 1 370 39 view .LVU681
	ldrb	r8, [r4, #111]	@ zero_extendqisi2
	.loc 1 363 56 view .LVU682
	and	r5, r5, #63
	.loc 1 362 31 view .LVU683
	lsrs	r0, r0, #7
.LVL144:
	.loc 1 363 3 is_stmt 1 view .LVU684
	.loc 1 364 3 view .LVU685
	.loc 1 368 38 is_stmt 0 view .LVU686
	cmp	r3, r5
	.loc 1 364 36 view .LVU687
	ubfx	r7, r2, #14, #7
.LVL145:
	.loc 1 365 3 is_stmt 1 view .LVU688
	.loc 1 368 38 is_stmt 0 view .LVU689
	it	cs
	movcs	r3, r5
	.loc 1 367 36 view .LVU690
	cmp	r0, ip
	mov	r1, r0
.LVL146:
	.loc 1 365 36 view .LVU691
	ubfx	r9, r2, #21, #7
.LVL147:
	.loc 1 367 3 is_stmt 1 view .LVU692
	.loc 1 367 36 is_stmt 0 view .LVU693
	it	cs
	movcs	r1, ip
	.loc 1 369 39 view .LVU694
	cmp	r7, lr
	.loc 1 367 34 view .LVU695
	strb	r1, [r4, #108]
	.loc 1 368 3 is_stmt 1 view .LVU696
	.loc 1 369 3 view .LVU697
	.loc 1 369 39 is_stmt 0 view .LVU698
	mov	r1, r7
	it	cs
	movcs	r1, lr
	.loc 1 370 39 view .LVU699
	cmp	r9, r8
	mov	r6, r9
	it	cs
	movcs	r6, r8
	.loc 1 372 6 view .LVU700
	cmp	r0, ip
	.loc 1 368 36 view .LVU701
	strb	r3, [r4, #109]
	.loc 1 369 37 view .LVU702
	strb	r1, [r4, #110]
	.loc 1 370 3 is_stmt 1 view .LVU703
	.loc 1 370 37 is_stmt 0 view .LVU704
	strb	r6, [r4, #111]
	.loc 1 372 3 is_stmt 1 view .LVU705
	.loc 1 372 6 is_stmt 0 view .LVU706
	bhi	.L101
	.loc 1 374 4 view .LVU707
	cmp	r5, r3
	bhi	.L101
	.loc 1 377 4 view .LVU708
	cmp	r7, lr
	bhi	.L101
	.loc 1 380 4 view .LVU709
	cmp	r9, r8
	bhi	.L101
	.loc 1 382 4 view .LVU710
	ldrb	r0, [r4, #112]	@ zero_extendqisi2
.LVL148:
	.loc 1 382 4 view .LVU711
	ubfx	r2, r2, #4, #3
.LVL149:
	.loc 1 382 4 view .LVU712
	cmp	r0, r2
	bne	.L101
	.loc 1 391 3 is_stmt 1 view .LVU713
.LVL150:
	.loc 1 391 3 is_stmt 0 view .LVU714
.LBE214:
.LBE213:
	.loc 1 698 15 is_stmt 1 view .LVU715
	.loc 1 698 44 is_stmt 0 view .LVU716
	adds	r2, r1, #1
	.loc 1 700 37 view .LVU717
	adds	r3, r3, #1
	.loc 1 698 44 view .LVU718
	uxtb	r2, r2
	.loc 1 700 37 view .LVU719
	uxtb	r3, r3
	.loc 1 698 44 view .LVU720
	lsls	r2, r2, #5
	.loc 1 699 45 view .LVU721
	lsls	r6, r6, #6
	.loc 1 700 37 view .LVU722
	lsls	r3, r3, #5
	.loc 1 701 36 view .LVU723
	movs	r1, #1
	.loc 1 698 44 view .LVU724
	strh	r2, [r4, #12]	@ movhi
	.loc 1 699 15 is_stmt 1 view .LVU725
	.loc 1 699 45 is_stmt 0 view .LVU726
	strh	r6, [r4, #14]	@ movhi
	.loc 1 700 15 is_stmt 1 view .LVU727
	.loc 1 700 37 is_stmt 0 view .LVU728
	strh	r3, [r4, #94]	@ movhi
	.loc 1 701 15 is_stmt 1 view .LVU729
	.loc 1 701 36 is_stmt 0 view .LVU730
	strb	r1, [r4, #100]
	b	.L101
.LVL151:
.L105:
	.loc 1 713 13 is_stmt 1 view .LVU731
	.loc 1 714 13 view .LVU732
	ubfx	r2, r2, #12, #16
.LVL152:
	.loc 1 714 13 is_stmt 0 view .LVU733
	mov	r1, r6
.LVL153:
	.loc 1 714 13 view .LVU734
	bl	ASPEP_sendPing
.LVL154:
	.loc 1 670 12 view .LVU735
	mov	r5, r6
	b	.L78
.LVL155:
.L107:
	.loc 1 768 13 is_stmt 1 view .LVU736
	.loc 1 769 13 view .LVU737
	ubfx	r2, r2, #12, #16
.LVL156:
	.loc 1 769 13 is_stmt 0 view .LVU738
	movs	r1, #1
.LVL157:
	.loc 1 769 13 view .LVU739
	bl	ASPEP_sendPing
.LVL158:
	.loc 1 769 13 view .LVU740
	b	.L78
.LVL159:
.L109:
.LBB215:
.LBB208:
	.loc 1 374 4 view .LVU741
	cmp	r0, r1
	bhi	.L84
	.loc 1 377 4 view .LVU742
	cmp	ip, r6
	bhi	.L84
	.loc 1 380 4 view .LVU743
	cmp	lr, r7
	bhi	.L84
	.loc 1 382 4 view .LVU744
	ldrb	r3, [r4, #112]	@ zero_extendqisi2
.LVL160:
	.loc 1 382 4 view .LVU745
	ubfx	r2, r2, #4, #3
.LVL161:
	.loc 1 382 4 view .LVU746
	cmp	r3, r2
	bne	.L84
	b	.L101
.LVL162:
.L110:
	.loc 1 382 4 view .LVU747
.LBE208:
.LBE215:
.LBB216:
.LBB211:
	.loc 1 374 4 view .LVU748
	cmp	r0, r1
	bhi	.L86
	.loc 1 377 4 view .LVU749
	cmp	lr, ip
	bhi	.L86
	.loc 1 380 4 view .LVU750
	cmp	r8, r7
	bhi	.L86
	.loc 1 382 4 view .LVU751
	ldrb	r5, [r4, #112]	@ zero_extendqisi2
	ubfx	r2, r2, #4, #3
.LVL163:
	.loc 1 382 4 view .LVU752
.LBE211:
.LBE216:
	.loc 1 758 36 view .LVU753
	subs	r3, r5, r2
.LVL164:
	.loc 1 758 36 view .LVU754
	rsbs	r5, r3, #0
	adcs	r5, r5, r3
.LBB217:
.LBB212:
	b	.L86
.L112:
	.align	2
.L111:
	.word	.LANCHOR0
	.word	.LANCHOR1
.LBE212:
.LBE217:
	.cfi_endproc
.LFE1448:
	.size	ASPEP_RXframeProcess, .-ASPEP_RXframeProcess
	.section	.text.ASPEP_HWDataReceivedIT,"ax",%progbits
	.align	1
	.p2align 2,,3
	.global	ASPEP_HWDataReceivedIT
	.syntax unified
	.thumb
	.thumb_func
	.fpu fpv4-sp-d16
	.type	ASPEP_HWDataReceivedIT, %function
ASPEP_HWDataReceivedIT:
.LVL165:
.LFB1449:
	.loc 1 837 1 is_stmt 1 view -0
	.cfi_startproc
	@ args = 0, pretend = 0, frame = 0
	@ frame_needed = 0, uses_anonymous_args = 0
	.loc 1 846 5 view .LVU756
	.loc 1 837 1 is_stmt 0 view .LVU757
	push	{r4, lr}
.LCFI19:
	.cfi_def_cfa_offset 8
	.cfi_offset 4, -8
	.cfi_offset 14, -4
	.loc 1 846 20 view .LVU758
	ldrb	r3, [r0, #101]	@ zero_extendqisi2
	.loc 1 837 1 view .LVU759
	mov	r4, r0
	.loc 1 846 5 view .LVU760
	cbz	r3, .L114
	cmp	r3, #1
	bne	.L113
	.loc 1 903 9 is_stmt 1 view .LVU761
	.loc 1 903 33 is_stmt 0 view .LVU762
	movs	r2, #0
	strb	r2, [r0, #101]
	.loc 1 905 9 is_stmt 1 view .LVU763
	.loc 1 905 37 is_stmt 0 view .LVU764
	strb	r3, [r0, #97]
	.loc 1 908 9 is_stmt 1 view .LVU765
.L113:
	.loc 1 917 1 is_stmt 0 view .LVU766
	pop	{r4, pc}
.L114:
	.loc 1 850 9 is_stmt 1 view .LVU767
	.loc 1 850 13 is_stmt 0 view .LVU768
	ldr	r1, [r0, #28]
.LVL166:
.LBB218:
.LBI218:
	.loc 1 152 13 is_stmt 1 view .LVU769
.LBB219:
	.loc 1 154 3 view .LVU770
	.loc 1 157 3 view .LVU771
	.loc 1 158 3 view .LVU772
	.loc 1 157 7 is_stmt 0 view .LVU773
	ldr	r2, .L124
	.loc 1 157 26 view .LVU774
	uxtb	r3, r1
	.loc 1 158 26 view .LVU775
	ldrb	r3, [r2, r3]	@ zero_extendqisi2
	eor	r3, r3, r1, lsr #8
	uxtb	r3, r3
.LVL167:
	.loc 1 159 3 is_stmt 1 view .LVU776
	.loc 1 159 26 is_stmt 0 view .LVU777
	ldrb	r3, [r2, r3]	@ zero_extendqisi2
.LVL168:
	.loc 1 159 26 view .LVU778
	eor	r3, r3, r1, lsr #16
	uxtb	r3, r3
.LVL169:
	.loc 1 160 3 is_stmt 1 view .LVU779
	.loc 1 160 26 is_stmt 0 view .LVU780
	ldrb	r3, [r2, r3]	@ zero_extendqisi2
.LVL170:
	.loc 1 160 26 view .LVU781
	eor	r1, r3, r1, lsr #24
.LVL171:
	.loc 1 172 3 is_stmt 1 view .LVU782
	.loc 1 172 3 is_stmt 0 view .LVU783
.LBE219:
.LBE218:
	.loc 1 850 12 view .LVU784
	ldrb	r3, [r2, r1]	@ zero_extendqisi2
	cbnz	r3, .L117
	.loc 1 852 11 is_stmt 1 view .LVU785
	ldrb	r3, [r0, #28]	@ zero_extendqisi2
	and	r3, r3, #15
	cmp	r3, #6
	.loc 1 852 35 is_stmt 0 view .LVU786
	str	r3, [r0, #104]
	.loc 1 853 11 is_stmt 1 view .LVU787
	bhi	.L118
	cmp	r3, #4
	bhi	.L119
.L120:
	.loc 1 889 15 view .LVU788
	.loc 1 889 38 is_stmt 0 view .LVU789
	movs	r3, #1
	strb	r3, [r4, #98]
	.loc 1 890 15 is_stmt 1 view .LVU790
	.loc 1 917 1 is_stmt 0 view .LVU791
	pop	{r4, pc}
.L117:
	.loc 1 896 11 is_stmt 1 view .LVU792
	.loc 1 896 34 is_stmt 0 view .LVU793
	movs	r3, #4
	strb	r3, [r0, #98]
	.loc 1 917 1 view .LVU794
	pop	{r4, pc}
.L118:
	.loc 1 917 1 view .LVU795
	cmp	r3, #9
	bne	.L120
	.loc 1 858 15 is_stmt 1 view .LVU796
	.loc 1 858 97 is_stmt 0 view .LVU797
	ldrh	r3, [r0, #28]
	lsrs	r3, r3, #4
	.loc 1 858 38 view .LVU798
	strh	r3, [r0, #92]	@ movhi
	.loc 1 859 15 is_stmt 1 view .LVU799
	.loc 1 859 18 is_stmt 0 view .LVU800
	cbz	r3, .L119
	.loc 1 865 20 is_stmt 1 view .LVU801
	.loc 1 865 23 is_stmt 0 view .LVU802
	ldrh	r2, [r0, #94]
	cmp	r2, r3
	bcc	.L122
	.loc 1 867 17 is_stmt 1 view .LVU803
	ldrb	r2, [r0, #108]	@ zero_extendqisi2
	ldr	r1, [r0, #24]
	ldr	r0, [r0, #20]
.LVL172:
	.loc 1 867 17 is_stmt 0 view .LVU804
	add	r2, r3, r2, lsl #1
	ldr	r3, [r4, #84]
	blx	r3
.LVL173:
	.loc 1 869 17 is_stmt 1 view .LVU805
	.loc 1 869 41 is_stmt 0 view .LVU806
	movs	r3, #1
	strb	r3, [r4, #101]
	.loc 1 917 1 view .LVU807
	pop	{r4, pc}
.LVL174:
.L119:
	.loc 1 881 15 is_stmt 1 view .LVU808
	.loc 1 881 43 is_stmt 0 view .LVU809
	movs	r3, #1
	strb	r3, [r4, #97]
	.loc 1 884 15 is_stmt 1 view .LVU810
	.loc 1 917 1 is_stmt 0 view .LVU811
	pop	{r4, pc}
.L122:
	.loc 1 873 17 is_stmt 1 view .LVU812
	.loc 1 873 40 is_stmt 0 view .LVU813
	movs	r3, #2
	strb	r3, [r0, #98]
	.loc 1 917 1 view .LVU814
	pop	{r4, pc}
.L125:
	.align	2
.L124:
	.word	.LANCHOR0
	.cfi_endproc
.LFE1449:
	.size	ASPEP_HWDataReceivedIT, .-ASPEP_HWDataReceivedIT
	.section	.text.ASPEP_HWReset,"ax",%progbits
	.align	1
	.p2align 2,,3
	.global	ASPEP_HWReset
	.syntax unified
	.thumb
	.thumb_func
	.fpu fpv4-sp-d16
	.type	ASPEP_HWReset, %function
ASPEP_HWReset:
.LVL175:
.LFB1450:
	.loc 1 925 1 is_stmt 1 view -0
	.cfi_startproc
	@ args = 0, pretend = 0, frame = 0
	@ frame_needed = 0, uses_anonymous_args = 0
	@ link register save eliminated.
	.loc 1 937 5 view .LVU816
	.loc 1 925 1 is_stmt 0 view .LVU817
	mov	r1, r0
	.loc 1 937 29 view .LVU818
	movs	r2, #0
	strb	r2, [r0, #101]
	.loc 1 938 5 is_stmt 1 view .LVU819
	ldr	r3, [r0, #84]
	ldr	r0, [r0, #20]
.LVL176:
	.loc 1 938 5 is_stmt 0 view .LVU820
	movs	r2, #4
	adds	r1, r1, #28
.LVL177:
	.loc 1 938 5 view .LVU821
	bx	r3	@ indirect register sibling call
.LVL178:
	.loc 1 938 5 view .LVU822
	.cfi_endproc
.LFE1450:
	.size	ASPEP_HWReset, .-ASPEP_HWReset
	.section	.rodata.CRC4_Lookup4,"a"
	.align	2
	.set	.LANCHOR1,. + 0
	.type	CRC4_Lookup4, %object
	.size	CRC4_Lookup4, 16
CRC4_Lookup4:
	.ascii	"\000\007\016\011\013\014\005\002\001\006\017\010\012"
	.ascii	"\015\004\003"
	.section	.rodata.CRC4_Lookup8,"a"
	.align	2
	.set	.LANCHOR0,. + 0
	.type	CRC4_Lookup8, %object
	.size	CRC4_Lookup8, 256
CRC4_Lookup8:
	.ascii	"\000\002\004\006\010\012\014\016\007\005\003\001\017"
	.ascii	"\015\013\011\007\005\003\001\017\015\013\011\000\002"
	.ascii	"\004\006\010\012\014\016\016\014\012\010\006\004\002"
	.ascii	"\000\011\013\015\017\001\003\005\007\011\013\015\017"
	.ascii	"\001\003\005\007\016\014\012\010\006\004\002\000\013"
	.ascii	"\011\017\015\003\001\007\005\014\016\010\012\004\006"
	.ascii	"\000\002\014\016\010\012\004\006\000\002\013\011\017"
	.ascii	"\015\003\001\007\005\005\007\001\003\015\017\011\013"
	.ascii	"\002\000\006\004\012\010\016\014\002\000\006\004\012"
	.ascii	"\010\016\014\005\007\001\003\015\017\011\013\001\003"
	.ascii	"\005\007\011\013\015\017\006\004\002\000\016\014\012"
	.ascii	"\010\006\004\002\000\016\014\012\010\001\003\005\007"
	.ascii	"\011\013\015\017\017\015\013\011\007\005\003\001\010"
	.ascii	"\012\014\016\000\002\004\006\010\012\014\016\000\002"
	.ascii	"\004\006\017\015\013\011\007\005\003\001\012\010\016"
	.ascii	"\014\002\000\006\004\015\017\011\013\005\007\001\003"
	.ascii	"\015\017\011\013\005\007\001\003\012\010\016\014\002"
	.ascii	"\000\006\004\004\006\000\002\014\016\010\012\003\001"
	.ascii	"\007\005\013\011\017\015\003\001\007\005\013\011\017"
	.ascii	"\015\004\006\000\002\014\016\010\012"
	.text
.Letext0:
	.file 3 "/usr/share/gcc-arm-none-eabi-10-2020-q4-major/arm-none-eabi/include/machine/_default_types.h"
	.file 4 "/usr/share/gcc-arm-none-eabi-10-2020-q4-major/arm-none-eabi/include/sys/_stdint.h"
	.file 5 "Drivers/STM32G4xx_HAL_Driver/Inc/stm32g4xx_ll_tim.h"
	.file 6 "Drivers/STM32G4xx_HAL_Driver/Inc/stm32g4xx_ll_usart.h"
	.file 7 "Drivers/STM32G4xx_HAL_Driver/Inc/stm32g4xx_ll_dma.h"
	.file 8 "MCSDK_v6.3.2-Full/MotorControl/MCSDK/MCLib/Any/Inc/mcptl.h"
	.file 9 "Inc/aspep.h"