	.cpu cortex-m4
	.eabi_attribute 27, 1
	.eabi_attribute 28, 1
	.eabi_attribute 20, 1
	.eabi_attribute 21, 1
	.eabi_attribute 23, 3
	.eabi_attribute 24, 1
	.eabi_attribute 25, 1
	.eabi_attribute 26, 1
	.eabi_attribute 30, 2
	.eabi_attribute 34, 1
	.eabi_attribute 18, 4
	.file	"circle_limitation.c"
	.text
.Ltext0:
	.cfi_sections	.debug_frame
	.section	.text.Circle_Limitation,"ax",%progbits
	.align	1
	.p2align 2,,3
	.weak	Circle_Limitation
	.arch armv7e-m
	.syntax unified
	.thumb
	.thumb_func
	.fpu fpv4-sp-d16
	.type	Circle_Limitation, %function
Circle_Limitation:
.LVL0:
.LFB1437:
	.file 1 "MCSDK_v6.3.2-Full/MotorControl/MCSDK/MCLib/Any/Src/circle_limitation.c"
	.loc 1 64 1 view -0
	.cfi_startproc
	@ args = 0, pretend = 0, frame = 16
	@ frame_needed = 0, uses_anonymous_args = 0
	.loc 1 64 1 is_stmt 0 view .LVU1
	push	{r4, r5, r6, lr}
.LCFI0:
	.cfi_def_cfa_offset 16
	.cfi_offset 4, -16
	.cfi_offset 5, -12
	.cfi_offset 6, -8
	.cfi_offset 14, -4
	.loc 1 85 15 view .LVU2
	ldrh	r3, [r0]
	asrs	r5, r1, #16
	.loc 1 64 1 view .LVU3
	sub	sp, sp, #16
.LCFI1:
	.cfi_def_cfa_offset 32
	sxth	r4, r1
.LVL1:
	.loc 1 65 3 is_stmt 1 view .LVU4
	.loc 1 75 5 view .LVU5
	.loc 1 76 5 view .LVU6
	.loc 1 77 5 view .LVU7
	.loc 1 78 5 view .LVU8
	.loc 1 79 5 view .LVU9
	.loc 1 80 5 view .LVU10
	.loc 1 81 5 view .LVU11
	.loc 1 82 5 view .LVU12
	.loc 1 83 5 view .LVU13
	.loc 1 85 5 view .LVU14
	.loc 1 87 5 view .LVU15
	.loc 1 88 5 view .LVU16
	.loc 1 88 14 is_stmt 0 view .LVU17
	mul	r2, r5, r5
.LVL2:
	.loc 1 89 5 is_stmt 1 view .LVU18
	.loc 1 89 18 is_stmt 0 view .LVU19
	mul	r3, r3, r3
.LVL3:
	.loc 1 90 5 is_stmt 1 view .LVU20
	.loc 1 91 5 view .LVU21
	.loc 1 93 5 view .LVU22
	.loc 1 64 1 is_stmt 0 view .LVU23
	str	r1, [sp, #4]
.LVL4:
	.loc 1 91 16 view .LVU24
	mla	r1, r4, r4, r2
	.loc 1 93 8 view .LVU25
	cmp	r3, r1
	bge	.L2
	.loc 1 90 24 view .LVU26
	ldrh	r6, [r0, #2]
	.loc 1 90 21 view .LVU27
	mul	r0, r6, r6
.LVL5:
	.loc 1 95 7 is_stmt 1 view .LVU28
	.loc 1 95 10 is_stmt 0 view .LVU29
	cmp	r2, r0
	ble	.L10
	.loc 1 116 9 is_stmt 1 view .LVU30
.LVL6:
	.loc 1 117 9 view .LVU31
	.loc 1 117 12 is_stmt 0 view .LVU32
	cmp	r5, #0
	.loc 1 119 11 is_stmt 1 view .LVU33
	.loc 1 130 17 is_stmt 0 view .LVU34
	sub	r0, r3, r0
	.loc 1 119 17 view .LVU35
	it	lt
	rsblt	r6, r6, #0
.LVL7:
	.loc 1 124 9 is_stmt 1 view .LVU36
	.loc 1 129 9 view .LVU37
	.loc 1 130 9 view .LVU38
	.loc 1 130 17 is_stmt 0 view .LVU39
	bl	MCM_Sqrt
.LVL8:
	.loc 1 132 9 is_stmt 1 view .LVU40
	.loc 1 132 12 is_stmt 0 view .LVU41
	cmp	r4, #0
	.loc 1 134 11 is_stmt 1 view .LVU42
	.loc 1 134 17 is_stmt 0 view .LVU43
	it	lt
	rsblt	r0, r0, #0
.LVL9:
	.loc 1 142 21 view .LVU44
	sxth	r5, r6
.LVL10:
.L4:
	.loc 1 139 9 is_stmt 1 view .LVU45
	.loc 1 141 7 view .LVU46
	.loc 1 141 21 is_stmt 0 view .LVU47
	sxth	r4, r0
.LVL11:
	.loc 1 142 7 is_stmt 1 view .LVU48
.L2:
	.loc 1 147 3 view .LVU49
	.loc 1 147 10 is_stmt 0 view .LVU50
	uxth	r4, r4
	movs	r0, #0
	bfi	r0, r4, #0, #16
	uxth	r5, r5
	bfi	r0, r5, #16, #16
	.loc 1 148 1 view .LVU51
	add	sp, sp, #16
.LCFI2:
	.cfi_remember_state
	.cfi_def_cfa_offset 16
	@ sp needed
	pop	{r4, r5, r6, pc}
.LVL12:
.L10:
.LCFI3:
	.cfi_restore_state
	.loc 1 101 9 is_stmt 1 view .LVU52
	.loc 1 102 9 view .LVU53
	.loc 1 102 17 is_stmt 0 view .LVU54
	subs	r0, r3, r2
.LVL13:
	.loc 1 102 17 view .LVU55
	bl	MCM_Sqrt
.LVL14:
	.loc 1 104 9 is_stmt 1 view .LVU56
	.loc 1 104 12 is_stmt 0 view .LVU57
	cmp	r4, #0
	bge	.L4
	.loc 1 106 11 is_stmt 1 view .LVU58
	.loc 1 106 17 is_stmt 0 view .LVU59
	rsbs	r0, r0, #0
.LVL15:
	.loc 1 106 17 view .LVU60
	b	.L4
	.cfi_endproc
.LFE1437:
	.size	Circle_Limitation, .-Circle_Limitation
	.text
.Letext0:
	.file 2 "/usr/share/gcc-arm-none-eabi-10-2020-q4-major/arm-none-eabi/include/machine/_default_types.h"
	.file 3 "/usr/share/gcc-arm-none-eabi-10-2020-q4-major/arm-none-eabi/include/sys/_stdint.h"
	.file 4 "Drivers/STM32G4xx_HAL_Driver/Inc/stm32g4xx_ll_tim.h"
	.file 5 "Drivers/STM32G4xx_HAL_Driver/Inc/stm32g4xx_ll_usart.h"
	.file 6 "Drivers/STM32G4xx_HAL_Driver/Inc/stm32g4xx_ll_dma.h"
	.file 7 "Inc/mc_type.h"
	.file 8 "MCSDK_v6.3.2-Full/MotorControl/MCSDK/MCLib/Any/Inc/circle_limitation.h"
	.file 9 "Inc/mc_math.h"