	.cpu cortex-m4
	.eabi_attribute 27, 1
	.eabi_attribute 28, 1
	.eabi_attribute 20, 1
	.eabi_attribute 21, 1
	.eabi_attribute 23, 3
	.eabi_attribute 24, 1
	.eabi_attribute 25, 1
	.eabi_attribute 26, 1
	.eabi_attribute 30, 2
	.eabi_attribute 34, 1
	.eabi_attribute 18, 4
	.file	"mc_interface.c"
	.text
.Ltext0:
	.cfi_sections	.debug_frame
	.section	.text.MCI_ExecSpeedRamp,"ax",%progbits
	.align	1
	.p2align 2,,3
	.weak	MCI_ExecSpeedRamp
	.arch armv7e-m
	.syntax unified
	.thumb
	.thumb_func
	.fpu fpv4-sp-d16
	.type	MCI_ExecSpeedRamp, %function
MCI_ExecSpeedRamp:
.LVL0:
.LFB1713:
	.file 1 "Src/mc_interface.c"
	.loc 1 78 1 view -0
	.cfi_startproc
	@ args = 0, pretend = 0, frame = 0
	@ frame_needed = 0, uses_anonymous_args = 0
	@ link register save eliminated.
	.loc 1 87 5 view .LVU1
	.loc 1 87 26 is_stmt 0 view .LVU2
	mov	ip, #1
	.loc 1 90 27 view .LVU3
	movw	r3, #769
	.loc 1 87 26 view .LVU4
	strb	ip, [r0, #12]
	.loc 1 88 5 is_stmt 1 view .LVU5
	.loc 1 88 26 is_stmt 0 view .LVU6
	strh	r1, [r0, #14]	@ movhi
	.loc 1 89 5 is_stmt 1 view .LVU7
	.loc 1 89 26 is_stmt 0 view .LVU8
	strh	r2, [r0, #28]	@ movhi
	.loc 1 90 5 is_stmt 1 view .LVU9
	.loc 1 91 5 view .LVU10
	.loc 1 90 27 is_stmt 0 view .LVU11
	strh	r3, [r0, #36]	@ movhi
	.loc 1 96 1 view .LVU12
	bx	lr
	.cfi_endproc
.LFE1713:
	.size	MCI_ExecSpeedRamp, .-MCI_ExecSpeedRamp
	.section	.text.MCI_ExecSpeedRamp_F,"ax",%progbits
	.align	1
	.p2align 2,,3
	.weak	MCI_ExecSpeedRamp_F
	.syntax unified
	.thumb
	.thumb_func
	.fpu fpv4-sp-d16
	.type	MCI_ExecSpeedRamp_F, %function
MCI_ExecSpeedRamp_F:
.LVL1:
.LFB1714:
	.loc 1 118 1 is_stmt 1 view -0
	.cfi_startproc
	@ args = 0, pretend = 0, frame = 0
	@ frame_needed = 0, uses_anonymous_args = 0
	.loc 1 127 5 view .LVU14
	.loc 1 128 5 view .LVU15
	.loc 1 127 40 is_stmt 0 view .LVU16
	vmov.f32	s15, #1.0e+1
	vmul.f32	s0, s0, s15
.LVL2:
	.loc 1 127 13 view .LVU17
	vldr.32	s14, .L5
	vdiv.f32	s15, s0, s14
.LVL3:
	.loc 1 118 1 view .LVU18
	push	{r3, lr}
.LCFI0:
	.cfi_def_cfa_offset 8
	.cfi_offset 3, -8
	.cfi_offset 14, -4
	.loc 1 118 1 view .LVU19
	mov	r2, r1
	.loc 1 128 5 view .LVU20
	vcvt.s32.f32	s15, s15
.LVL4:
	.loc 1 128 5 view .LVU21
	vmov	r3, s15	@ int
	sxth	r1, r3
.LVL5:
	.loc 1 128 5 view .LVU22
	bl	MCI_ExecSpeedRamp
.LVL6:
	.loc 1 132 1 view .LVU23
	pop	{r3, pc}
.L6:
	.align	2
.L5:
	.word	1114636288
	.cfi_endproc
.LFE1714:
	.size	MCI_ExecSpeedRamp_F, .-MCI_ExecSpeedRamp_F
	.section	.text.MCI_ExecTorqueRamp,"ax",%progbits
	.align	1
	.p2align 2,,3
	.weak	MCI_ExecTorqueRamp
	.syntax unified
	.thumb
	.thumb_func
	.fpu fpv4-sp-d16
	.type	MCI_ExecTorqueRamp, %function
MCI_ExecTorqueRamp:
.LVL7:
.LFB1715:
	.loc 1 158 1 is_stmt 1 view -0
	.cfi_startproc
	@ args = 0, pretend = 0, frame = 0
	@ frame_needed = 0, uses_anonymous_args = 0
	@ link register save eliminated.
	.loc 1 167 5 view .LVU25
	.loc 1 167 26 is_stmt 0 view .LVU26
	mov	ip, #2
	.loc 1 170 27 view .LVU27
	movw	r3, #1025
	.loc 1 167 26 view .LVU28
	strb	ip, [r0, #12]
	.loc 1 168 5 is_stmt 1 view .LVU29
	.loc 1 168 27 is_stmt 0 view .LVU30
	strh	r1, [r0, #16]	@ movhi
	.loc 1 169 5 is_stmt 1 view .LVU31
	.loc 1 169 26 is_stmt 0 view .LVU32
	strh	r2, [r0, #28]	@ movhi
	.loc 1 170 5 is_stmt 1 view .LVU33
	.loc 1 171 5 view .LVU34
	.loc 1 170 27 is_stmt 0 view .LVU35
	strh	r3, [r0, #36]	@ movhi
	.loc 1 175 1 view .LVU36
	bx	lr
	.cfi_endproc
.LFE1715:
	.size	MCI_ExecTorqueRamp, .-MCI_ExecTorqueRamp
	.section	.text.MCI_ExecTorqueRamp_F,"ax",%progbits
	.align	1
	.p2align 2,,3
	.weak	MCI_ExecTorqueRamp_F
	.syntax unified
	.thumb
	.thumb_func
	.fpu fpv4-sp-d16
	.type	MCI_ExecTorqueRamp_F, %function
MCI_ExecTorqueRamp_F:
.LVL8:
.LFB1716:
	.loc 1 200 1 is_stmt 1 view -0
	.cfi_startproc
	@ args = 0, pretend = 0, frame = 0
	@ frame_needed = 0, uses_anonymous_args = 0
	.loc 1 209 5 view .LVU38
	.loc 1 210 5 view .LVU39
	.loc 1 209 13 is_stmt 0 view .LVU40
	vldr.32	s15, .L10
	vmul.f32	s0, s0, s15
.LVL9:
	.loc 1 200 1 view .LVU41
	push	{r3, lr}
.LCFI1:
	.cfi_def_cfa_offset 8
	.cfi_offset 3, -8
	.cfi_offset 14, -4
	.loc 1 210 5 view .LVU42
	vcvt.s32.f32	s0, s0
.LVL10:
	.loc 1 200 1 view .LVU43
	mov	r2, r1
	.loc 1 210 5 view .LVU44
	vmov	r3, s0	@ int
	sxth	r1, r3
.LVL11:
	.loc 1 210 5 view .LVU45
	bl	MCI_ExecTorqueRamp
.LVL12:
	.loc 1 214 1 view .LVU46
	pop	{r3, pc}
.L11:
	.align	2
.L10:
	.word	1143848960
	.cfi_endproc
.LFE1716:
	.size	MCI_ExecTorqueRamp_F, .-MCI_ExecTorqueRamp_F
	.section	.text.MCI_SetCurrentReferences,"ax",%progbits
	.align	1
	.p2align 2,,3
	.weak	MCI_SetCurrentReferences
	.syntax unified
	.thumb
	.thumb_func
	.fpu fpv4-sp-d16
	.type	MCI_SetCurrentReferences, %function
MCI_SetCurrentReferences:
.LVL13:
.LFB1717:
	.loc 1 232 1 is_stmt 1 view -0
	.cfi_startproc
	@ args = 0, pretend = 0, frame = 8
	@ frame_needed = 0, uses_anonymous_args = 0
	@ link register save eliminated.
	.loc 1 242 5 view .LVU48
	.loc 1 232 1 is_stmt 0 view .LVU49
	sub	sp, sp, #8
.LCFI2:
	.cfi_def_cfa_offset 8
	.loc 1 242 26 view .LVU50
	movs	r2, #3
	.loc 1 245 27 view .LVU51
	movw	r3, #1025
	.loc 1 242 26 view .LVU52
	strb	r2, [r0, #12]
	.loc 1 243 5 is_stmt 1 view .LVU53
	.loc 1 244 5 view .LVU54
	.loc 1 243 23 is_stmt 0 view .LVU55
	str	r1, [r0, #18]	@ unaligned
	.loc 1 245 5 is_stmt 1 view .LVU56
	.loc 1 246 5 view .LVU57
	.loc 1 245 27 is_stmt 0 view .LVU58
	strh	r3, [r0, #36]	@ movhi
	.loc 1 250 1 view .LVU59
	add	sp, sp, #8
.LCFI3:
	.cfi_def_cfa_offset 0
	@ sp needed
	bx	lr
	.cfi_endproc
.LFE1717:
	.size	MCI_SetCurrentReferences, .-MCI_SetCurrentReferences
	.section	.text.MCI_SetCurrentReferences_F,"ax",%progbits
	.align	1
	.p2align 2,,3
	.weak	MCI_SetCurrentReferences_F
	.syntax unified
	.thumb
	.thumb_func
	.fpu fpv4-sp-d16
	.type	MCI_SetCurrentReferences_F, %function
MCI_SetCurrentReferences_F:
.LVL14:
.LFB1718:
	.loc 1 268 1 is_stmt 1 view -0
	.cfi_startproc
	@ args = 0, pretend = 0, frame = 16
	@ frame_needed = 0, uses_anonymous_args = 0
	.loc 1 277 5 view .LVU61
	.loc 1 278 5 view .LVU62
	.loc 1 279 5 view .LVU63
	.loc 1 280 31 is_stmt 0 view .LVU64
	vldr.32	s15, .L16
	.loc 1 268 1 view .LVU65
	push	{lr}
.LCFI4:
	.cfi_def_cfa_offset 4
	.cfi_offset 14, -4
	.loc 1 280 31 view .LVU66
	vmul.f32	s0, s0, s15
	.loc 1 279 31 view .LVU67
	vmul.f32	s1, s1, s15
	.loc 1 282 20 view .LVU68
	vcvt.s32.f32	s0, s0
	.loc 1 268 1 view .LVU69
	sub	sp, sp, #20
.LCFI5:
	.cfi_def_cfa_offset 24
.LVL15:
	.loc 1 280 5 is_stmt 1 view .LVU70
	.loc 1 281 5 view .LVU71
	.loc 1 282 20 is_stmt 0 view .LVU72
	vmov	r3, s0	@ int
	.loc 1 281 20 view .LVU73
	vcvt.s32.f32	s1, s1
	.loc 1 282 20 view .LVU74
	strh	r3, [sp, #12]	@ movhi
	.loc 1 281 20 view .LVU75
	vmov	r3, s1	@ int
	strh	r3, [sp, #14]	@ movhi
	.loc 1 282 5 is_stmt 1 view .LVU76
	.loc 1 283 5 view .LVU77
	ldr	r1, [sp, #12]
	bl	MCI_SetCurrentReferences
.LVL16:
	.loc 1 287 1 is_stmt 0 view .LVU78
	add	sp, sp, #20
.LCFI6:
	.cfi_def_cfa_offset 4
	@ sp needed
	ldr	pc, [sp], #4
.LVL17:
.L17:
	.loc 1 287 1 view .LVU79
	.align	2
.L16:
	.word	1143848960
	.cfi_endproc
.LFE1718:
	.size	MCI_SetCurrentReferences_F, .-MCI_SetCurrentReferences_F
	.section	.text.MCI_GetCalibratedOffsetsMotor,"ax",%progbits
	.align	1
	.p2align 2,,3
	.weak	MCI_GetCalibratedOffsetsMotor
	.syntax unified
	.thumb
	.thumb_func
	.fpu fpv4-sp-d16
	.type	MCI_GetCalibratedOffsetsMotor, %function
MCI_GetCalibratedOffsetsMotor:
.LVL18:
.LFB1722:
	.loc 1 472 1 is_stmt 1 view -0
	.cfi_startproc
	@ args = 0, pretend = 0, frame = 0
	@ frame_needed = 0, uses_anonymous_args = 0
	.loc 1 473 3 view .LVU81
	.loc 1 482 5 view .LVU82
	.loc 1 482 16 is_stmt 0 view .LVU83
	ldr	r0, [r0, #8]
.LVL19:
	.loc 1 472 1 view .LVU84
	push	{r4, lr}
.LCFI7:
	.cfi_def_cfa_offset 8
	.cfi_offset 4, -8
	.cfi_offset 14, -4
	.loc 1 482 22 view .LVU85
	ldrb	r4, [r0, #127]	@ zero_extendqisi2
	.loc 1 482 8 view .LVU86
	cbnz	r4, .L24
.LVL20:
	.loc 1 490 5 is_stmt 1 view .LVU87
	.loc 1 495 3 view .LVU88
	.loc 1 496 1 is_stmt 0 view .LVU89
	mov	r0, r4
	pop	{r4, pc}
.LVL21:
.L24:
	.loc 1 484 7 is_stmt 1 view .LVU90
	bl	PWMC_GetOffsetCalib
.LVL22:
	.loc 1 485 7 view .LVU91
	.loc 1 490 5 view .LVU92
	.loc 1 495 3 view .LVU93
	.loc 1 496 1 is_stmt 0 view .LVU94
	mov	r0, r4
	pop	{r4, pc}
	.loc 1 496 1 view .LVU95
	.cfi_endproc
.LFE1722:
	.size	MCI_GetCalibratedOffsetsMotor, .-MCI_GetCalibratedOffsetsMotor
	.section	.text.MCI_FaultProcessing,"ax",%progbits
	.align	1
	.p2align 2,,3
	.weak	MCI_FaultProcessing
	.syntax unified
	.thumb
	.thumb_func
	.fpu fpv4-sp-d16
	.type	MCI_FaultProcessing, %function
MCI_FaultProcessing:
.LVL23:
.LFB1726:
	.loc 1 653 1 is_stmt 1 view -0
	.cfi_startproc
	@ args = 0, pretend = 0, frame = 0
	@ frame_needed = 0, uses_anonymous_args = 0
	@ link register save eliminated.
	.loc 1 663 5 view .LVU97
	.loc 1 663 69 is_stmt 0 view .LVU98
	ldrh	r3, [r0, #32]
	.loc 1 664 25 view .LVU99
	ldrh	ip, [r0, #34]
	.loc 1 663 69 view .LVU100
	orrs	r3, r3, r1
	bic	r3, r3, r2
	.loc 1 664 25 view .LVU101
	orr	r1, r1, ip
.LVL24:
	.loc 1 663 28 view .LVU102
	strh	r3, [r0, #32]	@ movhi
	.loc 1 664 5 is_stmt 1 view .LVU103
	.loc 1 664 25 is_stmt 0 view .LVU104
	strh	r1, [r0, #34]	@ movhi
	.loc 1 668 1 view .LVU105
	bx	lr
	.cfi_endproc
.LFE1726:
	.size	MCI_FaultProcessing, .-MCI_FaultProcessing
	.section	.text.MCI_ExecBufferedCommands,"ax",%progbits
	.align	1
	.p2align 2,,3
	.weak	MCI_ExecBufferedCommands
	.syntax unified
	.thumb
	.thumb_func
	.fpu fpv4-sp-d16
	.type	MCI_ExecBufferedCommands, %function
MCI_ExecBufferedCommands:
.LVL25:
.LFB1727:
	.loc 1 678 1 is_stmt 1 view -0
	.cfi_startproc
	@ args = 0, pretend = 0, frame = 0
	@ frame_needed = 0, uses_anonymous_args = 0
	.loc 1 687 5 view .LVU107
	.loc 1 687 8 is_stmt 0 view .LVU108
	ldrb	r3, [r0, #36]	@ zero_extendqisi2
	cmp	r3, #1
	beq	.L40
	bx	lr
.L40:
	.loc 1 678 1 view .LVU109
	push	{r4, lr}
.LCFI8:
	.cfi_def_cfa_offset 8
	.cfi_offset 4, -8
	.cfi_offset 14, -4
.LBB40:
	.loc 1 690 22 view .LVU110
	ldrb	r2, [r0, #12]	@ zero_extendqisi2
	.loc 1 690 7 view .LVU111
	cmp	r2, #2
	mov	r4, r0
	.loc 1 689 7 is_stmt 1 view .LVU112
.LVL26:
	.loc 1 690 7 view .LVU113
	beq	.L28
	.loc 1 690 7 is_stmt 0 view .LVU114
	cmp	r2, #3
	beq	.L29
	cmp	r2, #1
	beq	.L41
.LVL27:
.L30:
	.loc 1 726 9 is_stmt 1 view .LVU115
	.loc 1 726 31 is_stmt 0 view .LVU116
	movs	r3, #3
	strb	r3, [r4, #36]
.LBE40:
	.loc 1 732 1 view .LVU117
	pop	{r4, pc}
.LVL28:
.L28:
.LBB41:
	.loc 1 702 11 is_stmt 1 view .LVU118
	.loc 1 702 42 is_stmt 0 view .LVU119
	ldr	r3, [r0, #4]
	movs	r2, #0
	strb	r2, [r3, #36]
	.loc 1 703 11 is_stmt 1 view .LVU120
	ldr	r0, [r0]
.LVL29:
	.loc 1 703 11 is_stmt 0 view .LVU121
	movs	r1, #4
	bl	STC_SetControlMode
.LVL30:
	.loc 1 704 11 is_stmt 1 view .LVU122
	.loc 1 704 36 is_stmt 0 view .LVU123
	ldrh	r2, [r4, #28]
	ldrsh	r1, [r4, #16]
	ldr	r0, [r4]
	bl	STC_ExecRamp
.LVL31:
	.loc 1 705 11 is_stmt 1 view .LVU124
.L31:
	.loc 1 720 7 view .LVU125
	.loc 1 720 10 is_stmt 0 view .LVU126
	cmp	r0, #0
	beq	.L30
.LVL32:
.L32:
	.loc 1 722 9 is_stmt 1 view .LVU127
	.loc 1 722 31 is_stmt 0 view .LVU128
	movs	r3, #2
	strb	r3, [r4, #36]
.LBE41:
	.loc 1 732 1 view .LVU129
	pop	{r4, pc}
.LVL33:
.L41:
.LBB42:
	.loc 1 694 11 is_stmt 1 view .LVU130
	.loc 1 694 42 is_stmt 0 view .LVU131
	ldr	r3, [r0, #4]
	movs	r2, #0
	strb	r2, [r3, #36]
	.loc 1 695 11 is_stmt 1 view .LVU132
	ldr	r0, [r0]
.LVL34:
	.loc 1 695 11 is_stmt 0 view .LVU133
	movs	r1, #3
	bl	STC_SetControlMode
.LVL35:
	.loc 1 696 11 is_stmt 1 view .LVU134
	.loc 1 696 36 is_stmt 0 view .LVU135
	ldrh	r2, [r4, #28]
	ldrsh	r1, [r4, #14]
	ldr	r0, [r4]
	bl	STC_ExecRamp
.LVL36:
	.loc 1 697 11 is_stmt 1 view .LVU136
	b	.L31
.LVL37:
.L29:
	.loc 1 710 11 view .LVU137
	.loc 1 710 18 is_stmt 0 view .LVU138
	ldr	r2, [r0, #4]
	.loc 1 710 42 view .LVU139
	strb	r3, [r2, #36]
	.loc 1 711 11 is_stmt 1 view .LVU140
	.loc 1 711 37 is_stmt 0 view .LVU141
	ldr	r3, [r0, #18]	@ unaligned
	str	r3, [r2, #16]	@ unaligned
	.loc 1 712 11 is_stmt 1 view .LVU142
.LVL38:
	.loc 1 713 11 view .LVU143
	.loc 1 720 7 view .LVU144
	b	.L32
.LBE42:
	.cfi_endproc
.LFE1727:
	.size	MCI_ExecBufferedCommands, .-MCI_ExecBufferedCommands
	.section	.text.MCI_IsCommandAcknowledged,"ax",%progbits
	.align	1
	.p2align 2,,3
	.weak	MCI_IsCommandAcknowledged
	.syntax unified
	.thumb
	.thumb_func
	.fpu fpv4-sp-d16
	.type	MCI_IsCommandAcknowledged, %function
MCI_IsCommandAcknowledged:
.LVL39:
.LFB1728:
	.loc 1 751 1 view -0
	.cfi_startproc
	@ args = 0, pretend = 0, frame = 0
	@ frame_needed = 0, uses_anonymous_args = 0
	@ link register save eliminated.
	.loc 1 752 3 view .LVU146
	.loc 1 761 5 view .LVU147
	.loc 1 761 12 is_stmt 0 view .LVU148
	ldrb	r3, [r0, #36]	@ zero_extendqisi2
.LVL40:
	.loc 1 763 5 is_stmt 1 view .LVU149
	.loc 1 763 8 is_stmt 0 view .LVU150
	subs	r2, r3, #2
	cmp	r2, #1
	.loc 1 765 7 is_stmt 1 view .LVU151
	.loc 1 765 29 is_stmt 0 view .LVU152
	itt	ls
	movls	r2, #0
	strbls	r2, [r0, #36]
	.loc 1 770 5 is_stmt 1 view .LVU153
	.loc 1 774 3 view .LVU154
	.loc 1 775 1 is_stmt 0 view .LVU155
	mov	r0, r3
.LVL41:
	.loc 1 775 1 view .LVU156
	bx	lr
	.cfi_endproc
.LFE1728:
	.size	MCI_IsCommandAcknowledged, .-MCI_IsCommandAcknowledged
	.section	.text.MCI_GetSTMState,"ax",%progbits
	.align	1
	.p2align 2,,3
	.weak	MCI_GetSTMState
	.syntax unified
	.thumb
	.thumb_func
	.fpu fpv4-sp-d16
	.type	MCI_GetSTMState, %function
MCI_GetSTMState:
.LVL42:
.LFB1729:
	.loc 1 783 1 is_stmt 1 view -0
	.cfi_startproc
	@ args = 0, pretend = 0, frame = 0
	@ frame_needed = 0, uses_anonymous_args = 0
	@ link register save eliminated.
	.loc 1 787 3 view .LVU158
	.loc 1 789 1 is_stmt 0 view .LVU159
	ldrb	r0, [r0, #31]	@ zero_extendqisi2
.LVL43:
	.loc 1 789 1 view .LVU160
	bx	lr
	.cfi_endproc
.LFE1729:
	.size	MCI_GetSTMState, .-MCI_GetSTMState
	.section	.text.MCI_GetOccurredFaults,"ax",%progbits
	.align	1
	.p2align 2,,3
	.weak	MCI_GetOccurredFaults
	.syntax unified
	.thumb
	.thumb_func
	.fpu fpv4-sp-d16
	.type	MCI_GetOccurredFaults, %function
MCI_GetOccurredFaults:
.LVL44:
.LFB1730:
	.loc 1 804 1 is_stmt 1 view -0
	.cfi_startproc
	@ args = 0, pretend = 0, frame = 0
	@ frame_needed = 0, uses_anonymous_args = 0
	@ link register save eliminated.
	.loc 1 808 3 view .LVU162
	.loc 1 810 1 is_stmt 0 view .LVU163
	ldrh	r0, [r0, #34]
.LVL45:
	.loc 1 810 1 view .LVU164
	bx	lr
	.cfi_endproc
.LFE1730:
	.size	MCI_GetOccurredFaults, .-MCI_GetOccurredFaults
	.section	.text.MCI_GetCurrentFaults,"ax",%progbits
	.align	1
	.p2align 2,,3
	.weak	MCI_GetCurrentFaults
	.syntax unified
	.thumb
	.thumb_func
	.fpu fpv4-sp-d16
	.type	MCI_GetCurrentFaults, %function
MCI_GetCurrentFaults:
.LVL46:
.LFB1731:
	.loc 1 824 1 is_stmt 1 view -0
	.cfi_startproc
	@ args = 0, pretend = 0, frame = 0
	@ frame_needed = 0, uses_anonymous_args = 0
	@ link register save eliminated.
	.loc 1 828 3 view .LVU166
	.loc 1 830 1 is_stmt 0 view .LVU167
	ldrh	r0, [r0, #32]
.LVL47:
	.loc 1 830 1 view .LVU168
	bx	lr
	.cfi_endproc
.LFE1731:
	.size	MCI_GetCurrentFaults, .-MCI_GetCurrentFaults
	.section	.text.MCI_StartMotor,"ax",%progbits
	.align	1
	.p2align 2,,3
	.weak	MCI_StartMotor
	.syntax unified
	.thumb
	.thumb_func
	.fpu fpv4-sp-d16
	.type	MCI_StartMotor, %function
MCI_StartMotor:
.LVL48:
.LFB1719:
	.loc 1 322 1 is_stmt 1 view -0
	.cfi_startproc
	@ args = 0, pretend = 0, frame = 0
	@ frame_needed = 0, uses_anonymous_args = 0
	.loc 1 323 3 view .LVU170
	.loc 1 332 5 view .LVU171
	.loc 1 322 1 is_stmt 0 view .LVU172
	push	{r4, lr}
.LCFI9:
	.cfi_def_cfa_offset 8
	.cfi_offset 4, -8
	.cfi_offset 14, -4
	.loc 1 322 1 view .LVU173
	mov	r4, r0
	.loc 1 332 18 view .LVU174
	bl	MCI_GetSTMState
.LVL49:
	.loc 1 332 8 view .LVU175
	cbz	r0, .L48
.L50:
	.loc 1 323 8 view .LVU176
	movs	r0, #0
.LVL50:
	.loc 1 343 5 is_stmt 1 view .LVU177
	.loc 1 347 3 view .LVU178
	.loc 1 348 1 is_stmt 0 view .LVU179
	pop	{r4, pc}
.LVL51:
.L48:
	.loc 1 333 26 discriminator 1 view .LVU180
	mov	r0, r4
	bl	MCI_GetOccurredFaults
.LVL52:
	.loc 1 332 44 discriminator 1 view .LVU181
	cmp	r0, #0
	bne	.L50
	.loc 1 334 26 view .LVU182
	mov	r0, r4
	bl	MCI_GetCurrentFaults
.LVL53:
	.loc 1 333 58 view .LVU183
	cmp	r0, #0
	bne	.L50
	.loc 1 336 7 is_stmt 1 view .LVU184
	.loc 1 336 30 is_stmt 0 view .LVU185
	movs	r0, #1
	strb	r0, [r4, #30]
	.loc 1 337 7 is_stmt 1 view .LVU186
	.loc 1 337 29 is_stmt 0 view .LVU187
	strb	r0, [r4, #36]
	.loc 1 338 7 is_stmt 1 view .LVU188
.LVL54:
	.loc 1 343 5 view .LVU189
	.loc 1 347 3 view .LVU190
	.loc 1 348 1 is_stmt 0 view .LVU191
	pop	{r4, pc}
	.loc 1 348 1 view .LVU192
	.cfi_endproc
.LFE1719:
	.size	MCI_StartMotor, .-MCI_StartMotor
	.section	.text.MCI_StartWithPolarizationMotor,"ax",%progbits
	.align	1
	.p2align 2,,3
	.weak	MCI_StartWithPolarizationMotor
	.syntax unified
	.thumb
	.thumb_func
	.fpu fpv4-sp-d16
	.type	MCI_StartWithPolarizationMotor, %function
MCI_StartWithPolarizationMotor:
.LVL55:
.LFB1720:
	.loc 1 384 1 is_stmt 1 view -0
	.cfi_startproc
	@ args = 0, pretend = 0, frame = 0
	@ frame_needed = 0, uses_anonymous_args = 0
	.loc 1 385 3 view .LVU194
	.loc 1 394 5 view .LVU195
	.loc 1 384 1 is_stmt 0 view .LVU196
	push	{r4, lr}
.LCFI10:
	.cfi_def_cfa_offset 8
	.cfi_offset 4, -8
	.cfi_offset 14, -4
	.loc 1 384 1 view .LVU197
	mov	r4, r0
	.loc 1 394 18 view .LVU198
	bl	MCI_GetSTMState
.LVL56:
	.loc 1 394 8 view .LVU199
	cbz	r0, .L53
.L55:
	.loc 1 385 8 view .LVU200
	movs	r0, #0
.LVL57:
	.loc 1 406 3 is_stmt 1 view .LVU201
	.loc 1 410 3 view .LVU202
	.loc 1 411 1 is_stmt 0 view .LVU203
	pop	{r4, pc}
.LVL58:
.L53:
	.loc 1 395 26 discriminator 1 view .LVU204
	mov	r0, r4
	bl	MCI_GetOccurredFaults
.LVL59:
	.loc 1 394 44 discriminator 1 view .LVU205
	cmp	r0, #0
	bne	.L55
	.loc 1 396 26 view .LVU206
	mov	r0, r4
	bl	MCI_GetCurrentFaults
.LVL60:
	.loc 1 395 58 view .LVU207
	mov	r2, r0
	cmp	r0, #0
	bne	.L55
	.loc 1 398 7 is_stmt 1 view .LVU208
	.loc 1 398 30 is_stmt 0 view .LVU209
	movs	r3, #1
	.loc 1 400 40 view .LVU210
	ldr	r1, [r4, #8]
	.loc 1 398 30 view .LVU211
	strb	r3, [r4, #30]
	.loc 1 399 7 is_stmt 1 view .LVU212
	.loc 1 399 29 is_stmt 0 view .LVU213
	strb	r3, [r4, #36]
	.loc 1 400 7 is_stmt 1 view .LVU214
	.loc 1 401 14 is_stmt 0 view .LVU215
	mov	r0, r3
	.loc 1 400 40 view .LVU216
	strb	r2, [r1, #127]
	.loc 1 401 7 is_stmt 1 view .LVU217
.LVL61:
	.loc 1 406 3 view .LVU218
	.loc 1 410 3 view .LVU219
	.loc 1 411 1 is_stmt 0 view .LVU220
	pop	{r4, pc}
	.loc 1 411 1 view .LVU221
	.cfi_endproc
.LFE1720:
	.size	MCI_StartWithPolarizationMotor, .-MCI_StartWithPolarizationMotor
	.section	.text.MCI_StartOffsetMeasurments,"ax",%progbits
	.align	1
	.p2align 2,,3
	.weak	MCI_StartOffsetMeasurments
	.syntax unified
	.thumb
	.thumb_func
	.fpu fpv4-sp-d16
	.type	MCI_StartOffsetMeasurments, %function
MCI_StartOffsetMeasurments:
.LVL62:
.LFB1721:
	.loc 1 429 1 is_stmt 1 view -0
	.cfi_startproc
	@ args = 0, pretend = 0, frame = 0
	@ frame_needed = 0, uses_anonymous_args = 0
	.loc 1 430 3 view .LVU223
	.loc 1 439 5 view .LVU224
	.loc 1 429 1 is_stmt 0 view .LVU225
	push	{r4, lr}
.LCFI11:
	.cfi_def_cfa_offset 8
	.cfi_offset 4, -8
	.cfi_offset 14, -4
	.loc 1 429 1 view .LVU226
	mov	r4, r0
	.loc 1 439 18 view .LVU227
	bl	MCI_GetSTMState
.LVL63:
	.loc 1 439 8 view .LVU228
	cbz	r0, .L58
.L60:
	.loc 1 430 8 view .LVU229
	movs	r0, #0
.LVL64:
	.loc 1 450 5 is_stmt 1 view .LVU230
	.loc 1 454 3 view .LVU231
	.loc 1 455 1 is_stmt 0 view .LVU232
	pop	{r4, pc}
.LVL65:
.L58:
	.loc 1 440 26 discriminator 1 view .LVU233
	mov	r0, r4
	bl	MCI_GetOccurredFaults
.LVL66:
	.loc 1 439 44 discriminator 1 view .LVU234
	cmp	r0, #0
	bne	.L60
	.loc 1 441 26 view .LVU235
	mov	r0, r4
	bl	MCI_GetCurrentFaults
.LVL67:
	.loc 1 440 58 view .LVU236
	mov	r3, r0
	cmp	r0, #0
	bne	.L60
	.loc 1 443 7 is_stmt 1 view .LVU237
	.loc 1 444 40 is_stmt 0 view .LVU238
	ldr	r2, [r4, #8]
	.loc 1 443 30 view .LVU239
	movs	r1, #3
	strb	r1, [r4, #30]
	.loc 1 444 7 is_stmt 1 view .LVU240
	.loc 1 445 14 is_stmt 0 view .LVU241
	movs	r0, #1
	.loc 1 444 40 view .LVU242
	strb	r3, [r2, #127]
	.loc 1 445 7 is_stmt 1 view .LVU243
.LVL68:
	.loc 1 450 5 view .LVU244
	.loc 1 454 3 view .LVU245
	.loc 1 455 1 is_stmt 0 view .LVU246
	pop	{r4, pc}
	.loc 1 455 1 view .LVU247
	.cfi_endproc
.LFE1721:
	.size	MCI_StartOffsetMeasurments, .-MCI_StartOffsetMeasurments
	.section	.text.MCI_SetCalibratedOffsetsMotor,"ax",%progbits
	.align	1
	.p2align 2,,3
	.weak	MCI_SetCalibratedOffsetsMotor
	.syntax unified
	.thumb
	.thumb_func
	.fpu fpv4-sp-d16
	.type	MCI_SetCalibratedOffsetsMotor, %function
MCI_SetCalibratedOffsetsMotor:
.LVL69:
.LFB1723:
	.loc 1 518 1 is_stmt 1 view -0
	.cfi_startproc
	@ args = 0, pretend = 0, frame = 0
	@ frame_needed = 0, uses_anonymous_args = 0
	.loc 1 519 3 view .LVU249
	.loc 1 528 5 view .LVU250
	.loc 1 518 1 is_stmt 0 view .LVU251
	push	{r3, r4, r5, lr}
.LCFI12:
	.cfi_def_cfa_offset 16
	.cfi_offset 3, -16
	.cfi_offset 4, -12
	.cfi_offset 5, -8
	.cfi_offset 14, -4
	.loc 1 518 1 view .LVU252
	mov	r4, r0
	mov	r5, r1
	.loc 1 528 18 view .LVU253
	bl	MCI_GetSTMState
.LVL70:
	.loc 1 528 8 view .LVU254
	cbz	r0, .L63
.L65:
	.loc 1 519 8 view .LVU255
	movs	r0, #0
.LVL71:
	.loc 1 539 5 is_stmt 1 view .LVU256
	.loc 1 543 5 view .LVU257
	.loc 1 544 1 is_stmt 0 view .LVU258
	pop	{r3, r4, r5, pc}
.LVL72:
.L63:
	.loc 1 529 26 discriminator 1 view .LVU259
	mov	r0, r4
	bl	MCI_GetOccurredFaults
.LVL73:
	.loc 1 528 44 discriminator 1 view .LVU260
	cmp	r0, #0
	bne	.L65
	.loc 1 530 26 view .LVU261
	mov	r0, r4
	bl	MCI_GetCurrentFaults
.LVL74:
	.loc 1 529 58 view .LVU262
	cmp	r0, #0
	bne	.L65
	.loc 1 532 7 is_stmt 1 view .LVU263
	ldr	r0, [r4, #8]
	mov	r1, r5
	bl	PWMC_SetOffsetCalib
.LVL75:
	.loc 1 533 7 view .LVU264
	.loc 1 533 40 is_stmt 0 view .LVU265
	ldr	r3, [r4, #8]
	movs	r0, #1
	strb	r0, [r3, #127]
	.loc 1 534 7 is_stmt 1 view .LVU266
.LVL76:
	.loc 1 539 5 view .LVU267
	.loc 1 543 5 view .LVU268
	.loc 1 544 1 is_stmt 0 view .LVU269
	pop	{r3, r4, r5, pc}
	.loc 1 544 1 view .LVU270
	.cfi_endproc
.LFE1723:
	.size	MCI_SetCalibratedOffsetsMotor, .-MCI_SetCalibratedOffsetsMotor
	.section	.text.MCI_StopMotor,"ax",%progbits
	.align	1
	.p2align 2,,3
	.weak	MCI_StopMotor
	.syntax unified
	.thumb
	.thumb_func
	.fpu fpv4-sp-d16
	.type	MCI_StopMotor, %function
MCI_StopMotor:
.LVL77:
.LFB1724:
	.loc 1 563 1 is_stmt 1 view -0
	.cfi_startproc
	@ args = 0, pretend = 0, frame = 0
	@ frame_needed = 0, uses_anonymous_args = 0
	.loc 1 564 3 view .LVU272
	.loc 1 573 5 view .LVU273
	.loc 1 574 5 view .LVU274
	.loc 1 576 5 view .LVU275
	.loc 1 563 1 is_stmt 0 view .LVU276
	push	{r3, r4, r5, lr}
.LCFI13:
	.cfi_def_cfa_offset 16
	.cfi_offset 3, -16
	.cfi_offset 4, -12
	.cfi_offset 5, -8
	.cfi_offset 14, -4
	.loc 1 563 1 view .LVU277
	mov	r5, r0
	.loc 1 576 13 view .LVU278
	bl	MCI_GetSTMState
.LVL78:
	.loc 1 577 5 is_stmt 1 view .LVU279
	.loc 1 577 8 is_stmt 0 view .LVU280
	cbz	r0, .L72
	.loc 1 577 25 discriminator 1 view .LVU281
	subs	r4, r0, #12
	.loc 1 586 26 discriminator 1 view .LVU282
	mov	r0, r5
.LVL79:
	.loc 1 577 25 discriminator 1 view .LVU283
	it	ne
	movne	r4, #1
.LVL80:
	.loc 1 586 5 is_stmt 1 discriminator 1 view .LVU284
	.loc 1 586 26 is_stmt 0 discriminator 1 view .LVU285
	bl	MCI_GetOccurredFaults
.LVL81:
	.loc 1 586 8 discriminator 1 view .LVU286
	cbz	r0, .L69
.L71:
	.loc 1 564 8 view .LVU287
	movs	r4, #0
.LVL82:
.L70:
	.loc 1 596 5 is_stmt 1 view .LVU288
	.loc 1 600 3 view .LVU289
	.loc 1 601 1 is_stmt 0 view .LVU290
	mov	r0, r4
	pop	{r3, r4, r5, pc}
.LVL83:
.L72:
	.loc 1 579 14 view .LVU291
	mov	r4, r0
.LVL84:
	.loc 1 586 5 is_stmt 1 view .LVU292
	.loc 1 586 26 is_stmt 0 view .LVU293
	mov	r0, r5
.LVL85:
	.loc 1 586 26 view .LVU294
	bl	MCI_GetOccurredFaults
.LVL86:
	.loc 1 586 8 view .LVU295
	cmp	r0, #0
	bne	.L71
.L69:
	.loc 1 587 26 discriminator 1 view .LVU296
	mov	r0, r5
	bl	MCI_GetCurrentFaults
.LVL87:
	.loc 1 586 58 discriminator 1 view .LVU297
	cmp	r0, #0
	bne	.L71
	.loc 1 587 57 view .LVU298
	cmp	r4, #0
	beq	.L71
	.loc 1 590 7 is_stmt 1 view .LVU299
	.loc 1 590 30 is_stmt 0 view .LVU300
	movs	r3, #5
	strb	r3, [r5, #30]
	.loc 1 591 7 is_stmt 1 view .LVU301
.LVL88:
	.loc 1 591 7 is_stmt 0 view .LVU302
	b	.L70
	.cfi_endproc
.LFE1724:
	.size	MCI_StopMotor, .-MCI_StopMotor
	.section	.text.MCI_FaultAcknowledged,"ax",%progbits
	.align	1
	.p2align 2,,3
	.weak	MCI_FaultAcknowledged
	.syntax unified
	.thumb
	.thumb_func
	.fpu fpv4-sp-d16
	.type	MCI_FaultAcknowledged, %function
MCI_FaultAcknowledged:
.LVL89:
.LFB1725:
	.loc 1 618 1 is_stmt 1 view -0
	.cfi_startproc
	@ args = 0, pretend = 0, frame = 0
	@ frame_needed = 0, uses_anonymous_args = 0
	.loc 1 619 3 view .LVU304
	.loc 1 628 5 view .LVU305
	.loc 1 618 1 is_stmt 0 view .LVU306
	push	{r4, lr}
.LCFI14:
	.cfi_def_cfa_offset 8
	.cfi_offset 4, -8
	.cfi_offset 14, -4
	.loc 1 618 1 view .LVU307
	mov	r4, r0
	.loc 1 628 24 view .LVU308
	bl	MCI_GetSTMState
.LVL90:
	.loc 1 628 8 view .LVU309
	cmp	r0, #11
	beq	.L78
.L80:
	.loc 1 619 8 view .LVU310
	movs	r0, #0
.LVL91:
	.loc 1 637 5 is_stmt 1 view .LVU311
	.loc 1 641 3 view .LVU312
	.loc 1 642 1 is_stmt 0 view .LVU313
	pop	{r4, pc}
.LVL92:
.L78:
	.loc 1 628 70 discriminator 1 view .LVU314
	mov	r0, r4
	bl	MCI_GetCurrentFaults
.LVL93:
	.loc 1 628 50 discriminator 1 view .LVU315
	cmp	r0, #0
	bne	.L80
	.loc 1 630 7 is_stmt 1 view .LVU316
	.loc 1 631 30 is_stmt 0 view .LVU317
	movs	r3, #2
	strb	r3, [r4, #30]
	.loc 1 630 27 view .LVU318
	strh	r0, [r4, #34]	@ movhi
	.loc 1 631 7 is_stmt 1 view .LVU319
	.loc 1 632 7 view .LVU320
.LVL94:
	.loc 1 632 13 is_stmt 0 view .LVU321
	movs	r0, #1
.LVL95:
	.loc 1 637 5 is_stmt 1 view .LVU322
	.loc 1 641 3 view .LVU323
	.loc 1 642 1 is_stmt 0 view .LVU324
	pop	{r4, pc}
	.loc 1 642 1 view .LVU325
	.cfi_endproc
.LFE1725:
	.size	MCI_FaultAcknowledged, .-MCI_FaultAcknowledged
	.section	.text.MCI_GetFaultState,"ax",%progbits
	.align	1
	.p2align 2,,3
	.weak	MCI_GetFaultState
	.syntax unified
	.thumb
	.thumb_func
	.fpu fpv4-sp-d16
	.type	MCI_GetFaultState, %function
MCI_GetFaultState:
.LVL96:
.LFB1732:
	.loc 1 848 1 is_stmt 1 view -0
	.cfi_startproc
	@ args = 0, pretend = 0, frame = 0
	@ frame_needed = 0, uses_anonymous_args = 0
	@ link register save eliminated.
	.loc 1 849 3 view .LVU327
	.loc 1 858 5 view .LVU328
	.loc 1 858 21 is_stmt 0 view .LVU329
	ldrh	r3, [r0, #34]
.LVL97:
	.loc 1 859 5 is_stmt 1 view .LVU330
	.loc 1 863 3 view .LVU331
	.loc 1 859 24 is_stmt 0 view .LVU332
	ldrh	r0, [r0, #32]
.LVL98:
	.loc 1 864 1 view .LVU333
	orr	r0, r3, r0, lsl #16
	bx	lr
	.cfi_endproc
.LFE1732:
	.size	MCI_GetFaultState, .-MCI_GetFaultState
	.section	.text.MCI_GetControlMode,"ax",%progbits
	.align	1
	.p2align 2,,3
	.weak	MCI_GetControlMode
	.syntax unified
	.thumb
	.thumb_func
	.fpu fpv4-sp-d16
	.type	MCI_GetControlMode, %function
MCI_GetControlMode:
.LVL99:
.LFB1733:
	.loc 1 873 1 is_stmt 1 view -0
	.cfi_startproc
	@ args = 0, pretend = 0, frame = 0
	@ frame_needed = 0, uses_anonymous_args = 0
	@ link register save eliminated.
	.loc 1 877 3 view .LVU335
	.loc 1 879 1 is_stmt 0 view .LVU336
	ldrb	r0, [r0, #37]	@ zero_extendqisi2
.LVL100:
	.loc 1 879 1 view .LVU337
	bx	lr
	.cfi_endproc
.LFE1733:
	.size	MCI_GetControlMode, .-MCI_GetControlMode
	.section	.text.MCI_GetImposedMotorDirection,"ax",%progbits
	.align	1
	.p2align 2,,3
	.weak	MCI_GetImposedMotorDirection
	.syntax unified
	.thumb
	.thumb_func
	.fpu fpv4-sp-d16
	.type	MCI_GetImposedMotorDirection, %function
MCI_GetImposedMotorDirection:
.LVL101:
.LFB1734:
	.loc 1 889 1 is_stmt 1 view -0
	.cfi_startproc
	@ args = 0, pretend = 0, frame = 0
	@ frame_needed = 0, uses_anonymous_args = 0
	@ link register save eliminated.
	.loc 1 890 3 view .LVU339
	.loc 1 900 5 view .LVU340
	.loc 1 900 20 is_stmt 0 view .LVU341
	ldrb	r3, [r0, #12]	@ zero_extendqisi2
	.loc 1 900 5 view .LVU342
	cmp	r3, #2
	beq	.L85
	cmp	r3, #3
	beq	.L86
	cmp	r3, #1
	beq	.L92
	movs	r0, #1
.LVL102:
	.loc 1 946 3 is_stmt 1 view .LVU343
	.loc 1 947 1 is_stmt 0 view .LVU344
	bx	lr
.LVL103:
.L85:
	.loc 1 917 9 is_stmt 1 view .LVU345
	.loc 1 917 12 is_stmt 0 view .LVU346
	ldrsh	r3, [r0, #16]
	.loc 1 906 18 view .LVU347
	cmp	r3, #0
	ite	ge
	movge	r0, #1
.LVL104:
	.loc 1 906 18 view .LVU348
	movlt	r0, #-1
	bx	lr
.LVL105:
.L92:
	.loc 1 904 9 is_stmt 1 view .LVU349
	.loc 1 904 12 is_stmt 0 view .LVU350
	ldrsh	r3, [r0, #14]
	.loc 1 906 18 view .LVU351
	cmp	r3, #0
	ite	ge
	movge	r0, #1
.LVL106:
	.loc 1 906 18 view .LVU352
	movlt	r0, #-1
	bx	lr
.LVL107:
.L86:
	.loc 1 930 9 is_stmt 1 view .LVU353
	.loc 1 930 12 is_stmt 0 view .LVU354
	ldrsh	r3, [r0, #18]
	.loc 1 906 18 view .LVU355
	cmp	r3, #0
	ite	ge
	movge	r0, #1
.LVL108:
	.loc 1 906 18 view .LVU356
	movlt	r0, #-1
	bx	lr
	.cfi_endproc
.LFE1734:
	.size	MCI_GetImposedMotorDirection, .-MCI_GetImposedMotorDirection
	.section	.text.MCI_GetLastRampFinalSpeed,"ax",%progbits
	.align	1
	.p2align 2,,3
	.weak	MCI_GetLastRampFinalSpeed
	.syntax unified
	.thumb
	.thumb_func
	.fpu fpv4-sp-d16
	.type	MCI_GetLastRampFinalSpeed, %function
MCI_GetLastRampFinalSpeed:
.LVL109:
.LFB1735:
	.loc 1 957 1 is_stmt 1 view -0
	.cfi_startproc
	@ args = 0, pretend = 0, frame = 0
	@ frame_needed = 0, uses_anonymous_args = 0
	@ link register save eliminated.
	.loc 1 971 3 view .LVU358
	.loc 1 973 1 is_stmt 0 view .LVU359
	ldrsh	r0, [r0, #14]
.LVL110:
	.loc 1 973 1 view .LVU360
	bx	lr
	.cfi_endproc
.LFE1735:
	.size	MCI_GetLastRampFinalSpeed, .-MCI_GetLastRampFinalSpeed
	.section	.text.MCI_GetLastRampFinalTorque,"ax",%progbits
	.align	1
	.p2align 2,,3
	.weak	MCI_GetLastRampFinalTorque
	.syntax unified
	.thumb
	.thumb_func
	.fpu fpv4-sp-d16
	.type	MCI_GetLastRampFinalTorque, %function
MCI_GetLastRampFinalTorque:
.LVL111:
.LFB1736:
	.loc 1 983 1 is_stmt 1 view -0
	.cfi_startproc
	@ args = 0, pretend = 0, frame = 0
	@ frame_needed = 0, uses_anonymous_args = 0
	@ link register save eliminated.
	.loc 1 997 3 view .LVU362
	.loc 1 999 1 is_stmt 0 view .LVU363
	ldrsh	r0, [r0, #16]
.LVL112:
	.loc 1 999 1 view .LVU364
	bx	lr
	.cfi_endproc
.LFE1736:
	.size	MCI_GetLastRampFinalTorque, .-MCI_GetLastRampFinalTorque
	.section	.text.MCI_GetLastRampFinalTorque_F,"ax",%progbits
	.align	1
	.p2align 2,,3
	.weak	MCI_GetLastRampFinalTorque_F
	.syntax unified
	.thumb
	.thumb_func
	.fpu fpv4-sp-d16
	.type	MCI_GetLastRampFinalTorque_F, %function
MCI_GetLastRampFinalTorque_F:
.LVL113:
.LFB1737:
	.loc 1 1009 1 is_stmt 1 view -0
	.cfi_startproc
	@ args = 0, pretend = 0, frame = 0
	@ frame_needed = 0, uses_anonymous_args = 0
	@ link register save eliminated.
	.loc 1 1023 3 view .LVU366
	.loc 1 1023 11 is_stmt 0 view .LVU367
	ldrsh	r3, [r0, #16]
	vmov	s15, r3	@ int
	.loc 1 1023 68 view .LVU368
	ldr	r3, [r0, #24]
	ldr	r3, [r3, #4]	@ unaligned
	.loc 1 1023 11 view .LVU369
	vcvt.f32.s32	s15, s15
	.loc 1 1023 68 view .LVU370
	vmov	s0, r3	@ int
	.loc 1 1025 1 view .LVU371
	vmul.f32	s0, s15, s0
	bx	lr
	.cfi_endproc
.LFE1737:
	.size	MCI_GetLastRampFinalTorque_F, .-MCI_GetLastRampFinalTorque_F
	.section	.text.MCI_GetLastRampFinalDuration,"ax",%progbits
	.align	1
	.p2align 2,,3
	.weak	MCI_GetLastRampFinalDuration
	.syntax unified
	.thumb
	.thumb_func
	.fpu fpv4-sp-d16
	.type	MCI_GetLastRampFinalDuration, %function
MCI_GetLastRampFinalDuration:
.LVL114:
.LFB1738:
	.loc 1 1034 1 is_stmt 1 view -0
	.cfi_startproc
	@ args = 0, pretend = 0, frame = 0
	@ frame_needed = 0, uses_anonymous_args = 0
	@ link register save eliminated.
	.loc 1 1048 3 view .LVU373
	.loc 1 1050 1 is_stmt 0 view .LVU374
	ldrh	r0, [r0, #28]
.LVL115:
	.loc 1 1050 1 view .LVU375
	bx	lr
	.cfi_endproc
.LFE1738:
	.size	MCI_GetLastRampFinalDuration, .-MCI_GetLastRampFinalDuration
	.section	.text.MCI_GetLastRampFinalSpeed_F,"ax",%progbits
	.align	1
	.p2align 2,,3
	.weak	MCI_GetLastRampFinalSpeed_F
	.syntax unified
	.thumb
	.thumb_func
	.fpu fpv4-sp-d16
	.type	MCI_GetLastRampFinalSpeed_F, %function
MCI_GetLastRampFinalSpeed_F:
.LVL116:
.LFB1739:
	.loc 1 1058 1 is_stmt 1 view -0
	.cfi_startproc
	@ args = 0, pretend = 0, frame = 0
	@ frame_needed = 0, uses_anonymous_args = 0
	@ link register save eliminated.
	.loc 1 1059 3 view .LVU377
	.loc 1 1061 3 view .LVU378
	.loc 1 1061 6 is_stmt 0 view .LVU379
	cbz	r0, .L99
	.loc 1 1067 5 is_stmt 1 view .LVU380
	.loc 1 1067 15 is_stmt 0 view .LVU381
	ldrsh	r3, [r0, #14]
	.loc 1 1067 45 view .LVU382
	vldr.32	s13, .L100
	.loc 1 1067 15 view .LVU383
	vmov	s15, r3	@ int
	vcvt.f32.s32	s15, s15
	.loc 1 1067 11 view .LVU384
	vmov.f32	s14, #1.0e+1
	.loc 1 1067 45 view .LVU385
	vmul.f32	s15, s15, s13
	.loc 1 1067 11 view .LVU386
	vdiv.f32	s0, s15, s14
.LVL117:
	.loc 1 1067 11 view .LVU387
	bx	lr
.LVL118:
.L99:
	.loc 1 1059 11 view .LVU388
	vldr.32	s0, .L100+4
	.loc 1 1069 3 is_stmt 1 view .LVU389
	.loc 1 1070 1 is_stmt 0 view .LVU390
	bx	lr
.L101:
	.align	2
.L100:
	.word	1114636288
	.word	0
	.cfi_endproc
.LFE1739:
	.size	MCI_GetLastRampFinalSpeed_F, .-MCI_GetLastRampFinalSpeed_F
	.section	.text.MCI_RampCompleted,"ax",%progbits
	.align	1
	.p2align 2,,3
	.weak	MCI_RampCompleted
	.syntax unified
	.thumb
	.thumb_func
	.fpu fpv4-sp-d16
	.type	MCI_RampCompleted, %function
MCI_RampCompleted:
.LVL119:
.LFB1740:
	.loc 1 1078 1 is_stmt 1 view -0
	.cfi_startproc
	@ args = 0, pretend = 0, frame = 0
	@ frame_needed = 0, uses_anonymous_args = 0
	.loc 1 1079 3 view .LVU392
	.loc 1 1088 5 view .LVU393
	.loc 1 1078 1 is_stmt 0 view .LVU394
	push	{r4, lr}
.LCFI15:
	.cfi_def_cfa_offset 8
	.cfi_offset 4, -8
	.cfi_offset 14, -4
	.loc 1 1078 1 view .LVU395
	mov	r4, r0
	.loc 1 1088 16 view .LVU396
	bl	MCI_GetSTMState
.LVL120:
	.loc 1 1088 8 view .LVU397
	cmp	r0, #6
	beq	.L106
	.loc 1 1079 8 view .LVU398
	movs	r0, #0
.LVL121:
	.loc 1 1095 5 is_stmt 1 view .LVU399
	.loc 1 1099 3 view .LVU400
	.loc 1 1100 1 is_stmt 0 view .LVU401
	pop	{r4, pc}
.LVL122:
.L106:
	.loc 1 1090 7 is_stmt 1 view .LVU402
.LBB43:
.LBI43:
	.file 2 "MCSDK_v6.3.2-Full/MotorControl/MCSDK/MCLib/Any/Inc/speed_torq_ctrl.h"
	.loc 2 185 20 view .LVU403
.LBB44:
	.loc 2 187 3 view .LVU404
	.loc 2 196 5 view .LVU405
	.loc 2 196 22 is_stmt 0 view .LVU406
	ldr	r3, [r4]
	.loc 2 196 8 view .LVU407
	ldr	r0, [r3, #12]
	clz	r0, r0
	lsrs	r0, r0, #5
.LVL123:
	.loc 2 196 8 view .LVU408
.LBE44:
.LBE43:
	.loc 1 1095 5 is_stmt 1 view .LVU409
	.loc 1 1099 3 view .LVU410
	.loc 1 1100 1 is_stmt 0 view .LVU411
	pop	{r4, pc}
	.loc 1 1100 1 view .LVU412
	.cfi_endproc
.LFE1740:
	.size	MCI_RampCompleted, .-MCI_RampCompleted
	.section	.text.MCI_StopSpeedRamp,"ax",%progbits
	.align	1
	.p2align 2,,3
	.weak	MCI_StopSpeedRamp
	.syntax unified
	.thumb
	.thumb_func
	.fpu fpv4-sp-d16
	.type	MCI_StopSpeedRamp, %function
MCI_StopSpeedRamp:
.LVL124:
.LFB1741:
	.loc 1 1111 1 is_stmt 1 view -0
	.cfi_startproc
	@ args = 0, pretend = 0, frame = 0
	@ frame_needed = 0, uses_anonymous_args = 0
	@ link register save eliminated.
	.loc 1 1115 3 view .LVU414
	.loc 1 1115 11 is_stmt 0 view .LVU415
	ldr	r0, [r0]
.LVL125:
	.loc 1 1115 11 view .LVU416
	b	STC_StopSpeedRamp
.LVL126:
	.cfi_endproc
.LFE1741:
	.size	MCI_StopSpeedRamp, .-MCI_StopSpeedRamp
	.section	.text.MCI_StopRamp,"ax",%progbits
	.align	1
	.p2align 2,,3
	.weak	MCI_StopRamp
	.syntax unified
	.thumb
	.thumb_func
	.fpu fpv4-sp-d16
	.type	MCI_StopRamp, %function
MCI_StopRamp:
.LVL127:
.LFB1742:
	.loc 1 1124 1 is_stmt 1 view -0
	.cfi_startproc
	@ args = 0, pretend = 0, frame = 0
	@ frame_needed = 0, uses_anonymous_args = 0
	@ link register save eliminated.
	.loc 1 1133 5 view .LVU418
	ldr	r3, [r0]
.LVL128:
.LBB45:
.LBI45:
	.loc 2 160 20 view .LVU419
.LBB46:
	.loc 2 170 5 view .LVU420
	.loc 2 170 32 is_stmt 0 view .LVU421
	movs	r2, #0
	str	r2, [r3, #12]
	.loc 2 171 5 is_stmt 1 view .LVU422
	.loc 2 171 27 is_stmt 0 view .LVU423
	str	r2, [r3, #24]
.LVL129:
	.loc 2 171 27 view .LVU424
.LBE46:
.LBE45:
	.loc 1 1137 1 view .LVU425
	bx	lr
	.cfi_endproc
.LFE1742:
	.size	MCI_StopRamp, .-MCI_StopRamp
	.section	.text.MCI_GetSpdSensorReliability,"ax",%progbits
	.align	1
	.p2align 2,,3
	.weak	MCI_GetSpdSensorReliability
	.syntax unified
	.thumb
	.thumb_func
	.fpu fpv4-sp-d16
	.type	MCI_GetSpdSensorReliability, %function
MCI_GetSpdSensorReliability:
.LVL130:
.LFB1743:
	.loc 1 1148 1 is_stmt 1 view -0
	.cfi_startproc
	@ args = 0, pretend = 0, frame = 0
	@ frame_needed = 0, uses_anonymous_args = 0
	@ link register save eliminated.
	.loc 1 1149 3 view .LVU427
	.loc 1 1158 5 view .LVU428
.LBB47:
.LBI47:
	.loc 2 240 39 view .LVU429
.LBB48:
	.loc 2 245 3 view .LVU430
	.loc 2 245 18 is_stmt 0 view .LVU431
	ldr	r3, [r0]
	ldr	r3, [r3, #20]
.LVL131:
	.loc 2 245 18 view .LVU432
.LBE48:
.LBE47:
	.loc 1 1159 5 is_stmt 1 view .LVU433
.LBB49:
.LBI49:
	.file 3 "MCSDK_v6.3.2-Full/MotorControl/MCSDK/MCLib/Any/Inc/speed_pos_fdbk.h"
	.loc 3 161 20 view .LVU434
.LBB50:
	.loc 3 163 3 view .LVU435
	.loc 3 167 3 view .LVU436
	.loc 3 175 3 view .LVU437
	.loc 3 176 3 view .LVU438
	.loc 3 176 3 is_stmt 0 view .LVU439
.LBE50:
.LBE49:
	.loc 1 1164 3 is_stmt 1 view .LVU440
.LBB52:
.LBB51:
	.loc 3 167 6 is_stmt 0 view .LVU441
	ldrb	r0, [r3, #3]	@ zero_extendqisi2
.LVL132:
	.loc 3 167 6 view .LVU442
	ldrb	r3, [r3]	@ zero_extendqisi2
.LVL133:
	.loc 3 167 6 view .LVU443
.LBE51:
.LBE52:
	.loc 1 1165 1 view .LVU444
	subs	r0, r0, r3
.LVL134:
	.loc 1 1165 1 view .LVU445
	it	ne
	movne	r0, #1
	bx	lr
	.cfi_endproc
.LFE1743:
	.size	MCI_GetSpdSensorReliability, .-MCI_GetSpdSensorReliability
	.section	.text.MCI_GetAvrgMecSpeedUnit,"ax",%progbits
	.align	1
	.p2align 2,,3
	.weak	MCI_GetAvrgMecSpeedUnit
	.syntax unified
	.thumb
	.thumb_func
	.fpu fpv4-sp-d16
	.type	MCI_GetAvrgMecSpeedUnit, %function
MCI_GetAvrgMecSpeedUnit:
.LVL135:
.LFB1744:
	.loc 1 1174 1 is_stmt 1 view -0
	.cfi_startproc
	@ args = 0, pretend = 0, frame = 0
	@ frame_needed = 0, uses_anonymous_args = 0
	@ link register save eliminated.
	.loc 1 1175 3 view .LVU447
	.loc 1 1184 5 view .LVU448
.LBB53:
.LBI53:
	.loc 2 240 39 view .LVU449
.LBB54:
	.loc 2 245 3 view .LVU450
	.loc 2 245 3 is_stmt 0 view .LVU451
.LBE54:
.LBE53:
	.loc 1 1185 5 is_stmt 1 view .LVU452
.LBB56:
.LBB55:
	.loc 2 245 18 is_stmt 0 view .LVU453
	ldr	r3, [r0]
.LBE55:
.LBE56:
	.loc 1 1185 18 view .LVU454
	ldr	r0, [r3, #20]
.LVL136:
	.loc 1 1185 18 view .LVU455
	b	SPD_GetAvrgMecSpeedUnit
.LVL137:
	.loc 1 1185 18 view .LVU456
	.cfi_endproc
.LFE1744:
	.size	MCI_GetAvrgMecSpeedUnit, .-MCI_GetAvrgMecSpeedUnit
	.section	.text.MCI_GetAvrgMecSpeed_F,"ax",%progbits
	.align	1
	.p2align 2,,3
	.weak	MCI_GetAvrgMecSpeed_F
	.syntax unified
	.thumb
	.thumb_func
	.fpu fpv4-sp-d16
	.type	MCI_GetAvrgMecSpeed_F, %function
MCI_GetAvrgMecSpeed_F:
.LVL138:
.LFB1745:
	.loc 1 1198 1 is_stmt 1 view -0
	.cfi_startproc
	@ args = 0, pretend = 0, frame = 0
	@ frame_needed = 0, uses_anonymous_args = 0
	.loc 1 1199 3 view .LVU458
	.loc 1 1208 5 view .LVU459
.LBB57:
.LBI57:
	.loc 2 240 39 view .LVU460
.LBB58:
	.loc 2 245 3 view .LVU461
	.loc 2 245 3 is_stmt 0 view .LVU462
.LBE58:
.LBE57:
	.loc 1 1209 5 is_stmt 1 view .LVU463
	.loc 1 1198 1 is_stmt 0 view .LVU464
	push	{r3, lr}
.LCFI16:
	.cfi_def_cfa_offset 8
	.cfi_offset 3, -8
	.cfi_offset 14, -4
.LBB60:
.LBB59:
	.loc 2 245 18 view .LVU465
	ldr	r3, [r0]
.LBE59:
.LBE60:
	.loc 1 1209 34 view .LVU466
	ldr	r0, [r3, #20]
.LVL139:
	.loc 1 1209 34 view .LVU467
	bl	SPD_GetAvrgMecSpeedUnit
.LVL140:
	.loc 1 1213 3 is_stmt 1 view .LVU468
	.loc 1 1209 25 is_stmt 0 view .LVU469
	vmov	s15, r0	@ int
	.loc 1 1209 71 view .LVU470
	vldr.32	s14, .L113
	.loc 1 1209 25 view .LVU471
	vcvt.f32.s32	s15, s15
	.loc 1 1209 21 view .LVU472
	vmov.f32	s0, #1.0e+1
	.loc 1 1209 71 view .LVU473
	vmul.f32	s15, s15, s14
	.loc 1 1214 1 view .LVU474
	vdiv.f32	s0, s15, s0
	pop	{r3, pc}
.L114:
	.align	2
.L113:
	.word	1114636288
	.cfi_endproc
.LFE1745:
	.size	MCI_GetAvrgMecSpeed_F, .-MCI_GetAvrgMecSpeed_F
	.section	.text.MCI_GetMecSpeedRefUnit,"ax",%progbits
	.align	1
	.p2align 2,,3
	.weak	MCI_GetMecSpeedRefUnit
	.syntax unified
	.thumb
	.thumb_func
	.fpu fpv4-sp-d16
	.type	MCI_GetMecSpeedRefUnit, %function
MCI_GetMecSpeedRefUnit:
.LVL141:
.LFB1746:
	.loc 1 1223 1 is_stmt 1 view -0
	.cfi_startproc
	@ args = 0, pretend = 0, frame = 0
	@ frame_needed = 0, uses_anonymous_args = 0
	@ link register save eliminated.
	.loc 1 1227 3 view .LVU476
	.loc 1 1227 11 is_stmt 0 view .LVU477
	ldr	r0, [r0]
.LVL142:
	.loc 1 1227 11 view .LVU478
	b	STC_GetMecSpeedRefUnit
.LVL143:
	.cfi_endproc
.LFE1746:
	.size	MCI_GetMecSpeedRefUnit, .-MCI_GetMecSpeedRefUnit
	.section	.text.MCI_GetMecSpeedRef_F,"ax",%progbits
	.align	1
	.p2align 2,,3
	.weak	MCI_GetMecSpeedRef_F
	.syntax unified
	.thumb
	.thumb_func
	.fpu fpv4-sp-d16
	.type	MCI_GetMecSpeedRef_F, %function
MCI_GetMecSpeedRef_F:
.LVL144:
.LFB1747:
	.loc 1 1238 1 is_stmt 1 view -0
	.cfi_startproc
	@ args = 0, pretend = 0, frame = 0
	@ frame_needed = 0, uses_anonymous_args = 0
	.loc 1 1243 3 view .LVU480
	.loc 1 1238 1 is_stmt 0 view .LVU481
	push	{r3, lr}
.LCFI17:
	.cfi_def_cfa_offset 8
	.cfi_offset 3, -8
	.cfi_offset 14, -4
	.loc 1 1243 22 view .LVU482
	ldr	r0, [r0]
.LVL145:
	.loc 1 1243 22 view .LVU483
	bl	STC_GetMecSpeedRefUnit
.LVL146:
	.loc 1 1243 13 view .LVU484
	vmov	s15, r0	@ int
	.loc 1 1243 60 view .LVU485
	vldr.32	s14, .L118
	.loc 1 1243 13 view .LVU486
	vcvt.f32.s32	s15, s15
	.loc 1 1243 78 view .LVU487
	vmov.f32	s0, #1.0e+1
	.loc 1 1243 60 view .LVU488
	vmul.f32	s15, s15, s14
	.loc 1 1245 1 view .LVU489
	vdiv.f32	s0, s15, s0
	pop	{r3, pc}
.L119:
	.align	2
.L118:
	.word	1114636288
	.cfi_endproc
.LFE1747:
	.size	MCI_GetMecSpeedRef_F, .-MCI_GetMecSpeedRef_F
	.section	.text.MCI_GetIab,"ax",%progbits
	.align	1
	.p2align 2,,3
	.weak	MCI_GetIab
	.syntax unified
	.thumb
	.thumb_func
	.fpu fpv4-sp-d16
	.type	MCI_GetIab, %function
MCI_GetIab:
.LVL147:
.LFB1748:
	.loc 1 1253 1 is_stmt 1 view -0
	.cfi_startproc
	@ args = 0, pretend = 0, frame = 8
	@ frame_needed = 0, uses_anonymous_args = 0
	@ link register save eliminated.
	.loc 1 1268 3 view .LVU491
	.loc 1 1268 28 is_stmt 0 view .LVU492
	ldr	r2, [r0, #4]
	ldr	r0, [r2]	@ unaligned
.LVL148:
	.loc 1 1268 28 view .LVU493
	movs	r3, #0
	uxth	r2, r0
	bfi	r3, r2, #0, #16
	lsrs	r0, r0, #16
	bfi	r3, r0, #16, #16
	.loc 1 1253 1 view .LVU494
	sub	sp, sp, #8
.LCFI18:
	.cfi_def_cfa_offset 8
	.loc 1 1270 1 view .LVU495
	mov	r0, r3
	add	sp, sp, #8
.LCFI19:
	.cfi_def_cfa_offset 0
	@ sp needed
	bx	lr
	.cfi_endproc
.LFE1748:
	.size	MCI_GetIab, .-MCI_GetIab
	.section	.text.MCI_GetIab_F,"ax",%progbits
	.align	1
	.p2align 2,,3
	.weak	MCI_GetIab_F
	.syntax unified
	.thumb
	.thumb_func
	.fpu fpv4-sp-d16
	.type	MCI_GetIab_F, %function
MCI_GetIab_F:
.LVL149:
.LFB1749:
	.loc 1 1273 1 is_stmt 1 view -0
	.cfi_startproc
	@ args = 0, pretend = 0, frame = 16
	@ frame_needed = 0, uses_anonymous_args = 0
	@ link register save eliminated.
	.loc 1 1275 3 view .LVU497
	.loc 1 1285 5 view .LVU498
	.loc 1 1285 39 is_stmt 0 view .LVU499
	ldr	r3, [r0, #4]
	.loc 1 1285 74 view .LVU500
	ldr	r2, [r0, #24]
	.loc 1 1286 23 view .LVU501
	ldrsh	r1, [r3, #2]
	.loc 1 1285 23 view .LVU502
	ldrsh	r3, [r3]
	.loc 1 1286 23 view .LVU503
	vmov	s1, r1	@ int
	.loc 1 1285 23 view .LVU504
	vmov	s15, r3	@ int
	.loc 1 1285 74 view .LVU505
	ldr	r3, [r2, #4]	@ unaligned
	.loc 1 1285 23 view .LVU506
	vcvt.f32.s32	s15, s15
	.loc 1 1285 74 view .LVU507
	vmov	s0, r3	@ int
.LVL150:
	.loc 1 1286 5 is_stmt 1 view .LVU508
	.loc 1 1286 23 is_stmt 0 view .LVU509
	vcvt.f32.s32	s1, s1
.LVL151:
	.loc 1 1290 3 is_stmt 1 view .LVU510
	.loc 1 1273 1 is_stmt 0 view .LVU511
	sub	sp, sp, #16
.LCFI20:
	.cfi_def_cfa_offset 16
	.loc 1 1292 1 view .LVU512
	vmul.f32	s1, s1, s0
	vmul.f32	s0, s15, s0
	add	sp, sp, #16
.LCFI21:
	.cfi_def_cfa_offset 0
	@ sp needed
	bx	lr
	.cfi_endproc
.LFE1749:
	.size	MCI_GetIab_F, .-MCI_GetIab_F
	.section	.text.MCI_GetIalphabeta,"ax",%progbits
	.align	1
	.p2align 2,,3
	.weak	MCI_GetIalphabeta
	.syntax unified
	.thumb
	.thumb_func
	.fpu fpv4-sp-d16
	.type	MCI_GetIalphabeta, %function
MCI_GetIalphabeta:
.LVL152:
.LFB1750:
	.loc 1 1300 1 is_stmt 1 view -0
	.cfi_startproc
	@ args = 0, pretend = 0, frame = 8
	@ frame_needed = 0, uses_anonymous_args = 0
	@ link register save eliminated.
	.loc 1 1315 3 view .LVU514
	.loc 1 1315 28 is_stmt 0 view .LVU515
	ldr	r2, [r0, #4]
	ldr	r0, [r2, #4]	@ unaligned
.LVL153:
	.loc 1 1315 28 view .LVU516
	movs	r3, #0
	uxth	r2, r0
	bfi	r3, r2, #0, #16
	lsrs	r0, r0, #16
	bfi	r3, r0, #16, #16
	.loc 1 1300 1 view .LVU517
	sub	sp, sp, #8
.LCFI22:
	.cfi_def_cfa_offset 8
	.loc 1 1317 1 view .LVU518
	mov	r0, r3
	add	sp, sp, #8
.LCFI23:
	.cfi_def_cfa_offset 0
	@ sp needed
	bx	lr
	.cfi_endproc
.LFE1750:
	.size	MCI_GetIalphabeta, .-MCI_GetIalphabeta
	.section	.text.MCI_GetIqd,"ax",%progbits
	.align	1
	.p2align 2,,3
	.weak	MCI_GetIqd
	.syntax unified
	.thumb
	.thumb_func
	.fpu fpv4-sp-d16
	.type	MCI_GetIqd, %function
MCI_GetIqd:
.LVL154:
.LFB1751:
	.loc 1 1325 1 is_stmt 1 view -0
	.cfi_startproc
	@ args = 0, pretend = 0, frame = 8
	@ frame_needed = 0, uses_anonymous_args = 0
	@ link register save eliminated.
	.loc 1 1340 3 view .LVU520
	.loc 1 1340 28 is_stmt 0 view .LVU521
	ldr	r2, [r0, #4]
	ldr	r0, [r2, #12]	@ unaligned
.LVL155:
	.loc 1 1340 28 view .LVU522
	movs	r3, #0
	uxth	r2, r0
	bfi	r3, r2, #0, #16
	lsrs	r0, r0, #16
	bfi	r3, r0, #16, #16
	.loc 1 1325 1 view .LVU523
	sub	sp, sp, #8
.LCFI24:
	.cfi_def_cfa_offset 8
	.loc 1 1342 1 view .LVU524
	mov	r0, r3
	add	sp, sp, #8
.LCFI25:
	.cfi_def_cfa_offset 0
	@ sp needed
	bx	lr
	.cfi_endproc
.LFE1751:
	.size	MCI_GetIqd, .-MCI_GetIqd
	.section	.text.MCI_GetIqd_F,"ax",%progbits
	.align	1
	.p2align 2,,3
	.weak	MCI_GetIqd_F
	.syntax unified
	.thumb
	.thumb_func
	.fpu fpv4-sp-d16
	.type	MCI_GetIqd_F, %function
MCI_GetIqd_F:
.LVL156:
.LFB1752:
	.loc 1 1350 1 is_stmt 1 view -0
	.cfi_startproc
	@ args = 0, pretend = 0, frame = 16
	@ frame_needed = 0, uses_anonymous_args = 0
	@ link register save eliminated.
	.loc 1 1351 3 view .LVU526
	.loc 1 1361 3 view .LVU527
	.loc 1 1361 37 is_stmt 0 view .LVU528
	ldr	r3, [r0, #4]
	.loc 1 1361 72 view .LVU529
	ldr	r2, [r0, #24]
	.loc 1 1361 21 view .LVU530
	ldrsh	r1, [r3, #14]
	.loc 1 1362 21 view .LVU531
	ldrsh	r3, [r3, #12]
	.loc 1 1361 21 view .LVU532
	vmov	s1, r1	@ int
	.loc 1 1362 21 view .LVU533
	vmov	s15, r3	@ int
	.loc 1 1361 72 view .LVU534
	ldr	r3, [r2, #4]	@ unaligned
	.loc 1 1362 21 view .LVU535
	vcvt.f32.s32	s15, s15
	.loc 1 1361 72 view .LVU536
	vmov	s0, r3	@ int
	.loc 1 1361 21 view .LVU537
	vcvt.f32.s32	s1, s1
.LVL157:
	.loc 1 1362 3 is_stmt 1 view .LVU538
	.loc 1 1366 3 view .LVU539
	.loc 1 1350 1 is_stmt 0 view .LVU540
	sub	sp, sp, #16
.LCFI26:
	.cfi_def_cfa_offset 16
	.loc 1 1367 1 view .LVU541
	vmul.f32	s1, s1, s0
	vmul.f32	s0, s15, s0
	add	sp, sp, #16
.LCFI27:
	.cfi_def_cfa_offset 0
	@ sp needed
	bx	lr
	.cfi_endproc
.LFE1752:
	.size	MCI_GetIqd_F, .-MCI_GetIqd_F
	.section	.text.MCI_GetIqdHF,"ax",%progbits
	.align	1
	.p2align 2,,3
	.weak	MCI_GetIqdHF
	.syntax unified
	.thumb
	.thumb_func
	.fpu fpv4-sp-d16
	.type	MCI_GetIqdHF, %function
MCI_GetIqdHF:
.LVL158:
.LFB1753:
	.loc 1 1376 1 is_stmt 1 view -0
	.cfi_startproc
	@ args = 0, pretend = 0, frame = 8
	@ frame_needed = 0, uses_anonymous_args = 0
	@ link register save eliminated.
	.loc 1 1391 3 view .LVU543
	.loc 1 1391 28 is_stmt 0 view .LVU544
	ldr	r2, [r0, #4]
	ldr	r0, [r2, #8]	@ unaligned
.LVL159:
	.loc 1 1391 28 view .LVU545
	movs	r3, #0
	uxth	r2, r0
	bfi	r3, r2, #0, #16
	lsrs	r0, r0, #16
	bfi	r3, r0, #16, #16
	.loc 1 1376 1 view .LVU546
	sub	sp, sp, #8
.LCFI28:
	.cfi_def_cfa_offset 8
	.loc 1 1393 1 view .LVU547
	mov	r0, r3
	add	sp, sp, #8
.LCFI29:
	.cfi_def_cfa_offset 0
	@ sp needed
	bx	lr
	.cfi_endproc
.LFE1753:
	.size	MCI_GetIqdHF, .-MCI_GetIqdHF
	.section	.text.MCI_GetIqdref,"ax",%progbits
	.align	1
	.p2align 2,,3
	.weak	MCI_GetIqdref
	.syntax unified
	.thumb
	.thumb_func
	.fpu fpv4-sp-d16
	.type	MCI_GetIqdref, %function
MCI_GetIqdref:
.LVL160:
.LFB1754:
	.loc 1 1401 1 is_stmt 1 view -0
	.cfi_startproc
	@ args = 0, pretend = 0, frame = 8
	@ frame_needed = 0, uses_anonymous_args = 0
	@ link register save eliminated.
	.loc 1 1416 3 view .LVU549
	.loc 1 1416 28 is_stmt 0 view .LVU550
	ldr	r2, [r0, #4]
	ldr	r0, [r2, #16]	@ unaligned
.LVL161:
	.loc 1 1416 28 view .LVU551
	movs	r3, #0
	uxth	r2, r0
	bfi	r3, r2, #0, #16
	lsrs	r0, r0, #16
	bfi	r3, r0, #16, #16
	.loc 1 1401 1 view .LVU552
	sub	sp, sp, #8
.LCFI30:
	.cfi_def_cfa_offset 8
	.loc 1 1418 1 view .LVU553
	mov	r0, r3
	add	sp, sp, #8
.LCFI31:
	.cfi_def_cfa_offset 0
	@ sp needed
	bx	lr
	.cfi_endproc
.LFE1754:
	.size	MCI_GetIqdref, .-MCI_GetIqdref
	.section	.text.MCI_GetIqdref_F,"ax",%progbits
	.align	1
	.p2align 2,,3
	.weak	MCI_GetIqdref_F
	.syntax unified
	.thumb
	.thumb_func
	.fpu fpv4-sp-d16
	.type	MCI_GetIqdref_F, %function
MCI_GetIqdref_F:
.LVL162:
.LFB1755:
	.loc 1 1426 1 is_stmt 1 view -0
	.cfi_startproc
	@ args = 0, pretend = 0, frame = 16
	@ frame_needed = 0, uses_anonymous_args = 0
	@ link register save eliminated.
	.loc 1 1427 3 view .LVU555
	.loc 1 1437 5 view .LVU556
	.loc 1 1437 42 is_stmt 0 view .LVU557
	ldr	r3, [r0, #4]
	.loc 1 1437 80 view .LVU558
	ldr	r2, [r0, #24]
	.loc 1 1437 26 view .LVU559
	ldrsh	r1, [r3, #18]
	.loc 1 1438 26 view .LVU560
	ldrsh	r3, [r3, #16]
	.loc 1 1437 26 view .LVU561
	vmov	s1, r1	@ int
	.loc 1 1438 26 view .LVU562
	vmov	s15, r3	@ int
	.loc 1 1437 80 view .LVU563
	ldr	r3, [r2, #4]	@ unaligned
	.loc 1 1438 26 view .LVU564
	vcvt.f32.s32	s15, s15
	.loc 1 1437 80 view .LVU565
	vmov	s0, r3	@ int
	.loc 1 1437 26 view .LVU566
	vcvt.f32.s32	s1, s1
.LVL163:
	.loc 1 1438 5 is_stmt 1 view .LVU567
	.loc 1 1442 3 view .LVU568
	.loc 1 1426 1 is_stmt 0 view .LVU569
	sub	sp, sp, #16
.LCFI32:
	.cfi_def_cfa_offset 16
	.loc 1 1443 1 view .LVU570
	vmul.f32	s1, s1, s0
	vmul.f32	s0, s15, s0
	add	sp, sp, #16
.LCFI33:
	.cfi_def_cfa_offset 0
	@ sp needed
	bx	lr
	.cfi_endproc
.LFE1755:
	.size	MCI_GetIqdref_F, .-MCI_GetIqdref_F
	.section	.text.MCI_GetVqd,"ax",%progbits
	.align	1
	.p2align 2,,3
	.weak	MCI_GetVqd
	.syntax unified
	.thumb
	.thumb_func
	.fpu fpv4-sp-d16
	.type	MCI_GetVqd, %function
MCI_GetVqd:
.LVL164:
.LFB1756:
	.loc 1 1451 1 is_stmt 1 view -0
	.cfi_startproc
	@ args = 0, pretend = 0, frame = 8
	@ frame_needed = 0, uses_anonymous_args = 0
	@ link register save eliminated.
	.loc 1 1466 3 view .LVU572
	.loc 1 1466 28 is_stmt 0 view .LVU573
	ldr	r2, [r0, #4]
	ldr	r0, [r2, #22]	@ unaligned
.LVL165:
	.loc 1 1466 28 view .LVU574
	movs	r3, #0
	uxth	r2, r0
	bfi	r3, r2, #0, #16
	lsrs	r0, r0, #16
	bfi	r3, r0, #16, #16
	.loc 1 1451 1 view .LVU575
	sub	sp, sp, #8
.LCFI34:
	.cfi_def_cfa_offset 8
	.loc 1 1468 1 view .LVU576
	mov	r0, r3
	add	sp, sp, #8
.LCFI35:
	.cfi_def_cfa_offset 0
	@ sp needed
	bx	lr
	.cfi_endproc
.LFE1756:
	.size	MCI_GetVqd, .-MCI_GetVqd
	.section	.text.MCI_GetValphabeta,"ax",%progbits
	.align	1
	.p2align 2,,3
	.weak	MCI_GetValphabeta
	.syntax unified
	.thumb
	.thumb_func
	.fpu fpv4-sp-d16
	.type	MCI_GetValphabeta, %function
MCI_GetValphabeta:
.LVL166:
.LFB1757:
	.loc 1 1476 1 is_stmt 1 view -0
	.cfi_startproc
	@ args = 0, pretend = 0, frame = 8
	@ frame_needed = 0, uses_anonymous_args = 0
	@ link register save eliminated.
	.loc 1 1491 3 view .LVU578
	.loc 1 1491 28 is_stmt 0 view .LVU579
	ldr	r2, [r0, #4]
	ldr	r0, [r2, #26]	@ unaligned
.LVL167:
	.loc 1 1491 28 view .LVU580
	movs	r3, #0
	uxth	r2, r0
	bfi	r3, r2, #0, #16
	lsrs	r0, r0, #16
	bfi	r3, r0, #16, #16
	.loc 1 1476 1 view .LVU581
	sub	sp, sp, #8
.LCFI36:
	.cfi_def_cfa_offset 8
	.loc 1 1493 1 view .LVU582
	mov	r0, r3
	add	sp, sp, #8
.LCFI37:
	.cfi_def_cfa_offset 0
	@ sp needed
	bx	lr
	.cfi_endproc
.LFE1757:
	.size	MCI_GetValphabeta, .-MCI_GetValphabeta
	.section	.text.MCI_GetElAngledpp,"ax",%progbits
	.align	1
	.p2align 2,,3
	.weak	MCI_GetElAngledpp
	.syntax unified
	.thumb
	.thumb_func
	.fpu fpv4-sp-d16
	.type	MCI_GetElAngledpp, %function
MCI_GetElAngledpp:
.LVL168:
.LFB1758:
	.loc 1 1502 1 is_stmt 1 view -0
	.cfi_startproc
	@ args = 0, pretend = 0, frame = 0
	@ frame_needed = 0, uses_anonymous_args = 0
	@ link register save eliminated.
	.loc 1 1506 3 view .LVU584
	.loc 1 1506 28 is_stmt 0 view .LVU585
	ldr	r3, [r0, #4]
	.loc 1 1508 1 view .LVU586
	ldrsh	r0, [r3, #32]
.LVL169:
	.loc 1 1508 1 view .LVU587
	bx	lr
	.cfi_endproc
.LFE1758:
	.size	MCI_GetElAngledpp, .-MCI_GetElAngledpp
	.section	.text.MCI_GetTeref,"ax",%progbits
	.align	1
	.p2align 2,,3
	.weak	MCI_GetTeref
	.syntax unified
	.thumb
	.thumb_func
	.fpu fpv4-sp-d16
	.type	MCI_GetTeref, %function
MCI_GetTeref:
.LVL170:
.LFB1759:
	.loc 1 1517 1 is_stmt 1 view -0
	.cfi_startproc
	@ args = 0, pretend = 0, frame = 0
	@ frame_needed = 0, uses_anonymous_args = 0
	@ link register save eliminated.
	.loc 1 1521 3 view .LVU589
	.loc 1 1521 28 is_stmt 0 view .LVU590
	ldr	r3, [r0, #4]
	.loc 1 1523 1 view .LVU591
	ldrsh	r0, [r3, #30]
.LVL171:
	.loc 1 1523 1 view .LVU592
	bx	lr
	.cfi_endproc
.LFE1759:
	.size	MCI_GetTeref, .-MCI_GetTeref
	.section	.text.MCI_GetTeref_F,"ax",%progbits
	.align	1
	.p2align 2,,3
	.weak	MCI_GetTeref_F
	.syntax unified
	.thumb
	.thumb_func
	.fpu fpv4-sp-d16
	.type	MCI_GetTeref_F, %function
MCI_GetTeref_F:
.LVL172:
.LFB1760:
	.loc 1 1531 1 is_stmt 1 view -0
	.cfi_startproc
	@ args = 0, pretend = 0, frame = 0
	@ frame_needed = 0, uses_anonymous_args = 0
	@ link register save eliminated.
	.loc 1 1535 3 view .LVU594
	.loc 1 1535 37 is_stmt 0 view .LVU595
	ldr	r2, [r0, #4]
	.loc 1 1535 72 view .LVU596
	ldr	r3, [r0, #24]
	.loc 1 1535 11 view .LVU597
	ldrsh	r2, [r2, #30]
	.loc 1 1535 72 view .LVU598
	ldr	r3, [r3, #4]	@ unaligned
	.loc 1 1535 11 view .LVU599
	vmov	s15, r2	@ int
	.loc 1 1535 72 view .LVU600
	vmov	s0, r3	@ int
	.loc 1 1535 11 view .LVU601
	vcvt.f32.s32	s15, s15
	.loc 1 1537 1 view .LVU602
	vmul.f32	s0, s15, s0
	bx	lr
	.cfi_endproc
.LFE1760:
	.size	MCI_GetTeref_F, .-MCI_GetTeref_F
	.section	.text.MCI_GetPhaseCurrentAmplitude,"ax",%progbits
	.align	1
	.p2align 2,,3
	.weak	MCI_GetPhaseCurrentAmplitude
	.syntax unified
	.thumb
	.thumb_func
	.fpu fpv4-sp-d16
	.type	MCI_GetPhaseCurrentAmplitude, %function
MCI_GetPhaseCurrentAmplitude:
.LVL173:
.LFB1761:
	.loc 1 1547 1 is_stmt 1 view -0
	.cfi_startproc
	@ args = 0, pretend = 0, frame = 0
	@ frame_needed = 0, uses_anonymous_args = 0
	@ link register save eliminated.
	.loc 1 1548 3 view .LVU604
	.loc 1 1549 3 view .LVU605
	.loc 1 1559 3 view .LVU606
.LBB61:
.LBB62:
	.file 4 "Inc/mc_math.h"
	.loc 4 304 3 is_stmt 0 view .LVU607
	ldr	r3, [r0, #4]
	ldr	r2, [r3, #4]	@ unaligned
.LVL174:
	.loc 4 304 3 view .LVU608
.LBE62:
.LBE61:
	.loc 1 1560 3 is_stmt 1 view .LVU609
.LBB74:
.LBI61:
	.loc 4 298 23 view .LVU610
.LBB73:
	.loc 4 300 3 view .LVU611
	.loc 4 301 3 view .LVU612
.LBB63:
.LBI63:
	.file 5 "Drivers/CMSIS/Include/cmsis_gcc.h"
	.loc 5 207 27 view .LVU613
.LBB64:
	.loc 5 209 3 view .LVU614
	.syntax unified
@ 209 "Drivers/CMSIS/Include/cmsis_gcc.h" 1
	cpsid i
@ 0 "" 2
	.thumb
	.syntax unified
.LBE64:
.LBE63:
	.loc 4 303 3 view .LVU615
	ldr	r3, .L146
	ldr	r1, .L146+4
	str	r1, [r3]
	.loc 4 304 3 view .LVU616
.LVL175:
.LBB65:
.LBI65:
	.file 6 "Drivers/STM32G4xx_HAL_Driver/Inc/stm32g4xx_ll_cordic.h"
	.loc 6 732 22 view .LVU617
.LBB66:
	.loc 6 734 3 view .LVU618
	str	r2, [r3, #4]
.LVL176:
.L144:
	.loc 6 734 3 is_stmt 0 view .LVU619
.LBE66:
.LBE65:
	.loc 4 309 3 is_stmt 1 view .LVU620
	.loc 4 306 8 view .LVU621
.LBB67:
.LBI67:
	.loc 6 712 26 view .LVU622
.LBB68:
	.loc 6 714 3 view .LVU623
	.loc 6 714 12 is_stmt 0 view .LVU624
	ldr	r2, [r3]
	.loc 6 714 79 view .LVU625
	cmp	r2, #0
	bge	.L144
.LVL177:
	.loc 6 714 79 view .LVU626
.LBE68:
.LBE67:
	.loc 4 311 3 is_stmt 1 view .LVU627
.LBB69:
.LBI69:
	.loc 6 743 26 view .LVU628
.LBB70:
	.loc 6 745 3 view .LVU629
	.loc 6 745 10 is_stmt 0 view .LVU630
	ldr	r0, [r3, #8]
.LVL178:
	.loc 6 745 10 view .LVU631
.LBE70:
.LBE69:
	.loc 4 312 3 is_stmt 1 view .LVU632
.LBB71:
.LBI71:
	.loc 5 196 27 view .LVU633
.LBB72:
	.loc 5 198 3 view .LVU634
	.syntax unified
@ 198 "Drivers/CMSIS/Include/cmsis_gcc.h" 1
	cpsie i
@ 0 "" 2
	.thumb
	.syntax unified
.LBE72:
.LBE71:
	.loc 4 313 3 view .LVU635
.LVL179:
	.loc 4 313 3 is_stmt 0 view .LVU636
.LBE73:
.LBE74:
	.loc 1 1565 3 is_stmt 1 view .LVU637
	.loc 1 1566 1 is_stmt 0 view .LVU638
	sxth	r0, r0
.LVL180:
	.loc 1 1566 1 view .LVU639
	bx	lr
.L147:
	.align	2
.L146:
	.word	1073875968
	.word	6291555
	.cfi_endproc
.LFE1761:
	.size	MCI_GetPhaseCurrentAmplitude, .-MCI_GetPhaseCurrentAmplitude
	.section	.text.MCI_GetPhaseVoltageAmplitude,"ax",%progbits
	.align	1
	.p2align 2,,3
	.weak	MCI_GetPhaseVoltageAmplitude
	.syntax unified
	.thumb
	.thumb_func
	.fpu fpv4-sp-d16
	.type	MCI_GetPhaseVoltageAmplitude, %function
MCI_GetPhaseVoltageAmplitude:
.LVL181:
.LFB1762:
	.loc 1 1576 1 is_stmt 1 view -0
	.cfi_startproc
	@ args = 0, pretend = 0, frame = 0
	@ frame_needed = 0, uses_anonymous_args = 0
	.loc 1 1577 3 view .LVU641
	.loc 1 1586 5 view .LVU642
	.loc 1 1587 5 view .LVU643
	.loc 1 1588 5 view .LVU644
	.loc 1 1590 5 view .LVU645
	.loc 1 1590 28 is_stmt 0 view .LVU646
	ldr	r2, [r0, #4]
	.loc 1 1576 1 view .LVU647
	push	{r3, lr}
.LCFI38:
	.cfi_def_cfa_offset 8
	.cfi_offset 3, -8
	.cfi_offset 14, -4
	.loc 1 1590 19 view .LVU648
	ldrsh	r3, [r2, #28]
	ldrsh	r0, [r2, #26]
.LVL182:
	.loc 1 1591 5 is_stmt 1 view .LVU649
	.loc 1 1592 5 view .LVU650
	.loc 1 1594 5 view .LVU651
	.loc 1 1592 11 is_stmt 0 view .LVU652
	mul	r3, r3, r3
.LVL183:
	.loc 1 1595 5 is_stmt 1 view .LVU653
	.loc 1 1595 13 is_stmt 0 view .LVU654
	mla	r0, r0, r0, r3
.LVL184:
	.loc 1 1595 13 view .LVU655
	bl	MCM_Sqrt
.LVL185:
	.loc 1 1597 5 is_stmt 1 view .LVU656
	.loc 1 1601 5 view .LVU657
	.loc 1 1605 3 view .LVU658
	.loc 1 1601 15 is_stmt 0 view .LVU659
	movw	r3, #32767
	cmp	r0, r3
	it	ge
	movge	r0, r3
.LVL186:
	.loc 1 1606 1 view .LVU660
	sxth	r0, r0
	pop	{r3, pc}
	.cfi_endproc
.LFE1762:
	.size	MCI_GetPhaseVoltageAmplitude, .-MCI_GetPhaseVoltageAmplitude
	.section	.text.MCI_Clear_Iqdref,"ax",%progbits
	.align	1
	.p2align 2,,3
	.weak	MCI_Clear_Iqdref
	.syntax unified
	.thumb
	.thumb_func
	.fpu fpv4-sp-d16
	.type	MCI_Clear_Iqdref, %function
MCI_Clear_Iqdref:
.LVL187:
.LFB1763:
	.loc 1 1613 1 is_stmt 1 view -0
	.cfi_startproc
	@ args = 0, pretend = 0, frame = 0
	@ frame_needed = 0, uses_anonymous_args = 0
	.loc 1 1622 5 view .LVU662
	.loc 1 1613 1 is_stmt 0 view .LVU663
	push	{r4, lr}
.LCFI39:
	.cfi_def_cfa_offset 8
	.cfi_offset 4, -8
	.cfi_offset 14, -4
	.loc 1 1622 12 view .LVU664
	ldrd	r0, r4, [r0]
.LVL188:
	.loc 1 1622 33 view .LVU665
	bl	STC_GetDefaultIqdref
.LVL189:
	ubfx	r3, r0, #16, #16
	strh	r0, [r4, #16]	@ movhi
	strh	r3, [r4, #18]	@ movhi
	.loc 1 1626 1 view .LVU666
	pop	{r4, pc}
	.cfi_endproc
.LFE1763:
	.size	MCI_Clear_Iqdref, .-MCI_Clear_Iqdref
	.section	.text.MCI_Clear_PerfMeasure,"ax",%progbits
	.align	1
	.p2align 2,,3
	.weak	MCI_Clear_PerfMeasure
	.syntax unified
	.thumb
	.thumb_func
	.fpu fpv4-sp-d16
	.type	MCI_Clear_PerfMeasure, %function
MCI_Clear_PerfMeasure:
.LVL190:
.LFB1764:
	.loc 1 1628 1 is_stmt 1 view -0
	.cfi_startproc
	@ args = 0, pretend = 0, frame = 0
	@ frame_needed = 0, uses_anonymous_args = 0
	@ link register save eliminated.
	.loc 1 1637 5 view .LVU668
	ldr	r0, [r0, #40]
.LVL191:
	.loc 1 1637 5 is_stmt 0 view .LVU669
	b	MC_Perf_Clear
.LVL192:
	.loc 1 1637 5 view .LVU670
	.cfi_endproc
.LFE1764:
	.size	MCI_Clear_PerfMeasure, .-MCI_Clear_PerfMeasure
	.text
.Letext0:
	.file 7 "/usr/share/gcc-arm-none-eabi-10-2020-q4-major/arm-none-eabi/include/machine/_default_types.h"
	.file 8 "/usr/share/gcc-arm-none-eabi-10-2020-q4-major/arm-none-eabi/include/sys/_stdint.h"
	.file 9 "Drivers/CMSIS/Device/ST/STM32G4xx/Include/stm32g431xx.h"
	.file 10 "Drivers/STM32G4xx_HAL_Driver/Inc/stm32g4xx_ll_tim.h"
	.file 11 "Drivers/STM32G4xx_HAL_Driver/Inc/stm32g4xx_ll_usart.h"
	.file 12 "Drivers/STM32G4xx_HAL_Driver/Inc/stm32g4xx_ll_dma.h"
	.file 13 "Inc/mc_type.h"
	.file 14 "MCSDK_v6.3.2-Full/MotorControl/MCSDK/MCLib/Any/Inc/pid_regulator.h"
	.file 15 "Inc/pwm_curr_fdbk.h"
	.file 16 "Inc/mc_perf.h"
	.file 17 "Inc/mc_interface.h"