	.cpu cortex-m4
	.eabi_attribute 27, 1
	.eabi_attribute 28, 1
	.eabi_attribute 20, 1
	.eabi_attribute 21, 1
	.eabi_attribute 23, 3
	.eabi_attribute 24, 1
	.eabi_attribute 25, 1
	.eabi_attribute 26, 1
	.eabi_attribute 30, 2
	.eabi_attribute 34, 1
	.eabi_attribute 18, 4
	.file	"ntc_temperature_sensor.c"
	.text
.Ltext0:
	.cfi_sections	.debug_frame
	.section	.text.NTC_SetFaultState,"ax",%progbits
	.align	1
	.p2align 2,,3
	.weak	NTC_SetFaultState
	.arch armv7e-m
	.syntax unified
	.thumb
	.thumb_func
	.fpu fpv4-sp-d16
	.type	NTC_SetFaultState, %function
NTC_SetFaultState:
.LVL0:
.LFB1435:
	.file 1 "MCSDK_v6.3.2-Full/MotorControl/MCSDK/MCLib/Any/Src/ntc_temperature_sensor.c"
	.loc 1 73 1 view -0
	.cfi_startproc
	@ args = 0, pretend = 0, frame = 0
	@ frame_needed = 0, uses_anonymous_args = 0
	@ link register save eliminated.
	.loc 1 74 3 view .LVU1
	.loc 1 83 5 view .LVU2
	.loc 1 83 8 is_stmt 0 view .LVU3
	ldrsh	r3, [r0, #16]
	.loc 1 85 10 view .LVU4
	ldrh	r2, [r0, #12]
	.loc 1 83 8 view .LVU5
	cmp	r3, #0
	.loc 1 85 18 view .LVU6
	ldrh	r3, [r0, #2]
	.loc 1 83 8 view .LVU7
	ble	.L2
	.loc 1 85 7 is_stmt 1 view .LVU8
	.loc 1 85 10 is_stmt 0 view .LVU9
	cmp	r2, r3
	bcc	.L7
	.loc 1 89 12 is_stmt 1 view .LVU10
	.loc 1 89 15 is_stmt 0 view .LVU11
	ldrh	r2, [r0, #14]
	cmp	r2, r3
	bls	.L4
.L6:
	.loc 1 91 16 view .LVU12
	movs	r0, #0
.LVL1:
	.loc 1 91 16 view .LVU13
	bx	lr
.LVL2:
.L7:
	.loc 1 87 16 view .LVU14
	movs	r0, #8
.LVL3:
	.loc 1 116 3 is_stmt 1 view .LVU15
	.loc 1 117 1 is_stmt 0 view .LVU16
	bx	lr
.LVL4:
.L2:
.LBB6:
.LBI6:
	.loc 1 72 17 is_stmt 1 view .LVU17
.LBB7:
	.loc 1 100 7 view .LVU18
	.loc 1 100 10 is_stmt 0 view .LVU19
	cmp	r2, r3
	bhi	.L7
	.loc 1 104 12 is_stmt 1 view .LVU20
	.loc 1 104 15 is_stmt 0 view .LVU21
	ldrh	r2, [r0, #14]
	cmp	r2, r3
	bcc	.L6
.LVL5:
.L4:
	.loc 1 104 15 view .LVU22
.LBE7:
.LBE6:
	.loc 1 95 9 is_stmt 1 view .LVU23
	.loc 1 95 16 is_stmt 0 view .LVU24
	ldrh	r0, [r0, #8]
.LVL6:
	.loc 1 95 16 view .LVU25
	bx	lr
	.cfi_endproc
.LFE1435:
	.size	NTC_SetFaultState, .-NTC_SetFaultState
	.section	.text.NTC_Init,"ax",%progbits
	.align	1
	.p2align 2,,3
	.weak	NTC_Init
	.syntax unified
	.thumb
	.thumb_func
	.fpu fpv4-sp-d16
	.type	NTC_Init, %function
NTC_Init:
.LVL7:
.LFB1436:
	.loc 1 128 1 is_stmt 1 view -0
	.cfi_startproc
	@ args = 0, pretend = 0, frame = 0
	@ frame_needed = 0, uses_anonymous_args = 0
	@ link register save eliminated.
	.loc 1 137 5 view .LVU27
	.loc 1 137 8 is_stmt 0 view .LVU28
	ldrb	r3, [r0]	@ zero_extendqisi2
	cbnz	r3, .L10
	.loc 1 139 7 is_stmt 1 view .LVU29
.LVL8:
.LBB8:
.LBI8:
	.loc 1 156 20 view .LVU30
.LBB9:
	.loc 1 166 5 view .LVU31
	.loc 1 166 8 is_stmt 0 view .LVU32
	ldrsh	r2, [r0, #16]
	cmp	r2, #0
	ble	.L11
.LBE9:
.LBE8:
	.loc 1 144 7 is_stmt 1 view .LVU33
	.loc 1 144 26 is_stmt 0 view .LVU34
	strh	r3, [r0, #2]	@ movhi
.LVL9:
	.loc 1 149 1 view .LVU35
	bx	lr
.L10:
	.loc 1 143 7 is_stmt 1 view .LVU36
	.loc 1 144 26 is_stmt 0 view .LVU37
	ldrh	r3, [r0, #4]
	strh	r3, [r0, #2]	@ movhi
	.loc 1 143 28 view .LVU38
	movs	r2, #0
	strh	r2, [r0, #8]	@ movhi
	.loc 1 144 7 is_stmt 1 view .LVU39
	.loc 1 149 1 is_stmt 0 view .LVU40
	bx	lr
.LVL10:
.L11:
.LBB11:
.LBB10:
	.loc 1 172 7 is_stmt 1 view .LVU41
	.loc 1 172 26 is_stmt 0 view .LVU42
	movw	r3, #65535
	strh	r3, [r0, #2]	@ movhi
	bx	lr
.LBE10:
.LBE11:
	.cfi_endproc
.LFE1436:
	.size	NTC_Init, .-NTC_Init
	.section	.text.NTC_CalcAvTemp,"ax",%progbits
	.align	1
	.p2align 2,,3
	.weak	NTC_CalcAvTemp
	.syntax unified
	.thumb
	.thumb_func
	.fpu fpv4-sp-d16
	.type	NTC_CalcAvTemp, %function
NTC_CalcAvTemp:
.LVL11:
.LFB1438:
	.loc 1 187 1 is_stmt 1 view -0
	.cfi_startproc
	@ args = 0, pretend = 0, frame = 0
	@ frame_needed = 0, uses_anonymous_args = 0
	.loc 1 188 3 view .LVU44
	.loc 1 197 5 view .LVU45
	.loc 1 187 1 is_stmt 0 view .LVU46
	push	{r4, lr}
.LCFI0:
	.cfi_def_cfa_offset 8
	.cfi_offset 4, -8
	.cfi_offset 14, -4
	.loc 1 197 8 view .LVU47
	ldrb	r3, [r0]	@ zero_extendqisi2
	.loc 1 187 1 view .LVU48
	mov	r4, r0
	.loc 1 197 8 view .LVU49
	cbnz	r3, .L15
.LBB12:
	.loc 1 199 7 is_stmt 1 view .LVU50
	.loc 1 200 7 view .LVU51
.LVL12:
	.loc 1 202 7 view .LVU52
	.loc 1 202 10 is_stmt 0 view .LVU53
	movw	r3, #65535
	cmp	r1, r3
	beq	.L16
.LBB13:
	.loc 1 208 9 is_stmt 1 view .LVU54
	.loc 1 209 9 view .LVU55
	.loc 1 209 17 is_stmt 0 view .LVU56
	ldrh	r3, [r0, #10]
	.loc 1 210 19 view .LVU57
	ldrh	r2, [r0, #2]
	.loc 1 209 15 view .LVU58
	subs	r0, r3, #1
.LVL13:
	.loc 1 210 9 is_stmt 1 view .LVU59
	.loc 1 211 9 view .LVU60
	.loc 1 211 15 is_stmt 0 view .LVU61
	mla	r1, r0, r2, r1
.LVL14:
	.loc 1 212 9 is_stmt 1 view .LVU62
	.loc 1 214 9 view .LVU63
	.loc 1 212 15 is_stmt 0 view .LVU64
	udiv	r1, r1, r3
.LVL15:
	.loc 1 214 30 view .LVU65
	strh	r1, [r4, #2]	@ movhi
.LVL16:
.L16:
	.loc 1 214 30 view .LVU66
.LBE13:
	.loc 1 217 7 is_stmt 1 view .LVU67
	.loc 1 217 30 is_stmt 0 view .LVU68
	mov	r0, r4
	bl	NTC_SetFaultState
.LVL17:
	.loc 1 217 28 view .LVU69
	strh	r0, [r4, #8]	@ movhi
.LBE12:
	.loc 1 223 5 is_stmt 1 view .LVU70
.LVL18:
	.loc 1 227 3 view .LVU71
	.loc 1 228 1 is_stmt 0 view .LVU72
	pop	{r4, pc}
.LVL19:
.L15:
	.loc 1 221 7 is_stmt 1 view .LVU73
	.loc 1 221 28 is_stmt 0 view .LVU74
	movs	r0, #0
.LVL20:
	.loc 1 221 28 view .LVU75
	strh	r0, [r4, #8]	@ movhi
	.loc 1 223 5 is_stmt 1 view .LVU76
.LVL21:
	.loc 1 227 3 view .LVU77
	.loc 1 228 1 is_stmt 0 view .LVU78
	pop	{r4, pc}
	.loc 1 228 1 view .LVU79
	.cfi_endproc
.LFE1438:
	.size	NTC_CalcAvTemp, .-NTC_CalcAvTemp
	.section	.text.NTC_GetAvTemp_d,"ax",%progbits
	.align	1
	.p2align 2,,3
	.weak	NTC_GetAvTemp_d
	.syntax unified
	.thumb
	.thumb_func
	.fpu fpv4-sp-d16
	.type	NTC_GetAvTemp_d, %function
NTC_GetAvTemp_d:
.LVL22:
.LFB1439:
	.loc 1 238 1 is_stmt 1 view -0
	.cfi_startproc
	@ args = 0, pretend = 0, frame = 0
	@ frame_needed = 0, uses_anonymous_args = 0
	@ link register save eliminated.
	.loc 1 242 3 view .LVU81
	.loc 1 244 1 is_stmt 0 view .LVU82
	ldrh	r0, [r0, #2]
.LVL23:
	.loc 1 244 1 view .LVU83
	bx	lr
	.cfi_endproc
.LFE1439:
	.size	NTC_GetAvTemp_d, .-NTC_GetAvTemp_d
	.section	.text.NTC_GetAvTemp_C,"ax",%progbits
	.align	1
	.p2align 2,,3
	.weak	NTC_GetAvTemp_C
	.syntax unified
	.thumb
	.thumb_func
	.fpu fpv4-sp-d16
	.type	NTC_GetAvTemp_C, %function
NTC_GetAvTemp_C:
.LVL24:
.LFB1440:
	.loc 1 254 1 is_stmt 1 view -0
	.cfi_startproc
	@ args = 0, pretend = 0, frame = 0
	@ frame_needed = 0, uses_anonymous_args = 0
	@ link register save eliminated.
	.loc 1 255 3 view .LVU85
	.loc 1 264 5 view .LVU86
	.loc 1 266 5 view .LVU87
	.loc 1 266 8 is_stmt 0 view .LVU88
	ldrb	r3, [r0]	@ zero_extendqisi2
	cbnz	r3, .L21
	.loc 1 268 7 is_stmt 1 view .LVU89
	.loc 1 268 13 is_stmt 0 view .LVU90
	ldrh	r2, [r0, #2]
.LVL25:
	.loc 1 269 7 is_stmt 1 view .LVU91
	.loc 1 269 13 is_stmt 0 view .LVU92
	ldr	r1, [r0, #20]
	.loc 1 270 23 view .LVU93
	ldrsh	r3, [r0, #16]
	.loc 1 273 31 view .LVU94
	ldrh	r0, [r0, #24]
.LVL26:
	.loc 1 269 13 view .LVU95
	subs	r2, r2, r1
.LVL27:
	.loc 1 270 7 is_stmt 1 view .LVU96
	.loc 1 273 7 view .LVU97
	.loc 1 270 13 is_stmt 0 view .LVU98
	mul	r3, r2, r3
	.loc 1 273 13 view .LVU99
	add	r0, r0, r3, asr #16
.LVL28:
	.loc 1 282 5 is_stmt 1 view .LVU100
	.loc 1 286 3 view .LVU101
	.loc 1 287 1 is_stmt 0 view .LVU102
	sxth	r0, r0
.LVL29:
	.loc 1 287 1 view .LVU103
	bx	lr
.LVL30:
.L21:
	.loc 1 280 7 is_stmt 1 view .LVU104
	.loc 1 280 13 is_stmt 0 view .LVU105
	ldrh	r0, [r0, #6]
.LVL31:
	.loc 1 282 5 is_stmt 1 view .LVU106
	.loc 1 286 3 view .LVU107
	.loc 1 287 1 is_stmt 0 view .LVU108
	sxth	r0, r0
.LVL32:
	.loc 1 287 1 view .LVU109
	bx	lr
	.cfi_endproc
.LFE1440:
	.size	NTC_GetAvTemp_C, .-NTC_GetAvTemp_C
	.section	.text.NTC_CheckTemp,"ax",%progbits
	.align	1
	.p2align 2,,3
	.weak	NTC_CheckTemp
	.syntax unified
	.thumb
	.thumb_func
	.fpu fpv4-sp-d16
	.type	NTC_CheckTemp, %function
NTC_CheckTemp:
.LVL33:
.LFB1441:
	.loc 1 300 1 is_stmt 1 view -0
	.cfi_startproc
	@ args = 0, pretend = 0, frame = 0
	@ frame_needed = 0, uses_anonymous_args = 0
	@ link register save eliminated.
	.loc 1 304 3 view .LVU111
	.loc 1 307 1 is_stmt 0 view .LVU112
	ldrh	r0, [r0, #8]
.LVL34:
	.loc 1 307 1 view .LVU113
	bx	lr
	.cfi_endproc
.LFE1441:
	.size	NTC_CheckTemp, .-NTC_CheckTemp
	.text
.Letext0:
	.file 2 "/usr/share/gcc-arm-none-eabi-10-2020-q4-major/arm-none-eabi/include/machine/_default_types.h"
	.file 3 "/usr/share/gcc-arm-none-eabi-10-2020-q4-major/arm-none-eabi/include/sys/_stdint.h"
	.file 4 "Drivers/STM32G4xx_HAL_Driver/Inc/stm32g4xx_ll_tim.h"
	.file 5 "Drivers/STM32G4xx_HAL_Driver/Inc/stm32g4xx_ll_usart.h"
	.file 6 "Drivers/STM32G4xx_HAL_Driver/Inc/stm32g4xx_ll_dma.h"
	.file 7 "Inc/mc_type.h"
	.file 8 "MCSDK_v6.3.2-Full/MotorControl/MCSDK/MCLib/Any/Inc/ntc_temperature_sensor.h"