	.cpu cortex-m4
	.eabi_attribute 27, 1
	.eabi_attribute 28, 1
	.eabi_attribute 20, 1
	.eabi_attribute 21, 1
	.eabi_attribute 23, 3
	.eabi_attribute 24, 1
	.eabi_attribute 25, 1
	.eabi_attribute 26, 1
	.eabi_attribute 30, 2
	.eabi_attribute 34, 1
	.eabi_attribute 18, 4
	.file	"open_loop.c"
	.text
.Ltext0:
	.cfi_sections	.debug_frame
	.section	.text.OL_Init,"ax",%progbits
	.align	1
	.p2align 2,,3
	.weak	OL_Init
	.arch armv7e-m
	.syntax unified
	.thumb
	.thumb_func
	.fpu fpv4-sp-d16
	.type	OL_Init, %function
OL_Init:
.LVL0:
.LFB1442:
	.file 1 "MCSDK_v6.3.2-Full/MotorControl/MCSDK/MCLib/Any/Src/open_loop.c"
	.loc 1 51 1 view -0
	.cfi_startproc
	@ args = 0, pretend = 0, frame = 0
	@ frame_needed = 0, uses_anonymous_args = 0
	@ link register save eliminated.
	.loc 1 60 5 view .LVU1
	.loc 1 60 23 is_stmt 0 view .LVU2
	ldrh	r3, [r0]
	strh	r3, [r0, #8]	@ movhi
	.loc 1 61 5 is_stmt 1 view .LVU3
	.loc 1 61 19 is_stmt 0 view .LVU4
	str	r1, [r0, #12]
	.loc 1 65 1 view .LVU5
	bx	lr
	.cfi_endproc
.LFE1442:
	.size	OL_Init, .-OL_Init
	.section	.text.OL_VqdConditioning,"ax",%progbits
	.align	1
	.p2align 2,,3
	.weak	OL_VqdConditioning
	.syntax unified
	.thumb
	.thumb_func
	.fpu fpv4-sp-d16
	.type	OL_VqdConditioning, %function
OL_VqdConditioning:
.LVL1:
.LFB1443:
	.loc 1 74 1 is_stmt 1 view -0
	.cfi_startproc
	@ args = 0, pretend = 0, frame = 8
	@ frame_needed = 0, uses_anonymous_args = 0
	@ link register save eliminated.
	.loc 1 75 3 view .LVU7
	.loc 1 76 3 view .LVU8
	.loc 1 80 3 view .LVU9
	.loc 1 82 3 view .LVU10
	.loc 1 83 1 is_stmt 0 view .LVU11
	ldrh	r0, [r0, #8]
.LVL2:
	.loc 1 74 1 view .LVU12
	sub	sp, sp, #8
.LCFI0:
	.cfi_def_cfa_offset 8
	.loc 1 83 1 view .LVU13
	add	sp, sp, #8
.LCFI1:
	.cfi_def_cfa_offset 0
	@ sp needed
	bx	lr
	.cfi_endproc
.LFE1443:
	.size	OL_VqdConditioning, .-OL_VqdConditioning
	.section	.text.OL_Calc,"ax",%progbits
	.align	1
	.p2align 2,,3
	.weak	OL_Calc
	.syntax unified
	.thumb
	.thumb_func
	.fpu fpv4-sp-d16
	.type	OL_Calc, %function
OL_Calc:
.LVL3:
.LFB1444:
	.loc 1 91 1 is_stmt 1 view -0
	.cfi_startproc
	@ args = 0, pretend = 0, frame = 0
	@ frame_needed = 0, uses_anonymous_args = 0
	@ link register save eliminated.
	.loc 1 100 5 view .LVU15
	.loc 1 100 8 is_stmt 0 view .LVU16
	ldrb	r3, [r0, #2]	@ zero_extendqisi2
	cbz	r3, .L5
	.loc 1 103 7 is_stmt 1 view .LVU17
	.loc 1 103 32 is_stmt 0 view .LVU18
	ldr	r3, [r0, #12]
	.loc 1 105 69 view .LVU19
	ldrsh	r1, [r0, #6]
	.loc 1 103 32 view .LVU20
	ldrsh	r3, [r3, #12]
	.loc 1 105 48 view .LVU21
	ldrh	r2, [r0, #4]
	.loc 1 103 10 view .LVU22
	cmp	r3, #0
	blt	.L7
	.loc 1 105 9 is_stmt 1 view .LVU23
	.loc 1 105 48 is_stmt 0 view .LVU24
	mla	r3, r1, r3, r2
	.loc 1 105 27 view .LVU25
	strh	r3, [r0, #8]	@ movhi
	bx	lr
.L7:
	.loc 1 109 9 is_stmt 1 view .LVU26
	.loc 1 109 48 is_stmt 0 view .LVU27
	mls	r3, r1, r3, r2
	.loc 1 109 27 view .LVU28
	strh	r3, [r0, #8]	@ movhi
	.loc 1 115 5 is_stmt 1 view .LVU29
.L5:
	.loc 1 119 1 is_stmt 0 view .LVU30
	bx	lr
	.cfi_endproc
.LFE1444:
	.size	OL_Calc, .-OL_Calc
	.section	.text.OL_VF,"ax",%progbits
	.align	1
	.p2align 2,,3
	.weak	OL_VF
	.syntax unified
	.thumb
	.thumb_func
	.fpu fpv4-sp-d16
	.type	OL_VF, %function
OL_VF:
.LVL4:
.LFB1445:
	.loc 1 127 1 is_stmt 1 view -0
	.cfi_startproc
	@ args = 0, pretend = 0, frame = 0
	@ frame_needed = 0, uses_anonymous_args = 0
	@ link register save eliminated.
	.loc 1 136 5 view .LVU32
	.loc 1 136 21 is_stmt 0 view .LVU33
	strb	r1, [r0, #2]
	.loc 1 140 1 view .LVU34
	bx	lr
	.cfi_endproc
.LFE1445:
	.size	OL_VF, .-OL_VF
	.text
.Letext0:
	.file 2 "/usr/share/gcc-arm-none-eabi-10-2020-q4-major/arm-none-eabi/include/machine/_default_types.h"
	.file 3 "/usr/share/gcc-arm-none-eabi-10-2020-q4-major/arm-none-eabi/include/sys/_stdint.h"
	.file 4 "Drivers/STM32G4xx_HAL_Driver/Inc/stm32g4xx_ll_tim.h"
	.file 5 "Drivers/STM32G4xx_HAL_Driver/Inc/stm32g4xx_ll_usart.h"
	.file 6 "Drivers/STM32G4xx_HAL_Driver/Inc/stm32g4xx_ll_dma.h"
	.file 7 "Inc/mc_type.h"
	.file 8 "MCSDK_v6.3.2-Full/MotorControl/MCSDK/MCLib/Any/Inc/speed_pos_fdbk.h"
	.file 9 "MCSDK_v6.3.2-Full/MotorControl/MCSDK/MCLib/Any/Inc/virtual_speed_sensor.h"
	.file 10 "MCSDK_v6.3.2-Full/MotorControl/MCSDK/MCLib/Any/Inc/open_loop.h"