	.cpu cortex-m4
	.eabi_attribute 27, 1
	.eabi_attribute 28, 1
	.eabi_attribute 20, 1
	.eabi_attribute 21, 1
	.eabi_attribute 23, 3
	.eabi_attribute 24, 1
	.eabi_attribute 25, 1
	.eabi_attribute 26, 1
	.eabi_attribute 30, 2
	.eabi_attribute 34, 1
	.eabi_attribute 18, 4
	.file	"port.c"
	.text
.Ltext0:
	.cfi_sections	.debug_frame
	.section	.text.prvPortStartFirstTask,"ax",%progbits
	.align	1
	.p2align 2,,3
	.arch armv7e-m
	.syntax unified
	.thumb
	.thumb_func
	.fpu fpv4-sp-d16
	.type	prvPortStartFirstTask, %function
prvPortStartFirstTask:
.LFB8:
	.file 1 "Middlewares/Third_Party/FreeRTOS/Source/portable/GCC/ARM_CM4F/port.c"
	.loc 1 262 1 view -0
	.cfi_startproc
	@ Naked Function: prologue and epilogue provided by programmer.
	@ args = 0, pretend = 0, frame = 0
	@ frame_needed = 0, uses_anonymous_args = 0
	.loc 1 267 2 view .LVU1
	.syntax unified
@ 267 "Middlewares/Third_Party/FreeRTOS/Source/portable/GCC/ARM_CM4F/port.c" 1
	 ldr r0, =0xE000ED08 	
 ldr r0, [r0] 			
 ldr r0, [r0] 			
 msr msp, r0			
 mov r0, #0			
 msr control, r0		
 cpsie i				
 cpsie f				
 dsb					
 isb					
 svc 0					
 nop					

@ 0 "" 2
	.loc 1 281 1 is_stmt 0 view .LVU2
	.thumb
	.syntax unified
	.cfi_endproc
.LFE8:
	.size	prvPortStartFirstTask, .-prvPortStartFirstTask
	.section	.text.vPortEnableVFP,"ax",%progbits
	.align	1
	.p2align 2,,3
	.syntax unified
	.thumb
	.thumb_func
	.fpu fpv4-sp-d16
	.type	vPortEnableVFP, %function
vPortEnableVFP:
.LFB16:
	.loc 1 702 1 is_stmt 1 view -0
	.cfi_startproc
	@ Naked Function: prologue and epilogue provided by programmer.
	@ args = 0, pretend = 0, frame = 0
	@ frame_needed = 0, uses_anonymous_args = 0
	.loc 1 703 2 view .LVU4
	.syntax unified
@ 703 "Middlewares/Third_Party/FreeRTOS/Source/portable/GCC/ARM_CM4F/port.c" 1
		ldr.w r0, =0xE000ED88		
	ldr r1, [r0]				
								
	orr r1, r1, #( 0xf << 20 )	
	str r1, [r0]				
	bx r14						
@ 0 "" 2
	.loc 1 712 1 is_stmt 0 view .LVU5
	.thumb
	.syntax unified
	.cfi_endproc
.LFE16:
	.size	vPortEnableVFP, .-vPortEnableVFP
	.section	.text.prvTaskExitError,"ax",%progbits
	.align	1
	.p2align 2,,3
	.syntax unified
	.thumb
	.thumb_func
	.fpu fpv4-sp-d16
	.type	prvTaskExitError, %function
prvTaskExitError:
.LFB6:
	.loc 1 218 1 is_stmt 1 view -0
	.cfi_startproc
	@ args = 0, pretend = 0, frame = 8
	@ frame_needed = 0, uses_anonymous_args = 0
	@ link register save eliminated.
	.loc 1 219 1 view .LVU7
	.loc 1 227 2 is_stmt 0 view .LVU8
	ldr	r3, .L11
	ldr	r3, [r3]
	.loc 1 218 1 view .LVU9
	sub	sp, sp, #8
.LCFI0:
	.cfi_def_cfa_offset 8
	.loc 1 219 19 view .LVU10
	movs	r2, #0
	.loc 1 227 2 view .LVU11
	adds	r3, r3, #1
	.loc 1 219 19 view .LVU12
	str	r2, [sp, #4]
	.loc 1 227 2 is_stmt 1 view .LVU13
	beq	.L5
.LBB45:
.LBI45:
	.loc 1 217 13 view .LVU14
.LBB46:
	.loc 1 227 2 view .LVU15
.LBB47:
.LBI47:
	.file 2 "Middlewares/Third_Party/FreeRTOS/Source/portable/GCC/ARM_CM4F/portmacro.h"
	.loc 2 191 30 view .LVU16
.LBB48:
	.loc 2 193 1 view .LVU17
	.loc 2 195 2 view .LVU18
	.syntax unified
@ 195 "Middlewares/Third_Party/FreeRTOS/Source/portable/GCC/ARM_CM4F/portmacro.h" 1
		mov r3, #80												
	msr basepri, r3											
	isb														
	dsb														

@ 0 "" 2
.LVL0:
	.thumb
	.syntax unified
.L6:
	.loc 2 195 2 is_stmt 0 view .LVU19
.LBE48:
.LBE47:
	.loc 1 227 2 is_stmt 1 view .LVU20
	.loc 1 227 2 view .LVU21
	.loc 1 227 2 view .LVU22
	.loc 1 227 2 view .LVU23
	.loc 1 227 2 view .LVU24
	.loc 1 227 2 view .LVU25
	b	.L6
.L5:
.LBE46:
.LBE45:
	.loc 1 227 43 view .LVU26
	.loc 1 228 2 view .LVU27
.LBB49:
.LBI49:
	.loc 2 191 30 view .LVU28
.LBB50:
	.loc 2 193 1 view .LVU29
	.loc 2 195 2 view .LVU30
	.syntax unified
@ 195 "Middlewares/Third_Party/FreeRTOS/Source/portable/GCC/ARM_CM4F/portmacro.h" 1
		mov r3, #80												
	msr basepri, r3											
	isb														
	dsb														

@ 0 "" 2
.LVL1:
	.thumb
	.syntax unified
.L7:
	.loc 2 195 2 is_stmt 0 view .LVU31
.LBE50:
.LBE49:
	.loc 1 238 2 is_stmt 1 discriminator 1 view .LVU32
	.loc 1 229 7 discriminator 1 view .LVU33
	.loc 1 229 17 is_stmt 0 discriminator 1 view .LVU34
	ldr	r3, [sp, #4]
	.loc 1 229 7 discriminator 1 view .LVU35
	cmp	r3, #0
	beq	.L7
	.loc 1 239 1 view .LVU36
	add	sp, sp, #8
.LCFI1:
	.cfi_def_cfa_offset 0
	@ sp needed
	bx	lr
.L12:
	.align	2
.L11:
	.word	.LANCHOR0
	.cfi_endproc
.LFE6:
	.size	prvTaskExitError, .-prvTaskExitError
	.section	.text.pxPortInitialiseStack,"ax",%progbits
	.align	1
	.p2align 2,,3
	.global	pxPortInitialiseStack
	.syntax unified
	.thumb
	.thumb_func
	.fpu fpv4-sp-d16
	.type	pxPortInitialiseStack, %function
pxPortInitialiseStack:
.LVL2:
.LFB5:
	.loc 1 188 1 is_stmt 1 view -0
	.cfi_startproc
	@ args = 0, pretend = 0, frame = 0
	@ frame_needed = 0, uses_anonymous_args = 0
	@ link register save eliminated.
	.loc 1 194 2 view .LVU38
	.loc 1 196 2 view .LVU39
	.loc 1 188 1 is_stmt 0 view .LVU40
	push	{r4}
.LCFI2:
	.cfi_def_cfa_offset 4
	.cfi_offset 4, -4
	.loc 1 196 16 view .LVU41
	mov	r3, #16777216
	.loc 1 200 16 view .LVU42
	ldr	r4, .L15
	.loc 1 196 16 view .LVU43
	str	r3, [r0, #-4]
	.loc 1 197 2 is_stmt 1 view .LVU44
.LVL3:
	.loc 1 198 2 view .LVU45
	.loc 1 198 45 is_stmt 0 view .LVU46
	bic	r1, r1, #1
.LVL4:
	.loc 1 209 16 view .LVU47
	mvn	r3, #2
	.loc 1 200 16 view .LVU48
	strd	r4, r1, [r0, #-12]
	.loc 1 203 2 is_stmt 1 view .LVU49
.LVL5:
	.loc 1 204 2 view .LVU50
	.loc 1 209 16 is_stmt 0 view .LVU51
	strd	r3, r2, [r0, #-36]
	.loc 1 211 2 is_stmt 1 view .LVU52
.LVL6:
	.loc 1 213 2 view .LVU53
	.loc 1 214 1 is_stmt 0 view .LVU54
	ldr	r4, [sp], #4
.LCFI3:
	.cfi_restore 4
	.cfi_def_cfa_offset 0
	subs	r0, r0, #68
.LVL7:
	.loc 1 214 1 view .LVU55
	bx	lr
.L16:
	.align	2
.L15:
	.word	prvTaskExitError
	.cfi_endproc
.LFE5:
	.size	pxPortInitialiseStack, .-pxPortInitialiseStack
	.section	.text.SVC_Handler,"ax",%progbits
	.align	1
	.p2align 2,,3
	.global	SVC_Handler
	.syntax unified
	.thumb
	.thumb_func
	.fpu fpv4-sp-d16
	.type	SVC_Handler, %function
SVC_Handler:
.LFB7:
	.loc 1 243 1 is_stmt 1 view -0
	.cfi_startproc
	@ Naked Function: prologue and epilogue provided by programmer.
	@ args = 0, pretend = 0, frame = 0
	@ frame_needed = 0, uses_anonymous_args = 0
	.loc 1 244 2 view .LVU57
	.syntax unified
@ 244 "Middlewares/Third_Party/FreeRTOS/Source/portable/GCC/ARM_CM4F/port.c" 1
		ldr	r3, pxCurrentTCBConst2		
	ldr r1, [r3]					
	ldr r0, [r1]					
	ldmia r0!, {r4-r11, r14}		
	msr psp, r0						
	isb								
	mov r0, #0 						
	msr	basepri, r0					
	bx r14							
									
	.align 4						
pxCurrentTCBConst2: .word pxCurrentTCB				

@ 0 "" 2
	.loc 1 258 1 is_stmt 0 view .LVU58
	.thumb
	.syntax unified
	.cfi_endproc
.LFE7:
	.size	SVC_Handler, .-SVC_Handler
	.section	.text.vPortEndScheduler,"ax",%progbits
	.align	1
	.p2align 2,,3
	.global	vPortEndScheduler
	.syntax unified
	.thumb
	.thumb_func
	.fpu fpv4-sp-d16
	.type	vPortEndScheduler, %function
vPortEndScheduler:
.LFB10:
	.loc 1 396 1 is_stmt 1 view -0
	.cfi_startproc
	@ args = 0, pretend = 0, frame = 0
	@ frame_needed = 0, uses_anonymous_args = 0
	@ link register save eliminated.
	.loc 1 399 2 view .LVU60
	ldr	r3, .L21
	ldr	r3, [r3]
	cmp	r3, #1000
	beq	.L18
	.loc 1 399 2 view .LVU61
.LBB51:
.LBI51:
	.loc 2 191 30 view .LVU62
.LBB52:
	.loc 2 193 1 view .LVU63
	.loc 2 195 2 view .LVU64
	.syntax unified
@ 195 "Middlewares/Third_Party/FreeRTOS/Source/portable/GCC/ARM_CM4F/portmacro.h" 1
		mov r3, #80												
	msr basepri, r3											
	isb														
	dsb														

@ 0 "" 2
.LVL8:
	.thumb
	.syntax unified
.L20:
	.loc 2 195 2 is_stmt 0 view .LVU65
.LBE52:
.LBE51:
	.loc 1 399 2 is_stmt 1 discriminator 1 view .LVU66
	.loc 1 399 2 discriminator 1 view .LVU67
	.loc 1 399 2 discriminator 1 view .LVU68
	.loc 1 399 2 discriminator 1 view .LVU69
	.loc 1 399 2 discriminator 1 view .LVU70
	.loc 1 399 2 discriminator 1 view .LVU71
	b	.L20
.L18:
	.loc 1 400 1 is_stmt 0 view .LVU72
	bx	lr
.L22:
	.align	2
.L21:
	.word	.LANCHOR0
	.cfi_endproc
.LFE10:
	.size	vPortEndScheduler, .-vPortEndScheduler
	.section	.text.vPortEnterCritical,"ax",%progbits
	.align	1
	.p2align 2,,3
	.global	vPortEnterCritical
	.syntax unified
	.thumb
	.thumb_func
	.fpu fpv4-sp-d16
	.type	vPortEnterCritical, %function
vPortEnterCritical:
.LFB11:
	.loc 1 404 1 is_stmt 1 view -0
	.cfi_startproc
	@ args = 0, pretend = 0, frame = 0
	@ frame_needed = 0, uses_anonymous_args = 0
	@ link register save eliminated.
	.loc 1 405 2 view .LVU74
.LBB53:
.LBI53:
	.loc 2 191 30 view .LVU75
.LBB54:
	.loc 2 193 1 view .LVU76
	.loc 2 195 2 view .LVU77
	.syntax unified
@ 195 "Middlewares/Third_Party/FreeRTOS/Source/portable/GCC/ARM_CM4F/portmacro.h" 1
		mov r3, #80												
	msr basepri, r3											
	isb														
	dsb														

@ 0 "" 2
	.thumb
	.syntax unified
.LBE54:
.LBE53:
	.loc 1 406 2 view .LVU78
	.loc 1 406 19 is_stmt 0 view .LVU79
	ldr	r2, .L30
	ldr	r3, [r2]
	adds	r3, r3, #1
	.loc 1 413 4 view .LVU80
	cmp	r3, #1
	.loc 1 406 19 view .LVU81
	str	r3, [r2]
	.loc 1 413 2 is_stmt 1 view .LVU82
	.loc 1 413 4 is_stmt 0 view .LVU83
	beq	.L29
.L23:
	.loc 1 417 1 view .LVU84
	bx	lr
.L29:
	.loc 1 415 3 is_stmt 1 view .LVU85
	mov	r3, #-536813568
	ldr	r3, [r3, #3332]
	uxtb	r3, r3
	cmp	r3, #0
	beq	.L23
	.loc 1 415 3 view .LVU86
.LBB55:
.LBI55:
	.loc 2 191 30 view .LVU87
.LBB56:
	.loc 2 193 1 view .LVU88
	.loc 2 195 2 view .LVU89
	.syntax unified
@ 195 "Middlewares/Third_Party/FreeRTOS/Source/portable/GCC/ARM_CM4F/portmacro.h" 1
		mov r3, #80												
	msr basepri, r3											
	isb														
	dsb														

@ 0 "" 2
.LVL9:
	.thumb
	.syntax unified
.L25:
	.loc 2 195 2 is_stmt 0 view .LVU90
.LBE56:
.LBE55:
	.loc 1 415 3 is_stmt 1 discriminator 1 view .LVU91
	.loc 1 415 3 discriminator 1 view .LVU92
	.loc 1 415 3 discriminator 1 view .LVU93
	.loc 1 415 3 discriminator 1 view .LVU94
	.loc 1 415 3 discriminator 1 view .LVU95
	.loc 1 415 3 discriminator 1 view .LVU96
	b	.L25
.L31:
	.align	2
.L30:
	.word	.LANCHOR0
	.cfi_endproc
.LFE11:
	.size	vPortEnterCritical, .-vPortEnterCritical
	.section	.text.vPortExitCritical,"ax",%progbits
	.align	1
	.p2align 2,,3
	.global	vPortExitCritical
	.syntax unified
	.thumb
	.thumb_func
	.fpu fpv4-sp-d16
	.type	vPortExitCritical, %function
vPortExitCritical:
.LFB12:
	.loc 1 421 1 view -0
	.cfi_startproc
	@ args = 0, pretend = 0, frame = 0
	@ frame_needed = 0, uses_anonymous_args = 0
	@ link register save eliminated.
	.loc 1 422 2 view .LVU98
	ldr	r2, .L36
	ldr	r3, [r2]
	cbnz	r3, .L33
	.loc 1 422 2 view .LVU99
.LBB57:
.LBI57:
	.loc 2 191 30 view .LVU100
.LBB58:
	.loc 2 193 1 view .LVU101
	.loc 2 195 2 view .LVU102
	.syntax unified
@ 195 "Middlewares/Third_Party/FreeRTOS/Source/portable/GCC/ARM_CM4F/portmacro.h" 1
		mov r3, #80												
	msr basepri, r3											
	isb														
	dsb														

@ 0 "" 2
.LVL10:
	.thumb
	.syntax unified
.L34:
	.loc 2 195 2 is_stmt 0 view .LVU103
.LBE58:
.LBE57:
	.loc 1 422 2 is_stmt 1 discriminator 1 view .LVU104
	.loc 1 422 2 discriminator 1 view .LVU105
	.loc 1 422 2 discriminator 1 view .LVU106
	.loc 1 422 2 discriminator 1 view .LVU107
	.loc 1 422 2 discriminator 1 view .LVU108
	.loc 1 422 2 discriminator 1 view .LVU109
	b	.L34
.L33:
	.loc 1 422 35 discriminator 2 view .LVU110
	.loc 1 423 2 discriminator 2 view .LVU111
	.loc 1 423 19 is_stmt 0 discriminator 2 view .LVU112
	subs	r3, r3, #1
	str	r3, [r2]
	.loc 1 424 2 is_stmt 1 discriminator 2 view .LVU113
	.loc 1 424 4 is_stmt 0 discriminator 2 view .LVU114
	cbnz	r3, .L32
	.loc 1 426 3 is_stmt 1 view .LVU115
.LVL11:
.LBB59:
.LBI59:
	.loc 2 227 30 view .LVU116
.LBB60:
	.loc 2 229 2 view .LVU117
	.syntax unified
@ 229 "Middlewares/Third_Party/FreeRTOS/Source/portable/GCC/ARM_CM4F/portmacro.h" 1
		msr basepri, r3	
@ 0 "" 2
.LVL12:
	.thumb
	.syntax unified
.L32:
	.loc 2 229 2 is_stmt 0 view .LVU118
.LBE60:
.LBE59:
	.loc 1 428 1 view .LVU119
	bx	lr
.L37:
	.align	2
.L36:
	.word	.LANCHOR0
	.cfi_endproc
.LFE12:
	.size	vPortExitCritical, .-vPortExitCritical
	.section	.text.PendSV_Handler,"ax",%progbits
	.align	1
	.p2align 2,,3
	.global	PendSV_Handler
	.syntax unified
	.thumb
	.thumb_func
	.fpu fpv4-sp-d16
	.type	PendSV_Handler, %function
PendSV_Handler:
.LFB13:
	.loc 1 432 1 is_stmt 1 view -0
	.cfi_startproc
	@ Naked Function: prologue and epilogue provided by programmer.
	@ args = 0, pretend = 0, frame = 0
	@ frame_needed = 0, uses_anonymous_args = 0
	.loc 1 435 2 view .LVU121
	.syntax unified
@ 435 "Middlewares/Third_Party/FreeRTOS/Source/portable/GCC/ARM_CM4F/port.c" 1
		mrs r0, psp							
	isb									
										
	ldr	r3, pxCurrentTCBConst			
	ldr	r2, [r3]						
										
	tst r14, #0x10						
	it eq								
	vstmdbeq r0!, {s16-s31}				
										
	stmdb r0!, {r4-r11, r14}			
	str r0, [r2]						
										
	stmdb sp!, {r0, r3}					
	mov r0, #80 							
	msr basepri, r0						
	dsb									
	isb									
	bl vTaskSwitchContext				
	mov r0, #0							
	msr basepri, r0						
	ldmia sp!, {r0, r3}					
										
	ldr r1, [r3]						
	ldr r0, [r1]						
										
	ldmia r0!, {r4-r11, r14}			
										
	tst r14, #0x10						
	it eq								
	vldmiaeq r0!, {s16-s31}				
										
	msr psp, r0							
	isb									
										
										
	bx r14								
										
	.align 4							
pxCurrentTCBConst: .word pxCurrentTCB	

@ 0 "" 2
	.loc 1 485 1 is_stmt 0 view .LVU122
	.thumb
	.syntax unified
	.cfi_endproc
.LFE13:
	.size	PendSV_Handler, .-PendSV_Handler
	.section	.text.SysTick_Handler,"ax",%progbits
	.align	1
	.p2align 2,,3
	.global	SysTick_Handler
	.syntax unified
	.thumb
	.thumb_func
	.fpu fpv4-sp-d16
	.type	SysTick_Handler, %function
SysTick_Handler:
.LFB14:
	.loc 1 489 1 is_stmt 1 view -0
	.cfi_startproc
	@ args = 0, pretend = 0, frame = 0
	@ frame_needed = 0, uses_anonymous_args = 0
	.loc 1 494 2 view .LVU124
.LBB61:
.LBI61:
	.loc 2 191 30 view .LVU125
.LBB62:
	.loc 2 193 1 view .LVU126
	.loc 2 195 2 view .LVU127
.LBE62:
.LBE61:
	.loc 1 489 1 is_stmt 0 view .LVU128
	push	{r3, lr}
.LCFI4:
	.cfi_def_cfa_offset 8
	.cfi_offset 3, -8
	.cfi_offset 14, -4
.LBB64:
.LBB63:
	.loc 2 195 2 view .LVU129
	.syntax unified
@ 195 "Middlewares/Third_Party/FreeRTOS/Source/portable/GCC/ARM_CM4F/portmacro.h" 1
		mov r3, #80												
	msr basepri, r3											
	isb														
	dsb														

@ 0 "" 2
	.thumb
	.syntax unified
.LBE63:
.LBE64:
	.loc 1 497 3 is_stmt 1 view .LVU130
	.loc 1 497 7 is_stmt 0 view .LVU131
	bl	xTaskIncrementTick
.LVL13:
	.loc 1 497 5 view .LVU132
	cbz	r0, .L40
	.loc 1 501 4 is_stmt 1 view .LVU133
	.loc 1 501 26 is_stmt 0 view .LVU134
	mov	r3, #-536813568
	mov	r2, #268435456
	str	r2, [r3, #3332]
.L40:
	.loc 1 504 2 is_stmt 1 view .LVU135
.LVL14:
.LBB65:
.LBI65:
	.loc 2 227 30 view .LVU136
.LBB66:
	.loc 2 229 2 view .LVU137
	movs	r3, #0
	.syntax unified
@ 229 "Middlewares/Third_Party/FreeRTOS/Source/portable/GCC/ARM_CM4F/portmacro.h" 1
		msr basepri, r3	
@ 0 "" 2
.LVL15:
	.loc 2 229 2 is_stmt 0 view .LVU138
	.thumb
	.syntax unified
.LBE66:
.LBE65:
	.loc 1 505 1 view .LVU139
	pop	{r3, pc}
	.cfi_endproc
.LFE14:
	.size	SysTick_Handler, .-SysTick_Handler
	.section	.text.vPortSetupTimerInterrupt,"ax",%progbits
	.align	1
	.p2align 2,,3
	.weak	vPortSetupTimerInterrupt
	.syntax unified
	.thumb
	.thumb_func
	.fpu fpv4-sp-d16
	.type	vPortSetupTimerInterrupt, %function
vPortSetupTimerInterrupt:
.LFB15:
	.loc 1 680 1 is_stmt 1 view -0
	.cfi_startproc
	@ args = 0, pretend = 0, frame = 0
	@ frame_needed = 0, uses_anonymous_args = 0
	@ link register save eliminated.
	.loc 1 691 2 view .LVU141
	.loc 1 691 28 is_stmt 0 view .LVU142
	mov	r2, #-536813568
	movs	r3, #0
	.loc 1 695 55 view .LVU143
	ldr	r1, .L46
	.loc 1 691 28 view .LVU144
	str	r3, [r2, #16]
	.loc 1 692 2 is_stmt 1 view .LVU145
	.loc 1 692 37 is_stmt 0 view .LVU146
	str	r3, [r2, #24]
	.loc 1 695 2 is_stmt 1 view .LVU147
	.loc 1 695 55 is_stmt 0 view .LVU148
	ldr	r3, [r1]
	ldr	r0, .L46+4
	umull	r0, r3, r0, r3
	lsrs	r3, r3, #6
	.loc 1 696 28 view .LVU149
	movs	r1, #7
	.loc 1 695 78 view .LVU150
	subs	r3, r3, #1
	.loc 1 695 28 view .LVU151
	str	r3, [r2, #20]
	.loc 1 696 2 is_stmt 1 view .LVU152
	.loc 1 696 28 is_stmt 0 view .LVU153
	str	r1, [r2, #16]
	.loc 1 697 1 view .LVU154
	bx	lr
.L47:
	.align	2
.L46:
	.word	SystemCoreClock
	.word	274877907
	.cfi_endproc
.LFE15:
	.size	vPortSetupTimerInterrupt, .-vPortSetupTimerInterrupt
	.section	.text.xPortStartScheduler,"ax",%progbits
	.align	1
	.p2align 2,,3
	.global	xPortStartScheduler
	.syntax unified
	.thumb
	.thumb_func
	.fpu fpv4-sp-d16
	.type	xPortStartScheduler, %function
xPortStartScheduler:
.LFB9:
	.loc 1 288 1 is_stmt 1 view -0
	.cfi_startproc
	@ args = 0, pretend = 0, frame = 16
	@ frame_needed = 0, uses_anonymous_args = 0
	.loc 1 291 2 view .LVU156
	.loc 1 291 54 view .LVU157
	.loc 1 296 2 view .LVU158
	mov	r3, #-536813568
	ldr	r2, .L68
	ldr	r1, [r3, #3328]
	cmp	r1, r2
	beq	.L66
	.loc 1 296 52 discriminator 2 view .LVU159
	.loc 1 297 2 discriminator 2 view .LVU160
	ldr	r2, [r3, #3328]
	ldr	r3, .L68+4
	cmp	r2, r3
	beq	.L67
	.loc 1 297 52 discriminator 2 view .LVU161
.LBB84:
	.loc 1 301 3 discriminator 2 view .LVU162
	.loc 1 302 3 discriminator 2 view .LVU163
.LVL16:
	.loc 1 303 3 discriminator 2 view .LVU164
	.loc 1 311 3 discriminator 2 view .LVU165
.LBE84:
	.loc 1 288 1 is_stmt 0 discriminator 2 view .LVU166
	push	{r4, r5, r6, lr}
.LCFI5:
	.cfi_def_cfa_offset 16
	.cfi_offset 4, -16
	.cfi_offset 5, -12
	.cfi_offset 6, -8
	.cfi_offset 14, -4
.LBB87:
	.loc 1 311 24 discriminator 2 view .LVU167
	ldr	r3, .L68+8
	.loc 1 321 24 discriminator 2 view .LVU168
	ldr	r4, .L68+12
	.loc 1 311 24 discriminator 2 view .LVU169
	ldrb	r2, [r3]	@ zero_extendqisi2
	.loc 1 325 22 discriminator 2 view .LVU170
	ldr	r0, .L68+16
.LBE87:
	.loc 1 288 1 discriminator 2 view .LVU171
	sub	sp, sp, #16
.LCFI6:
	.cfi_def_cfa_offset 32
.LBB88:
	.loc 1 315 33 discriminator 2 view .LVU172
	movs	r1, #255
	.loc 1 311 24 discriminator 2 view .LVU173
	uxtb	r2, r2
	.loc 1 311 22 discriminator 2 view .LVU174
	str	r2, [sp, #8]
	.loc 1 315 3 is_stmt 1 discriminator 2 view .LVU175
	.loc 1 315 33 is_stmt 0 discriminator 2 view .LVU176
	strb	r1, [r3]
	.loc 1 318 3 is_stmt 1 discriminator 2 view .LVU177
	.loc 1 318 24 is_stmt 0 discriminator 2 view .LVU178
	ldrb	r3, [r3]	@ zero_extendqisi2
	uxtb	r3, r3
	.loc 1 318 22 discriminator 2 view .LVU179
	strb	r3, [sp, #7]
	.loc 1 321 3 is_stmt 1 discriminator 2 view .LVU180
	.loc 1 321 63 is_stmt 0 discriminator 2 view .LVU181
	ldrb	r3, [sp, #7]	@ zero_extendqisi2
	.loc 1 326 31 discriminator 2 view .LVU182
	ldrb	r2, [sp, #7]	@ zero_extendqisi2
	.loc 1 321 63 discriminator 2 view .LVU183
	and	r3, r3, #80
	.loc 1 325 22 discriminator 2 view .LVU184
	movs	r1, #7
	.loc 1 326 8 discriminator 2 view .LVU185
	lsls	r2, r2, #24
	.loc 1 321 24 discriminator 2 view .LVU186
	strb	r3, [r4]
	.loc 1 325 3 is_stmt 1 discriminator 2 view .LVU187
	.loc 1 325 22 is_stmt 0 discriminator 2 view .LVU188
	str	r1, [r0]
	.loc 1 326 3 is_stmt 1 discriminator 2 view .LVU189
	.loc 1 326 8 discriminator 2 view .LVU190
	it	mi
	movmi	r2, #6
	bpl	.L56
.L53:
	.loc 1 328 4 view .LVU191
	.loc 1 329 4 view .LVU192
	.loc 1 329 23 is_stmt 0 view .LVU193
	ldrb	r3, [sp, #7]	@ zero_extendqisi2
	lsls	r3, r3, #1
	uxtb	r3, r3
	strb	r3, [sp, #7]
	.loc 1 326 8 is_stmt 1 view .LVU194
	.loc 1 326 31 is_stmt 0 view .LVU195
	ldrb	r3, [sp, #7]	@ zero_extendqisi2
	.loc 1 326 8 view .LVU196
	lsls	r3, r3, #24
	mov	r1, r2
	add	r2, r2, #-1
	bmi	.L53
	.loc 1 346 4 is_stmt 1 view .LVU197
	cmp	r1, #3
	beq	.L55
	str	r1, [r0]
.L56:
	.loc 1 346 4 view .LVU198
.LBB85:
.LBI85:
	.loc 2 191 30 view .LVU199
.LBB86:
	.loc 2 193 1 view .LVU200
	.loc 2 195 2 view .LVU201
	.syntax unified
@ 195 "Middlewares/Third_Party/FreeRTOS/Source/portable/GCC/ARM_CM4F/portmacro.h" 1
		mov r3, #80												
	msr basepri, r3											
	isb														
	dsb														

@ 0 "" 2
.LVL17:
	.thumb
	.syntax unified
.L54:
	.loc 2 195 2 is_stmt 0 view .LVU202
.LBE86:
.LBE85:
	.loc 1 346 4 is_stmt 1 discriminator 4 view .LVU203
	.loc 1 346 4 discriminator 4 view .LVU204
	.loc 1 346 4 discriminator 4 view .LVU205
	.loc 1 346 4 discriminator 4 view .LVU206
	.loc 1 346 4 discriminator 4 view .LVU207
	.loc 1 346 4 discriminator 4 view .LVU208
	b	.L54
.LVL18:
.L67:
.LCFI7:
	.cfi_def_cfa_offset 0
	.cfi_restore 4
	.cfi_restore 5
	.cfi_restore 6
	.cfi_restore 14
	.loc 1 346 4 is_stmt 0 discriminator 4 view .LVU209
.LBE88:
	.loc 1 297 2 is_stmt 1 view .LVU210
.LBB89:
.LBI89:
	.loc 2 191 30 view .LVU211
.LBB90:
	.loc 2 193 1 view .LVU212
	.loc 2 195 2 view .LVU213
	.syntax unified
@ 195 "Middlewares/Third_Party/FreeRTOS/Source/portable/GCC/ARM_CM4F/portmacro.h" 1
		mov r3, #80												
	msr basepri, r3											
	isb														
	dsb														

@ 0 "" 2
.LVL19:
	.thumb
	.syntax unified
.L52:
	.loc 2 195 2 is_stmt 0 view .LVU214
.LBE90:
.LBE89:
	.loc 1 297 2 is_stmt 1 discriminator 3 view .LVU215
	.loc 1 297 2 discriminator 3 view .LVU216
	.loc 1 297 2 discriminator 3 view .LVU217
	.loc 1 297 2 discriminator 3 view .LVU218
	.loc 1 297 2 discriminator 3 view .LVU219
	.loc 1 297 2 discriminator 3 view .LVU220
	b	.L52
.L66:
	.loc 1 296 2 view .LVU221
.LBB91:
.LBI91:
	.loc 2 191 30 view .LVU222
.LBB92:
	.loc 2 193 1 view .LVU223
	.loc 2 195 2 view .LVU224
	.syntax unified
@ 195 "Middlewares/Third_Party/FreeRTOS/Source/portable/GCC/ARM_CM4F/portmacro.h" 1
		mov r3, #80												
	msr basepri, r3											
	isb														
	dsb														

@ 0 "" 2
.LVL20:
	.thumb
	.syntax unified
.L50:
	.loc 2 195 2 is_stmt 0 view .LVU225
.LBE92:
.LBE91:
	.loc 1 296 2 is_stmt 1 discriminator 2 view .LVU226
	.loc 1 296 2 discriminator 2 view .LVU227
	.loc 1 296 2 discriminator 2 view .LVU228
	.loc 1 296 2 discriminator 2 view .LVU229
	.loc 1 296 2 discriminator 2 view .LVU230
	.loc 1 296 2 discriminator 2 view .LVU231
	b	.L50
.LVL21:
.L55:
.LCFI8:
	.cfi_def_cfa_offset 32
	.cfi_offset 4, -16
	.cfi_offset 5, -12
	.cfi_offset 6, -8
	.cfi_offset 14, -4
.LBB93:
	.loc 1 346 85 discriminator 2 view .LVU232
	.loc 1 352 3 discriminator 2 view .LVU233
	.loc 1 353 3 discriminator 2 view .LVU234
	.loc 1 357 33 is_stmt 0 discriminator 2 view .LVU235
	ldr	r3, [sp, #8]
	ldr	r2, .L68+8
.LBE93:
	.loc 1 370 20 discriminator 2 view .LVU236
	ldr	r5, .L68+20
	.loc 1 362 23 discriminator 2 view .LVU237
	mov	r4, #-536813568
.LBB94:
	.loc 1 353 22 discriminator 2 view .LVU238
	mov	r1, #768
	.loc 1 357 33 discriminator 2 view .LVU239
	uxtb	r3, r3
	.loc 1 353 22 discriminator 2 view .LVU240
	str	r1, [r0]
	.loc 1 357 3 is_stmt 1 discriminator 2 view .LVU241
	.loc 1 357 33 is_stmt 0 discriminator 2 view .LVU242
	strb	r3, [r2]
.LBE94:
	.loc 1 362 2 is_stmt 1 discriminator 2 view .LVU243
	.loc 1 362 23 is_stmt 0 discriminator 2 view .LVU244
	ldr	r3, [r4, #3360]
	orr	r3, r3, #15728640
	str	r3, [r4, #3360]
	.loc 1 363 2 is_stmt 1 discriminator 2 view .LVU245
	.loc 1 363 23 is_stmt 0 discriminator 2 view .LVU246
	ldr	r3, [r4, #3360]
	orr	r3, r3, #-268435456
	str	r3, [r4, #3360]
	.loc 1 367 2 is_stmt 1 discriminator 2 view .LVU247
	.loc 1 370 20 is_stmt 0 discriminator 2 view .LVU248
	movs	r6, #0
	.loc 1 367 2 discriminator 2 view .LVU249
	bl	vPortSetupTimerInterrupt
.LVL22:
	.loc 1 370 2 is_stmt 1 discriminator 2 view .LVU250
	.loc 1 370 20 is_stmt 0 discriminator 2 view .LVU251
	str	r6, [r5]
	.loc 1 373 2 is_stmt 1 discriminator 2 view .LVU252
	bl	vPortEnableVFP
.LVL23:
	.loc 1 376 2 discriminator 2 view .LVU253
	.loc 1 376 17 is_stmt 0 discriminator 2 view .LVU254
	ldr	r3, [r4, #3892]
	orr	r3, r3, #-1073741824
	str	r3, [r4, #3892]
	.loc 1 379 2 is_stmt 1 discriminator 2 view .LVU255
	bl	prvPortStartFirstTask
.LVL24:
	.loc 1 387 2 discriminator 2 view .LVU256
	bl	vTaskSwitchContext
.LVL25:
	.loc 1 388 2 discriminator 2 view .LVU257
.LBB95:
.LBI95:
	.loc 1 217 13 discriminator 2 view .LVU258
.LBB96:
	.loc 1 219 1 discriminator 2 view .LVU259
	.loc 1 227 2 is_stmt 0 discriminator 2 view .LVU260
	ldr	r3, [r5]
	.loc 1 219 19 discriminator 2 view .LVU261
	str	r6, [sp, #12]
	.loc 1 227 2 is_stmt 1 discriminator 2 view .LVU262
	adds	r3, r3, #1
	beq	.L57
.LBB97:
.LBI97:
	.loc 1 217 13 view .LVU263
.LBB98:
	.loc 1 227 2 view .LVU264
.LBB99:
.LBI99:
	.loc 2 191 30 view .LVU265
.LBB100:
	.loc 2 193 1 view .LVU266
	.loc 2 195 2 view .LVU267
	.syntax unified
@ 195 "Middlewares/Third_Party/FreeRTOS/Source/portable/GCC/ARM_CM4F/portmacro.h" 1
		mov r3, #80												
	msr basepri, r3											
	isb														
	dsb														

@ 0 "" 2
.LVL26:
	.thumb
	.syntax unified
.L58:
	.loc 2 195 2 is_stmt 0 view .LVU268
.LBE100:
.LBE99:
	.loc 1 227 2 is_stmt 1 view .LVU269
	.loc 1 227 2 view .LVU270
	.loc 1 227 2 view .LVU271
	.loc 1 227 2 view .LVU272
	.loc 1 227 2 view .LVU273
	.loc 1 227 2 view .LVU274
	b	.L58
.L57:
.LBE98:
.LBE97:
	.loc 1 227 43 view .LVU275
	.loc 1 228 2 view .LVU276
.LBB101:
.LBI101:
	.loc 2 191 30 view .LVU277
.LBB102:
	.loc 2 193 1 view .LVU278
	.loc 2 195 2 view .LVU279
	.syntax unified
@ 195 "Middlewares/Third_Party/FreeRTOS/Source/portable/GCC/ARM_CM4F/portmacro.h" 1
		mov r3, #80												
	msr basepri, r3											
	isb														
	dsb														

@ 0 "" 2
.LVL27:
	.thumb
	.syntax unified
.L59:
	.loc 2 195 2 is_stmt 0 view .LVU280
.LBE102:
.LBE101:
	.loc 1 238 2 is_stmt 1 view .LVU281
	.loc 1 229 7 view .LVU282
	.loc 1 229 17 is_stmt 0 view .LVU283
	ldr	r3, [sp, #12]
	.loc 1 229 7 view .LVU284
	cmp	r3, #0
	beq	.L59
.LBE96:
.LBE95:
	.loc 1 391 2 is_stmt 1 discriminator 2 view .LVU285
	.loc 1 392 1 is_stmt 0 discriminator 2 view .LVU286
	movs	r0, #0
	add	sp, sp, #16
.LCFI9:
	.cfi_def_cfa_offset 16
	@ sp needed
	pop	{r4, r5, r6, pc}
.L69:
	.align	2
.L68:
	.word	1091551857
	.word	1091551856
	.word	-536812544
	.word	.LANCHOR1
	.word	.LANCHOR2
	.word	.LANCHOR0
	.cfi_endproc
.LFE9:
	.size	xPortStartScheduler, .-xPortStartScheduler
	.section	.text.vPortValidateInterruptPriority,"ax",%progbits
	.align	1
	.p2align 2,,3
	.global	vPortValidateInterruptPriority
	.syntax unified
	.thumb
	.thumb_func
	.fpu fpv4-sp-d16
	.type	vPortValidateInterruptPriority, %function
vPortValidateInterruptPriority:
.LFB17:
	.loc 1 718 2 is_stmt 1 view -0
	.cfi_startproc
	@ args = 0, pretend = 0, frame = 0
	@ frame_needed = 0, uses_anonymous_args = 0
	@ link register save eliminated.
	.loc 1 719 2 view .LVU288
	.loc 1 720 2 view .LVU289
	.loc 1 723 3 view .LVU290
	.syntax unified
@ 723 "Middlewares/Third_Party/FreeRTOS/Source/portable/GCC/ARM_CM4F/port.c" 1
	mrs r3, ipsr
@ 0 "" 2
.LVL28:
	.loc 1 726 3 view .LVU291
	.loc 1 726 5 is_stmt 0 view .LVU292
	.thumb
	.syntax unified
	cmp	r3, #15
	bls	.L71
	.loc 1 729 4 is_stmt 1 view .LVU293
	.loc 1 729 52 is_stmt 0 view .LVU294
	ldr	r1, .L75
	.loc 1 754 4 view .LVU295
	ldr	r2, .L75+4
	.loc 1 729 22 view .LVU296
	ldrb	r3, [r3, r1]	@ zero_extendqisi2
.LVL29:
	.loc 1 754 4 is_stmt 1 view .LVU297
	ldrb	r2, [r2]	@ zero_extendqisi2
	cmp	r2, r3
	bls	.L71
	.loc 1 754 4 view .LVU298
.LBB103:
.LBI103:
	.loc 2 191 30 view .LVU299
.LBB104:
	.loc 2 193 1 view .LVU300
	.loc 2 195 2 view .LVU301
	.syntax unified
@ 195 "Middlewares/Third_Party/FreeRTOS/Source/portable/GCC/ARM_CM4F/portmacro.h" 1
		mov r3, #80												
	msr basepri, r3											
	isb														
	dsb														

@ 0 "" 2
.LVL30:
	.thumb
	.syntax unified
.L72:
	.loc 2 195 2 is_stmt 0 view .LVU302
.LBE104:
.LBE103:
	.loc 1 754 4 is_stmt 1 discriminator 1 view .LVU303
	.loc 1 754 4 discriminator 1 view .LVU304
	.loc 1 754 4 discriminator 1 view .LVU305
	.loc 1 754 4 discriminator 1 view .LVU306
	.loc 1 754 4 discriminator 1 view .LVU307
	.loc 1 754 4 discriminator 1 view .LVU308
	b	.L72
.L71:
	.loc 1 754 61 discriminator 2 view .LVU309
	.loc 1 770 3 discriminator 2 view .LVU310
	mov	r3, #-536813568
	ldr	r2, .L75+8
	ldr	r3, [r3, #3340]
	ldr	r2, [r2]
	and	r3, r3, #1792
	cmp	r3, r2
	bls	.L70
	.loc 1 770 3 view .LVU311
.LBB105:
.LBI105:
	.loc 2 191 30 view .LVU312
.LBB106:
	.loc 2 193 1 view .LVU313
	.loc 2 195 2 view .LVU314
	.syntax unified
@ 195 "Middlewares/Third_Party/FreeRTOS/Source/portable/GCC/ARM_CM4F/portmacro.h" 1
		mov r3, #80												
	msr basepri, r3											
	isb														
	dsb														

@ 0 "" 2
.LVL31:
	.thumb
	.syntax unified
.L74:
	.loc 2 195 2 is_stmt 0 view .LVU315
.LBE106:
.LBE105:
	.loc 1 770 3 is_stmt 1 discriminator 2 view .LVU316
	.loc 1 770 3 discriminator 2 view .LVU317
	.loc 1 770 3 discriminator 2 view .LVU318
	.loc 1 770 3 discriminator 2 view .LVU319
	.loc 1 770 3 discriminator 2 view .LVU320
	.loc 1 770 3 discriminator 2 view .LVU321
	b	.L74
.L70:
	.loc 1 771 2 is_stmt 0 view .LVU322
	bx	lr
.L76:
	.align	2
.L75:
	.word	-536812560
	.word	.LANCHOR1
	.word	.LANCHOR2
	.cfi_endproc
.LFE17:
	.size	vPortValidateInterruptPriority, .-vPortValidateInterruptPriority
	.section	.bss.ucMaxSysCallPriority,"aw",%nobits
	.set	.LANCHOR1,. + 0
	.type	ucMaxSysCallPriority, %object
	.size	ucMaxSysCallPriority, 1
ucMaxSysCallPriority:
	.space	1
	.section	.bss.ulMaxPRIGROUPValue,"aw",%nobits
	.align	2
	.set	.LANCHOR2,. + 0
	.type	ulMaxPRIGROUPValue, %object
	.size	ulMaxPRIGROUPValue, 4
ulMaxPRIGROUPValue:
	.space	4
	.section	.data.uxCriticalNesting,"aw"
	.align	2
	.set	.LANCHOR0,. + 0
	.type	uxCriticalNesting, %object
	.size	uxCriticalNesting, 4
uxCriticalNesting:
	.word	-1431655766
	.text
.Letext0:
	.file 3 "/usr/share/gcc-arm-none-eabi-10-2020-q4-major/arm-none-eabi/include/machine/_default_types.h"
	.file 4 "/usr/share/gcc-arm-none-eabi-10-2020-q4-major/arm-none-eabi/include/sys/_stdint.h"
	.file 5 "Middlewares/Third_Party/FreeRTOS/Source/include/projdefs.h"
	.file 6 "Inc/FreeRTOSConfig.h"
	.file 7 "Middlewares/Third_Party/FreeRTOS/Source/include/task.h"