	.cpu cortex-m4
	.eabi_attribute 27, 1
	.eabi_attribute 28, 1
	.eabi_attribute 20, 1
	.eabi_attribute 21, 1
	.eabi_attribute 23, 3
	.eabi_attribute 24, 1
	.eabi_attribute 25, 1
	.eabi_attribute 26, 1
	.eabi_attribute 30, 2
	.eabi_attribute 34, 1
	.eabi_attribute 18, 4
	.file	"stm32g4xx_hal_cortex.c"
	.text
.Ltext0:
	.cfi_sections	.debug_frame
	.section	.text.HAL_NVIC_SetPriorityGrouping,"ax",%progbits
	.align	1
	.p2align 2,,3
	.global	HAL_NVIC_SetPriorityGrouping
	.arch armv7e-m
	.syntax unified
	.thumb
	.thumb_func
	.fpu fpv4-sp-d16
	.type	HAL_NVIC_SetPriorityGrouping, %function
HAL_NVIC_SetPriorityGrouping:
.LVL0:
.LFB132:
	.file 1 "Drivers/STM32G4xx_HAL_Driver/Src/stm32g4xx_hal_cortex.c"
	.loc 1 164 1 view -0
	.cfi_startproc
	@ args = 0, pretend = 0, frame = 0
	@ frame_needed = 0, uses_anonymous_args = 0
	@ link register save eliminated.
	.loc 1 166 3 view .LVU1
	.loc 1 169 3 view .LVU2
.LBB52:
.LBB53:
	.file 2 "Drivers/CMSIS/Include/core_cm4.h"
	.loc 2 1653 14 is_stmt 0 view .LVU3
	ldr	r1, .L3
.LVL1:
	.loc 2 1653 14 view .LVU4
.LBE53:
.LBI52:
	.loc 2 1648 22 is_stmt 1 view .LVU5
.LBB54:
	.loc 2 1650 3 view .LVU6
	.loc 2 1651 3 view .LVU7
	.loc 2 1653 3 view .LVU8
	.loc 2 1653 14 is_stmt 0 view .LVU9
	ldr	r2, [r1, #12]
.LVL2:
	.loc 2 1654 3 is_stmt 1 view .LVU10
	.loc 2 1655 3 view .LVU11
	.loc 2 1657 35 is_stmt 0 view .LVU12
	lsls	r3, r0, #8
	.loc 2 1654 13 view .LVU13
	movw	r0, #63743
.LVL3:
	.loc 2 1657 35 view .LVU14
	and	r3, r3, #1792
	.loc 2 1654 13 view .LVU15
	ands	r2, r2, r0
.LVL4:
	.loc 2 1656 62 view .LVU16
	orrs	r3, r3, r2
	.loc 2 1655 14 view .LVU17
	orr	r3, r3, #100139008
	orr	r3, r3, #131072
.LVL5:
	.loc 2 1658 3 is_stmt 1 view .LVU18
	.loc 2 1658 14 is_stmt 0 view .LVU19
	str	r3, [r1, #12]
.LVL6:
	.loc 2 1658 14 view .LVU20
.LBE54:
.LBE52:
	.loc 1 170 1 view .LVU21
	bx	lr
.L4:
	.align	2
.L3:
	.word	-536810240
	.cfi_endproc
.LFE132:
	.size	HAL_NVIC_SetPriorityGrouping, .-HAL_NVIC_SetPriorityGrouping
	.section	.text.HAL_NVIC_SetPriority,"ax",%progbits
	.align	1
	.p2align 2,,3
	.global	HAL_NVIC_SetPriority
	.syntax unified
	.thumb
	.thumb_func
	.fpu fpv4-sp-d16
	.type	HAL_NVIC_SetPriority, %function
HAL_NVIC_SetPriority:
.LVL7:
.LFB133:
	.loc 1 186 1 is_stmt 1 view -0
	.cfi_startproc
	@ args = 0, pretend = 0, frame = 0
	@ frame_needed = 0, uses_anonymous_args = 0
	.loc 1 187 3 view .LVU23
	.loc 1 190 3 view .LVU24
	.loc 1 191 3 view .LVU25
	.loc 1 193 3 view .LVU26
.LBB55:
.LBI55:
	.loc 2 1667 26 view .LVU27
.LBB56:
	.loc 2 1669 3 view .LVU28
	.loc 2 1669 26 is_stmt 0 view .LVU29
	ldr	r3, .L11
	ldr	r3, [r3, #12]
	.loc 2 1669 11 view .LVU30
	ubfx	r3, r3, #8, #3
.LVL8:
	.loc 2 1669 11 view .LVU31
.LBE56:
.LBE55:
	.loc 1 195 3 is_stmt 1 view .LVU32
	.loc 1 186 1 is_stmt 0 view .LVU33
	push	{lr}
.LCFI0:
	.cfi_def_cfa_offset 4
	.cfi_offset 14, -4
.LBB57:
.LBB58:
	.loc 2 1862 31 view .LVU34
	rsb	lr, r3, #7
.LVL9:
	.loc 2 1862 31 view .LVU35
.LBE58:
.LBI57:
	.loc 2 1856 26 is_stmt 1 view .LVU36
.LBB59:
	.loc 2 1858 3 view .LVU37
	.loc 2 1859 3 view .LVU38
	.loc 2 1860 3 view .LVU39
	.loc 2 1862 3 view .LVU40
	.loc 2 1862 23 is_stmt 0 view .LVU41
	cmp	lr, #4
	.loc 2 1863 44 view .LVU42
	add	ip, r3, #4
	.loc 2 1862 23 view .LVU43
	it	cs
	movcs	lr, #4
.LVL10:
	.loc 2 1863 3 is_stmt 1 view .LVU44
	.loc 2 1863 109 is_stmt 0 view .LVU45
	cmp	ip, #6
	bls	.L9
	subs	r3, r3, #3
.LVL11:
	.loc 2 1867 30 view .LVU46
	mov	ip, #-1
	lsl	ip, ip, r3
	bic	r2, r2, ip
.LVL12:
.L6:
	.loc 2 1865 3 is_stmt 1 view .LVU47
	.loc 2 1866 30 is_stmt 0 view .LVU48
	mov	ip, #-1
	lsl	ip, ip, lr
	bic	r1, r1, ip
.LVL13:
	.loc 2 1866 82 view .LVU49
	lsls	r1, r1, r3
.LBE59:
.LBE57:
.LBB62:
.LBB63:
	.loc 2 1811 6 view .LVU50
	cmp	r0, #0
.LBE63:
.LBE62:
.LBB66:
.LBB60:
	.loc 2 1866 102 view .LVU51
	orr	r1, r1, r2
.LVL14:
	.loc 2 1866 102 view .LVU52
.LBE60:
.LBE66:
.LBB67:
.LBI62:
	.loc 2 1809 22 is_stmt 1 view .LVU53
.LBB64:
	.loc 2 1811 3 view .LVU54
	.loc 2 1811 6 is_stmt 0 view .LVU55
	blt	.L7
	.loc 2 1813 5 is_stmt 1 view .LVU56
	.loc 2 1813 46 is_stmt 0 view .LVU57
	add	r0, r0, #-536870912
.LVL15:
	.loc 2 1813 48 view .LVU58
	lsls	r1, r1, #4
.LVL16:
	.loc 2 1813 46 view .LVU59
	add	r0, r0, #57600
	.loc 2 1813 48 view .LVU60
	uxtb	r1, r1
	.loc 2 1813 46 view .LVU61
	strb	r1, [r0, #768]
.LBE64:
.LBE67:
	.loc 1 196 1 view .LVU62
	ldr	pc, [sp], #4
.LVL17:
.L9:
.LBB68:
.LBB61:
	.loc 1 196 1 view .LVU63
	movs	r2, #0
.LVL18:
	.loc 2 1863 109 view .LVU64
	mov	r3, r2
.LVL19:
	.loc 2 1863 109 view .LVU65
	b	.L6
.LVL20:
.L7:
	.loc 2 1863 109 view .LVU66
.LBE61:
.LBE68:
.LBB69:
.LBB65:
	.loc 2 1817 5 is_stmt 1 view .LVU67
	.loc 2 1817 46 is_stmt 0 view .LVU68
	ldr	r3, .L11+4
.LVL21:
	.loc 2 1817 32 view .LVU69
	and	r0, r0, #15
.LVL22:
	.loc 2 1817 48 view .LVU70
	lsls	r1, r1, #4
.LVL23:
	.loc 2 1817 46 view .LVU71
	add	r3, r3, r0
	.loc 2 1817 48 view .LVU72
	uxtb	r1, r1
	.loc 2 1817 46 view .LVU73
	strb	r1, [r3, #24]
.LVL24:
	.loc 2 1817 46 view .LVU74
.LBE65:
.LBE69:
	.loc 1 196 1 view .LVU75
	ldr	pc, [sp], #4
.L12:
	.align	2
.L11:
	.word	-536810240
	.word	-536810244
	.cfi_endproc
.LFE133:
	.size	HAL_NVIC_SetPriority, .-HAL_NVIC_SetPriority
	.section	.text.HAL_NVIC_EnableIRQ,"ax",%progbits
	.align	1
	.p2align 2,,3
	.global	HAL_NVIC_EnableIRQ
	.syntax unified
	.thumb
	.thumb_func
	.fpu fpv4-sp-d16
	.type	HAL_NVIC_EnableIRQ, %function
HAL_NVIC_EnableIRQ:
.LVL25:
.LFB134:
	.loc 1 208 1 is_stmt 1 view -0
	.cfi_startproc
	@ args = 0, pretend = 0, frame = 0
	@ frame_needed = 0, uses_anonymous_args = 0
	@ link register save eliminated.
	.loc 1 210 3 view .LVU77
	.loc 1 213 3 view .LVU78
.LBB70:
.LBI70:
	.loc 2 1679 22 view .LVU79
.LBB71:
	.loc 2 1681 3 view .LVU80
	.loc 2 1681 6 is_stmt 0 view .LVU81
	cmp	r0, #0
.LVL26:
	.loc 2 1681 6 view .LVU82
	blt	.L13
	.loc 2 1683 5 is_stmt 1 view .LVU83
	.loc 2 1684 5 view .LVU84
	.loc 2 1684 43 is_stmt 0 view .LVU85
	ldr	r2, .L15
	.loc 2 1684 34 view .LVU86
	lsrs	r1, r0, #5
	.loc 2 1684 45 view .LVU87
	movs	r3, #1
	.loc 2 1684 81 view .LVU88
	and	r0, r0, #31
	.loc 2 1684 45 view .LVU89
	lsl	r0, r3, r0
	.loc 2 1684 43 view .LVU90
	str	r0, [r2, r1, lsl #2]
	.loc 2 1685 5 is_stmt 1 view .LVU91
.LVL27:
.L13:
	.loc 2 1685 5 is_stmt 0 view .LVU92
.LBE71:
.LBE70:
	.loc 1 214 1 view .LVU93
	bx	lr
.L16:
	.align	2
.L15:
	.word	-536813312
	.cfi_endproc
.LFE134:
	.size	HAL_NVIC_EnableIRQ, .-HAL_NVIC_EnableIRQ
	.section	.text.HAL_NVIC_DisableIRQ,"ax",%progbits
	.align	1
	.p2align 2,,3
	.global	HAL_NVIC_DisableIRQ
	.syntax unified
	.thumb
	.thumb_func
	.fpu fpv4-sp-d16
	.type	HAL_NVIC_DisableIRQ, %function
HAL_NVIC_DisableIRQ:
.LVL28:
.LFB135:
	.loc 1 224 1 is_stmt 1 view -0
	.cfi_startproc
	@ args = 0, pretend = 0, frame = 0
	@ frame_needed = 0, uses_anonymous_args = 0
	@ link register save eliminated.
	.loc 1 226 3 view .LVU95
	.loc 1 229 3 view .LVU96
.LBB72:
.LBI72:
	.loc 2 1717 22 view .LVU97
.LBB73:
	.loc 2 1719 3 view .LVU98
	.loc 2 1719 6 is_stmt 0 view .LVU99
	cmp	r0, #0
.LVL29:
	.loc 2 1719 6 view .LVU100
	blt	.L17
	.loc 2 1721 5 is_stmt 1 view .LVU101
	.loc 2 1721 34 is_stmt 0 view .LVU102
	lsrs	r3, r0, #5
	.loc 2 1721 43 view .LVU103
	ldr	r1, .L19
	.loc 2 1721 45 view .LVU104
	movs	r2, #1
	.loc 2 1721 43 view .LVU105
	adds	r3, r3, #32
	.loc 2 1721 81 view .LVU106
	and	r0, r0, #31
	.loc 2 1721 45 view .LVU107
	lsl	r0, r2, r0
	.loc 2 1721 43 view .LVU108
	str	r0, [r1, r3, lsl #2]
	.loc 2 1722 5 is_stmt 1 view .LVU109
.LBB74:
.LBI74:
	.file 3 "Drivers/CMSIS/Include/cmsis_gcc.h"
	.loc 3 944 27 view .LVU110
.LBB75:
	.loc 3 946 3 view .LVU111
	.syntax unified
@ 946 "Drivers/CMSIS/Include/cmsis_gcc.h" 1
	dsb 0xF
@ 0 "" 2
	.thumb
	.syntax unified
.LBE75:
.LBE74:
	.loc 2 1723 5 view .LVU112
.LBB76:
.LBI76:
	.loc 3 933 27 view .LVU113
.LBB77:
	.loc 3 935 3 view .LVU114
	.syntax unified
@ 935 "Drivers/CMSIS/Include/cmsis_gcc.h" 1
	isb 0xF
@ 0 "" 2
.LVL30:
	.thumb
	.syntax unified
.L17:
	.loc 3 935 3 is_stmt 0 view .LVU115
.LBE77:
.LBE76:
.LBE73:
.LBE72:
	.loc 1 230 1 view .LVU116
	bx	lr
.L20:
	.align	2
.L19:
	.word	-536813312
	.cfi_endproc
.LFE135:
	.size	HAL_NVIC_DisableIRQ, .-HAL_NVIC_DisableIRQ
	.section	.text.HAL_NVIC_SystemReset,"ax",%progbits
	.align	1
	.p2align 2,,3
	.global	HAL_NVIC_SystemReset
	.syntax unified
	.thumb
	.thumb_func
	.fpu fpv4-sp-d16
	.type	HAL_NVIC_SystemReset, %function
HAL_NVIC_SystemReset:
.LFB136:
	.loc 1 237 1 is_stmt 1 view -0
	.cfi_startproc
	@ Volatile: function does not return.
	@ args = 0, pretend = 0, frame = 0
	@ frame_needed = 0, uses_anonymous_args = 0
	@ link register save eliminated.
	.loc 1 239 3 view .LVU118
.LBB84:
.LBI84:
	.loc 2 1933 34 view .LVU119
.LBB85:
	.loc 2 1935 3 view .LVU120
.LBB86:
.LBI86:
	.loc 3 944 27 view .LVU121
.LBB87:
	.loc 3 946 3 view .LVU122
	.syntax unified
@ 946 "Drivers/CMSIS/Include/cmsis_gcc.h" 1
	dsb 0xF
@ 0 "" 2
	.thumb
	.syntax unified
.LBE87:
.LBE86:
	.loc 2 1937 3 view .LVU123
	.loc 2 1938 32 is_stmt 0 view .LVU124
	ldr	r1, .L23
	.loc 2 1937 17 view .LVU125
	ldr	r3, .L23+4
	.loc 2 1938 32 view .LVU126
	ldr	r2, [r1, #12]
	.loc 2 1938 40 view .LVU127
	and	r2, r2, #1792
	.loc 2 1937 17 view .LVU128
	orrs	r3, r3, r2
	.loc 2 1937 15 view .LVU129
	str	r3, [r1, #12]
	.loc 2 1940 3 is_stmt 1 view .LVU130
.LBB88:
.LBI88:
	.loc 3 944 27 view .LVU131
.LBB89:
	.loc 3 946 3 view .LVU132
	.syntax unified
@ 946 "Drivers/CMSIS/Include/cmsis_gcc.h" 1
	dsb 0xF
@ 0 "" 2
	.thumb
	.syntax unified
.L22:
.LBE89:
.LBE88:
	.loc 2 1942 3 view .LVU133
	.loc 2 1944 5 view .LVU134
	.syntax unified
@ 1944 "Drivers/CMSIS/Include/core_cm4.h" 1
	nop
@ 0 "" 2
	.loc 2 1942 8 view .LVU135
	.thumb
	.syntax unified
	b	.L22
.L24:
	.align	2
.L23:
	.word	-536810240
	.word	100270084
.LBE85:
.LBE84:
	.cfi_endproc
.LFE136:
	.size	HAL_NVIC_SystemReset, .-HAL_NVIC_SystemReset
	.section	.text.HAL_SYSTICK_Config,"ax",%progbits
	.align	1
	.p2align 2,,3
	.global	HAL_SYSTICK_Config
	.syntax unified
	.thumb
	.thumb_func
	.fpu fpv4-sp-d16
	.type	HAL_SYSTICK_Config, %function
HAL_SYSTICK_Config:
.LVL31:
.LFB137:
	.loc 1 250 1 view -0
	.cfi_startproc
	@ args = 0, pretend = 0, frame = 0
	@ frame_needed = 0, uses_anonymous_args = 0
	@ link register save eliminated.
	.loc 1 251 4 view .LVU137
.LBB90:
.LBI90:
	.loc 2 2017 26 view .LVU138
.LBB91:
	.loc 2 2019 3 view .LVU139
	.loc 2 2019 14 is_stmt 0 view .LVU140
	subs	r0, r0, #1
.LVL32:
	.loc 2 2019 6 view .LVU141
	cmp	r0, #16777216
	bcs	.L27
	.loc 2 2024 3 is_stmt 1 view .LVU142
.LBE91:
.LBE90:
	.loc 1 250 1 is_stmt 0 view .LVU143
	push	{r4}
.LCFI1:
	.cfi_def_cfa_offset 4
	.cfi_offset 4, -4
.LBB99:
.LBB96:
	.loc 2 2024 18 view .LVU144
	mov	r3, #-536813568
.LBB92:
.LBB93:
	.loc 2 1817 46 view .LVU145
	ldr	r4, .L32
.LBE93:
.LBE92:
	.loc 2 2024 18 view .LVU146
	str	r0, [r3, #20]
	.loc 2 2025 3 is_stmt 1 view .LVU147
.LVL33:
.LBB95:
.LBI92:
	.loc 2 1809 22 view .LVU148
.LBB94:
	.loc 2 1811 3 view .LVU149
	.loc 2 1817 5 view .LVU150
	.loc 2 1817 46 is_stmt 0 view .LVU151
	mov	ip, #240
	strb	ip, [r4, #35]
.LVL34:
	.loc 2 1817 46 view .LVU152
.LBE94:
.LBE95:
	.loc 2 2026 3 is_stmt 1 view .LVU153
	.loc 2 2026 18 is_stmt 0 view .LVU154
	movs	r2, #0
	.loc 2 2027 18 view .LVU155
	movs	r1, #7
	.loc 2 2030 10 view .LVU156
	mov	r0, r2
.LVL35:
	.loc 2 2026 18 view .LVU157
	str	r2, [r3, #24]
	.loc 2 2027 3 is_stmt 1 view .LVU158
.LBE96:
.LBE99:
	.loc 1 252 1 is_stmt 0 view .LVU159
	ldr	r4, [sp], #4
.LCFI2:
	.cfi_restore 4
	.cfi_def_cfa_offset 0
.LBB100:
.LBB97:
	.loc 2 2027 18 view .LVU160
	str	r1, [r3, #16]
	.loc 2 2030 3 is_stmt 1 view .LVU161
.LBE97:
.LBE100:
	.loc 1 252 1 is_stmt 0 view .LVU162
	bx	lr
.L27:
.LBB101:
.LBB98:
	.loc 2 2021 12 view .LVU163
	movs	r0, #1
.LVL36:
	.loc 2 2021 12 view .LVU164
.LBE98:
.LBE101:
	.loc 1 252 1 view .LVU165
	bx	lr
.L33:
	.align	2
.L32:
	.word	-536810240
	.cfi_endproc
.LFE137:
	.size	HAL_SYSTICK_Config, .-HAL_SYSTICK_Config
	.section	.text.HAL_NVIC_GetPriorityGrouping,"ax",%progbits
	.align	1
	.p2align 2,,3
	.global	HAL_NVIC_GetPriorityGrouping
	.syntax unified
	.thumb
	.thumb_func
	.fpu fpv4-sp-d16
	.type	HAL_NVIC_GetPriorityGrouping, %function
HAL_NVIC_GetPriorityGrouping:
.LFB138:
	.loc 1 278 1 is_stmt 1 view -0
	.cfi_startproc
	@ args = 0, pretend = 0, frame = 0
	@ frame_needed = 0, uses_anonymous_args = 0
	@ link register save eliminated.
	.loc 1 280 3 view .LVU167
.LBB102:
.LBI102:
	.loc 2 1667 26 view .LVU168
.LBB103:
	.loc 2 1669 3 view .LVU169
	.loc 2 1669 26 is_stmt 0 view .LVU170
	ldr	r3, .L35
	ldr	r0, [r3, #12]
.LBE103:
.LBE102:
	.loc 1 281 1 view .LVU171
	ubfx	r0, r0, #8, #3
	bx	lr
.L36:
	.align	2
.L35:
	.word	-536810240
	.cfi_endproc
.LFE138:
	.size	HAL_NVIC_GetPriorityGrouping, .-HAL_NVIC_GetPriorityGrouping
	.section	.text.HAL_NVIC_GetPriority,"ax",%progbits
	.align	1
	.p2align 2,,3
	.global	HAL_NVIC_GetPriority
	.syntax unified
	.thumb
	.thumb_func
	.fpu fpv4-sp-d16
	.type	HAL_NVIC_GetPriority, %function
HAL_NVIC_GetPriority:
.LVL37:
.LFB139:
	.loc 1 305 1 is_stmt 1 view -0
	.cfi_startproc
	@ args = 0, pretend = 0, frame = 0
	@ frame_needed = 0, uses_anonymous_args = 0
	@ link register save eliminated.
	.loc 1 307 3 view .LVU173
	.loc 1 309 3 view .LVU174
.LBB104:
.LBI104:
	.loc 2 1831 26 view .LVU175
.LBB105:
	.loc 2 1834 3 view .LVU176
	.loc 2 1834 6 is_stmt 0 view .LVU177
	cmp	r0, #0
.LVL38:
	.loc 2 1834 6 view .LVU178
.LBE105:
.LBE104:
	.loc 1 305 1 view .LVU179
	push	{r4}
.LCFI3:
	.cfi_def_cfa_offset 4
	.cfi_offset 4, -4
.LBB108:
.LBB106:
	.loc 2 1834 6 view .LVU180
	blt	.L38
	.loc 2 1836 5 is_stmt 1 view .LVU181
	.loc 2 1836 31 is_stmt 0 view .LVU182
	add	r0, r0, #-536870912
	add	r0, r0, #57600
	ldrb	r0, [r0, #768]	@ zero_extendqisi2
	.loc 2 1836 64 view .LVU183
	lsrs	r0, r0, #4
.L39:
.LVL39:
	.loc 2 1836 64 view .LVU184
.LBE106:
.LBE108:
.LBB109:
.LBI109:
	.loc 2 1883 22 is_stmt 1 view .LVU185
.LBB110:
	.loc 2 1885 3 view .LVU186
	.loc 2 1885 12 is_stmt 0 view .LVU187
	and	r1, r1, #7
.LVL40:
	.loc 2 1886 3 is_stmt 1 view .LVU188
	.loc 2 1887 3 view .LVU189
	.loc 2 1889 3 view .LVU190
	.loc 2 1889 31 is_stmt 0 view .LVU191
	rsb	ip, r1, #7
	.loc 2 1889 23 view .LVU192
	cmp	ip, #4
	.loc 2 1890 44 view .LVU193
	add	r4, r1, #4
	.loc 2 1889 23 view .LVU194
	it	cs
	movcs	ip, #4
.LVL41:
	.loc 2 1890 3 is_stmt 1 view .LVU195
	.loc 2 1890 109 is_stmt 0 view .LVU196
	cmp	r4, #6
	bls	.L41
	subs	r1, r1, #3
.LVL42:
	.loc 2 1893 53 view .LVU197
	mov	r4, #-1
	lsls	r4, r4, r1
	bic	r4, r0, r4
	lsrs	r0, r0, r1
.LVL43:
.L40:
	.loc 2 1892 3 is_stmt 1 view .LVU198
	.loc 2 1892 53 is_stmt 0 view .LVU199
	mov	r1, #-1
	lsl	r1, r1, ip
	bic	r0, r0, r1
	.loc 2 1892 21 view .LVU200
	str	r0, [r2]
	.loc 2 1893 3 is_stmt 1 view .LVU201
	.loc 2 1893 21 is_stmt 0 view .LVU202
	str	r4, [r3]
.LVL44:
	.loc 2 1893 21 view .LVU203
.LBE110:
.LBE109:
	.loc 1 310 1 view .LVU204
	ldr	r4, [sp], #4
.LCFI4:
	.cfi_remember_state
	.cfi_restore 4
	.cfi_def_cfa_offset 0
	bx	lr
.LVL45:
.L41:
.LCFI5:
	.cfi_restore_state
.LBB112:
.LBB111:
	.loc 1 310 1 view .LVU205
	movs	r4, #0
	b	.L40
.LVL46:
.L38:
	.loc 1 310 1 view .LVU206
.LBE111:
.LBE112:
.LBB113:
.LBB107:
	.loc 2 1840 5 is_stmt 1 view .LVU207
	.loc 2 1840 31 is_stmt 0 view .LVU208
	ldr	r4, .L43
	.loc 2 1840 50 view .LVU209
	and	r0, r0, #15
	.loc 2 1840 31 view .LVU210
	add	r4, r4, r0
	ldrb	r0, [r4, #24]	@ zero_extendqisi2
	.loc 2 1840 64 view .LVU211
	lsrs	r0, r0, #4
	b	.L39
.L44:
	.align	2
.L43:
	.word	-536810244
.LBE107:
.LBE113:
	.cfi_endproc
.LFE139:
	.size	HAL_NVIC_GetPriority, .-HAL_NVIC_GetPriority
	.section	.text.HAL_NVIC_SetPendingIRQ,"ax",%progbits
	.align	1
	.p2align 2,,3
	.global	HAL_NVIC_SetPendingIRQ
	.syntax unified
	.thumb
	.thumb_func
	.fpu fpv4-sp-d16
	.type	HAL_NVIC_SetPendingIRQ, %function
HAL_NVIC_SetPendingIRQ:
.LVL47:
.LFB140:
	.loc 1 320 1 is_stmt 1 view -0
	.cfi_startproc
	@ args = 0, pretend = 0, frame = 0
	@ frame_needed = 0, uses_anonymous_args = 0
	@ link register save eliminated.
	.loc 1 322 3 view .LVU213
	.loc 1 325 3 view .LVU214
.LBB114:
.LBI114:
	.loc 2 1755 22 view .LVU215
.LBB115:
	.loc 2 1757 3 view .LVU216
	.loc 2 1757 6 is_stmt 0 view .LVU217
	cmp	r0, #0
.LVL48:
	.loc 2 1757 6 view .LVU218
	blt	.L45
	.loc 2 1759 5 is_stmt 1 view .LVU219
	.loc 2 1759 34 is_stmt 0 view .LVU220
	lsrs	r3, r0, #5
	.loc 2 1759 43 view .LVU221
	ldr	r1, .L47
	.loc 2 1759 81 view .LVU222
	and	r0, r0, #31
	.loc 2 1759 45 view .LVU223
	movs	r2, #1
	.loc 2 1759 43 view .LVU224
	adds	r3, r3, #64
	.loc 2 1759 45 view .LVU225
	lsl	r0, r2, r0
	.loc 2 1759 43 view .LVU226
	str	r0, [r1, r3, lsl #2]
.LVL49:
.L45:
	.loc 2 1759 43 view .LVU227
.LBE115:
.LBE114:
	.loc 1 326 1 view .LVU228
	bx	lr
.L48:
	.align	2
.L47:
	.word	-536813312
	.cfi_endproc
.LFE140:
	.size	HAL_NVIC_SetPendingIRQ, .-HAL_NVIC_SetPendingIRQ
	.section	.text.HAL_NVIC_GetPendingIRQ,"ax",%progbits
	.align	1
	.p2align 2,,3
	.global	HAL_NVIC_GetPendingIRQ
	.syntax unified
	.thumb
	.thumb_func
	.fpu fpv4-sp-d16
	.type	HAL_NVIC_GetPendingIRQ, %function
HAL_NVIC_GetPendingIRQ:
.LVL50:
.LFB141:
	.loc 1 338 1 is_stmt 1 view -0
	.cfi_startproc
	@ args = 0, pretend = 0, frame = 0
	@ frame_needed = 0, uses_anonymous_args = 0
	@ link register save eliminated.
	.loc 1 340 3 view .LVU230
	.loc 1 343 3 view .LVU231
.LBB116:
.LBI116:
	.loc 2 1736 26 view .LVU232
.LBB117:
	.loc 2 1738 3 view .LVU233
	.loc 2 1738 6 is_stmt 0 view .LVU234
	cmp	r0, #0
.LVL51:
	.loc 2 1738 6 view .LVU235
	blt	.L51
	.loc 2 1740 5 is_stmt 1 view .LVU236
	.loc 2 1740 54 is_stmt 0 view .LVU237
	lsrs	r3, r0, #5
	.loc 2 1740 35 view .LVU238
	ldr	r2, .L52
	adds	r3, r3, #64
	.loc 2 1740 91 view .LVU239
	and	r0, r0, #31
	.loc 2 1740 35 view .LVU240
	ldr	r3, [r2, r3, lsl #2]
	.loc 2 1740 103 view .LVU241
	lsr	r0, r3, r0
	.loc 2 1740 12 view .LVU242
	and	r0, r0, #1
	bx	lr
.L51:
	.loc 2 1744 11 view .LVU243
	movs	r0, #0
.LVL52:
	.loc 2 1744 11 view .LVU244
.LBE117:
.LBE116:
	.loc 1 344 1 view .LVU245
	bx	lr
.L53:
	.align	2
.L52:
	.word	-536813312
	.cfi_endproc
.LFE141:
	.size	HAL_NVIC_GetPendingIRQ, .-HAL_NVIC_GetPendingIRQ
	.section	.text.HAL_NVIC_ClearPendingIRQ,"ax",%progbits
	.align	1
	.p2align 2,,3
	.global	HAL_NVIC_ClearPendingIRQ
	.syntax unified
	.thumb
	.thumb_func
	.fpu fpv4-sp-d16
	.type	HAL_NVIC_ClearPendingIRQ, %function
HAL_NVIC_ClearPendingIRQ:
.LVL53:
.LFB142:
	.loc 1 354 1 is_stmt 1 view -0
	.cfi_startproc
	@ args = 0, pretend = 0, frame = 0
	@ frame_needed = 0, uses_anonymous_args = 0
	@ link register save eliminated.
	.loc 1 356 3 view .LVU247
	.loc 1 359 3 view .LVU248
.LBB118:
.LBI118:
	.loc 2 1770 22 view .LVU249
.LBB119:
	.loc 2 1772 3 view .LVU250
	.loc 2 1772 6 is_stmt 0 view .LVU251
	cmp	r0, #0
.LVL54:
	.loc 2 1772 6 view .LVU252
	blt	.L54
	.loc 2 1774 5 is_stmt 1 view .LVU253
	.loc 2 1774 34 is_stmt 0 view .LVU254
	lsrs	r3, r0, #5
	.loc 2 1774 43 view .LVU255
	ldr	r1, .L56
	.loc 2 1774 81 view .LVU256
	and	r0, r0, #31
	.loc 2 1774 45 view .LVU257
	movs	r2, #1
	.loc 2 1774 43 view .LVU258
	adds	r3, r3, #96
	.loc 2 1774 45 view .LVU259
	lsl	r0, r2, r0
	.loc 2 1774 43 view .LVU260
	str	r0, [r1, r3, lsl #2]
.LVL55:
.L54:
	.loc 2 1774 43 view .LVU261
.LBE119:
.LBE118:
	.loc 1 360 1 view .LVU262
	bx	lr
.L57:
	.align	2
.L56:
	.word	-536813312
	.cfi_endproc
.LFE142:
	.size	HAL_NVIC_ClearPendingIRQ, .-HAL_NVIC_ClearPendingIRQ
	.section	.text.HAL_NVIC_GetActive,"ax",%progbits
	.align	1
	.p2align 2,,3
	.global	HAL_NVIC_GetActive
	.syntax unified
	.thumb
	.thumb_func
	.fpu fpv4-sp-d16
	.type	HAL_NVIC_GetActive, %function
HAL_NVIC_GetActive:
.LVL56:
.LFB143:
	.loc 1 371 1 is_stmt 1 view -0
	.cfi_startproc
	@ args = 0, pretend = 0, frame = 0
	@ frame_needed = 0, uses_anonymous_args = 0
	@ link register save eliminated.
	.loc 1 373 3 view .LVU264
.LBB120:
.LBI120:
	.loc 2 1787 26 view .LVU265
.LBB121:
	.loc 2 1789 3 view .LVU266
	.loc 2 1789 6 is_stmt 0 view .LVU267
	cmp	r0, #0
.LVL57:
	.loc 2 1789 6 view .LVU268
	blt	.L60
	.loc 2 1791 5 is_stmt 1 view .LVU269
	.loc 2 1791 54 is_stmt 0 view .LVU270
	lsrs	r3, r0, #5
	.loc 2 1791 35 view .LVU271
	ldr	r2, .L61
	adds	r3, r3, #128
	.loc 2 1791 91 view .LVU272
	and	r0, r0, #31
	.loc 2 1791 35 view .LVU273
	ldr	r3, [r2, r3, lsl #2]
	.loc 2 1791 103 view .LVU274
	lsr	r0, r3, r0
	.loc 2 1791 12 view .LVU275
	and	r0, r0, #1
	bx	lr
.L60:
	.loc 2 1795 11 view .LVU276
	movs	r0, #0
.LVL58:
	.loc 2 1795 11 view .LVU277
.LBE121:
.LBE120:
	.loc 1 374 1 view .LVU278
	bx	lr
.L62:
	.align	2
.L61:
	.word	-536813312
	.cfi_endproc
.LFE143:
	.size	HAL_NVIC_GetActive, .-HAL_NVIC_GetActive
	.section	.text.HAL_SYSTICK_CLKSourceConfig,"ax",%progbits
	.align	1
	.p2align 2,,3
	.global	HAL_SYSTICK_CLKSourceConfig
	.syntax unified
	.thumb
	.thumb_func
	.fpu fpv4-sp-d16
	.type	HAL_SYSTICK_CLKSourceConfig, %function
HAL_SYSTICK_CLKSourceConfig:
.LVL59:
.LFB144:
	.loc 1 385 1 is_stmt 1 view -0
	.cfi_startproc
	@ args = 0, pretend = 0, frame = 0
	@ frame_needed = 0, uses_anonymous_args = 0
	@ link register save eliminated.
	.loc 1 387 3 view .LVU280
	.loc 1 388 3 view .LVU281
	.loc 1 390 19 is_stmt 0 view .LVU282
	mov	r2, #-536813568
	.loc 1 388 6 view .LVU283
	cmp	r0, #4
	.loc 1 390 5 is_stmt 1 view .LVU284
	.loc 1 390 19 is_stmt 0 view .LVU285
	ldr	r3, [r2, #16]
	ite	eq
	orreq	r3, r3, #4
	.loc 1 394 5 is_stmt 1 view .LVU286
	.loc 1 394 19 is_stmt 0 view .LVU287
	bicne	r3, r3, #4
	str	r3, [r2, #16]
	.loc 1 396 1 view .LVU288
	bx	lr
	.cfi_endproc
.LFE144:
	.size	HAL_SYSTICK_CLKSourceConfig, .-HAL_SYSTICK_CLKSourceConfig
	.section	.text.HAL_SYSTICK_Callback,"ax",%progbits
	.align	1
	.p2align 2,,3
	.weak	HAL_SYSTICK_Callback
	.syntax unified
	.thumb
	.thumb_func
	.fpu fpv4-sp-d16
	.type	HAL_SYSTICK_Callback, %function
HAL_SYSTICK_Callback:
.LFB146:
	.loc 1 412 1 is_stmt 1 view -0
	.cfi_startproc
	@ args = 0, pretend = 0, frame = 0
	@ frame_needed = 0, uses_anonymous_args = 0
	@ link register save eliminated.
	.loc 1 416 1 view .LVU290
	bx	lr
	.cfi_endproc
.LFE146:
	.size	HAL_SYSTICK_Callback, .-HAL_SYSTICK_Callback
	.section	.text.HAL_SYSTICK_IRQHandler,"ax",%progbits
	.align	1
	.p2align 2,,3
	.global	HAL_SYSTICK_IRQHandler
	.syntax unified
	.thumb
	.thumb_func
	.fpu fpv4-sp-d16
	.type	HAL_SYSTICK_IRQHandler, %function
HAL_SYSTICK_IRQHandler:
.LFB145:
	.loc 1 403 1 view -0
	.cfi_startproc
	@ args = 0, pretend = 0, frame = 0
	@ frame_needed = 0, uses_anonymous_args = 0
	.loc 1 404 3 view .LVU292
	.loc 1 403 1 is_stmt 0 view .LVU293
	push	{r3, lr}
.LCFI6:
	.cfi_def_cfa_offset 8
	.cfi_offset 3, -8
	.cfi_offset 14, -4
	.loc 1 404 3 view .LVU294
	bl	HAL_SYSTICK_Callback
.LVL60:
	.loc 1 405 1 view .LVU295
	pop	{r3, pc}
	.cfi_endproc
.LFE145:
	.size	HAL_SYSTICK_IRQHandler, .-HAL_SYSTICK_IRQHandler
	.section	.text.HAL_MPU_Enable,"ax",%progbits
	.align	1
	.p2align 2,,3
	.global	HAL_MPU_Enable
	.syntax unified
	.thumb
	.thumb_func
	.fpu fpv4-sp-d16
	.type	HAL_MPU_Enable, %function
HAL_MPU_Enable:
.LVL61:
.LFB147:
	.loc 1 431 1 is_stmt 1 view -0
	.cfi_startproc
	@ args = 0, pretend = 0, frame = 0
	@ frame_needed = 0, uses_anonymous_args = 0
	@ link register save eliminated.
	.loc 1 433 3 view .LVU297
	.loc 1 433 13 is_stmt 0 view .LVU298
	ldr	r3, .L70
	.loc 1 433 28 view .LVU299
	orr	r0, r0, #1
.LVL62:
	.loc 1 433 13 view .LVU300
	str	r0, [r3, #148]
	.loc 1 436 3 is_stmt 1 view .LVU301
.LBB122:
.LBI122:
	.loc 3 944 27 view .LVU302
.LBB123:
	.loc 3 946 3 view .LVU303
	.syntax unified
@ 946 "Drivers/CMSIS/Include/cmsis_gcc.h" 1
	dsb 0xF
@ 0 "" 2
	.thumb
	.syntax unified
.LBE123:
.LBE122:
	.loc 1 437 3 view .LVU304
.LBB124:
.LBI124:
	.loc 3 933 27 view .LVU305
.LBB125:
	.loc 3 935 3 view .LVU306
	.syntax unified
@ 935 "Drivers/CMSIS/Include/cmsis_gcc.h" 1
	isb 0xF
@ 0 "" 2
	.thumb
	.syntax unified
.LBE125:
.LBE124:
	.loc 1 438 1 is_stmt 0 view .LVU307
	bx	lr
.L71:
	.align	2
.L70:
	.word	-536810240
	.cfi_endproc
.LFE147:
	.size	HAL_MPU_Enable, .-HAL_MPU_Enable
	.section	.text.HAL_MPU_Disable,"ax",%progbits
	.align	1
	.p2align 2,,3
	.global	HAL_MPU_Disable
	.syntax unified
	.thumb
	.thumb_func
	.fpu fpv4-sp-d16
	.type	HAL_MPU_Disable, %function
HAL_MPU_Disable:
.LFB148:
	.loc 1 446 1 is_stmt 1 view -0
	.cfi_startproc
	@ args = 0, pretend = 0, frame = 0
	@ frame_needed = 0, uses_anonymous_args = 0
	@ link register save eliminated.
	.loc 1 448 3 view .LVU309
.LBB126:
.LBI126:
	.loc 3 955 27 view .LVU310
.LBB127:
	.loc 3 957 3 view .LVU311
	.syntax unified
@ 957 "Drivers/CMSIS/Include/cmsis_gcc.h" 1
	dmb 0xF
@ 0 "" 2
	.thumb
	.syntax unified
.LBE127:
.LBE126:
	.loc 1 451 3 view .LVU312
	.loc 1 451 14 is_stmt 0 view .LVU313
	ldr	r3, .L73
	movs	r2, #0
	str	r2, [r3, #148]
	.loc 1 452 1 view .LVU314
	bx	lr
.L74:
	.align	2
.L73:
	.word	-536810240
	.cfi_endproc
.LFE148:
	.size	HAL_MPU_Disable, .-HAL_MPU_Disable
	.section	.text.HAL_MPU_ConfigRegion,"ax",%progbits
	.align	1
	.p2align 2,,3
	.global	HAL_MPU_ConfigRegion
	.syntax unified
	.thumb
	.thumb_func
	.fpu fpv4-sp-d16
	.type	HAL_MPU_ConfigRegion, %function
HAL_MPU_ConfigRegion:
.LVL63:
.LFB149:
	.loc 1 462 1 is_stmt 1 view -0
	.cfi_startproc
	@ args = 0, pretend = 0, frame = 0
	@ frame_needed = 0, uses_anonymous_args = 0
	.loc 1 464 3 view .LVU316
	.loc 1 465 3 view .LVU317
	.loc 1 468 3 view .LVU318
	.loc 1 468 12 is_stmt 0 view .LVU319
	ldr	r1, .L82
	.loc 1 468 22 view .LVU320
	ldrb	r3, [r0, #1]	@ zero_extendqisi2
	.loc 1 468 12 view .LVU321
	str	r3, [r1, #152]
	.loc 1 470 3 is_stmt 1 view .LVU322
	.loc 1 470 16 is_stmt 0 view .LVU323
	ldrb	r2, [r0]	@ zero_extendqisi2
	.loc 1 470 6 view .LVU324
	cbz	r2, .L76
	.loc 1 473 5 is_stmt 1 view .LVU325
	.loc 1 474 5 view .LVU326
	.loc 1 475 5 view .LVU327
	.loc 1 476 5 view .LVU328
	.loc 1 477 5 view .LVU329
	.loc 1 478 5 view .LVU330
	.loc 1 479 5 view .LVU331
	.loc 1 480 5 view .LVU332
	.loc 1 482 5 view .LVU333
	.loc 1 482 25 is_stmt 0 view .LVU334
	ldr	r3, [r0, #4]
	.loc 1 462 1 view .LVU335
	push	{lr}
.LCFI7:
	.cfi_def_cfa_offset 4
	.cfi_offset 14, -4
	.loc 1 482 15 view .LVU336
	str	r3, [r1, #156]
	.loc 1 483 5 is_stmt 1 view .LVU337
	.loc 1 484 18 is_stmt 0 view .LVU338
	ldrb	r3, [r0, #11]	@ zero_extendqisi2
	.loc 1 483 18 view .LVU339
	ldrb	ip, [r0, #12]	@ zero_extendqisi2
	.loc 1 488 18 view .LVU340
	ldrb	lr, [r0, #15]	@ zero_extendqisi2
	.loc 1 484 57 view .LVU341
	lsls	r3, r3, #24
	.loc 1 483 79 view .LVU342
	orr	r3, r3, ip, lsl #28
	.loc 1 485 18 view .LVU343
	ldrb	ip, [r0, #10]	@ zero_extendqisi2
	.loc 1 490 79 view .LVU344
	orrs	r3, r3, r2
	orr	r3, r3, ip, lsl #19
	.loc 1 486 18 view .LVU345
	ldrb	ip, [r0, #13]	@ zero_extendqisi2
	.loc 1 487 18 view .LVU346
	ldrb	r2, [r0, #14]	@ zero_extendqisi2
	.loc 1 490 79 view .LVU347
	orr	r3, r3, ip, lsl #18
	orr	r3, r3, r2, lsl #17
	.loc 1 489 18 view .LVU348
	ldrb	ip, [r0, #9]	@ zero_extendqisi2
	.loc 1 490 18 view .LVU349
	ldrb	r2, [r0, #8]	@ zero_extendqisi2
	.loc 1 490 79 view .LVU350
	orr	r3, r3, lr, lsl #16
	orr	r3, r3, ip, lsl #8
	orr	r3, r3, r2, lsl #1
	.loc 1 483 15 view .LVU351
	str	r3, [r1, #160]
	.loc 1 498 1 view .LVU352
	ldr	pc, [sp], #4
.L76:
.LCFI8:
	.cfi_def_cfa_offset 0
	.cfi_restore 14
	.loc 1 495 5 is_stmt 1 view .LVU353
	.loc 1 495 15 is_stmt 0 view .LVU354
	str	r2, [r1, #156]
	.loc 1 496 5 is_stmt 1 view .LVU355
	.loc 1 496 15 is_stmt 0 view .LVU356
	str	r2, [r1, #160]
	bx	lr
.L83:
	.align	2
.L82:
	.word	-536810240
	.cfi_endproc
.LFE149:
	.size	HAL_MPU_ConfigRegion, .-HAL_MPU_ConfigRegion
	.text
.Letext0:
	.file 4 "Drivers/CMSIS/Device/ST/STM32G4xx/Include/stm32g431xx.h"
	.file 5 "/usr/share/gcc-arm-none-eabi-10-2020-q4-major/arm-none-eabi/include/machine/_default_types.h"
	.file 6 "/usr/share/gcc-arm-none-eabi-10-2020-q4-major/arm-none-eabi/include/sys/_stdint.h"
	.file 7 "Drivers/STM32G4xx_HAL_Driver/Inc/stm32g4xx_hal_cortex.h"