	.cpu cortex-m4
	.eabi_attribute 27, 1
	.eabi_attribute 28, 1
	.eabi_attribute 20, 1
	.eabi_attribute 21, 1
	.eabi_attribute 23, 3
	.eabi_attribute 24, 1
	.eabi_attribute 25, 1
	.eabi_attribute 26, 1
	.eabi_attribute 30, 2
	.eabi_attribute 34, 1
	.eabi_attribute 18, 4
	.file	"stm32g4xx_ll_opamp.c"
	.text
.Ltext0:
	.cfi_sections	.debug_frame
	.section	.text.LL_OPAMP_DeInit,"ax",%progbits
	.align	1
	.p2align 2,,3
	.global	LL_OPAMP_DeInit
	.arch armv7e-m
	.syntax unified
	.thumb
	.thumb_func
	.fpu fpv4-sp-d16
	.type	LL_OPAMP_DeInit, %function
LL_OPAMP_DeInit:
.LVL0:
.LFB166:
	.file 1 "Drivers/STM32G4xx_HAL_Driver/Src/stm32g4xx_ll_opamp.c"
	.loc 1 106 1 view -0
	.cfi_startproc
	@ args = 0, pretend = 0, frame = 0
	@ frame_needed = 0, uses_anonymous_args = 0
	@ link register save eliminated.
	.loc 1 107 3 view .LVU1
	.loc 1 110 3 view .LVU2
	.loc 1 114 3 view .LVU3
.LBB8:
.LBI8:
	.file 2 "Drivers/STM32G4xx_HAL_Driver/Inc/stm32g4xx_ll_opamp.h"
	.loc 2 958 26 view .LVU4
.LBB9:
	.loc 2 960 3 view .LVU5
	.loc 2 960 12 is_stmt 0 view .LVU6
	ldr	r3, [r0]
	.loc 2 960 77 view .LVU7
	cmp	r3, #0
.LVL1:
	.loc 2 960 77 view .LVU8
.LBE9:
.LBE8:
	.loc 1 116 5 is_stmt 1 view .LVU9
	itt	ge
	movge	r3, #0
	strge	r3, [r0]
.LBB10:
.LBB11:
	.loc 2 987 12 is_stmt 0 view .LVU10
	ldr	r2, [r0, #24]
.LBE11:
.LBE10:
	.loc 1 123 12 view .LVU11
	it	lt
	movlt	r3, #1
.LVL2:
	.loc 1 127 3 is_stmt 1 view .LVU12
.LBB13:
.LBI10:
	.loc 2 985 26 view .LVU13
.LBB12:
	.loc 2 987 3 view .LVU14
	.loc 2 987 80 is_stmt 0 view .LVU15
	cmp	r2, #0
	blt	.L3
.LVL3:
	.loc 2 987 80 view .LVU16
.LBE12:
.LBE13:
	.loc 1 129 5 is_stmt 1 view .LVU17
	movs	r2, #0
	str	r2, [r0, #24]
	.loc 1 140 3 view .LVU18
	.loc 1 142 3 view .LVU19
	.loc 1 143 1 is_stmt 0 view .LVU20
	mov	r0, r3
.LVL4:
	.loc 1 143 1 view .LVU21
	bx	lr
.LVL5:
.L3:
	.loc 1 131 8 is_stmt 1 view .LVU22
	.loc 1 131 12 is_stmt 0 view .LVU23
	ldr	r2, [r0, #24]
	.loc 1 135 12 view .LVU24
	cmp	r2, #-2147483648
	it	ne
	movne	r3, #1
.LVL6:
	.loc 1 140 3 is_stmt 1 view .LVU25
	.loc 1 142 3 view .LVU26
	.loc 1 143 1 is_stmt 0 view .LVU27
	mov	r0, r3
.LVL7:
	.loc 1 143 1 view .LVU28
	bx	lr
	.cfi_endproc
.LFE166:
	.size	LL_OPAMP_DeInit, .-LL_OPAMP_DeInit
	.section	.text.LL_OPAMP_Init,"ax",%progbits
	.align	1
	.p2align 2,,3
	.global	LL_OPAMP_Init
	.syntax unified
	.thumb
	.thumb_func
	.fpu fpv4-sp-d16
	.type	LL_OPAMP_Init, %function
LL_OPAMP_Init:
.LVL8:
.LFB167:
	.loc 1 158 1 is_stmt 1 view -0
	.cfi_startproc
	@ args = 0, pretend = 0, frame = 0
	@ frame_needed = 0, uses_anonymous_args = 0
	@ link register save eliminated.
	.loc 1 159 3 view .LVU30
	.loc 1 162 3 view .LVU31
	.loc 1 163 3 view .LVU32
	.loc 1 164 3 view .LVU33
	.loc 1 165 3 view .LVU34
	.loc 1 171 3 view .LVU35
	.loc 1 173 5 view .LVU36
	.loc 1 178 3 view .LVU37
.LBB14:
.LBI14:
	.loc 2 958 26 view .LVU38
.LBB15:
	.loc 2 960 3 view .LVU39
	.loc 2 960 12 is_stmt 0 view .LVU40
	ldr	r3, [r0]
	.loc 2 960 77 view .LVU41
	cmp	r3, #0
	blt	.L12
.LBE15:
.LBE14:
	.loc 1 158 1 view .LVU42
	push	{r4}
.LCFI0:
	.cfi_def_cfa_offset 4
	.cfi_offset 4, -4
	.loc 1 171 23 view .LVU43
	ldr	r4, [r1, #4]
.LVL9:
	.loc 1 186 5 is_stmt 1 view .LVU44
	.loc 1 188 7 is_stmt 0 view .LVU45
	ldr	r3, [r0]
	.loc 1 186 8 view .LVU46
	cmp	r4, #96
	beq	.L11
	.loc 1 188 7 is_stmt 1 view .LVU47
	bic	r3, r3, #395264
	ldr	r2, [r1]
	bic	r3, r3, #236
	orrs	r3, r3, r4
	orrs	r3, r3, r2
	ldrd	r4, r2, [r1, #8]
	orrs	r3, r3, r4
	orrs	r3, r3, r2
	str	r3, [r0]
	.loc 1 223 1 is_stmt 0 view .LVU48
	ldr	r4, [sp], #4
.LCFI1:
	.cfi_remember_state
	.cfi_restore 4
	.cfi_def_cfa_offset 0
	.loc 1 159 15 view .LVU49
	movs	r0, #0
.LVL10:
	.loc 1 222 3 is_stmt 1 view .LVU50
	.loc 1 223 1 is_stmt 0 view .LVU51
	bx	lr
.LVL11:
.L11:
.LCFI2:
	.cfi_restore_state
	.loc 1 203 7 is_stmt 1 view .LVU52
	ldr	r4, [r1, #8]
	ldr	r2, [r1]
	bic	r3, r3, #395264
	bic	r3, r3, #236
	orrs	r3, r3, r4
	orrs	r3, r3, r2
	orr	r3, r3, #96
	str	r3, [r0]
	.loc 1 223 1 is_stmt 0 view .LVU53
	ldr	r4, [sp], #4
.LCFI3:
	.cfi_restore 4
	.cfi_def_cfa_offset 0
	.loc 1 159 15 view .LVU54
	movs	r0, #0
.LVL12:
	.loc 1 222 3 is_stmt 1 view .LVU55
	.loc 1 223 1 is_stmt 0 view .LVU56
	bx	lr
.LVL13:
.L12:
	.loc 1 219 12 view .LVU57
	movs	r0, #1
.LVL14:
	.loc 1 222 3 is_stmt 1 view .LVU58
	.loc 1 223 1 is_stmt 0 view .LVU59
	bx	lr
	.cfi_endproc
.LFE167:
	.size	LL_OPAMP_Init, .-LL_OPAMP_Init
	.section	.text.LL_OPAMP_StructInit,"ax",%progbits
	.align	1
	.p2align 2,,3
	.global	LL_OPAMP_StructInit
	.syntax unified
	.thumb
	.thumb_func
	.fpu fpv4-sp-d16
	.type	LL_OPAMP_StructInit, %function
LL_OPAMP_StructInit:
.LVL15:
.LFB168:
	.loc 1 232 1 is_stmt 1 view -0
	.cfi_startproc
	@ args = 0, pretend = 0, frame = 0
	@ frame_needed = 0, uses_anonymous_args = 0
	@ link register save eliminated.
	.loc 1 234 3 view .LVU61
	.loc 1 234 39 is_stmt 0 view .LVU62
	movs	r3, #0
	.loc 1 235 39 view .LVU63
	movs	r1, #96
	.loc 1 239 39 view .LVU64
	movs	r2, #64
	.loc 1 235 39 view .LVU65
	strd	r3, r1, [r0]
	.loc 1 236 3 is_stmt 1 view .LVU66
	.loc 1 239 39 is_stmt 0 view .LVU67
	strd	r3, r2, [r0, #8]
	.loc 1 240 1 view .LVU68
	bx	lr
	.cfi_endproc
.LFE168:
	.size	LL_OPAMP_StructInit, .-LL_OPAMP_StructInit
	.text
.Letext0:
	.file 3 "/usr/share/gcc-arm-none-eabi-10-2020-q4-major/arm-none-eabi/include/machine/_default_types.h"
	.file 4 "/usr/share/gcc-arm-none-eabi-10-2020-q4-major/arm-none-eabi/include/sys/_stdint.h"
	.file 5 "Drivers/CMSIS/Device/ST/STM32G4xx/Include/stm32g431xx.h"
	.file 6 "Drivers/CMSIS/Device/ST/STM32G4xx/Include/stm32g4xx.h"