	.cpu cortex-m4
	.eabi_attribute 27, 1
	.eabi_attribute 28, 1
	.eabi_attribute 20, 1
	.eabi_attribute 21, 1
	.eabi_attribute 23, 3
	.eabi_attribute 24, 1
	.eabi_attribute 25, 1
	.eabi_attribute 26, 1
	.eabi_attribute 30, 2
	.eabi_attribute 34, 1
	.eabi_attribute 18, 4
	.file	"stm32_mc_common_it.c"
	.text
.Ltext0:
	.cfi_sections	.debug_frame
	.section	.text.USART1_IRQHandler,"ax",%progbits
	.align	1
	.p2align 2,,3
	.global	USART1_IRQHandler
	.arch armv7e-m
	.syntax unified
	.thumb
	.thumb_func
	.fpu fpv4-sp-d16
	.type	USART1_IRQHandler, %function
USART1_IRQHandler:
.LFB1745:
	.file 1 "Src/stm32_mc_common_it.c"
	.loc 1 72 1 view -0
	.cfi_startproc
	@ args = 0, pretend = 0, frame = 0
	@ frame_needed = 0, uses_anonymous_args = 0
	.loc 1 76 3 view .LVU1
	.loc 1 77 3 view .LVU2
	.loc 1 78 3 view .LVU3
	.loc 1 80 3 view .LVU4
.LVL0:
.LBB100:
.LBI100:
	.file 2 "Drivers/STM32G4xx_HAL_Driver/Inc/stm32g4xx_ll_usart.h"
	.loc 2 3008 26 view .LVU5
.LBB101:
	.loc 2 3010 3 view .LVU6
	.loc 2 3010 12 is_stmt 0 view .LVU7
	ldr	r3, .L30
	ldr	r2, [r3, #28]
	.loc 2 3010 73 view .LVU8
	lsls	r0, r2, #25
.LBE101:
.LBE100:
	.loc 1 72 1 view .LVU9
	push	{r4, lr}
.LCFI0:
	.cfi_def_cfa_offset 8
	.cfi_offset 4, -8
	.cfi_offset 14, -4
.LBB103:
.LBB102:
	.loc 2 3010 73 view .LVU10
	bpl	.L2
.LVL1:
	.loc 2 3010 73 view .LVU11
.LBE102:
.LBE103:
	.loc 1 87 5 is_stmt 1 view .LVU12
.LBB104:
.LBI104:
	.file 3 "Drivers/STM32G4xx_HAL_Driver/Inc/stm32g4xx_ll_dma.h"
	.loc 3 539 22 view .LVU13
.LBB105:
	.loc 3 541 3 view .LVU14
	.loc 3 542 3 view .LVU15
	ldr	r1, .L30+4
.LBE105:
.LBE104:
	.loc 1 91 5 is_stmt 0 view .LVU16
	ldr	r0, .L30+8
.LBB108:
.LBB106:
	.loc 3 542 3 view .LVU17
	ldr	r2, [r1, #28]
.LBE106:
.LBE108:
.LBB109:
.LBB110:
	.loc 2 3348 3 view .LVU18
	movs	r4, #64
.LBE110:
.LBE109:
.LBB112:
.LBB107:
	.loc 3 542 3 view .LVU19
	bic	r2, r2, #1
	str	r2, [r1, #28]
.LVL2:
	.loc 3 542 3 view .LVU20
.LBE107:
.LBE112:
	.loc 1 88 5 is_stmt 1 view .LVU21
.LBB113:
.LBI109:
	.loc 2 3346 22 view .LVU22
.LBB111:
	.loc 2 3348 3 view .LVU23
	str	r4, [r3, #32]
.LVL3:
	.loc 2 3348 3 is_stmt 0 view .LVU24
.LBE111:
.LBE113:
	.loc 1 91 5 is_stmt 1 view .LVU25
	bl	ASPEP_HWDataTransmittedIT
.LVL4:
.L2:
	.loc 1 93 3 view .LVU26
	.loc 1 94 3 view .LVU27
	.loc 1 95 3 view .LVU28
	.loc 1 96 3 view .LVU29
	.loc 1 98 3 view .LVU30
.LBB114:
.LBI114:
	.loc 2 2971 26 view .LVU31
.LBB115:
	.loc 2 2973 3 view .LVU32
	.loc 2 2973 12 is_stmt 0 view .LVU33
	ldr	r1, .L30
	ldr	r2, [r1, #28]
.LVL5:
	.loc 2 2973 12 view .LVU34
.LBE115:
.LBE114:
	.loc 1 99 3 is_stmt 1 view .LVU35
.LBB117:
.LBI117:
	.loc 2 2949 26 view .LVU36
.LBB118:
	.loc 2 2951 3 view .LVU37
	.loc 2 2951 12 is_stmt 0 view .LVU38
	ldr	r3, [r1, #28]
.LVL6:
	.loc 2 2951 12 view .LVU39
.LBE118:
.LBE117:
	.loc 1 100 3 is_stmt 1 view .LVU40
.LBB120:
.LBI120:
	.loc 2 2960 26 view .LVU41
.LBB121:
	.loc 2 2962 3 view .LVU42
	.loc 2 2962 12 is_stmt 0 view .LVU43
	ldr	r0, [r1, #28]
.LVL7:
	.loc 2 2962 12 view .LVU44
.LBE121:
.LBE120:
	.loc 1 101 3 is_stmt 1 view .LVU45
.LBB123:
.LBI123:
	.loc 2 4032 26 view .LVU46
.LBB124:
	.loc 2 4034 3 view .LVU47
.LBE124:
.LBE123:
.LBB126:
.LBB116:
	.loc 2 2973 12 is_stmt 0 view .LVU48
	and	ip, r2, #8
.LBE116:
.LBE126:
.LBB127:
.LBB119:
	.loc 2 2951 12 view .LVU49
	and	r3, r3, #2
.LVL8:
	.loc 2 2951 12 view .LVU50
.LBE119:
.LBE127:
.LBB128:
.LBB125:
	.loc 2 4034 12 view .LVU51
	ldr	r2, [r1, #8]
.LVL9:
	.loc 2 4034 12 view .LVU52
.LBE125:
.LBE128:
	.loc 1 103 3 is_stmt 1 view .LVU53
	.loc 1 104 3 view .LVU54
.LBB129:
.LBB122:
	.loc 2 2962 73 is_stmt 0 view .LVU55
	orr	r3, r3, ip
	.loc 2 2962 12 view .LVU56
	and	r0, r0, #4
.LVL10:
	.loc 2 2962 73 view .LVU57
	orrs	r3, r3, r0
.LBE122:
.LBE129:
	.loc 1 104 6 view .LVU58
	and	r2, r2, #1
.LVL11:
	.loc 1 104 6 view .LVU59
	it	eq
	moveq	r2, #0
.LVL12:
	.loc 1 104 6 view .LVU60
	cbz	r2, .L8
	.loc 1 110 5 is_stmt 1 view .LVU61
	movs	r3, #14
.LBB130:
.LBB131:
	.loc 2 3821 3 is_stmt 0 view .LVU62
	ldr	r2, .L30+12
.LBE131:
.LBE130:
	.loc 1 110 5 view .LVU63
	str	r3, [r1, #32]
	.loc 1 113 5 is_stmt 1 view .LVU64
.LVL13:
.LBB138:
.LBI130:
	.loc 2 3819 22 view .LVU65
.L6:
.LBE138:
	.loc 2 3821 3 view .LVU66
.LBB139:
.LBB136:
	.loc 2 3821 3 view .LVU67
	.loc 2 3821 3 view .LVU68
	.loc 2 3821 3 view .LVU69
.LBB132:
.LBI132:
	.file 4 "Drivers/CMSIS/Include/cmsis_gcc.h"
	.loc 4 1151 31 view .LVU70
.LBB133:
	.loc 4 1153 5 view .LVU71
	.loc 4 1155 4 view .LVU72
	.syntax unified
@ 1155 "Drivers/CMSIS/Include/cmsis_gcc.h" 1
	ldrex r3, [r2]
@ 0 "" 2
.LVL14:
	.loc 4 1156 4 view .LVU73
	.loc 4 1156 4 is_stmt 0 view .LVU74
	.thumb
	.syntax unified
.LBE133:
.LBE132:
	.loc 2 3821 3 view .LVU75
	bic	r3, r3, #1
.LVL15:
	.loc 2 3821 3 is_stmt 1 view .LVU76
.LBB134:
.LBI134:
	.loc 4 1202 31 view .LVU77
.LBB135:
	.loc 4 1204 4 view .LVU78
	.loc 4 1206 4 view .LVU79
	.syntax unified
@ 1206 "Drivers/CMSIS/Include/cmsis_gcc.h" 1
	strex r1, r3, [r2]
@ 0 "" 2
.LVL16:
	.loc 4 1207 4 view .LVU80
	.loc 4 1207 4 is_stmt 0 view .LVU81
	.thumb
	.syntax unified
.LBE135:
.LBE134:
	.loc 2 3821 3 view .LVU82
	cmp	r1, #0
	bne	.L6
.LBE136:
.LBE139:
.LBB140:
.LBB141:
	.loc 2 3465 3 view .LVU83
	ldr	r2, .L30
.LVL17:
.L7:
	.loc 2 3465 3 view .LVU84
.LBE141:
.LBE140:
	.loc 2 3465 3 is_stmt 1 view .LVU85
.LBB147:
.LBB146:
	.loc 2 3465 3 view .LVU86
	.loc 2 3465 3 view .LVU87
	.loc 2 3465 3 view .LVU88
.LBB142:
.LBI142:
	.loc 4 1151 31 view .LVU89
.LBB143:
	.loc 4 1153 5 view .LVU90
	.loc 4 1155 4 view .LVU91
	.syntax unified
@ 1155 "Drivers/CMSIS/Include/cmsis_gcc.h" 1
	ldrex r3, [r2]
@ 0 "" 2
.LVL18:
	.loc 4 1156 4 view .LVU92
	.loc 4 1156 4 is_stmt 0 view .LVU93
	.thumb
	.syntax unified
.LBE143:
.LBE142:
	.loc 2 3465 3 view .LVU94
	orr	r3, r3, #16
.LVL19:
	.loc 2 3465 3 is_stmt 1 view .LVU95
.LBB144:
.LBI144:
	.loc 4 1202 31 view .LVU96
.LBB145:
	.loc 4 1204 4 view .LVU97
	.loc 4 1206 4 view .LVU98
	.syntax unified
@ 1206 "Drivers/CMSIS/Include/cmsis_gcc.h" 1
	strex r1, r3, [r2]
@ 0 "" 2
.LVL20:
	.loc 4 1207 4 view .LVU99
	.loc 4 1207 4 is_stmt 0 view .LVU100
	.thumb
	.syntax unified
.LBE145:
.LBE144:
	.loc 2 3465 3 view .LVU101
	cmp	r1, #0
	bne	.L7
.LVL21:
.L8:
	.loc 2 3465 3 view .LVU102
.LBE146:
.LBE147:
	.loc 1 117 3 is_stmt 1 view .LVU103
.LBB148:
.LBI148:
	.loc 2 2982 26 view .LVU104
.LBB149:
	.loc 2 2984 3 view .LVU105
	.loc 2 2984 12 is_stmt 0 view .LVU106
	ldr	r2, .L30
	ldr	r3, [r2, #28]
	.loc 2 2984 77 view .LVU107
	lsls	r1, r3, #27
	bpl	.L29
.LVL22:
	.loc 2 2984 77 view .LVU108
.LBE149:
.LBE148:
	.loc 1 118 3 is_stmt 1 view .LVU109
.LBB150:
.LBI150:
	.loc 2 3895 26 view .LVU110
.LBB151:
	.loc 2 3897 3 view .LVU111
	.loc 2 3897 12 is_stmt 0 view .LVU112
	ldr	r3, [r2]
	.loc 2 3897 81 view .LVU113
	lsls	r3, r3, #27
	bpl	.L1
.LVL23:
.L10:
	.loc 2 3897 81 view .LVU114
.LBE151:
.LBE150:
	.loc 2 3680 3 is_stmt 1 view .LVU115
.LBB153:
.LBB154:
	.loc 2 3680 3 view .LVU116
	.loc 2 3680 3 view .LVU117
	.loc 2 3680 3 view .LVU118
.LBB155:
.LBI155:
	.loc 4 1151 31 view .LVU119
.LBB156:
	.loc 4 1153 5 view .LVU120
	.loc 4 1155 4 view .LVU121
	.syntax unified
@ 1155 "Drivers/CMSIS/Include/cmsis_gcc.h" 1
	ldrex r3, [r2]
@ 0 "" 2
.LVL24:
	.loc 4 1156 4 view .LVU122
	.loc 4 1156 4 is_stmt 0 view .LVU123
	.thumb
	.syntax unified
.LBE156:
.LBE155:
	.loc 2 3680 3 view .LVU124
	bic	r3, r3, #16
.LVL25:
	.loc 2 3680 3 is_stmt 1 view .LVU125
.LBB157:
.LBI157:
	.loc 4 1202 31 view .LVU126
.LBB158:
	.loc 4 1204 4 view .LVU127
	.loc 4 1206 4 view .LVU128
	.syntax unified
@ 1206 "Drivers/CMSIS/Include/cmsis_gcc.h" 1
	strex r1, r3, [r2]
@ 0 "" 2
.LVL26:
	.loc 4 1207 4 view .LVU129
	.loc 4 1207 4 is_stmt 0 view .LVU130
	.thumb
	.syntax unified
.LBE158:
.LBE157:
	.loc 2 3680 3 view .LVU131
	cmp	r1, #0
	bne	.L10
.LBE154:
.LBE153:
.LBB159:
.LBB137:
	.loc 2 3821 3 view .LVU132
	ldr	r3, .L30+12
.LVL27:
.L11:
	.loc 2 3821 3 view .LVU133
.LBE137:
.LBE159:
	.loc 2 3604 3 is_stmt 1 view .LVU134
.LBB160:
.LBB161:
	.loc 2 3604 3 view .LVU135
	.loc 2 3604 3 view .LVU136
	.loc 2 3604 3 view .LVU137
.LBB162:
.LBI162:
	.loc 4 1151 31 view .LVU138
.LBB163:
	.loc 4 1153 5 view .LVU139
	.loc 4 1155 4 view .LVU140
	.syntax unified
@ 1155 "Drivers/CMSIS/Include/cmsis_gcc.h" 1
	ldrex r2, [r3]
@ 0 "" 2
.LVL28:
	.loc 4 1156 4 view .LVU141
	.loc 4 1156 4 is_stmt 0 view .LVU142
	.thumb
	.syntax unified
.LBE163:
.LBE162:
	.loc 2 3604 3 view .LVU143
	orr	r2, r2, #1
.LVL29:
	.loc 2 3604 3 is_stmt 1 view .LVU144
.LBB164:
.LBI164:
	.loc 4 1202 31 view .LVU145
.LBB165:
	.loc 4 1204 4 view .LVU146
	.loc 4 1206 4 view .LVU147
	.syntax unified
@ 1206 "Drivers/CMSIS/Include/cmsis_gcc.h" 1
	strex r1, r2, [r3]
@ 0 "" 2
.LVL30:
	.loc 4 1207 4 view .LVU148
	.loc 4 1207 4 is_stmt 0 view .LVU149
	.thumb
	.syntax unified
.LBE165:
.LBE164:
	.loc 2 3604 3 view .LVU150
	cmp	r1, #0
	bne	.L11
.LVL31:
.L12:
	.loc 2 3604 3 view .LVU151
.LBE161:
.LBE160:
	.loc 2 4129 3 is_stmt 1 view .LVU152
.LBB166:
.LBB167:
	.loc 2 4129 3 view .LVU153
	.loc 2 4129 3 view .LVU154
	.loc 2 4129 3 view .LVU155
.LBB168:
.LBI168:
	.loc 4 1151 31 view .LVU156
.LBB169:
	.loc 4 1153 5 view .LVU157
	.loc 4 1155 4 view .LVU158
	.syntax unified
@ 1155 "Drivers/CMSIS/Include/cmsis_gcc.h" 1
	ldrex r2, [r3]
@ 0 "" 2
.LVL32:
	.loc 4 1156 4 view .LVU159
	.loc 4 1156 4 is_stmt 0 view .LVU160
	.thumb
	.syntax unified
.LBE169:
.LBE168:
	.loc 2 4129 3 view .LVU161
	bic	r2, r2, #64
.LVL33:
	.loc 2 4129 3 is_stmt 1 view .LVU162
.LBB170:
.LBI170:
	.loc 4 1202 31 view .LVU163
.LBB171:
	.loc 4 1204 4 view .LVU164
	.loc 4 1206 4 view .LVU165
	.syntax unified
@ 1206 "Drivers/CMSIS/Include/cmsis_gcc.h" 1
	strex r1, r2, [r3]
@ 0 "" 2
.LVL34:
	.loc 4 1207 4 view .LVU166
	.loc 4 1207 4 is_stmt 0 view .LVU167
	.thumb
	.syntax unified
.LBE171:
.LBE170:
	.loc 2 4129 3 view .LVU168
	cmp	r1, #0
	bne	.L12
.LBE167:
.LBE166:
	.loc 2 4129 3 is_stmt 1 view .LVU169
.LVL35:
	.loc 1 133 5 view .LVU170
.LBB172:
.LBI172:
	.loc 2 4251 25 view .LVU171
.LBB173:
	.loc 2 4253 3 view .LVU172
	.loc 2 4253 20 is_stmt 0 view .LVU173
	ldr	r2, .L30
	ldr	r2, [r2, #36]
.LVL36:
.L13:
	.loc 2 4253 20 view .LVU174
.LBE173:
.LBE172:
	.loc 2 4118 3 is_stmt 1 view .LVU175
.LBB174:
.LBB175:
	.loc 2 4118 3 view .LVU176
	.loc 2 4118 3 view .LVU177
	.loc 2 4118 3 view .LVU178
.LBB176:
.LBI176:
	.loc 4 1151 31 view .LVU179
.LBB177:
	.loc 4 1153 5 view .LVU180
	.loc 4 1155 4 view .LVU181
	.syntax unified
@ 1155 "Drivers/CMSIS/Include/cmsis_gcc.h" 1
	ldrex r2, [r3]
@ 0 "" 2
.LVL37:
	.loc 4 1156 4 view .LVU182
	.loc 4 1156 4 is_stmt 0 view .LVU183
	.thumb
	.syntax unified
.LBE177:
.LBE176:
	.loc 2 4118 3 view .LVU184
	orr	r2, r2, #64
.LVL38:
	.loc 2 4118 3 is_stmt 1 view .LVU185
.LBB178:
.LBI178:
	.loc 4 1202 31 view .LVU186
.LBB179:
	.loc 4 1204 4 view .LVU187
	.loc 4 1206 4 view .LVU188
	.syntax unified
@ 1206 "Drivers/CMSIS/Include/cmsis_gcc.h" 1
	strex r1, r2, [r3]
@ 0 "" 2
.LVL39:
	.loc 4 1207 4 view .LVU189
	.loc 4 1207 4 is_stmt 0 view .LVU190
	.thumb
	.syntax unified
.LBE179:
.LBE178:
	.loc 2 4118 3 view .LVU191
	cmp	r1, #0
	bne	.L13
.LBE175:
.LBE174:
	.loc 2 4118 3 is_stmt 1 view .LVU192
.LVL40:
	.loc 1 136 5 view .LVU193
.LBB180:
.LBI180:
	.file 5 "Inc/mc_stm_types.h"
	.loc 5 103 22 view .LVU194
.LBB181:
	.loc 5 105 3 view .LVU195
	.loc 5 112 5 view .LVU196
	ldr	r3, .L30+4
.LBE181:
.LBE180:
	.loc 1 137 5 is_stmt 0 view .LVU197
	ldr	r0, .L30+8
.LBB184:
.LBB182:
	.loc 5 112 5 view .LVU198
	movs	r2, #2
.LBE182:
.LBE184:
	.loc 1 143 1 view .LVU199
	pop	{r4, lr}
.LCFI1:
	.cfi_remember_state
	.cfi_restore 14
	.cfi_restore 4
	.cfi_def_cfa_offset 0
.LBB185:
.LBB183:
	.loc 5 112 5 view .LVU200
	str	r2, [r3, #4]
.LVL41:
	.loc 5 112 5 view .LVU201
.LBE183:
.LBE185:
	.loc 1 137 5 is_stmt 1 view .LVU202
	b	ASPEP_HWReset
.LVL42:
.L29:
.LCFI2:
	.cfi_restore_state
	.loc 1 118 3 view .LVU203
.LBB186:
	.loc 2 3895 26 view .LVU204
.LBB152:
	.loc 2 3897 3 view .LVU205
	.loc 2 3897 12 is_stmt 0 view .LVU206
	ldr	r3, [r2]
.LVL43:
.L1:
	.loc 2 3897 12 view .LVU207
.LBE152:
.LBE186:
	.loc 1 143 1 view .LVU208
	pop	{r4, pc}
.L31:
	.align	2
.L30:
	.word	1073821696
	.word	1073872896
	.word	aspepOverUartA
	.word	1073821704
	.cfi_endproc
.LFE1745:
	.size	USART1_IRQHandler, .-USART1_IRQHandler
	.section	.text.HardFault_Handler,"ax",%progbits
	.align	1
	.p2align 2,,3
	.global	HardFault_Handler
	.syntax unified
	.thumb
	.thumb_func
	.fpu fpv4-sp-d16
	.type	HardFault_Handler, %function
HardFault_Handler:
.LFB1746:
	.loc 1 150 1 is_stmt 1 view -0
	.cfi_startproc
	@ Volatile: function does not return.
	@ args = 0, pretend = 0, frame = 0
	@ frame_needed = 0, uses_anonymous_args = 0
	.loc 1 155 3 view .LVU210
	.loc 1 150 1 is_stmt 0 view .LVU211
	push	{r3, lr}
.LCFI3:
	.cfi_def_cfa_offset 8
	.cfi_offset 3, -8
	.cfi_offset 14, -4
	.loc 1 155 3 view .LVU212
	bl	TSK_HardwareFaultTask
.LVL44:
.L33:
	.loc 1 158 3 is_stmt 1 discriminator 1 view .LVU213
	.loc 1 161 3 discriminator 1 view .LVU214
	.loc 1 158 9 discriminator 1 view .LVU215
	.loc 1 158 3 discriminator 1 view .LVU216
	.loc 1 161 3 discriminator 1 view .LVU217
	.loc 1 158 9 discriminator 1 view .LVU218
	b	.L33
	.cfi_endproc
.LFE1746:
	.size	HardFault_Handler, .-HardFault_Handler
	.section	.text.EXTI15_10_IRQHandler,"ax",%progbits
	.align	1
	.p2align 2,,3
	.global	EXTI15_10_IRQHandler
	.syntax unified
	.thumb
	.thumb_func
	.fpu fpv4-sp-d16
	.type	EXTI15_10_IRQHandler, %function
EXTI15_10_IRQHandler:
.LFB1747:
	.loc 1 173 1 view -0
	.cfi_startproc
	@ args = 0, pretend = 0, frame = 0
	@ frame_needed = 0, uses_anonymous_args = 0
	@ link register save eliminated.
	.loc 1 175 3 view .LVU220
.LVL45:
.LBB187:
.LBI187:
	.file 6 "Drivers/STM32G4xx_HAL_Driver/Inc/stm32g4xx_ll_exti.h"
	.loc 6 1299 26 view .LVU221
.LBB188:
	.loc 6 1301 3 view .LVU222
	.loc 6 1301 21 is_stmt 0 view .LVU223
	ldr	r3, .L38
	ldr	r2, [r3, #20]
.LVL46:
	.loc 6 1301 21 view .LVU224
.LBE188:
.LBE187:
	.loc 1 175 6 view .LVU225
	lsls	r2, r2, #18
	bmi	.L37
	.loc 1 185 1 view .LVU226
	bx	lr
.L37:
	.loc 1 177 5 is_stmt 1 view .LVU227
.LVL47:
.LBB189:
.LBI189:
	.loc 6 1359 22 view .LVU228
.LBB190:
	.loc 6 1361 3 view .LVU229
	mov	r2, #8192
	str	r2, [r3, #20]
.LVL48:
	.loc 6 1361 3 is_stmt 0 view .LVU230
.LBE190:
.LBE189:
	.loc 1 178 5 is_stmt 1 view .LVU231
	b	UI_HandleStartStopButton_cb
.LVL49:
.L39:
	.align	2
.L38:
	.word	1073808384
	.cfi_endproc
.LFE1747:
	.size	EXTI15_10_IRQHandler, .-EXTI15_10_IRQHandler
	.global	bdmaActivTc
	.section	.bss.bdmaActivTc,"aw",%nobits
	.type	bdmaActivTc, %object
	.size	bdmaActivTc, 1
bdmaActivTc:
	.space	1
	.text
.Letext0:
	.file 7 "/usr/share/gcc-arm-none-eabi-10-2020-q4-major/arm-none-eabi/include/machine/_default_types.h"
	.file 8 "/usr/share/gcc-arm-none-eabi-10-2020-q4-major/arm-none-eabi/include/sys/_stdint.h"
	.file 9 "Drivers/CMSIS/Device/ST/STM32G4xx/Include/stm32g431xx.h"
	.file 10 "Drivers/STM32G4xx_HAL_Driver/Inc/stm32g4xx_ll_tim.h"
	.file 11 "MCSDK_v6.3.2-Full/MotorControl/MCSDK/MCLib/Any/Inc/mcptl.h"
	.file 12 "Inc/aspep.h"
	.file 13 "Inc/mcp_config.h"
	.file 14 "Inc/mc_tasks.h"