	.cpu cortex-m4
	.eabi_attribute 27, 1
	.eabi_attribute 28, 1
	.eabi_attribute 20, 1
	.eabi_attribute 21, 1
	.eabi_attribute 23, 3
	.eabi_attribute 24, 1
	.eabi_attribute 25, 1
	.eabi_attribute 26, 1
	.eabi_attribute 30, 2
	.eabi_attribute 34, 1
	.eabi_attribute 18, 4
	.file	"stm32g4xx_ll_gpio.c"
	.text
.Ltext0:
	.cfi_sections	.debug_frame
	.section	.text.LL_GPIO_DeInit,"ax",%progbits
	.align	1
	.p2align 2,,3
	.global	LL_GPIO_DeInit
	.arch armv7e-m
	.syntax unified
	.thumb
	.thumb_func
	.fpu fpv4-sp-d16
	.type	LL_GPIO_DeInit, %function
LL_GPIO_DeInit:
.LVL0:
.LFB197:
	.file 1 "Drivers/STM32G4xx_HAL_Driver/Src/stm32g4xx_ll_gpio.c"
	.loc 1 109 1 view -0
	.cfi_startproc
	@ args = 0, pretend = 0, frame = 0
	@ frame_needed = 0, uses_anonymous_args = 0
	@ link register save eliminated.
	.loc 1 110 3 view .LVU1
	.loc 1 113 3 view .LVU2
	.loc 1 116 3 view .LVU3
	.loc 1 116 6 is_stmt 0 view .LVU4
	cmp	r0, #1207959552
	beq	.L11
	.loc 1 121 8 is_stmt 1 view .LVU5
	.loc 1 121 11 is_stmt 0 view .LVU6
	ldr	r3, .L18
	cmp	r0, r3
	beq	.L12
	.loc 1 126 8 is_stmt 1 view .LVU7
	.loc 1 126 11 is_stmt 0 view .LVU8
	ldr	r3, .L18+4
	cmp	r0, r3
	beq	.L13
	.loc 1 131 8 is_stmt 1 view .LVU9
	.loc 1 131 11 is_stmt 0 view .LVU10
	ldr	r3, .L18+8
	cmp	r0, r3
	beq	.L14
	.loc 1 136 8 is_stmt 1 view .LVU11
	.loc 1 136 11 is_stmt 0 view .LVU12
	ldr	r3, .L18+12
	cmp	r0, r3
	beq	.L15
	.loc 1 141 8 is_stmt 1 view .LVU13
	.loc 1 141 11 is_stmt 0 view .LVU14
	ldr	r3, .L18+16
	cmp	r0, r3
	beq	.L16
	.loc 1 146 8 is_stmt 1 view .LVU15
	.loc 1 146 11 is_stmt 0 view .LVU16
	ldr	r3, .L18+20
	cmp	r0, r3
	beq	.L17
	.loc 1 153 12 view .LVU17
	movs	r0, #1
.LVL1:
	.loc 1 156 3 is_stmt 1 view .LVU18
	.loc 1 157 1 is_stmt 0 view .LVU19
	bx	lr
.LVL2:
.L12:
	.loc 1 123 5 is_stmt 1 view .LVU20
.LBB130:
.LBI130:
	.file 2 "Drivers/STM32G4xx_HAL_Driver/Inc/stm32g4xx_ll_bus.h"
	.loc 2 581 22 view .LVU21
.LBB131:
	.loc 2 583 3 view .LVU22
	add	r3, r3, #-134217728
	add	r3, r3, #134144
.LBE131:
.LBE130:
	.loc 1 110 15 is_stmt 0 view .LVU23
	movs	r0, #0
.LVL3:
.LBB133:
.LBB132:
	.loc 2 583 3 view .LVU24
	ldr	r2, [r3, #44]
	orr	r2, r2, #2
	str	r2, [r3, #44]
.LVL4:
	.loc 2 583 3 view .LVU25
.LBE132:
.LBE133:
	.loc 1 124 5 is_stmt 1 view .LVU26
.LBB134:
.LBI134:
	.loc 2 623 22 view .LVU27
.LBB135:
	.loc 2 625 3 view .LVU28
	ldr	r2, [r3, #44]
	bic	r2, r2, #2
	str	r2, [r3, #44]
	.loc 2 626 1 is_stmt 0 view .LVU29
	bx	lr
.LVL5:
.L11:
	.loc 2 626 1 view .LVU30
.LBE135:
.LBE134:
	.loc 1 118 5 is_stmt 1 view .LVU31
.LBB136:
.LBI136:
	.loc 2 581 22 view .LVU32
.LBB137:
	.loc 2 583 3 view .LVU33
	ldr	r3, .L18+24
	ldr	r2, [r3, #44]
	orr	r2, r2, #1
	str	r2, [r3, #44]
.LVL6:
	.loc 2 583 3 is_stmt 0 view .LVU34
.LBE137:
.LBE136:
	.loc 1 119 5 is_stmt 1 view .LVU35
.LBB138:
.LBI138:
	.loc 2 623 22 view .LVU36
.LBB139:
	.loc 2 625 3 view .LVU37
	ldr	r2, [r3, #44]
	bic	r2, r2, #1
.LBE139:
.LBE138:
	.loc 1 110 15 is_stmt 0 view .LVU38
	movs	r0, #0
.LVL7:
.LBB141:
.LBB140:
	.loc 2 625 3 view .LVU39
	str	r2, [r3, #44]
	.loc 2 626 1 view .LVU40
	bx	lr
.LVL8:
.L15:
	.loc 2 626 1 view .LVU41
.LBE140:
.LBE141:
	.loc 1 138 5 is_stmt 1 view .LVU42
.LBB142:
.LBI142:
	.loc 2 581 22 view .LVU43
.LBB143:
	.loc 2 583 3 view .LVU44
	add	r3, r3, #-134217728
	add	r3, r3, #131072
.LBE143:
.LBE142:
	.loc 1 110 15 is_stmt 0 view .LVU45
	movs	r0, #0
.LVL9:
.LBB145:
.LBB144:
	.loc 2 583 3 view .LVU46
	ldr	r2, [r3, #44]
	orr	r2, r2, #16
	str	r2, [r3, #44]
.LVL10:
	.loc 2 583 3 view .LVU47
.LBE144:
.LBE145:
	.loc 1 139 5 is_stmt 1 view .LVU48
.LBB146:
.LBI146:
	.loc 2 623 22 view .LVU49
.LBB147:
	.loc 2 625 3 view .LVU50
	ldr	r2, [r3, #44]
	bic	r2, r2, #16
	str	r2, [r3, #44]
	.loc 2 626 1 is_stmt 0 view .LVU51
	bx	lr
.LVL11:
.L13:
	.loc 2 626 1 view .LVU52
.LBE147:
.LBE146:
	.loc 1 128 5 is_stmt 1 view .LVU53
.LBB148:
.LBI148:
	.loc 2 581 22 view .LVU54
.LBB149:
	.loc 2 583 3 view .LVU55
	add	r3, r3, #-134217728
	add	r3, r3, #133120
.LBE149:
.LBE148:
	.loc 1 110 15 is_stmt 0 view .LVU56
	movs	r0, #0
.LVL12:
.LBB151:
.LBB150:
	.loc 2 583 3 view .LVU57
	ldr	r2, [r3, #44]
	orr	r2, r2, #4
	str	r2, [r3, #44]
.LVL13:
	.loc 2 583 3 view .LVU58
.LBE150:
.LBE151:
	.loc 1 129 5 is_stmt 1 view .LVU59
.LBB152:
.LBI152:
	.loc 2 623 22 view .LVU60
.LBB153:
	.loc 2 625 3 view .LVU61
	ldr	r2, [r3, #44]
	bic	r2, r2, #4
	str	r2, [r3, #44]
	.loc 2 626 1 is_stmt 0 view .LVU62
	bx	lr
.LVL14:
.L14:
	.loc 2 626 1 view .LVU63
.LBE153:
.LBE152:
	.loc 1 133 5 is_stmt 1 view .LVU64
.LBB154:
.LBI154:
	.loc 2 581 22 view .LVU65
.LBB155:
	.loc 2 583 3 view .LVU66
	add	r3, r3, #-134217728
	add	r3, r3, #132096
.LBE155:
.LBE154:
	.loc 1 110 15 is_stmt 0 view .LVU67
	movs	r0, #0
.LVL15:
.LBB157:
.LBB156:
	.loc 2 583 3 view .LVU68
	ldr	r2, [r3, #44]
	orr	r2, r2, #8
	str	r2, [r3, #44]
.LVL16:
	.loc 2 583 3 view .LVU69
.LBE156:
.LBE157:
	.loc 1 134 5 is_stmt 1 view .LVU70
.LBB158:
.LBI158:
	.loc 2 623 22 view .LVU71
.LBB159:
	.loc 2 625 3 view .LVU72
	ldr	r2, [r3, #44]
	bic	r2, r2, #8
	str	r2, [r3, #44]
	.loc 2 626 1 is_stmt 0 view .LVU73
	bx	lr
.LVL17:
.L16:
	.loc 2 626 1 view .LVU74
.LBE159:
.LBE158:
	.loc 1 143 5 is_stmt 1 view .LVU75
.LBB160:
.LBI160:
	.loc 2 581 22 view .LVU76
.LBB161:
	.loc 2 583 3 view .LVU77
	add	r3, r3, #-134217728
	add	r3, r3, #130048
.LBE161:
.LBE160:
	.loc 1 110 15 is_stmt 0 view .LVU78
	movs	r0, #0
.LVL18:
.LBB163:
.LBB162:
	.loc 2 583 3 view .LVU79
	ldr	r2, [r3, #44]
	orr	r2, r2, #32
	str	r2, [r3, #44]
.LVL19:
	.loc 2 583 3 view .LVU80
.LBE162:
.LBE163:
	.loc 1 144 5 is_stmt 1 view .LVU81
.LBB164:
.LBI164:
	.loc 2 623 22 view .LVU82
.LBB165:
	.loc 2 625 3 view .LVU83
	ldr	r2, [r3, #44]
	bic	r2, r2, #32
	str	r2, [r3, #44]
	.loc 2 626 1 is_stmt 0 view .LVU84
	bx	lr
.LVL20:
.L17:
	.loc 2 626 1 view .LVU85
.LBE165:
.LBE164:
	.loc 1 148 5 is_stmt 1 view .LVU86
.LBB166:
.LBI166:
	.loc 2 581 22 view .LVU87
.LBB167:
	.loc 2 583 3 view .LVU88
	add	r3, r3, #-134154240
	add	r3, r3, #65536
.LBE167:
.LBE166:
	.loc 1 110 15 is_stmt 0 view .LVU89
	movs	r0, #0
.LVL21:
.LBB169:
.LBB168:
	.loc 2 583 3 view .LVU90
	ldr	r2, [r3, #44]
	orr	r2, r2, #64
	str	r2, [r3, #44]
.LVL22:
	.loc 2 583 3 view .LVU91
.LBE168:
.LBE169:
	.loc 1 149 5 is_stmt 1 view .LVU92
.LBB170:
.LBI170:
	.loc 2 623 22 view .LVU93
.LBB171:
	.loc 2 625 3 view .LVU94
	ldr	r2, [r3, #44]
	bic	r2, r2, #64
	str	r2, [r3, #44]
	.loc 2 626 1 is_stmt 0 view .LVU95
	bx	lr
.L19:
	.align	2
.L18:
	.word	1207960576
	.word	1207961600
	.word	1207962624
	.word	1207963648
	.word	1207964672
	.word	1207965696
	.word	1073876992
.LBE171:
.LBE170:
	.cfi_endproc
.LFE197:
	.size	LL_GPIO_DeInit, .-LL_GPIO_DeInit
	.section	.text.LL_GPIO_Init,"ax",%progbits
	.align	1
	.p2align 2,,3
	.global	LL_GPIO_Init
	.syntax unified
	.thumb
	.thumb_func
	.fpu fpv4-sp-d16
	.type	LL_GPIO_Init, %function
LL_GPIO_Init:
.LVL23:
.LFB198:
	.loc 1 169 1 is_stmt 1 view -0
	.cfi_startproc
	@ args = 0, pretend = 0, frame = 0
	@ frame_needed = 0, uses_anonymous_args = 0
	.loc 1 170 3 view .LVU97
	.loc 1 171 3 view .LVU98
	.loc 1 174 3 view .LVU99
	.loc 1 175 3 view .LVU100
	.loc 1 176 3 view .LVU101
	.loc 1 177 3 view .LVU102
	.loc 1 181 3 view .LVU103
	.loc 1 169 1 is_stmt 0 view .LVU104
	push	{r4, r5, r6, r7, r8, r9, r10, fp, lr}
.LCFI0:
	.cfi_def_cfa_offset 36
	.cfi_offset 4, -36
	.cfi_offset 5, -32
	.cfi_offset 6, -28
	.cfi_offset 7, -24
	.cfi_offset 8, -20
	.cfi_offset 9, -16
	.cfi_offset 10, -12
	.cfi_offset 11, -8
	.cfi_offset 14, -4
	.loc 1 181 12 view .LVU105
	ldr	r5, [r1]
.LVL24:
.LBB172:
.LBI172:
	.file 3 "Drivers/CMSIS/Include/cmsis_gcc.h"
	.loc 3 1048 31 is_stmt 1 view .LVU106
.LBB173:
	.loc 3 1050 3 view .LVU107
	.loc 3 1055 4 view .LVU108
	.syntax unified
@ 1055 "Drivers/CMSIS/Include/cmsis_gcc.h" 1
	rbit r2, r5
@ 0 "" 2
.LVL25:
	.loc 3 1068 3 view .LVU109
	.loc 3 1068 3 is_stmt 0 view .LVU110
	.thumb
	.syntax unified
.LBE173:
.LBE172:
.LBB174:
.LBI174:
	.loc 3 1078 30 is_stmt 1 view .LVU111
.LBB175:
	.loc 3 1089 3 view .LVU112
	.loc 3 1093 10 is_stmt 0 view .LVU113
	clz	r2, r2
.LVL26:
	.loc 3 1093 10 view .LVU114
.LBE175:
.LBE174:
	.loc 1 184 3 is_stmt 1 view .LVU115
	.loc 1 184 9 view .LVU116
	lsrs	r3, r5, r2
	beq	.L64
	.loc 1 187 57 is_stmt 0 view .LVU117
	mov	ip, #1
.LBB176:
.LBB177:
	.file 4 "Drivers/STM32G4xx_HAL_Driver/Inc/stm32g4xx_ll_gpio.h"
	.loc 4 287 3 view .LVU118
	mov	lr, #3
.LBE177:
.LBE176:
.LBB190:
.LBB191:
	.loc 4 356 3 view .LVU119
	mvns	r6, r5
	b	.L22
.LVL27:
.L24:
	.loc 4 356 3 view .LVU120
.LBE191:
.LBE190:
	.loc 1 207 7 is_stmt 1 view .LVU121
	ldr	r9, [r1, #16]
.LVL28:
.LBB193:
.LBI193:
	.loc 4 496 22 view .LVU122
.LBB194:
	.loc 4 498 3 view .LVU123
	ldr	r10, [r0, #12]
.LVL29:
.LBB195:
.LBI195:
	.loc 3 1048 31 view .LVU124
.LBB196:
	.loc 3 1050 3 view .LVU125
	.loc 3 1055 4 view .LVU126
	.syntax unified
@ 1055 "Drivers/CMSIS/Include/cmsis_gcc.h" 1
	rbit r8, r3
@ 0 "" 2
.LVL30:
	.loc 3 1068 3 view .LVU127
	.loc 3 1068 3 is_stmt 0 view .LVU128
	.thumb
	.syntax unified
.LBE196:
.LBE195:
.LBB197:
.LBI197:
	.loc 3 1078 30 is_stmt 1 view .LVU129
.LBB198:
	.loc 3 1089 3 view .LVU130
	.loc 3 1089 6 is_stmt 0 view .LVU131
	cmp	r8, #0
	beq	.L27
	.loc 3 1093 3 is_stmt 1 view .LVU132
	.loc 3 1093 10 is_stmt 0 view .LVU133
	clz	r8, r8
.LVL31:
	.loc 3 1093 10 view .LVU134
.LBE198:
.LBE197:
	.loc 4 498 3 view .LVU135
	lsl	r8, r8, #1
	lsl	r8, lr, r8
	bic	r10, r10, r8
.L27:
.LVL32:
.LBB199:
.LBI199:
	.loc 3 1048 31 is_stmt 1 view .LVU136
.LBB200:
	.loc 3 1050 3 view .LVU137
	.loc 3 1055 4 view .LVU138
	.syntax unified
@ 1055 "Drivers/CMSIS/Include/cmsis_gcc.h" 1
	rbit r8, r3
@ 0 "" 2
.LVL33:
	.loc 3 1068 3 view .LVU139
	.loc 3 1068 3 is_stmt 0 view .LVU140
	.thumb
	.syntax unified
.LBE200:
.LBE199:
.LBB201:
.LBI201:
	.loc 3 1078 30 is_stmt 1 view .LVU141
.LBB202:
	.loc 3 1089 3 view .LVU142
	.loc 3 1089 6 is_stmt 0 view .LVU143
	cmp	r8, #0
	beq	.L40
	.loc 3 1093 3 is_stmt 1 view .LVU144
	.loc 3 1093 10 is_stmt 0 view .LVU145
	clz	r8, r8
.LVL34:
	.loc 3 1093 10 view .LVU146
.LBE202:
.LBE201:
	.loc 4 498 3 view .LVU147
	lsl	r8, r8, #1
.L28:
	.loc 4 498 3 view .LVU148
	lsl	r8, r9, r8
	orr	r10, r8, r10
.LBE194:
.LBE193:
	.loc 1 209 10 view .LVU149
	cmp	r4, #2
.LBB207:
.LBB205:
	.loc 4 498 3 view .LVU150
	str	r10, [r0, #12]
.LVL35:
	.loc 4 498 3 view .LVU151
.LBE205:
.LBE207:
	.loc 1 209 7 is_stmt 1 view .LVU152
	.loc 1 209 10 is_stmt 0 view .LVU153
	beq	.L66
.L29:
	.loc 1 226 7 is_stmt 1 view .LVU154
.LVL36:
.LBB208:
.LBI176:
	.loc 4 285 22 view .LVU155
.LBB188:
	.loc 4 287 3 view .LVU156
	ldr	r8, [r0]
.LVL37:
.LBB178:
.LBI178:
	.loc 3 1048 31 view .LVU157
.LBB179:
	.loc 3 1050 3 view .LVU158
	.loc 3 1055 4 view .LVU159
	.syntax unified
@ 1055 "Drivers/CMSIS/Include/cmsis_gcc.h" 1
	rbit r9, r3
@ 0 "" 2
.LVL38:
	.loc 3 1068 3 view .LVU160
	.loc 3 1068 3 is_stmt 0 view .LVU161
	.thumb
	.syntax unified
.LBE179:
.LBE178:
.LBB180:
.LBI180:
	.loc 3 1078 30 is_stmt 1 view .LVU162
.LBB181:
	.loc 3 1089 3 view .LVU163
	.loc 3 1089 6 is_stmt 0 view .LVU164
	cmp	r9, #0
	beq	.L35
	.loc 3 1093 3 is_stmt 1 view .LVU165
	.loc 3 1093 10 is_stmt 0 view .LVU166
	clz	r9, r9
.LVL39:
	.loc 3 1093 10 view .LVU167
.LBE181:
.LBE180:
	.loc 4 287 3 view .LVU168
	lsl	r9, r9, #1
	lsl	r9, lr, r9
	bic	r8, r8, r9
.L35:
.LVL40:
.LBB182:
.LBI182:
	.loc 3 1048 31 is_stmt 1 view .LVU169
.LBB183:
	.loc 3 1050 3 view .LVU170
	.loc 3 1055 4 view .LVU171
	.syntax unified
@ 1055 "Drivers/CMSIS/Include/cmsis_gcc.h" 1
	rbit r3, r3
@ 0 "" 2
.LVL41:
	.loc 3 1068 3 view .LVU172
	.loc 3 1068 3 is_stmt 0 view .LVU173
	.thumb
	.syntax unified
.LBE183:
.LBE182:
.LBB184:
.LBI184:
	.loc 3 1078 30 is_stmt 1 view .LVU174
.LBB185:
	.loc 3 1089 3 view .LVU175
	.loc 3 1089 6 is_stmt 0 view .LVU176
	cmp	r3, #0
	beq	.L43
	.loc 3 1093 3 is_stmt 1 view .LVU177
	.loc 3 1093 10 is_stmt 0 view .LVU178
	clz	r3, r3
.LVL42:
	.loc 3 1093 10 view .LVU179
.LBE185:
.LBE184:
	.loc 4 287 3 view .LVU180
	lsls	r3, r3, #1
.L36:
	.loc 4 287 3 view .LVU181
	lsl	r3, r4, r3
	orr	r3, r3, r8
	str	r3, [r0]
.LVL43:
.L23:
	.loc 4 287 3 view .LVU182
.LBE188:
.LBE208:
	.loc 1 228 5 is_stmt 1 view .LVU183
	.loc 1 228 11 is_stmt 0 view .LVU184
	adds	r2, r2, #1
.LVL44:
	.loc 1 184 9 is_stmt 1 view .LVU185
	lsrs	r3, r5, r2
	beq	.L64
.LVL45:
.L22:
	.loc 1 187 5 view .LVU186
	.loc 1 187 57 is_stmt 0 view .LVU187
	lsl	r3, ip, r2
.LVL46:
	.loc 1 189 5 is_stmt 1 view .LVU188
	.loc 1 189 8 is_stmt 0 view .LVU189
	ands	r3, r3, r5
.LVL47:
	.loc 1 189 8 view .LVU190
	beq	.L23
	.loc 1 191 7 is_stmt 1 view .LVU191
	.loc 1 191 27 is_stmt 0 view .LVU192
	ldr	r4, [r1, #4]
	.loc 1 191 58 view .LVU193
	add	r8, r4, #-1
	.loc 1 191 10 view .LVU194
	cmp	r8, #1
	bhi	.L24
	.loc 1 194 9 is_stmt 1 view .LVU195
	.loc 1 197 9 view .LVU196
	ldr	r9, [r1, #8]
.LVL48:
.LBB209:
.LBI209:
	.loc 4 425 22 view .LVU197
.LBB210:
	.loc 4 427 3 view .LVU198
	ldr	r10, [r0, #8]
.LVL49:
.LBB211:
.LBI211:
	.loc 3 1048 31 view .LVU199
.LBB212:
	.loc 3 1050 3 view .LVU200
	.loc 3 1055 4 view .LVU201
	.syntax unified
@ 1055 "Drivers/CMSIS/Include/cmsis_gcc.h" 1
	rbit r8, r3
@ 0 "" 2
.LVL50:
	.loc 3 1068 3 view .LVU202
	.loc 3 1068 3 is_stmt 0 view .LVU203
	.thumb
	.syntax unified
.LBE212:
.LBE211:
.LBB213:
.LBI213:
	.loc 3 1078 30 is_stmt 1 view .LVU204
.LBB214:
	.loc 3 1089 3 view .LVU205
	.loc 3 1089 6 is_stmt 0 view .LVU206
	cmp	r8, #0
	beq	.L25
	.loc 3 1093 3 is_stmt 1 view .LVU207
	.loc 3 1093 10 is_stmt 0 view .LVU208
	clz	r8, r8
.LVL51:
	.loc 3 1093 10 view .LVU209
.LBE214:
.LBE213:
	.loc 4 427 3 view .LVU210
	lsl	r8, r8, #1
	lsl	r8, lr, r8
	bic	r10, r10, r8
.L25:
.LVL52:
.LBB215:
.LBI215:
	.loc 3 1048 31 is_stmt 1 view .LVU211
.LBB216:
	.loc 3 1050 3 view .LVU212
	.loc 3 1055 4 view .LVU213
	.syntax unified
@ 1055 "Drivers/CMSIS/Include/cmsis_gcc.h" 1
	rbit r8, r3
@ 0 "" 2
.LVL53:
	.loc 3 1068 3 view .LVU214
	.loc 3 1068 3 is_stmt 0 view .LVU215
	.thumb
	.syntax unified
.LBE216:
.LBE215:
.LBB217:
.LBI217:
	.loc 3 1078 30 is_stmt 1 view .LVU216
.LBB218:
	.loc 3 1089 3 view .LVU217
	.loc 3 1089 6 is_stmt 0 view .LVU218
	cmp	r8, #0
	beq	.L39
	.loc 3 1093 3 is_stmt 1 view .LVU219
	.loc 3 1093 10 is_stmt 0 view .LVU220
	clz	r8, r8
.LVL54:
	.loc 3 1093 10 view .LVU221
.LBE218:
.LBE217:
	.loc 4 427 3 view .LVU222
	lsl	r8, r8, #1
.L26:
	.loc 4 427 3 view .LVU223
	lsl	r8, r9, r8
	orr	r10, r8, r10
	str	r10, [r0, #8]
.LVL55:
	.loc 4 427 3 view .LVU224
.LBE210:
.LBE209:
	.loc 1 200 9 is_stmt 1 view .LVU225
	.loc 1 203 9 view .LVU226
.LBB222:
.LBI190:
	.loc 4 354 22 view .LVU227
.LBB192:
	.loc 4 356 3 view .LVU228
	ldr	r8, [r0, #4]
	ldr	r7, [r1, #12]
	and	r8, r6, r8
	mul	r9, r7, r5
	orr	r8, r8, r9
	str	r8, [r0, #4]
	.loc 4 357 1 is_stmt 0 view .LVU229
	b	.L24
.LVL56:
.L66:
	.loc 4 357 1 view .LVU230
.LBE192:
.LBE222:
	.loc 1 212 9 is_stmt 1 view .LVU231
	.loc 1 215 9 view .LVU232
	.loc 1 215 12 is_stmt 0 view .LVU233
	cmp	r3, #255
	.loc 1 217 11 view .LVU234
	ldr	r9, [r1, #20]
	.loc 1 215 12 view .LVU235
	bhi	.L30
	.loc 1 217 11 is_stmt 1 view .LVU236
.LVL57:
.LBB223:
.LBI223:
	.loc 4 568 22 view .LVU237
.LBB224:
	.loc 4 570 3 view .LVU238
	ldr	r10, [r0, #32]
.LVL58:
.LBB225:
.LBI225:
	.loc 3 1048 31 view .LVU239
.LBB226:
	.loc 3 1050 3 view .LVU240
	.loc 3 1055 4 view .LVU241
	.syntax unified
@ 1055 "Drivers/CMSIS/Include/cmsis_gcc.h" 1
	rbit r8, r3
@ 0 "" 2
.LVL59:
	.loc 3 1068 3 view .LVU242
	.loc 3 1068 3 is_stmt 0 view .LVU243
	.thumb
	.syntax unified
.LBE226:
.LBE225:
.LBB227:
.LBI227:
	.loc 3 1078 30 is_stmt 1 view .LVU244
.LBB228:
	.loc 3 1089 3 view .LVU245
	.loc 3 1089 6 is_stmt 0 view .LVU246
	cmp	r8, #0
	beq	.L31
	.loc 3 1093 3 is_stmt 1 view .LVU247
	.loc 3 1093 10 is_stmt 0 view .LVU248
	clz	r8, r8
.LVL60:
	.loc 3 1093 10 view .LVU249
.LBE228:
.LBE227:
	.loc 4 570 3 view .LVU250
	lsl	r8, r8, #2
	movs	r7, #15
	lsl	r8, r7, r8
	bic	r10, r10, r8
.L31:
.LVL61:
.LBB229:
.LBI229:
	.loc 3 1048 31 is_stmt 1 view .LVU251
.LBB230:
	.loc 3 1050 3 view .LVU252
	.loc 3 1055 4 view .LVU253
	.syntax unified
@ 1055 "Drivers/CMSIS/Include/cmsis_gcc.h" 1
	rbit r8, r3
@ 0 "" 2
.LVL62:
	.loc 3 1068 3 view .LVU254
	.loc 3 1068 3 is_stmt 0 view .LVU255
	.thumb
	.syntax unified
.LBE230:
.LBE229:
.LBB231:
.LBI231:
	.loc 3 1078 30 is_stmt 1 view .LVU256
.LBB232:
	.loc 3 1089 3 view .LVU257
	.loc 3 1089 6 is_stmt 0 view .LVU258
	cmp	r8, #0
	beq	.L41
	.loc 3 1093 3 is_stmt 1 view .LVU259
	.loc 3 1093 10 is_stmt 0 view .LVU260
	clz	r8, r8
.LVL63:
	.loc 3 1093 10 view .LVU261
.LBE232:
.LBE231:
	.loc 4 570 3 view .LVU262
	lsl	r8, r8, #2
.L32:
	.loc 4 570 3 view .LVU263
	lsl	r8, r9, r8
	orr	r10, r8, r10
	str	r10, [r0, #32]
	.loc 4 572 1 view .LVU264
	b	.L29
.LVL64:
.L64:
	.loc 4 572 1 view .LVU265
.LBE224:
.LBE223:
	.loc 1 231 1 view .LVU266
	movs	r0, #0
.LVL65:
	.loc 1 231 1 view .LVU267
	pop	{r4, r5, r6, r7, r8, r9, r10, fp, pc}
.LVL66:
.L43:
.LBB236:
.LBB189:
.LBB187:
.LBB186:
	.loc 1 231 1 view .LVU268
	movs	r3, #64
.LVL67:
	.loc 1 231 1 view .LVU269
	b	.L36
.LVL68:
.L40:
	.loc 1 231 1 view .LVU270
.LBE186:
.LBE187:
.LBE189:
.LBE236:
.LBB237:
.LBB206:
.LBB204:
.LBB203:
	mov	r8, #64
.LVL69:
	.loc 1 231 1 view .LVU271
	b	.L28
.LVL70:
.L30:
	.loc 1 231 1 view .LVU272
.LBE203:
.LBE204:
.LBE206:
.LBE237:
	.loc 1 221 11 is_stmt 1 view .LVU273
.LBB238:
.LBI238:
	.loc 4 645 22 view .LVU274
.LBB239:
	.loc 4 647 3 view .LVU275
	ldr	r10, [r0, #36]
	lsr	r8, r3, #8
.LVL71:
.LBB240:
.LBI240:
	.loc 3 1048 31 view .LVU276
.LBB241:
	.loc 3 1050 3 view .LVU277
	.loc 3 1055 4 view .LVU278
	.syntax unified
@ 1055 "Drivers/CMSIS/Include/cmsis_gcc.h" 1
	rbit fp, r8
@ 0 "" 2
.LVL72:
	.loc 3 1068 3 view .LVU279
	.loc 3 1068 3 is_stmt 0 view .LVU280
	.thumb
	.syntax unified
.LBE241:
.LBE240:
.LBB242:
.LBI242:
	.loc 3 1078 30 is_stmt 1 view .LVU281
.LBB243:
	.loc 3 1089 3 view .LVU282
	.loc 3 1089 6 is_stmt 0 view .LVU283
	cmp	fp, #0
	beq	.L33
	.loc 3 1093 3 is_stmt 1 view .LVU284
	.loc 3 1093 10 is_stmt 0 view .LVU285
	clz	fp, fp
.LVL73:
	.loc 3 1093 10 view .LVU286
.LBE243:
.LBE242:
	.loc 4 647 3 view .LVU287
	lsl	fp, fp, #2
	movs	r7, #15
	lsl	fp, r7, fp
	bic	r10, r10, fp
.L33:
.LVL74:
.LBB244:
.LBI244:
	.loc 3 1048 31 is_stmt 1 view .LVU288
.LBB245:
	.loc 3 1050 3 view .LVU289
	.loc 3 1055 4 view .LVU290
	.syntax unified
@ 1055 "Drivers/CMSIS/Include/cmsis_gcc.h" 1
	rbit r8, r8
@ 0 "" 2
.LVL75:
	.loc 3 1068 3 view .LVU291
	.loc 3 1068 3 is_stmt 0 view .LVU292
	.thumb
	.syntax unified
.LBE245:
.LBE244:
.LBB246:
.LBI246:
	.loc 3 1078 30 is_stmt 1 view .LVU293
.LBB247:
	.loc 3 1089 3 view .LVU294
	.loc 3 1089 6 is_stmt 0 view .LVU295
	cmp	r8, #0
	beq	.L42
	.loc 3 1093 3 is_stmt 1 view .LVU296
	.loc 3 1093 10 is_stmt 0 view .LVU297
	clz	r8, r8
.LVL76:
	.loc 3 1093 10 view .LVU298
.LBE247:
.LBE246:
	.loc 4 647 3 view .LVU299
	lsl	r8, r8, #2
.L34:
	.loc 4 647 3 view .LVU300
	lsl	r8, r9, r8
	orr	r10, r8, r10
	str	r10, [r0, #36]
	.loc 4 649 1 view .LVU301
	b	.L29
.LVL77:
.L39:
	.loc 4 649 1 view .LVU302
.LBE239:
.LBE238:
.LBB251:
.LBB221:
.LBB220:
.LBB219:
	mov	r8, #64
.LVL78:
	.loc 4 649 1 view .LVU303
	b	.L26
.LVL79:
.L42:
	.loc 4 649 1 view .LVU304
.LBE219:
.LBE220:
.LBE221:
.LBE251:
.LBB252:
.LBB250:
.LBB249:
.LBB248:
	mov	r8, #128
.LVL80:
	.loc 4 649 1 view .LVU305
	b	.L34
.LVL81:
.L41:
	.loc 4 649 1 view .LVU306
.LBE248:
.LBE249:
.LBE250:
.LBE252:
.LBB253:
.LBB235:
.LBB234:
.LBB233:
	mov	r8, #128
.LVL82:
	.loc 4 649 1 view .LVU307
	b	.L32
.LBE233:
.LBE234:
.LBE235:
.LBE253:
	.cfi_endproc
.LFE198:
	.size	LL_GPIO_Init, .-LL_GPIO_Init
	.section	.text.LL_GPIO_StructInit,"ax",%progbits
	.align	1
	.p2align 2,,3
	.global	LL_GPIO_StructInit
	.syntax unified
	.thumb
	.thumb_func
	.fpu fpv4-sp-d16
	.type	LL_GPIO_StructInit, %function
LL_GPIO_StructInit:
.LVL83:
.LFB199:
	.loc 1 241 1 is_stmt 1 view -0
	.cfi_startproc
	@ args = 0, pretend = 0, frame = 0
	@ frame_needed = 0, uses_anonymous_args = 0
	@ link register save eliminated.
	.loc 1 243 3 view .LVU309
	.loc 1 245 31 is_stmt 0 view .LVU310
	movs	r3, #0
	.loc 1 244 31 view .LVU311
	movw	r1, #65535
	movs	r2, #3
	strd	r1, r2, [r0]
	.loc 1 245 3 is_stmt 1 view .LVU312
	.loc 1 246 31 is_stmt 0 view .LVU313
	strd	r3, r3, [r0, #8]
	.loc 1 247 3 is_stmt 1 view .LVU314
	.loc 1 248 31 is_stmt 0 view .LVU315
	strd	r3, r3, [r0, #16]
	.loc 1 249 1 view .LVU316
	bx	lr
	.cfi_endproc
.LFE199:
	.size	LL_GPIO_StructInit, .-LL_GPIO_StructInit
	.text
.Letext0:
	.file 5 "/usr/share/gcc-arm-none-eabi-10-2020-q4-major/arm-none-eabi/include/machine/_default_types.h"
	.file 6 "/usr/share/gcc-arm-none-eabi-10-2020-q4-major/arm-none-eabi/include/sys/_stdint.h"
	.file 7 "Drivers/CMSIS/Device/ST/STM32G4xx/Include/stm32g431xx.h"
	.file 8 "Drivers/CMSIS/Device/ST/STM32G4xx/Include/stm32g4xx.h"