	.cpu cortex-m4
	.eabi_attribute 27, 1
	.eabi_attribute 28, 1
	.eabi_attribute 20, 1
	.eabi_attribute 21, 1
	.eabi_attribute 23, 3
	.eabi_attribute 24, 1
	.eabi_attribute 25, 1
	.eabi_attribute 26, 1
	.eabi_attribute 30, 2
	.eabi_attribute 34, 1
	.eabi_attribute 18, 4
	.file	"stm32g4xx_hal_gpio.c"
	.text
.Ltext0:
	.cfi_sections	.debug_frame
	.section	.text.HAL_GPIO_Init,"ax",%progbits
	.align	1
	.p2align 2,,3
	.global	HAL_GPIO_Init
	.arch armv7e-m
	.syntax unified
	.thumb
	.thumb_func
	.fpu fpv4-sp-d16
	.type	HAL_GPIO_Init, %function
HAL_GPIO_Init:
.LVL0:
.LFB132:
	.file 1 "Drivers/STM32G4xx_HAL_Driver/Src/stm32g4xx_hal_gpio.c"
	.loc 1 163 1 view -0
	.cfi_startproc
	@ args = 0, pretend = 0, frame = 16
	@ frame_needed = 0, uses_anonymous_args = 0
	.loc 1 164 3 view .LVU1
	.loc 1 165 3 view .LVU2
	.loc 1 166 3 view .LVU3
	.loc 1 169 3 view .LVU4
	.loc 1 170 3 view .LVU5
	.loc 1 171 3 view .LVU6
	.loc 1 174 3 view .LVU7
	.loc 1 174 9 view .LVU8
	.loc 1 163 1 is_stmt 0 view .LVU9
	push	{r4, r5, r6, r7, r8, r9, r10, fp, lr}
.LCFI0:
	.cfi_def_cfa_offset 36
	.cfi_offset 4, -36
	.cfi_offset 5, -32
	.cfi_offset 6, -28
	.cfi_offset 7, -24
	.cfi_offset 8, -20
	.cfi_offset 9, -16
	.cfi_offset 10, -12
	.cfi_offset 11, -8
	.cfi_offset 14, -4
	.loc 1 174 21 view .LVU10
	ldr	r4, [r1]
	.loc 1 163 1 view .LVU11
	sub	sp, sp, #20
.LCFI1:
	.cfi_def_cfa_offset 56
	.loc 1 174 9 view .LVU12
	cmp	r4, #0
	beq	.L1
	mov	ip, #0
.LBB2:
	.loc 1 238 9 view .LVU13
	ldr	r10, .L42+24
.LBE2:
	.loc 1 164 12 view .LVU14
	mov	r3, ip
	.loc 1 177 41 view .LVU15
	mov	fp, #1
	.loc 1 241 26 view .LVU16
	mov	r9, r1
.LVL1:
.L2:
	.loc 1 177 5 is_stmt 1 view .LVU17
	.loc 1 177 41 is_stmt 0 view .LVU18
	lsl	r5, fp, r3
.LVL2:
	.loc 1 179 5 is_stmt 1 view .LVU19
	.loc 1 179 8 is_stmt 0 view .LVU20
	ands	r8, r5, r4
.LVL3:
	.loc 1 179 8 view .LVU21
	beq	.L4
	.loc 1 183 7 is_stmt 1 view .LVU22
	.loc 1 183 21 is_stmt 0 view .LVU23
	ldr	r7, [r9, #4]
	.loc 1 183 28 view .LVU24
	and	r2, r7, #3
	.loc 1 183 57 view .LVU25
	subs	r1, r2, #1
	.loc 1 183 9 view .LVU26
	cmp	r1, #1
	bls	.L37
	.loc 1 201 7 is_stmt 1 view .LVU27
	.loc 1 201 10 is_stmt 0 view .LVU28
	cmp	r2, #3
	bne	.L7
	.loc 1 190 40 view .LVU29
	lsl	r2, r2, ip
	.loc 1 190 17 view .LVU30
	mvns	r1, r2
.L8:
	.loc 1 228 7 is_stmt 1 view .LVU31
	.loc 1 228 12 is_stmt 0 view .LVU32
	ldr	r5, [r0]
.LVL4:
	.loc 1 229 7 is_stmt 1 view .LVU33
	.loc 1 229 12 is_stmt 0 view .LVU34
	ands	r1, r1, r5
.LVL5:
	.loc 1 230 7 is_stmt 1 view .LVU35
	.loc 1 230 12 is_stmt 0 view .LVU36
	orrs	r2, r2, r1
.LVL6:
	.loc 1 231 7 is_stmt 1 view .LVU37
	.loc 1 235 10 is_stmt 0 view .LVU38
	tst	r7, #196608
	.loc 1 231 20 view .LVU39
	str	r2, [r0]
	.loc 1 235 7 is_stmt 1 view .LVU40
	.loc 1 235 10 is_stmt 0 view .LVU41
	beq	.L4
	.loc 1 238 9 is_stmt 1 view .LVU42
.LBB3:
	.loc 1 238 9 view .LVU43
	.loc 1 238 9 view .LVU44
	ldr	r2, [r10, #96]
.LVL7:
	.loc 1 238 9 is_stmt 0 view .LVU45
	orr	r2, r2, #1
	str	r2, [r10, #96]
.LVL8:
	.loc 1 238 9 is_stmt 1 view .LVU46
	ldr	r2, [r10, #96]
	and	r2, r2, #1
	str	r2, [sp, #12]
	.loc 1 238 9 view .LVU47
	ldr	r2, [sp, #12]
.LBE3:
	.loc 1 238 9 view .LVU48
	.loc 1 240 9 view .LVU49
	bic	r2, r3, #3
	add	r2, r2, #1073741824
	add	r2, r2, #65536
	.loc 1 241 45 is_stmt 0 view .LVU50
	and	r5, r3, #3
	.loc 1 240 14 view .LVU51
	ldr	r1, [r2, #8]
.LVL9:
	.loc 1 241 9 is_stmt 1 view .LVU52
	.loc 1 241 33 is_stmt 0 view .LVU53
	lsls	r5, r5, #2
	.loc 1 241 26 view .LVU54
	movs	r6, #15
	lsl	lr, r6, r5
	.loc 1 242 18 view .LVU55
	cmp	r0, #1207959552
	.loc 1 241 14 view .LVU56
	bic	r1, r1, lr
.LVL10:
	.loc 1 242 9 is_stmt 1 view .LVU57
	.loc 1 242 18 is_stmt 0 view .LVU58
	beq	.L10
	.loc 1 242 18 discriminator 1 view .LVU59
	ldr	r6, .L42
	cmp	r0, r6
	beq	.L38
	.loc 1 242 18 discriminator 3 view .LVU60
	ldr	r6, .L42+4
	cmp	r0, r6
	beq	.L39
	.loc 1 242 18 discriminator 5 view .LVU61
	ldr	r6, .L42+8
	cmp	r0, r6
	beq	.L40
	.loc 1 242 18 discriminator 7 view .LVU62
	ldr	r6, .L42+12
	cmp	r0, r6
	beq	.L41
	.loc 1 242 18 discriminator 9 view .LVU63
	ldr	r6, .L42+16
	cmp	r0, r6
	.loc 1 242 40 discriminator 9 view .LVU64
	ite	eq
	moveq	lr, #5
	movne	lr, #6
	lsl	r5, lr, r5
	.loc 1 242 14 discriminator 9 view .LVU65
	orrs	r1, r1, r5
.LVL11:
.L10:
	.loc 1 243 9 is_stmt 1 discriminator 24 view .LVU66
	.loc 1 243 40 is_stmt 0 discriminator 24 view .LVU67
	str	r1, [r2, #8]
	.loc 1 246 9 is_stmt 1 discriminator 24 view .LVU68
	.loc 1 246 14 is_stmt 0 discriminator 24 view .LVU69
	ldr	r2, .L42+20
	.loc 1 252 21 discriminator 24 view .LVU70
	ldr	r1, .L42+20
	.loc 1 246 14 discriminator 24 view .LVU71
	ldr	r2, [r2, #8]
.LVL12:
	.loc 1 247 9 is_stmt 1 discriminator 24 view .LVU72
	.loc 1 247 17 is_stmt 0 discriminator 24 view .LVU73
	mvn	r5, r8
.LVL13:
	.loc 1 248 9 is_stmt 1 discriminator 24 view .LVU74
	.loc 1 248 12 is_stmt 0 discriminator 24 view .LVU75
	lsls	r6, r7, #11
	.loc 1 247 14 discriminator 24 view .LVU76
	ite	pl
	andpl	r2, r2, r5
.LVL14:
	.loc 1 250 11 is_stmt 1 discriminator 24 view .LVU77
	.loc 1 250 16 is_stmt 0 discriminator 24 view .LVU78
	orrmi	r2, r8, r2
.LVL15:
	.loc 1 252 9 is_stmt 1 discriminator 24 view .LVU79
	.loc 1 252 21 is_stmt 0 discriminator 24 view .LVU80
	str	r2, [r1, #8]
	.loc 1 254 9 is_stmt 1 discriminator 24 view .LVU81
	.loc 1 254 14 is_stmt 0 discriminator 24 view .LVU82
	ldr	r2, [r1, #12]
.LVL16:
	.loc 1 255 9 is_stmt 1 discriminator 24 view .LVU83
	.loc 1 256 9 discriminator 24 view .LVU84
	.loc 1 256 12 is_stmt 0 discriminator 24 view .LVU85
	lsls	r1, r7, #10
	.loc 1 260 21 discriminator 24 view .LVU86
	ldr	r1, .L42+20
	.loc 1 255 14 discriminator 24 view .LVU87
	ite	pl
	andpl	r2, r2, r5
.LVL17:
	.loc 1 258 11 is_stmt 1 discriminator 24 view .LVU88
	.loc 1 258 16 is_stmt 0 discriminator 24 view .LVU89
	orrmi	r2, r8, r2
.LVL18:
	.loc 1 260 9 is_stmt 1 discriminator 24 view .LVU90
	.loc 1 260 21 is_stmt 0 discriminator 24 view .LVU91
	str	r2, [r1, #12]
	.loc 1 262 9 is_stmt 1 discriminator 24 view .LVU92
	.loc 1 262 14 is_stmt 0 discriminator 24 view .LVU93
	ldr	r1, [r1, #4]
.LVL19:
	.loc 1 263 9 is_stmt 1 discriminator 24 view .LVU94
	.loc 1 264 9 discriminator 24 view .LVU95
	.loc 1 268 20 is_stmt 0 discriminator 24 view .LVU96
	ldr	r2, .L42+20
	.loc 1 264 12 discriminator 24 view .LVU97
	lsls	r6, r7, #14
	.loc 1 263 14 discriminator 24 view .LVU98
	ite	pl
	andpl	r1, r1, r5
.LVL20:
	.loc 1 266 11 is_stmt 1 discriminator 24 view .LVU99
	.loc 1 266 16 is_stmt 0 discriminator 24 view .LVU100
	orrmi	r1, r8, r1
.LVL21:
	.loc 1 268 9 is_stmt 1 discriminator 24 view .LVU101
	.loc 1 268 20 is_stmt 0 discriminator 24 view .LVU102
	str	r1, [r2, #4]
	.loc 1 271 9 is_stmt 1 discriminator 24 view .LVU103
	.loc 1 271 14 is_stmt 0 discriminator 24 view .LVU104
	ldr	r2, [r2]
.LVL22:
	.loc 1 272 9 is_stmt 1 discriminator 24 view .LVU105
	.loc 1 273 9 discriminator 24 view .LVU106
	.loc 1 273 12 is_stmt 0 discriminator 24 view .LVU107
	lsls	r1, r7, #15
	.loc 1 277 20 discriminator 24 view .LVU108
	ldr	r1, .L42+20
	.loc 1 272 14 discriminator 24 view .LVU109
	ite	pl
	andpl	r2, r2, r5
.LVL23:
	.loc 1 275 11 is_stmt 1 discriminator 24 view .LVU110
	.loc 1 275 16 is_stmt 0 discriminator 24 view .LVU111
	orrmi	r2, r8, r2
.LVL24:
	.loc 1 277 9 is_stmt 1 discriminator 24 view .LVU112
	.loc 1 277 20 is_stmt 0 discriminator 24 view .LVU113
	str	r2, [r1]
.LVL25:
.L4:
	.loc 1 281 5 is_stmt 1 view .LVU114
	.loc 1 281 13 is_stmt 0 view .LVU115
	adds	r3, r3, #1
.LVL26:
	.loc 1 174 9 is_stmt 1 view .LVU116
	lsrs	r2, r4, r3
	add	ip, ip, #2
	bne	.L2
.LVL27:
.L1:
	.loc 1 283 1 is_stmt 0 view .LVU117
	add	sp, sp, #20
.LCFI2:
	.cfi_remember_state
	.cfi_def_cfa_offset 36
	@ sp needed
	pop	{r4, r5, r6, r7, r8, r9, r10, fp, pc}
.LVL28:
.L37:
.LCFI3:
	.cfi_restore_state
	.loc 1 187 9 is_stmt 1 view .LVU118
	.loc 1 189 9 view .LVU119
	.loc 1 189 14 is_stmt 0 view .LVU120
	ldr	r1, [r0, #8]
.LVL29:
	.loc 1 190 9 is_stmt 1 view .LVU121
	.loc 1 191 35 is_stmt 0 view .LVU122
	ldr	r6, [r9, #12]
	.loc 1 190 40 view .LVU123
	mov	lr, #3
	lsl	lr, lr, ip
	.loc 1 190 14 view .LVU124
	bic	r1, r1, lr
.LVL30:
	.loc 1 191 9 is_stmt 1 view .LVU125
	.loc 1 191 35 is_stmt 0 view .LVU126
	lsl	r6, r6, ip
	.loc 1 191 14 view .LVU127
	orrs	r1, r1, r6
.LVL31:
	.loc 1 192 9 is_stmt 1 view .LVU128
	.loc 1 192 24 is_stmt 0 view .LVU129
	str	r1, [r0, #8]
	.loc 1 195 9 is_stmt 1 view .LVU130
	.loc 1 190 17 is_stmt 0 view .LVU131
	mvn	r1, lr
.LVL32:
	.loc 1 195 14 view .LVU132
	ldr	lr, [r0, #4]
.LVL33:
	.loc 1 196 9 is_stmt 1 view .LVU133
	.loc 1 196 14 is_stmt 0 view .LVU134
	bic	lr, lr, r5
.LVL34:
	.loc 1 197 9 is_stmt 1 view .LVU135
	.loc 1 197 51 is_stmt 0 view .LVU136
	ubfx	r5, r7, #4, #1
	.loc 1 197 71 view .LVU137
	lsls	r5, r5, r3
	.loc 1 197 14 view .LVU138
	orr	r5, r5, lr
.LVL35:
	.loc 1 198 9 is_stmt 1 view .LVU139
	.loc 1 198 23 is_stmt 0 view .LVU140
	str	r5, [r0, #4]
	.loc 1 201 7 is_stmt 1 view .LVU141
.LVL36:
.L6:
	.loc 1 204 9 view .LVU142
	.loc 1 207 9 view .LVU143
	.loc 1 207 14 is_stmt 0 view .LVU144
	ldr	r5, [r0, #12]
.LVL37:
	.loc 1 208 9 is_stmt 1 view .LVU145
	.loc 1 208 14 is_stmt 0 view .LVU146
	and	lr, r5, r1
.LVL38:
	.loc 1 209 9 is_stmt 1 view .LVU147
	.loc 1 209 36 is_stmt 0 view .LVU148
	ldr	r5, [r9, #8]
	lsl	r5, r5, ip
	.loc 1 209 14 view .LVU149
	orr	r5, r5, lr
.LVL39:
	.loc 1 210 9 is_stmt 1 view .LVU150
	.loc 1 214 10 is_stmt 0 view .LVU151
	cmp	r2, #2
	.loc 1 210 22 view .LVU152
	str	r5, [r0, #12]
	.loc 1 214 7 is_stmt 1 view .LVU153
	lsl	r2, r2, ip
	.loc 1 214 10 is_stmt 0 view .LVU154
	bne	.L8
	.loc 1 217 9 is_stmt 1 view .LVU155
	.loc 1 218 9 view .LVU156
	.loc 1 221 9 view .LVU157
.LVL40:
	.loc 1 222 9 view .LVU158
	.loc 1 221 36 is_stmt 0 view .LVU159
	lsrs	r5, r3, #3
	add	r5, r0, r5, lsl #2
	.loc 1 221 14 view .LVU160
	str	r5, [sp, #4]
	ldr	r6, [r5, #32]
.LVL41:
	.loc 1 223 41 view .LVU161
	ldr	r5, [r9, #16]
	.loc 1 221 14 view .LVU162
	str	r6, [sp]
	.loc 1 222 38 view .LVU163
	and	lr, r3, #7
	.loc 1 222 47 view .LVU164
	lsl	lr, lr, #2
	.loc 1 222 24 view .LVU165
	movs	r6, #15
	.loc 1 223 41 view .LVU166
	lsl	r5, r5, lr
	.loc 1 222 24 view .LVU167
	lsl	lr, r6, lr
	.loc 1 222 14 view .LVU168
	ldr	r6, [sp]
	bic	lr, r6, lr
.LVL42:
	.loc 1 223 9 is_stmt 1 view .LVU169
	.loc 1 224 36 is_stmt 0 view .LVU170
	ldr	r6, [sp, #4]
	.loc 1 223 14 view .LVU171
	orr	r5, r5, lr
.LVL43:
	.loc 1 224 9 is_stmt 1 view .LVU172
	.loc 1 224 36 is_stmt 0 view .LVU173
	str	r5, [r6, #32]
	b	.L8
.LVL44:
.L7:
	.loc 1 190 40 view .LVU174
	movs	r1, #3
	lsl	r1, r1, ip
	.loc 1 190 17 view .LVU175
	mvns	r1, r1
	b	.L6
.LVL45:
.L40:
	.loc 1 242 40 view .LVU176
	mov	lr, #3
	lsl	r5, lr, r5
	.loc 1 242 14 view .LVU177
	orrs	r1, r1, r5
.LVL46:
	.loc 1 242 14 view .LVU178
	b	.L10
.LVL47:
.L38:
	.loc 1 242 40 view .LVU179
	lsl	r5, fp, r5
	.loc 1 242 14 view .LVU180
	orrs	r1, r1, r5
.LVL48:
	.loc 1 242 14 view .LVU181
	b	.L10
.LVL49:
.L39:
	.loc 1 242 40 view .LVU182
	mov	lr, #2
	lsl	r5, lr, r5
	.loc 1 242 14 view .LVU183
	orrs	r1, r1, r5
.LVL50:
	.loc 1 242 14 view .LVU184
	b	.L10
.LVL51:
.L41:
	.loc 1 242 40 view .LVU185
	mov	lr, #4
	lsl	r5, lr, r5
	.loc 1 242 14 view .LVU186
	orrs	r1, r1, r5
.LVL52:
	.loc 1 242 14 view .LVU187
	b	.L10
.L43:
	.align	2
.L42:
	.word	1207960576
	.word	1207961600
	.word	1207962624
	.word	1207963648
	.word	1207964672
	.word	1073808384
	.word	1073876992
	.cfi_endproc
.LFE132:
	.size	HAL_GPIO_Init, .-HAL_GPIO_Init
	.section	.text.HAL_GPIO_DeInit,"ax",%progbits
	.align	1
	.p2align 2,,3
	.global	HAL_GPIO_DeInit
	.syntax unified
	.thumb
	.thumb_func
	.fpu fpv4-sp-d16
	.type	HAL_GPIO_DeInit, %function
HAL_GPIO_DeInit:
.LVL53:
.LFB133:
	.loc 1 293 1 is_stmt 1 view -0
	.cfi_startproc
	@ args = 0, pretend = 0, frame = 0
	@ frame_needed = 0, uses_anonymous_args = 0
	.loc 1 294 3 view .LVU189
	.loc 1 295 3 view .LVU190
	.loc 1 296 3 view .LVU191
	.loc 1 299 3 view .LVU192
	.loc 1 300 3 view .LVU193
	.loc 1 303 3 view .LVU194
	.loc 1 303 9 view .LVU195
	cmp	r1, #0
	beq	.L62
	.loc 1 293 1 is_stmt 0 view .LVU196
	push	{r4, r5, r6, r7, r8, r9, r10, fp, lr}
.LCFI4:
	.cfi_def_cfa_offset 36
	.cfi_offset 4, -36
	.cfi_offset 5, -32
	.cfi_offset 6, -28
	.cfi_offset 7, -24
	.cfi_offset 8, -20
	.cfi_offset 9, -16
	.cfi_offset 10, -12
	.cfi_offset 11, -8
	.cfi_offset 14, -4
	.loc 1 294 12 view .LVU197
	movs	r3, #0
	.loc 1 318 20 view .LVU198
	ldr	r6, .L71
	.loc 1 315 19 view .LVU199
	ldr	fp, .L71+20
	.loc 1 314 22 view .LVU200
	mov	r9, #15
	.loc 1 331 41 view .LVU201
	mov	r10, #3
	b	.L45
.LVL54:
.L70:
	.loc 1 315 19 discriminator 1 view .LVU202
	cmp	r0, fp
	beq	.L65
	.loc 1 315 19 discriminator 3 view .LVU203
	ldr	r7, .L71+4
	cmp	r0, r7
	beq	.L66
	.loc 1 315 19 discriminator 5 view .LVU204
	ldr	r7, .L71+8
	cmp	r0, r7
	beq	.L67
	.loc 1 315 19 discriminator 7 view .LVU205
	ldr	r7, .L71+12
	cmp	r0, r7
	beq	.L68
	.loc 1 315 19 discriminator 9 view .LVU206
	ldr	r7, .L71+16
	cmp	r0, r7
	.loc 1 315 41 discriminator 9 view .LVU207
	ite	ne
	movne	r7, #6
	moveq	r7, #5
	lsl	r4, r7, r4
.L47:
	.loc 1 315 10 discriminator 24 view .LVU208
	cmp	ip, r4
	bne	.L53
	.loc 1 318 9 is_stmt 1 view .LVU209
	.loc 1 318 20 is_stmt 0 view .LVU210
	ldr	r4, [r6]
	bic	r4, r4, lr
	str	r4, [r6]
	.loc 1 319 9 is_stmt 1 view .LVU211
	.loc 1 319 20 is_stmt 0 view .LVU212
	ldr	r4, [r6, #4]
	bic	r4, r4, lr
	str	r4, [r6, #4]
	.loc 1 322 9 is_stmt 1 view .LVU213
	.loc 1 322 21 is_stmt 0 view .LVU214
	ldr	r4, [r6, #12]
	bic	r4, r4, lr
	str	r4, [r6, #12]
	.loc 1 323 9 is_stmt 1 view .LVU215
	.loc 1 323 21 is_stmt 0 view .LVU216
	ldr	r4, [r6, #8]
	bic	r4, r4, lr
	str	r4, [r6, #8]
	.loc 1 325 9 is_stmt 1 view .LVU217
.LVL55:
	.loc 1 326 9 view .LVU218
	.loc 1 326 40 is_stmt 0 view .LVU219
	ldr	r4, [r5, #8]
	bic	r4, r4, r8
	str	r4, [r5, #8]
.LVL56:
.L53:
	.loc 1 331 7 is_stmt 1 view .LVU220
	.loc 1 331 20 is_stmt 0 view .LVU221
	ldr	r5, [r0]
	.loc 1 331 41 view .LVU222
	lsls	r4, r3, #1
	lsl	r4, r10, r4
	.loc 1 334 34 view .LVU223
	lsr	ip, r3, #3
	.loc 1 331 20 view .LVU224
	orrs	r5, r5, r4
	add	ip, r0, ip, lsl #2
	str	r5, [r0]
	.loc 1 334 7 is_stmt 1 view .LVU225
	.loc 1 334 58 is_stmt 0 view .LVU226
	and	r5, r3, #7
	.loc 1 334 34 view .LVU227
	ldr	lr, [ip, #32]
.LVL57:
	.loc 1 334 67 view .LVU228
	lsls	r5, r5, #2
	.loc 1 334 44 view .LVU229
	lsl	r5, r9, r5
	.loc 1 334 34 view .LVU230
	bic	r5, lr, r5
	str	r5, [ip, #32]
	.loc 1 337 7 is_stmt 1 view .LVU231
	.loc 1 337 20 is_stmt 0 view .LVU232
	ldr	r5, [r0, #12]
	bic	r5, r5, r4
	str	r5, [r0, #12]
	.loc 1 340 7 is_stmt 1 view .LVU233
	.loc 1 340 22 is_stmt 0 view .LVU234
	ldr	r5, [r0, #4]
	bic	r2, r5, r2
.LVL58:
	.loc 1 340 22 view .LVU235
	str	r2, [r0, #4]
	.loc 1 343 7 is_stmt 1 view .LVU236
	.loc 1 343 22 is_stmt 0 view .LVU237
	ldr	r2, [r0, #8]
	bic	r4, r2, r4
	str	r4, [r0, #8]
.L46:
	.loc 1 346 5 is_stmt 1 view .LVU238
	.loc 1 346 13 is_stmt 0 view .LVU239
	adds	r3, r3, #1
.LVL59:
	.loc 1 303 9 is_stmt 1 view .LVU240
	lsrs	r2, r1, r3
	beq	.L69
.LVL60:
.L45:
	.loc 1 306 5 view .LVU241
	.loc 1 306 35 is_stmt 0 view .LVU242
	movs	r2, #1
	lsls	r2, r2, r3
.LVL61:
	.loc 1 308 5 is_stmt 1 view .LVU243
	.loc 1 308 8 is_stmt 0 view .LVU244
	ands	lr, r2, r1
.LVL62:
	.loc 1 308 8 view .LVU245
	beq	.L46
	.loc 1 313 7 is_stmt 1 view .LVU246
	bic	r5, r3, #3
	add	r5, r5, #1073741824
	add	r5, r5, #65536
	.loc 1 314 41 is_stmt 0 view .LVU247
	and	r4, r3, #3
	.loc 1 313 11 view .LVU248
	ldr	ip, [r5, #8]
.LVL63:
	.loc 1 314 7 is_stmt 1 view .LVU249
	.loc 1 314 29 is_stmt 0 view .LVU250
	lsls	r4, r4, #2
	.loc 1 314 22 view .LVU251
	lsl	r8, r9, r4
	.loc 1 315 19 view .LVU252
	cmp	r0, #1207959552
	.loc 1 314 11 view .LVU253
	and	ip, r8, ip
.LVL64:
	.loc 1 315 7 is_stmt 1 view .LVU254
	.loc 1 315 19 is_stmt 0 view .LVU255
	bne	.L70
	movs	r4, #0
	b	.L47
.LVL65:
.L69:
	.loc 1 348 1 view .LVU256
	pop	{r4, r5, r6, r7, r8, r9, r10, fp, pc}
.LVL66:
.L65:
	.loc 1 315 41 view .LVU257
	movs	r7, #1
	lsl	r4, r7, r4
	b	.L47
.L66:
	movs	r7, #2
	lsl	r4, r7, r4
	b	.L47
.L67:
	lsl	r4, r10, r4
	b	.L47
.L68:
	movs	r7, #4
	lsl	r4, r7, r4
	b	.L47
.LVL67:
.L62:
.LCFI5:
	.cfi_def_cfa_offset 0
	.cfi_restore 4
	.cfi_restore 5
	.cfi_restore 6
	.cfi_restore 7
	.cfi_restore 8
	.cfi_restore 9
	.cfi_restore 10
	.cfi_restore 11
	.cfi_restore 14
	.loc 1 315 41 view .LVU258
	bx	lr
.L72:
	.align	2
.L71:
	.word	1073808384
	.word	1207961600
	.word	1207962624
	.word	1207963648
	.word	1207964672
	.word	1207960576
	.cfi_endproc
.LFE133:
	.size	HAL_GPIO_DeInit, .-HAL_GPIO_DeInit
	.section	.text.HAL_GPIO_ReadPin,"ax",%progbits
	.align	1
	.p2align 2,,3
	.global	HAL_GPIO_ReadPin
	.syntax unified
	.thumb
	.thumb_func
	.fpu fpv4-sp-d16
	.type	HAL_GPIO_ReadPin, %function
HAL_GPIO_ReadPin:
.LVL68:
.LFB134:
	.loc 1 374 1 is_stmt 1 view -0
	.cfi_startproc
	@ args = 0, pretend = 0, frame = 0
	@ frame_needed = 0, uses_anonymous_args = 0
	@ link register save eliminated.
	.loc 1 375 3 view .LVU260
	.loc 1 378 3 view .LVU261
	.loc 1 380 3 view .LVU262
	.loc 1 380 13 is_stmt 0 view .LVU263
	ldr	r3, [r0, #16]
.LVL69:
	.loc 1 388 3 is_stmt 1 view .LVU264
	.loc 1 380 6 is_stmt 0 view .LVU265
	tst	r1, r3
	.loc 1 389 1 view .LVU266
	ite	ne
	movne	r0, #1
.LVL70:
	.loc 1 389 1 view .LVU267
	moveq	r0, #0
	bx	lr
	.cfi_endproc
.LFE134:
	.size	HAL_GPIO_ReadPin, .-HAL_GPIO_ReadPin
	.section	.text.HAL_GPIO_WritePin,"ax",%progbits
	.align	1
	.p2align 2,,3
	.global	HAL_GPIO_WritePin
	.syntax unified
	.thumb
	.thumb_func
	.fpu fpv4-sp-d16
	.type	HAL_GPIO_WritePin, %function
HAL_GPIO_WritePin:
.LVL71:
.LFB135:
	.loc 1 408 1 is_stmt 1 view -0
	.cfi_startproc
	@ args = 0, pretend = 0, frame = 0
	@ frame_needed = 0, uses_anonymous_args = 0
	@ link register save eliminated.
	.loc 1 410 3 view .LVU269
	.loc 1 411 3 view .LVU270
	.loc 1 413 3 view .LVU271
	.loc 1 413 6 is_stmt 0 view .LVU272
	cbz	r2, .L75
	.loc 1 415 5 is_stmt 1 view .LVU273
	.loc 1 415 17 is_stmt 0 view .LVU274
	str	r1, [r0, #24]
	bx	lr
.L75:
	.loc 1 419 5 is_stmt 1 view .LVU275
	.loc 1 419 16 is_stmt 0 view .LVU276
	str	r1, [r0, #40]
	.loc 1 421 1 view .LVU277
	bx	lr
	.cfi_endproc
.LFE135:
	.size	HAL_GPIO_WritePin, .-HAL_GPIO_WritePin
	.section	.text.HAL_GPIO_TogglePin,"ax",%progbits
	.align	1
	.p2align 2,,3
	.global	HAL_GPIO_TogglePin
	.syntax unified
	.thumb
	.thumb_func
	.fpu fpv4-sp-d16
	.type	HAL_GPIO_TogglePin, %function
HAL_GPIO_TogglePin:
.LVL72:
.LFB136:
	.loc 1 431 1 is_stmt 1 view -0
	.cfi_startproc
	@ args = 0, pretend = 0, frame = 0
	@ frame_needed = 0, uses_anonymous_args = 0
	@ link register save eliminated.
	.loc 1 432 3 view .LVU279
	.loc 1 435 3 view .LVU280
	.loc 1 438 3 view .LVU281
	.loc 1 438 7 is_stmt 0 view .LVU282
	ldr	r3, [r0, #20]
.LVL73:
	.loc 1 441 3 is_stmt 1 view .LVU283
	.loc 1 441 23 is_stmt 0 view .LVU284
	and	r2, r1, r3
	.loc 1 441 59 view .LVU285
	bic	r1, r1, r3
.LVL74:
	.loc 1 441 51 view .LVU286
	orr	r1, r1, r2, lsl #16
	.loc 1 441 15 view .LVU287
	str	r1, [r0, #24]
	.loc 1 442 1 view .LVU288
	bx	lr
	.cfi_endproc
.LFE136:
	.size	HAL_GPIO_TogglePin, .-HAL_GPIO_TogglePin
	.section	.text.HAL_GPIO_LockPin,"ax",%progbits
	.align	1
	.p2align 2,,3
	.global	HAL_GPIO_LockPin
	.syntax unified
	.thumb
	.thumb_func
	.fpu fpv4-sp-d16
	.type	HAL_GPIO_LockPin, %function
HAL_GPIO_LockPin:
.LVL75:
.LFB137:
	.loc 1 456 1 is_stmt 1 view -0
	.cfi_startproc
	@ args = 0, pretend = 0, frame = 8
	@ frame_needed = 0, uses_anonymous_args = 0
	@ link register save eliminated.
	.loc 1 457 3 view .LVU290
	.loc 1 456 1 is_stmt 0 view .LVU291
	sub	sp, sp, #8
.LCFI6:
	.cfi_def_cfa_offset 8
	.loc 1 457 17 view .LVU292
	mov	r3, #65536
	str	r3, [sp, #4]
	.loc 1 460 3 is_stmt 1 view .LVU293
	.loc 1 461 3 view .LVU294
	.loc 1 464 3 view .LVU295
	.loc 1 464 7 is_stmt 0 view .LVU296
	ldr	r3, [sp, #4]
	orrs	r3, r3, r1
	str	r3, [sp, #4]
	.loc 1 466 3 is_stmt 1 view .LVU297
	.loc 1 466 15 is_stmt 0 view .LVU298
	ldr	r3, [sp, #4]
	str	r3, [r0, #28]
	.loc 1 468 3 is_stmt 1 view .LVU299
	.loc 1 468 15 is_stmt 0 view .LVU300
	str	r1, [r0, #28]
	.loc 1 470 3 is_stmt 1 view .LVU301
	.loc 1 470 15 is_stmt 0 view .LVU302
	ldr	r3, [sp, #4]
	str	r3, [r0, #28]
	.loc 1 472 3 is_stmt 1 view .LVU303
	.loc 1 472 14 is_stmt 0 view .LVU304
	ldr	r3, [r0, #28]
	.loc 1 472 7 view .LVU305
	str	r3, [sp, #4]
	.loc 1 475 3 is_stmt 1 view .LVU306
	.loc 1 475 13 is_stmt 0 view .LVU307
	ldr	r0, [r0, #28]
.LVL76:
	.loc 1 475 6 view .LVU308
	eor	r0, r0, #65536
	.loc 1 483 1 view .LVU309
	ubfx	r0, r0, #16, #1
	add	sp, sp, #8
.LCFI7:
	.cfi_def_cfa_offset 0
	@ sp needed
	bx	lr
	.cfi_endproc
.LFE137:
	.size	HAL_GPIO_LockPin, .-HAL_GPIO_LockPin
	.section	.text.HAL_GPIO_EXTI_Callback,"ax",%progbits
	.align	1
	.p2align 2,,3
	.weak	HAL_GPIO_EXTI_Callback
	.syntax unified
	.thumb
	.thumb_func
	.fpu fpv4-sp-d16
	.type	HAL_GPIO_EXTI_Callback, %function
HAL_GPIO_EXTI_Callback:
.LVL77:
.LFB139:
	.loc 1 506 1 is_stmt 1 view -0
	.cfi_startproc
	@ args = 0, pretend = 0, frame = 0
	@ frame_needed = 0, uses_anonymous_args = 0
	@ link register save eliminated.
	.loc 1 508 3 view .LVU311
	.loc 1 513 1 is_stmt 0 view .LVU312
	bx	lr
	.cfi_endproc
.LFE139:
	.size	HAL_GPIO_EXTI_Callback, .-HAL_GPIO_EXTI_Callback
	.section	.text.HAL_GPIO_EXTI_IRQHandler,"ax",%progbits
	.align	1
	.p2align 2,,3
	.global	HAL_GPIO_EXTI_IRQHandler
	.syntax unified
	.thumb
	.thumb_func
	.fpu fpv4-sp-d16
	.type	HAL_GPIO_EXTI_IRQHandler, %function
HAL_GPIO_EXTI_IRQHandler:
.LVL78:
.LFB138:
	.loc 1 491 1 is_stmt 1 view -0
	.cfi_startproc
	@ args = 0, pretend = 0, frame = 0
	@ frame_needed = 0, uses_anonymous_args = 0
	.loc 1 493 3 view .LVU314
	.loc 1 493 7 is_stmt 0 view .LVU315
	ldr	r2, .L91
	ldr	r1, [r2, #20]
	.loc 1 493 6 view .LVU316
	tst	r1, r0
	bne	.L90
	bx	lr
.L90:
	.loc 1 495 5 is_stmt 1 view .LVU317
	.loc 1 491 1 is_stmt 0 view .LVU318
	push	{r3, lr}
.LCFI8:
	.cfi_def_cfa_offset 8
	.cfi_offset 3, -8
	.cfi_offset 14, -4
	.loc 1 495 5 view .LVU319
	str	r0, [r2, #20]
	.loc 1 496 5 is_stmt 1 view .LVU320
	bl	HAL_GPIO_EXTI_Callback
.LVL79:
	.loc 1 498 1 is_stmt 0 view .LVU321
	pop	{r3, pc}
.L92:
	.align	2
.L91:
	.word	1073808384
	.cfi_endproc
.LFE138:
	.size	HAL_GPIO_EXTI_IRQHandler, .-HAL_GPIO_EXTI_IRQHandler
	.text
.Letext0:
	.file 2 "/usr/share/gcc-arm-none-eabi-10-2020-q4-major/arm-none-eabi/include/machine/_default_types.h"
	.file 3 "/usr/share/gcc-arm-none-eabi-10-2020-q4-major/arm-none-eabi/include/sys/_stdint.h"
	.file 4 "Drivers/CMSIS/Device/ST/STM32G4xx/Include/stm32g431xx.h"
	.file 5 "Drivers/STM32G4xx_HAL_Driver/Inc/stm32g4xx_hal_def.h"
	.file 6 "Drivers/STM32G4xx_HAL_Driver/Inc/stm32g4xx_hal_gpio.h"