	.cpu cortex-m4
	.eabi_attribute 27, 1
	.eabi_attribute 28, 1
	.eabi_attribute 20, 1
	.eabi_attribute 21, 1
	.eabi_attribute 23, 3
	.eabi_attribute 24, 1
	.eabi_attribute 25, 1
	.eabi_attribute 26, 1
	.eabi_attribute 30, 2
	.eabi_attribute 34, 1
	.eabi_attribute 18, 4
	.file	"stm32g4xx_hal_exti.c"
	.text
.Ltext0:
	.cfi_sections	.debug_frame
	.section	.text.HAL_EXTI_SetConfigLine,"ax",%progbits
	.align	1
	.p2align 2,,3
	.global	HAL_EXTI_SetConfigLine
	.arch armv7e-m
	.syntax unified
	.thumb
	.thumb_func
	.fpu fpv4-sp-d16
	.type	HAL_EXTI_SetConfigLine, %function
HAL_EXTI_SetConfigLine:
.LVL0:
.LFB132:
	.file 1 "Drivers/STM32G4xx_HAL_Driver/Src/stm32g4xx_hal_exti.c"
	.loc 1 145 1 view -0
	.cfi_startproc
	@ args = 0, pretend = 0, frame = 0
	@ frame_needed = 0, uses_anonymous_args = 0
	.loc 1 146 3 view .LVU1
	.loc 1 147 3 view .LVU2
	.loc 1 148 3 view .LVU3
	.loc 1 149 3 view .LVU4
	.loc 1 150 3 view .LVU5
	.loc 1 153 3 view .LVU6
	.loc 1 153 6 is_stmt 0 view .LVU7
	cmp	r0, #0
	beq	.L14
	.loc 1 153 23 discriminator 1 view .LVU8
	cmp	r1, #0
	beq	.L14
	.loc 1 159 3 is_stmt 1 view .LVU9
	.loc 1 160 3 view .LVU10
	.loc 1 163 3 view .LVU11
	.loc 1 163 28 is_stmt 0 view .LVU12
	ldr	r3, [r1]
	.loc 1 145 1 view .LVU13
	push	{r4, r5, r6, lr}
.LCFI0:
	.cfi_def_cfa_offset 16
	.cfi_offset 4, -16
	.cfi_offset 5, -12
	.cfi_offset 6, -8
	.cfi_offset 14, -4
	.loc 1 170 12 view .LVU14
	movs	r2, #1
	.loc 1 168 11 view .LVU15
	and	ip, r3, #31
	.loc 1 163 15 view .LVU16
	str	r3, [r0]
	.loc 1 166 3 is_stmt 1 view .LVU17
	.loc 1 173 6 is_stmt 0 view .LVU18
	lsls	r0, r3, #6
.LVL1:
	.loc 1 166 10 view .LVU19
	ubfx	r4, r3, #16, #1
.LVL2:
	.loc 1 168 3 is_stmt 1 view .LVU20
	.loc 1 170 3 view .LVU21
	.loc 1 170 12 is_stmt 0 view .LVU22
	lsl	r2, r2, ip
.LVL3:
	.loc 1 173 3 is_stmt 1 view .LVU23
	.loc 1 173 6 is_stmt 0 view .LVU24
	bmi	.L3
	.loc 1 178 29 view .LVU25
	lsls	r0, r4, #5
.LVL4:
.L4:
	.loc 1 225 3 is_stmt 1 view .LVU26
	.loc 1 225 11 is_stmt 0 view .LVU27
	add	r3, r0, #1073741824
	add	r3, r3, #66560
.LVL5:
	.loc 1 226 3 is_stmt 1 view .LVU28
	.loc 1 229 6 is_stmt 0 view .LVU29
	ldr	r5, [r1, #4]
	.loc 1 226 10 view .LVU30
	ldr	r4, [r3]
.LVL6:
	.loc 1 229 3 is_stmt 1 view .LVU31
	.loc 1 229 6 is_stmt 0 view .LVU32
	lsls	r5, r5, #31
	.loc 1 231 5 is_stmt 1 view .LVU33
	.loc 1 231 12 is_stmt 0 view .LVU34
	ite	mi
	orrmi	r4, r4, r2
.LVL7:
	.loc 1 235 5 is_stmt 1 view .LVU35
	.loc 1 235 12 is_stmt 0 view .LVU36
	bicpl	r4, r4, r2
.LVL8:
	.loc 1 239 3 is_stmt 1 view .LVU37
	.loc 1 239 12 is_stmt 0 view .LVU38
	str	r4, [r3]
	.loc 1 242 3 is_stmt 1 view .LVU39
	.loc 1 242 11 is_stmt 0 view .LVU40
	ldr	r3, .L20
.LVL9:
	.loc 1 246 26 view .LVU41
	ldr	r4, [r1, #4]
.LVL10:
	.loc 1 242 11 view .LVU42
	adds	r1, r0, r3
.LVL11:
	.loc 1 243 3 is_stmt 1 view .LVU43
	.loc 1 243 10 is_stmt 0 view .LVU44
	ldr	r3, [r0, r3]
.LVL12:
	.loc 1 246 3 is_stmt 1 view .LVU45
	.loc 1 246 6 is_stmt 0 view .LVU46
	lsls	r0, r4, #30
	.loc 1 248 5 is_stmt 1 view .LVU47
	.loc 1 248 12 is_stmt 0 view .LVU48
	ite	mi
	orrmi	r2, r2, r3
.LVL13:
	.loc 1 252 5 is_stmt 1 view .LVU49
	.loc 1 252 12 is_stmt 0 view .LVU50
	bicpl	r2, r3, r2
.LVL14:
	.loc 1 256 3 is_stmt 1 view .LVU51
	.loc 1 256 12 is_stmt 0 view .LVU52
	str	r2, [r1]
	.loc 1 258 3 is_stmt 1 view .LVU53
	.loc 1 258 10 is_stmt 0 view .LVU54
	movs	r0, #0
	.loc 1 259 1 view .LVU55
	pop	{r4, r5, r6, pc}
.LVL15:
.L3:
	.loc 1 175 5 is_stmt 1 view .LVU56
	.loc 1 178 5 view .LVU57
	.loc 1 178 29 is_stmt 0 view .LVU58
	lsls	r0, r4, #5
	.loc 1 178 13 view .LVU59
	ldr	r5, .L20+4
	.loc 1 182 8 view .LVU60
	ldr	r6, [r1, #8]
	.loc 1 178 13 view .LVU61
	add	r4, r5, r4, lsl #5
.LVL16:
	.loc 1 179 5 is_stmt 1 view .LVU62
	.loc 1 179 12 is_stmt 0 view .LVU63
	ldr	r5, [r0, r5]
.LVL17:
	.loc 1 182 5 is_stmt 1 view .LVU64
	.loc 1 182 8 is_stmt 0 view .LVU65
	lsls	r6, r6, #31
	.loc 1 184 7 is_stmt 1 view .LVU66
	.loc 1 184 14 is_stmt 0 view .LVU67
	ite	mi
	orrmi	r5, r5, r2
.LVL18:
	.loc 1 188 7 is_stmt 1 view .LVU68
	.loc 1 188 14 is_stmt 0 view .LVU69
	bicpl	r5, r5, r2
.LVL19:
	.loc 1 192 5 is_stmt 1 view .LVU70
	.loc 1 192 14 is_stmt 0 view .LVU71
	str	r5, [r4]
	.loc 1 195 5 is_stmt 1 view .LVU72
	.loc 1 195 13 is_stmt 0 view .LVU73
	ldr	r4, .L20+8
.LVL20:
	.loc 1 199 8 view .LVU74
	ldr	r6, [r1, #8]
	.loc 1 196 12 view .LVU75
	ldr	r5, [r0, r4]
.LVL21:
	.loc 1 199 8 view .LVU76
	lsls	r6, r6, #30
	.loc 1 195 13 view .LVU77
	add	r4, r4, r0
.LVL22:
	.loc 1 196 5 is_stmt 1 view .LVU78
	.loc 1 199 5 view .LVU79
	.loc 1 201 7 view .LVU80
	.loc 1 201 14 is_stmt 0 view .LVU81
	ite	mi
	orrmi	r5, r5, r2
.LVL23:
	.loc 1 205 7 is_stmt 1 view .LVU82
	.loc 1 205 14 is_stmt 0 view .LVU83
	bicpl	r5, r5, r2
.LVL24:
	.loc 1 209 5 is_stmt 1 view .LVU84
	.loc 1 209 14 is_stmt 0 view .LVU85
	str	r5, [r4]
	.loc 1 212 5 is_stmt 1 view .LVU86
	.loc 1 212 28 is_stmt 0 view .LVU87
	ldr	r4, [r1]
.LVL25:
	.loc 1 212 28 view .LVU88
	and	r4, r4, #100663296
	.loc 1 212 8 view .LVU89
	cmp	r4, #100663296
	bne	.L4
	.loc 1 214 7 is_stmt 1 view .LVU90
	.loc 1 215 7 view .LVU91
	.loc 1 217 7 view .LVU92
	and	ip, ip, #28
.LVL26:
	.loc 1 217 7 is_stmt 0 view .LVU93
	add	ip, ip, #1073741824
	add	ip, ip, #65536
	.loc 1 219 39 view .LVU94
	ldr	r4, [r1, #12]
	.loc 1 217 14 view .LVU95
	ldr	r5, [ip, #8]
.LVL27:
	.loc 1 218 7 is_stmt 1 view .LVU96
	.loc 1 218 80 is_stmt 0 view .LVU97
	and	r3, r3, #3
.LVL28:
	.loc 1 218 69 view .LVU98
	lsls	r3, r3, #2
	.loc 1 218 40 view .LVU99
	mov	lr, #7
	.loc 1 219 39 view .LVU100
	lsls	r4, r4, r3
	.loc 1 218 40 view .LVU101
	lsl	r3, lr, r3
	.loc 1 218 14 view .LVU102
	bic	r3, r5, r3
.LVL29:
	.loc 1 219 7 is_stmt 1 view .LVU103
	.loc 1 219 14 is_stmt 0 view .LVU104
	orrs	r4, r4, r3
.LVL30:
	.loc 1 220 7 is_stmt 1 view .LVU105
	.loc 1 220 37 is_stmt 0 view .LVU106
	str	r4, [ip, #8]
	b	.L4
.LVL31:
.L14:
.LCFI1:
	.cfi_def_cfa_offset 0
	.cfi_restore 4
	.cfi_restore 5
	.cfi_restore 6
	.cfi_restore 14
	.loc 1 155 12 view .LVU107
	movs	r0, #1
.LVL32:
	.loc 1 259 1 view .LVU108
	bx	lr
.L21:
	.align	2
.L20:
	.word	1073808388
	.word	1073808392
	.word	1073808396
	.cfi_endproc
.LFE132:
	.size	HAL_EXTI_SetConfigLine, .-HAL_EXTI_SetConfigLine
	.section	.text.HAL_EXTI_GetConfigLine,"ax",%progbits
	.align	1
	.p2align 2,,3
	.global	HAL_EXTI_GetConfigLine
	.syntax unified
	.thumb
	.thumb_func
	.fpu fpv4-sp-d16
	.type	HAL_EXTI_GetConfigLine, %function
HAL_EXTI_GetConfigLine:
.LVL33:
.LFB133:
	.loc 1 269 1 is_stmt 1 view -0
	.cfi_startproc
	@ args = 0, pretend = 0, frame = 0
	@ frame_needed = 0, uses_anonymous_args = 0
	.loc 1 270 3 view .LVU110
	.loc 1 271 3 view .LVU111
	.loc 1 272 3 view .LVU112
	.loc 1 273 3 view .LVU113
	.loc 1 274 3 view .LVU114
	.loc 1 277 3 view .LVU115
	.loc 1 277 6 is_stmt 0 view .LVU116
	cmp	r0, #0
	beq	.L30
	.loc 1 277 23 discriminator 1 view .LVU117
	cmp	r1, #0
	beq	.L30
	.loc 1 283 3 is_stmt 1 view .LVU118
	.loc 1 286 3 view .LVU119
	.loc 1 286 28 is_stmt 0 view .LVU120
	ldr	r3, [r0]
	.loc 1 286 21 view .LVU121
	str	r3, [r1]
	.loc 1 289 3 is_stmt 1 view .LVU122
.LVL34:
	.loc 1 291 3 view .LVU123
	.loc 1 289 10 is_stmt 0 view .LVU124
	ubfx	ip, r3, #16, #1
	.loc 1 296 26 view .LVU125
	lsl	ip, ip, #5
	.loc 1 296 11 view .LVU126
	add	r2, ip, #1073741824
	add	r2, r2, #66560
	.loc 1 269 1 view .LVU127
	push	{r4, lr}
.LCFI2:
	.cfi_def_cfa_offset 8
	.cfi_offset 4, -8
	.cfi_offset 14, -4
	.loc 1 297 10 view .LVU128
	ldr	r0, [r2]
.LVL35:
	.loc 1 310 11 view .LVU129
	ldr	r4, .L44
	.loc 1 291 11 view .LVU130
	and	lr, r3, #31
.LVL36:
	.loc 1 293 3 is_stmt 1 view .LVU131
	.loc 1 293 12 is_stmt 0 view .LVU132
	movs	r2, #1
	lsl	r2, r2, lr
.LVL37:
	.loc 1 296 3 is_stmt 1 view .LVU133
	.loc 1 297 3 view .LVU134
	.loc 1 300 3 view .LVU135
	.loc 1 300 6 is_stmt 0 view .LVU136
	tst	r2, r0
	ite	ne
	movne	r0, #1
.LVL38:
	.loc 1 300 6 view .LVU137
	moveq	r0, #0
	str	r0, [r1, #4]
	.loc 1 310 3 is_stmt 1 view .LVU138
.LVL39:
	.loc 1 311 3 view .LVU139
	.loc 1 311 10 is_stmt 0 view .LVU140
	ldr	r4, [ip, r4]
.LVL40:
	.loc 1 314 3 is_stmt 1 view .LVU141
	.loc 1 314 6 is_stmt 0 view .LVU142
	tst	r2, r4
	.loc 1 316 5 is_stmt 1 view .LVU143
	.loc 1 320 3 view .LVU144
	.loc 1 316 23 is_stmt 0 view .LVU145
	itt	ne
	orrne	r0, r0, #2
	strne	r0, [r1, #4]
	.loc 1 320 24 view .LVU146
	movs	r0, #0
	.loc 1 321 24 view .LVU147
	strd	r0, r0, [r1, #8]
	.loc 1 324 3 is_stmt 1 view .LVU148
	.loc 1 324 6 is_stmt 0 view .LVU149
	lsls	r0, r3, #6
	bpl	.L42
	.loc 1 326 5 is_stmt 1 view .LVU150
	.loc 1 326 13 is_stmt 0 view .LVU151
	ldr	r0, .L44+4
.LVL41:
	.loc 1 327 5 is_stmt 1 view .LVU152
	.loc 1 327 12 is_stmt 0 view .LVU153
	ldr	r0, [ip, r0]
.LVL42:
	.loc 1 330 5 is_stmt 1 view .LVU154
	.loc 1 330 8 is_stmt 0 view .LVU155
	tst	r2, r0
	.loc 1 332 7 is_stmt 1 view .LVU156
	.loc 1 336 5 view .LVU157
	.loc 1 332 28 is_stmt 0 view .LVU158
	itt	ne
	movne	r0, #1
.LVL43:
	.loc 1 332 28 view .LVU159
	strne	r0, [r1, #8]
	.loc 1 336 13 view .LVU160
	ldr	r0, .L44+8
.LVL44:
	.loc 1 337 5 is_stmt 1 view .LVU161
	.loc 1 337 12 is_stmt 0 view .LVU162
	ldr	r0, [ip, r0]
.LVL45:
	.loc 1 340 5 is_stmt 1 view .LVU163
	.loc 1 332 28 is_stmt 0 view .LVU164
	ite	ne
	movne	r4, #3
	moveq	r4, #2
	.loc 1 340 8 view .LVU165
	tst	r2, r0
	.loc 1 342 7 is_stmt 1 view .LVU166
	.loc 1 346 28 is_stmt 0 view .LVU167
	and	r2, r3, #100663296
.LVL46:
	.loc 1 342 28 view .LVU168
	it	ne
	strne	r4, [r1, #8]
	.loc 1 346 5 is_stmt 1 view .LVU169
	.loc 1 346 8 is_stmt 0 view .LVU170
	cmp	r2, #100663296
	beq	.L43
.LVL47:
.L42:
	.loc 1 355 10 view .LVU171
	movs	r0, #0
	.loc 1 356 1 view .LVU172
	pop	{r4, pc}
.LVL48:
.L30:
.LCFI3:
	.cfi_def_cfa_offset 0
	.cfi_restore 4
	.cfi_restore 14
	.loc 1 279 12 view .LVU173
	movs	r0, #1
.LVL49:
	.loc 1 356 1 view .LVU174
	bx	lr
.LVL50:
.L43:
.LCFI4:
	.cfi_def_cfa_offset 8
	.cfi_offset 4, -8
	.cfi_offset 14, -4
	.loc 1 348 7 is_stmt 1 view .LVU175
	.loc 1 350 7 view .LVU176
	.loc 1 350 39 is_stmt 0 view .LVU177
	lsr	r2, lr, #2
	.loc 1 350 14 view .LVU178
	ldr	r0, .L44+12
.LVL51:
	.loc 1 350 14 view .LVU179
	adds	r2, r2, #2
	.loc 1 351 78 view .LVU180
	and	r3, r3, #3
.LVL52:
	.loc 1 350 14 view .LVU181
	ldr	r2, [r0, r2, lsl #2]
.LVL53:
	.loc 1 351 7 is_stmt 1 view .LVU182
	.loc 1 351 67 is_stmt 0 view .LVU183
	lsls	r3, r3, #2
	.loc 1 351 38 view .LVU184
	lsr	r3, r2, r3
	.loc 1 351 89 view .LVU185
	and	r3, r3, #7
	.loc 1 351 28 view .LVU186
	str	r3, [r1, #12]
	.loc 1 355 10 view .LVU187
	movs	r0, #0
	.loc 1 356 1 view .LVU188
	pop	{r4, pc}
.L45:
	.align	2
.L44:
	.word	1073808388
	.word	1073808392
	.word	1073808396
	.word	1073807360
	.cfi_endproc
.LFE133:
	.size	HAL_EXTI_GetConfigLine, .-HAL_EXTI_GetConfigLine
	.section	.text.HAL_EXTI_ClearConfigLine,"ax",%progbits
	.align	1
	.p2align 2,,3
	.global	HAL_EXTI_ClearConfigLine
	.syntax unified
	.thumb
	.thumb_func
	.fpu fpv4-sp-d16
	.type	HAL_EXTI_ClearConfigLine, %function
HAL_EXTI_ClearConfigLine:
.LVL54:
.LFB134:
	.loc 1 365 1 is_stmt 1 view -0
	.cfi_startproc
	@ args = 0, pretend = 0, frame = 0
	@ frame_needed = 0, uses_anonymous_args = 0
	.loc 1 366 3 view .LVU190
	.loc 1 367 3 view .LVU191
	.loc 1 368 3 view .LVU192
	.loc 1 369 3 view .LVU193
	.loc 1 370 3 view .LVU194
	.loc 1 373 3 view .LVU195
	.loc 1 373 6 is_stmt 0 view .LVU196
	cmp	r0, #0
	beq	.L50
	.loc 1 379 3 is_stmt 1 view .LVU197
	.loc 1 382 3 view .LVU198
	.loc 1 365 1 is_stmt 0 view .LVU199
	push	{r4, r5, lr}
.LCFI5:
	.cfi_def_cfa_offset 12
	.cfi_offset 4, -12
	.cfi_offset 5, -8
	.cfi_offset 14, -4
	.loc 1 382 19 view .LVU200
	ldr	r5, [r0]
.LVL55:
	.loc 1 384 3 is_stmt 1 view .LVU201
	.loc 1 382 10 is_stmt 0 view .LVU202
	ubfx	r3, r5, #16, #1
	.loc 1 389 26 view .LVU203
	lsls	r3, r3, #5
	.loc 1 389 11 view .LVU204
	add	r1, r3, #1073741824
	add	r1, r1, #66560
	.loc 1 384 11 view .LVU205
	and	ip, r5, #31
.LVL56:
	.loc 1 386 3 is_stmt 1 view .LVU206
	.loc 1 389 3 view .LVU207
	.loc 1 390 3 view .LVU208
	.loc 1 390 13 is_stmt 0 view .LVU209
	ldr	r4, [r1]
	.loc 1 386 12 view .LVU210
	movs	r2, #1
	lsl	r2, r2, ip
.LVL57:
	.loc 1 390 10 view .LVU211
	bic	r4, r4, r2
.LVL58:
	.loc 1 391 3 is_stmt 1 view .LVU212
	.loc 1 391 12 is_stmt 0 view .LVU213
	str	r4, [r1]
	.loc 1 394 3 is_stmt 1 view .LVU214
	.loc 1 394 11 is_stmt 0 view .LVU215
	ldr	r4, .L57
.LVL59:
	.loc 1 395 3 is_stmt 1 view .LVU216
	.loc 1 395 13 is_stmt 0 view .LVU217
	ldr	r1, [r3, r4]
.LVL60:
	.loc 1 390 24 view .LVU218
	mvn	lr, r2
	.loc 1 395 10 view .LVU219
	bic	r2, r1, r2
.LVL61:
	.loc 1 396 3 is_stmt 1 view .LVU220
	.loc 1 396 12 is_stmt 0 view .LVU221
	str	r2, [r3, r4]
	.loc 1 399 3 is_stmt 1 view .LVU222
	.loc 1 399 20 is_stmt 0 view .LVU223
	ldr	r2, [r0]
.LVL62:
	.loc 1 399 6 view .LVU224
	lsls	r2, r2, #6
	bpl	.L55
	.loc 1 401 5 is_stmt 1 view .LVU225
	.loc 1 401 13 is_stmt 0 view .LVU226
	ldr	r4, .L57+4
.LVL63:
	.loc 1 402 5 is_stmt 1 view .LVU227
	.loc 1 405 13 is_stmt 0 view .LVU228
	ldr	r1, .L57+8
	.loc 1 402 15 view .LVU229
	ldr	r2, [r3, r4]
	.loc 1 402 12 view .LVU230
	and	r2, lr, r2
.LVL64:
	.loc 1 403 5 is_stmt 1 view .LVU231
	.loc 1 403 14 is_stmt 0 view .LVU232
	str	r2, [r3, r4]
	.loc 1 405 5 is_stmt 1 view .LVU233
.LVL65:
	.loc 1 406 5 view .LVU234
	.loc 1 406 15 is_stmt 0 view .LVU235
	ldr	r2, [r3, r1]
.LVL66:
	.loc 1 406 12 view .LVU236
	and	r2, lr, r2
.LVL67:
	.loc 1 407 5 is_stmt 1 view .LVU237
	.loc 1 407 14 is_stmt 0 view .LVU238
	str	r2, [r3, r1]
	.loc 1 410 5 is_stmt 1 view .LVU239
	.loc 1 410 22 is_stmt 0 view .LVU240
	ldr	r3, [r0]
.LVL68:
	.loc 1 410 22 view .LVU241
	and	r3, r3, #100663296
	.loc 1 410 8 view .LVU242
	cmp	r3, #100663296
	beq	.L56
.LVL69:
.L55:
	.loc 1 420 10 view .LVU243
	movs	r0, #0
.LVL70:
	.loc 1 421 1 view .LVU244
	pop	{r4, r5, pc}
.LVL71:
.L56:
	.loc 1 412 7 is_stmt 1 view .LVU245
	.loc 1 414 7 view .LVU246
	and	ip, ip, #28
.LVL72:
	.loc 1 414 7 is_stmt 0 view .LVU247
	add	ip, ip, #1073741824
	add	ip, ip, #65536
	.loc 1 415 80 view .LVU248
	and	r5, r5, #3
.LVL73:
	.loc 1 414 14 view .LVU249
	ldr	r3, [ip, #8]
.LVL74:
	.loc 1 415 7 is_stmt 1 view .LVU250
	.loc 1 415 40 is_stmt 0 view .LVU251
	movs	r2, #7
	.loc 1 415 69 view .LVU252
	lsls	r5, r5, #2
	.loc 1 415 40 view .LVU253
	lsl	r5, r2, r5
	.loc 1 415 14 view .LVU254
	bic	r5, r3, r5
.LVL75:
	.loc 1 416 7 is_stmt 1 view .LVU255
	.loc 1 416 37 is_stmt 0 view .LVU256
	str	r5, [ip, #8]
	.loc 1 420 10 view .LVU257
	movs	r0, #0
.LVL76:
	.loc 1 421 1 view .LVU258
	pop	{r4, r5, pc}
.LVL77:
.L50:
.LCFI6:
	.cfi_def_cfa_offset 0
	.cfi_restore 4
	.cfi_restore 5
	.cfi_restore 14
	.loc 1 375 12 view .LVU259
	movs	r0, #1
.LVL78:
	.loc 1 421 1 view .LVU260
	bx	lr
.L58:
	.align	2
.L57:
	.word	1073808388
	.word	1073808392
	.word	1073808396
	.cfi_endproc
.LFE134:
	.size	HAL_EXTI_ClearConfigLine, .-HAL_EXTI_ClearConfigLine
	.section	.text.HAL_EXTI_RegisterCallback,"ax",%progbits
	.align	1
	.p2align 2,,3
	.global	HAL_EXTI_RegisterCallback
	.syntax unified
	.thumb
	.thumb_func
	.fpu fpv4-sp-d16
	.type	HAL_EXTI_RegisterCallback, %function
HAL_EXTI_RegisterCallback:
.LVL79:
.LFB135:
	.loc 1 433 1 is_stmt 1 view -0
	.cfi_startproc
	@ args = 0, pretend = 0, frame = 0
	@ frame_needed = 0, uses_anonymous_args = 0
	@ link register save eliminated.
	.loc 1 434 3 view .LVU262
	.loc 1 437 3 view .LVU263
	.loc 1 439 3 view .LVU264
	.loc 1 447 30 is_stmt 0 view .LVU265
	cmp	r1, #0
	itt	ne
	movne	r2, #0
.LVL80:
	.loc 1 447 30 view .LVU266
	movne	r1, #1
.LVL81:
	.loc 1 447 30 view .LVU267
	str	r2, [r0, #4]
.LVL82:
	.loc 1 452 3 is_stmt 1 view .LVU268
	.loc 1 453 1 is_stmt 0 view .LVU269
	mov	r0, r1
.LVL83:
	.loc 1 453 1 view .LVU270
	bx	lr
	.cfi_endproc
.LFE135:
	.size	HAL_EXTI_RegisterCallback, .-HAL_EXTI_RegisterCallback
	.section	.text.HAL_EXTI_GetHandle,"ax",%progbits
	.align	1
	.p2align 2,,3
	.global	HAL_EXTI_GetHandle
	.syntax unified
	.thumb
	.thumb_func
	.fpu fpv4-sp-d16
	.type	HAL_EXTI_GetHandle, %function
HAL_EXTI_GetHandle:
.LVL84:
.LFB136:
	.loc 1 464 1 is_stmt 1 view -0
	.cfi_startproc
	@ args = 0, pretend = 0, frame = 0
	@ frame_needed = 0, uses_anonymous_args = 0
	@ link register save eliminated.
	.loc 1 466 3 view .LVU272
	.loc 1 469 3 view .LVU273
	.loc 1 469 6 is_stmt 0 view .LVU274
	cbz	r0, .L66
	.loc 1 476 5 is_stmt 1 view .LVU275
	.loc 1 476 17 is_stmt 0 view .LVU276
	str	r1, [r0]
	.loc 1 478 5 is_stmt 1 view .LVU277
	.loc 1 478 12 is_stmt 0 view .LVU278
	movs	r0, #0
.LVL85:
	.loc 1 478 12 view .LVU279
	bx	lr
.LVL86:
.L66:
	.loc 1 471 12 view .LVU280
	movs	r0, #1
.LVL87:
	.loc 1 480 1 view .LVU281
	bx	lr
	.cfi_endproc
.LFE136:
	.size	HAL_EXTI_GetHandle, .-HAL_EXTI_GetHandle
	.section	.text.HAL_EXTI_IRQHandler,"ax",%progbits
	.align	1
	.p2align 2,,3
	.global	HAL_EXTI_IRQHandler
	.syntax unified
	.thumb
	.thumb_func
	.fpu fpv4-sp-d16
	.type	HAL_EXTI_IRQHandler, %function
HAL_EXTI_IRQHandler:
.LVL88:
.LFB137:
	.loc 1 505 1 is_stmt 1 view -0
	.cfi_startproc
	@ args = 0, pretend = 0, frame = 0
	@ frame_needed = 0, uses_anonymous_args = 0
	@ link register save eliminated.
	.loc 1 506 3 view .LVU283
	.loc 1 507 3 view .LVU284
	.loc 1 508 3 view .LVU285
	.loc 1 509 3 view .LVU286
	.loc 1 512 3 view .LVU287
	.loc 1 512 19 is_stmt 0 view .LVU288
	ldr	r3, [r0]
.LVL89:
	.loc 1 514 3 is_stmt 1 view .LVU289
	.loc 1 512 10 is_stmt 0 view .LVU290
	ubfx	r2, r3, #16, #1
	.loc 1 505 1 view .LVU291
	push	{r4}
.LCFI7:
	.cfi_def_cfa_offset 4
	.cfi_offset 4, -4
	.loc 1 517 25 view .LVU292
	lsls	r2, r2, #5
	.loc 1 517 11 view .LVU293
	ldr	r4, .L75
	.loc 1 514 12 view .LVU294
	movs	r1, #1
	.loc 1 514 35 view .LVU295
	and	r3, r3, #31
.LVL90:
	.loc 1 514 12 view .LVU296
	lsl	r3, r1, r3
.LVL91:
	.loc 1 517 3 is_stmt 1 view .LVU297
	.loc 1 518 3 view .LVU298
	.loc 1 518 13 is_stmt 0 view .LVU299
	ldr	r1, [r2, r4]
.LVL92:
	.loc 1 520 3 is_stmt 1 view .LVU300
	.loc 1 520 6 is_stmt 0 view .LVU301
	tst	r1, r3
	beq	.L67
	.loc 1 523 5 is_stmt 1 view .LVU302
	.loc 1 526 14 is_stmt 0 view .LVU303
	ldr	r1, [r0, #4]
.LVL93:
	.loc 1 523 14 view .LVU304
	str	r3, [r2, r4]
.LVL94:
	.loc 1 526 5 is_stmt 1 view .LVU305
	.loc 1 526 8 is_stmt 0 view .LVU306
	cbz	r1, .L67
	.loc 1 528 7 is_stmt 1 view .LVU307
	.loc 1 531 1 is_stmt 0 view .LVU308
	ldr	r4, [sp], #4
.LCFI8:
	.cfi_remember_state
	.cfi_restore 4
	.cfi_def_cfa_offset 0
.LVL95:
	.loc 1 528 7 view .LVU309
	bx	r1	@ indirect register sibling call
.LVL96:
.L67:
.LCFI9:
	.cfi_restore_state
	.loc 1 531 1 view .LVU310
	ldr	r4, [sp], #4
.LCFI10:
	.cfi_restore 4
	.cfi_def_cfa_offset 0
.LVL97:
	.loc 1 531 1 view .LVU311
	bx	lr
.L76:
	.align	2
.L75:
	.word	1073808404
	.cfi_endproc
.LFE137:
	.size	HAL_EXTI_IRQHandler, .-HAL_EXTI_IRQHandler
	.section	.text.HAL_EXTI_GetPending,"ax",%progbits
	.align	1
	.p2align 2,,3
	.global	HAL_EXTI_GetPending
	.syntax unified
	.thumb
	.thumb_func
	.fpu fpv4-sp-d16
	.type	HAL_EXTI_GetPending, %function
HAL_EXTI_GetPending:
.LVL98:
.LFB138:
	.loc 1 540 1 is_stmt 1 view -0
	.cfi_startproc
	@ args = 0, pretend = 0, frame = 0
	@ frame_needed = 0, uses_anonymous_args = 0
	@ link register save eliminated.
	.loc 1 541 3 view .LVU313
	.loc 1 542 3 view .LVU314
	.loc 1 543 3 view .LVU315
	.loc 1 544 3 view .LVU316
	.loc 1 545 3 view .LVU317
	.loc 1 548 3 view .LVU318
	.loc 1 549 3 view .LVU319
	.loc 1 550 3 view .LVU320
	.loc 1 553 3 view .LVU321
	.loc 1 553 19 is_stmt 0 view .LVU322
	ldr	r3, [r0]
.LVL99:
	.loc 1 555 3 is_stmt 1 view .LVU323
	.loc 1 560 11 is_stmt 0 view .LVU324
	ldr	r1, .L78
.LVL100:
	.loc 1 553 10 view .LVU325
	ubfx	r2, r3, #16, #1
	.loc 1 560 25 view .LVU326
	lsls	r2, r2, #5
	.loc 1 555 11 view .LVU327
	and	r3, r3, #31
.LVL101:
	.loc 1 557 3 is_stmt 1 view .LVU328
	.loc 1 560 3 view .LVU329
	.loc 1 563 3 view .LVU330
	.loc 1 563 14 is_stmt 0 view .LVU331
	ldr	r2, [r2, r1]
.LVL102:
	.loc 1 564 3 is_stmt 1 view .LVU332
	.loc 1 557 12 is_stmt 0 view .LVU333
	movs	r0, #1
.LVL103:
	.loc 1 557 12 view .LVU334
	lsls	r0, r0, r3
.LVL104:
	.loc 1 563 23 view .LVU335
	ands	r0, r0, r2
.LVL105:
	.loc 1 565 1 view .LVU336
	lsrs	r0, r0, r3
.LVL106:
	.loc 1 565 1 view .LVU337
	bx	lr
.L79:
	.align	2
.L78:
	.word	1073808404
	.cfi_endproc
.LFE138:
	.size	HAL_EXTI_GetPending, .-HAL_EXTI_GetPending
	.section	.text.HAL_EXTI_ClearPending,"ax",%progbits
	.align	1
	.p2align 2,,3
	.global	HAL_EXTI_ClearPending
	.syntax unified
	.thumb
	.thumb_func
	.fpu fpv4-sp-d16
	.type	HAL_EXTI_ClearPending, %function
HAL_EXTI_ClearPending:
.LVL107:
.LFB139:
	.loc 1 575 1 is_stmt 1 view -0
	.cfi_startproc
	@ args = 0, pretend = 0, frame = 0
	@ frame_needed = 0, uses_anonymous_args = 0
	@ link register save eliminated.
	.loc 1 576 3 view .LVU339
	.loc 1 577 3 view .LVU340
	.loc 1 578 3 view .LVU341
	.loc 1 581 3 view .LVU342
	.loc 1 582 3 view .LVU343
	.loc 1 583 3 view .LVU344
	.loc 1 586 3 view .LVU345
	.loc 1 586 19 is_stmt 0 view .LVU346
	ldr	r3, [r0]
.LVL108:
	.loc 1 588 3 is_stmt 1 view .LVU347
	.loc 1 586 10 is_stmt 0 view .LVU348
	ubfx	r2, r3, #16, #1
	.loc 1 575 1 view .LVU349
	push	{r4}
.LCFI11:
	.cfi_def_cfa_offset 4
	.cfi_offset 4, -4
	.loc 1 588 12 view .LVU350
	movs	r1, #1
.LVL109:
	.loc 1 591 11 view .LVU351
	ldr	r4, .L82
	.loc 1 588 35 view .LVU352
	and	r3, r3, #31
.LVL110:
	.loc 1 591 25 view .LVU353
	lsls	r2, r2, #5
	.loc 1 588 12 view .LVU354
	lsl	r3, r1, r3
.LVL111:
	.loc 1 591 3 is_stmt 1 view .LVU355
	.loc 1 594 3 view .LVU356
	.loc 1 594 12 is_stmt 0 view .LVU357
	str	r3, [r2, r4]
.LVL112:
	.loc 1 595 1 view .LVU358
	ldr	r4, [sp], #4
.LCFI12:
	.cfi_restore 4
	.cfi_def_cfa_offset 0
.LVL113:
	.loc 1 595 1 view .LVU359
	bx	lr
.L83:
	.align	2
.L82:
	.word	1073808404
	.cfi_endproc
.LFE139:
	.size	HAL_EXTI_ClearPending, .-HAL_EXTI_ClearPending
	.section	.text.HAL_EXTI_GenerateSWI,"ax",%progbits
	.align	1
	.p2align 2,,3
	.global	HAL_EXTI_GenerateSWI
	.syntax unified
	.thumb
	.thumb_func
	.fpu fpv4-sp-d16
	.type	HAL_EXTI_GenerateSWI, %function
HAL_EXTI_GenerateSWI:
.LVL114:
.LFB140:
	.loc 1 604 1 is_stmt 1 view -0
	.cfi_startproc
	@ args = 0, pretend = 0, frame = 0
	@ frame_needed = 0, uses_anonymous_args = 0
	@ link register save eliminated.
	.loc 1 605 3 view .LVU361
	.loc 1 606 3 view .LVU362
	.loc 1 607 3 view .LVU363
	.loc 1 610 3 view .LVU364
	.loc 1 611 3 view .LVU365
	.loc 1 614 3 view .LVU366
	.loc 1 614 19 is_stmt 0 view .LVU367
	ldr	r3, [r0]
.LVL115:
	.loc 1 616 3 is_stmt 1 view .LVU368
	.loc 1 614 10 is_stmt 0 view .LVU369
	ubfx	r2, r3, #16, #1
	.loc 1 604 1 view .LVU370
	push	{r4}
.LCFI13:
	.cfi_def_cfa_offset 4
	.cfi_offset 4, -4
	.loc 1 616 12 view .LVU371
	movs	r1, #1
	.loc 1 618 11 view .LVU372
	ldr	r4, .L86
	.loc 1 616 35 view .LVU373
	and	r3, r3, #31
.LVL116:
	.loc 1 618 28 view .LVU374
	lsls	r2, r2, #5
	.loc 1 616 12 view .LVU375
	lsl	r3, r1, r3
.LVL117:
	.loc 1 618 3 is_stmt 1 view .LVU376
	.loc 1 619 3 view .LVU377
	.loc 1 619 12 is_stmt 0 view .LVU378
	str	r3, [r2, r4]
.LVL118:
	.loc 1 620 1 view .LVU379
	ldr	r4, [sp], #4
.LCFI14:
	.cfi_restore 4
	.cfi_def_cfa_offset 0
.LVL119:
	.loc 1 620 1 view .LVU380
	bx	lr
.L87:
	.align	2
.L86:
	.word	1073808400
	.cfi_endproc
.LFE140:
	.size	HAL_EXTI_GenerateSWI, .-HAL_EXTI_GenerateSWI
	.text
.Letext0:
	.file 2 "/usr/share/gcc-arm-none-eabi-10-2020-q4-major/arm-none-eabi/include/machine/_default_types.h"
	.file 3 "/usr/share/gcc-arm-none-eabi-10-2020-q4-major/arm-none-eabi/include/sys/_stdint.h"
	.file 4 "Drivers/CMSIS/Device/ST/STM32G4xx/Include/stm32g431xx.h"
	.file 5 "Drivers/STM32G4xx_HAL_Driver/Inc/stm32g4xx_hal_def.h"
	.file 6 "Drivers/STM32G4xx_HAL_Driver/Inc/stm32g4xx_hal_exti.h"