	.cpu cortex-m4
	.eabi_attribute 27, 1
	.eabi_attribute 28, 1
	.eabi_attribute 20, 1
	.eabi_attribute 21, 1
	.eabi_attribute 23, 3
	.eabi_attribute 24, 1
	.eabi_attribute 25, 1
	.eabi_attribute 26, 1
	.eabi_attribute 30, 2
	.eabi_attribute 34, 1
	.eabi_attribute 18, 4
	.file	"stm32g4xx_hal_tim.c"
	.text
.Ltext0:
	.cfi_sections	.debug_frame
	.section	.text.TIM_OC1_SetConfig,"ax",%progbits
	.align	1
	.p2align 2,,3
	.arch armv7e-m
	.syntax unified
	.thumb
	.thumb_func
	.fpu fpv4-sp-d16
	.type	TIM_OC1_SetConfig, %function
TIM_OC1_SetConfig:
.LVL0:
.LFB237:
	.file 1 "Drivers/STM32G4xx_HAL_Driver/Src/stm32g4xx_hal_tim.c"
	.loc 1 7164 1 view -0
	.cfi_startproc
	@ args = 0, pretend = 0, frame = 0
	@ frame_needed = 0, uses_anonymous_args = 0
	@ link register save eliminated.
	.loc 1 7165 3 view .LVU1
	.loc 1 7166 3 view .LVU2
	.loc 1 7167 3 view .LVU3
	.loc 1 7170 3 view .LVU4
	.loc 1 7170 11 is_stmt 0 view .LVU5
	ldr	r3, [r0, #32]
.LVL1:
	.loc 1 7173 3 is_stmt 1 view .LVU6
	.loc 1 7173 14 is_stmt 0 view .LVU7
	ldr	r2, [r0, #32]
	bic	r2, r2, #1
	str	r2, [r0, #32]
	.loc 1 7176 3 is_stmt 1 view .LVU8
	.loc 1 7164 1 is_stmt 0 view .LVU9
	push	{r4, r5, r6}
.LCFI0:
	.cfi_def_cfa_offset 12
	.cfi_offset 4, -12
	.cfi_offset 5, -8
	.cfi_offset 6, -4
	.loc 1 7176 10 view .LVU10
	ldr	r4, [r0, #4]
.LVL2:
	.loc 1 7179 3 is_stmt 1 view .LVU11
	.loc 1 7179 12 is_stmt 0 view .LVU12
	ldr	r2, [r0, #24]
.LVL3:
	.loc 1 7182 3 is_stmt 1 view .LVU13
	.loc 1 7183 3 view .LVU14
	.loc 1 7185 12 is_stmt 0 view .LVU15
	ldr	r5, [r1]
	.loc 1 7183 12 view .LVU16
	bic	r2, r2, #65536
.LVL4:
	.loc 1 7183 12 view .LVU17
	bic	r2, r2, #115
.LVL5:
	.loc 1 7185 3 is_stmt 1 view .LVU18
	.loc 1 7185 12 is_stmt 0 view .LVU19
	orrs	r2, r2, r5
.LVL6:
	.loc 1 7188 3 is_stmt 1 view .LVU20
	.loc 1 7190 11 is_stmt 0 view .LVU21
	ldr	r5, [r1, #8]
	.loc 1 7188 11 view .LVU22
	bic	r3, r3, #2
.LVL7:
	.loc 1 7190 3 is_stmt 1 view .LVU23
	.loc 1 7190 11 is_stmt 0 view .LVU24
	orrs	r3, r3, r5
.LVL8:
	.loc 1 7192 3 is_stmt 1 view .LVU25
	.loc 1 7192 6 is_stmt 0 view .LVU26
	ldr	r5, .L12
	cmp	r0, r5
	beq	.L4
	.loc 1 7192 7 discriminator 1 view .LVU27
	add	r5, r5, #2048
	cmp	r0, r5
	beq	.L4
	.loc 1 7192 7 discriminator 2 view .LVU28
	add	r5, r5, #3072
	cmp	r0, r5
	beq	.L4
	.loc 1 7192 7 discriminator 3 view .LVU29
	add	r5, r5, #1024
	cmp	r0, r5
	beq	.L4
	.loc 1 7192 7 discriminator 4 view .LVU30
	add	r5, r5, #1024
	cmp	r0, r5
	bne	.L7
.L4:
	.loc 1 7195 5 is_stmt 1 view .LVU31
	.loc 1 7198 5 view .LVU32
	.loc 1 7200 13 is_stmt 0 view .LVU33
	ldr	r5, [r1, #12]
	.loc 1 7198 13 view .LVU34
	bic	r3, r3, #8
.LVL9:
	.loc 1 7200 5 is_stmt 1 view .LVU35
	.loc 1 7200 13 is_stmt 0 view .LVU36
	orrs	r3, r3, r5
.LVL10:
	.loc 1 7202 5 is_stmt 1 view .LVU37
	.loc 1 7217 12 is_stmt 0 view .LVU38
	ldrd	r6, r5, [r1, #20]
	.loc 1 7213 12 view .LVU39
	bic	r4, r4, #768
.LVL11:
	.loc 1 7217 12 view .LVU40
	orr	ip, r6, r5
	.loc 1 7202 13 view .LVU41
	bic	r3, r3, #4
.LVL12:
	.loc 1 7205 3 is_stmt 1 view .LVU42
	.loc 1 7208 5 view .LVU43
	.loc 1 7209 5 view .LVU44
	.loc 1 7212 5 view .LVU45
	.loc 1 7213 5 view .LVU46
	.loc 1 7215 5 view .LVU47
	.loc 1 7217 5 view .LVU48
	.loc 1 7217 12 is_stmt 0 view .LVU49
	orr	r4, ip, r4
.LVL13:
.L7:
	.loc 1 7221 3 is_stmt 1 view .LVU50
	.loc 1 7227 25 is_stmt 0 view .LVU51
	ldr	r1, [r1, #4]
.LVL14:
	.loc 1 7221 13 view .LVU52
	str	r4, [r0, #4]
	.loc 1 7224 3 is_stmt 1 view .LVU53
	.loc 1 7224 15 is_stmt 0 view .LVU54
	str	r2, [r0, #24]
	.loc 1 7227 3 is_stmt 1 view .LVU55
	.loc 1 7231 1 is_stmt 0 view .LVU56
	pop	{r4, r5, r6}
.LCFI1:
	.cfi_restore 6
	.cfi_restore 5
	.cfi_restore 4
	.cfi_def_cfa_offset 0
.LVL15:
	.loc 1 7227 14 view .LVU57
	str	r1, [r0, #52]
	.loc 1 7230 3 is_stmt 1 view .LVU58
	.loc 1 7230 14 is_stmt 0 view .LVU59
	str	r3, [r0, #32]
	.loc 1 7231 1 view .LVU60
	bx	lr
.L13:
	.align	2
.L12:
	.word	1073818624
	.cfi_endproc
.LFE237:
	.size	TIM_OC1_SetConfig, .-TIM_OC1_SetConfig
	.section	.text.TIM_OC3_SetConfig,"ax",%progbits
	.align	1
	.p2align 2,,3
	.syntax unified
	.thumb
	.thumb_func
	.fpu fpv4-sp-d16
	.type	TIM_OC3_SetConfig, %function
TIM_OC3_SetConfig:
.LVL16:
.LFB239:
	.loc 1 7316 1 is_stmt 1 view -0
	.cfi_startproc
	@ args = 0, pretend = 0, frame = 0
	@ frame_needed = 0, uses_anonymous_args = 0
	@ link register save eliminated.
	.loc 1 7317 3 view .LVU62
	.loc 1 7318 3 view .LVU63
	.loc 1 7319 3 view .LVU64
	.loc 1 7322 3 view .LVU65
	.loc 1 7322 11 is_stmt 0 view .LVU66
	ldr	r3, [r0, #32]
.LVL17:
	.loc 1 7325 3 is_stmt 1 view .LVU67
	.loc 1 7325 14 is_stmt 0 view .LVU68
	ldr	r2, [r0, #32]
	bic	r2, r2, #256
	str	r2, [r0, #32]
	.loc 1 7328 3 is_stmt 1 view .LVU69
	.loc 1 7316 1 is_stmt 0 view .LVU70
	push	{r4, r5, r6}
.LCFI2:
	.cfi_def_cfa_offset 12
	.cfi_offset 4, -12
	.cfi_offset 5, -8
	.cfi_offset 6, -4
	.loc 1 7328 10 view .LVU71
	ldr	r4, [r0, #4]
.LVL18:
	.loc 1 7331 3 is_stmt 1 view .LVU72
	.loc 1 7331 12 is_stmt 0 view .LVU73
	ldr	r2, [r0, #28]
.LVL19:
	.loc 1 7334 3 is_stmt 1 view .LVU74
	.loc 1 7335 3 view .LVU75
	.loc 1 7337 12 is_stmt 0 view .LVU76
	ldr	r5, [r1]
	.loc 1 7335 12 view .LVU77
	bic	r2, r2, #65536
.LVL20:
	.loc 1 7335 12 view .LVU78
	bic	r2, r2, #115
.LVL21:
	.loc 1 7337 3 is_stmt 1 view .LVU79
	.loc 1 7337 12 is_stmt 0 view .LVU80
	orrs	r2, r2, r5
.LVL22:
	.loc 1 7340 3 is_stmt 1 view .LVU81
	.loc 1 7342 37 is_stmt 0 view .LVU82
	ldr	r5, [r1, #8]
	.loc 1 7340 11 view .LVU83
	bic	r3, r3, #512
.LVL23:
	.loc 1 7342 3 is_stmt 1 view .LVU84
	.loc 1 7342 11 is_stmt 0 view .LVU85
	orr	r3, r3, r5, lsl #8
.LVL24:
	.loc 1 7344 3 is_stmt 1 view .LVU86
	.loc 1 7344 6 is_stmt 0 view .LVU87
	ldr	r5, .L21
	cmp	r0, r5
	beq	.L16
	.loc 1 7344 7 discriminator 1 view .LVU88
	add	r5, r5, #2048
	cmp	r0, r5
	beq	.L16
	.loc 1 7356 7 discriminator 2 view .LVU89
	add	r5, r5, #3072
	cmp	r0, r5
	beq	.L17
	.loc 1 7356 7 discriminator 3 view .LVU90
	add	r5, r5, #1024
	cmp	r0, r5
	beq	.L17
	.loc 1 7356 7 discriminator 4 view .LVU91
	add	r5, r5, #1024
	cmp	r0, r5
	bne	.L18
	b	.L17
.L16:
	.loc 1 7346 5 is_stmt 1 view .LVU92
	.loc 1 7349 5 view .LVU93
	.loc 1 7351 40 is_stmt 0 view .LVU94
	ldr	r5, [r1, #12]
	.loc 1 7349 13 view .LVU95
	bic	r3, r3, #2048
.LVL25:
	.loc 1 7351 5 is_stmt 1 view .LVU96
	.loc 1 7351 13 is_stmt 0 view .LVU97
	orr	r3, r3, r5, lsl #8
.LVL26:
	.loc 1 7353 5 is_stmt 1 view .LVU98
	.loc 1 7353 13 is_stmt 0 view .LVU99
	bic	r3, r3, #1024
.LVL27:
	.loc 1 7356 3 is_stmt 1 view .LVU100
.L17:
	.loc 1 7359 5 view .LVU101
	.loc 1 7360 5 view .LVU102
	.loc 1 7363 5 view .LVU103
	.loc 1 7364 5 view .LVU104
	.loc 1 7368 12 is_stmt 0 view .LVU105
	ldrd	r6, r5, [r1, #20]
	.loc 1 7364 12 view .LVU106
	bic	r4, r4, #12288
.LVL28:
	.loc 1 7366 5 is_stmt 1 view .LVU107
	.loc 1 7368 5 view .LVU108
	.loc 1 7368 12 is_stmt 0 view .LVU109
	orr	ip, r6, r5
	orr	r4, r4, ip, lsl #4
.LVL29:
.L18:
	.loc 1 7372 3 is_stmt 1 view .LVU110
	.loc 1 7378 25 is_stmt 0 view .LVU111
	ldr	r1, [r1, #4]
.LVL30:
	.loc 1 7372 13 view .LVU112
	str	r4, [r0, #4]
	.loc 1 7375 3 is_stmt 1 view .LVU113
	.loc 1 7375 15 is_stmt 0 view .LVU114
	str	r2, [r0, #28]
	.loc 1 7378 3 is_stmt 1 view .LVU115
	.loc 1 7382 1 is_stmt 0 view .LVU116
	pop	{r4, r5, r6}
.LCFI3:
	.cfi_restore 6
	.cfi_restore 5
	.cfi_restore 4
	.cfi_def_cfa_offset 0
.LVL31:
	.loc 1 7378 14 view .LVU117
	str	r1, [r0, #60]
	.loc 1 7381 3 is_stmt 1 view .LVU118
	.loc 1 7381 14 is_stmt 0 view .LVU119
	str	r3, [r0, #32]
	.loc 1 7382 1 view .LVU120
	bx	lr
.L22:
	.align	2
.L21:
	.word	1073818624
	.cfi_endproc
.LFE239:
	.size	TIM_OC3_SetConfig, .-TIM_OC3_SetConfig
	.section	.text.TIM_OC4_SetConfig,"ax",%progbits
	.align	1
	.p2align 2,,3
	.syntax unified
	.thumb
	.thumb_func
	.fpu fpv4-sp-d16
	.type	TIM_OC4_SetConfig, %function
TIM_OC4_SetConfig:
.LVL32:
.LFB240:
	.loc 1 7391 1 is_stmt 1 view -0
	.cfi_startproc
	@ args = 0, pretend = 0, frame = 0
	@ frame_needed = 0, uses_anonymous_args = 0
	@ link register save eliminated.
	.loc 1 7392 3 view .LVU122
	.loc 1 7393 3 view .LVU123
	.loc 1 7394 3 view .LVU124
	.loc 1 7397 3 view .LVU125
	.loc 1 7397 11 is_stmt 0 view .LVU126
	ldr	r3, [r0, #32]
.LVL33:
	.loc 1 7400 3 is_stmt 1 view .LVU127
	.loc 1 7400 14 is_stmt 0 view .LVU128
	ldr	r2, [r0, #32]
	bic	r2, r2, #4096
	str	r2, [r0, #32]
	.loc 1 7403 3 is_stmt 1 view .LVU129
	.loc 1 7391 1 is_stmt 0 view .LVU130
	push	{r4, r5, r6}
.LCFI4:
	.cfi_def_cfa_offset 12
	.cfi_offset 4, -12
	.cfi_offset 5, -8
	.cfi_offset 6, -4
	.loc 1 7403 10 view .LVU131
	ldr	r4, [r0, #4]
.LVL34:
	.loc 1 7406 3 is_stmt 1 view .LVU132
	.loc 1 7406 12 is_stmt 0 view .LVU133
	ldr	r2, [r0, #28]
.LVL35:
	.loc 1 7409 3 is_stmt 1 view .LVU134
	.loc 1 7410 3 view .LVU135
	.loc 1 7413 34 is_stmt 0 view .LVU136
	ldr	r5, [r1]
	.loc 1 7410 12 view .LVU137
	bic	r2, r2, #16777216
.LVL36:
	.loc 1 7410 12 view .LVU138
	bic	r2, r2, #29440
.LVL37:
	.loc 1 7413 3 is_stmt 1 view .LVU139
	.loc 1 7413 12 is_stmt 0 view .LVU140
	orr	r2, r2, r5, lsl #8
.LVL38:
	.loc 1 7416 3 is_stmt 1 view .LVU141
	.loc 1 7418 37 is_stmt 0 view .LVU142
	ldr	r5, [r1, #8]
	.loc 1 7416 11 view .LVU143
	bic	r3, r3, #8192
.LVL39:
	.loc 1 7418 3 is_stmt 1 view .LVU144
	.loc 1 7418 11 is_stmt 0 view .LVU145
	orr	r3, r3, r5, lsl #12
.LVL40:
	.loc 1 7420 3 is_stmt 1 view .LVU146
	.loc 1 7420 6 is_stmt 0 view .LVU147
	ldr	r5, .L30
	cmp	r0, r5
	beq	.L25
	.loc 1 7420 7 discriminator 1 view .LVU148
	add	r5, r5, #2048
	cmp	r0, r5
	beq	.L25
	.loc 1 7432 7 discriminator 2 view .LVU149
	add	r5, r5, #3072
	cmp	r0, r5
	beq	.L26
	.loc 1 7432 7 discriminator 3 view .LVU150
	add	r5, r5, #1024
	cmp	r0, r5
	beq	.L26
	.loc 1 7432 7 discriminator 4 view .LVU151
	add	r5, r5, #1024
	cmp	r0, r5
	bne	.L27
	b	.L26
.L25:
	.loc 1 7422 5 is_stmt 1 view .LVU152
	.loc 1 7425 5 view .LVU153
	.loc 1 7427 40 is_stmt 0 view .LVU154
	ldr	r5, [r1, #12]
	.loc 1 7425 13 view .LVU155
	bic	r3, r3, #32768
.LVL41:
	.loc 1 7427 5 is_stmt 1 view .LVU156
	.loc 1 7427 13 is_stmt 0 view .LVU157
	orr	r3, r3, r5, lsl #12
.LVL42:
	.loc 1 7429 5 is_stmt 1 view .LVU158
	.loc 1 7429 13 is_stmt 0 view .LVU159
	bic	r3, r3, #16384
.LVL43:
	.loc 1 7432 3 is_stmt 1 view .LVU160
.L26:
	.loc 1 7435 5 view .LVU161
	.loc 1 7436 5 view .LVU162
	.loc 1 7439 5 view .LVU163
	.loc 1 7441 5 view .LVU164
	.loc 1 7446 12 is_stmt 0 view .LVU165
	ldrd	r6, r5, [r1, #20]
	.loc 1 7441 12 view .LVU166
	bic	r4, r4, #49152
.LVL44:
	.loc 1 7444 5 is_stmt 1 view .LVU167
	.loc 1 7446 5 view .LVU168
	.loc 1 7446 12 is_stmt 0 view .LVU169
	orr	ip, r6, r5
	orr	r4, r4, ip, lsl #6
.LVL45:
.L27:
	.loc 1 7450 3 is_stmt 1 view .LVU170
	.loc 1 7456 25 is_stmt 0 view .LVU171
	ldr	r1, [r1, #4]
.LVL46:
	.loc 1 7450 13 view .LVU172
	str	r4, [r0, #4]
	.loc 1 7453 3 is_stmt 1 view .LVU173
	.loc 1 7453 15 is_stmt 0 view .LVU174
	str	r2, [r0, #28]
	.loc 1 7456 3 is_stmt 1 view .LVU175
	.loc 1 7460 1 is_stmt 0 view .LVU176
	pop	{r4, r5, r6}
.LCFI5:
	.cfi_restore 6
	.cfi_restore 5
	.cfi_restore 4
	.cfi_def_cfa_offset 0
.LVL47:
	.loc 1 7456 14 view .LVU177
	str	r1, [r0, #64]
	.loc 1 7459 3 is_stmt 1 view .LVU178
	.loc 1 7459 14 is_stmt 0 view .LVU179
	str	r3, [r0, #32]
	.loc 1 7460 1 view .LVU180
	bx	lr
.L31:
	.align	2
.L30:
	.word	1073818624
	.cfi_endproc
.LFE240:
	.size	TIM_OC4_SetConfig, .-TIM_OC4_SetConfig
	.section	.text.HAL_TIM_Base_MspInit,"ax",%progbits
	.align	1
	.p2align 2,,3
	.weak	HAL_TIM_Base_MspInit
	.syntax unified
	.thumb
	.thumb_func
	.fpu fpv4-sp-d16
	.type	HAL_TIM_Base_MspInit, %function
HAL_TIM_Base_MspInit:
.LVL48:
.LFB134:
	.loc 1 385 1 is_stmt 1 view -0
	.cfi_startproc
	@ args = 0, pretend = 0, frame = 0
	@ frame_needed = 0, uses_anonymous_args = 0
	@ link register save eliminated.
	.loc 1 387 3 view .LVU182
	.loc 1 392 1 is_stmt 0 view .LVU183
	bx	lr
	.cfi_endproc
.LFE134:
	.size	HAL_TIM_Base_MspInit, .-HAL_TIM_Base_MspInit
	.section	.text.HAL_TIM_Base_Init,"ax",%progbits
	.align	1
	.p2align 2,,3
	.global	HAL_TIM_Base_Init
	.syntax unified
	.thumb
	.thumb_func
	.fpu fpv4-sp-d16
	.type	HAL_TIM_Base_Init, %function
HAL_TIM_Base_Init:
.LVL49:
.LFB132:
	.loc 1 282 1 is_stmt 1 view -0
	.cfi_startproc
	@ args = 0, pretend = 0, frame = 0
	@ frame_needed = 0, uses_anonymous_args = 0
	.loc 1 284 3 view .LVU185
	.loc 1 284 6 is_stmt 0 view .LVU186
	cmp	r0, #0
	beq	.L49
	.loc 1 290 3 is_stmt 1 view .LVU187
	.loc 1 291 3 view .LVU188
	.loc 1 292 3 view .LVU189
	.loc 1 293 3 view .LVU190
	.loc 1 294 3 view .LVU191
	.loc 1 296 3 view .LVU192
	.loc 1 282 1 is_stmt 0 view .LVU193
	push	{r4, lr}
.LCFI6:
	.cfi_def_cfa_offset 8
	.cfi_offset 4, -8
	.cfi_offset 14, -4
	.loc 1 296 11 view .LVU194
	ldrb	r3, [r0, #61]	@ zero_extendqisi2
	mov	r4, r0
	.loc 1 296 6 view .LVU195
	and	r2, r3, #255
	cmp	r3, #0
	beq	.L60
.LVL50:
.L35:
	.loc 1 318 3 is_stmt 1 view .LVU196
	.loc 1 321 3 is_stmt 0 view .LVU197
	ldr	r3, [r4]
.LBB138:
.LBB139:
	.loc 1 7114 6 view .LVU198
	ldr	r1, .L61
.LBE139:
.LBE138:
	.loc 1 318 15 view .LVU199
	movs	r2, #2
	strb	r2, [r4, #61]
	.loc 1 321 3 is_stmt 1 view .LVU200
.LVL51:
.LBB143:
.LBI138:
	.loc 1 7108 6 view .LVU201
.LBB140:
	.loc 1 7110 3 view .LVU202
	.loc 1 7111 3 view .LVU203
	.loc 1 7114 6 is_stmt 0 view .LVU204
	cmp	r3, r1
	.loc 1 7111 10 view .LVU205
	ldr	r2, [r3]
.LVL52:
	.loc 1 7114 3 is_stmt 1 view .LVU206
	.loc 1 7114 6 is_stmt 0 view .LVU207
	beq	.L40
	.loc 1 7114 7 view .LVU208
	cmp	r3, #1073741824
	beq	.L37
	sub	r1, r1, #75776
	cmp	r3, r1
	beq	.L37
	add	r1, r1, #1024
	cmp	r3, r1
	beq	.L37
	add	r1, r1, #76800
	cmp	r3, r1
	beq	.L40
	.loc 1 7121 7 view .LVU209
	add	r1, r1, #3072
	cmp	r3, r1
	beq	.L41
	add	r1, r1, #1024
	cmp	r3, r1
	beq	.L41
	add	r1, r1, #1024
	cmp	r3, r1
	beq	.L41
	.loc 1 7129 3 is_stmt 1 view .LVU210
	ldr	r0, [r4, #24]
	.loc 1 7134 34 is_stmt 0 view .LVU211
	ldr	r1, [r4, #12]
	.loc 1 7129 3 view .LVU212
	bic	r2, r2, #128
.LVL53:
	.loc 1 7129 3 view .LVU213
	orrs	r2, r2, r0
.LVL54:
	.loc 1 7131 3 is_stmt 1 view .LVU214
	.loc 1 7131 13 is_stmt 0 view .LVU215
	str	r2, [r3]
	.loc 1 7134 3 is_stmt 1 view .LVU216
	.loc 1 7137 24 is_stmt 0 view .LVU217
	ldr	r2, [r4, #4]
.LVL55:
	.loc 1 7134 13 view .LVU218
	str	r1, [r3, #44]
.LVL56:
	.loc 1 7137 3 is_stmt 1 view .LVU219
	.loc 1 7137 13 is_stmt 0 view .LVU220
	str	r2, [r3, #40]
	.loc 1 7139 3 is_stmt 1 view .LVU221
	.loc 1 7139 3 is_stmt 0 view .LVU222
	b	.L46
.LVL57:
.L37:
	.loc 1 7117 5 is_stmt 1 view .LVU223
	.loc 1 7118 12 is_stmt 0 view .LVU224
	ldr	r1, [r4, #8]
	.loc 1 7125 12 view .LVU225
	ldr	r0, [r4, #16]
	.loc 1 7117 12 view .LVU226
	bic	r2, r2, #112
.LVL58:
	.loc 1 7118 5 is_stmt 1 view .LVU227
	.loc 1 7118 12 is_stmt 0 view .LVU228
	orrs	r2, r2, r1
.LVL59:
	.loc 1 7121 3 is_stmt 1 view .LVU229
	.loc 1 7124 5 view .LVU230
	.loc 1 7124 12 is_stmt 0 view .LVU231
	bic	r2, r2, #768
.LVL60:
	.loc 1 7125 5 is_stmt 1 view .LVU232
	.loc 1 7129 3 view .LVU233
	ldr	r1, [r4, #24]
	.loc 1 7125 12 is_stmt 0 view .LVU234
	orrs	r2, r2, r0
.LVL61:
	.loc 1 7129 3 view .LVU235
	bic	r2, r2, #128
.LVL62:
	.loc 1 7134 34 view .LVU236
	ldr	r0, [r4, #12]
	.loc 1 7129 3 view .LVU237
	orrs	r2, r2, r1
.LVL63:
	.loc 1 7131 3 is_stmt 1 view .LVU238
	.loc 1 7137 24 is_stmt 0 view .LVU239
	ldr	r1, [r4, #4]
	.loc 1 7131 13 view .LVU240
	str	r2, [r3]
	.loc 1 7134 3 is_stmt 1 view .LVU241
	.loc 1 7134 13 is_stmt 0 view .LVU242
	str	r0, [r3, #44]
	.loc 1 7137 3 is_stmt 1 view .LVU243
	.loc 1 7137 13 is_stmt 0 view .LVU244
	str	r1, [r3, #40]
	.loc 1 7139 3 is_stmt 1 view .LVU245
.LVL64:
.L46:
	.loc 1 7147 3 view .LVU246
	.loc 1 7147 13 is_stmt 0 view .LVU247
	movs	r2, #1
	str	r2, [r3, #20]
	.loc 1 7150 3 is_stmt 1 view .LVU248
	.loc 1 7150 7 is_stmt 0 view .LVU249
	ldr	r2, [r3, #16]
	.loc 1 7150 6 view .LVU250
	lsls	r2, r2, #31
	bpl	.L45
	.loc 1 7153 5 is_stmt 1 view .LVU251
	ldr	r2, [r3, #16]
	bic	r2, r2, #1
	str	r2, [r3, #16]
.L45:
.LVL65:
	.loc 1 7153 5 is_stmt 0 view .LVU252
.LBE140:
.LBE143:
	.loc 1 324 3 is_stmt 1 view .LVU253
	.loc 1 324 23 is_stmt 0 view .LVU254
	movs	r3, #1
	strb	r3, [r4, #72]
	.loc 1 327 3 is_stmt 1 view .LVU255
	.loc 1 327 3 view .LVU256
	strb	r3, [r4, #62]
	.loc 1 327 3 view .LVU257
	strb	r3, [r4, #63]
	.loc 1 327 3 view .LVU258
	strb	r3, [r4, #64]
	.loc 1 327 3 view .LVU259
	strb	r3, [r4, #65]
	.loc 1 327 3 view .LVU260
	strb	r3, [r4, #66]
	.loc 1 327 3 view .LVU261
	strb	r3, [r4, #67]
	.loc 1 327 3 view .LVU262
	.loc 1 328 3 view .LVU263
	.loc 1 328 3 view .LVU264
	strb	r3, [r4, #68]
	.loc 1 328 3 view .LVU265
	strb	r3, [r4, #69]
	.loc 1 328 3 view .LVU266
	strb	r3, [r4, #70]
	.loc 1 328 3 view .LVU267
	strb	r3, [r4, #71]
	.loc 1 328 3 view .LVU268
	.loc 1 331 3 view .LVU269
	.loc 1 331 15 is_stmt 0 view .LVU270
	strb	r3, [r4, #61]
	.loc 1 333 3 is_stmt 1 view .LVU271
	.loc 1 333 10 is_stmt 0 view .LVU272
	movs	r0, #0
	.loc 1 334 1 view .LVU273
	pop	{r4, pc}
.LVL66:
.L40:
.LBB144:
.LBB141:
	.loc 1 7117 5 is_stmt 1 view .LVU274
	.loc 1 7118 12 is_stmt 0 view .LVU275
	ldr	r0, [r4, #8]
	.loc 1 7125 12 view .LVU276
	ldr	r1, [r4, #16]
	.loc 1 7117 12 view .LVU277
	bic	r2, r2, #112
.LVL67:
	.loc 1 7118 5 is_stmt 1 view .LVU278
	.loc 1 7118 12 is_stmt 0 view .LVU279
	orrs	r2, r2, r0
.LVL68:
	.loc 1 7121 3 is_stmt 1 view .LVU280
	.loc 1 7124 5 view .LVU281
	.loc 1 7124 12 is_stmt 0 view .LVU282
	bic	r2, r2, #768
.LVL69:
	.loc 1 7125 5 is_stmt 1 view .LVU283
	.loc 1 7129 3 view .LVU284
	.loc 1 7125 12 is_stmt 0 view .LVU285
	orrs	r2, r2, r1
.LVL70:
	.loc 1 7129 3 view .LVU286
	ldr	r1, [r4, #24]
.L59:
	.loc 1 7129 3 view .LVU287
	bic	r2, r2, #128
.LVL71:
	.loc 1 7129 3 view .LVU288
	orrs	r2, r2, r1
.LVL72:
	.loc 1 7131 3 is_stmt 1 view .LVU289
	.loc 1 7131 13 is_stmt 0 view .LVU290
	str	r2, [r3]
	.loc 1 7134 3 is_stmt 1 view .LVU291
	.loc 1 7134 34 is_stmt 0 view .LVU292
	ldr	r2, [r4, #12]
.LVL73:
	.loc 1 7134 13 view .LVU293
	str	r2, [r3, #44]
.LVL74:
	.loc 1 7137 3 is_stmt 1 view .LVU294
	.loc 1 7137 24 is_stmt 0 view .LVU295
	ldr	r2, [r4, #4]
	.loc 1 7137 13 view .LVU296
	str	r2, [r3, #40]
	.loc 1 7139 3 is_stmt 1 view .LVU297
	.loc 1 7142 5 view .LVU298
	.loc 1 7142 26 is_stmt 0 view .LVU299
	ldr	r2, [r4, #20]
	.loc 1 7142 15 view .LVU300
	str	r2, [r3, #48]
	b	.L46
.LVL75:
.L60:
	.loc 1 7142 15 view .LVU301
.LBE141:
.LBE144:
	.loc 1 299 5 is_stmt 1 view .LVU302
	.loc 1 299 16 is_stmt 0 view .LVU303
	strb	r2, [r0, #60]
	.loc 1 313 5 is_stmt 1 view .LVU304
	bl	HAL_TIM_Base_MspInit
.LVL76:
	.loc 1 313 5 is_stmt 0 view .LVU305
	b	.L35
.LVL77:
.L41:
.LBB145:
.LBB142:
	.loc 1 7124 5 is_stmt 1 view .LVU306
	.loc 1 7125 12 is_stmt 0 view .LVU307
	ldr	r0, [r4, #16]
	.loc 1 7129 3 view .LVU308
	ldr	r1, [r4, #24]
	.loc 1 7124 12 view .LVU309
	bic	r2, r2, #768
.LVL78:
	.loc 1 7125 5 is_stmt 1 view .LVU310
	.loc 1 7129 3 view .LVU311
	.loc 1 7125 12 is_stmt 0 view .LVU312
	orrs	r2, r2, r0
.LVL79:
	.loc 1 7125 12 view .LVU313
	b	.L59
.LVL80:
.L49:
.LCFI7:
	.cfi_def_cfa_offset 0
	.cfi_restore 4
	.cfi_restore 14
	.loc 1 7125 12 view .LVU314
.LBE142:
.LBE145:
	.loc 1 286 12 view .LVU315
	movs	r0, #1
.LVL81:
	.loc 1 334 1 view .LVU316
	bx	lr
.L62:
	.align	2
.L61:
	.word	1073818624
	.cfi_endproc
.LFE132:
	.size	HAL_TIM_Base_Init, .-HAL_TIM_Base_Init
	.section	.text.HAL_TIM_Base_MspDeInit,"ax",%progbits
	.align	1
	.p2align 2,,3
	.weak	HAL_TIM_Base_MspDeInit
	.syntax unified
	.thumb
	.thumb_func
	.fpu fpv4-sp-d16
	.type	HAL_TIM_Base_MspDeInit, %function
HAL_TIM_Base_MspDeInit:
.LFB254:
	.cfi_startproc
	@ args = 0, pretend = 0, frame = 0
	@ frame_needed = 0, uses_anonymous_args = 0
	@ link register save eliminated.
	bx	lr
	.cfi_endproc
.LFE254:
	.size	HAL_TIM_Base_MspDeInit, .-HAL_TIM_Base_MspDeInit
	.section	.text.HAL_TIM_Base_DeInit,"ax",%progbits
	.align	1
	.p2align 2,,3
	.global	HAL_TIM_Base_DeInit
	.syntax unified
	.thumb
	.thumb_func
	.fpu fpv4-sp-d16
	.type	HAL_TIM_Base_DeInit, %function
HAL_TIM_Base_DeInit:
.LVL82:
.LFB133:
	.loc 1 342 1 is_stmt 1 view -0
	.cfi_startproc
	@ args = 0, pretend = 0, frame = 0
	@ frame_needed = 0, uses_anonymous_args = 0
	.loc 1 344 3 view .LVU318
	.loc 1 346 3 view .LVU319
	.loc 1 346 15 is_stmt 0 view .LVU320
	movs	r2, #2
	.loc 1 349 3 view .LVU321
	ldr	r3, [r0]
	.loc 1 342 1 view .LVU322
	push	{r4, lr}
.LCFI8:
	.cfi_def_cfa_offset 8
	.cfi_offset 4, -8
	.cfi_offset 14, -4
	.loc 1 346 15 view .LVU323
	strb	r2, [r0, #61]
	.loc 1 349 3 is_stmt 1 view .LVU324
	.loc 1 349 3 view .LVU325
	ldr	r1, [r3, #32]
	movw	r2, #4369
	tst	r1, r2
	.loc 1 342 1 is_stmt 0 view .LVU326
	mov	r4, r0
	.loc 1 349 3 view .LVU327
	bne	.L65
	.loc 1 349 3 is_stmt 1 discriminator 1 view .LVU328
	ldr	r1, [r3, #32]
	movw	r2, #17476
	tst	r1, r2
	bne	.L65
	.loc 1 349 3 discriminator 3 view .LVU329
	ldr	r2, [r3]
	bic	r2, r2, #1
	str	r2, [r3]
.L65:
	.loc 1 349 3 discriminator 5 view .LVU330
	.loc 1 360 3 discriminator 5 view .LVU331
	mov	r0, r4
.LVL83:
	.loc 1 360 3 is_stmt 0 discriminator 5 view .LVU332
	bl	HAL_TIM_Base_MspDeInit
.LVL84:
	.loc 1 364 3 is_stmt 1 discriminator 5 view .LVU333
	.loc 1 364 23 is_stmt 0 discriminator 5 view .LVU334
	movs	r0, #0
	strb	r0, [r4, #72]
	.loc 1 367 3 is_stmt 1 discriminator 5 view .LVU335
	.loc 1 367 3 discriminator 5 view .LVU336
	.loc 1 374 3 is_stmt 0 discriminator 5 view .LVU337
	strb	r0, [r4, #60]
	.loc 1 367 3 discriminator 5 view .LVU338
	strb	r0, [r4, #62]
	.loc 1 367 3 is_stmt 1 discriminator 5 view .LVU339
	strb	r0, [r4, #63]
	.loc 1 367 3 discriminator 5 view .LVU340
	strb	r0, [r4, #64]
	.loc 1 367 3 discriminator 5 view .LVU341
	strb	r0, [r4, #65]
	.loc 1 367 3 discriminator 5 view .LVU342
	strb	r0, [r4, #66]
	.loc 1 367 3 discriminator 5 view .LVU343
	strb	r0, [r4, #67]
	.loc 1 367 3 discriminator 5 view .LVU344
	.loc 1 368 3 discriminator 5 view .LVU345
	.loc 1 368 3 discriminator 5 view .LVU346
	strb	r0, [r4, #68]
	.loc 1 368 3 discriminator 5 view .LVU347
	strb	r0, [r4, #69]
	.loc 1 368 3 discriminator 5 view .LVU348
	strb	r0, [r4, #70]
	.loc 1 368 3 discriminator 5 view .LVU349
	strb	r0, [r4, #71]
	.loc 1 368 3 discriminator 5 view .LVU350
	.loc 1 371 3 discriminator 5 view .LVU351
	.loc 1 371 15 is_stmt 0 discriminator 5 view .LVU352
	strb	r0, [r4, #61]
	.loc 1 374 3 is_stmt 1 discriminator 5 view .LVU353
	.loc 1 374 3 discriminator 5 view .LVU354
	.loc 1 374 3 discriminator 5 view .LVU355
	.loc 1 376 3 discriminator 5 view .LVU356
	.loc 1 377 1 is_stmt 0 discriminator 5 view .LVU357
	pop	{r4, pc}
	.loc 1 377 1 discriminator 5 view .LVU358
	.cfi_endproc
.LFE133:
	.size	HAL_TIM_Base_DeInit, .-HAL_TIM_Base_DeInit
	.section	.text.HAL_TIM_Base_Start,"ax",%progbits
	.align	1
	.p2align 2,,3
	.global	HAL_TIM_Base_Start
	.syntax unified
	.thumb
	.thumb_func
	.fpu fpv4-sp-d16
	.type	HAL_TIM_Base_Start, %function
HAL_TIM_Base_Start:
.LVL85:
.LFB136:
	.loc 1 416 1 is_stmt 1 view -0
	.cfi_startproc
	@ args = 0, pretend = 0, frame = 0
	@ frame_needed = 0, uses_anonymous_args = 0
	@ link register save eliminated.
	.loc 1 417 3 view .LVU360
	.loc 1 420 3 view .LVU361
	.loc 1 423 3 view .LVU362
	.loc 1 423 11 is_stmt 0 view .LVU363
	ldrb	r3, [r0, #61]	@ zero_extendqisi2
	.loc 1 423 6 view .LVU364
	cmp	r3, #1
	bne	.L71
	.loc 1 429 3 is_stmt 1 view .LVU365
	.loc 1 432 7 is_stmt 0 view .LVU366
	ldr	r3, [r0]
	.loc 1 432 6 view .LVU367
	ldr	r2, .L77
	.loc 1 429 15 view .LVU368
	movs	r1, #2
	.loc 1 432 6 view .LVU369
	cmp	r3, r2
	.loc 1 429 15 view .LVU370
	strb	r1, [r0, #61]
	.loc 1 432 3 is_stmt 1 view .LVU371
	.loc 1 432 6 is_stmt 0 view .LVU372
	beq	.L69
	.loc 1 432 7 discriminator 1 view .LVU373
	cmp	r3, #1073741824
	beq	.L69
	.loc 1 432 7 discriminator 2 view .LVU374
	sub	r2, r2, #75776
	cmp	r3, r2
	beq	.L69
	.loc 1 432 7 discriminator 3 view .LVU375
	add	r2, r2, #1024
	cmp	r3, r2
	beq	.L69
	.loc 1 432 7 discriminator 4 view .LVU376
	add	r2, r2, #76800
	cmp	r3, r2
	beq	.L69
	.loc 1 432 7 discriminator 5 view .LVU377
	add	r2, r2, #3072
	cmp	r3, r2
	beq	.L69
.L70:
	.loc 1 442 5 is_stmt 1 view .LVU378
	ldr	r2, [r3]
	orr	r2, r2, #1
	.loc 1 446 10 is_stmt 0 view .LVU379
	movs	r0, #0
.LVL86:
	.loc 1 442 5 view .LVU380
	str	r2, [r3]
	bx	lr
.LVL87:
.L71:
	.loc 1 425 12 view .LVU381
	movs	r0, #1
.LVL88:
	.loc 1 425 12 view .LVU382
	bx	lr
.LVL89:
.L69:
	.loc 1 434 5 is_stmt 1 view .LVU383
	.loc 1 434 29 is_stmt 0 view .LVU384
	ldr	r1, [r3, #8]
	.loc 1 434 13 view .LVU385
	ldr	r2, .L77+4
	ands	r2, r2, r1
.LVL90:
	.loc 1 435 5 is_stmt 1 view .LVU386
	.loc 1 435 8 is_stmt 0 view .LVU387
	cmp	r2, #6
	beq	.L73
	.loc 1 435 9 discriminator 1 view .LVU388
	cmp	r2, #65536
	bne	.L70
.L73:
	.loc 1 446 10 view .LVU389
	movs	r0, #0
.LVL91:
	.loc 1 447 1 view .LVU390
	bx	lr
.L78:
	.align	2
.L77:
	.word	1073818624
	.word	65543
	.cfi_endproc
.LFE136:
	.size	HAL_TIM_Base_Start, .-HAL_TIM_Base_Start
	.section	.text.HAL_TIM_Base_Stop,"ax",%progbits
	.align	1
	.p2align 2,,3
	.global	HAL_TIM_Base_Stop
	.syntax unified
	.thumb
	.thumb_func
	.fpu fpv4-sp-d16
	.type	HAL_TIM_Base_Stop, %function
HAL_TIM_Base_Stop:
.LVL92:
.LFB137:
	.loc 1 455 1 is_stmt 1 view -0
	.cfi_startproc
	@ args = 0, pretend = 0, frame = 0
	@ frame_needed = 0, uses_anonymous_args = 0
	@ link register save eliminated.
	.loc 1 457 3 view .LVU392
	.loc 1 460 3 view .LVU393
	.loc 1 460 3 view .LVU394
	ldr	r3, [r0]
	ldr	r1, [r3, #32]
	movw	r2, #4369
	tst	r1, r2
	bne	.L80
	.loc 1 460 3 discriminator 1 view .LVU395
	ldr	r1, [r3, #32]
	movw	r2, #17476
	tst	r1, r2
	bne	.L80
	.loc 1 460 3 discriminator 3 view .LVU396
	ldr	r2, [r3]
	bic	r2, r2, #1
	str	r2, [r3]
.L80:
	.loc 1 460 3 discriminator 5 view .LVU397
	.loc 1 463 3 discriminator 5 view .LVU398
	.loc 1 463 15 is_stmt 0 discriminator 5 view .LVU399
	movs	r3, #1
	strb	r3, [r0, #61]
	.loc 1 466 3 is_stmt 1 discriminator 5 view .LVU400
	.loc 1 467 1 is_stmt 0 discriminator 5 view .LVU401
	movs	r0, #0
.LVL93:
	.loc 1 467 1 discriminator 5 view .LVU402
	bx	lr
	.cfi_endproc
.LFE137:
	.size	HAL_TIM_Base_Stop, .-HAL_TIM_Base_Stop
	.section	.text.HAL_TIM_Base_Start_IT,"ax",%progbits
	.align	1
	.p2align 2,,3
	.global	HAL_TIM_Base_Start_IT
	.syntax unified
	.thumb
	.thumb_func
	.fpu fpv4-sp-d16
	.type	HAL_TIM_Base_Start_IT, %function
HAL_TIM_Base_Start_IT:
.LVL94:
.LFB138:
	.loc 1 475 1 is_stmt 1 view -0
	.cfi_startproc
	@ args = 0, pretend = 0, frame = 0
	@ frame_needed = 0, uses_anonymous_args = 0
	@ link register save eliminated.
	.loc 1 476 3 view .LVU404
	.loc 1 479 3 view .LVU405
	.loc 1 482 3 view .LVU406
	.loc 1 482 11 is_stmt 0 view .LVU407
	ldrb	r3, [r0, #61]	@ zero_extendqisi2
	.loc 1 482 6 view .LVU408
	cmp	r3, #1
	bne	.L85
	.loc 1 488 3 is_stmt 1 view .LVU409
	.loc 1 491 3 is_stmt 0 view .LVU410
	ldr	r3, [r0]
	.loc 1 494 6 view .LVU411
	ldr	r1, .L91
	.loc 1 488 15 view .LVU412
	movs	r2, #2
	strb	r2, [r0, #61]
	.loc 1 491 3 is_stmt 1 view .LVU413
	ldr	r2, [r3, #12]
	.loc 1 494 6 is_stmt 0 view .LVU414
	cmp	r3, r1
	.loc 1 491 3 view .LVU415
	orr	r2, r2, #1
	str	r2, [r3, #12]
	.loc 1 494 3 is_stmt 1 view .LVU416
	.loc 1 494 6 is_stmt 0 view .LVU417
	beq	.L83
	.loc 1 494 7 discriminator 1 view .LVU418
	cmp	r3, #1073741824
	beq	.L83
	.loc 1 494 7 discriminator 2 view .LVU419
	ldr	r2, .L91+4
	cmp	r3, r2
	beq	.L83
	.loc 1 494 7 discriminator 3 view .LVU420
	add	r2, r2, #1024
	cmp	r3, r2
	beq	.L83
	.loc 1 494 7 discriminator 4 view .LVU421
	add	r2, r2, #76800
	cmp	r3, r2
	beq	.L83
	.loc 1 494 7 discriminator 5 view .LVU422
	add	r2, r2, #3072
	cmp	r3, r2
	beq	.L83
.L84:
	.loc 1 504 5 is_stmt 1 view .LVU423
	ldr	r2, [r3]
	orr	r2, r2, #1
	.loc 1 508 10 is_stmt 0 view .LVU424
	movs	r0, #0
.LVL95:
	.loc 1 504 5 view .LVU425
	str	r2, [r3]
	bx	lr
.LVL96:
.L85:
	.loc 1 484 12 view .LVU426
	movs	r0, #1
.LVL97:
	.loc 1 484 12 view .LVU427
	bx	lr
.LVL98:
.L83:
	.loc 1 496 5 is_stmt 1 view .LVU428
	.loc 1 496 29 is_stmt 0 view .LVU429
	ldr	r1, [r3, #8]
	.loc 1 496 13 view .LVU430
	ldr	r2, .L91+8
	ands	r2, r2, r1
.LVL99:
	.loc 1 497 5 is_stmt 1 view .LVU431
	.loc 1 497 8 is_stmt 0 view .LVU432
	cmp	r2, #6
	beq	.L87
	.loc 1 497 9 discriminator 1 view .LVU433
	cmp	r2, #65536
	bne	.L84
.L87:
	.loc 1 508 10 view .LVU434
	movs	r0, #0
.LVL100:
	.loc 1 509 1 view .LVU435
	bx	lr
.L92:
	.align	2
.L91:
	.word	1073818624
	.word	1073742848
	.word	65543
	.cfi_endproc
.LFE138:
	.size	HAL_TIM_Base_Start_IT, .-HAL_TIM_Base_Start_IT
	.section	.text.HAL_TIM_Base_Stop_IT,"ax",%progbits
	.align	1
	.p2align 2,,3
	.global	HAL_TIM_Base_Stop_IT
	.syntax unified
	.thumb
	.thumb_func
	.fpu fpv4-sp-d16
	.type	HAL_TIM_Base_Stop_IT, %function
HAL_TIM_Base_Stop_IT:
.LVL101:
.LFB139:
	.loc 1 517 1 is_stmt 1 view -0
	.cfi_startproc
	@ args = 0, pretend = 0, frame = 0
	@ frame_needed = 0, uses_anonymous_args = 0
	@ link register save eliminated.
	.loc 1 519 3 view .LVU437
	.loc 1 522 3 view .LVU438
	ldr	r3, [r0]
	ldr	r2, [r3, #12]
	bic	r2, r2, #1
	str	r2, [r3, #12]
	.loc 1 525 3 view .LVU439
	.loc 1 525 3 view .LVU440
	ldr	r2, [r3, #32]
	movw	r1, #4369
	tst	r2, r1
	bne	.L94
	.loc 1 525 3 discriminator 1 view .LVU441
	ldr	r1, [r3, #32]
	movw	r2, #17476
	tst	r1, r2
	bne	.L94
	.loc 1 525 3 discriminator 3 view .LVU442
	ldr	r2, [r3]
	bic	r2, r2, #1
	str	r2, [r3]
.L94:
	.loc 1 525 3 discriminator 5 view .LVU443
	.loc 1 528 3 discriminator 5 view .LVU444
	.loc 1 528 15 is_stmt 0 discriminator 5 view .LVU445
	movs	r3, #1
	strb	r3, [r0, #61]
	.loc 1 531 3 is_stmt 1 discriminator 5 view .LVU446
	.loc 1 532 1 is_stmt 0 discriminator 5 view .LVU447
	movs	r0, #0
.LVL102:
	.loc 1 532 1 discriminator 5 view .LVU448
	bx	lr
	.cfi_endproc
.LFE139:
	.size	HAL_TIM_Base_Stop_IT, .-HAL_TIM_Base_Stop_IT
	.section	.text.HAL_TIM_Base_Start_DMA,"ax",%progbits
	.align	1
	.p2align 2,,3
	.global	HAL_TIM_Base_Start_DMA
	.syntax unified
	.thumb
	.thumb_func
	.fpu fpv4-sp-d16
	.type	HAL_TIM_Base_Start_DMA, %function
HAL_TIM_Base_Start_DMA:
.LVL103:
.LFB140:
	.loc 1 542 1 is_stmt 1 view -0
	.cfi_startproc
	@ args = 0, pretend = 0, frame = 0
	@ frame_needed = 0, uses_anonymous_args = 0
	.loc 1 543 3 view .LVU450
	.loc 1 546 3 view .LVU451
	.loc 1 549 3 view .LVU452
	.loc 1 542 1 is_stmt 0 view .LVU453
	push	{r3, r4, r5, lr}
.LCFI9:
	.cfi_def_cfa_offset 16
	.cfi_offset 3, -16
	.cfi_offset 4, -12
	.cfi_offset 5, -8
	.cfi_offset 14, -4
	.loc 1 549 11 view .LVU454
	ldrb	ip, [r0, #61]	@ zero_extendqisi2
	.loc 1 549 6 view .LVU455
	cmp	ip, #2
	.loc 1 542 1 view .LVU456
	mov	r4, r0
	.loc 1 549 11 view .LVU457
	uxtb	r0, ip
.LVL104:
	.loc 1 549 6 view .LVU458
	beq	.L96
	.loc 1 553 8 is_stmt 1 view .LVU459
	.loc 1 553 16 is_stmt 0 view .LVU460
	ldrb	r0, [r4, #61]	@ zero_extendqisi2
	.loc 1 553 11 view .LVU461
	cmp	r0, #1
	bne	.L98
	.loc 1 555 5 is_stmt 1 view .LVU462
	.loc 1 555 8 is_stmt 0 view .LVU463
	cbz	r1, .L98
	.loc 1 555 25 discriminator 1 view .LVU464
	cbnz	r2, .L120
.LVL105:
.L98:
	.loc 1 566 12 view .LVU465
	movs	r0, #1
.L96:
	.loc 1 603 1 view .LVU466
	pop	{r3, r4, r5, pc}
.LVL106:
.L120:
	.loc 1 561 7 is_stmt 1 view .LVU467
	.loc 1 570 13 is_stmt 0 view .LVU468
	ldr	r0, [r4, #32]
	.loc 1 570 51 view .LVU469
	ldr	r5, .L121
	.loc 1 561 19 view .LVU470
	movs	r3, #2
	strb	r3, [r4, #61]
	.loc 1 570 3 is_stmt 1 view .LVU471
	.loc 1 577 7 is_stmt 0 view .LVU472
	mov	r3, r2
	.loc 1 571 55 view .LVU473
	ldr	r2, .L121+4
.LVL107:
	.loc 1 571 55 view .LVU474
	str	r2, [r0, #48]
	.loc 1 574 52 view .LVU475
	ldr	r2, .L121+8
	str	r2, [r0, #52]
	.loc 1 577 82 view .LVU476
	ldr	r2, [r4]
	.loc 1 570 51 view .LVU477
	str	r5, [r0, #44]
	.loc 1 571 3 is_stmt 1 view .LVU478
	.loc 1 574 3 view .LVU479
	.loc 1 577 3 view .LVU480
	.loc 1 577 7 is_stmt 0 view .LVU481
	adds	r2, r2, #44
	bl	HAL_DMA_Start_IT
.LVL108:
	.loc 1 577 6 view .LVU482
	cmp	r0, #0
	bne	.L98
	.loc 1 585 3 is_stmt 1 view .LVU483
	ldr	r3, [r4]
	.loc 1 588 6 is_stmt 0 view .LVU484
	ldr	r1, .L121+12
	.loc 1 585 3 view .LVU485
	ldr	r2, [r3, #12]
	.loc 1 588 6 view .LVU486
	cmp	r3, r1
	.loc 1 585 3 view .LVU487
	orr	r2, r2, #256
	str	r2, [r3, #12]
	.loc 1 588 3 is_stmt 1 view .LVU488
	.loc 1 588 6 is_stmt 0 view .LVU489
	beq	.L99
	.loc 1 588 7 discriminator 1 view .LVU490
	cmp	r3, #1073741824
	beq	.L99
	.loc 1 588 7 discriminator 2 view .LVU491
	ldr	r2, .L121+16
	cmp	r3, r2
	beq	.L99
	.loc 1 588 7 discriminator 3 view .LVU492
	add	r2, r2, #1024
	cmp	r3, r2
	beq	.L99
	.loc 1 588 7 discriminator 4 view .LVU493
	add	r2, r2, #76800
	cmp	r3, r2
	beq	.L99
	.loc 1 588 7 discriminator 5 view .LVU494
	add	r2, r2, #3072
	cmp	r3, r2
	beq	.L99
.L100:
	.loc 1 598 5 is_stmt 1 view .LVU495
	ldr	r2, [r3]
	orr	r2, r2, #1
	str	r2, [r3]
	.loc 1 603 1 is_stmt 0 view .LVU496
	pop	{r3, r4, r5, pc}
.LVL109:
.L99:
	.loc 1 590 5 is_stmt 1 view .LVU497
	.loc 1 590 29 is_stmt 0 view .LVU498
	ldr	r1, [r3, #8]
	.loc 1 590 13 view .LVU499
	ldr	r2, .L121+20
	ands	r2, r2, r1
.LVL110:
	.loc 1 591 5 is_stmt 1 view .LVU500
	.loc 1 591 8 is_stmt 0 view .LVU501
	cmp	r2, #6
	beq	.L96
	.loc 1 591 9 discriminator 1 view .LVU502
	cmp	r2, #65536
	bne	.L100
	b	.L96
.L122:
	.align	2
.L121:
	.word	TIM_DMAPeriodElapsedCplt
	.word	TIM_DMAPeriodElapsedHalfCplt
	.word	TIM_DMAError
	.word	1073818624
	.word	1073742848
	.word	65543
	.cfi_endproc
.LFE140:
	.size	HAL_TIM_Base_Start_DMA, .-HAL_TIM_Base_Start_DMA
	.section	.text.HAL_TIM_Base_Stop_DMA,"ax",%progbits
	.align	1
	.p2align 2,,3
	.global	HAL_TIM_Base_Stop_DMA
	.syntax unified
	.thumb
	.thumb_func
	.fpu fpv4-sp-d16
	.type	HAL_TIM_Base_Stop_DMA, %function
HAL_TIM_Base_Stop_DMA:
.LVL111:
.LFB141:
	.loc 1 611 1 is_stmt 1 view -0
	.cfi_startproc
	@ args = 0, pretend = 0, frame = 0
	@ frame_needed = 0, uses_anonymous_args = 0
	.loc 1 613 3 view .LVU504
	.loc 1 616 3 view .LVU505
	ldr	r2, [r0]
	ldr	r3, [r2, #12]
	.loc 1 611 1 is_stmt 0 view .LVU506
	push	{r4, lr}
.LCFI10:
	.cfi_def_cfa_offset 8
	.cfi_offset 4, -8
	.cfi_offset 14, -4
	.loc 1 616 3 view .LVU507
	bic	r3, r3, #256
	.loc 1 611 1 view .LVU508
	mov	r4, r0
	.loc 1 618 9 view .LVU509
	ldr	r0, [r0, #32]
.LVL112:
	.loc 1 616 3 view .LVU510
	str	r3, [r2, #12]
	.loc 1 618 3 is_stmt 1 view .LVU511
	.loc 1 618 9 is_stmt 0 view .LVU512
	bl	HAL_DMA_Abort_IT
.LVL113:
	.loc 1 621 3 is_stmt 1 view .LVU513
	.loc 1 621 3 view .LVU514
	ldr	r3, [r4]
	ldr	r1, [r3, #32]
	movw	r2, #4369
	tst	r1, r2
	bne	.L124
	.loc 1 621 3 discriminator 1 view .LVU515
	ldr	r1, [r3, #32]
	movw	r2, #17476
	tst	r1, r2
	bne	.L124
	.loc 1 621 3 discriminator 3 view .LVU516
	ldr	r2, [r3]
	bic	r2, r2, #1
	str	r2, [r3]
.L124:
	.loc 1 621 3 discriminator 5 view .LVU517
	.loc 1 624 3 discriminator 5 view .LVU518
	.loc 1 624 15 is_stmt 0 discriminator 5 view .LVU519
	movs	r3, #1
	strb	r3, [r4, #61]
	.loc 1 627 3 is_stmt 1 discriminator 5 view .LVU520
	.loc 1 628 1 is_stmt 0 discriminator 5 view .LVU521
	movs	r0, #0
	pop	{r4, pc}
	.loc 1 628 1 discriminator 5 view .LVU522
	.cfi_endproc
.LFE141:
	.size	HAL_TIM_Base_Stop_DMA, .-HAL_TIM_Base_Stop_DMA
	.section	.text.HAL_TIM_OC_MspInit,"ax",%progbits
	.align	1
	.p2align 2,,3
	.weak	HAL_TIM_OC_MspInit
	.syntax unified
	.thumb
	.thumb_func
	.fpu fpv4-sp-d16
	.type	HAL_TIM_OC_MspInit, %function
HAL_TIM_OC_MspInit:
.LFB256:
	.cfi_startproc
	@ args = 0, pretend = 0, frame = 0
	@ frame_needed = 0, uses_anonymous_args = 0
	@ link register save eliminated.
	bx	lr
	.cfi_endproc
.LFE256:
	.size	HAL_TIM_OC_MspInit, .-HAL_TIM_OC_MspInit
	.section	.text.HAL_TIM_OC_Init,"ax",%progbits
	.align	1
	.p2align 2,,3
	.global	HAL_TIM_OC_Init
	.syntax unified
	.thumb
	.thumb_func
	.fpu fpv4-sp-d16
	.type	HAL_TIM_OC_Init, %function
HAL_TIM_OC_Init:
.LVL114:
.LFB142:
	.loc 1 666 1 is_stmt 1 view -0
	.cfi_startproc
	@ args = 0, pretend = 0, frame = 0
	@ frame_needed = 0, uses_anonymous_args = 0
	.loc 1 668 3 view .LVU524
	.loc 1 668 6 is_stmt 0 view .LVU525
	cmp	r0, #0
	beq	.L143
	.loc 1 674 3 is_stmt 1 view .LVU526
	.loc 1 675 3 view .LVU527
	.loc 1 676 3 view .LVU528
	.loc 1 677 3 view .LVU529
	.loc 1 678 3 view .LVU530
	.loc 1 680 3 view .LVU531
	.loc 1 666 1 is_stmt 0 view .LVU532
	push	{r4, lr}
.LCFI11:
	.cfi_def_cfa_offset 8
	.cfi_offset 4, -8
	.cfi_offset 14, -4
	.loc 1 680 11 view .LVU533
	ldrb	r3, [r0, #61]	@ zero_extendqisi2
	mov	r4, r0
	.loc 1 680 6 view .LVU534
	and	r2, r3, #255
	cmp	r3, #0
	beq	.L154
.LVL115:
.L129:
	.loc 1 702 3 is_stmt 1 view .LVU535
	.loc 1 705 3 is_stmt 0 view .LVU536
	ldr	r3, [r4]
.LBB148:
.LBB149:
	.loc 1 7114 6 view .LVU537
	ldr	r1, .L155
.LBE149:
.LBE148:
	.loc 1 702 15 view .LVU538
	movs	r2, #2
	strb	r2, [r4, #61]
	.loc 1 705 3 is_stmt 1 view .LVU539
.LVL116:
.LBB153:
.LBI148:
	.loc 1 7108 6 view .LVU540
.LBB150:
	.loc 1 7110 3 view .LVU541
	.loc 1 7111 3 view .LVU542
	.loc 1 7114 6 is_stmt 0 view .LVU543
	cmp	r3, r1
	.loc 1 7111 10 view .LVU544
	ldr	r2, [r3]
.LVL117:
	.loc 1 7114 3 is_stmt 1 view .LVU545
	.loc 1 7114 6 is_stmt 0 view .LVU546
	beq	.L134
	.loc 1 7114 7 view .LVU547
	cmp	r3, #1073741824
	beq	.L131
	sub	r1, r1, #75776
	cmp	r3, r1
	beq	.L131
	add	r1, r1, #1024
	cmp	r3, r1
	beq	.L131
	add	r1, r1, #76800
	cmp	r3, r1
	beq	.L134
	.loc 1 7121 7 view .LVU548
	add	r1, r1, #3072
	cmp	r3, r1
	beq	.L135
	add	r1, r1, #1024
	cmp	r3, r1
	beq	.L135
	add	r1, r1, #1024
	cmp	r3, r1
	beq	.L135
	.loc 1 7129 3 is_stmt 1 view .LVU549
	ldr	r0, [r4, #24]
	.loc 1 7134 34 is_stmt 0 view .LVU550
	ldr	r1, [r4, #12]
	.loc 1 7129 3 view .LVU551
	bic	r2, r2, #128
.LVL118:
	.loc 1 7129 3 view .LVU552
	orrs	r2, r2, r0
.LVL119:
	.loc 1 7131 3 is_stmt 1 view .LVU553
	.loc 1 7131 13 is_stmt 0 view .LVU554
	str	r2, [r3]
	.loc 1 7134 3 is_stmt 1 view .LVU555
	.loc 1 7137 24 is_stmt 0 view .LVU556
	ldr	r2, [r4, #4]
.LVL120:
	.loc 1 7134 13 view .LVU557
	str	r1, [r3, #44]
.LVL121:
	.loc 1 7137 3 is_stmt 1 view .LVU558
	.loc 1 7137 13 is_stmt 0 view .LVU559
	str	r2, [r3, #40]
	.loc 1 7139 3 is_stmt 1 view .LVU560
	.loc 1 7139 3 is_stmt 0 view .LVU561
	b	.L140
.LVL122:
.L131:
	.loc 1 7117 5 is_stmt 1 view .LVU562
	.loc 1 7118 12 is_stmt 0 view .LVU563
	ldr	r1, [r4, #8]
	.loc 1 7125 12 view .LVU564
	ldr	r0, [r4, #16]
	.loc 1 7117 12 view .LVU565
	bic	r2, r2, #112
.LVL123:
	.loc 1 7118 5 is_stmt 1 view .LVU566
	.loc 1 7118 12 is_stmt 0 view .LVU567
	orrs	r2, r2, r1
.LVL124:
	.loc 1 7121 3 is_stmt 1 view .LVU568
	.loc 1 7124 5 view .LVU569
	.loc 1 7124 12 is_stmt 0 view .LVU570
	bic	r2, r2, #768
.LVL125:
	.loc 1 7125 5 is_stmt 1 view .LVU571
	.loc 1 7129 3 view .LVU572
	ldr	r1, [r4, #24]
	.loc 1 7125 12 is_stmt 0 view .LVU573
	orrs	r2, r2, r0
.LVL126:
	.loc 1 7129 3 view .LVU574
	bic	r2, r2, #128
.LVL127:
	.loc 1 7134 34 view .LVU575
	ldr	r0, [r4, #12]
	.loc 1 7129 3 view .LVU576
	orrs	r2, r2, r1
.LVL128:
	.loc 1 7131 3 is_stmt 1 view .LVU577
	.loc 1 7137 24 is_stmt 0 view .LVU578
	ldr	r1, [r4, #4]
	.loc 1 7131 13 view .LVU579
	str	r2, [r3]
	.loc 1 7134 3 is_stmt 1 view .LVU580
	.loc 1 7134 13 is_stmt 0 view .LVU581
	str	r0, [r3, #44]
	.loc 1 7137 3 is_stmt 1 view .LVU582
	.loc 1 7137 13 is_stmt 0 view .LVU583
	str	r1, [r3, #40]
	.loc 1 7139 3 is_stmt 1 view .LVU584
.LVL129:
.L140:
	.loc 1 7147 3 view .LVU585
	.loc 1 7147 13 is_stmt 0 view .LVU586
	movs	r2, #1
	str	r2, [r3, #20]
	.loc 1 7150 3 is_stmt 1 view .LVU587
	.loc 1 7150 7 is_stmt 0 view .LVU588
	ldr	r2, [r3, #16]
	.loc 1 7150 6 view .LVU589
	lsls	r2, r2, #31
	bpl	.L139
	.loc 1 7153 5 is_stmt 1 view .LVU590
	ldr	r2, [r3, #16]
	bic	r2, r2, #1
	str	r2, [r3, #16]
.L139:
.LVL130:
	.loc 1 7153 5 is_stmt 0 view .LVU591
.LBE150:
.LBE153:
	.loc 1 708 3 is_stmt 1 view .LVU592
	.loc 1 708 23 is_stmt 0 view .LVU593
	movs	r3, #1
	strb	r3, [r4, #72]
	.loc 1 711 3 is_stmt 1 view .LVU594
	.loc 1 711 3 view .LVU595
	strb	r3, [r4, #62]
	.loc 1 711 3 view .LVU596
	strb	r3, [r4, #63]
	.loc 1 711 3 view .LVU597
	strb	r3, [r4, #64]
	.loc 1 711 3 view .LVU598
	strb	r3, [r4, #65]
	.loc 1 711 3 view .LVU599
	strb	r3, [r4, #66]
	.loc 1 711 3 view .LVU600
	strb	r3, [r4, #67]
	.loc 1 711 3 view .LVU601
	.loc 1 712 3 view .LVU602
	.loc 1 712 3 view .LVU603
	strb	r3, [r4, #68]
	.loc 1 712 3 view .LVU604
	strb	r3, [r4, #69]
	.loc 1 712 3 view .LVU605
	strb	r3, [r4, #70]
	.loc 1 712 3 view .LVU606
	strb	r3, [r4, #71]
	.loc 1 712 3 view .LVU607
	.loc 1 715 3 view .LVU608
	.loc 1 715 15 is_stmt 0 view .LVU609
	strb	r3, [r4, #61]
	.loc 1 717 3 is_stmt 1 view .LVU610
	.loc 1 717 10 is_stmt 0 view .LVU611
	movs	r0, #0
	.loc 1 718 1 view .LVU612
	pop	{r4, pc}
.LVL131:
.L134:
.LBB154:
.LBB151:
	.loc 1 7117 5 is_stmt 1 view .LVU613
	.loc 1 7118 12 is_stmt 0 view .LVU614
	ldr	r0, [r4, #8]
	.loc 1 7125 12 view .LVU615
	ldr	r1, [r4, #16]
	.loc 1 7117 12 view .LVU616
	bic	r2, r2, #112
.LVL132:
	.loc 1 7118 5 is_stmt 1 view .LVU617
	.loc 1 7118 12 is_stmt 0 view .LVU618
	orrs	r2, r2, r0
.LVL133:
	.loc 1 7121 3 is_stmt 1 view .LVU619
	.loc 1 7124 5 view .LVU620
	.loc 1 7124 12 is_stmt 0 view .LVU621
	bic	r2, r2, #768
.LVL134:
	.loc 1 7125 5 is_stmt 1 view .LVU622
	.loc 1 7129 3 view .LVU623
	.loc 1 7125 12 is_stmt 0 view .LVU624
	orrs	r2, r2, r1
.LVL135:
	.loc 1 7129 3 view .LVU625
	ldr	r1, [r4, #24]
.L153:
	.loc 1 7129 3 view .LVU626
	bic	r2, r2, #128
.LVL136:
	.loc 1 7129 3 view .LVU627
	orrs	r2, r2, r1
.LVL137:
	.loc 1 7131 3 is_stmt 1 view .LVU628
	.loc 1 7131 13 is_stmt 0 view .LVU629
	str	r2, [r3]
	.loc 1 7134 3 is_stmt 1 view .LVU630
	.loc 1 7134 34 is_stmt 0 view .LVU631
	ldr	r2, [r4, #12]
.LVL138:
	.loc 1 7134 13 view .LVU632
	str	r2, [r3, #44]
.LVL139:
	.loc 1 7137 3 is_stmt 1 view .LVU633
	.loc 1 7137 24 is_stmt 0 view .LVU634
	ldr	r2, [r4, #4]
	.loc 1 7137 13 view .LVU635
	str	r2, [r3, #40]
	.loc 1 7139 3 is_stmt 1 view .LVU636
	.loc 1 7142 5 view .LVU637
	.loc 1 7142 26 is_stmt 0 view .LVU638
	ldr	r2, [r4, #20]
	.loc 1 7142 15 view .LVU639
	str	r2, [r3, #48]
	b	.L140
.LVL140:
.L154:
	.loc 1 7142 15 view .LVU640
.LBE151:
.LBE154:
	.loc 1 683 5 is_stmt 1 view .LVU641
	.loc 1 683 16 is_stmt 0 view .LVU642
	strb	r2, [r0, #60]
	.loc 1 697 5 is_stmt 1 view .LVU643
	bl	HAL_TIM_OC_MspInit
.LVL141:
	.loc 1 697 5 is_stmt 0 view .LVU644
	b	.L129
.LVL142:
.L135:
.LBB155:
.LBB152:
	.loc 1 7124 5 is_stmt 1 view .LVU645
	.loc 1 7125 12 is_stmt 0 view .LVU646
	ldr	r0, [r4, #16]
	.loc 1 7129 3 view .LVU647
	ldr	r1, [r4, #24]
	.loc 1 7124 12 view .LVU648
	bic	r2, r2, #768
.LVL143:
	.loc 1 7125 5 is_stmt 1 view .LVU649
	.loc 1 7129 3 view .LVU650
	.loc 1 7125 12 is_stmt 0 view .LVU651
	orrs	r2, r2, r0
.LVL144:
	.loc 1 7125 12 view .LVU652
	b	.L153
.LVL145:
.L143:
.LCFI12:
	.cfi_def_cfa_offset 0
	.cfi_restore 4
	.cfi_restore 14
	.loc 1 7125 12 view .LVU653
.LBE152:
.LBE155:
	.loc 1 670 12 view .LVU654
	movs	r0, #1
.LVL146:
	.loc 1 718 1 view .LVU655
	bx	lr
.L156:
	.align	2
.L155:
	.word	1073818624
	.cfi_endproc
.LFE142:
	.size	HAL_TIM_OC_Init, .-HAL_TIM_OC_Init
	.section	.text.HAL_TIM_OC_MspDeInit,"ax",%progbits
	.align	1
	.p2align 2,,3
	.weak	HAL_TIM_OC_MspDeInit
	.syntax unified
	.thumb
	.thumb_func
	.fpu fpv4-sp-d16
	.type	HAL_TIM_OC_MspDeInit, %function
HAL_TIM_OC_MspDeInit:
.LFB258:
	.cfi_startproc
	@ args = 0, pretend = 0, frame = 0
	@ frame_needed = 0, uses_anonymous_args = 0
	@ link register save eliminated.
	bx	lr
	.cfi_endproc
.LFE258:
	.size	HAL_TIM_OC_MspDeInit, .-HAL_TIM_OC_MspDeInit
	.section	.text.HAL_TIM_OC_DeInit,"ax",%progbits
	.align	1
	.p2align 2,,3
	.global	HAL_TIM_OC_DeInit
	.syntax unified
	.thumb
	.thumb_func
	.fpu fpv4-sp-d16
	.type	HAL_TIM_OC_DeInit, %function
HAL_TIM_OC_DeInit:
.LVL147:
.LFB143:
	.loc 1 726 1 is_stmt 1 view -0
	.cfi_startproc
	@ args = 0, pretend = 0, frame = 0
	@ frame_needed = 0, uses_anonymous_args = 0
	.loc 1 728 3 view .LVU657
	.loc 1 730 3 view .LVU658
	.loc 1 730 15 is_stmt 0 view .LVU659
	movs	r2, #2
	.loc 1 733 3 view .LVU660
	ldr	r3, [r0]
	.loc 1 726 1 view .LVU661
	push	{r4, lr}
.LCFI13:
	.cfi_def_cfa_offset 8
	.cfi_offset 4, -8
	.cfi_offset 14, -4
	.loc 1 730 15 view .LVU662
	strb	r2, [r0, #61]
	.loc 1 733 3 is_stmt 1 view .LVU663
	.loc 1 733 3 view .LVU664
	ldr	r1, [r3, #32]
	movw	r2, #4369
	tst	r1, r2
	.loc 1 726 1 is_stmt 0 view .LVU665
	mov	r4, r0
	.loc 1 733 3 view .LVU666
	bne	.L159
	.loc 1 733 3 is_stmt 1 discriminator 1 view .LVU667
	ldr	r1, [r3, #32]
	movw	r2, #17476
	tst	r1, r2
	bne	.L159
	.loc 1 733 3 discriminator 3 view .LVU668
	ldr	r2, [r3]
	bic	r2, r2, #1
	str	r2, [r3]
.L159:
	.loc 1 733 3 discriminator 5 view .LVU669
	.loc 1 744 3 discriminator 5 view .LVU670
	mov	r0, r4
.LVL148:
	.loc 1 744 3 is_stmt 0 discriminator 5 view .LVU671
	bl	HAL_TIM_OC_MspDeInit
.LVL149:
	.loc 1 748 3 is_stmt 1 discriminator 5 view .LVU672
	.loc 1 748 23 is_stmt 0 discriminator 5 view .LVU673
	movs	r0, #0
	strb	r0, [r4, #72]
	.loc 1 751 3 is_stmt 1 discriminator 5 view .LVU674
	.loc 1 751 3 discriminator 5 view .LVU675
	.loc 1 758 3 is_stmt 0 discriminator 5 view .LVU676
	strb	r0, [r4, #60]
	.loc 1 751 3 discriminator 5 view .LVU677
	strb	r0, [r4, #62]
	.loc 1 751 3 is_stmt 1 discriminator 5 view .LVU678
	strb	r0, [r4, #63]
	.loc 1 751 3 discriminator 5 view .LVU679
	strb	r0, [r4, #64]
	.loc 1 751 3 discriminator 5 view .LVU680
	strb	r0, [r4, #65]
	.loc 1 751 3 discriminator 5 view .LVU681
	strb	r0, [r4, #66]
	.loc 1 751 3 discriminator 5 view .LVU682
	strb	r0, [r4, #67]
	.loc 1 751 3 discriminator 5 view .LVU683
	.loc 1 752 3 discriminator 5 view .LVU684
	.loc 1 752 3 discriminator 5 view .LVU685
	strb	r0, [r4, #68]
	.loc 1 752 3 discriminator 5 view .LVU686
	strb	r0, [r4, #69]
	.loc 1 752 3 discriminator 5 view .LVU687
	strb	r0, [r4, #70]
	.loc 1 752 3 discriminator 5 view .LVU688
	strb	r0, [r4, #71]
	.loc 1 752 3 discriminator 5 view .LVU689
	.loc 1 755 3 discriminator 5 view .LVU690
	.loc 1 755 15 is_stmt 0 discriminator 5 view .LVU691
	strb	r0, [r4, #61]
	.loc 1 758 3 is_stmt 1 discriminator 5 view .LVU692
	.loc 1 758 3 discriminator 5 view .LVU693
	.loc 1 758 3 discriminator 5 view .LVU694
	.loc 1 760 3 discriminator 5 view .LVU695
	.loc 1 761 1 is_stmt 0 discriminator 5 view .LVU696
	pop	{r4, pc}
	.loc 1 761 1 discriminator 5 view .LVU697
	.cfi_endproc
.LFE143:
	.size	HAL_TIM_OC_DeInit, .-HAL_TIM_OC_DeInit
	.section	.text.HAL_TIM_OC_Start,"ax",%progbits
	.align	1
	.p2align 2,,3
	.global	HAL_TIM_OC_Start
	.syntax unified
	.thumb
	.thumb_func
	.fpu fpv4-sp-d16
	.type	HAL_TIM_OC_Start, %function
HAL_TIM_OC_Start:
.LVL150:
.LFB146:
	.loc 1 807 1 is_stmt 1 view -0
	.cfi_startproc
	@ args = 0, pretend = 0, frame = 0
	@ frame_needed = 0, uses_anonymous_args = 0
	@ link register save eliminated.
	.loc 1 808 3 view .LVU699
	.loc 1 811 3 view .LVU700
	.loc 1 814 3 view .LVU701
	.loc 1 814 44 is_stmt 0 view .LVU702
	cmp	r1, #0
	bne	.L162
	.loc 1 814 7 discriminator 1 view .LVU703
	ldrb	r3, [r0, #62]	@ zero_extendqisi2
	.loc 1 814 6 discriminator 1 view .LVU704
	cmp	r3, #1
	bne	.L187
	.loc 1 820 3 discriminator 1 view .LVU705
	movs	r3, #2
	strb	r3, [r0, #62]
.L173:
	.loc 1 823 3 is_stmt 1 view .LVU706
	ldr	r3, [r0]
.LVL151:
.LBB158:
.LBI158:
	.loc 1 8063 6 view .LVU707
.LBB159:
	.loc 1 8065 3 view .LVU708
	.loc 1 8068 3 view .LVU709
	.loc 1 8069 3 view .LVU710
	.loc 1 8071 3 view .LVU711
	.loc 1 8071 7 is_stmt 0 view .LVU712
	movs	r2, #1
	.loc 1 8074 14 view .LVU713
	ldr	r0, [r3, #32]
.LVL152:
	.loc 1 8071 35 view .LVU714
	and	r1, r1, #31
.LVL153:
	.loc 1 8071 7 view .LVU715
	lsl	r1, r2, r1
.LVL154:
	.loc 1 8074 3 is_stmt 1 view .LVU716
	.loc 1 8074 14 is_stmt 0 view .LVU717
	bic	r0, r0, r1
	str	r0, [r3, #32]
	.loc 1 8077 3 is_stmt 1 view .LVU718
	.loc 1 8077 14 is_stmt 0 view .LVU719
	ldr	r0, [r3, #32]
.LBE159:
.LBE158:
	.loc 1 825 7 view .LVU720
	ldr	r2, .L201
.LBB162:
.LBB160:
	.loc 1 8077 14 view .LVU721
	orrs	r1, r1, r0
.LVL155:
	.loc 1 8077 14 view .LVU722
.LBE160:
.LBE162:
	.loc 1 825 7 view .LVU723
	cmp	r3, r2
.LBB163:
.LBB161:
	.loc 1 8077 14 view .LVU724
	str	r1, [r3, #32]
.LVL156:
	.loc 1 8077 14 view .LVU725
.LBE161:
.LBE163:
	.loc 1 825 3 is_stmt 1 view .LVU726
	.loc 1 825 7 is_stmt 0 view .LVU727
	beq	.L177
	.loc 1 825 7 discriminator 2 view .LVU728
	add	r2, r2, #2048
	cmp	r3, r2
	beq	.L178
	.loc 1 825 7 discriminator 4 view .LVU729
	add	r2, r2, #3072
	cmp	r3, r2
	beq	.L178
	.loc 1 825 7 discriminator 6 view .LVU730
	add	r2, r2, #1024
	cmp	r3, r2
	beq	.L178
	.loc 1 825 7 discriminator 8 view .LVU731
	add	r2, r2, #1024
	cmp	r3, r2
	bne	.L181
.L178:
	.loc 1 828 5 is_stmt 1 view .LVU732
	ldr	r2, [r3, #68]
	orr	r2, r2, #32768
	str	r2, [r3, #68]
	.loc 1 832 3 view .LVU733
.L181:
	.loc 1 832 7 is_stmt 0 discriminator 1 view .LVU734
	cmp	r3, #1073741824
	beq	.L179
	.loc 1 832 7 discriminator 2 view .LVU735
	ldr	r2, .L201+4
	cmp	r3, r2
	beq	.L179
	.loc 1 832 7 discriminator 3 view .LVU736
	add	r2, r2, #1024
	cmp	r3, r2
	beq	.L179
	.loc 1 832 7 discriminator 4 view .LVU737
	add	r2, r2, #76800
	cmp	r3, r2
	beq	.L179
	.loc 1 832 7 discriminator 5 view .LVU738
	add	r2, r2, #3072
	cmp	r3, r2
	bne	.L180
.L179:
	.loc 1 834 5 is_stmt 1 view .LVU739
	.loc 1 834 29 is_stmt 0 view .LVU740
	ldr	r1, [r3, #8]
	.loc 1 834 13 view .LVU741
	ldr	r2, .L201+8
	ands	r2, r2, r1
.LVL157:
	.loc 1 835 5 is_stmt 1 view .LVU742
	.loc 1 835 8 is_stmt 0 view .LVU743
	cmp	r2, #6
	beq	.L189
	.loc 1 835 9 discriminator 1 view .LVU744
	cmp	r2, #65536
	beq	.L189
.LVL158:
.L180:
	.loc 1 842 5 is_stmt 1 view .LVU745
	ldr	r2, [r3]
	orr	r2, r2, #1
	.loc 1 846 10 is_stmt 0 view .LVU746
	movs	r0, #0
	.loc 1 842 5 view .LVU747
	str	r2, [r3]
	bx	lr
.LVL159:
.L162:
	.loc 1 814 44 discriminator 2 view .LVU748
	cmp	r1, #4
	beq	.L198
	.loc 1 814 44 discriminator 5 view .LVU749
	cmp	r1, #8
	beq	.L199
	.loc 1 814 44 discriminator 8 view .LVU750
	cmp	r1, #12
	bne	.L169
	.loc 1 814 7 discriminator 10 view .LVU751
	ldrb	r3, [r0, #65]	@ zero_extendqisi2
	.loc 1 814 6 discriminator 10 view .LVU752
	cmp	r3, #1
	beq	.L170
.L187:
	.loc 1 816 12 view .LVU753
	movs	r0, #1
.LVL160:
	.loc 1 816 12 view .LVU754
	bx	lr
.LVL161:
.L189:
	.loc 1 846 10 view .LVU755
	movs	r0, #0
	.loc 1 847 1 view .LVU756
	bx	lr
.LVL162:
.L169:
	.loc 1 814 44 discriminator 11 view .LVU757
	cmp	r1, #16
	beq	.L200
	.loc 1 814 7 discriminator 14 view .LVU758
	ldrb	r3, [r0, #67]	@ zero_extendqisi2
	.loc 1 814 6 discriminator 14 view .LVU759
	cmp	r3, #1
	bne	.L187
	.loc 1 820 3 is_stmt 1 discriminator 4 view .LVU760
	cmp	r1, #8
	beq	.L168
	.loc 1 820 3 is_stmt 0 discriminator 7 view .LVU761
	cmp	r1, #12
	beq	.L170
	.loc 1 820 3 discriminator 10 view .LVU762
	cmp	r1, #16
	beq	.L195
	.loc 1 820 3 discriminator 13 view .LVU763
	movs	r3, #2
	strb	r3, [r0, #67]
	b	.L173
.LVL163:
.L177:
	.loc 1 828 5 is_stmt 1 view .LVU764
	ldr	r2, [r3, #68]
	orr	r2, r2, #32768
	str	r2, [r3, #68]
	.loc 1 832 3 view .LVU765
	b	.L179
.LVL164:
.L198:
	.loc 1 814 7 is_stmt 0 discriminator 4 view .LVU766
	ldrb	r3, [r0, #63]	@ zero_extendqisi2
	.loc 1 814 6 discriminator 4 view .LVU767
	cmp	r3, #1
	bne	.L187
	.loc 1 820 3 discriminator 3 view .LVU768
	movs	r3, #2
	strb	r3, [r0, #63]
	b	.L173
.L199:
	.loc 1 814 7 discriminator 7 view .LVU769
	ldrb	r3, [r0, #64]	@ zero_extendqisi2
	.loc 1 814 6 discriminator 7 view .LVU770
	cmp	r3, #1
	bne	.L187
.L168:
	.loc 1 820 3 discriminator 6 view .LVU771
	movs	r3, #2
	strb	r3, [r0, #64]
	b	.L173
.L170:
	.loc 1 820 3 discriminator 9 view .LVU772
	movs	r3, #2
	strb	r3, [r0, #65]
	b	.L173
.L200:
	.loc 1 814 7 discriminator 13 view .LVU773
	ldrb	r3, [r0, #66]	@ zero_extendqisi2
	.loc 1 814 6 discriminator 13 view .LVU774
	cmp	r3, #1
	bne	.L187
.L195:
	.loc 1 820 3 discriminator 12 view .LVU775
	movs	r3, #2
	strb	r3, [r0, #66]
	b	.L173
.L202:
	.align	2
.L201:
	.word	1073818624
	.word	1073742848
	.word	65543
	.cfi_endproc
.LFE146:
	.size	HAL_TIM_OC_Start, .-HAL_TIM_OC_Start
	.section	.text.HAL_TIM_OC_Stop,"ax",%progbits
	.align	1
	.p2align 2,,3
	.global	HAL_TIM_OC_Stop
	.syntax unified
	.thumb
	.thumb_func
	.fpu fpv4-sp-d16
	.type	HAL_TIM_OC_Stop, %function
HAL_TIM_OC_Stop:
.LVL165:
.LFB147:
	.loc 1 863 1 is_stmt 1 view -0
	.cfi_startproc
	@ args = 0, pretend = 0, frame = 0
	@ frame_needed = 0, uses_anonymous_args = 0
	@ link register save eliminated.
	.loc 1 865 3 view .LVU777
	.loc 1 868 3 view .LVU778
	ldr	r3, [r0]
.LVL166:
.LBB166:
.LBI166:
	.loc 1 8063 6 view .LVU779
.LBB167:
	.loc 1 8065 3 view .LVU780
	.loc 1 8068 3 view .LVU781
	.loc 1 8069 3 view .LVU782
	.loc 1 8071 3 view .LVU783
	.loc 1 8074 3 view .LVU784
.LBE167:
.LBE166:
	.loc 1 863 1 is_stmt 0 view .LVU785
	push	{r4}
.LCFI14:
	.cfi_def_cfa_offset 4
	.cfi_offset 4, -4
.LBB170:
.LBB168:
	.loc 1 8074 14 view .LVU786
	ldr	r2, [r3, #32]
	.loc 1 8071 35 view .LVU787
	and	r4, r1, #31
	.loc 1 8071 7 view .LVU788
	mov	ip, #1
	lsl	ip, ip, r4
.LVL167:
	.loc 1 8074 14 view .LVU789
	bic	r2, r2, ip
	str	r2, [r3, #32]
	.loc 1 8077 3 is_stmt 1 view .LVU790
.LBE168:
.LBE170:
	.loc 1 870 7 is_stmt 0 view .LVU791
	ldr	r2, .L218
.LBB171:
.LBB169:
	.loc 1 8077 14 view .LVU792
	ldr	r4, [r3, #32]
	str	r4, [r3, #32]
.LVL168:
	.loc 1 8077 14 view .LVU793
.LBE169:
.LBE171:
	.loc 1 870 3 is_stmt 1 view .LVU794
	.loc 1 870 7 is_stmt 0 view .LVU795
	cmp	r3, r2
	beq	.L204
	.loc 1 870 7 discriminator 2 view .LVU796
	add	r2, r2, #2048
	cmp	r3, r2
	beq	.L204
	.loc 1 870 7 discriminator 4 view .LVU797
	add	r2, r2, #3072
	cmp	r3, r2
	beq	.L204
	.loc 1 870 7 discriminator 6 view .LVU798
	add	r2, r2, #1024
	cmp	r3, r2
	beq	.L204
	.loc 1 870 7 discriminator 8 view .LVU799
	add	r2, r2, #1024
	cmp	r3, r2
	beq	.L204
.L205:
	.loc 1 873 5 is_stmt 1 discriminator 5 view .LVU800
	.loc 1 877 3 discriminator 5 view .LVU801
	.loc 1 877 3 discriminator 5 view .LVU802
	ldr	r4, [r3, #32]
	movw	r2, #4369
	tst	r4, r2
	bne	.L206
	.loc 1 877 3 discriminator 1 view .LVU803
	ldr	r4, [r3, #32]
	movw	r2, #17476
	tst	r4, r2
	beq	.L214
.L206:
	.loc 1 877 3 discriminator 5 view .LVU804
	.loc 1 880 3 discriminator 5 view .LVU805
	movs	r3, #1
	cbnz	r1, .L207
	.loc 1 880 3 is_stmt 0 discriminator 1 view .LVU806
	strb	r3, [r0, #62]
.L208:
	.loc 1 883 3 is_stmt 1 view .LVU807
	.loc 1 884 1 is_stmt 0 view .LVU808
	movs	r0, #0
.LVL169:
	.loc 1 884 1 view .LVU809
	ldr	r4, [sp], #4
.LCFI15:
	.cfi_remember_state
	.cfi_restore 4
	.cfi_def_cfa_offset 0
	bx	lr
.LVL170:
.L204:
.LCFI16:
	.cfi_restore_state
	.loc 1 873 5 is_stmt 1 view .LVU810
	.loc 1 873 5 view .LVU811
	ldr	r4, [r3, #32]
	movw	r2, #4369
	tst	r4, r2
	bne	.L205
	.loc 1 873 5 discriminator 1 view .LVU812
	ldr	r4, [r3, #32]
	movw	r2, #17476
	tst	r4, r2
	bne	.L205
	.loc 1 873 5 discriminator 3 view .LVU813
	ldr	r2, [r3, #68]
	bic	r2, r2, #32768
	str	r2, [r3, #68]
	b	.L205
.L207:
	.loc 1 880 3 is_stmt 0 discriminator 2 view .LVU814
	cmp	r1, #4
	beq	.L215
	.loc 1 880 3 discriminator 4 view .LVU815
	cmp	r1, #8
	beq	.L216
	.loc 1 880 3 discriminator 7 view .LVU816
	cmp	r1, #12
	beq	.L217
	.loc 1 880 3 discriminator 10 view .LVU817
	cmp	r1, #16
	ite	eq
	strbeq	r3, [r0, #66]
	strbne	r3, [r0, #67]
	.loc 1 883 3 is_stmt 1 discriminator 10 view .LVU818
	.loc 1 884 1 is_stmt 0 discriminator 10 view .LVU819
	ldr	r4, [sp], #4
.LCFI17:
	.cfi_remember_state
	.cfi_restore 4
	.cfi_def_cfa_offset 0
	movs	r0, #0
.LVL171:
	.loc 1 884 1 discriminator 10 view .LVU820
	bx	lr
.LVL172:
.L214:
.LCFI18:
	.cfi_restore_state
	.loc 1 877 3 is_stmt 1 discriminator 3 view .LVU821
	ldr	r2, [r3]
	bic	r2, r2, #1
	str	r2, [r3]
	b	.L206
.L215:
	.loc 1 880 3 is_stmt 0 discriminator 3 view .LVU822
	strb	r3, [r0, #63]
	.loc 1 883 3 is_stmt 1 discriminator 3 view .LVU823
	.loc 1 884 1 is_stmt 0 discriminator 3 view .LVU824
	ldr	r4, [sp], #4
.LCFI19:
	.cfi_remember_state
	.cfi_restore 4
	.cfi_def_cfa_offset 0
	movs	r0, #0
.LVL173:
	.loc 1 884 1 discriminator 3 view .LVU825
	bx	lr
.LVL174:
.L217:
.LCFI20:
	.cfi_restore_state
	.loc 1 880 3 discriminator 9 view .LVU826
	strb	r3, [r0, #65]
	b	.L208
.L216:
	.loc 1 880 3 discriminator 6 view .LVU827
	strb	r3, [r0, #64]
	.loc 1 883 3 is_stmt 1 discriminator 6 view .LVU828
	.loc 1 884 1 is_stmt 0 discriminator 6 view .LVU829
	ldr	r4, [sp], #4
.LCFI21:
	.cfi_restore 4
	.cfi_def_cfa_offset 0
	movs	r0, #0
.LVL175:
	.loc 1 884 1 discriminator 6 view .LVU830
	bx	lr
.L219:
	.align	2
.L218:
	.word	1073818624
	.cfi_endproc
.LFE147:
	.size	HAL_TIM_OC_Stop, .-HAL_TIM_OC_Stop
	.section	.text.HAL_TIM_OC_Start_IT,"ax",%progbits
	.align	1
	.p2align 2,,3
	.global	HAL_TIM_OC_Start_IT
	.syntax unified
	.thumb
	.thumb_func
	.fpu fpv4-sp-d16
	.type	HAL_TIM_OC_Start_IT, %function
HAL_TIM_OC_Start_IT:
.LVL176:
.LFB148:
	.loc 1 898 1 is_stmt 1 view -0
	.cfi_startproc
	@ args = 0, pretend = 0, frame = 0
	@ frame_needed = 0, uses_anonymous_args = 0
	@ link register save eliminated.
	.loc 1 899 3 view .LVU832
	.loc 1 900 3 view .LVU833
	.loc 1 903 3 view .LVU834
	.loc 1 906 3 view .LVU835
	.loc 1 906 44 is_stmt 0 view .LVU836
	cmp	r1, #0
	bne	.L221
	.loc 1 906 7 discriminator 1 view .LVU837
	ldrb	r3, [r0, #62]	@ zero_extendqisi2
	.loc 1 906 6 discriminator 1 view .LVU838
	cmp	r3, #1
	bne	.L251
	.loc 1 919 7 discriminator 1 view .LVU839
	ldr	r3, [r0]
	.loc 1 912 3 discriminator 1 view .LVU840
	movs	r2, #2
	strb	r2, [r0, #62]
	.loc 1 914 3 is_stmt 1 discriminator 1 view .LVU841
	.loc 1 919 7 discriminator 1 view .LVU842
	ldr	r2, [r3, #12]
	orr	r2, r2, #2
	str	r2, [r3, #12]
	.loc 1 920 7 discriminator 1 view .LVU843
	.loc 1 949 3 discriminator 1 view .LVU844
.L232:
	.loc 1 952 5 view .LVU845
.LVL177:
.LBB174:
.LBI174:
	.loc 1 8063 6 view .LVU846
.LBB175:
	.loc 1 8065 3 view .LVU847
	.loc 1 8068 3 view .LVU848
	.loc 1 8069 3 view .LVU849
	.loc 1 8071 3 view .LVU850
	.loc 1 8074 14 is_stmt 0 view .LVU851
	ldr	r0, [r3, #32]
.LVL178:
	.loc 1 8071 7 view .LVU852
	movs	r2, #1
	.loc 1 8071 35 view .LVU853
	and	r1, r1, #31
.LVL179:
	.loc 1 8071 7 view .LVU854
	lsl	r1, r2, r1
.LVL180:
	.loc 1 8074 3 is_stmt 1 view .LVU855
	.loc 1 8074 14 is_stmt 0 view .LVU856
	bic	r0, r0, r1
	str	r0, [r3, #32]
	.loc 1 8077 3 is_stmt 1 view .LVU857
	.loc 1 8077 14 is_stmt 0 view .LVU858
	ldr	r0, [r3, #32]
.LBE175:
.LBE174:
	.loc 1 954 9 view .LVU859
	ldr	r2, .L265
.LBB178:
.LBB176:
	.loc 1 8077 14 view .LVU860
	orrs	r1, r1, r0
.LVL181:
	.loc 1 8077 14 view .LVU861
.LBE176:
.LBE178:
	.loc 1 954 9 view .LVU862
	cmp	r3, r2
.LBB179:
.LBB177:
	.loc 1 8077 14 view .LVU863
	str	r1, [r3, #32]
.LVL182:
	.loc 1 8077 14 view .LVU864
.LBE177:
.LBE179:
	.loc 1 954 5 is_stmt 1 view .LVU865
	.loc 1 954 9 is_stmt 0 view .LVU866
	beq	.L240
	.loc 1 954 9 discriminator 2 view .LVU867
	add	r2, r2, #2048
	cmp	r3, r2
	beq	.L241
	.loc 1 954 9 discriminator 4 view .LVU868
	add	r2, r2, #3072
	cmp	r3, r2
	beq	.L241
	.loc 1 954 9 discriminator 6 view .LVU869
	add	r2, r2, #1024
	cmp	r3, r2
	beq	.L241
	.loc 1 954 9 discriminator 8 view .LVU870
	add	r2, r2, #1024
	cmp	r3, r2
	bne	.L244
.L241:
	.loc 1 957 7 is_stmt 1 view .LVU871
	ldr	r2, [r3, #68]
	orr	r2, r2, #32768
	str	r2, [r3, #68]
	.loc 1 961 5 view .LVU872
.L244:
	.loc 1 961 9 is_stmt 0 discriminator 1 view .LVU873
	cmp	r3, #1073741824
	beq	.L242
	.loc 1 961 9 discriminator 2 view .LVU874
	ldr	r2, .L265+4
	cmp	r3, r2
	beq	.L242
	.loc 1 961 9 discriminator 3 view .LVU875
	add	r2, r2, #1024
	cmp	r3, r2
	beq	.L242
	.loc 1 961 9 discriminator 4 view .LVU876
	add	r2, r2, #76800
	cmp	r3, r2
	beq	.L242
	.loc 1 961 9 discriminator 5 view .LVU877
	add	r2, r2, #3072
	cmp	r3, r2
	bne	.L243
.L242:
	.loc 1 963 7 is_stmt 1 view .LVU878
	.loc 1 963 31 is_stmt 0 view .LVU879
	ldr	r1, [r3, #8]
	.loc 1 963 15 view .LVU880
	ldr	r2, .L265+8
	ands	r2, r2, r1
.LVL183:
	.loc 1 964 7 is_stmt 1 view .LVU881
	.loc 1 964 10 is_stmt 0 view .LVU882
	cmp	r2, #6
	beq	.L253
	.loc 1 964 11 discriminator 1 view .LVU883
	cmp	r2, #65536
	beq	.L253
.LVL184:
.L243:
	.loc 1 971 7 is_stmt 1 view .LVU884
	ldr	r2, [r3]
	orr	r2, r2, #1
	movs	r0, #0
	str	r2, [r3]
	bx	lr
.LVL185:
.L221:
	.loc 1 906 44 is_stmt 0 discriminator 2 view .LVU885
	cmp	r1, #4
	beq	.L262
	.loc 1 906 44 discriminator 5 view .LVU886
	cmp	r1, #8
	beq	.L263
	.loc 1 906 44 discriminator 8 view .LVU887
	cmp	r1, #12
	bne	.L228
	.loc 1 906 7 discriminator 10 view .LVU888
	ldrb	r3, [r0, #65]	@ zero_extendqisi2
	.loc 1 906 6 discriminator 10 view .LVU889
	cmp	r3, #1
	beq	.L229
.L251:
	.loc 1 912 3 view .LVU890
	movs	r0, #1
.LVL186:
	.loc 1 912 3 view .LVU891
	bx	lr
.LVL187:
.L253:
	.loc 1 912 3 view .LVU892
	movs	r0, #0
.LVL188:
	.loc 1 977 1 view .LVU893
	bx	lr
.LVL189:
.L228:
	.loc 1 906 44 discriminator 11 view .LVU894
	cmp	r1, #16
	beq	.L264
	.loc 1 906 7 discriminator 14 view .LVU895
	ldrb	r3, [r0, #67]	@ zero_extendqisi2
	.loc 1 906 6 discriminator 14 view .LVU896
	cmp	r3, #1
	bne	.L251
	.loc 1 912 3 is_stmt 1 discriminator 4 view .LVU897
	cmp	r1, #8
	beq	.L227
	.loc 1 912 3 is_stmt 0 discriminator 7 view .LVU898
	cmp	r1, #12
	beq	.L229
	.loc 1 912 3 discriminator 10 view .LVU899
	cmp	r1, #16
	beq	.L259
	.loc 1 912 3 discriminator 13 view .LVU900
	movs	r2, #2
	subs	r3, r1, #4
	strb	r2, [r0, #67]
	.loc 1 914 3 is_stmt 1 discriminator 13 view .LVU901
	cmp	r3, #8
	bhi	.L251
	adr	r2, .L239
	ldr	pc, [r2, r3, lsl #2]
	.p2align 2
.L239:
	.word	.L233+1
	.word	.L251+1
	.word	.L251+1
	.word	.L251+1
	.word	.L235+1
	.word	.L251+1
	.word	.L251+1
	.word	.L251+1
	.word	.L237+1
	.p2align 1
.L263:
	.loc 1 906 7 is_stmt 0 discriminator 7 view .LVU902
	ldrb	r3, [r0, #64]	@ zero_extendqisi2
	.loc 1 906 6 discriminator 7 view .LVU903
	cmp	r3, #1
	bne	.L251
.L227:
	.loc 1 912 3 discriminator 6 view .LVU904
	movs	r3, #2
	strb	r3, [r0, #64]
	.loc 1 914 3 is_stmt 1 discriminator 6 view .LVU905
.L235:
	.loc 1 933 7 view .LVU906
	ldr	r3, [r0]
	ldr	r2, [r3, #12]
	orr	r2, r2, #8
	str	r2, [r3, #12]
	.loc 1 934 7 view .LVU907
	.loc 1 949 3 view .LVU908
	b	.L232
.L262:
	.loc 1 906 7 is_stmt 0 discriminator 4 view .LVU909
	ldrb	r3, [r0, #63]	@ zero_extendqisi2
	.loc 1 906 6 discriminator 4 view .LVU910
	cmp	r3, #1
	bne	.L251
	.loc 1 912 3 discriminator 3 view .LVU911
	movs	r3, #2
	strb	r3, [r0, #63]
	.loc 1 914 3 is_stmt 1 discriminator 3 view .LVU912
.L233:
	.loc 1 926 7 view .LVU913
	ldr	r3, [r0]
	ldr	r2, [r3, #12]
	orr	r2, r2, #4
	str	r2, [r3, #12]
	.loc 1 927 7 view .LVU914
	.loc 1 949 3 view .LVU915
	b	.L232
.L229:
	.loc 1 912 3 is_stmt 0 discriminator 9 view .LVU916
	movs	r3, #2
	strb	r3, [r0, #65]
	.loc 1 914 3 is_stmt 1 discriminator 9 view .LVU917
.L237:
	.loc 1 940 7 view .LVU918
	ldr	r3, [r0]
	ldr	r2, [r3, #12]
	orr	r2, r2, #16
	str	r2, [r3, #12]
	.loc 1 941 7 view .LVU919
	.loc 1 949 3 view .LVU920
	b	.L232
.LVL190:
.L240:
	.loc 1 957 7 view .LVU921
	ldr	r2, [r3, #68]
	orr	r2, r2, #32768
	str	r2, [r3, #68]
	.loc 1 961 5 view .LVU922
	b	.L242
.LVL191:
.L264:
	.loc 1 906 7 is_stmt 0 discriminator 13 view .LVU923
	ldrb	r3, [r0, #66]	@ zero_extendqisi2
	.loc 1 906 6 discriminator 13 view .LVU924
	cmp	r3, #1
	bne	.L251
.L259:
	.loc 1 912 3 discriminator 12 view .LVU925
	movs	r3, #2
	strb	r3, [r0, #66]
	.loc 1 914 3 is_stmt 1 discriminator 12 view .LVU926
	.loc 1 945 14 is_stmt 0 discriminator 12 view .LVU927
	movs	r0, #1
.LVL192:
	.loc 1 945 14 discriminator 12 view .LVU928
	bx	lr
.L266:
	.align	2
.L265:
	.word	1073818624
	.word	1073742848
	.word	65543
	.cfi_endproc
.LFE148:
	.size	HAL_TIM_OC_Start_IT, .-HAL_TIM_OC_Start_IT
	.section	.text.HAL_TIM_OC_Stop_IT,"ax",%progbits
	.align	1
	.p2align 2,,3
	.global	HAL_TIM_OC_Stop_IT
	.syntax unified
	.thumb
	.thumb_func
	.fpu fpv4-sp-d16
	.type	HAL_TIM_OC_Stop_IT, %function
HAL_TIM_OC_Stop_IT:
.LVL193:
.LFB149:
	.loc 1 991 1 is_stmt 1 view -0
	.cfi_startproc
	@ args = 0, pretend = 0, frame = 0
	@ frame_needed = 0, uses_anonymous_args = 0
	@ link register save eliminated.
	.loc 1 992 3 view .LVU930
	.loc 1 995 3 view .LVU931
	.loc 1 997 3 view .LVU932
	cmp	r1, #12
	bhi	.L283
	tbb	[pc, r1]
.L270:
	.byte	(.L273-.L270)/2
	.byte	(.L283-.L270)/2
	.byte	(.L283-.L270)/2
	.byte	(.L283-.L270)/2
	.byte	(.L272-.L270)/2
	.byte	(.L283-.L270)/2
	.byte	(.L283-.L270)/2
	.byte	(.L283-.L270)/2
	.byte	(.L271-.L270)/2
	.byte	(.L283-.L270)/2
	.byte	(.L283-.L270)/2
	.byte	(.L283-.L270)/2
	.byte	(.L269-.L270)/2
	.p2align 1
.L283:
	movs	r0, #1
.LVL194:
	.loc 1 1051 3 view .LVU933
	.loc 1 1052 1 is_stmt 0 view .LVU934
	bx	lr
.LVL195:
.L269:
	.loc 1 1023 7 is_stmt 1 view .LVU935
	ldr	r3, [r0]
	ldr	r2, [r3, #12]
	bic	r2, r2, #16
	str	r2, [r3, #12]
	.loc 1 1024 7 view .LVU936
	.loc 1 1032 3 view .LVU937
.L274:
	.loc 1 1035 5 view .LVU938
.LVL196:
.LBB182:
.LBI182:
	.loc 1 8063 6 view .LVU939
.LBB183:
	.loc 1 8065 3 view .LVU940
	.loc 1 8068 3 view .LVU941
	.loc 1 8069 3 view .LVU942
	.loc 1 8071 3 view .LVU943
	.loc 1 8074 3 view .LVU944
	.loc 1 8074 14 is_stmt 0 view .LVU945
	ldr	r2, [r3, #32]
.LBE183:
.LBE182:
	.loc 1 991 1 view .LVU946
	push	{r4}
.LCFI22:
	.cfi_def_cfa_offset 4
	.cfi_offset 4, -4
.LBB186:
.LBB184:
	.loc 1 8071 7 view .LVU947
	mov	ip, #1
	.loc 1 8071 35 view .LVU948
	and	r4, r1, #31
	.loc 1 8071 7 view .LVU949
	lsl	ip, ip, r4
.LVL197:
	.loc 1 8074 14 view .LVU950
	bic	r2, r2, ip
	str	r2, [r3, #32]
	.loc 1 8077 3 is_stmt 1 view .LVU951
.LBE184:
.LBE186:
	.loc 1 1037 9 is_stmt 0 view .LVU952
	ldr	r2, .L290
.LBB187:
.LBB185:
	.loc 1 8077 14 view .LVU953
	ldr	r4, [r3, #32]
	str	r4, [r3, #32]
.LVL198:
	.loc 1 8077 14 view .LVU954
.LBE185:
.LBE187:
	.loc 1 1037 5 is_stmt 1 view .LVU955
	.loc 1 1037 9 is_stmt 0 view .LVU956
	cmp	r3, r2
	beq	.L275
	.loc 1 1037 9 discriminator 2 view .LVU957
	add	r2, r2, #2048
	cmp	r3, r2
	beq	.L275
	.loc 1 1037 9 discriminator 4 view .LVU958
	add	r2, r2, #3072
	cmp	r3, r2
	beq	.L275
	.loc 1 1037 9 discriminator 6 view .LVU959
	add	r2, r2, #1024
	cmp	r3, r2
	beq	.L275
	.loc 1 1037 9 discriminator 8 view .LVU960
	add	r2, r2, #1024
	cmp	r3, r2
	beq	.L275
.L276:
	.loc 1 1040 7 is_stmt 1 discriminator 5 view .LVU961
	.loc 1 1044 5 discriminator 5 view .LVU962
	.loc 1 1044 5 discriminator 5 view .LVU963
	ldr	r4, [r3, #32]
	movw	r2, #4369
	tst	r4, r2
	bne	.L277
	.loc 1 1044 5 discriminator 1 view .LVU964
	ldr	r4, [r3, #32]
	movw	r2, #17476
	tst	r4, r2
	bne	.L277
	.loc 1 1044 5 discriminator 3 view .LVU965
	ldr	r2, [r3]
	bic	r2, r2, #1
	str	r2, [r3]
.L277:
	.loc 1 1044 5 discriminator 5 view .LVU966
	.loc 1 1047 5 discriminator 5 view .LVU967
	movs	r3, #1
	cbnz	r1, .L278
	.loc 1 1047 5 is_stmt 0 discriminator 1 view .LVU968
	strb	r3, [r0, #62]
	mov	r0, r1
.LVL199:
.L268:
	.loc 1 1051 3 is_stmt 1 view .LVU969
	.loc 1 1052 1 is_stmt 0 view .LVU970
	ldr	r4, [sp], #4
.LCFI23:
	.cfi_restore 4
	.cfi_def_cfa_offset 0
	bx	lr
.LVL200:
.L271:
	.loc 1 1016 7 is_stmt 1 view .LVU971
	ldr	r3, [r0]
	ldr	r2, [r3, #12]
	bic	r2, r2, #8
	str	r2, [r3, #12]
	.loc 1 1017 7 view .LVU972
	.loc 1 1032 3 view .LVU973
	b	.L274
.L272:
	.loc 1 1009 7 view .LVU974
	ldr	r3, [r0]
	ldr	r2, [r3, #12]
	bic	r2, r2, #4
	str	r2, [r3, #12]
	.loc 1 1010 7 view .LVU975
	.loc 1 1032 3 view .LVU976
	b	.L274
.L273:
	.loc 1 1002 7 view .LVU977
	ldr	r3, [r0]
	ldr	r2, [r3, #12]
	bic	r2, r2, #2
	str	r2, [r3, #12]
	.loc 1 1003 7 view .LVU978
	.loc 1 1032 3 view .LVU979
	b	.L274
.L275:
.LCFI24:
	.cfi_def_cfa_offset 4
	.cfi_offset 4, -4
	.loc 1 1040 7 view .LVU980
	.loc 1 1040 7 view .LVU981
	ldr	r4, [r3, #32]
	movw	r2, #4369
	tst	r4, r2
	bne	.L276
	.loc 1 1040 7 discriminator 1 view .LVU982
	ldr	r4, [r3, #32]
	movw	r2, #17476
	tst	r4, r2
	bne	.L276
	.loc 1 1040 7 discriminator 3 view .LVU983
	ldr	r2, [r3, #68]
	bic	r2, r2, #32768
	str	r2, [r3, #68]
	b	.L276
.L278:
	.loc 1 1047 5 is_stmt 0 discriminator 2 view .LVU984
	cmp	r1, #4
	beq	.L287
	.loc 1 1047 5 discriminator 4 view .LVU985
	cmp	r1, #8
	beq	.L288
	.loc 1 1047 5 discriminator 7 view .LVU986
	cmp	r1, #12
	beq	.L289
	.loc 1 1047 5 discriminator 10 view .LVU987
	cmp	r1, #16
	ite	eq
	strbeq	r3, [r0, #66]
	strbne	r3, [r0, #67]
	.loc 1 1052 1 discriminator 10 view .LVU988
	ldr	r4, [sp], #4
.LCFI25:
	.cfi_remember_state
	.cfi_restore 4
	.cfi_def_cfa_offset 0
	.loc 1 1047 5 discriminator 10 view .LVU989
	movs	r0, #0
.LVL201:
	.loc 1 1051 3 is_stmt 1 discriminator 10 view .LVU990
	.loc 1 1052 1 is_stmt 0 discriminator 10 view .LVU991
	bx	lr
.LVL202:
.L288:
.LCFI26:
	.cfi_restore_state
	.loc 1 1047 5 discriminator 6 view .LVU992
	strb	r3, [r0, #64]
	movs	r0, #0
.LVL203:
	.loc 1 1047 5 discriminator 6 view .LVU993
	b	.L268
.LVL204:
.L287:
	.loc 1 1047 5 discriminator 3 view .LVU994
	strb	r3, [r0, #63]
	.loc 1 1052 1 discriminator 3 view .LVU995
	ldr	r4, [sp], #4
.LCFI27:
	.cfi_remember_state
	.cfi_restore 4
	.cfi_def_cfa_offset 0
	movs	r0, #0
.LVL205:
	.loc 1 1051 3 is_stmt 1 discriminator 3 view .LVU996
	.loc 1 1052 1 is_stmt 0 discriminator 3 view .LVU997
	bx	lr
.LVL206:
.L289:
.LCFI28:
	.cfi_restore_state
	.loc 1 1047 5 discriminator 9 view .LVU998
	strb	r3, [r0, #65]
	movs	r0, #0
.LVL207:
	.loc 1 1047 5 discriminator 9 view .LVU999
	b	.L268
.L291:
	.align	2
.L290:
	.word	1073818624
	.cfi_endproc
.LFE149:
	.size	HAL_TIM_OC_Stop_IT, .-HAL_TIM_OC_Stop_IT
	.section	.text.HAL_TIM_OC_Start_DMA,"ax",%progbits
	.align	1
	.p2align 2,,3
	.global	HAL_TIM_OC_Start_DMA
	.syntax unified
	.thumb
	.thumb_func
	.fpu fpv4-sp-d16
	.type	HAL_TIM_OC_Start_DMA, %function
HAL_TIM_OC_Start_DMA:
.LVL208:
.LFB150:
	.loc 1 1069 1 is_stmt 1 view -0
	.cfi_startproc
	@ args = 0, pretend = 0, frame = 0
	@ frame_needed = 0, uses_anonymous_args = 0
	.loc 1 1070 3 view .LVU1001
	.loc 1 1071 3 view .LVU1002
	.loc 1 1074 3 view .LVU1003
	.loc 1 1077 3 view .LVU1004
	.loc 1 1069 1 is_stmt 0 view .LVU1005
	push	{r4, r5, r6, lr}
.LCFI29:
	.cfi_def_cfa_offset 16
	.cfi_offset 4, -16
	.cfi_offset 5, -12
	.cfi_offset 6, -8
	.cfi_offset 14, -4
	.loc 1 1069 1 view .LVU1006
	mov	r5, r0
	.loc 1 1077 44 view .LVU1007
	mov	r4, r1
	cmp	r1, #0
	bne	.L293
	.loc 1 1077 7 discriminator 1 view .LVU1008
	ldrb	r0, [r0, #62]	@ zero_extendqisi2
.LVL209:
	.loc 1 1077 44 discriminator 1 view .LVU1009
	sub	r0, #2
	clz	r0, r0
	lsrs	r0, r0, #5
.L294:
	.loc 1 1077 6 view .LVU1010
	cbnz	r0, .L346
	.loc 1 1081 8 is_stmt 1 view .LVU1011
	.loc 1 1081 49 is_stmt 0 view .LVU1012
	cbz	r4, .L347
	.loc 1 1081 49 discriminator 2 view .LVU1013
	cmp	r4, #4
	beq	.L348
	.loc 1 1081 49 discriminator 5 view .LVU1014
	cmp	r4, #8
	beq	.L349
	.loc 1 1081 49 discriminator 8 view .LVU1015
	cmp	r4, #12
	beq	.L350
	.loc 1 1081 49 discriminator 11 view .LVU1016
	cmp	r4, #16
	beq	.L351
	.loc 1 1081 12 discriminator 14 view .LVU1017
	ldrb	r1, [r5, #67]	@ zero_extendqisi2
.LVL210:
	.loc 1 1081 11 discriminator 14 view .LVU1018
	cmp	r1, #1
	bne	.L345
.L305:
	.loc 1 1083 5 is_stmt 1 view .LVU1019
	.loc 1 1083 8 is_stmt 0 view .LVU1020
	cbz	r2, .L345
	.loc 1 1083 25 discriminator 1 view .LVU1021
	cbz	r3, .L345
	.loc 1 1089 7 is_stmt 1 view .LVU1022
	cmp	r4, #0
	beq	.L352
	.loc 1 1089 7 is_stmt 0 discriminator 2 view .LVU1023
	cmp	r4, #4
	beq	.L353
	.loc 1 1089 7 discriminator 4 view .LVU1024
	cmp	r4, #8
	beq	.L354
	.loc 1 1089 7 discriminator 7 view .LVU1025
	cmp	r4, #12
	beq	.L355
	.loc 1 1089 7 discriminator 10 view .LVU1026
	cmp	r4, #16
	beq	.L356
	.loc 1 1089 7 discriminator 13 view .LVU1027
	movs	r1, #2
	strb	r1, [r5, #67]
	.loc 1 1097 3 is_stmt 1 discriminator 13 view .LVU1028
	subs	r1, r4, #4
	cmp	r1, #8
	bhi	.L345
	tbh	[pc, r1, lsl #1]
.L317:
	.2byte	(.L311-.L317)/2
	.2byte	(.L345-.L317)/2
	.2byte	(.L345-.L317)/2
	.2byte	(.L345-.L317)/2
	.2byte	(.L313-.L317)/2
	.2byte	(.L345-.L317)/2
	.2byte	(.L345-.L317)/2
	.2byte	(.L345-.L317)/2
	.2byte	(.L315-.L317)/2
.LVL211:
	.p2align 1
.L346:
	.loc 1 1079 12 is_stmt 0 view .LVU1029
	movs	r0, #2
.LVL212:
	.loc 1 1218 1 view .LVU1030
	pop	{r4, r5, r6, pc}
.LVL213:
.L347:
	.loc 1 1081 12 discriminator 1 view .LVU1031
	ldrb	r1, [r5, #62]	@ zero_extendqisi2
.LVL214:
	.loc 1 1081 49 discriminator 1 view .LVU1032
	sub	r1, #1
	clz	r1, r1
	lsrs	r1, r1, #5
	.loc 1 1081 11 discriminator 1 view .LVU1033
	cmp	r1, #0
	bne	.L305
.LVL215:
.L345:
	.loc 1 1097 3 is_stmt 1 discriminator 12 view .LVU1034
	.loc 1 1186 14 is_stmt 0 discriminator 12 view .LVU1035
	movs	r0, #1
	.loc 1 1218 1 discriminator 12 view .LVU1036
	pop	{r4, r5, r6, pc}
.LVL216:
.L293:
	.loc 1 1077 44 discriminator 2 view .LVU1037
	cmp	r1, #4
	beq	.L357
	.loc 1 1077 44 discriminator 5 view .LVU1038
	cmp	r1, #8
	beq	.L358
	.loc 1 1077 44 discriminator 8 view .LVU1039
	cmp	r1, #12
	beq	.L359
	.loc 1 1077 44 discriminator 11 view .LVU1040
	cmp	r1, #16
	.loc 1 1077 7 discriminator 11 view .LVU1041
	ite	eq
	ldrbeq	r0, [r0, #66]	@ zero_extendqisi2
.LVL217:
	.loc 1 1077 7 discriminator 11 view .LVU1042
	ldrbne	r0, [r5, #67]	@ zero_extendqisi2
	.loc 1 1077 44 discriminator 11 view .LVU1043
	sub	r0, #2
	clz	r0, r0
	lsrs	r0, r0, #5
	b	.L294
.LVL218:
.L352:
	.loc 1 1102 17 discriminator 1 view .LVU1044
	ldr	r0, [r5, #36]
	.loc 1 1102 52 discriminator 1 view .LVU1045
	ldr	r6, .L360
	.loc 1 1089 7 discriminator 1 view .LVU1046
	movs	r1, #2
	strb	r1, [r5, #62]
	.loc 1 1097 3 is_stmt 1 discriminator 1 view .LVU1047
	.loc 1 1102 7 discriminator 1 view .LVU1048
	.loc 1 1109 11 is_stmt 0 discriminator 1 view .LVU1049
	mov	r1, r2
	.loc 1 1109 83 discriminator 1 view .LVU1050
	ldr	r2, [r5]
.LVL219:
	.loc 1 1102 52 discriminator 1 view .LVU1051
	str	r6, [r0, #44]
	.loc 1 1103 7 is_stmt 1 discriminator 1 view .LVU1052
	.loc 1 1103 56 is_stmt 0 discriminator 1 view .LVU1053
	ldr	r6, .L360+4
	str	r6, [r0, #48]
	.loc 1 1106 7 is_stmt 1 discriminator 1 view .LVU1054
	.loc 1 1106 53 is_stmt 0 discriminator 1 view .LVU1055
	ldr	r6, .L360+8
	str	r6, [r0, #52]
	.loc 1 1109 7 is_stmt 1 discriminator 1 view .LVU1056
	.loc 1 1109 11 is_stmt 0 discriminator 1 view .LVU1057
	adds	r2, r2, #52
	bl	HAL_DMA_Start_IT
.LVL220:
	.loc 1 1109 10 discriminator 1 view .LVU1058
	cmp	r0, #0
	bne	.L345
	.loc 1 1117 7 is_stmt 1 view .LVU1059
	ldr	r3, [r5]
	ldr	r2, [r3, #12]
	orr	r2, r2, #512
	str	r2, [r3, #12]
	.loc 1 1118 7 view .LVU1060
	.loc 1 1190 3 view .LVU1061
.L318:
	.loc 1 1193 5 view .LVU1062
.LVL221:
.LBB190:
.LBI190:
	.loc 1 8063 6 view .LVU1063
.LBB191:
	.loc 1 8065 3 view .LVU1064
	.loc 1 8068 3 view .LVU1065
	.loc 1 8069 3 view .LVU1066
	.loc 1 8071 3 view .LVU1067
	.loc 1 8074 14 is_stmt 0 view .LVU1068
	ldr	r0, [r3, #32]
	.loc 1 8071 7 view .LVU1069
	movs	r2, #1
	.loc 1 8071 35 view .LVU1070
	and	r4, r4, #31
.LVL222:
	.loc 1 8071 7 view .LVU1071
	lsl	r4, r2, r4
.LVL223:
	.loc 1 8074 3 is_stmt 1 view .LVU1072
	.loc 1 8074 14 is_stmt 0 view .LVU1073
	bic	r0, r0, r4
	str	r0, [r3, #32]
	.loc 1 8077 3 is_stmt 1 view .LVU1074
	.loc 1 8077 14 is_stmt 0 view .LVU1075
	ldr	r1, [r3, #32]
.LBE191:
.LBE190:
	.loc 1 1195 9 view .LVU1076
	ldr	r2, .L360+12
.LBB194:
.LBB192:
	.loc 1 8077 14 view .LVU1077
	orrs	r4, r4, r1
.LVL224:
	.loc 1 8077 14 view .LVU1078
.LBE192:
.LBE194:
	.loc 1 1195 9 view .LVU1079
	cmp	r3, r2
.LBB195:
.LBB193:
	.loc 1 8077 14 view .LVU1080
	str	r4, [r3, #32]
.LVL225:
	.loc 1 8077 14 view .LVU1081
.LBE193:
.LBE195:
	.loc 1 1195 5 is_stmt 1 view .LVU1082
	.loc 1 1195 9 is_stmt 0 view .LVU1083
	beq	.L319
	.loc 1 1195 9 discriminator 2 view .LVU1084
	add	r2, r2, #2048
	cmp	r3, r2
	beq	.L320
	.loc 1 1195 9 discriminator 4 view .LVU1085
	add	r2, r2, #3072
	cmp	r3, r2
	beq	.L320
	.loc 1 1195 9 discriminator 6 view .LVU1086
	add	r2, r2, #1024
	cmp	r3, r2
	beq	.L320
	.loc 1 1195 9 discriminator 8 view .LVU1087
	add	r2, r2, #1024
	cmp	r3, r2
	bne	.L323
.L320:
	.loc 1 1198 7 is_stmt 1 view .LVU1088
	ldr	r2, [r3, #68]
	orr	r2, r2, #32768
	str	r2, [r3, #68]
	.loc 1 1202 5 view .LVU1089
.L323:
	.loc 1 1202 9 is_stmt 0 discriminator 1 view .LVU1090
	cmp	r3, #1073741824
	beq	.L321
	.loc 1 1202 9 discriminator 2 view .LVU1091
	ldr	r2, .L360+16
	cmp	r3, r2
	beq	.L321
	.loc 1 1202 9 discriminator 3 view .LVU1092
	add	r2, r2, #1024
	cmp	r3, r2
	beq	.L321
	.loc 1 1202 9 discriminator 4 view .LVU1093
	add	r2, r2, #76800
	cmp	r3, r2
	beq	.L321
	.loc 1 1202 9 discriminator 5 view .LVU1094
	add	r2, r2, #3072
	cmp	r3, r2
	bne	.L322
.L321:
	.loc 1 1204 7 is_stmt 1 view .LVU1095
	.loc 1 1204 31 is_stmt 0 view .LVU1096
	ldr	r1, [r3, #8]
	.loc 1 1204 15 view .LVU1097
	ldr	r2, .L360+20
	ands	r2, r2, r1
.LVL226:
	.loc 1 1205 7 is_stmt 1 view .LVU1098
	.loc 1 1205 10 is_stmt 0 view .LVU1099
	cmp	r2, #6
	beq	.L327
	.loc 1 1205 11 discriminator 1 view .LVU1100
	cmp	r2, #65536
	beq	.L327
.LVL227:
.L322:
	.loc 1 1212 7 is_stmt 1 view .LVU1101
	ldr	r2, [r3]
	orr	r2, r2, #1
	movs	r0, #0
	str	r2, [r3]
	.loc 1 1218 1 is_stmt 0 view .LVU1102
	pop	{r4, r5, r6, pc}
.LVL228:
.L349:
	.loc 1 1081 12 discriminator 7 view .LVU1103
	ldrb	r1, [r5, #64]	@ zero_extendqisi2
.LVL229:
	.loc 1 1081 49 discriminator 7 view .LVU1104
	sub	r1, #1
	clz	r1, r1
	lsrs	r1, r1, #5
	.loc 1 1081 11 discriminator 7 view .LVU1105
	cmp	r1, #0
	bne	.L305
	b	.L345
.LVL230:
.L359:
	.loc 1 1077 7 discriminator 10 view .LVU1106
	ldrb	r0, [r0, #65]	@ zero_extendqisi2
.LVL231:
	.loc 1 1077 44 discriminator 10 view .LVU1107
	sub	r0, #2
	clz	r0, r0
	lsrs	r0, r0, #5
	b	.L294
.LVL232:
.L357:
	.loc 1 1077 7 discriminator 4 view .LVU1108
	ldrb	r0, [r0, #63]	@ zero_extendqisi2
.LVL233:
	.loc 1 1077 44 discriminator 4 view .LVU1109
	sub	r0, #2
	clz	r0, r0
	lsrs	r0, r0, #5
	b	.L294
.L348:
	.loc 1 1081 12 discriminator 4 view .LVU1110
	ldrb	r1, [r5, #63]	@ zero_extendqisi2
.LVL234:
	.loc 1 1081 49 discriminator 4 view .LVU1111
	sub	r1, #1
	clz	r1, r1
	lsrs	r1, r1, #5
	.loc 1 1081 11 discriminator 4 view .LVU1112
	cmp	r1, #0
	bne	.L305
	b	.L345
.LVL235:
.L358:
	.loc 1 1077 7 discriminator 7 view .LVU1113
	ldrb	r0, [r0, #64]	@ zero_extendqisi2
.LVL236:
	.loc 1 1077 44 discriminator 7 view .LVU1114
	sub	r0, #2
	clz	r0, r0
	lsrs	r0, r0, #5
	b	.L294
.LVL237:
.L327:
	.loc 1 1077 44 discriminator 7 view .LVU1115
	movs	r0, #0
	.loc 1 1218 1 view .LVU1116
	pop	{r4, r5, r6, pc}
.LVL238:
.L350:
	.loc 1 1081 12 discriminator 10 view .LVU1117
	ldrb	r1, [r5, #65]	@ zero_extendqisi2
.LVL239:
	.loc 1 1081 49 discriminator 10 view .LVU1118
	sub	r1, #1
	clz	r1, r1
	lsrs	r1, r1, #5
	.loc 1 1081 11 discriminator 10 view .LVU1119
	cmp	r1, #0
	bne	.L305
	b	.L345
.L355:
	.loc 1 1089 7 discriminator 9 view .LVU1120
	movs	r1, #2
	strb	r1, [r5, #65]
	.loc 1 1097 3 is_stmt 1 discriminator 9 view .LVU1121
.L315:
	.loc 1 1167 7 view .LVU1122
	.loc 1 1167 17 is_stmt 0 view .LVU1123
	ldr	r0, [r5, #48]
	.loc 1 1167 52 view .LVU1124
	ldr	r6, .L360
	.loc 1 1174 11 view .LVU1125
	mov	r1, r2
	.loc 1 1174 83 view .LVU1126
	ldr	r2, [r5]
.LVL240:
	.loc 1 1167 52 view .LVU1127
	str	r6, [r0, #44]
	.loc 1 1168 7 is_stmt 1 view .LVU1128
	.loc 1 1168 56 is_stmt 0 view .LVU1129
	ldr	r6, .L360+4
	str	r6, [r0, #48]
	.loc 1 1171 7 is_stmt 1 view .LVU1130
	.loc 1 1171 53 is_stmt 0 view .LVU1131
	ldr	r6, .L360+8
	str	r6, [r0, #52]
	.loc 1 1174 7 is_stmt 1 view .LVU1132
	.loc 1 1174 11 is_stmt 0 view .LVU1133
	adds	r2, r2, #64
	bl	HAL_DMA_Start_IT
.LVL241:
	.loc 1 1174 10 view .LVU1134
	cmp	r0, #0
	bne	.L345
	.loc 1 1181 7 is_stmt 1 view .LVU1135
	ldr	r3, [r5]
	ldr	r2, [r3, #12]
	orr	r2, r2, #4096
	str	r2, [r3, #12]
	.loc 1 1182 7 view .LVU1136
	.loc 1 1190 3 view .LVU1137
	b	.L318
.LVL242:
.L354:
	.loc 1 1089 7 is_stmt 0 discriminator 6 view .LVU1138
	movs	r1, #2
	strb	r1, [r5, #64]
	.loc 1 1097 3 is_stmt 1 discriminator 6 view .LVU1139
.L313:
	.loc 1 1146 7 view .LVU1140
	.loc 1 1146 17 is_stmt 0 view .LVU1141
	ldr	r0, [r5, #44]
	.loc 1 1146 52 view .LVU1142
	ldr	r6, .L360
	.loc 1 1153 11 view .LVU1143
	mov	r1, r2
	.loc 1 1153 83 view .LVU1144
	ldr	r2, [r5]
.LVL243:
	.loc 1 1146 52 view .LVU1145
	str	r6, [r0, #44]
	.loc 1 1147 7 is_stmt 1 view .LVU1146
	.loc 1 1147 56 is_stmt 0 view .LVU1147
	ldr	r6, .L360+4
	str	r6, [r0, #48]
	.loc 1 1150 7 is_stmt 1 view .LVU1148
	.loc 1 1150 53 is_stmt 0 view .LVU1149
	ldr	r6, .L360+8
	str	r6, [r0, #52]
	.loc 1 1153 7 is_stmt 1 view .LVU1150
	.loc 1 1153 11 is_stmt 0 view .LVU1151
	adds	r2, r2, #60
	bl	HAL_DMA_Start_IT
.LVL244:
	.loc 1 1153 10 view .LVU1152
	cmp	r0, #0
	bne	.L345
	.loc 1 1160 7 is_stmt 1 view .LVU1153
	ldr	r3, [r5]
	ldr	r2, [r3, #12]
	orr	r2, r2, #2048
	str	r2, [r3, #12]
	.loc 1 1161 7 view .LVU1154
	.loc 1 1190 3 view .LVU1155
	b	.L318
.LVL245:
.L353:
	.loc 1 1089 7 is_stmt 0 discriminator 3 view .LVU1156
	movs	r1, #2
	strb	r1, [r5, #63]
	.loc 1 1097 3 is_stmt 1 discriminator 3 view .LVU1157
.L311:
	.loc 1 1124 7 view .LVU1158
	.loc 1 1124 17 is_stmt 0 view .LVU1159
	ldr	r0, [r5, #40]
	.loc 1 1124 52 view .LVU1160
	ldr	r6, .L360
	.loc 1 1131 11 view .LVU1161
	mov	r1, r2
	.loc 1 1131 83 view .LVU1162
	ldr	r2, [r5]
.LVL246:
	.loc 1 1124 52 view .LVU1163
	str	r6, [r0, #44]
	.loc 1 1125 7 is_stmt 1 view .LVU1164
	.loc 1 1125 56 is_stmt 0 view .LVU1165
	ldr	r6, .L360+4
	str	r6, [r0, #48]
	.loc 1 1128 7 is_stmt 1 view .LVU1166
	.loc 1 1128 53 is_stmt 0 view .LVU1167
	ldr	r6, .L360+8
	str	r6, [r0, #52]
	.loc 1 1131 7 is_stmt 1 view .LVU1168
	.loc 1 1131 11 is_stmt 0 view .LVU1169
	adds	r2, r2, #56
	bl	HAL_DMA_Start_IT
.LVL247:
	.loc 1 1131 10 view .LVU1170
	cmp	r0, #0
	bne	.L345
	.loc 1 1139 7 is_stmt 1 view .LVU1171
	ldr	r3, [r5]
	ldr	r2, [r3, #12]
	orr	r2, r2, #1024
	str	r2, [r3, #12]
	.loc 1 1140 7 view .LVU1172
	.loc 1 1190 3 view .LVU1173
	b	.L318
.LVL248:
.L319:
	.loc 1 1198 7 view .LVU1174
	ldr	r2, [r3, #68]
	orr	r2, r2, #32768
	str	r2, [r3, #68]
	.loc 1 1202 5 view .LVU1175
	b	.L321
.LVL249:
.L351:
	.loc 1 1081 12 is_stmt 0 discriminator 13 view .LVU1176
	ldrb	r1, [r5, #66]	@ zero_extendqisi2
.LVL250:
	.loc 1 1081 49 discriminator 13 view .LVU1177
	sub	r1, #1
	clz	r1, r1
	lsrs	r1, r1, #5
	.loc 1 1081 11 discriminator 13 view .LVU1178
	cmp	r1, #0
	bne	.L305
	b	.L345
.L356:
	.loc 1 1089 7 discriminator 12 view .LVU1179
	movs	r3, #2
.LVL251:
	.loc 1 1089 7 discriminator 12 view .LVU1180
	strb	r3, [r5, #66]
	b	.L345
.L361:
	.align	2
.L360:
	.word	TIM_DMADelayPulseCplt
	.word	TIM_DMADelayPulseHalfCplt
	.word	TIM_DMAError
	.word	1073818624
	.word	1073742848
	.word	65543
	.cfi_endproc
.LFE150:
	.size	HAL_TIM_OC_Start_DMA, .-HAL_TIM_OC_Start_DMA
	.section	.text.HAL_TIM_OC_Stop_DMA,"ax",%progbits
	.align	1
	.p2align 2,,3
	.global	HAL_TIM_OC_Stop_DMA
	.syntax unified
	.thumb
	.thumb_func
	.fpu fpv4-sp-d16
	.type	HAL_TIM_OC_Stop_DMA, %function
HAL_TIM_OC_Stop_DMA:
.LVL252:
.LFB151:
	.loc 1 1232 1 is_stmt 1 view -0
	.cfi_startproc
	@ args = 0, pretend = 0, frame = 0
	@ frame_needed = 0, uses_anonymous_args = 0
	.loc 1 1233 3 view .LVU1182
	.loc 1 1236 3 view .LVU1183
	.loc 1 1238 3 view .LVU1184
	.loc 1 1232 1 is_stmt 0 view .LVU1185
	push	{r3, r4, r5, lr}
.LCFI30:
	.cfi_def_cfa_offset 16
	.cfi_offset 3, -16
	.cfi_offset 4, -12
	.cfi_offset 5, -8
	.cfi_offset 14, -4
	.loc 1 1232 1 view .LVU1186
	mov	r4, r1
	mov	r5, r0
	cmp	r1, #12
	bhi	.L378
	tbb	[pc, r1]
.L365:
	.byte	(.L368-.L365)/2
	.byte	(.L378-.L365)/2
	.byte	(.L378-.L365)/2
	.byte	(.L378-.L365)/2
	.byte	(.L367-.L365)/2
	.byte	(.L378-.L365)/2
	.byte	(.L378-.L365)/2
	.byte	(.L378-.L365)/2
	.byte	(.L366-.L365)/2
	.byte	(.L378-.L365)/2
	.byte	(.L378-.L365)/2
	.byte	(.L378-.L365)/2
	.byte	(.L364-.L365)/2
	.p2align 1
.L378:
	movs	r0, #1
.LVL253:
	.loc 1 1296 3 is_stmt 1 view .LVU1187
	.loc 1 1297 1 is_stmt 0 view .LVU1188
	pop	{r3, r4, r5, pc}
.LVL254:
.L364:
	.loc 1 1267 7 is_stmt 1 view .LVU1189
	ldr	r2, [r0]
	.loc 1 1268 13 is_stmt 0 view .LVU1190
	ldr	r0, [r0, #48]
.LVL255:
	.loc 1 1267 7 view .LVU1191
	ldr	r3, [r2, #12]
	bic	r3, r3, #4096
	str	r3, [r2, #12]
	.loc 1 1268 7 is_stmt 1 view .LVU1192
	.loc 1 1268 13 is_stmt 0 view .LVU1193
	bl	HAL_DMA_Abort_IT
.LVL256:
	.loc 1 1269 7 is_stmt 1 view .LVU1194
	.loc 1 1277 3 view .LVU1195
.L369:
	.loc 1 1280 5 view .LVU1196
	ldr	r3, [r5]
.LVL257:
.LBB198:
.LBI198:
	.loc 1 8063 6 view .LVU1197
.LBB199:
	.loc 1 8065 3 view .LVU1198
	.loc 1 8068 3 view .LVU1199
	.loc 1 8069 3 view .LVU1200
	.loc 1 8071 3 view .LVU1201
	.loc 1 8074 3 view .LVU1202
	.loc 1 8071 35 is_stmt 0 view .LVU1203
	and	r0, r4, #31
	.loc 1 8074 14 view .LVU1204
	ldr	r2, [r3, #32]
	.loc 1 8071 7 view .LVU1205
	movs	r1, #1
	lsls	r1, r1, r0
.LVL258:
	.loc 1 8074 14 view .LVU1206
	bic	r2, r2, r1
	str	r2, [r3, #32]
	.loc 1 8077 3 is_stmt 1 view .LVU1207
.LBE199:
.LBE198:
	.loc 1 1282 9 is_stmt 0 view .LVU1208
	ldr	r2, .L383
.LBB201:
.LBB200:
	.loc 1 8077 14 view .LVU1209
	ldr	r1, [r3, #32]
.LVL259:
	.loc 1 8077 14 view .LVU1210
	str	r1, [r3, #32]
.LVL260:
	.loc 1 8077 14 view .LVU1211
.LBE200:
.LBE201:
	.loc 1 1282 5 is_stmt 1 view .LVU1212
	.loc 1 1282 9 is_stmt 0 view .LVU1213
	cmp	r3, r2
	beq	.L370
	.loc 1 1282 9 discriminator 2 view .LVU1214
	add	r2, r2, #2048
	cmp	r3, r2
	beq	.L370
	.loc 1 1282 9 discriminator 4 view .LVU1215
	add	r2, r2, #3072
	cmp	r3, r2
	beq	.L370
	.loc 1 1282 9 discriminator 6 view .LVU1216
	add	r2, r2, #1024
	cmp	r3, r2
	beq	.L370
	.loc 1 1282 9 discriminator 8 view .LVU1217
	add	r2, r2, #1024
	cmp	r3, r2
	beq	.L370
.L371:
	.loc 1 1285 7 is_stmt 1 discriminator 5 view .LVU1218
	.loc 1 1289 5 discriminator 5 view .LVU1219
	.loc 1 1289 5 discriminator 5 view .LVU1220
	ldr	r1, [r3, #32]
	movw	r2, #4369
	tst	r1, r2
	bne	.L372
	.loc 1 1289 5 discriminator 1 view .LVU1221
	ldr	r1, [r3, #32]
	movw	r2, #17476
	tst	r1, r2
	bne	.L372
	.loc 1 1289 5 discriminator 3 view .LVU1222
	ldr	r2, [r3]
	bic	r2, r2, #1
	str	r2, [r3]
.L372:
	.loc 1 1289 5 discriminator 5 view .LVU1223
	.loc 1 1292 5 discriminator 5 view .LVU1224
	movs	r3, #1
	cbnz	r4, .L373
	.loc 1 1292 5 is_stmt 0 discriminator 1 view .LVU1225
	strb	r3, [r5, #62]
	mov	r0, r4
.LVL261:
	.loc 1 1296 3 is_stmt 1 discriminator 1 view .LVU1226
	.loc 1 1297 1 is_stmt 0 discriminator 1 view .LVU1227
	pop	{r3, r4, r5, pc}
.LVL262:
.L366:
	.loc 1 1259 7 is_stmt 1 view .LVU1228
	ldr	r2, [r0]
	.loc 1 1260 13 is_stmt 0 view .LVU1229
	ldr	r0, [r0, #44]
.LVL263:
	.loc 1 1259 7 view .LVU1230
	ldr	r3, [r2, #12]
	bic	r3, r3, #2048
	str	r3, [r2, #12]
	.loc 1 1260 7 is_stmt 1 view .LVU1231
	.loc 1 1260 13 is_stmt 0 view .LVU1232
	bl	HAL_DMA_Abort_IT
.LVL264:
	.loc 1 1261 7 is_stmt 1 view .LVU1233
	.loc 1 1277 3 view .LVU1234
	b	.L369
.LVL265:
.L367:
	.loc 1 1251 7 view .LVU1235
	ldr	r2, [r0]
	.loc 1 1252 13 is_stmt 0 view .LVU1236
	ldr	r0, [r0, #40]
.LVL266:
	.loc 1 1251 7 view .LVU1237
	ldr	r3, [r2, #12]
	bic	r3, r3, #1024
	str	r3, [r2, #12]
	.loc 1 1252 7 is_stmt 1 view .LVU1238
	.loc 1 1252 13 is_stmt 0 view .LVU1239
	bl	HAL_DMA_Abort_IT
.LVL267:
	.loc 1 1253 7 is_stmt 1 view .LVU1240
	.loc 1 1277 3 view .LVU1241
	b	.L369
.LVL268:
.L368:
	.loc 1 1243 7 view .LVU1242
	ldr	r2, [r0]
	.loc 1 1244 13 is_stmt 0 view .LVU1243
	ldr	r0, [r0, #36]
.LVL269:
	.loc 1 1243 7 view .LVU1244
	ldr	r3, [r2, #12]
	bic	r3, r3, #512
	str	r3, [r2, #12]
	.loc 1 1244 7 is_stmt 1 view .LVU1245
	.loc 1 1244 13 is_stmt 0 view .LVU1246
	bl	HAL_DMA_Abort_IT
.LVL270:
	.loc 1 1245 7 is_stmt 1 view .LVU1247
	.loc 1 1277 3 view .LVU1248
	b	.L369
.L370:
	.loc 1 1285 7 view .LVU1249
	.loc 1 1285 7 view .LVU1250
	ldr	r1, [r3, #32]
	movw	r2, #4369
	tst	r1, r2
	bne	.L371
	.loc 1 1285 7 discriminator 1 view .LVU1251
	ldr	r1, [r3, #32]
	movw	r2, #17476
	tst	r1, r2
	bne	.L371
	.loc 1 1285 7 discriminator 3 view .LVU1252
	ldr	r2, [r3, #68]
	bic	r2, r2, #32768
	str	r2, [r3, #68]
	b	.L371
.L373:
	.loc 1 1292 5 is_stmt 0 discriminator 2 view .LVU1253
	cmp	r4, #4
	beq	.L380
	.loc 1 1292 5 discriminator 4 view .LVU1254
	cmp	r4, #8
	beq	.L381
	.loc 1 1292 5 discriminator 7 view .LVU1255
	cmp	r4, #12
	beq	.L382
	.loc 1 1292 5 discriminator 10 view .LVU1256
	cmp	r4, #16
	ite	eq
	strbeq	r3, [r5, #66]
	strbne	r3, [r5, #67]
	movs	r0, #0
.LVL271:
	.loc 1 1296 3 is_stmt 1 discriminator 10 view .LVU1257
	.loc 1 1297 1 is_stmt 0 discriminator 10 view .LVU1258
	pop	{r3, r4, r5, pc}
.LVL272:
.L381:
	.loc 1 1292 5 discriminator 6 view .LVU1259
	strb	r3, [r5, #64]
	movs	r0, #0
.LVL273:
	.loc 1 1296 3 is_stmt 1 discriminator 6 view .LVU1260
	.loc 1 1297 1 is_stmt 0 discriminator 6 view .LVU1261
	pop	{r3, r4, r5, pc}
.LVL274:
.L380:
	.loc 1 1292 5 discriminator 3 view .LVU1262
	strb	r3, [r5, #63]
	movs	r0, #0
.LVL275:
	.loc 1 1296 3 is_stmt 1 discriminator 3 view .LVU1263
	.loc 1 1297 1 is_stmt 0 discriminator 3 view .LVU1264
	pop	{r3, r4, r5, pc}
.LVL276:
.L382:
	.loc 1 1292 5 discriminator 9 view .LVU1265
	strb	r3, [r5, #65]
	movs	r0, #0
.LVL277:
	.loc 1 1296 3 is_stmt 1 discriminator 9 view .LVU1266
	.loc 1 1297 1 is_stmt 0 discriminator 9 view .LVU1267
	pop	{r3, r4, r5, pc}
.LVL278:
.L384:
	.loc 1 1297 1 discriminator 9 view .LVU1268
	.align	2
.L383:
	.word	1073818624
	.cfi_endproc
.LFE151:
	.size	HAL_TIM_OC_Stop_DMA, .-HAL_TIM_OC_Stop_DMA
	.section	.text.HAL_TIM_PWM_MspInit,"ax",%progbits
	.align	1
	.p2align 2,,3
	.weak	HAL_TIM_PWM_MspInit
	.syntax unified
	.thumb
	.thumb_func
	.fpu fpv4-sp-d16
	.type	HAL_TIM_PWM_MspInit, %function
HAL_TIM_PWM_MspInit:
.LFB260:
	.cfi_startproc
	@ args = 0, pretend = 0, frame = 0
	@ frame_needed = 0, uses_anonymous_args = 0
	@ link register save eliminated.
	bx	lr
	.cfi_endproc
.LFE260:
	.size	HAL_TIM_PWM_MspInit, .-HAL_TIM_PWM_MspInit
	.section	.text.HAL_TIM_PWM_Init,"ax",%progbits
	.align	1
	.p2align 2,,3
	.global	HAL_TIM_PWM_Init
	.syntax unified
	.thumb
	.thumb_func
	.fpu fpv4-sp-d16
	.type	HAL_TIM_PWM_Init, %function
HAL_TIM_PWM_Init:
.LVL279:
.LFB152:
	.loc 1 1335 1 is_stmt 1 view -0
	.cfi_startproc
	@ args = 0, pretend = 0, frame = 0
	@ frame_needed = 0, uses_anonymous_args = 0
	.loc 1 1337 3 view .LVU1270
	.loc 1 1337 6 is_stmt 0 view .LVU1271
	cmp	r0, #0
	beq	.L402
	.loc 1 1343 3 is_stmt 1 view .LVU1272
	.loc 1 1344 3 view .LVU1273
	.loc 1 1345 3 view .LVU1274
	.loc 1 1346 3 view .LVU1275
	.loc 1 1347 3 view .LVU1276
	.loc 1 1349 3 view .LVU1277
	.loc 1 1335 1 is_stmt 0 view .LVU1278
	push	{r4, lr}
.LCFI31:
	.cfi_def_cfa_offset 8
	.cfi_offset 4, -8
	.cfi_offset 14, -4
	.loc 1 1349 11 view .LVU1279
	ldrb	r3, [r0, #61]	@ zero_extendqisi2
	mov	r4, r0
	.loc 1 1349 6 view .LVU1280
	and	r2, r3, #255
	cmp	r3, #0
	beq	.L413
.LVL280:
.L388:
	.loc 1 1371 3 is_stmt 1 view .LVU1281
	.loc 1 1374 3 is_stmt 0 view .LVU1282
	ldr	r3, [r4]
.LBB204:
.LBB205:
	.loc 1 7114 6 view .LVU1283
	ldr	r1, .L414
.LBE205:
.LBE204:
	.loc 1 1371 15 view .LVU1284
	movs	r2, #2
	strb	r2, [r4, #61]
	.loc 1 1374 3 is_stmt 1 view .LVU1285
.LVL281:
.LBB209:
.LBI204:
	.loc 1 7108 6 view .LVU1286
.LBB206:
	.loc 1 7110 3 view .LVU1287
	.loc 1 7111 3 view .LVU1288
	.loc 1 7114 6 is_stmt 0 view .LVU1289
	cmp	r3, r1
	.loc 1 7111 10 view .LVU1290
	ldr	r2, [r3]
.LVL282:
	.loc 1 7114 3 is_stmt 1 view .LVU1291
	.loc 1 7114 6 is_stmt 0 view .LVU1292
	beq	.L393
	.loc 1 7114 7 view .LVU1293
	cmp	r3, #1073741824
	beq	.L390
	sub	r1, r1, #75776
	cmp	r3, r1
	beq	.L390
	add	r1, r1, #1024
	cmp	r3, r1
	beq	.L390
	add	r1, r1, #76800
	cmp	r3, r1
	beq	.L393
	.loc 1 7121 7 view .LVU1294
	add	r1, r1, #3072
	cmp	r3, r1
	beq	.L394
	add	r1, r1, #1024
	cmp	r3, r1
	beq	.L394
	add	r1, r1, #1024
	cmp	r3, r1
	beq	.L394
	.loc 1 7129 3 is_stmt 1 view .LVU1295
	ldr	r0, [r4, #24]
	.loc 1 7134 34 is_stmt 0 view .LVU1296
	ldr	r1, [r4, #12]
	.loc 1 7129 3 view .LVU1297
	bic	r2, r2, #128
.LVL283:
	.loc 1 7129 3 view .LVU1298
	orrs	r2, r2, r0
.LVL284:
	.loc 1 7131 3 is_stmt 1 view .LVU1299
	.loc 1 7131 13 is_stmt 0 view .LVU1300
	str	r2, [r3]
	.loc 1 7134 3 is_stmt 1 view .LVU1301
	.loc 1 7137 24 is_stmt 0 view .LVU1302
	ldr	r2, [r4, #4]
.LVL285:
	.loc 1 7134 13 view .LVU1303
	str	r1, [r3, #44]
.LVL286:
	.loc 1 7137 3 is_stmt 1 view .LVU1304
	.loc 1 7137 13 is_stmt 0 view .LVU1305
	str	r2, [r3, #40]
	.loc 1 7139 3 is_stmt 1 view .LVU1306
	.loc 1 7139 3 is_stmt 0 view .LVU1307
	b	.L399
.LVL287:
.L390:
	.loc 1 7117 5 is_stmt 1 view .LVU1308
	.loc 1 7118 12 is_stmt 0 view .LVU1309
	ldr	r1, [r4, #8]
	.loc 1 7125 12 view .LVU1310
	ldr	r0, [r4, #16]
	.loc 1 7117 12 view .LVU1311
	bic	r2, r2, #112
.LVL288:
	.loc 1 7118 5 is_stmt 1 view .LVU1312
	.loc 1 7118 12 is_stmt 0 view .LVU1313
	orrs	r2, r2, r1
.LVL289:
	.loc 1 7121 3 is_stmt 1 view .LVU1314
	.loc 1 7124 5 view .LVU1315
	.loc 1 7124 12 is_stmt 0 view .LVU1316
	bic	r2, r2, #768
.LVL290:
	.loc 1 7125 5 is_stmt 1 view .LVU1317
	.loc 1 7129 3 view .LVU1318
	ldr	r1, [r4, #24]
	.loc 1 7125 12 is_stmt 0 view .LVU1319
	orrs	r2, r2, r0
.LVL291:
	.loc 1 7129 3 view .LVU1320
	bic	r2, r2, #128
.LVL292:
	.loc 1 7134 34 view .LVU1321
	ldr	r0, [r4, #12]
	.loc 1 7129 3 view .LVU1322
	orrs	r2, r2, r1
.LVL293:
	.loc 1 7131 3 is_stmt 1 view .LVU1323
	.loc 1 7137 24 is_stmt 0 view .LVU1324
	ldr	r1, [r4, #4]
	.loc 1 7131 13 view .LVU1325
	str	r2, [r3]
	.loc 1 7134 3 is_stmt 1 view .LVU1326
	.loc 1 7134 13 is_stmt 0 view .LVU1327
	str	r0, [r3, #44]
	.loc 1 7137 3 is_stmt 1 view .LVU1328
	.loc 1 7137 13 is_stmt 0 view .LVU1329
	str	r1, [r3, #40]
	.loc 1 7139 3 is_stmt 1 view .LVU1330
.LVL294:
.L399:
	.loc 1 7147 3 view .LVU1331
	.loc 1 7147 13 is_stmt 0 view .LVU1332
	movs	r2, #1
	str	r2, [r3, #20]
	.loc 1 7150 3 is_stmt 1 view .LVU1333
	.loc 1 7150 7 is_stmt 0 view .LVU1334
	ldr	r2, [r3, #16]
	.loc 1 7150 6 view .LVU1335
	lsls	r2, r2, #31
	bpl	.L398
	.loc 1 7153 5 is_stmt 1 view .LVU1336
	ldr	r2, [r3, #16]
	bic	r2, r2, #1
	str	r2, [r3, #16]
.L398:
.LVL295:
	.loc 1 7153 5 is_stmt 0 view .LVU1337
.LBE206:
.LBE209:
	.loc 1 1377 3 is_stmt 1 view .LVU1338
	.loc 1 1377 23 is_stmt 0 view .LVU1339
	movs	r3, #1
	strb	r3, [r4, #72]
	.loc 1 1380 3 is_stmt 1 view .LVU1340
	.loc 1 1380 3 view .LVU1341
	strb	r3, [r4, #62]
	.loc 1 1380 3 view .LVU1342
	strb	r3, [r4, #63]
	.loc 1 1380 3 view .LVU1343
	strb	r3, [r4, #64]
	.loc 1 1380 3 view .LVU1344
	strb	r3, [r4, #65]
	.loc 1 1380 3 view .LVU1345
	strb	r3, [r4, #66]
	.loc 1 1380 3 view .LVU1346
	strb	r3, [r4, #67]
	.loc 1 1380 3 view .LVU1347
	.loc 1 1381 3 view .LVU1348
	.loc 1 1381 3 view .LVU1349
	strb	r3, [r4, #68]
	.loc 1 1381 3 view .LVU1350
	strb	r3, [r4, #69]
	.loc 1 1381 3 view .LVU1351
	strb	r3, [r4, #70]
	.loc 1 1381 3 view .LVU1352
	strb	r3, [r4, #71]
	.loc 1 1381 3 view .LVU1353
	.loc 1 1384 3 view .LVU1354
	.loc 1 1384 15 is_stmt 0 view .LVU1355
	strb	r3, [r4, #61]
	.loc 1 1386 3 is_stmt 1 view .LVU1356
	.loc 1 1386 10 is_stmt 0 view .LVU1357
	movs	r0, #0
	.loc 1 1387 1 view .LVU1358
	pop	{r4, pc}
.LVL296:
.L393:
.LBB210:
.LBB207:
	.loc 1 7117 5 is_stmt 1 view .LVU1359
	.loc 1 7118 12 is_stmt 0 view .LVU1360
	ldr	r0, [r4, #8]
	.loc 1 7125 12 view .LVU1361
	ldr	r1, [r4, #16]
	.loc 1 7117 12 view .LVU1362
	bic	r2, r2, #112
.LVL297:
	.loc 1 7118 5 is_stmt 1 view .LVU1363
	.loc 1 7118 12 is_stmt 0 view .LVU1364
	orrs	r2, r2, r0
.LVL298:
	.loc 1 7121 3 is_stmt 1 view .LVU1365
	.loc 1 7124 5 view .LVU1366
	.loc 1 7124 12 is_stmt 0 view .LVU1367
	bic	r2, r2, #768
.LVL299:
	.loc 1 7125 5 is_stmt 1 view .LVU1368
	.loc 1 7129 3 view .LVU1369
	.loc 1 7125 12 is_stmt 0 view .LVU1370
	orrs	r2, r2, r1
.LVL300:
	.loc 1 7129 3 view .LVU1371
	ldr	r1, [r4, #24]
.L412:
	.loc 1 7129 3 view .LVU1372
	bic	r2, r2, #128
.LVL301:
	.loc 1 7129 3 view .LVU1373
	orrs	r2, r2, r1
.LVL302:
	.loc 1 7131 3 is_stmt 1 view .LVU1374
	.loc 1 7131 13 is_stmt 0 view .LVU1375
	str	r2, [r3]
	.loc 1 7134 3 is_stmt 1 view .LVU1376
	.loc 1 7134 34 is_stmt 0 view .LVU1377
	ldr	r2, [r4, #12]
.LVL303:
	.loc 1 7134 13 view .LVU1378
	str	r2, [r3, #44]
.LVL304:
	.loc 1 7137 3 is_stmt 1 view .LVU1379
	.loc 1 7137 24 is_stmt 0 view .LVU1380
	ldr	r2, [r4, #4]
	.loc 1 7137 13 view .LVU1381
	str	r2, [r3, #40]
	.loc 1 7139 3 is_stmt 1 view .LVU1382
	.loc 1 7142 5 view .LVU1383
	.loc 1 7142 26 is_stmt 0 view .LVU1384
	ldr	r2, [r4, #20]
	.loc 1 7142 15 view .LVU1385
	str	r2, [r3, #48]
	b	.L399
.LVL305:
.L413:
	.loc 1 7142 15 view .LVU1386
.LBE207:
.LBE210:
	.loc 1 1352 5 is_stmt 1 view .LVU1387
	.loc 1 1352 16 is_stmt 0 view .LVU1388
	strb	r2, [r0, #60]
	.loc 1 1366 5 is_stmt 1 view .LVU1389
	bl	HAL_TIM_PWM_MspInit
.LVL306:
	.loc 1 1366 5 is_stmt 0 view .LVU1390
	b	.L388
.LVL307:
.L394:
.LBB211:
.LBB208:
	.loc 1 7124 5 is_stmt 1 view .LVU1391
	.loc 1 7125 12 is_stmt 0 view .LVU1392
	ldr	r0, [r4, #16]
	.loc 1 7129 3 view .LVU1393
	ldr	r1, [r4, #24]
	.loc 1 7124 12 view .LVU1394
	bic	r2, r2, #768
.LVL308:
	.loc 1 7125 5 is_stmt 1 view .LVU1395
	.loc 1 7129 3 view .LVU1396
	.loc 1 7125 12 is_stmt 0 view .LVU1397
	orrs	r2, r2, r0
.LVL309:
	.loc 1 7125 12 view .LVU1398
	b	.L412
.LVL310:
.L402:
.LCFI32:
	.cfi_def_cfa_offset 0
	.cfi_restore 4
	.cfi_restore 14
	.loc 1 7125 12 view .LVU1399
.LBE208:
.LBE211:
	.loc 1 1339 12 view .LVU1400
	movs	r0, #1
.LVL311:
	.loc 1 1387 1 view .LVU1401
	bx	lr
.L415:
	.align	2
.L414:
	.word	1073818624
	.cfi_endproc
.LFE152:
	.size	HAL_TIM_PWM_Init, .-HAL_TIM_PWM_Init
	.section	.text.HAL_TIM_PWM_MspDeInit,"ax",%progbits
	.align	1
	.p2align 2,,3
	.weak	HAL_TIM_PWM_MspDeInit
	.syntax unified
	.thumb
	.thumb_func
	.fpu fpv4-sp-d16
	.type	HAL_TIM_PWM_MspDeInit, %function
HAL_TIM_PWM_MspDeInit:
.LFB262:
	.cfi_startproc
	@ args = 0, pretend = 0, frame = 0
	@ frame_needed = 0, uses_anonymous_args = 0
	@ link register save eliminated.
	bx	lr
	.cfi_endproc
.LFE262:
	.size	HAL_TIM_PWM_MspDeInit, .-HAL_TIM_PWM_MspDeInit
	.section	.text.HAL_TIM_PWM_DeInit,"ax",%progbits
	.align	1
	.p2align 2,,3
	.global	HAL_TIM_PWM_DeInit
	.syntax unified
	.thumb
	.thumb_func
	.fpu fpv4-sp-d16
	.type	HAL_TIM_PWM_DeInit, %function
HAL_TIM_PWM_DeInit:
.LVL312:
.LFB153:
	.loc 1 1395 1 is_stmt 1 view -0
	.cfi_startproc
	@ args = 0, pretend = 0, frame = 0
	@ frame_needed = 0, uses_anonymous_args = 0
	.loc 1 1397 3 view .LVU1403
	.loc 1 1399 3 view .LVU1404
	.loc 1 1399 15 is_stmt 0 view .LVU1405
	movs	r2, #2
	.loc 1 1402 3 view .LVU1406
	ldr	r3, [r0]
	.loc 1 1395 1 view .LVU1407
	push	{r4, lr}
.LCFI33:
	.cfi_def_cfa_offset 8
	.cfi_offset 4, -8
	.cfi_offset 14, -4
	.loc 1 1399 15 view .LVU1408
	strb	r2, [r0, #61]
	.loc 1 1402 3 is_stmt 1 view .LVU1409
	.loc 1 1402 3 view .LVU1410
	ldr	r1, [r3, #32]
	movw	r2, #4369
	tst	r1, r2
	.loc 1 1395 1 is_stmt 0 view .LVU1411
	mov	r4, r0
	.loc 1 1402 3 view .LVU1412
	bne	.L418
	.loc 1 1402 3 is_stmt 1 discriminator 1 view .LVU1413
	ldr	r1, [r3, #32]
	movw	r2, #17476
	tst	r1, r2
	bne	.L418
	.loc 1 1402 3 discriminator 3 view .LVU1414
	ldr	r2, [r3]
	bic	r2, r2, #1
	str	r2, [r3]
.L418:
	.loc 1 1402 3 discriminator 5 view .LVU1415
	.loc 1 1413 3 discriminator 5 view .LVU1416
	mov	r0, r4
.LVL313:
	.loc 1 1413 3 is_stmt 0 discriminator 5 view .LVU1417
	bl	HAL_TIM_PWM_MspDeInit
.LVL314:
	.loc 1 1417 3 is_stmt 1 discriminator 5 view .LVU1418
	.loc 1 1417 23 is_stmt 0 discriminator 5 view .LVU1419
	movs	r0, #0
	strb	r0, [r4, #72]
	.loc 1 1420 3 is_stmt 1 discriminator 5 view .LVU1420
	.loc 1 1420 3 discriminator 5 view .LVU1421
	.loc 1 1427 3 is_stmt 0 discriminator 5 view .LVU1422
	strb	r0, [r4, #60]
	.loc 1 1420 3 discriminator 5 view .LVU1423
	strb	r0, [r4, #62]
	.loc 1 1420 3 is_stmt 1 discriminator 5 view .LVU1424
	strb	r0, [r4, #63]
	.loc 1 1420 3 discriminator 5 view .LVU1425
	strb	r0, [r4, #64]
	.loc 1 1420 3 discriminator 5 view .LVU1426
	strb	r0, [r4, #65]
	.loc 1 1420 3 discriminator 5 view .LVU1427
	strb	r0, [r4, #66]
	.loc 1 1420 3 discriminator 5 view .LVU1428
	strb	r0, [r4, #67]
	.loc 1 1420 3 discriminator 5 view .LVU1429
	.loc 1 1421 3 discriminator 5 view .LVU1430
	.loc 1 1421 3 discriminator 5 view .LVU1431
	strb	r0, [r4, #68]
	.loc 1 1421 3 discriminator 5 view .LVU1432
	strb	r0, [r4, #69]
	.loc 1 1421 3 discriminator 5 view .LVU1433
	strb	r0, [r4, #70]
	.loc 1 1421 3 discriminator 5 view .LVU1434
	strb	r0, [r4, #71]
	.loc 1 1421 3 discriminator 5 view .LVU1435
	.loc 1 1424 3 discriminator 5 view .LVU1436
	.loc 1 1424 15 is_stmt 0 discriminator 5 view .LVU1437
	strb	r0, [r4, #61]
	.loc 1 1427 3 is_stmt 1 discriminator 5 view .LVU1438
	.loc 1 1427 3 discriminator 5 view .LVU1439
	.loc 1 1427 3 discriminator 5 view .LVU1440
	.loc 1 1429 3 discriminator 5 view .LVU1441
	.loc 1 1430 1 is_stmt 0 discriminator 5 view .LVU1442
	pop	{r4, pc}
	.loc 1 1430 1 discriminator 5 view .LVU1443
	.cfi_endproc
.LFE153:
	.size	HAL_TIM_PWM_DeInit, .-HAL_TIM_PWM_DeInit
	.section	.text.HAL_TIM_PWM_Start,"ax",%progbits
	.align	1
	.p2align 2,,3
	.global	HAL_TIM_PWM_Start
	.syntax unified
	.thumb
	.thumb_func
	.fpu fpv4-sp-d16
	.type	HAL_TIM_PWM_Start, %function
HAL_TIM_PWM_Start:
.LFB296:
	.cfi_startproc
	@ args = 0, pretend = 0, frame = 0
	@ frame_needed = 0, uses_anonymous_args = 0
	@ link register save eliminated.
	cmp	r1, #0
	bne	.L421
	ldrb	r3, [r0, #62]	@ zero_extendqisi2
	cmp	r3, #1
	bne	.L446
	movs	r3, #2
	strb	r3, [r0, #62]
.L432:
	ldr	r3, [r0]
	movs	r2, #1
	ldr	r0, [r3, #32]
	and	r1, r1, #31
	lsl	r1, r2, r1
	bic	r0, r0, r1
	str	r0, [r3, #32]
	ldr	r0, [r3, #32]
	ldr	r2, .L461
	orrs	r1, r1, r0
	cmp	r3, r2
	str	r1, [r3, #32]
	beq	.L436
	add	r2, r2, #2048
	cmp	r3, r2
	beq	.L437
	add	r2, r2, #3072
	cmp	r3, r2
	beq	.L437
	add	r2, r2, #1024
	cmp	r3, r2
	beq	.L437
	add	r2, r2, #1024
	cmp	r3, r2
	bne	.L440
.L437:
	ldr	r2, [r3, #68]
	orr	r2, r2, #32768
	str	r2, [r3, #68]
.L440:
	cmp	r3, #1073741824
	beq	.L438
	ldr	r2, .L461+4
	cmp	r3, r2
	beq	.L438
	add	r2, r2, #1024
	cmp	r3, r2
	beq	.L438
	add	r2, r2, #76800
	cmp	r3, r2
	beq	.L438
	add	r2, r2, #3072
	cmp	r3, r2
	bne	.L439
.L438:
	ldr	r1, [r3, #8]
	ldr	r2, .L461+8
	ands	r2, r2, r1
	cmp	r2, #6
	beq	.L448
	cmp	r2, #65536
	beq	.L448
.L439:
	ldr	r2, [r3]
	orr	r2, r2, #1
	movs	r0, #0
	str	r2, [r3]
	bx	lr
.L421:
	cmp	r1, #4
	beq	.L457
	cmp	r1, #8
	beq	.L458
	cmp	r1, #12
	beq	.L459
	cmp	r1, #16
	beq	.L460
	ldrb	r3, [r0, #67]	@ zero_extendqisi2
	cmp	r3, #1
	bne	.L446
	cmp	r1, #8
	beq	.L427
	cmp	r1, #12
	beq	.L429
	cmp	r1, #16
	beq	.L454
	movs	r3, #2
	strb	r3, [r0, #67]
	b	.L432
.L459:
	ldrb	r3, [r0, #65]	@ zero_extendqisi2
	cmp	r3, #1
	beq	.L429
.L446:
	movs	r0, #1
	bx	lr
.L448:
	movs	r0, #0
	bx	lr
.L457:
	ldrb	r3, [r0, #63]	@ zero_extendqisi2
	cmp	r3, #1
	bne	.L446
	movs	r3, #2
	strb	r3, [r0, #63]
	b	.L432
.L436:
	ldr	r2, [r3, #68]
	orr	r2, r2, #32768
	str	r2, [r3, #68]
	b	.L438
.L458:
	ldrb	r3, [r0, #64]	@ zero_extendqisi2
	cmp	r3, #1
	bne	.L446
.L427:
	movs	r3, #2
	strb	r3, [r0, #64]
	b	.L432
.L429:
	movs	r3, #2
	strb	r3, [r0, #65]
	b	.L432
.L460:
	ldrb	r3, [r0, #66]	@ zero_extendqisi2
	cmp	r3, #1
	bne	.L446
.L454:
	movs	r3, #2
	strb	r3, [r0, #66]
	b	.L432
.L462:
	.align	2
.L461:
	.word	1073818624
	.word	1073742848
	.word	65543
	.cfi_endproc
.LFE296:
	.size	HAL_TIM_PWM_Start, .-HAL_TIM_PWM_Start
	.section	.text.HAL_TIM_PWM_Stop,"ax",%progbits
	.align	1
	.p2align 2,,3
	.global	HAL_TIM_PWM_Stop
	.syntax unified
	.thumb
	.thumb_func
	.fpu fpv4-sp-d16
	.type	HAL_TIM_PWM_Stop, %function
HAL_TIM_PWM_Stop:
.LFB298:
	.cfi_startproc
	@ args = 0, pretend = 0, frame = 0
	@ frame_needed = 0, uses_anonymous_args = 0
	@ link register save eliminated.
	ldr	r3, [r0]
	push	{r4}
.LCFI34:
	.cfi_def_cfa_offset 4
	.cfi_offset 4, -4
	ldr	r2, [r3, #32]
	and	r4, r1, #31
	mov	ip, #1
	lsl	ip, ip, r4
	bic	r2, r2, ip
	str	r2, [r3, #32]
	ldr	r2, .L478
	ldr	r4, [r3, #32]
	str	r4, [r3, #32]
	cmp	r3, r2
	beq	.L464
	add	r2, r2, #2048
	cmp	r3, r2
	beq	.L464
	add	r2, r2, #3072
	cmp	r3, r2
	beq	.L464
	add	r2, r2, #1024
	cmp	r3, r2
	beq	.L464
	add	r2, r2, #1024
	cmp	r3, r2
	beq	.L464
.L465:
	ldr	r4, [r3, #32]
	movw	r2, #4369
	tst	r4, r2
	bne	.L466
	ldr	r4, [r3, #32]
	movw	r2, #17476
	tst	r4, r2
	beq	.L474
.L466:
	movs	r3, #1
	cbnz	r1, .L467
	strb	r3, [r0, #62]
.L468:
	movs	r0, #0
	ldr	r4, [sp], #4
.LCFI35:
	.cfi_remember_state
	.cfi_restore 4
	.cfi_def_cfa_offset 0
	bx	lr
.L464:
.LCFI36:
	.cfi_restore_state
	ldr	r4, [r3, #32]
	movw	r2, #4369
	tst	r4, r2
	bne	.L465
	ldr	r4, [r3, #32]
	movw	r2, #17476
	tst	r4, r2
	bne	.L465
	ldr	r2, [r3, #68]
	bic	r2, r2, #32768
	str	r2, [r3, #68]
	b	.L465
.L467:
	cmp	r1, #4
	beq	.L475
	cmp	r1, #8
	beq	.L476
	cmp	r1, #12
	beq	.L477
	cmp	r1, #16
	ite	eq
	strbeq	r3, [r0, #66]
	strbne	r3, [r0, #67]
	ldr	r4, [sp], #4
.LCFI37:
	.cfi_remember_state
	.cfi_restore 4
	.cfi_def_cfa_offset 0
	movs	r0, #0
	bx	lr
.L474:
.LCFI38:
	.cfi_restore_state
	ldr	r2, [r3]
	bic	r2, r2, #1
	str	r2, [r3]
	b	.L466
.L475:
	strb	r3, [r0, #63]
	ldr	r4, [sp], #4
.LCFI39:
	.cfi_remember_state
	.cfi_restore 4
	.cfi_def_cfa_offset 0
	movs	r0, #0
	bx	lr
.L477:
.LCFI40:
	.cfi_restore_state
	strb	r3, [r0, #65]
	b	.L468
.L476:
	strb	r3, [r0, #64]
	ldr	r4, [sp], #4
.LCFI41:
	.cfi_restore 4
	.cfi_def_cfa_offset 0
	movs	r0, #0
	bx	lr
.L479:
	.align	2
.L478:
	.word	1073818624
	.cfi_endproc
.LFE298:
	.size	HAL_TIM_PWM_Stop, .-HAL_TIM_PWM_Stop
	.section	.text.HAL_TIM_PWM_Start_IT,"ax",%progbits
	.align	1
	.p2align 2,,3
	.global	HAL_TIM_PWM_Start_IT
	.syntax unified
	.thumb
	.thumb_func
	.fpu fpv4-sp-d16
	.type	HAL_TIM_PWM_Start_IT, %function
HAL_TIM_PWM_Start_IT:
.LFB300:
	.cfi_startproc
	@ args = 0, pretend = 0, frame = 0
	@ frame_needed = 0, uses_anonymous_args = 0
	@ link register save eliminated.
	cmp	r1, #0
	bne	.L481
	ldrb	r3, [r0, #62]	@ zero_extendqisi2
	cmp	r3, #1
	bne	.L511
	ldr	r3, [r0]
	movs	r2, #2
	strb	r2, [r0, #62]
	ldr	r2, [r3, #12]
	orr	r2, r2, #2
	str	r2, [r3, #12]
.L492:
	ldr	r0, [r3, #32]
	movs	r2, #1
	and	r1, r1, #31
	lsl	r1, r2, r1
	bic	r0, r0, r1
	str	r0, [r3, #32]
	ldr	r0, [r3, #32]
	ldr	r2, .L525
	orrs	r1, r1, r0
	cmp	r3, r2
	str	r1, [r3, #32]
	beq	.L500
	add	r2, r2, #2048
	cmp	r3, r2
	beq	.L501
	add	r2, r2, #3072
	cmp	r3, r2
	beq	.L501
	add	r2, r2, #1024
	cmp	r3, r2
	beq	.L501
	add	r2, r2, #1024
	cmp	r3, r2
	bne	.L504
.L501:
	ldr	r2, [r3, #68]
	orr	r2, r2, #32768
	str	r2, [r3, #68]
.L504:
	cmp	r3, #1073741824
	beq	.L502
	ldr	r2, .L525+4
	cmp	r3, r2
	beq	.L502
	add	r2, r2, #1024
	cmp	r3, r2
	beq	.L502
	add	r2, r2, #76800
	cmp	r3, r2
	beq	.L502
	add	r2, r2, #3072
	cmp	r3, r2
	bne	.L503
.L502:
	ldr	r1, [r3, #8]
	ldr	r2, .L525+8
	ands	r2, r2, r1
	cmp	r2, #6
	beq	.L513
	cmp	r2, #65536
	beq	.L513
.L503:
	ldr	r2, [r3]
	orr	r2, r2, #1
	movs	r0, #0
	str	r2, [r3]
	bx	lr
.L481:
	cmp	r1, #4
	beq	.L522
	cmp	r1, #8
	beq	.L523
	cmp	r1, #12
	bne	.L488
	ldrb	r3, [r0, #65]	@ zero_extendqisi2
	cmp	r3, #1
	beq	.L489
.L511:
	movs	r0, #1
	bx	lr
.L513:
	movs	r0, #0
	bx	lr
.L488:
	cmp	r1, #16
	beq	.L524
	ldrb	r3, [r0, #67]	@ zero_extendqisi2
	cmp	r3, #1
	bne	.L511
	cmp	r1, #8
	beq	.L487
	cmp	r1, #12
	beq	.L489
	cmp	r1, #16
	beq	.L519
	movs	r2, #2
	subs	r3, r1, #4
	strb	r2, [r0, #67]
	cmp	r3, #8
	bhi	.L511
	adr	r2, .L499
	ldr	pc, [r2, r3, lsl #2]
	.p2align 2
.L499:
	.word	.L493+1
	.word	.L511+1
	.word	.L511+1
	.word	.L511+1
	.word	.L495+1
	.word	.L511+1
	.word	.L511+1
	.word	.L511+1
	.word	.L497+1
	.p2align 1
.L523:
	ldrb	r3, [r0, #64]	@ zero_extendqisi2
	cmp	r3, #1
	bne	.L511
.L487:
	movs	r3, #2
	strb	r3, [r0, #64]
.L495:
	ldr	r3, [r0]
	ldr	r2, [r3, #12]
	orr	r2, r2, #8
	str	r2, [r3, #12]
	b	.L492
.L522:
	ldrb	r3, [r0, #63]	@ zero_extendqisi2
	cmp	r3, #1
	bne	.L511
	movs	r3, #2
	strb	r3, [r0, #63]
.L493:
	ldr	r3, [r0]
	ldr	r2, [r3, #12]
	orr	r2, r2, #4
	str	r2, [r3, #12]
	b	.L492
.L489:
	movs	r3, #2
	strb	r3, [r0, #65]
.L497:
	ldr	r3, [r0]
	ldr	r2, [r3, #12]
	orr	r2, r2, #16
	str	r2, [r3, #12]
	b	.L492
.L500:
	ldr	r2, [r3, #68]
	orr	r2, r2, #32768
	str	r2, [r3, #68]
	b	.L502
.L524:
	ldrb	r3, [r0, #66]	@ zero_extendqisi2
	cmp	r3, #1
	bne	.L511
.L519:
	movs	r3, #2
	strb	r3, [r0, #66]
	movs	r0, #1
	bx	lr
.L526:
	.align	2
.L525:
	.word	1073818624
	.word	1073742848
	.word	65543
	.cfi_endproc
.LFE300:
	.size	HAL_TIM_PWM_Start_IT, .-HAL_TIM_PWM_Start_IT
	.section	.text.HAL_TIM_PWM_Stop_IT,"ax",%progbits
	.align	1
	.p2align 2,,3
	.global	HAL_TIM_PWM_Stop_IT
	.syntax unified
	.thumb
	.thumb_func
	.fpu fpv4-sp-d16
	.type	HAL_TIM_PWM_Stop_IT, %function
HAL_TIM_PWM_Stop_IT:
.LFB302:
	.cfi_startproc
	@ args = 0, pretend = 0, frame = 0
	@ frame_needed = 0, uses_anonymous_args = 0
	@ link register save eliminated.
	cmp	r1, #12
	bhi	.L543
	tbb	[pc, r1]
.L530:
	.byte	(.L533-.L530)/2
	.byte	(.L543-.L530)/2
	.byte	(.L543-.L530)/2
	.byte	(.L543-.L530)/2
	.byte	(.L532-.L530)/2
	.byte	(.L543-.L530)/2
	.byte	(.L543-.L530)/2
	.byte	(.L543-.L530)/2
	.byte	(.L531-.L530)/2
	.byte	(.L543-.L530)/2
	.byte	(.L543-.L530)/2
	.byte	(.L543-.L530)/2
	.byte	(.L529-.L530)/2
	.p2align 1
.L543:
	movs	r0, #1
	bx	lr
.L529:
	ldr	r3, [r0]
	ldr	r2, [r3, #12]
	bic	r2, r2, #16
	str	r2, [r3, #12]
.L534:
	ldr	r2, [r3, #32]
	push	{r4}
.LCFI42:
	.cfi_def_cfa_offset 4
	.cfi_offset 4, -4
	mov	ip, #1
	and	r4, r1, #31
	lsl	ip, ip, r4
	bic	r2, r2, ip
	str	r2, [r3, #32]
	ldr	r2, .L550
	ldr	r4, [r3, #32]
	str	r4, [r3, #32]
	cmp	r3, r2
	beq	.L535
	add	r2, r2, #2048
	cmp	r3, r2
	beq	.L535
	add	r2, r2, #3072
	cmp	r3, r2
	beq	.L535
	add	r2, r2, #1024
	cmp	r3, r2
	beq	.L535
	add	r2, r2, #1024
	cmp	r3, r2
	beq	.L535
.L536:
	ldr	r4, [r3, #32]
	movw	r2, #4369
	tst	r4, r2
	bne	.L537
	ldr	r4, [r3, #32]
	movw	r2, #17476
	tst	r4, r2
	bne	.L537
	ldr	r2, [r3]
	bic	r2, r2, #1
	str	r2, [r3]
.L537:
	movs	r3, #1
	cbnz	r1, .L538
	strb	r3, [r0, #62]
	mov	r0, r1
.L528:
	ldr	r4, [sp], #4
.LCFI43:
	.cfi_restore 4
	.cfi_def_cfa_offset 0
	bx	lr
.L531:
	ldr	r3, [r0]
	ldr	r2, [r3, #12]
	bic	r2, r2, #8
	str	r2, [r3, #12]
	b	.L534
.L532:
	ldr	r3, [r0]
	ldr	r2, [r3, #12]
	bic	r2, r2, #4
	str	r2, [r3, #12]
	b	.L534
.L533:
	ldr	r3, [r0]
	ldr	r2, [r3, #12]
	bic	r2, r2, #2
	str	r2, [r3, #12]
	b	.L534
.L535:
.LCFI44:
	.cfi_def_cfa_offset 4
	.cfi_offset 4, -4
	ldr	r4, [r3, #32]
	movw	r2, #4369
	tst	r4, r2
	bne	.L536
	ldr	r4, [r3, #32]
	movw	r2, #17476
	tst	r4, r2
	bne	.L536
	ldr	r2, [r3, #68]
	bic	r2, r2, #32768
	str	r2, [r3, #68]
	b	.L536
.L538:
	cmp	r1, #4
	beq	.L547
	cmp	r1, #8
	beq	.L548
	cmp	r1, #12
	beq	.L549
	cmp	r1, #16
	ite	eq
	strbeq	r3, [r0, #66]
	strbne	r3, [r0, #67]
	ldr	r4, [sp], #4
.LCFI45:
	.cfi_remember_state
	.cfi_restore 4
	.cfi_def_cfa_offset 0
	movs	r0, #0
	bx	lr
.L548:
.LCFI46:
	.cfi_restore_state
	strb	r3, [r0, #64]
	movs	r0, #0
	b	.L528
.L547:
	strb	r3, [r0, #63]
	ldr	r4, [sp], #4
.LCFI47:
	.cfi_remember_state
	.cfi_restore 4
	.cfi_def_cfa_offset 0
	movs	r0, #0
	bx	lr
.L549:
.LCFI48:
	.cfi_restore_state
	strb	r3, [r0, #65]
	movs	r0, #0
	b	.L528
.L551:
	.align	2
.L550:
	.word	1073818624
	.cfi_endproc
.LFE302:
	.size	HAL_TIM_PWM_Stop_IT, .-HAL_TIM_PWM_Stop_IT
	.section	.text.HAL_TIM_PWM_Start_DMA,"ax",%progbits
	.align	1
	.p2align 2,,3
	.global	HAL_TIM_PWM_Start_DMA
	.syntax unified
	.thumb
	.thumb_func
	.fpu fpv4-sp-d16
	.type	HAL_TIM_PWM_Start_DMA, %function
HAL_TIM_PWM_Start_DMA:
.LFB304:
	.cfi_startproc
	@ args = 0, pretend = 0, frame = 0
	@ frame_needed = 0, uses_anonymous_args = 0
	push	{r4, r5, r6, lr}
.LCFI49:
	.cfi_def_cfa_offset 16
	.cfi_offset 4, -16
	.cfi_offset 5, -12
	.cfi_offset 6, -8
	.cfi_offset 14, -4
	mov	r5, r0
	mov	r4, r1
	cmp	r1, #0
	bne	.L553
	ldrb	r0, [r0, #62]	@ zero_extendqisi2
	sub	r0, #2
	clz	r0, r0
	lsrs	r0, r0, #5
.L554:
	cbnz	r0, .L606
	cbz	r4, .L607
	cmp	r4, #4
	beq	.L608
	cmp	r4, #8
	beq	.L609
	cmp	r4, #12
	beq	.L610
	cmp	r4, #16
	beq	.L611
	ldrb	r1, [r5, #67]	@ zero_extendqisi2
	cmp	r1, #1
	bne	.L605
.L565:
	cbz	r2, .L605
	cbz	r3, .L605
	cmp	r4, #0
	beq	.L612
	cmp	r4, #4
	beq	.L613
	cmp	r4, #8
	beq	.L614
	cmp	r4, #12
	beq	.L615
	cmp	r4, #16
	beq	.L616
	movs	r1, #2
	strb	r1, [r5, #67]
	subs	r1, r4, #4
	cmp	r1, #8
	bhi	.L605
	tbh	[pc, r1, lsl #1]
.L577:
	.2byte	(.L571-.L577)/2
	.2byte	(.L605-.L577)/2
	.2byte	(.L605-.L577)/2
	.2byte	(.L605-.L577)/2
	.2byte	(.L573-.L577)/2
	.2byte	(.L605-.L577)/2
	.2byte	(.L605-.L577)/2
	.2byte	(.L605-.L577)/2
	.2byte	(.L575-.L577)/2
	.p2align 1
.L606:
	movs	r0, #2
	pop	{r4, r5, r6, pc}
.L607:
	ldrb	r1, [r5, #62]	@ zero_extendqisi2
	sub	r1, #1
	clz	r1, r1
	lsrs	r1, r1, #5
	cmp	r1, #0
	bne	.L565
.L605:
	movs	r0, #1
	pop	{r4, r5, r6, pc}
.L553:
	cmp	r1, #4
	beq	.L617
	cmp	r1, #8
	beq	.L618
	cmp	r1, #12
	beq	.L619
	cmp	r1, #16
	ite	eq
	ldrbeq	r0, [r0, #66]	@ zero_extendqisi2
	ldrbne	r0, [r5, #67]	@ zero_extendqisi2
	sub	r0, #2
	clz	r0, r0
	lsrs	r0, r0, #5
	b	.L554
.L612:
	ldr	r0, [r5, #36]
	ldr	r6, .L620
	movs	r1, #2
	strb	r1, [r5, #62]
	mov	r1, r2
	ldr	r2, [r5]
	str	r6, [r0, #44]
	ldr	r6, .L620+4
	str	r6, [r0, #48]
	ldr	r6, .L620+8
	str	r6, [r0, #52]
	adds	r2, r2, #52
	bl	HAL_DMA_Start_IT
	cmp	r0, #0
	bne	.L605
	ldr	r3, [r5]
	ldr	r2, [r3, #12]
	orr	r2, r2, #512
	str	r2, [r3, #12]
.L578:
	ldr	r0, [r3, #32]
	movs	r2, #1
	and	r4, r4, #31
	lsl	r4, r2, r4
	bic	r0, r0, r4
	str	r0, [r3, #32]
	ldr	r1, [r3, #32]
	ldr	r2, .L620+12
	orrs	r4, r4, r1
	cmp	r3, r2
	str	r4, [r3, #32]
	beq	.L579
	add	r2, r2, #2048
	cmp	r3, r2
	beq	.L580
	add	r2, r2, #3072
	cmp	r3, r2
	beq	.L580
	add	r2, r2, #1024
	cmp	r3, r2
	beq	.L580
	add	r2, r2, #1024
	cmp	r3, r2
	bne	.L583
.L580:
	ldr	r2, [r3, #68]
	orr	r2, r2, #32768
	str	r2, [r3, #68]
.L583:
	cmp	r3, #1073741824
	beq	.L581
	ldr	r2, .L620+16
	cmp	r3, r2
	beq	.L581
	add	r2, r2, #1024
	cmp	r3, r2
	beq	.L581
	add	r2, r2, #76800
	cmp	r3, r2
	beq	.L581
	add	r2, r2, #3072
	cmp	r3, r2
	bne	.L582
.L581:
	ldr	r1, [r3, #8]
	ldr	r2, .L620+20
	ands	r2, r2, r1
	cmp	r2, #6
	beq	.L587
	cmp	r2, #65536
	beq	.L587
.L582:
	ldr	r2, [r3]
	orr	r2, r2, #1
	movs	r0, #0
	str	r2, [r3]
	pop	{r4, r5, r6, pc}
.L609:
	ldrb	r1, [r5, #64]	@ zero_extendqisi2
	sub	r1, #1
	clz	r1, r1
	lsrs	r1, r1, #5
	cmp	r1, #0
	bne	.L565
	b	.L605
.L619:
	ldrb	r0, [r0, #65]	@ zero_extendqisi2
	sub	r0, #2
	clz	r0, r0
	lsrs	r0, r0, #5
	b	.L554
.L617:
	ldrb	r0, [r0, #63]	@ zero_extendqisi2
	sub	r0, #2
	clz	r0, r0
	lsrs	r0, r0, #5
	b	.L554
.L608:
	ldrb	r1, [r5, #63]	@ zero_extendqisi2
	sub	r1, #1
	clz	r1, r1
	lsrs	r1, r1, #5
	cmp	r1, #0
	bne	.L565
	b	.L605
.L618:
	ldrb	r0, [r0, #64]	@ zero_extendqisi2
	sub	r0, #2
	clz	r0, r0
	lsrs	r0, r0, #5
	b	.L554
.L587:
	movs	r0, #0
	pop	{r4, r5, r6, pc}
.L610:
	ldrb	r1, [r5, #65]	@ zero_extendqisi2
	sub	r1, #1
	clz	r1, r1
	lsrs	r1, r1, #5
	cmp	r1, #0
	bne	.L565
	b	.L605
.L615:
	movs	r1, #2
	strb	r1, [r5, #65]
.L575:
	ldr	r0, [r5, #48]
	ldr	r6, .L620
	mov	r1, r2
	ldr	r2, [r5]
	str	r6, [r0, #44]
	ldr	r6, .L620+4
	str	r6, [r0, #48]
	ldr	r6, .L620+8
	str	r6, [r0, #52]
	adds	r2, r2, #64
	bl	HAL_DMA_Start_IT
	cmp	r0, #0
	bne	.L605
	ldr	r3, [r5]
	ldr	r2, [r3, #12]
	orr	r2, r2, #4096
	str	r2, [r3, #12]
	b	.L578
.L614:
	movs	r1, #2
	strb	r1, [r5, #64]
.L573:
	ldr	r0, [r5, #44]
	ldr	r6, .L620
	mov	r1, r2
	ldr	r2, [r5]
	str	r6, [r0, #44]
	ldr	r6, .L620+4
	str	r6, [r0, #48]
	ldr	r6, .L620+8
	str	r6, [r0, #52]
	adds	r2, r2, #60
	bl	HAL_DMA_Start_IT
	cmp	r0, #0
	bne	.L605
	ldr	r3, [r5]
	ldr	r2, [r3, #12]
	orr	r2, r2, #2048
	str	r2, [r3, #12]
	b	.L578
.L613:
	movs	r1, #2
	strb	r1, [r5, #63]
.L571:
	ldr	r0, [r5, #40]
	ldr	r6, .L620
	mov	r1, r2
	ldr	r2, [r5]
	str	r6, [r0, #44]
	ldr	r6, .L620+4
	str	r6, [r0, #48]
	ldr	r6, .L620+8
	str	r6, [r0, #52]
	adds	r2, r2, #56
	bl	HAL_DMA_Start_IT
	cmp	r0, #0
	bne	.L605
	ldr	r3, [r5]
	ldr	r2, [r3, #12]
	orr	r2, r2, #1024
	str	r2, [r3, #12]
	b	.L578
.L579:
	ldr	r2, [r3, #68]
	orr	r2, r2, #32768
	str	r2, [r3, #68]
	b	.L581
.L611:
	ldrb	r1, [r5, #66]	@ zero_extendqisi2
	sub	r1, #1
	clz	r1, r1
	lsrs	r1, r1, #5
	cmp	r1, #0
	bne	.L565
	b	.L605
.L616:
	movs	r3, #2
	strb	r3, [r5, #66]
	b	.L605
.L621:
	.align	2
.L620:
	.word	TIM_DMADelayPulseCplt
	.word	TIM_DMADelayPulseHalfCplt
	.word	TIM_DMAError
	.word	1073818624
	.word	1073742848
	.word	65543
	.cfi_endproc
.LFE304:
	.size	HAL_TIM_PWM_Start_DMA, .-HAL_TIM_PWM_Start_DMA
	.section	.text.HAL_TIM_PWM_Stop_DMA,"ax",%progbits
	.align	1
	.p2align 2,,3
	.global	HAL_TIM_PWM_Stop_DMA
	.syntax unified
	.thumb
	.thumb_func
	.fpu fpv4-sp-d16
	.type	HAL_TIM_PWM_Stop_DMA, %function
HAL_TIM_PWM_Stop_DMA:
.LFB306:
	.cfi_startproc
	@ args = 0, pretend = 0, frame = 0
	@ frame_needed = 0, uses_anonymous_args = 0
	push	{r3, r4, r5, lr}
.LCFI50:
	.cfi_def_cfa_offset 16
	.cfi_offset 3, -16
	.cfi_offset 4, -12
	.cfi_offset 5, -8
	.cfi_offset 14, -4
	mov	r4, r1
	mov	r5, r0
	cmp	r1, #12
	bhi	.L638
	tbb	[pc, r1]
.L625:
	.byte	(.L628-.L625)/2
	.byte	(.L638-.L625)/2
	.byte	(.L638-.L625)/2
	.byte	(.L638-.L625)/2
	.byte	(.L627-.L625)/2
	.byte	(.L638-.L625)/2
	.byte	(.L638-.L625)/2
	.byte	(.L638-.L625)/2
	.byte	(.L626-.L625)/2
	.byte	(.L638-.L625)/2
	.byte	(.L638-.L625)/2
	.byte	(.L638-.L625)/2
	.byte	(.L624-.L625)/2
	.p2align 1
.L638:
	movs	r0, #1
	pop	{r3, r4, r5, pc}
.L624:
	ldr	r2, [r0]
	ldr	r0, [r0, #48]
	ldr	r3, [r2, #12]
	bic	r3, r3, #4096
	str	r3, [r2, #12]
	bl	HAL_DMA_Abort_IT
.L629:
	ldr	r3, [r5]
	and	r0, r4, #31
	ldr	r2, [r3, #32]
	movs	r1, #1
	lsls	r1, r1, r0
	bic	r2, r2, r1
	str	r2, [r3, #32]
	ldr	r2, .L643
	ldr	r1, [r3, #32]
	str	r1, [r3, #32]
	cmp	r3, r2
	beq	.L630
	add	r2, r2, #2048
	cmp	r3, r2
	beq	.L630
	add	r2, r2, #3072
	cmp	r3, r2
	beq	.L630
	add	r2, r2, #1024
	cmp	r3, r2
	beq	.L630
	add	r2, r2, #1024
	cmp	r3, r2
	beq	.L630
.L631:
	ldr	r1, [r3, #32]
	movw	r2, #4369
	tst	r1, r2
	bne	.L632
	ldr	r1, [r3, #32]
	movw	r2, #17476
	tst	r1, r2
	bne	.L632
	ldr	r2, [r3]
	bic	r2, r2, #1
	str	r2, [r3]
.L632:
	movs	r3, #1
	cbnz	r4, .L633
	strb	r3, [r5, #62]
	mov	r0, r4
	pop	{r3, r4, r5, pc}
.L626:
	ldr	r2, [r0]
	ldr	r0, [r0, #44]
	ldr	r3, [r2, #12]
	bic	r3, r3, #2048
	str	r3, [r2, #12]
	bl	HAL_DMA_Abort_IT
	b	.L629
.L627:
	ldr	r2, [r0]
	ldr	r0, [r0, #40]
	ldr	r3, [r2, #12]
	bic	r3, r3, #1024
	str	r3, [r2, #12]
	bl	HAL_DMA_Abort_IT
	b	.L629
.L628:
	ldr	r2, [r0]
	ldr	r0, [r0, #36]
	ldr	r3, [r2, #12]
	bic	r3, r3, #512
	str	r3, [r2, #12]
	bl	HAL_DMA_Abort_IT
	b	.L629
.L630:
	ldr	r1, [r3, #32]
	movw	r2, #4369
	tst	r1, r2
	bne	.L631
	ldr	r1, [r3, #32]
	movw	r2, #17476
	tst	r1, r2
	bne	.L631
	ldr	r2, [r3, #68]
	bic	r2, r2, #32768
	str	r2, [r3, #68]
	b	.L631
.L633:
	cmp	r4, #4
	beq	.L640
	cmp	r4, #8
	beq	.L641
	cmp	r4, #12
	beq	.L642
	cmp	r4, #16
	ite	eq
	strbeq	r3, [r5, #66]
	strbne	r3, [r5, #67]
	movs	r0, #0
	pop	{r3, r4, r5, pc}
.L641:
	strb	r3, [r5, #64]
	movs	r0, #0
	pop	{r3, r4, r5, pc}
.L640:
	strb	r3, [r5, #63]
	movs	r0, #0
	pop	{r3, r4, r5, pc}
.L642:
	strb	r3, [r5, #65]
	movs	r0, #0
	pop	{r3, r4, r5, pc}
.L644:
	.align	2
.L643:
	.word	1073818624
	.cfi_endproc
.LFE306:
	.size	HAL_TIM_PWM_Stop_DMA, .-HAL_TIM_PWM_Stop_DMA
	.section	.text.HAL_TIM_IC_MspInit,"ax",%progbits
	.align	1
	.p2align 2,,3
	.weak	HAL_TIM_IC_MspInit
	.syntax unified
	.thumb
	.thumb_func
	.fpu fpv4-sp-d16
	.type	HAL_TIM_IC_MspInit, %function
HAL_TIM_IC_MspInit:
.LFB264:
	.cfi_startproc
	@ args = 0, pretend = 0, frame = 0
	@ frame_needed = 0, uses_anonymous_args = 0
	@ link register save eliminated.
	bx	lr
	.cfi_endproc
.LFE264:
	.size	HAL_TIM_IC_MspInit, .-HAL_TIM_IC_MspInit
	.section	.text.HAL_TIM_IC_Init,"ax",%progbits
	.align	1
	.p2align 2,,3
	.global	HAL_TIM_IC_Init
	.syntax unified
	.thumb
	.thumb_func
	.fpu fpv4-sp-d16
	.type	HAL_TIM_IC_Init, %function
HAL_TIM_IC_Init:
.LVL315:
.LFB162:
	.loc 1 2003 1 is_stmt 1 view -0
	.cfi_startproc
	@ args = 0, pretend = 0, frame = 0
	@ frame_needed = 0, uses_anonymous_args = 0
	.loc 1 2005 3 view .LVU1445
	.loc 1 2005 6 is_stmt 0 view .LVU1446
	cmp	r0, #0
	beq	.L662
	.loc 1 2011 3 is_stmt 1 view .LVU1447
	.loc 1 2012 3 view .LVU1448
	.loc 1 2013 3 view .LVU1449
	.loc 1 2014 3 view .LVU1450
	.loc 1 2015 3 view .LVU1451
	.loc 1 2017 3 view .LVU1452
	.loc 1 2003 1 is_stmt 0 view .LVU1453
	push	{r4, lr}
.LCFI51:
	.cfi_def_cfa_offset 8
	.cfi_offset 4, -8
	.cfi_offset 14, -4
	.loc 1 2017 11 view .LVU1454
	ldrb	r3, [r0, #61]	@ zero_extendqisi2
	mov	r4, r0
	.loc 1 2017 6 view .LVU1455
	and	r2, r3, #255
	cmp	r3, #0
	beq	.L673
.LVL316:
.L648:
	.loc 1 2039 3 is_stmt 1 view .LVU1456
	.loc 1 2042 3 is_stmt 0 view .LVU1457
	ldr	r3, [r4]
.LBB214:
.LBB215:
	.loc 1 7114 6 view .LVU1458
	ldr	r1, .L674
.LBE215:
.LBE214:
	.loc 1 2039 15 view .LVU1459
	movs	r2, #2
	strb	r2, [r4, #61]
	.loc 1 2042 3 is_stmt 1 view .LVU1460
.LVL317:
.LBB219:
.LBI214:
	.loc 1 7108 6 view .LVU1461
.LBB216:
	.loc 1 7110 3 view .LVU1462
	.loc 1 7111 3 view .LVU1463
	.loc 1 7114 6 is_stmt 0 view .LVU1464
	cmp	r3, r1
	.loc 1 7111 10 view .LVU1465
	ldr	r2, [r3]
.LVL318:
	.loc 1 7114 3 is_stmt 1 view .LVU1466
	.loc 1 7114 6 is_stmt 0 view .LVU1467
	beq	.L653
	.loc 1 7114 7 view .LVU1468
	cmp	r3, #1073741824
	beq	.L650
	sub	r1, r1, #75776
	cmp	r3, r1
	beq	.L650
	add	r1, r1, #1024
	cmp	r3, r1
	beq	.L650
	add	r1, r1, #76800
	cmp	r3, r1
	beq	.L653
	.loc 1 7121 7 view .LVU1469
	add	r1, r1, #3072
	cmp	r3, r1
	beq	.L654
	add	r1, r1, #1024
	cmp	r3, r1
	beq	.L654
	add	r1, r1, #1024
	cmp	r3, r1
	beq	.L654
	.loc 1 7129 3 is_stmt 1 view .LVU1470
	ldr	r0, [r4, #24]
	.loc 1 7134 34 is_stmt 0 view .LVU1471
	ldr	r1, [r4, #12]
	.loc 1 7129 3 view .LVU1472
	bic	r2, r2, #128
.LVL319:
	.loc 1 7129 3 view .LVU1473
	orrs	r2, r2, r0
.LVL320:
	.loc 1 7131 3 is_stmt 1 view .LVU1474
	.loc 1 7131 13 is_stmt 0 view .LVU1475
	str	r2, [r3]
	.loc 1 7134 3 is_stmt 1 view .LVU1476
	.loc 1 7137 24 is_stmt 0 view .LVU1477
	ldr	r2, [r4, #4]
.LVL321:
	.loc 1 7134 13 view .LVU1478
	str	r1, [r3, #44]
.LVL322:
	.loc 1 7137 3 is_stmt 1 view .LVU1479
	.loc 1 7137 13 is_stmt 0 view .LVU1480
	str	r2, [r3, #40]
	.loc 1 7139 3 is_stmt 1 view .LVU1481
	.loc 1 7139 3 is_stmt 0 view .LVU1482
	b	.L659
.LVL323:
.L650:
	.loc 1 7117 5 is_stmt 1 view .LVU1483
	.loc 1 7118 12 is_stmt 0 view .LVU1484
	ldr	r1, [r4, #8]
	.loc 1 7125 12 view .LVU1485
	ldr	r0, [r4, #16]
	.loc 1 7117 12 view .LVU1486
	bic	r2, r2, #112
.LVL324:
	.loc 1 7118 5 is_stmt 1 view .LVU1487
	.loc 1 7118 12 is_stmt 0 view .LVU1488
	orrs	r2, r2, r1
.LVL325:
	.loc 1 7121 3 is_stmt 1 view .LVU1489
	.loc 1 7124 5 view .LVU1490
	.loc 1 7124 12 is_stmt 0 view .LVU1491
	bic	r2, r2, #768
.LVL326:
	.loc 1 7125 5 is_stmt 1 view .LVU1492
	.loc 1 7129 3 view .LVU1493
	ldr	r1, [r4, #24]
	.loc 1 7125 12 is_stmt 0 view .LVU1494
	orrs	r2, r2, r0
.LVL327:
	.loc 1 7129 3 view .LVU1495
	bic	r2, r2, #128
.LVL328:
	.loc 1 7134 34 view .LVU1496
	ldr	r0, [r4, #12]
	.loc 1 7129 3 view .LVU1497
	orrs	r2, r2, r1
.LVL329:
	.loc 1 7131 3 is_stmt 1 view .LVU1498
	.loc 1 7137 24 is_stmt 0 view .LVU1499
	ldr	r1, [r4, #4]
	.loc 1 7131 13 view .LVU1500
	str	r2, [r3]
	.loc 1 7134 3 is_stmt 1 view .LVU1501
	.loc 1 7134 13 is_stmt 0 view .LVU1502
	str	r0, [r3, #44]
	.loc 1 7137 3 is_stmt 1 view .LVU1503
	.loc 1 7137 13 is_stmt 0 view .LVU1504
	str	r1, [r3, #40]
	.loc 1 7139 3 is_stmt 1 view .LVU1505
.LVL330:
.L659:
	.loc 1 7147 3 view .LVU1506
	.loc 1 7147 13 is_stmt 0 view .LVU1507
	movs	r2, #1
	str	r2, [r3, #20]
	.loc 1 7150 3 is_stmt 1 view .LVU1508
	.loc 1 7150 7 is_stmt 0 view .LVU1509
	ldr	r2, [r3, #16]
	.loc 1 7150 6 view .LVU1510
	lsls	r2, r2, #31
	bpl	.L658
	.loc 1 7153 5 is_stmt 1 view .LVU1511
	ldr	r2, [r3, #16]
	bic	r2, r2, #1
	str	r2, [r3, #16]
.L658:
.LVL331:
	.loc 1 7153 5 is_stmt 0 view .LVU1512
.LBE216:
.LBE219:
	.loc 1 2045 3 is_stmt 1 view .LVU1513
	.loc 1 2045 23 is_stmt 0 view .LVU1514
	movs	r3, #1
	strb	r3, [r4, #72]
	.loc 1 2048 3 is_stmt 1 view .LVU1515
	.loc 1 2048 3 view .LVU1516
	strb	r3, [r4, #62]
	.loc 1 2048 3 view .LVU1517
	strb	r3, [r4, #63]
	.loc 1 2048 3 view .LVU1518
	strb	r3, [r4, #64]
	.loc 1 2048 3 view .LVU1519
	strb	r3, [r4, #65]
	.loc 1 2048 3 view .LVU1520
	strb	r3, [r4, #66]
	.loc 1 2048 3 view .LVU1521
	strb	r3, [r4, #67]
	.loc 1 2048 3 view .LVU1522
	.loc 1 2049 3 view .LVU1523
	.loc 1 2049 3 view .LVU1524
	strb	r3, [r4, #68]
	.loc 1 2049 3 view .LVU1525
	strb	r3, [r4, #69]
	.loc 1 2049 3 view .LVU1526
	strb	r3, [r4, #70]
	.loc 1 2049 3 view .LVU1527
	strb	r3, [r4, #71]
	.loc 1 2049 3 view .LVU1528
	.loc 1 2052 3 view .LVU1529
	.loc 1 2052 15 is_stmt 0 view .LVU1530
	strb	r3, [r4, #61]
	.loc 1 2054 3 is_stmt 1 view .LVU1531
	.loc 1 2054 10 is_stmt 0 view .LVU1532
	movs	r0, #0
	.loc 1 2055 1 view .LVU1533
	pop	{r4, pc}
.LVL332:
.L653:
.LBB220:
.LBB217:
	.loc 1 7117 5 is_stmt 1 view .LVU1534
	.loc 1 7118 12 is_stmt 0 view .LVU1535
	ldr	r0, [r4, #8]
	.loc 1 7125 12 view .LVU1536
	ldr	r1, [r4, #16]
	.loc 1 7117 12 view .LVU1537
	bic	r2, r2, #112
.LVL333:
	.loc 1 7118 5 is_stmt 1 view .LVU1538
	.loc 1 7118 12 is_stmt 0 view .LVU1539
	orrs	r2, r2, r0
.LVL334:
	.loc 1 7121 3 is_stmt 1 view .LVU1540
	.loc 1 7124 5 view .LVU1541
	.loc 1 7124 12 is_stmt 0 view .LVU1542
	bic	r2, r2, #768
.LVL335:
	.loc 1 7125 5 is_stmt 1 view .LVU1543
	.loc 1 7129 3 view .LVU1544
	.loc 1 7125 12 is_stmt 0 view .LVU1545
	orrs	r2, r2, r1
.LVL336:
	.loc 1 7129 3 view .LVU1546
	ldr	r1, [r4, #24]
.L672:
	.loc 1 7129 3 view .LVU1547
	bic	r2, r2, #128
.LVL337:
	.loc 1 7129 3 view .LVU1548
	orrs	r2, r2, r1
.LVL338:
	.loc 1 7131 3 is_stmt 1 view .LVU1549
	.loc 1 7131 13 is_stmt 0 view .LVU1550
	str	r2, [r3]
	.loc 1 7134 3 is_stmt 1 view .LVU1551
	.loc 1 7134 34 is_stmt 0 view .LVU1552
	ldr	r2, [r4, #12]
.LVL339:
	.loc 1 7134 13 view .LVU1553
	str	r2, [r3, #44]
.LVL340:
	.loc 1 7137 3 is_stmt 1 view .LVU1554
	.loc 1 7137 24 is_stmt 0 view .LVU1555
	ldr	r2, [r4, #4]
	.loc 1 7137 13 view .LVU1556
	str	r2, [r3, #40]
	.loc 1 7139 3 is_stmt 1 view .LVU1557
	.loc 1 7142 5 view .LVU1558
	.loc 1 7142 26 is_stmt 0 view .LVU1559
	ldr	r2, [r4, #20]
	.loc 1 7142 15 view .LVU1560
	str	r2, [r3, #48]
	b	.L659
.LVL341:
.L673:
	.loc 1 7142 15 view .LVU1561
.LBE217:
.LBE220:
	.loc 1 2020 5 is_stmt 1 view .LVU1562
	.loc 1 2020 16 is_stmt 0 view .LVU1563
	strb	r2, [r0, #60]
	.loc 1 2034 5 is_stmt 1 view .LVU1564
	bl	HAL_TIM_IC_MspInit
.LVL342:
	.loc 1 2034 5 is_stmt 0 view .LVU1565
	b	.L648
.LVL343:
.L654:
.LBB221:
.LBB218:
	.loc 1 7124 5 is_stmt 1 view .LVU1566
	.loc 1 7125 12 is_stmt 0 view .LVU1567
	ldr	r0, [r4, #16]
	.loc 1 7129 3 view .LVU1568
	ldr	r1, [r4, #24]
	.loc 1 7124 12 view .LVU1569
	bic	r2, r2, #768
.LVL344:
	.loc 1 7125 5 is_stmt 1 view .LVU1570
	.loc 1 7129 3 view .LVU1571
	.loc 1 7125 12 is_stmt 0 view .LVU1572
	orrs	r2, r2, r0
.LVL345:
	.loc 1 7125 12 view .LVU1573
	b	.L672
.LVL346:
.L662:
.LCFI52:
	.cfi_def_cfa_offset 0
	.cfi_restore 4
	.cfi_restore 14
	.loc 1 7125 12 view .LVU1574
.LBE218:
.LBE221:
	.loc 1 2007 12 view .LVU1575
	movs	r0, #1
.LVL347:
	.loc 1 2055 1 view .LVU1576
	bx	lr
.L675:
	.align	2
.L674:
	.word	1073818624
	.cfi_endproc
.LFE162:
	.size	HAL_TIM_IC_Init, .-HAL_TIM_IC_Init
	.section	.text.HAL_TIM_IC_MspDeInit,"ax",%progbits
	.align	1
	.p2align 2,,3
	.weak	HAL_TIM_IC_MspDeInit
	.syntax unified
	.thumb
	.thumb_func
	.fpu fpv4-sp-d16
	.type	HAL_TIM_IC_MspDeInit, %function
HAL_TIM_IC_MspDeInit:
.LFB266:
	.cfi_startproc
	@ args = 0, pretend = 0, frame = 0
	@ frame_needed = 0, uses_anonymous_args = 0
	@ link register save eliminated.
	bx	lr
	.cfi_endproc
.LFE266:
	.size	HAL_TIM_IC_MspDeInit, .-HAL_TIM_IC_MspDeInit
	.section	.text.HAL_TIM_IC_DeInit,"ax",%progbits
	.align	1
	.p2align 2,,3
	.global	HAL_TIM_IC_DeInit
	.syntax unified
	.thumb
	.thumb_func
	.fpu fpv4-sp-d16
	.type	HAL_TIM_IC_DeInit, %function
HAL_TIM_IC_DeInit:
.LVL348:
.LFB163:
	.loc 1 2063 1 is_stmt 1 view -0
	.cfi_startproc
	@ args = 0, pretend = 0, frame = 0
	@ frame_needed = 0, uses_anonymous_args = 0
	.loc 1 2065 3 view .LVU1578
	.loc 1 2067 3 view .LVU1579
	.loc 1 2067 15 is_stmt 0 view .LVU1580
	movs	r2, #2
	.loc 1 2070 3 view .LVU1581
	ldr	r3, [r0]
	.loc 1 2063 1 view .LVU1582
	push	{r4, lr}
.LCFI53:
	.cfi_def_cfa_offset 8
	.cfi_offset 4, -8
	.cfi_offset 14, -4
	.loc 1 2067 15 view .LVU1583
	strb	r2, [r0, #61]
	.loc 1 2070 3 is_stmt 1 view .LVU1584
	.loc 1 2070 3 view .LVU1585
	ldr	r1, [r3, #32]
	movw	r2, #4369
	tst	r1, r2
	.loc 1 2063 1 is_stmt 0 view .LVU1586
	mov	r4, r0
	.loc 1 2070 3 view .LVU1587
	bne	.L678
	.loc 1 2070 3 is_stmt 1 discriminator 1 view .LVU1588
	ldr	r1, [r3, #32]
	movw	r2, #17476
	tst	r1, r2
	bne	.L678
	.loc 1 2070 3 discriminator 3 view .LVU1589
	ldr	r2, [r3]
	bic	r2, r2, #1
	str	r2, [r3]
.L678:
	.loc 1 2070 3 discriminator 5 view .LVU1590
	.loc 1 2081 3 discriminator 5 view .LVU1591
	mov	r0, r4
.LVL349:
	.loc 1 2081 3 is_stmt 0 discriminator 5 view .LVU1592
	bl	HAL_TIM_IC_MspDeInit
.LVL350:
	.loc 1 2085 3 is_stmt 1 discriminator 5 view .LVU1593
	.loc 1 2085 23 is_stmt 0 discriminator 5 view .LVU1594
	movs	r0, #0
	strb	r0, [r4, #72]
	.loc 1 2088 3 is_stmt 1 discriminator 5 view .LVU1595
	.loc 1 2088 3 discriminator 5 view .LVU1596
	.loc 1 2095 3 is_stmt 0 discriminator 5 view .LVU1597
	strb	r0, [r4, #60]
	.loc 1 2088 3 discriminator 5 view .LVU1598
	strb	r0, [r4, #62]
	.loc 1 2088 3 is_stmt 1 discriminator 5 view .LVU1599
	strb	r0, [r4, #63]
	.loc 1 2088 3 discriminator 5 view .LVU1600
	strb	r0, [r4, #64]
	.loc 1 2088 3 discriminator 5 view .LVU1601
	strb	r0, [r4, #65]
	.loc 1 2088 3 discriminator 5 view .LVU1602
	strb	r0, [r4, #66]
	.loc 1 2088 3 discriminator 5 view .LVU1603
	strb	r0, [r4, #67]
	.loc 1 2088 3 discriminator 5 view .LVU1604
	.loc 1 2089 3 discriminator 5 view .LVU1605
	.loc 1 2089 3 discriminator 5 view .LVU1606
	strb	r0, [r4, #68]
	.loc 1 2089 3 discriminator 5 view .LVU1607
	strb	r0, [r4, #69]
	.loc 1 2089 3 discriminator 5 view .LVU1608
	strb	r0, [r4, #70]
	.loc 1 2089 3 discriminator 5 view .LVU1609
	strb	r0, [r4, #71]
	.loc 1 2089 3 discriminator 5 view .LVU1610
	.loc 1 2092 3 discriminator 5 view .LVU1611
	.loc 1 2092 15 is_stmt 0 discriminator 5 view .LVU1612
	strb	r0, [r4, #61]
	.loc 1 2095 3 is_stmt 1 discriminator 5 view .LVU1613
	.loc 1 2095 3 discriminator 5 view .LVU1614
	.loc 1 2095 3 discriminator 5 view .LVU1615
	.loc 1 2097 3 discriminator 5 view .LVU1616
	.loc 1 2098 1 is_stmt 0 discriminator 5 view .LVU1617
	pop	{r4, pc}
	.loc 1 2098 1 discriminator 5 view .LVU1618
	.cfi_endproc
.LFE163:
	.size	HAL_TIM_IC_DeInit, .-HAL_TIM_IC_DeInit
	.section	.text.HAL_TIM_IC_Start,"ax",%progbits
	.align	1
	.p2align 2,,3
	.global	HAL_TIM_IC_Start
	.syntax unified
	.thumb
	.thumb_func
	.fpu fpv4-sp-d16
	.type	HAL_TIM_IC_Start, %function
HAL_TIM_IC_Start:
.LVL351:
.LFB166:
	.loc 1 2142 1 is_stmt 1 view -0
	.cfi_startproc
	@ args = 0, pretend = 0, frame = 0
	@ frame_needed = 0, uses_anonymous_args = 0
	@ link register save eliminated.
	.loc 1 2143 3 view .LVU1620
	.loc 1 2144 3 view .LVU1621
	.loc 1 2144 47 is_stmt 0 view .LVU1622
	cbnz	r1, .L681
	.loc 1 2144 47 discriminator 1 view .LVU1623
	ldrb	r3, [r0, #62]	@ zero_extendqisi2
	.loc 1 2145 61 discriminator 1 view .LVU1624
	ldrb	r2, [r0, #68]	@ zero_extendqisi2
	.loc 1 2144 47 discriminator 1 view .LVU1625
	uxtb	r3, r3
.LVL352:
	.loc 1 2145 3 is_stmt 1 discriminator 1 view .LVU1626
	.loc 1 2145 61 is_stmt 0 discriminator 1 view .LVU1627
	uxtb	r2, r2
.L682:
.LVL353:
	.loc 1 2148 3 is_stmt 1 discriminator 12 view .LVU1628
	.loc 1 2151 3 discriminator 12 view .LVU1629
	.loc 1 2151 6 is_stmt 0 discriminator 12 view .LVU1630
	cmp	r3, #1
	bne	.L698
	.loc 1 2152 7 view .LVU1631
	cmp	r2, #1
	beq	.L705
	.loc 1 2180 1 view .LVU1632
	mov	r0, r3
.LVL354:
	.loc 1 2180 1 view .LVU1633
	bx	lr
.LVL355:
.L698:
	.loc 1 2154 12 view .LVU1634
	movs	r3, #1
.LVL356:
	.loc 1 2180 1 view .LVU1635
	mov	r0, r3
.LVL357:
	.loc 1 2180 1 view .LVU1636
	bx	lr
.LVL358:
.L681:
	.loc 1 2144 47 discriminator 2 view .LVU1637
	cmp	r1, #4
	beq	.L706
	.loc 1 2144 47 discriminator 5 view .LVU1638
	cmp	r1, #8
	beq	.L707
	.loc 1 2144 47 discriminator 8 view .LVU1639
	cmp	r1, #12
	beq	.L708
	.loc 1 2144 47 discriminator 11 view .LVU1640
	cmp	r1, #16
	ite	eq
	ldrbeq	r3, [r0, #66]	@ zero_extendqisi2
	ldrbne	r3, [r0, #67]	@ zero_extendqisi2
	uxtb	r3, r3
.L686:
.LVL359:
	.loc 1 2145 3 is_stmt 1 view .LVU1641
	.loc 1 2145 61 is_stmt 0 view .LVU1642
	ldrb	r2, [r0, #71]	@ zero_extendqisi2
	uxtb	r2, r2
	b	.L682
.LVL360:
.L705:
	.loc 1 2158 3 is_stmt 1 view .LVU1643
	movs	r3, #2
.LVL361:
	.loc 1 2158 3 is_stmt 0 view .LVU1644
	cmp	r1, #0
	bne	.L689
	.loc 1 2158 3 discriminator 1 view .LVU1645
	strb	r3, [r0, #62]
	.loc 1 2159 3 is_stmt 1 discriminator 1 view .LVU1646
	strb	r3, [r0, #68]
.L690:
	.loc 1 2162 3 view .LVU1647
	ldr	r2, [r0]
.LVL362:
.LBB222:
.LBI222:
	.loc 1 8063 6 view .LVU1648
.LBB223:
	.loc 1 8065 3 view .LVU1649
	.loc 1 8068 3 view .LVU1650
	.loc 1 8069 3 view .LVU1651
	.loc 1 8071 3 view .LVU1652
	.loc 1 8071 7 is_stmt 0 view .LVU1653
	movs	r3, #1
	.loc 1 8074 14 view .LVU1654
	ldr	r0, [r2, #32]
.LVL363:
	.loc 1 8071 35 view .LVU1655
	and	r1, r1, #31
.LVL364:
	.loc 1 8071 7 view .LVU1656
	lsl	r1, r3, r1
.LVL365:
	.loc 1 8074 3 is_stmt 1 view .LVU1657
	.loc 1 8074 14 is_stmt 0 view .LVU1658
	bic	r0, r0, r1
	str	r0, [r2, #32]
	.loc 1 8077 3 is_stmt 1 view .LVU1659
	.loc 1 8077 14 is_stmt 0 view .LVU1660
	ldr	r0, [r2, #32]
.LBE223:
.LBE222:
	.loc 1 2165 6 view .LVU1661
	ldr	r3, .L712
.LBB226:
.LBB224:
	.loc 1 8077 14 view .LVU1662
	orrs	r1, r1, r0
.LVL366:
	.loc 1 8077 14 view .LVU1663
.LBE224:
.LBE226:
	.loc 1 2165 6 view .LVU1664
	cmp	r2, r3
.LBB227:
.LBB225:
	.loc 1 8077 14 view .LVU1665
	str	r1, [r2, #32]
.LVL367:
	.loc 1 8077 14 view .LVU1666
.LBE225:
.LBE227:
	.loc 1 2165 3 is_stmt 1 view .LVU1667
	.loc 1 2165 6 is_stmt 0 view .LVU1668
	beq	.L696
	.loc 1 2165 7 discriminator 1 view .LVU1669
	cmp	r2, #1073741824
	beq	.L696
	.loc 1 2165 7 discriminator 2 view .LVU1670
	sub	r3, r3, #75776
	cmp	r2, r3
	beq	.L696
	.loc 1 2165 7 discriminator 3 view .LVU1671
	add	r3, r3, #1024
	cmp	r2, r3
	beq	.L696
	.loc 1 2165 7 discriminator 4 view .LVU1672
	add	r3, r3, #76800
	cmp	r2, r3
	beq	.L696
	.loc 1 2165 7 discriminator 5 view .LVU1673
	add	r3, r3, #3072
	cmp	r2, r3
	bne	.L697
.L696:
	.loc 1 2167 5 is_stmt 1 view .LVU1674
	.loc 1 2167 29 is_stmt 0 view .LVU1675
	ldr	r1, [r2, #8]
	.loc 1 2167 13 view .LVU1676
	ldr	r3, .L712+4
	ands	r3, r3, r1
.LVL368:
	.loc 1 2168 5 is_stmt 1 view .LVU1677
	.loc 1 2168 8 is_stmt 0 view .LVU1678
	cmp	r3, #6
	beq	.L700
	.loc 1 2168 9 discriminator 1 view .LVU1679
	cmp	r3, #65536
	beq	.L700
.LVL369:
.L697:
	.loc 1 2175 5 is_stmt 1 view .LVU1680
	ldr	r1, [r2]
	.loc 1 2179 10 is_stmt 0 view .LVU1681
	movs	r3, #0
	.loc 1 2175 5 view .LVU1682
	orr	r1, r1, #1
	str	r1, [r2]
	.loc 1 2180 1 view .LVU1683
	mov	r0, r3
	bx	lr
.LVL370:
.L706:
	.loc 1 2144 47 discriminator 4 view .LVU1684
	ldrb	r3, [r0, #63]	@ zero_extendqisi2
	.loc 1 2145 61 discriminator 4 view .LVU1685
	ldrb	r2, [r0, #69]	@ zero_extendqisi2
	.loc 1 2144 47 discriminator 4 view .LVU1686
	uxtb	r3, r3
.LVL371:
	.loc 1 2145 3 is_stmt 1 discriminator 4 view .LVU1687
	.loc 1 2145 61 is_stmt 0 discriminator 4 view .LVU1688
	uxtb	r2, r2
	b	.L682
.LVL372:
.L689:
	.loc 1 2158 3 discriminator 2 view .LVU1689
	cmp	r1, #4
	beq	.L709
	.loc 1 2158 3 discriminator 4 view .LVU1690
	cmp	r1, #8
	beq	.L710
	.loc 1 2158 3 discriminator 7 view .LVU1691
	cmp	r1, #12
	beq	.L711
	.loc 1 2158 3 discriminator 10 view .LVU1692
	cmp	r1, #16
	ite	eq
	strbeq	r3, [r0, #66]
	strbne	r3, [r0, #67]
.L694:
	.loc 1 2159 3 is_stmt 1 view .LVU1693
	movs	r3, #2
	strb	r3, [r0, #71]
	b	.L690
.LVL373:
.L708:
	.loc 1 2144 47 is_stmt 0 discriminator 10 view .LVU1694
	ldrb	r3, [r0, #65]	@ zero_extendqisi2
	uxtb	r3, r3
	b	.L686
.LVL374:
.L700:
	.loc 1 2179 10 view .LVU1695
	movs	r3, #0
.LVL375:
	.loc 1 2180 1 view .LVU1696
	mov	r0, r3
	bx	lr
.LVL376:
.L707:
	.loc 1 2144 47 discriminator 7 view .LVU1697
	ldrb	r3, [r0, #64]	@ zero_extendqisi2
	.loc 1 2145 61 discriminator 7 view .LVU1698
	ldrb	r2, [r0, #70]	@ zero_extendqisi2
	.loc 1 2144 47 discriminator 7 view .LVU1699
	uxtb	r3, r3
.LVL377:
	.loc 1 2145 3 is_stmt 1 discriminator 7 view .LVU1700
	.loc 1 2145 61 is_stmt 0 discriminator 7 view .LVU1701
	uxtb	r2, r2
	b	.L682
.LVL378:
.L711:
	.loc 1 2158 3 discriminator 9 view .LVU1702
	strb	r3, [r0, #65]
	b	.L694
.L709:
	.loc 1 2158 3 discriminator 3 view .LVU1703
	strb	r3, [r0, #63]
	.loc 1 2159 3 is_stmt 1 discriminator 3 view .LVU1704
	strb	r3, [r0, #69]
	b	.L690
.L710:
	.loc 1 2158 3 is_stmt 0 discriminator 6 view .LVU1705
	strb	r3, [r0, #64]
	.loc 1 2159 3 is_stmt 1 discriminator 6 view .LVU1706
	strb	r3, [r0, #70]
	b	.L690
.L713:
	.align	2
.L712:
	.word	1073818624
	.word	65543
	.cfi_endproc
.LFE166:
	.size	HAL_TIM_IC_Start, .-HAL_TIM_IC_Start
	.section	.text.HAL_TIM_IC_Stop,"ax",%progbits
	.align	1
	.p2align 2,,3
	.global	HAL_TIM_IC_Stop
	.syntax unified
	.thumb
	.thumb_func
	.fpu fpv4-sp-d16
	.type	HAL_TIM_IC_Stop, %function
HAL_TIM_IC_Stop:
.LVL379:
.LFB167:
	.loc 1 2194 1 view -0
	.cfi_startproc
	@ args = 0, pretend = 0, frame = 0
	@ frame_needed = 0, uses_anonymous_args = 0
	@ link register save eliminated.
	.loc 1 2196 3 view .LVU1708
	.loc 1 2199 3 view .LVU1709
	ldr	r3, [r0]
.LVL380:
.LBB228:
.LBI228:
	.loc 1 8063 6 view .LVU1710
.LBB229:
	.loc 1 8065 3 view .LVU1711
	.loc 1 8068 3 view .LVU1712
	.loc 1 8069 3 view .LVU1713
	.loc 1 8071 3 view .LVU1714
	.loc 1 8074 3 view .LVU1715
.LBE229:
.LBE228:
	.loc 1 2194 1 is_stmt 0 view .LVU1716
	push	{r4}
.LCFI54:
	.cfi_def_cfa_offset 4
	.cfi_offset 4, -4
.LBB231:
.LBB230:
	.loc 1 8074 14 view .LVU1717
	ldr	r2, [r3, #32]
	.loc 1 8071 35 view .LVU1718
	and	r4, r1, #31
	.loc 1 8071 7 view .LVU1719
	mov	ip, #1
	lsl	ip, ip, r4
.LVL381:
	.loc 1 8074 14 view .LVU1720
	bic	r2, r2, ip
	str	r2, [r3, #32]
	.loc 1 8077 3 is_stmt 1 view .LVU1721
	.loc 1 8077 14 is_stmt 0 view .LVU1722
	ldr	r2, [r3, #32]
	str	r2, [r3, #32]
.LVL382:
	.loc 1 8077 14 view .LVU1723
.LBE230:
.LBE231:
	.loc 1 2202 3 is_stmt 1 view .LVU1724
	.loc 1 2202 3 view .LVU1725
	ldr	r4, [r3, #32]
	movw	r2, #4369
	tst	r4, r2
	bne	.L715
	.loc 1 2202 3 discriminator 1 view .LVU1726
	ldr	r4, [r3, #32]
	movw	r2, #17476
	tst	r4, r2
	beq	.L725
.L715:
	.loc 1 2202 3 discriminator 5 view .LVU1727
	.loc 1 2205 3 discriminator 5 view .LVU1728
	movs	r3, #1
	cbnz	r1, .L716
	.loc 1 2205 3 is_stmt 0 discriminator 1 view .LVU1729
	strb	r3, [r0, #62]
	.loc 1 2206 3 is_stmt 1 discriminator 1 view .LVU1730
	strb	r3, [r0, #68]
	.loc 1 2210 1 is_stmt 0 discriminator 1 view .LVU1731
	ldr	r4, [sp], #4
.LCFI55:
	.cfi_remember_state
	.cfi_restore 4
	.cfi_def_cfa_offset 0
	movs	r0, #0
.LVL383:
	.loc 1 2210 1 discriminator 1 view .LVU1732
	bx	lr
.LVL384:
.L716:
.LCFI56:
	.cfi_restore_state
	.loc 1 2205 3 discriminator 2 view .LVU1733
	cmp	r1, #4
	beq	.L726
	.loc 1 2205 3 discriminator 4 view .LVU1734
	cmp	r1, #8
	beq	.L727
	.loc 1 2205 3 discriminator 7 view .LVU1735
	cmp	r1, #12
	beq	.L728
	.loc 1 2205 3 discriminator 10 view .LVU1736
	cmp	r1, #16
	ite	eq
	strbeq	r3, [r0, #66]
	strbne	r3, [r0, #67]
.L721:
	.loc 1 2206 3 is_stmt 1 view .LVU1737
	movs	r3, #1
	strb	r3, [r0, #71]
	.loc 1 2209 3 view .LVU1738
	.loc 1 2210 1 is_stmt 0 view .LVU1739
	ldr	r4, [sp], #4
.LCFI57:
	.cfi_remember_state
	.cfi_restore 4
	.cfi_def_cfa_offset 0
	movs	r0, #0
.LVL385:
	.loc 1 2210 1 view .LVU1740
	bx	lr
.LVL386:
.L725:
.LCFI58:
	.cfi_restore_state
	.loc 1 2202 3 is_stmt 1 discriminator 3 view .LVU1741
	ldr	r2, [r3]
	bic	r2, r2, #1
	str	r2, [r3]
	b	.L715
.L726:
	.loc 1 2205 3 is_stmt 0 discriminator 3 view .LVU1742
	strb	r3, [r0, #63]
	.loc 1 2206 3 is_stmt 1 discriminator 3 view .LVU1743
	strb	r3, [r0, #69]
	.loc 1 2210 1 is_stmt 0 discriminator 3 view .LVU1744
	ldr	r4, [sp], #4
.LCFI59:
	.cfi_remember_state
	.cfi_restore 4
	.cfi_def_cfa_offset 0
	movs	r0, #0
.LVL387:
	.loc 1 2210 1 discriminator 3 view .LVU1745
	bx	lr
.LVL388:
.L728:
.LCFI60:
	.cfi_restore_state
	.loc 1 2205 3 discriminator 9 view .LVU1746
	strb	r3, [r0, #65]
	b	.L721
.L727:
	.loc 1 2205 3 discriminator 6 view .LVU1747
	strb	r3, [r0, #64]
	.loc 1 2206 3 is_stmt 1 discriminator 6 view .LVU1748
	strb	r3, [r0, #70]
	.loc 1 2210 1 is_stmt 0 discriminator 6 view .LVU1749
	ldr	r4, [sp], #4
.LCFI61:
	.cfi_restore 4
	.cfi_def_cfa_offset 0
	movs	r0, #0
.LVL389:
	.loc 1 2210 1 discriminator 6 view .LVU1750
	bx	lr
	.cfi_endproc
.LFE167:
	.size	HAL_TIM_IC_Stop, .-HAL_TIM_IC_Stop
	.section	.text.HAL_TIM_IC_Start_IT,"ax",%progbits
	.align	1
	.p2align 2,,3
	.global	HAL_TIM_IC_Start_IT
	.syntax unified
	.thumb
	.thumb_func
	.fpu fpv4-sp-d16
	.type	HAL_TIM_IC_Start_IT, %function
HAL_TIM_IC_Start_IT:
.LVL390:
.LFB168:
	.loc 1 2224 1 is_stmt 1 view -0
	.cfi_startproc
	@ args = 0, pretend = 0, frame = 0
	@ frame_needed = 0, uses_anonymous_args = 0
	@ link register save eliminated.
	.loc 1 2225 3 view .LVU1752
	.loc 1 2226 3 view .LVU1753
	.loc 1 2228 3 view .LVU1754
	.loc 1 2228 47 is_stmt 0 view .LVU1755
	cmp	r1, #0
	bne	.L730
	.loc 1 2228 47 discriminator 1 view .LVU1756
	ldrb	r3, [r0, #62]	@ zero_extendqisi2
	.loc 1 2229 61 discriminator 1 view .LVU1757
	ldrb	r2, [r0, #68]	@ zero_extendqisi2
	.loc 1 2228 47 discriminator 1 view .LVU1758
	uxtb	r3, r3
.LVL391:
	.loc 1 2229 3 is_stmt 1 discriminator 1 view .LVU1759
	.loc 1 2229 61 is_stmt 0 discriminator 1 view .LVU1760
	uxtb	r2, r2
.L731:
.LVL392:
	.loc 1 2232 3 is_stmt 1 discriminator 12 view .LVU1761
	.loc 1 2235 3 discriminator 12 view .LVU1762
	.loc 1 2235 6 is_stmt 0 discriminator 12 view .LVU1763
	cmp	r3, #1
	bne	.L751
	.loc 1 2236 7 view .LVU1764
	cmp	r2, #1
	beq	.L758
.LVL393:
.L754:
	.loc 1 2302 1 view .LVU1765
	mov	r0, r3
	bx	lr
.LVL394:
.L751:
	.loc 1 2243 3 view .LVU1766
	movs	r3, #1
	.loc 1 2302 1 view .LVU1767
	mov	r0, r3
.LVL395:
	.loc 1 2302 1 view .LVU1768
	bx	lr
.LVL396:
.L758:
	.loc 1 2242 3 is_stmt 1 view .LVU1769
	cmp	r1, #0
	bne	.L738
	.loc 1 2242 3 is_stmt 0 discriminator 1 view .LVU1770
	movs	r3, #2
.LVL397:
	.loc 1 2250 7 discriminator 1 view .LVU1771
	ldr	r2, [r0]
.LVL398:
	.loc 1 2242 3 discriminator 1 view .LVU1772
	strb	r3, [r0, #62]
	.loc 1 2243 3 is_stmt 1 discriminator 1 view .LVU1773
	strb	r3, [r0, #68]
	.loc 1 2245 3 discriminator 1 view .LVU1774
	.loc 1 2250 7 discriminator 1 view .LVU1775
	ldr	r3, [r2, #12]
	orr	r3, r3, #2
	str	r3, [r2, #12]
	.loc 1 2251 7 discriminator 1 view .LVU1776
	.loc 1 2280 3 discriminator 1 view .LVU1777
.L739:
	.loc 1 2283 5 view .LVU1778
.LVL399:
.LBB232:
.LBI232:
	.loc 1 8063 6 view .LVU1779
.LBB233:
	.loc 1 8065 3 view .LVU1780
	.loc 1 8068 3 view .LVU1781
	.loc 1 8069 3 view .LVU1782
	.loc 1 8071 3 view .LVU1783
	.loc 1 8074 14 is_stmt 0 view .LVU1784
	ldr	r0, [r2, #32]
.LVL400:
	.loc 1 8071 7 view .LVU1785
	movs	r3, #1
	.loc 1 8071 35 view .LVU1786
	and	r1, r1, #31
.LVL401:
	.loc 1 8071 7 view .LVU1787
	lsl	r1, r3, r1
.LVL402:
	.loc 1 8074 3 is_stmt 1 view .LVU1788
	.loc 1 8074 14 is_stmt 0 view .LVU1789
	bic	r0, r0, r1
	str	r0, [r2, #32]
	.loc 1 8077 3 is_stmt 1 view .LVU1790
	.loc 1 8077 14 is_stmt 0 view .LVU1791
	ldr	r0, [r2, #32]
.LBE233:
.LBE232:
	.loc 1 2286 8 view .LVU1792
	ldr	r3, .L766
.LBB236:
.LBB234:
	.loc 1 8077 14 view .LVU1793
	orrs	r1, r1, r0
.LVL403:
	.loc 1 8077 14 view .LVU1794
.LBE234:
.LBE236:
	.loc 1 2286 8 view .LVU1795
	cmp	r2, r3
.LBB237:
.LBB235:
	.loc 1 8077 14 view .LVU1796
	str	r1, [r2, #32]
.LVL404:
	.loc 1 8077 14 view .LVU1797
.LBE235:
.LBE237:
	.loc 1 2286 5 is_stmt 1 view .LVU1798
	.loc 1 2286 8 is_stmt 0 view .LVU1799
	beq	.L748
	.loc 1 2286 9 discriminator 1 view .LVU1800
	cmp	r2, #1073741824
	beq	.L748
	.loc 1 2286 9 discriminator 2 view .LVU1801
	sub	r3, r3, #75776
	cmp	r2, r3
	beq	.L748
	.loc 1 2286 9 discriminator 3 view .LVU1802
	add	r3, r3, #1024
	cmp	r2, r3
	beq	.L748
	.loc 1 2286 9 discriminator 4 view .LVU1803
	add	r3, r3, #76800
	cmp	r2, r3
	beq	.L748
	.loc 1 2286 9 discriminator 5 view .LVU1804
	add	r3, r3, #3072
	cmp	r2, r3
	bne	.L749
.L748:
	.loc 1 2288 7 is_stmt 1 view .LVU1805
	.loc 1 2288 31 is_stmt 0 view .LVU1806
	ldr	r1, [r2, #8]
	.loc 1 2288 15 view .LVU1807
	ldr	r3, .L766+4
	ands	r3, r3, r1
.LVL405:
	.loc 1 2289 7 is_stmt 1 view .LVU1808
	.loc 1 2289 10 is_stmt 0 view .LVU1809
	cmp	r3, #6
	beq	.L753
	.loc 1 2289 11 discriminator 1 view .LVU1810
	cmp	r3, #65536
	beq	.L753
.LVL406:
.L749:
	.loc 1 2296 7 is_stmt 1 view .LVU1811
	ldr	r1, [r2]
	movs	r3, #0
	orr	r1, r1, #1
	str	r1, [r2]
	.loc 1 2302 1 is_stmt 0 view .LVU1812
	mov	r0, r3
	bx	lr
.LVL407:
.L730:
	.loc 1 2228 47 discriminator 2 view .LVU1813
	cmp	r1, #4
	beq	.L759
	.loc 1 2228 47 discriminator 5 view .LVU1814
	cmp	r1, #8
	beq	.L760
	.loc 1 2228 47 discriminator 8 view .LVU1815
	cmp	r1, #12
	beq	.L761
	.loc 1 2228 47 discriminator 11 view .LVU1816
	cmp	r1, #16
	ite	eq
	ldrbeq	r3, [r0, #66]	@ zero_extendqisi2
	ldrbne	r3, [r0, #67]	@ zero_extendqisi2
	uxtb	r3, r3
.L735:
.LVL408:
	.loc 1 2229 3 is_stmt 1 view .LVU1817
	.loc 1 2229 61 is_stmt 0 view .LVU1818
	ldrb	r2, [r0, #71]	@ zero_extendqisi2
	uxtb	r2, r2
	b	.L731
.LVL409:
.L738:
	.loc 1 2242 3 discriminator 2 view .LVU1819
	cmp	r1, #4
	beq	.L762
	.loc 1 2242 3 discriminator 4 view .LVU1820
	cmp	r1, #8
	beq	.L763
	.loc 1 2242 3 discriminator 7 view .LVU1821
	cmp	r1, #12
	beq	.L764
	.loc 1 2242 3 discriminator 10 view .LVU1822
	cmp	r1, #16
	mov	r2, #2
.LVL410:
	.loc 1 2242 3 discriminator 10 view .LVU1823
	beq	.L765
	subs	r3, r1, #4
.LVL411:
	.loc 1 2242 3 discriminator 13 view .LVU1824
	strb	r2, [r0, #67]
	.loc 1 2243 3 is_stmt 1 discriminator 13 view .LVU1825
	strb	r2, [r0, #71]
	.loc 1 2245 3 discriminator 13 view .LVU1826
	cmp	r3, #8
	bhi	.L751
	adr	r2, .L747
	ldr	pc, [r2, r3, lsl #2]
	.p2align 2
.L747:
	.word	.L741+1
	.word	.L751+1
	.word	.L751+1
	.word	.L751+1
	.word	.L743+1
	.word	.L751+1
	.word	.L751+1
	.word	.L751+1
	.word	.L745+1
	.p2align 1
.L761:
	.loc 1 2228 47 is_stmt 0 discriminator 10 view .LVU1827
	ldrb	r3, [r0, #65]	@ zero_extendqisi2
	uxtb	r3, r3
	b	.L735
.L759:
	.loc 1 2228 47 discriminator 4 view .LVU1828
	ldrb	r3, [r0, #63]	@ zero_extendqisi2
	.loc 1 2229 61 discriminator 4 view .LVU1829
	ldrb	r2, [r0, #69]	@ zero_extendqisi2
	.loc 1 2228 47 discriminator 4 view .LVU1830
	uxtb	r3, r3
.LVL412:
	.loc 1 2229 3 is_stmt 1 discriminator 4 view .LVU1831
	.loc 1 2229 61 is_stmt 0 discriminator 4 view .LVU1832
	uxtb	r2, r2
	b	.L731
.LVL413:
.L760:
	.loc 1 2228 47 discriminator 7 view .LVU1833
	ldrb	r3, [r0, #64]	@ zero_extendqisi2
	.loc 1 2229 61 discriminator 7 view .LVU1834
	ldrb	r2, [r0, #70]	@ zero_extendqisi2
	.loc 1 2228 47 discriminator 7 view .LVU1835
	uxtb	r3, r3
.LVL414:
	.loc 1 2229 3 is_stmt 1 discriminator 7 view .LVU1836
	.loc 1 2229 61 is_stmt 0 discriminator 7 view .LVU1837
	uxtb	r2, r2
	b	.L731
.LVL415:
.L753:
	.loc 1 2229 61 discriminator 7 view .LVU1838
	movs	r3, #0
.LVL416:
	.loc 1 2229 61 discriminator 7 view .LVU1839
	b	.L754
.LVL417:
.L763:
	.loc 1 2242 3 discriminator 6 view .LVU1840
	movs	r3, #2
.LVL418:
	.loc 1 2242 3 discriminator 6 view .LVU1841
	strb	r3, [r0, #64]
	.loc 1 2243 3 is_stmt 1 discriminator 6 view .LVU1842
	strb	r3, [r0, #70]
	.loc 1 2245 3 discriminator 6 view .LVU1843
.LVL419:
.L743:
	.loc 1 2264 7 view .LVU1844
	ldr	r2, [r0]
	ldr	r3, [r2, #12]
	orr	r3, r3, #8
	str	r3, [r2, #12]
	.loc 1 2265 7 view .LVU1845
	.loc 1 2280 3 view .LVU1846
	b	.L739
.LVL420:
.L762:
	.loc 1 2242 3 is_stmt 0 discriminator 3 view .LVU1847
	movs	r3, #2
.LVL421:
	.loc 1 2242 3 discriminator 3 view .LVU1848
	strb	r3, [r0, #63]
	.loc 1 2243 3 is_stmt 1 discriminator 3 view .LVU1849
	strb	r3, [r0, #69]
	.loc 1 2245 3 discriminator 3 view .LVU1850
.LVL422:
.L741:
	.loc 1 2257 7 view .LVU1851
	ldr	r2, [r0]
	ldr	r3, [r2, #12]
	orr	r3, r3, #4
	str	r3, [r2, #12]
	.loc 1 2258 7 view .LVU1852
	.loc 1 2280 3 view .LVU1853
	b	.L739
.LVL423:
.L764:
	.loc 1 2242 3 is_stmt 0 discriminator 9 view .LVU1854
	movs	r3, #2
.LVL424:
	.loc 1 2242 3 discriminator 9 view .LVU1855
	strb	r3, [r0, #65]
	.loc 1 2243 3 is_stmt 1 discriminator 9 view .LVU1856
	strb	r3, [r0, #71]
	.loc 1 2245 3 discriminator 9 view .LVU1857
.LVL425:
.L745:
	.loc 1 2271 7 view .LVU1858
	ldr	r2, [r0]
	ldr	r3, [r2, #12]
	orr	r3, r3, #16
	str	r3, [r2, #12]
	.loc 1 2272 7 view .LVU1859
	.loc 1 2280 3 view .LVU1860
	b	.L739
.LVL426:
.L765:
	.loc 1 2242 3 is_stmt 0 discriminator 12 view .LVU1861
	strb	r2, [r0, #66]
	.loc 1 2243 3 is_stmt 1 discriminator 12 view .LVU1862
	strb	r2, [r0, #71]
	.loc 1 2245 3 discriminator 12 view .LVU1863
	b	.L754
.L767:
	.align	2
.L766:
	.word	1073818624
	.word	65543
	.cfi_endproc
.LFE168:
	.size	HAL_TIM_IC_Start_IT, .-HAL_TIM_IC_Start_IT
	.section	.text.HAL_TIM_IC_Stop_IT,"ax",%progbits
	.align	1
	.p2align 2,,3
	.global	HAL_TIM_IC_Stop_IT
	.syntax unified
	.thumb
	.thumb_func
	.fpu fpv4-sp-d16
	.type	HAL_TIM_IC_Stop_IT, %function
HAL_TIM_IC_Stop_IT:
.LVL427:
.LFB169:
	.loc 1 2316 1 view -0
	.cfi_startproc
	@ args = 0, pretend = 0, frame = 0
	@ frame_needed = 0, uses_anonymous_args = 0
	@ link register save eliminated.
	.loc 1 2317 3 view .LVU1865
	.loc 1 2320 3 view .LVU1866
	.loc 1 2322 3 view .LVU1867
	.loc 1 2316 1 is_stmt 0 view .LVU1868
	push	{r4}
.LCFI62:
	.cfi_def_cfa_offset 4
	.cfi_offset 4, -4
	.loc 1 2316 1 view .LVU1869
	mov	r2, r0
	cmp	r1, #12
	bhi	.L788
	tbb	[pc, r1]
.L771:
	.byte	(.L774-.L771)/2
	.byte	(.L788-.L771)/2
	.byte	(.L788-.L771)/2
	.byte	(.L788-.L771)/2
	.byte	(.L773-.L771)/2
	.byte	(.L788-.L771)/2
	.byte	(.L788-.L771)/2
	.byte	(.L788-.L771)/2
	.byte	(.L772-.L771)/2
	.byte	(.L788-.L771)/2
	.byte	(.L788-.L771)/2
	.byte	(.L788-.L771)/2
	.byte	(.L770-.L771)/2
	.p2align 1
.L788:
	movs	r0, #1
.LVL428:
.L807:
	.loc 1 2372 1 view .LVU1870
	ldr	r4, [sp], #4
.LCFI63:
	.cfi_remember_state
	.cfi_restore 4
	.cfi_def_cfa_offset 0
	bx	lr
.LVL429:
.L770:
.LCFI64:
	.cfi_restore_state
	.loc 1 2348 7 is_stmt 1 view .LVU1871
	ldr	r3, [r0]
	ldr	r0, [r3, #12]
.LVL430:
	.loc 1 2348 7 is_stmt 0 view .LVU1872
	bic	r0, r0, #16
	str	r0, [r3, #12]
	.loc 1 2349 7 is_stmt 1 view .LVU1873
	.loc 1 2357 3 view .LVU1874
	.loc 1 2360 5 view .LVU1875
.LVL431:
.LBB238:
.LBI238:
	.loc 1 8063 6 view .LVU1876
.LBB239:
	.loc 1 8065 3 view .LVU1877
	.loc 1 8068 3 view .LVU1878
	.loc 1 8069 3 view .LVU1879
	.loc 1 8071 3 view .LVU1880
	.loc 1 8074 3 view .LVU1881
	.loc 1 8074 14 is_stmt 0 view .LVU1882
	ldr	r0, [r3, #32]
	bic	r0, r0, #4096
	str	r0, [r3, #32]
	.loc 1 8077 3 is_stmt 1 view .LVU1883
	.loc 1 8077 14 is_stmt 0 view .LVU1884
	ldr	r0, [r3, #32]
	str	r0, [r3, #32]
.LVL432:
	.loc 1 8077 14 view .LVU1885
.LBE239:
.LBE238:
	.loc 1 2363 5 is_stmt 1 view .LVU1886
	.loc 1 2363 5 view .LVU1887
	ldr	r0, [r3, #32]
	movw	ip, #4369
	tst	r0, ip
	bne	.L781
	.loc 1 2363 5 view .LVU1888
	ldr	r4, [r3, #32]
	movw	r0, #17476
	tst	r4, r0
	bne	.L781
.L783:
	.loc 1 2363 5 view .LVU1889
	ldr	r0, [r3]
	.loc 1 2366 5 is_stmt 0 view .LVU1890
	cmp	r1, #4
	.loc 1 2363 5 view .LVU1891
	bic	r0, r0, #1
	str	r0, [r3]
	.loc 1 2363 5 is_stmt 1 view .LVU1892
	.loc 1 2366 5 view .LVU1893
	beq	.L786
	.loc 1 2366 5 is_stmt 0 discriminator 4 view .LVU1894
	cmp	r1, #8
	beq	.L780
	.loc 1 2366 5 discriminator 7 view .LVU1895
	cmp	r1, #12
	beq	.L781
	.loc 1 2366 5 discriminator 10 view .LVU1896
	movs	r3, #1
	cmp	r1, #16
	ite	eq
	strbeq	r3, [r2, #66]
	strbne	r3, [r2, #67]
.L779:
	.loc 1 2367 5 is_stmt 1 view .LVU1897
	movs	r3, #1
	strb	r3, [r2, #71]
	movs	r0, #0
.LVL433:
	.loc 1 2371 3 view .LVU1898
	.loc 1 2372 1 is_stmt 0 view .LVU1899
	ldr	r4, [sp], #4
.LCFI65:
	.cfi_remember_state
	.cfi_restore 4
	.cfi_def_cfa_offset 0
	bx	lr
.LVL434:
.L772:
.LCFI66:
	.cfi_restore_state
	.loc 1 2341 7 is_stmt 1 view .LVU1900
	ldr	r3, [r0]
	ldr	r0, [r3, #12]
.LVL435:
	.loc 1 2341 7 is_stmt 0 view .LVU1901
	bic	r0, r0, #8
	str	r0, [r3, #12]
	.loc 1 2342 7 is_stmt 1 view .LVU1902
	.loc 1 2357 3 view .LVU1903
	.loc 1 2360 5 view .LVU1904
.LVL436:
.LBB243:
	.loc 1 8063 6 view .LVU1905
.LBB240:
	.loc 1 8065 3 view .LVU1906
	.loc 1 8068 3 view .LVU1907
	.loc 1 8069 3 view .LVU1908
	.loc 1 8071 3 view .LVU1909
	.loc 1 8074 3 view .LVU1910
	.loc 1 8074 14 is_stmt 0 view .LVU1911
	ldr	r0, [r3, #32]
	bic	r0, r0, #256
	str	r0, [r3, #32]
	.loc 1 8077 3 is_stmt 1 view .LVU1912
	.loc 1 8077 14 is_stmt 0 view .LVU1913
	ldr	r0, [r3, #32]
	str	r0, [r3, #32]
.LVL437:
	.loc 1 8077 14 view .LVU1914
.LBE240:
.LBE243:
	.loc 1 2363 5 is_stmt 1 view .LVU1915
	.loc 1 2363 5 view .LVU1916
	ldr	r0, [r3, #32]
	movw	ip, #4369
	tst	r0, ip
	bne	.L780
	.loc 1 2363 5 view .LVU1917
	ldr	r4, [r3, #32]
	movw	r0, #17476
	tst	r4, r0
	beq	.L783
.L780:
	.loc 1 2366 5 is_stmt 0 view .LVU1918
	movs	r3, #1
	strb	r3, [r2, #64]
	.loc 1 2367 5 is_stmt 1 view .LVU1919
	movs	r0, #0
	strb	r3, [r2, #70]
	b	.L807
.LVL438:
.L773:
	.loc 1 2334 7 view .LVU1920
	ldr	r3, [r0]
	ldr	r0, [r3, #12]
.LVL439:
	.loc 1 2334 7 is_stmt 0 view .LVU1921
	bic	r0, r0, #4
	str	r0, [r3, #12]
	.loc 1 2335 7 is_stmt 1 view .LVU1922
	.loc 1 2357 3 view .LVU1923
	.loc 1 2360 5 view .LVU1924
.LVL440:
.LBB244:
	.loc 1 8063 6 view .LVU1925
.LBB241:
	.loc 1 8065 3 view .LVU1926
	.loc 1 8068 3 view .LVU1927
	.loc 1 8069 3 view .LVU1928
	.loc 1 8071 3 view .LVU1929
	.loc 1 8074 3 view .LVU1930
	.loc 1 8074 14 is_stmt 0 view .LVU1931
	ldr	r0, [r3, #32]
	bic	r0, r0, #16
	str	r0, [r3, #32]
	.loc 1 8077 3 is_stmt 1 view .LVU1932
	.loc 1 8077 14 is_stmt 0 view .LVU1933
	ldr	r0, [r3, #32]
	str	r0, [r3, #32]
.LVL441:
	.loc 1 8077 14 view .LVU1934
.LBE241:
.LBE244:
	.loc 1 2363 5 is_stmt 1 view .LVU1935
	.loc 1 2363 5 view .LVU1936
	ldr	r0, [r3, #32]
	movw	ip, #4369
	tst	r0, ip
	beq	.L776
.L786:
	.loc 1 2366 5 is_stmt 0 view .LVU1937
	movs	r3, #1
	strb	r3, [r2, #63]
	.loc 1 2367 5 is_stmt 1 view .LVU1938
	strb	r3, [r2, #69]
	movs	r0, #0
	.loc 1 2372 1 is_stmt 0 view .LVU1939
	ldr	r4, [sp], #4
.LCFI67:
	.cfi_remember_state
	.cfi_restore 4
	.cfi_def_cfa_offset 0
	bx	lr
.LVL442:
.L774:
.LCFI68:
	.cfi_restore_state
	.loc 1 2327 7 is_stmt 1 view .LVU1940
	ldr	r3, [r0]
	ldr	r1, [r3, #12]
.LVL443:
	.loc 1 2327 7 is_stmt 0 view .LVU1941
	bic	r1, r1, #2
	str	r1, [r3, #12]
	.loc 1 2328 7 is_stmt 1 view .LVU1942
	.loc 1 2357 3 view .LVU1943
	.loc 1 2360 5 view .LVU1944
.LVL444:
.LBB245:
	.loc 1 8063 6 view .LVU1945
.LBB242:
	.loc 1 8065 3 view .LVU1946
	.loc 1 8068 3 view .LVU1947
	.loc 1 8069 3 view .LVU1948
	.loc 1 8071 3 view .LVU1949
	.loc 1 8074 3 view .LVU1950
	.loc 1 8074 14 is_stmt 0 view .LVU1951
	ldr	r1, [r3, #32]
	bic	r1, r1, #1
	str	r1, [r3, #32]
	.loc 1 8077 3 is_stmt 1 view .LVU1952
	.loc 1 8077 14 is_stmt 0 view .LVU1953
	ldr	r1, [r3, #32]
	str	r1, [r3, #32]
.LVL445:
	.loc 1 8077 14 view .LVU1954
.LBE242:
.LBE245:
	.loc 1 2363 5 is_stmt 1 view .LVU1955
	.loc 1 2363 5 view .LVU1956
	ldr	r1, [r3, #32]
	movw	r0, #4369
.LVL446:
	.loc 1 2363 5 is_stmt 0 view .LVU1957
	tst	r1, r0
	beq	.L775
.L785:
	.loc 1 2366 5 view .LVU1958
	movs	r3, #1
	strb	r3, [r2, #62]
	.loc 1 2367 5 is_stmt 1 view .LVU1959
	strb	r3, [r2, #68]
	movs	r0, #0
	.loc 1 2372 1 is_stmt 0 view .LVU1960
	ldr	r4, [sp], #4
.LCFI69:
	.cfi_remember_state
	.cfi_restore 4
	.cfi_def_cfa_offset 0
	bx	lr
.LVL447:
.L776:
.LCFI70:
	.cfi_restore_state
	.loc 1 2363 5 is_stmt 1 view .LVU1961
	ldr	r4, [r3, #32]
	movw	r0, #17476
	tst	r4, r0
	beq	.L783
	b	.L786
.LVL448:
.L775:
	.loc 1 2363 5 view .LVU1962
	ldr	r0, [r3, #32]
	movw	r1, #17476
	tst	r0, r1
	bne	.L785
	.loc 1 2363 5 view .LVU1963
	ldr	r1, [r3]
	bic	r1, r1, #1
	str	r1, [r3]
	.loc 1 2363 5 view .LVU1964
	.loc 1 2366 5 view .LVU1965
	b	.L785
.LVL449:
.L781:
	.loc 1 2366 5 is_stmt 0 view .LVU1966
	movs	r3, #1
	strb	r3, [r2, #65]
	b	.L779
	.cfi_endproc
.LFE169:
	.size	HAL_TIM_IC_Stop_IT, .-HAL_TIM_IC_Stop_IT
	.section	.text.HAL_TIM_IC_Start_DMA,"ax",%progbits
	.align	1
	.p2align 2,,3
	.global	HAL_TIM_IC_Start_DMA
	.syntax unified
	.thumb
	.thumb_func
	.fpu fpv4-sp-d16
	.type	HAL_TIM_IC_Start_DMA, %function
HAL_TIM_IC_Start_DMA:
.LVL450:
.LFB170:
	.loc 1 2388 1 is_stmt 1 view -0
	.cfi_startproc
	@ args = 0, pretend = 0, frame = 0
	@ frame_needed = 0, uses_anonymous_args = 0
	.loc 1 2389 3 view .LVU1968
	.loc 1 2390 3 view .LVU1969
	.loc 1 2392 3 view .LVU1970
	.loc 1 2388 1 is_stmt 0 view .LVU1971
	push	{r4, r5, r6, lr}
.LCFI71:
	.cfi_def_cfa_offset 16
	.cfi_offset 4, -16
	.cfi_offset 5, -12
	.cfi_offset 6, -8
	.cfi_offset 14, -4
	.loc 1 2388 1 view .LVU1972
	mov	r4, r0
	.loc 1 2392 47 view .LVU1973
	cmp	r1, #0
	bne	.L811
	.loc 1 2392 47 discriminator 1 view .LVU1974
	ldrb	r0, [r0, #62]	@ zero_extendqisi2
.LVL451:
	.loc 1 2393 61 discriminator 1 view .LVU1975
	ldrb	ip, [r4, #68]	@ zero_extendqisi2
	.loc 1 2392 47 discriminator 1 view .LVU1976
	uxtb	r0, r0
.LVL452:
	.loc 1 2393 3 is_stmt 1 discriminator 1 view .LVU1977
	.loc 1 2393 61 is_stmt 0 discriminator 1 view .LVU1978
	uxtb	ip, ip
.L812:
.LVL453:
	.loc 1 2396 3 is_stmt 1 discriminator 12 view .LVU1979
	.loc 1 2397 3 discriminator 12 view .LVU1980
	.loc 1 2400 3 discriminator 12 view .LVU1981
	.loc 1 2400 6 is_stmt 0 discriminator 12 view .LVU1982
	cmp	r0, #2
	beq	.L836
	.loc 1 2401 7 view .LVU1983
	cmp	ip, #2
	beq	.L834
	.loc 1 2405 8 is_stmt 1 view .LVU1984
	.loc 1 2405 11 is_stmt 0 view .LVU1985
	cmp	r0, #1
	bne	.L820
	.loc 1 2406 12 view .LVU1986
	cmp	ip, #1
	bne	.L820
	.loc 1 2408 5 is_stmt 1 view .LVU1987
	.loc 1 2408 8 is_stmt 0 view .LVU1988
	cmp	r2, #0
	beq	.L820
	.loc 1 2408 25 discriminator 1 view .LVU1989
	cmp	r3, #0
	beq	.L820
	.loc 1 2414 7 is_stmt 1 view .LVU1990
	cmp	r1, #0
	bne	.L821
	.loc 1 2424 3 is_stmt 0 discriminator 1 view .LVU1991
	ldr	r1, [r4]
.LVL454:
	.loc 1 2431 52 discriminator 1 view .LVU1992
	ldr	r5, .L865
	.loc 1 2414 7 discriminator 1 view .LVU1993
	movs	r0, #2
.LVL455:
	.loc 1 2414 7 discriminator 1 view .LVU1994
	strb	r0, [r4, #62]
	.loc 1 2415 7 is_stmt 1 discriminator 1 view .LVU1995
	strb	r0, [r4, #68]
	.loc 1 2424 3 discriminator 1 view .LVU1996
.LVL456:
.LBB246:
.LBI246:
	.loc 1 8063 6 discriminator 1 view .LVU1997
.LBB247:
	.loc 1 8065 3 discriminator 1 view .LVU1998
	.loc 1 8068 3 discriminator 1 view .LVU1999
	.loc 1 8069 3 discriminator 1 view .LVU2000
	.loc 1 8071 3 discriminator 1 view .LVU2001
	.loc 1 8074 3 discriminator 1 view .LVU2002
	.loc 1 8074 14 is_stmt 0 discriminator 1 view .LVU2003
	ldr	r0, [r1, #32]
	bic	r0, r0, #1
	str	r0, [r1, #32]
	.loc 1 8077 3 is_stmt 1 discriminator 1 view .LVU2004
	.loc 1 8077 14 is_stmt 0 discriminator 1 view .LVU2005
	ldr	r0, [r1, #32]
	orr	r0, r0, #1
	str	r0, [r1, #32]
.LVL457:
	.loc 1 8077 14 discriminator 1 view .LVU2006
.LBE247:
.LBE246:
	.loc 1 2426 3 is_stmt 1 discriminator 1 view .LVU2007
	.loc 1 2431 7 discriminator 1 view .LVU2008
	.loc 1 2431 17 is_stmt 0 discriminator 1 view .LVU2009
	ldr	r0, [r4, #36]
	.loc 1 2431 52 discriminator 1 view .LVU2010
	str	r5, [r0, #44]
	.loc 1 2432 7 is_stmt 1 discriminator 1 view .LVU2011
	.loc 1 2432 56 is_stmt 0 discriminator 1 view .LVU2012
	ldr	r5, .L865+4
	str	r5, [r0, #48]
	.loc 1 2435 7 is_stmt 1 discriminator 1 view .LVU2013
	.loc 1 2435 53 is_stmt 0 discriminator 1 view .LVU2014
	ldr	r5, .L865+8
	str	r5, [r0, #52]
	.loc 1 2438 7 is_stmt 1 discriminator 1 view .LVU2015
	.loc 1 2438 11 is_stmt 0 discriminator 1 view .LVU2016
	adds	r1, r1, #52
	bl	HAL_DMA_Start_IT
.LVL458:
	.loc 1 2438 10 discriminator 1 view .LVU2017
	cbnz	r0, .L820
	.loc 1 2445 7 is_stmt 1 view .LVU2018
	ldr	r5, [r4]
	ldr	r3, [r5, #12]
	orr	r3, r3, #512
	str	r3, [r5, #12]
	.loc 1 2446 7 view .LVU2019
.L830:
.LVL459:
	.loc 1 2518 3 view .LVU2020
	.loc 1 2518 6 is_stmt 0 view .LVU2021
	ldr	r3, .L865+12
	cmp	r5, r3
	beq	.L832
	.loc 1 2518 7 discriminator 1 view .LVU2022
	cmp	r5, #1073741824
	beq	.L832
	.loc 1 2518 7 discriminator 2 view .LVU2023
	sub	r3, r3, #75776
	cmp	r5, r3
	beq	.L832
	.loc 1 2518 7 discriminator 3 view .LVU2024
	add	r3, r3, #1024
	cmp	r5, r3
	beq	.L832
	.loc 1 2518 7 discriminator 4 view .LVU2025
	add	r3, r3, #76800
	cmp	r5, r3
	beq	.L832
	.loc 1 2518 7 discriminator 5 view .LVU2026
	add	r3, r3, #3072
	cmp	r5, r3
	beq	.L832
.L833:
	.loc 1 2528 5 is_stmt 1 view .LVU2027
	ldr	r3, [r5]
	orr	r3, r3, #1
	str	r3, [r5]
.LVL460:
.L836:
	.loc 1 2533 1 is_stmt 0 view .LVU2028
	pop	{r4, r5, r6, pc}
.LVL461:
.L820:
	.loc 1 2420 12 view .LVU2029
	movs	r0, #1
	.loc 1 2533 1 view .LVU2030
	pop	{r4, r5, r6, pc}
.LVL462:
.L811:
	.loc 1 2392 47 discriminator 2 view .LVU2031
	cmp	r1, #4
	beq	.L858
	.loc 1 2392 47 discriminator 5 view .LVU2032
	cmp	r1, #8
	beq	.L859
	.loc 1 2392 47 discriminator 8 view .LVU2033
	cmp	r1, #12
	beq	.L860
	.loc 1 2392 47 discriminator 11 view .LVU2034
	cmp	r1, #16
	ite	eq
	ldrbeq	r0, [r0, #66]	@ zero_extendqisi2
.LVL463:
	.loc 1 2392 47 discriminator 11 view .LVU2035
	ldrbne	r0, [r4, #67]	@ zero_extendqisi2
	uxtb	r0, r0
.L816:
.LVL464:
	.loc 1 2393 3 is_stmt 1 view .LVU2036
	.loc 1 2393 61 is_stmt 0 view .LVU2037
	ldrb	ip, [r4, #71]	@ zero_extendqisi2
	uxtb	ip, ip
	b	.L812
.LVL465:
.L860:
	.loc 1 2392 47 discriminator 10 view .LVU2038
	ldrb	r0, [r0, #65]	@ zero_extendqisi2
.LVL466:
	.loc 1 2392 47 discriminator 10 view .LVU2039
	uxtb	r0, r0
	b	.L816
.LVL467:
.L858:
	.loc 1 2392 47 discriminator 4 view .LVU2040
	ldrb	r0, [r0, #63]	@ zero_extendqisi2
.LVL468:
	.loc 1 2393 61 discriminator 4 view .LVU2041
	ldrb	ip, [r4, #69]	@ zero_extendqisi2
	.loc 1 2392 47 discriminator 4 view .LVU2042
	uxtb	r0, r0
.LVL469:
	.loc 1 2393 3 is_stmt 1 discriminator 4 view .LVU2043
	.loc 1 2393 61 is_stmt 0 discriminator 4 view .LVU2044
	uxtb	ip, ip
	b	.L812
.LVL470:
.L859:
	.loc 1 2392 47 discriminator 7 view .LVU2045
	ldrb	r0, [r0, #64]	@ zero_extendqisi2
.LVL471:
	.loc 1 2393 61 discriminator 7 view .LVU2046
	ldrb	ip, [r4, #70]	@ zero_extendqisi2
	.loc 1 2392 47 discriminator 7 view .LVU2047
	uxtb	r0, r0
.LVL472:
	.loc 1 2393 3 is_stmt 1 discriminator 7 view .LVU2048
	.loc 1 2393 61 is_stmt 0 discriminator 7 view .LVU2049
	uxtb	ip, ip
	b	.L812
.LVL473:
.L834:
	.loc 1 2403 12 view .LVU2050
	mov	r0, ip
.LVL474:
	.loc 1 2533 1 view .LVU2051
	pop	{r4, r5, r6, pc}
.LVL475:
.L821:
	.loc 1 2414 7 discriminator 2 view .LVU2052
	cmp	r1, #4
	beq	.L861
	.loc 1 2414 7 discriminator 4 view .LVU2053
	cmp	r1, #8
	beq	.L862
	.loc 1 2414 7 discriminator 7 view .LVU2054
	cmp	r1, #12
	beq	.L863
	.loc 1 2414 7 discriminator 10 view .LVU2055
	cmp	r1, #16
	beq	.L864
	.loc 1 2424 3 discriminator 13 view .LVU2056
	ldr	r5, [r4]
	.loc 1 2414 7 discriminator 13 view .LVU2057
	movs	r0, #2
.LVL476:
	.loc 1 2414 7 discriminator 13 view .LVU2058
	strb	r0, [r4, #67]
	.loc 1 2415 7 is_stmt 1 discriminator 13 view .LVU2059
	strb	r0, [r4, #71]
	.loc 1 2424 3 discriminator 13 view .LVU2060
.LVL477:
.LBB254:
	.loc 1 8063 6 discriminator 13 view .LVU2061
.LBB248:
	.loc 1 8065 3 discriminator 13 view .LVU2062
	.loc 1 8068 3 discriminator 13 view .LVU2063
	.loc 1 8069 3 discriminator 13 view .LVU2064
	.loc 1 8071 3 discriminator 13 view .LVU2065
	.loc 1 8074 14 is_stmt 0 discriminator 13 view .LVU2066
	ldr	r6, [r5, #32]
	.loc 1 8071 35 discriminator 13 view .LVU2067
	and	ip, r1, #31
.LVL478:
	.loc 1 8071 7 discriminator 13 view .LVU2068
	movs	r0, #1
	lsl	r0, r0, ip
.LVL479:
	.loc 1 8074 3 is_stmt 1 discriminator 13 view .LVU2069
	.loc 1 8074 14 is_stmt 0 discriminator 13 view .LVU2070
	bic	r6, r6, r0
	str	r6, [r5, #32]
	.loc 1 8077 3 is_stmt 1 discriminator 13 view .LVU2071
	.loc 1 8077 14 is_stmt 0 discriminator 13 view .LVU2072
	ldr	r6, [r5, #32]
	subs	r1, r1, #4
.LVL480:
	.loc 1 8077 14 discriminator 13 view .LVU2073
	orrs	r0, r0, r6
.LVL481:
	.loc 1 8077 14 discriminator 13 view .LVU2074
	str	r0, [r5, #32]
.LVL482:
	.loc 1 8077 14 discriminator 13 view .LVU2075
.LBE248:
.LBE254:
	.loc 1 2426 3 is_stmt 1 discriminator 13 view .LVU2076
	cmp	r1, #8
	bhi	.L835
	tbb	[pc, r1]
.L831:
	.byte	(.L824-.L831)/2
	.byte	(.L835-.L831)/2
	.byte	(.L835-.L831)/2
	.byte	(.L835-.L831)/2
	.byte	(.L826-.L831)/2
	.byte	(.L835-.L831)/2
	.byte	(.L835-.L831)/2
	.byte	(.L835-.L831)/2
	.byte	(.L828-.L831)/2
	.p2align 1
.L835:
.LBB255:
.LBB249:
	.loc 1 8077 14 is_stmt 0 view .LVU2077
	movs	r0, #1
	b	.L830
.LVL483:
.L861:
	.loc 1 8077 14 view .LVU2078
.LBE249:
.LBE255:
	.loc 1 2424 3 discriminator 3 view .LVU2079
	ldr	r5, [r4]
	.loc 1 2414 7 discriminator 3 view .LVU2080
	movs	r1, #2
.LVL484:
	.loc 1 2414 7 discriminator 3 view .LVU2081
	strb	r1, [r4, #63]
	.loc 1 2415 7 is_stmt 1 discriminator 3 view .LVU2082
	strb	r1, [r4, #69]
	.loc 1 2424 3 discriminator 3 view .LVU2083
.LVL485:
.LBB256:
	.loc 1 8063 6 discriminator 3 view .LVU2084
.LBB250:
	.loc 1 8065 3 discriminator 3 view .LVU2085
	.loc 1 8068 3 discriminator 3 view .LVU2086
	.loc 1 8069 3 discriminator 3 view .LVU2087
	.loc 1 8071 3 discriminator 3 view .LVU2088
	.loc 1 8074 3 discriminator 3 view .LVU2089
	.loc 1 8074 14 is_stmt 0 discriminator 3 view .LVU2090
	ldr	r1, [r5, #32]
	bic	r1, r1, #16
	str	r1, [r5, #32]
	.loc 1 8077 3 is_stmt 1 discriminator 3 view .LVU2091
	.loc 1 8077 14 is_stmt 0 discriminator 3 view .LVU2092
	ldr	r1, [r5, #32]
	orr	r1, r1, #16
	str	r1, [r5, #32]
.LVL486:
	.loc 1 8077 14 discriminator 3 view .LVU2093
.LBE250:
.LBE256:
	.loc 1 2426 3 is_stmt 1 discriminator 3 view .LVU2094
.L824:
	.loc 1 2452 7 view .LVU2095
	.loc 1 2452 17 is_stmt 0 view .LVU2096
	ldr	r0, [r4, #40]
	.loc 1 2459 11 view .LVU2097
	add	r1, r5, #56
	.loc 1 2452 52 view .LVU2098
	ldr	r5, .L865
	str	r5, [r0, #44]
	.loc 1 2453 7 is_stmt 1 view .LVU2099
	.loc 1 2453 56 is_stmt 0 view .LVU2100
	ldr	r5, .L865+4
	str	r5, [r0, #48]
	.loc 1 2456 7 is_stmt 1 view .LVU2101
	.loc 1 2456 53 is_stmt 0 view .LVU2102
	ldr	r5, .L865+8
	str	r5, [r0, #52]
	.loc 1 2459 7 is_stmt 1 view .LVU2103
	.loc 1 2459 11 is_stmt 0 view .LVU2104
	bl	HAL_DMA_Start_IT
.LVL487:
	.loc 1 2459 10 view .LVU2105
	cmp	r0, #0
	bne	.L820
	.loc 1 2466 7 is_stmt 1 view .LVU2106
	ldr	r5, [r4]
	ldr	r3, [r5, #12]
	orr	r3, r3, #1024
	str	r3, [r5, #12]
	.loc 1 2467 7 view .LVU2107
	b	.L830
.LVL488:
.L862:
	.loc 1 2424 3 is_stmt 0 discriminator 6 view .LVU2108
	ldr	r5, [r4]
	.loc 1 2414 7 discriminator 6 view .LVU2109
	movs	r1, #2
.LVL489:
	.loc 1 2414 7 discriminator 6 view .LVU2110
	strb	r1, [r4, #64]
	.loc 1 2415 7 is_stmt 1 discriminator 6 view .LVU2111
	strb	r1, [r4, #70]
	.loc 1 2424 3 discriminator 6 view .LVU2112
.LVL490:
.LBB257:
	.loc 1 8063 6 discriminator 6 view .LVU2113
.LBB251:
	.loc 1 8065 3 discriminator 6 view .LVU2114
	.loc 1 8068 3 discriminator 6 view .LVU2115
	.loc 1 8069 3 discriminator 6 view .LVU2116
	.loc 1 8071 3 discriminator 6 view .LVU2117
	.loc 1 8074 3 discriminator 6 view .LVU2118
	.loc 1 8074 14 is_stmt 0 discriminator 6 view .LVU2119
	ldr	r1, [r5, #32]
	bic	r1, r1, #256
	str	r1, [r5, #32]
	.loc 1 8077 3 is_stmt 1 discriminator 6 view .LVU2120
	.loc 1 8077 14 is_stmt 0 discriminator 6 view .LVU2121
	ldr	r1, [r5, #32]
	orr	r1, r1, #256
	str	r1, [r5, #32]
.LVL491:
	.loc 1 8077 14 discriminator 6 view .LVU2122
.LBE251:
.LBE257:
	.loc 1 2426 3 is_stmt 1 discriminator 6 view .LVU2123
.L826:
	.loc 1 2473 7 view .LVU2124
	.loc 1 2473 17 is_stmt 0 view .LVU2125
	ldr	r0, [r4, #44]
	.loc 1 2480 11 view .LVU2126
	add	r1, r5, #60
	.loc 1 2473 52 view .LVU2127
	ldr	r5, .L865
	str	r5, [r0, #44]
	.loc 1 2474 7 is_stmt 1 view .LVU2128
	.loc 1 2474 56 is_stmt 0 view .LVU2129
	ldr	r5, .L865+4
	str	r5, [r0, #48]
	.loc 1 2477 7 is_stmt 1 view .LVU2130
	.loc 1 2477 53 is_stmt 0 view .LVU2131
	ldr	r5, .L865+8
	str	r5, [r0, #52]
	.loc 1 2480 7 is_stmt 1 view .LVU2132
	.loc 1 2480 11 is_stmt 0 view .LVU2133
	bl	HAL_DMA_Start_IT
.LVL492:
	.loc 1 2480 10 view .LVU2134
	cmp	r0, #0
	bne	.L820
	.loc 1 2487 7 is_stmt 1 view .LVU2135
	ldr	r5, [r4]
	ldr	r3, [r5, #12]
	orr	r3, r3, #2048
	str	r3, [r5, #12]
	.loc 1 2488 7 view .LVU2136
	b	.L830
.LVL493:
.L832:
	.loc 1 2520 5 view .LVU2137
	.loc 1 2520 29 is_stmt 0 view .LVU2138
	ldr	r2, [r5, #8]
	.loc 1 2520 13 view .LVU2139
	ldr	r3, .L865+16
	ands	r3, r3, r2
.LVL494:
	.loc 1 2521 5 is_stmt 1 view .LVU2140
	.loc 1 2521 8 is_stmt 0 view .LVU2141
	cmp	r3, #6
	beq	.L836
	.loc 1 2521 9 discriminator 1 view .LVU2142
	cmp	r3, #65536
	bne	.L833
	.loc 1 2533 1 view .LVU2143
	pop	{r4, r5, r6, pc}
.LVL495:
.L863:
	.loc 1 2424 3 discriminator 9 view .LVU2144
	ldr	r5, [r4]
	.loc 1 2414 7 discriminator 9 view .LVU2145
	movs	r1, #2
.LVL496:
	.loc 1 2414 7 discriminator 9 view .LVU2146
	strb	r1, [r4, #65]
	.loc 1 2415 7 is_stmt 1 discriminator 9 view .LVU2147
	strb	r1, [r4, #71]
	.loc 1 2424 3 discriminator 9 view .LVU2148
.LVL497:
.LBB258:
	.loc 1 8063 6 discriminator 9 view .LVU2149
.LBB252:
	.loc 1 8065 3 discriminator 9 view .LVU2150
	.loc 1 8068 3 discriminator 9 view .LVU2151
	.loc 1 8069 3 discriminator 9 view .LVU2152
	.loc 1 8071 3 discriminator 9 view .LVU2153
	.loc 1 8074 3 discriminator 9 view .LVU2154
	.loc 1 8074 14 is_stmt 0 discriminator 9 view .LVU2155
	ldr	r1, [r5, #32]
	bic	r1, r1, #4096
	str	r1, [r5, #32]
	.loc 1 8077 3 is_stmt 1 discriminator 9 view .LVU2156
	.loc 1 8077 14 is_stmt 0 discriminator 9 view .LVU2157
	ldr	r1, [r5, #32]
	orr	r1, r1, #4096
	str	r1, [r5, #32]
.LVL498:
	.loc 1 8077 14 discriminator 9 view .LVU2158
.LBE252:
.LBE258:
	.loc 1 2426 3 is_stmt 1 discriminator 9 view .LVU2159
.L828:
	.loc 1 2494 7 view .LVU2160
	.loc 1 2494 17 is_stmt 0 view .LVU2161
	ldr	r0, [r4, #48]
	.loc 1 2501 11 view .LVU2162
	add	r1, r5, #64
	.loc 1 2494 52 view .LVU2163
	ldr	r5, .L865
	str	r5, [r0, #44]
	.loc 1 2495 7 is_stmt 1 view .LVU2164
	.loc 1 2495 56 is_stmt 0 view .LVU2165
	ldr	r5, .L865+4
	str	r5, [r0, #48]
	.loc 1 2498 7 is_stmt 1 view .LVU2166
	.loc 1 2498 53 is_stmt 0 view .LVU2167
	ldr	r5, .L865+8
	str	r5, [r0, #52]
	.loc 1 2501 7 is_stmt 1 view .LVU2168
	.loc 1 2501 11 is_stmt 0 view .LVU2169
	bl	HAL_DMA_Start_IT
.LVL499:
	.loc 1 2501 10 view .LVU2170
	cmp	r0, #0
	bne	.L820
	.loc 1 2508 7 is_stmt 1 view .LVU2171
	ldr	r5, [r4]
	ldr	r3, [r5, #12]
	orr	r3, r3, #4096
	str	r3, [r5, #12]
	.loc 1 2509 7 view .LVU2172
	b	.L830
.LVL500:
.L864:
	.loc 1 2424 3 is_stmt 0 discriminator 12 view .LVU2173
	ldr	r5, [r4]
	.loc 1 2414 7 discriminator 12 view .LVU2174
	movs	r3, #2
.LVL501:
	.loc 1 2414 7 discriminator 12 view .LVU2175
	strb	r3, [r4, #66]
	.loc 1 2415 7 is_stmt 1 discriminator 12 view .LVU2176
	strb	r3, [r4, #71]
	.loc 1 2424 3 discriminator 12 view .LVU2177
.LVL502:
.LBB259:
	.loc 1 8063 6 discriminator 12 view .LVU2178
.LBB253:
	.loc 1 8065 3 discriminator 12 view .LVU2179
	.loc 1 8068 3 discriminator 12 view .LVU2180
	.loc 1 8069 3 discriminator 12 view .LVU2181
	.loc 1 8071 3 discriminator 12 view .LVU2182
	.loc 1 8074 3 discriminator 12 view .LVU2183
	.loc 1 8074 14 is_stmt 0 discriminator 12 view .LVU2184
	ldr	r3, [r5, #32]
	bic	r3, r3, #65536
	str	r3, [r5, #32]
	.loc 1 8077 3 is_stmt 1 discriminator 12 view .LVU2185
	.loc 1 8077 14 is_stmt 0 discriminator 12 view .LVU2186
	ldr	r3, [r5, #32]
	orr	r3, r3, #65536
	movs	r0, #1
.LVL503:
	.loc 1 8077 14 discriminator 12 view .LVU2187
	str	r3, [r5, #32]
.LVL504:
	.loc 1 8077 14 discriminator 12 view .LVU2188
.LBE253:
.LBE259:
	.loc 1 2426 3 is_stmt 1 discriminator 12 view .LVU2189
	b	.L830
.L866:
	.align	2
.L865:
	.word	TIM_DMACaptureCplt
	.word	TIM_DMACaptureHalfCplt
	.word	TIM_DMAError
	.word	1073818624
	.word	65543
	.cfi_endproc
.LFE170:
	.size	HAL_TIM_IC_Start_DMA, .-HAL_TIM_IC_Start_DMA
	.section	.text.HAL_TIM_IC_Stop_DMA,"ax",%progbits
	.align	1
	.p2align 2,,3
	.global	HAL_TIM_IC_Stop_DMA
	.syntax unified
	.thumb
	.thumb_func
	.fpu fpv4-sp-d16
	.type	HAL_TIM_IC_Stop_DMA, %function
HAL_TIM_IC_Stop_DMA:
.LVL505:
.LFB171:
	.loc 1 2547 1 view -0
	.cfi_startproc
	@ args = 0, pretend = 0, frame = 0
	@ frame_needed = 0, uses_anonymous_args = 0
	.loc 1 2548 3 view .LVU2191
	.loc 1 2551 3 view .LVU2192
	.loc 1 2552 3 view .LVU2193
	.loc 1 2555 3 view .LVU2194
	.loc 1 2547 1 is_stmt 0 view .LVU2195
	push	{r3, r4, r5, lr}
.LCFI72:
	.cfi_def_cfa_offset 16
	.cfi_offset 3, -16
	.cfi_offset 4, -12
	.cfi_offset 5, -8
	.cfi_offset 14, -4
	.loc 1 2555 3 view .LVU2196
	ldr	r3, [r0]
.LVL506:
	.loc 1 2547 1 view .LVU2197
	mov	r4, r0
.LBB260:
.LBB261:
	.loc 1 8074 14 view .LVU2198
	ldr	r2, [r3, #32]
	.loc 1 8071 35 view .LVU2199
	and	r0, r1, #31
.LVL507:
	.loc 1 8071 35 view .LVU2200
.LBE261:
.LBE260:
	.loc 1 2547 1 view .LVU2201
	mov	r5, r1
.LVL508:
.LBB264:
.LBI260:
	.loc 1 8063 6 is_stmt 1 view .LVU2202
.LBB262:
	.loc 1 8065 3 view .LVU2203
	.loc 1 8068 3 view .LVU2204
	.loc 1 8069 3 view .LVU2205
	.loc 1 8071 3 view .LVU2206
	.loc 1 8074 3 view .LVU2207
	.loc 1 8071 7 is_stmt 0 view .LVU2208
	movs	r1, #1
.LVL509:
	.loc 1 8071 7 view .LVU2209
	lsls	r1, r1, r0
.LVL510:
	.loc 1 8074 14 view .LVU2210
	bic	r2, r2, r1
	str	r2, [r3, #32]
	.loc 1 8077 3 is_stmt 1 view .LVU2211
	.loc 1 8077 14 is_stmt 0 view .LVU2212
	ldr	r2, [r3, #32]
	str	r2, [r3, #32]
.LVL511:
	.loc 1 8077 14 view .LVU2213
.LBE262:
.LBE264:
	.loc 1 2557 3 is_stmt 1 view .LVU2214
	cmp	r5, #12
	bhi	.L887
	tbb	[pc, r5]
.L870:
	.byte	(.L873-.L870)/2
	.byte	(.L887-.L870)/2
	.byte	(.L887-.L870)/2
	.byte	(.L887-.L870)/2
	.byte	(.L872-.L870)/2
	.byte	(.L887-.L870)/2
	.byte	(.L887-.L870)/2
	.byte	(.L887-.L870)/2
	.byte	(.L871-.L870)/2
	.byte	(.L887-.L870)/2
	.byte	(.L887-.L870)/2
	.byte	(.L887-.L870)/2
	.byte	(.L869-.L870)/2
	.p2align 1
.L887:
.LBB265:
.LBB263:
	.loc 1 8077 14 is_stmt 0 view .LVU2215
	movs	r0, #1
.LBE263:
.LBE265:
	.loc 1 2608 1 view .LVU2216
	pop	{r3, r4, r5, pc}
.LVL512:
.L869:
	.loc 1 2586 7 is_stmt 1 view .LVU2217
	ldr	r2, [r3, #12]
	.loc 1 2587 13 is_stmt 0 view .LVU2218
	ldr	r0, [r4, #48]
	.loc 1 2586 7 view .LVU2219
	bic	r2, r2, #4096
	str	r2, [r3, #12]
	.loc 1 2587 7 is_stmt 1 view .LVU2220
	.loc 1 2587 13 is_stmt 0 view .LVU2221
	bl	HAL_DMA_Abort_IT
.LVL513:
	.loc 1 2588 7 is_stmt 1 view .LVU2222
	.loc 1 2596 3 view .LVU2223
	.loc 1 2599 5 view .LVU2224
	.loc 1 2599 5 view .LVU2225
	ldr	r3, [r4]
	ldr	r1, [r3, #32]
	movw	r2, #4369
	tst	r1, r2
	bne	.L880
	.loc 1 2599 5 view .LVU2226
	ldr	r1, [r3, #32]
	movw	r2, #17476
	tst	r1, r2
	bne	.L880
.L882:
	.loc 1 2599 5 view .LVU2227
	ldr	r2, [r3]
	.loc 1 2602 5 is_stmt 0 view .LVU2228
	cmp	r5, #4
	.loc 1 2599 5 view .LVU2229
	bic	r2, r2, #1
	str	r2, [r3]
	.loc 1 2599 5 is_stmt 1 view .LVU2230
	.loc 1 2602 5 view .LVU2231
	beq	.L885
	.loc 1 2602 5 is_stmt 0 discriminator 4 view .LVU2232
	cmp	r5, #8
	beq	.L879
	.loc 1 2602 5 discriminator 7 view .LVU2233
	cmp	r5, #12
	beq	.L880
	.loc 1 2602 5 discriminator 10 view .LVU2234
	movs	r3, #1
	cmp	r5, #16
	ite	eq
	strbeq	r3, [r4, #66]
	strbne	r3, [r4, #67]
.L878:
	.loc 1 2603 5 is_stmt 1 view .LVU2235
	movs	r3, #1
	strb	r3, [r4, #71]
	movs	r0, #0
.LVL514:
	.loc 1 2607 3 view .LVU2236
	.loc 1 2608 1 is_stmt 0 view .LVU2237
	pop	{r3, r4, r5, pc}
.LVL515:
.L871:
	.loc 1 2578 7 is_stmt 1 view .LVU2238
	ldr	r2, [r3, #12]
	.loc 1 2579 13 is_stmt 0 view .LVU2239
	ldr	r0, [r4, #44]
	.loc 1 2578 7 view .LVU2240
	bic	r2, r2, #2048
	str	r2, [r3, #12]
	.loc 1 2579 7 is_stmt 1 view .LVU2241
	.loc 1 2579 13 is_stmt 0 view .LVU2242
	bl	HAL_DMA_Abort_IT
.LVL516:
	.loc 1 2580 7 is_stmt 1 view .LVU2243
	.loc 1 2596 3 view .LVU2244
	.loc 1 2599 5 view .LVU2245
	.loc 1 2599 5 view .LVU2246
	ldr	r3, [r4]
	ldr	r1, [r3, #32]
	movw	r2, #4369
	tst	r1, r2
	bne	.L879
	.loc 1 2599 5 view .LVU2247
	ldr	r1, [r3, #32]
	movw	r2, #17476
	tst	r1, r2
	beq	.L882
.L879:
	.loc 1 2602 5 is_stmt 0 view .LVU2248
	movs	r3, #1
	strb	r3, [r4, #64]
	.loc 1 2603 5 is_stmt 1 view .LVU2249
	strb	r3, [r4, #70]
	movs	r0, #0
	.loc 1 2608 1 is_stmt 0 view .LVU2250
	pop	{r3, r4, r5, pc}
.LVL517:
.L872:
	.loc 1 2570 7 is_stmt 1 view .LVU2251
	ldr	r2, [r3, #12]
	.loc 1 2571 13 is_stmt 0 view .LVU2252
	ldr	r0, [r4, #40]
	.loc 1 2570 7 view .LVU2253
	bic	r2, r2, #1024
	str	r2, [r3, #12]
	.loc 1 2571 7 is_stmt 1 view .LVU2254
	.loc 1 2571 13 is_stmt 0 view .LVU2255
	bl	HAL_DMA_Abort_IT
.LVL518:
	.loc 1 2572 7 is_stmt 1 view .LVU2256
	.loc 1 2596 3 view .LVU2257
	.loc 1 2599 5 view .LVU2258
	.loc 1 2599 5 view .LVU2259
	ldr	r3, [r4]
	ldr	r1, [r3, #32]
	movw	r2, #4369
	tst	r1, r2
	beq	.L875
.L885:
	.loc 1 2602 5 is_stmt 0 view .LVU2260
	movs	r3, #1
	strb	r3, [r4, #63]
	.loc 1 2603 5 is_stmt 1 view .LVU2261
	strb	r3, [r4, #69]
	movs	r0, #0
	.loc 1 2608 1 is_stmt 0 view .LVU2262
	pop	{r3, r4, r5, pc}
.LVL519:
.L873:
	.loc 1 2562 7 is_stmt 1 view .LVU2263
	ldr	r2, [r3, #12]
	.loc 1 2563 13 is_stmt 0 view .LVU2264
	ldr	r0, [r4, #36]
	.loc 1 2562 7 view .LVU2265
	bic	r2, r2, #512
	str	r2, [r3, #12]
	.loc 1 2563 7 is_stmt 1 view .LVU2266
	.loc 1 2563 13 is_stmt 0 view .LVU2267
	bl	HAL_DMA_Abort_IT
.LVL520:
	.loc 1 2564 7 is_stmt 1 view .LVU2268
	.loc 1 2596 3 view .LVU2269
	.loc 1 2599 5 view .LVU2270
	.loc 1 2599 5 view .LVU2271
	ldr	r3, [r4]
	ldr	r1, [r3, #32]
	movw	r2, #4369
	tst	r1, r2
	beq	.L874
.L884:
	.loc 1 2602 5 is_stmt 0 view .LVU2272
	movs	r3, #1
	strb	r3, [r4, #62]
	.loc 1 2603 5 is_stmt 1 view .LVU2273
	strb	r3, [r4, #68]
	movs	r0, #0
	.loc 1 2608 1 is_stmt 0 view .LVU2274
	pop	{r3, r4, r5, pc}
.LVL521:
.L875:
	.loc 1 2599 5 is_stmt 1 view .LVU2275
	ldr	r1, [r3, #32]
	movw	r2, #17476
	tst	r1, r2
	beq	.L882
	b	.L885
.L874:
	.loc 1 2599 5 view .LVU2276
	ldr	r1, [r3, #32]
	movw	r2, #17476
	tst	r1, r2
	bne	.L884
	.loc 1 2599 5 view .LVU2277
	ldr	r2, [r3]
	bic	r2, r2, #1
	str	r2, [r3]
	.loc 1 2599 5 view .LVU2278
	.loc 1 2602 5 view .LVU2279
	b	.L884
.L880:
	.loc 1 2602 5 is_stmt 0 view .LVU2280
	movs	r3, #1
	strb	r3, [r4, #65]
	b	.L878
	.cfi_endproc
.LFE171:
	.size	HAL_TIM_IC_Stop_DMA, .-HAL_TIM_IC_Stop_DMA
	.section	.text.HAL_TIM_OnePulse_MspInit,"ax",%progbits
	.align	1
	.p2align 2,,3
	.weak	HAL_TIM_OnePulse_MspInit
	.syntax unified
	.thumb
	.thumb_func
	.fpu fpv4-sp-d16
	.type	HAL_TIM_OnePulse_MspInit, %function
HAL_TIM_OnePulse_MspInit:
.LFB268:
	.cfi_startproc
	@ args = 0, pretend = 0, frame = 0
	@ frame_needed = 0, uses_anonymous_args = 0
	@ link register save eliminated.
	bx	lr
	.cfi_endproc
.LFE268:
	.size	HAL_TIM_OnePulse_MspInit, .-HAL_TIM_OnePulse_MspInit
	.section	.text.HAL_TIM_OnePulse_Init,"ax",%progbits
	.align	1
	.p2align 2,,3
	.global	HAL_TIM_OnePulse_Init
	.syntax unified
	.thumb
	.thumb_func
	.fpu fpv4-sp-d16
	.type	HAL_TIM_OnePulse_Init, %function
HAL_TIM_OnePulse_Init:
.LVL522:
.LFB172:
	.loc 1 2652 1 is_stmt 1 view -0
	.cfi_startproc
	@ args = 0, pretend = 0, frame = 0
	@ frame_needed = 0, uses_anonymous_args = 0
	.loc 1 2654 3 view .LVU2282
	.loc 1 2654 6 is_stmt 0 view .LVU2283
	cmp	r0, #0
	beq	.L926
	.loc 1 2660 3 is_stmt 1 view .LVU2284
	.loc 1 2661 3 view .LVU2285
	.loc 1 2662 3 view .LVU2286
	.loc 1 2663 3 view .LVU2287
	.loc 1 2664 3 view .LVU2288
	.loc 1 2665 3 view .LVU2289
	.loc 1 2667 3 view .LVU2290
	.loc 1 2652 1 is_stmt 0 view .LVU2291
	push	{r3, r4, r5, lr}
.LCFI73:
	.cfi_def_cfa_offset 16
	.cfi_offset 3, -16
	.cfi_offset 4, -12
	.cfi_offset 5, -8
	.cfi_offset 14, -4
	.loc 1 2667 11 view .LVU2292
	ldrb	r3, [r0, #61]	@ zero_extendqisi2
	mov	r5, r1
	mov	r4, r0
	.loc 1 2667 6 view .LVU2293
	and	r2, r3, #255
	cmp	r3, #0
	beq	.L938
.LVL523:
.L912:
	.loc 1 2689 3 is_stmt 1 view .LVU2294
	.loc 1 2692 3 is_stmt 0 view .LVU2295
	ldr	r3, [r4]
.LBB268:
.LBB269:
	.loc 1 7114 6 view .LVU2296
	ldr	r1, .L939
.LBE269:
.LBE268:
	.loc 1 2689 15 view .LVU2297
	movs	r2, #2
	strb	r2, [r4, #61]
	.loc 1 2692 3 is_stmt 1 view .LVU2298
.LVL524:
.LBB272:
.LBI268:
	.loc 1 7108 6 view .LVU2299
.LBB270:
	.loc 1 7110 3 view .LVU2300
	.loc 1 7111 3 view .LVU2301
	.loc 1 7114 6 is_stmt 0 view .LVU2302
	cmp	r3, r1
	.loc 1 7111 10 view .LVU2303
	ldr	r2, [r3]
.LVL525:
	.loc 1 7114 3 is_stmt 1 view .LVU2304
	.loc 1 7114 6 is_stmt 0 view .LVU2305
	beq	.L917
	.loc 1 7114 7 view .LVU2306
	cmp	r3, #1073741824
	beq	.L914
	sub	r1, r1, #75776
	cmp	r3, r1
	beq	.L914
	add	r1, r1, #1024
	cmp	r3, r1
	beq	.L914
	add	r1, r1, #76800
	cmp	r3, r1
	beq	.L917
	.loc 1 7121 7 view .LVU2307
	add	r1, r1, #3072
	cmp	r3, r1
	beq	.L936
	add	r1, r1, #1024
	cmp	r3, r1
	beq	.L936
	add	r1, r1, #1024
	cmp	r3, r1
	bne	.L937
	b	.L936
.L914:
	.loc 1 7117 5 is_stmt 1 view .LVU2308
	.loc 1 7118 12 is_stmt 0 view .LVU2309
	ldr	r1, [r4, #8]
	.loc 1 7117 12 view .LVU2310
	bic	r2, r2, #112
.LVL526:
	.loc 1 7118 5 is_stmt 1 view .LVU2311
	.loc 1 7118 12 is_stmt 0 view .LVU2312
	orrs	r2, r2, r1
.LVL527:
	.loc 1 7121 3 is_stmt 1 view .LVU2313
	.loc 1 7124 5 view .LVU2314
	.loc 1 7125 12 is_stmt 0 view .LVU2315
	ldr	r1, [r4, #16]
	.loc 1 7124 12 view .LVU2316
	bic	r2, r2, #768
.LVL528:
	.loc 1 7125 5 is_stmt 1 view .LVU2317
	.loc 1 7129 3 view .LVU2318
	.loc 1 7125 12 is_stmt 0 view .LVU2319
	orrs	r2, r2, r1
.LVL529:
.L937:
	.loc 1 7129 3 view .LVU2320
	ldr	r1, [r4, #24]
	bic	r2, r2, #128
.LVL530:
	.loc 1 7129 3 view .LVU2321
	orrs	r2, r2, r1
.LVL531:
	.loc 1 7131 3 is_stmt 1 view .LVU2322
	.loc 1 7134 34 is_stmt 0 view .LVU2323
	ldr	r1, [r4, #12]
	.loc 1 7131 13 view .LVU2324
	str	r2, [r3]
	.loc 1 7134 3 is_stmt 1 view .LVU2325
	.loc 1 7134 13 is_stmt 0 view .LVU2326
	str	r1, [r3, #44]
	.loc 1 7137 3 is_stmt 1 view .LVU2327
	.loc 1 7137 24 is_stmt 0 view .LVU2328
	ldr	r2, [r4, #4]
.LVL532:
	.loc 1 7137 13 view .LVU2329
	str	r2, [r3, #40]
	.loc 1 7139 3 is_stmt 1 view .LVU2330
.L923:
	.loc 1 7147 3 view .LVU2331
	.loc 1 7147 13 is_stmt 0 view .LVU2332
	movs	r2, #1
	str	r2, [r3, #20]
	.loc 1 7150 3 is_stmt 1 view .LVU2333
	.loc 1 7150 7 is_stmt 0 view .LVU2334
	ldr	r2, [r3, #16]
	.loc 1 7150 6 view .LVU2335
	lsls	r2, r2, #31
	bpl	.L922
	.loc 1 7153 5 is_stmt 1 view .LVU2336
	ldr	r2, [r3, #16]
	bic	r2, r2, #1
	str	r2, [r3, #16]
.L922:
.LVL533:
	.loc 1 7153 5 is_stmt 0 view .LVU2337
.LBE270:
.LBE272:
	.loc 1 2695 3 is_stmt 1 view .LVU2338
	.loc 1 2695 23 is_stmt 0 view .LVU2339
	ldr	r1, [r3]
	bic	r1, r1, #8
	str	r1, [r3]
	.loc 1 2698 3 is_stmt 1 view .LVU2340
	.loc 1 2698 23 is_stmt 0 view .LVU2341
	ldr	r1, [r3]
	.loc 1 2701 23 view .LVU2342
	movs	r2, #1
	.loc 1 2698 23 view .LVU2343
	orrs	r5, r5, r1
.LVL534:
	.loc 1 2698 23 view .LVU2344
	str	r5, [r3]
	.loc 1 2701 3 is_stmt 1 view .LVU2345
	.loc 1 2701 23 is_stmt 0 view .LVU2346
	strb	r2, [r4, #72]
	.loc 1 2704 3 is_stmt 1 view .LVU2347
	strb	r2, [r4, #62]
	.loc 1 2705 3 view .LVU2348
	strb	r2, [r4, #63]
	.loc 1 2706 3 view .LVU2349
	strb	r2, [r4, #68]
	.loc 1 2707 3 view .LVU2350
	strb	r2, [r4, #69]
	.loc 1 2710 3 view .LVU2351
	.loc 1 2710 15 is_stmt 0 view .LVU2352
	strb	r2, [r4, #61]
	.loc 1 2712 3 is_stmt 1 view .LVU2353
	.loc 1 2712 10 is_stmt 0 view .LVU2354
	movs	r0, #0
	.loc 1 2713 1 view .LVU2355
	pop	{r3, r4, r5, pc}
.LVL535:
.L917:
.LBB273:
.LBB271:
	.loc 1 7117 5 is_stmt 1 view .LVU2356
	.loc 1 7118 12 is_stmt 0 view .LVU2357
	ldr	r1, [r4, #8]
	.loc 1 7117 12 view .LVU2358
	bic	r2, r2, #112
.LVL536:
	.loc 1 7118 5 is_stmt 1 view .LVU2359
	.loc 1 7118 12 is_stmt 0 view .LVU2360
	orrs	r2, r2, r1
.LVL537:
.L936:
	.loc 1 7121 3 is_stmt 1 view .LVU2361
	.loc 1 7124 5 view .LVU2362
	.loc 1 7125 12 is_stmt 0 view .LVU2363
	ldr	r1, [r4, #16]
	.loc 1 7124 12 view .LVU2364
	bic	r2, r2, #768
.LVL538:
	.loc 1 7125 5 is_stmt 1 view .LVU2365
	.loc 1 7129 3 view .LVU2366
	.loc 1 7125 12 is_stmt 0 view .LVU2367
	orrs	r2, r2, r1
.LVL539:
	.loc 1 7129 3 view .LVU2368
	ldr	r1, [r4, #24]
	bic	r2, r2, #128
.LVL540:
	.loc 1 7129 3 view .LVU2369
	orrs	r2, r2, r1
.LVL541:
	.loc 1 7131 3 is_stmt 1 view .LVU2370
	.loc 1 7131 13 is_stmt 0 view .LVU2371
	str	r2, [r3]
	.loc 1 7134 3 is_stmt 1 view .LVU2372
	.loc 1 7134 34 is_stmt 0 view .LVU2373
	ldr	r2, [r4, #12]
.LVL542:
	.loc 1 7134 13 view .LVU2374
	str	r2, [r3, #44]
.LVL543:
	.loc 1 7137 3 is_stmt 1 view .LVU2375
	.loc 1 7137 24 is_stmt 0 view .LVU2376
	ldr	r2, [r4, #4]
	.loc 1 7137 13 view .LVU2377
	str	r2, [r3, #40]
	.loc 1 7139 3 is_stmt 1 view .LVU2378
	.loc 1 7142 5 view .LVU2379
	.loc 1 7142 26 is_stmt 0 view .LVU2380
	ldr	r2, [r4, #20]
	.loc 1 7142 15 view .LVU2381
	str	r2, [r3, #48]
	b	.L923
.LVL544:
.L938:
	.loc 1 7142 15 view .LVU2382
.LBE271:
.LBE273:
	.loc 1 2670 5 is_stmt 1 view .LVU2383
	.loc 1 2670 16 is_stmt 0 view .LVU2384
	strb	r2, [r0, #60]
	.loc 1 2684 5 is_stmt 1 view .LVU2385
	bl	HAL_TIM_OnePulse_MspInit
.LVL545:
	.loc 1 2684 5 is_stmt 0 view .LVU2386
	b	.L912
.LVL546:
.L926:
.LCFI74:
	.cfi_def_cfa_offset 0
	.cfi_restore 3
	.cfi_restore 4
	.cfi_restore 5
	.cfi_restore 14
	.loc 1 2656 12 view .LVU2387
	movs	r0, #1
.LVL547:
	.loc 1 2713 1 view .LVU2388
	bx	lr
.L940:
	.align	2
.L939:
	.word	1073818624
	.cfi_endproc
.LFE172:
	.size	HAL_TIM_OnePulse_Init, .-HAL_TIM_OnePulse_Init
	.section	.text.HAL_TIM_OnePulse_MspDeInit,"ax",%progbits
	.align	1
	.p2align 2,,3
	.weak	HAL_TIM_OnePulse_MspDeInit
	.syntax unified
	.thumb
	.thumb_func
	.fpu fpv4-sp-d16
	.type	HAL_TIM_OnePulse_MspDeInit, %function
HAL_TIM_OnePulse_MspDeInit:
.LFB270:
	.cfi_startproc
	@ args = 0, pretend = 0, frame = 0
	@ frame_needed = 0, uses_anonymous_args = 0
	@ link register save eliminated.
	bx	lr
	.cfi_endproc
.LFE270:
	.size	HAL_TIM_OnePulse_MspDeInit, .-HAL_TIM_OnePulse_MspDeInit
	.section	.text.HAL_TIM_OnePulse_DeInit,"ax",%progbits
	.align	1
	.p2align 2,,3
	.global	HAL_TIM_OnePulse_DeInit
	.syntax unified
	.thumb
	.thumb_func
	.fpu fpv4-sp-d16
	.type	HAL_TIM_OnePulse_DeInit, %function
HAL_TIM_OnePulse_DeInit:
.LVL548:
.LFB173:
	.loc 1 2721 1 is_stmt 1 view -0
	.cfi_startproc
	@ args = 0, pretend = 0, frame = 0
	@ frame_needed = 0, uses_anonymous_args = 0
	.loc 1 2723 3 view .LVU2390
	.loc 1 2725 3 view .LVU2391
	.loc 1 2725 15 is_stmt 0 view .LVU2392
	movs	r2, #2
	.loc 1 2728 3 view .LVU2393
	ldr	r3, [r0]
	.loc 1 2721 1 view .LVU2394
	push	{r4, lr}
.LCFI75:
	.cfi_def_cfa_offset 8
	.cfi_offset 4, -8
	.cfi_offset 14, -4
	.loc 1 2725 15 view .LVU2395
	strb	r2, [r0, #61]
	.loc 1 2728 3 is_stmt 1 view .LVU2396
	.loc 1 2728 3 view .LVU2397
	ldr	r1, [r3, #32]
	movw	r2, #4369
	tst	r1, r2
	.loc 1 2721 1 is_stmt 0 view .LVU2398
	mov	r4, r0
	.loc 1 2728 3 view .LVU2399
	bne	.L943
	.loc 1 2728 3 is_stmt 1 discriminator 1 view .LVU2400
	ldr	r1, [r3, #32]
	movw	r2, #17476
	tst	r1, r2
	bne	.L943
	.loc 1 2728 3 discriminator 3 view .LVU2401
	ldr	r2, [r3]
	bic	r2, r2, #1
	str	r2, [r3]
.L943:
	.loc 1 2728 3 discriminator 5 view .LVU2402
	.loc 1 2739 3 discriminator 5 view .LVU2403
	mov	r0, r4
.LVL549:
	.loc 1 2739 3 is_stmt 0 discriminator 5 view .LVU2404
	bl	HAL_TIM_OnePulse_MspDeInit
.LVL550:
	.loc 1 2743 3 is_stmt 1 discriminator 5 view .LVU2405
	.loc 1 2743 23 is_stmt 0 discriminator 5 view .LVU2406
	movs	r0, #0
	strb	r0, [r4, #72]
	.loc 1 2746 3 is_stmt 1 discriminator 5 view .LVU2407
	.loc 1 2755 3 is_stmt 0 discriminator 5 view .LVU2408
	strb	r0, [r4, #60]
	.loc 1 2746 3 discriminator 5 view .LVU2409
	strb	r0, [r4, #62]
	.loc 1 2747 3 is_stmt 1 discriminator 5 view .LVU2410
	strb	r0, [r4, #63]
	.loc 1 2748 3 discriminator 5 view .LVU2411
	strb	r0, [r4, #68]
	.loc 1 2749 3 discriminator 5 view .LVU2412
	strb	r0, [r4, #69]
	.loc 1 2752 3 discriminator 5 view .LVU2413
	.loc 1 2752 15 is_stmt 0 discriminator 5 view .LVU2414
	strb	r0, [r4, #61]
	.loc 1 2755 3 is_stmt 1 discriminator 5 view .LVU2415
	.loc 1 2755 3 discriminator 5 view .LVU2416
	.loc 1 2755 3 discriminator 5 view .LVU2417
	.loc 1 2757 3 discriminator 5 view .LVU2418
	.loc 1 2758 1 is_stmt 0 discriminator 5 view .LVU2419
	pop	{r4, pc}
	.loc 1 2758 1 discriminator 5 view .LVU2420
	.cfi_endproc
.LFE173:
	.size	HAL_TIM_OnePulse_DeInit, .-HAL_TIM_OnePulse_DeInit
	.section	.text.HAL_TIM_OnePulse_Start,"ax",%progbits
	.align	1
	.p2align 2,,3
	.global	HAL_TIM_OnePulse_Start
	.syntax unified
	.thumb
	.thumb_func
	.fpu fpv4-sp-d16
	.type	HAL_TIM_OnePulse_Start, %function
HAL_TIM_OnePulse_Start:
.LVL551:
.LFB176:
	.loc 1 2801 1 is_stmt 1 view -0
	.cfi_startproc
	@ args = 0, pretend = 0, frame = 0
	@ frame_needed = 0, uses_anonymous_args = 0
	.loc 1 2802 3 view .LVU2422
	.loc 1 2801 1 is_stmt 0 view .LVU2423
	push	{lr}
.LCFI76:
	.cfi_def_cfa_offset 4
	.cfi_offset 14, -4
	.loc 1 2802 31 view .LVU2424
	ldrb	ip, [r0, #62]	@ zero_extendqisi2
	.loc 1 2803 31 view .LVU2425
	ldrb	r3, [r0, #63]	@ zero_extendqisi2
	.loc 1 2804 31 view .LVU2426
	ldrb	r2, [r0, #68]	@ zero_extendqisi2
	.loc 1 2805 31 view .LVU2427
	ldrb	r1, [r0, #69]	@ zero_extendqisi2
.LVL552:
	.loc 1 2803 3 is_stmt 1 view .LVU2428
	.loc 1 2804 3 view .LVU2429
	.loc 1 2805 3 view .LVU2430
	.loc 1 2808 3 view .LVU2431
	.loc 1 2811 3 view .LVU2432
	.loc 1 2811 6 is_stmt 0 view .LVU2433
	cmp	ip, #1
	bne	.L948
	uxtb	r3, r3
	.loc 1 2812 7 view .LVU2434
	cmp	r3, #1
	uxtb	lr, ip
	beq	.L953
.LVL553:
.L946:
	.loc 1 2845 1 view .LVU2435
	mov	r0, lr
.LVL554:
	.loc 1 2845 1 view .LVU2436
	ldr	pc, [sp], #4
.LVL555:
.L948:
	.loc 1 2816 12 view .LVU2437
	mov	lr, #1
	.loc 1 2845 1 view .LVU2438
	mov	r0, lr
.LVL556:
	.loc 1 2845 1 view .LVU2439
	ldr	pc, [sp], #4
.LVL557:
.L953:
	.loc 1 2845 1 view .LVU2440
	uxtb	r2, r2
	.loc 1 2813 7 view .LVU2441
	cmp	r2, #1
	bne	.L946
	uxtb	r1, r1
	.loc 1 2814 7 view .LVU2442
	cmp	r1, #1
	bne	.L946
	.loc 1 2820 3 is_stmt 1 view .LVU2443
	.loc 1 2834 3 is_stmt 0 view .LVU2444
	ldr	r3, [r0]
.LVL558:
	.loc 1 2837 7 view .LVU2445
	ldr	r1, .L954
.LVL559:
	.loc 1 2820 3 view .LVU2446
	movs	r2, #2
.LVL560:
	.loc 1 2820 3 view .LVU2447
	strb	r2, [r0, #62]
	.loc 1 2821 3 is_stmt 1 view .LVU2448
	strb	r2, [r0, #63]
	.loc 1 2822 3 view .LVU2449
	strb	r2, [r0, #68]
	.loc 1 2823 3 view .LVU2450
	strb	r2, [r0, #69]
	.loc 1 2834 3 view .LVU2451
.LVL561:
.LBB274:
.LBI274:
	.loc 1 8063 6 view .LVU2452
.LBB275:
	.loc 1 8065 3 view .LVU2453
	.loc 1 8068 3 view .LVU2454
	.loc 1 8069 3 view .LVU2455
	.loc 1 8071 3 view .LVU2456
	.loc 1 8074 3 view .LVU2457
	.loc 1 8074 14 is_stmt 0 view .LVU2458
	ldr	r2, [r3, #32]
	bic	r2, r2, #1
	str	r2, [r3, #32]
	.loc 1 8077 3 is_stmt 1 view .LVU2459
	.loc 1 8077 14 is_stmt 0 view .LVU2460
	ldr	r2, [r3, #32]
	orr	r2, r2, #1
	str	r2, [r3, #32]
.LVL562:
	.loc 1 8077 14 view .LVU2461
.LBE275:
.LBE274:
	.loc 1 2835 3 is_stmt 1 view .LVU2462
.LBB276:
.LBI276:
	.loc 1 8063 6 view .LVU2463
.LBB277:
	.loc 1 8065 3 view .LVU2464
	.loc 1 8068 3 view .LVU2465
	.loc 1 8069 3 view .LVU2466
	.loc 1 8071 3 view .LVU2467
	.loc 1 8074 3 view .LVU2468
	.loc 1 8074 14 is_stmt 0 view .LVU2469
	ldr	r2, [r3, #32]
	bic	r2, r2, #16
	str	r2, [r3, #32]
	.loc 1 8077 3 is_stmt 1 view .LVU2470
	.loc 1 8077 14 is_stmt 0 view .LVU2471
	ldr	r2, [r3, #32]
.LBE277:
.LBE276:
	.loc 1 2837 7 view .LVU2472
	cmp	r3, r1
.LBB279:
.LBB278:
	.loc 1 8077 14 view .LVU2473
	orr	r2, r2, #16
	str	r2, [r3, #32]
.LVL563:
	.loc 1 8077 14 view .LVU2474
.LBE278:
.LBE279:
	.loc 1 2837 3 is_stmt 1 view .LVU2475
	.loc 1 2837 7 is_stmt 0 view .LVU2476
	beq	.L947
	.loc 1 2837 7 discriminator 2 view .LVU2477
	ldr	r2, .L954+4
	cmp	r3, r2
	beq	.L947
	.loc 1 2837 7 discriminator 4 view .LVU2478
	add	r2, r2, #3072
	cmp	r3, r2
	beq	.L947
	.loc 1 2837 7 discriminator 6 view .LVU2479
	add	r2, r2, #1024
	cmp	r3, r2
	beq	.L947
	.loc 1 2837 7 discriminator 8 view .LVU2480
	add	r2, r2, #1024
	cmp	r3, r2
	beq	.L947
	.loc 1 2844 10 view .LVU2481
	mov	lr, #0
	b	.L946
.L947:
	.loc 1 2840 5 is_stmt 1 view .LVU2482
	ldr	r2, [r3, #68]
	orr	r2, r2, #32768
	.loc 1 2844 10 is_stmt 0 view .LVU2483
	mov	lr, #0
	.loc 1 2840 5 view .LVU2484
	str	r2, [r3, #68]
	b	.L946
.L955:
	.align	2
.L954:
	.word	1073818624
	.word	1073820672
	.cfi_endproc
.LFE176:
	.size	HAL_TIM_OnePulse_Start, .-HAL_TIM_OnePulse_Start
	.section	.text.HAL_TIM_OnePulse_Stop,"ax",%progbits
	.align	1
	.p2align 2,,3
	.global	HAL_TIM_OnePulse_Stop
	.syntax unified
	.thumb
	.thumb_func
	.fpu fpv4-sp-d16
	.type	HAL_TIM_OnePulse_Stop, %function
HAL_TIM_OnePulse_Stop:
.LVL564:
.LFB177:
	.loc 1 2858 1 is_stmt 1 view -0
	.cfi_startproc
	@ args = 0, pretend = 0, frame = 0
	@ frame_needed = 0, uses_anonymous_args = 0
	@ link register save eliminated.
	.loc 1 2860 3 view .LVU2486
	.loc 1 2868 3 view .LVU2487
	.loc 1 2858 1 is_stmt 0 view .LVU2488
	mov	r2, r0
	.loc 1 2871 7 view .LVU2489
	ldr	r0, .L960
.LVL565:
	.loc 1 2868 3 view .LVU2490
	ldr	r3, [r2]
.LVL566:
.LBB280:
.LBI280:
	.loc 1 8063 6 is_stmt 1 view .LVU2491
.LBB281:
	.loc 1 8065 3 view .LVU2492
	.loc 1 8068 3 view .LVU2493
	.loc 1 8069 3 view .LVU2494
	.loc 1 8071 3 view .LVU2495
	.loc 1 8074 3 view .LVU2496
	.loc 1 8074 14 is_stmt 0 view .LVU2497
	ldr	r1, [r3, #32]
.LVL567:
	.loc 1 8074 14 view .LVU2498
	bic	r1, r1, #1
	str	r1, [r3, #32]
	.loc 1 8077 3 is_stmt 1 view .LVU2499
	.loc 1 8077 14 is_stmt 0 view .LVU2500
	ldr	r1, [r3, #32]
	str	r1, [r3, #32]
.LVL568:
	.loc 1 8077 14 view .LVU2501
.LBE281:
.LBE280:
	.loc 1 2869 3 is_stmt 1 view .LVU2502
.LBB282:
.LBI282:
	.loc 1 8063 6 view .LVU2503
.LBB283:
	.loc 1 8065 3 view .LVU2504
	.loc 1 8068 3 view .LVU2505
	.loc 1 8069 3 view .LVU2506
	.loc 1 8071 3 view .LVU2507
	.loc 1 8074 3 view .LVU2508
	.loc 1 8074 14 is_stmt 0 view .LVU2509
	ldr	r1, [r3, #32]
	bic	r1, r1, #16
	str	r1, [r3, #32]
	.loc 1 8077 3 is_stmt 1 view .LVU2510
	.loc 1 8077 14 is_stmt 0 view .LVU2511
	ldr	r1, [r3, #32]
	str	r1, [r3, #32]
.LVL569:
	.loc 1 8077 14 view .LVU2512
.LBE283:
.LBE282:
	.loc 1 2871 3 is_stmt 1 view .LVU2513
	.loc 1 2871 7 is_stmt 0 view .LVU2514
	cmp	r3, r0
	beq	.L957
	.loc 1 2871 7 discriminator 2 view .LVU2515
	ldr	r1, .L960+4
	cmp	r3, r1
	beq	.L957
	.loc 1 2871 7 discriminator 4 view .LVU2516
	add	r1, r1, #3072
	cmp	r3, r1
	beq	.L957
	.loc 1 2871 7 discriminator 6 view .LVU2517
	add	r1, r1, #1024
	cmp	r3, r1
	beq	.L957
	.loc 1 2871 7 discriminator 8 view .LVU2518
	add	r1, r1, #1024
	cmp	r3, r1
	beq	.L957
.L958:
	.loc 1 2874 5 is_stmt 1 discriminator 5 view .LVU2519
	.loc 1 2878 3 discriminator 5 view .LVU2520
	.loc 1 2878 3 discriminator 5 view .LVU2521
	ldr	r0, [r3, #32]
	movw	r1, #4369
	tst	r0, r1
	bne	.L959
	.loc 1 2878 3 discriminator 1 view .LVU2522
	ldr	r0, [r3, #32]
	movw	r1, #17476
	tst	r0, r1
	bne	.L959
	.loc 1 2878 3 discriminator 3 view .LVU2523
	ldr	r1, [r3]
	bic	r1, r1, #1
	str	r1, [r3]
.L959:
	.loc 1 2878 3 discriminator 5 view .LVU2524
	.loc 1 2881 3 discriminator 5 view .LVU2525
	movs	r3, #1
	strb	r3, [r2, #62]
	.loc 1 2882 3 discriminator 5 view .LVU2526
	.loc 1 2888 1 is_stmt 0 discriminator 5 view .LVU2527
	movs	r0, #0
	.loc 1 2882 3 discriminator 5 view .LVU2528
	strb	r3, [r2, #63]
	.loc 1 2883 3 is_stmt 1 discriminator 5 view .LVU2529
	strb	r3, [r2, #68]
	.loc 1 2884 3 discriminator 5 view .LVU2530
	strb	r3, [r2, #69]
	.loc 1 2887 3 discriminator 5 view .LVU2531
	.loc 1 2888 1 is_stmt 0 discriminator 5 view .LVU2532
	bx	lr
.L957:
	.loc 1 2874 5 is_stmt 1 view .LVU2533
	.loc 1 2874 5 view .LVU2534
	ldr	r0, [r3, #32]
	movw	r1, #4369
	tst	r0, r1
	bne	.L958
	.loc 1 2874 5 discriminator 1 view .LVU2535
	ldr	r0, [r3, #32]
	movw	r1, #17476
	tst	r0, r1
	bne	.L958
	.loc 1 2874 5 discriminator 3 view .LVU2536
	ldr	r1, [r3, #68]
	bic	r1, r1, #32768
	str	r1, [r3, #68]
	b	.L958
.L961:
	.align	2
.L960:
	.word	1073818624
	.word	1073820672
	.cfi_endproc
.LFE177:
	.size	HAL_TIM_OnePulse_Stop, .-HAL_TIM_OnePulse_Stop
	.section	.text.HAL_TIM_OnePulse_Start_IT,"ax",%progbits
	.align	1
	.p2align 2,,3
	.global	HAL_TIM_OnePulse_Start_IT
	.syntax unified
	.thumb
	.thumb_func
	.fpu fpv4-sp-d16
	.type	HAL_TIM_OnePulse_Start_IT, %function
HAL_TIM_OnePulse_Start_IT:
.LVL570:
.LFB178:
	.loc 1 2901 1 view -0
	.cfi_startproc
	@ args = 0, pretend = 0, frame = 0
	@ frame_needed = 0, uses_anonymous_args = 0
	.loc 1 2902 3 view .LVU2538
	.loc 1 2901 1 is_stmt 0 view .LVU2539
	push	{lr}
.LCFI77:
	.cfi_def_cfa_offset 4
	.cfi_offset 14, -4
	.loc 1 2902 31 view .LVU2540
	ldrb	ip, [r0, #62]	@ zero_extendqisi2
	.loc 1 2903 31 view .LVU2541
	ldrb	r3, [r0, #63]	@ zero_extendqisi2
	.loc 1 2904 31 view .LVU2542
	ldrb	r2, [r0, #68]	@ zero_extendqisi2
	.loc 1 2905 31 view .LVU2543
	ldrb	r1, [r0, #69]	@ zero_extendqisi2
.LVL571:
	.loc 1 2903 3 is_stmt 1 view .LVU2544
	.loc 1 2904 3 view .LVU2545
	.loc 1 2905 3 view .LVU2546
	.loc 1 2908 3 view .LVU2547
	.loc 1 2911 3 view .LVU2548
	.loc 1 2911 6 is_stmt 0 view .LVU2549
	cmp	ip, #1
	bne	.L965
	uxtb	r3, r3
	.loc 1 2912 7 view .LVU2550
	cmp	r3, #1
	uxtb	lr, ip
	beq	.L970
.LVL572:
.L963:
	.loc 1 2951 1 view .LVU2551
	mov	r0, lr
.LVL573:
	.loc 1 2951 1 view .LVU2552
	ldr	pc, [sp], #4
.LVL574:
.L965:
	.loc 1 2916 12 view .LVU2553
	mov	lr, #1
	.loc 1 2951 1 view .LVU2554
	mov	r0, lr
.LVL575:
	.loc 1 2951 1 view .LVU2555
	ldr	pc, [sp], #4
.LVL576:
.L970:
	.loc 1 2951 1 view .LVU2556
	uxtb	r2, r2
	.loc 1 2913 7 view .LVU2557
	cmp	r2, #1
	bne	.L963
	uxtb	r1, r1
	.loc 1 2914 7 view .LVU2558
	cmp	r1, #1
	bne	.L963
	.loc 1 2920 3 is_stmt 1 view .LVU2559
	.loc 1 2935 3 is_stmt 0 view .LVU2560
	ldr	r3, [r0]
.LVL577:
	.loc 1 2943 7 view .LVU2561
	ldr	r1, .L971
.LVL578:
	.loc 1 2920 3 view .LVU2562
	movs	r2, #2
.LVL579:
	.loc 1 2920 3 view .LVU2563
	strb	r2, [r0, #62]
	.loc 1 2921 3 is_stmt 1 view .LVU2564
	strb	r2, [r0, #63]
	.loc 1 2922 3 view .LVU2565
	strb	r2, [r0, #68]
	.loc 1 2923 3 view .LVU2566
	strb	r2, [r0, #69]
	.loc 1 2935 3 view .LVU2567
	ldr	r2, [r3, #12]
	orr	r2, r2, #2
	str	r2, [r3, #12]
	.loc 1 2938 3 view .LVU2568
	ldr	r2, [r3, #12]
	orr	r2, r2, #4
	str	r2, [r3, #12]
	.loc 1 2940 3 view .LVU2569
.LVL580:
.LBB284:
.LBI284:
	.loc 1 8063 6 view .LVU2570
.LBB285:
	.loc 1 8065 3 view .LVU2571
	.loc 1 8068 3 view .LVU2572
	.loc 1 8069 3 view .LVU2573
	.loc 1 8071 3 view .LVU2574
	.loc 1 8074 3 view .LVU2575
	.loc 1 8074 14 is_stmt 0 view .LVU2576
	ldr	r2, [r3, #32]
	bic	r2, r2, #1
	str	r2, [r3, #32]
	.loc 1 8077 3 is_stmt 1 view .LVU2577
	.loc 1 8077 14 is_stmt 0 view .LVU2578
	ldr	r2, [r3, #32]
	orr	r2, r2, #1
	str	r2, [r3, #32]
.LVL581:
	.loc 1 8077 14 view .LVU2579
.LBE285:
.LBE284:
	.loc 1 2941 3 is_stmt 1 view .LVU2580
.LBB286:
.LBI286:
	.loc 1 8063 6 view .LVU2581
.LBB287:
	.loc 1 8065 3 view .LVU2582
	.loc 1 8068 3 view .LVU2583
	.loc 1 8069 3 view .LVU2584
	.loc 1 8071 3 view .LVU2585
	.loc 1 8074 3 view .LVU2586
	.loc 1 8074 14 is_stmt 0 view .LVU2587
	ldr	r2, [r3, #32]
	bic	r2, r2, #16
	str	r2, [r3, #32]
	.loc 1 8077 3 is_stmt 1 view .LVU2588
	.loc 1 8077 14 is_stmt 0 view .LVU2589
	ldr	r2, [r3, #32]
.LBE287:
.LBE286:
	.loc 1 2943 7 view .LVU2590
	cmp	r3, r1
.LBB289:
.LBB288:
	.loc 1 8077 14 view .LVU2591
	orr	r2, r2, #16
	str	r2, [r3, #32]
.LVL582:
	.loc 1 8077 14 view .LVU2592
.LBE288:
.LBE289:
	.loc 1 2943 3 is_stmt 1 view .LVU2593
	.loc 1 2943 7 is_stmt 0 view .LVU2594
	beq	.L964
	.loc 1 2943 7 discriminator 2 view .LVU2595
	ldr	r2, .L971+4
	cmp	r3, r2
	beq	.L964
	.loc 1 2943 7 discriminator 4 view .LVU2596
	add	r2, r2, #3072
	cmp	r3, r2
	beq	.L964
	.loc 1 2943 7 discriminator 6 view .LVU2597
	add	r2, r2, #1024
	cmp	r3, r2
	beq	.L964
	.loc 1 2943 7 discriminator 8 view .LVU2598
	add	r2, r2, #1024
	cmp	r3, r2
	beq	.L964
	.loc 1 2950 10 view .LVU2599
	mov	lr, #0
	b	.L963
.L964:
	.loc 1 2946 5 is_stmt 1 view .LVU2600
	ldr	r2, [r3, #68]
	orr	r2, r2, #32768
	.loc 1 2950 10 is_stmt 0 view .LVU2601
	mov	lr, #0
	.loc 1 2946 5 view .LVU2602
	str	r2, [r3, #68]
	b	.L963
.L972:
	.align	2
.L971:
	.word	1073818624
	.word	1073820672
	.cfi_endproc
.LFE178:
	.size	HAL_TIM_OnePulse_Start_IT, .-HAL_TIM_OnePulse_Start_IT
	.section	.text.HAL_TIM_OnePulse_Stop_IT,"ax",%progbits
	.align	1
	.p2align 2,,3
	.global	HAL_TIM_OnePulse_Stop_IT
	.syntax unified
	.thumb
	.thumb_func
	.fpu fpv4-sp-d16
	.type	HAL_TIM_OnePulse_Stop_IT, %function
HAL_TIM_OnePulse_Stop_IT:
.LVL583:
.LFB179:
	.loc 1 2964 1 is_stmt 1 view -0
	.cfi_startproc
	@ args = 0, pretend = 0, frame = 0
	@ frame_needed = 0, uses_anonymous_args = 0
	@ link register save eliminated.
	.loc 1 2966 3 view .LVU2604
	.loc 1 2969 3 view .LVU2605
	.loc 1 2964 1 is_stmt 0 view .LVU2606
	mov	r2, r0
	.loc 1 2982 7 view .LVU2607
	ldr	r0, .L977
.LVL584:
	.loc 1 2969 3 view .LVU2608
	ldr	r3, [r2]
	ldr	r1, [r3, #12]
.LVL585:
	.loc 1 2969 3 view .LVU2609
	bic	r1, r1, #2
	str	r1, [r3, #12]
	.loc 1 2972 3 is_stmt 1 view .LVU2610
	ldr	r1, [r3, #12]
	bic	r1, r1, #4
	str	r1, [r3, #12]
	.loc 1 2979 3 view .LVU2611
.LVL586:
.LBB290:
.LBI290:
	.loc 1 8063 6 view .LVU2612
.LBB291:
	.loc 1 8065 3 view .LVU2613
	.loc 1 8068 3 view .LVU2614
	.loc 1 8069 3 view .LVU2615
	.loc 1 8071 3 view .LVU2616
	.loc 1 8074 3 view .LVU2617
	.loc 1 8074 14 is_stmt 0 view .LVU2618
	ldr	r1, [r3, #32]
	bic	r1, r1, #1
	str	r1, [r3, #32]
	.loc 1 8077 3 is_stmt 1 view .LVU2619
	.loc 1 8077 14 is_stmt 0 view .LVU2620
	ldr	r1, [r3, #32]
	str	r1, [r3, #32]
.LVL587:
	.loc 1 8077 14 view .LVU2621
.LBE291:
.LBE290:
	.loc 1 2980 3 is_stmt 1 view .LVU2622
.LBB292:
.LBI292:
	.loc 1 8063 6 view .LVU2623
.LBB293:
	.loc 1 8065 3 view .LVU2624
	.loc 1 8068 3 view .LVU2625
	.loc 1 8069 3 view .LVU2626
	.loc 1 8071 3 view .LVU2627
	.loc 1 8074 3 view .LVU2628
	.loc 1 8074 14 is_stmt 0 view .LVU2629
	ldr	r1, [r3, #32]
	bic	r1, r1, #16
	str	r1, [r3, #32]
	.loc 1 8077 3 is_stmt 1 view .LVU2630
	.loc 1 8077 14 is_stmt 0 view .LVU2631
	ldr	r1, [r3, #32]
	str	r1, [r3, #32]
.LVL588:
	.loc 1 8077 14 view .LVU2632
.LBE293:
.LBE292:
	.loc 1 2982 3 is_stmt 1 view .LVU2633
	.loc 1 2982 7 is_stmt 0 view .LVU2634
	cmp	r3, r0
	beq	.L974
	.loc 1 2982 7 discriminator 2 view .LVU2635
	ldr	r1, .L977+4
	cmp	r3, r1
	beq	.L974
	.loc 1 2982 7 discriminator 4 view .LVU2636
	add	r1, r1, #3072
	cmp	r3, r1
	beq	.L974
	.loc 1 2982 7 discriminator 6 view .LVU2637
	add	r1, r1, #1024
	cmp	r3, r1
	beq	.L974
	.loc 1 2982 7 discriminator 8 view .LVU2638
	add	r1, r1, #1024
	cmp	r3, r1
	beq	.L974
.L975:
	.loc 1 2985 5 is_stmt 1 discriminator 5 view .LVU2639
	.loc 1 2989 3 discriminator 5 view .LVU2640
	.loc 1 2989 3 discriminator 5 view .LVU2641
	ldr	r0, [r3, #32]
	movw	r1, #4369
	tst	r0, r1
	bne	.L976
	.loc 1 2989 3 discriminator 1 view .LVU2642
	ldr	r0, [r3, #32]
	movw	r1, #17476
	tst	r0, r1
	bne	.L976
	.loc 1 2989 3 discriminator 3 view .LVU2643
	ldr	r1, [r3]
	bic	r1, r1, #1
	str	r1, [r3]
.L976:
	.loc 1 2989 3 discriminator 5 view .LVU2644
	.loc 1 2992 3 discriminator 5 view .LVU2645
	movs	r3, #1
	strb	r3, [r2, #62]
	.loc 1 2993 3 discriminator 5 view .LVU2646
	.loc 1 2999 1 is_stmt 0 discriminator 5 view .LVU2647
	movs	r0, #0
	.loc 1 2993 3 discriminator 5 view .LVU2648
	strb	r3, [r2, #63]
	.loc 1 2994 3 is_stmt 1 discriminator 5 view .LVU2649
	strb	r3, [r2, #68]
	.loc 1 2995 3 discriminator 5 view .LVU2650
	strb	r3, [r2, #69]
	.loc 1 2998 3 discriminator 5 view .LVU2651
	.loc 1 2999 1 is_stmt 0 discriminator 5 view .LVU2652
	bx	lr
.L974:
	.loc 1 2985 5 is_stmt 1 view .LVU2653
	.loc 1 2985 5 view .LVU2654
	ldr	r0, [r3, #32]
	movw	r1, #4369
	tst	r0, r1
	bne	.L975
	.loc 1 2985 5 discriminator 1 view .LVU2655
	ldr	r0, [r3, #32]
	movw	r1, #17476
	tst	r0, r1
	bne	.L975
	.loc 1 2985 5 discriminator 3 view .LVU2656
	ldr	r1, [r3, #68]
	bic	r1, r1, #32768
	str	r1, [r3, #68]
	b	.L975
.L978:
	.align	2
.L977:
	.word	1073818624
	.word	1073820672
	.cfi_endproc
.LFE179:
	.size	HAL_TIM_OnePulse_Stop_IT, .-HAL_TIM_OnePulse_Stop_IT
	.section	.text.HAL_TIM_Encoder_MspInit,"ax",%progbits
	.align	1
	.p2align 2,,3
	.weak	HAL_TIM_Encoder_MspInit
	.syntax unified
	.thumb
	.thumb_func
	.fpu fpv4-sp-d16
	.type	HAL_TIM_Encoder_MspInit, %function
HAL_TIM_Encoder_MspInit:
.LFB272:
	.cfi_startproc
	@ args = 0, pretend = 0, frame = 0
	@ frame_needed = 0, uses_anonymous_args = 0
	@ link register save eliminated.
	bx	lr
	.cfi_endproc
.LFE272:
	.size	HAL_TIM_Encoder_MspInit, .-HAL_TIM_Encoder_MspInit
	.section	.text.HAL_TIM_Encoder_Init,"ax",%progbits
	.align	1
	.p2align 2,,3
	.global	HAL_TIM_Encoder_Init
	.syntax unified
	.thumb
	.thumb_func
	.fpu fpv4-sp-d16
	.type	HAL_TIM_Encoder_Init, %function
HAL_TIM_Encoder_Init:
.LVL589:
.LFB180:
	.loc 1 3043 1 view -0
	.cfi_startproc
	@ args = 0, pretend = 0, frame = 0
	@ frame_needed = 0, uses_anonymous_args = 0
	.loc 1 3044 3 view .LVU2658
	.loc 1 3045 3 view .LVU2659
	.loc 1 3046 3 view .LVU2660
	.loc 1 3049 3 view .LVU2661
	.loc 1 3049 6 is_stmt 0 view .LVU2662
	cmp	r0, #0
	beq	.L996
	.loc 1 3055 3 is_stmt 1 view .LVU2663
	.loc 1 3056 3 view .LVU2664
	.loc 1 3057 3 view .LVU2665
	.loc 1 3058 3 view .LVU2666
	.loc 1 3059 3 view .LVU2667
	.loc 1 3060 3 view .LVU2668
	.loc 1 3061 3 view .LVU2669
	.loc 1 3062 3 view .LVU2670
	.loc 1 3063 3 view .LVU2671
	.loc 1 3064 3 view .LVU2672
	.loc 1 3065 3 view .LVU2673
	.loc 1 3066 3 view .LVU2674
	.loc 1 3067 3 view .LVU2675
	.loc 1 3068 3 view .LVU2676
	.loc 1 3070 3 view .LVU2677
	.loc 1 3043 1 is_stmt 0 view .LVU2678
	push	{r3, r4, r5, r6, r7, lr}
.LCFI78:
	.cfi_def_cfa_offset 24
	.cfi_offset 3, -24
	.cfi_offset 4, -20
	.cfi_offset 5, -16
	.cfi_offset 6, -12
	.cfi_offset 7, -8
	.cfi_offset 14, -4
	.loc 1 3070 11 view .LVU2679
	ldrb	r3, [r0, #61]	@ zero_extendqisi2
	mov	r5, r1
	mov	r4, r0
	.loc 1 3070 6 view .LVU2680
	and	r2, r3, #255
	cmp	r3, #0
	beq	.L1008
.LVL590:
.L982:
	.loc 1 3092 3 is_stmt 1 view .LVU2681
	.loc 1 3095 7 is_stmt 0 view .LVU2682
	ldr	r3, [r4]
.LBB296:
.LBB297:
	.loc 1 7114 6 view .LVU2683
	ldr	r1, .L1009
.LBE297:
.LBE296:
	.loc 1 3092 15 view .LVU2684
	movs	r2, #2
	strb	r2, [r4, #61]
	.loc 1 3095 3 is_stmt 1 view .LVU2685
	.loc 1 3095 24 is_stmt 0 view .LVU2686
	ldr	r2, [r3, #8]
	bic	r2, r2, #81920
	bic	r2, r2, #7
	str	r2, [r3, #8]
	.loc 1 3098 3 is_stmt 1 view .LVU2687
.LVL591:
.LBB300:
.LBI296:
	.loc 1 7108 6 view .LVU2688
.LBB298:
	.loc 1 7110 3 view .LVU2689
	.loc 1 7111 3 view .LVU2690
	.loc 1 7114 6 is_stmt 0 view .LVU2691
	cmp	r3, r1
	.loc 1 7111 10 view .LVU2692
	ldr	r2, [r3]
.LVL592:
	.loc 1 7114 3 is_stmt 1 view .LVU2693
	.loc 1 7114 6 is_stmt 0 view .LVU2694
	beq	.L987
	.loc 1 7114 7 view .LVU2695
	cmp	r3, #1073741824
	beq	.L984
	sub	r1, r1, #75776
	cmp	r3, r1
	beq	.L984
	add	r1, r1, #1024
	cmp	r3, r1
	beq	.L984
	add	r1, r1, #76800
	cmp	r3, r1
	beq	.L987
	.loc 1 7121 7 view .LVU2696
	add	r1, r1, #3072
	cmp	r3, r1
	beq	.L1006
	add	r1, r1, #1024
	cmp	r3, r1
	beq	.L1006
	add	r1, r1, #1024
	cmp	r3, r1
	bne	.L1007
	b	.L1006
.L984:
	.loc 1 7117 5 is_stmt 1 view .LVU2697
	.loc 1 7118 12 is_stmt 0 view .LVU2698
	ldr	r1, [r4, #8]
	.loc 1 7117 12 view .LVU2699
	bic	r2, r2, #112
.LVL593:
	.loc 1 7118 5 is_stmt 1 view .LVU2700
	.loc 1 7118 12 is_stmt 0 view .LVU2701
	orrs	r2, r2, r1
.LVL594:
	.loc 1 7121 3 is_stmt 1 view .LVU2702
	.loc 1 7124 5 view .LVU2703
	.loc 1 7125 12 is_stmt 0 view .LVU2704
	ldr	r1, [r4, #16]
	.loc 1 7124 12 view .LVU2705
	bic	r2, r2, #768
.LVL595:
	.loc 1 7125 5 is_stmt 1 view .LVU2706
	.loc 1 7129 3 view .LVU2707
	.loc 1 7125 12 is_stmt 0 view .LVU2708
	orrs	r2, r2, r1
.LVL596:
.L1007:
	.loc 1 7129 3 view .LVU2709
	ldr	r1, [r4, #24]
	bic	r2, r2, #128
.LVL597:
	.loc 1 7129 3 view .LVU2710
	orrs	r2, r2, r1
.LVL598:
	.loc 1 7131 3 is_stmt 1 view .LVU2711
	.loc 1 7134 34 is_stmt 0 view .LVU2712
	ldr	r1, [r4, #12]
	.loc 1 7131 13 view .LVU2713
	str	r2, [r3]
	.loc 1 7134 3 is_stmt 1 view .LVU2714
	.loc 1 7134 13 is_stmt 0 view .LVU2715
	str	r1, [r3, #44]
	.loc 1 7137 3 is_stmt 1 view .LVU2716
	.loc 1 7137 24 is_stmt 0 view .LVU2717
	ldr	r2, [r4, #4]
.LVL599:
	.loc 1 7137 13 view .LVU2718
	str	r2, [r3, #40]
	.loc 1 7139 3 is_stmt 1 view .LVU2719
.L993:
	.loc 1 7147 3 view .LVU2720
	.loc 1 7147 13 is_stmt 0 view .LVU2721
	movs	r2, #1
	str	r2, [r3, #20]
	.loc 1 7150 3 is_stmt 1 view .LVU2722
	.loc 1 7150 7 is_stmt 0 view .LVU2723
	ldr	r2, [r3, #16]
	.loc 1 7150 6 view .LVU2724
	lsls	r2, r2, #31
	bpl	.L992
	.loc 1 7153 5 is_stmt 1 view .LVU2725
	ldr	r2, [r3, #16]
	bic	r2, r2, #1
	str	r2, [r3, #16]
.L992:
.LVL600:
	.loc 1 7153 5 is_stmt 0 view .LVU2726
.LBE298:
.LBE300:
	.loc 1 3101 3 is_stmt 1 view .LVU2727
	.loc 1 3101 11 is_stmt 0 view .LVU2728
	ldr	r6, [r3, #8]
.LVL601:
	.loc 1 3104 3 is_stmt 1 view .LVU2729
	.loc 1 3104 12 is_stmt 0 view .LVU2730
	ldr	r2, [r3, #24]
.LVL602:
	.loc 1 3107 3 is_stmt 1 view .LVU2731
	.loc 1 3114 63 is_stmt 0 view .LVU2732
	ldr	r1, [r5, #24]
	.loc 1 3114 38 view .LVU2733
	ldr	r0, [r5, #8]
	.loc 1 3120 12 view .LVU2734
	ldr	r7, [r5, #32]
	.loc 1 3113 12 view .LVU2735
	bic	r2, r2, #768
.LVL603:
	.loc 1 3114 38 view .LVU2736
	orr	r0, r0, r1, lsl #8
	.loc 1 3113 12 view .LVU2737
	bic	r2, r2, #3
	.loc 1 3114 12 view .LVU2738
	orrs	r2, r2, r0
	.loc 1 3118 12 view .LVU2739
	bic	r1, r2, #64512
	.loc 1 3120 35 view .LVU2740
	ldr	r2, [r5, #16]
	.loc 1 3119 62 view .LVU2741
	ldr	r0, [r5, #28]
	.loc 1 3120 35 view .LVU2742
	lsls	r2, r2, #4
	.loc 1 3120 12 view .LVU2743
	orr	r2, r2, r0, lsl #8
	ldr	r0, [r5, #12]
	orrs	r2, r2, r0
	.loc 1 3118 12 view .LVU2744
	bic	r1, r1, #252
	.loc 1 3120 12 view .LVU2745
	orr	r2, r2, r7, lsl #12
	.loc 1 3107 11 view .LVU2746
	ldr	r0, [r3, #32]
.LVL604:
	.loc 1 3110 3 is_stmt 1 view .LVU2747
	.loc 1 3125 35 is_stmt 0 view .LVU2748
	ldr	r7, [r5, #20]
	.loc 1 3120 12 view .LVU2749
	orrs	r2, r2, r1
	.loc 1 3125 35 view .LVU2750
	ldr	r1, [r5, #4]
	.loc 1 3124 11 view .LVU2751
	bic	r0, r0, #170
.LVL605:
	.loc 1 3125 35 view .LVU2752
	orr	r1, r1, r7, lsl #4
	.loc 1 3125 11 view .LVU2753
	orrs	r0, r0, r1
	.loc 1 3110 11 view .LVU2754
	ldr	r1, [r5]
	orrs	r6, r6, r1
.LVL606:
	.loc 1 3113 3 is_stmt 1 view .LVU2755
	.loc 1 3114 3 view .LVU2756
	.loc 1 3117 3 view .LVU2757
	.loc 1 3118 3 view .LVU2758
	.loc 1 3119 3 view .LVU2759
	.loc 1 3120 3 view .LVU2760
	.loc 1 3123 3 view .LVU2761
	.loc 1 3124 3 view .LVU2762
	.loc 1 3125 3 view .LVU2763
	.loc 1 3128 3 view .LVU2764
	.loc 1 3137 23 is_stmt 0 view .LVU2765
	movs	r1, #1
	.loc 1 3128 24 view .LVU2766
	str	r6, [r3, #8]
	.loc 1 3131 3 is_stmt 1 view .LVU2767
	.loc 1 3131 25 is_stmt 0 view .LVU2768
	str	r2, [r3, #24]
	.loc 1 3134 3 is_stmt 1 view .LVU2769
	.loc 1 3134 24 is_stmt 0 view .LVU2770
	str	r0, [r3, #32]
	.loc 1 3137 3 is_stmt 1 view .LVU2771
	.loc 1 3137 23 is_stmt 0 view .LVU2772
	strb	r1, [r4, #72]
	.loc 1 3140 3 is_stmt 1 view .LVU2773
	strb	r1, [r4, #62]
	.loc 1 3141 3 view .LVU2774
	strb	r1, [r4, #63]
	.loc 1 3142 3 view .LVU2775
	strb	r1, [r4, #68]
	.loc 1 3143 3 view .LVU2776
	strb	r1, [r4, #69]
	.loc 1 3146 3 view .LVU2777
	.loc 1 3146 15 is_stmt 0 view .LVU2778
	strb	r1, [r4, #61]
	.loc 1 3148 3 is_stmt 1 view .LVU2779
	.loc 1 3148 10 is_stmt 0 view .LVU2780
	movs	r0, #0
.LVL607:
	.loc 1 3149 1 view .LVU2781
	pop	{r3, r4, r5, r6, r7, pc}
.LVL608:
.L987:
.LBB301:
.LBB299:
	.loc 1 7117 5 is_stmt 1 view .LVU2782
	.loc 1 7118 12 is_stmt 0 view .LVU2783
	ldr	r1, [r4, #8]
	.loc 1 7117 12 view .LVU2784
	bic	r2, r2, #112
.LVL609:
	.loc 1 7118 5 is_stmt 1 view .LVU2785
	.loc 1 7118 12 is_stmt 0 view .LVU2786
	orrs	r2, r2, r1
.LVL610:
.L1006:
	.loc 1 7121 3 is_stmt 1 view .LVU2787
	.loc 1 7124 5 view .LVU2788
	.loc 1 7125 12 is_stmt 0 view .LVU2789
	ldr	r1, [r4, #16]
	.loc 1 7124 12 view .LVU2790
	bic	r2, r2, #768
.LVL611:
	.loc 1 7125 5 is_stmt 1 view .LVU2791
	.loc 1 7129 3 view .LVU2792
	.loc 1 7125 12 is_stmt 0 view .LVU2793
	orrs	r2, r2, r1
.LVL612:
	.loc 1 7129 3 view .LVU2794
	ldr	r1, [r4, #24]
	bic	r2, r2, #128
.LVL613:
	.loc 1 7129 3 view .LVU2795
	orrs	r2, r2, r1
.LVL614:
	.loc 1 7131 3 is_stmt 1 view .LVU2796
	.loc 1 7131 13 is_stmt 0 view .LVU2797
	str	r2, [r3]
	.loc 1 7134 3 is_stmt 1 view .LVU2798
	.loc 1 7134 34 is_stmt 0 view .LVU2799
	ldr	r2, [r4, #12]
.LVL615:
	.loc 1 7134 13 view .LVU2800
	str	r2, [r3, #44]
.LVL616:
	.loc 1 7137 3 is_stmt 1 view .LVU2801
	.loc 1 7137 24 is_stmt 0 view .LVU2802
	ldr	r2, [r4, #4]
	.loc 1 7137 13 view .LVU2803
	str	r2, [r3, #40]
	.loc 1 7139 3 is_stmt 1 view .LVU2804
	.loc 1 7142 5 view .LVU2805
	.loc 1 7142 26 is_stmt 0 view .LVU2806
	ldr	r2, [r4, #20]
	.loc 1 7142 15 view .LVU2807
	str	r2, [r3, #48]
	b	.L993
.LVL617:
.L1008:
	.loc 1 7142 15 view .LVU2808
.LBE299:
.LBE301:
	.loc 1 3073 5 is_stmt 1 view .LVU2809
	.loc 1 3073 16 is_stmt 0 view .LVU2810
	strb	r2, [r0, #60]
	.loc 1 3087 5 is_stmt 1 view .LVU2811
	bl	HAL_TIM_Encoder_MspInit
.LVL618:
	.loc 1 3087 5 is_stmt 0 view .LVU2812
	b	.L982
.LVL619:
.L996:
.LCFI79:
	.cfi_def_cfa_offset 0
	.cfi_restore 3
	.cfi_restore 4
	.cfi_restore 5
	.cfi_restore 6
	.cfi_restore 7
	.cfi_restore 14
	.loc 1 3051 12 view .LVU2813
	movs	r0, #1
.LVL620:
	.loc 1 3149 1 view .LVU2814
	bx	lr
.L1010:
	.align	2
.L1009:
	.word	1073818624
	.cfi_endproc
.LFE180:
	.size	HAL_TIM_Encoder_Init, .-HAL_TIM_Encoder_Init
	.section	.text.HAL_TIM_Encoder_MspDeInit,"ax",%progbits
	.align	1
	.p2align 2,,3
	.weak	HAL_TIM_Encoder_MspDeInit
	.syntax unified
	.thumb
	.thumb_func
	.fpu fpv4-sp-d16
	.type	HAL_TIM_Encoder_MspDeInit, %function
HAL_TIM_Encoder_MspDeInit:
.LFB274:
	.cfi_startproc
	@ args = 0, pretend = 0, frame = 0
	@ frame_needed = 0, uses_anonymous_args = 0
	@ link register save eliminated.
	bx	lr
	.cfi_endproc
.LFE274:
	.size	HAL_TIM_Encoder_MspDeInit, .-HAL_TIM_Encoder_MspDeInit
	.section	.text.HAL_TIM_Encoder_DeInit,"ax",%progbits
	.align	1
	.p2align 2,,3
	.global	HAL_TIM_Encoder_DeInit
	.syntax unified
	.thumb
	.thumb_func
	.fpu fpv4-sp-d16
	.type	HAL_TIM_Encoder_DeInit, %function
HAL_TIM_Encoder_DeInit:
.LVL621:
.LFB181:
	.loc 1 3158 1 is_stmt 1 view -0
	.cfi_startproc
	@ args = 0, pretend = 0, frame = 0
	@ frame_needed = 0, uses_anonymous_args = 0
	.loc 1 3160 3 view .LVU2816
	.loc 1 3162 3 view .LVU2817
	.loc 1 3162 15 is_stmt 0 view .LVU2818
	movs	r2, #2
	.loc 1 3165 3 view .LVU2819
	ldr	r3, [r0]
	.loc 1 3158 1 view .LVU2820
	push	{r4, lr}
.LCFI80:
	.cfi_def_cfa_offset 8
	.cfi_offset 4, -8
	.cfi_offset 14, -4
	.loc 1 3162 15 view .LVU2821
	strb	r2, [r0, #61]
	.loc 1 3165 3 is_stmt 1 view .LVU2822
	.loc 1 3165 3 view .LVU2823
	ldr	r1, [r3, #32]
	movw	r2, #4369
	tst	r1, r2
	.loc 1 3158 1 is_stmt 0 view .LVU2824
	mov	r4, r0
	.loc 1 3165 3 view .LVU2825
	bne	.L1013
	.loc 1 3165 3 is_stmt 1 discriminator 1 view .LVU2826
	ldr	r1, [r3, #32]
	movw	r2, #17476
	tst	r1, r2
	bne	.L1013
	.loc 1 3165 3 discriminator 3 view .LVU2827
	ldr	r2, [r3]
	bic	r2, r2, #1
	str	r2, [r3]
.L1013:
	.loc 1 3165 3 discriminator 5 view .LVU2828
	.loc 1 3176 3 discriminator 5 view .LVU2829
	mov	r0, r4
.LVL622:
	.loc 1 3176 3 is_stmt 0 discriminator 5 view .LVU2830
	bl	HAL_TIM_Encoder_MspDeInit
.LVL623:
	.loc 1 3180 3 is_stmt 1 discriminator 5 view .LVU2831
	.loc 1 3180 23 is_stmt 0 discriminator 5 view .LVU2832
	movs	r0, #0
	strb	r0, [r4, #72]
	.loc 1 3183 3 is_stmt 1 discriminator 5 view .LVU2833
	.loc 1 3192 3 is_stmt 0 discriminator 5 view .LVU2834
	strb	r0, [r4, #60]
	.loc 1 3183 3 discriminator 5 view .LVU2835
	strb	r0, [r4, #62]
	.loc 1 3184 3 is_stmt 1 discriminator 5 view .LVU2836
	strb	r0, [r4, #63]
	.loc 1 3185 3 discriminator 5 view .LVU2837
	strb	r0, [r4, #68]
	.loc 1 3186 3 discriminator 5 view .LVU2838
	strb	r0, [r4, #69]
	.loc 1 3189 3 discriminator 5 view .LVU2839
	.loc 1 3189 15 is_stmt 0 discriminator 5 view .LVU2840
	strb	r0, [r4, #61]
	.loc 1 3192 3 is_stmt 1 discriminator 5 view .LVU2841
	.loc 1 3192 3 discriminator 5 view .LVU2842
	.loc 1 3192 3 discriminator 5 view .LVU2843
	.loc 1 3194 3 discriminator 5 view .LVU2844
	.loc 1 3195 1 is_stmt 0 discriminator 5 view .LVU2845
	pop	{r4, pc}
	.loc 1 3195 1 discriminator 5 view .LVU2846
	.cfi_endproc
.LFE181:
	.size	HAL_TIM_Encoder_DeInit, .-HAL_TIM_Encoder_DeInit
	.section	.text.HAL_TIM_Encoder_Start,"ax",%progbits
	.align	1
	.p2align 2,,3
	.global	HAL_TIM_Encoder_Start
	.syntax unified
	.thumb
	.thumb_func
	.fpu fpv4-sp-d16
	.type	HAL_TIM_Encoder_Start, %function
HAL_TIM_Encoder_Start:
.LVL624:
.LFB184:
	.loc 1 3238 1 is_stmt 1 view -0
	.cfi_startproc
	@ args = 0, pretend = 0, frame = 0
	@ frame_needed = 0, uses_anonymous_args = 0
	.loc 1 3239 3 view .LVU2848
	.loc 1 3238 1 is_stmt 0 view .LVU2849
	push	{lr}
.LCFI81:
	.cfi_def_cfa_offset 4
	.cfi_offset 14, -4
	.loc 1 3239 31 view .LVU2850
	ldrb	r3, [r0, #62]	@ zero_extendqisi2
	.loc 1 3240 31 view .LVU2851
	ldrb	r2, [r0, #63]	@ zero_extendqisi2
	.loc 1 3241 31 view .LVU2852
	ldrb	ip, [r0, #68]	@ zero_extendqisi2
	.loc 1 3242 31 view .LVU2853
	ldrb	lr, [r0, #69]	@ zero_extendqisi2
	.loc 1 3239 31 view .LVU2854
	uxtb	r3, r3
.LVL625:
	.loc 1 3240 3 is_stmt 1 view .LVU2855
	.loc 1 3241 3 view .LVU2856
	.loc 1 3241 31 is_stmt 0 view .LVU2857
	uxtb	ip, ip
.LVL626:
	.loc 1 3242 3 is_stmt 1 view .LVU2858
	.loc 1 3245 3 view .LVU2859
	.loc 1 3248 3 view .LVU2860
	.loc 1 3248 6 is_stmt 0 view .LVU2861
	cbnz	r1, .L1016
	.loc 1 3250 5 is_stmt 1 view .LVU2862
	.loc 1 3250 8 is_stmt 0 view .LVU2863
	cmp	r3, #1
	beq	.L1028
.LVL627:
.L1023:
	.loc 1 3253 14 view .LVU2864
	movs	r3, #1
.LVL628:
.L1017:
	.loc 1 3319 1 view .LVU2865
	mov	r0, r3
.LVL629:
	.loc 1 3319 1 view .LVU2866
	ldr	pc, [sp], #4
.LVL630:
.L1028:
	.loc 1 3251 9 view .LVU2867
	cmp	ip, #1
	bne	.L1017
	.loc 1 3257 7 is_stmt 1 view .LVU2868
	.loc 1 3297 7 is_stmt 0 view .LVU2869
	ldr	r2, [r0]
.LVL631:
	.loc 1 3257 7 view .LVU2870
	movs	r3, #2
.LVL632:
	.loc 1 3257 7 view .LVU2871
	strb	r3, [r0, #62]
	.loc 1 3258 7 is_stmt 1 view .LVU2872
	strb	r3, [r0, #68]
	.loc 1 3293 3 view .LVU2873
	.loc 1 3297 7 view .LVU2874
.LVL633:
.LBB302:
.LBI302:
	.loc 1 8063 6 view .LVU2875
.LBB303:
	.loc 1 8065 3 view .LVU2876
	.loc 1 8068 3 view .LVU2877
	.loc 1 8069 3 view .LVU2878
	.loc 1 8071 3 view .LVU2879
	.loc 1 8074 3 view .LVU2880
	.loc 1 8074 14 is_stmt 0 view .LVU2881
	ldr	r3, [r2, #32]
	bic	r3, r3, #1
	str	r3, [r2, #32]
	.loc 1 8077 3 is_stmt 1 view .LVU2882
	.loc 1 8077 14 is_stmt 0 view .LVU2883
	ldr	r3, [r2, #32]
	orr	r3, r3, #1
	str	r3, [r2, #32]
.LVL634:
.L1018:
	.loc 1 8077 14 view .LVU2884
.LBE303:
.LBE302:
	.loc 1 3315 3 is_stmt 1 view .LVU2885
	ldr	r1, [r2]
.LVL635:
	.loc 1 3318 10 is_stmt 0 view .LVU2886
	movs	r3, #0
	.loc 1 3315 3 view .LVU2887
	orr	r1, r1, #1
	str	r1, [r2]
	.loc 1 3318 3 is_stmt 1 view .LVU2888
	.loc 1 3319 1 is_stmt 0 view .LVU2889
	mov	r0, r3
.LVL636:
	.loc 1 3319 1 view .LVU2890
	ldr	pc, [sp], #4
.LVL637:
.L1016:
	.loc 1 3261 11 view .LVU2891
	cmp	r1, #4
	uxtb	r2, r2
	.loc 1 3261 11 view .LVU2892
	uxtb	lr, lr
	.loc 1 3261 8 is_stmt 1 view .LVU2893
	.loc 1 3261 11 is_stmt 0 view .LVU2894
	beq	.L1029
	.loc 1 3276 5 is_stmt 1 view .LVU2895
	.loc 1 3276 8 is_stmt 0 view .LVU2896
	cmp	r3, #1
	bne	.L1023
	.loc 1 3277 9 view .LVU2897
	cmp	r2, #1
	bne	.L1017
	.loc 1 3278 9 view .LVU2898
	cmp	ip, #1
	bne	.L1017
	.loc 1 3279 9 view .LVU2899
	cmp	lr, #1
	bne	.L1017
	.loc 1 3285 7 is_stmt 1 view .LVU2900
	movs	r3, #2
.LVL638:
	.loc 1 3309 7 is_stmt 0 view .LVU2901
	ldr	r2, [r0]
.LVL639:
	.loc 1 3285 7 view .LVU2902
	strb	r3, [r0, #62]
	.loc 1 3286 7 is_stmt 1 view .LVU2903
	strb	r3, [r0, #63]
	.loc 1 3287 7 view .LVU2904
	strb	r3, [r0, #68]
	.loc 1 3288 7 view .LVU2905
	strb	r3, [r0, #69]
	.loc 1 3293 3 view .LVU2906
	.loc 1 3309 7 view .LVU2907
.LVL640:
.LBB304:
.LBI304:
	.loc 1 8063 6 view .LVU2908
.LBB305:
	.loc 1 8065 3 view .LVU2909
	.loc 1 8068 3 view .LVU2910
	.loc 1 8069 3 view .LVU2911
	.loc 1 8071 3 view .LVU2912
	.loc 1 8074 3 view .LVU2913
	.loc 1 8074 14 is_stmt 0 view .LVU2914
	ldr	r3, [r2, #32]
	bic	r3, r3, #1
	str	r3, [r2, #32]
	.loc 1 8077 3 is_stmt 1 view .LVU2915
	.loc 1 8077 14 is_stmt 0 view .LVU2916
	ldr	r3, [r2, #32]
	orr	r3, r3, #1
	str	r3, [r2, #32]
	b	.L1027
.LVL641:
.L1029:
	.loc 1 8077 14 view .LVU2917
.LBE305:
.LBE304:
	.loc 1 3263 5 is_stmt 1 view .LVU2918
	.loc 1 3263 8 is_stmt 0 view .LVU2919
	cmp	r2, #1
	bne	.L1023
	.loc 1 3264 9 view .LVU2920
	cmp	lr, #1
	bne	.L1023
	.loc 1 3270 7 is_stmt 1 view .LVU2921
	movs	r3, #2
.LVL642:
	.loc 1 3303 7 is_stmt 0 view .LVU2922
	ldr	r2, [r0]
.LVL643:
	.loc 1 3270 7 view .LVU2923
	strb	r3, [r0, #63]
	.loc 1 3271 7 is_stmt 1 view .LVU2924
	strb	r3, [r0, #69]
	.loc 1 3293 3 view .LVU2925
	.loc 1 3303 7 view .LVU2926
.LVL644:
.LBB306:
.LBI306:
	.loc 1 8063 6 view .LVU2927
.LBB307:
	.loc 1 8065 3 view .LVU2928
	.loc 1 8068 3 view .LVU2929
	.loc 1 8069 3 view .LVU2930
	.loc 1 8071 3 view .LVU2931
	.loc 1 8074 3 view .LVU2932
.L1027:
	.loc 1 8074 3 is_stmt 0 view .LVU2933
.LBE307:
.LBE306:
	.loc 1 3310 7 is_stmt 1 view .LVU2934
.LBB308:
.LBI308:
	.loc 1 8063 6 view .LVU2935
.LBB309:
	.loc 1 8065 3 view .LVU2936
	.loc 1 8068 3 view .LVU2937
	.loc 1 8069 3 view .LVU2938
	.loc 1 8071 3 view .LVU2939
	.loc 1 8074 3 view .LVU2940
	.loc 1 8074 14 is_stmt 0 view .LVU2941
	ldr	r3, [r2, #32]
	bic	r3, r3, #16
	str	r3, [r2, #32]
	.loc 1 8077 3 is_stmt 1 view .LVU2942
	.loc 1 8077 14 is_stmt 0 view .LVU2943
	ldr	r3, [r2, #32]
	orr	r3, r3, #16
	str	r3, [r2, #32]
	.loc 1 8078 1 view .LVU2944
	b	.L1018
.LBE309:
.LBE308:
	.cfi_endproc
.LFE184:
	.size	HAL_TIM_Encoder_Start, .-HAL_TIM_Encoder_Start
	.section	.text.HAL_TIM_Encoder_Stop,"ax",%progbits
	.align	1
	.p2align 2,,3
	.global	HAL_TIM_Encoder_Stop
	.syntax unified
	.thumb
	.thumb_func
	.fpu fpv4-sp-d16
	.type	HAL_TIM_Encoder_Stop, %function
HAL_TIM_Encoder_Stop:
.LVL645:
.LFB185:
	.loc 1 3332 1 is_stmt 1 view -0
	.cfi_startproc
	@ args = 0, pretend = 0, frame = 0
	@ frame_needed = 0, uses_anonymous_args = 0
	@ link register save eliminated.
	.loc 1 3334 3 view .LVU2946
	.loc 1 3338 3 view .LVU2947
	.loc 1 3332 1 is_stmt 0 view .LVU2948
	push	{r4}
.LCFI82:
	.cfi_def_cfa_offset 4
	.cfi_offset 4, -4
	.loc 1 3338 3 view .LVU2949
	cmp	r1, #0
	beq	.L1031
	cmp	r1, #4
	beq	.L1032
	.loc 1 3354 7 is_stmt 1 view .LVU2950
	ldr	r3, [r0]
.LVL646:
.LBB310:
.LBI310:
	.loc 1 8063 6 view .LVU2951
.LBB311:
	.loc 1 8065 3 view .LVU2952
	.loc 1 8068 3 view .LVU2953
	.loc 1 8069 3 view .LVU2954
	.loc 1 8071 3 view .LVU2955
	.loc 1 8074 3 view .LVU2956
	.loc 1 8074 14 is_stmt 0 view .LVU2957
	ldr	r2, [r3, #32]
	bic	r2, r2, #1
	str	r2, [r3, #32]
	.loc 1 8077 3 is_stmt 1 view .LVU2958
	.loc 1 8077 14 is_stmt 0 view .LVU2959
	ldr	r2, [r3, #32]
	str	r2, [r3, #32]
.LVL647:
.L1051:
	.loc 1 8077 14 view .LVU2960
.LBE311:
.LBE310:
	.loc 1 3355 7 is_stmt 1 view .LVU2961
.LBB312:
.LBI312:
	.loc 1 8063 6 view .LVU2962
.LBB313:
	.loc 1 8065 3 view .LVU2963
	.loc 1 8068 3 view .LVU2964
	.loc 1 8069 3 view .LVU2965
	.loc 1 8071 3 view .LVU2966
	.loc 1 8074 3 view .LVU2967
	.loc 1 8074 14 is_stmt 0 view .LVU2968
	ldr	r2, [r3, #32]
	bic	r2, r2, #16
	str	r2, [r3, #32]
	.loc 1 8077 3 is_stmt 1 view .LVU2969
.LVL648:
	.loc 1 8077 3 is_stmt 0 view .LVU2970
.LBE313:
.LBE312:
	.loc 1 3361 3 is_stmt 1 view .LVU2971
	.loc 1 3361 3 view .LVU2972
.LBB315:
.LBB314:
	.loc 1 8077 14 is_stmt 0 view .LVU2973
	ldr	r2, [r3, #32]
	str	r2, [r3, #32]
.LBE314:
.LBE315:
	.loc 1 3361 3 view .LVU2974
	ldr	r4, [r3, #32]
	movw	r2, #4369
	tst	r4, r2
	bne	.L1037
	.loc 1 3361 3 is_stmt 1 discriminator 1 view .LVU2975
	ldr	r4, [r3, #32]
	movw	r2, #17476
	tst	r4, r2
	bne	.L1038
.L1054:
	.loc 1 3361 3 discriminator 3 view .LVU2976
	ldr	r2, [r3]
	bic	r2, r2, #1
	str	r2, [r3]
.L1038:
	.loc 1 3361 3 discriminator 5 view .LVU2977
	.loc 1 3364 3 discriminator 5 view .LVU2978
	.loc 1 3364 6 is_stmt 0 discriminator 5 view .LVU2979
	cbnz	r1, .L1037
.L1035:
	.loc 1 3366 5 is_stmt 1 view .LVU2980
	movs	r3, #1
	strb	r3, [r0, #62]
	.loc 1 3367 5 view .LVU2981
	strb	r3, [r0, #68]
	.loc 1 3378 3 view .LVU2982
	.loc 1 3379 1 is_stmt 0 view .LVU2983
	ldr	r4, [sp], #4
.LCFI83:
	.cfi_remember_state
	.cfi_restore 4
	.cfi_def_cfa_offset 0
	movs	r0, #0
.LVL649:
	.loc 1 3379 1 view .LVU2984
	bx	lr
.LVL650:
.L1037:
.LCFI84:
	.cfi_restore_state
	.loc 1 3364 34 discriminator 1 view .LVU2985
	cmp	r1, #4
	beq	.L1053
	.loc 1 3371 5 is_stmt 1 view .LVU2986
	movs	r3, #1
	strb	r3, [r0, #62]
	.loc 1 3372 5 view .LVU2987
	strb	r3, [r0, #63]
	.loc 1 3373 5 view .LVU2988
	strb	r3, [r0, #68]
	.loc 1 3374 5 view .LVU2989
	strb	r3, [r0, #69]
	.loc 1 3378 3 view .LVU2990
	.loc 1 3379 1 is_stmt 0 view .LVU2991
	ldr	r4, [sp], #4
.LCFI85:
	.cfi_remember_state
	.cfi_restore 4
	.cfi_def_cfa_offset 0
	movs	r0, #0
.LVL651:
	.loc 1 3379 1 view .LVU2992
	bx	lr
.LVL652:
.L1053:
.LCFI86:
	.cfi_restore_state
	.loc 1 3366 5 is_stmt 1 discriminator 3 view .LVU2993
	movs	r3, #1
	strb	r3, [r0, #63]
	.loc 1 3367 5 discriminator 3 view .LVU2994
	strb	r3, [r0, #69]
	.loc 1 3378 3 discriminator 3 view .LVU2995
	.loc 1 3379 1 is_stmt 0 discriminator 3 view .LVU2996
	ldr	r4, [sp], #4
.LCFI87:
	.cfi_remember_state
	.cfi_restore 4
	.cfi_def_cfa_offset 0
	movs	r0, #0
.LVL653:
	.loc 1 3379 1 discriminator 3 view .LVU2997
	bx	lr
.LVL654:
.L1032:
.LCFI88:
	.cfi_restore_state
	.loc 1 3348 7 is_stmt 1 view .LVU2998
	ldr	r3, [r0]
.LVL655:
.LBB316:
.LBI316:
	.loc 1 8063 6 view .LVU2999
.LBB317:
	.loc 1 8065 3 view .LVU3000
	.loc 1 8068 3 view .LVU3001
	.loc 1 8069 3 view .LVU3002
	.loc 1 8071 3 view .LVU3003
	.loc 1 8074 3 view .LVU3004
	b	.L1051
.LVL656:
.L1031:
	.loc 1 8074 3 is_stmt 0 view .LVU3005
.LBE317:
.LBE316:
	.loc 1 3342 7 is_stmt 1 view .LVU3006
	ldr	r3, [r0]
.LVL657:
.LBB318:
.LBI318:
	.loc 1 8063 6 view .LVU3007
.LBB319:
	.loc 1 8065 3 view .LVU3008
	.loc 1 8068 3 view .LVU3009
	.loc 1 8069 3 view .LVU3010
	.loc 1 8071 3 view .LVU3011
	.loc 1 8074 3 view .LVU3012
	.loc 1 8074 14 is_stmt 0 view .LVU3013
	ldr	r2, [r3, #32]
	bic	r2, r2, #1
	str	r2, [r3, #32]
	.loc 1 8077 3 is_stmt 1 view .LVU3014
	.loc 1 8077 14 is_stmt 0 view .LVU3015
	ldr	r2, [r3, #32]
	str	r2, [r3, #32]
.LVL658:
	.loc 1 8077 14 view .LVU3016
.LBE319:
.LBE318:
	.loc 1 3361 3 is_stmt 1 view .LVU3017
	.loc 1 3361 3 view .LVU3018
	ldr	r2, [r3, #32]
	movw	r4, #4369
	tst	r2, r4
	bne	.L1035
	.loc 1 3361 3 view .LVU3019
	ldr	r4, [r3, #32]
	movw	r2, #17476
	tst	r4, r2
	bne	.L1038
	b	.L1054
	.cfi_endproc
.LFE185:
	.size	HAL_TIM_Encoder_Stop, .-HAL_TIM_Encoder_Stop
	.section	.text.HAL_TIM_Encoder_Start_IT,"ax",%progbits
	.align	1
	.p2align 2,,3
	.global	HAL_TIM_Encoder_Start_IT
	.syntax unified
	.thumb
	.thumb_func
	.fpu fpv4-sp-d16
	.type	HAL_TIM_Encoder_Start_IT, %function
HAL_TIM_Encoder_Start_IT:
.LVL659:
.LFB186:
	.loc 1 3392 1 view -0
	.cfi_startproc
	@ args = 0, pretend = 0, frame = 0
	@ frame_needed = 0, uses_anonymous_args = 0
	.loc 1 3393 3 view .LVU3021
	.loc 1 3392 1 is_stmt 0 view .LVU3022
	push	{lr}
.LCFI89:
	.cfi_def_cfa_offset 4
	.cfi_offset 14, -4
	.loc 1 3393 31 view .LVU3023
	ldrb	r3, [r0, #62]	@ zero_extendqisi2
	.loc 1 3394 31 view .LVU3024
	ldrb	r2, [r0, #63]	@ zero_extendqisi2
	.loc 1 3395 31 view .LVU3025
	ldrb	ip, [r0, #68]	@ zero_extendqisi2
	.loc 1 3396 31 view .LVU3026
	ldrb	lr, [r0, #69]	@ zero_extendqisi2
	.loc 1 3393 31 view .LVU3027
	uxtb	r3, r3
.LVL660:
	.loc 1 3394 3 is_stmt 1 view .LVU3028
	.loc 1 3395 3 view .LVU3029
	.loc 1 3395 31 is_stmt 0 view .LVU3030
	uxtb	ip, ip
.LVL661:
	.loc 1 3396 3 is_stmt 1 view .LVU3031
	.loc 1 3399 3 view .LVU3032
	.loc 1 3402 3 view .LVU3033
	.loc 1 3402 6 is_stmt 0 view .LVU3034
	cbnz	r1, .L1056
	.loc 1 3404 5 is_stmt 1 view .LVU3035
	.loc 1 3404 8 is_stmt 0 view .LVU3036
	cmp	r3, #1
	beq	.L1067
.LVL662:
.L1063:
	.loc 1 3407 14 view .LVU3037
	movs	r3, #1
.LVL663:
.L1057:
	.loc 1 3479 1 view .LVU3038
	mov	r0, r3
.LVL664:
	.loc 1 3479 1 view .LVU3039
	ldr	pc, [sp], #4
.LVL665:
.L1067:
	.loc 1 3405 9 view .LVU3040
	cmp	ip, #1
	bne	.L1057
	.loc 1 3411 7 is_stmt 1 view .LVU3041
	.loc 1 3452 7 is_stmt 0 view .LVU3042
	ldr	r2, [r0]
.LVL666:
	.loc 1 3411 7 view .LVU3043
	movs	r3, #2
.LVL667:
	.loc 1 3411 7 view .LVU3044
	strb	r3, [r0, #62]
	.loc 1 3412 7 is_stmt 1 view .LVU3045
	strb	r3, [r0, #68]
	.loc 1 3448 3 view .LVU3046
	.loc 1 3452 7 view .LVU3047
.LVL668:
.LBB320:
.LBI320:
	.loc 1 8063 6 view .LVU3048
.LBB321:
	.loc 1 8065 3 view .LVU3049
	.loc 1 8068 3 view .LVU3050
	.loc 1 8069 3 view .LVU3051
	.loc 1 8071 3 view .LVU3052
	.loc 1 8074 3 view .LVU3053
	.loc 1 8074 14 is_stmt 0 view .LVU3054
	ldr	r3, [r2, #32]
	bic	r3, r3, #1
	str	r3, [r2, #32]
	.loc 1 8077 3 is_stmt 1 view .LVU3055
	.loc 1 8077 14 is_stmt 0 view .LVU3056
	ldr	r3, [r2, #32]
	orr	r3, r3, #1
	str	r3, [r2, #32]
.LVL669:
	.loc 1 8077 14 view .LVU3057
.LBE321:
.LBE320:
	.loc 1 3453 7 is_stmt 1 view .LVU3058
	ldr	r3, [r2, #12]
	orr	r3, r3, #2
	str	r3, [r2, #12]
	.loc 1 3454 7 view .LVU3059
.LVL670:
.L1058:
	.loc 1 3475 3 view .LVU3060
	ldr	r1, [r2]
.LVL671:
	.loc 1 3478 10 is_stmt 0 view .LVU3061
	movs	r3, #0
	.loc 1 3475 3 view .LVU3062
	orr	r1, r1, #1
	str	r1, [r2]
	.loc 1 3478 3 is_stmt 1 view .LVU3063
	.loc 1 3479 1 is_stmt 0 view .LVU3064
	mov	r0, r3
.LVL672:
	.loc 1 3479 1 view .LVU3065
	ldr	pc, [sp], #4
.LVL673:
.L1056:
	.loc 1 3415 11 view .LVU3066
	cmp	r1, #4
	uxtb	r2, r2
	.loc 1 3415 11 view .LVU3067
	uxtb	lr, lr
	.loc 1 3415 8 is_stmt 1 view .LVU3068
	.loc 1 3415 11 is_stmt 0 view .LVU3069
	beq	.L1068
	.loc 1 3430 5 is_stmt 1 view .LVU3070
	.loc 1 3430 8 is_stmt 0 view .LVU3071
	cmp	r3, #1
	bne	.L1063
	.loc 1 3431 9 view .LVU3072
	cmp	r2, #1
	bne	.L1057
	.loc 1 3432 9 view .LVU3073
	cmp	ip, #1
	bne	.L1057
	.loc 1 3433 9 view .LVU3074
	cmp	lr, #1
	bne	.L1057
	.loc 1 3439 7 is_stmt 1 view .LVU3075
	.loc 1 3466 7 is_stmt 0 view .LVU3076
	ldr	r2, [r0]
.LVL674:
	.loc 1 3439 7 view .LVU3077
	movs	r3, #2
.LVL675:
	.loc 1 3439 7 view .LVU3078
	strb	r3, [r0, #62]
	.loc 1 3440 7 is_stmt 1 view .LVU3079
	strb	r3, [r0, #63]
	.loc 1 3441 7 view .LVU3080
	strb	r3, [r0, #68]
	.loc 1 3442 7 view .LVU3081
	strb	r3, [r0, #69]
	.loc 1 3448 3 view .LVU3082
	.loc 1 3466 7 view .LVU3083
.LVL676:
.LBB322:
.LBI322:
	.loc 1 8063 6 view .LVU3084
.LBB323:
	.loc 1 8065 3 view .LVU3085
	.loc 1 8068 3 view .LVU3086
	.loc 1 8069 3 view .LVU3087
	.loc 1 8071 3 view .LVU3088
	.loc 1 8074 3 view .LVU3089
	.loc 1 8074 14 is_stmt 0 view .LVU3090
	ldr	r3, [r2, #32]
	bic	r3, r3, #1
	str	r3, [r2, #32]
	.loc 1 8077 3 is_stmt 1 view .LVU3091
	.loc 1 8077 14 is_stmt 0 view .LVU3092
	ldr	r3, [r2, #32]
	orr	r3, r3, #1
	str	r3, [r2, #32]
.LVL677:
	.loc 1 8077 14 view .LVU3093
.LBE323:
.LBE322:
	.loc 1 3467 7 is_stmt 1 view .LVU3094
.LBB324:
.LBI324:
	.loc 1 8063 6 view .LVU3095
.LBB325:
	.loc 1 8065 3 view .LVU3096
	.loc 1 8068 3 view .LVU3097
	.loc 1 8069 3 view .LVU3098
	.loc 1 8071 3 view .LVU3099
	.loc 1 8074 3 view .LVU3100
	.loc 1 8074 14 is_stmt 0 view .LVU3101
	ldr	r3, [r2, #32]
	bic	r3, r3, #16
	str	r3, [r2, #32]
	.loc 1 8077 3 is_stmt 1 view .LVU3102
	.loc 1 8077 14 is_stmt 0 view .LVU3103
	ldr	r3, [r2, #32]
	orr	r3, r3, #16
	str	r3, [r2, #32]
.LVL678:
	.loc 1 8077 14 view .LVU3104
.LBE325:
.LBE324:
	.loc 1 3468 7 is_stmt 1 view .LVU3105
	ldr	r3, [r2, #12]
	orr	r3, r3, #2
	str	r3, [r2, #12]
	.loc 1 3469 7 view .LVU3106
	ldr	r3, [r2, #12]
	orr	r3, r3, #4
	str	r3, [r2, #12]
	.loc 1 3470 7 view .LVU3107
	b	.L1058
.LVL679:
.L1068:
	.loc 1 3417 5 view .LVU3108
	.loc 1 3417 8 is_stmt 0 view .LVU3109
	cmp	r2, #1
	bne	.L1063
	.loc 1 3418 9 view .LVU3110
	cmp	lr, #1
	bne	.L1063
	.loc 1 3424 7 is_stmt 1 view .LVU3111
	.loc 1 3459 7 is_stmt 0 view .LVU3112
	ldr	r2, [r0]
.LVL680:
	.loc 1 3424 7 view .LVU3113
	movs	r3, #2
.LVL681:
	.loc 1 3424 7 view .LVU3114
	strb	r3, [r0, #63]
	.loc 1 3425 7 is_stmt 1 view .LVU3115
	strb	r3, [r0, #69]
	.loc 1 3448 3 view .LVU3116
	.loc 1 3459 7 view .LVU3117
.LVL682:
.LBB326:
.LBI326:
	.loc 1 8063 6 view .LVU3118
.LBB327:
	.loc 1 8065 3 view .LVU3119
	.loc 1 8068 3 view .LVU3120
	.loc 1 8069 3 view .LVU3121
	.loc 1 8071 3 view .LVU3122
	.loc 1 8074 3 view .LVU3123
	.loc 1 8074 14 is_stmt 0 view .LVU3124
	ldr	r3, [r2, #32]
	bic	r3, r3, #16
	str	r3, [r2, #32]
	.loc 1 8077 3 is_stmt 1 view .LVU3125
	.loc 1 8077 14 is_stmt 0 view .LVU3126
	ldr	r3, [r2, #32]
	orr	r3, r3, #16
	str	r3, [r2, #32]
.LVL683:
	.loc 1 8077 14 view .LVU3127
.LBE327:
.LBE326:
	.loc 1 3460 7 is_stmt 1 view .LVU3128
	ldr	r3, [r2, #12]
	orr	r3, r3, #4
	str	r3, [r2, #12]
	.loc 1 3461 7 view .LVU3129
	b	.L1058
	.cfi_endproc
.LFE186:
	.size	HAL_TIM_Encoder_Start_IT, .-HAL_TIM_Encoder_Start_IT
	.section	.text.HAL_TIM_Encoder_Stop_IT,"ax",%progbits
	.align	1
	.p2align 2,,3
	.global	HAL_TIM_Encoder_Stop_IT
	.syntax unified
	.thumb
	.thumb_func
	.fpu fpv4-sp-d16
	.type	HAL_TIM_Encoder_Stop_IT, %function
HAL_TIM_Encoder_Stop_IT:
.LVL684:
.LFB187:
	.loc 1 3492 1 view -0
	.cfi_startproc
	@ args = 0, pretend = 0, frame = 0
	@ frame_needed = 0, uses_anonymous_args = 0
	@ link register save eliminated.
	.loc 1 3494 3 view .LVU3131
	.loc 1 3498 3 view .LVU3132
	.loc 1 3498 6 is_stmt 0 view .LVU3133
	cbnz	r1, .L1070
	.loc 1 3500 5 is_stmt 1 view .LVU3134
	ldr	r3, [r0]
.LVL685:
.LBB328:
.LBI328:
	.loc 1 8063 6 view .LVU3135
.LBB329:
	.loc 1 8065 3 view .LVU3136
	.loc 1 8068 3 view .LVU3137
	.loc 1 8069 3 view .LVU3138
	.loc 1 8071 3 view .LVU3139
	.loc 1 8074 3 view .LVU3140
	.loc 1 8074 14 is_stmt 0 view .LVU3141
	ldr	r2, [r3, #32]
	bic	r2, r2, #1
	str	r2, [r3, #32]
	.loc 1 8077 3 is_stmt 1 view .LVU3142
	.loc 1 8077 14 is_stmt 0 view .LVU3143
	ldr	r2, [r3, #32]
	str	r2, [r3, #32]
.LVL686:
	.loc 1 8077 14 view .LVU3144
.LBE329:
.LBE328:
	.loc 1 3503 5 is_stmt 1 view .LVU3145
	ldr	r2, [r3, #12]
	bic	r2, r2, #2
	str	r2, [r3, #12]
	.loc 1 3523 3 view .LVU3146
	.loc 1 3523 3 view .LVU3147
	ldr	r2, [r3, #32]
	movw	r1, #4369
.LVL687:
	.loc 1 3523 3 is_stmt 0 view .LVU3148
	tst	r2, r1
	bne	.L1078
	.loc 1 3523 3 is_stmt 1 view .LVU3149
	ldr	r1, [r3, #32]
	movw	r2, #17476
	tst	r1, r2
	bne	.L1078
	.loc 1 3523 3 view .LVU3150
	ldr	r2, [r3]
	bic	r2, r2, #1
	str	r2, [r3]
	.loc 1 3523 3 view .LVU3151
	.loc 1 3526 3 view .LVU3152
.L1078:
	.loc 1 3528 5 view .LVU3153
	movs	r3, #1
	strb	r3, [r0, #62]
	.loc 1 3529 5 view .LVU3154
	strb	r3, [r0, #68]
	.loc 1 3541 1 is_stmt 0 view .LVU3155
	movs	r0, #0
.LVL688:
	.loc 1 3541 1 view .LVU3156
	bx	lr
.LVL689:
.L1070:
	.loc 1 3505 8 is_stmt 1 view .LVU3157
	.loc 1 3505 11 is_stmt 0 view .LVU3158
	cmp	r1, #4
	.loc 1 3492 1 view .LVU3159
	push	{r4}
.LCFI90:
	.cfi_def_cfa_offset 4
	.cfi_offset 4, -4
	.loc 1 3507 5 view .LVU3160
	ldr	r3, [r0]
	.loc 1 3505 11 view .LVU3161
	beq	.L1090
	.loc 1 3514 5 is_stmt 1 view .LVU3162
.LVL690:
.LBB330:
.LBI330:
	.loc 1 8063 6 view .LVU3163
.LBB331:
	.loc 1 8065 3 view .LVU3164
	.loc 1 8068 3 view .LVU3165
	.loc 1 8069 3 view .LVU3166
	.loc 1 8071 3 view .LVU3167
	.loc 1 8074 3 view .LVU3168
	.loc 1 8074 14 is_stmt 0 view .LVU3169
	ldr	r2, [r3, #32]
	bic	r2, r2, #1
	str	r2, [r3, #32]
	.loc 1 8077 3 is_stmt 1 view .LVU3170
	.loc 1 8077 14 is_stmt 0 view .LVU3171
	ldr	r2, [r3, #32]
	str	r2, [r3, #32]
.LVL691:
	.loc 1 8077 14 view .LVU3172
.LBE331:
.LBE330:
	.loc 1 3515 5 is_stmt 1 view .LVU3173
.LBB332:
.LBI332:
	.loc 1 8063 6 view .LVU3174
.LBB333:
	.loc 1 8065 3 view .LVU3175
	.loc 1 8068 3 view .LVU3176
	.loc 1 8069 3 view .LVU3177
	.loc 1 8071 3 view .LVU3178
	.loc 1 8074 3 view .LVU3179
	.loc 1 8074 14 is_stmt 0 view .LVU3180
	ldr	r2, [r3, #32]
	bic	r2, r2, #16
	str	r2, [r3, #32]
	.loc 1 8077 3 is_stmt 1 view .LVU3181
	.loc 1 8077 14 is_stmt 0 view .LVU3182
	ldr	r2, [r3, #32]
	str	r2, [r3, #32]
.LVL692:
	.loc 1 8077 14 view .LVU3183
.LBE333:
.LBE332:
	.loc 1 3518 5 is_stmt 1 view .LVU3184
	ldr	r2, [r3, #12]
	bic	r2, r2, #2
	str	r2, [r3, #12]
	.loc 1 3519 5 view .LVU3185
	ldr	r2, [r3, #12]
	bic	r2, r2, #4
	str	r2, [r3, #12]
	.loc 1 3523 3 view .LVU3186
	.loc 1 3523 3 view .LVU3187
	ldr	r2, [r3, #32]
	movw	ip, #4369
	tst	r2, ip
	beq	.L1074
.L1076:
	.loc 1 3533 5 view .LVU3188
	movs	r3, #1
	strb	r3, [r0, #62]
	.loc 1 3534 5 view .LVU3189
	strb	r3, [r0, #63]
	.loc 1 3535 5 view .LVU3190
	strb	r3, [r0, #68]
	.loc 1 3536 5 view .LVU3191
	strb	r3, [r0, #69]
	.loc 1 3540 3 view .LVU3192
	.loc 1 3541 1 is_stmt 0 view .LVU3193
	ldr	r4, [sp], #4
.LCFI91:
	.cfi_remember_state
	.cfi_restore 4
	.cfi_def_cfa_offset 0
	movs	r0, #0
.LVL693:
	.loc 1 3541 1 view .LVU3194
	bx	lr
.LVL694:
.L1090:
.LCFI92:
	.cfi_restore_state
	.loc 1 3507 5 is_stmt 1 view .LVU3195
.LBB334:
.LBI334:
	.loc 1 8063 6 view .LVU3196
.LBB335:
	.loc 1 8065 3 view .LVU3197
	.loc 1 8068 3 view .LVU3198
	.loc 1 8069 3 view .LVU3199
	.loc 1 8071 3 view .LVU3200
	.loc 1 8074 3 view .LVU3201
	.loc 1 8074 14 is_stmt 0 view .LVU3202
	ldr	r2, [r3, #32]
	bic	r2, r2, #16
	str	r2, [r3, #32]
	.loc 1 8077 3 is_stmt 1 view .LVU3203
	.loc 1 8077 14 is_stmt 0 view .LVU3204
	ldr	r2, [r3, #32]
	str	r2, [r3, #32]
.LVL695:
	.loc 1 8077 14 view .LVU3205
.LBE335:
.LBE334:
	.loc 1 3510 5 is_stmt 1 view .LVU3206
	ldr	r2, [r3, #12]
	bic	r2, r2, #4
	str	r2, [r3, #12]
	.loc 1 3523 3 view .LVU3207
	.loc 1 3523 3 view .LVU3208
	ldr	r2, [r3, #32]
	movw	r4, #4369
	tst	r2, r4
	bne	.L1075
.L1074:
	.loc 1 3523 3 view .LVU3209
	ldr	r4, [r3, #32]
	movw	r2, #17476
	tst	r4, r2
	bne	.L1079
	.loc 1 3523 3 view .LVU3210
	ldr	r2, [r3]
	bic	r2, r2, #1
	str	r2, [r3]
	.loc 1 3523 3 view .LVU3211
	.loc 1 3526 3 view .LVU3212
.L1079:
	.loc 1 3526 34 is_stmt 0 view .LVU3213
	cmp	r1, #4
	bne	.L1076
.L1075:
	.loc 1 3528 5 is_stmt 1 discriminator 3 view .LVU3214
	movs	r3, #1
	strb	r3, [r0, #63]
	.loc 1 3529 5 discriminator 3 view .LVU3215
	strb	r3, [r0, #69]
	.loc 1 3541 1 is_stmt 0 discriminator 3 view .LVU3216
	ldr	r4, [sp], #4
.LCFI93:
	.cfi_restore 4
	.cfi_def_cfa_offset 0
	movs	r0, #0
.LVL696:
	.loc 1 3541 1 discriminator 3 view .LVU3217
	bx	lr
	.cfi_endproc
.LFE187:
	.size	HAL_TIM_Encoder_Stop_IT, .-HAL_TIM_Encoder_Stop_IT
	.section	.text.HAL_TIM_Encoder_Start_DMA,"ax",%progbits
	.align	1
	.p2align 2,,3
	.global	HAL_TIM_Encoder_Start_DMA
	.syntax unified
	.thumb
	.thumb_func
	.fpu fpv4-sp-d16
	.type	HAL_TIM_Encoder_Start_DMA, %function
HAL_TIM_Encoder_Start_DMA:
.LVL697:
.LFB188:
	.loc 1 3558 1 is_stmt 1 view -0
	.cfi_startproc
	@ args = 4, pretend = 0, frame = 0
	@ frame_needed = 0, uses_anonymous_args = 0
	.loc 1 3559 3 view .LVU3219
	.loc 1 3558 1 is_stmt 0 view .LVU3220
	push	{r3, r4, r5, r6, r7, r8, r9, lr}
.LCFI94:
	.cfi_def_cfa_offset 32
	.cfi_offset 3, -32
	.cfi_offset 4, -28
	.cfi_offset 5, -24
	.cfi_offset 6, -20
	.cfi_offset 7, -16
	.cfi_offset 8, -12
	.cfi_offset 9, -8
	.cfi_offset 14, -4
	.loc 1 3558 1 view .LVU3221
	mov	r4, r0
	.loc 1 3559 31 view .LVU3222
	ldrb	r0, [r0, #62]	@ zero_extendqisi2
.LVL698:
	.loc 1 3560 31 view .LVU3223
	ldrb	ip, [r4, #63]	@ zero_extendqisi2
	.loc 1 3558 1 view .LVU3224
	ldrh	r7, [sp, #32]
	.loc 1 3560 31 view .LVU3225
	uxtb	lr, ip
	.loc 1 3561 31 view .LVU3226
	ldrb	ip, [r4, #68]	@ zero_extendqisi2
	.loc 1 3558 1 view .LVU3227
	mov	r5, r3
	.loc 1 3559 31 view .LVU3228
	uxtb	r0, r0
.LVL699:
	.loc 1 3560 3 is_stmt 1 view .LVU3229
	.loc 1 3561 3 view .LVU3230
	.loc 1 3562 31 is_stmt 0 view .LVU3231
	ldrb	r3, [r4, #69]	@ zero_extendqisi2
.LVL700:
	.loc 1 3561 31 view .LVU3232
	uxtb	ip, ip
.LVL701:
	.loc 1 3562 3 is_stmt 1 view .LVU3233
	.loc 1 3565 3 view .LVU3234
	.loc 1 3568 3 view .LVU3235
	.loc 1 3568 6 is_stmt 0 view .LVU3236
	cmp	r1, #0
	bne	.L1092
	.loc 1 3570 5 is_stmt 1 view .LVU3237
	.loc 1 3570 8 is_stmt 0 view .LVU3238
	cmp	r0, #2
	beq	.L1093
	.loc 1 3571 9 view .LVU3239
	cmp	ip, #2
	beq	.L1104
	.loc 1 3575 10 is_stmt 1 view .LVU3240
	.loc 1 3575 13 is_stmt 0 view .LVU3241
	cmp	r0, #1
	bne	.L1095
	.loc 1 3576 14 view .LVU3242
	cmp	ip, #1
	bne	.L1095
	.loc 1 3578 7 is_stmt 1 view .LVU3243
	.loc 1 3578 10 is_stmt 0 view .LVU3244
	cmp	r2, #0
	beq	.L1095
	.loc 1 3578 28 discriminator 1 view .LVU3245
	cmp	r7, #0
	beq	.L1095
	.loc 1 3584 9 is_stmt 1 view .LVU3246
	.loc 1 3655 17 is_stmt 0 view .LVU3247
	ldr	r0, [r4, #36]
.LVL702:
	.loc 1 3584 9 view .LVU3248
	movs	r1, #2
.LVL703:
	.loc 1 3584 9 view .LVU3249
	strb	r1, [r4, #62]
	.loc 1 3585 9 is_stmt 1 view .LVU3250
	strb	r1, [r4, #68]
	.loc 1 3650 3 view .LVU3251
	.loc 1 3655 7 view .LVU3252
	.loc 1 3655 52 is_stmt 0 view .LVU3253
	ldr	r1, .L1140
	str	r1, [r0, #44]
	.loc 1 3656 7 is_stmt 1 view .LVU3254
	.loc 1 3656 56 is_stmt 0 view .LVU3255
	ldr	r1, .L1140+4
	str	r1, [r0, #48]
	.loc 1 3659 7 is_stmt 1 view .LVU3256
	.loc 1 3659 53 is_stmt 0 view .LVU3257
	ldr	r1, .L1140+8
	str	r1, [r0, #52]
	.loc 1 3662 7 is_stmt 1 view .LVU3258
	.loc 1 3662 66 is_stmt 0 view .LVU3259
	ldr	r1, [r4]
	.loc 1 3662 11 view .LVU3260
	mov	r3, r7
.LVL704:
	.loc 1 3662 11 view .LVU3261
	adds	r1, r1, #52
	bl	HAL_DMA_Start_IT
.LVL705:
	.loc 1 3662 10 view .LVU3262
	cbnz	r0, .L1095
	.loc 1 3669 7 is_stmt 1 view .LVU3263
	ldr	r3, [r4]
	ldr	r2, [r3, #12]
	orr	r2, r2, #512
	str	r2, [r3, #12]
	.loc 1 3672 7 view .LVU3264
.LVL706:
.LBB336:
.LBI336:
	.loc 1 8063 6 view .LVU3265
.LBB337:
	.loc 1 8065 3 view .LVU3266
	.loc 1 8068 3 view .LVU3267
	.loc 1 8069 3 view .LVU3268
	.loc 1 8071 3 view .LVU3269
	.loc 1 8074 3 view .LVU3270
	.loc 1 8074 14 is_stmt 0 view .LVU3271
	ldr	r2, [r3, #32]
	bic	r2, r2, #1
	str	r2, [r3, #32]
	.loc 1 8077 3 is_stmt 1 view .LVU3272
	.loc 1 8077 14 is_stmt 0 view .LVU3273
	ldr	r2, [r3, #32]
	orr	r2, r2, #1
	str	r2, [r3, #32]
.LVL707:
	.loc 1 8077 14 view .LVU3274
.LBE337:
.LBE336:
	.loc 1 3675 7 is_stmt 1 view .LVU3275
	ldr	r2, [r3]
	orr	r2, r2, #1
	str	r2, [r3]
	.loc 1 3677 7 view .LVU3276
.L1093:
	.loc 1 3757 1 is_stmt 0 view .LVU3277
	pop	{r3, r4, r5, r6, r7, r8, r9, pc}
.LVL708:
.L1092:
	.loc 1 3593 11 view .LVU3278
	cmp	r1, #4
	uxtb	r6, r3
	.loc 1 3593 8 is_stmt 1 view .LVU3279
	.loc 1 3593 11 is_stmt 0 view .LVU3280
	beq	.L1138
	.loc 1 3620 5 is_stmt 1 view .LVU3281
	.loc 1 3620 8 is_stmt 0 view .LVU3282
	cmp	r0, #2
	beq	.L1093
	.loc 1 3621 9 view .LVU3283
	cmp	lr, #2
	beq	.L1103
	.loc 1 3622 9 view .LVU3284
	cmp	ip, #2
	beq	.L1104
	.loc 1 3623 9 view .LVU3285
	cmp	r6, #2
	beq	.L1105
	.loc 1 3627 10 is_stmt 1 view .LVU3286
	.loc 1 3627 13 is_stmt 0 view .LVU3287
	cmp	r0, #1
	bne	.L1095
	.loc 1 3628 14 view .LVU3288
	cmp	lr, #1
	beq	.L1139
.LVL709:
.L1095:
	.loc 1 3590 14 view .LVU3289
	movs	r0, #1
	.loc 1 3757 1 view .LVU3290
	pop	{r3, r4, r5, r6, r7, r8, r9, pc}
.LVL710:
.L1138:
	.loc 1 3595 5 is_stmt 1 view .LVU3291
	.loc 1 3595 8 is_stmt 0 view .LVU3292
	cmp	lr, #2
	beq	.L1103
	.loc 1 3596 9 view .LVU3293
	cmp	r6, #2
	beq	.L1105
	.loc 1 3600 10 is_stmt 1 view .LVU3294
	.loc 1 3600 13 is_stmt 0 view .LVU3295
	cmp	lr, #1
	bne	.L1095
	.loc 1 3601 14 view .LVU3296
	cmp	r6, #1
	bne	.L1095
	.loc 1 3603 7 is_stmt 1 view .LVU3297
	.loc 1 3603 10 is_stmt 0 view .LVU3298
	cmp	r5, #0
	beq	.L1095
	.loc 1 3603 28 discriminator 1 view .LVU3299
	cmp	r7, #0
	beq	.L1095
	.loc 1 3609 9 is_stmt 1 view .LVU3300
	.loc 1 3683 17 is_stmt 0 view .LVU3301
	ldr	r0, [r4, #40]
.LVL711:
	.loc 1 3689 66 view .LVU3302
	ldr	r1, [r4]
.LVL712:
	.loc 1 3609 9 view .LVU3303
	movs	r2, #2
.LVL713:
	.loc 1 3609 9 view .LVU3304
	strb	r2, [r4, #63]
	.loc 1 3610 9 is_stmt 1 view .LVU3305
	strb	r2, [r4, #69]
	.loc 1 3650 3 view .LVU3306
	.loc 1 3683 7 view .LVU3307
	.loc 1 3683 52 is_stmt 0 view .LVU3308
	ldr	r2, .L1140
	str	r2, [r0, #44]
	.loc 1 3684 7 is_stmt 1 view .LVU3309
	.loc 1 3684 56 is_stmt 0 view .LVU3310
	ldr	r2, .L1140+4
	str	r2, [r0, #48]
	.loc 1 3687 7 is_stmt 1 view .LVU3311
	.loc 1 3687 53 is_stmt 0 view .LVU3312
	ldr	r2, .L1140+8
	str	r2, [r0, #52]
	.loc 1 3689 7 is_stmt 1 view .LVU3313
	.loc 1 3689 11 is_stmt 0 view .LVU3314
	mov	r3, r7
.LVL714:
	.loc 1 3689 11 view .LVU3315
	mov	r2, r5
	adds	r1, r1, #56
	bl	HAL_DMA_Start_IT
.LVL715:
	.loc 1 3689 10 view .LVU3316
	cmp	r0, #0
	bne	.L1095
	.loc 1 3696 7 is_stmt 1 view .LVU3317
	ldr	r3, [r4]
	ldr	r2, [r3, #12]
	orr	r2, r2, #1024
	str	r2, [r3, #12]
	.loc 1 3699 7 view .LVU3318
.LVL716:
.LBB338:
.LBI338:
	.loc 1 8063 6 view .LVU3319
.LBB339:
	.loc 1 8065 3 view .LVU3320
	.loc 1 8068 3 view .LVU3321
	.loc 1 8069 3 view .LVU3322
	.loc 1 8071 3 view .LVU3323
	.loc 1 8074 3 view .LVU3324
	b	.L1137
.LVL717:
.L1104:
	.loc 1 8074 3 is_stmt 0 view .LVU3325
.LBE339:
.LBE338:
	.loc 1 3573 14 view .LVU3326
	mov	r0, ip
.LVL718:
	.loc 1 3573 14 view .LVU3327
	b	.L1093
.LVL719:
.L1103:
	.loc 1 3573 14 view .LVU3328
	mov	r0, lr
.LVL720:
	.loc 1 3573 14 view .LVU3329
	b	.L1093
.LVL721:
.L1139:
	.loc 1 3629 14 view .LVU3330
	cmp	ip, #1
	bne	.L1095
	.loc 1 3630 14 view .LVU3331
	cmp	r6, #1
	bne	.L1095
	.loc 1 3632 7 is_stmt 1 view .LVU3332
	.loc 1 3632 10 is_stmt 0 view .LVU3333
	cmp	r2, #0
	beq	.L1095
	.loc 1 3632 30 discriminator 1 view .LVU3334
	cmp	r5, #0
	beq	.L1095
	.loc 1 3632 52 discriminator 2 view .LVU3335
	cmp	r7, #0
	beq	.L1095
	.loc 1 3638 9 is_stmt 1 view .LVU3336
	.loc 1 3717 66 is_stmt 0 view .LVU3337
	ldr	r1, [r4]
.LVL722:
	.loc 1 3710 17 view .LVU3338
	ldr	r0, [r4, #36]
.LVL723:
	.loc 1 3710 52 view .LVU3339
	ldr	r9, .L1140
	.loc 1 3711 56 view .LVU3340
	ldr	r8, .L1140+4
	.loc 1 3714 53 view .LVU3341
	ldr	r6, .L1140+8
	.loc 1 3638 9 view .LVU3342
	movs	r3, #2
.LVL724:
	.loc 1 3638 9 view .LVU3343
	strb	r3, [r4, #62]
	.loc 1 3639 9 is_stmt 1 view .LVU3344
	.loc 1 3717 11 is_stmt 0 view .LVU3345
	adds	r1, r1, #52
	.loc 1 3639 9 view .LVU3346
	strb	r3, [r4, #63]
	.loc 1 3640 9 is_stmt 1 view .LVU3347
	strb	r3, [r4, #68]
	.loc 1 3641 9 view .LVU3348
	strb	r3, [r4, #69]
	.loc 1 3650 3 view .LVU3349
	.loc 1 3710 7 view .LVU3350
	.loc 1 3710 52 is_stmt 0 view .LVU3351
	str	r9, [r0, #44]
	.loc 1 3711 7 is_stmt 1 view .LVU3352
	.loc 1 3711 56 is_stmt 0 view .LVU3353
	str	r8, [r0, #48]
	.loc 1 3714 7 is_stmt 1 view .LVU3354
	.loc 1 3714 53 is_stmt 0 view .LVU3355
	str	r6, [r0, #52]
	.loc 1 3717 7 is_stmt 1 view .LVU3356
	.loc 1 3717 11 is_stmt 0 view .LVU3357
	mov	r3, r7
	bl	HAL_DMA_Start_IT
.LVL725:
	.loc 1 3717 10 view .LVU3358
	cmp	r0, #0
	bne	.L1095
	.loc 1 3725 7 is_stmt 1 view .LVU3359
	.loc 1 3725 17 is_stmt 0 view .LVU3360
	ldr	r0, [r4, #40]
	.loc 1 3732 66 view .LVU3361
	ldr	r1, [r4]
	.loc 1 3729 53 view .LVU3362
	str	r6, [r0, #52]
	.loc 1 3726 56 view .LVU3363
	strd	r9, r8, [r0, #44]
	.loc 1 3729 7 is_stmt 1 view .LVU3364
	.loc 1 3732 7 view .LVU3365
	.loc 1 3732 11 is_stmt 0 view .LVU3366
	mov	r3, r7
	mov	r2, r5
	adds	r1, r1, #56
	bl	HAL_DMA_Start_IT
.LVL726:
	.loc 1 3732 10 view .LVU3367
	cmp	r0, #0
	bne	.L1095
	.loc 1 3740 7 is_stmt 1 view .LVU3368
	ldr	r3, [r4]
	ldr	r2, [r3, #12]
	orr	r2, r2, #512
	str	r2, [r3, #12]
	.loc 1 3742 7 view .LVU3369
	ldr	r2, [r3, #12]
	orr	r2, r2, #1024
	str	r2, [r3, #12]
	.loc 1 3745 7 view .LVU3370
.LVL727:
.LBB340:
.LBI340:
	.loc 1 8063 6 view .LVU3371
.LBB341:
	.loc 1 8065 3 view .LVU3372
	.loc 1 8068 3 view .LVU3373
	.loc 1 8069 3 view .LVU3374
	.loc 1 8071 3 view .LVU3375
	.loc 1 8074 3 view .LVU3376
	.loc 1 8074 14 is_stmt 0 view .LVU3377
	ldr	r2, [r3, #32]
	bic	r2, r2, #1
	str	r2, [r3, #32]
	.loc 1 8077 3 is_stmt 1 view .LVU3378
	.loc 1 8077 14 is_stmt 0 view .LVU3379
	ldr	r2, [r3, #32]
	orr	r2, r2, #1
	str	r2, [r3, #32]
.LVL728:
.L1137:
	.loc 1 8077 14 view .LVU3380
.LBE341:
.LBE340:
	.loc 1 3746 7 is_stmt 1 view .LVU3381
.LBB342:
.LBI342:
	.loc 1 8063 6 view .LVU3382
.LBB343:
	.loc 1 8065 3 view .LVU3383
	.loc 1 8068 3 view .LVU3384
	.loc 1 8069 3 view .LVU3385
	.loc 1 8071 3 view .LVU3386
	.loc 1 8074 3 view .LVU3387
	.loc 1 8074 14 is_stmt 0 view .LVU3388
	ldr	r2, [r3, #32]
	bic	r2, r2, #16
	str	r2, [r3, #32]
	.loc 1 8077 3 is_stmt 1 view .LVU3389
	.loc 1 8077 14 is_stmt 0 view .LVU3390
	ldr	r2, [r3, #32]
	orr	r2, r2, #16
	str	r2, [r3, #32]
.LVL729:
	.loc 1 8077 14 view .LVU3391
.LBE343:
.LBE342:
	.loc 1 3749 7 is_stmt 1 view .LVU3392
	ldr	r2, [r3]
	orr	r2, r2, #1
	str	r2, [r3]
	.loc 1 3751 7 view .LVU3393
	b	.L1093
.LVL730:
.L1105:
	.loc 1 3573 14 is_stmt 0 view .LVU3394
	mov	r0, r6
.LVL731:
	.loc 1 3573 14 view .LVU3395
	b	.L1093
.L1141:
	.align	2
.L1140:
	.word	TIM_DMACaptureCplt
	.word	TIM_DMACaptureHalfCplt
	.word	TIM_DMAError
	.cfi_endproc
.LFE188:
	.size	HAL_TIM_Encoder_Start_DMA, .-HAL_TIM_Encoder_Start_DMA
	.section	.text.HAL_TIM_Encoder_Stop_DMA,"ax",%progbits
	.align	1
	.p2align 2,,3
	.global	HAL_TIM_Encoder_Stop_DMA
	.syntax unified
	.thumb
	.thumb_func
	.fpu fpv4-sp-d16
	.type	HAL_TIM_Encoder_Stop_DMA, %function
HAL_TIM_Encoder_Stop_DMA:
.LVL732:
.LFB189:
	.loc 1 3770 1 is_stmt 1 view -0
	.cfi_startproc
	@ args = 0, pretend = 0, frame = 0
	@ frame_needed = 0, uses_anonymous_args = 0
	.loc 1 3772 3 view .LVU3397
	.loc 1 3776 3 view .LVU3398
	.loc 1 3770 1 is_stmt 0 view .LVU3399
	push	{r3, r4, r5, lr}
.LCFI95:
	.cfi_def_cfa_offset 16
	.cfi_offset 3, -16
	.cfi_offset 4, -12
	.cfi_offset 5, -8
	.cfi_offset 14, -4
	.loc 1 3770 1 view .LVU3400
	mov	r4, r0
	.loc 1 3776 6 view .LVU3401
	cmp	r1, #0
	beq	.L1161
	.loc 1 3784 11 view .LVU3402
	cmp	r1, #4
	.loc 1 3786 5 view .LVU3403
	ldr	r3, [r0]
	mov	r5, r1
	.loc 1 3784 8 is_stmt 1 view .LVU3404
	.loc 1 3784 11 is_stmt 0 view .LVU3405
	beq	.L1162
	.loc 1 3794 5 is_stmt 1 view .LVU3406
.LVL733:
.LBB344:
.LBI344:
	.loc 1 8063 6 view .LVU3407
.LBB345:
	.loc 1 8065 3 view .LVU3408
	.loc 1 8068 3 view .LVU3409
	.loc 1 8069 3 view .LVU3410
	.loc 1 8071 3 view .LVU3411
	.loc 1 8074 3 view .LVU3412
	.loc 1 8074 14 is_stmt 0 view .LVU3413
	ldr	r2, [r3, #32]
.LBE345:
.LBE344:
	.loc 1 3800 11 view .LVU3414
	ldr	r0, [r0, #36]
.LVL734:
.LBB347:
.LBB346:
	.loc 1 8074 14 view .LVU3415
	bic	r2, r2, #1
	str	r2, [r3, #32]
	.loc 1 8077 3 is_stmt 1 view .LVU3416
	.loc 1 8077 14 is_stmt 0 view .LVU3417
	ldr	r2, [r3, #32]
	str	r2, [r3, #32]
.LVL735:
	.loc 1 8077 14 view .LVU3418
.LBE346:
.LBE347:
	.loc 1 3795 5 is_stmt 1 view .LVU3419
.LBB348:
.LBI348:
	.loc 1 8063 6 view .LVU3420
.LBB349:
	.loc 1 8065 3 view .LVU3421
	.loc 1 8068 3 view .LVU3422
	.loc 1 8069 3 view .LVU3423
	.loc 1 8071 3 view .LVU3424
	.loc 1 8074 3 view .LVU3425
	.loc 1 8074 14 is_stmt 0 view .LVU3426
	ldr	r2, [r3, #32]
	bic	r2, r2, #16
	str	r2, [r3, #32]
	.loc 1 8077 3 is_stmt 1 view .LVU3427
	.loc 1 8077 14 is_stmt 0 view .LVU3428
	ldr	r2, [r3, #32]
	str	r2, [r3, #32]
.LVL736:
	.loc 1 8077 14 view .LVU3429
.LBE349:
.LBE348:
	.loc 1 3798 5 is_stmt 1 view .LVU3430
	ldr	r2, [r3, #12]
	bic	r2, r2, #512
	str	r2, [r3, #12]
	.loc 1 3799 5 view .LVU3431
	ldr	r2, [r3, #12]
	bic	r2, r2, #1024
	str	r2, [r3, #12]
	.loc 1 3800 5 view .LVU3432
	.loc 1 3800 11 is_stmt 0 view .LVU3433
	bl	HAL_DMA_Abort_IT
.LVL737:
	.loc 1 3801 5 is_stmt 1 view .LVU3434
	.loc 1 3801 11 is_stmt 0 view .LVU3435
	ldr	r0, [r4, #40]
	bl	HAL_DMA_Abort_IT
.LVL738:
	.loc 1 3805 3 is_stmt 1 view .LVU3436
	.loc 1 3805 3 view .LVU3437
	ldr	r3, [r4]
	ldr	r1, [r3, #32]
	movw	r2, #4369
	tst	r1, r2
	bne	.L1149
.L1147:
	.loc 1 3805 3 view .LVU3438
	ldr	r1, [r3, #32]
	movw	r2, #17476
	tst	r1, r2
	bne	.L1152
	.loc 1 3805 3 view .LVU3439
	ldr	r2, [r3]
	bic	r2, r2, #1
	str	r2, [r3]
	.loc 1 3805 3 view .LVU3440
	.loc 1 3808 3 view .LVU3441
.L1152:
	.loc 1 3808 34 is_stmt 0 view .LVU3442
	cmp	r5, #4
	beq	.L1148
.L1149:
	.loc 1 3815 5 is_stmt 1 view .LVU3443
	movs	r3, #1
	strb	r3, [r4, #62]
	.loc 1 3816 5 view .LVU3444
	strb	r3, [r4, #63]
	.loc 1 3817 5 view .LVU3445
	strb	r3, [r4, #68]
	.loc 1 3818 5 view .LVU3446
	strb	r3, [r4, #69]
	.loc 1 3822 3 view .LVU3447
	.loc 1 3823 1 is_stmt 0 view .LVU3448
	movs	r0, #0
	pop	{r3, r4, r5, pc}
.LVL739:
.L1162:
	.loc 1 3786 5 is_stmt 1 view .LVU3449
.LBB350:
.LBI350:
	.loc 1 8063 6 view .LVU3450
.LBB351:
	.loc 1 8065 3 view .LVU3451
	.loc 1 8068 3 view .LVU3452
	.loc 1 8069 3 view .LVU3453
	.loc 1 8071 3 view .LVU3454
	.loc 1 8074 3 view .LVU3455
	.loc 1 8074 14 is_stmt 0 view .LVU3456
	ldr	r2, [r3, #32]
.LBE351:
.LBE350:
	.loc 1 3790 11 view .LVU3457
	ldr	r0, [r0, #40]
.LVL740:
.LBB353:
.LBB352:
	.loc 1 8074 14 view .LVU3458
	bic	r2, r2, #16
	str	r2, [r3, #32]
	.loc 1 8077 3 is_stmt 1 view .LVU3459
	.loc 1 8077 14 is_stmt 0 view .LVU3460
	ldr	r2, [r3, #32]
	str	r2, [r3, #32]
.LVL741:
	.loc 1 8077 14 view .LVU3461
.LBE352:
.LBE353:
	.loc 1 3789 5 is_stmt 1 view .LVU3462
	ldr	r2, [r3, #12]
	bic	r2, r2, #1024
	str	r2, [r3, #12]
	.loc 1 3790 5 view .LVU3463
	.loc 1 3790 11 is_stmt 0 view .LVU3464
	bl	HAL_DMA_Abort_IT
.LVL742:
	.loc 1 3805 3 is_stmt 1 view .LVU3465
	.loc 1 3805 3 view .LVU3466
	ldr	r3, [r4]
	ldr	r1, [r3, #32]
	movw	r2, #4369
	tst	r1, r2
	beq	.L1147
.L1148:
	.loc 1 3810 5 discriminator 3 view .LVU3467
	movs	r3, #1
	strb	r3, [r4, #63]
	.loc 1 3811 5 discriminator 3 view .LVU3468
	strb	r3, [r4, #69]
	.loc 1 3823 1 is_stmt 0 discriminator 3 view .LVU3469
	movs	r0, #0
	pop	{r3, r4, r5, pc}
.LVL743:
.L1161:
	.loc 1 3778 5 is_stmt 1 view .LVU3470
	ldr	r3, [r0]
.LVL744:
.LBB354:
.LBI354:
	.loc 1 8063 6 view .LVU3471
.LBB355:
	.loc 1 8065 3 view .LVU3472
	.loc 1 8068 3 view .LVU3473
	.loc 1 8069 3 view .LVU3474
	.loc 1 8071 3 view .LVU3475
	.loc 1 8074 3 view .LVU3476
.LBE355:
.LBE354:
	.loc 1 3782 11 is_stmt 0 view .LVU3477
	ldr	r0, [r0, #36]
.LVL745:
.LBB357:
.LBB356:
	.loc 1 8074 14 view .LVU3478
	ldr	r2, [r3, #32]
	bic	r2, r2, #1
	str	r2, [r3, #32]
	.loc 1 8077 3 is_stmt 1 view .LVU3479
	.loc 1 8077 14 is_stmt 0 view .LVU3480
	ldr	r2, [r3, #32]
	str	r2, [r3, #32]
.LVL746:
	.loc 1 8077 14 view .LVU3481
.LBE356:
.LBE357:
	.loc 1 3781 5 is_stmt 1 view .LVU3482
	ldr	r2, [r3, #12]
	bic	r2, r2, #512
	str	r2, [r3, #12]
	.loc 1 3782 5 view .LVU3483
	.loc 1 3782 11 is_stmt 0 view .LVU3484
	bl	HAL_DMA_Abort_IT
.LVL747:
	.loc 1 3805 3 is_stmt 1 view .LVU3485
	.loc 1 3805 3 view .LVU3486
	ldr	r3, [r4]
	ldr	r1, [r3, #32]
	movw	r2, #4369
	tst	r1, r2
	bne	.L1151
	.loc 1 3805 3 view .LVU3487
	ldr	r1, [r3, #32]
	movw	r2, #17476
	tst	r1, r2
	bne	.L1151
	.loc 1 3805 3 view .LVU3488
	ldr	r2, [r3]
	bic	r2, r2, #1
	str	r2, [r3]
	.loc 1 3805 3 view .LVU3489
	.loc 1 3808 3 view .LVU3490
.L1151:
	.loc 1 3810 5 view .LVU3491
	movs	r3, #1
	strb	r3, [r4, #62]
	.loc 1 3811 5 view .LVU3492
	strb	r3, [r4, #68]
	.loc 1 3823 1 is_stmt 0 view .LVU3493
	movs	r0, #0
	pop	{r3, r4, r5, pc}
	.loc 1 3823 1 view .LVU3494
	.cfi_endproc
.LFE189:
	.size	HAL_TIM_Encoder_Stop_DMA, .-HAL_TIM_Encoder_Stop_DMA
	.section	.text.HAL_TIM_IC_ConfigChannel,"ax",%progbits
	.align	1
	.p2align 2,,3
	.global	HAL_TIM_IC_ConfigChannel
	.syntax unified
	.thumb
	.thumb_func
	.fpu fpv4-sp-d16
	.type	HAL_TIM_IC_ConfigChannel, %function
HAL_TIM_IC_ConfigChannel:
.LVL748:
.LFB192:
	.loc 1 4232 1 is_stmt 1 view -0
	.cfi_startproc
	@ args = 0, pretend = 0, frame = 0
	@ frame_needed = 0, uses_anonymous_args = 0
	@ link register save eliminated.
	.loc 1 4233 3 view .LVU3496
	.loc 1 4236 3 view .LVU3497
	.loc 1 4237 3 view .LVU3498
	.loc 1 4238 3 view .LVU3499
	.loc 1 4239 3 view .LVU3500
	.loc 1 4240 3 view .LVU3501
	.loc 1 4243 3 view .LVU3502
	.loc 1 4243 3 view .LVU3503
	.loc 1 4232 1 is_stmt 0 view .LVU3504
	mov	r3, r0
	.loc 1 4243 3 view .LVU3505
	ldrb	r0, [r0, #60]	@ zero_extendqisi2
.LVL749:
	.loc 1 4243 3 view .LVU3506
	cmp	r0, #1
	beq	.L1171
	.loc 1 4243 3 is_stmt 1 discriminator 2 view .LVU3507
	movs	r0, #1
	.loc 1 4232 1 is_stmt 0 discriminator 2 view .LVU3508
	push	{r4, r5, r6, r7}
.LCFI96:
	.cfi_def_cfa_offset 16
	.cfi_offset 4, -16
	.cfi_offset 5, -12
	.cfi_offset 6, -8
	.cfi_offset 7, -4
	.loc 1 4243 3 discriminator 2 view .LVU3509
	strb	r0, [r3, #60]
	.loc 1 4243 3 is_stmt 1 discriminator 2 view .LVU3510
	.loc 1 4245 3 discriminator 2 view .LVU3511
	.loc 1 4245 6 is_stmt 0 discriminator 2 view .LVU3512
	cbz	r2, .L1180
	.loc 1 4259 8 is_stmt 1 view .LVU3513
	.loc 1 4259 11 is_stmt 0 view .LVU3514
	cmp	r2, #4
	beq	.L1181
	.loc 1 4275 8 is_stmt 1 view .LVU3515
	.loc 1 4275 11 is_stmt 0 view .LVU3516
	cmp	r2, #8
	beq	.L1182
	.loc 1 4291 8 is_stmt 1 view .LVU3517
	.loc 1 4291 11 is_stmt 0 view .LVU3518
	cmp	r2, #12
	beq	.L1183
.LVL750:
.L1168:
	.loc 1 4312 3 is_stmt 1 view .LVU3519
	.loc 1 4312 3 view .LVU3520
	movs	r2, #0
	strb	r2, [r3, #60]
	.loc 1 4312 3 view .LVU3521
	.loc 1 4314 3 view .LVU3522
	.loc 1 4315 1 is_stmt 0 view .LVU3523
	pop	{r4, r5, r6, r7}
.LCFI97:
	.cfi_remember_state
